ARM GAS  C:\Users\alex\AppData\Local\Temp\ccrAtNPo.s 			page 1


   1              		.syntax unified
   2              		.cpu cortex-m3
   3              		.fpu softvfp
   4              		.eabi_attribute 20, 1
   5              		.eabi_attribute 21, 1
   6              		.eabi_attribute 23, 3
   7              		.eabi_attribute 24, 1
   8              		.eabi_attribute 25, 1
   9              		.eabi_attribute 26, 1
  10              		.eabi_attribute 30, 6
  11              		.eabi_attribute 34, 1
  12              		.eabi_attribute 18, 4
  13              		.thumb
  14              		.syntax unified
  15              		.file	"app.c"
  16              		.text
  17              	.Ltext0:
  18              		.cfi_sections	.debug_frame
  19              		.bss
  20              		.align	2
  21              	App_TaskStartTCB:
  22 0000 00000000 		.space	192
  22      00000000 
  22      00000000 
  22      00000000 
  22      00000000 
  23              		.align	2
  24              	App_TaskStartStk:
  25 00c0 00000000 		.space	512
  25      00000000 
  25      00000000 
  25      00000000 
  25      00000000 
  26              		.align	2
  27              	App_TaskUserIF_TCB:
  28 02c0 00000000 		.space	192
  28      00000000 
  28      00000000 
  28      00000000 
  28      00000000 
  29              		.align	2
  30              	App_TaskUserIFStk:
  31 0380 00000000 		.space	512
  31      00000000 
  31      00000000 
  31      00000000 
  31      00000000 
  32              		.align	2
  33              	App_Task_Ihm_TCB:
  34 0580 00000000 		.space	192
  34      00000000 
  34      00000000 
  34      00000000 
  34      00000000 
  35              		.align	2
  36              	App_Task_Ihm_Stk:
  37 0640 00000000 		.space	512
ARM GAS  C:\Users\alex\AppData\Local\Temp\ccrAtNPo.s 			page 2


  37      00000000 
  37      00000000 
  37      00000000 
  37      00000000 
  38              		.align	2
  39              	App_Task_Emerg_TCB:
  40 0840 00000000 		.space	192
  40      00000000 
  40      00000000 
  40      00000000 
  40      00000000 
  41              		.align	2
  42              	App_Task_Emerg_Stk:
  43 0900 00000000 		.space	512
  43      00000000 
  43      00000000 
  43      00000000 
  43      00000000 
  44              		.align	2
  45              	App_Task_Sen_Mec_TCB:
  46 0b00 00000000 		.space	192
  46      00000000 
  46      00000000 
  46      00000000 
  46      00000000 
  47              		.align	2
  48              	App_Task_Sen_Mec_Stk:
  49 0bc0 00000000 		.space	512
  49      00000000 
  49      00000000 
  49      00000000 
  49      00000000 
  50              		.align	2
  51              	App_Task_Sen_Temp_TCB:
  52 0dc0 00000000 		.space	192
  52      00000000 
  52      00000000 
  52      00000000 
  52      00000000 
  53              		.align	2
  54              	App_Task_Sen_Temp_Stk:
  55 0e80 00000000 		.space	512
  55      00000000 
  55      00000000 
  55      00000000 
  55      00000000 
  56              		.align	2
  57              	App_Task_Display_TCB:
  58 1080 00000000 		.space	192
  58      00000000 
  58      00000000 
  58      00000000 
  58      00000000 
  59              		.align	2
  60              	App_Task_Display_Stk:
  61 1140 00000000 		.space	512
  61      00000000 
ARM GAS  C:\Users\alex\AppData\Local\Temp\ccrAtNPo.s 			page 3


  61      00000000 
  61      00000000 
  61      00000000 
  62              		.global	motor
  63              		.type	motor, %object
  64              		.size	motor, 1
  65              	motor:
  66 1340 00       		.space	1
  67              		.global	emerg
  68              		.type	emerg, %object
  69              		.size	emerg, 1
  70              	emerg:
  71 1341 00       		.space	1
  72              		.global	rearme
  73              		.data
  74              		.type	rearme, %object
  75              		.size	rearme, 1
  76              	rearme:
  77 0000 01       		.byte	1
  78              		.global	alerta
  79              		.bss
  80              		.type	alerta, %object
  81              		.size	alerta, 1
  82              	alerta:
  83 1342 00       		.space	1
  84              		.global	tempM
  85 1343 00       		.align	2
  86              		.type	tempM, %object
  87              		.size	tempM, 4
  88              	tempM:
  89 1344 00000000 		.space	4
  90              		.global	tempQ
  91              		.align	2
  92              		.type	tempQ, %object
  93              		.size	tempQ, 4
  94              	tempQ:
  95 1348 00000000 		.space	4
  96              		.section	.text.se_indut_porta_Handler,"ax",%progbits
  97              		.align	2
  98              		.global	se_indut_porta_Handler
  99              		.thumb
 100              		.thumb_func
 101              		.type	se_indut_porta_Handler, %function
 102              	se_indut_porta_Handler:
 103              	.LFB64:
 104              		.file 1 "..\\app.c"
   1:..\app.c      **** /*
   2:..\app.c      **** ***************************************************************************************************
   3:..\app.c      **** *                                              EXAMPLE CODE
   4:..\app.c      **** *
   5:..\app.c      **** *                             (c) Copyright 2012; Micrium, Inc.; Weston, FL
   6:..\app.c      **** *
   7:..\app.c      **** *               All rights reserved.  Protected by international copyright laws.
   8:..\app.c      **** *               Knowledge of the source code may NOT be used to develop a similar product.
   9:..\app.c      **** *               Please help us continue to provide the Embedded community with the finest
  10:..\app.c      **** *               software available.  Your honesty is greatly appreciated.
  11:..\app.c      **** ***************************************************************************************************
ARM GAS  C:\Users\alex\AppData\Local\Temp\ccrAtNPo.s 			page 4


  12:..\app.c      **** */
  13:..\app.c      **** 
  14:..\app.c      **** /*
  15:..\app.c      **** ***************************************************************************************************
  16:..\app.c      **** *
  17:..\app.c      **** *                                           EXAMPLE CODE
  18:..\app.c      **** *
  19:..\app.c      **** *                                           CYPRESS PSoC5
  20:..\app.c      **** *                                              with the
  21:..\app.c      **** *                                     CY8CKIT-050 Development Kit
  22:..\app.c      **** *
  23:..\app.c      **** * Filename      : app.c
  24:..\app.c      **** * Version       : V1.00
  25:..\app.c      **** * Programmer(s) : DC
  26:..\app.c      ****                   
  27:..\app.c      **** ***************************************************************************************************
  28:..\app.c      **** */
  29:..\app.c      **** 
  30:..\app.c      **** /*
  31:..\app.c      **** ***************************************************************************************************
  32:..\app.c      **** *                                             INCLUDE FILES
  33:..\app.c      **** ***************************************************************************************************
  34:..\app.c      **** */
  35:..\app.c      **** 
  36:..\app.c      **** #include <includes.h>
  37:..\app.c      **** #include <project.h>                /* incluindo api do psoc */
  38:..\app.c      **** //#include <math.h>                   // biblioteca matematica padrao do C - para calc de temperatu
  39:..\app.c      **** 
  40:..\app.c      **** //////////////// comentario teste - apagar
  41:..\app.c      **** //////////////// outro comentario de teste
  42:..\app.c      **** /*
  43:..\app.c      **** ***************************************************************************************************
  44:..\app.c      **** *                                             LOCAL DEFINES
  45:..\app.c      **** ***************************************************************************************************
  46:..\app.c      **** */
  47:..\app.c      **** 
  48:..\app.c      **** #define  APP_USER_IF_SIGN_ON                        0u
  49:..\app.c      **** #define  APP_USER_IF_VER_TICK_RATE                  1u
  50:..\app.c      **** #define  APP_USER_IF_CPU                            2u
  51:..\app.c      **** #define  APP_USER_IF_CTXSW                          3u
  52:..\app.c      **** #define  APP_USER_IF_STATE_MAX                      4u
  53:..\app.c      **** 
  54:..\app.c      **** #define LIGA 1
  55:..\app.c      **** #define DESL 0
  56:..\app.c      **** 
  57:..\app.c      **** #define DEBOUNCE    100u                               // tempo de debounce para botoes
  58:..\app.c      **** #define NTC_B       4275.0                              // constante B do termistor
  59:..\app.c      **** #define NTC_R0      100000.0                            // R0 = 100k kit grove
  60:..\app.c      **** 
  61:..\app.c      **** 
  62:..\app.c      **** /*
  63:..\app.c      **** ***************************************************************************************************
  64:..\app.c      **** *                                            LOCAL VARIABLES
  65:..\app.c      **** ***************************************************************************************************
  66:..\app.c      **** */
  67:..\app.c      **** 
  68:..\app.c      **** static  OS_TCB      App_TaskStartTCB;
ARM GAS  C:\Users\alex\AppData\Local\Temp\ccrAtNPo.s 			page 5


  69:..\app.c      **** static  CPU_STK     App_TaskStartStk[APP_CFG_TASK_START_STK_SIZE];
  70:..\app.c      **** 
  71:..\app.c      **** static  OS_TCB      App_TaskUserIF_TCB;
  72:..\app.c      **** static  CPU_STK     App_TaskUserIFStk[APP_CFG_TASK_USER_IF_STK_SIZE];
  73:..\app.c      **** 
  74:..\app.c      ****                                                                         // criando as estruras do T
  75:..\app.c      **** static  OS_TCB      App_Task_Ihm_TCB;
  76:..\app.c      **** static  CPU_STK     App_Task_Ihm_Stk[APP_CFG_TASK_IHM_STK_SIZE];
  77:..\app.c      **** 
  78:..\app.c      ****                                                                         // criando as estruras do T
  79:..\app.c      **** static  OS_TCB      App_Task_Emerg_TCB;
  80:..\app.c      **** static  CPU_STK     App_Task_Emerg_Stk[APP_CFG_TASK_EMERG_STK_SIZE];
  81:..\app.c      **** 
  82:..\app.c      ****                                                                         // criando as estruras do T
  83:..\app.c      **** static  OS_TCB      App_Task_Sen_Mec_TCB;
  84:..\app.c      **** static  CPU_STK     App_Task_Sen_Mec_Stk[APP_CFG_TASK_SEN_MEC_STK_SIZE];
  85:..\app.c      **** 
  86:..\app.c      ****                                                                         // criando as estruras do T
  87:..\app.c      **** static  OS_TCB      App_Task_Sen_Temp_TCB;
  88:..\app.c      **** static  CPU_STK     App_Task_Sen_Temp_Stk[APP_CFG_TASK_SEN_TEMP_STK_SIZE];
  89:..\app.c      **** 
  90:..\app.c      ****                                                                         // criando as estruras do T
  91:..\app.c      **** static  OS_TCB      App_Task_Display_TCB;
  92:..\app.c      **** static  CPU_STK     App_Task_Display_Stk[APP_CFG_TASK_DISPLAY_STK_SIZE];
  93:..\app.c      **** 
  94:..\app.c      **** 
  95:..\app.c      ****         CPU_INT08U  motor   = 0,                                        // estado do motor - 1: lig
  96:..\app.c      ****                     emerg   = 0,                                        // var. para monitorar esta
  97:..\app.c      ****                     rearme  = 1,                                        // var. para monitorar esta
  98:..\app.c      ****                     alerta  = 0;                                        // var. para monitorar esta
  99:..\app.c      ****                     
 100:..\app.c      **** 
 101:..\app.c      ****         float       tempM = 0,                                          // var. para temperatura do
 102:..\app.c      ****                     tempQ = 0;                                          // var. para temperatura do
 103:..\app.c      **** 
 104:..\app.c      **** /*
 105:..\app.c      **** ***************************************************************************************************
 106:..\app.c      **** *                                         FUNCTION PROTOTYPES
 107:..\app.c      **** ***************************************************************************************************
 108:..\app.c      **** */
 109:..\app.c      **** 
 110:..\app.c      **** static  void  App_TaskStart  (void *p_arg);
 111:..\app.c      **** 
 112:..\app.c      **** static  void  App_TaskUserIF (void *p_arg);
 113:..\app.c      **** 
 114:..\app.c      **** static  void  App_TaskCreate (void);
 115:..\app.c      **** static  void  App_ObjCreate  (void);
 116:..\app.c      **** 
 117:..\app.c      **** static  void  App_Task_Ihm      (void *p_arg);             /* prototipo da funcao que define a task
 118:..\app.c      **** static  void  App_Task_Emerg    (void *p_arg);             /* prototipo da funcao que define a task
 119:..\app.c      **** static  void  App_Task_Sen_Mec  (void *p_arg);             /* prototipo da funcao que define a task
 120:..\app.c      **** static  void  App_Task_Sen_Temp (void *p_arg);             /* prototipo da funcao que define a task
 121:..\app.c      **** static  void  App_Task_Display  (void *p_arg);             /* prototipo da funcao que define a task
 122:..\app.c      **** 
 123:..\app.c      ****         void  statusMotor    (CPU_INT08U op);
 124:..\app.c      ****         void  statusRearme   (CPU_INT08U op);
 125:..\app.c      ****         void  statusEmerg    (CPU_INT08U op);
ARM GAS  C:\Users\alex\AppData\Local\Temp\ccrAtNPo.s 			page 6


 126:..\app.c      ****         void  statusAlerta   (CPU_INT08U op);
 127:..\app.c      **** 
 128:..\app.c      ****         
 129:..\app.c      **** /*
 130:..\app.c      **** ***************************************************************************************************
 131:..\app.c      **** *                                         ISR HANDLERS
 132:..\app.c      **** ***************************************************************************************************
 133:..\app.c      **** */
 134:..\app.c      **** 
 135:..\app.c      **** CY_ISR(se_indut_porta_Handler){                     // implementando rotina de tratamento de interr
 105              		.loc 1 135 0
 106              		.cfi_startproc
 107              		@ args = 0, pretend = 0, frame = 0
 108              		@ frame_needed = 1, uses_anonymous_args = 0
 109 0000 80B5     		push	{r7, lr}
 110              		.cfi_def_cfa_offset 8
 111              		.cfi_offset 7, -8
 112              		.cfi_offset 14, -4
 113 0002 00AF     		add	r7, sp, #0
 114              		.cfi_def_cfa_register 7
 136:..\app.c      ****     
 137:..\app.c      ****      // tratando debounce do botão
 138:..\app.c      ****     OSTimeDly(DEBOUNCE,OS_ERR_TIME_DLY_ISR, NULL);
 115              		.loc 1 138 0
 116 0004 0022     		movs	r2, #0
 117 0006 47F27521 		movw	r1, #29301
 118 000a 6420     		movs	r0, #100
 119 000c FFF7FEFF 		bl	OSTimeDly
 139:..\app.c      ****     
 140:..\app.c      ****                                                     // trata sens. indut da protecao mec. da porta
 141:..\app.c      ****     statusMotor(DESL);
 120              		.loc 1 141 0
 121 0010 0020     		movs	r0, #0
 122 0012 FFF7FEFF 		bl	statusMotor
 142:..\app.c      ****     statusRearme(LIGA);
 123              		.loc 1 142 0
 124 0016 0120     		movs	r0, #1
 125 0018 FFF7FEFF 		bl	statusRearme
 143:..\app.c      ****     statusAlerta(LIGA);
 126              		.loc 1 143 0
 127 001c 0120     		movs	r0, #1
 128 001e FFF7FEFF 		bl	statusAlerta
 144:..\app.c      ****         
 145:..\app.c      ****     se_indut_porta_ClearInterrupt();                // limpa flag de interrupçao
 129              		.loc 1 145 0
 130 0022 FFF7FEFF 		bl	se_indut_porta_ClearInterrupt
 146:..\app.c      ****     
 147:..\app.c      ****     
 148:..\app.c      **** }
 131              		.loc 1 148 0
 132 0026 00BF     		nop
 133 0028 80BD     		pop	{r7, pc}
 134              		.cfi_endproc
 135              	.LFE64:
 136              		.size	se_indut_porta_Handler, .-se_indut_porta_Handler
 137 002a 00BF     		.section	.text.se_indut_motor_Handler,"ax",%progbits
 138              		.align	2
ARM GAS  C:\Users\alex\AppData\Local\Temp\ccrAtNPo.s 			page 7


 139              		.global	se_indut_motor_Handler
 140              		.thumb
 141              		.thumb_func
 142              		.type	se_indut_motor_Handler, %function
 143              	se_indut_motor_Handler:
 144              	.LFB65:
 149:..\app.c      **** 
 150:..\app.c      **** CY_ISR(se_indut_motor_Handler){                     // implementando rotina de tratamento de interr
 145              		.loc 1 150 0
 146              		.cfi_startproc
 147              		@ args = 0, pretend = 0, frame = 0
 148              		@ frame_needed = 1, uses_anonymous_args = 0
 149 0000 80B5     		push	{r7, lr}
 150              		.cfi_def_cfa_offset 8
 151              		.cfi_offset 7, -8
 152              		.cfi_offset 14, -4
 153 0002 00AF     		add	r7, sp, #0
 154              		.cfi_def_cfa_register 7
 151:..\app.c      ****   
 152:..\app.c      ****     // tratando debounce do botão
 153:..\app.c      ****     OSTimeDly(DEBOUNCE,OS_ERR_TIME_DLY_ISR, NULL);
 155              		.loc 1 153 0
 156 0004 0022     		movs	r2, #0
 157 0006 47F27521 		movw	r1, #29301
 158 000a 6420     		movs	r0, #100
 159 000c FFF7FEFF 		bl	OSTimeDly
 154:..\app.c      ****     
 155:..\app.c      ****                                                     // trata sens. indut da protecao mec. do motor
 156:..\app.c      ****     statusMotor(DESL);
 160              		.loc 1 156 0
 161 0010 0020     		movs	r0, #0
 162 0012 FFF7FEFF 		bl	statusMotor
 157:..\app.c      ****     statusRearme(LIGA);
 163              		.loc 1 157 0
 164 0016 0120     		movs	r0, #1
 165 0018 FFF7FEFF 		bl	statusRearme
 158:..\app.c      ****     statusAlerta(LIGA);
 166              		.loc 1 158 0
 167 001c 0120     		movs	r0, #1
 168 001e FFF7FEFF 		bl	statusAlerta
 159:..\app.c      ****     
 160:..\app.c      ****     se_indut_motor_ClearInterrupt();                // limpa flag de interrupçao
 169              		.loc 1 160 0
 170 0022 FFF7FEFF 		bl	se_indut_motor_ClearInterrupt
 161:..\app.c      ****     
 162:..\app.c      **** }
 171              		.loc 1 162 0
 172 0026 00BF     		nop
 173 0028 80BD     		pop	{r7, pc}
 174              		.cfi_endproc
 175              	.LFE65:
 176              		.size	se_indut_motor_Handler, .-se_indut_motor_Handler
 177 002a 00BF     		.section	.text.bt_emerg_int_Handler,"ax",%progbits
 178              		.align	2
 179              		.global	bt_emerg_int_Handler
 180              		.thumb
 181              		.thumb_func
ARM GAS  C:\Users\alex\AppData\Local\Temp\ccrAtNPo.s 			page 8


 182              		.type	bt_emerg_int_Handler, %function
 183              	bt_emerg_int_Handler:
 184              	.LFB66:
 163:..\app.c      **** 
 164:..\app.c      **** CY_ISR(bt_emerg_int_Handler){                       // implementando rotina de tratamento de interr
 185              		.loc 1 164 0
 186              		.cfi_startproc
 187              		@ args = 0, pretend = 0, frame = 0
 188              		@ frame_needed = 1, uses_anonymous_args = 0
 189 0000 80B5     		push	{r7, lr}
 190              		.cfi_def_cfa_offset 8
 191              		.cfi_offset 7, -8
 192              		.cfi_offset 14, -4
 193 0002 00AF     		add	r7, sp, #0
 194              		.cfi_def_cfa_register 7
 165:..\app.c      ****     
 166:..\app.c      ****     
 167:..\app.c      ****                                                     // tratando debounce do botão
 168:..\app.c      ****     OSTimeDly(200,OS_ERR_TIME_DLY_ISR, NULL);
 195              		.loc 1 168 0
 196 0004 0022     		movs	r2, #0
 197 0006 47F27521 		movw	r1, #29301
 198 000a C820     		movs	r0, #200
 199 000c FFF7FEFF 		bl	OSTimeDly
 169:..\app.c      ****     statusMotor(DESL);
 200              		.loc 1 169 0
 201 0010 0020     		movs	r0, #0
 202 0012 FFF7FEFF 		bl	statusMotor
 170:..\app.c      ****     statusRearme(LIGA);
 203              		.loc 1 170 0
 204 0016 0120     		movs	r0, #1
 205 0018 FFF7FEFF 		bl	statusRearme
 171:..\app.c      ****     statusEmerg(LIGA);
 206              		.loc 1 171 0
 207 001c 0120     		movs	r0, #1
 208 001e FFF7FEFF 		bl	statusEmerg
 172:..\app.c      **** 
 173:..\app.c      ****     bt_emerg_ClearInterrupt();                      // limpa flag de interrupçao
 209              		.loc 1 173 0
 210 0022 FFF7FEFF 		bl	bt_emerg_ClearInterrupt
 174:..\app.c      ****     
 175:..\app.c      **** }
 211              		.loc 1 175 0
 212 0026 00BF     		nop
 213 0028 80BD     		pop	{r7, pc}
 214              		.cfi_endproc
 215              	.LFE66:
 216              		.size	bt_emerg_int_Handler, .-bt_emerg_int_Handler
 217 002a 00BF     		.section	.rodata
 218              		.align	2
 219              	.LC0:
 220 0000 53746172 		.ascii	"Start\000"
 220      7400
 221              		.section	.text.main,"ax",%progbits
 222              		.align	2
 223              		.global	main
 224              		.thumb
ARM GAS  C:\Users\alex\AppData\Local\Temp\ccrAtNPo.s 			page 9


 225              		.thumb_func
 226              		.type	main, %function
 227              	main:
 228              	.LFB67:
 176:..\app.c      **** 
 177:..\app.c      ****  
 178:..\app.c      **** 
 179:..\app.c      **** /*
 180:..\app.c      **** ***************************************************************************************************
 181:..\app.c      **** *                                                main()
 182:..\app.c      **** *
 183:..\app.c      **** * Description : This is the standard entry point for C code.  It is assumed that your code will cal
 184:..\app.c      **** *               main() once you have performed all necessary initialization.
 185:..\app.c      **** *
 186:..\app.c      **** * Argument(s) : none
 187:..\app.c      **** *
 188:..\app.c      **** * Return(s)   : none
 189:..\app.c      **** *
 190:..\app.c      **** * Caller(s)   : Startup Code.
 191:..\app.c      **** *
 192:..\app.c      **** * Note(s)     : none.
 193:..\app.c      **** ***************************************************************************************************
 194:..\app.c      **** */
 195:..\app.c      **** 
 196:..\app.c      **** int  main (void)
 197:..\app.c      **** {
 229              		.loc 1 197 0
 230              		.cfi_startproc
 231              		@ args = 0, pretend = 0, frame = 8
 232              		@ frame_needed = 1, uses_anonymous_args = 0
 233 0000 80B5     		push	{r7, lr}
 234              		.cfi_def_cfa_offset 8
 235              		.cfi_offset 7, -8
 236              		.cfi_offset 14, -4
 237 0002 8CB0     		sub	sp, sp, #48
 238              		.cfi_def_cfa_offset 56
 239 0004 0AAF     		add	r7, sp, #40
 240              		.cfi_def_cfa 7, 16
 198:..\app.c      ****     
 199:..\app.c      **** 
 200:..\app.c      ****     se_indut_porta_int_StartEx(se_indut_porta_Handler);         // habilita ISR do pino
 241              		.loc 1 200 0
 242 0006 1948     		ldr	r0, .L6
 243 0008 FFF7FEFF 		bl	se_indut_porta_int_StartEx
 201:..\app.c      ****     se_indut_motor_int_StartEx(se_indut_motor_Handler);         // habilita ISR do pino
 244              		.loc 1 201 0
 245 000c 1848     		ldr	r0, .L6+4
 246 000e FFF7FEFF 		bl	se_indut_motor_int_StartEx
 202:..\app.c      ****     bt_emerg_int_StartEx(bt_emerg_int_Handler);                 // habilita ISR do pino
 247              		.loc 1 202 0
 248 0012 1848     		ldr	r0, .L6+8
 249 0014 FFF7FEFF 		bl	bt_emerg_int_StartEx
 203:..\app.c      ****     
 204:..\app.c      ****     OS_ERR  os_err;
 205:..\app.c      **** 
 206:..\app.c      **** 
 207:..\app.c      ****     BSP_PreInit();                                              /* Perform BSP pre-initialization. 
ARM GAS  C:\Users\alex\AppData\Local\Temp\ccrAtNPo.s 			page 10


 250              		.loc 1 207 0
 251 0018 FFF7FEFF 		bl	BSP_PreInit
 208:..\app.c      **** 
 209:..\app.c      ****     CPU_Init();                                                 /* Initialize the uC/CPU services  
 252              		.loc 1 209 0
 253 001c FFF7FEFF 		bl	CPU_Init
 210:..\app.c      **** 
 211:..\app.c      ****     OSInit(&os_err);                                            /* Init uC/OS-III.                 
 254              		.loc 1 211 0
 255 0020 BB1D     		adds	r3, r7, #6
 256 0022 1846     		mov	r0, r3
 257 0024 FFF7FEFF 		bl	OSInit
 212:..\app.c      **** 
 213:..\app.c      ****     OSTaskCreate((OS_TCB      *)&App_TaskStartTCB,              /* Create the start task           
 258              		.loc 1 213 0
 259 0028 BB1D     		adds	r3, r7, #6
 260 002a 0893     		str	r3, [sp, #32]
 261 002c 0323     		movs	r3, #3
 262 002e 0793     		str	r3, [sp, #28]
 263 0030 0023     		movs	r3, #0
 264 0032 0693     		str	r3, [sp, #24]
 265 0034 0023     		movs	r3, #0
 266 0036 0593     		str	r3, [sp, #20]
 267 0038 0023     		movs	r3, #0
 268 003a 0493     		str	r3, [sp, #16]
 269 003c 8023     		movs	r3, #128
 270 003e 0393     		str	r3, [sp, #12]
 271 0040 0C23     		movs	r3, #12
 272 0042 0293     		str	r3, [sp, #8]
 273 0044 0C4B     		ldr	r3, .L6+12
 274 0046 0193     		str	r3, [sp, #4]
 275 0048 0223     		movs	r3, #2
 276 004a 0093     		str	r3, [sp]
 277 004c 0023     		movs	r3, #0
 278 004e 0B4A     		ldr	r2, .L6+16
 279 0050 0B49     		ldr	r1, .L6+20
 280 0052 0C48     		ldr	r0, .L6+24
 281 0054 FFF7FEFF 		bl	OSTaskCreate
 214:..\app.c      ****                  (CPU_CHAR    *)"Start",
 215:..\app.c      ****                  (OS_TASK_PTR  )App_TaskStart, 
 216:..\app.c      ****                  (void        *)0,
 217:..\app.c      ****                  (OS_PRIO      )APP_CFG_TASK_START_PRIO,
 218:..\app.c      ****                  (CPU_STK     *)&App_TaskStartStk[0],
 219:..\app.c      ****                  (CPU_STK_SIZE )APP_CFG_TASK_START_STK_SIZE_LIMIT,
 220:..\app.c      ****                  (CPU_STK_SIZE )APP_CFG_TASK_START_STK_SIZE,
 221:..\app.c      ****                  (OS_MSG_QTY   )0u,
 222:..\app.c      ****                  (OS_TICK      )0u,
 223:..\app.c      ****                  (void        *)0,
 224:..\app.c      ****                  (OS_OPT       )(OS_OPT_TASK_STK_CHK | OS_OPT_TASK_STK_CLR),
 225:..\app.c      ****                  (OS_ERR      *)&os_err);
 226:..\app.c      **** 
 227:..\app.c      ****     OSStart(&os_err);                                            /* Start multitasking (i.e. give c
 282              		.loc 1 227 0
 283 0058 BB1D     		adds	r3, r7, #6
 284 005a 1846     		mov	r0, r3
 285 005c FFF7FEFF 		bl	OSStart
 286 0060 0023     		movs	r3, #0
ARM GAS  C:\Users\alex\AppData\Local\Temp\ccrAtNPo.s 			page 11


 228:..\app.c      ****     
 229:..\app.c      ****     
 230:..\app.c      ****     
 231:..\app.c      **** }
 287              		.loc 1 231 0
 288 0062 1846     		mov	r0, r3
 289 0064 0837     		adds	r7, r7, #8
 290              		.cfi_def_cfa_offset 8
 291 0066 BD46     		mov	sp, r7
 292              		.cfi_def_cfa_register 13
 293              		@ sp needed
 294 0068 80BD     		pop	{r7, pc}
 295              	.L7:
 296 006a 00BF     		.align	2
 297              	.L6:
 298 006c 00000000 		.word	se_indut_porta_Handler
 299 0070 00000000 		.word	se_indut_motor_Handler
 300 0074 00000000 		.word	bt_emerg_int_Handler
 301 0078 C0000000 		.word	App_TaskStartStk
 302 007c 00000000 		.word	App_TaskStart
 303 0080 00000000 		.word	.LC0
 304 0084 00000000 		.word	App_TaskStartTCB
 305              		.cfi_endproc
 306              	.LFE67:
 307              		.size	main, .-main
 308              		.section	.text.App_TaskStart,"ax",%progbits
 309              		.align	2
 310              		.thumb
 311              		.thumb_func
 312              		.type	App_TaskStart, %function
 313              	App_TaskStart:
 314              	.LFB68:
 232:..\app.c      **** 
 233:..\app.c      **** 
 234:..\app.c      **** /*
 235:..\app.c      **** ***************************************************************************************************
 236:..\app.c      **** *                                          App_TaskStart()
 237:..\app.c      **** *
 238:..\app.c      **** * Description : This is an example of a startup task.  As mentioned in the book's text, you MUST
 239:..\app.c      **** *               initialize the ticker only once multitasking has started.
 240:..\app.c      **** *
 241:..\app.c      **** * Argument(s) : p_arg   is the argument passed to 'App_TaskStart()' by 'OSTaskCreate()'.
 242:..\app.c      **** *
 243:..\app.c      **** * Return(s)   : none
 244:..\app.c      **** *
 245:..\app.c      **** * Note(s)     : 1) The first line of code is used to prevent a compiler warning because 'p_arg' is 
 246:..\app.c      **** *                  used.  The compiler should not generate any code for this statement.
 247:..\app.c      **** ***************************************************************************************************
 248:..\app.c      **** */
 249:..\app.c      **** 
 250:..\app.c      **** static  void  App_TaskStart (void *p_arg)
 251:..\app.c      **** {
 315              		.loc 1 251 0
 316              		.cfi_startproc
 317              		@ args = 0, pretend = 0, frame = 16
 318              		@ frame_needed = 1, uses_anonymous_args = 0
 319 0000 80B5     		push	{r7, lr}
ARM GAS  C:\Users\alex\AppData\Local\Temp\ccrAtNPo.s 			page 12


 320              		.cfi_def_cfa_offset 8
 321              		.cfi_offset 7, -8
 322              		.cfi_offset 14, -4
 323 0002 86B0     		sub	sp, sp, #24
 324              		.cfi_def_cfa_offset 32
 325 0004 02AF     		add	r7, sp, #8
 326              		.cfi_def_cfa 7, 24
 327 0006 7860     		str	r0, [r7, #4]
 252:..\app.c      ****     OS_ERR       err;
 253:..\app.c      ****         
 254:..\app.c      **** 
 255:..\app.c      ****    (void)p_arg;
 256:..\app.c      ****    
 257:..\app.c      **** 
 258:..\app.c      ****     BSP_PostInit();                                               /* Perform BSP post-initializatio
 328              		.loc 1 258 0
 329 0008 FFF7FEFF 		bl	BSP_PostInit
 259:..\app.c      ****     
 260:..\app.c      ****     BSP_CPU_TickInit();                                           /* Perfrom Tick Initialization   
 330              		.loc 1 260 0
 331 000c FFF7FEFF 		bl	BSP_CPU_TickInit
 261:..\app.c      **** 
 262:..\app.c      **** #if (OS_CFG_STAT_TASK_EN > 0u)
 263:..\app.c      ****     OSStatTaskCPUUsageInit(&err);
 332              		.loc 1 263 0
 333 0010 07F10E03 		add	r3, r7, #14
 334 0014 1846     		mov	r0, r3
 335 0016 FFF7FEFF 		bl	OSStatTaskCPUUsageInit
 264:..\app.c      **** #endif    
 265:..\app.c      **** 
 266:..\app.c      **** #ifdef CPU_CFG_INT_DIS_MEAS_EN
 267:..\app.c      ****     CPU_IntDisMeasMaxCurReset();
 268:..\app.c      **** #endif      
 269:..\app.c      **** 
 270:..\app.c      ****     App_TaskCreate();                                             /* Create application tasks.     
 336              		.loc 1 270 0
 337 001a FFF7FEFF 		bl	App_TaskCreate
 271:..\app.c      **** 
 272:..\app.c      ****     App_ObjCreate();                                              /* Create kernel objects         
 338              		.loc 1 272 0
 339 001e FFF7FEFF 		bl	App_ObjCreate
 273:..\app.c      ****     
 274:..\app.c      **** #if (APP_CFG_PROBE_COM_EN == DEF_ENABLED)
 275:..\app.c      ****     App_ProbeInit();                                              /* Enabling uC/Probe             
 340              		.loc 1 275 0
 341 0022 FFF7FEFF 		bl	App_ProbeInit
 276:..\app.c      **** #endif
 277:..\app.c      ****     
 278:..\app.c      ****     BSP_LED_Off(1);
 342              		.loc 1 278 0
 343 0026 0120     		movs	r0, #1
 344 0028 FFF7FEFF 		bl	BSP_LED_Off
 345              	.L9:
 279:..\app.c      **** 
 280:..\app.c      ****     while (DEF_TRUE) {                                            /* Task body, always written as a
 281:..\app.c      ****         BSP_LED_Toggle(1);
 346              		.loc 1 281 0 discriminator 1
ARM GAS  C:\Users\alex\AppData\Local\Temp\ccrAtNPo.s 			page 13


 347 002c 0120     		movs	r0, #1
 348 002e FFF7FEFF 		bl	BSP_LED_Toggle
 282:..\app.c      ****         OSTimeDlyHMSM(0, 0, 0, 100, 
 349              		.loc 1 282 0 discriminator 1
 350 0032 07F10E03 		add	r3, r7, #14
 351 0036 0193     		str	r3, [sp, #4]
 352 0038 0023     		movs	r3, #0
 353 003a 0093     		str	r3, [sp]
 354 003c 6423     		movs	r3, #100
 355 003e 0022     		movs	r2, #0
 356 0040 0021     		movs	r1, #0
 357 0042 0020     		movs	r0, #0
 358 0044 FFF7FEFF 		bl	OSTimeDlyHMSM
 283:..\app.c      ****                       OS_OPT_TIME_HMSM_STRICT, 
 284:..\app.c      ****                       &err);
 285:..\app.c      ****     }
 359              		.loc 1 285 0 discriminator 1
 360 0048 F0E7     		b	.L9
 361              		.cfi_endproc
 362              	.LFE68:
 363              		.size	App_TaskStart, .-App_TaskStart
 364 004a 00BF     		.section	.rodata
 365 0006 0000     		.align	2
 366              	.LC1:
 367 0008 49484D5F 		.ascii	"IHM_Task\000"
 367      5461736B 
 367      00
 368 0011 000000   		.align	2
 369              	.LC2:
 370 0014 456D6572 		.ascii	"Emerg_Task\000"
 370      675F5461 
 370      736B00
 371 001f 00       		.align	2
 372              	.LC3:
 373 0020 53656E5F 		.ascii	"Sen_Mec_Task\000"
 373      4D65635F 
 373      5461736B 
 373      00
 374 002d 000000   		.align	2
 375              	.LC4:
 376 0030 44697370 		.ascii	"Display_Task\000"
 376      6C61795F 
 376      5461736B 
 376      00
 377              		.section	.text.App_TaskCreate,"ax",%progbits
 378              		.align	2
 379              		.thumb
 380              		.thumb_func
 381              		.type	App_TaskCreate, %function
 382              	App_TaskCreate:
 383              	.LFB69:
 286:..\app.c      **** }
 287:..\app.c      **** 
 288:..\app.c      **** 
 289:..\app.c      **** /*
 290:..\app.c      **** ***************************************************************************************************
 291:..\app.c      **** *                                          App_TaskCreate()
ARM GAS  C:\Users\alex\AppData\Local\Temp\ccrAtNPo.s 			page 14


 292:..\app.c      **** *
 293:..\app.c      **** * Description : Create application tasks.
 294:..\app.c      **** *
 295:..\app.c      **** * Argument(s) : none
 296:..\app.c      **** *
 297:..\app.c      **** * Return(s)   : none
 298:..\app.c      **** *
 299:..\app.c      **** * Caller(s)   : AppTaskStart()
 300:..\app.c      **** *
 301:..\app.c      **** * Note(s)     : none.
 302:..\app.c      **** ***************************************************************************************************
 303:..\app.c      **** */
 304:..\app.c      **** 
 305:..\app.c      **** static  void  App_TaskCreate (void)
 306:..\app.c      **** {
 384              		.loc 1 306 0
 385              		.cfi_startproc
 386              		@ args = 0, pretend = 0, frame = 8
 387              		@ frame_needed = 1, uses_anonymous_args = 0
 388 0000 80B5     		push	{r7, lr}
 389              		.cfi_def_cfa_offset 8
 390              		.cfi_offset 7, -8
 391              		.cfi_offset 14, -4
 392 0002 8CB0     		sub	sp, sp, #48
 393              		.cfi_def_cfa_offset 56
 394 0004 0AAF     		add	r7, sp, #40
 395              		.cfi_def_cfa 7, 16
 307:..\app.c      **** 
 308:..\app.c      ****     OS_ERR  os_err;
 309:..\app.c      **** 
 310:..\app.c      ****     /*
 311:..\app.c      ****     OSTaskCreate((OS_TCB      *)&App_TaskUserIF_TCB,
 312:..\app.c      ****                  (CPU_CHAR    *)"Start",
 313:..\app.c      ****                  (OS_TASK_PTR  )App_TaskUserIF, 
 314:..\app.c      ****                  (void        *)0,
 315:..\app.c      ****                  (OS_PRIO      )APP_CFG_TASK_USER_IF_PRIO,
 316:..\app.c      ****                  (CPU_STK     *)&App_TaskUserIFStk[0],
 317:..\app.c      ****                  (CPU_STK_SIZE )APP_CFG_TASK_USER_IF_STK_SIZE_LIMIT,
 318:..\app.c      ****                  (CPU_STK_SIZE )APP_CFG_TASK_USER_IF_STK_SIZE,
 319:..\app.c      ****                  (OS_MSG_QTY   )0u,
 320:..\app.c      ****                  (OS_TICK      )0u,
 321:..\app.c      ****                  (void        *)0,
 322:..\app.c      ****                  (OS_OPT       )(OS_OPT_TASK_STK_CHK | OS_OPT_TASK_STK_CLR),
 323:..\app.c      ****                  (OS_ERR      *)&os_err);
 324:..\app.c      ****     */
 325:..\app.c      ****     
 326:..\app.c      ****     // ======== task IHM  ========
 327:..\app.c      ****     OSTaskCreate((OS_TCB      *)&App_Task_Ihm_TCB,                             // endereço da task
 396              		.loc 1 327 0
 397 0006 BB1D     		adds	r3, r7, #6
 398 0008 0893     		str	r3, [sp, #32]
 399 000a 0323     		movs	r3, #3
 400 000c 0793     		str	r3, [sp, #28]
 401 000e 0023     		movs	r3, #0
 402 0010 0693     		str	r3, [sp, #24]
 403 0012 0023     		movs	r3, #0
 404 0014 0593     		str	r3, [sp, #20]
ARM GAS  C:\Users\alex\AppData\Local\Temp\ccrAtNPo.s 			page 15


 405 0016 0023     		movs	r3, #0
 406 0018 0493     		str	r3, [sp, #16]
 407 001a 8023     		movs	r3, #128
 408 001c 0393     		str	r3, [sp, #12]
 409 001e 0C23     		movs	r3, #12
 410 0020 0293     		str	r3, [sp, #8]
 411 0022 2B4B     		ldr	r3, .L11
 412 0024 0193     		str	r3, [sp, #4]
 413 0026 0223     		movs	r3, #2
 414 0028 0093     		str	r3, [sp]
 415 002a 0023     		movs	r3, #0
 416 002c 294A     		ldr	r2, .L11+4
 417 002e 2A49     		ldr	r1, .L11+8
 418 0030 2A48     		ldr	r0, .L11+12
 419 0032 FFF7FEFF 		bl	OSTaskCreate
 328:..\app.c      ****                  (CPU_CHAR    *)"IHM_Task",                                    // string com nome d
 329:..\app.c      ****                  (OS_TASK_PTR  )App_Task_Ihm,                                  // endereco da funca
 330:..\app.c      ****                  (void        *)0,                                              // parametros passa
 331:..\app.c      ****                  (OS_PRIO      )APP_CFG_TASK_IHM_PRIO,                         // prioridade de exe
 332:..\app.c      ****                  (CPU_STK     *)&App_Task_Ihm_Stk[0],                          // endereco base da 
 333:..\app.c      ****                  (CPU_STK_SIZE )APP_CFG_TASK_IHM_STK_SIZE_LIMIT,               // endereco final da
 334:..\app.c      ****                  (CPU_STK_SIZE )APP_CFG_TASK_IHM_STK_SIZE,                     // tamanho da pilha
 335:..\app.c      ****                  (OS_MSG_QTY   )0u,                                             // task incapaz de 
 336:..\app.c      ****                  (OS_TICK      )0u,                                             // clock tick defau
 337:..\app.c      ****                  (void        *)0,                                              // sem endereço de
 338:..\app.c      ****                  (OS_OPT       )(OS_OPT_TASK_STK_CHK | OS_OPT_TASK_STK_CLR),    // opcoes especific
 339:..\app.c      ****                  (OS_ERR      *)&os_err);                                       // ponteiro com err
 340:..\app.c      ****  
 341:..\app.c      ****     // ======== task Emergencia  ========
 342:..\app.c      ****     OSTaskCreate((OS_TCB      *)&App_Task_Emerg_TCB,                             // endereço da ta
 420              		.loc 1 342 0
 421 0036 BB1D     		adds	r3, r7, #6
 422 0038 0893     		str	r3, [sp, #32]
 423 003a 0323     		movs	r3, #3
 424 003c 0793     		str	r3, [sp, #28]
 425 003e 0023     		movs	r3, #0
 426 0040 0693     		str	r3, [sp, #24]
 427 0042 0023     		movs	r3, #0
 428 0044 0593     		str	r3, [sp, #20]
 429 0046 0023     		movs	r3, #0
 430 0048 0493     		str	r3, [sp, #16]
 431 004a 8023     		movs	r3, #128
 432 004c 0393     		str	r3, [sp, #12]
 433 004e 0C23     		movs	r3, #12
 434 0050 0293     		str	r3, [sp, #8]
 435 0052 234B     		ldr	r3, .L11+16
 436 0054 0193     		str	r3, [sp, #4]
 437 0056 0223     		movs	r3, #2
 438 0058 0093     		str	r3, [sp]
 439 005a 0023     		movs	r3, #0
 440 005c 214A     		ldr	r2, .L11+20
 441 005e 2249     		ldr	r1, .L11+24
 442 0060 2248     		ldr	r0, .L11+28
 443 0062 FFF7FEFF 		bl	OSTaskCreate
 343:..\app.c      ****                  (CPU_CHAR    *)"Emerg_Task",                                    // string com nome
 344:..\app.c      ****                  (OS_TASK_PTR  )App_Task_Emerg,                                  // endereco da fun
 345:..\app.c      ****                  (void        *)0,                                              // parametros passa
ARM GAS  C:\Users\alex\AppData\Local\Temp\ccrAtNPo.s 			page 16


 346:..\app.c      ****                  (OS_PRIO      )APP_CFG_TASK_EMERG_PRIO,                         // prioridade de e
 347:..\app.c      ****                  (CPU_STK     *)&App_Task_Emerg_Stk[0],                          // endereco base d
 348:..\app.c      ****                  (CPU_STK_SIZE )APP_CFG_TASK_EMERG_STK_SIZE_LIMIT,               // endereco final 
 349:..\app.c      ****                  (CPU_STK_SIZE )APP_CFG_TASK_EMERG_STK_SIZE,                     // tamanho da pilh
 350:..\app.c      ****                  (OS_MSG_QTY   )0u,                                             // task incapaz de 
 351:..\app.c      ****                  (OS_TICK      )0u,                                             // clock tick defau
 352:..\app.c      ****                  (void        *)0,                                              // sem endereço de
 353:..\app.c      ****                  (OS_OPT       )(OS_OPT_TASK_STK_CHK | OS_OPT_TASK_STK_CLR),    // opcoes especific
 354:..\app.c      ****                  (OS_ERR      *)&os_err);                                       // ponteiro com err
 355:..\app.c      **** 
 356:..\app.c      ****     // ======== task sen. mec.  ========
 357:..\app.c      ****     OSTaskCreate((OS_TCB      *)&App_Task_Sen_Mec_TCB,                             // endereço da 
 444              		.loc 1 357 0
 445 0066 BB1D     		adds	r3, r7, #6
 446 0068 0893     		str	r3, [sp, #32]
 447 006a 0323     		movs	r3, #3
 448 006c 0793     		str	r3, [sp, #28]
 449 006e 0023     		movs	r3, #0
 450 0070 0693     		str	r3, [sp, #24]
 451 0072 0023     		movs	r3, #0
 452 0074 0593     		str	r3, [sp, #20]
 453 0076 0023     		movs	r3, #0
 454 0078 0493     		str	r3, [sp, #16]
 455 007a 8023     		movs	r3, #128
 456 007c 0393     		str	r3, [sp, #12]
 457 007e 0C23     		movs	r3, #12
 458 0080 0293     		str	r3, [sp, #8]
 459 0082 1B4B     		ldr	r3, .L11+32
 460 0084 0193     		str	r3, [sp, #4]
 461 0086 0223     		movs	r3, #2
 462 0088 0093     		str	r3, [sp]
 463 008a 0023     		movs	r3, #0
 464 008c 194A     		ldr	r2, .L11+36
 465 008e 1A49     		ldr	r1, .L11+40
 466 0090 1A48     		ldr	r0, .L11+44
 467 0092 FFF7FEFF 		bl	OSTaskCreate
 358:..\app.c      ****                  (CPU_CHAR    *)"Sen_Mec_Task",                                    // string com no
 359:..\app.c      ****                  (OS_TASK_PTR  )App_Task_Sen_Mec,                                  // endereco da f
 360:..\app.c      ****                  (void        *)0,                                              // parametros passa
 361:..\app.c      ****                  (OS_PRIO      )APP_CFG_TASK_SEN_MEC_PRIO,                         // prioridade de
 362:..\app.c      ****                  (CPU_STK     *)&App_Task_Sen_Mec_Stk[0],                          // endereco base
 363:..\app.c      ****                  (CPU_STK_SIZE )APP_CFG_TASK_SEN_MEC_STK_SIZE_LIMIT,               // endereco fina
 364:..\app.c      ****                  (CPU_STK_SIZE )APP_CFG_TASK_SEN_MEC_STK_SIZE,                     // tamanho da pi
 365:..\app.c      ****                  (OS_MSG_QTY   )0u,                                             // task incapaz de 
 366:..\app.c      ****                  (OS_TICK      )0u,                                             // clock tick defau
 367:..\app.c      ****                  (void        *)0,                                              // sem endereço de
 368:..\app.c      ****                  (OS_OPT       )(OS_OPT_TASK_STK_CHK | OS_OPT_TASK_STK_CLR),    // opcoes especific
 369:..\app.c      ****                  (OS_ERR      *)&os_err);                                       // ponteiro com err
 370:..\app.c      ****     /*
 371:..\app.c      ****     // ======== task sen. temp.  ========
 372:..\app.c      ****     OSTaskCreate((OS_TCB      *)&App_Task_Sen_Mec_TCB,                             // endereço da 
 373:..\app.c      ****                  (CPU_CHAR    *)"Sen_Temp_Task",                                    // string com n
 374:..\app.c      ****                  (OS_TASK_PTR  )App_Task_Sen_Temp,                                  // endereco da 
 375:..\app.c      ****                  (void        *)0,                                              // parametros passa
 376:..\app.c      ****                  (OS_PRIO      )APP_CFG_TASK_SEN_TEMP_PRIO,                         // prioridade d
 377:..\app.c      ****                  (CPU_STK     *)&App_Task_Sen_Temp_Stk[0],                          // endereco bas
 378:..\app.c      ****                  (CPU_STK_SIZE )APP_CFG_TASK_SEN_TEMP_STK_SIZE_LIMIT,               // endereco fin
ARM GAS  C:\Users\alex\AppData\Local\Temp\ccrAtNPo.s 			page 17


 379:..\app.c      ****                  (CPU_STK_SIZE )APP_CFG_TASK_SEN_TEMP_STK_SIZE,                     // tamanho da p
 380:..\app.c      ****                  (OS_MSG_QTY   )0u,                                             // task incapaz de 
 381:..\app.c      ****                  (OS_TICK      )0u,                                             // clock tick defau
 382:..\app.c      ****                  (void        *)0,                                              // sem endereço de
 383:..\app.c      ****                  (OS_OPT       )(OS_OPT_TASK_STK_CHK | OS_OPT_TASK_STK_CLR),    // opcoes especific
 384:..\app.c      ****                  (OS_ERR      *)&os_err);                                       // ponteiro com err
 385:..\app.c      ****     */
 386:..\app.c      ****     
 387:..\app.c      ****     // ======== task diz play  ========
 388:..\app.c      ****     OSTaskCreate((OS_TCB      *)&App_Task_Display_TCB,                             // endereço da 
 468              		.loc 1 388 0
 469 0096 BB1D     		adds	r3, r7, #6
 470 0098 0893     		str	r3, [sp, #32]
 471 009a 0323     		movs	r3, #3
 472 009c 0793     		str	r3, [sp, #28]
 473 009e 0023     		movs	r3, #0
 474 00a0 0693     		str	r3, [sp, #24]
 475 00a2 0023     		movs	r3, #0
 476 00a4 0593     		str	r3, [sp, #20]
 477 00a6 0023     		movs	r3, #0
 478 00a8 0493     		str	r3, [sp, #16]
 479 00aa 8023     		movs	r3, #128
 480 00ac 0393     		str	r3, [sp, #12]
 481 00ae 0C23     		movs	r3, #12
 482 00b0 0293     		str	r3, [sp, #8]
 483 00b2 134B     		ldr	r3, .L11+48
 484 00b4 0193     		str	r3, [sp, #4]
 485 00b6 0223     		movs	r3, #2
 486 00b8 0093     		str	r3, [sp]
 487 00ba 0023     		movs	r3, #0
 488 00bc 114A     		ldr	r2, .L11+52
 489 00be 1249     		ldr	r1, .L11+56
 490 00c0 1248     		ldr	r0, .L11+60
 491 00c2 FFF7FEFF 		bl	OSTaskCreate
 389:..\app.c      ****                  (CPU_CHAR    *)"Display_Task",                                    // string com no
 390:..\app.c      ****                  (OS_TASK_PTR  )App_TaskUserIF,                                  // endereco da fun
 391:..\app.c      ****                  (void        *)0,                                              // parametros passa
 392:..\app.c      ****                  (OS_PRIO      )APP_CFG_TASK_DISPLAY_PRIO,                         // prioridade de
 393:..\app.c      ****                  (CPU_STK     *)&App_Task_Display_Stk[0],                          // endereco base
 394:..\app.c      ****                  (CPU_STK_SIZE )APP_CFG_TASK_DISPLAY_STK_SIZE_LIMIT,               // endereco fina
 395:..\app.c      ****                  (CPU_STK_SIZE )APP_CFG_TASK_DISPLAY_STK_SIZE,                     // tamanho da pi
 396:..\app.c      ****                  (OS_MSG_QTY   )0u,                                             // task incapaz de 
 397:..\app.c      ****                  (OS_TICK      )0u,                                             // clock tick defau
 398:..\app.c      ****                  (void        *)0,                                              // sem endereço de
 399:..\app.c      ****                  (OS_OPT       )(OS_OPT_TASK_STK_CHK | OS_OPT_TASK_STK_CLR),    // opcoes especific
 400:..\app.c      ****                  (OS_ERR      *)&os_err);                                       // ponteiro com err
 401:..\app.c      ****     
 402:..\app.c      **** }
 492              		.loc 1 402 0
 493 00c6 00BF     		nop
 494 00c8 0837     		adds	r7, r7, #8
 495              		.cfi_def_cfa_offset 8
 496 00ca BD46     		mov	sp, r7
 497              		.cfi_def_cfa_register 13
 498              		@ sp needed
 499 00cc 80BD     		pop	{r7, pc}
 500              	.L12:
ARM GAS  C:\Users\alex\AppData\Local\Temp\ccrAtNPo.s 			page 18


 501 00ce 00BF     		.align	2
 502              	.L11:
 503 00d0 40060000 		.word	App_Task_Ihm_Stk
 504 00d4 00000000 		.word	App_Task_Ihm
 505 00d8 08000000 		.word	.LC1
 506 00dc 80050000 		.word	App_Task_Ihm_TCB
 507 00e0 00090000 		.word	App_Task_Emerg_Stk
 508 00e4 00000000 		.word	App_Task_Emerg
 509 00e8 14000000 		.word	.LC2
 510 00ec 40080000 		.word	App_Task_Emerg_TCB
 511 00f0 C00B0000 		.word	App_Task_Sen_Mec_Stk
 512 00f4 00000000 		.word	App_Task_Sen_Mec
 513 00f8 20000000 		.word	.LC3
 514 00fc 000B0000 		.word	App_Task_Sen_Mec_TCB
 515 0100 40110000 		.word	App_Task_Display_Stk
 516 0104 00000000 		.word	App_TaskUserIF
 517 0108 30000000 		.word	.LC4
 518 010c 80100000 		.word	App_Task_Display_TCB
 519              		.cfi_endproc
 520              	.LFE69:
 521              		.size	App_TaskCreate, .-App_TaskCreate
 522              		.section	.text.App_Task_Ihm,"ax",%progbits
 523              		.align	2
 524              		.thumb
 525              		.thumb_func
 526              		.type	App_Task_Ihm, %function
 527              	App_Task_Ihm:
 528              	.LFB70:
 403:..\app.c      **** 
 404:..\app.c      **** static  void  App_Task_Ihm(void *p_arg)
 405:..\app.c      **** {
 529              		.loc 1 405 0
 530              		.cfi_startproc
 531              		@ args = 0, pretend = 0, frame = 8
 532              		@ frame_needed = 1, uses_anonymous_args = 0
 533 0000 80B5     		push	{r7, lr}
 534              		.cfi_def_cfa_offset 8
 535              		.cfi_offset 7, -8
 536              		.cfi_offset 14, -4
 537 0002 82B0     		sub	sp, sp, #8
 538              		.cfi_def_cfa_offset 16
 539 0004 00AF     		add	r7, sp, #0
 540              		.cfi_def_cfa_register 7
 541 0006 7860     		str	r0, [r7, #4]
 542              	.L17:
 543              	.LBB2:
 406:..\app.c      ****     
 407:..\app.c      ****     OS_ERR          err;                                /* var com os erros do processo */
 408:..\app.c      ****          
 409:..\app.c      ****    (void)p_arg;
 410:..\app.c      **** 
 411:..\app.c      ****     while(DEF_ON){
 412:..\app.c      ****         
 413:..\app.c      ****                 
 414:..\app.c      ****         if((!bt_liga_Read()) && (!emerg) && (!rearme) && (!alerta)){   // botoeira liga pressionada
 544              		.loc 1 414 0
 545 0008 FFF7FEFF 		bl	bt_liga_Read
ARM GAS  C:\Users\alex\AppData\Local\Temp\ccrAtNPo.s 			page 19


 546 000c 0346     		mov	r3, r0
 547 000e 002B     		cmp	r3, #0
 548 0010 0ED1     		bne	.L14
 549              		.loc 1 414 0 is_stmt 0 discriminator 1
 550 0012 164B     		ldr	r3, .L18
 551 0014 1B78     		ldrb	r3, [r3]	@ zero_extendqisi2
 552 0016 002B     		cmp	r3, #0
 553 0018 0AD1     		bne	.L14
 554              		.loc 1 414 0 discriminator 2
 555 001a 154B     		ldr	r3, .L18+4
 556 001c 1B78     		ldrb	r3, [r3]	@ zero_extendqisi2
 557 001e 002B     		cmp	r3, #0
 558 0020 06D1     		bne	.L14
 559              		.loc 1 414 0 discriminator 3
 560 0022 144B     		ldr	r3, .L18+8
 561 0024 1B78     		ldrb	r3, [r3]	@ zero_extendqisi2
 562 0026 002B     		cmp	r3, #0
 563 0028 02D1     		bne	.L14
 415:..\app.c      ****             statusMotor(LIGA);
 564              		.loc 1 415 0 is_stmt 1
 565 002a 0120     		movs	r0, #1
 566 002c FFF7FEFF 		bl	statusMotor
 567              	.L14:
 568              	.LBE2:
 569              	.LBB3:
 416:..\app.c      ****         }
 417:..\app.c      ****         
 418:..\app.c      ****         if(!bt_desl_Read()){                                            // botoeira desliga pressio
 570              		.loc 1 418 0
 571 0030 FFF7FEFF 		bl	bt_desl_Read
 572 0034 0346     		mov	r3, r0
 573 0036 002B     		cmp	r3, #0
 574 0038 02D1     		bne	.L15
 419:..\app.c      ****             statusMotor(DESL);
 575              		.loc 1 419 0
 576 003a 0020     		movs	r0, #0
 577 003c FFF7FEFF 		bl	statusMotor
 578              	.L15:
 579              	.LBE3:
 580              	.LBB4:
 420:..\app.c      ****         }
 421:..\app.c      ****                 
 422:..\app.c      ****         if(!bt_rearme_Read() && (!emerg) && (!rearme) && (!alerta)){    // remocao de rearme se nao
 581              		.loc 1 422 0
 582 0040 FFF7FEFF 		bl	bt_rearme_Read
 583 0044 0346     		mov	r3, r0
 584 0046 002B     		cmp	r3, #0
 585 0048 DED1     		bne	.L17
 586              		.loc 1 422 0 is_stmt 0 discriminator 1
 587 004a 084B     		ldr	r3, .L18
 588 004c 1B78     		ldrb	r3, [r3]	@ zero_extendqisi2
 589 004e 002B     		cmp	r3, #0
 590 0050 DAD1     		bne	.L17
 591              		.loc 1 422 0 discriminator 2
 592 0052 074B     		ldr	r3, .L18+4
 593 0054 1B78     		ldrb	r3, [r3]	@ zero_extendqisi2
 594 0056 002B     		cmp	r3, #0
ARM GAS  C:\Users\alex\AppData\Local\Temp\ccrAtNPo.s 			page 20


 595 0058 D6D1     		bne	.L17
 596              		.loc 1 422 0 discriminator 3
 597 005a 064B     		ldr	r3, .L18+8
 598 005c 1B78     		ldrb	r3, [r3]	@ zero_extendqisi2
 599 005e 002B     		cmp	r3, #0
 600 0060 D2D1     		bne	.L17
 423:..\app.c      ****             statusRearme(DESL);
 601              		.loc 1 423 0 is_stmt 1
 602 0062 0020     		movs	r0, #0
 603 0064 FFF7FEFF 		bl	statusRearme
 604              	.LBE4:
 424:..\app.c      ****         }
 425:..\app.c      ****                                
 426:..\app.c      ****     }
 605              		.loc 1 426 0
 606 0068 CEE7     		b	.L17
 607              	.L19:
 608 006a 00BF     		.align	2
 609              	.L18:
 610 006c 00000000 		.word	emerg
 611 0070 00000000 		.word	rearme
 612 0074 00000000 		.word	alerta
 613              		.cfi_endproc
 614              	.LFE70:
 615              		.size	App_Task_Ihm, .-App_Task_Ihm
 616              		.section	.text.App_Task_Emerg,"ax",%progbits
 617              		.align	2
 618              		.thumb
 619              		.thumb_func
 620              		.type	App_Task_Emerg, %function
 621              	App_Task_Emerg:
 622              	.LFB71:
 427:..\app.c      ****     
 428:..\app.c      **** }
 429:..\app.c      **** 
 430:..\app.c      **** static  void  App_Task_Emerg(void *p_arg)
 431:..\app.c      **** {
 623              		.loc 1 431 0
 624              		.cfi_startproc
 625              		@ args = 0, pretend = 0, frame = 8
 626              		@ frame_needed = 1, uses_anonymous_args = 0
 627 0000 80B5     		push	{r7, lr}
 628              		.cfi_def_cfa_offset 8
 629              		.cfi_offset 7, -8
 630              		.cfi_offset 14, -4
 631 0002 82B0     		sub	sp, sp, #8
 632              		.cfi_def_cfa_offset 16
 633 0004 00AF     		add	r7, sp, #0
 634              		.cfi_def_cfa_register 7
 635 0006 7860     		str	r0, [r7, #4]
 636              	.L22:
 637              	.LBB5:
 432:..\app.c      ****     
 433:..\app.c      ****     OS_ERR          err;                                    /* var com os erros do processo */
 434:..\app.c      ****          
 435:..\app.c      ****    (void)p_arg;
 436:..\app.c      **** 
ARM GAS  C:\Users\alex\AppData\Local\Temp\ccrAtNPo.s 			page 21


 437:..\app.c      **** 
 438:..\app.c      ****     while(DEF_ON){                                          // tratamento de ocorrencia de emergenc
 439:..\app.c      ****         
 440:..\app.c      ****         if(bt_emerg_Read()){                                // se o botao foi liberado libera a eme
 638              		.loc 1 440 0
 639 0008 FFF7FEFF 		bl	bt_emerg_Read
 640 000c 0346     		mov	r3, r0
 641 000e 002B     		cmp	r3, #0
 642 0010 FAD0     		beq	.L22
 441:..\app.c      ****             statusEmerg(DESL);
 643              		.loc 1 441 0
 644 0012 0020     		movs	r0, #0
 645 0014 FFF7FEFF 		bl	statusEmerg
 646              	.LBE5:
 442:..\app.c      ****         }
 443:..\app.c      ****         
 444:..\app.c      ****     }
 647              		.loc 1 444 0
 648 0018 F6E7     		b	.L22
 649              		.cfi_endproc
 650              	.LFE71:
 651              		.size	App_Task_Emerg, .-App_Task_Emerg
 652 001a 00BF     		.section	.text.App_Task_Sen_Mec,"ax",%progbits
 653              		.align	2
 654              		.thumb
 655              		.thumb_func
 656              		.type	App_Task_Sen_Mec, %function
 657              	App_Task_Sen_Mec:
 658              	.LFB72:
 445:..\app.c      ****     
 446:..\app.c      **** }
 447:..\app.c      **** 
 448:..\app.c      **** static  void  App_Task_Sen_Mec(void *p_arg)
 449:..\app.c      **** {
 659              		.loc 1 449 0
 660              		.cfi_startproc
 661              		@ args = 0, pretend = 0, frame = 8
 662              		@ frame_needed = 1, uses_anonymous_args = 0
 663 0000 80B5     		push	{r7, lr}
 664              		.cfi_def_cfa_offset 8
 665              		.cfi_offset 7, -8
 666              		.cfi_offset 14, -4
 667 0002 82B0     		sub	sp, sp, #8
 668              		.cfi_def_cfa_offset 16
 669 0004 00AF     		add	r7, sp, #0
 670              		.cfi_def_cfa_register 7
 671 0006 7860     		str	r0, [r7, #4]
 672              	.L26:
 450:..\app.c      ****     
 451:..\app.c      ****       
 452:..\app.c      ****     OS_ERR          err;                                    /* var com os erros do processo */
 453:..\app.c      ****     
 454:..\app.c      ****    (void)p_arg;
 455:..\app.c      **** 
 456:..\app.c      ****     while(DEF_ON){
 457:..\app.c      ****             
 458:..\app.c      ****                                                             // tratamento de ocorrencia de alerta
ARM GAS  C:\Users\alex\AppData\Local\Temp\ccrAtNPo.s 			page 22


 459:..\app.c      ****         
 460:..\app.c      ****         if(alerta){                                         // se ocorreu um alerta
 673              		.loc 1 460 0
 674 0008 084B     		ldr	r3, .L27
 675 000a 1B78     		ldrb	r3, [r3]	@ zero_extendqisi2
 676 000c 002B     		cmp	r3, #0
 677 000e 09D0     		beq	.L24
 678              	.LBB6:
 461:..\app.c      ****             si_alerta_Write(1);                             // ativa sinaleira de emerg.
 679              		.loc 1 461 0
 680 0010 0120     		movs	r0, #1
 681 0012 FFF7FEFF 		bl	si_alerta_Write
 462:..\app.c      ****             ct_motor_Write(0);                              // desliga contator do motor
 682              		.loc 1 462 0
 683 0016 0020     		movs	r0, #0
 684 0018 FFF7FEFF 		bl	ct_motor_Write
 463:..\app.c      ****             rearme = 1;                                     // seta flag indicando necessidade de r
 685              		.loc 1 463 0
 686 001c 044B     		ldr	r3, .L27+4
 687 001e 0122     		movs	r2, #1
 688 0020 1A70     		strb	r2, [r3]
 689              	.LBE6:
 690 0022 F1E7     		b	.L26
 691              	.L24:
 692              	.LBB7:
 464:..\app.c      ****                     
 465:..\app.c      ****         }
 466:..\app.c      ****         else{
 467:..\app.c      ****             si_alerta_Write(0);                             // ativa sinaleira de alerta
 693              		.loc 1 467 0
 694 0024 0020     		movs	r0, #0
 695 0026 FFF7FEFF 		bl	si_alerta_Write
 696              	.LBE7:
 468:..\app.c      ****             
 469:..\app.c      ****         }
 470:..\app.c      ****     
 471:..\app.c      ****     }
 697              		.loc 1 471 0
 698 002a EDE7     		b	.L26
 699              	.L28:
 700              		.align	2
 701              	.L27:
 702 002c 00000000 		.word	alerta
 703 0030 00000000 		.word	rearme
 704              		.cfi_endproc
 705              	.LFE72:
 706              		.size	App_Task_Sen_Mec, .-App_Task_Sen_Mec
 707              		.section	.rodata
 708 003d 000000   		.align	2
 709              	.LC5:
 710 0040 20202020 		.ascii	"                \000"
 710      20202020 
 710      20202020 
 710      20202020 
 710      00
 711 0051 000000   		.align	2
 712              	.LC6:
ARM GAS  C:\Users\alex\AppData\Local\Temp\ccrAtNPo.s 			page 23


 713 0054 4D696372 		.ascii	"Micrium uC/OS-III\000"
 713      69756D20 
 713      75432F4F 
 713      532D4949 
 713      4900
 714 0066 0000     		.align	2
 715              	.LC7:
 716 0068 75432F4F 		.ascii	"uC/OS-III Vx.yyy\000"
 716      532D4949 
 716      49205678 
 716      2E797979 
 716      00
 717 0079 000000   		.align	2
 718              	.LC8:
 719 007c 5469636B 		.ascii	"TickRate:   xxxx\000"
 719      52617465 
 719      3A202020 
 719      78787878 
 719      00
 720 008d 000000   		.align	2
 721              	.LC9:
 722 0090 43505520 		.ascii	"CPU Usage:xx %  \000"
 722      55736167 
 722      653A7878 
 722      20252020 
 722      00
 723 00a1 000000   		.align	2
 724              	.LC10:
 725 00a4 43505520 		.ascii	"CPU Speed:xxxMHz\000"
 725      53706565 
 725      643A7878 
 725      784D487A 
 725      00
 726 00b5 000000   		.align	2
 727              	.LC11:
 728 00b8 23546963 		.ascii	"#Ticks: xxxxxxxx\000"
 728      6B733A20 
 728      78787878 
 728      78787878 
 728      00
 729 00c9 000000   		.align	2
 730              	.LC12:
 731 00cc 23437478 		.ascii	"#CtxSw: xxxxxxxx\000"
 731      53773A20 
 731      78787878 
 731      78787878 
 731      00
 732 00dd 000000   		.align	2
 733              	.LC13:
 734 00e0 3D3D3D20 		.ascii	"=== Micrium === \000"
 734      4D696372 
 734      69756D20 
 734      3D3D3D20 
 734      00
 735 00f1 000000   		.align	2
 736              	.LC14:
 737 00f4 20202075 		.ascii	"   uC/OS-III    \000"
ARM GAS  C:\Users\alex\AppData\Local\Temp\ccrAtNPo.s 			page 24


 737      432F4F53 
 737      2D494949 
 737      20202020 
 737      00
 738              		.section	.text.App_Task_Display,"ax",%progbits
 739              		.align	2
 740              		.thumb
 741              		.thumb_func
 742              		.type	App_Task_Display, %function
 743              	App_Task_Display:
 744              	.LFB73:
 472:..\app.c      **** }
 473:..\app.c      **** /*
 474:..\app.c      **** static  void  App_Task_Sen_Temp(void *p_arg)
 475:..\app.c      **** {
 476:..\app.c      ****      
 477:..\app.c      ****     OS_ERR          err;                                    // var com os erros do processo 
 478:..\app.c      ****     CPU_INT16U temp1 = 0, temp2 = 0;                        // var aux com bits da temp. do adc
 479:..\app.c      ****     float R1 = 0, R2 = 0;
 480:..\app.c      ****     
 481:..\app.c      ****     
 482:..\app.c      ****    (void)p_arg;
 483:..\app.c      **** 
 484:..\app.c      ****     //Math_Init();
 485:..\app.c      ****     ADC_SAR_Seq_Start();
 486:..\app.c      ****     
 487:..\app.c      ****     // StartConvert() must be called to initiate 
 488:..\app.c      ****     //   conversion in Free Running Mode
 489:..\app.c      ****     
 490:..\app.c      ****     ADC_SAR_Seq_StartConvert();
 491:..\app.c      **** 
 492:..\app.c      ****     while(DEF_ON){
 493:..\app.c      ****         ADC_SAR_Seq_IsEndConversion(ADC_SAR_Seq_WAIT_FOR_RESULT);
 494:..\app.c      ****         temp1 = ADC_SAR_Seq_GetResult16(0u);
 495:..\app.c      ****         temp2 = ADC_SAR_Seq_GetResult16(1u);
 496:..\app.c      ****         
 497:..\app.c      ****         R1 = 4095.0/temp1-1.0; // resistencia lida
 498:..\app.c      ****         R2 = 4095.0/temp2-1.0; // resistencia lida
 499:..\app.c      ****         
 500:..\app.c      ****      
 501:..\app.c      ****         tempM = 1.0/(log(R1/NTC_R0)/NTC_B+1/298.15) -273.15; // convert to temperature via datashee
 502:..\app.c      ****         tempQ = 1.0/(log(R2/NTC_R0)/NTC_B+1/298.15) -273.15; // convert to temperature via datashee
 503:..\app.c      ****         
 504:..\app.c      ****         
 505:..\app.c      ****         // fonte: https://wiki.seeedstudio.com/Grove-Temperature_Sensor_V1.2/
 506:..\app.c      ****         // log: adicionando "Libm.a" no projeto https://community.infineon.com/t5/PSoC-Creator-Desi
 507:..\app.c      ****     
 508:..\app.c      ****     }
 509:..\app.c      ****  
 510:..\app.c      ****     
 511:..\app.c      **** }
 512:..\app.c      **** */
 513:..\app.c      **** static  void  App_Task_Display (void *p_arg)
 514:..\app.c      **** {
 745              		.loc 1 514 0
 746              		.cfi_startproc
 747              		@ args = 0, pretend = 0, frame = 40
ARM GAS  C:\Users\alex\AppData\Local\Temp\ccrAtNPo.s 			page 25


 748              		@ frame_needed = 1, uses_anonymous_args = 0
 749 0000 80B5     		push	{r7, lr}
 750              		.cfi_def_cfa_offset 8
 751              		.cfi_offset 7, -8
 752              		.cfi_offset 14, -4
 753 0002 8EB0     		sub	sp, sp, #56
 754              		.cfi_def_cfa_offset 64
 755 0004 04AF     		add	r7, sp, #16
 756              		.cfi_def_cfa 7, 48
 757 0006 7860     		str	r0, [r7, #4]
 515:..\app.c      ****    CPU_INT32U   val;
 516:..\app.c      ****    CPU_INT08U   user_if_state_cur;
 517:..\app.c      ****    CPU_INT08U   user_if_state_prev;   
 518:..\app.c      ****    CPU_BOOLEAN  pb2_state_cur;
 519:..\app.c      ****    CPU_BOOLEAN  pb2_state_prev;
 520:..\app.c      ****    CPU_BOOLEAN  pb3_state_cur;
 521:..\app.c      ****    CPU_BOOLEAN  pb3_state_prev;
 522:..\app.c      ****    OS_ERR       os_err;
 523:..\app.c      ****    CPU_CHAR     line_str[17];
 524:..\app.c      ****    
 525:..\app.c      ****    
 526:..\app.c      ****    (void)p_arg;
 527:..\app.c      ****    
 528:..\app.c      ****    LCD_Disp_Start();                                             /* Initialize the LCD screen.     
 758              		.loc 1 528 0
 759 0008 FFF7FEFF 		bl	LCD_Disp_Start
 529:..\app.c      ****    
 530:..\app.c      ****    LCD_Disp_Position(0u, 0u);                                    /* Clear LCD screen               
 760              		.loc 1 530 0
 761 000c 0021     		movs	r1, #0
 762 000e 0020     		movs	r0, #0
 763 0010 FFF7FEFF 		bl	LCD_Disp_Position
 531:..\app.c      ****    LCD_Disp_PrintString((uint8 *)"                ");
 764              		.loc 1 531 0
 765 0014 AF48     		ldr	r0, .L40
 766 0016 FFF7FEFF 		bl	LCD_Disp_PrintString
 532:..\app.c      ****    LCD_Disp_Position(1u, 0u);
 767              		.loc 1 532 0
 768 001a 0021     		movs	r1, #0
 769 001c 0120     		movs	r0, #1
 770 001e FFF7FEFF 		bl	LCD_Disp_Position
 533:..\app.c      ****    LCD_Disp_PrintString((uint8 *)"                ");
 771              		.loc 1 533 0
 772 0022 AC48     		ldr	r0, .L40
 773 0024 FFF7FEFF 		bl	LCD_Disp_PrintString
 534:..\app.c      ****    
 535:..\app.c      ****    LCD_Disp_PrintString((uint8 *)"Micrium uC/OS-III");
 774              		.loc 1 535 0
 775 0028 AB48     		ldr	r0, .L40+4
 776 002a FFF7FEFF 		bl	LCD_Disp_PrintString
 536:..\app.c      **** 
 537:..\app.c      ****    user_if_state_cur  = APP_USER_IF_SIGN_ON;
 777              		.loc 1 537 0
 778 002e 0023     		movs	r3, #0
 779 0030 87F82730 		strb	r3, [r7, #39]
 538:..\app.c      ****    user_if_state_prev = APP_USER_IF_SIGN_ON;
 780              		.loc 1 538 0
ARM GAS  C:\Users\alex\AppData\Local\Temp\ccrAtNPo.s 			page 26


 781 0034 0023     		movs	r3, #0
 782 0036 87F82630 		strb	r3, [r7, #38]
 539:..\app.c      ****    pb2_state_cur      = DEF_OFF;
 783              		.loc 1 539 0
 784 003a 0023     		movs	r3, #0
 785 003c 87F82330 		strb	r3, [r7, #35]
 540:..\app.c      ****    pb2_state_prev     = DEF_OFF;
 786              		.loc 1 540 0
 787 0040 0023     		movs	r3, #0
 788 0042 87F82530 		strb	r3, [r7, #37]
 541:..\app.c      ****    pb3_state_cur      = DEF_OFF;
 789              		.loc 1 541 0
 790 0046 0023     		movs	r3, #0
 791 0048 87F82230 		strb	r3, [r7, #34]
 542:..\app.c      ****    pb3_state_prev     = DEF_OFF;
 792              		.loc 1 542 0
 793 004c 0023     		movs	r3, #0
 794 004e 87F82430 		strb	r3, [r7, #36]
 795              	.L38:
 796              	.LBB8:
 543:..\app.c      ****    
 544:..\app.c      ****    
 545:..\app.c      ****     while (DEF_TRUE) { 
 546:..\app.c      ****         
 547:..\app.c      ****         si_alerta_Write(0);
 797              		.loc 1 547 0
 798 0052 0020     		movs	r0, #0
 799 0054 FFF7FEFF 		bl	si_alerta_Write
 548:..\app.c      **** 
 549:..\app.c      ****         if (user_if_state_cur != user_if_state_prev) {
 800              		.loc 1 549 0
 801 0058 97F82720 		ldrb	r2, [r7, #39]	@ zero_extendqisi2
 802 005c 97F82630 		ldrb	r3, [r7, #38]	@ zero_extendqisi2
 803 0060 9A42     		cmp	r2, r3
 804 0062 11D0     		beq	.L30
 550:..\app.c      ****             LCD_Disp_Position(0u, 0u);
 805              		.loc 1 550 0
 806 0064 0021     		movs	r1, #0
 807 0066 0020     		movs	r0, #0
 808 0068 FFF7FEFF 		bl	LCD_Disp_Position
 551:..\app.c      ****             LCD_Disp_PrintString((uint8 *)"                ");
 809              		.loc 1 551 0
 810 006c 9948     		ldr	r0, .L40
 811 006e FFF7FEFF 		bl	LCD_Disp_PrintString
 552:..\app.c      ****             LCD_Disp_Position(1u, 0u);
 812              		.loc 1 552 0
 813 0072 0021     		movs	r1, #0
 814 0074 0120     		movs	r0, #1
 815 0076 FFF7FEFF 		bl	LCD_Disp_Position
 553:..\app.c      ****             LCD_Disp_PrintString((uint8 *)"                ");
 816              		.loc 1 553 0
 817 007a 9648     		ldr	r0, .L40
 818 007c FFF7FEFF 		bl	LCD_Disp_PrintString
 554:..\app.c      ****             user_if_state_prev = user_if_state_cur;
 819              		.loc 1 554 0
 820 0080 97F82730 		ldrb	r3, [r7, #39]
 821 0084 87F82630 		strb	r3, [r7, #38]
ARM GAS  C:\Users\alex\AppData\Local\Temp\ccrAtNPo.s 			page 27


 822              	.L30:
 555:..\app.c      ****         }
 556:..\app.c      **** 
 557:..\app.c      ****         switch (user_if_state_cur) {
 823              		.loc 1 557 0
 824 0088 97F82730 		ldrb	r3, [r7, #39]	@ zero_extendqisi2
 825 008c 022B     		cmp	r3, #2
 826 008e 76D0     		beq	.L32
 827 0090 032B     		cmp	r3, #3
 828 0092 00F0DE80 		beq	.L33
 829 0096 012B     		cmp	r3, #1
 830 0098 40F03C81 		bne	.L39
 558:..\app.c      ****             case APP_USER_IF_VER_TICK_RATE:
 559:..\app.c      ****                  Str_Copy(line_str, "uC/OS-III Vx.yyy");
 831              		.loc 1 559 0
 832 009c 07F10803 		add	r3, r7, #8
 833 00a0 8E49     		ldr	r1, .L40+8
 834 00a2 1846     		mov	r0, r3
 835 00a4 FFF7FEFF 		bl	Str_Copy
 560:..\app.c      ****                  val          = (CPU_INT32U)OSVersion(&os_err);
 836              		.loc 1 560 0
 837 00a8 07F11A03 		add	r3, r7, #26
 838 00ac 1846     		mov	r0, r3
 839 00ae FFF7FEFF 		bl	OSVersion
 840 00b2 0346     		mov	r3, r0
 841 00b4 FB61     		str	r3, [r7, #28]
 561:..\app.c      ****                  line_str[11] = (val        )  / 1000u + '0';
 842              		.loc 1 561 0
 843 00b6 FB69     		ldr	r3, [r7, #28]
 844 00b8 894A     		ldr	r2, .L40+12
 845 00ba A2FB0323 		umull	r2, r3, r2, r3
 846 00be 9B09     		lsrs	r3, r3, #6
 847 00c0 DBB2     		uxtb	r3, r3
 848 00c2 3033     		adds	r3, r3, #48
 849 00c4 DBB2     		uxtb	r3, r3
 850 00c6 FB74     		strb	r3, [r7, #19]
 562:..\app.c      ****                  line_str[13] = (val % 1000u)  /  100u + '0';
 851              		.loc 1 562 0
 852 00c8 FA69     		ldr	r2, [r7, #28]
 853 00ca 854B     		ldr	r3, .L40+12
 854 00cc A3FB0213 		umull	r1, r3, r3, r2
 855 00d0 9B09     		lsrs	r3, r3, #6
 856 00d2 4FF47A71 		mov	r1, #1000
 857 00d6 01FB03F3 		mul	r3, r1, r3
 858 00da D31A     		subs	r3, r2, r3
 859 00dc 814A     		ldr	r2, .L40+16
 860 00de A2FB0323 		umull	r2, r3, r2, r3
 861 00e2 5B09     		lsrs	r3, r3, #5
 862 00e4 DBB2     		uxtb	r3, r3
 863 00e6 3033     		adds	r3, r3, #48
 864 00e8 DBB2     		uxtb	r3, r3
 865 00ea 7B75     		strb	r3, [r7, #21]
 563:..\app.c      ****                  line_str[14] = (val %  100u)  /   10u + '0';
 866              		.loc 1 563 0
 867 00ec FA69     		ldr	r2, [r7, #28]
 868 00ee 7D4B     		ldr	r3, .L40+16
 869 00f0 A3FB0213 		umull	r1, r3, r3, r2
ARM GAS  C:\Users\alex\AppData\Local\Temp\ccrAtNPo.s 			page 28


 870 00f4 5B09     		lsrs	r3, r3, #5
 871 00f6 6421     		movs	r1, #100
 872 00f8 01FB03F3 		mul	r3, r1, r3
 873 00fc D31A     		subs	r3, r2, r3
 874 00fe 7A4A     		ldr	r2, .L40+20
 875 0100 A2FB0323 		umull	r2, r3, r2, r3
 876 0104 DB08     		lsrs	r3, r3, #3
 877 0106 DBB2     		uxtb	r3, r3
 878 0108 3033     		adds	r3, r3, #48
 879 010a DBB2     		uxtb	r3, r3
 880 010c BB75     		strb	r3, [r7, #22]
 564:..\app.c      ****                  line_str[15] = (val %   10u)          + '0';
 881              		.loc 1 564 0
 882 010e F969     		ldr	r1, [r7, #28]
 883 0110 754B     		ldr	r3, .L40+20
 884 0112 A3FB0123 		umull	r2, r3, r3, r1
 885 0116 DA08     		lsrs	r2, r3, #3
 886 0118 1346     		mov	r3, r2
 887 011a 9B00     		lsls	r3, r3, #2
 888 011c 1344     		add	r3, r3, r2
 889 011e 5B00     		lsls	r3, r3, #1
 890 0120 CA1A     		subs	r2, r1, r3
 891 0122 D3B2     		uxtb	r3, r2
 892 0124 3033     		adds	r3, r3, #48
 893 0126 DBB2     		uxtb	r3, r3
 894 0128 FB75     		strb	r3, [r7, #23]
 565:..\app.c      ****                  LCD_Disp_Position(0u, 0u);
 895              		.loc 1 565 0
 896 012a 0021     		movs	r1, #0
 897 012c 0020     		movs	r0, #0
 898 012e FFF7FEFF 		bl	LCD_Disp_Position
 566:..\app.c      ****                  LCD_Disp_PrintString((uint8 *)line_str);
 899              		.loc 1 566 0
 900 0132 07F10803 		add	r3, r7, #8
 901 0136 1846     		mov	r0, r3
 902 0138 FFF7FEFF 		bl	LCD_Disp_PrintString
 567:..\app.c      **** 
 568:..\app.c      ****                  Str_Copy(line_str, "TickRate:   xxxx");
 903              		.loc 1 568 0
 904 013c 07F10803 		add	r3, r7, #8
 905 0140 6A49     		ldr	r1, .L40+24
 906 0142 1846     		mov	r0, r3
 907 0144 FFF7FEFF 		bl	Str_Copy
 569:..\app.c      ****                  val = (CPU_INT32U)OSCfg_TickRate_Hz;
 908              		.loc 1 569 0
 909 0148 694B     		ldr	r3, .L40+28
 910 014a 1B68     		ldr	r3, [r3]
 911 014c FB61     		str	r3, [r7, #28]
 570:..\app.c      ****                  Str_FmtNbr_Int32U((CPU_INT32U     )val, 
 912              		.loc 1 570 0
 913 014e 07F10803 		add	r3, r7, #8
 914 0152 0C33     		adds	r3, r3, #12
 915 0154 0293     		str	r3, [sp, #8]
 916 0156 0123     		movs	r3, #1
 917 0158 0193     		str	r3, [sp, #4]
 918 015a 0023     		movs	r3, #0
 919 015c 0093     		str	r3, [sp]
ARM GAS  C:\Users\alex\AppData\Local\Temp\ccrAtNPo.s 			page 29


 920 015e 0023     		movs	r3, #0
 921 0160 0A22     		movs	r2, #10
 922 0162 0421     		movs	r1, #4
 923 0164 F869     		ldr	r0, [r7, #28]
 924 0166 FFF7FEFF 		bl	Str_FmtNbr_Int32U
 571:..\app.c      ****                                    (CPU_INT08U     )4u,
 572:..\app.c      ****                                    (CPU_INT08U     )10,
 573:..\app.c      ****                                    (CPU_CHAR       )0,
 574:..\app.c      ****                                    (CPU_BOOLEAN    )DEF_NO,
 575:..\app.c      ****                                    (CPU_BOOLEAN    )DEF_YES,
 576:..\app.c      ****                                    (CPU_CHAR      *)&line_str[12]);
 577:..\app.c      ****                  LCD_Disp_Position(1u, 0u);
 925              		.loc 1 577 0
 926 016a 0021     		movs	r1, #0
 927 016c 0120     		movs	r0, #1
 928 016e FFF7FEFF 		bl	LCD_Disp_Position
 578:..\app.c      ****                  LCD_Disp_PrintString((uint8 *)line_str);
 929              		.loc 1 578 0
 930 0172 07F10803 		add	r3, r7, #8
 931 0176 1846     		mov	r0, r3
 932 0178 FFF7FEFF 		bl	LCD_Disp_PrintString
 579:..\app.c      ****                  break;
 933              		.loc 1 579 0
 934 017c D9E0     		b	.L35
 935              	.L32:
 580:..\app.c      **** 
 581:..\app.c      ****             case APP_USER_IF_CPU:
 582:..\app.c      ****                  Str_Copy(line_str, "CPU Usage:xx %  ");
 936              		.loc 1 582 0
 937 017e 07F10803 		add	r3, r7, #8
 938 0182 5C49     		ldr	r1, .L40+32
 939 0184 1846     		mov	r0, r3
 940 0186 FFF7FEFF 		bl	Str_Copy
 583:..\app.c      ****                  val          = (CPU_INT32U)OSStatTaskCPUUsage;
 941              		.loc 1 583 0
 942 018a 5B4B     		ldr	r3, .L40+36
 943 018c 1B88     		ldrh	r3, [r3]
 944 018e FB61     		str	r3, [r7, #28]
 584:..\app.c      ****                  line_str[10] = (val / 10u) + '0';
 945              		.loc 1 584 0
 946 0190 FB69     		ldr	r3, [r7, #28]
 947 0192 554A     		ldr	r2, .L40+20
 948 0194 A2FB0323 		umull	r2, r3, r2, r3
 949 0198 DB08     		lsrs	r3, r3, #3
 950 019a DBB2     		uxtb	r3, r3
 951 019c 3033     		adds	r3, r3, #48
 952 019e DBB2     		uxtb	r3, r3
 953 01a0 BB74     		strb	r3, [r7, #18]
 585:..\app.c      ****                  line_str[11] = (val % 10u) + '0';
 954              		.loc 1 585 0
 955 01a2 F969     		ldr	r1, [r7, #28]
 956 01a4 504B     		ldr	r3, .L40+20
 957 01a6 A3FB0123 		umull	r2, r3, r3, r1
 958 01aa DA08     		lsrs	r2, r3, #3
 959 01ac 1346     		mov	r3, r2
 960 01ae 9B00     		lsls	r3, r3, #2
 961 01b0 1344     		add	r3, r3, r2
ARM GAS  C:\Users\alex\AppData\Local\Temp\ccrAtNPo.s 			page 30


 962 01b2 5B00     		lsls	r3, r3, #1
 963 01b4 CA1A     		subs	r2, r1, r3
 964 01b6 D3B2     		uxtb	r3, r2
 965 01b8 3033     		adds	r3, r3, #48
 966 01ba DBB2     		uxtb	r3, r3
 967 01bc FB74     		strb	r3, [r7, #19]
 586:..\app.c      ****                  LCD_Disp_Position(0u, 0u);
 968              		.loc 1 586 0
 969 01be 0021     		movs	r1, #0
 970 01c0 0020     		movs	r0, #0
 971 01c2 FFF7FEFF 		bl	LCD_Disp_Position
 587:..\app.c      ****                  LCD_Disp_PrintString((uint8 *)line_str);
 972              		.loc 1 587 0
 973 01c6 07F10803 		add	r3, r7, #8
 974 01ca 1846     		mov	r0, r3
 975 01cc FFF7FEFF 		bl	LCD_Disp_PrintString
 588:..\app.c      ****                  
 589:..\app.c      ****                  Str_Copy(line_str, "CPU Speed:xxxMHz");
 976              		.loc 1 589 0
 977 01d0 07F10803 		add	r3, r7, #8
 978 01d4 4949     		ldr	r1, .L40+40
 979 01d6 1846     		mov	r0, r3
 980 01d8 FFF7FEFF 		bl	Str_Copy
 590:..\app.c      ****                  val          = (CPU_INT32U)BSP_CPU_ClkFreq();
 981              		.loc 1 590 0
 982 01dc FFF7FEFF 		bl	BSP_CPU_ClkFreq
 983 01e0 F861     		str	r0, [r7, #28]
 591:..\app.c      ****                  val         /= 1000000u;
 984              		.loc 1 591 0
 985 01e2 FB69     		ldr	r3, [r7, #28]
 986 01e4 464A     		ldr	r2, .L40+44
 987 01e6 A2FB0323 		umull	r2, r3, r2, r3
 988 01ea 9B0C     		lsrs	r3, r3, #18
 989 01ec FB61     		str	r3, [r7, #28]
 592:..\app.c      ****                  line_str[10] = (val       ) / 100u + '0';
 990              		.loc 1 592 0
 991 01ee FB69     		ldr	r3, [r7, #28]
 992 01f0 3C4A     		ldr	r2, .L40+16
 993 01f2 A2FB0323 		umull	r2, r3, r2, r3
 994 01f6 5B09     		lsrs	r3, r3, #5
 995 01f8 DBB2     		uxtb	r3, r3
 996 01fa 3033     		adds	r3, r3, #48
 997 01fc DBB2     		uxtb	r3, r3
 998 01fe BB74     		strb	r3, [r7, #18]
 593:..\app.c      ****                  line_str[11] = (val % 100u) /  10u + '0';
 999              		.loc 1 593 0
 1000 0200 FA69     		ldr	r2, [r7, #28]
 1001 0202 384B     		ldr	r3, .L40+16
 1002 0204 A3FB0213 		umull	r1, r3, r3, r2
 1003 0208 5B09     		lsrs	r3, r3, #5
 1004 020a 6421     		movs	r1, #100
 1005 020c 01FB03F3 		mul	r3, r1, r3
 1006 0210 D31A     		subs	r3, r2, r3
 1007 0212 354A     		ldr	r2, .L40+20
 1008 0214 A2FB0323 		umull	r2, r3, r2, r3
 1009 0218 DB08     		lsrs	r3, r3, #3
 1010 021a DBB2     		uxtb	r3, r3
ARM GAS  C:\Users\alex\AppData\Local\Temp\ccrAtNPo.s 			page 31


 1011 021c 3033     		adds	r3, r3, #48
 1012 021e DBB2     		uxtb	r3, r3
 1013 0220 FB74     		strb	r3, [r7, #19]
 594:..\app.c      ****                  line_str[12] = (val % 10u)         + '0';
 1014              		.loc 1 594 0
 1015 0222 F969     		ldr	r1, [r7, #28]
 1016 0224 304B     		ldr	r3, .L40+20
 1017 0226 A3FB0123 		umull	r2, r3, r3, r1
 1018 022a DA08     		lsrs	r2, r3, #3
 1019 022c 1346     		mov	r3, r2
 1020 022e 9B00     		lsls	r3, r3, #2
 1021 0230 1344     		add	r3, r3, r2
 1022 0232 5B00     		lsls	r3, r3, #1
 1023 0234 CA1A     		subs	r2, r1, r3
 1024 0236 D3B2     		uxtb	r3, r2
 1025 0238 3033     		adds	r3, r3, #48
 1026 023a DBB2     		uxtb	r3, r3
 1027 023c 3B75     		strb	r3, [r7, #20]
 595:..\app.c      ****                  LCD_Disp_Position(1u, 0u);
 1028              		.loc 1 595 0
 1029 023e 0021     		movs	r1, #0
 1030 0240 0120     		movs	r0, #1
 1031 0242 FFF7FEFF 		bl	LCD_Disp_Position
 596:..\app.c      ****                  LCD_Disp_PrintString((uint8 *)line_str);
 1032              		.loc 1 596 0
 1033 0246 07F10803 		add	r3, r7, #8
 1034 024a 1846     		mov	r0, r3
 1035 024c FFF7FEFF 		bl	LCD_Disp_PrintString
 597:..\app.c      ****                  break;
 1036              		.loc 1 597 0
 1037 0250 6FE0     		b	.L35
 1038              	.L33:
 598:..\app.c      **** 
 599:..\app.c      ****             case APP_USER_IF_CTXSW:
 600:..\app.c      ****                  Str_Copy(line_str, "#Ticks: xxxxxxxx");
 1039              		.loc 1 600 0
 1040 0252 07F10803 		add	r3, r7, #8
 1041 0256 2B49     		ldr	r1, .L40+48
 1042 0258 1846     		mov	r0, r3
 1043 025a FFF7FEFF 		bl	Str_Copy
 601:..\app.c      ****                  val = (CPU_INT32U)OSTickCtr;
 1044              		.loc 1 601 0
 1045 025e 2A4B     		ldr	r3, .L40+52
 1046 0260 1B68     		ldr	r3, [r3]
 1047 0262 FB61     		str	r3, [r7, #28]
 602:..\app.c      ****                  Str_FmtNbr_Int32U((CPU_INT32U     )val, 
 1048              		.loc 1 602 0
 1049 0264 07F10803 		add	r3, r7, #8
 1050 0268 0833     		adds	r3, r3, #8
 1051 026a 0293     		str	r3, [sp, #8]
 1052 026c 0123     		movs	r3, #1
 1053 026e 0193     		str	r3, [sp, #4]
 1054 0270 0023     		movs	r3, #0
 1055 0272 0093     		str	r3, [sp]
 1056 0274 0023     		movs	r3, #0
 1057 0276 0A22     		movs	r2, #10
 1058 0278 0821     		movs	r1, #8
ARM GAS  C:\Users\alex\AppData\Local\Temp\ccrAtNPo.s 			page 32


 1059 027a F869     		ldr	r0, [r7, #28]
 1060 027c FFF7FEFF 		bl	Str_FmtNbr_Int32U
 603:..\app.c      ****                                    (CPU_INT08U     )8u,
 604:..\app.c      ****                                    (CPU_INT08U     )10,
 605:..\app.c      ****                                    (CPU_CHAR       )0,
 606:..\app.c      ****                                    (CPU_BOOLEAN    )DEF_NO,
 607:..\app.c      ****                                    (CPU_BOOLEAN    )DEF_YES,
 608:..\app.c      ****                                    (CPU_CHAR      *)&line_str[8]);
 609:..\app.c      ****                  LCD_Disp_Position(0u, 0u);
 1061              		.loc 1 609 0
 1062 0280 0021     		movs	r1, #0
 1063 0282 0020     		movs	r0, #0
 1064 0284 FFF7FEFF 		bl	LCD_Disp_Position
 610:..\app.c      ****                  LCD_Disp_PrintString((uint8 *)line_str);
 1065              		.loc 1 610 0
 1066 0288 07F10803 		add	r3, r7, #8
 1067 028c 1846     		mov	r0, r3
 1068 028e FFF7FEFF 		bl	LCD_Disp_PrintString
 611:..\app.c      ****                  
 612:..\app.c      ****                  Str_Copy(line_str, "#CtxSw: xxxxxxxx");
 1069              		.loc 1 612 0
 1070 0292 07F10803 		add	r3, r7, #8
 1071 0296 1D49     		ldr	r1, .L40+56
 1072 0298 1846     		mov	r0, r3
 1073 029a FFF7FEFF 		bl	Str_Copy
 613:..\app.c      ****                  val          = (CPU_INT32U)OSTaskCtxSwCtr;
 1074              		.loc 1 613 0
 1075 029e 1C4B     		ldr	r3, .L40+60
 1076 02a0 1B68     		ldr	r3, [r3]
 1077 02a2 FB61     		str	r3, [r7, #28]
 614:..\app.c      ****                  Str_FmtNbr_Int32U((CPU_INT32U     )val, 
 1078              		.loc 1 614 0
 1079 02a4 07F10803 		add	r3, r7, #8
 1080 02a8 0833     		adds	r3, r3, #8
 1081 02aa 0293     		str	r3, [sp, #8]
 1082 02ac 0123     		movs	r3, #1
 1083 02ae 0193     		str	r3, [sp, #4]
 1084 02b0 0023     		movs	r3, #0
 1085 02b2 0093     		str	r3, [sp]
 1086 02b4 0023     		movs	r3, #0
 1087 02b6 0A22     		movs	r2, #10
 1088 02b8 0821     		movs	r1, #8
 1089 02ba F869     		ldr	r0, [r7, #28]
 1090 02bc FFF7FEFF 		bl	Str_FmtNbr_Int32U
 615:..\app.c      ****                                    (CPU_INT08U     )8u,
 616:..\app.c      ****                                    (CPU_INT08U     )10,
 617:..\app.c      ****                                    (CPU_CHAR       )0,
 618:..\app.c      ****                                    (CPU_BOOLEAN    )DEF_NO,
 619:..\app.c      ****                                    (CPU_BOOLEAN    )DEF_YES,
 620:..\app.c      ****                                    (CPU_CHAR      *)&line_str[8]);
 621:..\app.c      ****                  LCD_Disp_Position(1u, 0u);
 1091              		.loc 1 621 0
 1092 02c0 0021     		movs	r1, #0
 1093 02c2 0120     		movs	r0, #1
 1094 02c4 FFF7FEFF 		bl	LCD_Disp_Position
 622:..\app.c      ****                  LCD_Disp_PrintString((uint8 *)line_str);
 1095              		.loc 1 622 0
ARM GAS  C:\Users\alex\AppData\Local\Temp\ccrAtNPo.s 			page 33


 1096 02c8 07F10803 		add	r3, r7, #8
 1097 02cc 1846     		mov	r0, r3
 1098 02ce FFF7FEFF 		bl	LCD_Disp_PrintString
 623:..\app.c      ****                  break;
 1099              		.loc 1 623 0
 1100 02d2 2EE0     		b	.L35
 1101              	.L41:
 1102              		.align	2
 1103              	.L40:
 1104 02d4 40000000 		.word	.LC5
 1105 02d8 54000000 		.word	.LC6
 1106 02dc 68000000 		.word	.LC7
 1107 02e0 D34D6210 		.word	274877907
 1108 02e4 1F85EB51 		.word	1374389535
 1109 02e8 CDCCCCCC 		.word	-858993459
 1110 02ec 7C000000 		.word	.LC8
 1111 02f0 00000000 		.word	OSCfg_TickRate_Hz
 1112 02f4 90000000 		.word	.LC9
 1113 02f8 00000000 		.word	OSStatTaskCPUUsage
 1114 02fc A4000000 		.word	.LC10
 1115 0300 83DE1B43 		.word	1125899907
 1116 0304 B8000000 		.word	.LC11
 1117 0308 00000000 		.word	OSTickCtr
 1118 030c CC000000 		.word	.LC12
 1119 0310 00000000 		.word	OSTaskCtxSwCtr
 1120              	.L39:
 624:..\app.c      **** 
 625:..\app.c      ****             case APP_USER_IF_SIGN_ON:
 626:..\app.c      ****             default:
 627:..\app.c      ****                  LCD_Disp_Position(0u, 0u);
 1121              		.loc 1 627 0
 1122 0314 0021     		movs	r1, #0
 1123 0316 0020     		movs	r0, #0
 1124 0318 FFF7FEFF 		bl	LCD_Disp_Position
 628:..\app.c      ****                  LCD_Disp_PrintString((uint8 *)"=== Micrium === ");
 1125              		.loc 1 628 0
 1126 031c 2548     		ldr	r0, .L42
 1127 031e FFF7FEFF 		bl	LCD_Disp_PrintString
 629:..\app.c      ****                  LCD_Disp_Position(1u, 0u);
 1128              		.loc 1 629 0
 1129 0322 0021     		movs	r1, #0
 1130 0324 0120     		movs	r0, #1
 1131 0326 FFF7FEFF 		bl	LCD_Disp_Position
 630:..\app.c      ****                  LCD_Disp_PrintString((uint8 *)"   uC/OS-III    ");
 1132              		.loc 1 630 0
 1133 032a 2348     		ldr	r0, .L42+4
 1134 032c FFF7FEFF 		bl	LCD_Disp_PrintString
 631:..\app.c      ****                  break;
 1135              		.loc 1 631 0
 1136 0330 00BF     		nop
 1137              	.L35:
 632:..\app.c      ****         }
 633:..\app.c      **** 
 634:..\app.c      ****         pb2_state_cur = BSP_PB_StatusGet(2);
 1138              		.loc 1 634 0
 1139 0332 0220     		movs	r0, #2
 1140 0334 FFF7FEFF 		bl	BSP_PB_StatusGet
ARM GAS  C:\Users\alex\AppData\Local\Temp\ccrAtNPo.s 			page 34


 1141 0338 0346     		mov	r3, r0
 1142 033a 87F82330 		strb	r3, [r7, #35]
 635:..\app.c      ****         pb3_state_cur = BSP_PB_StatusGet(3);
 1143              		.loc 1 635 0
 1144 033e 0320     		movs	r0, #3
 1145 0340 FFF7FEFF 		bl	BSP_PB_StatusGet
 1146 0344 0346     		mov	r3, r0
 1147 0346 87F82230 		strb	r3, [r7, #34]
 636:..\app.c      ****         if ((pb2_state_cur  == DEF_ON ) &&
 1148              		.loc 1 636 0
 1149 034a 97F82330 		ldrb	r3, [r7, #35]	@ zero_extendqisi2
 1150 034e 012B     		cmp	r3, #1
 1151 0350 0BD1     		bne	.L36
 1152              		.loc 1 636 0 is_stmt 0 discriminator 1
 1153 0352 97F82530 		ldrb	r3, [r7, #37]	@ zero_extendqisi2
 1154 0356 002B     		cmp	r3, #0
 1155 0358 07D1     		bne	.L36
 637:..\app.c      ****             (pb2_state_prev == DEF_OFF)) {     
 638:..\app.c      ****             user_if_state_cur = (user_if_state_cur + 1u) % APP_USER_IF_STATE_MAX;
 1156              		.loc 1 638 0 is_stmt 1
 1157 035a 97F82730 		ldrb	r3, [r7, #39]
 1158 035e 0133     		adds	r3, r3, #1
 1159 0360 DBB2     		uxtb	r3, r3
 1160 0362 03F00303 		and	r3, r3, #3
 1161 0366 87F82730 		strb	r3, [r7, #39]
 1162              	.L36:
 639:..\app.c      ****         }
 640:..\app.c      **** 
 641:..\app.c      ****         if ((pb3_state_cur  == DEF_ON ) &&
 1163              		.loc 1 641 0
 1164 036a 97F82230 		ldrb	r3, [r7, #34]	@ zero_extendqisi2
 1165 036e 012B     		cmp	r3, #1
 1166 0370 0BD1     		bne	.L37
 1167              		.loc 1 641 0 is_stmt 0 discriminator 1
 1168 0372 97F82430 		ldrb	r3, [r7, #36]	@ zero_extendqisi2
 1169 0376 002B     		cmp	r3, #0
 1170 0378 07D1     		bne	.L37
 642:..\app.c      ****             (pb3_state_prev == DEF_OFF)) { 
 643:..\app.c      ****             user_if_state_cur = (user_if_state_cur - 1u) % APP_USER_IF_STATE_MAX;
 1171              		.loc 1 643 0 is_stmt 1
 1172 037a 97F82730 		ldrb	r3, [r7, #39]
 1173 037e 013B     		subs	r3, r3, #1
 1174 0380 DBB2     		uxtb	r3, r3
 1175 0382 03F00303 		and	r3, r3, #3
 1176 0386 87F82730 		strb	r3, [r7, #39]
 1177              	.L37:
 644:..\app.c      ****         }
 645:..\app.c      **** 
 646:..\app.c      ****         OSTimeDlyHMSM(0, 0, 0, 100, 
 1178              		.loc 1 646 0
 1179 038a 07F11A03 		add	r3, r7, #26
 1180 038e 0193     		str	r3, [sp, #4]
 1181 0390 0023     		movs	r3, #0
 1182 0392 0093     		str	r3, [sp]
 1183 0394 6423     		movs	r3, #100
 1184 0396 0022     		movs	r2, #0
 1185 0398 0021     		movs	r1, #0
ARM GAS  C:\Users\alex\AppData\Local\Temp\ccrAtNPo.s 			page 35


 1186 039a 0020     		movs	r0, #0
 1187 039c FFF7FEFF 		bl	OSTimeDlyHMSM
 647:..\app.c      ****                       OS_OPT_TIME_HMSM_STRICT, 
 648:..\app.c      ****                       &os_err);
 649:..\app.c      **** 
 650:..\app.c      ****         pb2_state_prev = pb2_state_cur;
 1188              		.loc 1 650 0
 1189 03a0 97F82330 		ldrb	r3, [r7, #35]
 1190 03a4 87F82530 		strb	r3, [r7, #37]
 651:..\app.c      ****         pb3_state_prev = pb3_state_cur;	
 1191              		.loc 1 651 0
 1192 03a8 97F82230 		ldrb	r3, [r7, #34]
 1193 03ac 87F82430 		strb	r3, [r7, #36]
 1194              	.LBE8:
 652:..\app.c      ****     }
 1195              		.loc 1 652 0
 1196 03b0 4FE6     		b	.L38
 1197              	.L43:
 1198 03b2 00BF     		.align	2
 1199              	.L42:
 1200 03b4 E0000000 		.word	.LC13
 1201 03b8 F4000000 		.word	.LC14
 1202              		.cfi_endproc
 1203              	.LFE73:
 1204              		.size	App_Task_Display, .-App_Task_Display
 1205              		.section	.text.App_ObjCreate,"ax",%progbits
 1206              		.align	2
 1207              		.thumb
 1208              		.thumb_func
 1209              		.type	App_ObjCreate, %function
 1210              	App_ObjCreate:
 1211              	.LFB74:
 653:..\app.c      **** }
 654:..\app.c      **** 
 655:..\app.c      **** 
 656:..\app.c      **** /*
 657:..\app.c      **** ***************************************************************************************************
 658:..\app.c      **** *                                          App_ObjCreate()
 659:..\app.c      **** *
 660:..\app.c      **** * Description : Create application kernel objects tasks.
 661:..\app.c      **** *
 662:..\app.c      **** * Argument(s) : none
 663:..\app.c      **** *
 664:..\app.c      **** * Return(s)   : none
 665:..\app.c      **** *
 666:..\app.c      **** * Caller(s)   : AppTaskStart()
 667:..\app.c      **** *
 668:..\app.c      **** * Note(s)     : none.
 669:..\app.c      **** ***************************************************************************************************
 670:..\app.c      **** */
 671:..\app.c      **** 
 672:..\app.c      **** static  void  App_ObjCreate (void)
 673:..\app.c      **** {
 1212              		.loc 1 673 0
 1213              		.cfi_startproc
 1214              		@ args = 0, pretend = 0, frame = 0
 1215              		@ frame_needed = 1, uses_anonymous_args = 0
ARM GAS  C:\Users\alex\AppData\Local\Temp\ccrAtNPo.s 			page 36


 1216              		@ link register save eliminated.
 1217 0000 80B4     		push	{r7}
 1218              		.cfi_def_cfa_offset 4
 1219              		.cfi_offset 7, -4
 1220 0002 00AF     		add	r7, sp, #0
 1221              		.cfi_def_cfa_register 7
 674:..\app.c      **** 
 675:..\app.c      **** }
 1222              		.loc 1 675 0
 1223 0004 00BF     		nop
 1224 0006 BD46     		mov	sp, r7
 1225              		.cfi_def_cfa_register 13
 1226              		@ sp needed
 1227 0008 80BC     		pop	{r7}
 1228              		.cfi_restore 7
 1229              		.cfi_def_cfa_offset 0
 1230 000a 7047     		bx	lr
 1231              		.cfi_endproc
 1232              	.LFE74:
 1233              		.size	App_ObjCreate, .-App_ObjCreate
 1234              		.section	.text.App_TaskUserIF,"ax",%progbits
 1235              		.align	2
 1236              		.thumb
 1237              		.thumb_func
 1238              		.type	App_TaskUserIF, %function
 1239              	App_TaskUserIF:
 1240              	.LFB75:
 676:..\app.c      **** 
 677:..\app.c      **** 
 678:..\app.c      **** /*
 679:..\app.c      **** ***************************************************************************************************
 680:..\app.c      **** *                                          App_TaskUserIF()
 681:..\app.c      **** *
 682:..\app.c      **** * Description : User interface task
 683:..\app.c      **** *
 684:..\app.c      **** * Argument(s) : p_arg   is the argument passed to 'App_TaskUserIF()' by 'OSTaskCreate()'.
 685:..\app.c      **** *
 686:..\app.c      **** * Return(s)   : none
 687:..\app.c      **** *
 688:..\app.c      **** * Note(s)     : 1) The first line of code is used to prevent a compiler warning because 'p_arg' is 
 689:..\app.c      **** *                  used.  The compiler should not generate any code for this statement.
 690:..\app.c      **** ***************************************************************************************************
 691:..\app.c      **** */
 692:..\app.c      **** 
 693:..\app.c      **** 
 694:..\app.c      **** static  void  App_TaskUserIF (void *p_arg)
 695:..\app.c      **** {
 1241              		.loc 1 695 0
 1242              		.cfi_startproc
 1243              		@ args = 0, pretend = 0, frame = 40
 1244              		@ frame_needed = 1, uses_anonymous_args = 0
 1245 0000 80B5     		push	{r7, lr}
 1246              		.cfi_def_cfa_offset 8
 1247              		.cfi_offset 7, -8
 1248              		.cfi_offset 14, -4
 1249 0002 8EB0     		sub	sp, sp, #56
 1250              		.cfi_def_cfa_offset 64
ARM GAS  C:\Users\alex\AppData\Local\Temp\ccrAtNPo.s 			page 37


 1251 0004 04AF     		add	r7, sp, #16
 1252              		.cfi_def_cfa 7, 48
 1253 0006 7860     		str	r0, [r7, #4]
 696:..\app.c      ****    CPU_INT32U   val;
 697:..\app.c      ****    CPU_INT08U   user_if_state_cur;
 698:..\app.c      ****    CPU_INT08U   user_if_state_prev;   
 699:..\app.c      ****    CPU_BOOLEAN  pb2_state_cur;
 700:..\app.c      ****    CPU_BOOLEAN  pb2_state_prev;
 701:..\app.c      ****    CPU_BOOLEAN  pb3_state_cur;
 702:..\app.c      ****    CPU_BOOLEAN  pb3_state_prev;
 703:..\app.c      ****    OS_ERR       os_err;
 704:..\app.c      ****    CPU_CHAR     line_str[17];
 705:..\app.c      ****    
 706:..\app.c      ****    
 707:..\app.c      ****    (void)p_arg;
 708:..\app.c      ****    
 709:..\app.c      ****    LCD_Disp_Start();                                             /* Initialize the LCD screen.     
 1254              		.loc 1 709 0
 1255 0008 FFF7FEFF 		bl	LCD_Disp_Start
 710:..\app.c      ****    
 711:..\app.c      ****    LCD_Disp_Position(0u, 0u);                                    /* Clear LCD screen               
 1256              		.loc 1 711 0
 1257 000c 0021     		movs	r1, #0
 1258 000e 0020     		movs	r0, #0
 1259 0010 FFF7FEFF 		bl	LCD_Disp_Position
 712:..\app.c      ****    LCD_Disp_PrintString((uint8 *)"                ");
 1260              		.loc 1 712 0
 1261 0014 AE48     		ldr	r0, .L56
 1262 0016 FFF7FEFF 		bl	LCD_Disp_PrintString
 713:..\app.c      ****    LCD_Disp_Position(1u, 0u);
 1263              		.loc 1 713 0
 1264 001a 0021     		movs	r1, #0
 1265 001c 0120     		movs	r0, #1
 1266 001e FFF7FEFF 		bl	LCD_Disp_Position
 714:..\app.c      ****    LCD_Disp_PrintString((uint8 *)"                ");
 1267              		.loc 1 714 0
 1268 0022 AB48     		ldr	r0, .L56
 1269 0024 FFF7FEFF 		bl	LCD_Disp_PrintString
 715:..\app.c      ****    
 716:..\app.c      ****    LCD_Disp_PrintString((uint8 *)"Micrium uC/OS-III");
 1270              		.loc 1 716 0
 1271 0028 AA48     		ldr	r0, .L56+4
 1272 002a FFF7FEFF 		bl	LCD_Disp_PrintString
 717:..\app.c      **** 
 718:..\app.c      ****    user_if_state_cur  = APP_USER_IF_SIGN_ON;
 1273              		.loc 1 718 0
 1274 002e 0023     		movs	r3, #0
 1275 0030 87F82730 		strb	r3, [r7, #39]
 719:..\app.c      ****    user_if_state_prev = APP_USER_IF_SIGN_ON;
 1276              		.loc 1 719 0
 1277 0034 0023     		movs	r3, #0
 1278 0036 87F82630 		strb	r3, [r7, #38]
 720:..\app.c      ****    pb2_state_cur      = DEF_OFF;
 1279              		.loc 1 720 0
 1280 003a 0023     		movs	r3, #0
 1281 003c 87F82330 		strb	r3, [r7, #35]
 721:..\app.c      ****    pb2_state_prev     = DEF_OFF;
ARM GAS  C:\Users\alex\AppData\Local\Temp\ccrAtNPo.s 			page 38


 1282              		.loc 1 721 0
 1283 0040 0023     		movs	r3, #0
 1284 0042 87F82530 		strb	r3, [r7, #37]
 722:..\app.c      ****    pb3_state_cur      = DEF_OFF;
 1285              		.loc 1 722 0
 1286 0046 0023     		movs	r3, #0
 1287 0048 87F82230 		strb	r3, [r7, #34]
 723:..\app.c      ****    pb3_state_prev     = DEF_OFF;
 1288              		.loc 1 723 0
 1289 004c 0023     		movs	r3, #0
 1290 004e 87F82430 		strb	r3, [r7, #36]
 1291              	.L54:
 724:..\app.c      ****    
 725:..\app.c      ****    
 726:..\app.c      ****     while (DEF_TRUE) {    
 727:..\app.c      **** 
 728:..\app.c      ****         if (user_if_state_cur != user_if_state_prev) {
 1292              		.loc 1 728 0
 1293 0052 97F82720 		ldrb	r2, [r7, #39]	@ zero_extendqisi2
 1294 0056 97F82630 		ldrb	r3, [r7, #38]	@ zero_extendqisi2
 1295 005a 9A42     		cmp	r2, r3
 1296 005c 11D0     		beq	.L46
 729:..\app.c      ****             LCD_Disp_Position(0u, 0u);
 1297              		.loc 1 729 0
 1298 005e 0021     		movs	r1, #0
 1299 0060 0020     		movs	r0, #0
 1300 0062 FFF7FEFF 		bl	LCD_Disp_Position
 730:..\app.c      ****             LCD_Disp_PrintString((uint8 *)"                ");
 1301              		.loc 1 730 0
 1302 0066 9A48     		ldr	r0, .L56
 1303 0068 FFF7FEFF 		bl	LCD_Disp_PrintString
 731:..\app.c      ****             LCD_Disp_Position(1u, 0u);
 1304              		.loc 1 731 0
 1305 006c 0021     		movs	r1, #0
 1306 006e 0120     		movs	r0, #1
 1307 0070 FFF7FEFF 		bl	LCD_Disp_Position
 732:..\app.c      ****             LCD_Disp_PrintString((uint8 *)"                ");
 1308              		.loc 1 732 0
 1309 0074 9648     		ldr	r0, .L56
 1310 0076 FFF7FEFF 		bl	LCD_Disp_PrintString
 733:..\app.c      ****             user_if_state_prev = user_if_state_cur;
 1311              		.loc 1 733 0
 1312 007a 97F82730 		ldrb	r3, [r7, #39]
 1313 007e 87F82630 		strb	r3, [r7, #38]
 1314              	.L46:
 734:..\app.c      ****         }
 735:..\app.c      **** 
 736:..\app.c      ****         switch (user_if_state_cur) {
 1315              		.loc 1 736 0
 1316 0082 97F82730 		ldrb	r3, [r7, #39]	@ zero_extendqisi2
 1317 0086 022B     		cmp	r3, #2
 1318 0088 76D0     		beq	.L48
 1319 008a 032B     		cmp	r3, #3
 1320 008c 00F0DE80 		beq	.L49
 1321 0090 012B     		cmp	r3, #1
 1322 0092 40F03D81 		bne	.L55
 737:..\app.c      ****             case APP_USER_IF_VER_TICK_RATE:
ARM GAS  C:\Users\alex\AppData\Local\Temp\ccrAtNPo.s 			page 39


 738:..\app.c      ****                  Str_Copy(line_str, "uC/OS-III Vx.yyy");
 1323              		.loc 1 738 0
 1324 0096 07F10803 		add	r3, r7, #8
 1325 009a 8F49     		ldr	r1, .L56+8
 1326 009c 1846     		mov	r0, r3
 1327 009e FFF7FEFF 		bl	Str_Copy
 739:..\app.c      ****                  val          = (CPU_INT32U)OSVersion(&os_err);
 1328              		.loc 1 739 0
 1329 00a2 07F11A03 		add	r3, r7, #26
 1330 00a6 1846     		mov	r0, r3
 1331 00a8 FFF7FEFF 		bl	OSVersion
 1332 00ac 0346     		mov	r3, r0
 1333 00ae FB61     		str	r3, [r7, #28]
 740:..\app.c      ****                  line_str[11] = (val        )  / 1000u + '0';
 1334              		.loc 1 740 0
 1335 00b0 FB69     		ldr	r3, [r7, #28]
 1336 00b2 8A4A     		ldr	r2, .L56+12
 1337 00b4 A2FB0323 		umull	r2, r3, r2, r3
 1338 00b8 9B09     		lsrs	r3, r3, #6
 1339 00ba DBB2     		uxtb	r3, r3
 1340 00bc 3033     		adds	r3, r3, #48
 1341 00be DBB2     		uxtb	r3, r3
 1342 00c0 FB74     		strb	r3, [r7, #19]
 741:..\app.c      ****                  line_str[13] = (val % 1000u)  /  100u + '0';
 1343              		.loc 1 741 0
 1344 00c2 FA69     		ldr	r2, [r7, #28]
 1345 00c4 854B     		ldr	r3, .L56+12
 1346 00c6 A3FB0213 		umull	r1, r3, r3, r2
 1347 00ca 9B09     		lsrs	r3, r3, #6
 1348 00cc 4FF47A71 		mov	r1, #1000
 1349 00d0 01FB03F3 		mul	r3, r1, r3
 1350 00d4 D31A     		subs	r3, r2, r3
 1351 00d6 824A     		ldr	r2, .L56+16
 1352 00d8 A2FB0323 		umull	r2, r3, r2, r3
 1353 00dc 5B09     		lsrs	r3, r3, #5
 1354 00de DBB2     		uxtb	r3, r3
 1355 00e0 3033     		adds	r3, r3, #48
 1356 00e2 DBB2     		uxtb	r3, r3
 1357 00e4 7B75     		strb	r3, [r7, #21]
 742:..\app.c      ****                  line_str[14] = (val %  100u)  /   10u + '0';
 1358              		.loc 1 742 0
 1359 00e6 FA69     		ldr	r2, [r7, #28]
 1360 00e8 7D4B     		ldr	r3, .L56+16
 1361 00ea A3FB0213 		umull	r1, r3, r3, r2
 1362 00ee 5B09     		lsrs	r3, r3, #5
 1363 00f0 6421     		movs	r1, #100
 1364 00f2 01FB03F3 		mul	r3, r1, r3
 1365 00f6 D31A     		subs	r3, r2, r3
 1366 00f8 7A4A     		ldr	r2, .L56+20
 1367 00fa A2FB0323 		umull	r2, r3, r2, r3
 1368 00fe DB08     		lsrs	r3, r3, #3
 1369 0100 DBB2     		uxtb	r3, r3
 1370 0102 3033     		adds	r3, r3, #48
 1371 0104 DBB2     		uxtb	r3, r3
 1372 0106 BB75     		strb	r3, [r7, #22]
 743:..\app.c      ****                  line_str[15] = (val %   10u)          + '0';
 1373              		.loc 1 743 0
ARM GAS  C:\Users\alex\AppData\Local\Temp\ccrAtNPo.s 			page 40


 1374 0108 F969     		ldr	r1, [r7, #28]
 1375 010a 764B     		ldr	r3, .L56+20
 1376 010c A3FB0123 		umull	r2, r3, r3, r1
 1377 0110 DA08     		lsrs	r2, r3, #3
 1378 0112 1346     		mov	r3, r2
 1379 0114 9B00     		lsls	r3, r3, #2
 1380 0116 1344     		add	r3, r3, r2
 1381 0118 5B00     		lsls	r3, r3, #1
 1382 011a CA1A     		subs	r2, r1, r3
 1383 011c D3B2     		uxtb	r3, r2
 1384 011e 3033     		adds	r3, r3, #48
 1385 0120 DBB2     		uxtb	r3, r3
 1386 0122 FB75     		strb	r3, [r7, #23]
 744:..\app.c      ****                  LCD_Disp_Position(0u, 0u);
 1387              		.loc 1 744 0
 1388 0124 0021     		movs	r1, #0
 1389 0126 0020     		movs	r0, #0
 1390 0128 FFF7FEFF 		bl	LCD_Disp_Position
 745:..\app.c      ****                  LCD_Disp_PrintString((uint8 *)line_str);
 1391              		.loc 1 745 0
 1392 012c 07F10803 		add	r3, r7, #8
 1393 0130 1846     		mov	r0, r3
 1394 0132 FFF7FEFF 		bl	LCD_Disp_PrintString
 746:..\app.c      **** 
 747:..\app.c      ****                  Str_Copy(line_str, "TickRate:   xxxx");
 1395              		.loc 1 747 0
 1396 0136 07F10803 		add	r3, r7, #8
 1397 013a 6B49     		ldr	r1, .L56+24
 1398 013c 1846     		mov	r0, r3
 1399 013e FFF7FEFF 		bl	Str_Copy
 748:..\app.c      ****                  val = (CPU_INT32U)OSCfg_TickRate_Hz;
 1400              		.loc 1 748 0
 1401 0142 6A4B     		ldr	r3, .L56+28
 1402 0144 1B68     		ldr	r3, [r3]
 1403 0146 FB61     		str	r3, [r7, #28]
 749:..\app.c      ****                  Str_FmtNbr_Int32U((CPU_INT32U     )val, 
 1404              		.loc 1 749 0
 1405 0148 07F10803 		add	r3, r7, #8
 1406 014c 0C33     		adds	r3, r3, #12
 1407 014e 0293     		str	r3, [sp, #8]
 1408 0150 0123     		movs	r3, #1
 1409 0152 0193     		str	r3, [sp, #4]
 1410 0154 0023     		movs	r3, #0
 1411 0156 0093     		str	r3, [sp]
 1412 0158 0023     		movs	r3, #0
 1413 015a 0A22     		movs	r2, #10
 1414 015c 0421     		movs	r1, #4
 1415 015e F869     		ldr	r0, [r7, #28]
 1416 0160 FFF7FEFF 		bl	Str_FmtNbr_Int32U
 750:..\app.c      ****                                    (CPU_INT08U     )4u,
 751:..\app.c      ****                                    (CPU_INT08U     )10,
 752:..\app.c      ****                                    (CPU_CHAR       )0,
 753:..\app.c      ****                                    (CPU_BOOLEAN    )DEF_NO,
 754:..\app.c      ****                                    (CPU_BOOLEAN    )DEF_YES,
 755:..\app.c      ****                                    (CPU_CHAR      *)&line_str[12]);
 756:..\app.c      ****                  LCD_Disp_Position(1u, 0u);
 1417              		.loc 1 756 0
ARM GAS  C:\Users\alex\AppData\Local\Temp\ccrAtNPo.s 			page 41


 1418 0164 0021     		movs	r1, #0
 1419 0166 0120     		movs	r0, #1
 1420 0168 FFF7FEFF 		bl	LCD_Disp_Position
 757:..\app.c      ****                  LCD_Disp_PrintString((uint8 *)line_str);
 1421              		.loc 1 757 0
 1422 016c 07F10803 		add	r3, r7, #8
 1423 0170 1846     		mov	r0, r3
 1424 0172 FFF7FEFF 		bl	LCD_Disp_PrintString
 758:..\app.c      ****                  break;
 1425              		.loc 1 758 0
 1426 0176 DAE0     		b	.L51
 1427              	.L48:
 759:..\app.c      **** 
 760:..\app.c      ****             case APP_USER_IF_CPU:
 761:..\app.c      ****                  Str_Copy(line_str, "CPU Usage:xx %  ");
 1428              		.loc 1 761 0
 1429 0178 07F10803 		add	r3, r7, #8
 1430 017c 5C49     		ldr	r1, .L56+32
 1431 017e 1846     		mov	r0, r3
 1432 0180 FFF7FEFF 		bl	Str_Copy
 762:..\app.c      ****                  val          = (CPU_INT32U)OSStatTaskCPUUsage;
 1433              		.loc 1 762 0
 1434 0184 5B4B     		ldr	r3, .L56+36
 1435 0186 1B88     		ldrh	r3, [r3]
 1436 0188 FB61     		str	r3, [r7, #28]
 763:..\app.c      ****                  line_str[10] = (val / 10u) + '0';
 1437              		.loc 1 763 0
 1438 018a FB69     		ldr	r3, [r7, #28]
 1439 018c 554A     		ldr	r2, .L56+20
 1440 018e A2FB0323 		umull	r2, r3, r2, r3
 1441 0192 DB08     		lsrs	r3, r3, #3
 1442 0194 DBB2     		uxtb	r3, r3
 1443 0196 3033     		adds	r3, r3, #48
 1444 0198 DBB2     		uxtb	r3, r3
 1445 019a BB74     		strb	r3, [r7, #18]
 764:..\app.c      ****                  line_str[11] = (val % 10u) + '0';
 1446              		.loc 1 764 0
 1447 019c F969     		ldr	r1, [r7, #28]
 1448 019e 514B     		ldr	r3, .L56+20
 1449 01a0 A3FB0123 		umull	r2, r3, r3, r1
 1450 01a4 DA08     		lsrs	r2, r3, #3
 1451 01a6 1346     		mov	r3, r2
 1452 01a8 9B00     		lsls	r3, r3, #2
 1453 01aa 1344     		add	r3, r3, r2
 1454 01ac 5B00     		lsls	r3, r3, #1
 1455 01ae CA1A     		subs	r2, r1, r3
 1456 01b0 D3B2     		uxtb	r3, r2
 1457 01b2 3033     		adds	r3, r3, #48
 1458 01b4 DBB2     		uxtb	r3, r3
 1459 01b6 FB74     		strb	r3, [r7, #19]
 765:..\app.c      ****                  LCD_Disp_Position(0u, 0u);
 1460              		.loc 1 765 0
 1461 01b8 0021     		movs	r1, #0
 1462 01ba 0020     		movs	r0, #0
 1463 01bc FFF7FEFF 		bl	LCD_Disp_Position
 766:..\app.c      ****                  LCD_Disp_PrintString((uint8 *)line_str);
 1464              		.loc 1 766 0
ARM GAS  C:\Users\alex\AppData\Local\Temp\ccrAtNPo.s 			page 42


 1465 01c0 07F10803 		add	r3, r7, #8
 1466 01c4 1846     		mov	r0, r3
 1467 01c6 FFF7FEFF 		bl	LCD_Disp_PrintString
 767:..\app.c      ****                  
 768:..\app.c      ****                  Str_Copy(line_str, "CPU Speed:xxxMHz");
 1468              		.loc 1 768 0
 1469 01ca 07F10803 		add	r3, r7, #8
 1470 01ce 4A49     		ldr	r1, .L56+40
 1471 01d0 1846     		mov	r0, r3
 1472 01d2 FFF7FEFF 		bl	Str_Copy
 769:..\app.c      ****                  val          = (CPU_INT32U)BSP_CPU_ClkFreq();
 1473              		.loc 1 769 0
 1474 01d6 FFF7FEFF 		bl	BSP_CPU_ClkFreq
 1475 01da F861     		str	r0, [r7, #28]
 770:..\app.c      ****                  val         /= 1000000u;
 1476              		.loc 1 770 0
 1477 01dc FB69     		ldr	r3, [r7, #28]
 1478 01de 474A     		ldr	r2, .L56+44
 1479 01e0 A2FB0323 		umull	r2, r3, r2, r3
 1480 01e4 9B0C     		lsrs	r3, r3, #18
 1481 01e6 FB61     		str	r3, [r7, #28]
 771:..\app.c      ****                  line_str[10] = (val       ) / 100u + '0';
 1482              		.loc 1 771 0
 1483 01e8 FB69     		ldr	r3, [r7, #28]
 1484 01ea 3D4A     		ldr	r2, .L56+16
 1485 01ec A2FB0323 		umull	r2, r3, r2, r3
 1486 01f0 5B09     		lsrs	r3, r3, #5
 1487 01f2 DBB2     		uxtb	r3, r3
 1488 01f4 3033     		adds	r3, r3, #48
 1489 01f6 DBB2     		uxtb	r3, r3
 1490 01f8 BB74     		strb	r3, [r7, #18]
 772:..\app.c      ****                  line_str[11] = (val % 100u) /  10u + '0';
 1491              		.loc 1 772 0
 1492 01fa FA69     		ldr	r2, [r7, #28]
 1493 01fc 384B     		ldr	r3, .L56+16
 1494 01fe A3FB0213 		umull	r1, r3, r3, r2
 1495 0202 5B09     		lsrs	r3, r3, #5
 1496 0204 6421     		movs	r1, #100
 1497 0206 01FB03F3 		mul	r3, r1, r3
 1498 020a D31A     		subs	r3, r2, r3
 1499 020c 354A     		ldr	r2, .L56+20
 1500 020e A2FB0323 		umull	r2, r3, r2, r3
 1501 0212 DB08     		lsrs	r3, r3, #3
 1502 0214 DBB2     		uxtb	r3, r3
 1503 0216 3033     		adds	r3, r3, #48
 1504 0218 DBB2     		uxtb	r3, r3
 1505 021a FB74     		strb	r3, [r7, #19]
 773:..\app.c      ****                  line_str[12] = (val % 10u)         + '0';
 1506              		.loc 1 773 0
 1507 021c F969     		ldr	r1, [r7, #28]
 1508 021e 314B     		ldr	r3, .L56+20
 1509 0220 A3FB0123 		umull	r2, r3, r3, r1
 1510 0224 DA08     		lsrs	r2, r3, #3
 1511 0226 1346     		mov	r3, r2
 1512 0228 9B00     		lsls	r3, r3, #2
 1513 022a 1344     		add	r3, r3, r2
 1514 022c 5B00     		lsls	r3, r3, #1
ARM GAS  C:\Users\alex\AppData\Local\Temp\ccrAtNPo.s 			page 43


 1515 022e CA1A     		subs	r2, r1, r3
 1516 0230 D3B2     		uxtb	r3, r2
 1517 0232 3033     		adds	r3, r3, #48
 1518 0234 DBB2     		uxtb	r3, r3
 1519 0236 3B75     		strb	r3, [r7, #20]
 774:..\app.c      ****                  LCD_Disp_Position(1u, 0u);
 1520              		.loc 1 774 0
 1521 0238 0021     		movs	r1, #0
 1522 023a 0120     		movs	r0, #1
 1523 023c FFF7FEFF 		bl	LCD_Disp_Position
 775:..\app.c      ****                  LCD_Disp_PrintString((uint8 *)line_str);
 1524              		.loc 1 775 0
 1525 0240 07F10803 		add	r3, r7, #8
 1526 0244 1846     		mov	r0, r3
 1527 0246 FFF7FEFF 		bl	LCD_Disp_PrintString
 776:..\app.c      ****                  break;
 1528              		.loc 1 776 0
 1529 024a 70E0     		b	.L51
 1530              	.L49:
 777:..\app.c      **** 
 778:..\app.c      ****             case APP_USER_IF_CTXSW:
 779:..\app.c      ****                  Str_Copy(line_str, "#Ticks: xxxxxxxx");
 1531              		.loc 1 779 0
 1532 024c 07F10803 		add	r3, r7, #8
 1533 0250 2B49     		ldr	r1, .L56+48
 1534 0252 1846     		mov	r0, r3
 1535 0254 FFF7FEFF 		bl	Str_Copy
 780:..\app.c      ****                  val = (CPU_INT32U)OSTickCtr;
 1536              		.loc 1 780 0
 1537 0258 2A4B     		ldr	r3, .L56+52
 1538 025a 1B68     		ldr	r3, [r3]
 1539 025c FB61     		str	r3, [r7, #28]
 781:..\app.c      ****                  Str_FmtNbr_Int32U((CPU_INT32U     )val, 
 1540              		.loc 1 781 0
 1541 025e 07F10803 		add	r3, r7, #8
 1542 0262 0833     		adds	r3, r3, #8
 1543 0264 0293     		str	r3, [sp, #8]
 1544 0266 0123     		movs	r3, #1
 1545 0268 0193     		str	r3, [sp, #4]
 1546 026a 0023     		movs	r3, #0
 1547 026c 0093     		str	r3, [sp]
 1548 026e 0023     		movs	r3, #0
 1549 0270 0A22     		movs	r2, #10
 1550 0272 0821     		movs	r1, #8
 1551 0274 F869     		ldr	r0, [r7, #28]
 1552 0276 FFF7FEFF 		bl	Str_FmtNbr_Int32U
 782:..\app.c      ****                                    (CPU_INT08U     )8u,
 783:..\app.c      ****                                    (CPU_INT08U     )10,
 784:..\app.c      ****                                    (CPU_CHAR       )0,
 785:..\app.c      ****                                    (CPU_BOOLEAN    )DEF_NO,
 786:..\app.c      ****                                    (CPU_BOOLEAN    )DEF_YES,
 787:..\app.c      ****                                    (CPU_CHAR      *)&line_str[8]);
 788:..\app.c      ****                  LCD_Disp_Position(0u, 0u);
 1553              		.loc 1 788 0
 1554 027a 0021     		movs	r1, #0
 1555 027c 0020     		movs	r0, #0
 1556 027e FFF7FEFF 		bl	LCD_Disp_Position
ARM GAS  C:\Users\alex\AppData\Local\Temp\ccrAtNPo.s 			page 44


 789:..\app.c      ****                  LCD_Disp_PrintString((uint8 *)line_str);
 1557              		.loc 1 789 0
 1558 0282 07F10803 		add	r3, r7, #8
 1559 0286 1846     		mov	r0, r3
 1560 0288 FFF7FEFF 		bl	LCD_Disp_PrintString
 790:..\app.c      ****                  
 791:..\app.c      ****                  Str_Copy(line_str, "#CtxSw: xxxxxxxx");
 1561              		.loc 1 791 0
 1562 028c 07F10803 		add	r3, r7, #8
 1563 0290 1D49     		ldr	r1, .L56+56
 1564 0292 1846     		mov	r0, r3
 1565 0294 FFF7FEFF 		bl	Str_Copy
 792:..\app.c      ****                  val          = (CPU_INT32U)OSTaskCtxSwCtr;
 1566              		.loc 1 792 0
 1567 0298 1C4B     		ldr	r3, .L56+60
 1568 029a 1B68     		ldr	r3, [r3]
 1569 029c FB61     		str	r3, [r7, #28]
 793:..\app.c      ****                  Str_FmtNbr_Int32U((CPU_INT32U     )val, 
 1570              		.loc 1 793 0
 1571 029e 07F10803 		add	r3, r7, #8
 1572 02a2 0833     		adds	r3, r3, #8
 1573 02a4 0293     		str	r3, [sp, #8]
 1574 02a6 0123     		movs	r3, #1
 1575 02a8 0193     		str	r3, [sp, #4]
 1576 02aa 0023     		movs	r3, #0
 1577 02ac 0093     		str	r3, [sp]
 1578 02ae 0023     		movs	r3, #0
 1579 02b0 0A22     		movs	r2, #10
 1580 02b2 0821     		movs	r1, #8
 1581 02b4 F869     		ldr	r0, [r7, #28]
 1582 02b6 FFF7FEFF 		bl	Str_FmtNbr_Int32U
 794:..\app.c      ****                                    (CPU_INT08U     )8u,
 795:..\app.c      ****                                    (CPU_INT08U     )10,
 796:..\app.c      ****                                    (CPU_CHAR       )0,
 797:..\app.c      ****                                    (CPU_BOOLEAN    )DEF_NO,
 798:..\app.c      ****                                    (CPU_BOOLEAN    )DEF_YES,
 799:..\app.c      ****                                    (CPU_CHAR      *)&line_str[8]);
 800:..\app.c      ****                  LCD_Disp_Position(1u, 0u);
 1583              		.loc 1 800 0
 1584 02ba 0021     		movs	r1, #0
 1585 02bc 0120     		movs	r0, #1
 1586 02be FFF7FEFF 		bl	LCD_Disp_Position
 801:..\app.c      ****                  LCD_Disp_PrintString((uint8 *)line_str);
 1587              		.loc 1 801 0
 1588 02c2 07F10803 		add	r3, r7, #8
 1589 02c6 1846     		mov	r0, r3
 1590 02c8 FFF7FEFF 		bl	LCD_Disp_PrintString
 802:..\app.c      ****                  break;
 1591              		.loc 1 802 0
 1592 02cc 2FE0     		b	.L51
 1593              	.L57:
 1594 02ce 00BF     		.align	2
 1595              	.L56:
 1596 02d0 40000000 		.word	.LC5
 1597 02d4 54000000 		.word	.LC6
 1598 02d8 68000000 		.word	.LC7
 1599 02dc D34D6210 		.word	274877907
ARM GAS  C:\Users\alex\AppData\Local\Temp\ccrAtNPo.s 			page 45


 1600 02e0 1F85EB51 		.word	1374389535
 1601 02e4 CDCCCCCC 		.word	-858993459
 1602 02e8 7C000000 		.word	.LC8
 1603 02ec 00000000 		.word	OSCfg_TickRate_Hz
 1604 02f0 90000000 		.word	.LC9
 1605 02f4 00000000 		.word	OSStatTaskCPUUsage
 1606 02f8 A4000000 		.word	.LC10
 1607 02fc 83DE1B43 		.word	1125899907
 1608 0300 B8000000 		.word	.LC11
 1609 0304 00000000 		.word	OSTickCtr
 1610 0308 CC000000 		.word	.LC12
 1611 030c 00000000 		.word	OSTaskCtxSwCtr
 1612              	.L55:
 803:..\app.c      **** 
 804:..\app.c      ****             case APP_USER_IF_SIGN_ON:
 805:..\app.c      ****             default:
 806:..\app.c      ****                  LCD_Disp_Position(0u, 0u);
 1613              		.loc 1 806 0
 1614 0310 0021     		movs	r1, #0
 1615 0312 0020     		movs	r0, #0
 1616 0314 FFF7FEFF 		bl	LCD_Disp_Position
 807:..\app.c      ****                  LCD_Disp_PrintString((uint8 *)"=== Micrium === ");
 1617              		.loc 1 807 0
 1618 0318 2548     		ldr	r0, .L58
 1619 031a FFF7FEFF 		bl	LCD_Disp_PrintString
 808:..\app.c      ****                  LCD_Disp_Position(1u, 0u);
 1620              		.loc 1 808 0
 1621 031e 0021     		movs	r1, #0
 1622 0320 0120     		movs	r0, #1
 1623 0322 FFF7FEFF 		bl	LCD_Disp_Position
 809:..\app.c      ****                  LCD_Disp_PrintString((uint8 *)"   uC/OS-III    ");
 1624              		.loc 1 809 0
 1625 0326 2348     		ldr	r0, .L58+4
 1626 0328 FFF7FEFF 		bl	LCD_Disp_PrintString
 810:..\app.c      ****                  break;
 1627              		.loc 1 810 0
 1628 032c 00BF     		nop
 1629              	.L51:
 811:..\app.c      ****         }
 812:..\app.c      **** 
 813:..\app.c      ****         pb2_state_cur = BSP_PB_StatusGet(2);
 1630              		.loc 1 813 0
 1631 032e 0220     		movs	r0, #2
 1632 0330 FFF7FEFF 		bl	BSP_PB_StatusGet
 1633 0334 0346     		mov	r3, r0
 1634 0336 87F82330 		strb	r3, [r7, #35]
 814:..\app.c      ****         pb3_state_cur = BSP_PB_StatusGet(3);
 1635              		.loc 1 814 0
 1636 033a 0320     		movs	r0, #3
 1637 033c FFF7FEFF 		bl	BSP_PB_StatusGet
 1638 0340 0346     		mov	r3, r0
 1639 0342 87F82230 		strb	r3, [r7, #34]
 815:..\app.c      ****         if ((pb2_state_cur  == DEF_ON ) &&
 1640              		.loc 1 815 0
 1641 0346 97F82330 		ldrb	r3, [r7, #35]	@ zero_extendqisi2
 1642 034a 012B     		cmp	r3, #1
 1643 034c 0BD1     		bne	.L52
ARM GAS  C:\Users\alex\AppData\Local\Temp\ccrAtNPo.s 			page 46


 1644              		.loc 1 815 0 is_stmt 0 discriminator 1
 1645 034e 97F82530 		ldrb	r3, [r7, #37]	@ zero_extendqisi2
 1646 0352 002B     		cmp	r3, #0
 1647 0354 07D1     		bne	.L52
 816:..\app.c      ****             (pb2_state_prev == DEF_OFF)) {     
 817:..\app.c      ****             user_if_state_cur = (user_if_state_cur + 1u) % APP_USER_IF_STATE_MAX;
 1648              		.loc 1 817 0 is_stmt 1
 1649 0356 97F82730 		ldrb	r3, [r7, #39]
 1650 035a 0133     		adds	r3, r3, #1
 1651 035c DBB2     		uxtb	r3, r3
 1652 035e 03F00303 		and	r3, r3, #3
 1653 0362 87F82730 		strb	r3, [r7, #39]
 1654              	.L52:
 818:..\app.c      ****         }
 819:..\app.c      **** 
 820:..\app.c      ****         if ((pb3_state_cur  == DEF_ON ) &&
 1655              		.loc 1 820 0
 1656 0366 97F82230 		ldrb	r3, [r7, #34]	@ zero_extendqisi2
 1657 036a 012B     		cmp	r3, #1
 1658 036c 0BD1     		bne	.L53
 1659              		.loc 1 820 0 is_stmt 0 discriminator 1
 1660 036e 97F82430 		ldrb	r3, [r7, #36]	@ zero_extendqisi2
 1661 0372 002B     		cmp	r3, #0
 1662 0374 07D1     		bne	.L53
 821:..\app.c      ****             (pb3_state_prev == DEF_OFF)) { 
 822:..\app.c      ****             user_if_state_cur = (user_if_state_cur - 1u) % APP_USER_IF_STATE_MAX;
 1663              		.loc 1 822 0 is_stmt 1
 1664 0376 97F82730 		ldrb	r3, [r7, #39]
 1665 037a 013B     		subs	r3, r3, #1
 1666 037c DBB2     		uxtb	r3, r3
 1667 037e 03F00303 		and	r3, r3, #3
 1668 0382 87F82730 		strb	r3, [r7, #39]
 1669              	.L53:
 823:..\app.c      ****         }
 824:..\app.c      **** 
 825:..\app.c      ****         OSTimeDlyHMSM(0, 0, 0, 100, 
 1670              		.loc 1 825 0
 1671 0386 07F11A03 		add	r3, r7, #26
 1672 038a 0193     		str	r3, [sp, #4]
 1673 038c 0023     		movs	r3, #0
 1674 038e 0093     		str	r3, [sp]
 1675 0390 6423     		movs	r3, #100
 1676 0392 0022     		movs	r2, #0
 1677 0394 0021     		movs	r1, #0
 1678 0396 0020     		movs	r0, #0
 1679 0398 FFF7FEFF 		bl	OSTimeDlyHMSM
 826:..\app.c      ****                       OS_OPT_TIME_HMSM_STRICT, 
 827:..\app.c      ****                       &os_err);
 828:..\app.c      **** 
 829:..\app.c      ****         pb2_state_prev = pb2_state_cur;
 1680              		.loc 1 829 0
 1681 039c 97F82330 		ldrb	r3, [r7, #35]
 1682 03a0 87F82530 		strb	r3, [r7, #37]
 830:..\app.c      ****         pb3_state_prev = pb3_state_cur;	
 1683              		.loc 1 830 0
 1684 03a4 97F82230 		ldrb	r3, [r7, #34]
 1685 03a8 87F82430 		strb	r3, [r7, #36]
ARM GAS  C:\Users\alex\AppData\Local\Temp\ccrAtNPo.s 			page 47


 831:..\app.c      ****     }
 1686              		.loc 1 831 0
 1687 03ac 51E6     		b	.L54
 1688              	.L59:
 1689 03ae 00BF     		.align	2
 1690              	.L58:
 1691 03b0 E0000000 		.word	.LC13
 1692 03b4 F4000000 		.word	.LC14
 1693              		.cfi_endproc
 1694              	.LFE75:
 1695              		.size	App_TaskUserIF, .-App_TaskUserIF
 1696              		.section	.text.statusMotor,"ax",%progbits
 1697              		.align	2
 1698              		.global	statusMotor
 1699              		.thumb
 1700              		.thumb_func
 1701              		.type	statusMotor, %function
 1702              	statusMotor:
 1703              	.LFB76:
 832:..\app.c      **** }
 833:..\app.c      **** 
 834:..\app.c      **** /* desenvolvimento das funcoes */
 835:..\app.c      **** 
 836:..\app.c      **** void statusMotor(CPU_INT08U op){
 1704              		.loc 1 836 0
 1705              		.cfi_startproc
 1706              		@ args = 0, pretend = 0, frame = 8
 1707              		@ frame_needed = 1, uses_anonymous_args = 0
 1708 0000 80B5     		push	{r7, lr}
 1709              		.cfi_def_cfa_offset 8
 1710              		.cfi_offset 7, -8
 1711              		.cfi_offset 14, -4
 1712 0002 82B0     		sub	sp, sp, #8
 1713              		.cfi_def_cfa_offset 16
 1714 0004 00AF     		add	r7, sp, #0
 1715              		.cfi_def_cfa_register 7
 1716 0006 0346     		mov	r3, r0
 1717 0008 FB71     		strb	r3, [r7, #7]
 837:..\app.c      ****     
 838:..\app.c      ****     if(op){
 1718              		.loc 1 838 0
 1719 000a FB79     		ldrb	r3, [r7, #7]	@ zero_extendqisi2
 1720 000c 002B     		cmp	r3, #0
 1721 000e 09D0     		beq	.L61
 1722              	.LBB9:
 839:..\app.c      ****         ct_motor_Write(LIGA);  // liga contator
 1723              		.loc 1 839 0
 1724 0010 0120     		movs	r0, #1
 1725 0012 FFF7FEFF 		bl	ct_motor_Write
 840:..\app.c      ****         si_liga_Write(LIGA);   // liga sinaleira motor liga
 1726              		.loc 1 840 0
 1727 0016 0120     		movs	r0, #1
 1728 0018 FFF7FEFF 		bl	si_liga_Write
 841:..\app.c      ****         si_desl_Write(DESL);   // desl sinaleira motor desl
 1729              		.loc 1 841 0
 1730 001c 0020     		movs	r0, #0
 1731 001e FFF7FEFF 		bl	si_desl_Write
ARM GAS  C:\Users\alex\AppData\Local\Temp\ccrAtNPo.s 			page 48


 1732              	.LBE9:
 842:..\app.c      ****                
 843:..\app.c      ****     }
 844:..\app.c      ****     else{
 845:..\app.c      ****         ct_motor_Write(DESL);   // desl contator
 846:..\app.c      ****         si_liga_Write(DESL);    // desl sinaleira motor liga
 847:..\app.c      ****         si_desl_Write(LIGA);    // liga sinaleira motor desl
 848:..\app.c      ****         
 849:..\app.c      ****     }
 850:..\app.c      ****     
 851:..\app.c      **** }
 1733              		.loc 1 851 0
 1734 0022 08E0     		b	.L63
 1735              	.L61:
 1736              	.LBB10:
 845:..\app.c      ****         si_liga_Write(DESL);    // desl sinaleira motor liga
 1737              		.loc 1 845 0
 1738 0024 0020     		movs	r0, #0
 1739 0026 FFF7FEFF 		bl	ct_motor_Write
 846:..\app.c      ****         si_desl_Write(LIGA);    // liga sinaleira motor desl
 1740              		.loc 1 846 0
 1741 002a 0020     		movs	r0, #0
 1742 002c FFF7FEFF 		bl	si_liga_Write
 847:..\app.c      ****         
 1743              		.loc 1 847 0
 1744 0030 0120     		movs	r0, #1
 1745 0032 FFF7FEFF 		bl	si_desl_Write
 1746              	.L63:
 1747              	.LBE10:
 1748              		.loc 1 851 0
 1749 0036 00BF     		nop
 1750 0038 0837     		adds	r7, r7, #8
 1751              		.cfi_def_cfa_offset 8
 1752 003a BD46     		mov	sp, r7
 1753              		.cfi_def_cfa_register 13
 1754              		@ sp needed
 1755 003c 80BD     		pop	{r7, pc}
 1756              		.cfi_endproc
 1757              	.LFE76:
 1758              		.size	statusMotor, .-statusMotor
 1759 003e 00BF     		.section	.text.statusRearme,"ax",%progbits
 1760              		.align	2
 1761              		.global	statusRearme
 1762              		.thumb
 1763              		.thumb_func
 1764              		.type	statusRearme, %function
 1765              	statusRearme:
 1766              	.LFB77:
 852:..\app.c      **** 
 853:..\app.c      **** void statusRearme(CPU_INT08U op){
 1767              		.loc 1 853 0
 1768              		.cfi_startproc
 1769              		@ args = 0, pretend = 0, frame = 8
 1770              		@ frame_needed = 1, uses_anonymous_args = 0
 1771 0000 80B5     		push	{r7, lr}
 1772              		.cfi_def_cfa_offset 8
 1773              		.cfi_offset 7, -8
ARM GAS  C:\Users\alex\AppData\Local\Temp\ccrAtNPo.s 			page 49


 1774              		.cfi_offset 14, -4
 1775 0002 82B0     		sub	sp, sp, #8
 1776              		.cfi_def_cfa_offset 16
 1777 0004 00AF     		add	r7, sp, #0
 1778              		.cfi_def_cfa_register 7
 1779 0006 0346     		mov	r3, r0
 1780 0008 FB71     		strb	r3, [r7, #7]
 854:..\app.c      ****     
 855:..\app.c      ****     if(op){
 1781              		.loc 1 855 0
 1782 000a FB79     		ldrb	r3, [r7, #7]	@ zero_extendqisi2
 1783 000c 002B     		cmp	r3, #0
 1784 000e 06D0     		beq	.L65
 1785              	.LBB11:
 856:..\app.c      ****         si_rearme_Write(LIGA);  // liga sinaleira rearme
 1786              		.loc 1 856 0
 1787 0010 0120     		movs	r0, #1
 1788 0012 FFF7FEFF 		bl	si_rearme_Write
 857:..\app.c      ****         rearme = 1;
 1789              		.loc 1 857 0
 1790 0016 074B     		ldr	r3, .L68
 1791 0018 0122     		movs	r2, #1
 1792 001a 1A70     		strb	r2, [r3]
 1793              	.LBE11:
 858:..\app.c      ****         
 859:..\app.c      ****     }
 860:..\app.c      ****     else{
 861:..\app.c      ****         si_rearme_Write(DESL);  // desl sinaleira rearme
 862:..\app.c      ****         rearme = 0;
 863:..\app.c      ****     }
 864:..\app.c      ****     
 865:..\app.c      **** }
 1794              		.loc 1 865 0
 1795 001c 05E0     		b	.L67
 1796              	.L65:
 1797              	.LBB12:
 861:..\app.c      ****         rearme = 0;
 1798              		.loc 1 861 0
 1799 001e 0020     		movs	r0, #0
 1800 0020 FFF7FEFF 		bl	si_rearme_Write
 862:..\app.c      ****     }
 1801              		.loc 1 862 0
 1802 0024 034B     		ldr	r3, .L68
 1803 0026 0022     		movs	r2, #0
 1804 0028 1A70     		strb	r2, [r3]
 1805              	.L67:
 1806              	.LBE12:
 1807              		.loc 1 865 0
 1808 002a 00BF     		nop
 1809 002c 0837     		adds	r7, r7, #8
 1810              		.cfi_def_cfa_offset 8
 1811 002e BD46     		mov	sp, r7
 1812              		.cfi_def_cfa_register 13
 1813              		@ sp needed
 1814 0030 80BD     		pop	{r7, pc}
 1815              	.L69:
 1816 0032 00BF     		.align	2
ARM GAS  C:\Users\alex\AppData\Local\Temp\ccrAtNPo.s 			page 50


 1817              	.L68:
 1818 0034 00000000 		.word	rearme
 1819              		.cfi_endproc
 1820              	.LFE77:
 1821              		.size	statusRearme, .-statusRearme
 1822              		.section	.text.statusEmerg,"ax",%progbits
 1823              		.align	2
 1824              		.global	statusEmerg
 1825              		.thumb
 1826              		.thumb_func
 1827              		.type	statusEmerg, %function
 1828              	statusEmerg:
 1829              	.LFB78:
 866:..\app.c      **** 
 867:..\app.c      **** void statusEmerg(CPU_INT08U op){
 1830              		.loc 1 867 0
 1831              		.cfi_startproc
 1832              		@ args = 0, pretend = 0, frame = 8
 1833              		@ frame_needed = 1, uses_anonymous_args = 0
 1834 0000 80B5     		push	{r7, lr}
 1835              		.cfi_def_cfa_offset 8
 1836              		.cfi_offset 7, -8
 1837              		.cfi_offset 14, -4
 1838 0002 82B0     		sub	sp, sp, #8
 1839              		.cfi_def_cfa_offset 16
 1840 0004 00AF     		add	r7, sp, #0
 1841              		.cfi_def_cfa_register 7
 1842 0006 0346     		mov	r3, r0
 1843 0008 FB71     		strb	r3, [r7, #7]
 868:..\app.c      ****     
 869:..\app.c      ****     if(op){
 1844              		.loc 1 869 0
 1845 000a FB79     		ldrb	r3, [r7, #7]	@ zero_extendqisi2
 1846 000c 002B     		cmp	r3, #0
 1847 000e 06D0     		beq	.L71
 1848              	.LBB13:
 870:..\app.c      ****         si_emerg_Write(LIGA);   // liga sinaleira emerg
 1849              		.loc 1 870 0
 1850 0010 0120     		movs	r0, #1
 1851 0012 FFF7FEFF 		bl	si_emerg_Write
 871:..\app.c      ****         emerg = 1;
 1852              		.loc 1 871 0
 1853 0016 074B     		ldr	r3, .L74
 1854 0018 0122     		movs	r2, #1
 1855 001a 1A70     		strb	r2, [r3]
 1856              	.LBE13:
 872:..\app.c      ****         
 873:..\app.c      ****     }
 874:..\app.c      ****     else{        
 875:..\app.c      ****         si_emerg_Write(DESL);   // desl sinaleira rearme
 876:..\app.c      ****         emerg = 0;
 877:..\app.c      ****         
 878:..\app.c      ****     }
 879:..\app.c      ****     
 880:..\app.c      **** }
 1857              		.loc 1 880 0
 1858 001c 05E0     		b	.L73
ARM GAS  C:\Users\alex\AppData\Local\Temp\ccrAtNPo.s 			page 51


 1859              	.L71:
 1860              	.LBB14:
 875:..\app.c      ****         emerg = 0;
 1861              		.loc 1 875 0
 1862 001e 0020     		movs	r0, #0
 1863 0020 FFF7FEFF 		bl	si_emerg_Write
 876:..\app.c      ****         
 1864              		.loc 1 876 0
 1865 0024 034B     		ldr	r3, .L74
 1866 0026 0022     		movs	r2, #0
 1867 0028 1A70     		strb	r2, [r3]
 1868              	.L73:
 1869              	.LBE14:
 1870              		.loc 1 880 0
 1871 002a 00BF     		nop
 1872 002c 0837     		adds	r7, r7, #8
 1873              		.cfi_def_cfa_offset 8
 1874 002e BD46     		mov	sp, r7
 1875              		.cfi_def_cfa_register 13
 1876              		@ sp needed
 1877 0030 80BD     		pop	{r7, pc}
 1878              	.L75:
 1879 0032 00BF     		.align	2
 1880              	.L74:
 1881 0034 00000000 		.word	emerg
 1882              		.cfi_endproc
 1883              	.LFE78:
 1884              		.size	statusEmerg, .-statusEmerg
 1885              		.section	.text.statusAlerta,"ax",%progbits
 1886              		.align	2
 1887              		.global	statusAlerta
 1888              		.thumb
 1889              		.thumb_func
 1890              		.type	statusAlerta, %function
 1891              	statusAlerta:
 1892              	.LFB79:
 881:..\app.c      **** 
 882:..\app.c      **** void statusAlerta(CPU_INT08U op){
 1893              		.loc 1 882 0
 1894              		.cfi_startproc
 1895              		@ args = 0, pretend = 0, frame = 8
 1896              		@ frame_needed = 1, uses_anonymous_args = 0
 1897 0000 80B5     		push	{r7, lr}
 1898              		.cfi_def_cfa_offset 8
 1899              		.cfi_offset 7, -8
 1900              		.cfi_offset 14, -4
 1901 0002 82B0     		sub	sp, sp, #8
 1902              		.cfi_def_cfa_offset 16
 1903 0004 00AF     		add	r7, sp, #0
 1904              		.cfi_def_cfa_register 7
 1905 0006 0346     		mov	r3, r0
 1906 0008 FB71     		strb	r3, [r7, #7]
 883:..\app.c      ****     
 884:..\app.c      ****     if(op){
 1907              		.loc 1 884 0
 1908 000a FB79     		ldrb	r3, [r7, #7]	@ zero_extendqisi2
 1909 000c 002B     		cmp	r3, #0
ARM GAS  C:\Users\alex\AppData\Local\Temp\ccrAtNPo.s 			page 52


 1910 000e 06D0     		beq	.L77
 1911              	.LBB15:
 885:..\app.c      ****         si_alerta_Write(LIGA);   // liga sinaleira alerta
 1912              		.loc 1 885 0
 1913 0010 0120     		movs	r0, #1
 1914 0012 FFF7FEFF 		bl	si_alerta_Write
 886:..\app.c      ****         alerta = 1;
 1915              		.loc 1 886 0
 1916 0016 074B     		ldr	r3, .L80
 1917 0018 0122     		movs	r2, #1
 1918 001a 1A70     		strb	r2, [r3]
 1919              	.LBE15:
 887:..\app.c      ****         
 888:..\app.c      ****     }
 889:..\app.c      ****     else{        
 890:..\app.c      ****         si_alerta_Write(DESL);   // desl sinaleira alerta
 891:..\app.c      ****         alerta = 0;
 892:..\app.c      ****         
 893:..\app.c      ****     }
 894:..\app.c      ****     
 895:..\app.c      **** }
 1920              		.loc 1 895 0
 1921 001c 05E0     		b	.L79
 1922              	.L77:
 1923              	.LBB16:
 890:..\app.c      ****         alerta = 0;
 1924              		.loc 1 890 0
 1925 001e 0020     		movs	r0, #0
 1926 0020 FFF7FEFF 		bl	si_alerta_Write
 891:..\app.c      ****         
 1927              		.loc 1 891 0
 1928 0024 034B     		ldr	r3, .L80
 1929 0026 0022     		movs	r2, #0
 1930 0028 1A70     		strb	r2, [r3]
 1931              	.L79:
 1932              	.LBE16:
 1933              		.loc 1 895 0
 1934 002a 00BF     		nop
 1935 002c 0837     		adds	r7, r7, #8
 1936              		.cfi_def_cfa_offset 8
 1937 002e BD46     		mov	sp, r7
 1938              		.cfi_def_cfa_register 13
 1939              		@ sp needed
 1940 0030 80BD     		pop	{r7, pc}
 1941              	.L81:
 1942 0032 00BF     		.align	2
 1943              	.L80:
 1944 0034 00000000 		.word	alerta
 1945              		.cfi_endproc
 1946              	.LFE79:
 1947              		.size	statusAlerta, .-statusAlerta
 1948              		.text
 1949              	.Letext0:
 1950              		.file 2 "c:\\program files (x86)\\cypress\\psoc creator\\4.4\\psoc creator\\import\\gnu\\arm\\5.4.
 1951              		.file 3 "c:\\program files (x86)\\cypress\\psoc creator\\4.4\\psoc creator\\import\\gnu\\arm\\5.4.
 1952              		.file 4 "..\\..\\..\\..\\..\\..\\uC-CPU\\ARM-Cortex-M3\\GNU/cpu.h"
 1953              		.file 5 "..\\..\\..\\..\\..\\..\\uC-CPU/cpu_core.h"
ARM GAS  C:\Users\alex\AppData\Local\Temp\ccrAtNPo.s 			page 53


 1954              		.file 6 "..\\..\\..\\..\\..\\..\\uCOS-III\\Source/os_type.h"
 1955              		.file 7 "..\\..\\..\\..\\..\\..\\uCOS-III\\Source/os.h"
 1956              		.file 8 "Generated_Source\\PSoC5/cytypes.h"
 1957              		.file 9 "Generated_Source\\PSoC5/core_cm3.h"
 1958              		.section	.debug_info,"",%progbits
 1959              	.Ldebug_info0:
 1960 0000 C2120000 		.4byte	0x12c2
 1961 0004 0400     		.2byte	0x4
 1962 0006 00000000 		.4byte	.Ldebug_abbrev0
 1963 000a 04       		.byte	0x4
 1964 000b 01       		.uleb128 0x1
 1965 000c F30A0000 		.4byte	.LASF351
 1966 0010 0C       		.byte	0xc
 1967 0011 F10B0000 		.4byte	.LASF352
 1968 0015 E3020000 		.4byte	.LASF353
 1969 0019 00000000 		.4byte	.Ldebug_ranges0+0
 1970 001d 00000000 		.4byte	0
 1971 0021 00000000 		.4byte	.Ldebug_line0
 1972 0025 02       		.uleb128 0x2
 1973 0026 04       		.byte	0x4
 1974 0027 03       		.uleb128 0x3
 1975 0028 01       		.byte	0x1
 1976 0029 06       		.byte	0x6
 1977 002a 7F040000 		.4byte	.LASF0
 1978 002e 03       		.uleb128 0x3
 1979 002f 01       		.byte	0x1
 1980 0030 08       		.byte	0x8
 1981 0031 61050000 		.4byte	.LASF1
 1982 0035 03       		.uleb128 0x3
 1983 0036 02       		.byte	0x2
 1984 0037 05       		.byte	0x5
 1985 0038 AC120000 		.4byte	.LASF2
 1986 003c 03       		.uleb128 0x3
 1987 003d 02       		.byte	0x2
 1988 003e 07       		.byte	0x7
 1989 003f 15150000 		.4byte	.LASF3
 1990 0043 04       		.uleb128 0x4
 1991 0044 C3150000 		.4byte	.LASF12
 1992 0048 02       		.byte	0x2
 1993 0049 3F       		.byte	0x3f
 1994 004a 4E000000 		.4byte	0x4e
 1995 004e 03       		.uleb128 0x3
 1996 004f 04       		.byte	0x4
 1997 0050 05       		.byte	0x5
 1998 0051 60030000 		.4byte	.LASF4
 1999 0055 03       		.uleb128 0x3
 2000 0056 04       		.byte	0x4
 2001 0057 07       		.byte	0x7
 2002 0058 CA090000 		.4byte	.LASF5
 2003 005c 03       		.uleb128 0x3
 2004 005d 08       		.byte	0x8
 2005 005e 05       		.byte	0x5
 2006 005f C00B0000 		.4byte	.LASF6
 2007 0063 03       		.uleb128 0x3
 2008 0064 08       		.byte	0x8
 2009 0065 07       		.byte	0x7
 2010 0066 BE0F0000 		.4byte	.LASF7
ARM GAS  C:\Users\alex\AppData\Local\Temp\ccrAtNPo.s 			page 54


 2011 006a 05       		.uleb128 0x5
 2012 006b 04       		.byte	0x4
 2013 006c 05       		.byte	0x5
 2014 006d 696E7400 		.ascii	"int\000"
 2015 0071 03       		.uleb128 0x3
 2016 0072 04       		.byte	0x4
 2017 0073 07       		.byte	0x7
 2018 0074 4C0D0000 		.4byte	.LASF8
 2019 0078 03       		.uleb128 0x3
 2020 0079 08       		.byte	0x8
 2021 007a 04       		.byte	0x4
 2022 007b 730E0000 		.4byte	.LASF9
 2023 007f 03       		.uleb128 0x3
 2024 0080 04       		.byte	0x4
 2025 0081 07       		.byte	0x7
 2026 0082 61000000 		.4byte	.LASF10
 2027 0086 03       		.uleb128 0x3
 2028 0087 01       		.byte	0x1
 2029 0088 08       		.byte	0x8
 2030 0089 51060000 		.4byte	.LASF11
 2031 008d 04       		.uleb128 0x4
 2032 008e D4000000 		.4byte	.LASF13
 2033 0092 03       		.byte	0x3
 2034 0093 2C       		.byte	0x2c
 2035 0094 43000000 		.4byte	0x43
 2036 0098 03       		.uleb128 0x3
 2037 0099 08       		.byte	0x8
 2038 009a 04       		.byte	0x4
 2039 009b 110C0000 		.4byte	.LASF14
 2040 009f 03       		.uleb128 0x3
 2041 00a0 04       		.byte	0x4
 2042 00a1 04       		.byte	0x4
 2043 00a2 DF0C0000 		.4byte	.LASF15
 2044 00a6 04       		.uleb128 0x4
 2045 00a7 EB000000 		.4byte	.LASF16
 2046 00ab 04       		.byte	0x4
 2047 00ac 76       		.byte	0x76
 2048 00ad 86000000 		.4byte	0x86
 2049 00b1 04       		.uleb128 0x4
 2050 00b2 6A000000 		.4byte	.LASF17
 2051 00b6 04       		.byte	0x4
 2052 00b7 77       		.byte	0x77
 2053 00b8 2E000000 		.4byte	0x2e
 2054 00bc 04       		.uleb128 0x4
 2055 00bd 5B140000 		.4byte	.LASF18
 2056 00c1 04       		.byte	0x4
 2057 00c2 78       		.byte	0x78
 2058 00c3 2E000000 		.4byte	0x2e
 2059 00c7 04       		.uleb128 0x4
 2060 00c8 25010000 		.4byte	.LASF19
 2061 00cc 04       		.byte	0x4
 2062 00cd 7A       		.byte	0x7a
 2063 00ce 3C000000 		.4byte	0x3c
 2064 00d2 04       		.uleb128 0x4
 2065 00d3 A4070000 		.4byte	.LASF20
 2066 00d7 04       		.byte	0x4
 2067 00d8 7C       		.byte	0x7c
ARM GAS  C:\Users\alex\AppData\Local\Temp\ccrAtNPo.s 			page 55


 2068 00d9 71000000 		.4byte	0x71
 2069 00dd 06       		.uleb128 0x6
 2070 00de 04       		.byte	0x4
 2071 00df E3000000 		.4byte	0xe3
 2072 00e3 07       		.uleb128 0x7
 2073 00e4 EE000000 		.4byte	0xee
 2074 00e8 08       		.uleb128 0x8
 2075 00e9 25000000 		.4byte	0x25
 2076 00ed 00       		.byte	0
 2077 00ee 04       		.uleb128 0x4
 2078 00ef 00080000 		.4byte	.LASF21
 2079 00f3 04       		.byte	0x4
 2080 00f4 B5       		.byte	0xb5
 2081 00f5 D2000000 		.4byte	0xd2
 2082 00f9 04       		.uleb128 0x4
 2083 00fa BB010000 		.4byte	.LASF22
 2084 00fe 04       		.byte	0x4
 2085 00ff D9       		.byte	0xd9
 2086 0100 D2000000 		.4byte	0xd2
 2087 0104 04       		.uleb128 0x4
 2088 0105 040D0000 		.4byte	.LASF23
 2089 0109 04       		.byte	0x4
 2090 010a DA       		.byte	0xda
 2091 010b EE000000 		.4byte	0xee
 2092 010f 04       		.uleb128 0x4
 2093 0110 EB080000 		.4byte	.LASF24
 2094 0114 05       		.byte	0x5
 2095 0115 C4       		.byte	0xc4
 2096 0116 D2000000 		.4byte	0xd2
 2097 011a 04       		.uleb128 0x4
 2098 011b 18040000 		.4byte	.LASF25
 2099 011f 05       		.byte	0x5
 2100 0120 C7       		.byte	0xc7
 2101 0121 0F010000 		.4byte	0x10f
 2102 0125 04       		.uleb128 0x4
 2103 0126 DC090000 		.4byte	.LASF26
 2104 012a 06       		.byte	0x6
 2105 012b 30       		.byte	0x30
 2106 012c C7000000 		.4byte	0xc7
 2107 0130 04       		.uleb128 0x4
 2108 0131 F4080000 		.4byte	.LASF27
 2109 0135 06       		.byte	0x6
 2110 0136 34       		.byte	0x34
 2111 0137 D2000000 		.4byte	0xd2
 2112 013b 04       		.uleb128 0x4
 2113 013c 25060000 		.4byte	.LASF28
 2114 0140 06       		.byte	0x6
 2115 0141 36       		.byte	0x36
 2116 0142 D2000000 		.4byte	0xd2
 2117 0146 04       		.uleb128 0x4
 2118 0147 95120000 		.4byte	.LASF29
 2119 014b 06       		.byte	0x6
 2120 014c 38       		.byte	0x38
 2121 014d D2000000 		.4byte	0xd2
 2122 0151 04       		.uleb128 0x4
 2123 0152 43140000 		.4byte	.LASF30
 2124 0156 06       		.byte	0x6
ARM GAS  C:\Users\alex\AppData\Local\Temp\ccrAtNPo.s 			page 56


 2125 0157 3F       		.byte	0x3f
 2126 0158 C7000000 		.4byte	0xc7
 2127 015c 04       		.uleb128 0x4
 2128 015d 8E0D0000 		.4byte	.LASF31
 2129 0161 06       		.byte	0x6
 2130 0162 40       		.byte	0x40
 2131 0163 C7000000 		.4byte	0xc7
 2132 0167 04       		.uleb128 0x4
 2133 0168 A80C0000 		.4byte	.LASF32
 2134 016c 06       		.byte	0x6
 2135 016d 42       		.byte	0x42
 2136 016e BC000000 		.4byte	0xbc
 2137 0172 04       		.uleb128 0x4
 2138 0173 950A0000 		.4byte	.LASF33
 2139 0177 06       		.byte	0x6
 2140 0178 44       		.byte	0x44
 2141 0179 C7000000 		.4byte	0xc7
 2142 017d 04       		.uleb128 0x4
 2143 017e 2F060000 		.4byte	.LASF34
 2144 0182 06       		.byte	0x6
 2145 0183 45       		.byte	0x45
 2146 0184 D2000000 		.4byte	0xd2
 2147 0188 04       		.uleb128 0x4
 2148 0189 3B020000 		.4byte	.LASF35
 2149 018d 06       		.byte	0x6
 2150 018e 47       		.byte	0x47
 2151 018f C7000000 		.4byte	0xc7
 2152 0193 04       		.uleb128 0x4
 2153 0194 AF0B0000 		.4byte	.LASF36
 2154 0198 06       		.byte	0x6
 2155 0199 49       		.byte	0x49
 2156 019a BC000000 		.4byte	0xbc
 2157 019e 04       		.uleb128 0x4
 2158 019f 82100000 		.4byte	.LASF37
 2159 01a3 06       		.byte	0x6
 2160 01a4 4D       		.byte	0x4d
 2161 01a5 D2000000 		.4byte	0xd2
 2162 01a9 04       		.uleb128 0x4
 2163 01aa 30080000 		.4byte	.LASF38
 2164 01ae 06       		.byte	0x6
 2165 01af 4F       		.byte	0x4f
 2166 01b0 D2000000 		.4byte	0xd2
 2167 01b4 04       		.uleb128 0x4
 2168 01b5 600C0000 		.4byte	.LASF39
 2169 01b9 06       		.byte	0x6
 2170 01ba 52       		.byte	0x52
 2171 01bb D2000000 		.4byte	0xd2
 2172 01bf 04       		.uleb128 0x4
 2173 01c0 0D060000 		.4byte	.LASF40
 2174 01c4 06       		.byte	0x6
 2175 01c5 54       		.byte	0x54
 2176 01c6 BC000000 		.4byte	0xbc
 2177 01ca 04       		.uleb128 0x4
 2178 01cb 340E0000 		.4byte	.LASF41
 2179 01cf 06       		.byte	0x6
 2180 01d0 56       		.byte	0x56
 2181 01d1 BC000000 		.4byte	0xbc
ARM GAS  C:\Users\alex\AppData\Local\Temp\ccrAtNPo.s 			page 57


 2182 01d5 04       		.uleb128 0x4
 2183 01d6 CE0B0000 		.4byte	.LASF42
 2184 01da 06       		.byte	0x6
 2185 01db 58       		.byte	0x58
 2186 01dc D2000000 		.4byte	0xd2
 2187 01e0 09       		.uleb128 0x9
 2188 01e1 B40E0000 		.4byte	.LASF296
 2189 01e5 02       		.byte	0x2
 2190 01e6 3C000000 		.4byte	0x3c
 2191 01ea 07       		.byte	0x7
 2192 01eb A501     		.2byte	0x1a5
 2193 01ed 58060000 		.4byte	0x658
 2194 01f1 0A       		.uleb128 0xa
 2195 01f2 890B0000 		.4byte	.LASF43
 2196 01f6 00       		.byte	0
 2197 01f7 0B       		.uleb128 0xb
 2198 01f8 2E040000 		.4byte	.LASF44
 2199 01fc 1027     		.2byte	0x2710
 2200 01fe 0B       		.uleb128 0xb
 2201 01ff CA060000 		.4byte	.LASF45
 2202 0203 1127     		.2byte	0x2711
 2203 0205 0B       		.uleb128 0xb
 2204 0206 37040000 		.4byte	.LASF46
 2205 020a F82A     		.2byte	0x2af8
 2206 020c 0B       		.uleb128 0xb
 2207 020d 40040000 		.4byte	.LASF47
 2208 0211 E02E     		.2byte	0x2ee0
 2209 0213 0B       		.uleb128 0xb
 2210 0214 140A0000 		.4byte	.LASF48
 2211 0218 E12E     		.2byte	0x2ee1
 2212 021a 0B       		.uleb128 0xb
 2213 021b 49040000 		.4byte	.LASF49
 2214 021f C832     		.2byte	0x32c8
 2215 0221 0B       		.uleb128 0xb
 2216 0222 CC120000 		.4byte	.LASF50
 2217 0226 C932     		.2byte	0x32c9
 2218 0228 0B       		.uleb128 0xb
 2219 0229 52040000 		.4byte	.LASF51
 2220 022d B036     		.2byte	0x36b0
 2221 022f 0B       		.uleb128 0xb
 2222 0230 5B040000 		.4byte	.LASF52
 2223 0234 983A     		.2byte	0x3a98
 2224 0236 0B       		.uleb128 0xb
 2225 0237 04040000 		.4byte	.LASF53
 2226 023b 993A     		.2byte	0x3a99
 2227 023d 0B       		.uleb128 0xb
 2228 023e 17100000 		.4byte	.LASF54
 2229 0242 FD3A     		.2byte	0x3afd
 2230 0244 0B       		.uleb128 0xb
 2231 0245 79050000 		.4byte	.LASF55
 2232 0249 FE3A     		.2byte	0x3afe
 2233 024b 0B       		.uleb128 0xb
 2234 024c F8130000 		.4byte	.LASF56
 2235 0250 FF3A     		.2byte	0x3aff
 2236 0252 0B       		.uleb128 0xb
 2237 0253 950F0000 		.4byte	.LASF57
 2238 0257 003B     		.2byte	0x3b00
ARM GAS  C:\Users\alex\AppData\Local\Temp\ccrAtNPo.s 			page 58


 2239 0259 0B       		.uleb128 0xb
 2240 025a 64040000 		.4byte	.LASF58
 2241 025e 803E     		.2byte	0x3e80
 2242 0260 0B       		.uleb128 0xb
 2243 0261 6D040000 		.4byte	.LASF59
 2244 0265 6842     		.2byte	0x4268
 2245 0267 0B       		.uleb128 0xb
 2246 0268 76040000 		.4byte	.LASF60
 2247 026c 5046     		.2byte	0x4650
 2248 026e 0B       		.uleb128 0xb
 2249 026f 110D0000 		.4byte	.LASF61
 2250 0273 5146     		.2byte	0x4651
 2251 0275 0B       		.uleb128 0xb
 2252 0276 69150000 		.4byte	.LASF62
 2253 027a 5246     		.2byte	0x4652
 2254 027c 0B       		.uleb128 0xb
 2255 027d 69030000 		.4byte	.LASF63
 2256 0281 5346     		.2byte	0x4653
 2257 0283 0B       		.uleb128 0xb
 2258 0284 7C110000 		.4byte	.LASF64
 2259 0288 5446     		.2byte	0x4654
 2260 028a 0B       		.uleb128 0xb
 2261 028b 51080000 		.4byte	.LASF65
 2262 028f 5546     		.2byte	0x4655
 2263 0291 0B       		.uleb128 0xb
 2264 0292 6A080000 		.4byte	.LASF66
 2265 0296 5646     		.2byte	0x4656
 2266 0298 0B       		.uleb128 0xb
 2267 0299 76000000 		.4byte	.LASF67
 2268 029d 384A     		.2byte	0x4a38
 2269 029f 0B       		.uleb128 0xb
 2270 02a0 8B040000 		.4byte	.LASF68
 2271 02a4 204E     		.2byte	0x4e20
 2272 02a6 0B       		.uleb128 0xb
 2273 02a7 94040000 		.4byte	.LASF69
 2274 02ab 0852     		.2byte	0x5208
 2275 02ad 0B       		.uleb128 0xb
 2276 02ae 14120000 		.4byte	.LASF70
 2277 02b2 0952     		.2byte	0x5209
 2278 02b4 0B       		.uleb128 0xb
 2279 02b5 9D040000 		.4byte	.LASF71
 2280 02b9 F055     		.2byte	0x55f0
 2281 02bb 0B       		.uleb128 0xb
 2282 02bc 3B060000 		.4byte	.LASF72
 2283 02c0 B956     		.2byte	0x56b9
 2284 02c2 0B       		.uleb128 0xb
 2285 02c3 00000000 		.4byte	.LASF73
 2286 02c7 BA56     		.2byte	0x56ba
 2287 02c9 0B       		.uleb128 0xb
 2288 02ca F1060000 		.4byte	.LASF74
 2289 02ce BB56     		.2byte	0x56bb
 2290 02d0 0B       		.uleb128 0xb
 2291 02d1 76060000 		.4byte	.LASF75
 2292 02d5 BC56     		.2byte	0x56bc
 2293 02d7 0B       		.uleb128 0xb
 2294 02d8 A0080000 		.4byte	.LASF76
 2295 02dc BD56     		.2byte	0x56bd
ARM GAS  C:\Users\alex\AppData\Local\Temp\ccrAtNPo.s 			page 59


 2296 02de 0B       		.uleb128 0xb
 2297 02df 7C0F0000 		.4byte	.LASF77
 2298 02e3 BE56     		.2byte	0x56be
 2299 02e5 0B       		.uleb128 0xb
 2300 02e6 300F0000 		.4byte	.LASF78
 2301 02ea BF56     		.2byte	0x56bf
 2302 02ec 0B       		.uleb128 0xb
 2303 02ed 58100000 		.4byte	.LASF79
 2304 02f1 C056     		.2byte	0x56c0
 2305 02f3 0B       		.uleb128 0xb
 2306 02f4 18110000 		.4byte	.LASF80
 2307 02f8 C156     		.2byte	0x56c1
 2308 02fa 0B       		.uleb128 0xb
 2309 02fb A0020000 		.4byte	.LASF81
 2310 02ff C256     		.2byte	0x56c2
 2311 0301 0B       		.uleb128 0xb
 2312 0302 55020000 		.4byte	.LASF82
 2313 0306 1D57     		.2byte	0x571d
 2314 0308 0B       		.uleb128 0xb
 2315 0309 0D140000 		.4byte	.LASF83
 2316 030d 1E57     		.2byte	0x571e
 2317 030f 0B       		.uleb128 0xb
 2318 0310 19070000 		.4byte	.LASF84
 2319 0314 8157     		.2byte	0x5781
 2320 0316 0B       		.uleb128 0xb
 2321 0317 D0020000 		.4byte	.LASF85
 2322 031b 8257     		.2byte	0x5782
 2323 031d 0B       		.uleb128 0xb
 2324 031e 570F0000 		.4byte	.LASF86
 2325 0322 8357     		.2byte	0x5783
 2326 0324 0B       		.uleb128 0xb
 2327 0325 A6040000 		.4byte	.LASF87
 2328 0329 D859     		.2byte	0x59d8
 2329 032b 0B       		.uleb128 0xb
 2330 032c 0F0E0000 		.4byte	.LASF88
 2331 0330 D959     		.2byte	0x59d9
 2332 0332 0B       		.uleb128 0xb
 2333 0333 43090000 		.4byte	.LASF89
 2334 0337 DA59     		.2byte	0x59da
 2335 0339 0B       		.uleb128 0xb
 2336 033a AF040000 		.4byte	.LASF90
 2337 033e C05D     		.2byte	0x5dc0
 2338 0340 0B       		.uleb128 0xb
 2339 0341 6B020000 		.4byte	.LASF91
 2340 0345 C15D     		.2byte	0x5dc1
 2341 0347 0B       		.uleb128 0xb
 2342 0348 C4080000 		.4byte	.LASF92
 2343 034c C25D     		.2byte	0x5dc2
 2344 034e 0B       		.uleb128 0xb
 2345 034f BD140000 		.4byte	.LASF93
 2346 0353 C35D     		.2byte	0x5dc3
 2347 0355 0B       		.uleb128 0xb
 2348 0356 CD150000 		.4byte	.LASF94
 2349 035a C45D     		.2byte	0x5dc4
 2350 035c 0B       		.uleb128 0xb
 2351 035d E5130000 		.4byte	.LASF95
 2352 0361 255E     		.2byte	0x5e25
ARM GAS  C:\Users\alex\AppData\Local\Temp\ccrAtNPo.s 			page 60


 2353 0363 0B       		.uleb128 0xb
 2354 0364 9A0D0000 		.4byte	.LASF96
 2355 0368 895E     		.2byte	0x5e89
 2356 036a 0B       		.uleb128 0xb
 2357 036b 220E0000 		.4byte	.LASF97
 2358 036f 8A5E     		.2byte	0x5e8a
 2359 0371 0B       		.uleb128 0xb
 2360 0372 B8040000 		.4byte	.LASF98
 2361 0376 A861     		.2byte	0x61a8
 2362 0378 0B       		.uleb128 0xb
 2363 0379 37070000 		.4byte	.LASF99
 2364 037d A961     		.2byte	0x61a9
 2365 037f 0B       		.uleb128 0xb
 2366 0380 320A0000 		.4byte	.LASF100
 2367 0384 AA61     		.2byte	0x61aa
 2368 0386 0B       		.uleb128 0xb
 2369 0387 71010000 		.4byte	.LASF101
 2370 038b AB61     		.2byte	0x61ab
 2371 038d 0B       		.uleb128 0xb
 2372 038e FA0B0000 		.4byte	.LASF102
 2373 0392 AC61     		.2byte	0x61ac
 2374 0394 0B       		.uleb128 0xb
 2375 0395 6C0F0000 		.4byte	.LASF103
 2376 0399 AD61     		.2byte	0x61ad
 2377 039b 0B       		.uleb128 0xb
 2378 039c 7B030000 		.4byte	.LASF104
 2379 03a0 AE61     		.2byte	0x61ae
 2380 03a2 0B       		.uleb128 0xb
 2381 03a3 600E0000 		.4byte	.LASF105
 2382 03a7 AF61     		.2byte	0x61af
 2383 03a9 0B       		.uleb128 0xb
 2384 03aa 19160000 		.4byte	.LASF106
 2385 03ae B061     		.2byte	0x61b0
 2386 03b0 0B       		.uleb128 0xb
 2387 03b1 DA0D0000 		.4byte	.LASF107
 2388 03b5 0D62     		.2byte	0x620d
 2389 03b7 0B       		.uleb128 0xb
 2390 03b8 46050000 		.4byte	.LASF108
 2391 03bc 0E62     		.2byte	0x620e
 2392 03be 0B       		.uleb128 0xb
 2393 03bf 49130000 		.4byte	.LASF109
 2394 03c3 7162     		.2byte	0x6271
 2395 03c5 0B       		.uleb128 0xb
 2396 03c6 5D150000 		.4byte	.LASF110
 2397 03ca 7262     		.2byte	0x6272
 2398 03cc 0B       		.uleb128 0xb
 2399 03cd A6100000 		.4byte	.LASF111
 2400 03d1 7362     		.2byte	0x6273
 2401 03d3 0B       		.uleb128 0xb
 2402 03d4 04100000 		.4byte	.LASF112
 2403 03d8 D562     		.2byte	0x62d5
 2404 03da 0B       		.uleb128 0xb
 2405 03db C1040000 		.4byte	.LASF113
 2406 03df 9065     		.2byte	0x6590
 2407 03e1 0B       		.uleb128 0xb
 2408 03e2 B00F0000 		.4byte	.LASF114
 2409 03e6 9165     		.2byte	0x6591
ARM GAS  C:\Users\alex\AppData\Local\Temp\ccrAtNPo.s 			page 61


 2410 03e8 0B       		.uleb128 0xb
 2411 03e9 EA120000 		.4byte	.LASF115
 2412 03ed 9265     		.2byte	0x6592
 2413 03ef 0B       		.uleb128 0xb
 2414 03f0 4E140000 		.4byte	.LASF116
 2415 03f4 9365     		.2byte	0x6593
 2416 03f6 0B       		.uleb128 0xb
 2417 03f7 0B070000 		.4byte	.LASF117
 2418 03fb 9465     		.2byte	0x6594
 2419 03fd 0B       		.uleb128 0xb
 2420 03fe CA040000 		.4byte	.LASF118
 2421 0402 7869     		.2byte	0x6978
 2422 0404 0B       		.uleb128 0xb
 2423 0405 C1100000 		.4byte	.LASF119
 2424 0409 7969     		.2byte	0x6979
 2425 040b 0B       		.uleb128 0xb
 2426 040c F4000000 		.4byte	.LASF120
 2427 0410 7A69     		.2byte	0x697a
 2428 0412 0B       		.uleb128 0xb
 2429 0413 75140000 		.4byte	.LASF121
 2430 0417 7B69     		.2byte	0x697b
 2431 0419 0B       		.uleb128 0xb
 2432 041a D3040000 		.4byte	.LASF122
 2433 041e 606D     		.2byte	0x6d60
 2434 0420 0B       		.uleb128 0xb
 2435 0421 EF0D0000 		.4byte	.LASF123
 2436 0425 616D     		.2byte	0x6d61
 2437 0427 0B       		.uleb128 0xb
 2438 0428 7A160000 		.4byte	.LASF124
 2439 042c 626D     		.2byte	0x6d62
 2440 042e 0B       		.uleb128 0xb
 2441 042f 8B030000 		.4byte	.LASF125
 2442 0433 636D     		.2byte	0x6d63
 2443 0435 0B       		.uleb128 0xb
 2444 0436 D3080000 		.4byte	.LASF126
 2445 043a 646D     		.2byte	0x6d64
 2446 043c 0B       		.uleb128 0xb
 2447 043d 09080000 		.4byte	.LASF127
 2448 0441 656D     		.2byte	0x6d65
 2449 0443 0B       		.uleb128 0xb
 2450 0444 16010000 		.4byte	.LASF128
 2451 0448 C56D     		.2byte	0x6dc5
 2452 044a 0B       		.uleb128 0xb
 2453 044b 970E0000 		.4byte	.LASF129
 2454 044f C66D     		.2byte	0x6dc6
 2455 0451 0B       		.uleb128 0xb
 2456 0452 F9120000 		.4byte	.LASF130
 2457 0456 296E     		.2byte	0x6e29
 2458 0458 0B       		.uleb128 0xb
 2459 0459 B70C0000 		.4byte	.LASF131
 2460 045d 2A6E     		.2byte	0x6e2a
 2461 045f 0B       		.uleb128 0xb
 2462 0460 43010000 		.4byte	.LASF132
 2463 0464 2B6E     		.2byte	0x6e2b
 2464 0466 0B       		.uleb128 0xb
 2465 0467 7B070000 		.4byte	.LASF133
 2466 046b 2C6E     		.2byte	0x6e2c
ARM GAS  C:\Users\alex\AppData\Local\Temp\ccrAtNPo.s 			page 62


 2467 046d 0B       		.uleb128 0xb
 2468 046e F8050000 		.4byte	.LASF134
 2469 0472 2D6E     		.2byte	0x6e2d
 2470 0474 0B       		.uleb128 0xb
 2471 0475 EF110000 		.4byte	.LASF135
 2472 0479 2E6E     		.2byte	0x6e2e
 2473 047b 0B       		.uleb128 0xb
 2474 047c B7090000 		.4byte	.LASF136
 2475 0480 2F6E     		.2byte	0x6e2f
 2476 0482 0B       		.uleb128 0xb
 2477 0483 49070000 		.4byte	.LASF137
 2478 0487 306E     		.2byte	0x6e30
 2479 0489 0B       		.uleb128 0xb
 2480 048a EB0C0000 		.4byte	.LASF138
 2481 048e 316E     		.2byte	0x6e31
 2482 0490 0B       		.uleb128 0xb
 2483 0491 DC040000 		.4byte	.LASF139
 2484 0495 4871     		.2byte	0x7148
 2485 0497 0B       		.uleb128 0xb
 2486 0498 E4150000 		.4byte	.LASF140
 2487 049c 4971     		.2byte	0x7149
 2488 049e 0B       		.uleb128 0xb
 2489 049f 5B090000 		.4byte	.LASF141
 2490 04a3 4A71     		.2byte	0x714a
 2491 04a5 0B       		.uleb128 0xb
 2492 04a6 FE0E0000 		.4byte	.LASF142
 2493 04aa 4B71     		.2byte	0x714b
 2494 04ac 0B       		.uleb128 0xb
 2495 04ad 48150000 		.4byte	.LASF143
 2496 04b1 4C71     		.2byte	0x714c
 2497 04b3 0B       		.uleb128 0xb
 2498 04b4 44110000 		.4byte	.LASF144
 2499 04b8 4D71     		.2byte	0x714d
 2500 04ba 0B       		.uleb128 0xb
 2501 04bb 4C0C0000 		.4byte	.LASF145
 2502 04bf 4E71     		.2byte	0x714e
 2503 04c1 0B       		.uleb128 0xb
 2504 04c2 0F130000 		.4byte	.LASF146
 2505 04c6 4F71     		.2byte	0x714f
 2506 04c8 0B       		.uleb128 0xb
 2507 04c9 12020000 		.4byte	.LASF147
 2508 04cd 5071     		.2byte	0x7150
 2509 04cf 0B       		.uleb128 0xb
 2510 04d0 000A0000 		.4byte	.LASF148
 2511 04d4 5171     		.2byte	0x7151
 2512 04d6 0B       		.uleb128 0xb
 2513 04d7 1A0F0000 		.4byte	.LASF149
 2514 04db 5271     		.2byte	0x7152
 2515 04dd 0B       		.uleb128 0xb
 2516 04de 61070000 		.4byte	.LASF150
 2517 04e2 5371     		.2byte	0x7153
 2518 04e4 0B       		.uleb128 0xb
 2519 04e5 E8050000 		.4byte	.LASF151
 2520 04e9 5471     		.2byte	0x7154
 2521 04eb 0B       		.uleb128 0xb
 2522 04ec E9090000 		.4byte	.LASF152
 2523 04f0 5571     		.2byte	0x7155
ARM GAS  C:\Users\alex\AppData\Local\Temp\ccrAtNPo.s 			page 63


 2524 04f2 0B       		.uleb128 0xb
 2525 04f3 30100000 		.4byte	.LASF153
 2526 04f7 5671     		.2byte	0x7156
 2527 04f9 0B       		.uleb128 0xb
 2528 04fa D50F0000 		.4byte	.LASF154
 2529 04fe 5771     		.2byte	0x7157
 2530 0500 0B       		.uleb128 0xb
 2531 0501 76150000 		.4byte	.LASF155
 2532 0505 5871     		.2byte	0x7158
 2533 0507 0B       		.uleb128 0xb
 2534 0508 480A0000 		.4byte	.LASF156
 2535 050c 5971     		.2byte	0x7159
 2536 050e 0B       		.uleb128 0xb
 2537 050f CF030000 		.4byte	.LASF157
 2538 0513 5A71     		.2byte	0x715a
 2539 0515 0B       		.uleb128 0xb
 2540 0516 D90E0000 		.4byte	.LASF158
 2541 051a 5B71     		.2byte	0x715b
 2542 051c 0B       		.uleb128 0xb
 2543 051d 2C120000 		.4byte	.LASF159
 2544 0521 5C71     		.2byte	0x715c
 2545 0523 0B       		.uleb128 0xb
 2546 0524 88080000 		.4byte	.LASF160
 2547 0528 5D71     		.2byte	0x715d
 2548 052a 0B       		.uleb128 0xb
 2549 052b FC140000 		.4byte	.LASF161
 2550 052f 5E71     		.2byte	0x715e
 2551 0531 0B       		.uleb128 0xb
 2552 0532 30110000 		.4byte	.LASF162
 2553 0536 5F71     		.2byte	0x715f
 2554 0538 0B       		.uleb128 0xb
 2555 0539 42020000 		.4byte	.LASF163
 2556 053d AD71     		.2byte	0x71ad
 2557 053f 0B       		.uleb128 0xb
 2558 0540 5B010000 		.4byte	.LASF164
 2559 0544 C071     		.2byte	0x71c0
 2560 0546 0B       		.uleb128 0xb
 2561 0547 C1020000 		.4byte	.LASF165
 2562 054b C171     		.2byte	0x71c1
 2563 054d 0B       		.uleb128 0xb
 2564 054e 600A0000 		.4byte	.LASF166
 2565 0552 C271     		.2byte	0x71c2
 2566 0554 0B       		.uleb128 0xb
 2567 0555 36150000 		.4byte	.LASF167
 2568 0559 C371     		.2byte	0x71c3
 2569 055b 0B       		.uleb128 0xb
 2570 055c E3070000 		.4byte	.LASF168
 2571 0560 C471     		.2byte	0x71c4
 2572 0562 0B       		.uleb128 0xb
 2573 0563 00160000 		.4byte	.LASF169
 2574 0567 1172     		.2byte	0x7211
 2575 0569 0B       		.uleb128 0xb
 2576 056a 91140000 		.4byte	.LASF170
 2577 056e 1272     		.2byte	0x7212
 2578 0570 0B       		.uleb128 0xb
 2579 0571 A7050000 		.4byte	.LASF171
 2580 0575 1372     		.2byte	0x7213
ARM GAS  C:\Users\alex\AppData\Local\Temp\ccrAtNPo.s 			page 64


 2581 0577 0B       		.uleb128 0xb
 2582 0578 D1140000 		.4byte	.LASF172
 2583 057c 1472     		.2byte	0x7214
 2584 057e 0B       		.uleb128 0xb
 2585 057f E8140000 		.4byte	.LASF173
 2586 0583 7572     		.2byte	0x7275
 2587 0585 0B       		.uleb128 0xb
 2588 0586 AF070000 		.4byte	.LASF174
 2589 058a 7672     		.2byte	0x7276
 2590 058c 0B       		.uleb128 0xb
 2591 058d 66160000 		.4byte	.LASF175
 2592 0591 7772     		.2byte	0x7277
 2593 0593 0B       		.uleb128 0xb
 2594 0594 37080000 		.4byte	.LASF176
 2595 0598 7872     		.2byte	0x7278
 2596 059a 0B       		.uleb128 0xb
 2597 059b 790A0000 		.4byte	.LASF177
 2598 059f 7972     		.2byte	0x7279
 2599 05a1 0B       		.uleb128 0xb
 2600 05a2 0F090000 		.4byte	.LASF178
 2601 05a6 7A72     		.2byte	0x727a
 2602 05a8 0B       		.uleb128 0xb
 2603 05a9 4C120000 		.4byte	.LASF179
 2604 05ad 7B72     		.2byte	0x727b
 2605 05af 0B       		.uleb128 0xb
 2606 05b0 FE010000 		.4byte	.LASF180
 2607 05b4 7C72     		.2byte	0x727c
 2608 05b6 0B       		.uleb128 0xb
 2609 05b7 A9140000 		.4byte	.LASF181
 2610 05bb 7D72     		.2byte	0x727d
 2611 05bd 0B       		.uleb128 0xb
 2612 05be 22050000 		.4byte	.LASF182
 2613 05c2 7E72     		.2byte	0x727e
 2614 05c4 0B       		.uleb128 0xb
 2615 05c5 34090000 		.4byte	.LASF183
 2616 05c9 D972     		.2byte	0x72d9
 2617 05cb 0B       		.uleb128 0xb
 2618 05cc 2A130000 		.4byte	.LASF184
 2619 05d0 3D73     		.2byte	0x733d
 2620 05d2 0B       		.uleb128 0xb
 2621 05d3 72090000 		.4byte	.LASF185
 2622 05d7 3E73     		.2byte	0x733e
 2623 05d9 0B       		.uleb128 0xb
 2624 05da 5F0D0000 		.4byte	.LASF186
 2625 05de 3F73     		.2byte	0x733f
 2626 05e0 0B       		.uleb128 0xb
 2627 05e1 8B130000 		.4byte	.LASF187
 2628 05e5 4073     		.2byte	0x7340
 2629 05e7 0B       		.uleb128 0xb
 2630 05e8 CA070000 		.4byte	.LASF188
 2631 05ec 4173     		.2byte	0x7341
 2632 05ee 0B       		.uleb128 0xb
 2633 05ef 890C0000 		.4byte	.LASF189
 2634 05f3 4273     		.2byte	0x7342
 2635 05f5 0B       		.uleb128 0xb
 2636 05f6 66140000 		.4byte	.LASF190
 2637 05fa 4373     		.2byte	0x7343
ARM GAS  C:\Users\alex\AppData\Local\Temp\ccrAtNPo.s 			page 65


 2638 05fc 0B       		.uleb128 0xb
 2639 05fd ED0F0000 		.4byte	.LASF191
 2640 0601 4473     		.2byte	0x7344
 2641 0603 0B       		.uleb128 0xb
 2642 0604 93090000 		.4byte	.LASF192
 2643 0608 4573     		.2byte	0x7345
 2644 060a 0B       		.uleb128 0xb
 2645 060b BC000000 		.4byte	.LASF193
 2646 060f 4673     		.2byte	0x7346
 2647 0611 0B       		.uleb128 0xb
 2648 0612 4A000000 		.4byte	.LASF194
 2649 0616 4773     		.2byte	0x7347
 2650 0618 0B       		.uleb128 0xb
 2651 0619 8E060000 		.4byte	.LASF195
 2652 061d 4873     		.2byte	0x7348
 2653 061f 0B       		.uleb128 0xb
 2654 0620 7F000000 		.4byte	.LASF196
 2655 0624 4973     		.2byte	0x7349
 2656 0626 0B       		.uleb128 0xb
 2657 0627 E5040000 		.4byte	.LASF197
 2658 062b 3075     		.2byte	0x7530
 2659 062d 0B       		.uleb128 0xb
 2660 062e EE040000 		.4byte	.LASF198
 2661 0632 1879     		.2byte	0x7918
 2662 0634 0B       		.uleb128 0xb
 2663 0635 F7040000 		.4byte	.LASF199
 2664 0639 007D     		.2byte	0x7d00
 2665 063b 0B       		.uleb128 0xb
 2666 063c 00050000 		.4byte	.LASF200
 2667 0640 E880     		.2byte	0x80e8
 2668 0642 0B       		.uleb128 0xb
 2669 0643 09050000 		.4byte	.LASF201
 2670 0647 D084     		.2byte	0x84d0
 2671 0649 0B       		.uleb128 0xb
 2672 064a 260C0000 		.4byte	.LASF202
 2673 064e D184     		.2byte	0x84d1
 2674 0650 0B       		.uleb128 0xb
 2675 0651 12050000 		.4byte	.LASF203
 2676 0655 B888     		.2byte	0x88b8
 2677 0657 00       		.byte	0
 2678 0658 0C       		.uleb128 0xc
 2679 0659 A6030000 		.4byte	.LASF204
 2680 065d 07       		.byte	0x7
 2681 065e 7202     		.2byte	0x272
 2682 0660 E0010000 		.4byte	0x1e0
 2683 0664 0C       		.uleb128 0xc
 2684 0665 6D120000 		.4byte	.LASF205
 2685 0669 07       		.byte	0x7
 2686 066a 8202     		.2byte	0x282
 2687 066c 70060000 		.4byte	0x670
 2688 0670 0D       		.uleb128 0xd
 2689 0671 30070000 		.4byte	.LASF211
 2690 0675 10       		.byte	0x10
 2691 0676 07       		.byte	0x7
 2692 0677 4003     		.2byte	0x340
 2693 0679 B2060000 		.4byte	0x6b2
 2694 067d 0E       		.uleb128 0xe
ARM GAS  C:\Users\alex\AppData\Local\Temp\ccrAtNPo.s 			page 66


 2695 067e 82120000 		.4byte	.LASF206
 2696 0682 07       		.byte	0x7
 2697 0683 4103     		.2byte	0x341
 2698 0685 4D0B0000 		.4byte	0xb4d
 2699 0689 00       		.byte	0
 2700 068a 0E       		.uleb128 0xe
 2701 068b E4000000 		.4byte	.LASF207
 2702 068f 07       		.byte	0x7
 2703 0690 4203     		.2byte	0x342
 2704 0692 25000000 		.4byte	0x25
 2705 0696 04       		.byte	0x4
 2706 0697 0E       		.uleb128 0xe
 2707 0698 73130000 		.4byte	.LASF208
 2708 069c 07       		.byte	0x7
 2709 069d 4303     		.2byte	0x343
 2710 069f 5C010000 		.4byte	0x15c
 2711 06a3 08       		.byte	0x8
 2712 06a4 0E       		.uleb128 0xe
 2713 06a5 DC060000 		.4byte	.LASF209
 2714 06a9 07       		.byte	0x7
 2715 06aa 4403     		.2byte	0x344
 2716 06ac 1A010000 		.4byte	0x11a
 2717 06b0 0C       		.byte	0xc
 2718 06b1 00       		.byte	0
 2719 06b2 0C       		.uleb128 0xc
 2720 06b3 16060000 		.4byte	.LASF210
 2721 06b7 07       		.byte	0x7
 2722 06b8 8402     		.2byte	0x284
 2723 06ba BE060000 		.4byte	0x6be
 2724 06be 0D       		.uleb128 0xd
 2725 06bf DB120000 		.4byte	.LASF212
 2726 06c3 10       		.byte	0x10
 2727 06c4 07       		.byte	0x7
 2728 06c5 5303     		.2byte	0x353
 2729 06c7 0D070000 		.4byte	0x70d
 2730 06cb 0E       		.uleb128 0xe
 2731 06cc 9E120000 		.4byte	.LASF213
 2732 06d0 07       		.byte	0x7
 2733 06d1 5403     		.2byte	0x354
 2734 06d3 4D0B0000 		.4byte	0xb4d
 2735 06d7 00       		.byte	0
 2736 06d8 0E       		.uleb128 0xe
 2737 06d9 23130000 		.4byte	.LASF214
 2738 06dd 07       		.byte	0x7
 2739 06de 5503     		.2byte	0x355
 2740 06e0 4D0B0000 		.4byte	0xb4d
 2741 06e4 04       		.byte	0x4
 2742 06e5 0E       		.uleb128 0xe
 2743 06e6 91020000 		.4byte	.LASF215
 2744 06ea 07       		.byte	0x7
 2745 06eb 5603     		.2byte	0x356
 2746 06ed 51010000 		.4byte	0x151
 2747 06f1 08       		.byte	0x8
 2748 06f2 0E       		.uleb128 0xe
 2749 06f3 3E130000 		.4byte	.LASF216
 2750 06f7 07       		.byte	0x7
 2751 06f8 5703     		.2byte	0x357
ARM GAS  C:\Users\alex\AppData\Local\Temp\ccrAtNPo.s 			page 67


 2752 06fa 51010000 		.4byte	0x151
 2753 06fe 0A       		.byte	0xa
 2754 06ff 0E       		.uleb128 0xe
 2755 0700 490F0000 		.4byte	.LASF217
 2756 0704 07       		.byte	0x7
 2757 0705 5803     		.2byte	0x358
 2758 0707 51010000 		.4byte	0x151
 2759 070b 0C       		.byte	0xc
 2760 070c 00       		.byte	0
 2761 070d 0C       		.uleb128 0xc
 2762 070e 26140000 		.4byte	.LASF218
 2763 0712 07       		.byte	0x7
 2764 0713 8E02     		.2byte	0x28e
 2765 0715 DD000000 		.4byte	0xdd
 2766 0719 0C       		.uleb128 0xc
 2767 071a 92000000 		.4byte	.LASF219
 2768 071e 07       		.byte	0x7
 2769 071f 9002     		.2byte	0x290
 2770 0721 25070000 		.4byte	0x725
 2771 0725 0D       		.uleb128 0xd
 2772 0726 FD030000 		.4byte	.LASF220
 2773 072a C0       		.byte	0xc0
 2774 072b 07       		.byte	0x7
 2775 072c AB03     		.2byte	0x3ab
 2776 072e C9090000 		.4byte	0x9c9
 2777 0732 0E       		.uleb128 0xe
 2778 0733 E1050000 		.4byte	.LASF221
 2779 0737 07       		.byte	0x7
 2780 0738 AC03     		.2byte	0x3ac
 2781 073a 530B0000 		.4byte	0xb53
 2782 073e 00       		.byte	0
 2783 073f 0E       		.uleb128 0xe
 2784 0740 1B0E0000 		.4byte	.LASF222
 2785 0744 07       		.byte	0x7
 2786 0745 AE03     		.2byte	0x3ae
 2787 0747 25000000 		.4byte	0x25
 2788 074b 04       		.byte	0x4
 2789 074c 0E       		.uleb128 0xe
 2790 074d 98070000 		.4byte	.LASF223
 2791 0751 07       		.byte	0x7
 2792 0752 B003     		.2byte	0x3b0
 2793 0754 530B0000 		.4byte	0xb53
 2794 0758 08       		.byte	0x8
 2795 0759 0E       		.uleb128 0xe
 2796 075a 82120000 		.4byte	.LASF206
 2797 075e 07       		.byte	0x7
 2798 075f B203     		.2byte	0x3b2
 2799 0761 350B0000 		.4byte	0xb35
 2800 0765 0C       		.byte	0xc
 2801 0766 0E       		.uleb128 0xe
 2802 0767 DA110000 		.4byte	.LASF224
 2803 076b 07       		.byte	0x7
 2804 076c B303     		.2byte	0x3b3
 2805 076e 350B0000 		.4byte	0xb35
 2806 0772 10       		.byte	0x10
 2807 0773 0E       		.uleb128 0xe
 2808 0774 1E000000 		.4byte	.LASF225
ARM GAS  C:\Users\alex\AppData\Local\Temp\ccrAtNPo.s 			page 68


 2809 0778 07       		.byte	0x7
 2810 0779 B503     		.2byte	0x3b5
 2811 077b 350B0000 		.4byte	0xb35
 2812 077f 14       		.byte	0x14
 2813 0780 0E       		.uleb128 0xe
 2814 0781 B8080000 		.4byte	.LASF226
 2815 0785 07       		.byte	0x7
 2816 0786 B603     		.2byte	0x3b6
 2817 0788 350B0000 		.4byte	0xb35
 2818 078c 18       		.byte	0x18
 2819 078d 0E       		.uleb128 0xe
 2820 078e E2110000 		.4byte	.LASF227
 2821 0792 07       		.byte	0x7
 2822 0793 B803     		.2byte	0x3b8
 2823 0795 590B0000 		.4byte	0xb59
 2824 0799 1C       		.byte	0x1c
 2825 079a 0E       		.uleb128 0xe
 2826 079b C4120000 		.4byte	.LASF228
 2827 079f 07       		.byte	0x7
 2828 07a0 BA03     		.2byte	0x3ba
 2829 07a2 470B0000 		.4byte	0xb47
 2830 07a6 20       		.byte	0x20
 2831 07a7 0E       		.uleb128 0xe
 2832 07a8 C6130000 		.4byte	.LASF229
 2833 07ac 07       		.byte	0x7
 2834 07ad BC03     		.2byte	0x3bc
 2835 07af 530B0000 		.4byte	0xb53
 2836 07b3 24       		.byte	0x24
 2837 07b4 0E       		.uleb128 0xe
 2838 07b5 A60E0000 		.4byte	.LASF230
 2839 07b9 07       		.byte	0x7
 2840 07ba C203     		.2byte	0x3c2
 2841 07bc 0D070000 		.4byte	0x70d
 2842 07c0 28       		.byte	0x28
 2843 07c1 0E       		.uleb128 0xe
 2844 07c2 6F110000 		.4byte	.LASF231
 2845 07c6 07       		.byte	0x7
 2846 07c7 C303     		.2byte	0x3c3
 2847 07c9 25000000 		.4byte	0x25
 2848 07cd 2C       		.byte	0x2c
 2849 07ce 0E       		.uleb128 0xe
 2850 07cf E2060000 		.4byte	.LASF232
 2851 07d3 07       		.byte	0x7
 2852 07d4 C503     		.2byte	0x3c5
 2853 07d6 3B0B0000 		.4byte	0xb3b
 2854 07da 30       		.byte	0x30
 2855 07db 0E       		.uleb128 0xe
 2856 07dc BA100000 		.4byte	.LASF233
 2857 07e0 07       		.byte	0x7
 2858 07e1 C603     		.2byte	0x3c6
 2859 07e3 BF010000 		.4byte	0x1bf
 2860 07e7 34       		.byte	0x34
 2861 07e8 0E       		.uleb128 0xe
 2862 07e9 B2130000 		.4byte	.LASF234
 2863 07ed 07       		.byte	0x7
 2864 07ee C703     		.2byte	0x3c7
 2865 07f0 CA010000 		.4byte	0x1ca
ARM GAS  C:\Users\alex\AppData\Local\Temp\ccrAtNPo.s 			page 69


 2866 07f4 35       		.byte	0x35
 2867 07f5 0E       		.uleb128 0xe
 2868 07f6 300D0000 		.4byte	.LASF235
 2869 07fa 07       		.byte	0x7
 2870 07fb C903     		.2byte	0x3c9
 2871 07fd BF010000 		.4byte	0x1bf
 2872 0801 36       		.byte	0x36
 2873 0802 0E       		.uleb128 0xe
 2874 0803 8A150000 		.4byte	.LASF236
 2875 0807 07       		.byte	0x7
 2876 0808 CA03     		.2byte	0x3ca
 2877 080a 93010000 		.4byte	0x193
 2878 080e 37       		.byte	0x37
 2879 080f 0E       		.uleb128 0xe
 2880 0810 810B0000 		.4byte	.LASF237
 2881 0814 07       		.byte	0x7
 2882 0815 CB03     		.2byte	0x3cb
 2883 0817 04010000 		.4byte	0x104
 2884 081b 38       		.byte	0x38
 2885 081c 0F       		.uleb128 0xf
 2886 081d 4F707400 		.ascii	"Opt\000"
 2887 0821 07       		.byte	0x7
 2888 0822 CC03     		.2byte	0x3cc
 2889 0824 88010000 		.4byte	0x188
 2890 0828 3C       		.byte	0x3c
 2891 0829 0E       		.uleb128 0xe
 2892 082a 2A000000 		.4byte	.LASF238
 2893 082e 07       		.byte	0x7
 2894 082f CE03     		.2byte	0x3ce
 2895 0831 72010000 		.4byte	0x172
 2896 0835 3E       		.byte	0x3e
 2897 0836 0F       		.uleb128 0xf
 2898 0837 545300   		.ascii	"TS\000"
 2899 083a 07       		.byte	0x7
 2900 083b D003     		.2byte	0x3d0
 2901 083d 1A010000 		.4byte	0x11a
 2902 0841 40       		.byte	0x40
 2903 0842 0E       		.uleb128 0xe
 2904 0843 DD150000 		.4byte	.LASF239
 2905 0847 07       		.byte	0x7
 2906 0848 D203     		.2byte	0x3d2
 2907 084a B4010000 		.4byte	0x1b4
 2908 084e 44       		.byte	0x44
 2909 084f 0E       		.uleb128 0xe
 2910 0850 F2010000 		.4byte	.LASF240
 2911 0854 07       		.byte	0x7
 2912 0855 D503     		.2byte	0x3d5
 2913 0857 D5010000 		.4byte	0x1d5
 2914 085b 48       		.byte	0x48
 2915 085c 0E       		.uleb128 0xe
 2916 085d 530E0000 		.4byte	.LASF241
 2917 0861 07       		.byte	0x7
 2918 0862 D603     		.2byte	0x3d6
 2919 0864 D5010000 		.4byte	0x1d5
 2920 0868 4C       		.byte	0x4c
 2921 0869 0E       		.uleb128 0xe
 2922 086a AA060000 		.4byte	.LASF242
ARM GAS  C:\Users\alex\AppData\Local\Temp\ccrAtNPo.s 			page 70


 2923 086e 07       		.byte	0x7
 2924 086f D703     		.2byte	0x3d7
 2925 0871 D5010000 		.4byte	0x1d5
 2926 0875 50       		.byte	0x50
 2927 0876 0E       		.uleb128 0xe
 2928 0877 950B0000 		.4byte	.LASF243
 2929 087b 07       		.byte	0x7
 2930 087c D903     		.2byte	0x3d9
 2931 087e D5010000 		.4byte	0x1d5
 2932 0882 54       		.byte	0x54
 2933 0883 0E       		.uleb128 0xe
 2934 0884 88010000 		.4byte	.LASF244
 2935 0888 07       		.byte	0x7
 2936 0889 DA03     		.2byte	0x3da
 2937 088b D5010000 		.4byte	0x1d5
 2938 088f 58       		.byte	0x58
 2939 0890 0E       		.uleb128 0xe
 2940 0891 E4000000 		.4byte	.LASF207
 2941 0895 07       		.byte	0x7
 2942 0896 DD03     		.2byte	0x3dd
 2943 0898 25000000 		.4byte	0x25
 2944 089c 5C       		.byte	0x5c
 2945 089d 0E       		.uleb128 0xe
 2946 089e 73130000 		.4byte	.LASF208
 2947 08a2 07       		.byte	0x7
 2948 08a3 DE03     		.2byte	0x3de
 2949 08a5 5C010000 		.4byte	0x15c
 2950 08a9 60       		.byte	0x60
 2951 08aa 0E       		.uleb128 0xe
 2952 08ab 3A0D0000 		.4byte	.LASF245
 2953 08af 07       		.byte	0x7
 2954 08b0 E203     		.2byte	0x3e2
 2955 08b2 B2060000 		.4byte	0x6b2
 2956 08b6 64       		.byte	0x64
 2957 08b7 0E       		.uleb128 0xe
 2958 08b8 69060000 		.4byte	.LASF246
 2959 08bc 07       		.byte	0x7
 2960 08bd E403     		.2byte	0x3e4
 2961 08bf 1A010000 		.4byte	0x11a
 2962 08c3 74       		.byte	0x74
 2963 08c4 0E       		.uleb128 0xe
 2964 08c5 31160000 		.4byte	.LASF247
 2965 08c9 07       		.byte	0x7
 2966 08ca E503     		.2byte	0x3e5
 2967 08cc 1A010000 		.4byte	0x11a
 2968 08d0 78       		.byte	0x78
 2969 08d1 0E       		.uleb128 0xe
 2970 08d2 59030000 		.4byte	.LASF248
 2971 08d6 07       		.byte	0x7
 2972 08d7 EA03     		.2byte	0x3ea
 2973 08d9 5F0B0000 		.4byte	0xb5f
 2974 08dd 7C       		.byte	0x7c
 2975 08de 0E       		.uleb128 0xe
 2976 08df 6F050000 		.4byte	.LASF249
 2977 08e3 07       		.byte	0x7
 2978 08e4 EE03     		.2byte	0x3ee
 2979 08e6 46010000 		.4byte	0x146
ARM GAS  C:\Users\alex\AppData\Local\Temp\ccrAtNPo.s 			page 71


 2980 08ea 80       		.byte	0x80
 2981 08eb 0E       		.uleb128 0xe
 2982 08ec BD130000 		.4byte	.LASF250
 2983 08f0 07       		.byte	0x7
 2984 08f1 EF03     		.2byte	0x3ef
 2985 08f3 46010000 		.4byte	0x146
 2986 08f7 84       		.byte	0x84
 2987 08f8 0E       		.uleb128 0xe
 2988 08f9 B70B0000 		.4byte	.LASF251
 2989 08fd 07       		.byte	0x7
 2990 08fe F003     		.2byte	0x3f0
 2991 0900 88010000 		.4byte	0x188
 2992 0904 88       		.byte	0x88
 2993 0905 0E       		.uleb128 0xe
 2994 0906 C3010000 		.4byte	.LASF252
 2995 090a 07       		.byte	0x7
 2996 090b F403     		.2byte	0x3f4
 2997 090d 67010000 		.4byte	0x167
 2998 0911 8A       		.byte	0x8a
 2999 0912 0E       		.uleb128 0xe
 3000 0913 B8020000 		.4byte	.LASF253
 3001 0917 07       		.byte	0x7
 3002 0918 F803     		.2byte	0x3f8
 3003 091a 25010000 		.4byte	0x125
 3004 091e 8C       		.byte	0x8c
 3005 091f 0E       		.uleb128 0xe
 3006 0920 8D100000 		.4byte	.LASF254
 3007 0924 07       		.byte	0x7
 3008 0925 F903     		.2byte	0x3f9
 3009 0927 25010000 		.4byte	0x125
 3010 092b 8E       		.byte	0x8e
 3011 092c 0E       		.uleb128 0xe
 3012 092d 8A090000 		.4byte	.LASF255
 3013 0931 07       		.byte	0x7
 3014 0932 FA03     		.2byte	0x3fa
 3015 0934 30010000 		.4byte	0x130
 3016 0938 90       		.byte	0x90
 3017 0939 0E       		.uleb128 0xe
 3018 093a F20E0000 		.4byte	.LASF256
 3019 093e 07       		.byte	0x7
 3020 093f FB03     		.2byte	0x3fb
 3021 0941 1A010000 		.4byte	0x11a
 3022 0945 94       		.byte	0x94
 3023 0946 0E       		.uleb128 0xe
 3024 0947 7F0E0000 		.4byte	.LASF257
 3025 094b 07       		.byte	0x7
 3026 094c FC03     		.2byte	0x3fc
 3027 094e 1A010000 		.4byte	0x11a
 3028 0952 98       		.byte	0x98
 3029 0953 0E       		.uleb128 0xe
 3030 0954 9B050000 		.4byte	.LASF258
 3031 0958 07       		.byte	0x7
 3032 0959 FD03     		.2byte	0x3fd
 3033 095b 3B010000 		.4byte	0x13b
 3034 095f 9C       		.byte	0x9c
 3035 0960 0E       		.uleb128 0xe
 3036 0961 7B130000 		.4byte	.LASF259
ARM GAS  C:\Users\alex\AppData\Local\Temp\ccrAtNPo.s 			page 72


 3037 0965 07       		.byte	0x7
 3038 0966 FE03     		.2byte	0x3fe
 3039 0968 3B010000 		.4byte	0x13b
 3040 096c A0       		.byte	0xa0
 3041 096d 0E       		.uleb128 0xe
 3042 096e 9C0C0000 		.4byte	.LASF260
 3043 0972 07       		.byte	0x7
 3044 0973 0004     		.2byte	0x400
 3045 0975 1A010000 		.4byte	0x11a
 3046 0979 A4       		.byte	0xa4
 3047 097a 0E       		.uleb128 0xe
 3048 097b 1F040000 		.4byte	.LASF261
 3049 097f 07       		.byte	0x7
 3050 0980 0104     		.2byte	0x401
 3051 0982 1A010000 		.4byte	0x11a
 3052 0986 A8       		.byte	0xa8
 3053 0987 0E       		.uleb128 0xe
 3054 0988 A4120000 		.4byte	.LASF262
 3055 098c 07       		.byte	0x7
 3056 098d 0504     		.2byte	0x405
 3057 098f 04010000 		.4byte	0x104
 3058 0993 AC       		.byte	0xac
 3059 0994 0E       		.uleb128 0xe
 3060 0995 DC000000 		.4byte	.LASF263
 3061 0999 07       		.byte	0x7
 3062 099a 0604     		.2byte	0x406
 3063 099c 04010000 		.4byte	0x104
 3064 09a0 B0       		.byte	0xb0
 3065 09a1 0E       		.uleb128 0xe
 3066 09a2 C4050000 		.4byte	.LASF264
 3067 09a6 07       		.byte	0x7
 3068 09a7 1104     		.2byte	0x411
 3069 09a9 350B0000 		.4byte	0xb35
 3070 09ad B4       		.byte	0xb4
 3071 09ae 0E       		.uleb128 0xe
 3072 09af DA130000 		.4byte	.LASF265
 3073 09b3 07       		.byte	0x7
 3074 09b4 1204     		.2byte	0x412
 3075 09b6 350B0000 		.4byte	0xb35
 3076 09ba B8       		.byte	0xb8
 3077 09bb 0E       		.uleb128 0xe
 3078 09bc 56050000 		.4byte	.LASF266
 3079 09c0 07       		.byte	0x7
 3080 09c1 1304     		.2byte	0x413
 3081 09c3 470B0000 		.4byte	0xb47
 3082 09c7 BC       		.byte	0xbc
 3083 09c8 00       		.byte	0
 3084 09c9 0C       		.uleb128 0xc
 3085 09ca 0A110000 		.4byte	.LASF267
 3086 09ce 07       		.byte	0x7
 3087 09cf 9E02     		.2byte	0x29e
 3088 09d1 D5090000 		.4byte	0x9d5
 3089 09d5 0D       		.uleb128 0xd
 3090 09d6 180C0000 		.4byte	.LASF268
 3091 09da 08       		.byte	0x8
 3092 09db 07       		.byte	0x7
 3093 09dc 1E04     		.2byte	0x41e
ARM GAS  C:\Users\alex\AppData\Local\Temp\ccrAtNPo.s 			page 73


 3094 09de 0A0A0000 		.4byte	0xa0a
 3095 09e2 0E       		.uleb128 0xe
 3096 09e3 760D0000 		.4byte	.LASF269
 3097 09e7 07       		.byte	0x7
 3098 09e8 1F04     		.2byte	0x41f
 3099 09ea 350B0000 		.4byte	0xb35
 3100 09ee 00       		.byte	0
 3101 09ef 0E       		.uleb128 0xe
 3102 09f0 3E130000 		.4byte	.LASF216
 3103 09f4 07       		.byte	0x7
 3104 09f5 2004     		.2byte	0x420
 3105 09f7 72010000 		.4byte	0x172
 3106 09fb 04       		.byte	0x4
 3107 09fc 0E       		.uleb128 0xe
 3108 09fd 490F0000 		.4byte	.LASF217
 3109 0a01 07       		.byte	0x7
 3110 0a02 2104     		.2byte	0x421
 3111 0a04 72010000 		.4byte	0x172
 3112 0a08 06       		.byte	0x6
 3113 0a09 00       		.byte	0
 3114 0a0a 0C       		.uleb128 0xc
 3115 0a0b 02090000 		.4byte	.LASF270
 3116 0a0f 07       		.byte	0x7
 3117 0a10 A502     		.2byte	0x2a5
 3118 0a12 160A0000 		.4byte	0xa16
 3119 0a16 0D       		.uleb128 0xd
 3120 0a17 7E020000 		.4byte	.LASF271
 3121 0a1b 20       		.byte	0x20
 3122 0a1c 07       		.byte	0x7
 3123 0a1d DD02     		.2byte	0x2dd
 3124 0a1f 8C0A0000 		.4byte	0xa8c
 3125 0a23 0E       		.uleb128 0xe
 3126 0a24 DA110000 		.4byte	.LASF224
 3127 0a28 07       		.byte	0x7
 3128 0a29 DE02     		.2byte	0x2de
 3129 0a2b 3B0B0000 		.4byte	0xb3b
 3130 0a2f 00       		.byte	0
 3131 0a30 0E       		.uleb128 0xe
 3132 0a31 82120000 		.4byte	.LASF206
 3133 0a35 07       		.byte	0x7
 3134 0a36 DF02     		.2byte	0x2df
 3135 0a38 3B0B0000 		.4byte	0xb3b
 3136 0a3c 04       		.byte	0x4
 3137 0a3d 0E       		.uleb128 0xe
 3138 0a3e 9F030000 		.4byte	.LASF272
 3139 0a42 07       		.byte	0x7
 3140 0a43 E002     		.2byte	0x2e0
 3141 0a45 350B0000 		.4byte	0xb35
 3142 0a49 08       		.byte	0x8
 3143 0a4a 0E       		.uleb128 0xe
 3144 0a4b 8A120000 		.4byte	.LASF273
 3145 0a4f 07       		.byte	0x7
 3146 0a50 E102     		.2byte	0x2e1
 3147 0a52 410B0000 		.4byte	0xb41
 3148 0a56 0C       		.byte	0xc
 3149 0a57 0E       		.uleb128 0xe
 3150 0a58 A60F0000 		.4byte	.LASF274
ARM GAS  C:\Users\alex\AppData\Local\Temp\ccrAtNPo.s 			page 74


 3151 0a5c 07       		.byte	0x7
 3152 0a5d E202     		.2byte	0x2e2
 3153 0a5f 410B0000 		.4byte	0xb41
 3154 0a63 10       		.byte	0x10
 3155 0a64 0E       		.uleb128 0xe
 3156 0a65 5C160000 		.4byte	.LASF275
 3157 0a69 07       		.byte	0x7
 3158 0a6a E302     		.2byte	0x2e3
 3159 0a6c 25000000 		.4byte	0x25
 3160 0a70 14       		.byte	0x14
 3161 0a71 0E       		.uleb128 0xe
 3162 0a72 480E0000 		.4byte	.LASF276
 3163 0a76 07       		.byte	0x7
 3164 0a77 E402     		.2byte	0x2e4
 3165 0a79 5C010000 		.4byte	0x15c
 3166 0a7d 18       		.byte	0x18
 3167 0a7e 0E       		.uleb128 0xe
 3168 0a7f 590D0000 		.4byte	.LASF277
 3169 0a83 07       		.byte	0x7
 3170 0a84 E502     		.2byte	0x2e5
 3171 0a86 1A010000 		.4byte	0x11a
 3172 0a8a 1C       		.byte	0x1c
 3173 0a8b 00       		.byte	0
 3174 0a8c 0C       		.uleb128 0xc
 3175 0a8d 3D000000 		.4byte	.LASF278
 3176 0a91 07       		.byte	0x7
 3177 0a92 A602     		.2byte	0x2a6
 3178 0a94 980A0000 		.4byte	0xa98
 3179 0a98 0D       		.uleb128 0xd
 3180 0a99 8E110000 		.4byte	.LASF279
 3181 0a9d 0C       		.byte	0xc
 3182 0a9e 07       		.byte	0x7
 3183 0a9f E902     		.2byte	0x2e9
 3184 0aa1 CD0A0000 		.4byte	0xacd
 3185 0aa5 0E       		.uleb128 0xe
 3186 0aa6 D10E0000 		.4byte	.LASF280
 3187 0aaa 07       		.byte	0x7
 3188 0aab EA02     		.2byte	0x2ea
 3189 0aad 3B0B0000 		.4byte	0xb3b
 3190 0ab1 00       		.byte	0
 3191 0ab2 0E       		.uleb128 0xe
 3192 0ab3 B00D0000 		.4byte	.LASF281
 3193 0ab7 07       		.byte	0x7
 3194 0ab8 EB02     		.2byte	0x2eb
 3195 0aba 3B0B0000 		.4byte	0xb3b
 3196 0abe 04       		.byte	0x4
 3197 0abf 0E       		.uleb128 0xe
 3198 0ac0 3E130000 		.4byte	.LASF216
 3199 0ac4 07       		.byte	0x7
 3200 0ac5 EC02     		.2byte	0x2ec
 3201 0ac7 72010000 		.4byte	0x172
 3202 0acb 08       		.byte	0x8
 3203 0acc 00       		.byte	0
 3204 0acd 0C       		.uleb128 0xc
 3205 0ace 260A0000 		.4byte	.LASF282
 3206 0ad2 07       		.byte	0x7
 3207 0ad3 A702     		.2byte	0x2a7
ARM GAS  C:\Users\alex\AppData\Local\Temp\ccrAtNPo.s 			page 75


 3208 0ad5 D90A0000 		.4byte	0xad9
 3209 0ad9 0D       		.uleb128 0xd
 3210 0ada 0E0F0000 		.4byte	.LASF283
 3211 0ade 20       		.byte	0x20
 3212 0adf 07       		.byte	0x7
 3213 0ae0 FF02     		.2byte	0x2ff
 3214 0ae2 350B0000 		.4byte	0xb35
 3215 0ae6 0E       		.uleb128 0xe
 3216 0ae7 C90D0000 		.4byte	.LASF284
 3217 0aeb 07       		.byte	0x7
 3218 0aec 0003     		.2byte	0x300
 3219 0aee 7D010000 		.4byte	0x17d
 3220 0af2 00       		.byte	0
 3221 0af3 0E       		.uleb128 0xe
 3222 0af4 C4120000 		.4byte	.LASF228
 3223 0af8 07       		.byte	0x7
 3224 0af9 0103     		.2byte	0x301
 3225 0afb 470B0000 		.4byte	0xb47
 3226 0aff 04       		.byte	0x4
 3227 0b00 0E       		.uleb128 0xe
 3228 0b01 2B090000 		.4byte	.LASF285
 3229 0b05 07       		.byte	0x7
 3230 0b06 0203     		.2byte	0x302
 3231 0b08 8C0A0000 		.4byte	0xa8c
 3232 0b0c 08       		.byte	0x8
 3233 0b0d 0E       		.uleb128 0xe
 3234 0b0e C4050000 		.4byte	.LASF264
 3235 0b12 07       		.byte	0x7
 3236 0b13 0403     		.2byte	0x304
 3237 0b15 25000000 		.4byte	0x25
 3238 0b19 14       		.byte	0x14
 3239 0b1a 0E       		.uleb128 0xe
 3240 0b1b DA130000 		.4byte	.LASF265
 3241 0b1f 07       		.byte	0x7
 3242 0b20 0503     		.2byte	0x305
 3243 0b22 25000000 		.4byte	0x25
 3244 0b26 18       		.byte	0x18
 3245 0b27 0E       		.uleb128 0xe
 3246 0b28 56050000 		.4byte	.LASF266
 3247 0b2c 07       		.byte	0x7
 3248 0b2d 0603     		.2byte	0x306
 3249 0b2f 470B0000 		.4byte	0xb47
 3250 0b33 1C       		.byte	0x1c
 3251 0b34 00       		.byte	0
 3252 0b35 06       		.uleb128 0x6
 3253 0b36 04       		.byte	0x4
 3254 0b37 19070000 		.4byte	0x719
 3255 0b3b 06       		.uleb128 0x6
 3256 0b3c 04       		.byte	0x4
 3257 0b3d 0A0A0000 		.4byte	0xa0a
 3258 0b41 06       		.uleb128 0x6
 3259 0b42 04       		.byte	0x4
 3260 0b43 CD0A0000 		.4byte	0xacd
 3261 0b47 06       		.uleb128 0x6
 3262 0b48 04       		.byte	0x4
 3263 0b49 A6000000 		.4byte	0xa6
 3264 0b4d 06       		.uleb128 0x6
ARM GAS  C:\Users\alex\AppData\Local\Temp\ccrAtNPo.s 			page 76


 3265 0b4e 04       		.byte	0x4
 3266 0b4f 64060000 		.4byte	0x664
 3267 0b53 06       		.uleb128 0x6
 3268 0b54 04       		.byte	0x4
 3269 0b55 F9000000 		.4byte	0xf9
 3270 0b59 06       		.uleb128 0x6
 3271 0b5a 04       		.byte	0x4
 3272 0b5b C9090000 		.4byte	0x9c9
 3273 0b5f 10       		.uleb128 0x10
 3274 0b60 A9010000 		.4byte	0x1a9
 3275 0b64 6F0B0000 		.4byte	0xb6f
 3276 0b68 11       		.uleb128 0x11
 3277 0b69 7F000000 		.4byte	0x7f
 3278 0b6d 00       		.byte	0
 3279 0b6e 00       		.byte	0
 3280 0b6f 0C       		.uleb128 0xc
 3281 0b70 1F060000 		.4byte	.LASF286
 3282 0b74 08       		.byte	0x8
 3283 0b75 E401     		.2byte	0x1e4
 3284 0b77 2E000000 		.4byte	0x2e
 3285 0b7b 12       		.uleb128 0x12
 3286 0b7c 96010000 		.4byte	.LASF287
 3287 0b80 01       		.byte	0x1
 3288 0b81 87       		.byte	0x87
 3289 0b82 00000000 		.4byte	.LFB64
 3290 0b86 2A000000 		.4byte	.LFE64-.LFB64
 3291 0b8a 01       		.uleb128 0x1
 3292 0b8b 9C       		.byte	0x9c
 3293 0b8c 9E0B0000 		.4byte	0xb9e
 3294 0b90 13       		.uleb128 0x13
 3295 0b91 6B0C0000 		.4byte	.LASF289
 3296 0b95 01       		.byte	0x1
 3297 0b96 91       		.byte	0x91
 3298 0b97 6A000000 		.4byte	0x6a
 3299 0b9b 14       		.uleb128 0x14
 3300 0b9c 00       		.byte	0
 3301 0b9d 00       		.byte	0
 3302 0b9e 12       		.uleb128 0x12
 3303 0b9f B50A0000 		.4byte	.LASF288
 3304 0ba3 01       		.byte	0x1
 3305 0ba4 96       		.byte	0x96
 3306 0ba5 00000000 		.4byte	.LFB65
 3307 0ba9 2A000000 		.4byte	.LFE65-.LFB65
 3308 0bad 01       		.uleb128 0x1
 3309 0bae 9C       		.byte	0x9c
 3310 0baf C10B0000 		.4byte	0xbc1
 3311 0bb3 13       		.uleb128 0x13
 3312 0bb4 EC100000 		.4byte	.LASF290
 3313 0bb8 01       		.byte	0x1
 3314 0bb9 A0       		.byte	0xa0
 3315 0bba 6A000000 		.4byte	0x6a
 3316 0bbe 14       		.uleb128 0x14
 3317 0bbf 00       		.byte	0
 3318 0bc0 00       		.byte	0
 3319 0bc1 12       		.uleb128 0x12
 3320 0bc2 B5060000 		.4byte	.LASF291
 3321 0bc6 01       		.byte	0x1
ARM GAS  C:\Users\alex\AppData\Local\Temp\ccrAtNPo.s 			page 77


 3322 0bc7 A4       		.byte	0xa4
 3323 0bc8 00000000 		.4byte	.LFB66
 3324 0bcc 2A000000 		.4byte	.LFE66-.LFB66
 3325 0bd0 01       		.uleb128 0x1
 3326 0bd1 9C       		.byte	0x9c
 3327 0bd2 E40B0000 		.4byte	0xbe4
 3328 0bd6 13       		.uleb128 0x13
 3329 0bd7 5B130000 		.4byte	.LASF292
 3330 0bdb 01       		.byte	0x1
 3331 0bdc AD       		.byte	0xad
 3332 0bdd 6A000000 		.4byte	0x6a
 3333 0be1 14       		.uleb128 0x14
 3334 0be2 00       		.byte	0
 3335 0be3 00       		.byte	0
 3336 0be4 15       		.uleb128 0x15
 3337 0be5 E5030000 		.4byte	.LASF354
 3338 0be9 01       		.byte	0x1
 3339 0bea C4       		.byte	0xc4
 3340 0beb 6A000000 		.4byte	0x6a
 3341 0bef 00000000 		.4byte	.LFB67
 3342 0bf3 88000000 		.4byte	.LFE67-.LFB67
 3343 0bf7 01       		.uleb128 0x1
 3344 0bf8 9C       		.byte	0x9c
 3345 0bf9 3F0C0000 		.4byte	0xc3f
 3346 0bfd 16       		.uleb128 0x16
 3347 0bfe D60B0000 		.4byte	.LASF293
 3348 0c02 01       		.byte	0x1
 3349 0c03 C8       		.byte	0xc8
 3350 0c04 6A000000 		.4byte	0x6a
 3351 0c08 0E0C0000 		.4byte	0xc0e
 3352 0c0c 14       		.uleb128 0x14
 3353 0c0d 00       		.byte	0
 3354 0c0e 16       		.uleb128 0x16
 3355 0c0f 41160000 		.4byte	.LASF294
 3356 0c13 01       		.byte	0x1
 3357 0c14 C9       		.byte	0xc9
 3358 0c15 6A000000 		.4byte	0x6a
 3359 0c19 1F0C0000 		.4byte	0xc1f
 3360 0c1d 14       		.uleb128 0x14
 3361 0c1e 00       		.byte	0
 3362 0c1f 16       		.uleb128 0x16
 3363 0c20 A00A0000 		.4byte	.LASF295
 3364 0c24 01       		.byte	0x1
 3365 0c25 CA       		.byte	0xca
 3366 0c26 6A000000 		.4byte	0x6a
 3367 0c2a 300C0000 		.4byte	0xc30
 3368 0c2e 14       		.uleb128 0x14
 3369 0c2f 00       		.byte	0
 3370 0c30 17       		.uleb128 0x17
 3371 0c31 B40E0000 		.4byte	.LASF296
 3372 0c35 01       		.byte	0x1
 3373 0c36 CC       		.byte	0xcc
 3374 0c37 58060000 		.4byte	0x658
 3375 0c3b 02       		.uleb128 0x2
 3376 0c3c 91       		.byte	0x91
 3377 0c3d 76       		.sleb128 -10
 3378 0c3e 00       		.byte	0
ARM GAS  C:\Users\alex\AppData\Local\Temp\ccrAtNPo.s 			page 78


 3379 0c3f 18       		.uleb128 0x18
 3380 0c40 AD010000 		.4byte	.LASF297
 3381 0c44 01       		.byte	0x1
 3382 0c45 FA       		.byte	0xfa
 3383 0c46 00000000 		.4byte	.LFB68
 3384 0c4a 4A000000 		.4byte	.LFE68-.LFB68
 3385 0c4e 01       		.uleb128 0x1
 3386 0c4f 9C       		.byte	0x9c
 3387 0c50 710C0000 		.4byte	0xc71
 3388 0c54 19       		.uleb128 0x19
 3389 0c55 E50C0000 		.4byte	.LASF300
 3390 0c59 01       		.byte	0x1
 3391 0c5a FA       		.byte	0xfa
 3392 0c5b 25000000 		.4byte	0x25
 3393 0c5f 02       		.uleb128 0x2
 3394 0c60 91       		.byte	0x91
 3395 0c61 6C       		.sleb128 -20
 3396 0c62 1A       		.uleb128 0x1a
 3397 0c63 65727200 		.ascii	"err\000"
 3398 0c67 01       		.byte	0x1
 3399 0c68 FC       		.byte	0xfc
 3400 0c69 58060000 		.4byte	0x658
 3401 0c6d 02       		.uleb128 0x2
 3402 0c6e 91       		.byte	0x91
 3403 0c6f 76       		.sleb128 -10
 3404 0c70 00       		.byte	0
 3405 0c71 1B       		.uleb128 0x1b
 3406 0c72 D00C0000 		.4byte	.LASF298
 3407 0c76 01       		.byte	0x1
 3408 0c77 3101     		.2byte	0x131
 3409 0c79 00000000 		.4byte	.LFB69
 3410 0c7d 10010000 		.4byte	.LFE69-.LFB69
 3411 0c81 01       		.uleb128 0x1
 3412 0c82 9C       		.byte	0x9c
 3413 0c83 970C0000 		.4byte	0xc97
 3414 0c87 1C       		.uleb128 0x1c
 3415 0c88 B40E0000 		.4byte	.LASF296
 3416 0c8c 01       		.byte	0x1
 3417 0c8d 3401     		.2byte	0x134
 3418 0c8f 58060000 		.4byte	0x658
 3419 0c93 02       		.uleb128 0x2
 3420 0c94 91       		.byte	0x91
 3421 0c95 76       		.sleb128 -10
 3422 0c96 00       		.byte	0
 3423 0c97 1B       		.uleb128 0x1b
 3424 0c98 3F0D0000 		.4byte	.LASF299
 3425 0c9c 01       		.byte	0x1
 3426 0c9d 9401     		.2byte	0x194
 3427 0c9f 00000000 		.4byte	.LFB70
 3428 0ca3 78000000 		.4byte	.LFE70-.LFB70
 3429 0ca7 01       		.uleb128 0x1
 3430 0ca8 9C       		.byte	0x9c
 3431 0ca9 190D0000 		.4byte	0xd19
 3432 0cad 1D       		.uleb128 0x1d
 3433 0cae E50C0000 		.4byte	.LASF300
 3434 0cb2 01       		.byte	0x1
 3435 0cb3 9401     		.2byte	0x194
ARM GAS  C:\Users\alex\AppData\Local\Temp\ccrAtNPo.s 			page 79


 3436 0cb5 25000000 		.4byte	0x25
 3437 0cb9 02       		.uleb128 0x2
 3438 0cba 91       		.byte	0x91
 3439 0cbb 74       		.sleb128 -12
 3440 0cbc 1E       		.uleb128 0x1e
 3441 0cbd 65727200 		.ascii	"err\000"
 3442 0cc1 01       		.byte	0x1
 3443 0cc2 9701     		.2byte	0x197
 3444 0cc4 58060000 		.4byte	0x658
 3445 0cc8 1F       		.uleb128 0x1f
 3446 0cc9 08000000 		.4byte	.LBB2
 3447 0ccd 28000000 		.4byte	.LBE2-.LBB2
 3448 0cd1 E40C0000 		.4byte	0xce4
 3449 0cd5 20       		.uleb128 0x20
 3450 0cd6 99100000 		.4byte	.LASF301
 3451 0cda 01       		.byte	0x1
 3452 0cdb 9E01     		.2byte	0x19e
 3453 0cdd 6A000000 		.4byte	0x6a
 3454 0ce1 14       		.uleb128 0x14
 3455 0ce2 00       		.byte	0
 3456 0ce3 00       		.byte	0
 3457 0ce4 1F       		.uleb128 0x1f
 3458 0ce5 30000000 		.4byte	.LBB3
 3459 0ce9 10000000 		.4byte	.LBE3-.LBB3
 3460 0ced 000D0000 		.4byte	0xd00
 3461 0cf1 20       		.uleb128 0x20
 3462 0cf2 09010000 		.4byte	.LASF302
 3463 0cf6 01       		.byte	0x1
 3464 0cf7 A201     		.2byte	0x1a2
 3465 0cf9 6A000000 		.4byte	0x6a
 3466 0cfd 14       		.uleb128 0x14
 3467 0cfe 00       		.byte	0
 3468 0cff 00       		.byte	0
 3469 0d00 21       		.uleb128 0x21
 3470 0d01 40000000 		.4byte	.LBB4
 3471 0d05 28000000 		.4byte	.LBE4-.LBB4
 3472 0d09 20       		.uleb128 0x20
 3473 0d0a 21080000 		.4byte	.LASF303
 3474 0d0e 01       		.byte	0x1
 3475 0d0f A601     		.2byte	0x1a6
 3476 0d11 6A000000 		.4byte	0x6a
 3477 0d15 14       		.uleb128 0x14
 3478 0d16 00       		.byte	0
 3479 0d17 00       		.byte	0
 3480 0d18 00       		.byte	0
 3481 0d19 1B       		.uleb128 0x1b
 3482 0d1a CC0A0000 		.4byte	.LASF304
 3483 0d1e 01       		.byte	0x1
 3484 0d1f AE01     		.2byte	0x1ae
 3485 0d21 00000000 		.4byte	.LFB71
 3486 0d25 1A000000 		.4byte	.LFE71-.LFB71
 3487 0d29 01       		.uleb128 0x1
 3488 0d2a 9C       		.byte	0x9c
 3489 0d2b 630D0000 		.4byte	0xd63
 3490 0d2f 1D       		.uleb128 0x1d
 3491 0d30 E50C0000 		.4byte	.LASF300
 3492 0d34 01       		.byte	0x1
ARM GAS  C:\Users\alex\AppData\Local\Temp\ccrAtNPo.s 			page 80


 3493 0d35 AE01     		.2byte	0x1ae
 3494 0d37 25000000 		.4byte	0x25
 3495 0d3b 02       		.uleb128 0x2
 3496 0d3c 91       		.byte	0x91
 3497 0d3d 74       		.sleb128 -12
 3498 0d3e 1E       		.uleb128 0x1e
 3499 0d3f 65727200 		.ascii	"err\000"
 3500 0d43 01       		.byte	0x1
 3501 0d44 B101     		.2byte	0x1b1
 3502 0d46 58060000 		.4byte	0x658
 3503 0d4a 21       		.uleb128 0x21
 3504 0d4b 08000000 		.4byte	.LBB5
 3505 0d4f 10000000 		.4byte	.LBE5-.LBB5
 3506 0d53 20       		.uleb128 0x20
 3507 0d54 28150000 		.4byte	.LASF305
 3508 0d58 01       		.byte	0x1
 3509 0d59 B801     		.2byte	0x1b8
 3510 0d5b 6A000000 		.4byte	0x6a
 3511 0d5f 14       		.uleb128 0x14
 3512 0d60 00       		.byte	0
 3513 0d61 00       		.byte	0
 3514 0d62 00       		.byte	0
 3515 0d63 1B       		.uleb128 0x1b
 3516 0d64 2A020000 		.4byte	.LASF306
 3517 0d68 01       		.byte	0x1
 3518 0d69 C001     		.2byte	0x1c0
 3519 0d6b 00000000 		.4byte	.LFB72
 3520 0d6f 34000000 		.4byte	.LFE72-.LFB72
 3521 0d73 01       		.uleb128 0x1
 3522 0d74 9C       		.byte	0x9c
 3523 0d75 DB0D0000 		.4byte	0xddb
 3524 0d79 1D       		.uleb128 0x1d
 3525 0d7a E50C0000 		.4byte	.LASF300
 3526 0d7e 01       		.byte	0x1
 3527 0d7f C001     		.2byte	0x1c0
 3528 0d81 25000000 		.4byte	0x25
 3529 0d85 02       		.uleb128 0x2
 3530 0d86 91       		.byte	0x91
 3531 0d87 74       		.sleb128 -12
 3532 0d88 1E       		.uleb128 0x1e
 3533 0d89 65727200 		.ascii	"err\000"
 3534 0d8d 01       		.byte	0x1
 3535 0d8e C401     		.2byte	0x1c4
 3536 0d90 58060000 		.4byte	0x658
 3537 0d94 1F       		.uleb128 0x1f
 3538 0d95 10000000 		.4byte	.LBB6
 3539 0d99 12000000 		.4byte	.LBE6-.LBB6
 3540 0d9d C20D0000 		.4byte	0xdc2
 3541 0da1 22       		.uleb128 0x22
 3542 0da2 48100000 		.4byte	.LASF307
 3543 0da6 01       		.byte	0x1
 3544 0da7 CD01     		.2byte	0x1cd
 3545 0da9 6A000000 		.4byte	0x6a
 3546 0dad B30D0000 		.4byte	0xdb3
 3547 0db1 14       		.uleb128 0x14
 3548 0db2 00       		.byte	0
 3549 0db3 20       		.uleb128 0x20
ARM GAS  C:\Users\alex\AppData\Local\Temp\ccrAtNPo.s 			page 81


 3550 0db4 A00B0000 		.4byte	.LASF308
 3551 0db8 01       		.byte	0x1
 3552 0db9 CE01     		.2byte	0x1ce
 3553 0dbb 6A000000 		.4byte	0x6a
 3554 0dbf 14       		.uleb128 0x14
 3555 0dc0 00       		.byte	0
 3556 0dc1 00       		.byte	0
 3557 0dc2 21       		.uleb128 0x21
 3558 0dc3 24000000 		.4byte	.LBB7
 3559 0dc7 06000000 		.4byte	.LBE7-.LBB7
 3560 0dcb 20       		.uleb128 0x20
 3561 0dcc 48100000 		.4byte	.LASF307
 3562 0dd0 01       		.byte	0x1
 3563 0dd1 CD01     		.2byte	0x1cd
 3564 0dd3 6A000000 		.4byte	0x6a
 3565 0dd7 14       		.uleb128 0x14
 3566 0dd8 00       		.byte	0
 3567 0dd9 00       		.byte	0
 3568 0dda 00       		.byte	0
 3569 0ddb 1B       		.uleb128 0x1b
 3570 0ddc C9110000 		.4byte	.LASF309
 3571 0de0 01       		.byte	0x1
 3572 0de1 0102     		.2byte	0x201
 3573 0de3 00000000 		.4byte	.LFB73
 3574 0de7 BC030000 		.4byte	.LFE73-.LFB73
 3575 0deb 01       		.uleb128 0x1
 3576 0dec 9C       		.byte	0x9c
 3577 0ded A00E0000 		.4byte	0xea0
 3578 0df1 1D       		.uleb128 0x1d
 3579 0df2 E50C0000 		.4byte	.LASF300
 3580 0df6 01       		.byte	0x1
 3581 0df7 0102     		.2byte	0x201
 3582 0df9 25000000 		.4byte	0x25
 3583 0dfd 02       		.uleb128 0x2
 3584 0dfe 91       		.byte	0x91
 3585 0dff 54       		.sleb128 -44
 3586 0e00 23       		.uleb128 0x23
 3587 0e01 76616C00 		.ascii	"val\000"
 3588 0e05 01       		.byte	0x1
 3589 0e06 0302     		.2byte	0x203
 3590 0e08 D2000000 		.4byte	0xd2
 3591 0e0c 02       		.uleb128 0x2
 3592 0e0d 91       		.byte	0x91
 3593 0e0e 6C       		.sleb128 -20
 3594 0e0f 1C       		.uleb128 0x1c
 3595 0e10 CF050000 		.4byte	.LASF310
 3596 0e14 01       		.byte	0x1
 3597 0e15 0402     		.2byte	0x204
 3598 0e17 BC000000 		.4byte	0xbc
 3599 0e1b 02       		.uleb128 0x2
 3600 0e1c 91       		.byte	0x91
 3601 0e1d 77       		.sleb128 -9
 3602 0e1e 1C       		.uleb128 0x1c
 3603 0e1f 56060000 		.4byte	.LASF311
 3604 0e23 01       		.byte	0x1
 3605 0e24 0502     		.2byte	0x205
 3606 0e26 BC000000 		.4byte	0xbc
ARM GAS  C:\Users\alex\AppData\Local\Temp\ccrAtNPo.s 			page 82


 3607 0e2a 02       		.uleb128 0x2
 3608 0e2b 91       		.byte	0x91
 3609 0e2c 76       		.sleb128 -10
 3610 0e2d 1C       		.uleb128 0x1c
 3611 0e2e B6120000 		.4byte	.LASF312
 3612 0e32 01       		.byte	0x1
 3613 0e33 0602     		.2byte	0x206
 3614 0e35 B1000000 		.4byte	0xb1
 3615 0e39 02       		.uleb128 0x2
 3616 0e3a 91       		.byte	0x91
 3617 0e3b 73       		.sleb128 -13
 3618 0e3c 1C       		.uleb128 0x1c
 3619 0e3d 05120000 		.4byte	.LASF313
 3620 0e41 01       		.byte	0x1
 3621 0e42 0702     		.2byte	0x207
 3622 0e44 B1000000 		.4byte	0xb1
 3623 0e48 02       		.uleb128 0x2
 3624 0e49 91       		.byte	0x91
 3625 0e4a 75       		.sleb128 -11
 3626 0e4b 1C       		.uleb128 0x1c
 3627 0e4c 8D050000 		.4byte	.LASF314
 3628 0e50 01       		.byte	0x1
 3629 0e51 0802     		.2byte	0x208
 3630 0e53 B1000000 		.4byte	0xb1
 3631 0e57 02       		.uleb128 0x2
 3632 0e58 91       		.byte	0x91
 3633 0e59 72       		.sleb128 -14
 3634 0e5a 1C       		.uleb128 0x1c
 3635 0e5b 37050000 		.4byte	.LASF315
 3636 0e5f 01       		.byte	0x1
 3637 0e60 0902     		.2byte	0x209
 3638 0e62 B1000000 		.4byte	0xb1
 3639 0e66 02       		.uleb128 0x2
 3640 0e67 91       		.byte	0x91
 3641 0e68 74       		.sleb128 -12
 3642 0e69 1C       		.uleb128 0x1c
 3643 0e6a B40E0000 		.4byte	.LASF296
 3644 0e6e 01       		.byte	0x1
 3645 0e6f 0A02     		.2byte	0x20a
 3646 0e71 58060000 		.4byte	0x658
 3647 0e75 02       		.uleb128 0x2
 3648 0e76 91       		.byte	0x91
 3649 0e77 6A       		.sleb128 -22
 3650 0e78 1C       		.uleb128 0x1c
 3651 0e79 D1130000 		.4byte	.LASF316
 3652 0e7d 01       		.byte	0x1
 3653 0e7e 0B02     		.2byte	0x20b
 3654 0e80 A00E0000 		.4byte	0xea0
 3655 0e84 02       		.uleb128 0x2
 3656 0e85 91       		.byte	0x91
 3657 0e86 58       		.sleb128 -40
 3658 0e87 21       		.uleb128 0x21
 3659 0e88 52000000 		.4byte	.LBB8
 3660 0e8c 5E030000 		.4byte	.LBE8-.LBB8
 3661 0e90 20       		.uleb128 0x20
 3662 0e91 48100000 		.4byte	.LASF307
 3663 0e95 01       		.byte	0x1
ARM GAS  C:\Users\alex\AppData\Local\Temp\ccrAtNPo.s 			page 83


 3664 0e96 CD01     		.2byte	0x1cd
 3665 0e98 6A000000 		.4byte	0x6a
 3666 0e9c 14       		.uleb128 0x14
 3667 0e9d 00       		.byte	0
 3668 0e9e 00       		.byte	0
 3669 0e9f 00       		.byte	0
 3670 0ea0 10       		.uleb128 0x10
 3671 0ea1 A6000000 		.4byte	0xa6
 3672 0ea5 B00E0000 		.4byte	0xeb0
 3673 0ea9 11       		.uleb128 0x11
 3674 0eaa 7F000000 		.4byte	0x7f
 3675 0eae 10       		.byte	0x10
 3676 0eaf 00       		.byte	0
 3677 0eb0 24       		.uleb128 0x24
 3678 0eb1 10000000 		.4byte	.LASF355
 3679 0eb5 01       		.byte	0x1
 3680 0eb6 A002     		.2byte	0x2a0
 3681 0eb8 00000000 		.4byte	.LFB74
 3682 0ebc 0C000000 		.4byte	.LFE74-.LFB74
 3683 0ec0 01       		.uleb128 0x1
 3684 0ec1 9C       		.byte	0x9c
 3685 0ec2 1B       		.uleb128 0x1b
 3686 0ec3 A8090000 		.4byte	.LASF317
 3687 0ec7 01       		.byte	0x1
 3688 0ec8 B602     		.2byte	0x2b6
 3689 0eca 00000000 		.4byte	.LFB75
 3690 0ece B8030000 		.4byte	.LFE75-.LFB75
 3691 0ed2 01       		.uleb128 0x1
 3692 0ed3 9C       		.byte	0x9c
 3693 0ed4 6F0F0000 		.4byte	0xf6f
 3694 0ed8 1D       		.uleb128 0x1d
 3695 0ed9 E50C0000 		.4byte	.LASF300
 3696 0edd 01       		.byte	0x1
 3697 0ede B602     		.2byte	0x2b6
 3698 0ee0 25000000 		.4byte	0x25
 3699 0ee4 02       		.uleb128 0x2
 3700 0ee5 91       		.byte	0x91
 3701 0ee6 54       		.sleb128 -44
 3702 0ee7 23       		.uleb128 0x23
 3703 0ee8 76616C00 		.ascii	"val\000"
 3704 0eec 01       		.byte	0x1
 3705 0eed B802     		.2byte	0x2b8
 3706 0eef D2000000 		.4byte	0xd2
 3707 0ef3 02       		.uleb128 0x2
 3708 0ef4 91       		.byte	0x91
 3709 0ef5 6C       		.sleb128 -20
 3710 0ef6 1C       		.uleb128 0x1c
 3711 0ef7 CF050000 		.4byte	.LASF310
 3712 0efb 01       		.byte	0x1
 3713 0efc B902     		.2byte	0x2b9
 3714 0efe BC000000 		.4byte	0xbc
 3715 0f02 02       		.uleb128 0x2
 3716 0f03 91       		.byte	0x91
 3717 0f04 77       		.sleb128 -9
 3718 0f05 1C       		.uleb128 0x1c
 3719 0f06 56060000 		.4byte	.LASF311
 3720 0f0a 01       		.byte	0x1
ARM GAS  C:\Users\alex\AppData\Local\Temp\ccrAtNPo.s 			page 84


 3721 0f0b BA02     		.2byte	0x2ba
 3722 0f0d BC000000 		.4byte	0xbc
 3723 0f11 02       		.uleb128 0x2
 3724 0f12 91       		.byte	0x91
 3725 0f13 76       		.sleb128 -10
 3726 0f14 1C       		.uleb128 0x1c
 3727 0f15 B6120000 		.4byte	.LASF312
 3728 0f19 01       		.byte	0x1
 3729 0f1a BB02     		.2byte	0x2bb
 3730 0f1c B1000000 		.4byte	0xb1
 3731 0f20 02       		.uleb128 0x2
 3732 0f21 91       		.byte	0x91
 3733 0f22 73       		.sleb128 -13
 3734 0f23 1C       		.uleb128 0x1c
 3735 0f24 05120000 		.4byte	.LASF313
 3736 0f28 01       		.byte	0x1
 3737 0f29 BC02     		.2byte	0x2bc
 3738 0f2b B1000000 		.4byte	0xb1
 3739 0f2f 02       		.uleb128 0x2
 3740 0f30 91       		.byte	0x91
 3741 0f31 75       		.sleb128 -11
 3742 0f32 1C       		.uleb128 0x1c
 3743 0f33 8D050000 		.4byte	.LASF314
 3744 0f37 01       		.byte	0x1
 3745 0f38 BD02     		.2byte	0x2bd
 3746 0f3a B1000000 		.4byte	0xb1
 3747 0f3e 02       		.uleb128 0x2
 3748 0f3f 91       		.byte	0x91
 3749 0f40 72       		.sleb128 -14
 3750 0f41 1C       		.uleb128 0x1c
 3751 0f42 37050000 		.4byte	.LASF315
 3752 0f46 01       		.byte	0x1
 3753 0f47 BE02     		.2byte	0x2be
 3754 0f49 B1000000 		.4byte	0xb1
 3755 0f4d 02       		.uleb128 0x2
 3756 0f4e 91       		.byte	0x91
 3757 0f4f 74       		.sleb128 -12
 3758 0f50 1C       		.uleb128 0x1c
 3759 0f51 B40E0000 		.4byte	.LASF296
 3760 0f55 01       		.byte	0x1
 3761 0f56 BF02     		.2byte	0x2bf
 3762 0f58 58060000 		.4byte	0x658
 3763 0f5c 02       		.uleb128 0x2
 3764 0f5d 91       		.byte	0x91
 3765 0f5e 6A       		.sleb128 -22
 3766 0f5f 1C       		.uleb128 0x1c
 3767 0f60 D1130000 		.4byte	.LASF316
 3768 0f64 01       		.byte	0x1
 3769 0f65 C002     		.2byte	0x2c0
 3770 0f67 A00E0000 		.4byte	0xea0
 3771 0f6b 02       		.uleb128 0x2
 3772 0f6c 91       		.byte	0x91
 3773 0f6d 58       		.sleb128 -40
 3774 0f6e 00       		.byte	0
 3775 0f6f 25       		.uleb128 0x25
 3776 0f70 8B0E0000 		.4byte	.LASF318
 3777 0f74 01       		.byte	0x1
ARM GAS  C:\Users\alex\AppData\Local\Temp\ccrAtNPo.s 			page 85


 3778 0f75 4403     		.2byte	0x344
 3779 0f77 00000000 		.4byte	.LFB76
 3780 0f7b 3E000000 		.4byte	.LFE76-.LFB76
 3781 0f7f 01       		.uleb128 0x1
 3782 0f80 9C       		.byte	0x9c
 3783 0f81 10100000 		.4byte	0x1010
 3784 0f85 26       		.uleb128 0x26
 3785 0f86 6F7000   		.ascii	"op\000"
 3786 0f89 01       		.byte	0x1
 3787 0f8a 4403     		.2byte	0x344
 3788 0f8c BC000000 		.4byte	0xbc
 3789 0f90 02       		.uleb128 0x2
 3790 0f91 91       		.byte	0x91
 3791 0f92 77       		.sleb128 -9
 3792 0f93 1F       		.uleb128 0x1f
 3793 0f94 10000000 		.4byte	.LBB9
 3794 0f98 12000000 		.4byte	.LBE9-.LBB9
 3795 0f9c D30F0000 		.4byte	0xfd3
 3796 0fa0 22       		.uleb128 0x22
 3797 0fa1 A00B0000 		.4byte	.LASF308
 3798 0fa5 01       		.byte	0x1
 3799 0fa6 CE01     		.2byte	0x1ce
 3800 0fa8 6A000000 		.4byte	0x6a
 3801 0fac B20F0000 		.4byte	0xfb2
 3802 0fb0 14       		.uleb128 0x14
 3803 0fb1 00       		.byte	0
 3804 0fb2 22       		.uleb128 0x22
 3805 0fb3 CE010000 		.4byte	.LASF319
 3806 0fb7 01       		.byte	0x1
 3807 0fb8 4803     		.2byte	0x348
 3808 0fba 6A000000 		.4byte	0x6a
 3809 0fbe C40F0000 		.4byte	0xfc4
 3810 0fc2 14       		.uleb128 0x14
 3811 0fc3 00       		.byte	0
 3812 0fc4 20       		.uleb128 0x20
 3813 0fc5 74120000 		.4byte	.LASF320
 3814 0fc9 01       		.byte	0x1
 3815 0fca 4903     		.2byte	0x349
 3816 0fcc 6A000000 		.4byte	0x6a
 3817 0fd0 14       		.uleb128 0x14
 3818 0fd1 00       		.byte	0
 3819 0fd2 00       		.byte	0
 3820 0fd3 21       		.uleb128 0x21
 3821 0fd4 24000000 		.4byte	.LBB10
 3822 0fd8 12000000 		.4byte	.LBE10-.LBB10
 3823 0fdc 22       		.uleb128 0x22
 3824 0fdd A00B0000 		.4byte	.LASF308
 3825 0fe1 01       		.byte	0x1
 3826 0fe2 CE01     		.2byte	0x1ce
 3827 0fe4 6A000000 		.4byte	0x6a
 3828 0fe8 EE0F0000 		.4byte	0xfee
 3829 0fec 14       		.uleb128 0x14
 3830 0fed 00       		.byte	0
 3831 0fee 22       		.uleb128 0x22
 3832 0fef CE010000 		.4byte	.LASF319
 3833 0ff3 01       		.byte	0x1
 3834 0ff4 4803     		.2byte	0x348
ARM GAS  C:\Users\alex\AppData\Local\Temp\ccrAtNPo.s 			page 86


 3835 0ff6 6A000000 		.4byte	0x6a
 3836 0ffa 00100000 		.4byte	0x1000
 3837 0ffe 14       		.uleb128 0x14
 3838 0fff 00       		.byte	0
 3839 1000 20       		.uleb128 0x20
 3840 1001 74120000 		.4byte	.LASF320
 3841 1005 01       		.byte	0x1
 3842 1006 4903     		.2byte	0x349
 3843 1008 6A000000 		.4byte	0x6a
 3844 100c 14       		.uleb128 0x14
 3845 100d 00       		.byte	0
 3846 100e 00       		.byte	0
 3847 100f 00       		.byte	0
 3848 1010 25       		.uleb128 0x25
 3849 1011 C2030000 		.4byte	.LASF321
 3850 1015 01       		.byte	0x1
 3851 1016 5503     		.2byte	0x355
 3852 1018 00000000 		.4byte	.LFB77
 3853 101c 38000000 		.4byte	.LFE77-.LFB77
 3854 1020 01       		.uleb128 0x1
 3855 1021 9C       		.byte	0x9c
 3856 1022 69100000 		.4byte	0x1069
 3857 1026 26       		.uleb128 0x26
 3858 1027 6F7000   		.ascii	"op\000"
 3859 102a 01       		.byte	0x1
 3860 102b 5503     		.2byte	0x355
 3861 102d BC000000 		.4byte	0xbc
 3862 1031 02       		.uleb128 0x2
 3863 1032 91       		.byte	0x91
 3864 1033 77       		.sleb128 -9
 3865 1034 1F       		.uleb128 0x1f
 3866 1035 10000000 		.4byte	.LBB11
 3867 1039 0C000000 		.4byte	.LBE11-.LBB11
 3868 103d 50100000 		.4byte	0x1050
 3869 1041 20       		.uleb128 0x20
 3870 1042 72100000 		.4byte	.LASF322
 3871 1046 01       		.byte	0x1
 3872 1047 5803     		.2byte	0x358
 3873 1049 6A000000 		.4byte	0x6a
 3874 104d 14       		.uleb128 0x14
 3875 104e 00       		.byte	0
 3876 104f 00       		.byte	0
 3877 1050 21       		.uleb128 0x21
 3878 1051 1E000000 		.4byte	.LBB12
 3879 1055 0C000000 		.4byte	.LBE12-.LBB12
 3880 1059 20       		.uleb128 0x20
 3881 105a 72100000 		.4byte	.LASF322
 3882 105e 01       		.byte	0x1
 3883 105f 5803     		.2byte	0x358
 3884 1061 6A000000 		.4byte	0x6a
 3885 1065 14       		.uleb128 0x14
 3886 1066 00       		.byte	0
 3887 1067 00       		.byte	0
 3888 1068 00       		.byte	0
 3889 1069 25       		.uleb128 0x25
 3890 106a B7150000 		.4byte	.LASF323
 3891 106e 01       		.byte	0x1
ARM GAS  C:\Users\alex\AppData\Local\Temp\ccrAtNPo.s 			page 87


 3892 106f 6303     		.2byte	0x363
 3893 1071 00000000 		.4byte	.LFB78
 3894 1075 38000000 		.4byte	.LFE78-.LFB78
 3895 1079 01       		.uleb128 0x1
 3896 107a 9C       		.byte	0x9c
 3897 107b C2100000 		.4byte	0x10c2
 3898 107f 26       		.uleb128 0x26
 3899 1080 6F7000   		.ascii	"op\000"
 3900 1083 01       		.byte	0x1
 3901 1084 6303     		.2byte	0x363
 3902 1086 BC000000 		.4byte	0xbc
 3903 108a 02       		.uleb128 0x2
 3904 108b 91       		.byte	0x91
 3905 108c 77       		.sleb128 -9
 3906 108d 1F       		.uleb128 0x1f
 3907 108e 10000000 		.4byte	.LBB13
 3908 1092 0C000000 		.4byte	.LBE13-.LBB13
 3909 1096 A9100000 		.4byte	0x10a9
 3910 109a 20       		.uleb128 0x20
 3911 109b 7F0D0000 		.4byte	.LASF324
 3912 109f 01       		.byte	0x1
 3913 10a0 6603     		.2byte	0x366
 3914 10a2 6A000000 		.4byte	0x6a
 3915 10a6 14       		.uleb128 0x14
 3916 10a7 00       		.byte	0
 3917 10a8 00       		.byte	0
 3918 10a9 21       		.uleb128 0x21
 3919 10aa 1E000000 		.4byte	.LBB14
 3920 10ae 0C000000 		.4byte	.LBE14-.LBB14
 3921 10b2 20       		.uleb128 0x20
 3922 10b3 7F0D0000 		.4byte	.LASF324
 3923 10b7 01       		.byte	0x1
 3924 10b8 6603     		.2byte	0x366
 3925 10ba 6A000000 		.4byte	0x6a
 3926 10be 14       		.uleb128 0x14
 3927 10bf 00       		.byte	0
 3928 10c0 00       		.byte	0
 3929 10c1 00       		.byte	0
 3930 10c2 25       		.uleb128 0x25
 3931 10c3 AA110000 		.4byte	.LASF325
 3932 10c7 01       		.byte	0x1
 3933 10c8 7203     		.2byte	0x372
 3934 10ca 00000000 		.4byte	.LFB79
 3935 10ce 38000000 		.4byte	.LFE79-.LFB79
 3936 10d2 01       		.uleb128 0x1
 3937 10d3 9C       		.byte	0x9c
 3938 10d4 1B110000 		.4byte	0x111b
 3939 10d8 26       		.uleb128 0x26
 3940 10d9 6F7000   		.ascii	"op\000"
 3941 10dc 01       		.byte	0x1
 3942 10dd 7203     		.2byte	0x372
 3943 10df BC000000 		.4byte	0xbc
 3944 10e3 02       		.uleb128 0x2
 3945 10e4 91       		.byte	0x91
 3946 10e5 77       		.sleb128 -9
 3947 10e6 1F       		.uleb128 0x1f
 3948 10e7 10000000 		.4byte	.LBB15
ARM GAS  C:\Users\alex\AppData\Local\Temp\ccrAtNPo.s 			page 88


 3949 10eb 0C000000 		.4byte	.LBE15-.LBB15
 3950 10ef 02110000 		.4byte	0x1102
 3951 10f3 20       		.uleb128 0x20
 3952 10f4 48100000 		.4byte	.LASF307
 3953 10f8 01       		.byte	0x1
 3954 10f9 CD01     		.2byte	0x1cd
 3955 10fb 6A000000 		.4byte	0x6a
 3956 10ff 14       		.uleb128 0x14
 3957 1100 00       		.byte	0
 3958 1101 00       		.byte	0
 3959 1102 21       		.uleb128 0x21
 3960 1103 1E000000 		.4byte	.LBB16
 3961 1107 0C000000 		.4byte	.LBE16-.LBB16
 3962 110b 20       		.uleb128 0x20
 3963 110c 48100000 		.4byte	.LASF307
 3964 1110 01       		.byte	0x1
 3965 1111 CD01     		.2byte	0x1cd
 3966 1113 6A000000 		.4byte	0x6a
 3967 1117 14       		.uleb128 0x14
 3968 1118 00       		.byte	0
 3969 1119 00       		.byte	0
 3970 111a 00       		.byte	0
 3971 111b 17       		.uleb128 0x17
 3972 111c B80D0000 		.4byte	.LASF326
 3973 1120 01       		.byte	0x1
 3974 1121 44       		.byte	0x44
 3975 1122 19070000 		.4byte	0x719
 3976 1126 05       		.uleb128 0x5
 3977 1127 03       		.byte	0x3
 3978 1128 00000000 		.4byte	App_TaskStartTCB
 3979 112c 10       		.uleb128 0x10
 3980 112d F9000000 		.4byte	0xf9
 3981 1131 3C110000 		.4byte	0x113c
 3982 1135 11       		.uleb128 0x11
 3983 1136 7F000000 		.4byte	0x7f
 3984 113a 7F       		.byte	0x7f
 3985 113b 00       		.byte	0
 3986 113c 17       		.uleb128 0x17
 3987 113d 99000000 		.4byte	.LASF327
 3988 1141 01       		.byte	0x1
 3989 1142 45       		.byte	0x45
 3990 1143 2C110000 		.4byte	0x112c
 3991 1147 05       		.uleb128 0x5
 3992 1148 03       		.byte	0x3
 3993 1149 C0000000 		.4byte	App_TaskStartStk
 3994 114d 17       		.uleb128 0x17
 3995 114e A4150000 		.4byte	.LASF328
 3996 1152 01       		.byte	0x1
 3997 1153 47       		.byte	0x47
 3998 1154 19070000 		.4byte	0x719
 3999 1158 05       		.uleb128 0x5
 4000 1159 03       		.byte	0x3
 4001 115a C0020000 		.4byte	App_TaskUserIF_TCB
 4002 115e 17       		.uleb128 0x17
 4003 115f AA000000 		.4byte	.LASF329
 4004 1163 01       		.byte	0x1
 4005 1164 48       		.byte	0x48
ARM GAS  C:\Users\alex\AppData\Local\Temp\ccrAtNPo.s 			page 89


 4006 1165 2C110000 		.4byte	0x112c
 4007 1169 05       		.uleb128 0x5
 4008 116a 03       		.byte	0x3
 4009 116b 80030000 		.4byte	App_TaskUserIFStk
 4010 116f 17       		.uleb128 0x17
 4011 1170 32140000 		.4byte	.LASF330
 4012 1174 01       		.byte	0x1
 4013 1175 4B       		.byte	0x4b
 4014 1176 19070000 		.4byte	0x719
 4015 117a 05       		.uleb128 0x5
 4016 117b 03       		.byte	0x3
 4017 117c 80050000 		.4byte	App_Task_Ihm_TCB
 4018 1180 17       		.uleb128 0x17
 4019 1181 E20A0000 		.4byte	.LASF331
 4020 1185 01       		.byte	0x1
 4021 1186 4C       		.byte	0x4c
 4022 1187 2C110000 		.4byte	0x112c
 4023 118b 05       		.uleb128 0x5
 4024 118c 03       		.byte	0x3
 4025 118d 40060000 		.4byte	App_Task_Ihm_Stk
 4026 1191 17       		.uleb128 0x17
 4027 1192 5C110000 		.4byte	.LASF332
 4028 1196 01       		.byte	0x1
 4029 1197 4F       		.byte	0x4f
 4030 1198 19070000 		.4byte	0x719
 4031 119c 05       		.uleb128 0x5
 4032 119d 03       		.byte	0x3
 4033 119e 40080000 		.4byte	App_Task_Emerg_TCB
 4034 11a2 17       		.uleb128 0x17
 4035 11a3 EA030000 		.4byte	.LASF333
 4036 11a7 01       		.byte	0x1
 4037 11a8 50       		.byte	0x50
 4038 11a9 2C110000 		.4byte	0x112c
 4039 11ad 05       		.uleb128 0x5
 4040 11ae 03       		.byte	0x3
 4041 11af 00090000 		.4byte	App_Task_Emerg_Stk
 4042 11b3 17       		.uleb128 0x17
 4043 11b4 370C0000 		.4byte	.LASF334
 4044 11b8 01       		.byte	0x1
 4045 11b9 53       		.byte	0x53
 4046 11ba 19070000 		.4byte	0x719
 4047 11be 05       		.uleb128 0x5
 4048 11bf 03       		.byte	0x3
 4049 11c0 000B0000 		.4byte	App_Task_Sen_Mec_TCB
 4050 11c4 17       		.uleb128 0x17
 4051 11c5 8F150000 		.4byte	.LASF335
 4052 11c9 01       		.byte	0x1
 4053 11ca 54       		.byte	0x54
 4054 11cb 2C110000 		.4byte	0x112c
 4055 11cf 05       		.uleb128 0x5
 4056 11d0 03       		.byte	0x3
 4057 11d1 C00B0000 		.4byte	App_Task_Sen_Mec_Stk
 4058 11d5 17       		.uleb128 0x17
 4059 11d6 BB0E0000 		.4byte	.LASF336
 4060 11da 01       		.byte	0x1
 4061 11db 57       		.byte	0x57
 4062 11dc 19070000 		.4byte	0x719
ARM GAS  C:\Users\alex\AppData\Local\Temp\ccrAtNPo.s 			page 90


 4063 11e0 05       		.uleb128 0x5
 4064 11e1 03       		.byte	0x3
 4065 11e2 C00D0000 		.4byte	App_Task_Sen_Temp_TCB
 4066 11e6 17       		.uleb128 0x17
 4067 11e7 DC010000 		.4byte	.LASF337
 4068 11eb 01       		.byte	0x1
 4069 11ec 58       		.byte	0x58
 4070 11ed 2C110000 		.4byte	0x112c
 4071 11f1 05       		.uleb128 0x5
 4072 11f2 03       		.byte	0x3
 4073 11f3 800E0000 		.4byte	App_Task_Sen_Temp_Stk
 4074 11f7 17       		.uleb128 0x17
 4075 11f8 D7100000 		.4byte	.LASF338
 4076 11fc 01       		.byte	0x1
 4077 11fd 5B       		.byte	0x5b
 4078 11fe 19070000 		.4byte	0x719
 4079 1202 05       		.uleb128 0x5
 4080 1203 03       		.byte	0x3
 4081 1204 80100000 		.4byte	App_Task_Display_TCB
 4082 1208 17       		.uleb128 0x17
 4083 1209 AD030000 		.4byte	.LASF339
 4084 120d 01       		.byte	0x1
 4085 120e 5C       		.byte	0x5c
 4086 120f 2C110000 		.4byte	0x112c
 4087 1213 05       		.uleb128 0x5
 4088 1214 03       		.byte	0x3
 4089 1215 40110000 		.4byte	App_Task_Display_Stk
 4090 1219 27       		.uleb128 0x27
 4091 121a 30010000 		.4byte	.LASF340
 4092 121e 07       		.byte	0x7
 4093 121f BD04     		.2byte	0x4bd
 4094 1221 25010000 		.4byte	0x125
 4095 1225 27       		.uleb128 0x27
 4096 1226 9B110000 		.4byte	.LASF341
 4097 122a 07       		.byte	0x7
 4098 122b C804     		.2byte	0x4c8
 4099 122d 30010000 		.4byte	0x130
 4100 1231 27       		.uleb128 0x27
 4101 1232 3E0E0000 		.4byte	.LASF342
 4102 1236 07       		.byte	0x7
 4103 1237 D304     		.2byte	0x4d3
 4104 1239 D5010000 		.4byte	0x1d5
 4105 123d 27       		.uleb128 0x27
 4106 123e B7110000 		.4byte	.LASF343
 4107 1242 07       		.byte	0x7
 4108 1243 0F05     		.2byte	0x50f
 4109 1245 49120000 		.4byte	0x1249
 4110 1249 28       		.uleb128 0x28
 4111 124a 9E010000 		.4byte	0x19e
 4112 124e 27       		.uleb128 0x27
 4113 124f A5130000 		.4byte	.LASF344
 4114 1253 09       		.byte	0x9
 4115 1254 1207     		.2byte	0x712
 4116 1256 5A120000 		.4byte	0x125a
 4117 125a 29       		.uleb128 0x29
 4118 125b 8D000000 		.4byte	0x8d
 4119 125f 2A       		.uleb128 0x2a
ARM GAS  C:\Users\alex\AppData\Local\Temp\ccrAtNPo.s 			page 91


 4120 1260 E4120000 		.4byte	.LASF345
 4121 1264 01       		.byte	0x1
 4122 1265 5F       		.byte	0x5f
 4123 1266 BC000000 		.4byte	0xbc
 4124 126a 05       		.uleb128 0x5
 4125 126b 03       		.byte	0x3
 4126 126c 00000000 		.4byte	motor
 4127 1270 2A       		.uleb128 0x2a
 4128 1271 8B020000 		.4byte	.LASF346
 4129 1275 01       		.byte	0x1
 4130 1276 60       		.byte	0x60
 4131 1277 BC000000 		.4byte	0xbc
 4132 127b 05       		.uleb128 0x5
 4133 127c 03       		.byte	0x3
 4134 127d 00000000 		.4byte	emerg
 4135 1281 2A       		.uleb128 0x2a
 4136 1282 DB0A0000 		.4byte	.LASF347
 4137 1286 01       		.byte	0x1
 4138 1287 61       		.byte	0x61
 4139 1288 BC000000 		.4byte	0xbc
 4140 128c 05       		.uleb128 0x5
 4141 128d 03       		.byte	0x3
 4142 128e 00000000 		.4byte	rearme
 4143 1292 2A       		.uleb128 0x2a
 4144 1293 1B050000 		.4byte	.LASF348
 4145 1297 01       		.byte	0x1
 4146 1298 62       		.byte	0x62
 4147 1299 BC000000 		.4byte	0xbc
 4148 129d 05       		.uleb128 0x5
 4149 129e 03       		.byte	0x3
 4150 129f 00000000 		.4byte	alerta
 4151 12a3 2A       		.uleb128 0x2a
 4152 12a4 CE0D0000 		.4byte	.LASF349
 4153 12a8 01       		.byte	0x1
 4154 12a9 65       		.byte	0x65
 4155 12aa 9F000000 		.4byte	0x9f
 4156 12ae 05       		.uleb128 0x5
 4157 12af 03       		.byte	0x3
 4158 12b0 00000000 		.4byte	tempM
 4159 12b4 2A       		.uleb128 0x2a
 4160 12b5 D40D0000 		.4byte	.LASF350
 4161 12b9 01       		.byte	0x1
 4162 12ba 66       		.byte	0x66
 4163 12bb 9F000000 		.4byte	0x9f
 4164 12bf 05       		.uleb128 0x5
 4165 12c0 03       		.byte	0x3
 4166 12c1 00000000 		.4byte	tempQ
 4167 12c5 00       		.byte	0
 4168              		.section	.debug_abbrev,"",%progbits
 4169              	.Ldebug_abbrev0:
 4170 0000 01       		.uleb128 0x1
 4171 0001 11       		.uleb128 0x11
 4172 0002 01       		.byte	0x1
 4173 0003 25       		.uleb128 0x25
 4174 0004 0E       		.uleb128 0xe
 4175 0005 13       		.uleb128 0x13
 4176 0006 0B       		.uleb128 0xb
ARM GAS  C:\Users\alex\AppData\Local\Temp\ccrAtNPo.s 			page 92


 4177 0007 03       		.uleb128 0x3
 4178 0008 0E       		.uleb128 0xe
 4179 0009 1B       		.uleb128 0x1b
 4180 000a 0E       		.uleb128 0xe
 4181 000b 55       		.uleb128 0x55
 4182 000c 17       		.uleb128 0x17
 4183 000d 11       		.uleb128 0x11
 4184 000e 01       		.uleb128 0x1
 4185 000f 10       		.uleb128 0x10
 4186 0010 17       		.uleb128 0x17
 4187 0011 00       		.byte	0
 4188 0012 00       		.byte	0
 4189 0013 02       		.uleb128 0x2
 4190 0014 0F       		.uleb128 0xf
 4191 0015 00       		.byte	0
 4192 0016 0B       		.uleb128 0xb
 4193 0017 0B       		.uleb128 0xb
 4194 0018 00       		.byte	0
 4195 0019 00       		.byte	0
 4196 001a 03       		.uleb128 0x3
 4197 001b 24       		.uleb128 0x24
 4198 001c 00       		.byte	0
 4199 001d 0B       		.uleb128 0xb
 4200 001e 0B       		.uleb128 0xb
 4201 001f 3E       		.uleb128 0x3e
 4202 0020 0B       		.uleb128 0xb
 4203 0021 03       		.uleb128 0x3
 4204 0022 0E       		.uleb128 0xe
 4205 0023 00       		.byte	0
 4206 0024 00       		.byte	0
 4207 0025 04       		.uleb128 0x4
 4208 0026 16       		.uleb128 0x16
 4209 0027 00       		.byte	0
 4210 0028 03       		.uleb128 0x3
 4211 0029 0E       		.uleb128 0xe
 4212 002a 3A       		.uleb128 0x3a
 4213 002b 0B       		.uleb128 0xb
 4214 002c 3B       		.uleb128 0x3b
 4215 002d 0B       		.uleb128 0xb
 4216 002e 49       		.uleb128 0x49
 4217 002f 13       		.uleb128 0x13
 4218 0030 00       		.byte	0
 4219 0031 00       		.byte	0
 4220 0032 05       		.uleb128 0x5
 4221 0033 24       		.uleb128 0x24
 4222 0034 00       		.byte	0
 4223 0035 0B       		.uleb128 0xb
 4224 0036 0B       		.uleb128 0xb
 4225 0037 3E       		.uleb128 0x3e
 4226 0038 0B       		.uleb128 0xb
 4227 0039 03       		.uleb128 0x3
 4228 003a 08       		.uleb128 0x8
 4229 003b 00       		.byte	0
 4230 003c 00       		.byte	0
 4231 003d 06       		.uleb128 0x6
 4232 003e 0F       		.uleb128 0xf
 4233 003f 00       		.byte	0
ARM GAS  C:\Users\alex\AppData\Local\Temp\ccrAtNPo.s 			page 93


 4234 0040 0B       		.uleb128 0xb
 4235 0041 0B       		.uleb128 0xb
 4236 0042 49       		.uleb128 0x49
 4237 0043 13       		.uleb128 0x13
 4238 0044 00       		.byte	0
 4239 0045 00       		.byte	0
 4240 0046 07       		.uleb128 0x7
 4241 0047 15       		.uleb128 0x15
 4242 0048 01       		.byte	0x1
 4243 0049 27       		.uleb128 0x27
 4244 004a 19       		.uleb128 0x19
 4245 004b 01       		.uleb128 0x1
 4246 004c 13       		.uleb128 0x13
 4247 004d 00       		.byte	0
 4248 004e 00       		.byte	0
 4249 004f 08       		.uleb128 0x8
 4250 0050 05       		.uleb128 0x5
 4251 0051 00       		.byte	0
 4252 0052 49       		.uleb128 0x49
 4253 0053 13       		.uleb128 0x13
 4254 0054 00       		.byte	0
 4255 0055 00       		.byte	0
 4256 0056 09       		.uleb128 0x9
 4257 0057 04       		.uleb128 0x4
 4258 0058 01       		.byte	0x1
 4259 0059 03       		.uleb128 0x3
 4260 005a 0E       		.uleb128 0xe
 4261 005b 0B       		.uleb128 0xb
 4262 005c 0B       		.uleb128 0xb
 4263 005d 49       		.uleb128 0x49
 4264 005e 13       		.uleb128 0x13
 4265 005f 3A       		.uleb128 0x3a
 4266 0060 0B       		.uleb128 0xb
 4267 0061 3B       		.uleb128 0x3b
 4268 0062 05       		.uleb128 0x5
 4269 0063 01       		.uleb128 0x1
 4270 0064 13       		.uleb128 0x13
 4271 0065 00       		.byte	0
 4272 0066 00       		.byte	0
 4273 0067 0A       		.uleb128 0xa
 4274 0068 28       		.uleb128 0x28
 4275 0069 00       		.byte	0
 4276 006a 03       		.uleb128 0x3
 4277 006b 0E       		.uleb128 0xe
 4278 006c 1C       		.uleb128 0x1c
 4279 006d 0B       		.uleb128 0xb
 4280 006e 00       		.byte	0
 4281 006f 00       		.byte	0
 4282 0070 0B       		.uleb128 0xb
 4283 0071 28       		.uleb128 0x28
 4284 0072 00       		.byte	0
 4285 0073 03       		.uleb128 0x3
 4286 0074 0E       		.uleb128 0xe
 4287 0075 1C       		.uleb128 0x1c
 4288 0076 05       		.uleb128 0x5
 4289 0077 00       		.byte	0
 4290 0078 00       		.byte	0
ARM GAS  C:\Users\alex\AppData\Local\Temp\ccrAtNPo.s 			page 94


 4291 0079 0C       		.uleb128 0xc
 4292 007a 16       		.uleb128 0x16
 4293 007b 00       		.byte	0
 4294 007c 03       		.uleb128 0x3
 4295 007d 0E       		.uleb128 0xe
 4296 007e 3A       		.uleb128 0x3a
 4297 007f 0B       		.uleb128 0xb
 4298 0080 3B       		.uleb128 0x3b
 4299 0081 05       		.uleb128 0x5
 4300 0082 49       		.uleb128 0x49
 4301 0083 13       		.uleb128 0x13
 4302 0084 00       		.byte	0
 4303 0085 00       		.byte	0
 4304 0086 0D       		.uleb128 0xd
 4305 0087 13       		.uleb128 0x13
 4306 0088 01       		.byte	0x1
 4307 0089 03       		.uleb128 0x3
 4308 008a 0E       		.uleb128 0xe
 4309 008b 0B       		.uleb128 0xb
 4310 008c 0B       		.uleb128 0xb
 4311 008d 3A       		.uleb128 0x3a
 4312 008e 0B       		.uleb128 0xb
 4313 008f 3B       		.uleb128 0x3b
 4314 0090 05       		.uleb128 0x5
 4315 0091 01       		.uleb128 0x1
 4316 0092 13       		.uleb128 0x13
 4317 0093 00       		.byte	0
 4318 0094 00       		.byte	0
 4319 0095 0E       		.uleb128 0xe
 4320 0096 0D       		.uleb128 0xd
 4321 0097 00       		.byte	0
 4322 0098 03       		.uleb128 0x3
 4323 0099 0E       		.uleb128 0xe
 4324 009a 3A       		.uleb128 0x3a
 4325 009b 0B       		.uleb128 0xb
 4326 009c 3B       		.uleb128 0x3b
 4327 009d 05       		.uleb128 0x5
 4328 009e 49       		.uleb128 0x49
 4329 009f 13       		.uleb128 0x13
 4330 00a0 38       		.uleb128 0x38
 4331 00a1 0B       		.uleb128 0xb
 4332 00a2 00       		.byte	0
 4333 00a3 00       		.byte	0
 4334 00a4 0F       		.uleb128 0xf
 4335 00a5 0D       		.uleb128 0xd
 4336 00a6 00       		.byte	0
 4337 00a7 03       		.uleb128 0x3
 4338 00a8 08       		.uleb128 0x8
 4339 00a9 3A       		.uleb128 0x3a
 4340 00aa 0B       		.uleb128 0xb
 4341 00ab 3B       		.uleb128 0x3b
 4342 00ac 05       		.uleb128 0x5
 4343 00ad 49       		.uleb128 0x49
 4344 00ae 13       		.uleb128 0x13
 4345 00af 38       		.uleb128 0x38
 4346 00b0 0B       		.uleb128 0xb
 4347 00b1 00       		.byte	0
ARM GAS  C:\Users\alex\AppData\Local\Temp\ccrAtNPo.s 			page 95


 4348 00b2 00       		.byte	0
 4349 00b3 10       		.uleb128 0x10
 4350 00b4 01       		.uleb128 0x1
 4351 00b5 01       		.byte	0x1
 4352 00b6 49       		.uleb128 0x49
 4353 00b7 13       		.uleb128 0x13
 4354 00b8 01       		.uleb128 0x1
 4355 00b9 13       		.uleb128 0x13
 4356 00ba 00       		.byte	0
 4357 00bb 00       		.byte	0
 4358 00bc 11       		.uleb128 0x11
 4359 00bd 21       		.uleb128 0x21
 4360 00be 00       		.byte	0
 4361 00bf 49       		.uleb128 0x49
 4362 00c0 13       		.uleb128 0x13
 4363 00c1 2F       		.uleb128 0x2f
 4364 00c2 0B       		.uleb128 0xb
 4365 00c3 00       		.byte	0
 4366 00c4 00       		.byte	0
 4367 00c5 12       		.uleb128 0x12
 4368 00c6 2E       		.uleb128 0x2e
 4369 00c7 01       		.byte	0x1
 4370 00c8 3F       		.uleb128 0x3f
 4371 00c9 19       		.uleb128 0x19
 4372 00ca 03       		.uleb128 0x3
 4373 00cb 0E       		.uleb128 0xe
 4374 00cc 3A       		.uleb128 0x3a
 4375 00cd 0B       		.uleb128 0xb
 4376 00ce 3B       		.uleb128 0x3b
 4377 00cf 0B       		.uleb128 0xb
 4378 00d0 27       		.uleb128 0x27
 4379 00d1 19       		.uleb128 0x19
 4380 00d2 11       		.uleb128 0x11
 4381 00d3 01       		.uleb128 0x1
 4382 00d4 12       		.uleb128 0x12
 4383 00d5 06       		.uleb128 0x6
 4384 00d6 40       		.uleb128 0x40
 4385 00d7 18       		.uleb128 0x18
 4386 00d8 9642     		.uleb128 0x2116
 4387 00da 19       		.uleb128 0x19
 4388 00db 01       		.uleb128 0x1
 4389 00dc 13       		.uleb128 0x13
 4390 00dd 00       		.byte	0
 4391 00de 00       		.byte	0
 4392 00df 13       		.uleb128 0x13
 4393 00e0 2E       		.uleb128 0x2e
 4394 00e1 01       		.byte	0x1
 4395 00e2 3F       		.uleb128 0x3f
 4396 00e3 19       		.uleb128 0x19
 4397 00e4 03       		.uleb128 0x3
 4398 00e5 0E       		.uleb128 0xe
 4399 00e6 3A       		.uleb128 0x3a
 4400 00e7 0B       		.uleb128 0xb
 4401 00e8 3B       		.uleb128 0x3b
 4402 00e9 0B       		.uleb128 0xb
 4403 00ea 49       		.uleb128 0x49
 4404 00eb 13       		.uleb128 0x13
ARM GAS  C:\Users\alex\AppData\Local\Temp\ccrAtNPo.s 			page 96


 4405 00ec 3C       		.uleb128 0x3c
 4406 00ed 19       		.uleb128 0x19
 4407 00ee 00       		.byte	0
 4408 00ef 00       		.byte	0
 4409 00f0 14       		.uleb128 0x14
 4410 00f1 18       		.uleb128 0x18
 4411 00f2 00       		.byte	0
 4412 00f3 00       		.byte	0
 4413 00f4 00       		.byte	0
 4414 00f5 15       		.uleb128 0x15
 4415 00f6 2E       		.uleb128 0x2e
 4416 00f7 01       		.byte	0x1
 4417 00f8 3F       		.uleb128 0x3f
 4418 00f9 19       		.uleb128 0x19
 4419 00fa 03       		.uleb128 0x3
 4420 00fb 0E       		.uleb128 0xe
 4421 00fc 3A       		.uleb128 0x3a
 4422 00fd 0B       		.uleb128 0xb
 4423 00fe 3B       		.uleb128 0x3b
 4424 00ff 0B       		.uleb128 0xb
 4425 0100 27       		.uleb128 0x27
 4426 0101 19       		.uleb128 0x19
 4427 0102 49       		.uleb128 0x49
 4428 0103 13       		.uleb128 0x13
 4429 0104 11       		.uleb128 0x11
 4430 0105 01       		.uleb128 0x1
 4431 0106 12       		.uleb128 0x12
 4432 0107 06       		.uleb128 0x6
 4433 0108 40       		.uleb128 0x40
 4434 0109 18       		.uleb128 0x18
 4435 010a 9642     		.uleb128 0x2116
 4436 010c 19       		.uleb128 0x19
 4437 010d 01       		.uleb128 0x1
 4438 010e 13       		.uleb128 0x13
 4439 010f 00       		.byte	0
 4440 0110 00       		.byte	0
 4441 0111 16       		.uleb128 0x16
 4442 0112 2E       		.uleb128 0x2e
 4443 0113 01       		.byte	0x1
 4444 0114 3F       		.uleb128 0x3f
 4445 0115 19       		.uleb128 0x19
 4446 0116 03       		.uleb128 0x3
 4447 0117 0E       		.uleb128 0xe
 4448 0118 3A       		.uleb128 0x3a
 4449 0119 0B       		.uleb128 0xb
 4450 011a 3B       		.uleb128 0x3b
 4451 011b 0B       		.uleb128 0xb
 4452 011c 49       		.uleb128 0x49
 4453 011d 13       		.uleb128 0x13
 4454 011e 3C       		.uleb128 0x3c
 4455 011f 19       		.uleb128 0x19
 4456 0120 01       		.uleb128 0x1
 4457 0121 13       		.uleb128 0x13
 4458 0122 00       		.byte	0
 4459 0123 00       		.byte	0
 4460 0124 17       		.uleb128 0x17
 4461 0125 34       		.uleb128 0x34
ARM GAS  C:\Users\alex\AppData\Local\Temp\ccrAtNPo.s 			page 97


 4462 0126 00       		.byte	0
 4463 0127 03       		.uleb128 0x3
 4464 0128 0E       		.uleb128 0xe
 4465 0129 3A       		.uleb128 0x3a
 4466 012a 0B       		.uleb128 0xb
 4467 012b 3B       		.uleb128 0x3b
 4468 012c 0B       		.uleb128 0xb
 4469 012d 49       		.uleb128 0x49
 4470 012e 13       		.uleb128 0x13
 4471 012f 02       		.uleb128 0x2
 4472 0130 18       		.uleb128 0x18
 4473 0131 00       		.byte	0
 4474 0132 00       		.byte	0
 4475 0133 18       		.uleb128 0x18
 4476 0134 2E       		.uleb128 0x2e
 4477 0135 01       		.byte	0x1
 4478 0136 03       		.uleb128 0x3
 4479 0137 0E       		.uleb128 0xe
 4480 0138 3A       		.uleb128 0x3a
 4481 0139 0B       		.uleb128 0xb
 4482 013a 3B       		.uleb128 0x3b
 4483 013b 0B       		.uleb128 0xb
 4484 013c 27       		.uleb128 0x27
 4485 013d 19       		.uleb128 0x19
 4486 013e 11       		.uleb128 0x11
 4487 013f 01       		.uleb128 0x1
 4488 0140 12       		.uleb128 0x12
 4489 0141 06       		.uleb128 0x6
 4490 0142 40       		.uleb128 0x40
 4491 0143 18       		.uleb128 0x18
 4492 0144 9642     		.uleb128 0x2116
 4493 0146 19       		.uleb128 0x19
 4494 0147 01       		.uleb128 0x1
 4495 0148 13       		.uleb128 0x13
 4496 0149 00       		.byte	0
 4497 014a 00       		.byte	0
 4498 014b 19       		.uleb128 0x19
 4499 014c 05       		.uleb128 0x5
 4500 014d 00       		.byte	0
 4501 014e 03       		.uleb128 0x3
 4502 014f 0E       		.uleb128 0xe
 4503 0150 3A       		.uleb128 0x3a
 4504 0151 0B       		.uleb128 0xb
 4505 0152 3B       		.uleb128 0x3b
 4506 0153 0B       		.uleb128 0xb
 4507 0154 49       		.uleb128 0x49
 4508 0155 13       		.uleb128 0x13
 4509 0156 02       		.uleb128 0x2
 4510 0157 18       		.uleb128 0x18
 4511 0158 00       		.byte	0
 4512 0159 00       		.byte	0
 4513 015a 1A       		.uleb128 0x1a
 4514 015b 34       		.uleb128 0x34
 4515 015c 00       		.byte	0
 4516 015d 03       		.uleb128 0x3
 4517 015e 08       		.uleb128 0x8
 4518 015f 3A       		.uleb128 0x3a
ARM GAS  C:\Users\alex\AppData\Local\Temp\ccrAtNPo.s 			page 98


 4519 0160 0B       		.uleb128 0xb
 4520 0161 3B       		.uleb128 0x3b
 4521 0162 0B       		.uleb128 0xb
 4522 0163 49       		.uleb128 0x49
 4523 0164 13       		.uleb128 0x13
 4524 0165 02       		.uleb128 0x2
 4525 0166 18       		.uleb128 0x18
 4526 0167 00       		.byte	0
 4527 0168 00       		.byte	0
 4528 0169 1B       		.uleb128 0x1b
 4529 016a 2E       		.uleb128 0x2e
 4530 016b 01       		.byte	0x1
 4531 016c 03       		.uleb128 0x3
 4532 016d 0E       		.uleb128 0xe
 4533 016e 3A       		.uleb128 0x3a
 4534 016f 0B       		.uleb128 0xb
 4535 0170 3B       		.uleb128 0x3b
 4536 0171 05       		.uleb128 0x5
 4537 0172 27       		.uleb128 0x27
 4538 0173 19       		.uleb128 0x19
 4539 0174 11       		.uleb128 0x11
 4540 0175 01       		.uleb128 0x1
 4541 0176 12       		.uleb128 0x12
 4542 0177 06       		.uleb128 0x6
 4543 0178 40       		.uleb128 0x40
 4544 0179 18       		.uleb128 0x18
 4545 017a 9642     		.uleb128 0x2116
 4546 017c 19       		.uleb128 0x19
 4547 017d 01       		.uleb128 0x1
 4548 017e 13       		.uleb128 0x13
 4549 017f 00       		.byte	0
 4550 0180 00       		.byte	0
 4551 0181 1C       		.uleb128 0x1c
 4552 0182 34       		.uleb128 0x34
 4553 0183 00       		.byte	0
 4554 0184 03       		.uleb128 0x3
 4555 0185 0E       		.uleb128 0xe
 4556 0186 3A       		.uleb128 0x3a
 4557 0187 0B       		.uleb128 0xb
 4558 0188 3B       		.uleb128 0x3b
 4559 0189 05       		.uleb128 0x5
 4560 018a 49       		.uleb128 0x49
 4561 018b 13       		.uleb128 0x13
 4562 018c 02       		.uleb128 0x2
 4563 018d 18       		.uleb128 0x18
 4564 018e 00       		.byte	0
 4565 018f 00       		.byte	0
 4566 0190 1D       		.uleb128 0x1d
 4567 0191 05       		.uleb128 0x5
 4568 0192 00       		.byte	0
 4569 0193 03       		.uleb128 0x3
 4570 0194 0E       		.uleb128 0xe
 4571 0195 3A       		.uleb128 0x3a
 4572 0196 0B       		.uleb128 0xb
 4573 0197 3B       		.uleb128 0x3b
 4574 0198 05       		.uleb128 0x5
 4575 0199 49       		.uleb128 0x49
ARM GAS  C:\Users\alex\AppData\Local\Temp\ccrAtNPo.s 			page 99


 4576 019a 13       		.uleb128 0x13
 4577 019b 02       		.uleb128 0x2
 4578 019c 18       		.uleb128 0x18
 4579 019d 00       		.byte	0
 4580 019e 00       		.byte	0
 4581 019f 1E       		.uleb128 0x1e
 4582 01a0 34       		.uleb128 0x34
 4583 01a1 00       		.byte	0
 4584 01a2 03       		.uleb128 0x3
 4585 01a3 08       		.uleb128 0x8
 4586 01a4 3A       		.uleb128 0x3a
 4587 01a5 0B       		.uleb128 0xb
 4588 01a6 3B       		.uleb128 0x3b
 4589 01a7 05       		.uleb128 0x5
 4590 01a8 49       		.uleb128 0x49
 4591 01a9 13       		.uleb128 0x13
 4592 01aa 00       		.byte	0
 4593 01ab 00       		.byte	0
 4594 01ac 1F       		.uleb128 0x1f
 4595 01ad 0B       		.uleb128 0xb
 4596 01ae 01       		.byte	0x1
 4597 01af 11       		.uleb128 0x11
 4598 01b0 01       		.uleb128 0x1
 4599 01b1 12       		.uleb128 0x12
 4600 01b2 06       		.uleb128 0x6
 4601 01b3 01       		.uleb128 0x1
 4602 01b4 13       		.uleb128 0x13
 4603 01b5 00       		.byte	0
 4604 01b6 00       		.byte	0
 4605 01b7 20       		.uleb128 0x20
 4606 01b8 2E       		.uleb128 0x2e
 4607 01b9 01       		.byte	0x1
 4608 01ba 3F       		.uleb128 0x3f
 4609 01bb 19       		.uleb128 0x19
 4610 01bc 03       		.uleb128 0x3
 4611 01bd 0E       		.uleb128 0xe
 4612 01be 3A       		.uleb128 0x3a
 4613 01bf 0B       		.uleb128 0xb
 4614 01c0 3B       		.uleb128 0x3b
 4615 01c1 05       		.uleb128 0x5
 4616 01c2 49       		.uleb128 0x49
 4617 01c3 13       		.uleb128 0x13
 4618 01c4 3C       		.uleb128 0x3c
 4619 01c5 19       		.uleb128 0x19
 4620 01c6 00       		.byte	0
 4621 01c7 00       		.byte	0
 4622 01c8 21       		.uleb128 0x21
 4623 01c9 0B       		.uleb128 0xb
 4624 01ca 01       		.byte	0x1
 4625 01cb 11       		.uleb128 0x11
 4626 01cc 01       		.uleb128 0x1
 4627 01cd 12       		.uleb128 0x12
 4628 01ce 06       		.uleb128 0x6
 4629 01cf 00       		.byte	0
 4630 01d0 00       		.byte	0
 4631 01d1 22       		.uleb128 0x22
 4632 01d2 2E       		.uleb128 0x2e
ARM GAS  C:\Users\alex\AppData\Local\Temp\ccrAtNPo.s 			page 100


 4633 01d3 01       		.byte	0x1
 4634 01d4 3F       		.uleb128 0x3f
 4635 01d5 19       		.uleb128 0x19
 4636 01d6 03       		.uleb128 0x3
 4637 01d7 0E       		.uleb128 0xe
 4638 01d8 3A       		.uleb128 0x3a
 4639 01d9 0B       		.uleb128 0xb
 4640 01da 3B       		.uleb128 0x3b
 4641 01db 05       		.uleb128 0x5
 4642 01dc 49       		.uleb128 0x49
 4643 01dd 13       		.uleb128 0x13
 4644 01de 3C       		.uleb128 0x3c
 4645 01df 19       		.uleb128 0x19
 4646 01e0 01       		.uleb128 0x1
 4647 01e1 13       		.uleb128 0x13
 4648 01e2 00       		.byte	0
 4649 01e3 00       		.byte	0
 4650 01e4 23       		.uleb128 0x23
 4651 01e5 34       		.uleb128 0x34
 4652 01e6 00       		.byte	0
 4653 01e7 03       		.uleb128 0x3
 4654 01e8 08       		.uleb128 0x8
 4655 01e9 3A       		.uleb128 0x3a
 4656 01ea 0B       		.uleb128 0xb
 4657 01eb 3B       		.uleb128 0x3b
 4658 01ec 05       		.uleb128 0x5
 4659 01ed 49       		.uleb128 0x49
 4660 01ee 13       		.uleb128 0x13
 4661 01ef 02       		.uleb128 0x2
 4662 01f0 18       		.uleb128 0x18
 4663 01f1 00       		.byte	0
 4664 01f2 00       		.byte	0
 4665 01f3 24       		.uleb128 0x24
 4666 01f4 2E       		.uleb128 0x2e
 4667 01f5 00       		.byte	0
 4668 01f6 03       		.uleb128 0x3
 4669 01f7 0E       		.uleb128 0xe
 4670 01f8 3A       		.uleb128 0x3a
 4671 01f9 0B       		.uleb128 0xb
 4672 01fa 3B       		.uleb128 0x3b
 4673 01fb 05       		.uleb128 0x5
 4674 01fc 27       		.uleb128 0x27
 4675 01fd 19       		.uleb128 0x19
 4676 01fe 11       		.uleb128 0x11
 4677 01ff 01       		.uleb128 0x1
 4678 0200 12       		.uleb128 0x12
 4679 0201 06       		.uleb128 0x6
 4680 0202 40       		.uleb128 0x40
 4681 0203 18       		.uleb128 0x18
 4682 0204 9742     		.uleb128 0x2117
 4683 0206 19       		.uleb128 0x19
 4684 0207 00       		.byte	0
 4685 0208 00       		.byte	0
 4686 0209 25       		.uleb128 0x25
 4687 020a 2E       		.uleb128 0x2e
 4688 020b 01       		.byte	0x1
 4689 020c 3F       		.uleb128 0x3f
ARM GAS  C:\Users\alex\AppData\Local\Temp\ccrAtNPo.s 			page 101


 4690 020d 19       		.uleb128 0x19
 4691 020e 03       		.uleb128 0x3
 4692 020f 0E       		.uleb128 0xe
 4693 0210 3A       		.uleb128 0x3a
 4694 0211 0B       		.uleb128 0xb
 4695 0212 3B       		.uleb128 0x3b
 4696 0213 05       		.uleb128 0x5
 4697 0214 27       		.uleb128 0x27
 4698 0215 19       		.uleb128 0x19
 4699 0216 11       		.uleb128 0x11
 4700 0217 01       		.uleb128 0x1
 4701 0218 12       		.uleb128 0x12
 4702 0219 06       		.uleb128 0x6
 4703 021a 40       		.uleb128 0x40
 4704 021b 18       		.uleb128 0x18
 4705 021c 9642     		.uleb128 0x2116
 4706 021e 19       		.uleb128 0x19
 4707 021f 01       		.uleb128 0x1
 4708 0220 13       		.uleb128 0x13
 4709 0221 00       		.byte	0
 4710 0222 00       		.byte	0
 4711 0223 26       		.uleb128 0x26
 4712 0224 05       		.uleb128 0x5
 4713 0225 00       		.byte	0
 4714 0226 03       		.uleb128 0x3
 4715 0227 08       		.uleb128 0x8
 4716 0228 3A       		.uleb128 0x3a
 4717 0229 0B       		.uleb128 0xb
 4718 022a 3B       		.uleb128 0x3b
 4719 022b 05       		.uleb128 0x5
 4720 022c 49       		.uleb128 0x49
 4721 022d 13       		.uleb128 0x13
 4722 022e 02       		.uleb128 0x2
 4723 022f 18       		.uleb128 0x18
 4724 0230 00       		.byte	0
 4725 0231 00       		.byte	0
 4726 0232 27       		.uleb128 0x27
 4727 0233 34       		.uleb128 0x34
 4728 0234 00       		.byte	0
 4729 0235 03       		.uleb128 0x3
 4730 0236 0E       		.uleb128 0xe
 4731 0237 3A       		.uleb128 0x3a
 4732 0238 0B       		.uleb128 0xb
 4733 0239 3B       		.uleb128 0x3b
 4734 023a 05       		.uleb128 0x5
 4735 023b 49       		.uleb128 0x49
 4736 023c 13       		.uleb128 0x13
 4737 023d 3F       		.uleb128 0x3f
 4738 023e 19       		.uleb128 0x19
 4739 023f 3C       		.uleb128 0x3c
 4740 0240 19       		.uleb128 0x19
 4741 0241 00       		.byte	0
 4742 0242 00       		.byte	0
 4743 0243 28       		.uleb128 0x28
 4744 0244 26       		.uleb128 0x26
 4745 0245 00       		.byte	0
 4746 0246 49       		.uleb128 0x49
ARM GAS  C:\Users\alex\AppData\Local\Temp\ccrAtNPo.s 			page 102


 4747 0247 13       		.uleb128 0x13
 4748 0248 00       		.byte	0
 4749 0249 00       		.byte	0
 4750 024a 29       		.uleb128 0x29
 4751 024b 35       		.uleb128 0x35
 4752 024c 00       		.byte	0
 4753 024d 49       		.uleb128 0x49
 4754 024e 13       		.uleb128 0x13
 4755 024f 00       		.byte	0
 4756 0250 00       		.byte	0
 4757 0251 2A       		.uleb128 0x2a
 4758 0252 34       		.uleb128 0x34
 4759 0253 00       		.byte	0
 4760 0254 03       		.uleb128 0x3
 4761 0255 0E       		.uleb128 0xe
 4762 0256 3A       		.uleb128 0x3a
 4763 0257 0B       		.uleb128 0xb
 4764 0258 3B       		.uleb128 0x3b
 4765 0259 0B       		.uleb128 0xb
 4766 025a 49       		.uleb128 0x49
 4767 025b 13       		.uleb128 0x13
 4768 025c 3F       		.uleb128 0x3f
 4769 025d 19       		.uleb128 0x19
 4770 025e 02       		.uleb128 0x2
 4771 025f 18       		.uleb128 0x18
 4772 0260 00       		.byte	0
 4773 0261 00       		.byte	0
 4774 0262 00       		.byte	0
 4775              		.section	.debug_aranges,"",%progbits
 4776 0000 94000000 		.4byte	0x94
 4777 0004 0200     		.2byte	0x2
 4778 0006 00000000 		.4byte	.Ldebug_info0
 4779 000a 04       		.byte	0x4
 4780 000b 00       		.byte	0
 4781 000c 0000     		.2byte	0
 4782 000e 0000     		.2byte	0
 4783 0010 00000000 		.4byte	.LFB64
 4784 0014 2A000000 		.4byte	.LFE64-.LFB64
 4785 0018 00000000 		.4byte	.LFB65
 4786 001c 2A000000 		.4byte	.LFE65-.LFB65
 4787 0020 00000000 		.4byte	.LFB66
 4788 0024 2A000000 		.4byte	.LFE66-.LFB66
 4789 0028 00000000 		.4byte	.LFB67
 4790 002c 88000000 		.4byte	.LFE67-.LFB67
 4791 0030 00000000 		.4byte	.LFB68
 4792 0034 4A000000 		.4byte	.LFE68-.LFB68
 4793 0038 00000000 		.4byte	.LFB69
 4794 003c 10010000 		.4byte	.LFE69-.LFB69
 4795 0040 00000000 		.4byte	.LFB70
 4796 0044 78000000 		.4byte	.LFE70-.LFB70
 4797 0048 00000000 		.4byte	.LFB71
 4798 004c 1A000000 		.4byte	.LFE71-.LFB71
 4799 0050 00000000 		.4byte	.LFB72
 4800 0054 34000000 		.4byte	.LFE72-.LFB72
 4801 0058 00000000 		.4byte	.LFB73
 4802 005c BC030000 		.4byte	.LFE73-.LFB73
 4803 0060 00000000 		.4byte	.LFB74
ARM GAS  C:\Users\alex\AppData\Local\Temp\ccrAtNPo.s 			page 103


 4804 0064 0C000000 		.4byte	.LFE74-.LFB74
 4805 0068 00000000 		.4byte	.LFB75
 4806 006c B8030000 		.4byte	.LFE75-.LFB75
 4807 0070 00000000 		.4byte	.LFB76
 4808 0074 3E000000 		.4byte	.LFE76-.LFB76
 4809 0078 00000000 		.4byte	.LFB77
 4810 007c 38000000 		.4byte	.LFE77-.LFB77
 4811 0080 00000000 		.4byte	.LFB78
 4812 0084 38000000 		.4byte	.LFE78-.LFB78
 4813 0088 00000000 		.4byte	.LFB79
 4814 008c 38000000 		.4byte	.LFE79-.LFB79
 4815 0090 00000000 		.4byte	0
 4816 0094 00000000 		.4byte	0
 4817              		.section	.debug_ranges,"",%progbits
 4818              	.Ldebug_ranges0:
 4819 0000 00000000 		.4byte	.LFB64
 4820 0004 2A000000 		.4byte	.LFE64
 4821 0008 00000000 		.4byte	.LFB65
 4822 000c 2A000000 		.4byte	.LFE65
 4823 0010 00000000 		.4byte	.LFB66
 4824 0014 2A000000 		.4byte	.LFE66
 4825 0018 00000000 		.4byte	.LFB67
 4826 001c 88000000 		.4byte	.LFE67
 4827 0020 00000000 		.4byte	.LFB68
 4828 0024 4A000000 		.4byte	.LFE68
 4829 0028 00000000 		.4byte	.LFB69
 4830 002c 10010000 		.4byte	.LFE69
 4831 0030 00000000 		.4byte	.LFB70
 4832 0034 78000000 		.4byte	.LFE70
 4833 0038 00000000 		.4byte	.LFB71
 4834 003c 1A000000 		.4byte	.LFE71
 4835 0040 00000000 		.4byte	.LFB72
 4836 0044 34000000 		.4byte	.LFE72
 4837 0048 00000000 		.4byte	.LFB73
 4838 004c BC030000 		.4byte	.LFE73
 4839 0050 00000000 		.4byte	.LFB74
 4840 0054 0C000000 		.4byte	.LFE74
 4841 0058 00000000 		.4byte	.LFB75
 4842 005c B8030000 		.4byte	.LFE75
 4843 0060 00000000 		.4byte	.LFB76
 4844 0064 3E000000 		.4byte	.LFE76
 4845 0068 00000000 		.4byte	.LFB77
 4846 006c 38000000 		.4byte	.LFE77
 4847 0070 00000000 		.4byte	.LFB78
 4848 0074 38000000 		.4byte	.LFE78
 4849 0078 00000000 		.4byte	.LFB79
 4850 007c 38000000 		.4byte	.LFE79
 4851 0080 00000000 		.4byte	0
 4852 0084 00000000 		.4byte	0
 4853              		.section	.debug_line,"",%progbits
 4854              	.Ldebug_line0:
 4855 0000 4A040000 		.section	.debug_str,"MS",%progbits,1
 4855      0200E001 
 4855      00000201 
 4855      FB0E0D00 
 4855      01010101 
 4856              	.LASF73:
ARM GAS  C:\Users\alex\AppData\Local\Temp\ccrAtNPo.s 			page 104


 4857 0000 4F535F45 		.ascii	"OS_ERR_MEM_FULL\000"
 4857      52525F4D 
 4857      454D5F46 
 4857      554C4C00 
 4858              	.LASF355:
 4859 0010 4170705F 		.ascii	"App_ObjCreate\000"
 4859      4F626A43 
 4859      72656174 
 4859      6500
 4860              	.LASF225:
 4861 001e 5469636B 		.ascii	"TickNextPtr\000"
 4861      4E657874 
 4861      50747200 
 4862              	.LASF238:
 4863 002a 50656E64 		.ascii	"PendDataTblEntries\000"
 4863      44617461 
 4863      54626C45 
 4863      6E747269 
 4863      657300
 4864              	.LASF278:
 4865 003d 4F535F50 		.ascii	"OS_PEND_LIST\000"
 4865      454E445F 
 4865      4C495354 
 4865      00
 4866              	.LASF194:
 4867 004a 4F535F45 		.ascii	"OS_ERR_TMR_STK_INVALID\000"
 4867      52525F54 
 4867      4D525F53 
 4867      544B5F49 
 4867      4E56414C 
 4868              	.LASF10:
 4869 0061 73697A65 		.ascii	"sizetype\000"
 4869      74797065 
 4869      00
 4870              	.LASF17:
 4871 006a 4350555F 		.ascii	"CPU_BOOLEAN\000"
 4871      424F4F4C 
 4871      45414E00 
 4872              	.LASF67:
 4873 0076 4F535F45 		.ascii	"OS_ERR_J\000"
 4873      52525F4A 
 4873      00
 4874              	.LASF196:
 4875 007f 4F535F45 		.ascii	"OS_ERR_TMR_STOPPED\000"
 4875      52525F54 
 4875      4D525F53 
 4875      544F5050 
 4875      454400
 4876              	.LASF219:
 4877 0092 4F535F54 		.ascii	"OS_TCB\000"
 4877      434200
 4878              	.LASF327:
 4879 0099 4170705F 		.ascii	"App_TaskStartStk\000"
 4879      5461736B 
 4879      53746172 
 4879      7453746B 
 4879      00
ARM GAS  C:\Users\alex\AppData\Local\Temp\ccrAtNPo.s 			page 105


 4880              	.LASF329:
 4881 00aa 4170705F 		.ascii	"App_TaskUserIFStk\000"
 4881      5461736B 
 4881      55736572 
 4881      49465374 
 4881      6B00
 4882              	.LASF193:
 4883 00bc 4F535F45 		.ascii	"OS_ERR_TMR_PRIO_INVALID\000"
 4883      52525F54 
 4883      4D525F50 
 4883      52494F5F 
 4883      494E5641 
 4884              	.LASF13:
 4885 00d4 696E7433 		.ascii	"int32_t\000"
 4885      325F7400 
 4886              	.LASF263:
 4887 00dc 53746B46 		.ascii	"StkFree\000"
 4887      72656500 
 4888              	.LASF207:
 4889 00e4 4D736750 		.ascii	"MsgPtr\000"
 4889      747200
 4890              	.LASF16:
 4891 00eb 4350555F 		.ascii	"CPU_CHAR\000"
 4891      43484152 
 4891      00
 4892              	.LASF120:
 4893 00f4 4F535F45 		.ascii	"OS_ERR_ROUND_ROBIN_1\000"
 4893      52525F52 
 4893      4F554E44 
 4893      5F524F42 
 4893      494E5F31 
 4894              	.LASF302:
 4895 0109 62745F64 		.ascii	"bt_desl_Read\000"
 4895      65736C5F 
 4895      52656164 
 4895      00
 4896              	.LASF128:
 4897 0116 4F535F45 		.ascii	"OS_ERR_SEM_OVF\000"
 4897      52525F53 
 4897      454D5F4F 
 4897      564600
 4898              	.LASF19:
 4899 0125 4350555F 		.ascii	"CPU_INT16U\000"
 4899      494E5431 
 4899      365500
 4900              	.LASF340:
 4901 0130 4F535374 		.ascii	"OSStatTaskCPUUsage\000"
 4901      61745461 
 4901      736B4350 
 4901      55557361 
 4901      676500
 4902              	.LASF132:
 4903 0143 4F535F45 		.ascii	"OS_ERR_STAT_STK_INVALID\000"
 4903      52525F53 
 4903      5441545F 
 4903      53544B5F 
 4903      494E5641 
ARM GAS  C:\Users\alex\AppData\Local\Temp\ccrAtNPo.s 			page 106


 4904              	.LASF164:
 4905 015b 4F535F45 		.ascii	"OS_ERR_TLS_ID_INVALID\000"
 4905      52525F54 
 4905      4C535F49 
 4905      445F494E 
 4905      56414C49 
 4906              	.LASF101:
 4907 0171 4F535F45 		.ascii	"OS_ERR_PEND_ABORT_NONE\000"
 4907      52525F50 
 4907      454E445F 
 4907      41424F52 
 4907      545F4E4F 
 4908              	.LASF244:
 4909 0188 54696D65 		.ascii	"TimeQuantaCtr\000"
 4909      5175616E 
 4909      74614374 
 4909      7200
 4910              	.LASF287:
 4911 0196 73655F69 		.ascii	"se_indut_porta_Handler\000"
 4911      6E647574 
 4911      5F706F72 
 4911      74615F48 
 4911      616E646C 
 4912              	.LASF297:
 4913 01ad 4170705F 		.ascii	"App_TaskStart\000"
 4913      5461736B 
 4913      53746172 
 4913      7400
 4914              	.LASF22:
 4915 01bb 4350555F 		.ascii	"CPU_STK\000"
 4915      53544B00 
 4916              	.LASF252:
 4917 01c3 53757370 		.ascii	"SuspendCtr\000"
 4917      656E6443 
 4917      747200
 4918              	.LASF319:
 4919 01ce 73695F6C 		.ascii	"si_liga_Write\000"
 4919      6967615F 
 4919      57726974 
 4919      6500
 4920              	.LASF337:
 4921 01dc 4170705F 		.ascii	"App_Task_Sen_Temp_Stk\000"
 4921      5461736B 
 4921      5F53656E 
 4921      5F54656D 
 4921      705F5374 
 4922              	.LASF240:
 4923 01f2 5469636B 		.ascii	"TickCtrPrev\000"
 4923      43747250 
 4923      72657600 
 4924              	.LASF180:
 4925 01fe 4F535F45 		.ascii	"OS_ERR_TIME_NOT_DLY\000"
 4925      52525F54 
 4925      494D455F 
 4925      4E4F545F 
 4925      444C5900 
 4926              	.LASF147:
ARM GAS  C:\Users\alex\AppData\Local\Temp\ccrAtNPo.s 			page 107


 4927 0212 4F535F45 		.ascii	"OS_ERR_TASK_NO_MORE_TCB\000"
 4927      52525F54 
 4927      41534B5F 
 4927      4E4F5F4D 
 4927      4F52455F 
 4928              	.LASF306:
 4929 022a 4170705F 		.ascii	"App_Task_Sen_Mec\000"
 4929      5461736B 
 4929      5F53656E 
 4929      5F4D6563 
 4929      00
 4930              	.LASF35:
 4931 023b 4F535F4F 		.ascii	"OS_OPT\000"
 4931      505400
 4932              	.LASF163:
 4933 0242 4F535F45 		.ascii	"OS_ERR_TCB_INVALID\000"
 4933      52525F54 
 4933      43425F49 
 4933      4E56414C 
 4933      494400
 4934              	.LASF82:
 4935 0255 4F535F45 		.ascii	"OS_ERR_MSG_POOL_EMPTY\000"
 4935      52525F4D 
 4935      53475F50 
 4935      4F4F4C5F 
 4935      454D5054 
 4936              	.LASF91:
 4937 026b 4F535F45 		.ascii	"OS_ERR_OBJ_CREATED\000"
 4937      52525F4F 
 4937      424A5F43 
 4937      52454154 
 4937      454400
 4938              	.LASF271:
 4939 027e 6F735F70 		.ascii	"os_pend_data\000"
 4939      656E645F 
 4939      64617461 
 4939      00
 4940              	.LASF346:
 4941 028b 656D6572 		.ascii	"emerg\000"
 4941      6700
 4942              	.LASF215:
 4943 0291 4E627245 		.ascii	"NbrEntriesSize\000"
 4943      6E747269 
 4943      65735369 
 4943      7A6500
 4944              	.LASF81:
 4945 02a0 4F535F45 		.ascii	"OS_ERR_MEM_NO_FREE_BLKS\000"
 4945      52525F4D 
 4945      454D5F4E 
 4945      4F5F4652 
 4945      45455F42 
 4946              	.LASF253:
 4947 02b8 43505555 		.ascii	"CPUUsage\000"
 4947      73616765 
 4947      00
 4948              	.LASF165:
 4949 02c1 4F535F45 		.ascii	"OS_ERR_TLS_ISR\000"
ARM GAS  C:\Users\alex\AppData\Local\Temp\ccrAtNPo.s 			page 108


 4949      52525F54 
 4949      4C535F49 
 4949      535200
 4950              	.LASF85:
 4951 02d0 4F535F45 		.ascii	"OS_ERR_MUTEX_OWNER\000"
 4951      52525F4D 
 4951      55544558 
 4951      5F4F574E 
 4951      455200
 4952              	.LASF353:
 4953 02e3 483A5C42 		.ascii	"H:\\BCC722-RTOS-moinho\\UCoS\\Micrium_2\\Software\\"
 4953      43433732 
 4953      322D5254 
 4953      4F532D6D 
 4953      6F696E68 
 4954 0311 4576616C 		.ascii	"EvalBoards\\Cypress\\CY8CKIT-050\\PSoC\\uCOS-III-Pr"
 4954      426F6172 
 4954      64735C43 
 4954      79707265 
 4954      73735C43 
 4955 0340 6F62655C 		.ascii	"obe\\uCOS-III-Probe.cydsn\000"
 4955      75434F53 
 4955      2D494949 
 4955      2D50726F 
 4955      62652E63 
 4956              	.LASF248:
 4957 0359 52656754 		.ascii	"RegTbl\000"
 4957      626C00
 4958              	.LASF4:
 4959 0360 6C6F6E67 		.ascii	"long int\000"
 4959      20696E74 
 4959      00
 4960              	.LASF63:
 4961 0369 4F535F45 		.ascii	"OS_ERR_INT_Q_FULL\000"
 4961      52525F49 
 4961      4E545F51 
 4961      5F46554C 
 4961      4C00
 4962              	.LASF104:
 4963 037b 4F535F45 		.ascii	"OS_ERR_PEND_ISR\000"
 4963      52525F50 
 4963      454E445F 
 4963      49535200 
 4964              	.LASF125:
 4965 038b 4F535F45 		.ascii	"OS_ERR_SCHED_LOCKED\000"
 4965      52525F53 
 4965      43484544 
 4965      5F4C4F43 
 4965      4B454400 
 4966              	.LASF272:
 4967 039f 54434250 		.ascii	"TCBPtr\000"
 4967      747200
 4968              	.LASF204:
 4969 03a6 4F535F45 		.ascii	"OS_ERR\000"
 4969      525200
 4970              	.LASF339:
 4971 03ad 4170705F 		.ascii	"App_Task_Display_Stk\000"
ARM GAS  C:\Users\alex\AppData\Local\Temp\ccrAtNPo.s 			page 109


 4971      5461736B 
 4971      5F446973 
 4971      706C6179 
 4971      5F53746B 
 4972              	.LASF321:
 4973 03c2 73746174 		.ascii	"statusRearme\000"
 4973      75735265 
 4973      61726D65 
 4973      00
 4974              	.LASF157:
 4975 03cf 4F535F45 		.ascii	"OS_ERR_TASK_SUSPENDED\000"
 4975      52525F54 
 4975      41534B5F 
 4975      53555350 
 4975      454E4445 
 4976              	.LASF354:
 4977 03e5 6D61696E 		.ascii	"main\000"
 4977      00
 4978              	.LASF333:
 4979 03ea 4170705F 		.ascii	"App_Task_Emerg_Stk\000"
 4979      5461736B 
 4979      5F456D65 
 4979      72675F53 
 4979      746B00
 4980              	.LASF220:
 4981 03fd 6F735F74 		.ascii	"os_tcb\000"
 4981      636200
 4982              	.LASF53:
 4983 0404 4F535F45 		.ascii	"OS_ERR_FATAL_RETURN\000"
 4983      52525F46 
 4983      4154414C 
 4983      5F524554 
 4983      55524E00 
 4984              	.LASF25:
 4985 0418 4350555F 		.ascii	"CPU_TS\000"
 4985      545300
 4986              	.LASF261:
 4987 041f 53656D50 		.ascii	"SemPendTimeMax\000"
 4987      656E6454 
 4987      696D654D 
 4987      617800
 4988              	.LASF44:
 4989 042e 4F535F45 		.ascii	"OS_ERR_A\000"
 4989      52525F41 
 4989      00
 4990              	.LASF46:
 4991 0437 4F535F45 		.ascii	"OS_ERR_B\000"
 4991      52525F42 
 4991      00
 4992              	.LASF47:
 4993 0440 4F535F45 		.ascii	"OS_ERR_C\000"
 4993      52525F43 
 4993      00
 4994              	.LASF49:
 4995 0449 4F535F45 		.ascii	"OS_ERR_D\000"
 4995      52525F44 
 4995      00
ARM GAS  C:\Users\alex\AppData\Local\Temp\ccrAtNPo.s 			page 110


 4996              	.LASF51:
 4997 0452 4F535F45 		.ascii	"OS_ERR_E\000"
 4997      52525F45 
 4997      00
 4998              	.LASF52:
 4999 045b 4F535F45 		.ascii	"OS_ERR_F\000"
 4999      52525F46 
 4999      00
 5000              	.LASF58:
 5001 0464 4F535F45 		.ascii	"OS_ERR_G\000"
 5001      52525F47 
 5001      00
 5002              	.LASF59:
 5003 046d 4F535F45 		.ascii	"OS_ERR_H\000"
 5003      52525F48 
 5003      00
 5004              	.LASF60:
 5005 0476 4F535F45 		.ascii	"OS_ERR_I\000"
 5005      52525F49 
 5005      00
 5006              	.LASF0:
 5007 047f 7369676E 		.ascii	"signed char\000"
 5007      65642063 
 5007      68617200 
 5008              	.LASF68:
 5009 048b 4F535F45 		.ascii	"OS_ERR_K\000"
 5009      52525F4B 
 5009      00
 5010              	.LASF69:
 5011 0494 4F535F45 		.ascii	"OS_ERR_L\000"
 5011      52525F4C 
 5011      00
 5012              	.LASF71:
 5013 049d 4F535F45 		.ascii	"OS_ERR_M\000"
 5013      52525F4D 
 5013      00
 5014              	.LASF87:
 5015 04a6 4F535F45 		.ascii	"OS_ERR_N\000"
 5015      52525F4E 
 5015      00
 5016              	.LASF90:
 5017 04af 4F535F45 		.ascii	"OS_ERR_O\000"
 5017      52525F4F 
 5017      00
 5018              	.LASF98:
 5019 04b8 4F535F45 		.ascii	"OS_ERR_P\000"
 5019      52525F50 
 5019      00
 5020              	.LASF113:
 5021 04c1 4F535F45 		.ascii	"OS_ERR_Q\000"
 5021      52525F51 
 5021      00
 5022              	.LASF118:
 5023 04ca 4F535F45 		.ascii	"OS_ERR_R\000"
 5023      52525F52 
 5023      00
 5024              	.LASF122:
ARM GAS  C:\Users\alex\AppData\Local\Temp\ccrAtNPo.s 			page 111


 5025 04d3 4F535F45 		.ascii	"OS_ERR_S\000"
 5025      52525F53 
 5025      00
 5026              	.LASF139:
 5027 04dc 4F535F45 		.ascii	"OS_ERR_T\000"
 5027      52525F54 
 5027      00
 5028              	.LASF197:
 5029 04e5 4F535F45 		.ascii	"OS_ERR_U\000"
 5029      52525F55 
 5029      00
 5030              	.LASF198:
 5031 04ee 4F535F45 		.ascii	"OS_ERR_V\000"
 5031      52525F56 
 5031      00
 5032              	.LASF199:
 5033 04f7 4F535F45 		.ascii	"OS_ERR_W\000"
 5033      52525F57 
 5033      00
 5034              	.LASF200:
 5035 0500 4F535F45 		.ascii	"OS_ERR_X\000"
 5035      52525F58 
 5035      00
 5036              	.LASF201:
 5037 0509 4F535F45 		.ascii	"OS_ERR_Y\000"
 5037      52525F59 
 5037      00
 5038              	.LASF203:
 5039 0512 4F535F45 		.ascii	"OS_ERR_Z\000"
 5039      52525F5A 
 5039      00
 5040              	.LASF348:
 5041 051b 616C6572 		.ascii	"alerta\000"
 5041      746100
 5042              	.LASF182:
 5043 0522 4F535F45 		.ascii	"OS_ERR_TIME_ZERO_DLY\000"
 5043      52525F54 
 5043      494D455F 
 5043      5A45524F 
 5043      5F444C59 
 5044              	.LASF315:
 5045 0537 7062335F 		.ascii	"pb3_state_prev\000"
 5045      73746174 
 5045      655F7072 
 5045      657600
 5046              	.LASF108:
 5047 0546 4F535F45 		.ascii	"OS_ERR_POST_ISR\000"
 5047      52525F50 
 5047      4F53545F 
 5047      49535200 
 5048              	.LASF266:
 5049 0556 4462674E 		.ascii	"DbgNamePtr\000"
 5049      616D6550 
 5049      747200
 5050              	.LASF1:
 5051 0561 756E7369 		.ascii	"unsigned char\000"
 5051      676E6564 
ARM GAS  C:\Users\alex\AppData\Local\Temp\ccrAtNPo.s 			page 112


 5051      20636861 
 5051      7200
 5052              	.LASF249:
 5053 056f 466C6167 		.ascii	"FlagsPend\000"
 5053      7350656E 
 5053      6400
 5054              	.LASF55:
 5055 0579 4F535F45 		.ascii	"OS_ERR_FLAG_NOT_RDY\000"
 5055      52525F46 
 5055      4C41475F 
 5055      4E4F545F 
 5055      52445900 
 5056              	.LASF314:
 5057 058d 7062335F 		.ascii	"pb3_state_cur\000"
 5057      73746174 
 5057      655F6375 
 5057      7200
 5058              	.LASF258:
 5059 059b 4379636C 		.ascii	"CyclesTotal\000"
 5059      6573546F 
 5059      74616C00 
 5060              	.LASF171:
 5061 05a7 4F535F45 		.ascii	"OS_ERR_TICK_STK_SIZE_INVALID\000"
 5061      52525F54 
 5061      49434B5F 
 5061      53544B5F 
 5061      53495A45 
 5062              	.LASF264:
 5063 05c4 44626750 		.ascii	"DbgPrevPtr\000"
 5063      72657650 
 5063      747200
 5064              	.LASF310:
 5065 05cf 75736572 		.ascii	"user_if_state_cur\000"
 5065      5F69665F 
 5065      73746174 
 5065      655F6375 
 5065      7200
 5066              	.LASF221:
 5067 05e1 53746B50 		.ascii	"StkPtr\000"
 5067      747200
 5068              	.LASF151:
 5069 05e8 4F535F45 		.ascii	"OS_ERR_TASK_OPT\000"
 5069      52525F54 
 5069      41534B5F 
 5069      4F505400 
 5070              	.LASF134:
 5071 05f8 4F535F45 		.ascii	"OS_ERR_STATE_INVALID\000"
 5071      52525F53 
 5071      54415445 
 5071      5F494E56 
 5071      414C4944 
 5072              	.LASF40:
 5073 060d 4F535F53 		.ascii	"OS_STATE\000"
 5073      54415445 
 5073      00
 5074              	.LASF210:
 5075 0616 4F535F4D 		.ascii	"OS_MSG_Q\000"
ARM GAS  C:\Users\alex\AppData\Local\Temp\ccrAtNPo.s 			page 113


 5075      53475F51 
 5075      00
 5076              	.LASF286:
 5077 061f 75696E74 		.ascii	"uint8\000"
 5077      3800
 5078              	.LASF28:
 5079 0625 4F535F43 		.ascii	"OS_CYCLES\000"
 5079      59434C45 
 5079      5300
 5080              	.LASF34:
 5081 062f 4F535F4F 		.ascii	"OS_OBJ_TYPE\000"
 5081      424A5F54 
 5081      59504500 
 5082              	.LASF72:
 5083 063b 4F535F45 		.ascii	"OS_ERR_MEM_CREATE_ISR\000"
 5083      52525F4D 
 5083      454D5F43 
 5083      52454154 
 5083      455F4953 
 5084              	.LASF11:
 5085 0651 63686172 		.ascii	"char\000"
 5085      00
 5086              	.LASF311:
 5087 0656 75736572 		.ascii	"user_if_state_prev\000"
 5087      5F69665F 
 5087      73746174 
 5087      655F7072 
 5087      657600
 5088              	.LASF246:
 5089 0669 4D736751 		.ascii	"MsgQPendTime\000"
 5089      50656E64 
 5089      54696D65 
 5089      00
 5090              	.LASF75:
 5091 0676 4F535F45 		.ascii	"OS_ERR_MEM_INVALID_BLKS\000"
 5091      52525F4D 
 5091      454D5F49 
 5091      4E56414C 
 5091      49445F42 
 5092              	.LASF195:
 5093 068e 4F535F45 		.ascii	"OS_ERR_TMR_STK_SIZE_INVALID\000"
 5093      52525F54 
 5093      4D525F53 
 5093      544B5F53 
 5093      495A455F 
 5094              	.LASF242:
 5095 06aa 5469636B 		.ascii	"TickRemain\000"
 5095      52656D61 
 5095      696E00
 5096              	.LASF291:
 5097 06b5 62745F65 		.ascii	"bt_emerg_int_Handler\000"
 5097      6D657267 
 5097      5F696E74 
 5097      5F48616E 
 5097      646C6572 
 5098              	.LASF45:
 5099 06ca 4F535F45 		.ascii	"OS_ERR_ACCEPT_ISR\000"
ARM GAS  C:\Users\alex\AppData\Local\Temp\ccrAtNPo.s 			page 114


 5099      52525F41 
 5099      43434550 
 5099      545F4953 
 5099      5200
 5100              	.LASF209:
 5101 06dc 4D736754 		.ascii	"MsgTS\000"
 5101      5300
 5102              	.LASF232:
 5103 06e2 50656E64 		.ascii	"PendDataTblPtr\000"
 5103      44617461 
 5103      54626C50 
 5103      747200
 5104              	.LASF74:
 5105 06f1 4F535F45 		.ascii	"OS_ERR_MEM_INVALID_P_ADDR\000"
 5105      52525F4D 
 5105      454D5F49 
 5105      4E56414C 
 5105      49445F50 
 5106              	.LASF117:
 5107 070b 4F535F45 		.ascii	"OS_ERR_Q_SIZE\000"
 5107      52525F51 
 5107      5F53495A 
 5107      4500
 5108              	.LASF84:
 5109 0719 4F535F45 		.ascii	"OS_ERR_MUTEX_NOT_OWNER\000"
 5109      52525F4D 
 5109      55544558 
 5109      5F4E4F54 
 5109      5F4F574E 
 5110              	.LASF211:
 5111 0730 6F735F6D 		.ascii	"os_msg\000"
 5111      736700
 5112              	.LASF99:
 5113 0737 4F535F45 		.ascii	"OS_ERR_PEND_ABORT\000"
 5113      52525F50 
 5113      454E445F 
 5113      41424F52 
 5113      5400
 5114              	.LASF137:
 5115 0749 4F535F45 		.ascii	"OS_ERR_STK_SIZE_INVALID\000"
 5115      52525F53 
 5115      544B5F53 
 5115      495A455F 
 5115      494E5641 
 5116              	.LASF150:
 5117 0761 4F535F45 		.ascii	"OS_ERR_TASK_NOT_SUSPENDED\000"
 5117      52525F54 
 5117      41534B5F 
 5117      4E4F545F 
 5117      53555350 
 5118              	.LASF133:
 5119 077b 4F535F45 		.ascii	"OS_ERR_STAT_STK_SIZE_INVALID\000"
 5119      52525F53 
 5119      5441545F 
 5119      53544B5F 
 5119      53495A45 
 5120              	.LASF223:
ARM GAS  C:\Users\alex\AppData\Local\Temp\ccrAtNPo.s 			page 115


 5121 0798 53746B4C 		.ascii	"StkLimitPtr\000"
 5121      696D6974 
 5121      50747200 
 5122              	.LASF20:
 5123 07a4 4350555F 		.ascii	"CPU_INT32U\000"
 5123      494E5433 
 5123      325500
 5124              	.LASF174:
 5125 07af 4F535F45 		.ascii	"OS_ERR_TIME_DLY_RESUME_ISR\000"
 5125      52525F54 
 5125      494D455F 
 5125      444C595F 
 5125      52455355 
 5126              	.LASF188:
 5127 07ca 4F535F45 		.ascii	"OS_ERR_TMR_INVALID_STATE\000"
 5127      52525F54 
 5127      4D525F49 
 5127      4E56414C 
 5127      49445F53 
 5128              	.LASF168:
 5129 07e3 4F535F45 		.ascii	"OS_ERR_TLS_DESTRUCT_ASSIGNED\000"
 5129      52525F54 
 5129      4C535F44 
 5129      45535452 
 5129      5543545F 
 5130              	.LASF21:
 5131 0800 4350555F 		.ascii	"CPU_ADDR\000"
 5131      41444452 
 5131      00
 5132              	.LASF127:
 5133 0809 4F535F45 		.ascii	"OS_ERR_SCHED_UNLOCK_ISR\000"
 5133      52525F53 
 5133      43484544 
 5133      5F554E4C 
 5133      4F434B5F 
 5134              	.LASF303:
 5135 0821 62745F72 		.ascii	"bt_rearme_Read\000"
 5135      6561726D 
 5135      655F5265 
 5135      616400
 5136              	.LASF38:
 5137 0830 4F535F52 		.ascii	"OS_REG\000"
 5137      454700
 5138              	.LASF176:
 5139 0837 4F535F45 		.ascii	"OS_ERR_TIME_INVALID_HOURS\000"
 5139      52525F54 
 5139      494D455F 
 5139      494E5641 
 5139      4C49445F 
 5140              	.LASF65:
 5141 0851 4F535F45 		.ascii	"OS_ERR_INT_Q_STK_INVALID\000"
 5141      52525F49 
 5141      4E545F51 
 5141      5F53544B 
 5141      5F494E56 
 5142              	.LASF66:
 5143 086a 4F535F45 		.ascii	"OS_ERR_INT_Q_STK_SIZE_INVALID\000"
ARM GAS  C:\Users\alex\AppData\Local\Temp\ccrAtNPo.s 			page 116


 5143      52525F49 
 5143      4E545F51 
 5143      5F53544B 
 5143      5F53495A 
 5144              	.LASF160:
 5145 0888 4F535F45 		.ascii	"OS_ERR_TASK_SUSPEND_ISR\000"
 5145      52525F54 
 5145      41534B5F 
 5145      53555350 
 5145      454E445F 
 5146              	.LASF76:
 5147 08a0 4F535F45 		.ascii	"OS_ERR_MEM_INVALID_PART\000"
 5147      52525F4D 
 5147      454D5F49 
 5147      4E56414C 
 5147      49445F50 
 5148              	.LASF226:
 5149 08b8 5469636B 		.ascii	"TickPrevPtr\000"
 5149      50726576 
 5149      50747200 
 5150              	.LASF92:
 5151 08c4 4F535F45 		.ascii	"OS_ERR_OBJ_DEL\000"
 5151      52525F4F 
 5151      424A5F44 
 5151      454C00
 5152              	.LASF126:
 5153 08d3 4F535F45 		.ascii	"OS_ERR_SCHED_NOT_LOCKED\000"
 5153      52525F53 
 5153      43484544 
 5153      5F4E4F54 
 5153      5F4C4F43 
 5154              	.LASF24:
 5155 08eb 4350555F 		.ascii	"CPU_TS32\000"
 5155      54533332 
 5155      00
 5156              	.LASF27:
 5157 08f4 4F535F43 		.ascii	"OS_CTX_SW_CTR\000"
 5157      54585F53 
 5157      575F4354 
 5157      5200
 5158              	.LASF270:
 5159 0902 4F535F50 		.ascii	"OS_PEND_DATA\000"
 5159      454E445F 
 5159      44415441 
 5159      00
 5160              	.LASF178:
 5161 090f 4F535F45 		.ascii	"OS_ERR_TIME_INVALID_SECONDS\000"
 5161      52525F54 
 5161      494D455F 
 5161      494E5641 
 5161      4C49445F 
 5162              	.LASF285:
 5163 092b 50656E64 		.ascii	"PendList\000"
 5163      4C697374 
 5163      00
 5164              	.LASF183:
 5165 0934 4F535F45 		.ascii	"OS_ERR_TIMEOUT\000"
ARM GAS  C:\Users\alex\AppData\Local\Temp\ccrAtNPo.s 			page 117


 5165      52525F54 
 5165      494D454F 
 5165      555400
 5166              	.LASF89:
 5167 0943 4F535F45 		.ascii	"OS_ERR_NO_MORE_ID_AVAIL\000"
 5167      52525F4E 
 5167      4F5F4D4F 
 5167      52455F49 
 5167      445F4156 
 5168              	.LASF141:
 5169 095b 4F535F45 		.ascii	"OS_ERR_TASK_CREATE_ISR\000"
 5169      52525F54 
 5169      41534B5F 
 5169      43524541 
 5169      54455F49 
 5170              	.LASF185:
 5171 0972 4F535F45 		.ascii	"OS_ERR_TMR_INVALID_DEST\000"
 5171      52525F54 
 5171      4D525F49 
 5171      4E56414C 
 5171      49445F44 
 5172              	.LASF255:
 5173 098a 43747853 		.ascii	"CtxSwCtr\000"
 5173      77437472 
 5173      00
 5174              	.LASF192:
 5175 0993 4F535F45 		.ascii	"OS_ERR_TMR_NON_AVAIL\000"
 5175      52525F54 
 5175      4D525F4E 
 5175      4F4E5F41 
 5175      5641494C 
 5176              	.LASF317:
 5177 09a8 4170705F 		.ascii	"App_TaskUserIF\000"
 5177      5461736B 
 5177      55736572 
 5177      494600
 5178              	.LASF136:
 5179 09b7 4F535F45 		.ascii	"OS_ERR_STK_INVALID\000"
 5179      52525F53 
 5179      544B5F49 
 5179      4E56414C 
 5179      494400
 5180              	.LASF5:
 5181 09ca 6C6F6E67 		.ascii	"long unsigned int\000"
 5181      20756E73 
 5181      69676E65 
 5181      6420696E 
 5181      7400
 5182              	.LASF26:
 5183 09dc 4F535F43 		.ascii	"OS_CPU_USAGE\000"
 5183      50555F55 
 5183      53414745 
 5183      00
 5184              	.LASF152:
 5185 09e9 4F535F45 		.ascii	"OS_ERR_TASK_RESUME_ISR\000"
 5185      52525F54 
 5185      41534B5F 
ARM GAS  C:\Users\alex\AppData\Local\Temp\ccrAtNPo.s 			page 118


 5185      52455355 
 5185      4D455F49 
 5186              	.LASF148:
 5187 0a00 4F535F45 		.ascii	"OS_ERR_TASK_NOT_DLY\000"
 5187      52525F54 
 5187      41534B5F 
 5187      4E4F545F 
 5187      444C5900 
 5188              	.LASF48:
 5189 0a14 4F535F45 		.ascii	"OS_ERR_CREATE_ISR\000"
 5189      52525F43 
 5189      52454154 
 5189      455F4953 
 5189      5200
 5190              	.LASF282:
 5191 0a26 4F535F50 		.ascii	"OS_PEND_OBJ\000"
 5191      454E445F 
 5191      4F424A00 
 5192              	.LASF100:
 5193 0a32 4F535F45 		.ascii	"OS_ERR_PEND_ABORT_ISR\000"
 5193      52525F50 
 5193      454E445F 
 5193      41424F52 
 5193      545F4953 
 5194              	.LASF156:
 5195 0a48 4F535F45 		.ascii	"OS_ERR_TASK_STK_CHK_ISR\000"
 5195      52525F54 
 5195      41534B5F 
 5195      53544B5F 
 5195      43484B5F 
 5196              	.LASF166:
 5197 0a60 4F535F45 		.ascii	"OS_ERR_TLS_NO_MORE_AVAIL\000"
 5197      52525F54 
 5197      4C535F4E 
 5197      4F5F4D4F 
 5197      52455F41 
 5198              	.LASF177:
 5199 0a79 4F535F45 		.ascii	"OS_ERR_TIME_INVALID_MINUTES\000"
 5199      52525F54 
 5199      494D455F 
 5199      494E5641 
 5199      4C49445F 
 5200              	.LASF33:
 5201 0a95 4F535F4F 		.ascii	"OS_OBJ_QTY\000"
 5201      424A5F51 
 5201      545900
 5202              	.LASF295:
 5203 0aa0 62745F65 		.ascii	"bt_emerg_int_StartEx\000"
 5203      6D657267 
 5203      5F696E74 
 5203      5F537461 
 5203      72744578 
 5204              	.LASF288:
 5205 0ab5 73655F69 		.ascii	"se_indut_motor_Handler\000"
 5205      6E647574 
 5205      5F6D6F74 
 5205      6F725F48 
ARM GAS  C:\Users\alex\AppData\Local\Temp\ccrAtNPo.s 			page 119


 5205      616E646C 
 5206              	.LASF304:
 5207 0acc 4170705F 		.ascii	"App_Task_Emerg\000"
 5207      5461736B 
 5207      5F456D65 
 5207      726700
 5208              	.LASF347:
 5209 0adb 72656172 		.ascii	"rearme\000"
 5209      6D6500
 5210              	.LASF331:
 5211 0ae2 4170705F 		.ascii	"App_Task_Ihm_Stk\000"
 5211      5461736B 
 5211      5F49686D 
 5211      5F53746B 
 5211      00
 5212              	.LASF351:
 5213 0af3 474E5520 		.ascii	"GNU C11 5.4.1 20160609 (release) [ARM/embedded-5-br"
 5213      43313120 
 5213      352E342E 
 5213      31203230 
 5213      31363036 
 5214 0b26 616E6368 		.ascii	"anch revision 237715] -mcpu=cortex-m3 -mthumb -g -O"
 5214      20726576 
 5214      6973696F 
 5214      6E203233 
 5214      37373135 
 5215 0b59 30202D66 		.ascii	"0 -ffunction-sections -ffat-lto-objects\000"
 5215      66756E63 
 5215      74696F6E 
 5215      2D736563 
 5215      74696F6E 
 5216              	.LASF237:
 5217 0b81 53746B53 		.ascii	"StkSize\000"
 5217      697A6500 
 5218              	.LASF43:
 5219 0b89 4F535F45 		.ascii	"OS_ERR_NONE\000"
 5219      52525F4E 
 5219      4F4E4500 
 5220              	.LASF243:
 5221 0b95 54696D65 		.ascii	"TimeQuanta\000"
 5221      5175616E 
 5221      746100
 5222              	.LASF308:
 5223 0ba0 63745F6D 		.ascii	"ct_motor_Write\000"
 5223      6F746F72 
 5223      5F577269 
 5223      746500
 5224              	.LASF36:
 5225 0baf 4F535F50 		.ascii	"OS_PRIO\000"
 5225      52494F00 
 5226              	.LASF251:
 5227 0bb7 466C6167 		.ascii	"FlagsOpt\000"
 5227      734F7074 
 5227      00
 5228              	.LASF6:
 5229 0bc0 6C6F6E67 		.ascii	"long long int\000"
 5229      206C6F6E 
ARM GAS  C:\Users\alex\AppData\Local\Temp\ccrAtNPo.s 			page 120


 5229      6720696E 
 5229      7400
 5230              	.LASF42:
 5231 0bce 4F535F54 		.ascii	"OS_TICK\000"
 5231      49434B00 
 5232              	.LASF293:
 5233 0bd6 73655F69 		.ascii	"se_indut_porta_int_StartEx\000"
 5233      6E647574 
 5233      5F706F72 
 5233      74615F69 
 5233      6E745F53 
 5234              	.LASF352:
 5235 0bf1 2E2E5C61 		.ascii	"..\\app.c\000"
 5235      70702E63 
 5235      00
 5236              	.LASF102:
 5237 0bfa 4F535F45 		.ascii	"OS_ERR_PEND_ABORT_SELF\000"
 5237      52525F50 
 5237      454E445F 
 5237      41424F52 
 5237      545F5345 
 5238              	.LASF14:
 5239 0c11 646F7562 		.ascii	"double\000"
 5239      6C6500
 5240              	.LASF268:
 5241 0c18 6F735F74 		.ascii	"os_tick_spoke\000"
 5241      69636B5F 
 5241      73706F6B 
 5241      6500
 5242              	.LASF202:
 5243 0c26 4F535F45 		.ascii	"OS_ERR_YIELD_ISR\000"
 5243      52525F59 
 5243      49454C44 
 5243      5F495352 
 5243      00
 5244              	.LASF334:
 5245 0c37 4170705F 		.ascii	"App_Task_Sen_Mec_TCB\000"
 5245      5461736B 
 5245      5F53656E 
 5245      5F4D6563 
 5245      5F544342 
 5246              	.LASF145:
 5247 0c4c 4F535F45 		.ascii	"OS_ERR_TASK_DEL_ISR\000"
 5247      52525F54 
 5247      41534B5F 
 5247      44454C5F 
 5247      49535200 
 5248              	.LASF39:
 5249 0c60 4F535F53 		.ascii	"OS_SEM_CTR\000"
 5249      454D5F43 
 5249      545200
 5250              	.LASF289:
 5251 0c6b 73655F69 		.ascii	"se_indut_porta_ClearInterrupt\000"
 5251      6E647574 
 5251      5F706F72 
 5251      74615F43 
 5251      6C656172 
ARM GAS  C:\Users\alex\AppData\Local\Temp\ccrAtNPo.s 			page 121


 5252              	.LASF189:
 5253 0c89 4F535F45 		.ascii	"OS_ERR_TMR_INVALID\000"
 5253      52525F54 
 5253      4D525F49 
 5253      4E56414C 
 5253      494400
 5254              	.LASF260:
 5255 0c9c 53656D50 		.ascii	"SemPendTime\000"
 5255      656E6454 
 5255      696D6500 
 5256              	.LASF32:
 5257 0ca8 4F535F4E 		.ascii	"OS_NESTING_CTR\000"
 5257      45535449 
 5257      4E475F43 
 5257      545200
 5258              	.LASF131:
 5259 0cb7 4F535F45 		.ascii	"OS_ERR_STAT_PRIO_INVALID\000"
 5259      52525F53 
 5259      5441545F 
 5259      5052494F 
 5259      5F494E56 
 5260              	.LASF298:
 5261 0cd0 4170705F 		.ascii	"App_TaskCreate\000"
 5261      5461736B 
 5261      43726561 
 5261      746500
 5262              	.LASF15:
 5263 0cdf 666C6F61 		.ascii	"float\000"
 5263      7400
 5264              	.LASF300:
 5265 0ce5 705F6172 		.ascii	"p_arg\000"
 5265      6700
 5266              	.LASF138:
 5267 0ceb 4F535F45 		.ascii	"OS_ERR_STK_LIMIT_INVALID\000"
 5267      52525F53 
 5267      544B5F4C 
 5267      494D4954 
 5267      5F494E56 
 5268              	.LASF23:
 5269 0d04 4350555F 		.ascii	"CPU_STK_SIZE\000"
 5269      53544B5F 
 5269      53495A45 
 5269      00
 5270              	.LASF61:
 5271 0d11 4F535F45 		.ascii	"OS_ERR_ILLEGAL_CREATE_RUN_TIME\000"
 5271      52525F49 
 5271      4C4C4547 
 5271      414C5F43 
 5271      52454154 
 5272              	.LASF235:
 5273 0d30 5461736B 		.ascii	"TaskState\000"
 5273      53746174 
 5273      6500
 5274              	.LASF245:
 5275 0d3a 4D736751 		.ascii	"MsgQ\000"
 5275      00
 5276              	.LASF299:
ARM GAS  C:\Users\alex\AppData\Local\Temp\ccrAtNPo.s 			page 122


 5277 0d3f 4170705F 		.ascii	"App_Task_Ihm\000"
 5277      5461736B 
 5277      5F49686D 
 5277      00
 5278              	.LASF8:
 5279 0d4c 756E7369 		.ascii	"unsigned int\000"
 5279      676E6564 
 5279      20696E74 
 5279      00
 5280              	.LASF277:
 5281 0d59 52647954 		.ascii	"RdyTS\000"
 5281      5300
 5282              	.LASF186:
 5283 0d5f 4F535F45 		.ascii	"OS_ERR_TMR_INVALID_DLY\000"
 5283      52525F54 
 5283      4D525F49 
 5283      4E56414C 
 5283      49445F44 
 5284              	.LASF269:
 5285 0d76 46697273 		.ascii	"FirstPtr\000"
 5285      74507472 
 5285      00
 5286              	.LASF324:
 5287 0d7f 73695F65 		.ascii	"si_emerg_Write\000"
 5287      6D657267 
 5287      5F577269 
 5287      746500
 5288              	.LASF31:
 5289 0d8e 4F535F4D 		.ascii	"OS_MSG_SIZE\000"
 5289      53475F53 
 5289      495A4500 
 5290              	.LASF96:
 5291 0d9a 4F535F45 		.ascii	"OS_ERR_OS_NOT_RUNNING\000"
 5291      52525F4F 
 5291      535F4E4F 
 5291      545F5255 
 5291      4E4E494E 
 5292              	.LASF281:
 5293 0db0 5461696C 		.ascii	"TailPtr\000"
 5293      50747200 
 5294              	.LASF326:
 5295 0db8 4170705F 		.ascii	"App_TaskStartTCB\000"
 5295      5461736B 
 5295      53746172 
 5295      74544342 
 5295      00
 5296              	.LASF284:
 5297 0dc9 54797065 		.ascii	"Type\000"
 5297      00
 5298              	.LASF349:
 5299 0dce 74656D70 		.ascii	"tempM\000"
 5299      4D00
 5300              	.LASF350:
 5301 0dd4 74656D70 		.ascii	"tempQ\000"
 5301      5100
 5302              	.LASF107:
 5303 0dda 4F535F45 		.ascii	"OS_ERR_POST_NULL_PTR\000"
ARM GAS  C:\Users\alex\AppData\Local\Temp\ccrAtNPo.s 			page 123


 5303      52525F50 
 5303      4F53545F 
 5303      4E554C4C 
 5303      5F505452 
 5304              	.LASF123:
 5305 0def 4F535F45 		.ascii	"OS_ERR_SCHED_INVALID_TIME_SLICE\000"
 5305      52525F53 
 5305      43484544 
 5305      5F494E56 
 5305      414C4944 
 5306              	.LASF88:
 5307 0e0f 4F535F45 		.ascii	"OS_ERR_NAME\000"
 5307      52525F4E 
 5307      414D4500 
 5308              	.LASF222:
 5309 0e1b 45787450 		.ascii	"ExtPtr\000"
 5309      747200
 5310              	.LASF97:
 5311 0e22 4F535F45 		.ascii	"OS_ERR_OS_RUNNING\000"
 5311      52525F4F 
 5311      535F5255 
 5311      4E4E494E 
 5311      4700
 5312              	.LASF41:
 5313 0e34 4F535F53 		.ascii	"OS_STATUS\000"
 5313      54415455 
 5313      5300
 5314              	.LASF342:
 5315 0e3e 4F535469 		.ascii	"OSTickCtr\000"
 5315      636B4374 
 5315      7200
 5316              	.LASF276:
 5317 0e48 5264794D 		.ascii	"RdyMsgSize\000"
 5317      73675369 
 5317      7A6500
 5318              	.LASF241:
 5319 0e53 5469636B 		.ascii	"TickCtrMatch\000"
 5319      4374724D 
 5319      61746368 
 5319      00
 5320              	.LASF105:
 5321 0e60 4F535F45 		.ascii	"OS_ERR_PEND_LOCKED\000"
 5321      52525F50 
 5321      454E445F 
 5321      4C4F434B 
 5321      454400
 5322              	.LASF9:
 5323 0e73 6C6F6E67 		.ascii	"long double\000"
 5323      20646F75 
 5323      626C6500 
 5324              	.LASF257:
 5325 0e7f 4379636C 		.ascii	"CyclesStart\000"
 5325      65735374 
 5325      61727400 
 5326              	.LASF318:
 5327 0e8b 73746174 		.ascii	"statusMotor\000"
 5327      75734D6F 
ARM GAS  C:\Users\alex\AppData\Local\Temp\ccrAtNPo.s 			page 124


 5327      746F7200 
 5328              	.LASF129:
 5329 0e97 4F535F45 		.ascii	"OS_ERR_SET_ISR\000"
 5329      52525F53 
 5329      45545F49 
 5329      535200
 5330              	.LASF230:
 5331 0ea6 5461736B 		.ascii	"TaskEntryAddr\000"
 5331      456E7472 
 5331      79416464 
 5331      7200
 5332              	.LASF296:
 5333 0eb4 6F735F65 		.ascii	"os_err\000"
 5333      727200
 5334              	.LASF336:
 5335 0ebb 4170705F 		.ascii	"App_Task_Sen_Temp_TCB\000"
 5335      5461736B 
 5335      5F53656E 
 5335      5F54656D 
 5335      705F5443 
 5336              	.LASF280:
 5337 0ed1 48656164 		.ascii	"HeadPtr\000"
 5337      50747200 
 5338              	.LASF158:
 5339 0ed9 4F535F45 		.ascii	"OS_ERR_TASK_SUSPEND_IDLE\000"
 5339      52525F54 
 5339      41534B5F 
 5339      53555350 
 5339      454E445F 
 5340              	.LASF256:
 5341 0ef2 4379636C 		.ascii	"CyclesDelta\000"
 5341      65734465 
 5341      6C746100 
 5342              	.LASF142:
 5343 0efe 4F535F45 		.ascii	"OS_ERR_TASK_DEL\000"
 5343      52525F54 
 5343      41534B5F 
 5343      44454C00 
 5344              	.LASF283:
 5345 0f0e 6F735F70 		.ascii	"os_pend_obj\000"
 5345      656E645F 
 5345      6F626A00 
 5346              	.LASF149:
 5347 0f1a 4F535F45 		.ascii	"OS_ERR_TASK_NOT_EXIST\000"
 5347      52525F54 
 5347      41534B5F 
 5347      4E4F545F 
 5347      45584953 
 5348              	.LASF78:
 5349 0f30 4F535F45 		.ascii	"OS_ERR_MEM_INVALID_P_MEM\000"
 5349      52525F4D 
 5349      454D5F49 
 5349      4E56414C 
 5349      49445F50 
 5350              	.LASF217:
 5351 0f49 4E627245 		.ascii	"NbrEntriesMax\000"
 5351      6E747269 
ARM GAS  C:\Users\alex\AppData\Local\Temp\ccrAtNPo.s 			page 125


 5351      65734D61 
 5351      7800
 5352              	.LASF86:
 5353 0f57 4F535F45 		.ascii	"OS_ERR_MUTEX_NESTING\000"
 5353      52525F4D 
 5353      55544558 
 5353      5F4E4553 
 5353      54494E47 
 5354              	.LASF103:
 5355 0f6c 4F535F45 		.ascii	"OS_ERR_PEND_DEL\000"
 5355      52525F50 
 5355      454E445F 
 5355      44454C00 
 5356              	.LASF77:
 5357 0f7c 4F535F45 		.ascii	"OS_ERR_MEM_INVALID_P_BLK\000"
 5357      52525F4D 
 5357      454D5F49 
 5357      4E56414C 
 5357      49445F50 
 5358              	.LASF57:
 5359 0f95 4F535F45 		.ascii	"OS_ERR_FLUSH_ISR\000"
 5359      52525F46 
 5359      4C555348 
 5359      5F495352 
 5359      00
 5360              	.LASF274:
 5361 0fa6 5264794F 		.ascii	"RdyObjPtr\000"
 5361      626A5074 
 5361      7200
 5362              	.LASF114:
 5363 0fb0 4F535F45 		.ascii	"OS_ERR_Q_FULL\000"
 5363      52525F51 
 5363      5F46554C 
 5363      4C00
 5364              	.LASF7:
 5365 0fbe 6C6F6E67 		.ascii	"long long unsigned int\000"
 5365      206C6F6E 
 5365      6720756E 
 5365      7369676E 
 5365      65642069 
 5366              	.LASF154:
 5367 0fd5 4F535F45 		.ascii	"OS_ERR_TASK_RESUME_SELF\000"
 5367      52525F54 
 5367      41534B5F 
 5367      52455355 
 5367      4D455F53 
 5368              	.LASF191:
 5369 0fed 4F535F45 		.ascii	"OS_ERR_TMR_NO_CALLBACK\000"
 5369      52525F54 
 5369      4D525F4E 
 5369      4F5F4341 
 5369      4C4C4241 
 5370              	.LASF112:
 5371 1004 4F535F45 		.ascii	"OS_ERR_PTR_INVALID\000"
 5371      52525F50 
 5371      54525F49 
 5371      4E56414C 
ARM GAS  C:\Users\alex\AppData\Local\Temp\ccrAtNPo.s 			page 126


 5371      494400
 5372              	.LASF54:
 5373 1017 4F535F45 		.ascii	"OS_ERR_FLAG_GRP_DEPLETED\000"
 5373      52525F46 
 5373      4C41475F 
 5373      4752505F 
 5373      4445504C 
 5374              	.LASF153:
 5375 1030 4F535F45 		.ascii	"OS_ERR_TASK_RESUME_PRIO\000"
 5375      52525F54 
 5375      41534B5F 
 5375      52455355 
 5375      4D455F50 
 5376              	.LASF307:
 5377 1048 73695F61 		.ascii	"si_alerta_Write\000"
 5377      6C657274 
 5377      615F5772 
 5377      69746500 
 5378              	.LASF79:
 5379 1058 4F535F45 		.ascii	"OS_ERR_MEM_INVALID_P_DATA\000"
 5379      52525F4D 
 5379      454D5F49 
 5379      4E56414C 
 5379      49445F50 
 5380              	.LASF322:
 5381 1072 73695F72 		.ascii	"si_rearme_Write\000"
 5381      6561726D 
 5381      655F5772 
 5381      69746500 
 5382              	.LASF37:
 5383 1082 4F535F52 		.ascii	"OS_RATE_HZ\000"
 5383      4154455F 
 5383      485A00
 5384              	.LASF254:
 5385 108d 43505555 		.ascii	"CPUUsageMax\000"
 5385      73616765 
 5385      4D617800 
 5386              	.LASF301:
 5387 1099 62745F6C 		.ascii	"bt_liga_Read\000"
 5387      6967615F 
 5387      52656164 
 5387      00
 5388              	.LASF111:
 5389 10a6 4F535F45 		.ascii	"OS_ERR_PRIO_INVALID\000"
 5389      52525F50 
 5389      52494F5F 
 5389      494E5641 
 5389      4C494400 
 5390              	.LASF233:
 5391 10ba 50656E64 		.ascii	"PendOn\000"
 5391      4F6E00
 5392              	.LASF119:
 5393 10c1 4F535F45 		.ascii	"OS_ERR_REG_ID_INVALID\000"
 5393      52525F52 
 5393      45475F49 
 5393      445F494E 
 5393      56414C49 
ARM GAS  C:\Users\alex\AppData\Local\Temp\ccrAtNPo.s 			page 127


 5394              	.LASF338:
 5395 10d7 4170705F 		.ascii	"App_Task_Display_TCB\000"
 5395      5461736B 
 5395      5F446973 
 5395      706C6179 
 5395      5F544342 
 5396              	.LASF290:
 5397 10ec 73655F69 		.ascii	"se_indut_motor_ClearInterrupt\000"
 5397      6E647574 
 5397      5F6D6F74 
 5397      6F725F43 
 5397      6C656172 
 5398              	.LASF267:
 5399 110a 4F535F54 		.ascii	"OS_TICK_SPOKE\000"
 5399      49434B5F 
 5399      53504F4B 
 5399      4500
 5400              	.LASF80:
 5401 1118 4F535F45 		.ascii	"OS_ERR_MEM_INVALID_SIZE\000"
 5401      52525F4D 
 5401      454D5F49 
 5401      4E56414C 
 5401      49445F53 
 5402              	.LASF162:
 5403 1130 4F535F45 		.ascii	"OS_ERR_TASK_WAITING\000"
 5403      52525F54 
 5403      41534B5F 
 5403      57414954 
 5403      494E4700 
 5404              	.LASF144:
 5405 1144 4F535F45 		.ascii	"OS_ERR_TASK_DEL_INVALID\000"
 5405      52525F54 
 5405      41534B5F 
 5405      44454C5F 
 5405      494E5641 
 5406              	.LASF332:
 5407 115c 4170705F 		.ascii	"App_Task_Emerg_TCB\000"
 5407      5461736B 
 5407      5F456D65 
 5407      72675F54 
 5407      434200
 5408              	.LASF231:
 5409 116f 5461736B 		.ascii	"TaskEntryArg\000"
 5409      456E7472 
 5409      79417267 
 5409      00
 5410              	.LASF64:
 5411 117c 4F535F45 		.ascii	"OS_ERR_INT_Q_SIZE\000"
 5411      52525F49 
 5411      4E545F51 
 5411      5F53495A 
 5411      4500
 5412              	.LASF279:
 5413 118e 6F735F70 		.ascii	"os_pend_list\000"
 5413      656E645F 
 5413      6C697374 
 5413      00
ARM GAS  C:\Users\alex\AppData\Local\Temp\ccrAtNPo.s 			page 128


 5414              	.LASF341:
 5415 119b 4F535461 		.ascii	"OSTaskCtxSwCtr\000"
 5415      736B4374 
 5415      78537743 
 5415      747200
 5416              	.LASF325:
 5417 11aa 73746174 		.ascii	"statusAlerta\000"
 5417      7573416C 
 5417      65727461 
 5417      00
 5418              	.LASF343:
 5419 11b7 4F534366 		.ascii	"OSCfg_TickRate_Hz\000"
 5419      675F5469 
 5419      636B5261 
 5419      74655F48 
 5419      7A00
 5420              	.LASF309:
 5421 11c9 4170705F 		.ascii	"App_Task_Display\000"
 5421      5461736B 
 5421      5F446973 
 5421      706C6179 
 5421      00
 5422              	.LASF224:
 5423 11da 50726576 		.ascii	"PrevPtr\000"
 5423      50747200 
 5424              	.LASF227:
 5425 11e2 5469636B 		.ascii	"TickSpokePtr\000"
 5425      53706F6B 
 5425      65507472 
 5425      00
 5426              	.LASF135:
 5427 11ef 4F535F45 		.ascii	"OS_ERR_STATUS_INVALID\000"
 5427      52525F53 
 5427      54415455 
 5427      535F494E 
 5427      56414C49 
 5428              	.LASF313:
 5429 1205 7062325F 		.ascii	"pb2_state_prev\000"
 5429      73746174 
 5429      655F7072 
 5429      657600
 5430              	.LASF70:
 5431 1214 4F535F45 		.ascii	"OS_ERR_LOCK_NESTING_OVF\000"
 5431      52525F4C 
 5431      4F434B5F 
 5431      4E455354 
 5431      494E475F 
 5432              	.LASF159:
 5433 122c 4F535F45 		.ascii	"OS_ERR_TASK_SUSPEND_INT_HANDLER\000"
 5433      52525F54 
 5433      41534B5F 
 5433      53555350 
 5433      454E445F 
 5434              	.LASF179:
 5435 124c 4F535F45 		.ascii	"OS_ERR_TIME_INVALID_MILLISECONDS\000"
 5435      52525F54 
 5435      494D455F 
ARM GAS  C:\Users\alex\AppData\Local\Temp\ccrAtNPo.s 			page 129


 5435      494E5641 
 5435      4C49445F 
 5436              	.LASF205:
 5437 126d 4F535F4D 		.ascii	"OS_MSG\000"
 5437      534700
 5438              	.LASF320:
 5439 1274 73695F64 		.ascii	"si_desl_Write\000"
 5439      65736C5F 
 5439      57726974 
 5439      6500
 5440              	.LASF206:
 5441 1282 4E657874 		.ascii	"NextPtr\000"
 5441      50747200 
 5442              	.LASF273:
 5443 128a 50656E64 		.ascii	"PendObjPtr\000"
 5443      4F626A50 
 5443      747200
 5444              	.LASF29:
 5445 1295 4F535F46 		.ascii	"OS_FLAGS\000"
 5445      4C414753 
 5445      00
 5446              	.LASF213:
 5447 129e 496E5074 		.ascii	"InPtr\000"
 5447      7200
 5448              	.LASF262:
 5449 12a4 53746B55 		.ascii	"StkUsed\000"
 5449      73656400 
 5450              	.LASF2:
 5451 12ac 73686F72 		.ascii	"short int\000"
 5451      7420696E 
 5451      7400
 5452              	.LASF312:
 5453 12b6 7062325F 		.ascii	"pb2_state_cur\000"
 5453      73746174 
 5453      655F6375 
 5453      7200
 5454              	.LASF228:
 5455 12c4 4E616D65 		.ascii	"NamePtr\000"
 5455      50747200 
 5456              	.LASF50:
 5457 12cc 4F535F45 		.ascii	"OS_ERR_DEL_ISR\000"
 5457      52525F44 
 5457      454C5F49 
 5457      535200
 5458              	.LASF212:
 5459 12db 6F735F6D 		.ascii	"os_msg_q\000"
 5459      73675F71 
 5459      00
 5460              	.LASF345:
 5461 12e4 6D6F746F 		.ascii	"motor\000"
 5461      7200
 5462              	.LASF115:
 5463 12ea 4F535F45 		.ascii	"OS_ERR_Q_EMPTY\000"
 5463      52525F51 
 5463      5F454D50 
 5463      545900
 5464              	.LASF130:
ARM GAS  C:\Users\alex\AppData\Local\Temp\ccrAtNPo.s 			page 130


 5465 12f9 4F535F45 		.ascii	"OS_ERR_STAT_RESET_ISR\000"
 5465      52525F53 
 5465      5441545F 
 5465      52455345 
 5465      545F4953 
 5466              	.LASF146:
 5467 130f 4F535F45 		.ascii	"OS_ERR_TASK_INVALID\000"
 5467      52525F54 
 5467      41534B5F 
 5467      494E5641 
 5467      4C494400 
 5468              	.LASF214:
 5469 1323 4F757450 		.ascii	"OutPtr\000"
 5469      747200
 5470              	.LASF184:
 5471 132a 4F535F45 		.ascii	"OS_ERR_TMR_INACTIVE\000"
 5471      52525F54 
 5471      4D525F49 
 5471      4E414354 
 5471      49564500 
 5472              	.LASF216:
 5473 133e 4E627245 		.ascii	"NbrEntries\000"
 5473      6E747269 
 5473      657300
 5474              	.LASF109:
 5475 1349 4F535F45 		.ascii	"OS_ERR_PRIO_EXIST\000"
 5475      52525F50 
 5475      52494F5F 
 5475      45584953 
 5475      5400
 5476              	.LASF292:
 5477 135b 62745F65 		.ascii	"bt_emerg_ClearInterrupt\000"
 5477      6D657267 
 5477      5F436C65 
 5477      6172496E 
 5477      74657272 
 5478              	.LASF208:
 5479 1373 4D736753 		.ascii	"MsgSize\000"
 5479      697A6500 
 5480              	.LASF259:
 5481 137b 4379636C 		.ascii	"CyclesTotalPrev\000"
 5481      6573546F 
 5481      74616C50 
 5481      72657600 
 5482              	.LASF187:
 5483 138b 4F535F45 		.ascii	"OS_ERR_TMR_INVALID_PERIOD\000"
 5483      52525F54 
 5483      4D525F49 
 5483      4E56414C 
 5483      49445F50 
 5484              	.LASF344:
 5485 13a5 49544D5F 		.ascii	"ITM_RxBuffer\000"
 5485      52784275 
 5485      66666572 
 5485      00
 5486              	.LASF234:
 5487 13b2 50656E64 		.ascii	"PendStatus\000"
ARM GAS  C:\Users\alex\AppData\Local\Temp\ccrAtNPo.s 			page 131


 5487      53746174 
 5487      757300
 5488              	.LASF250:
 5489 13bd 466C6167 		.ascii	"FlagsRdy\000"
 5489      73526479 
 5489      00
 5490              	.LASF229:
 5491 13c6 53746B42 		.ascii	"StkBasePtr\000"
 5491      61736550 
 5491      747200
 5492              	.LASF316:
 5493 13d1 6C696E65 		.ascii	"line_str\000"
 5493      5F737472 
 5493      00
 5494              	.LASF265:
 5495 13da 4462674E 		.ascii	"DbgNextPtr\000"
 5495      65787450 
 5495      747200
 5496              	.LASF95:
 5497 13e5 4F535F45 		.ascii	"OS_ERR_OPT_INVALID\000"
 5497      52525F4F 
 5497      50545F49 
 5497      4E56414C 
 5497      494400
 5498              	.LASF56:
 5499 13f8 4F535F45 		.ascii	"OS_ERR_FLAG_PEND_OPT\000"
 5499      52525F46 
 5499      4C41475F 
 5499      50454E44 
 5499      5F4F5054 
 5500              	.LASF83:
 5501 140d 4F535F45 		.ascii	"OS_ERR_MSG_POOL_NULL_PTR\000"
 5501      52525F4D 
 5501      53475F50 
 5501      4F4F4C5F 
 5501      4E554C4C 
 5502              	.LASF218:
 5503 1426 4F535F54 		.ascii	"OS_TASK_PTR\000"
 5503      41534B5F 
 5503      50545200 
 5504              	.LASF330:
 5505 1432 4170705F 		.ascii	"App_Task_Ihm_TCB\000"
 5505      5461736B 
 5505      5F49686D 
 5505      5F544342 
 5505      00
 5506              	.LASF30:
 5507 1443 4F535F4D 		.ascii	"OS_MSG_QTY\000"
 5507      53475F51 
 5507      545900
 5508              	.LASF116:
 5509 144e 4F535F45 		.ascii	"OS_ERR_Q_MAX\000"
 5509      52525F51 
 5509      5F4D4158 
 5509      00
 5510              	.LASF18:
 5511 145b 4350555F 		.ascii	"CPU_INT08U\000"
ARM GAS  C:\Users\alex\AppData\Local\Temp\ccrAtNPo.s 			page 132


 5511      494E5430 
 5511      385500
 5512              	.LASF190:
 5513 1466 4F535F45 		.ascii	"OS_ERR_TMR_ISR\000"
 5513      52525F54 
 5513      4D525F49 
 5513      535200
 5514              	.LASF121:
 5515 1475 4F535F45 		.ascii	"OS_ERR_ROUND_ROBIN_DISABLED\000"
 5515      52525F52 
 5515      4F554E44 
 5515      5F524F42 
 5515      494E5F44 
 5516              	.LASF170:
 5517 1491 4F535F45 		.ascii	"OS_ERR_TICK_STK_INVALID\000"
 5517      52525F54 
 5517      49434B5F 
 5517      53544B5F 
 5517      494E5641 
 5518              	.LASF181:
 5519 14a9 4F535F45 		.ascii	"OS_ERR_TIME_SET_ISR\000"
 5519      52525F54 
 5519      494D455F 
 5519      5345545F 
 5519      49535200 
 5520              	.LASF93:
 5521 14bd 4F535F45 		.ascii	"OS_ERR_OBJ_PTR_NULL\000"
 5521      52525F4F 
 5521      424A5F50 
 5521      54525F4E 
 5521      554C4C00 
 5522              	.LASF172:
 5523 14d1 4F535F45 		.ascii	"OS_ERR_TICK_WHEEL_SIZE\000"
 5523      52525F54 
 5523      49434B5F 
 5523      57484545 
 5523      4C5F5349 
 5524              	.LASF173:
 5525 14e8 4F535F45 		.ascii	"OS_ERR_TIME_DLY_ISR\000"
 5525      52525F54 
 5525      494D455F 
 5525      444C595F 
 5525      49535200 
 5526              	.LASF161:
 5527 14fc 4F535F45 		.ascii	"OS_ERR_TASK_SUSPEND_PRIO\000"
 5527      52525F54 
 5527      41534B5F 
 5527      53555350 
 5527      454E445F 
 5528              	.LASF3:
 5529 1515 73686F72 		.ascii	"short unsigned int\000"
 5529      7420756E 
 5529      7369676E 
 5529      65642069 
 5529      6E7400
 5530              	.LASF305:
 5531 1528 62745F65 		.ascii	"bt_emerg_Read\000"
ARM GAS  C:\Users\alex\AppData\Local\Temp\ccrAtNPo.s 			page 133


 5531      6D657267 
 5531      5F526561 
 5531      6400
 5532              	.LASF167:
 5533 1536 4F535F45 		.ascii	"OS_ERR_TLS_NOT_EN\000"
 5533      52525F54 
 5533      4C535F4E 
 5533      4F545F45 
 5533      4E00
 5534              	.LASF143:
 5535 1548 4F535F45 		.ascii	"OS_ERR_TASK_DEL_IDLE\000"
 5535      52525F54 
 5535      41534B5F 
 5535      44454C5F 
 5535      49444C45 
 5536              	.LASF110:
 5537 155d 4F535F45 		.ascii	"OS_ERR_PRIO\000"
 5537      52525F50 
 5537      52494F00 
 5538              	.LASF62:
 5539 1569 4F535F45 		.ascii	"OS_ERR_INT_Q\000"
 5539      52525F49 
 5539      4E545F51 
 5539      00
 5540              	.LASF155:
 5541 1576 4F535F45 		.ascii	"OS_ERR_TASK_RUNNING\000"
 5541      52525F54 
 5541      41534B5F 
 5541      52554E4E 
 5541      494E4700 
 5542              	.LASF236:
 5543 158a 5072696F 		.ascii	"Prio\000"
 5543      00
 5544              	.LASF335:
 5545 158f 4170705F 		.ascii	"App_Task_Sen_Mec_Stk\000"
 5545      5461736B 
 5545      5F53656E 
 5545      5F4D6563 
 5545      5F53746B 
 5546              	.LASF328:
 5547 15a4 4170705F 		.ascii	"App_TaskUserIF_TCB\000"
 5547      5461736B 
 5547      55736572 
 5547      49465F54 
 5547      434200
 5548              	.LASF323:
 5549 15b7 73746174 		.ascii	"statusEmerg\000"
 5549      7573456D 
 5549      65726700 
 5550              	.LASF12:
 5551 15c3 5F5F696E 		.ascii	"__int32_t\000"
 5551      7433325F 
 5551      7400
 5552              	.LASF94:
 5553 15cd 4F535F45 		.ascii	"OS_ERR_OBJ_TYPE\000"
 5553      52525F4F 
 5553      424A5F54 
ARM GAS  C:\Users\alex\AppData\Local\Temp\ccrAtNPo.s 			page 134


 5553      59504500 
 5554              	.LASF239:
 5555 15dd 53656D43 		.ascii	"SemCtr\000"
 5555      747200
 5556              	.LASF140:
 5557 15e4 4F535F45 		.ascii	"OS_ERR_TASK_CHANGE_PRIO_ISR\000"
 5557      52525F54 
 5557      41534B5F 
 5557      4348414E 
 5557      47455F50 
 5558              	.LASF169:
 5559 1600 4F535F45 		.ascii	"OS_ERR_TICK_PRIO_INVALID\000"
 5559      52525F54 
 5559      49434B5F 
 5559      5052494F 
 5559      5F494E56 
 5560              	.LASF106:
 5561 1619 4F535F45 		.ascii	"OS_ERR_PEND_WOULD_BLOCK\000"
 5561      52525F50 
 5561      454E445F 
 5561      574F554C 
 5561      445F424C 
 5562              	.LASF247:
 5563 1631 4D736751 		.ascii	"MsgQPendTimeMax\000"
 5563      50656E64 
 5563      54696D65 
 5563      4D617800 
 5564              	.LASF294:
 5565 1641 73655F69 		.ascii	"se_indut_motor_int_StartEx\000"
 5565      6E647574 
 5565      5F6D6F74 
 5565      6F725F69 
 5565      6E745F53 
 5566              	.LASF275:
 5567 165c 5264794D 		.ascii	"RdyMsgPtr\000"
 5567      73675074 
 5567      7200
 5568              	.LASF175:
 5569 1666 4F535F45 		.ascii	"OS_ERR_TIME_GET_ISR\000"
 5569      52525F54 
 5569      494D455F 
 5569      4745545F 
 5569      49535200 
 5570              	.LASF124:
 5571 167a 4F535F45 		.ascii	"OS_ERR_SCHED_LOCK_ISR\000"
 5571      52525F53 
 5571      43484544 
 5571      5F4C4F43 
 5571      4B5F4953 
 5572              		.ident	"GCC: (GNU Tools for ARM Embedded Processors) 5.4.1 20160609 (release) [ARM/embedded-5-bran
