ARM GAS  C:\Users\alex\AppData\Local\Temp\ccrAtNPo.s 			page 1


   1              		.syntax unified
   2              		.cpu cortex-m3
   3              		.fpu softvfp
   4              		.eabi_attribute 20, 1
   5              		.eabi_attribute 21, 1
   6              		.eabi_attribute 23, 3
   7              		.eabi_attribute 24, 1
   8              		.eabi_attribute 25, 1
   9              		.eabi_attribute 26, 1
  10              		.eabi_attribute 30, 6
  11              		.eabi_attribute 34, 1
  12              		.eabi_attribute 18, 4
  13              		.thumb
  14              		.syntax unified
  15              		.file	"app.c"
  16              		.text
  17              	.Ltext0:
  18              		.cfi_sections	.debug_frame
  19              		.bss
  20              		.align	2
  21              	App_TaskStartTCB:
  22 0000 00000000 		.space	192
  22      00000000 
  22      00000000 
  22      00000000 
  22      00000000 
  23              		.align	2
  24              	App_TaskStartStk:
  25 00c0 00000000 		.space	512
  25      00000000 
  25      00000000 
  25      00000000 
  25      00000000 
  26              		.align	2
  27              	App_TaskUserIF_TCB:
  28 02c0 00000000 		.space	192
  28      00000000 
  28      00000000 
  28      00000000 
  28      00000000 
  29              		.align	2
  30              	App_TaskUserIFStk:
  31 0380 00000000 		.space	512
  31      00000000 
  31      00000000 
  31      00000000 
  31      00000000 
  32              		.align	2
  33              	App_Task_Ihm_TCB:
  34 0580 00000000 		.space	192
  34      00000000 
  34      00000000 
  34      00000000 
  34      00000000 
  35              		.align	2
  36              	App_Task_Ihm_Stk:
  37 0640 00000000 		.space	512
ARM GAS  C:\Users\alex\AppData\Local\Temp\ccrAtNPo.s 			page 2


  37      00000000 
  37      00000000 
  37      00000000 
  37      00000000 
  38              		.align	2
  39              	App_Task_Emerg_TCB:
  40 0840 00000000 		.space	192
  40      00000000 
  40      00000000 
  40      00000000 
  40      00000000 
  41              		.align	2
  42              	App_Task_Emerg_Stk:
  43 0900 00000000 		.space	512
  43      00000000 
  43      00000000 
  43      00000000 
  43      00000000 
  44              		.align	2
  45              	App_Task_Sen_Mec_TCB:
  46 0b00 00000000 		.space	192
  46      00000000 
  46      00000000 
  46      00000000 
  46      00000000 
  47              		.align	2
  48              	App_Task_Sen_Mec_Stk:
  49 0bc0 00000000 		.space	512
  49      00000000 
  49      00000000 
  49      00000000 
  49      00000000 
  50              		.align	2
  51              	App_Task_Sen_Temp_TCB:
  52 0dc0 00000000 		.space	192
  52      00000000 
  52      00000000 
  52      00000000 
  52      00000000 
  53              		.align	2
  54              	App_Task_Sen_Temp_Stk:
  55 0e80 00000000 		.space	512
  55      00000000 
  55      00000000 
  55      00000000 
  55      00000000 
  56              		.align	2
  57              	App_Task_Display_TCB:
  58 1080 00000000 		.space	192
  58      00000000 
  58      00000000 
  58      00000000 
  58      00000000 
  59              		.align	2
  60              	App_Task_Display_Stk:
  61 1140 00000000 		.space	512
  61      00000000 
ARM GAS  C:\Users\alex\AppData\Local\Temp\ccrAtNPo.s 			page 3


  61      00000000 
  61      00000000 
  61      00000000 
  62              		.global	motor
  63              		.type	motor, %object
  64              		.size	motor, 1
  65              	motor:
  66 1340 00       		.space	1
  67              		.global	emerg
  68              		.type	emerg, %object
  69              		.size	emerg, 1
  70              	emerg:
  71 1341 00       		.space	1
  72              		.global	rearme
  73              		.data
  74              		.type	rearme, %object
  75              		.size	rearme, 1
  76              	rearme:
  77 0000 01       		.byte	1
  78              		.global	alerta
  79              		.bss
  80              		.type	alerta, %object
  81              		.size	alerta, 1
  82              	alerta:
  83 1342 00       		.space	1
  84              		.global	tempM
  85 1343 00       		.align	2
  86              		.type	tempM, %object
  87              		.size	tempM, 4
  88              	tempM:
  89 1344 00000000 		.space	4
  90              		.global	tempQ
  91              		.align	2
  92              		.type	tempQ, %object
  93              		.size	tempQ, 4
  94              	tempQ:
  95 1348 00000000 		.space	4
  96              		.section	.text.se_indut_porta_Handler,"ax",%progbits
  97              		.align	2
  98              		.global	se_indut_porta_Handler
  99              		.thumb
 100              		.thumb_func
 101              		.type	se_indut_porta_Handler, %function
 102              	se_indut_porta_Handler:
 103              	.LFB64:
 104              		.file 1 "..\\app.c"
   1:..\app.c      **** /*
   2:..\app.c      **** ***************************************************************************************************
   3:..\app.c      **** *                                              EXAMPLE CODE
   4:..\app.c      **** *
   5:..\app.c      **** *                             (c) Copyright 2012; Micrium, Inc.; Weston, FL
   6:..\app.c      **** *
   7:..\app.c      **** *               All rights reserved.  Protected by international copyright laws.
   8:..\app.c      **** *               Knowledge of the source code may NOT be used to develop a similar product.
   9:..\app.c      **** *               Please help us continue to provide the Embedded community with the finest
  10:..\app.c      **** *               software available.  Your honesty is greatly appreciated.
  11:..\app.c      **** ***************************************************************************************************
ARM GAS  C:\Users\alex\AppData\Local\Temp\ccrAtNPo.s 			page 4


  12:..\app.c      **** */
  13:..\app.c      **** 
  14:..\app.c      **** /*
  15:..\app.c      **** ***************************************************************************************************
  16:..\app.c      **** *
  17:..\app.c      **** *                                           EXAMPLE CODE
  18:..\app.c      **** *
  19:..\app.c      **** *                                           CYPRESS PSoC5
  20:..\app.c      **** *                                              with the
  21:..\app.c      **** *                                     CY8CKIT-050 Development Kit
  22:..\app.c      **** *
  23:..\app.c      **** * Filename      : app.c
  24:..\app.c      **** * Version       : V1.00
  25:..\app.c      **** * Programmer(s) : DC
  26:..\app.c      ****                   
  27:..\app.c      **** ***************************************************************************************************
  28:..\app.c      **** */
  29:..\app.c      **** 
  30:..\app.c      **** /*
  31:..\app.c      **** ***************************************************************************************************
  32:..\app.c      **** *                                             INCLUDE FILES
  33:..\app.c      **** ***************************************************************************************************
  34:..\app.c      **** */
  35:..\app.c      **** 
  36:..\app.c      **** #include <includes.h>
  37:..\app.c      **** #include <project.h>                /* incluindo api do psoc */
  38:..\app.c      **** //#include <math.h>                   // biblioteca matematica padrao do C - para calc de temperatu
  39:..\app.c      **** 
  40:..\app.c      **** //////////////// comentario teste - apagar
  41:..\app.c      **** //////////////// outro comentario de teste
  42:..\app.c      **** /*
  43:..\app.c      **** ***************************************************************************************************
  44:..\app.c      **** *                                             LOCAL DEFINES
  45:..\app.c      **** ***************************************************************************************************
  46:..\app.c      **** */
  47:..\app.c      **** 
  48:..\app.c      **** #define  APP_USER_IF_SIGN_ON                        0u
  49:..\app.c      **** #define  APP_USER_IF_VER_TICK_RATE                  1u
  50:..\app.c      **** #define  APP_USER_IF_CPU                            2u
  51:..\app.c      **** #define  APP_USER_IF_CTXSW                          3u
  52:..\app.c      **** #define  APP_USER_IF_STATE_MAX                      4u
  53:..\app.c      **** 
  54:..\app.c      **** #define LIGA 1
  55:..\app.c      **** #define DESL 0
  56:..\app.c      **** 
  57:..\app.c      **** #define DEBOUNCE    100u                               // tempo de debounce para botoes
  58:..\app.c      **** #define NTC_B       4275.0                              // constante B do termistor
  59:..\app.c      **** #define NTC_R0      100000.0                            // R0 = 100k kit grove
  60:..\app.c      **** 
  61:..\app.c      **** 
  62:..\app.c      **** /*
  63:..\app.c      **** ***************************************************************************************************
  64:..\app.c      **** *                                            LOCAL VARIABLES
  65:..\app.c      **** ***************************************************************************************************
  66:..\app.c      **** */
  67:..\app.c      **** 
  68:..\app.c      **** static  OS_TCB      App_TaskStartTCB;
ARM GAS  C:\Users\alex\AppData\Local\Temp\ccrAtNPo.s 			page 5


  69:..\app.c      **** static  CPU_STK     App_TaskStartStk[APP_CFG_TASK_START_STK_SIZE];
  70:..\app.c      **** 
  71:..\app.c      **** static  OS_TCB      App_TaskUserIF_TCB;
  72:..\app.c      **** static  CPU_STK     App_TaskUserIFStk[APP_CFG_TASK_USER_IF_STK_SIZE];
  73:..\app.c      **** 
  74:..\app.c      ****                                                                         // criando as estruras do T
  75:..\app.c      **** static  OS_TCB      App_Task_Ihm_TCB;
  76:..\app.c      **** static  CPU_STK     App_Task_Ihm_Stk[APP_CFG_TASK_IHM_STK_SIZE];
  77:..\app.c      **** 
  78:..\app.c      ****                                                                         // criando as estruras do T
  79:..\app.c      **** static  OS_TCB      App_Task_Emerg_TCB;
  80:..\app.c      **** static  CPU_STK     App_Task_Emerg_Stk[APP_CFG_TASK_EMERG_STK_SIZE];
  81:..\app.c      **** 
  82:..\app.c      ****                                                                         // criando as estruras do T
  83:..\app.c      **** static  OS_TCB      App_Task_Sen_Mec_TCB;
  84:..\app.c      **** static  CPU_STK     App_Task_Sen_Mec_Stk[APP_CFG_TASK_SEN_MEC_STK_SIZE];
  85:..\app.c      **** 
  86:..\app.c      ****                                                                         // criando as estruras do T
  87:..\app.c      **** static  OS_TCB      App_Task_Sen_Temp_TCB;
  88:..\app.c      **** static  CPU_STK     App_Task_Sen_Temp_Stk[APP_CFG_TASK_SEN_TEMP_STK_SIZE];
  89:..\app.c      **** 
  90:..\app.c      ****                                                                         // criando as estruras do T
  91:..\app.c      **** static  OS_TCB      App_Task_Display_TCB;
  92:..\app.c      **** static  CPU_STK     App_Task_Display_Stk[APP_CFG_TASK_DISPLAY_STK_SIZE];
  93:..\app.c      **** 
  94:..\app.c      **** 
  95:..\app.c      ****         CPU_INT08U  motor   = 0,                                        // estado do motor - 1: lig
  96:..\app.c      ****                     emerg   = 0,                                        // var. para monitorar esta
  97:..\app.c      ****                     rearme  = 1,                                        // var. para monitorar esta
  98:..\app.c      ****                     alerta  = 0;                                        // var. para monitorar esta
  99:..\app.c      ****                     
 100:..\app.c      **** 
 101:..\app.c      ****         float       tempM = 0,                                          // var. para temperatura do
 102:..\app.c      ****                     tempQ = 0;                                          // var. para temperatura do
 103:..\app.c      **** 
 104:..\app.c      **** /*
 105:..\app.c      **** ***************************************************************************************************
 106:..\app.c      **** *                                         FUNCTION PROTOTYPES
 107:..\app.c      **** ***************************************************************************************************
 108:..\app.c      **** */
 109:..\app.c      **** 
 110:..\app.c      **** static  void  App_TaskStart  (void *p_arg);
 111:..\app.c      **** 
 112:..\app.c      **** static  void  App_TaskUserIF (void *p_arg);
 113:..\app.c      **** 
 114:..\app.c      **** static  void  App_TaskCreate (void);
 115:..\app.c      **** static  void  App_ObjCreate  (void);
 116:..\app.c      **** 
 117:..\app.c      **** static  void  App_Task_Ihm      (void *p_arg);             /* prototipo da funcao que define a task
 118:..\app.c      **** static  void  App_Task_Emerg    (void *p_arg);             /* prototipo da funcao que define a task
 119:..\app.c      **** static  void  App_Task_Sen_Mec  (void *p_arg);             /* prototipo da funcao que define a task
 120:..\app.c      **** static  void  App_Task_Sen_Temp (void *p_arg);             /* prototipo da funcao que define a task
 121:..\app.c      **** static  void  App_Task_Display  (void *p_arg);             /* prototipo da funcao que define a task
 122:..\app.c      **** 
 123:..\app.c      ****         void  statusMotor    (CPU_INT08U op);
 124:..\app.c      ****         void  statusRearme   (CPU_INT08U op);
 125:..\app.c      ****         void  statusEmerg    (CPU_INT08U op);
ARM GAS  C:\Users\alex\AppData\Local\Temp\ccrAtNPo.s 			page 6


 126:..\app.c      ****         void  statusAlerta   (CPU_INT08U op);
 127:..\app.c      **** 
 128:..\app.c      ****         
 129:..\app.c      **** /*
 130:..\app.c      **** ***************************************************************************************************
 131:..\app.c      **** *                                         ISR HANDLERS
 132:..\app.c      **** ***************************************************************************************************
 133:..\app.c      **** */
 134:..\app.c      **** 
 135:..\app.c      **** CY_ISR(se_indut_porta_Handler){                     // implementando rotina de tratamento de interr
 105              		.loc 1 135 0
 106              		.cfi_startproc
 107              		@ args = 0, pretend = 0, frame = 0
 108              		@ frame_needed = 1, uses_anonymous_args = 0
 109 0000 80B5     		push	{r7, lr}
 110              		.cfi_def_cfa_offset 8
 111              		.cfi_offset 7, -8
 112              		.cfi_offset 14, -4
 113 0002 00AF     		add	r7, sp, #0
 114              		.cfi_def_cfa_register 7
 136:..\app.c      ****     
 137:..\app.c      ****      // tratando debounce do botão
 138:..\app.c      ****     OSTimeDly(DEBOUNCE,OS_ERR_TIME_DLY_ISR, NULL);
 115              		.loc 1 138 0
 116 0004 0022     		movs	r2, #0
 117 0006 47F27521 		movw	r1, #29301
 118 000a 6420     		movs	r0, #100
 119 000c FFF7FEFF 		bl	OSTimeDly
 139:..\app.c      ****     
 140:..\app.c      ****                                                     // trata sens. indut da protecao mec. da porta
 141:..\app.c      ****     statusMotor(DESL);
 120              		.loc 1 141 0
 121 0010 0020     		movs	r0, #0
 122 0012 FFF7FEFF 		bl	statusMotor
 142:..\app.c      ****     statusRearme(LIGA);
 123              		.loc 1 142 0
 124 0016 0120     		movs	r0, #1
 125 0018 FFF7FEFF 		bl	statusRearme
 143:..\app.c      ****     statusAlerta(LIGA);
 126              		.loc 1 143 0
 127 001c 0120     		movs	r0, #1
 128 001e FFF7FEFF 		bl	statusAlerta
 144:..\app.c      ****         
 145:..\app.c      ****     se_indut_porta_ClearInterrupt();                // limpa flag de interrupçao
 129              		.loc 1 145 0
 130 0022 FFF7FEFF 		bl	se_indut_porta_ClearInterrupt
 146:..\app.c      ****     
 147:..\app.c      ****     
 148:..\app.c      **** }
 131              		.loc 1 148 0
 132 0026 00BF     		nop
 133 0028 80BD     		pop	{r7, pc}
 134              		.cfi_endproc
 135              	.LFE64:
 136              		.size	se_indut_porta_Handler, .-se_indut_porta_Handler
 137 002a 00BF     		.section	.text.se_indut_motor_Handler,"ax",%progbits
 138              		.align	2
ARM GAS  C:\Users\alex\AppData\Local\Temp\ccrAtNPo.s 			page 7


 139              		.global	se_indut_motor_Handler
 140              		.thumb
 141              		.thumb_func
 142              		.type	se_indut_motor_Handler, %function
 143              	se_indut_motor_Handler:
 144              	.LFB65:
 149:..\app.c      **** 
 150:..\app.c      **** CY_ISR(se_indut_motor_Handler){                     // implementando rotina de tratamento de interr
 145              		.loc 1 150 0
 146              		.cfi_startproc
 147              		@ args = 0, pretend = 0, frame = 0
 148              		@ frame_needed = 1, uses_anonymous_args = 0
 149 0000 80B5     		push	{r7, lr}
 150              		.cfi_def_cfa_offset 8
 151              		.cfi_offset 7, -8
 152              		.cfi_offset 14, -4
 153 0002 00AF     		add	r7, sp, #0
 154              		.cfi_def_cfa_register 7
 151:..\app.c      ****   
 152:..\app.c      ****     // tratando debounce do botão
 153:..\app.c      ****     OSTimeDly(DEBOUNCE,OS_ERR_TIME_DLY_ISR, NULL);
 155              		.loc 1 153 0
 156 0004 0022     		movs	r2, #0
 157 0006 47F27521 		movw	r1, #29301
 158 000a 6420     		movs	r0, #100
 159 000c FFF7FEFF 		bl	OSTimeDly
 154:..\app.c      ****     
 155:..\app.c      ****                                                     // trata sens. indut da protecao mec. do motor
 156:..\app.c      ****     statusMotor(DESL);
 160              		.loc 1 156 0
 161 0010 0020     		movs	r0, #0
 162 0012 FFF7FEFF 		bl	statusMotor
 157:..\app.c      ****     statusRearme(LIGA);
 163              		.loc 1 157 0
 164 0016 0120     		movs	r0, #1
 165 0018 FFF7FEFF 		bl	statusRearme
 158:..\app.c      ****     statusAlerta(LIGA);
 166              		.loc 1 158 0
 167 001c 0120     		movs	r0, #1
 168 001e FFF7FEFF 		bl	statusAlerta
 159:..\app.c      ****     
 160:..\app.c      ****     se_indut_motor_ClearInterrupt();                // limpa flag de interrupçao
 169              		.loc 1 160 0
 170 0022 FFF7FEFF 		bl	se_indut_motor_ClearInterrupt
 161:..\app.c      ****     
 162:..\app.c      **** }
 171              		.loc 1 162 0
 172 0026 00BF     		nop
 173 0028 80BD     		pop	{r7, pc}
 174              		.cfi_endproc
 175              	.LFE65:
 176              		.size	se_indut_motor_Handler, .-se_indut_motor_Handler
 177 002a 00BF     		.section	.text.bt_emerg_int_Handler,"ax",%progbits
 178              		.align	2
 179              		.global	bt_emerg_int_Handler
 180              		.thumb
 181              		.thumb_func
ARM GAS  C:\Users\alex\AppData\Local\Temp\ccrAtNPo.s 			page 8


 182              		.type	bt_emerg_int_Handler, %function
 183              	bt_emerg_int_Handler:
 184              	.LFB66:
 163:..\app.c      **** 
 164:..\app.c      **** CY_ISR(bt_emerg_int_Handler){                       // implementando rotina de tratamento de interr
 185              		.loc 1 164 0
 186              		.cfi_startproc
 187              		@ args = 0, pretend = 0, frame = 0
 188              		@ frame_needed = 1, uses_anonymous_args = 0
 189 0000 80B5     		push	{r7, lr}
 190              		.cfi_def_cfa_offset 8
 191              		.cfi_offset 7, -8
 192              		.cfi_offset 14, -4
 193 0002 00AF     		add	r7, sp, #0
 194              		.cfi_def_cfa_register 7
 165:..\app.c      ****     
 166:..\app.c      ****     
 167:..\app.c      ****                                                     // tratando debounce do botão
 168:..\app.c      ****     OSTimeDly(200,OS_ERR_TIME_DLY_ISR, NULL);
 195              		.loc 1 168 0
 196 0004 0022     		movs	r2, #0
 197 0006 47F27521 		movw	r1, #29301
 198 000a C820     		movs	r0, #200
 199 000c FFF7FEFF 		bl	OSTimeDly
 169:..\app.c      ****     statusMotor(DESL);
 200              		.loc 1 169 0
 201 0010 0020     		movs	r0, #0
 202 0012 FFF7FEFF 		bl	statusMotor
 170:..\app.c      ****     statusRearme(LIGA);
 203              		.loc 1 170 0
 204 0016 0120     		movs	r0, #1
 205 0018 FFF7FEFF 		bl	statusRearme
 171:..\app.c      ****     statusEmerg(LIGA);
 206              		.loc 1 171 0
 207 001c 0120     		movs	r0, #1
 208 001e FFF7FEFF 		bl	statusEmerg
 172:..\app.c      **** 
 173:..\app.c      ****     bt_emerg_ClearInterrupt();                      // limpa flag de interrupçao
 209              		.loc 1 173 0
 210 0022 FFF7FEFF 		bl	bt_emerg_ClearInterrupt
 174:..\app.c      ****     
 175:..\app.c      **** }
 211              		.loc 1 175 0
 212 0026 00BF     		nop
 213 0028 80BD     		pop	{r7, pc}
 214              		.cfi_endproc
 215              	.LFE66:
 216              		.size	bt_emerg_int_Handler, .-bt_emerg_int_Handler
 217 002a 00BF     		.section	.rodata
 218              		.align	2
 219              	.LC0:
 220 0000 53746172 		.ascii	"Start\000"
 220      7400
 221              		.section	.text.main,"ax",%progbits
 222              		.align	2
 223              		.global	main
 224              		.thumb
ARM GAS  C:\Users\alex\AppData\Local\Temp\ccrAtNPo.s 			page 9


 225              		.thumb_func
 226              		.type	main, %function
 227              	main:
 228              	.LFB67:
 176:..\app.c      **** 
 177:..\app.c      ****  
 178:..\app.c      **** 
 179:..\app.c      **** /*
 180:..\app.c      **** ***************************************************************************************************
 181:..\app.c      **** *                                                main()
 182:..\app.c      **** *
 183:..\app.c      **** * Description : This is the standard entry point for C code.  It is assumed that your code will cal
 184:..\app.c      **** *               main() once you have performed all necessary initialization.
 185:..\app.c      **** *
 186:..\app.c      **** * Argument(s) : none
 187:..\app.c      **** *
 188:..\app.c      **** * Return(s)   : none
 189:..\app.c      **** *
 190:..\app.c      **** * Caller(s)   : Startup Code.
 191:..\app.c      **** *
 192:..\app.c      **** * Note(s)     : none.
 193:..\app.c      **** ***************************************************************************************************
 194:..\app.c      **** */
 195:..\app.c      **** 
 196:..\app.c      **** int  main (void)
 197:..\app.c      **** {
 229              		.loc 1 197 0
 230              		.cfi_startproc
 231              		@ args = 0, pretend = 0, frame = 8
 232              		@ frame_needed = 1, uses_anonymous_args = 0
 233 0000 80B5     		push	{r7, lr}
 234              		.cfi_def_cfa_offset 8
 235              		.cfi_offset 7, -8
 236              		.cfi_offset 14, -4
 237 0002 8CB0     		sub	sp, sp, #48
 238              		.cfi_def_cfa_offset 56
 239 0004 0AAF     		add	r7, sp, #40
 240              		.cfi_def_cfa 7, 16
 198:..\app.c      ****     
 199:..\app.c      **** 
 200:..\app.c      ****     se_indut_porta_int_StartEx(se_indut_porta_Handler);         // habilita ISR do pino
 241              		.loc 1 200 0
 242 0006 1948     		ldr	r0, .L6
 243 0008 FFF7FEFF 		bl	se_indut_porta_int_StartEx
 201:..\app.c      ****     se_indut_motor_int_StartEx(se_indut_motor_Handler);         // habilita ISR do pino
 244              		.loc 1 201 0
 245 000c 1848     		ldr	r0, .L6+4
 246 000e FFF7FEFF 		bl	se_indut_motor_int_StartEx
 202:..\app.c      ****     bt_emerg_int_StartEx(bt_emerg_int_Handler);                 // habilita ISR do pino
 247              		.loc 1 202 0
 248 0012 1848     		ldr	r0, .L6+8
 249 0014 FFF7FEFF 		bl	bt_emerg_int_StartEx
 203:..\app.c      ****     
 204:..\app.c      ****     OS_ERR  os_err;
 205:..\app.c      **** 
 206:..\app.c      **** 
 207:..\app.c      ****     BSP_PreInit();                                              /* Perform BSP pre-initialization. 
ARM GAS  C:\Users\alex\AppData\Local\Temp\ccrAtNPo.s 			page 10


 250              		.loc 1 207 0
 251 0018 FFF7FEFF 		bl	BSP_PreInit
 208:..\app.c      **** 
 209:..\app.c      ****     CPU_Init();                                                 /* Initialize the uC/CPU services  
 252              		.loc 1 209 0
 253 001c FFF7FEFF 		bl	CPU_Init
 210:..\app.c      **** 
 211:..\app.c      ****     OSInit(&os_err);                                            /* Init uC/OS-III.                 
 254              		.loc 1 211 0
 255 0020 BB1D     		adds	r3, r7, #6
 256 0022 1846     		mov	r0, r3
 257 0024 FFF7FEFF 		bl	OSInit
 212:..\app.c      **** 
 213:..\app.c      ****     OSTaskCreate((OS_TCB      *)&App_TaskStartTCB,              /* Create the start task           
 258              		.loc 1 213 0
 259 0028 BB1D     		adds	r3, r7, #6
 260 002a 0893     		str	r3, [sp, #32]
 261 002c 0323     		movs	r3, #3
 262 002e 0793     		str	r3, [sp, #28]
 263 0030 0023     		movs	r3, #0
 264 0032 0693     		str	r3, [sp, #24]
 265 0034 0023     		movs	r3, #0
 266 0036 0593     		str	r3, [sp, #20]
 267 0038 0023     		movs	r3, #0
 268 003a 0493     		str	r3, [sp, #16]
 269 003c 8023     		movs	r3, #128
 270 003e 0393     		str	r3, [sp, #12]
 271 0040 0C23     		movs	r3, #12
 272 0042 0293     		str	r3, [sp, #8]
 273 0044 0C4B     		ldr	r3, .L6+12
 274 0046 0193     		str	r3, [sp, #4]
 275 0048 0223     		movs	r3, #2
 276 004a 0093     		str	r3, [sp]
 277 004c 0023     		movs	r3, #0
 278 004e 0B4A     		ldr	r2, .L6+16
 279 0050 0B49     		ldr	r1, .L6+20
 280 0052 0C48     		ldr	r0, .L6+24
 281 0054 FFF7FEFF 		bl	OSTaskCreate
 214:..\app.c      ****                  (CPU_CHAR    *)"Start",
 215:..\app.c      ****                  (OS_TASK_PTR  )App_TaskStart, 
 216:..\app.c      ****                  (void        *)0,
 217:..\app.c      ****                  (OS_PRIO      )APP_CFG_TASK_START_PRIO,
 218:..\app.c      ****                  (CPU_STK     *)&App_TaskStartStk[0],
 219:..\app.c      ****                  (CPU_STK_SIZE )APP_CFG_TASK_START_STK_SIZE_LIMIT,
 220:..\app.c      ****                  (CPU_STK_SIZE )APP_CFG_TASK_START_STK_SIZE,
 221:..\app.c      ****                  (OS_MSG_QTY   )0u,
 222:..\app.c      ****                  (OS_TICK      )0u,
 223:..\app.c      ****                  (void        *)0,
 224:..\app.c      ****                  (OS_OPT       )(OS_OPT_TASK_STK_CHK | OS_OPT_TASK_STK_CLR),
 225:..\app.c      ****                  (OS_ERR      *)&os_err);
 226:..\app.c      **** 
 227:..\app.c      ****     OSStart(&os_err);                                            /* Start multitasking (i.e. give c
 282              		.loc 1 227 0
 283 0058 BB1D     		adds	r3, r7, #6
 284 005a 1846     		mov	r0, r3
 285 005c FFF7FEFF 		bl	OSStart
 286 0060 0023     		movs	r3, #0
ARM GAS  C:\Users\alex\AppData\Local\Temp\ccrAtNPo.s 			page 11


 228:..\app.c      ****     
 229:..\app.c      ****     
 230:..\app.c      ****     
 231:..\app.c      **** }
 287              		.loc 1 231 0
 288 0062 1846     		mov	r0, r3
 289 0064 0837     		adds	r7, r7, #8
 290              		.cfi_def_cfa_offset 8
 291 0066 BD46     		mov	sp, r7
 292              		.cfi_def_cfa_register 13
 293              		@ sp needed
 294 0068 80BD     		pop	{r7, pc}
 295              	.L7:
 296 006a 00BF     		.align	2
 297              	.L6:
 298 006c 00000000 		.word	se_indut_porta_Handler
 299 0070 00000000 		.word	se_indut_motor_Handler
 300 0074 00000000 		.word	bt_emerg_int_Handler
 301 0078 C0000000 		.word	App_TaskStartStk
 302 007c 00000000 		.word	App_TaskStart
 303 0080 00000000 		.word	.LC0
 304 0084 00000000 		.word	App_TaskStartTCB
 305              		.cfi_endproc
 306              	.LFE67:
 307              		.size	main, .-main
 308              		.section	.text.App_TaskStart,"ax",%progbits
 309              		.align	2
 310              		.thumb
 311              		.thumb_func
 312              		.type	App_TaskStart, %function
 313              	App_TaskStart:
 314              	.LFB68:
 232:..\app.c      **** 
 233:..\app.c      **** 
 234:..\app.c      **** /*
 235:..\app.c      **** ***************************************************************************************************
 236:..\app.c      **** *                                          App_TaskStart()
 237:..\app.c      **** *
 238:..\app.c      **** * Description : This is an example of a startup task.  As mentioned in the book's text, you MUST
 239:..\app.c      **** *               initialize the ticker only once multitasking has started.
 240:..\app.c      **** *
 241:..\app.c      **** * Argument(s) : p_arg   is the argument passed to 'App_TaskStart()' by 'OSTaskCreate()'.
 242:..\app.c      **** *
 243:..\app.c      **** * Return(s)   : none
 244:..\app.c      **** *
 245:..\app.c      **** * Note(s)     : 1) The first line of code is used to prevent a compiler warning because 'p_arg' is 
 246:..\app.c      **** *                  used.  The compiler should not generate any code for this statement.
 247:..\app.c      **** ***************************************************************************************************
 248:..\app.c      **** */
 249:..\app.c      **** 
 250:..\app.c      **** static  void  App_TaskStart (void *p_arg)
 251:..\app.c      **** {
 315              		.loc 1 251 0
 316              		.cfi_startproc
 317              		@ args = 0, pretend = 0, frame = 16
 318              		@ frame_needed = 1, uses_anonymous_args = 0
 319 0000 80B5     		push	{r7, lr}
ARM GAS  C:\Users\alex\AppData\Local\Temp\ccrAtNPo.s 			page 12


 320              		.cfi_def_cfa_offset 8
 321              		.cfi_offset 7, -8
 322              		.cfi_offset 14, -4
 323 0002 86B0     		sub	sp, sp, #24
 324              		.cfi_def_cfa_offset 32
 325 0004 02AF     		add	r7, sp, #8
 326              		.cfi_def_cfa 7, 24
 327 0006 7860     		str	r0, [r7, #4]
 252:..\app.c      ****     OS_ERR       err;
 253:..\app.c      ****         
 254:..\app.c      **** 
 255:..\app.c      ****    (void)p_arg;
 256:..\app.c      ****    
 257:..\app.c      **** 
 258:..\app.c      ****     BSP_PostInit();                                               /* Perform BSP post-initializatio
 328              		.loc 1 258 0
 329 0008 FFF7FEFF 		bl	BSP_PostInit
 259:..\app.c      ****     
 260:..\app.c      ****     BSP_CPU_TickInit();                                           /* Perfrom Tick Initialization   
 330              		.loc 1 260 0
 331 000c FFF7FEFF 		bl	BSP_CPU_TickInit
 261:..\app.c      **** 
 262:..\app.c      **** #if (OS_CFG_STAT_TASK_EN > 0u)
 263:..\app.c      ****     OSStatTaskCPUUsageInit(&err);
 332              		.loc 1 263 0
 333 0010 07F10E03 		add	r3, r7, #14
 334 0014 1846     		mov	r0, r3
 335 0016 FFF7FEFF 		bl	OSStatTaskCPUUsageInit
 264:..\app.c      **** #endif    
 265:..\app.c      **** 
 266:..\app.c      **** #ifdef CPU_CFG_INT_DIS_MEAS_EN
 267:..\app.c      ****     CPU_IntDisMeasMaxCurReset();
 268:..\app.c      **** #endif      
 269:..\app.c      **** 
 270:..\app.c      ****     App_TaskCreate();                                             /* Create application tasks.     
 336              		.loc 1 270 0
 337 001a FFF7FEFF 		bl	App_TaskCreate
 271:..\app.c      **** 
 272:..\app.c      ****     App_ObjCreate();                                              /* Create kernel objects         
 338              		.loc 1 272 0
 339 001e FFF7FEFF 		bl	App_ObjCreate
 273:..\app.c      ****     
 274:..\app.c      **** #if (APP_CFG_PROBE_COM_EN == DEF_ENABLED)
 275:..\app.c      ****     App_ProbeInit();                                              /* Enabling uC/Probe             
 340              		.loc 1 275 0
 341 0022 FFF7FEFF 		bl	App_ProbeInit
 276:..\app.c      **** #endif
 277:..\app.c      ****     
 278:..\app.c      ****     BSP_LED_Off(1);
 342              		.loc 1 278 0
 343 0026 0120     		movs	r0, #1
 344 0028 FFF7FEFF 		bl	BSP_LED_Off
 345              	.L9:
 279:..\app.c      **** 
 280:..\app.c      ****     while (DEF_TRUE) {                                            /* Task body, always written as a
 281:..\app.c      ****         BSP_LED_Toggle(1);
 346              		.loc 1 281 0 discriminator 1
ARM GAS  C:\Users\alex\AppData\Local\Temp\ccrAtNPo.s 			page 13


 347 002c 0120     		movs	r0, #1
 348 002e FFF7FEFF 		bl	BSP_LED_Toggle
 282:..\app.c      ****         OSTimeDlyHMSM(0, 0, 0, 100, 
 349              		.loc 1 282 0 discriminator 1
 350 0032 07F10E03 		add	r3, r7, #14
 351 0036 0193     		str	r3, [sp, #4]
 352 0038 0023     		movs	r3, #0
 353 003a 0093     		str	r3, [sp]
 354 003c 6423     		movs	r3, #100
 355 003e 0022     		movs	r2, #0
 356 0040 0021     		movs	r1, #0
 357 0042 0020     		movs	r0, #0
 358 0044 FFF7FEFF 		bl	OSTimeDlyHMSM
 283:..\app.c      ****                       OS_OPT_TIME_HMSM_STRICT, 
 284:..\app.c      ****                       &err);
 285:..\app.c      ****     }
 359              		.loc 1 285 0 discriminator 1
 360 0048 F0E7     		b	.L9
 361              		.cfi_endproc
 362              	.LFE68:
 363              		.size	App_TaskStart, .-App_TaskStart
 364 004a 00BF     		.section	.rodata
 365 0006 0000     		.align	2
 366              	.LC1:
 367 0008 49484D5F 		.ascii	"IHM_Task\000"
 367      5461736B 
 367      00
 368 0011 000000   		.align	2
 369              	.LC2:
 370 0014 456D6572 		.ascii	"Emerg_Task\000"
 370      675F5461 
 370      736B00
 371 001f 00       		.align	2
 372              	.LC3:
 373 0020 53656E5F 		.ascii	"Sen_Mec_Task\000"
 373      4D65635F 
 373      5461736B 
 373      00
 374 002d 000000   		.align	2
 375              	.LC4:
 376 0030 44697370 		.ascii	"Display_Task\000"
 376      6C61795F 
 376      5461736B 
 376      00
 377              		.section	.text.App_TaskCreate,"ax",%progbits
 378              		.align	2
 379              		.thumb
 380              		.thumb_func
 381              		.type	App_TaskCreate, %function
 382              	App_TaskCreate:
 383              	.LFB69:
 286:..\app.c      **** }
 287:..\app.c      **** 
 288:..\app.c      **** 
 289:..\app.c      **** /*
 290:..\app.c      **** ***************************************************************************************************
 291:..\app.c      **** *                                          App_TaskCreate()
ARM GAS  C:\Users\alex\AppData\Local\Temp\ccrAtNPo.s 			page 14


 292:..\app.c      **** *
 293:..\app.c      **** * Description : Create application tasks.
 294:..\app.c      **** *
 295:..\app.c      **** * Argument(s) : none
 296:..\app.c      **** *
 297:..\app.c      **** * Return(s)   : none
 298:..\app.c      **** *
 299:..\app.c      **** * Caller(s)   : AppTaskStart()
 300:..\app.c      **** *
 301:..\app.c      **** * Note(s)     : none.
 302:..\app.c      **** ***************************************************************************************************
 303:..\app.c      **** */
 304:..\app.c      **** 
 305:..\app.c      **** static  void  App_TaskCreate (void)
 306:..\app.c      **** {
 384              		.loc 1 306 0
 385              		.cfi_startproc
 386              		@ args = 0, pretend = 0, frame = 8
 387              		@ frame_needed = 1, uses_anonymous_args = 0
 388 0000 80B5     		push	{r7, lr}
 389              		.cfi_def_cfa_offset 8
 390              		.cfi_offset 7, -8
 391              		.cfi_offset 14, -4
 392 0002 8CB0     		sub	sp, sp, #48
 393              		.cfi_def_cfa_offset 56
 394 0004 0AAF     		add	r7, sp, #40
 395              		.cfi_def_cfa 7, 16
 307:..\app.c      **** 
 308:..\app.c      ****     OS_ERR  os_err;
 309:..\app.c      **** 
 310:..\app.c      ****     /*
 311:..\app.c      ****     OSTaskCreate((OS_TCB      *)&App_TaskUserIF_TCB,
 312:..\app.c      ****                  (CPU_CHAR    *)"Start",
 313:..\app.c      ****                  (OS_TASK_PTR  )App_TaskUserIF, 
 314:..\app.c      ****                  (void        *)0,
 315:..\app.c      ****                  (OS_PRIO      )APP_CFG_TASK_USER_IF_PRIO,
 316:..\app.c      ****                  (CPU_STK     *)&App_TaskUserIFStk[0],
 317:..\app.c      ****                  (CPU_STK_SIZE )APP_CFG_TASK_USER_IF_STK_SIZE_LIMIT,
 318:..\app.c      ****                  (CPU_STK_SIZE )APP_CFG_TASK_USER_IF_STK_SIZE,
 319:..\app.c      ****                  (OS_MSG_QTY   )0u,
 320:..\app.c      ****                  (OS_TICK      )0u,
 321:..\app.c      ****                  (void        *)0,
 322:..\app.c      ****                  (OS_OPT       )(OS_OPT_TASK_STK_CHK | OS_OPT_TASK_STK_CLR),
 323:..\app.c      ****                  (OS_ERR      *)&os_err);
 324:..\app.c      ****     */
 325:..\app.c      ****     
 326:..\app.c      ****     // ======== task IHM  ========
 327:..\app.c      ****     OSTaskCreate((OS_TCB      *)&App_Task_Ihm_TCB,                             // endereço da task
 396              		.loc 1 327 0
 397 0006 BB1D     		adds	r3, r7, #6
 398 0008 0893     		str	r3, [sp, #32]
 399 000a 0323     		movs	r3, #3
 400 000c 0793     		str	r3, [sp, #28]
 401 000e 0023     		movs	r3, #0
 402 0010 0693     		str	r3, [sp, #24]
 403 0012 0023     		movs	r3, #0
 404 0014 0593     		str	r3, [sp, #20]
ARM GAS  C:\Users\alex\AppData\Local\Temp\ccrAtNPo.s 			page 15


 405 0016 0023     		movs	r3, #0
 406 0018 0493     		str	r3, [sp, #16]
 407 001a 8023     		movs	r3, #128
 408 001c 0393     		str	r3, [sp, #12]
 409 001e 0C23     		movs	r3, #12
 410 0020 0293     		str	r3, [sp, #8]
 411 0022 2B4B     		ldr	r3, .L11
 412 0024 0193     		str	r3, [sp, #4]
 413 0026 0223     		movs	r3, #2
 414 0028 0093     		str	r3, [sp]
 415 002a 0023     		movs	r3, #0
 416 002c 294A     		ldr	r2, .L11+4
 417 002e 2A49     		ldr	r1, .L11+8
 418 0030 2A48     		ldr	r0, .L11+12
 419 0032 FFF7FEFF 		bl	OSTaskCreate
 328:..\app.c      ****                  (CPU_CHAR    *)"IHM_Task",                                    // string com nome d
 329:..\app.c      ****                  (OS_TASK_PTR  )App_Task_Ihm,                                  // endereco da funca
 330:..\app.c      ****                  (void        *)0,                                              // parametros passa
 331:..\app.c      ****                  (OS_PRIO      )APP_CFG_TASK_IHM_PRIO,                         // prioridade de exe
 332:..\app.c      ****                  (CPU_STK     *)&App_Task_Ihm_Stk[0],                          // endereco base da 
 333:..\app.c      ****                  (CPU_STK_SIZE )APP_CFG_TASK_IHM_STK_SIZE_LIMIT,               // endereco final da
 334:..\app.c      ****                  (CPU_STK_SIZE )APP_CFG_TASK_IHM_STK_SIZE,                     // tamanho da pilha
 335:..\app.c      ****                  (OS_MSG_QTY   )0u,                                             // task incapaz de 
 336:..\app.c      ****                  (OS_TICK      )0u,                                             // clock tick defau
 337:..\app.c      ****                  (void        *)0,                                              // sem endereço de
 338:..\app.c      ****                  (OS_OPT       )(OS_OPT_TASK_STK_CHK | OS_OPT_TASK_STK_CLR),    // opcoes especific
 339:..\app.c      ****                  (OS_ERR      *)&os_err);                                       // ponteiro com err
 340:..\app.c      ****  
 341:..\app.c      ****     // ======== task Emergencia  ========
 342:..\app.c      ****     OSTaskCreate((OS_TCB      *)&App_Task_Emerg_TCB,                             // endereço da ta
 420              		.loc 1 342 0
 421 0036 BB1D     		adds	r3, r7, #6
 422 0038 0893     		str	r3, [sp, #32]
 423 003a 0323     		movs	r3, #3
 424 003c 0793     		str	r3, [sp, #28]
 425 003e 0023     		movs	r3, #0
 426 0040 0693     		str	r3, [sp, #24]
 427 0042 0023     		movs	r3, #0
 428 0044 0593     		str	r3, [sp, #20]
 429 0046 0023     		movs	r3, #0
 430 0048 0493     		str	r3, [sp, #16]
 431 004a 8023     		movs	r3, #128
 432 004c 0393     		str	r3, [sp, #12]
 433 004e 0C23     		movs	r3, #12
 434 0050 0293     		str	r3, [sp, #8]
 435 0052 234B     		ldr	r3, .L11+16
 436 0054 0193     		str	r3, [sp, #4]
 437 0056 0223     		movs	r3, #2
 438 0058 0093     		str	r3, [sp]
 439 005a 0023     		movs	r3, #0
 440 005c 214A     		ldr	r2, .L11+20
 441 005e 2249     		ldr	r1, .L11+24
 442 0060 2248     		ldr	r0, .L11+28
 443 0062 FFF7FEFF 		bl	OSTaskCreate
 343:..\app.c      ****                  (CPU_CHAR    *)"Emerg_Task",                                    // string com nome
 344:..\app.c      ****                  (OS_TASK_PTR  )App_Task_Emerg,                                  // endereco da fun
 345:..\app.c      ****                  (void        *)0,                                              // parametros passa
ARM GAS  C:\Users\alex\AppData\Local\Temp\ccrAtNPo.s 			page 16


 346:..\app.c      ****                  (OS_PRIO      )APP_CFG_TASK_EMERG_PRIO,                         // prioridade de e
 347:..\app.c      ****                  (CPU_STK     *)&App_Task_Emerg_Stk[0],                          // endereco base d
 348:..\app.c      ****                  (CPU_STK_SIZE )APP_CFG_TASK_EMERG_STK_SIZE_LIMIT,               // endereco final 
 349:..\app.c      ****                  (CPU_STK_SIZE )APP_CFG_TASK_EMERG_STK_SIZE,                     // tamanho da pilh
 350:..\app.c      ****                  (OS_MSG_QTY   )0u,                                             // task incapaz de 
 351:..\app.c      ****                  (OS_TICK      )0u,                                             // clock tick defau
 352:..\app.c      ****                  (void        *)0,                                              // sem endereço de
 353:..\app.c      ****                  (OS_OPT       )(OS_OPT_TASK_STK_CHK | OS_OPT_TASK_STK_CLR),    // opcoes especific
 354:..\app.c      ****                  (OS_ERR      *)&os_err);                                       // ponteiro com err
 355:..\app.c      **** 
 356:..\app.c      ****     // ======== task sen. mec.  ========
 357:..\app.c      ****     OSTaskCreate((OS_TCB      *)&App_Task_Sen_Mec_TCB,                             // endereço da 
 444              		.loc 1 357 0
 445 0066 BB1D     		adds	r3, r7, #6
 446 0068 0893     		str	r3, [sp, #32]
 447 006a 0323     		movs	r3, #3
 448 006c 0793     		str	r3, [sp, #28]
 449 006e 0023     		movs	r3, #0
 450 0070 0693     		str	r3, [sp, #24]
 451 0072 0023     		movs	r3, #0
 452 0074 0593     		str	r3, [sp, #20]
 453 0076 0023     		movs	r3, #0
 454 0078 0493     		str	r3, [sp, #16]
 455 007a 8023     		movs	r3, #128
 456 007c 0393     		str	r3, [sp, #12]
 457 007e 0C23     		movs	r3, #12
 458 0080 0293     		str	r3, [sp, #8]
 459 0082 1B4B     		ldr	r3, .L11+32
 460 0084 0193     		str	r3, [sp, #4]
 461 0086 0223     		movs	r3, #2
 462 0088 0093     		str	r3, [sp]
 463 008a 0023     		movs	r3, #0
 464 008c 194A     		ldr	r2, .L11+36
 465 008e 1A49     		ldr	r1, .L11+40
 466 0090 1A48     		ldr	r0, .L11+44
 467 0092 FFF7FEFF 		bl	OSTaskCreate
 358:..\app.c      ****                  (CPU_CHAR    *)"Sen_Mec_Task",                                    // string com no
 359:..\app.c      ****                  (OS_TASK_PTR  )App_Task_Sen_Mec,                                  // endereco da f
 360:..\app.c      ****                  (void        *)0,                                              // parametros passa
 361:..\app.c      ****                  (OS_PRIO      )APP_CFG_TASK_SEN_MEC_PRIO,                         // prioridade de
 362:..\app.c      ****                  (CPU_STK     *)&App_Task_Sen_Mec_Stk[0],                          // endereco base
 363:..\app.c      ****                  (CPU_STK_SIZE )APP_CFG_TASK_SEN_MEC_STK_SIZE_LIMIT,               // endereco fina
 364:..\app.c      ****                  (CPU_STK_SIZE )APP_CFG_TASK_SEN_MEC_STK_SIZE,                     // tamanho da pi
 365:..\app.c      ****                  (OS_MSG_QTY   )0u,                                             // task incapaz de 
 366:..\app.c      ****                  (OS_TICK      )0u,                                             // clock tick defau
 367:..\app.c      ****                  (void        *)0,                                              // sem endereço de
 368:..\app.c      ****                  (OS_OPT       )(OS_OPT_TASK_STK_CHK | OS_OPT_TASK_STK_CLR),    // opcoes especific
 369:..\app.c      ****                  (OS_ERR      *)&os_err);                                       // ponteiro com err
 370:..\app.c      ****     /*
 371:..\app.c      ****     // ======== task sen. temp.  ========
 372:..\app.c      ****     OSTaskCreate((OS_TCB      *)&App_Task_Sen_Mec_TCB,                             // endereço da 
 373:..\app.c      ****                  (CPU_CHAR    *)"Sen_Temp_Task",                                    // string com n
 374:..\app.c      ****                  (OS_TASK_PTR  )App_Task_Sen_Temp,                                  // endereco da 
 375:..\app.c      ****                  (void        *)0,                                              // parametros passa
 376:..\app.c      ****                  (OS_PRIO      )APP_CFG_TASK_SEN_TEMP_PRIO,                         // prioridade d
 377:..\app.c      ****                  (CPU_STK     *)&App_Task_Sen_Temp_Stk[0],                          // endereco bas
 378:..\app.c      ****                  (CPU_STK_SIZE )APP_CFG_TASK_SEN_TEMP_STK_SIZE_LIMIT,               // endereco fin
ARM GAS  C:\Users\alex\AppData\Local\Temp\ccrAtNPo.s 			page 17


 379:..\app.c      ****                  (CPU_STK_SIZE )APP_CFG_TASK_SEN_TEMP_STK_SIZE,                     // tamanho da p
 380:..\app.c      ****                  (OS_MSG_QTY   )0u,                                             // task incapaz de 
 381:..\app.c      ****                  (OS_TICK      )0u,                                             // clock tick defau
 382:..\app.c      ****                  (void        *)0,                                              // sem endereço de
 383:..\app.c      ****                  (OS_OPT       )(OS_OPT_TASK_STK_CHK | OS_OPT_TASK_STK_CLR),    // opcoes especific
 384:..\app.c      ****                  (OS_ERR      *)&os_err);                                       // ponteiro com err
 385:..\app.c      ****     */
 386:..\app.c      ****     
 387:..\app.c      ****     // ======== task diz play  ========
 388:..\app.c      ****     OSTaskCreate((OS_TCB      *)&App_Task_Display_TCB,                             // endereço da 
 468              		.loc 1 388 0
 469 0096 BB1D     		adds	r3, r7, #6
 470 0098 0893     		str	r3, [sp, #32]
 471 009a 0323     		movs	r3, #3
 472 009c 0793     		str	r3, [sp, #28]
 473 009e 0023     		movs	r3, #0
 474 00a0 0693     		str	r3, [sp, #24]
 475 00a2 0023     		movs	r3, #0
 476 00a4 0593     		str	r3, [sp, #20]
 477 00a6 0023     		movs	r3, #0
 478 00a8 0493     		str	r3, [sp, #16]
 479 00aa 8023     		movs	r3, #128
 480 00ac 0393     		str	r3, [sp, #12]
 481 00ae 0C23     		movs	r3, #12
 482 00b0 0293     		str	r3, [sp, #8]
 483 00b2 134B     		ldr	r3, .L11+48
 484 00b4 0193     		str	r3, [sp, #4]
 485 00b6 0223     		movs	r3, #2
 486 00b8 0093     		str	r3, [sp]
 487 00ba 0023     		movs	r3, #0
 488 00bc 114A     		ldr	r2, .L11+52
 489 00be 1249     		ldr	r1, .L11+56
 490 00c0 1248     		ldr	r0, .L11+60
 491 00c2 FFF7FEFF 		bl	OSTaskCreate
 389:..\app.c      ****                  (CPU_CHAR    *)"Display_Task",                                    // string com no
 390:..\app.c      ****                  (OS_TASK_PTR  )App_TaskUserIF,                                  // endereco da fun
 391:..\app.c      ****                  (void        *)0,                                              // parametros passa
 392:..\app.c      ****                  (OS_PRIO      )APP_CFG_TASK_DISPLAY_PRIO,                         // prioridade de
 393:..\app.c      ****                  (CPU_STK     *)&App_Task_Display_Stk[0],                          // endereco base
 394:..\app.c      ****                  (CPU_STK_SIZE )APP_CFG_TASK_DISPLAY_STK_SIZE_LIMIT,               // endereco fina
 395:..\app.c      ****                  (CPU_STK_SIZE )APP_CFG_TASK_DISPLAY_STK_SIZE,                     // tamanho da pi
 396:..\app.c      ****                  (OS_MSG_QTY   )0u,                                             // task incapaz de 
 397:..\app.c      ****                  (OS_TICK      )0u,                                             // clock tick defau
 398:..\app.c      ****                  (void        *)0,                                              // sem endereço de
 399:..\app.c      ****                  (OS_OPT       )(OS_OPT_TASK_STK_CHK | OS_OPT_TASK_STK_CLR),    // opcoes especific
 400:..\app.c      ****                  (OS_ERR      *)&os_err);                                       // ponteiro com err
 401:..\app.c      ****     
 402:..\app.c      **** }
 492              		.loc 1 402 0
 493 00c6 00BF     		nop
 494 00c8 0837     		adds	r7, r7, #8
 495              		.cfi_def_cfa_offset 8
 496 00ca BD46     		mov	sp, r7
 497              		.cfi_def_cfa_register 13
 498              		@ sp needed
 499 00cc 80BD     		pop	{r7, pc}
 500              	.L12:
ARM GAS  C:\Users\alex\AppData\Local\Temp\ccrAtNPo.s 			page 18


 501 00ce 00BF     		.align	2
 502              	.L11:
 503 00d0 40060000 		.word	App_Task_Ihm_Stk
 504 00d4 00000000 		.word	App_Task_Ihm
 505 00d8 08000000 		.word	.LC1
 506 00dc 80050000 		.word	App_Task_Ihm_TCB
 507 00e0 00090000 		.word	App_Task_Emerg_Stk
 508 00e4 00000000 		.word	App_Task_Emerg
 509 00e8 14000000 		.word	.LC2
 510 00ec 40080000 		.word	App_Task_Emerg_TCB
 511 00f0 C00B0000 		.word	App_Task_Sen_Mec_Stk
 512 00f4 00000000 		.word	App_Task_Sen_Mec
 513 00f8 20000000 		.word	.LC3
 514 00fc 000B0000 		.word	App_Task_Sen_Mec_TCB
 515 0100 40110000 		.word	App_Task_Display_Stk
 516 0104 00000000 		.word	App_TaskUserIF
 517 0108 30000000 		.word	.LC4
 518 010c 80100000 		.word	App_Task_Display_TCB
 519              		.cfi_endproc
 520              	.LFE69:
 521              		.size	App_TaskCreate, .-App_TaskCreate
 522              		.section	.text.App_Task_Ihm,"ax",%progbits
 523              		.align	2
 524              		.thumb
 525              		.thumb_func
 526              		.type	App_Task_Ihm, %function
 527              	App_Task_Ihm:
 528              	.LFB70:
 403:..\app.c      **** 
 404:..\app.c      **** static  void  App_Task_Ihm(void *p_arg)
 405:..\app.c      **** {
 529              		.loc 1 405 0
 530              		.cfi_startproc
 531              		@ args = 0, pretend = 0, frame = 8
 532              		@ frame_needed = 1, uses_anonymous_args = 0
 533 0000 80B5     		push	{r7, lr}
 534              		.cfi_def_cfa_offset 8
 535              		.cfi_offset 7, -8
 536              		.cfi_offset 14, -4
 537 0002 82B0     		sub	sp, sp, #8
 538              		.cfi_def_cfa_offset 16
 539 0004 00AF     		add	r7, sp, #0
 540              		.cfi_def_cfa_register 7
 541 0006 7860     		str	r0, [r7, #4]
 542              	.L17:
 543              	.LBB2:
 406:..\app.c      ****     
 407:..\app.c      ****     OS_ERR          err;                                /* var com os erros do processo */
 408:..\app.c      ****          
 409:..\app.c      ****    (void)p_arg;
 410:..\app.c      **** 
 411:..\app.c      ****     while(DEF_ON){
 412:..\app.c      ****         
 413:..\app.c      ****                 
 414:..\app.c      ****         if((!bt_liga_Read()) && (!emerg) && (!rearme) && (!alerta)){   // botoeira liga pressionada
 544              		.loc 1 414 0
 545 0008 FFF7FEFF 		bl	bt_liga_Read
ARM GAS  C:\Users\alex\AppData\Local\Temp\ccrAtNPo.s 			page 19


 546 000c 0346     		mov	r3, r0
 547 000e 002B     		cmp	r3, #0
 548 0010 0ED1     		bne	.L14
 549              		.loc 1 414 0 is_stmt 0 discriminator 1
 550 0012 164B     		ldr	r3, .L18
 551 0014 1B78     		ldrb	r3, [r3]	@ zero_extendqisi2
 552 0016 002B     		cmp	r3, #0
 553 0018 0AD1     		bne	.L14
 554              		.loc 1 414 0 discriminator 2
 555 001a 154B     		ldr	r3, .L18+4
 556 001c 1B78     		ldrb	r3, [r3]	@ zero_extendqisi2
 557 001e 002B     		cmp	r3, #0
 558 0020 06D1     		bne	.L14
 559              		.loc 1 414 0 discriminator 3
 560 0022 144B     		ldr	r3, .L18+8
 561 0024 1B78     		ldrb	r3, [r3]	@ zero_extendqisi2
 562 0026 002B     		cmp	r3, #0
 563 0028 02D1     		bne	.L14
 415:..\app.c      ****             statusMotor(LIGA);
 564              		.loc 1 415 0 is_stmt 1
 565 002a 0120     		movs	r0, #1
 566 002c FFF7FEFF 		bl	statusMotor
 567              	.L14:
 568              	.LBE2:
 569              	.LBB3:
 416:..\app.c      ****         }
 417:..\app.c      ****         
 418:..\app.c      ****         if(!bt_desl_Read()){                                            // botoeira desliga pressio
 570              		.loc 1 418 0
 571 0030 FFF7FEFF 		bl	bt_desl_Read
 572 0034 0346     		mov	r3, r0
 573 0036 002B     		cmp	r3, #0
 574 0038 02D1     		bne	.L15
 419:..\app.c      ****             statusMotor(DESL);
 575              		.loc 1 419 0
 576 003a 0020     		movs	r0, #0
 577 003c FFF7FEFF 		bl	statusMotor
 578              	.L15:
 579              	.LBE3:
 580              	.LBB4:
 420:..\app.c      ****         }
 421:..\app.c      ****                 
 422:..\app.c      ****         if(!bt_rearme_Read() && (!emerg) && (!rearme) && (!alerta)){    // remocao de rearme se nao
 581              		.loc 1 422 0
 582 0040 FFF7FEFF 		bl	bt_rearme_Read
 583 0044 0346     		mov	r3, r0
 584 0046 002B     		cmp	r3, #0
 585 0048 DED1     		bne	.L17
 586              		.loc 1 422 0 is_stmt 0 discriminator 1
 587 004a 084B     		ldr	r3, .L18
 588 004c 1B78     		ldrb	r3, [r3]	@ zero_extendqisi2
 589 004e 002B     		cmp	r3, #0
 590 0050 DAD1     		bne	.L17
 591              		.loc 1 422 0 discriminator 2
 592 0052 074B     		ldr	r3, .L18+4
 593 0054 1B78     		ldrb	r3, [r3]	@ zero_extendqisi2
 594 0056 002B     		cmp	r3, #0
ARM GAS  C:\Users\alex\AppData\Local\Temp\ccrAtNPo.s 			page 20


 595 0058 D6D1     		bne	.L17
 596              		.loc 1 422 0 discriminator 3
 597 005a 064B     		ldr	r3, .L18+8
 598 005c 1B78     		ldrb	r3, [r3]	@ zero_extendqisi2
 599 005e 002B     		cmp	r3, #0
 600 0060 D2D1     		bne	.L17
 423:..\app.c      ****             statusRearme(DESL);
 601              		.loc 1 423 0 is_stmt 1
 602 0062 0020     		movs	r0, #0
 603 0064 FFF7FEFF 		bl	statusRearme
 604              	.LBE4:
 424:..\app.c      ****         }
 425:..\app.c      ****                                
 426:..\app.c      ****     }
 605              		.loc 1 426 0
 606 0068 CEE7     		b	.L17
 607              	.L19:
 608 006a 00BF     		.align	2
 609              	.L18:
 610 006c 00000000 		.word	emerg
 611 0070 00000000 		.word	rearme
 612 0074 00000000 		.word	alerta
 613              		.cfi_endproc
 614              	.LFE70:
 615              		.size	App_Task_Ihm, .-App_Task_Ihm
 616              		.section	.text.App_Task_Emerg,"ax",%progbits
 617              		.align	2
 618              		.thumb
 619              		.thumb_func
 620              		.type	App_Task_Emerg, %function
 621              	App_Task_Emerg:
 622              	.LFB71:
 427:..\app.c      ****     
 428:..\app.c      **** }
 429:..\app.c      **** 
 430:..\app.c      **** static  void  App_Task_Emerg(void *p_arg)
 431:..\app.c      **** {
 623              		.loc 1 431 0
 624              		.cfi_startproc
 625              		@ args = 0, pretend = 0, frame = 8
 626              		@ frame_needed = 1, uses_anonymous_args = 0
 627 0000 80B5     		push	{r7, lr}
 628              		.cfi_def_cfa_offset 8
 629              		.cfi_offset 7, -8
 630              		.cfi_offset 14, -4
 631 0002 82B0     		sub	sp, sp, #8
 632              		.cfi_def_cfa_offset 16
 633 0004 00AF     		add	r7, sp, #0
 634              		.cfi_def_cfa_register 7
 635 0006 7860     		str	r0, [r7, #4]
 636              	.L22:
 637              	.LBB5:
 432:..\app.c      ****     
 433:..\app.c      ****     OS_ERR          err;                                    /* var com os erros do processo */
 434:..\app.c      ****          
 435:..\app.c      ****    (void)p_arg;
 436:..\app.c      **** 
ARM GAS  C:\Users\alex\AppData\Local\Temp\ccrAtNPo.s 			page 21


 437:..\app.c      **** 
 438:..\app.c      ****     while(DEF_ON){                                          // tratamento de ocorrencia de emergenc
 439:..\app.c      ****         
 440:..\app.c      ****         if(bt_emerg_Read()){                                // se o botao foi liberado libera a eme
 638              		.loc 1 440 0
 639 0008 FFF7FEFF 		bl	bt_emerg_Read
 640 000c 0346     		mov	r3, r0
 641 000e 002B     		cmp	r3, #0
 642 0010 FAD0     		beq	.L22
 441:..\app.c      ****             statusEmerg(DESL);
 643              		.loc 1 441 0
 644 0012 0020     		movs	r0, #0
 645 0014 FFF7FEFF 		bl	statusEmerg
 646              	.LBE5:
 442:..\app.c      ****         }
 443:..\app.c      ****         
 444:..\app.c      ****     }
 647              		.loc 1 444 0
 648 0018 F6E7     		b	.L22
 649              		.cfi_endproc
 650              	.LFE71:
 651              		.size	App_Task_Emerg, .-App_Task_Emerg
 652 001a 00BF     		.section	.text.App_Task_Sen_Mec,"ax",%progbits
 653              		.align	2
 654              		.thumb
 655              		.thumb_func
 656              		.type	App_Task_Sen_Mec, %function
 657              	App_Task_Sen_Mec:
 658              	.LFB72:
 445:..\app.c      ****     
 446:..\app.c      **** }
 447:..\app.c      **** 
 448:..\app.c      **** static  void  App_Task_Sen_Mec(void *p_arg)
 449:..\app.c      **** {
 659              		.loc 1 449 0
 660              		.cfi_startproc
 661              		@ args = 0, pretend = 0, frame = 8
 662              		@ frame_needed = 1, uses_anonymous_args = 0
 663 0000 80B5     		push	{r7, lr}
 664              		.cfi_def_cfa_offset 8
 665              		.cfi_offset 7, -8
 666              		.cfi_offset 14, -4
 667 0002 82B0     		sub	sp, sp, #8
 668              		.cfi_def_cfa_offset 16
 669 0004 00AF     		add	r7, sp, #0
 670              		.cfi_def_cfa_register 7
 671 0006 7860     		str	r0, [r7, #4]
 672              	.L26:
 450:..\app.c      ****     
 451:..\app.c      ****       
 452:..\app.c      ****     OS_ERR          err;                                    /* var com os erros do processo */
 453:..\app.c      ****     
 454:..\app.c      ****    (void)p_arg;
 455:..\app.c      **** 
 456:..\app.c      ****     while(DEF_ON){
 457:..\app.c      ****             
 458:..\app.c      ****                                                             // tratamento de ocorrencia de alerta
ARM GAS  C:\Users\alex\AppData\Local\Temp\ccrAtNPo.s 			page 22


 459:..\app.c      ****         
 460:..\app.c      ****         if(alerta){                                         // se ocorreu um alerta
 673              		.loc 1 460 0
 674 0008 084B     		ldr	r3, .L27
 675 000a 1B78     		ldrb	r3, [r3]	@ zero_extendqisi2
 676 000c 002B     		cmp	r3, #0
 677 000e 09D0     		beq	.L24
 678              	.LBB6:
 461:..\app.c      ****             si_alerta_Write(1);                             // ativa sinaleira de emerg.
 679              		.loc 1 461 0
 680 0010 0120     		movs	r0, #1
 681 0012 FFF7FEFF 		bl	si_alerta_Write
 462:..\app.c      ****             ct_motor_Write(0);                              // desliga contator do motor
 682              		.loc 1 462 0
 683 0016 0020     		movs	r0, #0
 684 0018 FFF7FEFF 		bl	ct_motor_Write
 463:..\app.c      ****             rearme = 1;                                     // seta flag indicando necessidade de r
 685              		.loc 1 463 0
 686 001c 044B     		ldr	r3, .L27+4
 687 001e 0122     		movs	r2, #1
 688 0020 1A70     		strb	r2, [r3]
 689              	.LBE6:
 690 0022 F1E7     		b	.L26
 691              	.L24:
 692              	.LBB7:
 464:..\app.c      ****                     
 465:..\app.c      ****         }
 466:..\app.c      ****         else{
 467:..\app.c      ****             si_alerta_Write(0);                             // ativa sinaleira de alerta
 693              		.loc 1 467 0
 694 0024 0020     		movs	r0, #0
 695 0026 FFF7FEFF 		bl	si_alerta_Write
 696              	.LBE7:
 468:..\app.c      ****             
 469:..\app.c      ****         }
 470:..\app.c      ****     
 471:..\app.c      ****     }
 697              		.loc 1 471 0
 698 002a EDE7     		b	.L26
 699              	.L28:
 700              		.align	2
 701              	.L27:
 702 002c 00000000 		.word	alerta
 703 0030 00000000 		.word	rearme
 704              		.cfi_endproc
 705              	.LFE72:
 706              		.size	App_Task_Sen_Mec, .-App_Task_Sen_Mec
 707              		.section	.rodata
 708 003d 000000   		.align	2
 709              	.LC5:
 710 0040 20202020 		.ascii	"                \000"
 710      20202020 
 710      20202020 
 710      20202020 
 710      00
 711 0051 000000   		.align	2
 712              	.LC6:
ARM GAS  C:\Users\alex\AppData\Local\Temp\ccrAtNPo.s 			page 23


 713 0054 4D696372 		.ascii	"Micrium uC/OS-III\000"
 713      69756D20 
 713      75432F4F 
 713      532D4949 
 713      4900
 714 0066 0000     		.align	2
 715              	.LC7:
 716 0068 75432F4F 		.ascii	"uC/OS-III Vx.yyy\000"
 716      532D4949 
 716      49205678 
 716      2E797979 
 716      00
 717 0079 000000   		.align	2
 718              	.LC8:
 719 007c 5469636B 		.ascii	"TickRate:   xxxx\000"
 719      52617465 
 719      3A202020 
 719      78787878 
 719      00
 720 008d 000000   		.align	2
 721              	.LC9:
 722 0090 43505520 		.ascii	"CPU Usage:xx %  \000"
 722      55736167 
 722      653A7878 
 722      20252020 
 722      00
 723 00a1 000000   		.align	2
 724              	.LC10:
 725 00a4 43505520 		.ascii	"CPU Speed:xxxMHz\000"
 725      53706565 
 725      643A7878 
 725      784D487A 
 725      00
 726 00b5 000000   		.align	2
 727              	.LC11:
 728 00b8 23546963 		.ascii	"#Ticks: xxxxxxxx\000"
 728      6B733A20 
 728      78787878 
 728      78787878 
 728      00
 729 00c9 000000   		.align	2
 730              	.LC12:
 731 00cc 23437478 		.ascii	"#CtxSw: xxxxxxxx\000"
 731      53773A20 
 731      78787878 
 731      78787878 
 731      00
 732 00dd 000000   		.align	2
 733              	.LC13:
 734 00e0 3D3D3D20 		.ascii	"=== Micrium === \000"
 734      4D696372 
 734      69756D20 
 734      3D3D3D20 
 734      00
 735 00f1 000000   		.align	2
 736              	.LC14:
 737 00f4 20202075 		.ascii	"   uC/OS-III    \000"
ARM GAS  C:\Users\alex\AppData\Local\Temp\ccrAtNPo.s 			page 24


 737      432F4F53 
 737      2D494949 
 737      20202020 
 737      00
 738              		.section	.text.App_Task_Display,"ax",%progbits
 739              		.align	2
 740              		.thumb
 741              		.thumb_func
 742              		.type	App_Task_Display, %function
 743              	App_Task_Display:
 744              	.LFB73:
 472:..\app.c      **** }
 473:..\app.c      **** /*
 474:..\app.c      **** static  void  App_Task_Sen_Temp(void *p_arg)
 475:..\app.c      **** {
 476:..\app.c      ****      
 477:..\app.c      ****     OS_ERR          err;                                    // var com os erros do processo 
 478:..\app.c      ****     CPU_INT16U temp1 = 0, temp2 = 0;                        // var aux com bits da temp. do adc
 479:..\app.c      ****     float R1 = 0, R2 = 0;
 480:..\app.c      ****     
 481:..\app.c      ****     
 482:..\app.c      ****    (void)p_arg;
 483:..\app.c      **** 
 484:..\app.c      ****     //Math_Init();
 485:..\app.c      ****     ADC_SAR_Seq_Start();
 486:..\app.c      ****     
 487:..\app.c      ****     // StartConvert() must be called to initiate 
 488:..\app.c      ****     //   conversion in Free Running Mode
 489:..\app.c      ****     
 490:..\app.c      ****     ADC_SAR_Seq_StartConvert();
 491:..\app.c      **** 
 492:..\app.c      ****     while(DEF_ON){
 493:..\app.c      ****         ADC_SAR_Seq_IsEndConversion(ADC_SAR_Seq_WAIT_FOR_RESULT);
 494:..\app.c      ****         temp1 = ADC_SAR_Seq_GetResult16(0u);
 495:..\app.c      ****         temp2 = ADC_SAR_Seq_GetResult16(1u);
 496:..\app.c      ****         
 497:..\app.c      ****         R1 = 4095.0/temp1-1.0; // resistencia lida
 498:..\app.c      ****         R2 = 4095.0/temp2-1.0; // resistencia lida
 499:..\app.c      ****         
 500:..\app.c      ****      
 501:..\app.c      ****         tempM = 1.0/(log(R1/NTC_R0)/NTC_B+1/298.15) -273.15; // convert to temperature via datashee
 502:..\app.c      ****         tempQ = 1.0/(log(R2/NTC_R0)/NTC_B+1/298.15) -273.15; // convert to temperature via datashee
 503:..\app.c      ****         
 504:..\app.c      ****         
 505:..\app.c      ****         // fonte: https://wiki.seeedstudio.com/Grove-Temperature_Sensor_V1.2/
 506:..\app.c      ****         // log: adicionando "Libm.a" no projeto https://community.infineon.com/t5/PSoC-Creator-Desi
 507:..\app.c      ****     
 508:..\app.c      ****     }
 509:..\app.c      ****  
 510:..\app.c      ****     
 511:..\app.c      **** }
 512:..\app.c      **** */
 513:..\app.c      **** static  void  App_Task_Display (void *p_arg)
 514:..\app.c      **** {
 745              		.loc 1 514 0
 746              		.cfi_startproc
 747              		@ args = 0, pretend = 0, frame = 40
ARM GAS  C:\Users\alex\AppData\Local\Temp\ccrAtNPo.s 			page 25


 748              		@ frame_needed = 1, uses_anonymous_args = 0
 749 0000 80B5     		push	{r7, lr}
 750              		.cfi_def_cfa_offset 8
 751              		.cfi_offset 7, -8
 752              		.cfi_offset 14, -4
 753 0002 8EB0     		sub	sp, sp, #56
 754              		.cfi_def_cfa_offset 64
 755 0004 04AF     		add	r7, sp, #16
 756              		.cfi_def_cfa 7, 48
 757 0006 7860     		str	r0, [r7, #4]
 515:..\app.c      ****    CPU_INT32U   val;
 516:..\app.c      ****    CPU_INT08U   user_if_state_cur;
 517:..\app.c      ****    CPU_INT08U   user_if_state_prev;   
 518:..\app.c      ****    CPU_BOOLEAN  pb2_state_cur;
 519:..\app.c      ****    CPU_BOOLEAN  pb2_state_prev;
 520:..\app.c      ****    CPU_BOOLEAN  pb3_state_cur;
 521:..\app.c      ****    CPU_BOOLEAN  pb3_state_prev;
 522:..\app.c      ****    OS_ERR       os_err;
 523:..\app.c      ****    CPU_CHAR     line_str[17];
 524:..\app.c      ****    
 525:..\app.c      ****    
 526:..\app.c      ****    (void)p_arg;
 527:..\app.c      ****    
 528:..\app.c      ****    LCD_Disp_Start();                                             /* Initialize the LCD screen.     
 758              		.loc 1 528 0
 759 0008 FFF7FEFF 		bl	LCD_Disp_Start
 529:..\app.c      ****    
 530:..\app.c      ****    LCD_Disp_Position(0u, 0u);                                    /* Clear LCD screen               
 760              		.loc 1 530 0
 761 000c 0021     		movs	r1, #0
 762 000e 0020     		movs	r0, #0
 763 0010 FFF7FEFF 		bl	LCD_Disp_Position
 531:..\app.c      ****    LCD_Disp_PrintString((uint8 *)"                ");
 764              		.loc 1 531 0
 765 0014 AF48     		ldr	r0, .L40
 766 0016 FFF7FEFF 		bl	LCD_Disp_PrintString
 532:..\app.c      ****    LCD_Disp_Position(1u, 0u);
 767              		.loc 1 532 0
 768 001a 0021     		movs	r1, #0
 769 001c 0120     		movs	r0, #1
 770 001e FFF7FEFF 		bl	LCD_Disp_Position
 533:..\app.c      ****    LCD_Disp_PrintString((uint8 *)"                ");
 771              		.loc 1 533 0
 772 0022 AC48     		ldr	r0, .L40
 773 0024 FFF7FEFF 		bl	LCD_Disp_PrintString
 534:..\app.c      ****    
 535:..\app.c      ****    LCD_Disp_PrintString((uint8 *)"Micrium uC/OS-III");
 774              		.loc 1 535 0
 775 0028 AB48     		ldr	r0, .L40+4
 776 002a FFF7FEFF 		bl	LCD_Disp_PrintString
 536:..\app.c      **** 
 537:..\app.c      ****    user_if_state_cur  = APP_USER_IF_SIGN_ON;
 777              		.loc 1 537 0
 778 002e 0023     		movs	r3, #0
 779 0030 87F82730 		strb	r3, [r7, #39]
 538:..\app.c      ****    user_if_state_prev = APP_USER_IF_SIGN_ON;
 780              		.loc 1 538 0
ARM GAS  C:\Users\alex\AppData\Local\Temp\ccrAtNPo.s 			page 26


 781 0034 0023     		movs	r3, #0
 782 0036 87F82630 		strb	r3, [r7, #38]
 539:..\app.c      ****    pb2_state_cur      = DEF_OFF;
 783              		.loc 1 539 0
 784 003a 0023     		movs	r3, #0
 785 003c 87F82330 		strb	r3, [r7, #35]
 540:..\app.c      ****    pb2_state_prev     = DEF_OFF;
 786              		.loc 1 540 0
 787 0040 0023     		movs	r3, #0
 788 0042 87F82530 		strb	r3, [r7, #37]
 541:..\app.c      ****    pb3_state_cur      = DEF_OFF;
 789              		.loc 1 541 0
 790 0046 0023     		movs	r3, #0
 791 0048 87F82230 		strb	r3, [r7, #34]
 542:..\app.c      ****    pb3_state_prev     = DEF_OFF;
 792              		.loc 1 542 0
 793 004c 0023     		movs	r3, #0
 794 004e 87F82430 		strb	r3, [r7, #36]
 795              	.L38:
 796              	.LBB8:
 543:..\app.c      ****    
 544:..\app.c      ****    
 545:..\app.c      ****     while (DEF_TRUE) { 
 546:..\app.c      ****         
 547:..\app.c      ****         si_alerta_Write(0);
 797              		.loc 1 547 0
 798 0052 0020     		movs	r0, #0
 799 0054 FFF7FEFF 		bl	si_alerta_Write
 548:..\app.c      **** 
 549:..\app.c      ****         if (user_if_state_cur != user_if_state_prev) {
 800              		.loc 1 549 0
 801 0058 97F82720 		ldrb	r2, [r7, #39]	@ zero_extendqisi2
 802 005c 97F82630 		ldrb	r3, [r7, #38]	@ zero_extendqisi2
 803 0060 9A42     		cmp	r2, r3
 804 0062 11D0     		beq	.L30
 550:..\app.c      ****             LCD_Disp_Position(0u, 0u);
 805              		.loc 1 550 0
 806 0064 0021     		movs	r1, #0
 807 0066 0020     		movs	r0, #0
 808 0068 FFF7FEFF 		bl	LCD_Disp_Position
 551:..\app.c      ****             LCD_Disp_PrintString((uint8 *)"                ");
 809              		.loc 1 551 0
 810 006c 9948     		ldr	r0, .L40
 811 006e FFF7FEFF 		bl	LCD_Disp_PrintString
 552:..\app.c      ****             LCD_Disp_Position(1u, 0u);
 812              		.loc 1 552 0
 813 0072 0021     		movs	r1, #0
 814 0074 0120     		movs	r0, #1
 815 0076 FFF7FEFF 		bl	LCD_Disp_Position
 553:..\app.c      ****             LCD_Disp_PrintString((uint8 *)"                ");
 816              		.loc 1 553 0
 817 007a 9648     		ldr	r0, .L40
 818 007c FFF7FEFF 		bl	LCD_Disp_PrintString
 554:..\app.c      ****             user_if_state_prev = user_if_state_cur;
 819              		.loc 1 554 0
 820 0080 97F82730 		ldrb	r3, [r7, #39]
 821 0084 87F82630 		strb	r3, [r7, #38]
ARM GAS  C:\Users\alex\AppData\Local\Temp\ccrAtNPo.s 			page 27


 822              	.L30:
 555:..\app.c      ****         }
 556:..\app.c      **** 
 557:..\app.c      ****         switch (user_if_state_cur) {
 823              		.loc 1 557 0
 824 0088 97F82730 		ldrb	r3, [r7, #39]	@ zero_extendqisi2
 825 008c 022B     		cmp	r3, #2
 826 008e 76D0     		beq	.L32
 827 0090 032B     		cmp	r3, #3
 828 0092 00F0DE80 		beq	.L33
 829 0096 012B     		cmp	r3, #1
 830 0098 40F03C81 		bne	.L39
 558:..\app.c      ****             case APP_USER_IF_VER_TICK_RATE:
 559:..\app.c      ****                  Str_Copy(line_str, "uC/OS-III Vx.yyy");
 831              		.loc 1 559 0
 832 009c 07F10803 		add	r3, r7, #8
 833 00a0 8E49     		ldr	r1, .L40+8
 834 00a2 1846     		mov	r0, r3
 835 00a4 FFF7FEFF 		bl	Str_Copy
 560:..\app.c      ****                  val          = (CPU_INT32U)OSVersion(&os_err);
 836              		.loc 1 560 0
 837 00a8 07F11A03 		add	r3, r7, #26
 838 00ac 1846     		mov	r0, r3
 839 00ae FFF7FEFF 		bl	OSVersion
 840 00b2 0346     		mov	r3, r0
 841 00b4 FB61     		str	r3, [r7, #28]
 561:..\app.c      ****                  line_str[11] = (val        )  / 1000u + '0';
 842              		.loc 1 561 0
 843 00b6 FB69     		ldr	r3, [r7, #28]
 844 00b8 894A     		ldr	r2, .L40+12
 845 00ba A2FB0323 		umull	r2, r3, r2, r3
 846 00be 9B09     		lsrs	r3, r3, #6
 847 00c0 DBB2     		uxtb	r3, r3
 848 00c2 3033     		adds	r3, r3, #48
 849 00c4 DBB2     		uxtb	r3, r3
 850 00c6 FB74     		strb	r3, [r7, #19]
 562:..\app.c      ****                  line_str[13] = (val % 1000u)  /  100u + '0';
 851              		.loc 1 562 0
 852 00c8 FA69     		ldr	r2, [r7, #28]
 853 00ca 854B     		ldr	r3, .L40+12
 854 00cc A3FB0213 		umull	r1, r3, r3, r2
 855 00d0 9B09     		lsrs	r3, r3, #6
 856 00d2 4FF47A71 		mov	r1, #1000
 857 00d6 01FB03F3 		mul	r3, r1, r3
 858 00da D31A     		subs	r3, r2, r3
 859 00dc 814A     		ldr	r2, .L40+16
 860 00de A2FB0323 		umull	r2, r3, r2, r3
 861 00e2 5B09     		lsrs	r3, r3, #5
 862 00e4 DBB2     		uxtb	r3, r3
 863 00e6 3033     		adds	r3, r3, #48
 864 00e8 DBB2     		uxtb	r3, r3
 865 00ea 7B75     		strb	r3, [r7, #21]
 563:..\app.c      ****                  line_str[14] = (val %  100u)  /   10u + '0';
 866              		.loc 1 563 0
 867 00ec FA69     		ldr	r2, [r7, #28]
 868 00ee 7D4B     		ldr	r3, .L40+16
 869 00f0 A3FB0213 		umull	r1, r3, r3, r2
ARM GAS  C:\Users\alex\AppData\Local\Temp\ccrAtNPo.s 			page 28


 870 00f4 5B09     		lsrs	r3, r3, #5
 871 00f6 6421     		movs	r1, #100
 872 00f8 01FB03F3 		mul	r3, r1, r3
 873 00fc D31A     		subs	r3, r2, r3
 874 00fe 7A4A     		ldr	r2, .L40+20
 875 0100 A2FB0323 		umull	r2, r3, r2, r3
 876 0104 DB08     		lsrs	r3, r3, #3
 877 0106 DBB2     		uxtb	r3, r3
 878 0108 3033     		adds	r3, r3, #48
 879 010a DBB2     		uxtb	r3, r3
 880 010c BB75     		strb	r3, [r7, #22]
 564:..\app.c      ****                  line_str[15] = (val %   10u)          + '0';
 881              		.loc 1 564 0
 882 010e F969     		ldr	r1, [r7, #28]
 883 0110 754B     		ldr	r3, .L40+20
 884 0112 A3FB0123 		umull	r2, r3, r3, r1
 885 0116 DA08     		lsrs	r2, r3, #3
 886 0118 1346     		mov	r3, r2
 887 011a 9B00     		lsls	r3, r3, #2
 888 011c 1344     		add	r3, r3, r2
 889 011e 5B00     		lsls	r3, r3, #1
 890 0120 CA1A     		subs	r2, r1, r3
 891 0122 D3B2     		uxtb	r3, r2
 892 0124 3033     		adds	r3, r3, #48
 893 0126 DBB2     		uxtb	r3, r3
 894 0128 FB75     		strb	r3, [r7, #23]
 565:..\app.c      ****                  LCD_Disp_Position(0u, 0u);
 895              		.loc 1 565 0
 896 012a 0021     		movs	r1, #0
 897 012c 0020     		movs	r0, #0
 898 012e FFF7FEFF 		bl	LCD_Disp_Position
 566:..\app.c      ****                  LCD_Disp_PrintString((uint8 *)line_str);
 899              		.loc 1 566 0
 900 0132 07F10803 		add	r3, r7, #8
 901 0136 1846     		mov	r0, r3
 902 0138 FFF7FEFF 		bl	LCD_Disp_PrintString
 567:..\app.c      **** 
 568:..\app.c      ****                  Str_Copy(line_str, "TickRate:   xxxx");
 903              		.loc 1 568 0
 904 013c 07F10803 		add	r3, r7, #8
 905 0140 6A49     		ldr	r1, .L40+24
 906 0142 1846     		mov	r0, r3
 907 0144 FFF7FEFF 		bl	Str_Copy
 569:..\app.c      ****                  val = (CPU_INT32U)OSCfg_TickRate_Hz;
 908              		.loc 1 569 0
 909 0148 694B     		ldr	r3, .L40+28
 910 014a 1B68     		ldr	r3, [r3]
 911 014c FB61     		str	r3, [r7, #28]
 570:..\app.c      ****                  Str_FmtNbr_Int32U((CPU_INT32U     )val, 
 912              		.loc 1 570 0
 913 014e 07F10803 		add	r3, r7, #8
 914 0152 0C33     		adds	r3, r3, #12
 915 0154 0293     		str	r3, [sp, #8]
 916 0156 0123     		movs	r3, #1
 917 0158 0193     		str	r3, [sp, #4]
 918 015a 0023     		movs	r3, #0
 919 015c 0093     		str	r3, [sp]
ARM GAS  C:\Users\alex\AppData\Local\Temp\ccrAtNPo.s 			page 29


 920 015e 0023     		movs	r3, #0
 921 0160 0A22     		movs	r2, #10
 922 0162 0421     		movs	r1, #4
 923 0164 F869     		ldr	r0, [r7, #28]
 924 0166 FFF7FEFF 		bl	Str_FmtNbr_Int32U
 571:..\app.c      ****                                    (CPU_INT08U     )4u,
 572:..\app.c      ****                                    (CPU_INT08U     )10,
 573:..\app.c      ****                                    (CPU_CHAR       )0,
 574:..\app.c      ****                                    (CPU_BOOLEAN    )DEF_NO,
 575:..\app.c      ****                                    (CPU_BOOLEAN    )DEF_YES,
 576:..\app.c      ****                                    (CPU_CHAR      *)&line_str[12]);
 577:..\app.c      ****                  LCD_Disp_Position(1u, 0u);
 925              		.loc 1 577 0
 926 016a 0021     		movs	r1, #0
 927 016c 0120     		movs	r0, #1
 928 016e FFF7FEFF 		bl	LCD_Disp_Position
 578:..\app.c      ****                  LCD_Disp_PrintString((uint8 *)line_str);
 929              		.loc 1 578 0
 930 0172 07F10803 		add	r3, r7, #8
 931 0176 1846     		mov	r0, r3
 932 0178 FFF7FEFF 		bl	LCD_Disp_PrintString
 579:..\app.c      ****                  break;
 933              		.loc 1 579 0
 934 017c D9E0     		b	.L35
 935              	.L32:
 580:..\app.c      **** 
 581:..\app.c      ****             case APP_USER_IF_CPU:
 582:..\app.c      ****                  Str_Copy(line_str, "CPU Usage:xx %  ");
 936              		.loc 1 582 0
 937 017e 07F10803 		add	r3, r7, #8
 938 0182 5C49     		ldr	r1, .L40+32
 939 0184 1846     		mov	r0, r3
 940 0186 FFF7FEFF 		bl	Str_Copy
 583:..\app.c      ****                  val          = (CPU_INT32U)OSStatTaskCPUUsage;
 941              		.loc 1 583 0
 942 018a 5B4B     		ldr	r3, .L40+36
 943 018c 1B88     		ldrh	r3, [r3]
 944 018e FB61     		str	r3, [r7, #28]
 584:..\app.c      ****                  line_str[10] = (val / 10u) + '0';
 945              		.loc 1 584 0
 946 0190 FB69     		ldr	r3, [r7, #28]
 947 0192 554A     		ldr	r2, .L40+20
 948 0194 A2FB0323 		umull	r2, r3, r2, r3
 949 0198 DB08     		lsrs	r3, r3, #3
 950 019a DBB2     		uxtb	r3, r3
 951 019c 3033     		adds	r3, r3, #48
 952 019e DBB2     		uxtb	r3, r3
 953 01a0 BB74     		strb	r3, [r7, #18]
 585:..\app.c      ****                  line_str[11] = (val % 10u) + '0';
 954              		.loc 1 585 0
 955 01a2 F969     		ldr	r1, [r7, #28]
 956 01a4 504B     		ldr	r3, .L40+20
 957 01a6 A3FB0123 		umull	r2, r3, r3, r1
 958 01aa DA08     		lsrs	r2, r3, #3
 959 01ac 1346     		mov	r3, r2
 960 01ae 9B00     		lsls	r3, r3, #2
 961 01b0 1344     		add	r3, r3, r2
ARM GAS  C:\Users\alex\AppData\Local\Temp\ccrAtNPo.s 			page 30


 962 01b2 5B00     		lsls	r3, r3, #1
 963 01b4 CA1A     		subs	r2, r1, r3
 964 01b6 D3B2     		uxtb	r3, r2
 965 01b8 3033     		adds	r3, r3, #48
 966 01ba DBB2     		uxtb	r3, r3
 967 01bc FB74     		strb	r3, [r7, #19]
 586:..\app.c      ****                  LCD_Disp_Position(0u, 0u);
 968              		.loc 1 586 0
 969 01be 0021     		movs	r1, #0
 970 01c0 0020     		movs	r0, #0
 971 01c2 FFF7FEFF 		bl	LCD_Disp_Position
 587:..\app.c      ****                  LCD_Disp_PrintString((uint8 *)line_str);
 972              		.loc 1 587 0
 973 01c6 07F10803 		add	r3, r7, #8
 974 01ca 1846     		mov	r0, r3
 975 01cc FFF7FEFF 		bl	LCD_Disp_PrintString
 588:..\app.c      ****                  
 589:..\app.c      ****                  Str_Copy(line_str, "CPU Speed:xxxMHz");
 976              		.loc 1 589 0
 977 01d0 07F10803 		add	r3, r7, #8
 978 01d4 4949     		ldr	r1, .L40+40
 979 01d6 1846     		mov	r0, r3
 980 01d8 FFF7FEFF 		bl	Str_Copy
 590:..\app.c      ****                  val          = (CPU_INT32U)BSP_CPU_ClkFreq();
 981              		.loc 1 590 0
 982 01dc FFF7FEFF 		bl	BSP_CPU_ClkFreq
 983 01e0 F861     		str	r0, [r7, #28]
 591:..\app.c      ****                  val         /= 1000000u;
 984              		.loc 1 591 0
 985 01e2 FB69     		ldr	r3, [r7, #28]
 986 01e4 464A     		ldr	r2, .L40+44
 987 01e6 A2FB0323 		umull	r2, r3, r2, r3
 988 01ea 9B0C     		lsrs	r3, r3, #18
 989 01ec FB61     		str	r3, [r7, #28]
 592:..\app.c      ****                  line_str[10] = (val       ) / 100u + '0';
 990              		.loc 1 592 0
 991 01ee FB69     		ldr	r3, [r7, #28]
 992 01f0 3C4A     		ldr	r2, .L40+16
 993 01f2 A2FB0323 		umull	r2, r3, r2, r3
 994 01f6 5B09     		lsrs	r3, r3, #5
 995 01f8 DBB2     		uxtb	r3, r3
 996 01fa 3033     		adds	r3, r3, #48
 997 01fc DBB2     		uxtb	r3, r3
 998 01fe BB74     		strb	r3, [r7, #18]
 593:..\app.c      ****                  line_str[11] = (val % 100u) /  10u + '0';
 999              		.loc 1 593 0
 1000 0200 FA69     		ldr	r2, [r7, #28]
 1001 0202 384B     		ldr	r3, .L40+16
 1002 0204 A3FB0213 		umull	r1, r3, r3, r2
 1003 0208 5B09     		lsrs	r3, r3, #5
 1004 020a 6421     		movs	r1, #100
 1005 020c 01FB03F3 		mul	r3, r1, r3
 1006 0210 D31A     		subs	r3, r2, r3
 1007 0212 354A     		ldr	r2, .L40+20
 1008 0214 A2FB0323 		umull	r2, r3, r2, r3
 1009 0218 DB08     		lsrs	r3, r3, #3
 1010 021a DBB2     		uxtb	r3, r3
ARM GAS  C:\Users\alex\AppData\Local\Temp\ccrAtNPo.s 			page 31


 1011 021c 3033     		adds	r3, r3, #48
 1012 021e DBB2     		uxtb	r3, r3
 1013 0220 FB74     		strb	r3, [r7, #19]
 594:..\app.c      ****                  line_str[12] = (val % 10u)         + '0';
 1014              		.loc 1 594 0
 1015 0222 F969     		ldr	r1, [r7, #28]
 1016 0224 304B     		ldr	r3, .L40+20
 1017 0226 A3FB0123 		umull	r2, r3, r3, r1
 1018 022a DA08     		lsrs	r2, r3, #3
 1019 022c 1346     		mov	r3, r2
 1020 022e 9B00     		lsls	r3, r3, #2
 1021 0230 1344     		add	r3, r3, r2
 1022 0232 5B00     		lsls	r3, r3, #1
 1023 0234 CA1A     		subs	r2, r1, r3
 1024 0236 D3B2     		uxtb	r3, r2
 1025 0238 3033     		adds	r3, r3, #48
 1026 023a DBB2     		uxtb	r3, r3
 1027 023c 3B75     		strb	r3, [r7, #20]
 595:..\app.c      ****                  LCD_Disp_Position(1u, 0u);
 1028              		.loc 1 595 0
 1029 023e 0021     		movs	r1, #0
 1030 0240 0120     		movs	r0, #1
 1031 0242 FFF7FEFF 		bl	LCD_Disp_Position
 596:..\app.c      ****                  LCD_Disp_PrintString((uint8 *)line_str);
 1032              		.loc 1 596 0
 1033 0246 07F10803 		add	r3, r7, #8
 1034 024a 1846     		mov	r0, r3
 1035 024c FFF7FEFF 		bl	LCD_Disp_PrintString
 597:..\app.c      ****                  break;
 1036              		.loc 1 597 0
 1037 0250 6FE0     		b	.L35
 1038              	.L33:
 598:..\app.c      **** 
 599:..\app.c      ****             case APP_USER_IF_CTXSW:
 600:..\app.c      ****                  Str_Copy(line_str, "#Ticks: xxxxxxxx");
 1039              		.loc 1 600 0
 1040 0252 07F10803 		add	r3, r7, #8
 1041 0256 2B49     		ldr	r1, .L40+48
 1042 0258 1846     		mov	r0, r3
 1043 025a FFF7FEFF 		bl	Str_Copy
 601:..\app.c      ****                  val = (CPU_INT32U)OSTickCtr;
 1044              		.loc 1 601 0
 1045 025e 2A4B     		ldr	r3, .L40+52
 1046 0260 1B68     		ldr	r3, [r3]
 1047 0262 FB61     		str	r3, [r7, #28]
 602:..\app.c      ****                  Str_FmtNbr_Int32U((CPU_INT32U     )val, 
 1048              		.loc 1 602 0
 1049 0264 07F10803 		add	r3, r7, #8
 1050 0268 0833     		adds	r3, r3, #8
 1051 026a 0293     		str	r3, [sp, #8]
 1052 026c 0123     		movs	r3, #1
 1053 026e 0193     		str	r3, [sp, #4]
 1054 0270 0023     		movs	r3, #0
 1055 0272 0093     		str	r3, [sp]
 1056 0274 0023     		movs	r3, #0
 1057 0276 0A22     		movs	r2, #10
 1058 0278 0821     		movs	r1, #8
ARM GAS  C:\Users\alex\AppData\Local\Temp\ccrAtNPo.s 			page 32


 1059 027a F869     		ldr	r0, [r7, #28]
 1060 027c FFF7FEFF 		bl	Str_FmtNbr_Int32U
 603:..\app.c      ****                                    (CPU_INT08U     )8u,
 604:..\app.c      ****                                    (CPU_INT08U     )10,
 605:..\app.c      ****                                    (CPU_CHAR       )0,
 606:..\app.c      ****                                    (CPU_BOOLEAN    )DEF_NO,
 607:..\app.c      ****                                    (CPU_BOOLEAN    )DEF_YES,
 608:..\app.c      ****                                    (CPU_CHAR      *)&line_str[8]);
 609:..\app.c      ****                  LCD_Disp_Position(0u, 0u);
 1061              		.loc 1 609 0
 1062 0280 0021     		movs	r1, #0
 1063 0282 0020     		movs	r0, #0
 1064 0284 FFF7FEFF 		bl	LCD_Disp_Position
 610:..\app.c      ****                  LCD_Disp_PrintString((uint8 *)line_str);
 1065              		.loc 1 610 0
 1066 0288 07F10803 		add	r3, r7, #8
 1067 028c 1846     		mov	r0, r3
 1068 028e FFF7FEFF 		bl	LCD_Disp_PrintString
 611:..\app.c      ****                  
 612:..\app.c      ****                  Str_Copy(line_str, "#CtxSw: xxxxxxxx");
 1069              		.loc 1 612 0
 1070 0292 07F10803 		add	r3, r7, #8
 1071 0296 1D49     		ldr	r1, .L40+56
 1072 0298 1846     		mov	r0, r3
 1073 029a FFF7FEFF 		bl	Str_Copy
 613:..\app.c      ****                  val          = (CPU_INT32U)OSTaskCtxSwCtr;
 1074              		.loc 1 613 0
 1075 029e 1C4B     		ldr	r3, .L40+60
 1076 02a0 1B68     		ldr	r3, [r3]
 1077 02a2 FB61     		str	r3, [r7, #28]
 614:..\app.c      ****                  Str_FmtNbr_Int32U((CPU_INT32U     )val, 
 1078              		.loc 1 614 0
 1079 02a4 07F10803 		add	r3, r7, #8
 1080 02a8 0833     		adds	r3, r3, #8
 1081 02aa 0293     		str	r3, [sp, #8]
 1082 02ac 0123     		movs	r3, #1
 1083 02ae 0193     		str	r3, [sp, #4]
 1084 02b0 0023     		movs	r3, #0
 1085 02b2 0093     		str	r3, [sp]
 1086 02b4 0023     		movs	r3, #0
 1087 02b6 0A22     		movs	r2, #10
 1088 02b8 0821     		movs	r1, #8
 1089 02ba F869     		ldr	r0, [r7, #28]
 1090 02bc FFF7FEFF 		bl	Str_FmtNbr_Int32U
 615:..\app.c      ****                                    (CPU_INT08U     )8u,
 616:..\app.c      ****                                    (CPU_INT08U     )10,
 617:..\app.c      ****                                    (CPU_CHAR       )0,
 618:..\app.c      ****                                    (CPU_BOOLEAN    )DEF_NO,
 619:..\app.c      ****                                    (CPU_BOOLEAN    )DEF_YES,
 620:..\app.c      ****                                    (CPU_CHAR      *)&line_str[8]);
 621:..\app.c      ****                  LCD_Disp_Position(1u, 0u);
 1091              		.loc 1 621 0
 1092 02c0 0021     		movs	r1, #0
 1093 02c2 0120     		movs	r0, #1
 1094 02c4 FFF7FEFF 		bl	LCD_Disp_Position
 622:..\app.c      ****                  LCD_Disp_PrintString((uint8 *)line_str);
 1095              		.loc 1 622 0
ARM GAS  C:\Users\alex\AppData\Local\Temp\ccrAtNPo.s 			page 33


 1096 02c8 07F10803 		add	r3, r7, #8
 1097 02cc 1846     		mov	r0, r3
 1098 02ce FFF7FEFF 		bl	LCD_Disp_PrintString
 623:..\app.c      ****                  break;
 1099              		.loc 1 623 0
 1100 02d2 2EE0     		b	.L35
 1101              	.L41:
 1102              		.align	2
 1103              	.L40:
 1104 02d4 40000000 		.word	.LC5
 1105 02d8 54000000 		.word	.LC6
 1106 02dc 68000000 		.word	.LC7
 1107 02e0 D34D6210 		.word	274877907
 1108 02e4 1F85EB51 		.word	1374389535
 1109 02e8 CDCCCCCC 		.word	-858993459
 1110 02ec 7C000000 		.word	.LC8
 1111 02f0 00000000 		.word	OSCfg_TickRate_Hz
 1112 02f4 90000000 		.word	.LC9
 1113 02f8 00000000 		.word	OSStatTaskCPUUsage
 1114 02fc A4000000 		.word	.LC10
 1115 0300 83DE1B43 		.word	1125899907
 1116 0304 B8000000 		.word	.LC11
 1117 0308 00000000 		.word	OSTickCtr
 1118 030c CC000000 		.word	.LC12
 1119 0310 00000000 		.word	OSTaskCtxSwCtr
 1120              	.L39:
 624:..\app.c      **** 
 625:..\app.c      ****             case APP_USER_IF_SIGN_ON:
 626:..\app.c      ****             default:
 627:..\app.c      ****                  LCD_Disp_Position(0u, 0u);
 1121              		.loc 1 627 0
 1122 0314 0021     		movs	r1, #0
 1123 0316 0020     		movs	r0, #0
 1124 0318 FFF7FEFF 		bl	LCD_Disp_Position
 628:..\app.c      ****                  LCD_Disp_PrintString((uint8 *)"=== Micrium === ");
 1125              		.loc 1 628 0
 1126 031c 2548     		ldr	r0, .L42
 1127 031e FFF7FEFF 		bl	LCD_Disp_PrintString
 629:..\app.c      ****                  LCD_Disp_Position(1u, 0u);
 1128              		.loc 1 629 0
 1129 0322 0021     		movs	r1, #0
 1130 0324 0120     		movs	r0, #1
 1131 0326 FFF7FEFF 		bl	LCD_Disp_Position
 630:..\app.c      ****                  LCD_Disp_PrintString((uint8 *)"   uC/OS-III    ");
 1132              		.loc 1 630 0
 1133 032a 2348     		ldr	r0, .L42+4
 1134 032c FFF7FEFF 		bl	LCD_Disp_PrintString
 631:..\app.c      ****                  break;
 1135              		.loc 1 631 0
 1136 0330 00BF     		nop
 1137              	.L35:
 632:..\app.c      ****         }
 633:..\app.c      **** 
 634:..\app.c      ****         pb2_state_cur = BSP_PB_StatusGet(2);
 1138              		.loc 1 634 0
 1139 0332 0220     		movs	r0, #2
 1140 0334 FFF7FEFF 		bl	BSP_PB_StatusGet
ARM GAS  C:\Users\alex\AppData\Local\Temp\ccrAtNPo.s 			page 34


 1141 0338 0346     		mov	r3, r0
 1142 033a 87F82330 		strb	r3, [r7, #35]
 635:..\app.c      ****         pb3_state_cur = BSP_PB_StatusGet(3);
 1143              		.loc 1 635 0
 1144 033e 0320     		movs	r0, #3
 1145 0340 FFF7FEFF 		bl	BSP_PB_StatusGet
 1146 0344 0346     		mov	r3, r0
 1147 0346 87F82230 		strb	r3, [r7, #34]
 636:..\app.c      ****         if ((pb2_state_cur  == DEF_ON ) &&
 1148              		.loc 1 636 0
 1149 034a 97F82330 		ldrb	r3, [r7, #35]	@ zero_extendqisi2
 1150 034e 012B     		cmp	r3, #1
 1151 0350 0BD1     		bne	.L36
 1152              		.loc 1 636 0 is_stmt 0 discriminator 1
 1153 0352 97F82530 		ldrb	r3, [r7, #37]	@ zero_extendqisi2
 1154 0356 002B     		cmp	r3, #0
 1155 0358 07D1     		bne	.L36
 637:..\app.c      ****             (pb2_state_prev == DEF_OFF)) {     
 638:..\app.c      ****             user_if_state_cur = (user_if_state_cur + 1u) % APP_USER_IF_STATE_MAX;
 1156              		.loc 1 638 0 is_stmt 1
 1157 035a 97F82730 		ldrb	r3, [r7, #39]
 1158 035e 0133     		adds	r3, r3, #1
 1159 0360 DBB2     		uxtb	r3, r3
 1160 0362 03F00303 		and	r3, r3, #3
 1161 0366 87F82730 		strb	r3, [r7, #39]
 1162              	.L36:
 639:..\app.c      ****         }
 640:..\app.c      **** 
 641:..\app.c      ****         if ((pb3_state_cur  == DEF_ON ) &&
 1163              		.loc 1 641 0
 1164 036a 97F82230 		ldrb	r3, [r7, #34]	@ zero_extendqisi2
 1165 036e 012B     		cmp	r3, #1
 1166 0370 0BD1     		bne	.L37
 1167              		.loc 1 641 0 is_stmt 0 discriminator 1
 1168 0372 97F82430 		ldrb	r3, [r7, #36]	@ zero_extendqisi2
 1169 0376 002B     		cmp	r3, #0
 1170 0378 07D1     		bne	.L37
 642:..\app.c      ****             (pb3_state_prev == DEF_OFF)) { 
 643:..\app.c      ****             user_if_state_cur = (user_if_state_cur - 1u) % APP_USER_IF_STATE_MAX;
 1171              		.loc 1 643 0 is_stmt 1
 1172 037a 97F82730 		ldrb	r3, [r7, #39]
 1173 037e 013B     		subs	r3, r3, #1
 1174 0380 DBB2     		uxtb	r3, r3
 1175 0382 03F00303 		and	r3, r3, #3
 1176 0386 87F82730 		strb	r3, [r7, #39]
 1177              	.L37:
 644:..\app.c      ****         }
 645:..\app.c      **** 
 646:..\app.c      ****         OSTimeDlyHMSM(0, 0, 0, 100, 
 1178              		.loc 1 646 0
 1179 038a 07F11A03 		add	r3, r7, #26
 1180 038e 0193     		str	r3, [sp, #4]
 1181 0390 0023     		movs	r3, #0
 1182 0392 0093     		str	r3, [sp]
 1183 0394 6423     		movs	r3, #100
 1184 0396 0022     		movs	r2, #0
 1185 0398 0021     		movs	r1, #0
ARM GAS  C:\Users\alex\AppData\Local\Temp\ccrAtNPo.s 			page 35


 1186 039a 0020     		movs	r0, #0
 1187 039c FFF7FEFF 		bl	OSTimeDlyHMSM
 647:..\app.c      ****                       OS_OPT_TIME_HMSM_STRICT, 
 648:..\app.c      ****                       &os_err);
 649:..\app.c      **** 
 650:..\app.c      ****         pb2_state_prev = pb2_state_cur;
 1188              		.loc 1 650 0
 1189 03a0 97F82330 		ldrb	r3, [r7, #35]
 1190 03a4 87F82530 		strb	r3, [r7, #37]
 651:..\app.c      ****         pb3_state_prev = pb3_state_cur;	
 1191              		.loc 1 651 0
 1192 03a8 97F82230 		ldrb	r3, [r7, #34]
 1193 03ac 87F82430 		strb	r3, [r7, #36]
 1194              	.LBE8:
 652:..\app.c      ****     }
 1195              		.loc 1 652 0
 1196 03b0 4FE6     		b	.L38
 1197              	.L43:
 1198 03b2 00BF     		.align	2
 1199              	.L42:
 1200 03b4 E0000000 		.word	.LC13
 1201 03b8 F4000000 		.word	.LC14
 1202              		.cfi_endproc
 1203              	.LFE73:
 1204              		.size	App_Task_Display, .-App_Task_Display
 1205              		.section	.text.App_ObjCreate,"ax",%progbits
 1206              		.align	2
 1207              		.thumb
 1208              		.thumb_func
 1209              		.type	App_ObjCreate, %function
 1210              	App_ObjCreate:
 1211              	.LFB74:
 653:..\app.c      **** }
 654:..\app.c      **** 
 655:..\app.c      **** 
 656:..\app.c      **** /*
 657:..\app.c      **** ***************************************************************************************************
 658:..\app.c      **** *                                          App_ObjCreate()
 659:..\app.c      **** *
 660:..\app.c      **** * Description : Create application kernel objects tasks.
 661:..\app.c      **** *
 662:..\app.c      **** * Argument(s) : none
 663:..\app.c      **** *
 664:..\app.c      **** * Return(s)   : none
 665:..\app.c      **** *
 666:..\app.c      **** * Caller(s)   : AppTaskStart()
 667:..\app.c      **** *
 668:..\app.c      **** * Note(s)     : none.
 669:..\app.c      **** ***************************************************************************************************
 670:..\app.c      **** */
 671:..\app.c      **** 
 672:..\app.c      **** static  void  App_ObjCreate (void)
 673:..\app.c      **** {
 1212              		.loc 1 673 0
 1213              		.cfi_startproc
 1214              		@ args = 0, pretend = 0, frame = 0
 1215              		@ frame_needed = 1, uses_anonymous_args = 0
ARM GAS  C:\Users\alex\AppData\Local\Temp\ccrAtNPo.s 			page 36


 1216              		@ link register save eliminated.
 1217 0000 80B4     		push	{r7}
 1218              		.cfi_def_cfa_offset 4
 1219              		.cfi_offset 7, -4
 1220 0002 00AF     		add	r7, sp, #0
 1221              		.cfi_def_cfa_register 7
 674:..\app.c      **** 
 675:..\app.c      **** }
 1222              		.loc 1 675 0
 1223 0004 00BF     		nop
 1224 0006 BD46     		mov	sp, r7
 1225              		.cfi_def_cfa_register 13
 1226              		@ sp needed
 1227 0008 80BC     		pop	{r7}
 1228              		.cfi_restore 7
 1229              		.cfi_def_cfa_offset 0
 1230 000a 7047     		bx	lr
 1231              		.cfi_endproc
 1232              	.LFE74:
 1233              		.size	App_ObjCreate, .-App_ObjCreate
 1234              		.section	.text.App_TaskUserIF,"ax",%progbits
 1235              		.align	2
 1236              		.thumb
 1237              		.thumb_func
 1238              		.type	App_TaskUserIF, %function
 1239              	App_TaskUserIF:
 1240              	.LFB75:
 676:..\app.c      **** 
 677:..\app.c      **** 
 678:..\app.c      **** /*
 679:..\app.c      **** ***************************************************************************************************
 680:..\app.c      **** *                                          App_TaskUserIF()
 681:..\app.c      **** *
 682:..\app.c      **** * Description : User interface task
 683:..\app.c      **** *
 684:..\app.c      **** * Argument(s) : p_arg   is the argument passed to 'App_TaskUserIF()' by 'OSTaskCreate()'.
 685:..\app.c      **** *
 686:..\app.c      **** * Return(s)   : none
 687:..\app.c      **** *
 688:..\app.c      **** * Note(s)     : 1) The first line of code is used to prevent a compiler warning because 'p_arg' is 
 689:..\app.c      **** *                  used.  The compiler should not generate any code for this statement.
 690:..\app.c      **** ***************************************************************************************************
 691:..\app.c      **** */
 692:..\app.c      **** 
 693:..\app.c      **** 
 694:..\app.c      **** static  void  App_TaskUserIF (void *p_arg)
 695:..\app.c      **** {
 1241              		.loc 1 695 0
 1242              		.cfi_startproc
 1243              		@ args = 0, pretend = 0, frame = 40
 1244              		@ frame_needed = 1, uses_anonymous_args = 0
 1245 0000 80B5     		push	{r7, lr}
 1246              		.cfi_def_cfa_offset 8
 1247              		.cfi_offset 7, -8
 1248              		.cfi_offset 14, -4
 1249 0002 8EB0     		sub	sp, sp, #56
 1250              		.cfi_def_cfa_offset 64
ARM GAS  C:\Users\alex\AppData\Local\Temp\ccrAtNPo.s 			page 37


 1251 0004 04AF     		add	r7, sp, #16
 1252              		.cfi_def_cfa 7, 48
 1253 0006 7860     		str	r0, [r7, #4]
 696:..\app.c      ****    CPU_INT32U   val;
 697:..\app.c      ****    CPU_INT08U   user_if_state_cur;
 698:..\app.c      ****    CPU_INT08U   user_if_state_prev;   
 699:..\app.c      ****    CPU_BOOLEAN  pb2_state_cur;
 700:..\app.c      ****    CPU_BOOLEAN  pb2_state_prev;
 701:..\app.c      ****    CPU_BOOLEAN  pb3_state_cur;
 702:..\app.c      ****    CPU_BOOLEAN  pb3_state_prev;
 703:..\app.c      ****    OS_ERR       os_err;
 704:..\app.c      ****    CPU_CHAR     line_str[17];
 705:..\app.c      ****    
 706:..\app.c      ****    
 707:..\app.c      ****    (void)p_arg;
 708:..\app.c      ****    
 709:..\app.c      ****    LCD_Disp_Start();                                             /* Initialize the LCD screen.     
 1254              		.loc 1 709 0
 1255 0008 FFF7FEFF 		bl	LCD_Disp_Start
 710:..\app.c      ****    
 711:..\app.c      ****    LCD_Disp_Position(0u, 0u);                                    /* Clear LCD screen               
 1256              		.loc 1 711 0
 1257 000c 0021     		movs	r1, #0
 1258 000e 0020     		movs	r0, #0
 1259 0010 FFF7FEFF 		bl	LCD_Disp_Position
 712:..\app.c      ****    LCD_Disp_PrintString((uint8 *)"                ");
 1260              		.loc 1 712 0
 1261 0014 AE48     		ldr	r0, .L56
 1262 0016 FFF7FEFF 		bl	LCD_Disp_PrintString
 713:..\app.c      ****    LCD_Disp_Position(1u, 0u);
 1263              		.loc 1 713 0
 1264 001a 0021     		movs	r1, #0
 1265 001c 0120     		movs	r0, #1
 1266 001e FFF7FEFF 		bl	LCD_Disp_Position
 714:..\app.c      ****    LCD_Disp_PrintString((uint8 *)"                ");
 1267              		.loc 1 714 0
 1268 0022 AB48     		ldr	r0, .L56
 1269 0024 FFF7FEFF 		bl	LCD_Disp_PrintString
 715:..\app.c      ****    
 716:..\app.c      ****    LCD_Disp_PrintString((uint8 *)"Micrium uC/OS-III");
 1270              		.loc 1 716 0
 1271 0028 AA48     		ldr	r0, .L56+4
 1272 002a FFF7FEFF 		bl	LCD_Disp_PrintString
 717:..\app.c      **** 
 718:..\app.c      ****    user_if_state_cur  = APP_USER_IF_SIGN_ON;
 1273              		.loc 1 718 0
 1274 002e 0023     		movs	r3, #0
 1275 0030 87F82730 		strb	r3, [r7, #39]
 719:..\app.c      ****    user_if_state_prev = APP_USER_IF_SIGN_ON;
 1276              		.loc 1 719 0
 1277 0034 0023     		movs	r3, #0
 1278 0036 87F82630 		strb	r3, [r7, #38]
 720:..\app.c      ****    pb2_state_cur      = DEF_OFF;
 1279              		.loc 1 720 0
 1280 003a 0023     		movs	r3, #0
 1281 003c 87F82330 		strb	r3, [r7, #35]
 721:..\app.c      ****    pb2_state_prev     = DEF_OFF;
ARM GAS  C:\Users\alex\AppData\Local\Temp\ccrAtNPo.s 			page 38


 1282              		.loc 1 721 0
 1283 0040 0023     		movs	r3, #0
 1284 0042 87F82530 		strb	r3, [r7, #37]
 722:..\app.c      ****    pb3_state_cur      = DEF_OFF;
 1285              		.loc 1 722 0
 1286 0046 0023     		movs	r3, #0
 1287 0048 87F82230 		strb	r3, [r7, #34]
 723:..\app.c      ****    pb3_state_prev     = DEF_OFF;
 1288              		.loc 1 723 0
 1289 004c 0023     		movs	r3, #0
 1290 004e 87F82430 		strb	r3, [r7, #36]
 1291              	.L54:
 724:..\app.c      ****    
 725:..\app.c      ****    
 726:..\app.c      ****     while (DEF_TRUE) {    
 727:..\app.c      **** 
 728:..\app.c      ****         if (user_if_state_cur != user_if_state_prev) {
 1292              		.loc 1 728 0
 1293 0052 97F82720 		ldrb	r2, [r7, #39]	@ zero_extendqisi2
 1294 0056 97F82630 		ldrb	r3, [r7, #38]	@ zero_extendqisi2
 1295 005a 9A42     		cmp	r2, r3
 1296 005c 11D0     		beq	.L46
 729:..\app.c      ****             LCD_Disp_Position(0u, 0u);
 1297              		.loc 1 729 0
 1298 005e 0021     		movs	r1, #0
 1299 0060 0020     		movs	r0, #0
 1300 0062 FFF7FEFF 		bl	LCD_Disp_Position
 730:..\app.c      ****             LCD_Disp_PrintString((uint8 *)"                ");
 1301              		.loc 1 730 0
 1302 0066 9A48     		ldr	r0, .L56
 1303 0068 FFF7FEFF 		bl	LCD_Disp_PrintString
 731:..\app.c      ****             LCD_Disp_Position(1u, 0u);
 1304              		.loc 1 731 0
 1305 006c 0021     		movs	r1, #0
 1306 006e 0120     		movs	r0, #1
 1307 0070 FFF7FEFF 		bl	LCD_Disp_Position
 732:..\app.c      ****             LCD_Disp_PrintString((uint8 *)"                ");
 1308              		.loc 1 732 0
 1309 0074 9648     		ldr	r0, .L56
 1310 0076 FFF7FEFF 		bl	LCD_Disp_PrintString
 733:..\app.c      ****             user_if_state_prev = user_if_state_cur;
 1311              		.loc 1 733 0
 1312 007a 97F82730 		ldrb	r3, [r7, #39]
 1313 007e 87F82630 		strb	r3, [r7, #38]
 1314              	.L46:
 734:..\app.c      ****         }
 735:..\app.c      **** 
 736:..\app.c      ****         switch (user_if_state_cur) {
 1315              		.loc 1 736 0
 1316 0082 97F82730 		ldrb	r3, [r7, #39]	@ zero_extendqisi2
 1317 0086 022B     		cmp	r3, #2
 1318 0088 76D0     		beq	.L48
 1319 008a 032B     		cmp	r3, #3
 1320 008c 00F0DE80 		beq	.L49
 1321 0090 012B     		cmp	r3, #1
 1322 0092 40F03D81 		bne	.L55
 737:..\app.c      ****             case APP_USER_IF_VER_TICK_RATE:
ARM GAS  C:\Users\alex\AppData\Local\Temp\ccrAtNPo.s 			page 39


 738:..\app.c      ****                  Str_Copy(line_str, "uC/OS-III Vx.yyy");
 1323              		.loc 1 738 0
 1324 0096 07F10803 		add	r3, r7, #8
 1325 009a 8F49     		ldr	r1, .L56+8
 1326 009c 1846     		mov	r0, r3
 1327 009e FFF7FEFF 		bl	Str_Copy
 739:..\app.c      ****                  val          = (CPU_INT32U)OSVersion(&os_err);
 1328              		.loc 1 739 0
 1329 00a2 07F11A03 		add	r3, r7, #26
 1330 00a6 1846     		mov	r0, r3
 1331 00a8 FFF7FEFF 		bl	OSVersion
 1332 00ac 0346     		mov	r3, r0
 1333 00ae FB61     		str	r3, [r7, #28]
 740:..\app.c      ****                  line_str[11] = (val        )  / 1000u + '0';
 1334              		.loc 1 740 0
 1335 00b0 FB69     		ldr	r3, [r7, #28]
 1336 00b2 8A4A     		ldr	r2, .L56+12
 1337 00b4 A2FB0323 		umull	r2, r3, r2, r3
 1338 00b8 9B09     		lsrs	r3, r3, #6
 1339 00ba DBB2     		uxtb	r3, r3
 1340 00bc 3033     		adds	r3, r3, #48
 1341 00be DBB2     		uxtb	r3, r3
 1342 00c0 FB74     		strb	r3, [r7, #19]
 741:..\app.c      ****                  line_str[13] = (val % 1000u)  /  100u + '0';
 1343              		.loc 1 741 0
 1344 00c2 FA69     		ldr	r2, [r7, #28]
 1345 00c4 854B     		ldr	r3, .L56+12
 1346 00c6 A3FB0213 		umull	r1, r3, r3, r2
 1347 00ca 9B09     		lsrs	r3, r3, #6
 1348 00cc 4FF47A71 		mov	r1, #1000
 1349 00d0 01FB03F3 		mul	r3, r1, r3
 1350 00d4 D31A     		subs	r3, r2, r3
 1351 00d6 824A     		ldr	r2, .L56+16
 1352 00d8 A2FB0323 		umull	r2, r3, r2, r3
 1353 00dc 5B09     		lsrs	r3, r3, #5
 1354 00de DBB2     		uxtb	r3, r3
 1355 00e0 3033     		adds	r3, r3, #48
 1356 00e2 DBB2     		uxtb	r3, r3
 1357 00e4 7B75     		strb	r3, [r7, #21]
 742:..\app.c      ****                  line_str[14] = (val %  100u)  /   10u + '0';
 1358              		.loc 1 742 0
 1359 00e6 FA69     		ldr	r2, [r7, #28]
 1360 00e8 7D4B     		ldr	r3, .L56+16
 1361 00ea A3FB0213 		umull	r1, r3, r3, r2
 1362 00ee 5B09     		lsrs	r3, r3, #5
 1363 00f0 6421     		movs	r1, #100
 1364 00f2 01FB03F3 		mul	r3, r1, r3
 1365 00f6 D31A     		subs	r3, r2, r3
 1366 00f8 7A4A     		ldr	r2, .L56+20
 1367 00fa A2FB0323 		umull	r2, r3, r2, r3
 1368 00fe DB08     		lsrs	r3, r3, #3
 1369 0100 DBB2     		uxtb	r3, r3
 1370 0102 3033     		adds	r3, r3, #48
 1371 0104 DBB2     		uxtb	r3, r3
 1372 0106 BB75     		strb	r3, [r7, #22]
 743:..\app.c      ****                  line_str[15] = (val %   10u)          + '0';
 1373              		.loc 1 743 0
ARM GAS  C:\Users\alex\AppData\Local\Temp\ccrAtNPo.s 			page 40


 1374 0108 F969     		ldr	r1, [r7, #28]
 1375 010a 764B     		ldr	r3, .L56+20
 1376 010c A3FB0123 		umull	r2, r3, r3, r1
 1377 0110 DA08     		lsrs	r2, r3, #3
 1378 0112 1346     		mov	r3, r2
 1379 0114 9B00     		lsls	r3, r3, #2
 1380 0116 1344     		add	r3, r3, r2
 1381 0118 5B00     		lsls	r3, r3, #1
 1382 011a CA1A     		subs	r2, r1, r3
 1383 011c D3B2     		uxtb	r3, r2
 1384 011e 3033     		adds	r3, r3, #48
 1385 0120 DBB2     		uxtb	r3, r3
 1386 0122 FB75     		strb	r3, [r7, #23]
 744:..\app.c      ****                  LCD_Disp_Position(0u, 0u);
 1387              		.loc 1 744 0
 1388 0124 0021     		movs	r1, #0
 1389 0126 0020     		movs	r0, #0
 1390 0128 FFF7FEFF 		bl	LCD_Disp_Position
 745:..\app.c      ****                  LCD_Disp_PrintString((uint8 *)line_str);
 1391              		.loc 1 745 0
 1392 012c 07F10803 		add	r3, r7, #8
 1393 0130 1846     		mov	r0, r3
 1394 0132 FFF7FEFF 		bl	LCD_Disp_PrintString
 746:..\app.c      **** 
 747:..\app.c      ****                  Str_Copy(line_str, "TickRate:   xxxx");
 1395              		.loc 1 747 0
 1396 0136 07F10803 		add	r3, r7, #8
 1397 013a 6B49     		ldr	r1, .L56+24
 1398 013c 1846     		mov	r0, r3
 1399 013e FFF7FEFF 		bl	Str_Copy
 748:..\app.c      ****                  val = (CPU_INT32U)OSCfg_TickRate_Hz;
 1400              		.loc 1 748 0
 1401 0142 6A4B     		ldr	r3, .L56+28
 1402 0144 1B68     		ldr	r3, [r3]
 1403 0146 FB61     		str	r3, [r7, #28]
 749:..\app.c      ****                  Str_FmtNbr_Int32U((CPU_INT32U     )val, 
 1404              		.loc 1 749 0
 1405 0148 07F10803 		add	r3, r7, #8
 1406 014c 0C33     		adds	r3, r3, #12
 1407 014e 0293     		str	r3, [sp, #8]
 1408 0150 0123     		movs	r3, #1
 1409 0152 0193     		str	r3, [sp, #4]
 1410 0154 0023     		movs	r3, #0
 1411 0156 0093     		str	r3, [sp]
 1412 0158 0023     		movs	r3, #0
 1413 015a 0A22     		movs	r2, #10
 1414 015c 0421     		movs	r1, #4
 1415 015e F869     		ldr	r0, [r7, #28]
 1416 0160 FFF7FEFF 		bl	Str_FmtNbr_Int32U
 750:..\app.c      ****                                    (CPU_INT08U     )4u,
 751:..\app.c      ****                                    (CPU_INT08U     )10,
 752:..\app.c      ****                                    (CPU_CHAR       )0,
 753:..\app.c      ****                                    (CPU_BOOLEAN    )DEF_NO,
 754:..\app.c      ****                                    (CPU_BOOLEAN    )DEF_YES,
 755:..\app.c      ****                                    (CPU_CHAR      *)&line_str[12]);
 756:..\app.c      ****                  LCD_Disp_Position(1u, 0u);
 1417              		.loc 1 756 0
ARM GAS  C:\Users\alex\AppData\Local\Temp\ccrAtNPo.s 			page 41


 1418 0164 0021     		movs	r1, #0
 1419 0166 0120     		movs	r0, #1
 1420 0168 FFF7FEFF 		bl	LCD_Disp_Position
 757:..\app.c      ****                  LCD_Disp_PrintString((uint8 *)line_str);
 1421              		.loc 1 757 0
 1422 016c 07F10803 		add	r3, r7, #8
 1423 0170 1846     		mov	r0, r3
 1424 0172 FFF7FEFF 		bl	LCD_Disp_PrintString
 758:..\app.c      ****                  break;
 1425              		.loc 1 758 0
 1426 0176 DAE0     		b	.L51
 1427              	.L48:
 759:..\app.c      **** 
 760:..\app.c      ****             case APP_USER_IF_CPU:
 761:..\app.c      ****                  Str_Copy(line_str, "CPU Usage:xx %  ");
 1428              		.loc 1 761 0
 1429 0178 07F10803 		add	r3, r7, #8
 1430 017c 5C49     		ldr	r1, .L56+32
 1431 017e 1846     		mov	r0, r3
 1432 0180 FFF7FEFF 		bl	Str_Copy
 762:..\app.c      ****                  val          = (CPU_INT32U)OSStatTaskCPUUsage;
 1433              		.loc 1 762 0
 1434 0184 5B4B     		ldr	r3, .L56+36
 1435 0186 1B88     		ldrh	r3, [r3]
 1436 0188 FB61     		str	r3, [r7, #28]
 763:..\app.c      ****                  line_str[10] = (val / 10u) + '0';
 1437              		.loc 1 763 0
 1438 018a FB69     		ldr	r3, [r7, #28]
 1439 018c 554A     		ldr	r2, .L56+20
 1440 018e A2FB0323 		umull	r2, r3, r2, r3
 1441 0192 DB08     		lsrs	r3, r3, #3
 1442 0194 DBB2     		uxtb	r3, r3
 1443 0196 3033     		adds	r3, r3, #48
 1444 0198 DBB2     		uxtb	r3, r3
 1445 019a BB74     		strb	r3, [r7, #18]
 764:..\app.c      ****                  line_str[11] = (val % 10u) + '0';
 1446              		.loc 1 764 0
 1447 019c F969     		ldr	r1, [r7, #28]
 1448 019e 514B     		ldr	r3, .L56+20
 1449 01a0 A3FB0123 		umull	r2, r3, r3, r1
 1450 01a4 DA08     		lsrs	r2, r3, #3
 1451 01a6 1346     		mov	r3, r2
 1452 01a8 9B00     		lsls	r3, r3, #2
 1453 01aa 1344     		add	r3, r3, r2
 1454 01ac 5B00     		lsls	r3, r3, #1
 1455 01ae CA1A     		subs	r2, r1, r3
 1456 01b0 D3B2     		uxtb	r3, r2
 1457 01b2 3033     		adds	r3, r3, #48
 1458 01b4 DBB2     		uxtb	r3, r3
 1459 01b6 FB74     		strb	r3, [r7, #19]
 765:..\app.c      ****                  LCD_Disp_Position(0u, 0u);
 1460              		.loc 1 765 0
 1461 01b8 0021     		movs	r1, #0
 1462 01ba 0020     		movs	r0, #0
 1463 01bc FFF7FEFF 		bl	LCD_Disp_Position
 766:..\app.c      ****                  LCD_Disp_PrintString((uint8 *)line_str);
 1464              		.loc 1 766 0
ARM GAS  C:\Users\alex\AppData\Local\Temp\ccrAtNPo.s 			page 42


 1465 01c0 07F10803 		add	r3, r7, #8
 1466 01c4 1846     		mov	r0, r3
 1467 01c6 FFF7FEFF 		bl	LCD_Disp_PrintString
 767:..\app.c      ****                  
 768:..\app.c      ****                  Str_Copy(line_str, "CPU Speed:xxxMHz");
 1468              		.loc 1 768 0
 1469 01ca 07F10803 		add	r3, r7, #8
 1470 01ce 4A49     		ldr	r1, .L56+40
 1471 01d0 1846     		mov	r0, r3
 1472 01d2 FFF7FEFF 		bl	Str_Copy
 769:..\app.c      ****                  val          = (CPU_INT32U)BSP_CPU_ClkFreq();
 1473              		.loc 1 769 0
 1474 01d6 FFF7FEFF 		bl	BSP_CPU_ClkFreq
 1475 01da F861     		str	r0, [r7, #28]
 770:..\app.c      ****                  val         /= 1000000u;
 1476              		.loc 1 770 0
 1477 01dc FB69     		ldr	r3, [r7, #28]
 1478 01de 474A     		ldr	r2, .L56+44
 1479 01e0 A2FB0323 		umull	r2, r3, r2, r3
 1480 01e4 9B0C     		lsrs	r3, r3, #18
 1481 01e6 FB61     		str	r3, [r7, #28]
 771:..\app.c      ****                  line_str[10] = (val       ) / 100u + '0';
 1482              		.loc 1 771 0
 1483 01e8 FB69     		ldr	r3, [r7, #28]
 1484 01ea 3D4A     		ldr	r2, .L56+16
 1485 01ec A2FB0323 		umull	r2, r3, r2, r3
 1486 01f0 5B09     		lsrs	r3, r3, #5
 1487 01f2 DBB2     		uxtb	r3, r3
 1488 01f4 3033     		adds	r3, r3, #48
 1489 01f6 DBB2     		uxtb	r3, r3
 1490 01f8 BB74     		strb	r3, [r7, #18]
 772:..\app.c      ****                  line_str[11] = (val % 100u) /  10u + '0';
 1491              		.loc 1 772 0
 1492 01fa FA69     		ldr	r2, [r7, #28]
 1493 01fc 384B     		ldr	r3, .L56+16
 1494 01fe A3FB0213 		umull	r1, r3, r3, r2
 1495 0202 5B09     		lsrs	r3, r3, #5
 1496 0204 6421     		movs	r1, #100
 1497 0206 01FB03F3 		mul	r3, r1, r3
 1498 020a D31A     		subs	r3, r2, r3
 1499 020c 354A     		ldr	r2, .L56+20
 1500 020e A2FB0323 		umull	r2, r3, r2, r3
 1501 0212 DB08     		lsrs	r3, r3, #3
 1502 0214 DBB2     		uxtb	r3, r3
 1503 0216 3033     		adds	r3, r3, #48
 1504 0218 DBB2     		uxtb	r3, r3
 1505 021a FB74     		strb	r3, [r7, #19]
 773:..\app.c      ****                  line_str[12] = (val % 10u)         + '0';
 1506              		.loc 1 773 0
 1507 021c F969     		ldr	r1, [r7, #28]
 1508 021e 314B     		ldr	r3, .L56+20
 1509 0220 A3FB0123 		umull	r2, r3, r3, r1
 1510 0224 DA08     		lsrs	r2, r3, #3
 1511 0226 1346     		mov	r3, r2
 1512 0228 9B00     		lsls	r3, r3, #2
 1513 022a 1344     		add	r3, r3, r2
 1514 022c 5B00     		lsls	r3, r3, #1
ARM GAS  C:\Users\alex\AppData\Local\Temp\ccrAtNPo.s 			page 43


 1515 022e CA1A     		subs	r2, r1, r3
 1516 0230 D3B2     		uxtb	r3, r2
 1517 0232 3033     		adds	r3, r3, #48
 1518 0234 DBB2     		uxtb	r3, r3
 1519 0236 3B75     		strb	r3, [r7, #20]
 774:..\app.c      ****                  LCD_Disp_Position(1u, 0u);
 1520              		.loc 1 774 0
 1521 0238 0021     		movs	r1, #0
 1522 023a 0120     		movs	r0, #1
 1523 023c FFF7FEFF 		bl	LCD_Disp_Position
 775:..\app.c      ****                  LCD_Disp_PrintString((uint8 *)line_str);
 1524              		.loc 1 775 0
 1525 0240 07F10803 		add	r3, r7, #8
 1526 0244 1846     		mov	r0, r3
 1527 0246 FFF7FEFF 		bl	LCD_Disp_PrintString
 776:..\app.c      ****                  break;
 1528              		.loc 1 776 0
 1529 024a 70E0     		b	.L51
 1530              	.L49:
 777:..\app.c      **** 
 778:..\app.c      ****             case APP_USER_IF_CTXSW:
 779:..\app.c      ****                  Str_Copy(line_str, "#Ticks: xxxxxxxx");
 1531              		.loc 1 779 0
 1532 024c 07F10803 		add	r3, r7, #8
 1533 0250 2B49     		ldr	r1, .L56+48
 1534 0252 1846     		mov	r0, r3
 1535 0254 FFF7FEFF 		bl	Str_Copy
 780:..\app.c      ****                  val = (CPU_INT32U)OSTickCtr;
 1536              		.loc 1 780 0
 1537 0258 2A4B     		ldr	r3, .L56+52
 1538 025a 1B68     		ldr	r3, [r3]
 1539 025c FB61     		str	r3, [r7, #28]
 781:..\app.c      ****                  Str_FmtNbr_Int32U((CPU_INT32U     )val, 
 1540              		.loc 1 781 0
 1541 025e 07F10803 		add	r3, r7, #8
 1542 0262 0833     		adds	r3, r3, #8
 1543 0264 0293     		str	r3, [sp, #8]
 1544 0266 0123     		movs	r3, #1
 1545 0268 0193     		str	r3, [sp, #4]
 1546 026a 0023     		movs	r3, #0
 1547 026c 0093     		str	r3, [sp]
 1548 026e 0023     		movs	r3, #0
 1549 0270 0A22     		movs	r2, #10
 1550 0272 0821     		movs	r1, #8
 1551 0274 F869     		ldr	r0, [r7, #28]
 1552 0276 FFF7FEFF 		bl	Str_FmtNbr_Int32U
 782:..\app.c      ****                                    (CPU_INT08U     )8u,
 783:..\app.c      ****                                    (CPU_INT08U     )10,
 784:..\app.c      ****                                    (CPU_CHAR       )0,
 785:..\app.c      ****                                    (CPU_BOOLEAN    )DEF_NO,
 786:..\app.c      ****                                    (CPU_BOOLEAN    )DEF_YES,
 787:..\app.c      ****                                    (CPU_CHAR      *)&line_str[8]);
 788:..\app.c      ****                  LCD_Disp_Position(0u, 0u);
 1553              		.loc 1 788 0
 1554 027a 0021     		movs	r1, #0
 1555 027c 0020     		movs	r0, #0
 1556 027e FFF7FEFF 		bl	LCD_Disp_Position
ARM GAS  C:\Users\alex\AppData\Local\Temp\ccrAtNPo.s 			page 44


 789:..\app.c      ****                  LCD_Disp_PrintString((uint8 *)line_str);
 1557              		.loc 1 789 0
 1558 0282 07F10803 		add	r3, r7, #8
 1559 0286 1846     		mov	r0, r3
 1560 0288 FFF7FEFF 		bl	LCD_Disp_PrintString
 790:..\app.c      ****                  
 791:..\app.c      ****                  Str_Copy(line_str, "#CtxSw: xxxxxxxx");
 1561              		.loc 1 791 0
 1562 028c 07F10803 		add	r3, r7, #8
 1563 0290 1D49     		ldr	r1, .L56+56
 1564 0292 1846     		mov	r0, r3
 1565 0294 FFF7FEFF 		bl	Str_Copy
 792:..\app.c      ****                  val          = (CPU_INT32U)OSTaskCtxSwCtr;
 1566              		.loc 1 792 0
 1567 0298 1C4B     		ldr	r3, .L56+60
 1568 029a 1B68     		ldr	r3, [r3]
 1569 029c FB61     		str	r3, [r7, #28]
 793:..\app.c      ****                  Str_FmtNbr_Int32U((CPU_INT32U     )val, 
 1570              		.loc 1 793 0
 1571 029e 07F10803 		add	r3, r7, #8
 1572 02a2 0833     		adds	r3, r3, #8
 1573 02a4 0293     		str	r3, [sp, #8]
 1574 02a6 0123     		movs	r3, #1
 1575 02a8 0193     		str	r3, [sp, #4]
 1576 02aa 0023     		movs	r3, #0
 1577 02ac 0093     		str	r3, [sp]
 1578 02ae 0023     		movs	r3, #0
 1579 02b0 0A22     		movs	r2, #10
 1580 02b2 0821     		movs	r1, #8
 1581 02b4 F869     		ldr	r0, [r7, #28]
 1582 02b6 FFF7FEFF 		bl	Str_FmtNbr_Int32U
 794:..\app.c      ****                                    (CPU_INT08U     )8u,
 795:..\app.c      ****                                    (CPU_INT08U     )10,
 796:..\app.c      ****                                    (CPU_CHAR       )0,
 797:..\app.c      ****                                    (CPU_BOOLEAN    )DEF_NO,
 798:..\app.c      ****                                    (CPU_BOOLEAN    )DEF_YES,
 799:..\app.c      ****                                    (CPU_CHAR      *)&line_str[8]);
 800:..\app.c      ****                  LCD_Disp_Position(1u, 0u);
 1583              		.loc 1 800 0
 1584 02ba 0021     		movs	r1, #0
 1585 02bc 0120     		movs	r0, #1
 1586 02be FFF7FEFF 		bl	LCD_Disp_Position
 801:..\app.c      ****                  LCD_Disp_PrintString((uint8 *)line_str);
 1587              		.loc 1 801 0
 1588 02c2 07F10803 		add	r3, r7, #8
 1589 02c6 1846     		mov	r0, r3
 1590 02c8 FFF7FEFF 		bl	LCD_Disp_PrintString
 802:..\app.c      ****                  break;
 1591              		.loc 1 802 0
 1592 02cc 2FE0     		b	.L51
 1593              	.L57:
 1594 02ce 00BF     		.align	2
 1595              	.L56:
 1596 02d0 40000000 		.word	.LC5
 1597 02d4 54000000 		.word	.LC6
 1598 02d8 68000000 		.word	.LC7
 1599 02dc D34D6210 		.word	274877907
ARM GAS  C:\Users\alex\AppData\Local\Temp\ccrAtNPo.s 			page 45


 1600 02e0 1F85EB51 		.word	1374389535
 1601 02e4 CDCCCCCC 		.word	-858993459
 1602 02e8 7C000000 		.word	.LC8
 1603 02ec 00000000 		.word	OSCfg_TickRate_Hz
 1604 02f0 90000000 		.word	.LC9
 1605 02f4 00000000 		.word	OSStatTaskCPUUsage
 1606 02f8 A4000000 		.word	.LC10
 1607 02fc 83DE1B43 		.word	1125899907
 1608 0300 B8000000 		.word	.LC11
 1609 0304 00000000 		.word	OSTickCtr
 1610 0308 CC000000 		.word	.LC12
 1611 030c 00000000 		.word	OSTaskCtxSwCtr
 1612              	.L55:
 803:..\app.c      **** 
 804:..\app.c      ****             case APP_USER_IF_SIGN_ON:
 805:..\app.c      ****             default:
 806:..\app.c      ****                  LCD_Disp_Position(0u, 0u);
 1613              		.loc 1 806 0
 1614 0310 0021     		movs	r1, #0
 1615 0312 0020     		movs	r0, #0
 1616 0314 FFF7FEFF 		bl	LCD_Disp_Position
 807:..\app.c      ****                  LCD_Disp_PrintString((uint8 *)"=== Micrium === ");
 1617              		.loc 1 807 0
 1618 0318 2548     		ldr	r0, .L58
 1619 031a FFF7FEFF 		bl	LCD_Disp_PrintString
 808:..\app.c      ****                  LCD_Disp_Position(1u, 0u);
 1620              		.loc 1 808 0
 1621 031e 0021     		movs	r1, #0
 1622 0320 0120     		movs	r0, #1
 1623 0322 FFF7FEFF 		bl	LCD_Disp_Position
 809:..\app.c      ****                  LCD_Disp_PrintString((uint8 *)"   uC/OS-III    ");
 1624              		.loc 1 809 0
 1625 0326 2348     		ldr	r0, .L58+4
 1626 0328 FFF7FEFF 		bl	LCD_Disp_PrintString
 810:..\app.c      ****                  break;
 1627              		.loc 1 810 0
 1628 032c 00BF     		nop
 1629              	.L51:
 811:..\app.c      ****         }
 812:..\app.c      **** 
 813:..\app.c      ****         pb2_state_cur = BSP_PB_StatusGet(2);
 1630              		.loc 1 813 0
 1631 032e 0220     		movs	r0, #2
 1632 0330 FFF7FEFF 		bl	BSP_PB_StatusGet
 1633 0334 0346     		mov	r3, r0
 1634 0336 87F82330 		strb	r3, [r7, #35]
 814:..\app.c      ****         pb3_state_cur = BSP_PB_StatusGet(3);
 1635              		.loc 1 814 0
 1636 033a 0320     		movs	r0, #3
 1637 033c FFF7FEFF 		bl	BSP_PB_StatusGet
 1638 0340 0346     		mov	r3, r0
 1639 0342 87F82230 		strb	r3, [r7, #34]
 815:..\app.c      ****         if ((pb2_state_cur  == DEF_ON ) &&
 1640              		.loc 1 815 0
 1641 0346 97F82330 		ldrb	r3, [r7, #35]	@ zero_extendqisi2
 1642 034a 012B     		cmp	r3, #1
 1643 034c 0BD1     		bne	.L52
ARM GAS  C:\Users\alex\AppData\Local\Temp\ccrAtNPo.s 			page 46


 1644              		.loc 1 815 0 is_stmt 0 discriminator 1
 1645 034e 97F82530 		ldrb	r3, [r7, #37]	@ zero_extendqisi2
 1646 0352 002B     		cmp	r3, #0
 1647 0354 07D1     		bne	.L52
 816:..\app.c      ****             (pb2_state_prev == DEF_OFF)) {     
 817:..\app.c      ****             user_if_state_cur = (user_if_state_cur + 1u) % APP_USER_IF_STATE_MAX;
 1648              		.loc 1 817 0 is_stmt 1
 1649 0356 97F82730 		ldrb	r3, [r7, #39]
 1650 035a 0133     		adds	r3, r3, #1
 1651 035c DBB2     		uxtb	r3, r3
 1652 035e 03F00303 		and	r3, r3, #3
 1653 0362 87F82730 		strb	r3, [r7, #39]
 1654              	.L52:
 818:..\app.c      ****         }
 819:..\app.c      **** 
 820:..\app.c      ****         if ((pb3_state_cur  == DEF_ON ) &&
 1655              		.loc 1 820 0
 1656 0366 97F82230 		ldrb	r3, [r7, #34]	@ zero_extendqisi2
 1657 036a 012B     		cmp	r3, #1
 1658 036c 0BD1     		bne	.L53
 1659              		.loc 1 820 0 is_stmt 0 discriminator 1
 1660 036e 97F82430 		ldrb	r3, [r7, #36]	@ zero_extendqisi2
 1661 0372 002B     		cmp	r3, #0
 1662 0374 07D1     		bne	.L53
 821:..\app.c      ****             (pb3_state_prev == DEF_OFF)) { 
 822:..\app.c      ****             user_if_state_cur = (user_if_state_cur - 1u) % APP_USER_IF_STATE_MAX;
 1663              		.loc 1 822 0 is_stmt 1
 1664 0376 97F82730 		ldrb	r3, [r7, #39]
 1665 037a 013B     		subs	r3, r3, #1
 1666 037c DBB2     		uxtb	r3, r3
 1667 037e 03F00303 		and	r3, r3, #3
 1668 0382 87F82730 		strb	r3, [r7, #39]
 1669              	.L53:
 823:..\app.c      ****         }
 824:..\app.c      **** 
 825:..\app.c      ****         OSTimeDlyHMSM(0, 0, 0, 100, 
 1670              		.loc 1 825 0
 1671 0386 07F11A03 		add	r3, r7, #26
 1672 038a 0193     		str	r3, [sp, #4]
 1673 038c 0023     		movs	r3, #0
 1674 038e 0093     		str	r3, [sp]
 1675 0390 6423     		movs	r3, #100
 1676 0392 0022     		movs	r2, #0
 1677 0394 0021     		movs	r1, #0
 1678 0396 0020     		movs	r0, #0
 1679 0398 FFF7FEFF 		bl	OSTimeDlyHMSM
 826:..\app.c      ****                       OS_OPT_TIME_HMSM_STRICT, 
 827:..\app.c      ****                       &os_err);
 828:..\app.c      **** 
 829:..\app.c      ****         pb2_state_prev = pb2_state_cur;
 1680              		.loc 1 829 0
 1681 039c 97F82330 		ldrb	r3, [r7, #35]
 1682 03a0 87F82530 		strb	r3, [r7, #37]
 830:..\app.c      ****         pb3_state_prev = pb3_state_cur;	
 1683              		.loc 1 830 0
 1684 03a4 97F82230 		ldrb	r3, [r7, #34]
 1685 03a8 87F82430 		strb	r3, [r7, #36]
ARM GAS  C:\Users\alex\AppData\Local\Temp\ccrAtNPo.s 			page 47


 831:..\app.c      ****     }
 1686              		.loc 1 831 0
 1687 03ac 51E6     		b	.L54
 1688              	.L59:
 1689 03ae 00BF     		.align	2
 1690              	.L58:
 1691 03b0 E0000000 		.word	.LC13
 1692 03b4 F4000000 		.word	.LC14
 1693              		.cfi_endproc
 1694              	.LFE75:
 1695              		.size	App_TaskUserIF, .-App_TaskUserIF
 1696              		.section	.text.statusMotor,"ax",%progbits
 1697              		.align	2
 1698              		.global	statusMotor
 1699              		.thumb
 1700              		.thumb_func
 1701              		.type	statusMotor, %function
 1702              	statusMotor:
 1703              	.LFB76:
 832:..\app.c      **** }
 833:..\app.c      **** 
 834:..\app.c      **** /* desenvolvimento das funcoes */
 835:..\app.c      **** 
 836:..\app.c      **** void statusMotor(CPU_INT08U op){
 1704              		.loc 1 836 0
 1705              		.cfi_startproc
 1706              		@ args = 0, pretend = 0, frame = 8
 1707              		@ frame_needed = 1, uses_anonymous_args = 0
 1708 0000 80B5     		push	{r7, lr}
 1709              		.cfi_def_cfa_offset 8
 1710              		.cfi_offset 7, -8
 1711              		.cfi_offset 14, -4
 1712 0002 82B0     		sub	sp, sp, #8
 1713              		.cfi_def_cfa_offset 16
 1714 0004 00AF     		add	r7, sp, #0
 1715              		.cfi_def_cfa_register 7
 1716 0006 0346     		mov	r3, r0
 1717 0008 FB71     		strb	r3, [r7, #7]
 837:..\app.c      ****     
 838:..\app.c      ****     if(op){
 1718              		.loc 1 838 0
 1719 000a FB79     		ldrb	r3, [r7, #7]	@ zero_extendqisi2
 1720 000c 002B     		cmp	r3, #0
 1721 000e 09D0     		beq	.L61
 1722              	.LBB9:
 839:..\app.c      ****         ct_motor_Write(LIGA);  // liga contator
 1723              		.loc 1 839 0
 1724 0010 0120     		movs	r0, #1
 1725 0012 FFF7FEFF 		bl	ct_motor_Write
 840:..\app.c      ****         si_liga_Write(LIGA);   // liga sinaleira motor liga
 1726              		.loc 1 840 0
 1727 0016 0120     		movs	r0, #1
 1728 0018 FFF7FEFF 		bl	si_liga_Write
 841:..\app.c      ****         si_desl_Write(DESL);   // desl sinaleira motor desl
 1729              		.loc 1 841 0
 1730 001c 0020     		movs	r0, #0
 1731 001e FFF7FEFF 		bl	si_desl_Write
ARM GAS  C:\Users\alex\AppData\Local\Temp\ccrAtNPo.s 			page 48


 1732              	.LBE9:
 842:..\app.c      ****                
 843:..\app.c      ****     }
 844:..\app.c      ****     else{
 845:..\app.c      ****         ct_motor_Write(DESL);   // desl contator
 846:..\app.c      ****         si_liga_Write(DESL);    // desl sinaleira motor liga
 847:..\app.c      ****         si_desl_Write(LIGA);    // liga sinaleira motor desl
 848:..\app.c      ****         
 849:..\app.c      ****     }
 850:..\app.c      ****     
 851:..\app.c      **** }
 1733              		.loc 1 851 0
 1734 0022 08E0     		b	.L63
 1735              	.L61:
 1736              	.LBB10:
 845:..\app.c      ****         si_liga_Write(DESL);    // desl sinaleira motor liga
 1737              		.loc 1 845 0
 1738 0024 0020     		movs	r0, #0
 1739 0026 FFF7FEFF 		bl	ct_motor_Write
 846:..\app.c      ****         si_desl_Write(LIGA);    // liga sinaleira motor desl
 1740              		.loc 1 846 0
 1741 002a 0020     		movs	r0, #0
 1742 002c FFF7FEFF 		bl	si_liga_Write
 847:..\app.c      ****         
 1743              		.loc 1 847 0
 1744 0030 0120     		movs	r0, #1
 1745 0032 FFF7FEFF 		bl	si_desl_Write
 1746              	.L63:
 1747              	.LBE10:
 1748              		.loc 1 851 0
 1749 0036 00BF     		nop
 1750 0038 0837     		adds	r7, r7, #8
 1751              		.cfi_def_cfa_offset 8
 1752 003a BD46     		mov	sp, r7
 1753              		.cfi_def_cfa_register 13
 1754              		@ sp needed
 1755 003c 80BD     		pop	{r7, pc}
 1756              		.cfi_endproc
 1757              	.LFE76:
 1758              		.size	statusMotor, .-statusMotor
 1759 003e 00BF     		.section	.text.statusRearme,"ax",%progbits
 1760              		.align	2
 1761              		.global	statusRearme
 1762              		.thumb
 1763              		.thumb_func
 1764              		.type	statusRearme, %function
 1765              	statusRearme:
 1766              	.LFB77:
 852:..\app.c      **** 
 853:..\app.c      **** void statusRearme(CPU_INT08U op){
 1767              		.loc 1 853 0
 1768              		.cfi_startproc
 1769              		@ args = 0, pretend = 0, frame = 8
 1770              		@ frame_needed = 1, uses_anonymous_args = 0
 1771 0000 80B5     		push	{r7, lr}
 1772              		.cfi_def_cfa_offset 8
 1773              		.cfi_offset 7, -8
ARM GAS  C:\Users\alex\AppData\Local\Temp\ccrAtNPo.s 			page 49


 1774              		.cfi_offset 14, -4
 1775 0002 82B0     		sub	sp, sp, #8
 1776              		.cfi_def_cfa_offset 16
 1777 0004 00AF     		add	r7, sp, #0
 1778              		.cfi_def_cfa_register 7
 1779 0006 0346     		mov	r3, r0
 1780 0008 FB71     		strb	r3, [r7, #7]
 854:..\app.c      ****     
 855:..\app.c      ****     if(op){
 1781              		.loc 1 855 0
 1782 000a FB79     		ldrb	r3, [r7, #7]	@ zero_extendqisi2
 1783 000c 002B     		cmp	r3, #0
 1784 000e 06D0     		beq	.L65
 1785              	.LBB11:
 856:..\app.c      ****         si_rearme_Write(LIGA);  // liga sinaleira rearme
 1786              		.loc 1 856 0
 1787 0010 0120     		movs	r0, #1
 1788 0012 FFF7FEFF 		bl	si_rearme_Write
 857:..\app.c      ****         rearme = 1;
 1789              		.loc 1 857 0
 1790 0016 074B     		ldr	r3, .L68
 1791 0018 0122     		movs	r2, #1
 1792 001a 1A70     		strb	r2, [r3]
 1793              	.LBE11:
 858:..\app.c      ****         
 859:..\app.c      ****     }
 860:..\app.c      ****     else{
 861:..\app.c      ****         si_rearme_Write(DESL);  // desl sinaleira rearme
 862:..\app.c      ****         rearme = 0;
 863:..\app.c      ****     }
 864:..\app.c      ****     
 865:..\app.c      **** }
 1794              		.loc 1 865 0
 1795 001c 05E0     		b	.L67
 1796              	.L65:
 1797              	.LBB12:
 861:..\app.c      ****         rearme = 0;
 1798              		.loc 1 861 0
 1799 001e 0020     		movs	r0, #0
 1800 0020 FFF7FEFF 		bl	si_rearme_Write
 862:..\app.c      ****     }
 1801              		.loc 1 862 0
 1802 0024 034B     		ldr	r3, .L68
 1803 0026 0022     		movs	r2, #0
 1804 0028 1A70     		strb	r2, [r3]
 1805              	.L67:
 1806              	.LBE12:
 1807              		.loc 1 865 0
 1808 002a 00BF     		nop
 1809 002c 0837     		adds	r7, r7, #8
 1810              		.cfi_def_cfa_offset 8
 1811 002e BD46     		mov	sp, r7
 1812              		.cfi_def_cfa_register 13
 1813              		@ sp needed
 1814 0030 80BD     		pop	{r7, pc}
 1815              	.L69:
 1816 0032 00BF     		.align	2
ARM GAS  C:\Users\alex\AppData\Local\Temp\ccrAtNPo.s 			page 50


 1817              	.L68:
 1818 0034 00000000 		.word	rearme
 1819              		.cfi_endproc
 1820              	.LFE77:
 1821              		.size	statusRearme, .-statusRearme
 1822              		.section	.text.statusEmerg,"ax",%progbits
 1823              		.align	2
 1824              		.global	statusEmerg
 1825              		.thumb
 1826              		.thumb_func
 1827              		.type	statusEmerg, %function
 1828              	statusEmerg:
 1829              	.LFB78:
 866:..\app.c      **** 
 867:..\app.c      **** void statusEmerg(CPU_INT08U op){
 1830              		.loc 1 867 0
 1831              		.cfi_startproc
 1832              		@ args = 0, pretend = 0, frame = 8
 1833              		@ frame_needed = 1, uses_anonymous_args = 0
 1834 0000 80B5     		push	{r7, lr}
 1835              		.cfi_def_cfa_offset 8
 1836              		.cfi_offset 7, -8
 1837              		.cfi_offset 14, -4
 1838 0002 82B0     		sub	sp, sp, #8
 1839              		.cfi_def_cfa_offset 16
 1840 0004 00AF     		add	r7, sp, #0
 1841              		.cfi_def_cfa_register 7
 1842 0006 0346     		mov	r3, r0
 1843 0008 FB71     		strb	r3, [r7, #7]
 868:..\app.c      ****     
 869:..\app.c      ****     if(op){
 1844              		.loc 1 869 0
 1845 000a FB79     		ldrb	r3, [r7, #7]	@ zero_extendqisi2
 1846 000c 002B     		cmp	r3, #0
 1847 000e 06D0     		beq	.L71
 1848              	.LBB13:
 870:..\app.c      ****         si_emerg_Write(LIGA);   // liga sinaleira emerg
 1849              		.loc 1 870 0
 1850 0010 0120     		movs	r0, #1
 1851 0012 FFF7FEFF 		bl	si_emerg_Write
 871:..\app.c      ****         emerg = 1;
 1852              		.loc 1 871 0
 1853 0016 074B     		ldr	r3, .L74
 1854 0018 0122     		movs	r2, #1
 1855 001a 1A70     		strb	r2, [r3]
 1856              	.LBE13:
 872:..\app.c      ****         
 873:..\app.c      ****     }
 874:..\app.c      ****     else{        
 875:..\app.c      ****         si_emerg_Write(DESL);   // desl sinaleira rearme
 876:..\app.c      ****         emerg = 0;
 877:..\app.c      ****         
 878:..\app.c      ****     }
 879:..\app.c      ****     
 880:..\app.c      **** }
 1857              		.loc 1 880 0
 1858 001c 05E0     		b	.L73
ARM GAS  C:\Users\alex\AppData\Local\Temp\ccrAtNPo.s 			page 51


 1859              	.L71:
 1860              	.LBB14:
 875:..\app.c      ****         emerg = 0;
 1861              		.loc 1 875 0
 1862 001e 0020     		movs	r0, #0
 1863 0020 FFF7FEFF 		bl	si_emerg_Write
 876:..\app.c      ****         
 1864              		.loc 1 876 0
 1865 0024 034B     		ldr	r3, .L74
 1866 0026 0022     		movs	r2, #0
 1867 0028 1A70     		strb	r2, [r3]
 1868              	.L73:
 1869              	.LBE14:
 1870              		.loc 1 880 0
 1871 002a 00BF     		nop
 1872 002c 0837     		adds	r7, r7, #8
 1873              		.cfi_def_cfa_offset 8
 1874 002e BD46     		mov	sp, r7
 1875              		.cfi_def_cfa_register 13
 1876              		@ sp needed
 1877 0030 80BD     		pop	{r7, pc}
 1878              	.L75:
 1879 0032 00BF     		.align	2
 1880              	.L74:
 1881 0034 00000000 		.word	emerg
 1882              		.cfi_endproc
 1883              	.LFE78:
 1884              		.size	statusEmerg, .-statusEmerg
 1885              		.section	.text.statusAlerta,"ax",%progbits
 1886              		.align	2
 1887              		.global	statusAlerta
 1888              		.thumb
 1889              		.thumb_func
 1890              		.type	statusAlerta, %function
 1891              	statusAlerta:
 1892              	.LFB79:
 881:..\app.c      **** 
 882:..\app.c      **** void statusAlerta(CPU_INT08U op){
 1893              		.loc 1 882 0
 1894              		.cfi_startproc
 1895              		@ args = 0, pretend = 0, frame = 8
 1896              		@ frame_needed = 1, uses_anonymous_args = 0
 1897 0000 80B5     		push	{r7, lr}
 1898              		.cfi_def_cfa_offset 8
 1899              		.cfi_offset 7, -8
 1900              		.cfi_offset 14, -4
 1901 0002 82B0     		sub	sp, sp, #8
 1902              		.cfi_def_cfa_offset 16
 1903 0004 00AF     		add	r7, sp, #0
 1904              		.cfi_def_cfa_register 7
 1905 0006 0346     		mov	r3, r0
 1906 0008 FB71     		strb	r3, [r7, #7]
 883:..\app.c      ****     
 884:..\app.c      ****     if(op){
 1907              		.loc 1 884 0
 1908 000a FB79     		ldrb	r3, [r7, #7]	@ zero_extendqisi2
 1909 000c 002B     		cmp	r3, #0
ARM GAS  C:\Users\alex\AppData\Local\Temp\ccrAtNPo.s 			page 52


 1910 000e 06D0     		beq	.L77
 1911              	.LBB15:
 885:..\app.c      ****         si_alerta_Write(LIGA);   // liga sinaleira alerta
 1912              		.loc 1 885 0
 1913 0010 0120     		movs	r0, #1
 1914 0012 FFF7FEFF 		bl	si_alerta_Write
 886:..\app.c      ****         alerta = 1;
 1915              		.loc 1 886 0
 1916 0016 074B     		ldr	r3, .L80
 1917 0018 0122     		movs	r2, #1
 1918 001a 1A70     		strb	r2, [r3]
 1919              	.LBE15:
 887:..\app.c      ****         
 888:..\app.c      ****     }
 889:..\app.c      ****     else{        
 890:..\app.c      ****         si_alerta_Write(DESL);   // desl sinaleira alerta
 891:..\app.c      ****         alerta = 0;
 892:..\app.c      ****         
 893:..\app.c      ****     }
 894:..\app.c      ****     
 895:..\app.c      **** }
 1920              		.loc 1 895 0
 1921 001c 05E0     		b	.L79
 1922              	.L77:
 1923              	.LBB16:
 890:..\app.c      ****         alerta = 0;
 1924              		.loc 1 890 0
 1925 001e 0020     		movs	r0, #0
 1926 0020 FFF7FEFF 		bl	si_alerta_Write
 891:..\app.c      ****         
 1927              		.loc 1 891 0
 1928 0024 034B     		ldr	r3, .L80
 1929 0026 0022     		movs	r2, #0
 1930 0028 1A70     		strb	r2, [r3]
 1931              	.L79:
 1932              	.LBE16:
 1933              		.loc 1 895 0
 1934 002a 00BF     		nop
 1935 002c 0837     		adds	r7, r7, #8
 1936              		.cfi_def_cfa_offset 8
 1937 002e BD46     		mov	sp, r7
 1938              		.cfi_def_cfa_register 13
 1939              		@ sp needed
 1940 0030 80BD     		pop	{r7, pc}
 1941              	.L81:
 1942 0032 00BF     		.align	2
 1943              	.L80:
 1944 0034 00000000 		.word	alerta
 1945              		.cfi_endproc
 1946              	.LFE79:
 1947              		.size	statusAlerta, .-statusAlerta
 1948              		.text
 1949              	.Letext0:
 1950              		.file 2 "c:\\program files (x86)\\cypress\\psoc creator\\4.4\\psoc creator\\import\\gnu\\arm\\5.4.
 1951              		.file 3 "c:\\program files (x86)\\cypress\\psoc creator\\4.4\\psoc creator\\import\\gnu\\arm\\5.4.
 1952              		.file 4 "..\\..\\..\\..\\..\\..\\uC-CPU\\ARM-Cortex-M3\\GNU/cpu.h"
 1953              		.file 5 "..\\..\\..\\..\\..\\..\\uC-CPU/cpu_core.h"
ARM GAS  C:\Users\alex\AppData\Local\Temp\ccrAtNPo.s 			page 53


 1954              		.file 6 "..\\..\\..\\..\\..\\..\\uCOS-III\\Source/os_type.h"
 1955              		.file 7 "..\\..\\..\\..\\..\\..\\uCOS-III\\Source/os.h"
 1956              		.file 8 "Generated_Source\\PSoC5/cytypes.h"
 1957              		.file 9 "Generated_Source\\PSoC5/core_cm3.h"