ARM GAS  C:\Users\alex\AppData\Local\Temp\cc3F4QJa.s 			page 1


   1              		.syntax unified
   2              		.cpu cortex-m3
   3              		.fpu softvfp
   4              		.eabi_attribute 20, 1
   5              		.eabi_attribute 21, 1
   6              		.eabi_attribute 23, 3
   7              		.eabi_attribute 24, 1
   8              		.eabi_attribute 25, 1
   9              		.eabi_attribute 26, 1
  10              		.eabi_attribute 30, 6
  11              		.eabi_attribute 34, 1
  12              		.eabi_attribute 18, 4
  13              		.thumb
  14              		.syntax unified
  15              		.file	"cpu_bsp.c"
  16              		.text
  17              	.Ltext0:
  18              		.cfi_sections	.debug_frame
  19              		.section	.text.CPU_TS_TmrInit,"ax",%progbits
  20              		.align	2
  21              		.global	CPU_TS_TmrInit
  22              		.thumb
  23              		.thumb_func
  24              		.type	CPU_TS_TmrInit, %function
  25              	CPU_TS_TmrInit:
  26              	.LFB0:
  27              		.file 1 "..\\..\\BSP\\cpu_bsp.c"
   1:..\..\BSP/cpu_bsp.c **** /*
   2:..\..\BSP/cpu_bsp.c **** ***************************************************************************************************
   3:..\..\BSP/cpu_bsp.c **** *                                                uC/CPU
   4:..\..\BSP/cpu_bsp.c **** *                                    CPU CONFIGURATION & PORT LAYER
   5:..\..\BSP/cpu_bsp.c **** *
   6:..\..\BSP/cpu_bsp.c **** *                          (c) Copyright 2004-2012; Micrium, Inc.; Weston, FL
   7:..\..\BSP/cpu_bsp.c **** *
   8:..\..\BSP/cpu_bsp.c **** *               All rights reserved.  Protected by international copyright laws.
   9:..\..\BSP/cpu_bsp.c **** *
  10:..\..\BSP/cpu_bsp.c **** *               uC/CPU is provided in source form to registered licensees ONLY.  It is 
  11:..\..\BSP/cpu_bsp.c **** *               illegal to distribute this source code to any third party unless you receive 
  12:..\..\BSP/cpu_bsp.c **** *               written permission by an authorized Micrium representative.  Knowledge of 
  13:..\..\BSP/cpu_bsp.c **** *               the source code may NOT be used to develop a similar product.
  14:..\..\BSP/cpu_bsp.c **** *
  15:..\..\BSP/cpu_bsp.c **** *               Please help us continue to provide the Embedded community with the finest 
  16:..\..\BSP/cpu_bsp.c **** *               software available.  Your honesty is greatly appreciated.
  17:..\..\BSP/cpu_bsp.c **** *
  18:..\..\BSP/cpu_bsp.c **** *               You can contact us at www.micrium.com.
  19:..\..\BSP/cpu_bsp.c **** ***************************************************************************************************
  20:..\..\BSP/cpu_bsp.c **** */
  21:..\..\BSP/cpu_bsp.c **** 
  22:..\..\BSP/cpu_bsp.c **** /*
  23:..\..\BSP/cpu_bsp.c **** ***************************************************************************************************
  24:..\..\BSP/cpu_bsp.c **** *
  25:..\..\BSP/cpu_bsp.c **** *                               CPU BOARD SUPPORT PACKAGE (BSP) FUNCTIONS
  26:..\..\BSP/cpu_bsp.c **** *
  27:..\..\BSP/cpu_bsp.c **** *                                           CYPRESS PSoC5
  28:..\..\BSP/cpu_bsp.c **** *                                              with the
  29:..\..\BSP/cpu_bsp.c **** *                                     CY8CKIT-050 Development Kit
  30:..\..\BSP/cpu_bsp.c **** *
ARM GAS  C:\Users\alex\AppData\Local\Temp\cc3F4QJa.s 			page 2


  31:..\..\BSP/cpu_bsp.c **** * Filename      : cpu_bsp.c
  32:..\..\BSP/cpu_bsp.c **** * Version       : V1.25
  33:..\..\BSP/cpu_bsp.c **** * Programmer(s) : ITJ
  34:..\..\BSP/cpu_bsp.c **** *                 DC
  35:..\..\BSP/cpu_bsp.c **** ***************************************************************************************************
  36:..\..\BSP/cpu_bsp.c **** */
  37:..\..\BSP/cpu_bsp.c **** 
  38:..\..\BSP/cpu_bsp.c **** 
  39:..\..\BSP/cpu_bsp.c **** /*
  40:..\..\BSP/cpu_bsp.c **** ***************************************************************************************************
  41:..\..\BSP/cpu_bsp.c **** *                                            INCLUDE FILES
  42:..\..\BSP/cpu_bsp.c **** ***************************************************************************************************
  43:..\..\BSP/cpu_bsp.c **** */
  44:..\..\BSP/cpu_bsp.c **** 
  45:..\..\BSP/cpu_bsp.c **** #define    CPU_BSP_MODULE
  46:..\..\BSP/cpu_bsp.c **** #include  <cpu_core.h>
  47:..\..\BSP/cpu_bsp.c **** #include  <bsp.h>
  48:..\..\BSP/cpu_bsp.c **** 
  49:..\..\BSP/cpu_bsp.c **** 
  50:..\..\BSP/cpu_bsp.c **** /*$PAGE*/
  51:..\..\BSP/cpu_bsp.c **** /*
  52:..\..\BSP/cpu_bsp.c **** ***************************************************************************************************
  53:..\..\BSP/cpu_bsp.c **** *                                            LOCAL DEFINES
  54:..\..\BSP/cpu_bsp.c **** ***************************************************************************************************
  55:..\..\BSP/cpu_bsp.c **** */
  56:..\..\BSP/cpu_bsp.c **** 
  57:..\..\BSP/cpu_bsp.c **** #define  CPU_BSP_REG_DEMCR             (*(CPU_REG32 *)0xE000EDFC)
  58:..\..\BSP/cpu_bsp.c **** #define  CPU_BSP_REG_DWT_CR            (*(CPU_REG32 *)0xE0001000)
  59:..\..\BSP/cpu_bsp.c **** #define  CPU_BSP_REG_DWT_CYCCNT        (*(CPU_REG32 *)0xE0001004)
  60:..\..\BSP/cpu_bsp.c **** 
  61:..\..\BSP/cpu_bsp.c **** 
  62:..\..\BSP/cpu_bsp.c **** /*
  63:..\..\BSP/cpu_bsp.c **** ***************************************************************************************************
  64:..\..\BSP/cpu_bsp.c **** *                                           LOCAL CONSTANTS
  65:..\..\BSP/cpu_bsp.c **** ***************************************************************************************************
  66:..\..\BSP/cpu_bsp.c **** */
  67:..\..\BSP/cpu_bsp.c **** 
  68:..\..\BSP/cpu_bsp.c **** 
  69:..\..\BSP/cpu_bsp.c **** /*
  70:..\..\BSP/cpu_bsp.c **** ***************************************************************************************************
  71:..\..\BSP/cpu_bsp.c **** *                                          LOCAL DATA TYPES
  72:..\..\BSP/cpu_bsp.c **** ***************************************************************************************************
  73:..\..\BSP/cpu_bsp.c **** */
  74:..\..\BSP/cpu_bsp.c **** 
  75:..\..\BSP/cpu_bsp.c **** 
  76:..\..\BSP/cpu_bsp.c **** /*
  77:..\..\BSP/cpu_bsp.c **** ***************************************************************************************************
  78:..\..\BSP/cpu_bsp.c **** *                                            LOCAL TABLES
  79:..\..\BSP/cpu_bsp.c **** ***************************************************************************************************
  80:..\..\BSP/cpu_bsp.c **** */
  81:..\..\BSP/cpu_bsp.c **** 
  82:..\..\BSP/cpu_bsp.c **** 
  83:..\..\BSP/cpu_bsp.c **** /*
  84:..\..\BSP/cpu_bsp.c **** ***************************************************************************************************
  85:..\..\BSP/cpu_bsp.c **** *                                       LOCAL GLOBAL VARIABLES
  86:..\..\BSP/cpu_bsp.c **** ***************************************************************************************************
  87:..\..\BSP/cpu_bsp.c **** */
ARM GAS  C:\Users\alex\AppData\Local\Temp\cc3F4QJa.s 			page 3


  88:..\..\BSP/cpu_bsp.c **** 
  89:..\..\BSP/cpu_bsp.c **** 
  90:..\..\BSP/cpu_bsp.c **** /*
  91:..\..\BSP/cpu_bsp.c **** ***************************************************************************************************
  92:..\..\BSP/cpu_bsp.c **** *                                      LOCAL FUNCTION PROTOTYPES
  93:..\..\BSP/cpu_bsp.c **** ***************************************************************************************************
  94:..\..\BSP/cpu_bsp.c **** */
  95:..\..\BSP/cpu_bsp.c **** 
  96:..\..\BSP/cpu_bsp.c **** 
  97:..\..\BSP/cpu_bsp.c **** /*
  98:..\..\BSP/cpu_bsp.c **** ***************************************************************************************************
  99:..\..\BSP/cpu_bsp.c **** *                                     LOCAL CONFIGURATION ERRORS
 100:..\..\BSP/cpu_bsp.c **** ***************************************************************************************************
 101:..\..\BSP/cpu_bsp.c **** */
 102:..\..\BSP/cpu_bsp.c **** 
 103:..\..\BSP/cpu_bsp.c **** 
 104:..\..\BSP/cpu_bsp.c **** /*$PAGE*/
 105:..\..\BSP/cpu_bsp.c **** /*
 106:..\..\BSP/cpu_bsp.c **** ***************************************************************************************************
 107:..\..\BSP/cpu_bsp.c **** *                                          CPU_TS_TmrInit()
 108:..\..\BSP/cpu_bsp.c **** *
 109:..\..\BSP/cpu_bsp.c **** * Description : Initialize & start CPU timestamp timer.
 110:..\..\BSP/cpu_bsp.c **** *
 111:..\..\BSP/cpu_bsp.c **** * Argument(s) : none.
 112:..\..\BSP/cpu_bsp.c **** *
 113:..\..\BSP/cpu_bsp.c **** * Return(s)   : none.
 114:..\..\BSP/cpu_bsp.c **** *
 115:..\..\BSP/cpu_bsp.c **** * Caller(s)   : CPU_TS_Init().
 116:..\..\BSP/cpu_bsp.c **** *
 117:..\..\BSP/cpu_bsp.c **** *               This function is an INTERNAL CPU module function & MUST be implemented by applicati
 118:..\..\BSP/cpu_bsp.c **** *               BSP function(s) [see Note #1] but MUST NOT be called by application function(s).
 119:..\..\BSP/cpu_bsp.c **** *
 120:..\..\BSP/cpu_bsp.c **** * Note(s)     : (1) CPU_TS_TmrInit() is an application/BSP function that MUST be defined by the dev
 121:..\..\BSP/cpu_bsp.c **** *                   if either of the following CPU features is enabled :
 122:..\..\BSP/cpu_bsp.c **** *
 123:..\..\BSP/cpu_bsp.c **** *                   (a) CPU timestamps
 124:..\..\BSP/cpu_bsp.c **** *                   (b) CPU interrupts disabled time measurements
 125:..\..\BSP/cpu_bsp.c **** *
 126:..\..\BSP/cpu_bsp.c **** *                   See 'cpu_cfg.h  CPU TIMESTAMP CONFIGURATION  Note #1'
 127:..\..\BSP/cpu_bsp.c **** *                     & 'cpu_cfg.h  CPU INTERRUPTS DISABLED TIME MEASUREMENT CONFIGURATION  Note #1
 128:..\..\BSP/cpu_bsp.c **** *
 129:..\..\BSP/cpu_bsp.c **** *               (2) (a) Timer count values MUST be returned via word-size-configurable 'CPU_TS_TMR'
 130:..\..\BSP/cpu_bsp.c **** *                       data type.
 131:..\..\BSP/cpu_bsp.c **** *
 132:..\..\BSP/cpu_bsp.c **** *                       (1) If timer has more bits, truncate timer values' higher-order bits greate
 133:..\..\BSP/cpu_bsp.c **** *                           than the configured 'CPU_TS_TMR' timestamp timer data type word size.
 134:..\..\BSP/cpu_bsp.c **** *
 135:..\..\BSP/cpu_bsp.c **** *                       (2) Since the timer MUST NOT have less bits than the configured 'CPU_TS_TMR
 136:..\..\BSP/cpu_bsp.c **** *                           timestamp timer data type word size; 'CPU_CFG_TS_TMR_SIZE' MUST be 
 137:..\..\BSP/cpu_bsp.c **** *                           configured so that ALL bits in 'CPU_TS_TMR' data type are significant.
 138:..\..\BSP/cpu_bsp.c **** *
 139:..\..\BSP/cpu_bsp.c **** *                           In other words, if timer size is not a binary-multiple of 8-bit octets 
 140:..\..\BSP/cpu_bsp.c **** *                           (e.g. 20-bits or even 24-bits), then the next lower, binary-multiple 
 141:..\..\BSP/cpu_bsp.c **** *                           octet word size SHOULD be configured (e.g. to 16-bits).  However, the 
 142:..\..\BSP/cpu_bsp.c **** *                           minimum supported word size for CPU timestamp timers is 8-bits.
 143:..\..\BSP/cpu_bsp.c **** *
 144:..\..\BSP/cpu_bsp.c **** *                       See also 'cpu_cfg.h   CPU TIMESTAMP CONFIGURATION  Note #2'
ARM GAS  C:\Users\alex\AppData\Local\Temp\cc3F4QJa.s 			page 4


 145:..\..\BSP/cpu_bsp.c **** *                              & 'cpu_core.h  CPU TIMESTAMP DATA TYPES     Note #1'.
 146:..\..\BSP/cpu_bsp.c **** *
 147:..\..\BSP/cpu_bsp.c **** *                   (b) Timer SHOULD be an 'up'  counter whose values increase with each time count
 148:..\..\BSP/cpu_bsp.c **** *
 149:..\..\BSP/cpu_bsp.c **** *                   (c) When applicable, timer period SHOULD be less than the typical measured time
 150:..\..\BSP/cpu_bsp.c **** *                       but MUST be less than the maximum measured time; otherwise, timer resolutio
 151:..\..\BSP/cpu_bsp.c **** *                       inadequate to measure desired times.
 152:..\..\BSP/cpu_bsp.c **** *
 153:..\..\BSP/cpu_bsp.c **** *                   See also 'CPU_TS_TmrRd()  Note #2'.
 154:..\..\BSP/cpu_bsp.c **** ***************************************************************************************************
 155:..\..\BSP/cpu_bsp.c **** */
 156:..\..\BSP/cpu_bsp.c **** 
 157:..\..\BSP/cpu_bsp.c **** #if (CPU_CFG_TS_TMR_EN == DEF_ENABLED)
 158:..\..\BSP/cpu_bsp.c **** void  CPU_TS_TmrInit (void)
 159:..\..\BSP/cpu_bsp.c **** {
  28              		.loc 1 159 0
  29              		.cfi_startproc
  30              		@ args = 0, pretend = 0, frame = 8
  31              		@ frame_needed = 1, uses_anonymous_args = 0
  32 0000 80B5     		push	{r7, lr}
  33              		.cfi_def_cfa_offset 8
  34              		.cfi_offset 7, -8
  35              		.cfi_offset 14, -4
  36 0002 82B0     		sub	sp, sp, #8
  37              		.cfi_def_cfa_offset 16
  38 0004 00AF     		add	r7, sp, #0
  39              		.cfi_def_cfa_register 7
 160:..\..\BSP/cpu_bsp.c ****     CPU_INT32U  fclk_freq;
 161:..\..\BSP/cpu_bsp.c ****     
 162:..\..\BSP/cpu_bsp.c ****     fclk_freq = BSP_CPU_ClkFreq();
  40              		.loc 1 162 0
  41 0006 FFF7FEFF 		bl	BSP_CPU_ClkFreq
  42 000a 7860     		str	r0, [r7, #4]
 163:..\..\BSP/cpu_bsp.c ****     
 164:..\..\BSP/cpu_bsp.c ****     CPU_BSP_REG_DEMCR  |= DEF_BIT_24;
  43              		.loc 1 164 0
  44 000c 094A     		ldr	r2, .L2
  45 000e 094B     		ldr	r3, .L2
  46 0010 1B68     		ldr	r3, [r3]
  47 0012 43F08073 		orr	r3, r3, #16777216
  48 0016 1360     		str	r3, [r2]
 165:..\..\BSP/cpu_bsp.c ****     CPU_BSP_REG_DWT_CR |= DEF_BIT_00;
  49              		.loc 1 165 0
  50 0018 074A     		ldr	r2, .L2+4
  51 001a 074B     		ldr	r3, .L2+4
  52 001c 1B68     		ldr	r3, [r3]
  53 001e 43F00103 		orr	r3, r3, #1
  54 0022 1360     		str	r3, [r2]
 166:..\..\BSP/cpu_bsp.c **** 
 167:..\..\BSP/cpu_bsp.c ****     CPU_TS_TmrFreqSet((CPU_TS_TMR_FREQ)fclk_freq);    
  55              		.loc 1 167 0
  56 0024 7868     		ldr	r0, [r7, #4]
  57 0026 FFF7FEFF 		bl	CPU_TS_TmrFreqSet
 168:..\..\BSP/cpu_bsp.c **** }
  58              		.loc 1 168 0
  59 002a 00BF     		nop
  60 002c 0837     		adds	r7, r7, #8
ARM GAS  C:\Users\alex\AppData\Local\Temp\cc3F4QJa.s 			page 5


  61              		.cfi_def_cfa_offset 8
  62 002e BD46     		mov	sp, r7
  63              		.cfi_def_cfa_register 13
  64              		@ sp needed
  65 0030 80BD     		pop	{r7, pc}
  66              	.L3:
  67 0032 00BF     		.align	2
  68              	.L2:
  69 0034 FCED00E0 		.word	-536809988
  70 0038 001000E0 		.word	-536866816
  71              		.cfi_endproc
  72              	.LFE0:
  73              		.size	CPU_TS_TmrInit, .-CPU_TS_TmrInit
  74              		.section	.text.CPU_TS_TmrRd,"ax",%progbits
  75              		.align	2
  76              		.global	CPU_TS_TmrRd
  77              		.thumb
  78              		.thumb_func
  79              		.type	CPU_TS_TmrRd, %function
  80              	CPU_TS_TmrRd:
  81              	.LFB1:
 169:..\..\BSP/cpu_bsp.c **** #endif
 170:..\..\BSP/cpu_bsp.c **** 
 171:..\..\BSP/cpu_bsp.c **** 
 172:..\..\BSP/cpu_bsp.c **** /*$PAGE*/
 173:..\..\BSP/cpu_bsp.c **** /*
 174:..\..\BSP/cpu_bsp.c **** ***************************************************************************************************
 175:..\..\BSP/cpu_bsp.c **** *                                           CPU_TS_TmrRd()
 176:..\..\BSP/cpu_bsp.c **** *
 177:..\..\BSP/cpu_bsp.c **** * Description : Get current CPU timestamp timer count value.
 178:..\..\BSP/cpu_bsp.c **** *
 179:..\..\BSP/cpu_bsp.c **** * Argument(s) : none.
 180:..\..\BSP/cpu_bsp.c **** *
 181:..\..\BSP/cpu_bsp.c **** * Return(s)   : Timestamp timer count (see Notes #2a & #2b).
 182:..\..\BSP/cpu_bsp.c **** *
 183:..\..\BSP/cpu_bsp.c **** * Caller(s)   : CPU_TS_Init(),
 184:..\..\BSP/cpu_bsp.c **** *               CPU_TS_Get32(),
 185:..\..\BSP/cpu_bsp.c **** *               CPU_TS_Get64(),
 186:..\..\BSP/cpu_bsp.c **** *               CPU_IntDisMeasStart(),
 187:..\..\BSP/cpu_bsp.c **** *               CPU_IntDisMeasStop().
 188:..\..\BSP/cpu_bsp.c **** *
 189:..\..\BSP/cpu_bsp.c **** *               This function is an INTERNAL CPU module function & MUST be implemented by applicati
 190:..\..\BSP/cpu_bsp.c **** *               BSP function(s) [see Note #1] but SHOULD NOT be called by application function(s).
 191:..\..\BSP/cpu_bsp.c **** *
 192:..\..\BSP/cpu_bsp.c **** * Note(s)     : (1) CPU_TS_TmrRd() is an application/BSP function that MUST be defined by the devel
 193:..\..\BSP/cpu_bsp.c **** *                   if either of the following CPU features is enabled :
 194:..\..\BSP/cpu_bsp.c **** *
 195:..\..\BSP/cpu_bsp.c **** *                   (a) CPU timestamps
 196:..\..\BSP/cpu_bsp.c **** *                   (b) CPU interrupts disabled time measurements
 197:..\..\BSP/cpu_bsp.c **** *
 198:..\..\BSP/cpu_bsp.c **** *                   See 'cpu_cfg.h  CPU TIMESTAMP CONFIGURATION  Note #1'
 199:..\..\BSP/cpu_bsp.c **** *                     & 'cpu_cfg.h  CPU INTERRUPTS DISABLED TIME MEASUREMENT CONFIGURATION  Note #1
 200:..\..\BSP/cpu_bsp.c **** *
 201:..\..\BSP/cpu_bsp.c **** *               (2) (a) Timer count values MUST be returned via word-size-configurable 'CPU_TS_TMR'
 202:..\..\BSP/cpu_bsp.c **** *                       data type.
 203:..\..\BSP/cpu_bsp.c **** *
 204:..\..\BSP/cpu_bsp.c **** *                       (1) If timer has more bits, truncate timer values' higher-order bits greate
ARM GAS  C:\Users\alex\AppData\Local\Temp\cc3F4QJa.s 			page 6


 205:..\..\BSP/cpu_bsp.c **** *                           than the configured 'CPU_TS_TMR' timestamp timer data type word size.
 206:..\..\BSP/cpu_bsp.c **** *
 207:..\..\BSP/cpu_bsp.c **** *                       (2) Since the timer MUST NOT have less bits than the configured 'CPU_TS_TMR
 208:..\..\BSP/cpu_bsp.c **** *                           timestamp timer data type word size; 'CPU_CFG_TS_TMR_SIZE' MUST be 
 209:..\..\BSP/cpu_bsp.c **** *                           configured so that ALL bits in 'CPU_TS_TMR' data type are significant.
 210:..\..\BSP/cpu_bsp.c **** *
 211:..\..\BSP/cpu_bsp.c **** *                           In other words, if timer size is not a binary-multiple of 8-bit octets 
 212:..\..\BSP/cpu_bsp.c **** *                           (e.g. 20-bits or even 24-bits), then the next lower, binary-multiple 
 213:..\..\BSP/cpu_bsp.c **** *                           octet word size SHOULD be configured (e.g. to 16-bits).  However, the 
 214:..\..\BSP/cpu_bsp.c **** *                           minimum supported word size for CPU timestamp timers is 8-bits.
 215:..\..\BSP/cpu_bsp.c **** *
 216:..\..\BSP/cpu_bsp.c **** *                       See also 'cpu_cfg.h   CPU TIMESTAMP CONFIGURATION  Note #2'
 217:..\..\BSP/cpu_bsp.c **** *                              & 'cpu_core.h  CPU TIMESTAMP DATA TYPES     Note #1'.
 218:..\..\BSP/cpu_bsp.c **** *
 219:..\..\BSP/cpu_bsp.c **** *                   (b) Timer SHOULD be an 'up'  counter whose values increase with each time count
 220:..\..\BSP/cpu_bsp.c **** *
 221:..\..\BSP/cpu_bsp.c **** *                       (1) If timer is a 'down' counter whose values decrease with each time count
 222:..\..\BSP/cpu_bsp.c **** *                           then the returned timer value MUST be ones-complemented.
 223:..\..\BSP/cpu_bsp.c **** *
 224:..\..\BSP/cpu_bsp.c **** *                   (c) (1) When applicable, the amount of time measured by CPU timestamps is 
 225:..\..\BSP/cpu_bsp.c **** *                           calculated by either of the following equations :
 226:..\..\BSP/cpu_bsp.c **** *
 227:..\..\BSP/cpu_bsp.c **** *                           (A) Time measured  =  Number timer counts  *  Timer period
 228:..\..\BSP/cpu_bsp.c **** *
 229:..\..\BSP/cpu_bsp.c **** *                                   where
 230:..\..\BSP/cpu_bsp.c **** *
 231:..\..\BSP/cpu_bsp.c **** *                                       Number timer counts     Number of timer counts measured 
 232:..\..\BSP/cpu_bsp.c **** *                                       Timer period            Timer's period in some units of 
 233:..\..\BSP/cpu_bsp.c **** *                                                                   (fractional) seconds
 234:..\..\BSP/cpu_bsp.c **** *                                       Time measured           Amount of time measured, in same 
 235:..\..\BSP/cpu_bsp.c **** *                                                                   units of (fractional) seconds 
 236:..\..\BSP/cpu_bsp.c **** *                                                                   as the Timer period
 237:..\..\BSP/cpu_bsp.c **** *
 238:..\..\BSP/cpu_bsp.c **** *                                                  Number timer counts
 239:..\..\BSP/cpu_bsp.c **** *                           (B) Time measured  =  ---------------------
 240:..\..\BSP/cpu_bsp.c **** *                                                    Timer frequency
 241:..\..\BSP/cpu_bsp.c **** *
 242:..\..\BSP/cpu_bsp.c **** *                                   where
 243:..\..\BSP/cpu_bsp.c **** *
 244:..\..\BSP/cpu_bsp.c **** *                                       Number timer counts     Number of timer counts measured
 245:..\..\BSP/cpu_bsp.c **** *                                       Timer frequency         Timer's frequency in some units 
 246:..\..\BSP/cpu_bsp.c **** *                                                                   of counts per second
 247:..\..\BSP/cpu_bsp.c **** *                                       Time measured           Amount of time measured, in seconds
 248:..\..\BSP/cpu_bsp.c **** *
 249:..\..\BSP/cpu_bsp.c **** *                       (2) Timer period SHOULD be less than the typical measured time but MUST be 
 250:..\..\BSP/cpu_bsp.c **** *                           than the maximum measured time; otherwise, timer resolution inadequate 
 251:..\..\BSP/cpu_bsp.c **** *                           measure desired times.
 252:..\..\BSP/cpu_bsp.c **** ***************************************************************************************************
 253:..\..\BSP/cpu_bsp.c **** */
 254:..\..\BSP/cpu_bsp.c **** 
 255:..\..\BSP/cpu_bsp.c **** #if (CPU_CFG_TS_TMR_EN == DEF_ENABLED)
 256:..\..\BSP/cpu_bsp.c **** CPU_TS_TMR  CPU_TS_TmrRd (void)
 257:..\..\BSP/cpu_bsp.c **** {
  82              		.loc 1 257 0
  83              		.cfi_startproc
  84              		@ args = 0, pretend = 0, frame = 8
  85              		@ frame_needed = 1, uses_anonymous_args = 0
ARM GAS  C:\Users\alex\AppData\Local\Temp\cc3F4QJa.s 			page 7


  86              		@ link register save eliminated.
  87 0000 80B4     		push	{r7}
  88              		.cfi_def_cfa_offset 4
  89              		.cfi_offset 7, -4
  90 0002 83B0     		sub	sp, sp, #12
  91              		.cfi_def_cfa_offset 16
  92 0004 00AF     		add	r7, sp, #0
  93              		.cfi_def_cfa_register 7
 258:..\..\BSP/cpu_bsp.c ****     CPU_TS_TMR  ts_tmr_cnts;
 259:..\..\BSP/cpu_bsp.c **** 
 260:..\..\BSP/cpu_bsp.c ****                                                                 
 261:..\..\BSP/cpu_bsp.c ****     ts_tmr_cnts  = (CPU_TS_TMR)CPU_BSP_REG_DWT_CYCCNT;
  94              		.loc 1 261 0
  95 0006 044B     		ldr	r3, .L6
  96 0008 1B68     		ldr	r3, [r3]
  97 000a 7B60     		str	r3, [r7, #4]
 262:..\..\BSP/cpu_bsp.c ****     
 263:..\..\BSP/cpu_bsp.c ****     return (ts_tmr_cnts);
  98              		.loc 1 263 0
  99 000c 7B68     		ldr	r3, [r7, #4]
 264:..\..\BSP/cpu_bsp.c **** }
 100              		.loc 1 264 0
 101 000e 1846     		mov	r0, r3
 102 0010 0C37     		adds	r7, r7, #12
 103              		.cfi_def_cfa_offset 4
 104 0012 BD46     		mov	sp, r7
 105              		.cfi_def_cfa_register 13
 106              		@ sp needed
 107 0014 80BC     		pop	{r7}
 108              		.cfi_restore 7
 109              		.cfi_def_cfa_offset 0
 110 0016 7047     		bx	lr
 111              	.L7:
 112              		.align	2
 113              	.L6:
 114 0018 041000E0 		.word	-536866812
 115              		.cfi_endproc
 116              	.LFE1:
 117              		.size	CPU_TS_TmrRd, .-CPU_TS_TmrRd
 118              		.section	.text.CPU_TS32_to_uSec,"ax",%progbits
 119              		.align	2
 120              		.global	CPU_TS32_to_uSec
 121              		.thumb
 122              		.thumb_func
 123              		.type	CPU_TS32_to_uSec, %function
 124              	CPU_TS32_to_uSec:
 125              	.LFB2:
 265:..\..\BSP/cpu_bsp.c **** #endif
 266:..\..\BSP/cpu_bsp.c **** 
 267:..\..\BSP/cpu_bsp.c **** 
 268:..\..\BSP/cpu_bsp.c **** /*$PAGE*/
 269:..\..\BSP/cpu_bsp.c **** /*
 270:..\..\BSP/cpu_bsp.c **** ***************************************************************************************************
 271:..\..\BSP/cpu_bsp.c **** *                                         CPU_TSxx_to_uSec()
 272:..\..\BSP/cpu_bsp.c **** *
 273:..\..\BSP/cpu_bsp.c **** * Description : Convert a 32-/64-bit CPU timestamp from timer counts to microseconds.
 274:..\..\BSP/cpu_bsp.c **** *
ARM GAS  C:\Users\alex\AppData\Local\Temp\cc3F4QJa.s 			page 8


 275:..\..\BSP/cpu_bsp.c **** * Argument(s) : ts_cnts   CPU timestamp (in timestamp timer counts [see Note #2aA]).
 276:..\..\BSP/cpu_bsp.c **** *
 277:..\..\BSP/cpu_bsp.c **** * Return(s)   : Converted CPU timestamp (in microseconds           [see Note #2aD]).
 278:..\..\BSP/cpu_bsp.c **** *
 279:..\..\BSP/cpu_bsp.c **** * Caller(s)   : Application.
 280:..\..\BSP/cpu_bsp.c **** *
 281:..\..\BSP/cpu_bsp.c **** *               This function is an (optional) CPU module application interface (API) function whic
 282:..\..\BSP/cpu_bsp.c **** *               MAY be implemented by application/BSP function(s) [see Note #1] & MAY be called by 
 283:..\..\BSP/cpu_bsp.c **** *               application function(s).
 284:..\..\BSP/cpu_bsp.c **** *
 285:..\..\BSP/cpu_bsp.c **** * Note(s)     : (1) CPU_TS32_to_uSec()/CPU_TS64_to_uSec() are application/BSP functions that MAY be
 286:..\..\BSP/cpu_bsp.c **** *                   optionally defined by the developer when either of the following CPU features i
 287:..\..\BSP/cpu_bsp.c **** *                   enabled :
 288:..\..\BSP/cpu_bsp.c **** *
 289:..\..\BSP/cpu_bsp.c **** *                   (a) CPU timestamps
 290:..\..\BSP/cpu_bsp.c **** *                   (b) CPU interrupts disabled time measurements
 291:..\..\BSP/cpu_bsp.c **** *
 292:..\..\BSP/cpu_bsp.c **** *                   See 'cpu_cfg.h  CPU TIMESTAMP CONFIGURATION  Note #1'
 293:..\..\BSP/cpu_bsp.c **** *                     & 'cpu_cfg.h  CPU INTERRUPTS DISABLED TIME MEASUREMENT CONFIGURATION  Note #1
 294:..\..\BSP/cpu_bsp.c **** *
 295:..\..\BSP/cpu_bsp.c **** *               (2) (a) The amount of time measured by CPU timestamps is calculated by either of 
 296:..\..\BSP/cpu_bsp.c **** *                       the following equations :
 297:..\..\BSP/cpu_bsp.c **** *
 298:..\..\BSP/cpu_bsp.c **** *                                                                        10^6 microseconds
 299:..\..\BSP/cpu_bsp.c **** *                       (1) Time measured  =   Number timer counts   *  -------------------  *  Tim
 300:..\..\BSP/cpu_bsp.c **** *                                                                            1 second
 301:..\..\BSP/cpu_bsp.c **** *
 302:..\..\BSP/cpu_bsp.c **** *                                              Number timer counts       10^6 microseconds
 303:..\..\BSP/cpu_bsp.c **** *                       (2) Time measured  =  ---------------------  *  -------------------
 304:..\..\BSP/cpu_bsp.c **** *                                                Timer frequency             1 second
 305:..\..\BSP/cpu_bsp.c **** *
 306:..\..\BSP/cpu_bsp.c **** *                               where
 307:..\..\BSP/cpu_bsp.c **** *
 308:..\..\BSP/cpu_bsp.c **** *                                   (A) Number timer counts     Number of timer counts measured
 309:..\..\BSP/cpu_bsp.c **** *                                   (B) Timer frequency         Timer's frequency in some units 
 310:..\..\BSP/cpu_bsp.c **** *                                                                   of counts per second
 311:..\..\BSP/cpu_bsp.c **** *                                   (C) Timer period            Timer's period in some units of 
 312:..\..\BSP/cpu_bsp.c **** *                                                                   (fractional)  seconds
 313:..\..\BSP/cpu_bsp.c **** *                                   (D) Time measured           Amount of time measured, 
 314:..\..\BSP/cpu_bsp.c **** *                                                                   in microseconds
 315:..\..\BSP/cpu_bsp.c **** *
 316:..\..\BSP/cpu_bsp.c **** *                   (b) Timer period SHOULD be less than the typical measured time but MUST be less
 317:..\..\BSP/cpu_bsp.c **** *                       than the maximum measured time; otherwise, timer resolution inadequate to 
 318:..\..\BSP/cpu_bsp.c **** *                       measure desired times.
 319:..\..\BSP/cpu_bsp.c **** *
 320:..\..\BSP/cpu_bsp.c **** *                   (c) Specific implementations may convert any number of CPU_TS32 or CPU_TS64 bit
 321:..\..\BSP/cpu_bsp.c **** *                       -- up to 32 or 64, respectively -- into microseconds.
 322:..\..\BSP/cpu_bsp.c **** ***************************************************************************************************
 323:..\..\BSP/cpu_bsp.c **** */
 324:..\..\BSP/cpu_bsp.c **** 
 325:..\..\BSP/cpu_bsp.c **** #if (CPU_CFG_TS_32_EN == DEF_ENABLED)
 326:..\..\BSP/cpu_bsp.c **** CPU_INT64U  CPU_TS32_to_uSec (CPU_TS32  ts_cnts)
 327:..\..\BSP/cpu_bsp.c **** {
 126              		.loc 1 327 0
 127              		.cfi_startproc
 128              		@ args = 0, pretend = 0, frame = 8
 129              		@ frame_needed = 1, uses_anonymous_args = 0
ARM GAS  C:\Users\alex\AppData\Local\Temp\cc3F4QJa.s 			page 9


 130              		@ link register save eliminated.
 131 0000 90B4     		push	{r4, r7}
 132              		.cfi_def_cfa_offset 8
 133              		.cfi_offset 4, -8
 134              		.cfi_offset 7, -4
 135 0002 82B0     		sub	sp, sp, #8
 136              		.cfi_def_cfa_offset 16
 137 0004 00AF     		add	r7, sp, #0
 138              		.cfi_def_cfa_register 7
 139 0006 7860     		str	r0, [r7, #4]
 328:..\..\BSP/cpu_bsp.c **** 
 329:..\..\BSP/cpu_bsp.c ****     return (0);
 140              		.loc 1 329 0
 141 0008 4FF00003 		mov	r3, #0
 142 000c 4FF00004 		mov	r4, #0
 330:..\..\BSP/cpu_bsp.c **** 
 331:..\..\BSP/cpu_bsp.c **** }
 143              		.loc 1 331 0
 144 0010 1846     		mov	r0, r3
 145 0012 2146     		mov	r1, r4
 146 0014 0837     		adds	r7, r7, #8
 147              		.cfi_def_cfa_offset 8
 148 0016 BD46     		mov	sp, r7
 149              		.cfi_def_cfa_register 13
 150              		@ sp needed
 151 0018 90BC     		pop	{r4, r7}
 152              		.cfi_restore 7
 153              		.cfi_restore 4
 154              		.cfi_def_cfa_offset 0
 155 001a 7047     		bx	lr
 156              		.cfi_endproc
 157              	.LFE2:
 158              		.size	CPU_TS32_to_uSec, .-CPU_TS32_to_uSec
 159              		.text
 160              	.Letext0:
 161              		.file 2 "..\\..\\..\\..\\..\\..\\uC-CPU\\ARM-Cortex-M3\\GNU/cpu.h"
 162              		.file 3 "..\\..\\..\\..\\..\\..\\uC-CPU/cpu_core.h"