ARM GAS  C:\Users\alex\AppData\Local\Temp\cclpGR5c.s 			page 1


   1              		.syntax unified
   2              		.cpu cortex-m3
   3              		.fpu softvfp
   4              		.eabi_attribute 20, 1
   5              		.eabi_attribute 21, 1
   6              		.eabi_attribute 23, 3
   7              		.eabi_attribute 24, 1
   8              		.eabi_attribute 25, 1
   9              		.eabi_attribute 26, 1
  10              		.eabi_attribute 30, 6
  11              		.eabi_attribute 34, 1
  12              		.eabi_attribute 18, 4
  13              		.thumb
  14              		.syntax unified
  15              		.file	"os_dbg.c"
  16              		.text
  17              	.Ltext0:
  18              		.cfi_sections	.debug_frame
  19              		.global	OSDbg_DbgEn
  20              		.section	.rodata
  21              		.type	OSDbg_DbgEn, %object
  22              		.size	OSDbg_DbgEn, 1
  23              	OSDbg_DbgEn:
  24 0000 01       		.byte	1
  25              		.global	OSDbg_ArgChkEn
  26              		.type	OSDbg_ArgChkEn, %object
  27              		.size	OSDbg_ArgChkEn, 1
  28              	OSDbg_ArgChkEn:
  29 0001 01       		.byte	1
  30              		.global	OSDbg_AppHooksEn
  31              		.type	OSDbg_AppHooksEn, %object
  32              		.size	OSDbg_AppHooksEn, 1
  33              	OSDbg_AppHooksEn:
  34 0002 01       		.byte	1
  35              		.global	OSDbg_EndiannessTest
  36 0003 00       		.align	2
  37              		.type	OSDbg_EndiannessTest, %object
  38              		.size	OSDbg_EndiannessTest, 4
  39              	OSDbg_EndiannessTest:
  40 0004 78563412 		.word	305419896
  41              		.global	OSDbg_CalledFromISRChkEn
  42              		.type	OSDbg_CalledFromISRChkEn, %object
  43              		.size	OSDbg_CalledFromISRChkEn, 1
  44              	OSDbg_CalledFromISRChkEn:
  45 0008 01       		.byte	1
  46              		.global	OSDbg_FlagEn
  47              		.type	OSDbg_FlagEn, %object
  48              		.size	OSDbg_FlagEn, 1
  49              	OSDbg_FlagEn:
  50 0009 01       		.byte	1
  51              		.global	OSDbg_FlagGrp
  52 000a 0000     		.align	2
  53              		.type	OSDbg_FlagGrp, %object
  54              		.size	OSDbg_FlagGrp, 40
  55              	OSDbg_FlagGrp:
  56 000c 00000000 		.space	40
  56      00000000 
ARM GAS  C:\Users\alex\AppData\Local\Temp\cclpGR5c.s 			page 2


  56      00000000 
  56      00000000 
  56      00000000 
  57              		.global	OSDbg_FlagDelEn
  58              		.type	OSDbg_FlagDelEn, %object
  59              		.size	OSDbg_FlagDelEn, 1
  60              	OSDbg_FlagDelEn:
  61 0034 01       		.byte	1
  62              		.global	OSDbg_FlagModeClrEn
  63              		.type	OSDbg_FlagModeClrEn, %object
  64              		.size	OSDbg_FlagModeClrEn, 1
  65              	OSDbg_FlagModeClrEn:
  66 0035 01       		.byte	1
  67              		.global	OSDbg_FlagPendAbortEn
  68              		.type	OSDbg_FlagPendAbortEn, %object
  69              		.size	OSDbg_FlagPendAbortEn, 1
  70              	OSDbg_FlagPendAbortEn:
  71 0036 01       		.byte	1
  72              		.global	OSDbg_FlagGrpSize
  73 0037 00       		.align	1
  74              		.type	OSDbg_FlagGrpSize, %object
  75              		.size	OSDbg_FlagGrpSize, 2
  76              	OSDbg_FlagGrpSize:
  77 0038 2800     		.short	40
  78              		.global	OSDbg_FlagWidth
  79              		.align	1
  80              		.type	OSDbg_FlagWidth, %object
  81              		.size	OSDbg_FlagWidth, 2
  82              	OSDbg_FlagWidth:
  83 003a 0400     		.short	4
  84              		.global	OSDbg_IntQ
  85              		.align	1
  86              		.type	OSDbg_IntQ, %object
  87              		.size	OSDbg_IntQ, 2
  88              	OSDbg_IntQ:
  89 003c 0000     		.space	2
  90              		.global	OSDbg_ISRPostDeferredEn
  91              		.type	OSDbg_ISRPostDeferredEn, %object
  92              		.size	OSDbg_ISRPostDeferredEn, 1
  93              	OSDbg_ISRPostDeferredEn:
  94 003e 00       		.space	1
  95              		.global	OSDbg_Mem
  96 003f 00       		.align	2
  97              		.type	OSDbg_Mem, %object
  98              		.size	OSDbg_Mem, 32
  99              	OSDbg_Mem:
 100 0040 00000000 		.space	32
 100      00000000 
 100      00000000 
 100      00000000 
 100      00000000 
 101              		.global	OSDbg_MemEn
 102              		.type	OSDbg_MemEn, %object
 103              		.size	OSDbg_MemEn, 1
 104              	OSDbg_MemEn:
 105 0060 01       		.byte	1
 106              		.global	OSDbg_MemSize
ARM GAS  C:\Users\alex\AppData\Local\Temp\cclpGR5c.s 			page 3


 107 0061 00       		.align	1
 108              		.type	OSDbg_MemSize, %object
 109              		.size	OSDbg_MemSize, 2
 110              	OSDbg_MemSize:
 111 0062 2000     		.short	32
 112              		.global	OSDbg_MsgEn
 113              		.type	OSDbg_MsgEn, %object
 114              		.size	OSDbg_MsgEn, 1
 115              	OSDbg_MsgEn:
 116 0064 01       		.byte	1
 117              		.global	OSDbg_MsgSize
 118 0065 00       		.align	1
 119              		.type	OSDbg_MsgSize, %object
 120              		.size	OSDbg_MsgSize, 2
 121              	OSDbg_MsgSize:
 122 0066 1000     		.short	16
 123              		.global	OSDbg_MsgPoolSize
 124              		.align	1
 125              		.type	OSDbg_MsgPoolSize, %object
 126              		.size	OSDbg_MsgPoolSize, 2
 127              	OSDbg_MsgPoolSize:
 128 0068 0C00     		.short	12
 129              		.global	OSDbg_MsgQSize
 130              		.align	1
 131              		.type	OSDbg_MsgQSize, %object
 132              		.size	OSDbg_MsgQSize, 2
 133              	OSDbg_MsgQSize:
 134 006a 1000     		.short	16
 135              		.global	OSDbg_Mutex
 136              		.align	2
 137              		.type	OSDbg_Mutex, %object
 138              		.size	OSDbg_Mutex, 44
 139              	OSDbg_Mutex:
 140 006c 00000000 		.space	44
 140      00000000 
 140      00000000 
 140      00000000 
 140      00000000 
 141              		.global	OSDbg_MutexEn
 142              		.type	OSDbg_MutexEn, %object
 143              		.size	OSDbg_MutexEn, 1
 144              	OSDbg_MutexEn:
 145 0098 01       		.byte	1
 146              		.global	OSDbg_MutexDelEn
 147              		.type	OSDbg_MutexDelEn, %object
 148              		.size	OSDbg_MutexDelEn, 1
 149              	OSDbg_MutexDelEn:
 150 0099 01       		.byte	1
 151              		.global	OSDbg_MutexPendAbortEn
 152              		.type	OSDbg_MutexPendAbortEn, %object
 153              		.size	OSDbg_MutexPendAbortEn, 1
 154              	OSDbg_MutexPendAbortEn:
 155 009a 01       		.byte	1
 156              		.global	OSDbg_MutexSize
 157 009b 00       		.align	1
 158              		.type	OSDbg_MutexSize, %object
 159              		.size	OSDbg_MutexSize, 2
ARM GAS  C:\Users\alex\AppData\Local\Temp\cclpGR5c.s 			page 4


 160              	OSDbg_MutexSize:
 161 009c 2C00     		.short	44
 162              		.global	OSDbg_ObjTypeChkEn
 163              		.type	OSDbg_ObjTypeChkEn, %object
 164              		.size	OSDbg_ObjTypeChkEn, 1
 165              	OSDbg_ObjTypeChkEn:
 166 009e 00       		.space	1
 167              		.global	OSDbg_PendMultiEn
 168              		.type	OSDbg_PendMultiEn, %object
 169              		.size	OSDbg_PendMultiEn, 1
 170              	OSDbg_PendMultiEn:
 171 009f 01       		.byte	1
 172              		.global	OSDbg_PendDataSize
 173              		.align	1
 174              		.type	OSDbg_PendDataSize, %object
 175              		.size	OSDbg_PendDataSize, 2
 176              	OSDbg_PendDataSize:
 177 00a0 2000     		.short	32
 178              		.global	OSDbg_PendListSize
 179              		.align	1
 180              		.type	OSDbg_PendListSize, %object
 181              		.size	OSDbg_PendListSize, 2
 182              	OSDbg_PendListSize:
 183 00a2 0C00     		.short	12
 184              		.global	OSDbg_PendObjSize
 185              		.align	1
 186              		.type	OSDbg_PendObjSize, %object
 187              		.size	OSDbg_PendObjSize, 2
 188              	OSDbg_PendObjSize:
 189 00a4 2000     		.short	32
 190              		.global	OSDbg_PrioMax
 191              		.align	1
 192              		.type	OSDbg_PrioMax, %object
 193              		.size	OSDbg_PrioMax, 2
 194              	OSDbg_PrioMax:
 195 00a6 0800     		.short	8
 196              		.global	OSDbg_PrioTblSize
 197              		.align	1
 198              		.type	OSDbg_PrioTblSize, %object
 199              		.size	OSDbg_PrioTblSize, 2
 200              	OSDbg_PrioTblSize:
 201 00a8 0400     		.short	4
 202              		.global	OSDbg_PtrSize
 203              		.align	1
 204              		.type	OSDbg_PtrSize, %object
 205              		.size	OSDbg_PtrSize, 2
 206              	OSDbg_PtrSize:
 207 00aa 0400     		.short	4
 208              		.global	OSDbg_Q
 209              		.align	2
 210              		.type	OSDbg_Q, %object
 211              		.size	OSDbg_Q, 48
 212              	OSDbg_Q:
 213 00ac 00000000 		.space	48
 213      00000000 
 213      00000000 
 213      00000000 
ARM GAS  C:\Users\alex\AppData\Local\Temp\cclpGR5c.s 			page 5


 213      00000000 
 214              		.global	OSDbg_QEn
 215              		.type	OSDbg_QEn, %object
 216              		.size	OSDbg_QEn, 1
 217              	OSDbg_QEn:
 218 00dc 01       		.byte	1
 219              		.global	OSDbg_QDelEn
 220              		.type	OSDbg_QDelEn, %object
 221              		.size	OSDbg_QDelEn, 1
 222              	OSDbg_QDelEn:
 223 00dd 01       		.byte	1
 224              		.global	OSDbg_QFlushEn
 225              		.type	OSDbg_QFlushEn, %object
 226              		.size	OSDbg_QFlushEn, 1
 227              	OSDbg_QFlushEn:
 228 00de 01       		.byte	1
 229              		.global	OSDbg_QPendAbortEn
 230              		.type	OSDbg_QPendAbortEn, %object
 231              		.size	OSDbg_QPendAbortEn, 1
 232              	OSDbg_QPendAbortEn:
 233 00df 01       		.byte	1
 234              		.global	OSDbg_QSize
 235              		.align	1
 236              		.type	OSDbg_QSize, %object
 237              		.size	OSDbg_QSize, 2
 238              	OSDbg_QSize:
 239 00e0 3000     		.short	48
 240              		.global	OSDbg_SchedRoundRobinEn
 241              		.type	OSDbg_SchedRoundRobinEn, %object
 242              		.size	OSDbg_SchedRoundRobinEn, 1
 243              	OSDbg_SchedRoundRobinEn:
 244 00e2 01       		.byte	1
 245              		.global	OSDbg_Sem
 246 00e3 00       		.align	2
 247              		.type	OSDbg_Sem, %object
 248              		.size	OSDbg_Sem, 40
 249              	OSDbg_Sem:
 250 00e4 00000000 		.space	40
 250      00000000 
 250      00000000 
 250      00000000 
 250      00000000 
 251              		.global	OSDbg_SemEn
 252              		.type	OSDbg_SemEn, %object
 253              		.size	OSDbg_SemEn, 1
 254              	OSDbg_SemEn:
 255 010c 01       		.byte	1
 256              		.global	OSDbg_SemDelEn
 257              		.type	OSDbg_SemDelEn, %object
 258              		.size	OSDbg_SemDelEn, 1
 259              	OSDbg_SemDelEn:
 260 010d 01       		.byte	1
 261              		.global	OSDbg_SemPendAbortEn
 262              		.type	OSDbg_SemPendAbortEn, %object
 263              		.size	OSDbg_SemPendAbortEn, 1
 264              	OSDbg_SemPendAbortEn:
 265 010e 01       		.byte	1
ARM GAS  C:\Users\alex\AppData\Local\Temp\cclpGR5c.s 			page 6


 266              		.global	OSDbg_SemSetEn
 267              		.type	OSDbg_SemSetEn, %object
 268              		.size	OSDbg_SemSetEn, 1
 269              	OSDbg_SemSetEn:
 270 010f 01       		.byte	1
 271              		.global	OSDbg_SemSize
 272              		.align	1
 273              		.type	OSDbg_SemSize, %object
 274              		.size	OSDbg_SemSize, 2
 275              	OSDbg_SemSize:
 276 0110 2800     		.short	40
 277              		.global	OSDbg_RdyList
 278              		.align	1
 279              		.type	OSDbg_RdyList, %object
 280              		.size	OSDbg_RdyList, 2
 281              	OSDbg_RdyList:
 282 0112 0C00     		.short	12
 283              		.global	OSDbg_RdyListSize
 284              		.align	2
 285              		.type	OSDbg_RdyListSize, %object
 286              		.size	OSDbg_RdyListSize, 4
 287              	OSDbg_RdyListSize:
 288 0114 60000000 		.word	96
 289              		.global	OSDbg_StkWidth
 290              		.type	OSDbg_StkWidth, %object
 291              		.size	OSDbg_StkWidth, 1
 292              	OSDbg_StkWidth:
 293 0118 04       		.byte	4
 294              		.global	OSDbg_StatTaskEn
 295              		.type	OSDbg_StatTaskEn, %object
 296              		.size	OSDbg_StatTaskEn, 1
 297              	OSDbg_StatTaskEn:
 298 0119 01       		.byte	1
 299              		.global	OSDbg_StatTaskStkChkEn
 300              		.type	OSDbg_StatTaskStkChkEn, %object
 301              		.size	OSDbg_StatTaskStkChkEn, 1
 302              	OSDbg_StatTaskStkChkEn:
 303 011a 01       		.byte	1
 304              		.global	OSDbg_TaskChangePrioEn
 305              		.type	OSDbg_TaskChangePrioEn, %object
 306              		.size	OSDbg_TaskChangePrioEn, 1
 307              	OSDbg_TaskChangePrioEn:
 308 011b 01       		.byte	1
 309              		.global	OSDbg_TaskDelEn
 310              		.type	OSDbg_TaskDelEn, %object
 311              		.size	OSDbg_TaskDelEn, 1
 312              	OSDbg_TaskDelEn:
 313 011c 01       		.byte	1
 314              		.global	OSDbg_TaskQEn
 315              		.type	OSDbg_TaskQEn, %object
 316              		.size	OSDbg_TaskQEn, 1
 317              	OSDbg_TaskQEn:
 318 011d 01       		.byte	1
 319              		.global	OSDbg_TaskQPendAbortEn
 320              		.type	OSDbg_TaskQPendAbortEn, %object
 321              		.size	OSDbg_TaskQPendAbortEn, 1
 322              	OSDbg_TaskQPendAbortEn:
ARM GAS  C:\Users\alex\AppData\Local\Temp\cclpGR5c.s 			page 7


 323 011e 01       		.byte	1
 324              		.global	OSDbg_TaskProfileEn
 325              		.type	OSDbg_TaskProfileEn, %object
 326              		.size	OSDbg_TaskProfileEn, 1
 327              	OSDbg_TaskProfileEn:
 328 011f 01       		.byte	1
 329              		.global	OSDbg_TaskRegTblSize
 330              		.align	1
 331              		.type	OSDbg_TaskRegTblSize, %object
 332              		.size	OSDbg_TaskRegTblSize, 2
 333              	OSDbg_TaskRegTblSize:
 334 0120 0100     		.short	1
 335              		.global	OSDbg_TaskSemPendAbortEn
 336              		.type	OSDbg_TaskSemPendAbortEn, %object
 337              		.size	OSDbg_TaskSemPendAbortEn, 1
 338              	OSDbg_TaskSemPendAbortEn:
 339 0122 01       		.byte	1
 340              		.global	OSDbg_TaskSuspendEn
 341              		.type	OSDbg_TaskSuspendEn, %object
 342              		.size	OSDbg_TaskSuspendEn, 1
 343              	OSDbg_TaskSuspendEn:
 344 0123 01       		.byte	1
 345              		.global	OSDbg_TCBSize
 346              		.align	1
 347              		.type	OSDbg_TCBSize, %object
 348              		.size	OSDbg_TCBSize, 2
 349              	OSDbg_TCBSize:
 350 0124 C000     		.short	192
 351              		.global	OSDbg_TickSpokeSize
 352              		.align	1
 353              		.type	OSDbg_TickSpokeSize, %object
 354              		.size	OSDbg_TickSpokeSize, 2
 355              	OSDbg_TickSpokeSize:
 356 0126 0800     		.short	8
 357              		.global	OSDbg_TimeDlyHMSMEn
 358              		.type	OSDbg_TimeDlyHMSMEn, %object
 359              		.size	OSDbg_TimeDlyHMSMEn, 1
 360              	OSDbg_TimeDlyHMSMEn:
 361 0128 01       		.byte	1
 362              		.global	OSDbg_TimeDlyResumeEn
 363              		.type	OSDbg_TimeDlyResumeEn, %object
 364              		.size	OSDbg_TimeDlyResumeEn, 1
 365              	OSDbg_TimeDlyResumeEn:
 366 0129 01       		.byte	1
 367              		.global	OSDbg_TLS_TblSize
 368              		.align	1
 369              		.type	OSDbg_TLS_TblSize, %object
 370              		.size	OSDbg_TLS_TblSize, 2
 371              	OSDbg_TLS_TblSize:
 372 012a 0000     		.space	2
 373              		.global	OSDbg_Tmr
 374              		.align	2
 375              		.type	OSDbg_Tmr, %object
 376              		.size	OSDbg_Tmr, 52
 377              	OSDbg_Tmr:
 378 012c 00000000 		.space	52
 378      00000000 
ARM GAS  C:\Users\alex\AppData\Local\Temp\cclpGR5c.s 			page 8


 378      00000000 
 378      00000000 
 378      00000000 
 379              		.global	OSDbg_TmrEn
 380              		.type	OSDbg_TmrEn, %object
 381              		.size	OSDbg_TmrEn, 1
 382              	OSDbg_TmrEn:
 383 0160 01       		.byte	1
 384              		.global	OSDbg_TmrDelEn
 385              		.type	OSDbg_TmrDelEn, %object
 386              		.size	OSDbg_TmrDelEn, 1
 387              	OSDbg_TmrDelEn:
 388 0161 01       		.byte	1
 389              		.global	OSDbg_TmrSize
 390              		.align	1
 391              		.type	OSDbg_TmrSize, %object
 392              		.size	OSDbg_TmrSize, 2
 393              	OSDbg_TmrSize:
 394 0162 3400     		.short	52
 395              		.global	OSDbg_TmrSpokeSize
 396              		.align	1
 397              		.type	OSDbg_TmrSpokeSize, %object
 398              		.size	OSDbg_TmrSpokeSize, 2
 399              	OSDbg_TmrSpokeSize:
 400 0164 0800     		.short	8
 401              		.global	OSDbg_VersionNbr
 402              		.align	1
 403              		.type	OSDbg_VersionNbr, %object
 404              		.size	OSDbg_VersionNbr, 2
 405              	OSDbg_VersionNbr:
 406 0166 5D76     		.short	30301
 407              		.global	OSDbg_DataSize
 408              		.align	2
 409              		.type	OSDbg_DataSize, %object
 410              		.size	OSDbg_DataSize, 4
 411              	OSDbg_DataSize:
 412 0168 00040000 		.word	1024
 413              		.section	.text.OS_Dbg_Init,"ax",%progbits
 414              		.align	2
 415              		.global	OS_Dbg_Init
 416              		.thumb
 417              		.thumb_func
 418              		.type	OS_Dbg_Init, %function
 419              	OS_Dbg_Init:
 420              	.LFB0:
 421              		.file 1 "..\\..\\..\\..\\..\\..\\uCOS-III\\Source\\os_dbg.c"
   1:..\..\..\..\..\..\uCOS-III\Source/os_dbg.c **** /*
   2:..\..\..\..\..\..\uCOS-III\Source/os_dbg.c **** ***************************************************************************************************
   3:..\..\..\..\..\..\uCOS-III\Source/os_dbg.c **** *                                                      uC/OS-III
   4:..\..\..\..\..\..\uCOS-III\Source/os_dbg.c **** *                                                 The Real-Time Kernel
   5:..\..\..\..\..\..\uCOS-III\Source/os_dbg.c **** *
   6:..\..\..\..\..\..\uCOS-III\Source/os_dbg.c **** *                                  (c) Copyright 2009-2012; Micrium, Inc.; Weston, FL
   7:..\..\..\..\..\..\uCOS-III\Source/os_dbg.c **** *                           All rights reserved.  Protected by international copyright laws.
   8:..\..\..\..\..\..\uCOS-III\Source/os_dbg.c **** *
   9:..\..\..\..\..\..\uCOS-III\Source/os_dbg.c **** *                                                  DEBUGGER CONSTANTS
  10:..\..\..\..\..\..\uCOS-III\Source/os_dbg.c **** *
  11:..\..\..\..\..\..\uCOS-III\Source/os_dbg.c **** * File    : OS_DBG.C
ARM GAS  C:\Users\alex\AppData\Local\Temp\cclpGR5c.s 			page 9


  12:..\..\..\..\..\..\uCOS-III\Source/os_dbg.c **** * By      : JJL
  13:..\..\..\..\..\..\uCOS-III\Source/os_dbg.c **** * Version : V3.03.01
  14:..\..\..\..\..\..\uCOS-III\Source/os_dbg.c **** *
  15:..\..\..\..\..\..\uCOS-III\Source/os_dbg.c **** * LICENSING TERMS:
  16:..\..\..\..\..\..\uCOS-III\Source/os_dbg.c **** * ---------------
  17:..\..\..\..\..\..\uCOS-III\Source/os_dbg.c **** *           uC/OS-III is provided in source form for FREE short-term evaluation, for educational us
  18:..\..\..\..\..\..\uCOS-III\Source/os_dbg.c **** *           for peaceful research.  If you plan or intend to use uC/OS-III in a commercial applicat
  19:..\..\..\..\..\..\uCOS-III\Source/os_dbg.c **** *           product then, you need to contact Micrium to properly license uC/OS-III for its use in 
  20:..\..\..\..\..\..\uCOS-III\Source/os_dbg.c **** *           application/product.   We provide ALL the source code for your convenience and to help 
  21:..\..\..\..\..\..\uCOS-III\Source/os_dbg.c **** *           experience uC/OS-III.  The fact that the source is provided does NOT mean that you can 
  22:..\..\..\..\..\..\uCOS-III\Source/os_dbg.c **** *           it commercially without paying a licensing fee.
  23:..\..\..\..\..\..\uCOS-III\Source/os_dbg.c **** *
  24:..\..\..\..\..\..\uCOS-III\Source/os_dbg.c **** *           Knowledge of the source code may NOT be used to develop a similar product.
  25:..\..\..\..\..\..\uCOS-III\Source/os_dbg.c **** *
  26:..\..\..\..\..\..\uCOS-III\Source/os_dbg.c **** *           Please help us continue to provide the embedded community with the finest software avai
  27:..\..\..\..\..\..\uCOS-III\Source/os_dbg.c **** *           Your honesty is greatly appreciated.
  28:..\..\..\..\..\..\uCOS-III\Source/os_dbg.c **** *
  29:..\..\..\..\..\..\uCOS-III\Source/os_dbg.c **** *           You can contact us at www.micrium.com, or by phone at +1 (954) 217-2036.
  30:..\..\..\..\..\..\uCOS-III\Source/os_dbg.c **** ***************************************************************************************************
  31:..\..\..\..\..\..\uCOS-III\Source/os_dbg.c **** */
  32:..\..\..\..\..\..\uCOS-III\Source/os_dbg.c **** 
  33:..\..\..\..\..\..\uCOS-III\Source/os_dbg.c **** #define  MICRIUM_SOURCE
  34:..\..\..\..\..\..\uCOS-III\Source/os_dbg.c **** #include <os.h>
  35:..\..\..\..\..\..\uCOS-III\Source/os_dbg.c **** 
  36:..\..\..\..\..\..\uCOS-III\Source/os_dbg.c **** #ifdef VSC_INCLUDE_SOURCE_FILE_NAMES
  37:..\..\..\..\..\..\uCOS-III\Source/os_dbg.c **** const  CPU_CHAR  *os_dbg__c = "$Id: $";
  38:..\..\..\..\..\..\uCOS-III\Source/os_dbg.c **** #endif
  39:..\..\..\..\..\..\uCOS-III\Source/os_dbg.c **** 
  40:..\..\..\..\..\..\uCOS-III\Source/os_dbg.c **** CPU_INT08U  const  OSDbg_DbgEn                 = OS_CFG_DBG_EN;                /* Debug constants a
  41:..\..\..\..\..\..\uCOS-III\Source/os_dbg.c **** 
  42:..\..\..\..\..\..\uCOS-III\Source/os_dbg.c **** #if OS_CFG_DBG_EN > 0u
  43:..\..\..\..\..\..\uCOS-III\Source/os_dbg.c **** 
  44:..\..\..\..\..\..\uCOS-III\Source/os_dbg.c **** /*
  45:..\..\..\..\..\..\uCOS-III\Source/os_dbg.c **** ***************************************************************************************************
  46:..\..\..\..\..\..\uCOS-III\Source/os_dbg.c **** *                                                      DEBUG DATA
  47:..\..\..\..\..\..\uCOS-III\Source/os_dbg.c **** ***************************************************************************************************
  48:..\..\..\..\..\..\uCOS-III\Source/os_dbg.c **** */
  49:..\..\..\..\..\..\uCOS-III\Source/os_dbg.c **** 
  50:..\..\..\..\..\..\uCOS-III\Source/os_dbg.c **** CPU_INT08U  const  OSDbg_ArgChkEn              = OS_CFG_ARG_CHK_EN;
  51:..\..\..\..\..\..\uCOS-III\Source/os_dbg.c **** CPU_INT08U  const  OSDbg_AppHooksEn            = OS_CFG_APP_HOOKS_EN;
  52:..\..\..\..\..\..\uCOS-III\Source/os_dbg.c **** 
  53:..\..\..\..\..\..\uCOS-III\Source/os_dbg.c **** CPU_INT32U  const  OSDbg_EndiannessTest        = 0x12345678LU;                 /* Variable to test 
  54:..\..\..\..\..\..\uCOS-III\Source/os_dbg.c **** 
  55:..\..\..\..\..\..\uCOS-III\Source/os_dbg.c **** CPU_INT08U  const  OSDbg_CalledFromISRChkEn    = OS_CFG_CALLED_FROM_ISR_CHK_EN;
  56:..\..\..\..\..\..\uCOS-III\Source/os_dbg.c **** 
  57:..\..\..\..\..\..\uCOS-III\Source/os_dbg.c **** CPU_INT08U  const  OSDbg_FlagEn                = OS_CFG_FLAG_EN;
  58:..\..\..\..\..\..\uCOS-III\Source/os_dbg.c **** OS_FLAG_GRP const  OSDbg_FlagGrp               = { 0u };
  59:..\..\..\..\..\..\uCOS-III\Source/os_dbg.c **** #if OS_CFG_FLAG_EN > 0u
  60:..\..\..\..\..\..\uCOS-III\Source/os_dbg.c **** CPU_INT08U  const  OSDbg_FlagDelEn             = OS_CFG_FLAG_DEL_EN;
  61:..\..\..\..\..\..\uCOS-III\Source/os_dbg.c **** CPU_INT08U  const  OSDbg_FlagModeClrEn         = OS_CFG_FLAG_MODE_CLR_EN;
  62:..\..\..\..\..\..\uCOS-III\Source/os_dbg.c **** CPU_INT08U  const  OSDbg_FlagPendAbortEn       = OS_CFG_FLAG_PEND_ABORT_EN;
  63:..\..\..\..\..\..\uCOS-III\Source/os_dbg.c **** CPU_INT16U  const  OSDbg_FlagGrpSize           = sizeof(OS_FLAG_GRP);          /* Size in Bytes of 
  64:..\..\..\..\..\..\uCOS-III\Source/os_dbg.c **** CPU_INT16U  const  OSDbg_FlagWidth             = sizeof(OS_FLAGS);             /* Width (in bytes) 
  65:..\..\..\..\..\..\uCOS-III\Source/os_dbg.c **** #else
  66:..\..\..\..\..\..\uCOS-III\Source/os_dbg.c **** CPU_INT08U  const  OSDbg_FlagDelEn             = 0u;
  67:..\..\..\..\..\..\uCOS-III\Source/os_dbg.c **** CPU_INT08U  const  OSDbg_FlagModeClrEn         = 0u;
  68:..\..\..\..\..\..\uCOS-III\Source/os_dbg.c **** CPU_INT08U  const  OSDbg_FlagPendAbortEn       = 0u;
ARM GAS  C:\Users\alex\AppData\Local\Temp\cclpGR5c.s 			page 10


  69:..\..\..\..\..\..\uCOS-III\Source/os_dbg.c **** CPU_INT16U  const  OSDbg_FlagGrpSize           = 0u;
  70:..\..\..\..\..\..\uCOS-III\Source/os_dbg.c **** CPU_INT16U  const  OSDbg_FlagWidth             = 0u;
  71:..\..\..\..\..\..\uCOS-III\Source/os_dbg.c **** #endif
  72:..\..\..\..\..\..\uCOS-III\Source/os_dbg.c **** 
  73:..\..\..\..\..\..\uCOS-III\Source/os_dbg.c **** #if OS_CFG_ISR_POST_DEFERRED_EN > 0u
  74:..\..\..\..\..\..\uCOS-III\Source/os_dbg.c **** CPU_INT16U  const  OSDbg_IntQ                  = sizeof(OS_INT_Q);
  75:..\..\..\..\..\..\uCOS-III\Source/os_dbg.c **** #else
  76:..\..\..\..\..\..\uCOS-III\Source/os_dbg.c **** CPU_INT16U  const  OSDbg_IntQ                  = 0u;
  77:..\..\..\..\..\..\uCOS-III\Source/os_dbg.c **** #endif
  78:..\..\..\..\..\..\uCOS-III\Source/os_dbg.c **** 
  79:..\..\..\..\..\..\uCOS-III\Source/os_dbg.c **** CPU_INT08U  const  OSDbg_ISRPostDeferredEn     = OS_CFG_ISR_POST_DEFERRED_EN;
  80:..\..\..\..\..\..\uCOS-III\Source/os_dbg.c **** 
  81:..\..\..\..\..\..\uCOS-III\Source/os_dbg.c **** OS_MEM      const  OSDbg_Mem                   = { 0u };
  82:..\..\..\..\..\..\uCOS-III\Source/os_dbg.c **** CPU_INT08U  const  OSDbg_MemEn                 = OS_CFG_MEM_EN;
  83:..\..\..\..\..\..\uCOS-III\Source/os_dbg.c **** #if OS_CFG_MEM_EN > 0u
  84:..\..\..\..\..\..\uCOS-III\Source/os_dbg.c **** CPU_INT16U  const  OSDbg_MemSize               = sizeof(OS_MEM);               /* Mem. Partition he
  85:..\..\..\..\..\..\uCOS-III\Source/os_dbg.c **** #else
  86:..\..\..\..\..\..\uCOS-III\Source/os_dbg.c **** CPU_INT16U  const  OSDbg_MemSize               = 0u;
  87:..\..\..\..\..\..\uCOS-III\Source/os_dbg.c **** #endif
  88:..\..\..\..\..\..\uCOS-III\Source/os_dbg.c **** 
  89:..\..\..\..\..\..\uCOS-III\Source/os_dbg.c **** 
  90:..\..\..\..\..\..\uCOS-III\Source/os_dbg.c **** #if (OS_MSG_EN) > 0u
  91:..\..\..\..\..\..\uCOS-III\Source/os_dbg.c **** CPU_INT08U  const  OSDbg_MsgEn                 = 1u;
  92:..\..\..\..\..\..\uCOS-III\Source/os_dbg.c **** CPU_INT16U  const  OSDbg_MsgSize               = sizeof(OS_MSG);               /* OS_MSG size      
  93:..\..\..\..\..\..\uCOS-III\Source/os_dbg.c **** CPU_INT16U  const  OSDbg_MsgPoolSize           = sizeof(OS_MSG_POOL);
  94:..\..\..\..\..\..\uCOS-III\Source/os_dbg.c **** CPU_INT16U  const  OSDbg_MsgQSize              = sizeof(OS_MSG_Q);
  95:..\..\..\..\..\..\uCOS-III\Source/os_dbg.c **** #else
  96:..\..\..\..\..\..\uCOS-III\Source/os_dbg.c **** CPU_INT08U  const  OSDbg_MsgEn                 = 0u;
  97:..\..\..\..\..\..\uCOS-III\Source/os_dbg.c **** CPU_INT16U  const  OSDbg_MsgSize               = 0u;
  98:..\..\..\..\..\..\uCOS-III\Source/os_dbg.c **** CPU_INT16U  const  OSDbg_MsgPoolSize           = 0u;
  99:..\..\..\..\..\..\uCOS-III\Source/os_dbg.c **** CPU_INT16U  const  OSDbg_MsgQSize              = 0u;
 100:..\..\..\..\..\..\uCOS-III\Source/os_dbg.c **** #endif
 101:..\..\..\..\..\..\uCOS-III\Source/os_dbg.c **** 
 102:..\..\..\..\..\..\uCOS-III\Source/os_dbg.c **** 
 103:..\..\..\..\..\..\uCOS-III\Source/os_dbg.c **** OS_MUTEX    const  OSDbg_Mutex                 = { 0u };
 104:..\..\..\..\..\..\uCOS-III\Source/os_dbg.c **** CPU_INT08U  const  OSDbg_MutexEn               = OS_CFG_MUTEX_EN;
 105:..\..\..\..\..\..\uCOS-III\Source/os_dbg.c **** #if OS_CFG_MUTEX_EN > 0u
 106:..\..\..\..\..\..\uCOS-III\Source/os_dbg.c **** CPU_INT08U  const  OSDbg_MutexDelEn            = OS_CFG_MUTEX_DEL_EN;
 107:..\..\..\..\..\..\uCOS-III\Source/os_dbg.c **** CPU_INT08U  const  OSDbg_MutexPendAbortEn      = OS_CFG_MUTEX_PEND_ABORT_EN;
 108:..\..\..\..\..\..\uCOS-III\Source/os_dbg.c **** CPU_INT16U  const  OSDbg_MutexSize             = sizeof(OS_MUTEX);             /* Size in bytes of 
 109:..\..\..\..\..\..\uCOS-III\Source/os_dbg.c **** #else
 110:..\..\..\..\..\..\uCOS-III\Source/os_dbg.c **** CPU_INT08U  const  OSDbg_MutexDelEn            = 0u;
 111:..\..\..\..\..\..\uCOS-III\Source/os_dbg.c **** CPU_INT08U  const  OSDbg_MutexPendAbortEn      = 0u;
 112:..\..\..\..\..\..\uCOS-III\Source/os_dbg.c **** CPU_INT16U  const  OSDbg_MutexSize             = 0u;
 113:..\..\..\..\..\..\uCOS-III\Source/os_dbg.c **** #endif
 114:..\..\..\..\..\..\uCOS-III\Source/os_dbg.c **** 
 115:..\..\..\..\..\..\uCOS-III\Source/os_dbg.c **** CPU_INT08U  const  OSDbg_ObjTypeChkEn          = OS_CFG_OBJ_TYPE_CHK_EN;
 116:..\..\..\..\..\..\uCOS-III\Source/os_dbg.c **** 
 117:..\..\..\..\..\..\uCOS-III\Source/os_dbg.c **** 
 118:..\..\..\..\..\..\uCOS-III\Source/os_dbg.c **** CPU_INT08U  const  OSDbg_PendMultiEn           = OS_CFG_PEND_MULTI_EN;
 119:..\..\..\..\..\..\uCOS-III\Source/os_dbg.c **** CPU_INT16U  const  OSDbg_PendDataSize          = sizeof(OS_PEND_DATA);
 120:..\..\..\..\..\..\uCOS-III\Source/os_dbg.c **** CPU_INT16U  const  OSDbg_PendListSize          = sizeof(OS_PEND_LIST);
 121:..\..\..\..\..\..\uCOS-III\Source/os_dbg.c **** CPU_INT16U  const  OSDbg_PendObjSize           = sizeof(OS_PEND_OBJ);
 122:..\..\..\..\..\..\uCOS-III\Source/os_dbg.c **** 
 123:..\..\..\..\..\..\uCOS-III\Source/os_dbg.c **** 
 124:..\..\..\..\..\..\uCOS-III\Source/os_dbg.c **** CPU_INT16U  const  OSDbg_PrioMax               = OS_CFG_PRIO_MAX;              /* Maximum number of
 125:..\..\..\..\..\..\uCOS-III\Source/os_dbg.c **** CPU_INT16U  const  OSDbg_PrioTblSize           = sizeof(OSPrioTbl);
ARM GAS  C:\Users\alex\AppData\Local\Temp\cclpGR5c.s 			page 11


 126:..\..\..\..\..\..\uCOS-III\Source/os_dbg.c **** 
 127:..\..\..\..\..\..\uCOS-III\Source/os_dbg.c **** CPU_INT16U  const  OSDbg_PtrSize               = sizeof(void *);               /* Size in Bytes of 
 128:..\..\..\..\..\..\uCOS-III\Source/os_dbg.c **** 
 129:..\..\..\..\..\..\uCOS-III\Source/os_dbg.c **** 
 130:..\..\..\..\..\..\uCOS-III\Source/os_dbg.c **** OS_Q        const  OSDbg_Q                     = { 0u };
 131:..\..\..\..\..\..\uCOS-III\Source/os_dbg.c **** CPU_INT08U  const  OSDbg_QEn                   = OS_CFG_Q_EN;
 132:..\..\..\..\..\..\uCOS-III\Source/os_dbg.c **** #if OS_CFG_Q_EN > 0u
 133:..\..\..\..\..\..\uCOS-III\Source/os_dbg.c **** CPU_INT08U  const  OSDbg_QDelEn                = OS_CFG_Q_DEL_EN;
 134:..\..\..\..\..\..\uCOS-III\Source/os_dbg.c **** CPU_INT08U  const  OSDbg_QFlushEn              = OS_CFG_Q_FLUSH_EN;
 135:..\..\..\..\..\..\uCOS-III\Source/os_dbg.c **** CPU_INT08U  const  OSDbg_QPendAbortEn          = OS_CFG_Q_PEND_ABORT_EN;
 136:..\..\..\..\..\..\uCOS-III\Source/os_dbg.c **** CPU_INT16U  const  OSDbg_QSize                 = sizeof(OS_Q);                 /* Size in bytes of 
 137:..\..\..\..\..\..\uCOS-III\Source/os_dbg.c **** #else
 138:..\..\..\..\..\..\uCOS-III\Source/os_dbg.c **** CPU_INT08U  const  OSDbg_QDelEn                = 0u;
 139:..\..\..\..\..\..\uCOS-III\Source/os_dbg.c **** CPU_INT08U  const  OSDbg_QFlushEn              = 0u;
 140:..\..\..\..\..\..\uCOS-III\Source/os_dbg.c **** CPU_INT08U  const  OSDbg_QPendAbortEn          = 0u;
 141:..\..\..\..\..\..\uCOS-III\Source/os_dbg.c **** CPU_INT16U  const  OSDbg_QSize                 = 0u;
 142:..\..\..\..\..\..\uCOS-III\Source/os_dbg.c **** #endif
 143:..\..\..\..\..\..\uCOS-III\Source/os_dbg.c **** 
 144:..\..\..\..\..\..\uCOS-III\Source/os_dbg.c **** 
 145:..\..\..\..\..\..\uCOS-III\Source/os_dbg.c **** CPU_INT08U  const  OSDbg_SchedRoundRobinEn     = OS_CFG_SCHED_ROUND_ROBIN_EN;
 146:..\..\..\..\..\..\uCOS-III\Source/os_dbg.c **** 
 147:..\..\..\..\..\..\uCOS-III\Source/os_dbg.c **** 
 148:..\..\..\..\..\..\uCOS-III\Source/os_dbg.c **** OS_SEM      const  OSDbg_Sem                   = { 0u };
 149:..\..\..\..\..\..\uCOS-III\Source/os_dbg.c **** CPU_INT08U  const  OSDbg_SemEn                 = OS_CFG_SEM_EN;
 150:..\..\..\..\..\..\uCOS-III\Source/os_dbg.c **** #if OS_CFG_SEM_EN > 0u
 151:..\..\..\..\..\..\uCOS-III\Source/os_dbg.c **** CPU_INT08U  const  OSDbg_SemDelEn              = OS_CFG_SEM_DEL_EN;
 152:..\..\..\..\..\..\uCOS-III\Source/os_dbg.c **** CPU_INT08U  const  OSDbg_SemPendAbortEn        = OS_CFG_SEM_PEND_ABORT_EN;
 153:..\..\..\..\..\..\uCOS-III\Source/os_dbg.c **** CPU_INT08U  const  OSDbg_SemSetEn              = OS_CFG_SEM_SET_EN;
 154:..\..\..\..\..\..\uCOS-III\Source/os_dbg.c **** CPU_INT16U  const  OSDbg_SemSize               = sizeof(OS_SEM);               /* Size in bytes of 
 155:..\..\..\..\..\..\uCOS-III\Source/os_dbg.c **** #else
 156:..\..\..\..\..\..\uCOS-III\Source/os_dbg.c **** CPU_INT08U  const  OSDbg_SemDelEn              = 0u;
 157:..\..\..\..\..\..\uCOS-III\Source/os_dbg.c **** CPU_INT08U  const  OSDbg_SemPendAbortEn        = 0u;
 158:..\..\..\..\..\..\uCOS-III\Source/os_dbg.c **** CPU_INT08U  const  OSDbg_SemSetEn              = 0u;
 159:..\..\..\..\..\..\uCOS-III\Source/os_dbg.c **** CPU_INT16U  const  OSDbg_SemSize               = 0u;
 160:..\..\..\..\..\..\uCOS-III\Source/os_dbg.c **** #endif
 161:..\..\..\..\..\..\uCOS-III\Source/os_dbg.c **** 
 162:..\..\..\..\..\..\uCOS-III\Source/os_dbg.c **** 
 163:..\..\..\..\..\..\uCOS-III\Source/os_dbg.c **** CPU_INT16U  const  OSDbg_RdyList               = sizeof(OS_RDY_LIST);
 164:..\..\..\..\..\..\uCOS-III\Source/os_dbg.c **** CPU_INT32U  const  OSDbg_RdyListSize           = sizeof(OSRdyList);            /* Number of bytes i
 165:..\..\..\..\..\..\uCOS-III\Source/os_dbg.c **** 
 166:..\..\..\..\..\..\uCOS-III\Source/os_dbg.c **** CPU_INT08U  const  OSDbg_StkWidth              = sizeof(CPU_STK);
 167:..\..\..\..\..\..\uCOS-III\Source/os_dbg.c **** 
 168:..\..\..\..\..\..\uCOS-III\Source/os_dbg.c **** CPU_INT08U  const  OSDbg_StatTaskEn            = OS_CFG_STAT_TASK_EN;
 169:..\..\..\..\..\..\uCOS-III\Source/os_dbg.c **** CPU_INT08U  const  OSDbg_StatTaskStkChkEn      = OS_CFG_STAT_TASK_STK_CHK_EN;
 170:..\..\..\..\..\..\uCOS-III\Source/os_dbg.c **** 
 171:..\..\..\..\..\..\uCOS-III\Source/os_dbg.c **** CPU_INT08U  const  OSDbg_TaskChangePrioEn      = OS_CFG_TASK_CHANGE_PRIO_EN;
 172:..\..\..\..\..\..\uCOS-III\Source/os_dbg.c **** CPU_INT08U  const  OSDbg_TaskDelEn             = OS_CFG_TASK_DEL_EN;
 173:..\..\..\..\..\..\uCOS-III\Source/os_dbg.c **** CPU_INT08U  const  OSDbg_TaskQEn               = OS_CFG_TASK_Q_EN;
 174:..\..\..\..\..\..\uCOS-III\Source/os_dbg.c **** CPU_INT08U  const  OSDbg_TaskQPendAbortEn      = OS_CFG_TASK_Q_PEND_ABORT_EN;
 175:..\..\..\..\..\..\uCOS-III\Source/os_dbg.c **** CPU_INT08U  const  OSDbg_TaskProfileEn         = OS_CFG_TASK_PROFILE_EN;
 176:..\..\..\..\..\..\uCOS-III\Source/os_dbg.c **** CPU_INT16U  const  OSDbg_TaskRegTblSize        = OS_CFG_TASK_REG_TBL_SIZE;
 177:..\..\..\..\..\..\uCOS-III\Source/os_dbg.c **** CPU_INT08U  const  OSDbg_TaskSemPendAbortEn    = OS_CFG_TASK_SEM_PEND_ABORT_EN;
 178:..\..\..\..\..\..\uCOS-III\Source/os_dbg.c **** CPU_INT08U  const  OSDbg_TaskSuspendEn         = OS_CFG_TASK_SUSPEND_EN;
 179:..\..\..\..\..\..\uCOS-III\Source/os_dbg.c **** 
 180:..\..\..\..\..\..\uCOS-III\Source/os_dbg.c **** 
 181:..\..\..\..\..\..\uCOS-III\Source/os_dbg.c **** CPU_INT16U  const  OSDbg_TCBSize               = sizeof(OS_TCB);               /* Size in Bytes of 
 182:..\..\..\..\..\..\uCOS-III\Source/os_dbg.c **** 
ARM GAS  C:\Users\alex\AppData\Local\Temp\cclpGR5c.s 			page 12


 183:..\..\..\..\..\..\uCOS-III\Source/os_dbg.c **** CPU_INT16U  const  OSDbg_TickSpokeSize         = sizeof(OS_TICK_SPOKE);
 184:..\..\..\..\..\..\uCOS-III\Source/os_dbg.c **** 
 185:..\..\..\..\..\..\uCOS-III\Source/os_dbg.c **** CPU_INT08U  const  OSDbg_TimeDlyHMSMEn         = OS_CFG_TIME_DLY_HMSM_EN;
 186:..\..\..\..\..\..\uCOS-III\Source/os_dbg.c **** CPU_INT08U  const  OSDbg_TimeDlyResumeEn       = OS_CFG_TIME_DLY_RESUME_EN;
 187:..\..\..\..\..\..\uCOS-III\Source/os_dbg.c **** 
 188:..\..\..\..\..\..\uCOS-III\Source/os_dbg.c **** #if defined(OS_CFG_TLS_TBL_SIZE) && (OS_CFG_TLS_TBL_SIZE > 0u)
 189:..\..\..\..\..\..\uCOS-III\Source/os_dbg.c **** CPU_INT16U  const  OSDbg_TLS_TblSize           = OS_CFG_TLS_TBL_SIZE * sizeof(OS_TLS);
 190:..\..\..\..\..\..\uCOS-III\Source/os_dbg.c **** #else
 191:..\..\..\..\..\..\uCOS-III\Source/os_dbg.c **** CPU_INT16U  const  OSDbg_TLS_TblSize           = 0u;
 192:..\..\..\..\..\..\uCOS-III\Source/os_dbg.c **** #endif
 193:..\..\..\..\..\..\uCOS-III\Source/os_dbg.c **** 
 194:..\..\..\..\..\..\uCOS-III\Source/os_dbg.c **** 
 195:..\..\..\..\..\..\uCOS-III\Source/os_dbg.c **** OS_TMR      const  OSDbg_Tmr                   = { 0u };
 196:..\..\..\..\..\..\uCOS-III\Source/os_dbg.c **** CPU_INT08U  const  OSDbg_TmrEn                 = OS_CFG_TMR_EN;
 197:..\..\..\..\..\..\uCOS-III\Source/os_dbg.c **** #if OS_CFG_TMR_EN > 0u
 198:..\..\..\..\..\..\uCOS-III\Source/os_dbg.c **** CPU_INT08U  const  OSDbg_TmrDelEn              = OS_CFG_TMR_DEL_EN;
 199:..\..\..\..\..\..\uCOS-III\Source/os_dbg.c **** CPU_INT16U  const  OSDbg_TmrSize               = sizeof(OS_TMR);
 200:..\..\..\..\..\..\uCOS-III\Source/os_dbg.c **** CPU_INT16U  const  OSDbg_TmrSpokeSize          = sizeof(OS_TMR_SPOKE);
 201:..\..\..\..\..\..\uCOS-III\Source/os_dbg.c **** #else
 202:..\..\..\..\..\..\uCOS-III\Source/os_dbg.c **** CPU_INT08U  const  OSDbg_TmrDelEn              = 0u;
 203:..\..\..\..\..\..\uCOS-III\Source/os_dbg.c **** CPU_INT16U  const  OSDbg_TmrSize               = 0u;
 204:..\..\..\..\..\..\uCOS-III\Source/os_dbg.c **** CPU_INT16U  const  OSDbg_TmrSpokeSize          = 0u;
 205:..\..\..\..\..\..\uCOS-III\Source/os_dbg.c **** #endif
 206:..\..\..\..\..\..\uCOS-III\Source/os_dbg.c **** 
 207:..\..\..\..\..\..\uCOS-III\Source/os_dbg.c **** CPU_INT16U  const  OSDbg_VersionNbr            = OS_VERSION;
 208:..\..\..\..\..\..\uCOS-III\Source/os_dbg.c **** 
 209:..\..\..\..\..\..\uCOS-III\Source/os_dbg.c **** /*$PAGE*/
 210:..\..\..\..\..\..\uCOS-III\Source/os_dbg.c **** /*
 211:..\..\..\..\..\..\uCOS-III\Source/os_dbg.c **** ***************************************************************************************************
 212:..\..\..\..\..\..\uCOS-III\Source/os_dbg.c **** *                                                      DEBUG DATA
 213:..\..\..\..\..\..\uCOS-III\Source/os_dbg.c **** *                                     TOTAL DATA SPACE (i.e. RAM) USED BY uC/OS-III
 214:..\..\..\..\..\..\uCOS-III\Source/os_dbg.c **** ***************************************************************************************************
 215:..\..\..\..\..\..\uCOS-III\Source/os_dbg.c **** */
 216:..\..\..\..\..\..\uCOS-III\Source/os_dbg.c **** 
 217:..\..\..\..\..\..\uCOS-III\Source/os_dbg.c **** CPU_INT32U  const  OSDbg_DataSize = sizeof(OSIntNestingCtr)
 218:..\..\..\..\..\..\uCOS-III\Source/os_dbg.c **** 
 219:..\..\..\..\..\..\uCOS-III\Source/os_dbg.c **** #if OS_CFG_APP_HOOKS_EN > 0u
 220:..\..\..\..\..\..\uCOS-III\Source/os_dbg.c ****                                   + sizeof(OS_AppTaskCreateHookPtr)
 221:..\..\..\..\..\..\uCOS-III\Source/os_dbg.c ****                                   + sizeof(OS_AppTaskDelHookPtr)
 222:..\..\..\..\..\..\uCOS-III\Source/os_dbg.c ****                                   + sizeof(OS_AppTaskReturnHookPtr)
 223:..\..\..\..\..\..\uCOS-III\Source/os_dbg.c **** 
 224:..\..\..\..\..\..\uCOS-III\Source/os_dbg.c ****                                   + sizeof(OS_AppIdleTaskHookPtr)
 225:..\..\..\..\..\..\uCOS-III\Source/os_dbg.c ****                                   + sizeof(OS_AppStatTaskHookPtr)
 226:..\..\..\..\..\..\uCOS-III\Source/os_dbg.c ****                                   + sizeof(OS_AppTaskSwHookPtr)
 227:..\..\..\..\..\..\uCOS-III\Source/os_dbg.c ****                                   + sizeof(OS_AppTimeTickHookPtr)
 228:..\..\..\..\..\..\uCOS-III\Source/os_dbg.c **** #endif
 229:..\..\..\..\..\..\uCOS-III\Source/os_dbg.c **** 
 230:..\..\..\..\..\..\uCOS-III\Source/os_dbg.c ****                                   + sizeof(OSIdleTaskCtr)
 231:..\..\..\..\..\..\uCOS-III\Source/os_dbg.c ****                                   + sizeof(OSIdleTaskTCB)
 232:..\..\..\..\..\..\uCOS-III\Source/os_dbg.c **** 
 233:..\..\..\..\..\..\uCOS-III\Source/os_dbg.c **** #ifdef CPU_CFG_INT_DIS_MEAS_EN
 234:..\..\..\..\..\..\uCOS-III\Source/os_dbg.c ****                                   + sizeof(OSIntDisTimeMax)
 235:..\..\..\..\..\..\uCOS-III\Source/os_dbg.c **** #endif
 236:..\..\..\..\..\..\uCOS-III\Source/os_dbg.c **** 
 237:..\..\..\..\..\..\uCOS-III\Source/os_dbg.c **** #if OS_CFG_ISR_POST_DEFERRED_EN > 0u
 238:..\..\..\..\..\..\uCOS-III\Source/os_dbg.c ****                                   + sizeof(OSIntQInPtr)
 239:..\..\..\..\..\..\uCOS-III\Source/os_dbg.c ****                                   + sizeof(OSIntQOutPtr)
ARM GAS  C:\Users\alex\AppData\Local\Temp\cclpGR5c.s 			page 13


 240:..\..\..\..\..\..\uCOS-III\Source/os_dbg.c ****                                   + sizeof(OSIntQNbrEntries)
 241:..\..\..\..\..\..\uCOS-III\Source/os_dbg.c ****                                   + sizeof(OSIntQNbrEntriesMax)
 242:..\..\..\..\..\..\uCOS-III\Source/os_dbg.c ****                                   + sizeof(OSIntQOvfCtr)
 243:..\..\..\..\..\..\uCOS-III\Source/os_dbg.c ****                                   + sizeof(OSIntQTaskTCB)
 244:..\..\..\..\..\..\uCOS-III\Source/os_dbg.c ****                                   + sizeof(OSIntQTaskTimeMax)
 245:..\..\..\..\..\..\uCOS-III\Source/os_dbg.c **** #endif
 246:..\..\..\..\..\..\uCOS-III\Source/os_dbg.c **** 
 247:..\..\..\..\..\..\uCOS-III\Source/os_dbg.c ****                                   + sizeof(OSRunning)
 248:..\..\..\..\..\..\uCOS-III\Source/os_dbg.c **** 
 249:..\..\..\..\..\..\uCOS-III\Source/os_dbg.c **** #ifdef OS_SAFETY_CRITICAL_IEC61508
 250:..\..\..\..\..\..\uCOS-III\Source/os_dbg.c ****                                   + sizeof(OSSafetyCriticalStartFlag)
 251:..\..\..\..\..\..\uCOS-III\Source/os_dbg.c **** #endif
 252:..\..\..\..\..\..\uCOS-III\Source/os_dbg.c **** 
 253:..\..\..\..\..\..\uCOS-III\Source/os_dbg.c **** #if OS_CFG_FLAG_EN > 0u
 254:..\..\..\..\..\..\uCOS-III\Source/os_dbg.c ****                                   + sizeof(OSFlagDbgListPtr)
 255:..\..\..\..\..\..\uCOS-III\Source/os_dbg.c ****                                   + sizeof(OSFlagQty)
 256:..\..\..\..\..\..\uCOS-III\Source/os_dbg.c **** #endif
 257:..\..\..\..\..\..\uCOS-III\Source/os_dbg.c **** 
 258:..\..\..\..\..\..\uCOS-III\Source/os_dbg.c **** #if OS_CFG_MEM_EN > 0u
 259:..\..\..\..\..\..\uCOS-III\Source/os_dbg.c **** #if OS_CFG_DBG_EN > 0u
 260:..\..\..\..\..\..\uCOS-III\Source/os_dbg.c ****                                   + sizeof(OSMemDbgListPtr)
 261:..\..\..\..\..\..\uCOS-III\Source/os_dbg.c **** #endif
 262:..\..\..\..\..\..\uCOS-III\Source/os_dbg.c ****                                   + sizeof(OSMemQty)
 263:..\..\..\..\..\..\uCOS-III\Source/os_dbg.c **** #endif
 264:..\..\..\..\..\..\uCOS-III\Source/os_dbg.c **** 
 265:..\..\..\..\..\..\uCOS-III\Source/os_dbg.c **** #if OS_MSG_EN > 0u
 266:..\..\..\..\..\..\uCOS-III\Source/os_dbg.c ****                                   + sizeof(OSMsgPool)
 267:..\..\..\..\..\..\uCOS-III\Source/os_dbg.c **** #endif
 268:..\..\..\..\..\..\uCOS-III\Source/os_dbg.c **** 
 269:..\..\..\..\..\..\uCOS-III\Source/os_dbg.c **** #if OS_CFG_MUTEX_EN > 0u
 270:..\..\..\..\..\..\uCOS-III\Source/os_dbg.c **** #if OS_CFG_DBG_EN > 0u
 271:..\..\..\..\..\..\uCOS-III\Source/os_dbg.c ****                                   + sizeof(OSMutexDbgListPtr)
 272:..\..\..\..\..\..\uCOS-III\Source/os_dbg.c **** #endif
 273:..\..\..\..\..\..\uCOS-III\Source/os_dbg.c ****                                   + sizeof(OSMutexQty)
 274:..\..\..\..\..\..\uCOS-III\Source/os_dbg.c **** #endif
 275:..\..\..\..\..\..\uCOS-III\Source/os_dbg.c **** 
 276:..\..\..\..\..\..\uCOS-III\Source/os_dbg.c ****                                   + sizeof(OSPrioCur)
 277:..\..\..\..\..\..\uCOS-III\Source/os_dbg.c ****                                   + sizeof(OSPrioHighRdy)
 278:..\..\..\..\..\..\uCOS-III\Source/os_dbg.c ****                                   + sizeof(OSPrioSaved)
 279:..\..\..\..\..\..\uCOS-III\Source/os_dbg.c ****                                   + sizeof(OSPrioTbl)
 280:..\..\..\..\..\..\uCOS-III\Source/os_dbg.c **** 
 281:..\..\..\..\..\..\uCOS-III\Source/os_dbg.c **** #if OS_CFG_Q_EN > 0u
 282:..\..\..\..\..\..\uCOS-III\Source/os_dbg.c **** #if OS_CFG_DBG_EN > 0u
 283:..\..\..\..\..\..\uCOS-III\Source/os_dbg.c ****                                   + sizeof(OSQDbgListPtr)
 284:..\..\..\..\..\..\uCOS-III\Source/os_dbg.c **** #endif
 285:..\..\..\..\..\..\uCOS-III\Source/os_dbg.c ****                                   + sizeof(OSQQty)
 286:..\..\..\..\..\..\uCOS-III\Source/os_dbg.c **** #endif
 287:..\..\..\..\..\..\uCOS-III\Source/os_dbg.c **** 
 288:..\..\..\..\..\..\uCOS-III\Source/os_dbg.c ****                                   + sizeof(OSRdyList)
 289:..\..\..\..\..\..\uCOS-III\Source/os_dbg.c **** 
 290:..\..\..\..\..\..\uCOS-III\Source/os_dbg.c ****                                   + sizeof(OSSchedLockNestingCtr)
 291:..\..\..\..\..\..\uCOS-III\Source/os_dbg.c **** 
 292:..\..\..\..\..\..\uCOS-III\Source/os_dbg.c **** #if OS_CFG_SCHED_LOCK_TIME_MEAS_EN > 0u
 293:..\..\..\..\..\..\uCOS-III\Source/os_dbg.c ****                                   + sizeof(OSSchedLockTimeBegin)
 294:..\..\..\..\..\..\uCOS-III\Source/os_dbg.c ****                                   + sizeof(OSSchedLockTimeMax)
 295:..\..\..\..\..\..\uCOS-III\Source/os_dbg.c ****                                   + sizeof(OSSchedLockTimeMaxCur)
 296:..\..\..\..\..\..\uCOS-III\Source/os_dbg.c **** #endif
ARM GAS  C:\Users\alex\AppData\Local\Temp\cclpGR5c.s 			page 14


 297:..\..\..\..\..\..\uCOS-III\Source/os_dbg.c **** 
 298:..\..\..\..\..\..\uCOS-III\Source/os_dbg.c **** #if OS_CFG_SCHED_ROUND_ROBIN_EN
 299:..\..\..\..\..\..\uCOS-III\Source/os_dbg.c ****                                   + sizeof(OSSchedRoundRobinDfltTimeQuanta)
 300:..\..\..\..\..\..\uCOS-III\Source/os_dbg.c ****                                   + sizeof(OSSchedRoundRobinEn)
 301:..\..\..\..\..\..\uCOS-III\Source/os_dbg.c **** #endif
 302:..\..\..\..\..\..\uCOS-III\Source/os_dbg.c **** 
 303:..\..\..\..\..\..\uCOS-III\Source/os_dbg.c **** #if OS_CFG_SEM_EN > 0u
 304:..\..\..\..\..\..\uCOS-III\Source/os_dbg.c **** #if OS_CFG_DBG_EN > 0u
 305:..\..\..\..\..\..\uCOS-III\Source/os_dbg.c ****                                   + sizeof(OSSemDbgListPtr)
 306:..\..\..\..\..\..\uCOS-III\Source/os_dbg.c **** #endif
 307:..\..\..\..\..\..\uCOS-III\Source/os_dbg.c ****                                   + sizeof(OSSemQty)
 308:..\..\..\..\..\..\uCOS-III\Source/os_dbg.c **** #endif
 309:..\..\..\..\..\..\uCOS-III\Source/os_dbg.c ****                                   + sizeof(OSTaskCtxSwCtr)
 310:..\..\..\..\..\..\uCOS-III\Source/os_dbg.c **** #if OS_CFG_DBG_EN > 0u
 311:..\..\..\..\..\..\uCOS-III\Source/os_dbg.c ****                                   + sizeof(OSTaskDbgListPtr)
 312:..\..\..\..\..\..\uCOS-III\Source/os_dbg.c **** #endif
 313:..\..\..\..\..\..\uCOS-III\Source/os_dbg.c ****                                   + sizeof(OSTaskQty)
 314:..\..\..\..\..\..\uCOS-III\Source/os_dbg.c **** 
 315:..\..\..\..\..\..\uCOS-III\Source/os_dbg.c **** #if OS_CFG_STAT_TASK_EN > 0u
 316:..\..\..\..\..\..\uCOS-III\Source/os_dbg.c ****                                   + sizeof(OSStatResetFlag)
 317:..\..\..\..\..\..\uCOS-III\Source/os_dbg.c ****                                   + sizeof(OSStatTaskCPUUsage)
 318:..\..\..\..\..\..\uCOS-III\Source/os_dbg.c ****                                   + sizeof(OSStatTaskCPUUsageMax)
 319:..\..\..\..\..\..\uCOS-III\Source/os_dbg.c ****                                   + sizeof(OSStatTaskCtr)
 320:..\..\..\..\..\..\uCOS-III\Source/os_dbg.c ****                                   + sizeof(OSStatTaskCtrMax)
 321:..\..\..\..\..\..\uCOS-III\Source/os_dbg.c ****                                   + sizeof(OSStatTaskCtrRun)
 322:..\..\..\..\..\..\uCOS-III\Source/os_dbg.c ****                                   + sizeof(OSStatTaskRdy)
 323:..\..\..\..\..\..\uCOS-III\Source/os_dbg.c ****                                   + sizeof(OSStatTaskTCB)
 324:..\..\..\..\..\..\uCOS-III\Source/os_dbg.c ****                                   + sizeof(OSStatTaskTimeMax)
 325:..\..\..\..\..\..\uCOS-III\Source/os_dbg.c **** #endif
 326:..\..\..\..\..\..\uCOS-III\Source/os_dbg.c **** 
 327:..\..\..\..\..\..\uCOS-III\Source/os_dbg.c ****                                   + sizeof(OSTickCtr)
 328:..\..\..\..\..\..\uCOS-III\Source/os_dbg.c ****                                   + sizeof(OSTickTaskTCB)
 329:..\..\..\..\..\..\uCOS-III\Source/os_dbg.c ****                                   + sizeof(OSTickTaskTimeMax)
 330:..\..\..\..\..\..\uCOS-III\Source/os_dbg.c **** 
 331:..\..\..\..\..\..\uCOS-III\Source/os_dbg.c **** #if OS_CFG_TMR_EN > 0u
 332:..\..\..\..\..\..\uCOS-III\Source/os_dbg.c **** #if OS_CFG_DBG_EN > 0u
 333:..\..\..\..\..\..\uCOS-III\Source/os_dbg.c ****                                   + sizeof(OSTmrDbgListPtr)
 334:..\..\..\..\..\..\uCOS-III\Source/os_dbg.c **** #endif
 335:..\..\..\..\..\..\uCOS-III\Source/os_dbg.c ****                                   + sizeof(OSTmrQty)
 336:..\..\..\..\..\..\uCOS-III\Source/os_dbg.c ****                                   + sizeof(OSTmrTaskTCB)
 337:..\..\..\..\..\..\uCOS-III\Source/os_dbg.c ****                                   + sizeof(OSTmrTaskTimeMax)
 338:..\..\..\..\..\..\uCOS-III\Source/os_dbg.c ****                                   + sizeof(OSTmrTickCtr)
 339:..\..\..\..\..\..\uCOS-III\Source/os_dbg.c ****                                   + sizeof(OSTmrUpdateCnt)
 340:..\..\..\..\..\..\uCOS-III\Source/os_dbg.c ****                                   + sizeof(OSTmrUpdateCtr)
 341:..\..\..\..\..\..\uCOS-III\Source/os_dbg.c **** #endif
 342:..\..\..\..\..\..\uCOS-III\Source/os_dbg.c **** 
 343:..\..\..\..\..\..\uCOS-III\Source/os_dbg.c **** #if OS_CFG_TASK_REG_TBL_SIZE > 0u
 344:..\..\..\..\..\..\uCOS-III\Source/os_dbg.c ****                                   + sizeof(OSTaskRegNextAvailID)
 345:..\..\..\..\..\..\uCOS-III\Source/os_dbg.c **** #endif
 346:..\..\..\..\..\..\uCOS-III\Source/os_dbg.c **** 
 347:..\..\..\..\..\..\uCOS-III\Source/os_dbg.c ****                                   + sizeof(OSTCBCurPtr)
 348:..\..\..\..\..\..\uCOS-III\Source/os_dbg.c ****                                   + sizeof(OSTCBHighRdyPtr);
 349:..\..\..\..\..\..\uCOS-III\Source/os_dbg.c **** 
 350:..\..\..\..\..\..\uCOS-III\Source/os_dbg.c **** /*$PAGE*/
 351:..\..\..\..\..\..\uCOS-III\Source/os_dbg.c **** /*
 352:..\..\..\..\..\..\uCOS-III\Source/os_dbg.c **** ***************************************************************************************************
 353:..\..\..\..\..\..\uCOS-III\Source/os_dbg.c **** *                                               OS DEBUG INITIALIZATION
ARM GAS  C:\Users\alex\AppData\Local\Temp\cclpGR5c.s 			page 15


 354:..\..\..\..\..\..\uCOS-III\Source/os_dbg.c **** *
 355:..\..\..\..\..\..\uCOS-III\Source/os_dbg.c **** * Description: This function is used to make sure that debug variables that are unused in the appli
 356:..\..\..\..\..\..\uCOS-III\Source/os_dbg.c **** *              optimized away.  This function might not be necessary for all compilers.  In this ca
 357:..\..\..\..\..\..\uCOS-III\Source/os_dbg.c **** *              DELETE the code in this function while still leaving the declaration of the function
 358:..\..\..\..\..\..\uCOS-III\Source/os_dbg.c **** *
 359:..\..\..\..\..\..\uCOS-III\Source/os_dbg.c **** * Arguments  : none
 360:..\..\..\..\..\..\uCOS-III\Source/os_dbg.c **** *
 361:..\..\..\..\..\..\uCOS-III\Source/os_dbg.c **** * Returns    : none
 362:..\..\..\..\..\..\uCOS-III\Source/os_dbg.c **** *
 363:..\..\..\..\..\..\uCOS-III\Source/os_dbg.c **** * Note(s)    : (1) This code doesn't do anything, it simply prevents the compiler from optimizing o
 364:..\..\..\..\..\..\uCOS-III\Source/os_dbg.c **** *                  variables which are declared in this file.
 365:..\..\..\..\..\..\uCOS-III\Source/os_dbg.c **** *              (2) You may decide to 'compile out' the code (by using #if 0/#endif) INSIDE the func
 366:..\..\..\..\..\..\uCOS-III\Source/os_dbg.c **** *                  DOES NOT optimize out the 'const' variables above.
 367:..\..\..\..\..\..\uCOS-III\Source/os_dbg.c **** ***************************************************************************************************
 368:..\..\..\..\..\..\uCOS-III\Source/os_dbg.c **** */
 369:..\..\..\..\..\..\uCOS-III\Source/os_dbg.c **** 
 370:..\..\..\..\..\..\uCOS-III\Source/os_dbg.c **** void  OS_Dbg_Init (void)
 371:..\..\..\..\..\..\uCOS-III\Source/os_dbg.c **** {
 422              		.loc 1 371 0
 423              		.cfi_startproc
 424              		@ args = 0, pretend = 0, frame = 16
 425              		@ frame_needed = 1, uses_anonymous_args = 0
 426              		@ link register save eliminated.
 427 0000 80B4     		push	{r7}
 428              		.cfi_def_cfa_offset 4
 429              		.cfi_offset 7, -4
 430 0002 85B0     		sub	sp, sp, #20
 431              		.cfi_def_cfa_offset 24
 432 0004 00AF     		add	r7, sp, #0
 433              		.cfi_def_cfa_register 7
 372:..\..\..\..\..\..\uCOS-III\Source/os_dbg.c ****     CPU_INT08U const  *p_temp08;
 373:..\..\..\..\..\..\uCOS-III\Source/os_dbg.c ****     CPU_INT16U const  *p_temp16;
 374:..\..\..\..\..\..\uCOS-III\Source/os_dbg.c ****     CPU_INT32U const  *p_temp32;
 375:..\..\..\..\..\..\uCOS-III\Source/os_dbg.c **** 
 376:..\..\..\..\..\..\uCOS-III\Source/os_dbg.c **** 
 377:..\..\..\..\..\..\uCOS-III\Source/os_dbg.c ****     p_temp08 = (CPU_INT08U const *)&OSDbg_DbgEn;
 434              		.loc 1 377 0
 435 0006 484B     		ldr	r3, .L2
 436 0008 FB60     		str	r3, [r7, #12]
 378:..\..\..\..\..\..\uCOS-III\Source/os_dbg.c **** 
 379:..\..\..\..\..\..\uCOS-III\Source/os_dbg.c ****     p_temp32 = (CPU_INT32U const *)&OSDbg_DataSize;
 437              		.loc 1 379 0
 438 000a 484B     		ldr	r3, .L2+4
 439 000c BB60     		str	r3, [r7, #8]
 380:..\..\..\..\..\..\uCOS-III\Source/os_dbg.c **** 
 381:..\..\..\..\..\..\uCOS-III\Source/os_dbg.c ****     p_temp08 = (CPU_INT08U const *)&OSDbg_ArgChkEn;
 440              		.loc 1 381 0
 441 000e 484B     		ldr	r3, .L2+8
 442 0010 FB60     		str	r3, [r7, #12]
 382:..\..\..\..\..\..\uCOS-III\Source/os_dbg.c ****     p_temp08 = (CPU_INT08U const *)&OSDbg_AppHooksEn;
 443              		.loc 1 382 0
 444 0012 484B     		ldr	r3, .L2+12
 445 0014 FB60     		str	r3, [r7, #12]
 383:..\..\..\..\..\..\uCOS-III\Source/os_dbg.c **** 
 384:..\..\..\..\..\..\uCOS-III\Source/os_dbg.c ****     p_temp32 = (CPU_INT32U const *)&OSDbg_EndiannessTest;
 446              		.loc 1 384 0
 447 0016 484B     		ldr	r3, .L2+16
ARM GAS  C:\Users\alex\AppData\Local\Temp\cclpGR5c.s 			page 16


 448 0018 BB60     		str	r3, [r7, #8]
 385:..\..\..\..\..\..\uCOS-III\Source/os_dbg.c **** 
 386:..\..\..\..\..\..\uCOS-III\Source/os_dbg.c ****     p_temp08 = (CPU_INT08U const *)&OSDbg_CalledFromISRChkEn;
 449              		.loc 1 386 0
 450 001a 484B     		ldr	r3, .L2+20
 451 001c FB60     		str	r3, [r7, #12]
 387:..\..\..\..\..\..\uCOS-III\Source/os_dbg.c **** 
 388:..\..\..\..\..\..\uCOS-III\Source/os_dbg.c ****     p_temp16 = (CPU_INT16U const *)&OSDbg_FlagGrp;
 452              		.loc 1 388 0
 453 001e 484B     		ldr	r3, .L2+24
 454 0020 7B60     		str	r3, [r7, #4]
 389:..\..\..\..\..\..\uCOS-III\Source/os_dbg.c ****     p_temp08 = (CPU_INT08U const *)&OSDbg_FlagEn;
 455              		.loc 1 389 0
 456 0022 484B     		ldr	r3, .L2+28
 457 0024 FB60     		str	r3, [r7, #12]
 390:..\..\..\..\..\..\uCOS-III\Source/os_dbg.c **** #if OS_CFG_FLAG_EN > 0u
 391:..\..\..\..\..\..\uCOS-III\Source/os_dbg.c ****     p_temp08 = (CPU_INT08U const *)&OSDbg_FlagDelEn;
 458              		.loc 1 391 0
 459 0026 484B     		ldr	r3, .L2+32
 460 0028 FB60     		str	r3, [r7, #12]
 392:..\..\..\..\..\..\uCOS-III\Source/os_dbg.c ****     p_temp08 = (CPU_INT08U const *)&OSDbg_FlagModeClrEn;
 461              		.loc 1 392 0
 462 002a 484B     		ldr	r3, .L2+36
 463 002c FB60     		str	r3, [r7, #12]
 393:..\..\..\..\..\..\uCOS-III\Source/os_dbg.c ****     p_temp08 = (CPU_INT08U const *)&OSDbg_FlagPendAbortEn;
 464              		.loc 1 393 0
 465 002e 484B     		ldr	r3, .L2+40
 466 0030 FB60     		str	r3, [r7, #12]
 394:..\..\..\..\..\..\uCOS-III\Source/os_dbg.c ****     p_temp16 = (CPU_INT16U const *)&OSDbg_FlagGrpSize;
 467              		.loc 1 394 0
 468 0032 484B     		ldr	r3, .L2+44
 469 0034 7B60     		str	r3, [r7, #4]
 395:..\..\..\..\..\..\uCOS-III\Source/os_dbg.c ****     p_temp16 = (CPU_INT16U const *)&OSDbg_FlagWidth;
 470              		.loc 1 395 0
 471 0036 484B     		ldr	r3, .L2+48
 472 0038 7B60     		str	r3, [r7, #4]
 396:..\..\..\..\..\..\uCOS-III\Source/os_dbg.c **** #endif
 397:..\..\..\..\..\..\uCOS-III\Source/os_dbg.c **** 
 398:..\..\..\..\..\..\uCOS-III\Source/os_dbg.c **** #if OS_CFG_ISR_POST_DEFERRED_EN > 0u
 399:..\..\..\..\..\..\uCOS-III\Source/os_dbg.c ****     p_temp16 = (CPU_INT16U const *)&OSDbg_IntQ;
 400:..\..\..\..\..\..\uCOS-III\Source/os_dbg.c **** #endif
 401:..\..\..\..\..\..\uCOS-III\Source/os_dbg.c **** 
 402:..\..\..\..\..\..\uCOS-III\Source/os_dbg.c ****     p_temp08 = (CPU_INT08U const *)&OSDbg_ISRPostDeferredEn;
 473              		.loc 1 402 0
 474 003a 484B     		ldr	r3, .L2+52
 475 003c FB60     		str	r3, [r7, #12]
 403:..\..\..\..\..\..\uCOS-III\Source/os_dbg.c **** 
 404:..\..\..\..\..\..\uCOS-III\Source/os_dbg.c ****     p_temp16 = (CPU_INT16U const *)&OSDbg_Mem;
 476              		.loc 1 404 0
 477 003e 484B     		ldr	r3, .L2+56
 478 0040 7B60     		str	r3, [r7, #4]
 405:..\..\..\..\..\..\uCOS-III\Source/os_dbg.c ****     p_temp08 = (CPU_INT08U const *)&OSDbg_MemEn;
 479              		.loc 1 405 0
 480 0042 484B     		ldr	r3, .L2+60
 481 0044 FB60     		str	r3, [r7, #12]
 406:..\..\..\..\..\..\uCOS-III\Source/os_dbg.c **** #if OS_CFG_MEM_EN > 0u
 407:..\..\..\..\..\..\uCOS-III\Source/os_dbg.c ****     p_temp16 = (CPU_INT16U const *)&OSDbg_MemSize;
ARM GAS  C:\Users\alex\AppData\Local\Temp\cclpGR5c.s 			page 17


 482              		.loc 1 407 0
 483 0046 484B     		ldr	r3, .L2+64
 484 0048 7B60     		str	r3, [r7, #4]
 408:..\..\..\..\..\..\uCOS-III\Source/os_dbg.c **** #endif
 409:..\..\..\..\..\..\uCOS-III\Source/os_dbg.c **** 
 410:..\..\..\..\..\..\uCOS-III\Source/os_dbg.c ****     p_temp08 = (CPU_INT08U const *)&OSDbg_MsgEn;
 485              		.loc 1 410 0
 486 004a 484B     		ldr	r3, .L2+68
 487 004c FB60     		str	r3, [r7, #12]
 411:..\..\..\..\..\..\uCOS-III\Source/os_dbg.c **** #if (OS_MSG_EN) > 0u
 412:..\..\..\..\..\..\uCOS-III\Source/os_dbg.c ****     p_temp16 = (CPU_INT16U const *)&OSDbg_MsgSize;
 488              		.loc 1 412 0
 489 004e 484B     		ldr	r3, .L2+72
 490 0050 7B60     		str	r3, [r7, #4]
 413:..\..\..\..\..\..\uCOS-III\Source/os_dbg.c ****     p_temp16 = (CPU_INT16U const *)&OSDbg_MsgPoolSize;
 491              		.loc 1 413 0
 492 0052 484B     		ldr	r3, .L2+76
 493 0054 7B60     		str	r3, [r7, #4]
 414:..\..\..\..\..\..\uCOS-III\Source/os_dbg.c ****     p_temp16 = (CPU_INT16U const *)&OSDbg_MsgQSize;
 494              		.loc 1 414 0
 495 0056 484B     		ldr	r3, .L2+80
 496 0058 7B60     		str	r3, [r7, #4]
 415:..\..\..\..\..\..\uCOS-III\Source/os_dbg.c **** #endif
 416:..\..\..\..\..\..\uCOS-III\Source/os_dbg.c **** 
 417:..\..\..\..\..\..\uCOS-III\Source/os_dbg.c ****     p_temp16 = (CPU_INT16U const *)&OSDbg_Mutex;
 497              		.loc 1 417 0
 498 005a 484B     		ldr	r3, .L2+84
 499 005c 7B60     		str	r3, [r7, #4]
 418:..\..\..\..\..\..\uCOS-III\Source/os_dbg.c ****     p_temp08 = (CPU_INT08U const *)&OSDbg_MutexEn;
 500              		.loc 1 418 0
 501 005e 484B     		ldr	r3, .L2+88
 502 0060 FB60     		str	r3, [r7, #12]
 419:..\..\..\..\..\..\uCOS-III\Source/os_dbg.c **** #if (OS_CFG_MUTEX_EN) > 0u
 420:..\..\..\..\..\..\uCOS-III\Source/os_dbg.c ****     p_temp08 = (CPU_INT08U const *)&OSDbg_MutexDelEn;
 503              		.loc 1 420 0
 504 0062 484B     		ldr	r3, .L2+92
 505 0064 FB60     		str	r3, [r7, #12]
 421:..\..\..\..\..\..\uCOS-III\Source/os_dbg.c ****     p_temp08 = (CPU_INT08U const *)&OSDbg_MutexPendAbortEn;
 506              		.loc 1 421 0
 507 0066 484B     		ldr	r3, .L2+96
 508 0068 FB60     		str	r3, [r7, #12]
 422:..\..\..\..\..\..\uCOS-III\Source/os_dbg.c ****     p_temp16 = (CPU_INT16U const *)&OSDbg_MutexSize;
 509              		.loc 1 422 0
 510 006a 484B     		ldr	r3, .L2+100
 511 006c 7B60     		str	r3, [r7, #4]
 423:..\..\..\..\..\..\uCOS-III\Source/os_dbg.c **** #endif
 424:..\..\..\..\..\..\uCOS-III\Source/os_dbg.c **** 
 425:..\..\..\..\..\..\uCOS-III\Source/os_dbg.c ****     p_temp08 = (CPU_INT08U const *)&OSDbg_ObjTypeChkEn;
 512              		.loc 1 425 0
 513 006e 484B     		ldr	r3, .L2+104
 514 0070 FB60     		str	r3, [r7, #12]
 426:..\..\..\..\..\..\uCOS-III\Source/os_dbg.c **** 
 427:..\..\..\..\..\..\uCOS-III\Source/os_dbg.c ****     p_temp08 = (CPU_INT08U const *)&OSDbg_PendMultiEn;
 515              		.loc 1 427 0
 516 0072 484B     		ldr	r3, .L2+108
 517 0074 FB60     		str	r3, [r7, #12]
 428:..\..\..\..\..\..\uCOS-III\Source/os_dbg.c ****     p_temp16 = (CPU_INT16U const *)&OSDbg_PendDataSize;
ARM GAS  C:\Users\alex\AppData\Local\Temp\cclpGR5c.s 			page 18


 518              		.loc 1 428 0
 519 0076 484B     		ldr	r3, .L2+112
 520 0078 7B60     		str	r3, [r7, #4]
 429:..\..\..\..\..\..\uCOS-III\Source/os_dbg.c ****     p_temp16 = (CPU_INT16U const *)&OSDbg_PendListSize;
 521              		.loc 1 429 0
 522 007a 484B     		ldr	r3, .L2+116
 523 007c 7B60     		str	r3, [r7, #4]
 430:..\..\..\..\..\..\uCOS-III\Source/os_dbg.c ****     p_temp16 = (CPU_INT16U const *)&OSDbg_PendObjSize;
 524              		.loc 1 430 0
 525 007e 484B     		ldr	r3, .L2+120
 526 0080 7B60     		str	r3, [r7, #4]
 431:..\..\..\..\..\..\uCOS-III\Source/os_dbg.c **** 
 432:..\..\..\..\..\..\uCOS-III\Source/os_dbg.c ****     p_temp16 = (CPU_INT16U const *)&OSDbg_PrioMax;
 527              		.loc 1 432 0
 528 0082 484B     		ldr	r3, .L2+124
 529 0084 7B60     		str	r3, [r7, #4]
 433:..\..\..\..\..\..\uCOS-III\Source/os_dbg.c ****     p_temp16 = (CPU_INT16U const *)&OSDbg_PrioTblSize;
 530              		.loc 1 433 0
 531 0086 484B     		ldr	r3, .L2+128
 532 0088 7B60     		str	r3, [r7, #4]
 434:..\..\..\..\..\..\uCOS-III\Source/os_dbg.c **** 
 435:..\..\..\..\..\..\uCOS-III\Source/os_dbg.c ****     p_temp16 = (CPU_INT16U const *)&OSDbg_PtrSize;
 533              		.loc 1 435 0
 534 008a 484B     		ldr	r3, .L2+132
 535 008c 7B60     		str	r3, [r7, #4]
 436:..\..\..\..\..\..\uCOS-III\Source/os_dbg.c **** 
 437:..\..\..\..\..\..\uCOS-III\Source/os_dbg.c ****     p_temp16 = (CPU_INT16U const *)&OSDbg_Q;
 536              		.loc 1 437 0
 537 008e 484B     		ldr	r3, .L2+136
 538 0090 7B60     		str	r3, [r7, #4]
 438:..\..\..\..\..\..\uCOS-III\Source/os_dbg.c ****     p_temp08 = (CPU_INT08U const *)&OSDbg_QEn;
 539              		.loc 1 438 0
 540 0092 484B     		ldr	r3, .L2+140
 541 0094 FB60     		str	r3, [r7, #12]
 439:..\..\..\..\..\..\uCOS-III\Source/os_dbg.c **** #if (OS_CFG_Q_EN) > 0u
 440:..\..\..\..\..\..\uCOS-III\Source/os_dbg.c ****     p_temp08 = (CPU_INT08U const *)&OSDbg_QDelEn;
 542              		.loc 1 440 0
 543 0096 484B     		ldr	r3, .L2+144
 544 0098 FB60     		str	r3, [r7, #12]
 441:..\..\..\..\..\..\uCOS-III\Source/os_dbg.c ****     p_temp08 = (CPU_INT08U const *)&OSDbg_QFlushEn;
 545              		.loc 1 441 0
 546 009a 484B     		ldr	r3, .L2+148
 547 009c FB60     		str	r3, [r7, #12]
 442:..\..\..\..\..\..\uCOS-III\Source/os_dbg.c ****     p_temp08 = (CPU_INT08U const *)&OSDbg_QPendAbortEn;
 548              		.loc 1 442 0
 549 009e 484B     		ldr	r3, .L2+152
 550 00a0 FB60     		str	r3, [r7, #12]
 443:..\..\..\..\..\..\uCOS-III\Source/os_dbg.c ****     p_temp16 = (CPU_INT16U const *)&OSDbg_QSize;
 551              		.loc 1 443 0
 552 00a2 484B     		ldr	r3, .L2+156
 553 00a4 7B60     		str	r3, [r7, #4]
 444:..\..\..\..\..\..\uCOS-III\Source/os_dbg.c **** #endif
 445:..\..\..\..\..\..\uCOS-III\Source/os_dbg.c **** 
 446:..\..\..\..\..\..\uCOS-III\Source/os_dbg.c ****     p_temp16 = (CPU_INT16U const *)&OSDbg_SchedRoundRobinEn;
 554              		.loc 1 446 0
 555 00a6 484B     		ldr	r3, .L2+160
 556 00a8 7B60     		str	r3, [r7, #4]
ARM GAS  C:\Users\alex\AppData\Local\Temp\cclpGR5c.s 			page 19


 447:..\..\..\..\..\..\uCOS-III\Source/os_dbg.c **** 
 448:..\..\..\..\..\..\uCOS-III\Source/os_dbg.c ****     p_temp16 = (CPU_INT16U const *)&OSDbg_Sem;
 557              		.loc 1 448 0
 558 00aa 484B     		ldr	r3, .L2+164
 559 00ac 7B60     		str	r3, [r7, #4]
 449:..\..\..\..\..\..\uCOS-III\Source/os_dbg.c ****     p_temp08 = (CPU_INT08U const *)&OSDbg_SemEn;
 560              		.loc 1 449 0
 561 00ae 484B     		ldr	r3, .L2+168
 562 00b0 FB60     		str	r3, [r7, #12]
 450:..\..\..\..\..\..\uCOS-III\Source/os_dbg.c **** #if (OS_CFG_SEM_EN) > 0u
 451:..\..\..\..\..\..\uCOS-III\Source/os_dbg.c ****     p_temp08 = (CPU_INT08U const *)&OSDbg_SemDelEn;
 563              		.loc 1 451 0
 564 00b2 484B     		ldr	r3, .L2+172
 565 00b4 FB60     		str	r3, [r7, #12]
 452:..\..\..\..\..\..\uCOS-III\Source/os_dbg.c ****     p_temp08 = (CPU_INT08U const *)&OSDbg_SemPendAbortEn;
 566              		.loc 1 452 0
 567 00b6 484B     		ldr	r3, .L2+176
 568 00b8 FB60     		str	r3, [r7, #12]
 453:..\..\..\..\..\..\uCOS-III\Source/os_dbg.c ****     p_temp16 = (CPU_INT16U const *)&OSDbg_SemSetEn;
 569              		.loc 1 453 0
 570 00ba 484B     		ldr	r3, .L2+180
 571 00bc 7B60     		str	r3, [r7, #4]
 454:..\..\..\..\..\..\uCOS-III\Source/os_dbg.c ****     p_temp16 = (CPU_INT16U const *)&OSDbg_SemSize;
 572              		.loc 1 454 0
 573 00be 484B     		ldr	r3, .L2+184
 574 00c0 7B60     		str	r3, [r7, #4]
 455:..\..\..\..\..\..\uCOS-III\Source/os_dbg.c **** #endif
 456:..\..\..\..\..\..\uCOS-III\Source/os_dbg.c **** 
 457:..\..\..\..\..\..\uCOS-III\Source/os_dbg.c ****     p_temp16 = (CPU_INT16U const *)&OSDbg_RdyList;
 575              		.loc 1 457 0
 576 00c2 484B     		ldr	r3, .L2+188
 577 00c4 7B60     		str	r3, [r7, #4]
 458:..\..\..\..\..\..\uCOS-III\Source/os_dbg.c ****     p_temp32 = (CPU_INT32U const *)&OSDbg_RdyListSize;
 578              		.loc 1 458 0
 579 00c6 484B     		ldr	r3, .L2+192
 580 00c8 BB60     		str	r3, [r7, #8]
 459:..\..\..\..\..\..\uCOS-III\Source/os_dbg.c **** 
 460:..\..\..\..\..\..\uCOS-III\Source/os_dbg.c ****     p_temp16 = (CPU_INT16U const *)&OSDbg_StkWidth;
 581              		.loc 1 460 0
 582 00ca 484B     		ldr	r3, .L2+196
 583 00cc 7B60     		str	r3, [r7, #4]
 461:..\..\..\..\..\..\uCOS-III\Source/os_dbg.c **** 
 462:..\..\..\..\..\..\uCOS-III\Source/os_dbg.c ****     p_temp08 = (CPU_INT08U const *)&OSDbg_StatTaskEn;
 584              		.loc 1 462 0
 585 00ce 484B     		ldr	r3, .L2+200
 586 00d0 FB60     		str	r3, [r7, #12]
 463:..\..\..\..\..\..\uCOS-III\Source/os_dbg.c ****     p_temp08 = (CPU_INT08U const *)&OSDbg_StatTaskStkChkEn;
 587              		.loc 1 463 0
 588 00d2 484B     		ldr	r3, .L2+204
 589 00d4 FB60     		str	r3, [r7, #12]
 464:..\..\..\..\..\..\uCOS-III\Source/os_dbg.c **** 
 465:..\..\..\..\..\..\uCOS-III\Source/os_dbg.c ****     p_temp08 = (CPU_INT08U const *)&OSDbg_TaskChangePrioEn;
 590              		.loc 1 465 0
 591 00d6 484B     		ldr	r3, .L2+208
 592 00d8 FB60     		str	r3, [r7, #12]
 466:..\..\..\..\..\..\uCOS-III\Source/os_dbg.c ****     p_temp08 = (CPU_INT08U const *)&OSDbg_TaskDelEn;
 593              		.loc 1 466 0
ARM GAS  C:\Users\alex\AppData\Local\Temp\cclpGR5c.s 			page 20


 594 00da 484B     		ldr	r3, .L2+212
 595 00dc FB60     		str	r3, [r7, #12]
 467:..\..\..\..\..\..\uCOS-III\Source/os_dbg.c ****     p_temp08 = (CPU_INT08U const *)&OSDbg_TaskQEn;
 596              		.loc 1 467 0
 597 00de 484B     		ldr	r3, .L2+216
 598 00e0 FB60     		str	r3, [r7, #12]
 468:..\..\..\..\..\..\uCOS-III\Source/os_dbg.c ****     p_temp08 = (CPU_INT08U const *)&OSDbg_TaskQPendAbortEn;
 599              		.loc 1 468 0
 600 00e2 484B     		ldr	r3, .L2+220
 601 00e4 FB60     		str	r3, [r7, #12]
 469:..\..\..\..\..\..\uCOS-III\Source/os_dbg.c ****     p_temp08 = (CPU_INT08U const *)&OSDbg_TaskProfileEn;
 602              		.loc 1 469 0
 603 00e6 484B     		ldr	r3, .L2+224
 604 00e8 FB60     		str	r3, [r7, #12]
 470:..\..\..\..\..\..\uCOS-III\Source/os_dbg.c ****     p_temp16 = (CPU_INT16U const *)&OSDbg_TaskRegTblSize;
 605              		.loc 1 470 0
 606 00ea 484B     		ldr	r3, .L2+228
 607 00ec 7B60     		str	r3, [r7, #4]
 471:..\..\..\..\..\..\uCOS-III\Source/os_dbg.c ****     p_temp08 = (CPU_INT08U const *)&OSDbg_TaskSemPendAbortEn;
 608              		.loc 1 471 0
 609 00ee 484B     		ldr	r3, .L2+232
 610 00f0 FB60     		str	r3, [r7, #12]
 472:..\..\..\..\..\..\uCOS-III\Source/os_dbg.c ****     p_temp08 = (CPU_INT08U const *)&OSDbg_TaskSuspendEn;
 611              		.loc 1 472 0
 612 00f2 484B     		ldr	r3, .L2+236
 613 00f4 FB60     		str	r3, [r7, #12]
 473:..\..\..\..\..\..\uCOS-III\Source/os_dbg.c **** 
 474:..\..\..\..\..\..\uCOS-III\Source/os_dbg.c ****     p_temp16 = (CPU_INT16U const *)&OSDbg_TCBSize;
 614              		.loc 1 474 0
 615 00f6 484B     		ldr	r3, .L2+240
 616 00f8 7B60     		str	r3, [r7, #4]
 475:..\..\..\..\..\..\uCOS-III\Source/os_dbg.c **** 
 476:..\..\..\..\..\..\uCOS-III\Source/os_dbg.c ****     p_temp16 = (CPU_INT16U const *)&OSDbg_TickSpokeSize;
 617              		.loc 1 476 0
 618 00fa 484B     		ldr	r3, .L2+244
 619 00fc 7B60     		str	r3, [r7, #4]
 477:..\..\..\..\..\..\uCOS-III\Source/os_dbg.c **** 
 478:..\..\..\..\..\..\uCOS-III\Source/os_dbg.c ****     p_temp08 = (CPU_INT08U const *)&OSDbg_TimeDlyHMSMEn;
 620              		.loc 1 478 0
 621 00fe 484B     		ldr	r3, .L2+248
 622 0100 FB60     		str	r3, [r7, #12]
 479:..\..\..\..\..\..\uCOS-III\Source/os_dbg.c ****     p_temp08 = (CPU_INT08U const *)&OSDbg_TimeDlyResumeEn;
 623              		.loc 1 479 0
 624 0102 484B     		ldr	r3, .L2+252
 625 0104 FB60     		str	r3, [r7, #12]
 480:..\..\..\..\..\..\uCOS-III\Source/os_dbg.c **** 
 481:..\..\..\..\..\..\uCOS-III\Source/os_dbg.c **** 
 482:..\..\..\..\..\..\uCOS-III\Source/os_dbg.c ****     p_temp16 = (CPU_INT16U const *)&OSDbg_Tmr;
 626              		.loc 1 482 0
 627 0106 484B     		ldr	r3, .L2+256
 628 0108 7B60     		str	r3, [r7, #4]
 483:..\..\..\..\..\..\uCOS-III\Source/os_dbg.c ****     p_temp08 = (CPU_INT08U const *)&OSDbg_TmrEn;
 629              		.loc 1 483 0
 630 010a 484B     		ldr	r3, .L2+260
 631 010c FB60     		str	r3, [r7, #12]
 484:..\..\..\..\..\..\uCOS-III\Source/os_dbg.c **** #if (OS_CFG_TMR_EN) > 0u
 485:..\..\..\..\..\..\uCOS-III\Source/os_dbg.c ****     p_temp08 = (CPU_INT08U const *)&OSDbg_TmrDelEn;
ARM GAS  C:\Users\alex\AppData\Local\Temp\cclpGR5c.s 			page 21


 632              		.loc 1 485 0
 633 010e 484B     		ldr	r3, .L2+264
 634 0110 FB60     		str	r3, [r7, #12]
 486:..\..\..\..\..\..\uCOS-III\Source/os_dbg.c ****     p_temp16 = (CPU_INT16U const *)&OSDbg_TmrSize;
 635              		.loc 1 486 0
 636 0112 484B     		ldr	r3, .L2+268
 637 0114 7B60     		str	r3, [r7, #4]
 487:..\..\..\..\..\..\uCOS-III\Source/os_dbg.c ****     p_temp16 = (CPU_INT16U const *)&OSDbg_TmrSpokeSize;
 638              		.loc 1 487 0
 639 0116 484B     		ldr	r3, .L2+272
 640 0118 7B60     		str	r3, [r7, #4]
 488:..\..\..\..\..\..\uCOS-III\Source/os_dbg.c **** #endif
 489:..\..\..\..\..\..\uCOS-III\Source/os_dbg.c **** 
 490:..\..\..\..\..\..\uCOS-III\Source/os_dbg.c ****     p_temp16 = (CPU_INT16U const *)&OSDbg_VersionNbr;
 641              		.loc 1 490 0
 642 011a 484B     		ldr	r3, .L2+276
 643 011c 7B60     		str	r3, [r7, #4]
 491:..\..\..\..\..\..\uCOS-III\Source/os_dbg.c **** 
 492:..\..\..\..\..\..\uCOS-III\Source/os_dbg.c ****     p_temp08 = p_temp08;                                     /* Prevent compiler warning for not us
 493:..\..\..\..\..\..\uCOS-III\Source/os_dbg.c ****     p_temp16 = p_temp16;
 494:..\..\..\..\..\..\uCOS-III\Source/os_dbg.c ****     p_temp32 = p_temp32;
 495:..\..\..\..\..\..\uCOS-III\Source/os_dbg.c **** }
 644              		.loc 1 495 0
 645 011e 00BF     		nop
 646 0120 1437     		adds	r7, r7, #20
 647              		.cfi_def_cfa_offset 4
 648 0122 BD46     		mov	sp, r7
 649              		.cfi_def_cfa_register 13
 650              		@ sp needed
 651 0124 80BC     		pop	{r7}
 652              		.cfi_restore 7
 653              		.cfi_def_cfa_offset 0
 654 0126 7047     		bx	lr
 655              	.L3:
 656              		.align	2
 657              	.L2:
 658 0128 00000000 		.word	OSDbg_DbgEn
 659 012c 00000000 		.word	OSDbg_DataSize
 660 0130 00000000 		.word	OSDbg_ArgChkEn
 661 0134 00000000 		.word	OSDbg_AppHooksEn
 662 0138 00000000 		.word	OSDbg_EndiannessTest
 663 013c 00000000 		.word	OSDbg_CalledFromISRChkEn
 664 0140 00000000 		.word	OSDbg_FlagGrp
 665 0144 00000000 		.word	OSDbg_FlagEn
 666 0148 00000000 		.word	OSDbg_FlagDelEn
 667 014c 00000000 		.word	OSDbg_FlagModeClrEn
 668 0150 00000000 		.word	OSDbg_FlagPendAbortEn
 669 0154 00000000 		.word	OSDbg_FlagGrpSize
 670 0158 00000000 		.word	OSDbg_FlagWidth
 671 015c 00000000 		.word	OSDbg_ISRPostDeferredEn
 672 0160 00000000 		.word	OSDbg_Mem
 673 0164 00000000 		.word	OSDbg_MemEn
 674 0168 00000000 		.word	OSDbg_MemSize
 675 016c 00000000 		.word	OSDbg_MsgEn
 676 0170 00000000 		.word	OSDbg_MsgSize
 677 0174 00000000 		.word	OSDbg_MsgPoolSize
 678 0178 00000000 		.word	OSDbg_MsgQSize
ARM GAS  C:\Users\alex\AppData\Local\Temp\cclpGR5c.s 			page 22


 679 017c 00000000 		.word	OSDbg_Mutex
 680 0180 00000000 		.word	OSDbg_MutexEn
 681 0184 00000000 		.word	OSDbg_MutexDelEn
 682 0188 00000000 		.word	OSDbg_MutexPendAbortEn
 683 018c 00000000 		.word	OSDbg_MutexSize
 684 0190 00000000 		.word	OSDbg_ObjTypeChkEn
 685 0194 00000000 		.word	OSDbg_PendMultiEn
 686 0198 00000000 		.word	OSDbg_PendDataSize
 687 019c 00000000 		.word	OSDbg_PendListSize
 688 01a0 00000000 		.word	OSDbg_PendObjSize
 689 01a4 00000000 		.word	OSDbg_PrioMax
 690 01a8 00000000 		.word	OSDbg_PrioTblSize
 691 01ac 00000000 		.word	OSDbg_PtrSize
 692 01b0 00000000 		.word	OSDbg_Q
 693 01b4 00000000 		.word	OSDbg_QEn
 694 01b8 00000000 		.word	OSDbg_QDelEn
 695 01bc 00000000 		.word	OSDbg_QFlushEn
 696 01c0 00000000 		.word	OSDbg_QPendAbortEn
 697 01c4 00000000 		.word	OSDbg_QSize
 698 01c8 00000000 		.word	OSDbg_SchedRoundRobinEn
 699 01cc 00000000 		.word	OSDbg_Sem
 700 01d0 00000000 		.word	OSDbg_SemEn
 701 01d4 00000000 		.word	OSDbg_SemDelEn
 702 01d8 00000000 		.word	OSDbg_SemPendAbortEn
 703 01dc 00000000 		.word	OSDbg_SemSetEn
 704 01e0 00000000 		.word	OSDbg_SemSize
 705 01e4 00000000 		.word	OSDbg_RdyList
 706 01e8 00000000 		.word	OSDbg_RdyListSize
 707 01ec 00000000 		.word	OSDbg_StkWidth
 708 01f0 00000000 		.word	OSDbg_StatTaskEn
 709 01f4 00000000 		.word	OSDbg_StatTaskStkChkEn
 710 01f8 00000000 		.word	OSDbg_TaskChangePrioEn
 711 01fc 00000000 		.word	OSDbg_TaskDelEn
 712 0200 00000000 		.word	OSDbg_TaskQEn
 713 0204 00000000 		.word	OSDbg_TaskQPendAbortEn
 714 0208 00000000 		.word	OSDbg_TaskProfileEn
 715 020c 00000000 		.word	OSDbg_TaskRegTblSize
 716 0210 00000000 		.word	OSDbg_TaskSemPendAbortEn
 717 0214 00000000 		.word	OSDbg_TaskSuspendEn
 718 0218 00000000 		.word	OSDbg_TCBSize
 719 021c 00000000 		.word	OSDbg_TickSpokeSize
 720 0220 00000000 		.word	OSDbg_TimeDlyHMSMEn
 721 0224 00000000 		.word	OSDbg_TimeDlyResumeEn
 722 0228 00000000 		.word	OSDbg_Tmr
 723 022c 00000000 		.word	OSDbg_TmrEn
 724 0230 00000000 		.word	OSDbg_TmrDelEn
 725 0234 00000000 		.word	OSDbg_TmrSize
 726 0238 00000000 		.word	OSDbg_TmrSpokeSize
 727 023c 00000000 		.word	OSDbg_VersionNbr
 728              		.cfi_endproc
 729              	.LFE0:
 730              		.size	OS_Dbg_Init, .-OS_Dbg_Init
 731              		.text
 732              	.Letext0:
 733              		.file 2 "..\\..\\..\\..\\..\\..\\uC-CPU\\ARM-Cortex-M3\\GNU/cpu.h"
 734              		.file 3 "..\\..\\..\\..\\..\\..\\uC-CPU/cpu_core.h"
 735              		.file 4 "..\\..\\..\\..\\..\\..\\uCOS-III\\Source/os_type.h"
ARM GAS  C:\Users\alex\AppData\Local\Temp\cclpGR5c.s 			page 23


 736              		.file 5 "..\\..\\..\\..\\..\\..\\uCOS-III\\Source/os.h"