ARM GAS  C:\Users\alex\AppData\Local\Temp\cc9CNbDG.s 			page 1


   1              		.syntax unified
   2              		.cpu cortex-m3
   3              		.fpu softvfp
   4              		.eabi_attribute 20, 1
   5              		.eabi_attribute 21, 1
   6              		.eabi_attribute 23, 3
   7              		.eabi_attribute 24, 1
   8              		.eabi_attribute 25, 1
   9              		.eabi_attribute 26, 1
  10              		.eabi_attribute 30, 6
  11              		.eabi_attribute 34, 1
  12              		.eabi_attribute 18, 4
  13              		.thumb
  14              		.syntax unified
  15              		.file	"os_flag.c"
  16              		.text
  17              	.Ltext0:
  18              		.cfi_sections	.debug_frame
  19              		.section	.text.OSFlagCreate,"ax",%progbits
  20              		.align	2
  21              		.global	OSFlagCreate
  22              		.thumb
  23              		.thumb_func
  24              		.type	OSFlagCreate, %function
  25              	OSFlagCreate:
  26              	.LFB0:
  27              		.file 1 "..\\..\\..\\..\\..\\..\\uCOS-III\\Source\\os_flag.c"
   1:..\..\..\..\..\..\uCOS-III\Source/os_flag.c **** /*
   2:..\..\..\..\..\..\uCOS-III\Source/os_flag.c **** ***************************************************************************************************
   3:..\..\..\..\..\..\uCOS-III\Source/os_flag.c **** *                                                      uC/OS-III
   4:..\..\..\..\..\..\uCOS-III\Source/os_flag.c **** *                                                 The Real-Time Kernel
   5:..\..\..\..\..\..\uCOS-III\Source/os_flag.c **** *
   6:..\..\..\..\..\..\uCOS-III\Source/os_flag.c **** *                                  (c) Copyright 2009-2012; Micrium, Inc.; Weston, FL
   7:..\..\..\..\..\..\uCOS-III\Source/os_flag.c **** *                           All rights reserved.  Protected by international copyright laws.
   8:..\..\..\..\..\..\uCOS-III\Source/os_flag.c **** *
   9:..\..\..\..\..\..\uCOS-III\Source/os_flag.c **** *                                                EVENT FLAG MANAGEMENT
  10:..\..\..\..\..\..\uCOS-III\Source/os_flag.c **** *
  11:..\..\..\..\..\..\uCOS-III\Source/os_flag.c **** * File    : OS_FLAG.C
  12:..\..\..\..\..\..\uCOS-III\Source/os_flag.c **** * By      : JJL
  13:..\..\..\..\..\..\uCOS-III\Source/os_flag.c **** * Version : V3.03.01
  14:..\..\..\..\..\..\uCOS-III\Source/os_flag.c **** *
  15:..\..\..\..\..\..\uCOS-III\Source/os_flag.c **** * LICENSING TERMS:
  16:..\..\..\..\..\..\uCOS-III\Source/os_flag.c **** * ---------------
  17:..\..\..\..\..\..\uCOS-III\Source/os_flag.c **** *           uC/OS-III is provided in source form for FREE short-term evaluation, for educational us
  18:..\..\..\..\..\..\uCOS-III\Source/os_flag.c **** *           for peaceful research.  If you plan or intend to use uC/OS-III in a commercial applicat
  19:..\..\..\..\..\..\uCOS-III\Source/os_flag.c **** *           product then, you need to contact Micrium to properly license uC/OS-III for its use in 
  20:..\..\..\..\..\..\uCOS-III\Source/os_flag.c **** *           application/product.   We provide ALL the source code for your convenience and to help 
  21:..\..\..\..\..\..\uCOS-III\Source/os_flag.c **** *           experience uC/OS-III.  The fact that the source is provided does NOT mean that you can 
  22:..\..\..\..\..\..\uCOS-III\Source/os_flag.c **** *           it commercially without paying a licensing fee.
  23:..\..\..\..\..\..\uCOS-III\Source/os_flag.c **** *
  24:..\..\..\..\..\..\uCOS-III\Source/os_flag.c **** *           Knowledge of the source code may NOT be used to develop a similar product.
  25:..\..\..\..\..\..\uCOS-III\Source/os_flag.c **** *
  26:..\..\..\..\..\..\uCOS-III\Source/os_flag.c **** *           Please help us continue to provide the embedded community with the finest software avai
  27:..\..\..\..\..\..\uCOS-III\Source/os_flag.c **** *           Your honesty is greatly appreciated.
  28:..\..\..\..\..\..\uCOS-III\Source/os_flag.c **** *
  29:..\..\..\..\..\..\uCOS-III\Source/os_flag.c **** *           You can contact us at www.micrium.com, or by phone at +1 (954) 217-2036.
  30:..\..\..\..\..\..\uCOS-III\Source/os_flag.c **** ***************************************************************************************************
ARM GAS  C:\Users\alex\AppData\Local\Temp\cc9CNbDG.s 			page 2


  31:..\..\..\..\..\..\uCOS-III\Source/os_flag.c **** */
  32:..\..\..\..\..\..\uCOS-III\Source/os_flag.c **** 
  33:..\..\..\..\..\..\uCOS-III\Source/os_flag.c **** #define  MICRIUM_SOURCE
  34:..\..\..\..\..\..\uCOS-III\Source/os_flag.c **** #include <os.h>
  35:..\..\..\..\..\..\uCOS-III\Source/os_flag.c **** 
  36:..\..\..\..\..\..\uCOS-III\Source/os_flag.c **** #ifdef VSC_INCLUDE_SOURCE_FILE_NAMES
  37:..\..\..\..\..\..\uCOS-III\Source/os_flag.c **** const  CPU_CHAR  *os_flag__c = "$Id: $";
  38:..\..\..\..\..\..\uCOS-III\Source/os_flag.c **** #endif
  39:..\..\..\..\..\..\uCOS-III\Source/os_flag.c **** 
  40:..\..\..\..\..\..\uCOS-III\Source/os_flag.c **** 
  41:..\..\..\..\..\..\uCOS-III\Source/os_flag.c **** #if OS_CFG_FLAG_EN > 0u
  42:..\..\..\..\..\..\uCOS-III\Source/os_flag.c **** 
  43:..\..\..\..\..\..\uCOS-III\Source/os_flag.c **** /*$PAGE*/
  44:..\..\..\..\..\..\uCOS-III\Source/os_flag.c **** /*
  45:..\..\..\..\..\..\uCOS-III\Source/os_flag.c **** ***************************************************************************************************
  46:..\..\..\..\..\..\uCOS-III\Source/os_flag.c **** *                                                 CREATE AN EVENT FLAG
  47:..\..\..\..\..\..\uCOS-III\Source/os_flag.c **** *
  48:..\..\..\..\..\..\uCOS-III\Source/os_flag.c **** * Description: This function is called to create an event flag group.
  49:..\..\..\..\..\..\uCOS-III\Source/os_flag.c **** *
  50:..\..\..\..\..\..\uCOS-III\Source/os_flag.c **** * Arguments  : p_grp          is a pointer to the event flag group to create
  51:..\..\..\..\..\..\uCOS-III\Source/os_flag.c **** *
  52:..\..\..\..\..\..\uCOS-III\Source/os_flag.c **** *              p_name         is the name of the event flag group
  53:..\..\..\..\..\..\uCOS-III\Source/os_flag.c **** *
  54:..\..\..\..\..\..\uCOS-III\Source/os_flag.c **** *              flags          contains the initial value to store in the event flag group (typicall
  55:..\..\..\..\..\..\uCOS-III\Source/os_flag.c **** *
  56:..\..\..\..\..\..\uCOS-III\Source/os_flag.c **** *              p_err          is a pointer to an error code which will be returned to your applicat
  57:..\..\..\..\..\..\uCOS-III\Source/os_flag.c **** *
  58:..\..\..\..\..\..\uCOS-III\Source/os_flag.c **** *                                 OS_ERR_NONE                    if the call was successful.
  59:..\..\..\..\..\..\uCOS-III\Source/os_flag.c **** *                                 OS_ERR_CREATE_ISR              if you attempted to create an Even
  60:..\..\..\..\..\..\uCOS-III\Source/os_flag.c **** *                                 OS_ERR_ILLEGAL_CREATE_RUN_TIME if you are trying to create the Ev
  61:..\..\..\..\..\..\uCOS-III\Source/os_flag.c **** *                                                                   called OSSafetyCriticalStart().
  62:..\..\..\..\..\..\uCOS-III\Source/os_flag.c **** *                                 OS_ERR_NAME                    if 'p_name' is a NULL pointer
  63:..\..\..\..\..\..\uCOS-III\Source/os_flag.c **** *                                 OS_ERR_OBJ_CREATED             if the event flag group has alread
  64:..\..\..\..\..\..\uCOS-III\Source/os_flag.c **** *                                 OS_ERR_OBJ_PTR_NULL            if 'p_grp' is a NULL pointer
  65:..\..\..\..\..\..\uCOS-III\Source/os_flag.c **** *
  66:..\..\..\..\..\..\uCOS-III\Source/os_flag.c **** * Returns    : none
  67:..\..\..\..\..\..\uCOS-III\Source/os_flag.c **** ***************************************************************************************************
  68:..\..\..\..\..\..\uCOS-III\Source/os_flag.c **** */
  69:..\..\..\..\..\..\uCOS-III\Source/os_flag.c **** 
  70:..\..\..\..\..\..\uCOS-III\Source/os_flag.c **** void  OSFlagCreate (OS_FLAG_GRP  *p_grp,
  71:..\..\..\..\..\..\uCOS-III\Source/os_flag.c ****                     CPU_CHAR     *p_name,
  72:..\..\..\..\..\..\uCOS-III\Source/os_flag.c ****                     OS_FLAGS      flags,
  73:..\..\..\..\..\..\uCOS-III\Source/os_flag.c ****                     OS_ERR       *p_err)
  74:..\..\..\..\..\..\uCOS-III\Source/os_flag.c **** {
  28              		.loc 1 74 0
  29              		.cfi_startproc
  30              		@ args = 0, pretend = 0, frame = 24
  31              		@ frame_needed = 1, uses_anonymous_args = 0
  32 0000 80B5     		push	{r7, lr}
  33              		.cfi_def_cfa_offset 8
  34              		.cfi_offset 7, -8
  35              		.cfi_offset 14, -4
  36 0002 86B0     		sub	sp, sp, #24
  37              		.cfi_def_cfa_offset 32
  38 0004 00AF     		add	r7, sp, #0
  39              		.cfi_def_cfa_register 7
  40 0006 F860     		str	r0, [r7, #12]
ARM GAS  C:\Users\alex\AppData\Local\Temp\cc9CNbDG.s 			page 3


  41 0008 B960     		str	r1, [r7, #8]
  42 000a 7A60     		str	r2, [r7, #4]
  43 000c 3B60     		str	r3, [r7]
  75:..\..\..\..\..\..\uCOS-III\Source/os_flag.c ****     CPU_SR_ALLOC();
  44              		.loc 1 75 0
  45 000e 0023     		movs	r3, #0
  46 0010 7B61     		str	r3, [r7, #20]
  76:..\..\..\..\..\..\uCOS-III\Source/os_flag.c **** 
  77:..\..\..\..\..\..\uCOS-III\Source/os_flag.c **** 
  78:..\..\..\..\..\..\uCOS-III\Source/os_flag.c **** 
  79:..\..\..\..\..\..\uCOS-III\Source/os_flag.c **** #ifdef OS_SAFETY_CRITICAL
  80:..\..\..\..\..\..\uCOS-III\Source/os_flag.c ****     if (p_err == (OS_ERR *)0) {
  81:..\..\..\..\..\..\uCOS-III\Source/os_flag.c ****         OS_SAFETY_CRITICAL_EXCEPTION();
  82:..\..\..\..\..\..\uCOS-III\Source/os_flag.c ****         return;
  83:..\..\..\..\..\..\uCOS-III\Source/os_flag.c ****     }
  84:..\..\..\..\..\..\uCOS-III\Source/os_flag.c **** #endif
  85:..\..\..\..\..\..\uCOS-III\Source/os_flag.c **** 
  86:..\..\..\..\..\..\uCOS-III\Source/os_flag.c **** #ifdef OS_SAFETY_CRITICAL_IEC61508
  87:..\..\..\..\..\..\uCOS-III\Source/os_flag.c ****     if (OSSafetyCriticalStartFlag == DEF_TRUE) {
  88:..\..\..\..\..\..\uCOS-III\Source/os_flag.c ****        *p_err = OS_ERR_ILLEGAL_CREATE_RUN_TIME;
  89:..\..\..\..\..\..\uCOS-III\Source/os_flag.c ****         return;
  90:..\..\..\..\..\..\uCOS-III\Source/os_flag.c ****     }
  91:..\..\..\..\..\..\uCOS-III\Source/os_flag.c **** #endif
  92:..\..\..\..\..\..\uCOS-III\Source/os_flag.c **** 
  93:..\..\..\..\..\..\uCOS-III\Source/os_flag.c **** #if OS_CFG_CALLED_FROM_ISR_CHK_EN > 0u
  94:..\..\..\..\..\..\uCOS-III\Source/os_flag.c ****     if (OSIntNestingCtr > (OS_NESTING_CTR)0) {              /* See if called from ISR ...          
  47              		.loc 1 94 0
  48 0012 1B4B     		ldr	r3, .L5
  49 0014 1B78     		ldrb	r3, [r3]	@ zero_extendqisi2
  50 0016 002B     		cmp	r3, #0
  51 0018 04D0     		beq	.L2
  95:..\..\..\..\..\..\uCOS-III\Source/os_flag.c ****        *p_err = OS_ERR_CREATE_ISR;                          /* ... can't CREATE from an ISR        
  52              		.loc 1 95 0
  53 001a 3B68     		ldr	r3, [r7]
  54 001c 42F6E162 		movw	r2, #12001
  55 0020 1A80     		strh	r2, [r3]	@ movhi
  96:..\..\..\..\..\..\uCOS-III\Source/os_flag.c ****         return;
  56              		.loc 1 96 0
  57 0022 2AE0     		b	.L1
  58              	.L2:
  97:..\..\..\..\..\..\uCOS-III\Source/os_flag.c ****     }
  98:..\..\..\..\..\..\uCOS-III\Source/os_flag.c **** #endif
  99:..\..\..\..\..\..\uCOS-III\Source/os_flag.c **** 
 100:..\..\..\..\..\..\uCOS-III\Source/os_flag.c **** #if OS_CFG_ARG_CHK_EN > 0u
 101:..\..\..\..\..\..\uCOS-III\Source/os_flag.c ****     if (p_grp == (OS_FLAG_GRP *)0) {                        /* Validate 'p_grp'                    
  59              		.loc 1 101 0
  60 0024 FB68     		ldr	r3, [r7, #12]
  61 0026 002B     		cmp	r3, #0
  62 0028 04D1     		bne	.L4
 102:..\..\..\..\..\..\uCOS-III\Source/os_flag.c ****        *p_err = OS_ERR_OBJ_PTR_NULL;
  63              		.loc 1 102 0
  64 002a 3B68     		ldr	r3, [r7]
  65 002c 45F6C352 		movw	r2, #24003
  66 0030 1A80     		strh	r2, [r3]	@ movhi
 103:..\..\..\..\..\..\uCOS-III\Source/os_flag.c ****         return;
  67              		.loc 1 103 0
  68 0032 22E0     		b	.L1
ARM GAS  C:\Users\alex\AppData\Local\Temp\cc9CNbDG.s 			page 4


  69              	.L4:
 104:..\..\..\..\..\..\uCOS-III\Source/os_flag.c ****     }
 105:..\..\..\..\..\..\uCOS-III\Source/os_flag.c **** #endif
 106:..\..\..\..\..\..\uCOS-III\Source/os_flag.c **** 
 107:..\..\..\..\..\..\uCOS-III\Source/os_flag.c ****     OS_CRITICAL_ENTER();
  70              		.loc 1 107 0
  71 0034 FFF7FEFF 		bl	CPU_SR_Save
  72 0038 7861     		str	r0, [r7, #20]
 108:..\..\..\..\..\..\uCOS-III\Source/os_flag.c ****     p_grp->Type    = OS_OBJ_TYPE_FLAG;                      /* Set to event flag group type        
  73              		.loc 1 108 0
  74 003a FB68     		ldr	r3, [r7, #12]
  75 003c 114A     		ldr	r2, .L5+4
  76 003e 1A60     		str	r2, [r3]
 109:..\..\..\..\..\..\uCOS-III\Source/os_flag.c ****     p_grp->NamePtr = p_name;
  77              		.loc 1 109 0
  78 0040 FB68     		ldr	r3, [r7, #12]
  79 0042 BA68     		ldr	r2, [r7, #8]
  80 0044 5A60     		str	r2, [r3, #4]
 110:..\..\..\..\..\..\uCOS-III\Source/os_flag.c ****     p_grp->Flags   = flags;                                 /* Set to desired initial value        
  81              		.loc 1 110 0
  82 0046 FB68     		ldr	r3, [r7, #12]
  83 0048 7A68     		ldr	r2, [r7, #4]
  84 004a 1A62     		str	r2, [r3, #32]
 111:..\..\..\..\..\..\uCOS-III\Source/os_flag.c ****     p_grp->TS      = (CPU_TS)0;
  85              		.loc 1 111 0
  86 004c FB68     		ldr	r3, [r7, #12]
  87 004e 0022     		movs	r2, #0
  88 0050 5A62     		str	r2, [r3, #36]
 112:..\..\..\..\..\..\uCOS-III\Source/os_flag.c ****     OS_PendListInit(&p_grp->PendList);
  89              		.loc 1 112 0
  90 0052 FB68     		ldr	r3, [r7, #12]
  91 0054 0833     		adds	r3, r3, #8
  92 0056 1846     		mov	r0, r3
  93 0058 FFF7FEFF 		bl	OS_PendListInit
 113:..\..\..\..\..\..\uCOS-III\Source/os_flag.c **** 
 114:..\..\..\..\..\..\uCOS-III\Source/os_flag.c **** #if OS_CFG_DBG_EN > 0u
 115:..\..\..\..\..\..\uCOS-III\Source/os_flag.c ****     OS_FlagDbgListAdd(p_grp);
  94              		.loc 1 115 0
  95 005c F868     		ldr	r0, [r7, #12]
  96 005e FFF7FEFF 		bl	OS_FlagDbgListAdd
 116:..\..\..\..\..\..\uCOS-III\Source/os_flag.c **** #endif
 117:..\..\..\..\..\..\uCOS-III\Source/os_flag.c ****     OSFlagQty++;
  97              		.loc 1 117 0
  98 0062 094B     		ldr	r3, .L5+8
  99 0064 1B88     		ldrh	r3, [r3]
 100 0066 0133     		adds	r3, r3, #1
 101 0068 9AB2     		uxth	r2, r3
 102 006a 074B     		ldr	r3, .L5+8
 103 006c 1A80     		strh	r2, [r3]	@ movhi
 118:..\..\..\..\..\..\uCOS-III\Source/os_flag.c **** 
 119:..\..\..\..\..\..\uCOS-III\Source/os_flag.c ****     OS_CRITICAL_EXIT_NO_SCHED();
 104              		.loc 1 119 0
 105 006e 7869     		ldr	r0, [r7, #20]
 106 0070 FFF7FEFF 		bl	CPU_SR_Restore
 120:..\..\..\..\..\..\uCOS-III\Source/os_flag.c ****    *p_err = OS_ERR_NONE;
 107              		.loc 1 120 0
 108 0074 3B68     		ldr	r3, [r7]
ARM GAS  C:\Users\alex\AppData\Local\Temp\cc9CNbDG.s 			page 5


 109 0076 0022     		movs	r2, #0
 110 0078 1A80     		strh	r2, [r3]	@ movhi
 111              	.L1:
 121:..\..\..\..\..\..\uCOS-III\Source/os_flag.c **** }
 112              		.loc 1 121 0
 113 007a 1837     		adds	r7, r7, #24
 114              		.cfi_def_cfa_offset 8
 115 007c BD46     		mov	sp, r7
 116              		.cfi_def_cfa_register 13
 117              		@ sp needed
 118 007e 80BD     		pop	{r7, pc}
 119              	.L6:
 120              		.align	2
 121              	.L5:
 122 0080 00000000 		.word	OSIntNestingCtr
 123 0084 464C4147 		.word	1195461702
 124 0088 00000000 		.word	OSFlagQty
 125              		.cfi_endproc
 126              	.LFE0:
 127              		.size	OSFlagCreate, .-OSFlagCreate
 128              		.section	.text.OSFlagDel,"ax",%progbits
 129              		.align	2
 130              		.global	OSFlagDel
 131              		.thumb
 132              		.thumb_func
 133              		.type	OSFlagDel, %function
 134              	OSFlagDel:
 135              	.LFB1:
 122:..\..\..\..\..\..\uCOS-III\Source/os_flag.c **** 
 123:..\..\..\..\..\..\uCOS-III\Source/os_flag.c **** /*$PAGE*/
 124:..\..\..\..\..\..\uCOS-III\Source/os_flag.c **** /*
 125:..\..\..\..\..\..\uCOS-III\Source/os_flag.c **** ***************************************************************************************************
 126:..\..\..\..\..\..\uCOS-III\Source/os_flag.c **** *                                             DELETE AN EVENT FLAG GROUP
 127:..\..\..\..\..\..\uCOS-III\Source/os_flag.c **** *
 128:..\..\..\..\..\..\uCOS-III\Source/os_flag.c **** * Description: This function deletes an event flag group and readies all tasks pending on the event
 129:..\..\..\..\..\..\uCOS-III\Source/os_flag.c **** *
 130:..\..\..\..\..\..\uCOS-III\Source/os_flag.c **** * Arguments  : p_grp     is a pointer to the desired event flag group.
 131:..\..\..\..\..\..\uCOS-III\Source/os_flag.c **** *
 132:..\..\..\..\..\..\uCOS-III\Source/os_flag.c **** *              opt       determines delete options as follows:
 133:..\..\..\..\..\..\uCOS-III\Source/os_flag.c **** *
 134:..\..\..\..\..\..\uCOS-III\Source/os_flag.c **** *                            OS_OPT_DEL_NO_PEND           Deletes the event flag group ONLY if no t
 135:..\..\..\..\..\..\uCOS-III\Source/os_flag.c **** *                            OS_OPT_DEL_ALWAYS            Deletes the event flag group even if task
 136:..\..\..\..\..\..\uCOS-III\Source/os_flag.c **** *                                                         In this case, all the tasks pending will 
 137:..\..\..\..\..\..\uCOS-III\Source/os_flag.c **** *
 138:..\..\..\..\..\..\uCOS-III\Source/os_flag.c **** *              p_err     is a pointer to an error code that can contain one of the following values
 139:..\..\..\..\..\..\uCOS-III\Source/os_flag.c **** *
 140:..\..\..\..\..\..\uCOS-III\Source/os_flag.c **** *                            OS_ERR_NONE                  The call was successful and the event fla
 141:..\..\..\..\..\..\uCOS-III\Source/os_flag.c **** *                            OS_ERR_DEL_ISR               If you attempted to delete the event flag
 142:..\..\..\..\..\..\uCOS-III\Source/os_flag.c **** *                            OS_ERR_OBJ_PTR_NULL          If 'p_grp' is a NULL pointer.
 143:..\..\..\..\..\..\uCOS-III\Source/os_flag.c **** *                            OS_ERR_OBJ_TYPE              If you didn't pass a pointer to an event 
 144:..\..\..\..\..\..\uCOS-III\Source/os_flag.c **** *                            OS_ERR_OPT_INVALID           An invalid option was specified
 145:..\..\..\..\..\..\uCOS-III\Source/os_flag.c **** *                            OS_ERR_TASK_WAITING          One or more tasks were waiting on the eve
 146:..\..\..\..\..\..\uCOS-III\Source/os_flag.c **** *
 147:..\..\..\..\..\..\uCOS-III\Source/os_flag.c **** * Returns    : == 0          if no tasks were waiting on the event flag group, or upon error.
 148:..\..\..\..\..\..\uCOS-III\Source/os_flag.c **** *              >  0          if one or more tasks waiting on the event flag group are now readied a
 149:..\..\..\..\..\..\uCOS-III\Source/os_flag.c **** *
 150:..\..\..\..\..\..\uCOS-III\Source/os_flag.c **** * Note(s)    : 1) This function must be used with care.  Tasks that would normally expect the prese
ARM GAS  C:\Users\alex\AppData\Local\Temp\cc9CNbDG.s 			page 6


 151:..\..\..\..\..\..\uCOS-III\Source/os_flag.c **** *                 group MUST check the return code of OSFlagPost and OSFlagPend().
 152:..\..\..\..\..\..\uCOS-III\Source/os_flag.c **** ***************************************************************************************************
 153:..\..\..\..\..\..\uCOS-III\Source/os_flag.c **** */
 154:..\..\..\..\..\..\uCOS-III\Source/os_flag.c **** 
 155:..\..\..\..\..\..\uCOS-III\Source/os_flag.c **** #if OS_CFG_FLAG_DEL_EN > 0u
 156:..\..\..\..\..\..\uCOS-III\Source/os_flag.c **** OS_OBJ_QTY  OSFlagDel (OS_FLAG_GRP  *p_grp,
 157:..\..\..\..\..\..\uCOS-III\Source/os_flag.c ****                        OS_OPT        opt,
 158:..\..\..\..\..\..\uCOS-III\Source/os_flag.c ****                        OS_ERR       *p_err)
 159:..\..\..\..\..\..\uCOS-III\Source/os_flag.c **** {
 136              		.loc 1 159 0
 137              		.cfi_startproc
 138              		@ args = 0, pretend = 0, frame = 48
 139              		@ frame_needed = 1, uses_anonymous_args = 0
 140 0000 80B5     		push	{r7, lr}
 141              		.cfi_def_cfa_offset 8
 142              		.cfi_offset 7, -8
 143              		.cfi_offset 14, -4
 144 0002 8CB0     		sub	sp, sp, #48
 145              		.cfi_def_cfa_offset 56
 146 0004 00AF     		add	r7, sp, #0
 147              		.cfi_def_cfa_register 7
 148 0006 F860     		str	r0, [r7, #12]
 149 0008 0B46     		mov	r3, r1
 150 000a 7A60     		str	r2, [r7, #4]
 151 000c 7B81     		strh	r3, [r7, #10]	@ movhi
 160:..\..\..\..\..\..\uCOS-III\Source/os_flag.c ****     OS_OBJ_QTY        cnt;
 161:..\..\..\..\..\..\uCOS-III\Source/os_flag.c ****     OS_OBJ_QTY        nbr_tasks;
 162:..\..\..\..\..\..\uCOS-III\Source/os_flag.c ****     OS_PEND_DATA     *p_pend_data;
 163:..\..\..\..\..\..\uCOS-III\Source/os_flag.c ****     OS_PEND_LIST     *p_pend_list;
 164:..\..\..\..\..\..\uCOS-III\Source/os_flag.c ****     OS_TCB           *p_tcb;
 165:..\..\..\..\..\..\uCOS-III\Source/os_flag.c ****     CPU_TS            ts;
 166:..\..\..\..\..\..\uCOS-III\Source/os_flag.c ****     CPU_SR_ALLOC();
 152              		.loc 1 166 0
 153 000e 0023     		movs	r3, #0
 154 0010 BB62     		str	r3, [r7, #40]
 167:..\..\..\..\..\..\uCOS-III\Source/os_flag.c **** 
 168:..\..\..\..\..\..\uCOS-III\Source/os_flag.c **** 
 169:..\..\..\..\..\..\uCOS-III\Source/os_flag.c **** 
 170:..\..\..\..\..\..\uCOS-III\Source/os_flag.c **** #ifdef OS_SAFETY_CRITICAL
 171:..\..\..\..\..\..\uCOS-III\Source/os_flag.c ****     if (p_err == (OS_ERR *)0) {
 172:..\..\..\..\..\..\uCOS-III\Source/os_flag.c ****         OS_SAFETY_CRITICAL_EXCEPTION();
 173:..\..\..\..\..\..\uCOS-III\Source/os_flag.c ****         return ((OS_OBJ_QTY)0);
 174:..\..\..\..\..\..\uCOS-III\Source/os_flag.c ****     }
 175:..\..\..\..\..\..\uCOS-III\Source/os_flag.c **** #endif
 176:..\..\..\..\..\..\uCOS-III\Source/os_flag.c **** 
 177:..\..\..\..\..\..\uCOS-III\Source/os_flag.c **** #if OS_CFG_CALLED_FROM_ISR_CHK_EN > 0u
 178:..\..\..\..\..\..\uCOS-III\Source/os_flag.c ****     if (OSIntNestingCtr > (OS_NESTING_CTR)0) {              /* See if called from ISR ...          
 155              		.loc 1 178 0
 156 0012 424B     		ldr	r3, .L25
 157 0014 1B78     		ldrb	r3, [r3]	@ zero_extendqisi2
 158 0016 002B     		cmp	r3, #0
 159 0018 05D0     		beq	.L8
 179:..\..\..\..\..\..\uCOS-III\Source/os_flag.c ****        *p_err = OS_ERR_DEL_ISR;                             /* ... can't DELETE from an ISR        
 160              		.loc 1 179 0
 161 001a 7B68     		ldr	r3, [r7, #4]
 162 001c 43F2C922 		movw	r2, #13001
 163 0020 1A80     		strh	r2, [r3]	@ movhi
ARM GAS  C:\Users\alex\AppData\Local\Temp\cc9CNbDG.s 			page 7


 180:..\..\..\..\..\..\uCOS-III\Source/os_flag.c ****         return ((OS_OBJ_QTY)0);
 164              		.loc 1 180 0
 165 0022 0023     		movs	r3, #0
 166 0024 75E0     		b	.L9
 167              	.L8:
 181:..\..\..\..\..\..\uCOS-III\Source/os_flag.c ****     }
 182:..\..\..\..\..\..\uCOS-III\Source/os_flag.c **** #endif
 183:..\..\..\..\..\..\uCOS-III\Source/os_flag.c **** 
 184:..\..\..\..\..\..\uCOS-III\Source/os_flag.c **** #if OS_CFG_ARG_CHK_EN > 0u
 185:..\..\..\..\..\..\uCOS-III\Source/os_flag.c ****     if (p_grp == (OS_FLAG_GRP *)0) {                        /* Validate 'p_grp'                    
 168              		.loc 1 185 0
 169 0026 FB68     		ldr	r3, [r7, #12]
 170 0028 002B     		cmp	r3, #0
 171 002a 05D1     		bne	.L10
 186:..\..\..\..\..\..\uCOS-III\Source/os_flag.c ****        *p_err  = OS_ERR_OBJ_PTR_NULL;
 172              		.loc 1 186 0
 173 002c 7B68     		ldr	r3, [r7, #4]
 174 002e 45F6C352 		movw	r2, #24003
 175 0032 1A80     		strh	r2, [r3]	@ movhi
 187:..\..\..\..\..\..\uCOS-III\Source/os_flag.c ****         return ((OS_OBJ_QTY)0);
 176              		.loc 1 187 0
 177 0034 0023     		movs	r3, #0
 178 0036 6CE0     		b	.L9
 179              	.L10:
 188:..\..\..\..\..\..\uCOS-III\Source/os_flag.c ****     }
 189:..\..\..\..\..\..\uCOS-III\Source/os_flag.c ****     switch (opt) {                                          /* Validate 'opt'                      
 180              		.loc 1 189 0
 181 0038 7B89     		ldrh	r3, [r7, #10]
 182 003a 0033     		adds	r3, r3, #0
 183 003c 012B     		cmp	r3, #1
 184 003e 05D9     		bls	.L24
 190:..\..\..\..\..\..\uCOS-III\Source/os_flag.c ****         case OS_OPT_DEL_NO_PEND:
 191:..\..\..\..\..\..\uCOS-III\Source/os_flag.c ****         case OS_OPT_DEL_ALWAYS:
 192:..\..\..\..\..\..\uCOS-III\Source/os_flag.c ****              break;
 193:..\..\..\..\..\..\uCOS-III\Source/os_flag.c **** 
 194:..\..\..\..\..\..\uCOS-III\Source/os_flag.c ****         default:
 195:..\..\..\..\..\..\uCOS-III\Source/os_flag.c ****             *p_err = OS_ERR_OPT_INVALID;
 185              		.loc 1 195 0
 186 0040 7B68     		ldr	r3, [r7, #4]
 187 0042 45F62562 		movw	r2, #24101
 188 0046 1A80     		strh	r2, [r3]	@ movhi
 196:..\..\..\..\..\..\uCOS-III\Source/os_flag.c ****              return ((OS_OBJ_QTY)0);
 189              		.loc 1 196 0
 190 0048 0023     		movs	r3, #0
 191 004a 62E0     		b	.L9
 192              	.L24:
 192:..\..\..\..\..\..\uCOS-III\Source/os_flag.c **** 
 193              		.loc 1 192 0
 194 004c 00BF     		nop
 197:..\..\..\..\..\..\uCOS-III\Source/os_flag.c ****     }
 198:..\..\..\..\..\..\uCOS-III\Source/os_flag.c **** #endif
 199:..\..\..\..\..\..\uCOS-III\Source/os_flag.c **** 
 200:..\..\..\..\..\..\uCOS-III\Source/os_flag.c **** #if OS_CFG_OBJ_TYPE_CHK_EN > 0u
 201:..\..\..\..\..\..\uCOS-III\Source/os_flag.c ****     if (p_grp->Type != OS_OBJ_TYPE_FLAG) {                  /* Validate event group object         
 202:..\..\..\..\..\..\uCOS-III\Source/os_flag.c ****        *p_err = OS_ERR_OBJ_TYPE;
 203:..\..\..\..\..\..\uCOS-III\Source/os_flag.c ****         return ((OS_OBJ_QTY)0);
 204:..\..\..\..\..\..\uCOS-III\Source/os_flag.c ****     }
ARM GAS  C:\Users\alex\AppData\Local\Temp\cc9CNbDG.s 			page 8


 205:..\..\..\..\..\..\uCOS-III\Source/os_flag.c **** #endif
 206:..\..\..\..\..\..\uCOS-III\Source/os_flag.c ****     OS_CRITICAL_ENTER();
 195              		.loc 1 206 0
 196 004e FFF7FEFF 		bl	CPU_SR_Save
 197 0052 B862     		str	r0, [r7, #40]
 207:..\..\..\..\..\..\uCOS-III\Source/os_flag.c ****     p_pend_list = &p_grp->PendList;
 198              		.loc 1 207 0
 199 0054 FB68     		ldr	r3, [r7, #12]
 200 0056 0833     		adds	r3, r3, #8
 201 0058 7B62     		str	r3, [r7, #36]
 208:..\..\..\..\..\..\uCOS-III\Source/os_flag.c ****     cnt         = p_pend_list->NbrEntries;
 202              		.loc 1 208 0
 203 005a 7B6A     		ldr	r3, [r7, #36]
 204 005c 1B89     		ldrh	r3, [r3, #8]	@ movhi
 205 005e FB85     		strh	r3, [r7, #46]	@ movhi
 209:..\..\..\..\..\..\uCOS-III\Source/os_flag.c ****     nbr_tasks   = cnt;
 206              		.loc 1 209 0
 207 0060 FB8D     		ldrh	r3, [r7, #46]	@ movhi
 208 0062 7B84     		strh	r3, [r7, #34]	@ movhi
 210:..\..\..\..\..\..\uCOS-III\Source/os_flag.c ****     switch (opt) {
 209              		.loc 1 210 0
 210 0064 7B89     		ldrh	r3, [r7, #10]
 211 0066 002B     		cmp	r3, #0
 212 0068 02D0     		beq	.L15
 213 006a 012B     		cmp	r3, #1
 214 006c 1ED0     		beq	.L16
 215 006e 47E0     		b	.L23
 216              	.L15:
 211:..\..\..\..\..\..\uCOS-III\Source/os_flag.c ****         case OS_OPT_DEL_NO_PEND:                            /* Delete group if no task waiting     
 212:..\..\..\..\..\..\uCOS-III\Source/os_flag.c ****              if (nbr_tasks == (OS_OBJ_QTY)0) {
 217              		.loc 1 212 0
 218 0070 7B8C     		ldrh	r3, [r7, #34]
 219 0072 002B     		cmp	r3, #0
 220 0074 12D1     		bne	.L17
 213:..\..\..\..\..\..\uCOS-III\Source/os_flag.c **** #if OS_CFG_DBG_EN > 0u
 214:..\..\..\..\..\..\uCOS-III\Source/os_flag.c ****                  OS_FlagDbgListRemove(p_grp);
 221              		.loc 1 214 0
 222 0076 F868     		ldr	r0, [r7, #12]
 223 0078 FFF7FEFF 		bl	OS_FlagDbgListRemove
 215:..\..\..\..\..\..\uCOS-III\Source/os_flag.c **** #endif
 216:..\..\..\..\..\..\uCOS-III\Source/os_flag.c ****                  OSFlagQty--;
 224              		.loc 1 216 0
 225 007c 284B     		ldr	r3, .L25+4
 226 007e 1B88     		ldrh	r3, [r3]
 227 0080 013B     		subs	r3, r3, #1
 228 0082 9AB2     		uxth	r2, r3
 229 0084 264B     		ldr	r3, .L25+4
 230 0086 1A80     		strh	r2, [r3]	@ movhi
 217:..\..\..\..\..\..\uCOS-III\Source/os_flag.c ****                  OS_FlagClr(p_grp);
 231              		.loc 1 217 0
 232 0088 F868     		ldr	r0, [r7, #12]
 233 008a FFF7FEFF 		bl	OS_FlagClr
 218:..\..\..\..\..\..\uCOS-III\Source/os_flag.c **** 
 219:..\..\..\..\..\..\uCOS-III\Source/os_flag.c ****                  OS_CRITICAL_EXIT();
 234              		.loc 1 219 0
 235 008e B86A     		ldr	r0, [r7, #40]
 236 0090 FFF7FEFF 		bl	CPU_SR_Restore
ARM GAS  C:\Users\alex\AppData\Local\Temp\cc9CNbDG.s 			page 9


 220:..\..\..\..\..\..\uCOS-III\Source/os_flag.c ****                 *p_err = OS_ERR_NONE;
 237              		.loc 1 220 0
 238 0094 7B68     		ldr	r3, [r7, #4]
 239 0096 0022     		movs	r2, #0
 240 0098 1A80     		strh	r2, [r3]	@ movhi
 221:..\..\..\..\..\..\uCOS-III\Source/os_flag.c ****              } else {
 222:..\..\..\..\..\..\uCOS-III\Source/os_flag.c ****                  OS_CRITICAL_EXIT();
 223:..\..\..\..\..\..\uCOS-III\Source/os_flag.c ****                 *p_err = OS_ERR_TASK_WAITING;
 224:..\..\..\..\..\..\uCOS-III\Source/os_flag.c ****              }
 225:..\..\..\..\..\..\uCOS-III\Source/os_flag.c ****              break;
 241              		.loc 1 225 0
 242 009a 39E0     		b	.L19
 243              	.L17:
 222:..\..\..\..\..\..\uCOS-III\Source/os_flag.c ****                 *p_err = OS_ERR_TASK_WAITING;
 244              		.loc 1 222 0
 245 009c B86A     		ldr	r0, [r7, #40]
 246 009e FFF7FEFF 		bl	CPU_SR_Restore
 223:..\..\..\..\..\..\uCOS-III\Source/os_flag.c ****              }
 247              		.loc 1 223 0
 248 00a2 7B68     		ldr	r3, [r7, #4]
 249 00a4 47F25F12 		movw	r2, #29023
 250 00a8 1A80     		strh	r2, [r3]	@ movhi
 251              		.loc 1 225 0
 252 00aa 31E0     		b	.L19
 253              	.L16:
 226:..\..\..\..\..\..\uCOS-III\Source/os_flag.c **** 
 227:..\..\..\..\..\..\uCOS-III\Source/os_flag.c ****         case OS_OPT_DEL_ALWAYS:                             /* Always delete the event flag group  
 228:..\..\..\..\..\..\uCOS-III\Source/os_flag.c ****              ts = OS_TS_GET();                              /* Get local time stamp so all tasks ge
 254              		.loc 1 228 0
 255 00ac FFF7FEFF 		bl	CPU_TS_TmrRd
 256 00b0 F861     		str	r0, [r7, #28]
 229:..\..\..\..\..\..\uCOS-III\Source/os_flag.c ****              while (cnt > 0u) {                             /* Remove all tasks from the pend list 
 257              		.loc 1 229 0
 258 00b2 0DE0     		b	.L20
 259              	.L21:
 230:..\..\..\..\..\..\uCOS-III\Source/os_flag.c ****                  p_pend_data = p_pend_list->HeadPtr;
 260              		.loc 1 230 0
 261 00b4 7B6A     		ldr	r3, [r7, #36]
 262 00b6 1B68     		ldr	r3, [r3]
 263 00b8 BB61     		str	r3, [r7, #24]
 231:..\..\..\..\..\..\uCOS-III\Source/os_flag.c ****                  p_tcb       = p_pend_data->TCBPtr;
 264              		.loc 1 231 0
 265 00ba BB69     		ldr	r3, [r7, #24]
 266 00bc 9B68     		ldr	r3, [r3, #8]
 267 00be 7B61     		str	r3, [r7, #20]
 232:..\..\..\..\..\..\uCOS-III\Source/os_flag.c ****                  OS_PendObjDel((OS_PEND_OBJ *)((void *)p_grp),
 268              		.loc 1 232 0
 269 00c0 FA69     		ldr	r2, [r7, #28]
 270 00c2 7969     		ldr	r1, [r7, #20]
 271 00c4 F868     		ldr	r0, [r7, #12]
 272 00c6 FFF7FEFF 		bl	OS_PendObjDel
 233:..\..\..\..\..\..\uCOS-III\Source/os_flag.c ****                                p_tcb,
 234:..\..\..\..\..\..\uCOS-III\Source/os_flag.c ****                                ts);
 235:..\..\..\..\..\..\uCOS-III\Source/os_flag.c ****                  cnt--;
 273              		.loc 1 235 0
 274 00ca FB8D     		ldrh	r3, [r7, #46]
 275 00cc 013B     		subs	r3, r3, #1
ARM GAS  C:\Users\alex\AppData\Local\Temp\cc9CNbDG.s 			page 10


 276 00ce FB85     		strh	r3, [r7, #46]	@ movhi
 277              	.L20:
 229:..\..\..\..\..\..\uCOS-III\Source/os_flag.c ****                  p_pend_data = p_pend_list->HeadPtr;
 278              		.loc 1 229 0
 279 00d0 FB8D     		ldrh	r3, [r7, #46]
 280 00d2 002B     		cmp	r3, #0
 281 00d4 EED1     		bne	.L21
 236:..\..\..\..\..\..\uCOS-III\Source/os_flag.c ****              }
 237:..\..\..\..\..\..\uCOS-III\Source/os_flag.c **** #if OS_CFG_DBG_EN > 0u
 238:..\..\..\..\..\..\uCOS-III\Source/os_flag.c ****              OS_FlagDbgListRemove(p_grp);
 282              		.loc 1 238 0
 283 00d6 F868     		ldr	r0, [r7, #12]
 284 00d8 FFF7FEFF 		bl	OS_FlagDbgListRemove
 239:..\..\..\..\..\..\uCOS-III\Source/os_flag.c **** #endif
 240:..\..\..\..\..\..\uCOS-III\Source/os_flag.c ****              OSFlagQty--;
 285              		.loc 1 240 0
 286 00dc 104B     		ldr	r3, .L25+4
 287 00de 1B88     		ldrh	r3, [r3]
 288 00e0 013B     		subs	r3, r3, #1
 289 00e2 9AB2     		uxth	r2, r3
 290 00e4 0E4B     		ldr	r3, .L25+4
 291 00e6 1A80     		strh	r2, [r3]	@ movhi
 241:..\..\..\..\..\..\uCOS-III\Source/os_flag.c ****              OS_FlagClr(p_grp);
 292              		.loc 1 241 0
 293 00e8 F868     		ldr	r0, [r7, #12]
 294 00ea FFF7FEFF 		bl	OS_FlagClr
 242:..\..\..\..\..\..\uCOS-III\Source/os_flag.c ****              OS_CRITICAL_EXIT_NO_SCHED();
 295              		.loc 1 242 0
 296 00ee B86A     		ldr	r0, [r7, #40]
 297 00f0 FFF7FEFF 		bl	CPU_SR_Restore
 243:..\..\..\..\..\..\uCOS-III\Source/os_flag.c ****              OSSched();                                     /* Find highest priority task ready to 
 298              		.loc 1 243 0
 299 00f4 FFF7FEFF 		bl	OSSched
 244:..\..\..\..\..\..\uCOS-III\Source/os_flag.c ****             *p_err = OS_ERR_NONE;
 300              		.loc 1 244 0
 301 00f8 7B68     		ldr	r3, [r7, #4]
 302 00fa 0022     		movs	r2, #0
 303 00fc 1A80     		strh	r2, [r3]	@ movhi
 245:..\..\..\..\..\..\uCOS-III\Source/os_flag.c ****              break;
 304              		.loc 1 245 0
 305 00fe 07E0     		b	.L19
 306              	.L23:
 246:..\..\..\..\..\..\uCOS-III\Source/os_flag.c **** 
 247:..\..\..\..\..\..\uCOS-III\Source/os_flag.c ****         default:
 248:..\..\..\..\..\..\uCOS-III\Source/os_flag.c ****              OS_CRITICAL_EXIT();
 307              		.loc 1 248 0
 308 0100 B86A     		ldr	r0, [r7, #40]
 309 0102 FFF7FEFF 		bl	CPU_SR_Restore
 249:..\..\..\..\..\..\uCOS-III\Source/os_flag.c ****             *p_err = OS_ERR_OPT_INVALID;
 310              		.loc 1 249 0
 311 0106 7B68     		ldr	r3, [r7, #4]
 312 0108 45F62562 		movw	r2, #24101
 313 010c 1A80     		strh	r2, [r3]	@ movhi
 250:..\..\..\..\..\..\uCOS-III\Source/os_flag.c ****              break;
 314              		.loc 1 250 0
 315 010e 00BF     		nop
 316              	.L19:
ARM GAS  C:\Users\alex\AppData\Local\Temp\cc9CNbDG.s 			page 11


 251:..\..\..\..\..\..\uCOS-III\Source/os_flag.c ****     }
 252:..\..\..\..\..\..\uCOS-III\Source/os_flag.c ****     return (nbr_tasks);
 317              		.loc 1 252 0
 318 0110 7B8C     		ldrh	r3, [r7, #34]
 319              	.L9:
 253:..\..\..\..\..\..\uCOS-III\Source/os_flag.c **** }
 320              		.loc 1 253 0
 321 0112 1846     		mov	r0, r3
 322 0114 3037     		adds	r7, r7, #48
 323              		.cfi_def_cfa_offset 8
 324 0116 BD46     		mov	sp, r7
 325              		.cfi_def_cfa_register 13
 326              		@ sp needed
 327 0118 80BD     		pop	{r7, pc}
 328              	.L26:
 329 011a 00BF     		.align	2
 330              	.L25:
 331 011c 00000000 		.word	OSIntNestingCtr
 332 0120 00000000 		.word	OSFlagQty
 333              		.cfi_endproc
 334              	.LFE1:
 335              		.size	OSFlagDel, .-OSFlagDel
 336              		.section	.text.OSFlagPend,"ax",%progbits
 337              		.align	2
 338              		.global	OSFlagPend
 339              		.thumb
 340              		.thumb_func
 341              		.type	OSFlagPend, %function
 342              	OSFlagPend:
 343              	.LFB2:
 254:..\..\..\..\..\..\uCOS-III\Source/os_flag.c **** #endif
 255:..\..\..\..\..\..\uCOS-III\Source/os_flag.c **** 
 256:..\..\..\..\..\..\uCOS-III\Source/os_flag.c **** /*
 257:..\..\..\..\..\..\uCOS-III\Source/os_flag.c **** ***************************************************************************************************
 258:..\..\..\..\..\..\uCOS-III\Source/os_flag.c **** *                                             WAIT ON AN EVENT FLAG GROUP
 259:..\..\..\..\..\..\uCOS-III\Source/os_flag.c **** *
 260:..\..\..\..\..\..\uCOS-III\Source/os_flag.c **** * Description: This function is called to wait for a combination of bits to be set in an event flag
 261:..\..\..\..\..\..\uCOS-III\Source/os_flag.c **** *              application can wait for ANY bit to be set or ALL bits to be set.
 262:..\..\..\..\..\..\uCOS-III\Source/os_flag.c **** *
 263:..\..\..\..\..\..\uCOS-III\Source/os_flag.c **** * Arguments  : p_grp         is a pointer to the desired event flag group.
 264:..\..\..\..\..\..\uCOS-III\Source/os_flag.c **** *
 265:..\..\..\..\..\..\uCOS-III\Source/os_flag.c **** *              flags         Is a bit pattern indicating which bit(s) (i.e. flags) you wish to wait
 266:..\..\..\..\..\..\uCOS-III\Source/os_flag.c **** *                            The bits you want are specified by setting the corresponding bits in '
 267:..\..\..\..\..\..\uCOS-III\Source/os_flag.c **** *                            e.g. if your application wants to wait for bits 0 and 1 then 'flags' w
 268:..\..\..\..\..\..\uCOS-III\Source/os_flag.c **** *
 269:..\..\..\..\..\..\uCOS-III\Source/os_flag.c **** *              timeout       is an optional timeout (in clock ticks) that your task will wait for t
 270:..\..\..\..\..\..\uCOS-III\Source/os_flag.c **** *                            desired bit combination.  If you specify 0, however, your task will wa
 271:..\..\..\..\..\..\uCOS-III\Source/os_flag.c **** *                            forever at the specified event flag group or, until a message arrives.
 272:..\..\..\..\..\..\uCOS-III\Source/os_flag.c **** *
 273:..\..\..\..\..\..\uCOS-III\Source/os_flag.c **** *              opt           specifies whether you want ALL bits to be set or ANY of the bits to be
 274:..\..\..\..\..\..\uCOS-III\Source/os_flag.c **** *                            You can specify the 'ONE' of the following arguments:
 275:..\..\..\..\..\..\uCOS-III\Source/os_flag.c **** *
 276:..\..\..\..\..\..\uCOS-III\Source/os_flag.c **** *                                OS_OPT_PEND_FLAG_CLR_ALL   You will wait for ALL bits in 'flags' t
 277:..\..\..\..\..\..\uCOS-III\Source/os_flag.c **** *                                OS_OPT_PEND_FLAG_CLR_ANY   You will wait for ANY bit  in 'flags' t
 278:..\..\..\..\..\..\uCOS-III\Source/os_flag.c **** *                                OS_OPT_PEND_FLAG_SET_ALL   You will wait for ALL bits in 'flags' t
 279:..\..\..\..\..\..\uCOS-III\Source/os_flag.c **** *                                OS_OPT_PEND_FLAG_SET_ANY   You will wait for ANY bit  in 'flags' t
 280:..\..\..\..\..\..\uCOS-III\Source/os_flag.c **** *
ARM GAS  C:\Users\alex\AppData\Local\Temp\cc9CNbDG.s 			page 12


 281:..\..\..\..\..\..\uCOS-III\Source/os_flag.c **** *                            You can 'ADD' OS_OPT_PEND_FLAG_CONSUME if you want the event flag to b
 282:..\..\..\..\..\..\uCOS-III\Source/os_flag.c **** *                                      the call.  Example, to wait for any flag in a group AND then
 283:..\..\..\..\..\..\uCOS-III\Source/os_flag.c **** *                                      the flags that are present, set 'wait_opt' to:
 284:..\..\..\..\..\..\uCOS-III\Source/os_flag.c **** *
 285:..\..\..\..\..\..\uCOS-III\Source/os_flag.c **** *                                      OS_OPT_PEND_FLAG_SET_ANY + OS_OPT_PEND_FLAG_CONSUME
 286:..\..\..\..\..\..\uCOS-III\Source/os_flag.c **** *
 287:..\..\..\..\..\..\uCOS-III\Source/os_flag.c **** *                            You can also 'ADD' the type of pend with 'ONE' of the two option:
 288:..\..\..\..\..\..\uCOS-III\Source/os_flag.c **** *
 289:..\..\..\..\..\..\uCOS-III\Source/os_flag.c **** *                                OS_OPT_PEND_NON_BLOCKING   Task will NOT block if flags are not av
 290:..\..\..\..\..\..\uCOS-III\Source/os_flag.c **** *                                OS_OPT_PEND_BLOCKING       Task will     block if flags are not av
 291:..\..\..\..\..\..\uCOS-III\Source/os_flag.c **** *
 292:..\..\..\..\..\..\uCOS-III\Source/os_flag.c **** *              p_ts          is a pointer to a variable that will receive the timestamp of when the
 293:..\..\..\..\..\..\uCOS-III\Source/os_flag.c **** *                            posted, aborted or the event flag group deleted.  If you pass a NULL p
 294:..\..\..\..\..\..\uCOS-III\Source/os_flag.c **** *                            then you will not get the timestamp.  In other words, passing a NULL p
 295:..\..\..\..\..\..\uCOS-III\Source/os_flag.c **** *                            indicates that you don't need the timestamp.
 296:..\..\..\..\..\..\uCOS-III\Source/os_flag.c **** *
 297:..\..\..\..\..\..\uCOS-III\Source/os_flag.c **** *              p_err         is a pointer to an error code and can be:
 298:..\..\..\..\..\..\uCOS-III\Source/os_flag.c **** *
 299:..\..\..\..\..\..\uCOS-III\Source/os_flag.c **** *                                OS_ERR_NONE                The desired bits have been set within t
 300:..\..\..\..\..\..\uCOS-III\Source/os_flag.c **** *                                OS_ERR_OBJ_PTR_NULL        If 'p_grp' is a NULL pointer.
 301:..\..\..\..\..\..\uCOS-III\Source/os_flag.c **** *                                OS_ERR_OBJ_TYPE            You are not pointing to an event flag g
 302:..\..\..\..\..\..\uCOS-III\Source/os_flag.c **** *                                OS_ERR_OPT_INVALID         You didn't specify a proper 'opt' argum
 303:..\..\..\..\..\..\uCOS-III\Source/os_flag.c **** *                                OS_ERR_PEND_ABORT          The wait on the flag was aborted.
 304:..\..\..\..\..\..\uCOS-III\Source/os_flag.c **** *                                OS_ERR_PEND_ISR            If you tried to PEND from an ISR
 305:..\..\..\..\..\..\uCOS-III\Source/os_flag.c **** *                                OS_ERR_PEND_WOULD_BLOCK    If you specified non-blocking but the f
 306:..\..\..\..\..\..\uCOS-III\Source/os_flag.c **** *                                                           available.
 307:..\..\..\..\..\..\uCOS-III\Source/os_flag.c **** *                                OS_ERR_SCHED_LOCKED        If you called this function when the sc
 308:..\..\..\..\..\..\uCOS-III\Source/os_flag.c **** *                                OS_ERR_TIMEOUT             The bit(s) have not been set in the spe
 309:..\..\..\..\..\..\uCOS-III\Source/os_flag.c **** *
 310:..\..\..\..\..\..\uCOS-III\Source/os_flag.c **** * Returns    : The flags in the event flag group that made the task ready or, 0 if a timeout or an 
 311:..\..\..\..\..\..\uCOS-III\Source/os_flag.c **** *              occurred.
 312:..\..\..\..\..\..\uCOS-III\Source/os_flag.c **** ***************************************************************************************************
 313:..\..\..\..\..\..\uCOS-III\Source/os_flag.c **** */
 314:..\..\..\..\..\..\uCOS-III\Source/os_flag.c **** 
 315:..\..\..\..\..\..\uCOS-III\Source/os_flag.c **** OS_FLAGS  OSFlagPend (OS_FLAG_GRP  *p_grp,
 316:..\..\..\..\..\..\uCOS-III\Source/os_flag.c ****                       OS_FLAGS      flags,
 317:..\..\..\..\..\..\uCOS-III\Source/os_flag.c ****                       OS_TICK       timeout,
 318:..\..\..\..\..\..\uCOS-III\Source/os_flag.c ****                       OS_OPT        opt,
 319:..\..\..\..\..\..\uCOS-III\Source/os_flag.c ****                       CPU_TS       *p_ts,
 320:..\..\..\..\..\..\uCOS-III\Source/os_flag.c ****                       OS_ERR       *p_err)
 321:..\..\..\..\..\..\uCOS-III\Source/os_flag.c **** {
 344              		.loc 1 321 0
 345              		.cfi_startproc
 346              		@ args = 8, pretend = 0, frame = 64
 347              		@ frame_needed = 1, uses_anonymous_args = 0
 348 0000 80B5     		push	{r7, lr}
 349              		.cfi_def_cfa_offset 8
 350              		.cfi_offset 7, -8
 351              		.cfi_offset 14, -4
 352 0002 92B0     		sub	sp, sp, #72
 353              		.cfi_def_cfa_offset 80
 354 0004 02AF     		add	r7, sp, #8
 355              		.cfi_def_cfa 7, 72
 356 0006 F860     		str	r0, [r7, #12]
 357 0008 B960     		str	r1, [r7, #8]
 358 000a 7A60     		str	r2, [r7, #4]
 359 000c 7B80     		strh	r3, [r7, #2]	@ movhi
ARM GAS  C:\Users\alex\AppData\Local\Temp\cc9CNbDG.s 			page 13


 322:..\..\..\..\..\..\uCOS-III\Source/os_flag.c ****     CPU_BOOLEAN   consume;
 323:..\..\..\..\..\..\uCOS-III\Source/os_flag.c ****     OS_FLAGS      flags_rdy;
 324:..\..\..\..\..\..\uCOS-III\Source/os_flag.c ****     OS_OPT        mode;
 325:..\..\..\..\..\..\uCOS-III\Source/os_flag.c ****     OS_PEND_DATA  pend_data;
 326:..\..\..\..\..\..\uCOS-III\Source/os_flag.c ****     CPU_SR_ALLOC();
 360              		.loc 1 326 0
 361 000e 0023     		movs	r3, #0
 362 0010 BB63     		str	r3, [r7, #56]
 327:..\..\..\..\..\..\uCOS-III\Source/os_flag.c **** 
 328:..\..\..\..\..\..\uCOS-III\Source/os_flag.c **** 
 329:..\..\..\..\..\..\uCOS-III\Source/os_flag.c **** 
 330:..\..\..\..\..\..\uCOS-III\Source/os_flag.c **** #ifdef OS_SAFETY_CRITICAL
 331:..\..\..\..\..\..\uCOS-III\Source/os_flag.c ****     if (p_err == (OS_ERR *)0) {
 332:..\..\..\..\..\..\uCOS-III\Source/os_flag.c ****         OS_SAFETY_CRITICAL_EXCEPTION();
 333:..\..\..\..\..\..\uCOS-III\Source/os_flag.c ****         return ((OS_FLAGS)0);
 334:..\..\..\..\..\..\uCOS-III\Source/os_flag.c ****     }
 335:..\..\..\..\..\..\uCOS-III\Source/os_flag.c **** #endif
 336:..\..\..\..\..\..\uCOS-III\Source/os_flag.c **** 
 337:..\..\..\..\..\..\uCOS-III\Source/os_flag.c **** #if OS_CFG_CALLED_FROM_ISR_CHK_EN > 0u
 338:..\..\..\..\..\..\uCOS-III\Source/os_flag.c ****     if (OSIntNestingCtr > (OS_NESTING_CTR)0) {              /* See if called from ISR ...          
 363              		.loc 1 338 0
 364 0012 964B     		ldr	r3, .L87
 365 0014 1B78     		ldrb	r3, [r3]	@ zero_extendqisi2
 366 0016 002B     		cmp	r3, #0
 367 0018 05D0     		beq	.L28
 339:..\..\..\..\..\..\uCOS-III\Source/os_flag.c ****        *p_err = OS_ERR_PEND_ISR;                            /* ... can't PEND from an ISR          
 368              		.loc 1 339 0
 369 001a FB6C     		ldr	r3, [r7, #76]
 370 001c 46F2AE12 		movw	r2, #25006
 371 0020 1A80     		strh	r2, [r3]	@ movhi
 340:..\..\..\..\..\..\uCOS-III\Source/os_flag.c ****         return ((OS_FLAGS)0);
 372              		.loc 1 340 0
 373 0022 0023     		movs	r3, #0
 374 0024 6DE2     		b	.L85
 375              	.L28:
 341:..\..\..\..\..\..\uCOS-III\Source/os_flag.c ****     }
 342:..\..\..\..\..\..\uCOS-III\Source/os_flag.c **** #endif
 343:..\..\..\..\..\..\uCOS-III\Source/os_flag.c **** 
 344:..\..\..\..\..\..\uCOS-III\Source/os_flag.c **** #if OS_CFG_ARG_CHK_EN > 0u
 345:..\..\..\..\..\..\uCOS-III\Source/os_flag.c ****     if (p_grp == (OS_FLAG_GRP *)0) {                        /* Validate 'p_grp'                    
 376              		.loc 1 345 0
 377 0026 FB68     		ldr	r3, [r7, #12]
 378 0028 002B     		cmp	r3, #0
 379 002a 05D1     		bne	.L30
 346:..\..\..\..\..\..\uCOS-III\Source/os_flag.c ****        *p_err = OS_ERR_OBJ_PTR_NULL;
 380              		.loc 1 346 0
 381 002c FB6C     		ldr	r3, [r7, #76]
 382 002e 45F6C352 		movw	r2, #24003
 383 0032 1A80     		strh	r2, [r3]	@ movhi
 347:..\..\..\..\..\..\uCOS-III\Source/os_flag.c ****         return ((OS_FLAGS)0);
 384              		.loc 1 347 0
 385 0034 0023     		movs	r3, #0
 386 0036 64E2     		b	.L85
 387              	.L30:
 348:..\..\..\..\..\..\uCOS-III\Source/os_flag.c ****     }
 349:..\..\..\..\..\..\uCOS-III\Source/os_flag.c ****     switch (opt) {                                          /* Validate 'opt'                      
 388              		.loc 1 349 0
ARM GAS  C:\Users\alex\AppData\Local\Temp\cc9CNbDG.s 			page 14


 389 0038 7B88     		ldrh	r3, [r7, #2]
 390 003a B3F5847F 		cmp	r3, #264
 391 003e 43D0     		beq	.L86
 392 0040 B3F5847F 		cmp	r3, #264
 393 0044 14DC     		bgt	.L33
 394 0046 082B     		cmp	r3, #8
 395 0048 3ED0     		beq	.L86
 396 004a 082B     		cmp	r3, #8
 397 004c 06DC     		bgt	.L34
 398 004e 012B     		cmp	r3, #1
 399 0050 34DB     		blt	.L31
 400 0052 022B     		cmp	r3, #2
 401 0054 38DD     		ble	.L86
 402 0056 042B     		cmp	r3, #4
 403 0058 36D0     		beq	.L86
 404 005a 2FE0     		b	.L31
 405              	.L34:
 406 005c B3F5807F 		cmp	r3, #256
 407 0060 2CDD     		ble	.L31
 408 0062 B3F5817F 		cmp	r3, #258
 409 0066 2FDD     		ble	.L86
 410 0068 B3F5827F 		cmp	r3, #260
 411 006c 2CD0     		beq	.L86
 412 006e 25E0     		b	.L31
 413              	.L33:
 414 0070 48F20802 		movw	r2, #32776
 415 0074 9342     		cmp	r3, r2
 416 0076 27D0     		beq	.L86
 417 0078 48F20802 		movw	r2, #32776
 418 007c 9342     		cmp	r3, r2
 419 007e 0BDC     		bgt	.L35
 420 0080 B3F5004F 		cmp	r3, #32768
 421 0084 1ADD     		ble	.L31
 422 0086 48F20202 		movw	r2, #32770
 423 008a 9342     		cmp	r3, r2
 424 008c 1CDD     		ble	.L86
 425 008e 48F20402 		movw	r2, #32772
 426 0092 9342     		cmp	r3, r2
 427 0094 18D0     		beq	.L86
 428 0096 11E0     		b	.L31
 429              	.L35:
 430 0098 48F20412 		movw	r2, #33028
 431 009c 9342     		cmp	r3, r2
 432 009e 13D0     		beq	.L86
 433 00a0 48F20412 		movw	r2, #33028
 434 00a4 9342     		cmp	r3, r2
 435 00a6 05DC     		bgt	.L36
 436 00a8 A3F50143 		sub	r3, r3, #33024
 437 00ac 013B     		subs	r3, r3, #1
 438 00ae 012B     		cmp	r3, #1
 439 00b0 04D8     		bhi	.L31
 350:..\..\..\..\..\..\uCOS-III\Source/os_flag.c ****         case OS_OPT_PEND_FLAG_CLR_ALL:
 351:..\..\..\..\..\..\uCOS-III\Source/os_flag.c ****         case OS_OPT_PEND_FLAG_CLR_ANY:
 352:..\..\..\..\..\..\uCOS-III\Source/os_flag.c ****         case OS_OPT_PEND_FLAG_SET_ALL:
 353:..\..\..\..\..\..\uCOS-III\Source/os_flag.c ****         case OS_OPT_PEND_FLAG_SET_ANY:
 354:..\..\..\..\..\..\uCOS-III\Source/os_flag.c ****         case OS_OPT_PEND_FLAG_CLR_ALL | OS_OPT_PEND_FLAG_CONSUME:
 355:..\..\..\..\..\..\uCOS-III\Source/os_flag.c ****         case OS_OPT_PEND_FLAG_CLR_ANY | OS_OPT_PEND_FLAG_CONSUME:
ARM GAS  C:\Users\alex\AppData\Local\Temp\cc9CNbDG.s 			page 15


 356:..\..\..\..\..\..\uCOS-III\Source/os_flag.c ****         case OS_OPT_PEND_FLAG_SET_ALL | OS_OPT_PEND_FLAG_CONSUME:
 357:..\..\..\..\..\..\uCOS-III\Source/os_flag.c ****         case OS_OPT_PEND_FLAG_SET_ANY | OS_OPT_PEND_FLAG_CONSUME:
 358:..\..\..\..\..\..\uCOS-III\Source/os_flag.c ****         case OS_OPT_PEND_FLAG_CLR_ALL | OS_OPT_PEND_NON_BLOCKING:
 359:..\..\..\..\..\..\uCOS-III\Source/os_flag.c ****         case OS_OPT_PEND_FLAG_CLR_ANY | OS_OPT_PEND_NON_BLOCKING:
 360:..\..\..\..\..\..\uCOS-III\Source/os_flag.c ****         case OS_OPT_PEND_FLAG_SET_ALL | OS_OPT_PEND_NON_BLOCKING:
 361:..\..\..\..\..\..\uCOS-III\Source/os_flag.c ****         case OS_OPT_PEND_FLAG_SET_ANY | OS_OPT_PEND_NON_BLOCKING:
 362:..\..\..\..\..\..\uCOS-III\Source/os_flag.c ****         case OS_OPT_PEND_FLAG_CLR_ALL | OS_OPT_PEND_FLAG_CONSUME | OS_OPT_PEND_NON_BLOCKING:
 363:..\..\..\..\..\..\uCOS-III\Source/os_flag.c ****         case OS_OPT_PEND_FLAG_CLR_ANY | OS_OPT_PEND_FLAG_CONSUME | OS_OPT_PEND_NON_BLOCKING:
 364:..\..\..\..\..\..\uCOS-III\Source/os_flag.c ****         case OS_OPT_PEND_FLAG_SET_ALL | OS_OPT_PEND_FLAG_CONSUME | OS_OPT_PEND_NON_BLOCKING:
 365:..\..\..\..\..\..\uCOS-III\Source/os_flag.c ****         case OS_OPT_PEND_FLAG_SET_ANY | OS_OPT_PEND_FLAG_CONSUME | OS_OPT_PEND_NON_BLOCKING:
 366:..\..\..\..\..\..\uCOS-III\Source/os_flag.c ****              break;
 440              		.loc 1 366 0
 441 00b2 09E0     		b	.L86
 442              	.L36:
 349:..\..\..\..\..\..\uCOS-III\Source/os_flag.c ****         case OS_OPT_PEND_FLAG_CLR_ALL:
 443              		.loc 1 349 0
 444 00b4 48F20812 		movw	r2, #33032
 445 00b8 9342     		cmp	r3, r2
 446 00ba 05D0     		beq	.L86
 447              	.L31:
 367:..\..\..\..\..\..\uCOS-III\Source/os_flag.c **** 
 368:..\..\..\..\..\..\uCOS-III\Source/os_flag.c ****         default:
 369:..\..\..\..\..\..\uCOS-III\Source/os_flag.c ****             *p_err = OS_ERR_OPT_INVALID;
 448              		.loc 1 369 0
 449 00bc FB6C     		ldr	r3, [r7, #76]
 450 00be 45F62562 		movw	r2, #24101
 451 00c2 1A80     		strh	r2, [r3]	@ movhi
 370:..\..\..\..\..\..\uCOS-III\Source/os_flag.c ****              return ((OS_OBJ_QTY)0);
 452              		.loc 1 370 0
 453 00c4 0023     		movs	r3, #0
 454 00c6 1CE2     		b	.L85
 455              	.L86:
 366:..\..\..\..\..\..\uCOS-III\Source/os_flag.c **** 
 456              		.loc 1 366 0
 457 00c8 00BF     		nop
 371:..\..\..\..\..\..\uCOS-III\Source/os_flag.c ****     }
 372:..\..\..\..\..\..\uCOS-III\Source/os_flag.c **** #endif
 373:..\..\..\..\..\..\uCOS-III\Source/os_flag.c **** 
 374:..\..\..\..\..\..\uCOS-III\Source/os_flag.c **** #if OS_CFG_OBJ_TYPE_CHK_EN > 0u
 375:..\..\..\..\..\..\uCOS-III\Source/os_flag.c ****     if (p_grp->Type != OS_OBJ_TYPE_FLAG) {                  /* Validate that we are pointing at an 
 376:..\..\..\..\..\..\uCOS-III\Source/os_flag.c ****        *p_err = OS_ERR_OBJ_TYPE;
 377:..\..\..\..\..\..\uCOS-III\Source/os_flag.c ****         return ((OS_FLAGS)0);
 378:..\..\..\..\..\..\uCOS-III\Source/os_flag.c ****     }
 379:..\..\..\..\..\..\uCOS-III\Source/os_flag.c **** #endif
 380:..\..\..\..\..\..\uCOS-III\Source/os_flag.c **** 
 381:..\..\..\..\..\..\uCOS-III\Source/os_flag.c ****     if ((opt & OS_OPT_PEND_FLAG_CONSUME) != (OS_OPT)0) {    /* See if we need to consume the flags 
 458              		.loc 1 381 0
 459 00ca 7B88     		ldrh	r3, [r7, #2]
 460 00cc 03F48073 		and	r3, r3, #256
 461 00d0 002B     		cmp	r3, #0
 462 00d2 03D0     		beq	.L38
 382:..\..\..\..\..\..\uCOS-III\Source/os_flag.c ****         consume = DEF_TRUE;
 463              		.loc 1 382 0
 464 00d4 0123     		movs	r3, #1
 465 00d6 87F83F30 		strb	r3, [r7, #63]
 466 00da 02E0     		b	.L39
 467              	.L38:
ARM GAS  C:\Users\alex\AppData\Local\Temp\cc9CNbDG.s 			page 16


 383:..\..\..\..\..\..\uCOS-III\Source/os_flag.c ****     } else {
 384:..\..\..\..\..\..\uCOS-III\Source/os_flag.c ****         consume = DEF_FALSE;
 468              		.loc 1 384 0
 469 00dc 0023     		movs	r3, #0
 470 00de 87F83F30 		strb	r3, [r7, #63]
 471              	.L39:
 385:..\..\..\..\..\..\uCOS-III\Source/os_flag.c ****     }
 386:..\..\..\..\..\..\uCOS-III\Source/os_flag.c **** 
 387:..\..\..\..\..\..\uCOS-III\Source/os_flag.c ****     if (p_ts != (CPU_TS *)0) {
 472              		.loc 1 387 0
 473 00e2 BB6C     		ldr	r3, [r7, #72]
 474 00e4 002B     		cmp	r3, #0
 475 00e6 02D0     		beq	.L40
 388:..\..\..\..\..\..\uCOS-III\Source/os_flag.c ****        *p_ts = (CPU_TS)0;                                   /* Initialize the returned timestamp   
 476              		.loc 1 388 0
 477 00e8 BB6C     		ldr	r3, [r7, #72]
 478 00ea 0022     		movs	r2, #0
 479 00ec 1A60     		str	r2, [r3]
 480              	.L40:
 389:..\..\..\..\..\..\uCOS-III\Source/os_flag.c ****     }
 390:..\..\..\..\..\..\uCOS-III\Source/os_flag.c **** 
 391:..\..\..\..\..\..\uCOS-III\Source/os_flag.c ****     mode = opt & OS_OPT_PEND_FLAG_MASK;
 481              		.loc 1 391 0
 482 00ee 7B88     		ldrh	r3, [r7, #2]	@ movhi
 483 00f0 03F00F03 		and	r3, r3, #15
 484 00f4 FB86     		strh	r3, [r7, #54]	@ movhi
 392:..\..\..\..\..\..\uCOS-III\Source/os_flag.c ****     CPU_CRITICAL_ENTER();
 485              		.loc 1 392 0
 486 00f6 FFF7FEFF 		bl	CPU_SR_Save
 487 00fa B863     		str	r0, [r7, #56]
 393:..\..\..\..\..\..\uCOS-III\Source/os_flag.c ****     switch (mode) {
 488              		.loc 1 393 0
 489 00fc FB8E     		ldrh	r3, [r7, #54]
 490 00fe 013B     		subs	r3, r3, #1
 491 0100 072B     		cmp	r3, #7
 492 0102 00F25881 		bhi	.L41
 493 0106 01A2     		adr	r2, .L43
 494 0108 52F823F0 		ldr	pc, [r2, r3, lsl #2]
 495              		.p2align 2
 496              	.L43:
 497 010c 79020000 		.word	.L42+1
 498 0110 19030000 		.word	.L44+1
 499 0114 B7030000 		.word	.L41+1
 500 0118 2D010000 		.word	.L45+1
 501 011c B7030000 		.word	.L41+1
 502 0120 B7030000 		.word	.L41+1
 503 0124 B7030000 		.word	.L41+1
 504 0128 CD010000 		.word	.L46+1
 505              		.p2align 1
 506              	.L45:
 394:..\..\..\..\..\..\uCOS-III\Source/os_flag.c ****         case OS_OPT_PEND_FLAG_SET_ALL:                      /* See if all required flags are set   
 395:..\..\..\..\..\..\uCOS-III\Source/os_flag.c ****              flags_rdy = (OS_FLAGS)(p_grp->Flags & flags);  /* Extract only the bits we want       
 507              		.loc 1 395 0
 508 012c FB68     		ldr	r3, [r7, #12]
 509 012e 1A6A     		ldr	r2, [r3, #32]
 510 0130 BB68     		ldr	r3, [r7, #8]
 511 0132 1340     		ands	r3, r3, r2
ARM GAS  C:\Users\alex\AppData\Local\Temp\cc9CNbDG.s 			page 17


 512 0134 3B63     		str	r3, [r7, #48]
 396:..\..\..\..\..\..\uCOS-III\Source/os_flag.c ****              if (flags_rdy == flags) {                      /* Must match ALL the bits that we want
 513              		.loc 1 396 0
 514 0136 3A6B     		ldr	r2, [r7, #48]
 515 0138 BB68     		ldr	r3, [r7, #8]
 516 013a 9A42     		cmp	r2, r3
 517 013c 1ED1     		bne	.L47
 397:..\..\..\..\..\..\uCOS-III\Source/os_flag.c ****                  if (consume == DEF_TRUE) {                 /* See if we need to consume the flags 
 518              		.loc 1 397 0
 519 013e 97F83F30 		ldrb	r3, [r7, #63]	@ zero_extendqisi2
 520 0142 012B     		cmp	r3, #1
 521 0144 06D1     		bne	.L48
 398:..\..\..\..\..\..\uCOS-III\Source/os_flag.c ****                      p_grp->Flags &= ~flags_rdy;            /* Clear ONLY the flags that we wanted 
 522              		.loc 1 398 0
 523 0146 FB68     		ldr	r3, [r7, #12]
 524 0148 1A6A     		ldr	r2, [r3, #32]
 525 014a 3B6B     		ldr	r3, [r7, #48]
 526 014c DB43     		mvns	r3, r3
 527 014e 1A40     		ands	r2, r2, r3
 528 0150 FB68     		ldr	r3, [r7, #12]
 529 0152 1A62     		str	r2, [r3, #32]
 530              	.L48:
 399:..\..\..\..\..\..\uCOS-III\Source/os_flag.c ****                  }
 400:..\..\..\..\..\..\uCOS-III\Source/os_flag.c ****                  OSTCBCurPtr->FlagsRdy = flags_rdy;         /* Save flags that were ready          
 531              		.loc 1 400 0
 532 0154 464B     		ldr	r3, .L87+4
 533 0156 1B68     		ldr	r3, [r3]
 534 0158 3A6B     		ldr	r2, [r7, #48]
 535 015a C3F88420 		str	r2, [r3, #132]
 401:..\..\..\..\..\..\uCOS-III\Source/os_flag.c ****                  if (p_ts != (CPU_TS *)0) {
 536              		.loc 1 401 0
 537 015e BB6C     		ldr	r3, [r7, #72]
 538 0160 002B     		cmp	r3, #0
 539 0162 03D0     		beq	.L49
 402:..\..\..\..\..\..\uCOS-III\Source/os_flag.c ****                     *p_ts  = p_grp->TS;
 540              		.loc 1 402 0
 541 0164 FB68     		ldr	r3, [r7, #12]
 542 0166 5A6A     		ldr	r2, [r3, #36]
 543 0168 BB6C     		ldr	r3, [r7, #72]
 544 016a 1A60     		str	r2, [r3]
 545              	.L49:
 403:..\..\..\..\..\..\uCOS-III\Source/os_flag.c ****                  }
 404:..\..\..\..\..\..\uCOS-III\Source/os_flag.c ****                  CPU_CRITICAL_EXIT();                       /* Yes, condition met, return to caller
 546              		.loc 1 404 0
 547 016c B86B     		ldr	r0, [r7, #56]
 548 016e FFF7FEFF 		bl	CPU_SR_Restore
 405:..\..\..\..\..\..\uCOS-III\Source/os_flag.c ****                 *p_err = OS_ERR_NONE;
 549              		.loc 1 405 0
 550 0172 FB6C     		ldr	r3, [r7, #76]
 551 0174 0022     		movs	r2, #0
 552 0176 1A80     		strh	r2, [r3]	@ movhi
 406:..\..\..\..\..\..\uCOS-III\Source/os_flag.c ****                  return (flags_rdy);
 553              		.loc 1 406 0
 554 0178 3B6B     		ldr	r3, [r7, #48]
 555 017a C2E1     		b	.L85
 556              	.L47:
 407:..\..\..\..\..\..\uCOS-III\Source/os_flag.c ****              } else {                                       /* Block task until events occur or tim
ARM GAS  C:\Users\alex\AppData\Local\Temp\cc9CNbDG.s 			page 18


 408:..\..\..\..\..\..\uCOS-III\Source/os_flag.c ****                  if ((opt & OS_OPT_PEND_NON_BLOCKING) != (OS_OPT)0) {
 557              		.loc 1 408 0
 558 017c B7F90230 		ldrsh	r3, [r7, #2]
 559 0180 002B     		cmp	r3, #0
 560 0182 08DA     		bge	.L50
 409:..\..\..\..\..\..\uCOS-III\Source/os_flag.c ****                      CPU_CRITICAL_EXIT();
 561              		.loc 1 409 0
 562 0184 B86B     		ldr	r0, [r7, #56]
 563 0186 FFF7FEFF 		bl	CPU_SR_Restore
 410:..\..\..\..\..\..\uCOS-III\Source/os_flag.c ****                     *p_err = OS_ERR_PEND_WOULD_BLOCK;       /* Specified non-blocking so task would
 564              		.loc 1 410 0
 565 018a FB6C     		ldr	r3, [r7, #76]
 566 018c 46F2B012 		movw	r2, #25008
 567 0190 1A80     		strh	r2, [r3]	@ movhi
 411:..\..\..\..\..\..\uCOS-III\Source/os_flag.c ****                      return ((OS_FLAGS)0);
 568              		.loc 1 411 0
 569 0192 0023     		movs	r3, #0
 570 0194 B5E1     		b	.L85
 571              	.L50:
 412:..\..\..\..\..\..\uCOS-III\Source/os_flag.c ****                  } else {                                   /* Specified blocking so check is sched
 413:..\..\..\..\..\..\uCOS-III\Source/os_flag.c ****                      if (OSSchedLockNestingCtr > (OS_NESTING_CTR)0) { /* See if called with schedul
 572              		.loc 1 413 0
 573 0196 374B     		ldr	r3, .L87+8
 574 0198 1B78     		ldrb	r3, [r3]	@ zero_extendqisi2
 575 019a 002B     		cmp	r3, #0
 576 019c 08D0     		beq	.L51
 414:..\..\..\..\..\..\uCOS-III\Source/os_flag.c ****                          CPU_CRITICAL_EXIT();
 577              		.loc 1 414 0
 578 019e B86B     		ldr	r0, [r7, #56]
 579 01a0 FFF7FEFF 		bl	CPU_SR_Restore
 415:..\..\..\..\..\..\uCOS-III\Source/os_flag.c ****                         *p_err = OS_ERR_SCHED_LOCKED;                 /* ... can't PEND when locked
 580              		.loc 1 415 0
 581 01a4 FB6C     		ldr	r3, [r7, #76]
 582 01a6 46F66352 		movw	r2, #28003
 583 01aa 1A80     		strh	r2, [r3]	@ movhi
 416:..\..\..\..\..\..\uCOS-III\Source/os_flag.c ****                          return ((OS_FLAGS)0);
 584              		.loc 1 416 0
 585 01ac 0023     		movs	r3, #0
 586 01ae A8E1     		b	.L85
 587              	.L51:
 417:..\..\..\..\..\..\uCOS-III\Source/os_flag.c ****                      }
 418:..\..\..\..\..\..\uCOS-III\Source/os_flag.c ****                  }
 419:..\..\..\..\..\..\uCOS-III\Source/os_flag.c ****                                                             /* Lock the scheduler/re-enable interru
 420:..\..\..\..\..\..\uCOS-III\Source/os_flag.c ****                  OS_CRITICAL_ENTER_CPU_EXIT();              
 421:..\..\..\..\..\..\uCOS-III\Source/os_flag.c ****                  OS_FlagBlock(&pend_data,
 588              		.loc 1 421 0
 589 01b0 7A88     		ldrh	r2, [r7, #2]
 590 01b2 07F11000 		add	r0, r7, #16
 591 01b6 7B68     		ldr	r3, [r7, #4]
 592 01b8 0093     		str	r3, [sp]
 593 01ba 1346     		mov	r3, r2
 594 01bc BA68     		ldr	r2, [r7, #8]
 595 01be F968     		ldr	r1, [r7, #12]
 596 01c0 FFF7FEFF 		bl	OS_FlagBlock
 422:..\..\..\..\..\..\uCOS-III\Source/os_flag.c ****                               p_grp,
 423:..\..\..\..\..\..\uCOS-III\Source/os_flag.c ****                               flags,
 424:..\..\..\..\..\..\uCOS-III\Source/os_flag.c ****                               opt,
ARM GAS  C:\Users\alex\AppData\Local\Temp\cc9CNbDG.s 			page 19


 425:..\..\..\..\..\..\uCOS-III\Source/os_flag.c ****                               timeout);
 426:..\..\..\..\..\..\uCOS-III\Source/os_flag.c ****                  OS_CRITICAL_EXIT_NO_SCHED();
 597              		.loc 1 426 0
 598 01c4 B86B     		ldr	r0, [r7, #56]
 599 01c6 FFF7FEFF 		bl	CPU_SR_Restore
 427:..\..\..\..\..\..\uCOS-III\Source/os_flag.c ****              }
 428:..\..\..\..\..\..\uCOS-III\Source/os_flag.c ****              break;
 600              		.loc 1 428 0
 601 01ca FDE0     		b	.L52
 602              	.L46:
 429:..\..\..\..\..\..\uCOS-III\Source/os_flag.c **** 
 430:..\..\..\..\..\..\uCOS-III\Source/os_flag.c ****         case OS_OPT_PEND_FLAG_SET_ANY:
 431:..\..\..\..\..\..\uCOS-III\Source/os_flag.c ****              flags_rdy = (OS_FLAGS)(p_grp->Flags & flags);  /* Extract only the bits we want       
 603              		.loc 1 431 0
 604 01cc FB68     		ldr	r3, [r7, #12]
 605 01ce 1A6A     		ldr	r2, [r3, #32]
 606 01d0 BB68     		ldr	r3, [r7, #8]
 607 01d2 1340     		ands	r3, r3, r2
 608 01d4 3B63     		str	r3, [r7, #48]
 432:..\..\..\..\..\..\uCOS-III\Source/os_flag.c ****              if (flags_rdy != (OS_FLAGS)0) {                /* See if any flag set                 
 609              		.loc 1 432 0
 610 01d6 3B6B     		ldr	r3, [r7, #48]
 611 01d8 002B     		cmp	r3, #0
 612 01da 1ED0     		beq	.L53
 433:..\..\..\..\..\..\uCOS-III\Source/os_flag.c ****                  if (consume == DEF_TRUE) {                 /* See if we need to consume the flags 
 613              		.loc 1 433 0
 614 01dc 97F83F30 		ldrb	r3, [r7, #63]	@ zero_extendqisi2
 615 01e0 012B     		cmp	r3, #1
 616 01e2 06D1     		bne	.L54
 434:..\..\..\..\..\..\uCOS-III\Source/os_flag.c ****                      p_grp->Flags &= ~flags_rdy;            /* Clear ONLY the flags that we got    
 617              		.loc 1 434 0
 618 01e4 FB68     		ldr	r3, [r7, #12]
 619 01e6 1A6A     		ldr	r2, [r3, #32]
 620 01e8 3B6B     		ldr	r3, [r7, #48]
 621 01ea DB43     		mvns	r3, r3
 622 01ec 1A40     		ands	r2, r2, r3
 623 01ee FB68     		ldr	r3, [r7, #12]
 624 01f0 1A62     		str	r2, [r3, #32]
 625              	.L54:
 435:..\..\..\..\..\..\uCOS-III\Source/os_flag.c ****                  }
 436:..\..\..\..\..\..\uCOS-III\Source/os_flag.c ****                  OSTCBCurPtr->FlagsRdy = flags_rdy;         /* Save flags that were ready          
 626              		.loc 1 436 0
 627 01f2 1F4B     		ldr	r3, .L87+4
 628 01f4 1B68     		ldr	r3, [r3]
 629 01f6 3A6B     		ldr	r2, [r7, #48]
 630 01f8 C3F88420 		str	r2, [r3, #132]
 437:..\..\..\..\..\..\uCOS-III\Source/os_flag.c ****                  if (p_ts != (CPU_TS *)0) {
 631              		.loc 1 437 0
 632 01fc BB6C     		ldr	r3, [r7, #72]
 633 01fe 002B     		cmp	r3, #0
 634 0200 03D0     		beq	.L55
 438:..\..\..\..\..\..\uCOS-III\Source/os_flag.c ****                     *p_ts  = p_grp->TS;
 635              		.loc 1 438 0
 636 0202 FB68     		ldr	r3, [r7, #12]
 637 0204 5A6A     		ldr	r2, [r3, #36]
 638 0206 BB6C     		ldr	r3, [r7, #72]
 639 0208 1A60     		str	r2, [r3]
ARM GAS  C:\Users\alex\AppData\Local\Temp\cc9CNbDG.s 			page 20


 640              	.L55:
 439:..\..\..\..\..\..\uCOS-III\Source/os_flag.c ****                  }
 440:..\..\..\..\..\..\uCOS-III\Source/os_flag.c ****                  CPU_CRITICAL_EXIT();                       /* Yes, condition met, return to caller
 641              		.loc 1 440 0
 642 020a B86B     		ldr	r0, [r7, #56]
 643 020c FFF7FEFF 		bl	CPU_SR_Restore
 441:..\..\..\..\..\..\uCOS-III\Source/os_flag.c ****                 *p_err = OS_ERR_NONE;
 644              		.loc 1 441 0
 645 0210 FB6C     		ldr	r3, [r7, #76]
 646 0212 0022     		movs	r2, #0
 647 0214 1A80     		strh	r2, [r3]	@ movhi
 442:..\..\..\..\..\..\uCOS-III\Source/os_flag.c ****                  return (flags_rdy);
 648              		.loc 1 442 0
 649 0216 3B6B     		ldr	r3, [r7, #48]
 650 0218 73E1     		b	.L85
 651              	.L53:
 443:..\..\..\..\..\..\uCOS-III\Source/os_flag.c ****              } else {                                       /* Block task until events occur or tim
 444:..\..\..\..\..\..\uCOS-III\Source/os_flag.c ****                  if ((opt & OS_OPT_PEND_NON_BLOCKING) != (OS_OPT)0) {
 652              		.loc 1 444 0
 653 021a B7F90230 		ldrsh	r3, [r7, #2]
 654 021e 002B     		cmp	r3, #0
 655 0220 08DA     		bge	.L56
 445:..\..\..\..\..\..\uCOS-III\Source/os_flag.c ****                      CPU_CRITICAL_EXIT();
 656              		.loc 1 445 0
 657 0222 B86B     		ldr	r0, [r7, #56]
 658 0224 FFF7FEFF 		bl	CPU_SR_Restore
 446:..\..\..\..\..\..\uCOS-III\Source/os_flag.c ****                     *p_err = OS_ERR_PEND_WOULD_BLOCK;       /* Specified non-blocking so task would
 659              		.loc 1 446 0
 660 0228 FB6C     		ldr	r3, [r7, #76]
 661 022a 46F2B012 		movw	r2, #25008
 662 022e 1A80     		strh	r2, [r3]	@ movhi
 447:..\..\..\..\..\..\uCOS-III\Source/os_flag.c ****                      return ((OS_FLAGS)0);
 663              		.loc 1 447 0
 664 0230 0023     		movs	r3, #0
 665 0232 66E1     		b	.L85
 666              	.L56:
 448:..\..\..\..\..\..\uCOS-III\Source/os_flag.c ****                  } else {                                   /* Specified blocking so check is sched
 449:..\..\..\..\..\..\uCOS-III\Source/os_flag.c ****                      if (OSSchedLockNestingCtr > (OS_NESTING_CTR)0) { /* See if called with schedul
 667              		.loc 1 449 0
 668 0234 0F4B     		ldr	r3, .L87+8
 669 0236 1B78     		ldrb	r3, [r3]	@ zero_extendqisi2
 670 0238 002B     		cmp	r3, #0
 671 023a 08D0     		beq	.L57
 450:..\..\..\..\..\..\uCOS-III\Source/os_flag.c ****                          CPU_CRITICAL_EXIT();
 672              		.loc 1 450 0
 673 023c B86B     		ldr	r0, [r7, #56]
 674 023e FFF7FEFF 		bl	CPU_SR_Restore
 451:..\..\..\..\..\..\uCOS-III\Source/os_flag.c ****                         *p_err = OS_ERR_SCHED_LOCKED;                 /* ... can't PEND when locked
 675              		.loc 1 451 0
 676 0242 FB6C     		ldr	r3, [r7, #76]
 677 0244 46F66352 		movw	r2, #28003
 678 0248 1A80     		strh	r2, [r3]	@ movhi
 452:..\..\..\..\..\..\uCOS-III\Source/os_flag.c ****                          return ((OS_FLAGS)0);
 679              		.loc 1 452 0
 680 024a 0023     		movs	r3, #0
 681 024c 59E1     		b	.L85
 682              	.L57:
ARM GAS  C:\Users\alex\AppData\Local\Temp\cc9CNbDG.s 			page 21


 453:..\..\..\..\..\..\uCOS-III\Source/os_flag.c ****                      }
 454:..\..\..\..\..\..\uCOS-III\Source/os_flag.c ****                  }
 455:..\..\..\..\..\..\uCOS-III\Source/os_flag.c ****                                                             /* Lock the scheduler/re-enable interru
 456:..\..\..\..\..\..\uCOS-III\Source/os_flag.c ****                  OS_CRITICAL_ENTER_CPU_EXIT();              
 457:..\..\..\..\..\..\uCOS-III\Source/os_flag.c ****                  OS_FlagBlock(&pend_data,
 683              		.loc 1 457 0
 684 024e 7A88     		ldrh	r2, [r7, #2]
 685 0250 07F11000 		add	r0, r7, #16
 686 0254 7B68     		ldr	r3, [r7, #4]
 687 0256 0093     		str	r3, [sp]
 688 0258 1346     		mov	r3, r2
 689 025a BA68     		ldr	r2, [r7, #8]
 690 025c F968     		ldr	r1, [r7, #12]
 691 025e FFF7FEFF 		bl	OS_FlagBlock
 458:..\..\..\..\..\..\uCOS-III\Source/os_flag.c ****                               p_grp,
 459:..\..\..\..\..\..\uCOS-III\Source/os_flag.c ****                               flags,
 460:..\..\..\..\..\..\uCOS-III\Source/os_flag.c ****                               opt,
 461:..\..\..\..\..\..\uCOS-III\Source/os_flag.c ****                               timeout);
 462:..\..\..\..\..\..\uCOS-III\Source/os_flag.c ****                  OS_CRITICAL_EXIT_NO_SCHED();
 692              		.loc 1 462 0
 693 0262 B86B     		ldr	r0, [r7, #56]
 694 0264 FFF7FEFF 		bl	CPU_SR_Restore
 463:..\..\..\..\..\..\uCOS-III\Source/os_flag.c ****              }
 464:..\..\..\..\..\..\uCOS-III\Source/os_flag.c ****              break;
 695              		.loc 1 464 0
 696 0268 AEE0     		b	.L52
 697              	.L88:
 698 026a 00BF     		.align	2
 699              	.L87:
 700 026c 00000000 		.word	OSIntNestingCtr
 701 0270 00000000 		.word	OSTCBCurPtr
 702 0274 00000000 		.word	OSSchedLockNestingCtr
 703              	.L42:
 465:..\..\..\..\..\..\uCOS-III\Source/os_flag.c **** 
 466:..\..\..\..\..\..\uCOS-III\Source/os_flag.c **** #if OS_CFG_FLAG_MODE_CLR_EN > 0u
 467:..\..\..\..\..\..\uCOS-III\Source/os_flag.c ****         case OS_OPT_PEND_FLAG_CLR_ALL:                      /* See if all required flags are cleare
 468:..\..\..\..\..\..\uCOS-III\Source/os_flag.c ****              flags_rdy = (OS_FLAGS)(~p_grp->Flags & flags); /* Extract only the bits we want       
 704              		.loc 1 468 0
 705 0278 FB68     		ldr	r3, [r7, #12]
 706 027a 1B6A     		ldr	r3, [r3, #32]
 707 027c DA43     		mvns	r2, r3
 708 027e BB68     		ldr	r3, [r7, #8]
 709 0280 1340     		ands	r3, r3, r2
 710 0282 3B63     		str	r3, [r7, #48]
 469:..\..\..\..\..\..\uCOS-III\Source/os_flag.c ****              if (flags_rdy == flags) {                      /* Must match ALL the bits that we want
 711              		.loc 1 469 0
 712 0284 3A6B     		ldr	r2, [r7, #48]
 713 0286 BB68     		ldr	r3, [r7, #8]
 714 0288 9A42     		cmp	r2, r3
 715 028a 1DD1     		bne	.L58
 470:..\..\..\..\..\..\uCOS-III\Source/os_flag.c ****                  if (consume == DEF_TRUE) {                 /* See if we need to consume the flags 
 716              		.loc 1 470 0
 717 028c 97F83F30 		ldrb	r3, [r7, #63]	@ zero_extendqisi2
 718 0290 012B     		cmp	r3, #1
 719 0292 05D1     		bne	.L59
 471:..\..\..\..\..\..\uCOS-III\Source/os_flag.c ****                      p_grp->Flags |= flags_rdy;             /* Set ONLY the flags that we wanted   
 720              		.loc 1 471 0
ARM GAS  C:\Users\alex\AppData\Local\Temp\cc9CNbDG.s 			page 22


 721 0294 FB68     		ldr	r3, [r7, #12]
 722 0296 1A6A     		ldr	r2, [r3, #32]
 723 0298 3B6B     		ldr	r3, [r7, #48]
 724 029a 1A43     		orrs	r2, r2, r3
 725 029c FB68     		ldr	r3, [r7, #12]
 726 029e 1A62     		str	r2, [r3, #32]
 727              	.L59:
 472:..\..\..\..\..\..\uCOS-III\Source/os_flag.c ****                  }
 473:..\..\..\..\..\..\uCOS-III\Source/os_flag.c ****                  OSTCBCurPtr->FlagsRdy = flags_rdy;         /* Save flags that were ready          
 728              		.loc 1 473 0
 729 02a0 9A4B     		ldr	r3, .L89
 730 02a2 1B68     		ldr	r3, [r3]
 731 02a4 3A6B     		ldr	r2, [r7, #48]
 732 02a6 C3F88420 		str	r2, [r3, #132]
 474:..\..\..\..\..\..\uCOS-III\Source/os_flag.c ****                  if (p_ts != (CPU_TS *)0) {
 733              		.loc 1 474 0
 734 02aa BB6C     		ldr	r3, [r7, #72]
 735 02ac 002B     		cmp	r3, #0
 736 02ae 03D0     		beq	.L60
 475:..\..\..\..\..\..\uCOS-III\Source/os_flag.c ****                     *p_ts  = p_grp->TS;
 737              		.loc 1 475 0
 738 02b0 FB68     		ldr	r3, [r7, #12]
 739 02b2 5A6A     		ldr	r2, [r3, #36]
 740 02b4 BB6C     		ldr	r3, [r7, #72]
 741 02b6 1A60     		str	r2, [r3]
 742              	.L60:
 476:..\..\..\..\..\..\uCOS-III\Source/os_flag.c ****                  }
 477:..\..\..\..\..\..\uCOS-III\Source/os_flag.c ****                  CPU_CRITICAL_EXIT();                       /* Yes, condition met, return to caller
 743              		.loc 1 477 0
 744 02b8 B86B     		ldr	r0, [r7, #56]
 745 02ba FFF7FEFF 		bl	CPU_SR_Restore
 478:..\..\..\..\..\..\uCOS-III\Source/os_flag.c ****                 *p_err = OS_ERR_NONE;
 746              		.loc 1 478 0
 747 02be FB6C     		ldr	r3, [r7, #76]
 748 02c0 0022     		movs	r2, #0
 749 02c2 1A80     		strh	r2, [r3]	@ movhi
 479:..\..\..\..\..\..\uCOS-III\Source/os_flag.c ****                  return (flags_rdy);
 750              		.loc 1 479 0
 751 02c4 3B6B     		ldr	r3, [r7, #48]
 752 02c6 1CE1     		b	.L85
 753              	.L58:
 480:..\..\..\..\..\..\uCOS-III\Source/os_flag.c ****              } else {                                       /* Block task until events occur or tim
 481:..\..\..\..\..\..\uCOS-III\Source/os_flag.c ****                  if ((opt & OS_OPT_PEND_NON_BLOCKING) != (OS_OPT)0) {
 754              		.loc 1 481 0
 755 02c8 B7F90230 		ldrsh	r3, [r7, #2]
 756 02cc 002B     		cmp	r3, #0
 757 02ce 08DA     		bge	.L61
 482:..\..\..\..\..\..\uCOS-III\Source/os_flag.c ****                      CPU_CRITICAL_EXIT();
 758              		.loc 1 482 0
 759 02d0 B86B     		ldr	r0, [r7, #56]
 760 02d2 FFF7FEFF 		bl	CPU_SR_Restore
 483:..\..\..\..\..\..\uCOS-III\Source/os_flag.c ****                     *p_err = OS_ERR_PEND_WOULD_BLOCK;       /* Specified non-blocking so task would
 761              		.loc 1 483 0
 762 02d6 FB6C     		ldr	r3, [r7, #76]
 763 02d8 46F2B012 		movw	r2, #25008
 764 02dc 1A80     		strh	r2, [r3]	@ movhi
 484:..\..\..\..\..\..\uCOS-III\Source/os_flag.c ****                      return ((OS_FLAGS)0);
ARM GAS  C:\Users\alex\AppData\Local\Temp\cc9CNbDG.s 			page 23


 765              		.loc 1 484 0
 766 02de 0023     		movs	r3, #0
 767 02e0 0FE1     		b	.L85
 768              	.L61:
 485:..\..\..\..\..\..\uCOS-III\Source/os_flag.c ****                  } else {                                   /* Specified blocking so check is sched
 486:..\..\..\..\..\..\uCOS-III\Source/os_flag.c ****                      if (OSSchedLockNestingCtr > (OS_NESTING_CTR)0) { /* See if called with schedul
 769              		.loc 1 486 0
 770 02e2 8B4B     		ldr	r3, .L89+4
 771 02e4 1B78     		ldrb	r3, [r3]	@ zero_extendqisi2
 772 02e6 002B     		cmp	r3, #0
 773 02e8 08D0     		beq	.L62
 487:..\..\..\..\..\..\uCOS-III\Source/os_flag.c ****                          CPU_CRITICAL_EXIT();
 774              		.loc 1 487 0
 775 02ea B86B     		ldr	r0, [r7, #56]
 776 02ec FFF7FEFF 		bl	CPU_SR_Restore
 488:..\..\..\..\..\..\uCOS-III\Source/os_flag.c ****                         *p_err = OS_ERR_SCHED_LOCKED;                 /* ... can't PEND when locked
 777              		.loc 1 488 0
 778 02f0 FB6C     		ldr	r3, [r7, #76]
 779 02f2 46F66352 		movw	r2, #28003
 780 02f6 1A80     		strh	r2, [r3]	@ movhi
 489:..\..\..\..\..\..\uCOS-III\Source/os_flag.c ****                          return ((OS_FLAGS)0);
 781              		.loc 1 489 0
 782 02f8 0023     		movs	r3, #0
 783 02fa 02E1     		b	.L85
 784              	.L62:
 490:..\..\..\..\..\..\uCOS-III\Source/os_flag.c ****                      }
 491:..\..\..\..\..\..\uCOS-III\Source/os_flag.c ****                  }
 492:..\..\..\..\..\..\uCOS-III\Source/os_flag.c ****                                                             
 493:..\..\..\..\..\..\uCOS-III\Source/os_flag.c ****                  OS_CRITICAL_ENTER_CPU_EXIT();              /* Lock the scheduler/re-enable interru
 494:..\..\..\..\..\..\uCOS-III\Source/os_flag.c ****                  OS_FlagBlock(&pend_data,
 785              		.loc 1 494 0
 786 02fc 7A88     		ldrh	r2, [r7, #2]
 787 02fe 07F11000 		add	r0, r7, #16
 788 0302 7B68     		ldr	r3, [r7, #4]
 789 0304 0093     		str	r3, [sp]
 790 0306 1346     		mov	r3, r2
 791 0308 BA68     		ldr	r2, [r7, #8]
 792 030a F968     		ldr	r1, [r7, #12]
 793 030c FFF7FEFF 		bl	OS_FlagBlock
 495:..\..\..\..\..\..\uCOS-III\Source/os_flag.c ****                               p_grp,
 496:..\..\..\..\..\..\uCOS-III\Source/os_flag.c ****                               flags,
 497:..\..\..\..\..\..\uCOS-III\Source/os_flag.c ****                               opt,
 498:..\..\..\..\..\..\uCOS-III\Source/os_flag.c ****                               timeout);
 499:..\..\..\..\..\..\uCOS-III\Source/os_flag.c ****                  OS_CRITICAL_EXIT_NO_SCHED();
 794              		.loc 1 499 0
 795 0310 B86B     		ldr	r0, [r7, #56]
 796 0312 FFF7FEFF 		bl	CPU_SR_Restore
 500:..\..\..\..\..\..\uCOS-III\Source/os_flag.c ****              }
 501:..\..\..\..\..\..\uCOS-III\Source/os_flag.c ****              break;
 797              		.loc 1 501 0
 798 0316 57E0     		b	.L52
 799              	.L44:
 502:..\..\..\..\..\..\uCOS-III\Source/os_flag.c **** 
 503:..\..\..\..\..\..\uCOS-III\Source/os_flag.c ****         case OS_OPT_PEND_FLAG_CLR_ANY:
 504:..\..\..\..\..\..\uCOS-III\Source/os_flag.c ****              flags_rdy = (OS_FLAGS)(~p_grp->Flags & flags); /* Extract only the bits we want       
 800              		.loc 1 504 0
 801 0318 FB68     		ldr	r3, [r7, #12]
ARM GAS  C:\Users\alex\AppData\Local\Temp\cc9CNbDG.s 			page 24


 802 031a 1B6A     		ldr	r3, [r3, #32]
 803 031c DA43     		mvns	r2, r3
 804 031e BB68     		ldr	r3, [r7, #8]
 805 0320 1340     		ands	r3, r3, r2
 806 0322 3B63     		str	r3, [r7, #48]
 505:..\..\..\..\..\..\uCOS-III\Source/os_flag.c ****              if (flags_rdy != (OS_FLAGS)0) {                /* See if any flag cleared             
 807              		.loc 1 505 0
 808 0324 3B6B     		ldr	r3, [r7, #48]
 809 0326 002B     		cmp	r3, #0
 810 0328 1DD0     		beq	.L63
 506:..\..\..\..\..\..\uCOS-III\Source/os_flag.c ****                  if (consume == DEF_TRUE) {                 /* See if we need to consume the flags 
 811              		.loc 1 506 0
 812 032a 97F83F30 		ldrb	r3, [r7, #63]	@ zero_extendqisi2
 813 032e 012B     		cmp	r3, #1
 814 0330 05D1     		bne	.L64
 507:..\..\..\..\..\..\uCOS-III\Source/os_flag.c ****                      p_grp->Flags |= flags_rdy;             /* Set ONLY the flags that we got      
 815              		.loc 1 507 0
 816 0332 FB68     		ldr	r3, [r7, #12]
 817 0334 1A6A     		ldr	r2, [r3, #32]
 818 0336 3B6B     		ldr	r3, [r7, #48]
 819 0338 1A43     		orrs	r2, r2, r3
 820 033a FB68     		ldr	r3, [r7, #12]
 821 033c 1A62     		str	r2, [r3, #32]
 822              	.L64:
 508:..\..\..\..\..\..\uCOS-III\Source/os_flag.c ****                  }
 509:..\..\..\..\..\..\uCOS-III\Source/os_flag.c ****                  OSTCBCurPtr->FlagsRdy = flags_rdy;         /* Save flags that were ready          
 823              		.loc 1 509 0
 824 033e 734B     		ldr	r3, .L89
 825 0340 1B68     		ldr	r3, [r3]
 826 0342 3A6B     		ldr	r2, [r7, #48]
 827 0344 C3F88420 		str	r2, [r3, #132]
 510:..\..\..\..\..\..\uCOS-III\Source/os_flag.c ****                  if (p_ts != (CPU_TS *)0) {
 828              		.loc 1 510 0
 829 0348 BB6C     		ldr	r3, [r7, #72]
 830 034a 002B     		cmp	r3, #0
 831 034c 03D0     		beq	.L65
 511:..\..\..\..\..\..\uCOS-III\Source/os_flag.c ****                     *p_ts  = p_grp->TS;
 832              		.loc 1 511 0
 833 034e FB68     		ldr	r3, [r7, #12]
 834 0350 5A6A     		ldr	r2, [r3, #36]
 835 0352 BB6C     		ldr	r3, [r7, #72]
 836 0354 1A60     		str	r2, [r3]
 837              	.L65:
 512:..\..\..\..\..\..\uCOS-III\Source/os_flag.c ****                  }
 513:..\..\..\..\..\..\uCOS-III\Source/os_flag.c ****                  CPU_CRITICAL_EXIT();                       /* Yes, condition met, return to caller
 838              		.loc 1 513 0
 839 0356 B86B     		ldr	r0, [r7, #56]
 840 0358 FFF7FEFF 		bl	CPU_SR_Restore
 514:..\..\..\..\..\..\uCOS-III\Source/os_flag.c ****                 *p_err = OS_ERR_NONE;
 841              		.loc 1 514 0
 842 035c FB6C     		ldr	r3, [r7, #76]
 843 035e 0022     		movs	r2, #0
 844 0360 1A80     		strh	r2, [r3]	@ movhi
 515:..\..\..\..\..\..\uCOS-III\Source/os_flag.c ****                  return (flags_rdy);
 845              		.loc 1 515 0
 846 0362 3B6B     		ldr	r3, [r7, #48]
 847 0364 CDE0     		b	.L85
ARM GAS  C:\Users\alex\AppData\Local\Temp\cc9CNbDG.s 			page 25


 848              	.L63:
 516:..\..\..\..\..\..\uCOS-III\Source/os_flag.c ****              } else {                                       /* Block task until events occur or tim
 517:..\..\..\..\..\..\uCOS-III\Source/os_flag.c ****                  if ((opt & OS_OPT_PEND_NON_BLOCKING) != (OS_OPT)0) {
 849              		.loc 1 517 0
 850 0366 B7F90230 		ldrsh	r3, [r7, #2]
 851 036a 002B     		cmp	r3, #0
 852 036c 08DA     		bge	.L66
 518:..\..\..\..\..\..\uCOS-III\Source/os_flag.c ****                      CPU_CRITICAL_EXIT();
 853              		.loc 1 518 0
 854 036e B86B     		ldr	r0, [r7, #56]
 855 0370 FFF7FEFF 		bl	CPU_SR_Restore
 519:..\..\..\..\..\..\uCOS-III\Source/os_flag.c ****                     *p_err = OS_ERR_PEND_WOULD_BLOCK;       /* Specified non-blocking so task would
 856              		.loc 1 519 0
 857 0374 FB6C     		ldr	r3, [r7, #76]
 858 0376 46F2B012 		movw	r2, #25008
 859 037a 1A80     		strh	r2, [r3]	@ movhi
 520:..\..\..\..\..\..\uCOS-III\Source/os_flag.c ****                      return ((OS_FLAGS)0);
 860              		.loc 1 520 0
 861 037c 0023     		movs	r3, #0
 862 037e C0E0     		b	.L85
 863              	.L66:
 521:..\..\..\..\..\..\uCOS-III\Source/os_flag.c ****                  } else {                                   /* Specified blocking so check is sched
 522:..\..\..\..\..\..\uCOS-III\Source/os_flag.c ****                      if (OSSchedLockNestingCtr > (OS_NESTING_CTR)0) { /* See if called with schedul
 864              		.loc 1 522 0
 865 0380 634B     		ldr	r3, .L89+4
 866 0382 1B78     		ldrb	r3, [r3]	@ zero_extendqisi2
 867 0384 002B     		cmp	r3, #0
 868 0386 08D0     		beq	.L67
 523:..\..\..\..\..\..\uCOS-III\Source/os_flag.c ****                          CPU_CRITICAL_EXIT();
 869              		.loc 1 523 0
 870 0388 B86B     		ldr	r0, [r7, #56]
 871 038a FFF7FEFF 		bl	CPU_SR_Restore
 524:..\..\..\..\..\..\uCOS-III\Source/os_flag.c ****                         *p_err = OS_ERR_SCHED_LOCKED;                 /* ... can't PEND when locked
 872              		.loc 1 524 0
 873 038e FB6C     		ldr	r3, [r7, #76]
 874 0390 46F66352 		movw	r2, #28003
 875 0394 1A80     		strh	r2, [r3]	@ movhi
 525:..\..\..\..\..\..\uCOS-III\Source/os_flag.c ****                          return ((OS_FLAGS)0);
 876              		.loc 1 525 0
 877 0396 0023     		movs	r3, #0
 878 0398 B3E0     		b	.L85
 879              	.L67:
 526:..\..\..\..\..\..\uCOS-III\Source/os_flag.c ****                      }
 527:..\..\..\..\..\..\uCOS-III\Source/os_flag.c ****                  }
 528:..\..\..\..\..\..\uCOS-III\Source/os_flag.c ****                                                             
 529:..\..\..\..\..\..\uCOS-III\Source/os_flag.c ****                  OS_CRITICAL_ENTER_CPU_EXIT();              /* Lock the scheduler/re-enable interru
 530:..\..\..\..\..\..\uCOS-III\Source/os_flag.c ****                  OS_FlagBlock(&pend_data,              
 880              		.loc 1 530 0
 881 039a 7A88     		ldrh	r2, [r7, #2]
 882 039c 07F11000 		add	r0, r7, #16
 883 03a0 7B68     		ldr	r3, [r7, #4]
 884 03a2 0093     		str	r3, [sp]
 885 03a4 1346     		mov	r3, r2
 886 03a6 BA68     		ldr	r2, [r7, #8]
 887 03a8 F968     		ldr	r1, [r7, #12]
 888 03aa FFF7FEFF 		bl	OS_FlagBlock
 531:..\..\..\..\..\..\uCOS-III\Source/os_flag.c ****                               p_grp,
ARM GAS  C:\Users\alex\AppData\Local\Temp\cc9CNbDG.s 			page 26


 532:..\..\..\..\..\..\uCOS-III\Source/os_flag.c ****                               flags,
 533:..\..\..\..\..\..\uCOS-III\Source/os_flag.c ****                               opt,
 534:..\..\..\..\..\..\uCOS-III\Source/os_flag.c ****                               timeout);
 535:..\..\..\..\..\..\uCOS-III\Source/os_flag.c ****                  OS_CRITICAL_EXIT_NO_SCHED();
 889              		.loc 1 535 0
 890 03ae B86B     		ldr	r0, [r7, #56]
 891 03b0 FFF7FEFF 		bl	CPU_SR_Restore
 536:..\..\..\..\..\..\uCOS-III\Source/os_flag.c ****              }
 537:..\..\..\..\..\..\uCOS-III\Source/os_flag.c ****              break;
 892              		.loc 1 537 0
 893 03b4 08E0     		b	.L52
 894              	.L41:
 538:..\..\..\..\..\..\uCOS-III\Source/os_flag.c **** #endif
 539:..\..\..\..\..\..\uCOS-III\Source/os_flag.c **** 
 540:..\..\..\..\..\..\uCOS-III\Source/os_flag.c ****         default:
 541:..\..\..\..\..\..\uCOS-III\Source/os_flag.c ****              CPU_CRITICAL_EXIT();
 895              		.loc 1 541 0
 896 03b6 B86B     		ldr	r0, [r7, #56]
 897 03b8 FFF7FEFF 		bl	CPU_SR_Restore
 542:..\..\..\..\..\..\uCOS-III\Source/os_flag.c ****             *p_err = OS_ERR_OPT_INVALID;
 898              		.loc 1 542 0
 899 03bc FB6C     		ldr	r3, [r7, #76]
 900 03be 45F62562 		movw	r2, #24101
 901 03c2 1A80     		strh	r2, [r3]	@ movhi
 543:..\..\..\..\..\..\uCOS-III\Source/os_flag.c ****              return ((OS_FLAGS)0);
 902              		.loc 1 543 0
 903 03c4 0023     		movs	r3, #0
 904 03c6 9CE0     		b	.L85
 905              	.L52:
 544:..\..\..\..\..\..\uCOS-III\Source/os_flag.c ****     }
 545:..\..\..\..\..\..\uCOS-III\Source/os_flag.c **** 
 546:..\..\..\..\..\..\uCOS-III\Source/os_flag.c ****     OSSched();                                              /* Find next HPT ready to run          
 906              		.loc 1 546 0
 907 03c8 FFF7FEFF 		bl	OSSched
 547:..\..\..\..\..\..\uCOS-III\Source/os_flag.c **** 
 548:..\..\..\..\..\..\uCOS-III\Source/os_flag.c ****     CPU_CRITICAL_ENTER();
 908              		.loc 1 548 0
 909 03cc FFF7FEFF 		bl	CPU_SR_Save
 910 03d0 B863     		str	r0, [r7, #56]
 549:..\..\..\..\..\..\uCOS-III\Source/os_flag.c ****     switch (OSTCBCurPtr->PendStatus) {
 911              		.loc 1 549 0
 912 03d2 4E4B     		ldr	r3, .L89
 913 03d4 1B68     		ldr	r3, [r3]
 914 03d6 93F83530 		ldrb	r3, [r3, #53]	@ zero_extendqisi2
 915 03da 032B     		cmp	r3, #3
 916 03dc 44D8     		bhi	.L68
 917 03de 01A2     		adr	r2, .L70
 918 03e0 52F823F0 		ldr	pc, [r2, r3, lsl #2]
 919              		.p2align 2
 920              	.L70:
 921 03e4 F5030000 		.word	.L69+1
 922 03e8 0D040000 		.word	.L71+1
 923 03ec 49040000 		.word	.L72+1
 924 03f0 2D040000 		.word	.L73+1
 925              		.p2align 1
 926              	.L69:
 550:..\..\..\..\..\..\uCOS-III\Source/os_flag.c ****         case OS_STATUS_PEND_OK:                             /* We got the vent flags               
ARM GAS  C:\Users\alex\AppData\Local\Temp\cc9CNbDG.s 			page 27


 551:..\..\..\..\..\..\uCOS-III\Source/os_flag.c ****              if (p_ts != (CPU_TS *)0) {
 927              		.loc 1 551 0
 928 03f4 BB6C     		ldr	r3, [r7, #72]
 929 03f6 002B     		cmp	r3, #0
 930 03f8 04D0     		beq	.L74
 552:..\..\..\..\..\..\uCOS-III\Source/os_flag.c ****                 *p_ts  = OSTCBCurPtr->TS;
 931              		.loc 1 552 0
 932 03fa 444B     		ldr	r3, .L89
 933 03fc 1B68     		ldr	r3, [r3]
 934 03fe 1A6C     		ldr	r2, [r3, #64]
 935 0400 BB6C     		ldr	r3, [r7, #72]
 936 0402 1A60     		str	r2, [r3]
 937              	.L74:
 553:..\..\..\..\..\..\uCOS-III\Source/os_flag.c ****              }
 554:..\..\..\..\..\..\uCOS-III\Source/os_flag.c ****             *p_err = OS_ERR_NONE;
 938              		.loc 1 554 0
 939 0404 FB6C     		ldr	r3, [r7, #76]
 940 0406 0022     		movs	r2, #0
 941 0408 1A80     		strh	r2, [r3]	@ movhi
 555:..\..\..\..\..\..\uCOS-III\Source/os_flag.c ****              break;
 942              		.loc 1 555 0
 943 040a 35E0     		b	.L75
 944              	.L71:
 556:..\..\..\..\..\..\uCOS-III\Source/os_flag.c **** 
 557:..\..\..\..\..\..\uCOS-III\Source/os_flag.c ****         case OS_STATUS_PEND_ABORT:                          /* Indicate that we aborted            
 558:..\..\..\..\..\..\uCOS-III\Source/os_flag.c ****              if (p_ts != (CPU_TS *)0) {
 945              		.loc 1 558 0
 946 040c BB6C     		ldr	r3, [r7, #72]
 947 040e 002B     		cmp	r3, #0
 948 0410 04D0     		beq	.L76
 559:..\..\..\..\..\..\uCOS-III\Source/os_flag.c ****                 *p_ts  = OSTCBCurPtr->TS;
 949              		.loc 1 559 0
 950 0412 3E4B     		ldr	r3, .L89
 951 0414 1B68     		ldr	r3, [r3]
 952 0416 1A6C     		ldr	r2, [r3, #64]
 953 0418 BB6C     		ldr	r3, [r7, #72]
 954 041a 1A60     		str	r2, [r3]
 955              	.L76:
 560:..\..\..\..\..\..\uCOS-III\Source/os_flag.c ****              }
 561:..\..\..\..\..\..\uCOS-III\Source/os_flag.c ****              CPU_CRITICAL_EXIT();
 956              		.loc 1 561 0
 957 041c B86B     		ldr	r0, [r7, #56]
 958 041e FFF7FEFF 		bl	CPU_SR_Restore
 562:..\..\..\..\..\..\uCOS-III\Source/os_flag.c ****             *p_err = OS_ERR_PEND_ABORT;
 959              		.loc 1 562 0
 960 0422 FB6C     		ldr	r3, [r7, #76]
 961 0424 46F2A912 		movw	r2, #25001
 962 0428 1A80     		strh	r2, [r3]	@ movhi
 563:..\..\..\..\..\..\uCOS-III\Source/os_flag.c ****              break;
 963              		.loc 1 563 0
 964 042a 25E0     		b	.L75
 965              	.L73:
 564:..\..\..\..\..\..\uCOS-III\Source/os_flag.c **** 
 565:..\..\..\..\..\..\uCOS-III\Source/os_flag.c ****         case OS_STATUS_PEND_TIMEOUT:                        /* Indicate that we didn't get semaphor
 566:..\..\..\..\..\..\uCOS-III\Source/os_flag.c ****              if (p_ts != (CPU_TS *)0) {
 966              		.loc 1 566 0
 967 042c BB6C     		ldr	r3, [r7, #72]
ARM GAS  C:\Users\alex\AppData\Local\Temp\cc9CNbDG.s 			page 28


 968 042e 002B     		cmp	r3, #0
 969 0430 02D0     		beq	.L77
 567:..\..\..\..\..\..\uCOS-III\Source/os_flag.c ****                 *p_ts  = (CPU_TS  )0;
 970              		.loc 1 567 0
 971 0432 BB6C     		ldr	r3, [r7, #72]
 972 0434 0022     		movs	r2, #0
 973 0436 1A60     		str	r2, [r3]
 974              	.L77:
 568:..\..\..\..\..\..\uCOS-III\Source/os_flag.c ****              }
 569:..\..\..\..\..\..\uCOS-III\Source/os_flag.c ****              CPU_CRITICAL_EXIT();
 975              		.loc 1 569 0
 976 0438 B86B     		ldr	r0, [r7, #56]
 977 043a FFF7FEFF 		bl	CPU_SR_Restore
 570:..\..\..\..\..\..\uCOS-III\Source/os_flag.c ****             *p_err = OS_ERR_TIMEOUT;
 978              		.loc 1 570 0
 979 043e FB6C     		ldr	r3, [r7, #76]
 980 0440 47F2D922 		movw	r2, #29401
 981 0444 1A80     		strh	r2, [r3]	@ movhi
 571:..\..\..\..\..\..\uCOS-III\Source/os_flag.c ****              break;
 982              		.loc 1 571 0
 983 0446 17E0     		b	.L75
 984              	.L72:
 572:..\..\..\..\..\..\uCOS-III\Source/os_flag.c **** 
 573:..\..\..\..\..\..\uCOS-III\Source/os_flag.c ****         case OS_STATUS_PEND_DEL:                            /* Indicate that object pended on has b
 574:..\..\..\..\..\..\uCOS-III\Source/os_flag.c ****              if (p_ts != (CPU_TS *)0) {
 985              		.loc 1 574 0
 986 0448 BB6C     		ldr	r3, [r7, #72]
 987 044a 002B     		cmp	r3, #0
 988 044c 04D0     		beq	.L78
 575:..\..\..\..\..\..\uCOS-III\Source/os_flag.c ****                 *p_ts  = OSTCBCurPtr->TS;
 989              		.loc 1 575 0
 990 044e 2F4B     		ldr	r3, .L89
 991 0450 1B68     		ldr	r3, [r3]
 992 0452 1A6C     		ldr	r2, [r3, #64]
 993 0454 BB6C     		ldr	r3, [r7, #72]
 994 0456 1A60     		str	r2, [r3]
 995              	.L78:
 576:..\..\..\..\..\..\uCOS-III\Source/os_flag.c ****              }
 577:..\..\..\..\..\..\uCOS-III\Source/os_flag.c ****              CPU_CRITICAL_EXIT();
 996              		.loc 1 577 0
 997 0458 B86B     		ldr	r0, [r7, #56]
 998 045a FFF7FEFF 		bl	CPU_SR_Restore
 578:..\..\..\..\..\..\uCOS-III\Source/os_flag.c ****             *p_err = OS_ERR_OBJ_DEL;
 999              		.loc 1 578 0
 1000 045e FB6C     		ldr	r3, [r7, #76]
 1001 0460 45F6C252 		movw	r2, #24002
 1002 0464 1A80     		strh	r2, [r3]	@ movhi
 579:..\..\..\..\..\..\uCOS-III\Source/os_flag.c ****              break;
 1003              		.loc 1 579 0
 1004 0466 07E0     		b	.L75
 1005              	.L68:
 580:..\..\..\..\..\..\uCOS-III\Source/os_flag.c **** 
 581:..\..\..\..\..\..\uCOS-III\Source/os_flag.c ****         default:
 582:..\..\..\..\..\..\uCOS-III\Source/os_flag.c ****              CPU_CRITICAL_EXIT();
 1006              		.loc 1 582 0
 1007 0468 B86B     		ldr	r0, [r7, #56]
 1008 046a FFF7FEFF 		bl	CPU_SR_Restore
ARM GAS  C:\Users\alex\AppData\Local\Temp\cc9CNbDG.s 			page 29


 583:..\..\..\..\..\..\uCOS-III\Source/os_flag.c ****             *p_err = OS_ERR_STATUS_INVALID;
 1009              		.loc 1 583 0
 1010 046e FB6C     		ldr	r3, [r7, #76]
 1011 0470 46F62E62 		movw	r2, #28206
 1012 0474 1A80     		strh	r2, [r3]	@ movhi
 584:..\..\..\..\..\..\uCOS-III\Source/os_flag.c ****              break;
 1013              		.loc 1 584 0
 1014 0476 00BF     		nop
 1015              	.L75:
 585:..\..\..\..\..\..\uCOS-III\Source/os_flag.c ****     }
 586:..\..\..\..\..\..\uCOS-III\Source/os_flag.c ****     if (*p_err != OS_ERR_NONE) {
 1016              		.loc 1 586 0
 1017 0478 FB6C     		ldr	r3, [r7, #76]
 1018 047a 1B88     		ldrh	r3, [r3]
 1019 047c 002B     		cmp	r3, #0
 1020 047e 01D0     		beq	.L79
 587:..\..\..\..\..\..\uCOS-III\Source/os_flag.c ****         return ((OS_FLAGS)0);
 1021              		.loc 1 587 0
 1022 0480 0023     		movs	r3, #0
 1023 0482 3EE0     		b	.L85
 1024              	.L79:
 588:..\..\..\..\..\..\uCOS-III\Source/os_flag.c ****     }
 589:..\..\..\..\..\..\uCOS-III\Source/os_flag.c **** 
 590:..\..\..\..\..\..\uCOS-III\Source/os_flag.c ****     flags_rdy = OSTCBCurPtr->FlagsRdy;
 1025              		.loc 1 590 0
 1026 0484 214B     		ldr	r3, .L89
 1027 0486 1B68     		ldr	r3, [r3]
 1028 0488 D3F88430 		ldr	r3, [r3, #132]
 1029 048c 3B63     		str	r3, [r7, #48]
 591:..\..\..\..\..\..\uCOS-III\Source/os_flag.c ****     if (consume == DEF_TRUE) {                              /* See if we need to consume the flags 
 1030              		.loc 1 591 0
 1031 048e 97F83F30 		ldrb	r3, [r7, #63]	@ zero_extendqisi2
 1032 0492 012B     		cmp	r3, #1
 1033 0494 2ED1     		bne	.L80
 592:..\..\..\..\..\..\uCOS-III\Source/os_flag.c ****         switch (mode) {
 1034              		.loc 1 592 0
 1035 0496 FB8E     		ldrh	r3, [r7, #54]
 1036 0498 013B     		subs	r3, r3, #1
 1037 049a 072B     		cmp	r3, #7
 1038 049c 21D8     		bhi	.L81
 1039 049e 01A2     		adr	r2, .L83
 1040 04a0 52F823F0 		ldr	pc, [r2, r3, lsl #2]
 1041              		.p2align 2
 1042              	.L83:
 1043 04a4 D5040000 		.word	.L82+1
 1044 04a8 D5040000 		.word	.L82+1
 1045 04ac E3040000 		.word	.L81+1
 1046 04b0 C5040000 		.word	.L84+1
 1047 04b4 E3040000 		.word	.L81+1
 1048 04b8 E3040000 		.word	.L81+1
 1049 04bc E3040000 		.word	.L81+1
 1050 04c0 C5040000 		.word	.L84+1
 1051              		.p2align 1
 1052              	.L84:
 593:..\..\..\..\..\..\uCOS-III\Source/os_flag.c ****             case OS_OPT_PEND_FLAG_SET_ALL:
 594:..\..\..\..\..\..\uCOS-III\Source/os_flag.c ****             case OS_OPT_PEND_FLAG_SET_ANY:                  /* Clear ONLY the flags we got         
 595:..\..\..\..\..\..\uCOS-III\Source/os_flag.c ****                  p_grp->Flags &= ~flags_rdy;
ARM GAS  C:\Users\alex\AppData\Local\Temp\cc9CNbDG.s 			page 30


 1053              		.loc 1 595 0
 1054 04c4 FB68     		ldr	r3, [r7, #12]
 1055 04c6 1A6A     		ldr	r2, [r3, #32]
 1056 04c8 3B6B     		ldr	r3, [r7, #48]
 1057 04ca DB43     		mvns	r3, r3
 1058 04cc 1A40     		ands	r2, r2, r3
 1059 04ce FB68     		ldr	r3, [r7, #12]
 1060 04d0 1A62     		str	r2, [r3, #32]
 596:..\..\..\..\..\..\uCOS-III\Source/os_flag.c ****                  break;
 1061              		.loc 1 596 0
 1062 04d2 0FE0     		b	.L80
 1063              	.L82:
 597:..\..\..\..\..\..\uCOS-III\Source/os_flag.c **** 
 598:..\..\..\..\..\..\uCOS-III\Source/os_flag.c **** #if OS_CFG_FLAG_MODE_CLR_EN > 0u
 599:..\..\..\..\..\..\uCOS-III\Source/os_flag.c ****             case OS_OPT_PEND_FLAG_CLR_ALL:
 600:..\..\..\..\..\..\uCOS-III\Source/os_flag.c ****             case OS_OPT_PEND_FLAG_CLR_ANY:                  /* Set   ONLY the flags we got         
 601:..\..\..\..\..\..\uCOS-III\Source/os_flag.c ****                  p_grp->Flags |=  flags_rdy;
 1064              		.loc 1 601 0
 1065 04d4 FB68     		ldr	r3, [r7, #12]
 1066 04d6 1A6A     		ldr	r2, [r3, #32]
 1067 04d8 3B6B     		ldr	r3, [r7, #48]
 1068 04da 1A43     		orrs	r2, r2, r3
 1069 04dc FB68     		ldr	r3, [r7, #12]
 1070 04de 1A62     		str	r2, [r3, #32]
 602:..\..\..\..\..\..\uCOS-III\Source/os_flag.c ****                  break;
 1071              		.loc 1 602 0
 1072 04e0 08E0     		b	.L80
 1073              	.L81:
 603:..\..\..\..\..\..\uCOS-III\Source/os_flag.c **** #endif
 604:..\..\..\..\..\..\uCOS-III\Source/os_flag.c ****             default:
 605:..\..\..\..\..\..\uCOS-III\Source/os_flag.c ****                  CPU_CRITICAL_EXIT();
 1074              		.loc 1 605 0
 1075 04e2 B86B     		ldr	r0, [r7, #56]
 1076 04e4 FFF7FEFF 		bl	CPU_SR_Restore
 606:..\..\..\..\..\..\uCOS-III\Source/os_flag.c ****                 *p_err = OS_ERR_OPT_INVALID;
 1077              		.loc 1 606 0
 1078 04e8 FB6C     		ldr	r3, [r7, #76]
 1079 04ea 45F62562 		movw	r2, #24101
 1080 04ee 1A80     		strh	r2, [r3]	@ movhi
 607:..\..\..\..\..\..\uCOS-III\Source/os_flag.c ****                  return ((OS_FLAGS)0);
 1081              		.loc 1 607 0
 1082 04f0 0023     		movs	r3, #0
 1083 04f2 06E0     		b	.L85
 1084              	.L80:
 608:..\..\..\..\..\..\uCOS-III\Source/os_flag.c ****         }
 609:..\..\..\..\..\..\uCOS-III\Source/os_flag.c ****     }
 610:..\..\..\..\..\..\uCOS-III\Source/os_flag.c ****     CPU_CRITICAL_EXIT();
 1085              		.loc 1 610 0
 1086 04f4 B86B     		ldr	r0, [r7, #56]
 1087 04f6 FFF7FEFF 		bl	CPU_SR_Restore
 611:..\..\..\..\..\..\uCOS-III\Source/os_flag.c ****    *p_err = OS_ERR_NONE;                                    /* Event(s) must have occurred         
 1088              		.loc 1 611 0
 1089 04fa FB6C     		ldr	r3, [r7, #76]
 1090 04fc 0022     		movs	r2, #0
 1091 04fe 1A80     		strh	r2, [r3]	@ movhi
 612:..\..\..\..\..\..\uCOS-III\Source/os_flag.c ****     return (flags_rdy);
 1092              		.loc 1 612 0
ARM GAS  C:\Users\alex\AppData\Local\Temp\cc9CNbDG.s 			page 31


 1093 0500 3B6B     		ldr	r3, [r7, #48]
 1094              	.L85:
 613:..\..\..\..\..\..\uCOS-III\Source/os_flag.c **** }
 1095              		.loc 1 613 0 discriminator 1
 1096 0502 1846     		mov	r0, r3
 1097 0504 4037     		adds	r7, r7, #64
 1098              		.cfi_def_cfa_offset 8
 1099 0506 BD46     		mov	sp, r7
 1100              		.cfi_def_cfa_register 13
 1101              		@ sp needed
 1102 0508 80BD     		pop	{r7, pc}
 1103              	.L90:
 1104 050a 00BF     		.align	2
 1105              	.L89:
 1106 050c 00000000 		.word	OSTCBCurPtr
 1107 0510 00000000 		.word	OSSchedLockNestingCtr
 1108              		.cfi_endproc
 1109              	.LFE2:
 1110              		.size	OSFlagPend, .-OSFlagPend
 1111              		.section	.text.OSFlagPendAbort,"ax",%progbits
 1112              		.align	2
 1113              		.global	OSFlagPendAbort
 1114              		.thumb
 1115              		.thumb_func
 1116              		.type	OSFlagPendAbort, %function
 1117              	OSFlagPendAbort:
 1118              	.LFB3:
 614:..\..\..\..\..\..\uCOS-III\Source/os_flag.c **** 
 615:..\..\..\..\..\..\uCOS-III\Source/os_flag.c **** /*$PAGE*/
 616:..\..\..\..\..\..\uCOS-III\Source/os_flag.c **** /*
 617:..\..\..\..\..\..\uCOS-III\Source/os_flag.c **** ***************************************************************************************************
 618:..\..\..\..\..\..\uCOS-III\Source/os_flag.c **** *                                          ABORT WAITING ON AN EVENT FLAG GROUP
 619:..\..\..\..\..\..\uCOS-III\Source/os_flag.c **** *
 620:..\..\..\..\..\..\uCOS-III\Source/os_flag.c **** * Description: This function aborts & readies any tasks currently waiting on an event flag group.  
 621:..\..\..\..\..\..\uCOS-III\Source/os_flag.c **** *              be used to fault-abort the wait on the event flag group, rather than to normally pos
 622:..\..\..\..\..\..\uCOS-III\Source/os_flag.c **** *              group OSFlagPost().
 623:..\..\..\..\..\..\uCOS-III\Source/os_flag.c **** *
 624:..\..\..\..\..\..\uCOS-III\Source/os_flag.c **** * Arguments  : p_grp     is a pointer to the event flag group
 625:..\..\..\..\..\..\uCOS-III\Source/os_flag.c **** *
 626:..\..\..\..\..\..\uCOS-III\Source/os_flag.c **** *              opt       determines the type of ABORT performed:
 627:..\..\..\..\..\..\uCOS-III\Source/os_flag.c **** *
 628:..\..\..\..\..\..\uCOS-III\Source/os_flag.c **** *                            OS_OPT_PEND_ABORT_1          ABORT wait for a single task (HPT) waitin
 629:..\..\..\..\..\..\uCOS-III\Source/os_flag.c **** *                            OS_OPT_PEND_ABORT_ALL        ABORT wait for ALL tasks that are  waitin
 630:..\..\..\..\..\..\uCOS-III\Source/os_flag.c **** *                            OS_OPT_POST_NO_SCHED         Do not call the scheduler
 631:..\..\..\..\..\..\uCOS-III\Source/os_flag.c **** *
 632:..\..\..\..\..\..\uCOS-III\Source/os_flag.c **** *              p_err     is a pointer to a variable that will contain an error code returned by thi
 633:..\..\..\..\..\..\uCOS-III\Source/os_flag.c **** *
 634:..\..\..\..\..\..\uCOS-III\Source/os_flag.c **** *                            OS_ERR_NONE                  At least one task waiting on the event fl
 635:..\..\..\..\..\..\uCOS-III\Source/os_flag.c **** *                                                         readied and informed of the aborted wait;
 636:..\..\..\..\..\..\uCOS-III\Source/os_flag.c **** *                                                         for the number of tasks whose wait on the
 637:..\..\..\..\..\..\uCOS-III\Source/os_flag.c **** *                                                         was aborted.
 638:..\..\..\..\..\..\uCOS-III\Source/os_flag.c **** *                            OS_ERR_OBJ_PTR_NULL          If 'p_grp' is a NULL pointer.
 639:..\..\..\..\..\..\uCOS-III\Source/os_flag.c **** *                            OS_ERR_OBJ_TYPE              If 'p_grp' is not pointing at an event fl
 640:..\..\..\..\..\..\uCOS-III\Source/os_flag.c **** *                            OS_ERR_OPT_INVALID           If you specified an invalid option
 641:..\..\..\..\..\..\uCOS-III\Source/os_flag.c **** *                            OS_ERR_PEND_ABORT_ISR        If you called this function from an ISR
 642:..\..\..\..\..\..\uCOS-III\Source/os_flag.c **** *                            OS_ERR_PEND_ABORT_NONE       No task were pending
 643:..\..\..\..\..\..\uCOS-III\Source/os_flag.c **** *
ARM GAS  C:\Users\alex\AppData\Local\Temp\cc9CNbDG.s 			page 32


 644:..\..\..\..\..\..\uCOS-III\Source/os_flag.c **** * Returns    : == 0          if no tasks were waiting on the event flag group, or upon error.
 645:..\..\..\..\..\..\uCOS-III\Source/os_flag.c **** *              >  0          if one or more tasks waiting on the event flag group are now readied a
 646:..\..\..\..\..\..\uCOS-III\Source/os_flag.c **** ***************************************************************************************************
 647:..\..\..\..\..\..\uCOS-III\Source/os_flag.c **** */
 648:..\..\..\..\..\..\uCOS-III\Source/os_flag.c **** 
 649:..\..\..\..\..\..\uCOS-III\Source/os_flag.c **** #if OS_CFG_FLAG_PEND_ABORT_EN > 0u
 650:..\..\..\..\..\..\uCOS-III\Source/os_flag.c **** OS_OBJ_QTY  OSFlagPendAbort (OS_FLAG_GRP  *p_grp,
 651:..\..\..\..\..\..\uCOS-III\Source/os_flag.c ****                              OS_OPT        opt,
 652:..\..\..\..\..\..\uCOS-III\Source/os_flag.c ****                              OS_ERR       *p_err)
 653:..\..\..\..\..\..\uCOS-III\Source/os_flag.c **** {
 1119              		.loc 1 653 0
 1120              		.cfi_startproc
 1121              		@ args = 0, pretend = 0, frame = 40
 1122              		@ frame_needed = 1, uses_anonymous_args = 0
 1123 0000 80B5     		push	{r7, lr}
 1124              		.cfi_def_cfa_offset 8
 1125              		.cfi_offset 7, -8
 1126              		.cfi_offset 14, -4
 1127 0002 8AB0     		sub	sp, sp, #40
 1128              		.cfi_def_cfa_offset 48
 1129 0004 00AF     		add	r7, sp, #0
 1130              		.cfi_def_cfa_register 7
 1131 0006 F860     		str	r0, [r7, #12]
 1132 0008 0B46     		mov	r3, r1
 1133 000a 7A60     		str	r2, [r7, #4]
 1134 000c 7B81     		strh	r3, [r7, #10]	@ movhi
 654:..\..\..\..\..\..\uCOS-III\Source/os_flag.c ****     OS_PEND_LIST  *p_pend_list;
 655:..\..\..\..\..\..\uCOS-III\Source/os_flag.c ****     OS_TCB        *p_tcb;
 656:..\..\..\..\..\..\uCOS-III\Source/os_flag.c ****     CPU_TS         ts;
 657:..\..\..\..\..\..\uCOS-III\Source/os_flag.c ****     OS_OBJ_QTY     nbr_tasks;
 658:..\..\..\..\..\..\uCOS-III\Source/os_flag.c ****     CPU_SR_ALLOC();
 1135              		.loc 1 658 0
 1136 000e 0023     		movs	r3, #0
 1137 0010 3B62     		str	r3, [r7, #32]
 659:..\..\..\..\..\..\uCOS-III\Source/os_flag.c **** 
 660:..\..\..\..\..\..\uCOS-III\Source/os_flag.c **** 
 661:..\..\..\..\..\..\uCOS-III\Source/os_flag.c **** 
 662:..\..\..\..\..\..\uCOS-III\Source/os_flag.c **** #ifdef OS_SAFETY_CRITICAL
 663:..\..\..\..\..\..\uCOS-III\Source/os_flag.c ****     if (p_err == (OS_ERR *)0) {
 664:..\..\..\..\..\..\uCOS-III\Source/os_flag.c ****         OS_SAFETY_CRITICAL_EXCEPTION();
 665:..\..\..\..\..\..\uCOS-III\Source/os_flag.c ****         return ((OS_OBJ_QTY)0u);
 666:..\..\..\..\..\..\uCOS-III\Source/os_flag.c ****     }
 667:..\..\..\..\..\..\uCOS-III\Source/os_flag.c **** #endif
 668:..\..\..\..\..\..\uCOS-III\Source/os_flag.c **** 
 669:..\..\..\..\..\..\uCOS-III\Source/os_flag.c **** #if OS_CFG_CALLED_FROM_ISR_CHK_EN > 0u
 670:..\..\..\..\..\..\uCOS-III\Source/os_flag.c ****     if (OSIntNestingCtr > (OS_NESTING_CTR)0u) {             /* Not allowed to Pend Abort from an IS
 1138              		.loc 1 670 0
 1139 0012 354B     		ldr	r3, .L106
 1140 0014 1B78     		ldrb	r3, [r3]	@ zero_extendqisi2
 1141 0016 002B     		cmp	r3, #0
 1142 0018 05D0     		beq	.L92
 671:..\..\..\..\..\..\uCOS-III\Source/os_flag.c ****        *p_err = OS_ERR_PEND_ABORT_ISR;
 1143              		.loc 1 671 0
 1144 001a 7B68     		ldr	r3, [r7, #4]
 1145 001c 46F2AA12 		movw	r2, #25002
 1146 0020 1A80     		strh	r2, [r3]	@ movhi
 672:..\..\..\..\..\..\uCOS-III\Source/os_flag.c ****         return ((OS_OBJ_QTY)0u);
ARM GAS  C:\Users\alex\AppData\Local\Temp\cc9CNbDG.s 			page 33


 1147              		.loc 1 672 0
 1148 0022 0023     		movs	r3, #0
 1149 0024 5BE0     		b	.L93
 1150              	.L92:
 673:..\..\..\..\..\..\uCOS-III\Source/os_flag.c ****     }
 674:..\..\..\..\..\..\uCOS-III\Source/os_flag.c **** #endif
 675:..\..\..\..\..\..\uCOS-III\Source/os_flag.c **** 
 676:..\..\..\..\..\..\uCOS-III\Source/os_flag.c **** #if OS_CFG_ARG_CHK_EN > 0u
 677:..\..\..\..\..\..\uCOS-III\Source/os_flag.c ****     if (p_grp == (OS_FLAG_GRP *)0) {                        /* Validate 'p_grp'                    
 1151              		.loc 1 677 0
 1152 0026 FB68     		ldr	r3, [r7, #12]
 1153 0028 002B     		cmp	r3, #0
 1154 002a 05D1     		bne	.L94
 678:..\..\..\..\..\..\uCOS-III\Source/os_flag.c ****        *p_err  =  OS_ERR_OBJ_PTR_NULL;
 1155              		.loc 1 678 0
 1156 002c 7B68     		ldr	r3, [r7, #4]
 1157 002e 45F6C352 		movw	r2, #24003
 1158 0032 1A80     		strh	r2, [r3]	@ movhi
 679:..\..\..\..\..\..\uCOS-III\Source/os_flag.c ****         return ((OS_OBJ_QTY)0u);
 1159              		.loc 1 679 0
 1160 0034 0023     		movs	r3, #0
 1161 0036 52E0     		b	.L93
 1162              	.L94:
 680:..\..\..\..\..\..\uCOS-III\Source/os_flag.c ****     }
 681:..\..\..\..\..\..\uCOS-III\Source/os_flag.c ****     switch (opt) {                                          /* Validate 'opt'                      
 1163              		.loc 1 681 0
 1164 0038 7B89     		ldrh	r3, [r7, #10]
 1165 003a B3F5807F 		cmp	r3, #256
 1166 003e 11D0     		beq	.L104
 1167 0040 B3F5807F 		cmp	r3, #256
 1168 0044 02DC     		bgt	.L97
 1169 0046 002B     		cmp	r3, #0
 1170 0048 0CD0     		beq	.L104
 1171 004a 05E0     		b	.L95
 1172              	.L97:
 1173 004c B3F5004F 		cmp	r3, #32768
 1174 0050 08D0     		beq	.L104
 1175 0052 B3F5014F 		cmp	r3, #33024
 1176 0056 05D0     		beq	.L104
 1177              	.L95:
 682:..\..\..\..\..\..\uCOS-III\Source/os_flag.c ****         case OS_OPT_PEND_ABORT_1:
 683:..\..\..\..\..\..\uCOS-III\Source/os_flag.c ****         case OS_OPT_PEND_ABORT_ALL:
 684:..\..\..\..\..\..\uCOS-III\Source/os_flag.c ****         case OS_OPT_PEND_ABORT_1   | OS_OPT_POST_NO_SCHED:
 685:..\..\..\..\..\..\uCOS-III\Source/os_flag.c ****         case OS_OPT_PEND_ABORT_ALL | OS_OPT_POST_NO_SCHED:
 686:..\..\..\..\..\..\uCOS-III\Source/os_flag.c ****              break;
 687:..\..\..\..\..\..\uCOS-III\Source/os_flag.c **** 
 688:..\..\..\..\..\..\uCOS-III\Source/os_flag.c ****         default:
 689:..\..\..\..\..\..\uCOS-III\Source/os_flag.c ****             *p_err = OS_ERR_OPT_INVALID;
 1178              		.loc 1 689 0
 1179 0058 7B68     		ldr	r3, [r7, #4]
 1180 005a 45F62562 		movw	r2, #24101
 1181 005e 1A80     		strh	r2, [r3]	@ movhi
 690:..\..\..\..\..\..\uCOS-III\Source/os_flag.c ****              return ((OS_OBJ_QTY)0u);
 1182              		.loc 1 690 0
 1183 0060 0023     		movs	r3, #0
 1184 0062 3CE0     		b	.L93
 1185              	.L104:
ARM GAS  C:\Users\alex\AppData\Local\Temp\cc9CNbDG.s 			page 34


 686:..\..\..\..\..\..\uCOS-III\Source/os_flag.c **** 
 1186              		.loc 1 686 0
 1187 0064 00BF     		nop
 691:..\..\..\..\..\..\uCOS-III\Source/os_flag.c ****     }
 692:..\..\..\..\..\..\uCOS-III\Source/os_flag.c **** #endif
 693:..\..\..\..\..\..\uCOS-III\Source/os_flag.c **** 
 694:..\..\..\..\..\..\uCOS-III\Source/os_flag.c **** #if OS_CFG_OBJ_TYPE_CHK_EN > 0u
 695:..\..\..\..\..\..\uCOS-III\Source/os_flag.c ****     if (p_grp->Type != OS_OBJ_TYPE_FLAG) {                  /* Make sure event flag group was creat
 696:..\..\..\..\..\..\uCOS-III\Source/os_flag.c ****        *p_err = OS_ERR_OBJ_TYPE;
 697:..\..\..\..\..\..\uCOS-III\Source/os_flag.c ****         return ((OS_OBJ_QTY)0u);
 698:..\..\..\..\..\..\uCOS-III\Source/os_flag.c ****     }
 699:..\..\..\..\..\..\uCOS-III\Source/os_flag.c **** #endif
 700:..\..\..\..\..\..\uCOS-III\Source/os_flag.c **** 
 701:..\..\..\..\..\..\uCOS-III\Source/os_flag.c ****     CPU_CRITICAL_ENTER();
 1188              		.loc 1 701 0
 1189 0066 FFF7FEFF 		bl	CPU_SR_Save
 1190 006a 3862     		str	r0, [r7, #32]
 702:..\..\..\..\..\..\uCOS-III\Source/os_flag.c ****     p_pend_list = &p_grp->PendList;
 1191              		.loc 1 702 0
 1192 006c FB68     		ldr	r3, [r7, #12]
 1193 006e 0833     		adds	r3, r3, #8
 1194 0070 FB61     		str	r3, [r7, #28]
 703:..\..\..\..\..\..\uCOS-III\Source/os_flag.c ****     if (p_pend_list->NbrEntries == (OS_OBJ_QTY)0u) {        /* Any task waiting on flag group?     
 1195              		.loc 1 703 0
 1196 0072 FB69     		ldr	r3, [r7, #28]
 1197 0074 1B89     		ldrh	r3, [r3, #8]
 1198 0076 002B     		cmp	r3, #0
 1199 0078 08D1     		bne	.L99
 704:..\..\..\..\..\..\uCOS-III\Source/os_flag.c ****         CPU_CRITICAL_EXIT();                                /* No                                  
 1200              		.loc 1 704 0
 1201 007a 386A     		ldr	r0, [r7, #32]
 1202 007c FFF7FEFF 		bl	CPU_SR_Restore
 705:..\..\..\..\..\..\uCOS-III\Source/os_flag.c ****        *p_err = OS_ERR_PEND_ABORT_NONE;
 1203              		.loc 1 705 0
 1204 0080 7B68     		ldr	r3, [r7, #4]
 1205 0082 46F2AB12 		movw	r2, #25003
 1206 0086 1A80     		strh	r2, [r3]	@ movhi
 706:..\..\..\..\..\..\uCOS-III\Source/os_flag.c ****         return ((OS_OBJ_QTY)0u);
 1207              		.loc 1 706 0
 1208 0088 0023     		movs	r3, #0
 1209 008a 28E0     		b	.L93
 1210              	.L99:
 707:..\..\..\..\..\..\uCOS-III\Source/os_flag.c ****     }
 708:..\..\..\..\..\..\uCOS-III\Source/os_flag.c **** 
 709:..\..\..\..\..\..\uCOS-III\Source/os_flag.c ****     OS_CRITICAL_ENTER_CPU_EXIT();
 710:..\..\..\..\..\..\uCOS-III\Source/os_flag.c ****     nbr_tasks = 0u;
 1211              		.loc 1 710 0
 1212 008c 0023     		movs	r3, #0
 1213 008e FB84     		strh	r3, [r7, #38]	@ movhi
 711:..\..\..\..\..\..\uCOS-III\Source/os_flag.c ****     ts        = OS_TS_GET();                                /* Get local time stamp so all tasks ge
 1214              		.loc 1 711 0
 1215 0090 FFF7FEFF 		bl	CPU_TS_TmrRd
 1216 0094 B861     		str	r0, [r7, #24]
 712:..\..\..\..\..\..\uCOS-III\Source/os_flag.c ****     while (p_pend_list->NbrEntries > (OS_OBJ_QTY)0u) {
 1217              		.loc 1 712 0
 1218 0096 0FE0     		b	.L100
 1219              	.L102:
ARM GAS  C:\Users\alex\AppData\Local\Temp\cc9CNbDG.s 			page 35


 713:..\..\..\..\..\..\uCOS-III\Source/os_flag.c ****         p_tcb = p_pend_list->HeadPtr->TCBPtr;
 1220              		.loc 1 713 0
 1221 0098 FB69     		ldr	r3, [r7, #28]
 1222 009a 1B68     		ldr	r3, [r3]
 1223 009c 9B68     		ldr	r3, [r3, #8]
 1224 009e 7B61     		str	r3, [r7, #20]
 714:..\..\..\..\..\..\uCOS-III\Source/os_flag.c ****         OS_PendAbort((OS_PEND_OBJ *)((void *)p_grp),
 1225              		.loc 1 714 0
 1226 00a0 BA69     		ldr	r2, [r7, #24]
 1227 00a2 7969     		ldr	r1, [r7, #20]
 1228 00a4 F868     		ldr	r0, [r7, #12]
 1229 00a6 FFF7FEFF 		bl	OS_PendAbort
 715:..\..\..\..\..\..\uCOS-III\Source/os_flag.c ****                      p_tcb,
 716:..\..\..\..\..\..\uCOS-III\Source/os_flag.c ****                      ts);
 717:..\..\..\..\..\..\uCOS-III\Source/os_flag.c ****         nbr_tasks++;
 1230              		.loc 1 717 0
 1231 00aa FB8C     		ldrh	r3, [r7, #38]
 1232 00ac 0133     		adds	r3, r3, #1
 1233 00ae FB84     		strh	r3, [r7, #38]	@ movhi
 718:..\..\..\..\..\..\uCOS-III\Source/os_flag.c ****         if (opt != OS_OPT_PEND_ABORT_ALL) {                 /* Pend abort all tasks waiting?       
 1234              		.loc 1 718 0
 1235 00b0 7B89     		ldrh	r3, [r7, #10]
 1236 00b2 B3F5807F 		cmp	r3, #256
 1237 00b6 04D1     		bne	.L105
 1238              	.L100:
 712:..\..\..\..\..\..\uCOS-III\Source/os_flag.c ****         p_tcb = p_pend_list->HeadPtr->TCBPtr;
 1239              		.loc 1 712 0
 1240 00b8 FB69     		ldr	r3, [r7, #28]
 1241 00ba 1B89     		ldrh	r3, [r3, #8]
 1242 00bc 002B     		cmp	r3, #0
 1243 00be EBD1     		bne	.L102
 1244 00c0 00E0     		b	.L101
 1245              	.L105:
 719:..\..\..\..\..\..\uCOS-III\Source/os_flag.c ****             break;                                          /* No                                  
 1246              		.loc 1 719 0
 1247 00c2 00BF     		nop
 1248              	.L101:
 720:..\..\..\..\..\..\uCOS-III\Source/os_flag.c ****         }
 721:..\..\..\..\..\..\uCOS-III\Source/os_flag.c ****     }
 722:..\..\..\..\..\..\uCOS-III\Source/os_flag.c ****     OS_CRITICAL_EXIT_NO_SCHED();
 1249              		.loc 1 722 0
 1250 00c4 386A     		ldr	r0, [r7, #32]
 1251 00c6 FFF7FEFF 		bl	CPU_SR_Restore
 723:..\..\..\..\..\..\uCOS-III\Source/os_flag.c **** 
 724:..\..\..\..\..\..\uCOS-III\Source/os_flag.c ****     if ((opt & OS_OPT_POST_NO_SCHED) == (OS_OPT)0u) {
 1252              		.loc 1 724 0
 1253 00ca B7F90A30 		ldrsh	r3, [r7, #10]
 1254 00ce 002B     		cmp	r3, #0
 1255 00d0 01DB     		blt	.L103
 725:..\..\..\..\..\..\uCOS-III\Source/os_flag.c ****         OSSched();                                          /* Run the scheduler                   
 1256              		.loc 1 725 0
 1257 00d2 FFF7FEFF 		bl	OSSched
 1258              	.L103:
 726:..\..\..\..\..\..\uCOS-III\Source/os_flag.c ****     }
 727:..\..\..\..\..\..\uCOS-III\Source/os_flag.c **** 
 728:..\..\..\..\..\..\uCOS-III\Source/os_flag.c ****    *p_err = OS_ERR_NONE;
 1259              		.loc 1 728 0
ARM GAS  C:\Users\alex\AppData\Local\Temp\cc9CNbDG.s 			page 36


 1260 00d6 7B68     		ldr	r3, [r7, #4]
 1261 00d8 0022     		movs	r2, #0
 1262 00da 1A80     		strh	r2, [r3]	@ movhi
 729:..\..\..\..\..\..\uCOS-III\Source/os_flag.c ****     return (nbr_tasks);
 1263              		.loc 1 729 0
 1264 00dc FB8C     		ldrh	r3, [r7, #38]
 1265              	.L93:
 730:..\..\..\..\..\..\uCOS-III\Source/os_flag.c **** }
 1266              		.loc 1 730 0
 1267 00de 1846     		mov	r0, r3
 1268 00e0 2837     		adds	r7, r7, #40
 1269              		.cfi_def_cfa_offset 8
 1270 00e2 BD46     		mov	sp, r7
 1271              		.cfi_def_cfa_register 13
 1272              		@ sp needed
 1273 00e4 80BD     		pop	{r7, pc}
 1274              	.L107:
 1275 00e6 00BF     		.align	2
 1276              	.L106:
 1277 00e8 00000000 		.word	OSIntNestingCtr
 1278              		.cfi_endproc
 1279              	.LFE3:
 1280              		.size	OSFlagPendAbort, .-OSFlagPendAbort
 1281              		.section	.text.OSFlagPendGetFlagsRdy,"ax",%progbits
 1282              		.align	2
 1283              		.global	OSFlagPendGetFlagsRdy
 1284              		.thumb
 1285              		.thumb_func
 1286              		.type	OSFlagPendGetFlagsRdy, %function
 1287              	OSFlagPendGetFlagsRdy:
 1288              	.LFB4:
 731:..\..\..\..\..\..\uCOS-III\Source/os_flag.c **** #endif
 732:..\..\..\..\..\..\uCOS-III\Source/os_flag.c **** 
 733:..\..\..\..\..\..\uCOS-III\Source/os_flag.c **** /*$PAGE*/
 734:..\..\..\..\..\..\uCOS-III\Source/os_flag.c **** /*
 735:..\..\..\..\..\..\uCOS-III\Source/os_flag.c **** ***************************************************************************************************
 736:..\..\..\..\..\..\uCOS-III\Source/os_flag.c **** *                                       GET FLAGS WHO CAUSED TASK TO BECOME READY
 737:..\..\..\..\..\..\uCOS-III\Source/os_flag.c **** *
 738:..\..\..\..\..\..\uCOS-III\Source/os_flag.c **** * Description: This function is called to obtain the flags that caused the task to become ready to 
 739:..\..\..\..\..\..\uCOS-III\Source/os_flag.c **** *              In other words, this function allows you to tell "Who done it!".
 740:..\..\..\..\..\..\uCOS-III\Source/os_flag.c **** *
 741:..\..\..\..\..\..\uCOS-III\Source/os_flag.c **** * Arguments  : p_err     is a pointer to an error code
 742:..\..\..\..\..\..\uCOS-III\Source/os_flag.c **** *
 743:..\..\..\..\..\..\uCOS-III\Source/os_flag.c **** *                            OS_ERR_NONE       if the call was successful
 744:..\..\..\..\..\..\uCOS-III\Source/os_flag.c **** *                            OS_ERR_PEND_ISR   if called from an ISR
 745:..\..\..\..\..\..\uCOS-III\Source/os_flag.c **** *
 746:..\..\..\..\..\..\uCOS-III\Source/os_flag.c **** * Returns    : The flags that caused the task to be ready.
 747:..\..\..\..\..\..\uCOS-III\Source/os_flag.c **** ***************************************************************************************************
 748:..\..\..\..\..\..\uCOS-III\Source/os_flag.c **** */
 749:..\..\..\..\..\..\uCOS-III\Source/os_flag.c **** 
 750:..\..\..\..\..\..\uCOS-III\Source/os_flag.c **** OS_FLAGS  OSFlagPendGetFlagsRdy (OS_ERR  *p_err)
 751:..\..\..\..\..\..\uCOS-III\Source/os_flag.c **** {
 1289              		.loc 1 751 0
 1290              		.cfi_startproc
 1291              		@ args = 0, pretend = 0, frame = 16
 1292              		@ frame_needed = 1, uses_anonymous_args = 0
 1293 0000 80B5     		push	{r7, lr}
ARM GAS  C:\Users\alex\AppData\Local\Temp\cc9CNbDG.s 			page 37


 1294              		.cfi_def_cfa_offset 8
 1295              		.cfi_offset 7, -8
 1296              		.cfi_offset 14, -4
 1297 0002 84B0     		sub	sp, sp, #16
 1298              		.cfi_def_cfa_offset 24
 1299 0004 00AF     		add	r7, sp, #0
 1300              		.cfi_def_cfa_register 7
 1301 0006 7860     		str	r0, [r7, #4]
 752:..\..\..\..\..\..\uCOS-III\Source/os_flag.c ****     OS_FLAGS   flags;
 753:..\..\..\..\..\..\uCOS-III\Source/os_flag.c ****     CPU_SR_ALLOC();
 1302              		.loc 1 753 0
 1303 0008 0023     		movs	r3, #0
 1304 000a FB60     		str	r3, [r7, #12]
 754:..\..\..\..\..\..\uCOS-III\Source/os_flag.c **** 
 755:..\..\..\..\..\..\uCOS-III\Source/os_flag.c **** 
 756:..\..\..\..\..\..\uCOS-III\Source/os_flag.c **** 
 757:..\..\..\..\..\..\uCOS-III\Source/os_flag.c **** #ifdef OS_SAFETY_CRITICAL
 758:..\..\..\..\..\..\uCOS-III\Source/os_flag.c ****     if (p_err == (OS_ERR *)0) {
 759:..\..\..\..\..\..\uCOS-III\Source/os_flag.c ****         OS_SAFETY_CRITICAL_EXCEPTION();
 760:..\..\..\..\..\..\uCOS-III\Source/os_flag.c ****         return ((OS_FLAGS)0);
 761:..\..\..\..\..\..\uCOS-III\Source/os_flag.c ****     }
 762:..\..\..\..\..\..\uCOS-III\Source/os_flag.c **** #endif
 763:..\..\..\..\..\..\uCOS-III\Source/os_flag.c **** 
 764:..\..\..\..\..\..\uCOS-III\Source/os_flag.c **** #if OS_CFG_CALLED_FROM_ISR_CHK_EN > 0u
 765:..\..\..\..\..\..\uCOS-III\Source/os_flag.c ****     if (OSIntNestingCtr > (OS_NESTING_CTR)0) {              /* See if called from ISR ...          
 1305              		.loc 1 765 0
 1306 000c 0E4B     		ldr	r3, .L111
 1307 000e 1B78     		ldrb	r3, [r3]	@ zero_extendqisi2
 1308 0010 002B     		cmp	r3, #0
 1309 0012 05D0     		beq	.L109
 766:..\..\..\..\..\..\uCOS-III\Source/os_flag.c ****        *p_err = OS_ERR_PEND_ISR;                            /* ... can't get from an ISR           
 1310              		.loc 1 766 0
 1311 0014 7B68     		ldr	r3, [r7, #4]
 1312 0016 46F2AE12 		movw	r2, #25006
 1313 001a 1A80     		strh	r2, [r3]	@ movhi
 767:..\..\..\..\..\..\uCOS-III\Source/os_flag.c ****         return ((OS_FLAGS)0);
 1314              		.loc 1 767 0
 1315 001c 0023     		movs	r3, #0
 1316 001e 0EE0     		b	.L110
 1317              	.L109:
 768:..\..\..\..\..\..\uCOS-III\Source/os_flag.c ****     }
 769:..\..\..\..\..\..\uCOS-III\Source/os_flag.c **** #endif
 770:..\..\..\..\..\..\uCOS-III\Source/os_flag.c **** 
 771:..\..\..\..\..\..\uCOS-III\Source/os_flag.c ****     CPU_CRITICAL_ENTER();
 1318              		.loc 1 771 0
 1319 0020 FFF7FEFF 		bl	CPU_SR_Save
 1320 0024 F860     		str	r0, [r7, #12]
 772:..\..\..\..\..\..\uCOS-III\Source/os_flag.c ****     flags = OSTCBCurPtr->FlagsRdy;
 1321              		.loc 1 772 0
 1322 0026 094B     		ldr	r3, .L111+4
 1323 0028 1B68     		ldr	r3, [r3]
 1324 002a D3F88430 		ldr	r3, [r3, #132]
 1325 002e BB60     		str	r3, [r7, #8]
 773:..\..\..\..\..\..\uCOS-III\Source/os_flag.c ****     CPU_CRITICAL_EXIT();
 1326              		.loc 1 773 0
 1327 0030 F868     		ldr	r0, [r7, #12]
 1328 0032 FFF7FEFF 		bl	CPU_SR_Restore
ARM GAS  C:\Users\alex\AppData\Local\Temp\cc9CNbDG.s 			page 38


 774:..\..\..\..\..\..\uCOS-III\Source/os_flag.c ****    *p_err = OS_ERR_NONE;
 1329              		.loc 1 774 0
 1330 0036 7B68     		ldr	r3, [r7, #4]
 1331 0038 0022     		movs	r2, #0
 1332 003a 1A80     		strh	r2, [r3]	@ movhi
 775:..\..\..\..\..\..\uCOS-III\Source/os_flag.c ****     return (flags);
 1333              		.loc 1 775 0
 1334 003c BB68     		ldr	r3, [r7, #8]
 1335              	.L110:
 776:..\..\..\..\..\..\uCOS-III\Source/os_flag.c **** }
 1336              		.loc 1 776 0
 1337 003e 1846     		mov	r0, r3
 1338 0040 1037     		adds	r7, r7, #16
 1339              		.cfi_def_cfa_offset 8
 1340 0042 BD46     		mov	sp, r7
 1341              		.cfi_def_cfa_register 13
 1342              		@ sp needed
 1343 0044 80BD     		pop	{r7, pc}
 1344              	.L112:
 1345 0046 00BF     		.align	2
 1346              	.L111:
 1347 0048 00000000 		.word	OSIntNestingCtr
 1348 004c 00000000 		.word	OSTCBCurPtr
 1349              		.cfi_endproc
 1350              	.LFE4:
 1351              		.size	OSFlagPendGetFlagsRdy, .-OSFlagPendGetFlagsRdy
 1352              		.section	.text.OSFlagPost,"ax",%progbits
 1353              		.align	2
 1354              		.global	OSFlagPost
 1355              		.thumb
 1356              		.thumb_func
 1357              		.type	OSFlagPost, %function
 1358              	OSFlagPost:
 1359              	.LFB5:
 777:..\..\..\..\..\..\uCOS-III\Source/os_flag.c **** 
 778:..\..\..\..\..\..\uCOS-III\Source/os_flag.c **** /*$PAGE*/
 779:..\..\..\..\..\..\uCOS-III\Source/os_flag.c **** /*
 780:..\..\..\..\..\..\uCOS-III\Source/os_flag.c **** ***************************************************************************************************
 781:..\..\..\..\..\..\uCOS-III\Source/os_flag.c **** *                                                POST EVENT FLAG BIT(S)
 782:..\..\..\..\..\..\uCOS-III\Source/os_flag.c **** *
 783:..\..\..\..\..\..\uCOS-III\Source/os_flag.c **** * Description: This function is called to set or clear some bits in an event flag group.  The bits 
 784:..\..\..\..\..\..\uCOS-III\Source/os_flag.c **** *              specified by a 'bit mask'.
 785:..\..\..\..\..\..\uCOS-III\Source/os_flag.c **** *
 786:..\..\..\..\..\..\uCOS-III\Source/os_flag.c **** * Arguments  : p_grp         is a pointer to the desired event flag group.
 787:..\..\..\..\..\..\uCOS-III\Source/os_flag.c **** *
 788:..\..\..\..\..\..\uCOS-III\Source/os_flag.c **** *              flags         If 'opt' (see below) is OS_OPT_POST_FLAG_SET, each bit that is set in 
 789:..\..\..\..\..\..\uCOS-III\Source/os_flag.c **** *                            set the corresponding bit in the event flag group.  e.g. to set bits 0
 790:..\..\..\..\..\..\uCOS-III\Source/os_flag.c **** *                            and 5 you would set 'flags' to:
 791:..\..\..\..\..\..\uCOS-III\Source/os_flag.c **** *
 792:..\..\..\..\..\..\uCOS-III\Source/os_flag.c **** *                                0x31     (note, bit 0 is least significant bit)
 793:..\..\..\..\..\..\uCOS-III\Source/os_flag.c **** *
 794:..\..\..\..\..\..\uCOS-III\Source/os_flag.c **** *                            If 'opt' (see below) is OS_OPT_POST_FLAG_CLR, each bit that is set in 
 795:..\..\..\..\..\..\uCOS-III\Source/os_flag.c **** *                            CLEAR the corresponding bit in the event flag group.  e.g. to clear bi
 796:..\..\..\..\..\..\uCOS-III\Source/os_flag.c **** *                            4 and 5 you would specify 'flags' as:
 797:..\..\..\..\..\..\uCOS-III\Source/os_flag.c **** *
 798:..\..\..\..\..\..\uCOS-III\Source/os_flag.c **** *                                0x31     (note, bit 0 is least significant bit)
 799:..\..\..\..\..\..\uCOS-III\Source/os_flag.c **** *
ARM GAS  C:\Users\alex\AppData\Local\Temp\cc9CNbDG.s 			page 39


 800:..\..\..\..\..\..\uCOS-III\Source/os_flag.c **** *              opt           indicates whether the flags will be:
 801:..\..\..\..\..\..\uCOS-III\Source/os_flag.c **** *
 802:..\..\..\..\..\..\uCOS-III\Source/os_flag.c **** *                                OS_OPT_POST_FLAG_SET       set
 803:..\..\..\..\..\..\uCOS-III\Source/os_flag.c **** *                                OS_OPT_POST_FLAG_CLR       cleared
 804:..\..\..\..\..\..\uCOS-III\Source/os_flag.c **** *
 805:..\..\..\..\..\..\uCOS-III\Source/os_flag.c **** *                            you can also 'add' OS_OPT_POST_NO_SCHED to prevent the scheduler from 
 806:..\..\..\..\..\..\uCOS-III\Source/os_flag.c **** *
 807:..\..\..\..\..\..\uCOS-III\Source/os_flag.c **** *              p_err         is a pointer to an error code and can be:
 808:..\..\..\..\..\..\uCOS-III\Source/os_flag.c **** *
 809:..\..\..\..\..\..\uCOS-III\Source/os_flag.c **** *                                OS_ERR_NONE                The call was successful
 810:..\..\..\..\..\..\uCOS-III\Source/os_flag.c **** *                                OS_ERR_OBJ_PTR_NULL        You passed a NULL pointer
 811:..\..\..\..\..\..\uCOS-III\Source/os_flag.c **** *                                OS_ERR_OBJ_TYPE            You are not pointing to an event flag g
 812:..\..\..\..\..\..\uCOS-III\Source/os_flag.c **** *                                OS_ERR_OPT_INVALID         You specified an invalid option
 813:..\..\..\..\..\..\uCOS-III\Source/os_flag.c **** *
 814:..\..\..\..\..\..\uCOS-III\Source/os_flag.c **** * Returns    : the new value of the event flags bits that are still set.
 815:..\..\..\..\..\..\uCOS-III\Source/os_flag.c **** *
 816:..\..\..\..\..\..\uCOS-III\Source/os_flag.c **** * Note(s)    : 1) The execution time of this function depends on the number of tasks waiting on the
 817:..\..\..\..\..\..\uCOS-III\Source/os_flag.c **** ***************************************************************************************************
 818:..\..\..\..\..\..\uCOS-III\Source/os_flag.c **** */
 819:..\..\..\..\..\..\uCOS-III\Source/os_flag.c **** 
 820:..\..\..\..\..\..\uCOS-III\Source/os_flag.c **** OS_FLAGS  OSFlagPost (OS_FLAG_GRP  *p_grp,
 821:..\..\..\..\..\..\uCOS-III\Source/os_flag.c ****                       OS_FLAGS      flags,
 822:..\..\..\..\..\..\uCOS-III\Source/os_flag.c ****                       OS_OPT        opt,
 823:..\..\..\..\..\..\uCOS-III\Source/os_flag.c ****                       OS_ERR       *p_err)
 824:..\..\..\..\..\..\uCOS-III\Source/os_flag.c **** {
 1360              		.loc 1 824 0
 1361              		.cfi_startproc
 1362              		@ args = 0, pretend = 0, frame = 24
 1363              		@ frame_needed = 1, uses_anonymous_args = 0
 1364 0000 80B5     		push	{r7, lr}
 1365              		.cfi_def_cfa_offset 8
 1366              		.cfi_offset 7, -8
 1367              		.cfi_offset 14, -4
 1368 0002 88B0     		sub	sp, sp, #32
 1369              		.cfi_def_cfa_offset 40
 1370 0004 02AF     		add	r7, sp, #8
 1371              		.cfi_def_cfa 7, 32
 1372 0006 F860     		str	r0, [r7, #12]
 1373 0008 B960     		str	r1, [r7, #8]
 1374 000a 3B60     		str	r3, [r7]
 1375 000c 1346     		mov	r3, r2	@ movhi
 1376 000e FB80     		strh	r3, [r7, #6]	@ movhi
 825:..\..\..\..\..\..\uCOS-III\Source/os_flag.c ****     OS_FLAGS  flags_cur;
 826:..\..\..\..\..\..\uCOS-III\Source/os_flag.c ****     CPU_TS    ts;
 827:..\..\..\..\..\..\uCOS-III\Source/os_flag.c **** 
 828:..\..\..\..\..\..\uCOS-III\Source/os_flag.c **** 
 829:..\..\..\..\..\..\uCOS-III\Source/os_flag.c **** 
 830:..\..\..\..\..\..\uCOS-III\Source/os_flag.c **** #ifdef OS_SAFETY_CRITICAL
 831:..\..\..\..\..\..\uCOS-III\Source/os_flag.c ****     if (p_err == (OS_ERR *)0) {
 832:..\..\..\..\..\..\uCOS-III\Source/os_flag.c ****         OS_SAFETY_CRITICAL_EXCEPTION();
 833:..\..\..\..\..\..\uCOS-III\Source/os_flag.c ****         return ((OS_FLAGS)0);
 834:..\..\..\..\..\..\uCOS-III\Source/os_flag.c ****     }
 835:..\..\..\..\..\..\uCOS-III\Source/os_flag.c **** #endif
 836:..\..\..\..\..\..\uCOS-III\Source/os_flag.c **** 
 837:..\..\..\..\..\..\uCOS-III\Source/os_flag.c **** #if OS_CFG_ARG_CHK_EN > 0u
 838:..\..\..\..\..\..\uCOS-III\Source/os_flag.c ****     if (p_grp == (OS_FLAG_GRP *)0) {                        /* Validate 'p_grp'                    
 1377              		.loc 1 838 0
ARM GAS  C:\Users\alex\AppData\Local\Temp\cc9CNbDG.s 			page 40


 1378 0010 FB68     		ldr	r3, [r7, #12]
 1379 0012 002B     		cmp	r3, #0
 1380 0014 05D1     		bne	.L114
 839:..\..\..\..\..\..\uCOS-III\Source/os_flag.c ****        *p_err  = OS_ERR_OBJ_PTR_NULL;
 1381              		.loc 1 839 0
 1382 0016 3B68     		ldr	r3, [r7]
 1383 0018 45F6C352 		movw	r2, #24003
 1384 001c 1A80     		strh	r2, [r3]	@ movhi
 840:..\..\..\..\..\..\uCOS-III\Source/os_flag.c ****         return ((OS_FLAGS)0);
 1385              		.loc 1 840 0
 1386 001e 0023     		movs	r3, #0
 1387 0020 1CE0     		b	.L115
 1388              	.L114:
 841:..\..\..\..\..\..\uCOS-III\Source/os_flag.c ****     }
 842:..\..\..\..\..\..\uCOS-III\Source/os_flag.c ****     switch (opt) {                                          /* Validate 'opt'                      
 1389              		.loc 1 842 0
 1390 0022 FB88     		ldrh	r3, [r7, #6]
 1391 0024 002B     		cmp	r3, #0
 1392 0026 05DB     		blt	.L116
 1393 0028 012B     		cmp	r3, #1
 1394 002a 09DD     		ble	.L119
 1395 002c A3F50043 		sub	r3, r3, #32768
 1396 0030 012B     		cmp	r3, #1
 1397 0032 05D9     		bls	.L119
 1398              	.L116:
 843:..\..\..\..\..\..\uCOS-III\Source/os_flag.c ****         case OS_OPT_POST_FLAG_SET:
 844:..\..\..\..\..\..\uCOS-III\Source/os_flag.c ****         case OS_OPT_POST_FLAG_CLR:
 845:..\..\..\..\..\..\uCOS-III\Source/os_flag.c ****         case OS_OPT_POST_FLAG_SET | OS_OPT_POST_NO_SCHED:
 846:..\..\..\..\..\..\uCOS-III\Source/os_flag.c ****         case OS_OPT_POST_FLAG_CLR | OS_OPT_POST_NO_SCHED:
 847:..\..\..\..\..\..\uCOS-III\Source/os_flag.c ****              break;
 848:..\..\..\..\..\..\uCOS-III\Source/os_flag.c **** 
 849:..\..\..\..\..\..\uCOS-III\Source/os_flag.c ****         default:
 850:..\..\..\..\..\..\uCOS-III\Source/os_flag.c ****             *p_err = OS_ERR_OPT_INVALID;
 1399              		.loc 1 850 0
 1400 0034 3B68     		ldr	r3, [r7]
 1401 0036 45F62562 		movw	r2, #24101
 1402 003a 1A80     		strh	r2, [r3]	@ movhi
 851:..\..\..\..\..\..\uCOS-III\Source/os_flag.c ****              return ((OS_FLAGS)0);
 1403              		.loc 1 851 0
 1404 003c 0023     		movs	r3, #0
 1405 003e 0DE0     		b	.L115
 1406              	.L119:
 847:..\..\..\..\..\..\uCOS-III\Source/os_flag.c **** 
 1407              		.loc 1 847 0
 1408 0040 00BF     		nop
 852:..\..\..\..\..\..\uCOS-III\Source/os_flag.c ****     }
 853:..\..\..\..\..\..\uCOS-III\Source/os_flag.c **** #endif
 854:..\..\..\..\..\..\uCOS-III\Source/os_flag.c **** 
 855:..\..\..\..\..\..\uCOS-III\Source/os_flag.c **** #if OS_CFG_OBJ_TYPE_CHK_EN > 0u
 856:..\..\..\..\..\..\uCOS-III\Source/os_flag.c ****     if (p_grp->Type != OS_OBJ_TYPE_FLAG) {                  /* Make sure we are pointing to an even
 857:..\..\..\..\..\..\uCOS-III\Source/os_flag.c ****        *p_err = OS_ERR_OBJ_TYPE;
 858:..\..\..\..\..\..\uCOS-III\Source/os_flag.c ****         return ((OS_FLAGS)0);
 859:..\..\..\..\..\..\uCOS-III\Source/os_flag.c ****     }
 860:..\..\..\..\..\..\uCOS-III\Source/os_flag.c **** #endif
 861:..\..\..\..\..\..\uCOS-III\Source/os_flag.c **** 
 862:..\..\..\..\..\..\uCOS-III\Source/os_flag.c ****     ts = OS_TS_GET();                                       /* Get timestamp                       
 1409              		.loc 1 862 0
ARM GAS  C:\Users\alex\AppData\Local\Temp\cc9CNbDG.s 			page 41


 1410 0042 FFF7FEFF 		bl	CPU_TS_TmrRd
 1411 0046 7861     		str	r0, [r7, #20]
 863:..\..\..\..\..\..\uCOS-III\Source/os_flag.c **** #if OS_CFG_ISR_POST_DEFERRED_EN > 0u
 864:..\..\..\..\..\..\uCOS-III\Source/os_flag.c ****     if (OSIntNestingCtr > (OS_NESTING_CTR)0) {              /* See if called from an ISR           
 865:..\..\..\..\..\..\uCOS-III\Source/os_flag.c ****         OS_IntQPost((OS_OBJ_TYPE)OS_OBJ_TYPE_FLAG,          /* Post to ISR queue                   
 866:..\..\..\..\..\..\uCOS-III\Source/os_flag.c ****                     (void      *)p_grp,
 867:..\..\..\..\..\..\uCOS-III\Source/os_flag.c ****                     (void      *)0,
 868:..\..\..\..\..\..\uCOS-III\Source/os_flag.c ****                     (OS_MSG_SIZE)0,
 869:..\..\..\..\..\..\uCOS-III\Source/os_flag.c ****                     (OS_FLAGS   )flags,
 870:..\..\..\..\..\..\uCOS-III\Source/os_flag.c ****                     (OS_OPT     )opt,
 871:..\..\..\..\..\..\uCOS-III\Source/os_flag.c ****                     (CPU_TS     )ts,
 872:..\..\..\..\..\..\uCOS-III\Source/os_flag.c ****                     (OS_ERR    *)p_err);
 873:..\..\..\..\..\..\uCOS-III\Source/os_flag.c ****         return ((OS_FLAGS)0);
 874:..\..\..\..\..\..\uCOS-III\Source/os_flag.c ****     }
 875:..\..\..\..\..\..\uCOS-III\Source/os_flag.c **** #endif
 876:..\..\..\..\..\..\uCOS-III\Source/os_flag.c **** 
 877:..\..\..\..\..\..\uCOS-III\Source/os_flag.c ****     flags_cur = OS_FlagPost(p_grp,
 1412              		.loc 1 877 0
 1413 0048 FA88     		ldrh	r2, [r7, #6]
 1414 004a 3B68     		ldr	r3, [r7]
 1415 004c 0093     		str	r3, [sp]
 1416 004e 7B69     		ldr	r3, [r7, #20]
 1417 0050 B968     		ldr	r1, [r7, #8]
 1418 0052 F868     		ldr	r0, [r7, #12]
 1419 0054 FFF7FEFF 		bl	OS_FlagPost
 1420 0058 3861     		str	r0, [r7, #16]
 878:..\..\..\..\..\..\uCOS-III\Source/os_flag.c ****                             flags,
 879:..\..\..\..\..\..\uCOS-III\Source/os_flag.c ****                             opt,
 880:..\..\..\..\..\..\uCOS-III\Source/os_flag.c ****                             ts,
 881:..\..\..\..\..\..\uCOS-III\Source/os_flag.c ****                             p_err);
 882:..\..\..\..\..\..\uCOS-III\Source/os_flag.c **** 
 883:..\..\..\..\..\..\uCOS-III\Source/os_flag.c ****     return (flags_cur);
 1421              		.loc 1 883 0
 1422 005a 3B69     		ldr	r3, [r7, #16]
 1423              	.L115:
 884:..\..\..\..\..\..\uCOS-III\Source/os_flag.c **** }
 1424              		.loc 1 884 0
 1425 005c 1846     		mov	r0, r3
 1426 005e 1837     		adds	r7, r7, #24
 1427              		.cfi_def_cfa_offset 8
 1428 0060 BD46     		mov	sp, r7
 1429              		.cfi_def_cfa_register 13
 1430              		@ sp needed
 1431 0062 80BD     		pop	{r7, pc}
 1432              		.cfi_endproc
 1433              	.LFE5:
 1434              		.size	OSFlagPost, .-OSFlagPost
 1435              		.section	.text.OS_FlagBlock,"ax",%progbits
 1436              		.align	2
 1437              		.global	OS_FlagBlock
 1438              		.thumb
 1439              		.thumb_func
 1440              		.type	OS_FlagBlock, %function
 1441              	OS_FlagBlock:
 1442              	.LFB6:
 885:..\..\..\..\..\..\uCOS-III\Source/os_flag.c **** 
 886:..\..\..\..\..\..\uCOS-III\Source/os_flag.c **** /*$PAGE*/
ARM GAS  C:\Users\alex\AppData\Local\Temp\cc9CNbDG.s 			page 42


 887:..\..\..\..\..\..\uCOS-III\Source/os_flag.c **** /*
 888:..\..\..\..\..\..\uCOS-III\Source/os_flag.c **** ***************************************************************************************************
 889:..\..\..\..\..\..\uCOS-III\Source/os_flag.c **** *                         SUSPEND TASK UNTIL EVENT FLAG(s) RECEIVED OR TIMEOUT OCCURS
 890:..\..\..\..\..\..\uCOS-III\Source/os_flag.c **** *
 891:..\..\..\..\..\..\uCOS-III\Source/os_flag.c **** * Description: This function is internal to uC/OS-III and is used to put a task to sleep until the 
 892:..\..\..\..\..\..\uCOS-III\Source/os_flag.c **** *              event flag bit(s) are set.
 893:..\..\..\..\..\..\uCOS-III\Source/os_flag.c **** *
 894:..\..\..\..\..\..\uCOS-III\Source/os_flag.c **** * Arguments  : p_pend_data    is a pointer to an object used to link the task being blocked to the 
 895:..\..\..\..\..\..\uCOS-III\Source/os_flag.c **** *              -----------    pending on the desired event flag group.
 896:..\..\..\..\..\..\uCOS-III\Source/os_flag.c **** *
 897:..\..\..\..\..\..\uCOS-III\Source/os_flag.c **** *              p_grp         is a pointer to the desired event flag group.
 898:..\..\..\..\..\..\uCOS-III\Source/os_flag.c **** *              -----
 899:..\..\..\..\..\..\uCOS-III\Source/os_flag.c **** *
 900:..\..\..\..\..\..\uCOS-III\Source/os_flag.c **** *              flags         Is a bit pattern indicating which bit(s) (i.e. flags) you wish to chec
 901:..\..\..\..\..\..\uCOS-III\Source/os_flag.c **** *                            The bits you want are specified by setting the corresponding bits in
 902:..\..\..\..\..\..\uCOS-III\Source/os_flag.c **** *                            'flags'.  e.g. if your application wants to wait for bits 0 and 1 then
 903:..\..\..\..\..\..\uCOS-III\Source/os_flag.c **** *                            'flags' would contain 0x03.
 904:..\..\..\..\..\..\uCOS-III\Source/os_flag.c **** *
 905:..\..\..\..\..\..\uCOS-III\Source/os_flag.c **** *              opt           specifies whether you want ALL bits to be set/cleared or ANY of the bi
 906:..\..\..\..\..\..\uCOS-III\Source/os_flag.c **** *                            to be set/cleared.
 907:..\..\..\..\..\..\uCOS-III\Source/os_flag.c **** *                            You can specify the following argument:
 908:..\..\..\..\..\..\uCOS-III\Source/os_flag.c **** *
 909:..\..\..\..\..\..\uCOS-III\Source/os_flag.c **** *                                OS_OPT_PEND_FLAG_CLR_ALL   You will check ALL bits in 'mask' to be
 910:..\..\..\..\..\..\uCOS-III\Source/os_flag.c **** *                                OS_OPT_PEND_FLAG_CLR_ANY   You will check ANY bit  in 'mask' to be
 911:..\..\..\..\..\..\uCOS-III\Source/os_flag.c **** *                                OS_OPT_PEND_FLAG_SET_ALL   You will check ALL bits in 'mask' to be
 912:..\..\..\..\..\..\uCOS-III\Source/os_flag.c **** *                                OS_OPT_PEND_FLAG_SET_ANY   You will check ANY bit  in 'mask' to be
 913:..\..\..\..\..\..\uCOS-III\Source/os_flag.c **** *
 914:..\..\..\..\..\..\uCOS-III\Source/os_flag.c **** *              timeout       is the desired amount of time that the task will wait for the event fl
 915:..\..\..\..\..\..\uCOS-III\Source/os_flag.c **** *                            bit(s) to be set.
 916:..\..\..\..\..\..\uCOS-III\Source/os_flag.c **** *
 917:..\..\..\..\..\..\uCOS-III\Source/os_flag.c **** * Returns    : none
 918:..\..\..\..\..\..\uCOS-III\Source/os_flag.c **** *
 919:..\..\..\..\..\..\uCOS-III\Source/os_flag.c **** * Note(s)    : This function is INTERNAL to uC/OS-III and your application should not call it.
 920:..\..\..\..\..\..\uCOS-III\Source/os_flag.c **** ***************************************************************************************************
 921:..\..\..\..\..\..\uCOS-III\Source/os_flag.c **** */
 922:..\..\..\..\..\..\uCOS-III\Source/os_flag.c **** 
 923:..\..\..\..\..\..\uCOS-III\Source/os_flag.c **** void  OS_FlagBlock (OS_PEND_DATA  *p_pend_data,
 924:..\..\..\..\..\..\uCOS-III\Source/os_flag.c ****                     OS_FLAG_GRP   *p_grp,
 925:..\..\..\..\..\..\uCOS-III\Source/os_flag.c ****                     OS_FLAGS       flags,
 926:..\..\..\..\..\..\uCOS-III\Source/os_flag.c ****                     OS_OPT         opt,
 927:..\..\..\..\..\..\uCOS-III\Source/os_flag.c ****                     OS_TICK        timeout)
 928:..\..\..\..\..\..\uCOS-III\Source/os_flag.c **** {
 1443              		.loc 1 928 0
 1444              		.cfi_startproc
 1445              		@ args = 4, pretend = 0, frame = 16
 1446              		@ frame_needed = 1, uses_anonymous_args = 0
 1447 0000 80B5     		push	{r7, lr}
 1448              		.cfi_def_cfa_offset 8
 1449              		.cfi_offset 7, -8
 1450              		.cfi_offset 14, -4
 1451 0002 84B0     		sub	sp, sp, #16
 1452              		.cfi_def_cfa_offset 24
 1453 0004 00AF     		add	r7, sp, #0
 1454              		.cfi_def_cfa_register 7
 1455 0006 F860     		str	r0, [r7, #12]
 1456 0008 B960     		str	r1, [r7, #8]
 1457 000a 7A60     		str	r2, [r7, #4]
ARM GAS  C:\Users\alex\AppData\Local\Temp\cc9CNbDG.s 			page 43


 1458 000c 7B80     		strh	r3, [r7, #2]	@ movhi
 929:..\..\..\..\..\..\uCOS-III\Source/os_flag.c ****     OSTCBCurPtr->FlagsPend = flags;                         /* Save the flags that we need to wait 
 1459              		.loc 1 929 0
 1460 000e 0C4B     		ldr	r3, .L121
 1461 0010 1B68     		ldr	r3, [r3]
 1462 0012 7A68     		ldr	r2, [r7, #4]
 1463 0014 C3F88020 		str	r2, [r3, #128]
 930:..\..\..\..\..\..\uCOS-III\Source/os_flag.c ****     OSTCBCurPtr->FlagsOpt  = opt;                           /* Save the type of wait we are doing  
 1464              		.loc 1 930 0
 1465 0018 094B     		ldr	r3, .L121
 1466 001a 1B68     		ldr	r3, [r3]
 1467 001c 7A88     		ldrh	r2, [r7, #2]	@ movhi
 1468 001e A3F88820 		strh	r2, [r3, #136]	@ movhi
 931:..\..\..\..\..\..\uCOS-III\Source/os_flag.c ****     OSTCBCurPtr->FlagsRdy  = (OS_FLAGS)0;
 1469              		.loc 1 931 0
 1470 0022 074B     		ldr	r3, .L121
 1471 0024 1B68     		ldr	r3, [r3]
 1472 0026 0022     		movs	r2, #0
 1473 0028 C3F88420 		str	r2, [r3, #132]
 932:..\..\..\..\..\..\uCOS-III\Source/os_flag.c **** 
 933:..\..\..\..\..\..\uCOS-III\Source/os_flag.c ****     OS_Pend(p_pend_data,
 1474              		.loc 1 933 0
 1475 002c BB69     		ldr	r3, [r7, #24]
 1476 002e 0122     		movs	r2, #1
 1477 0030 B968     		ldr	r1, [r7, #8]
 1478 0032 F868     		ldr	r0, [r7, #12]
 1479 0034 FFF7FEFF 		bl	OS_Pend
 934:..\..\..\..\..\..\uCOS-III\Source/os_flag.c ****             (OS_PEND_OBJ *)((void *)p_grp),
 935:..\..\..\..\..\..\uCOS-III\Source/os_flag.c ****              OS_TASK_PEND_ON_FLAG,
 936:..\..\..\..\..\..\uCOS-III\Source/os_flag.c ****              timeout);
 937:..\..\..\..\..\..\uCOS-III\Source/os_flag.c **** }
 1480              		.loc 1 937 0
 1481 0038 00BF     		nop
 1482 003a 1037     		adds	r7, r7, #16
 1483              		.cfi_def_cfa_offset 8
 1484 003c BD46     		mov	sp, r7
 1485              		.cfi_def_cfa_register 13
 1486              		@ sp needed
 1487 003e 80BD     		pop	{r7, pc}
 1488              	.L122:
 1489              		.align	2
 1490              	.L121:
 1491 0040 00000000 		.word	OSTCBCurPtr
 1492              		.cfi_endproc
 1493              	.LFE6:
 1494              		.size	OS_FlagBlock, .-OS_FlagBlock
 1495              		.section	.rodata
 1496              		.align	2
 1497              	.LC0:
 1498 0000 3F464C41 		.ascii	"?FLAG\000"
 1498      4700
 1499              		.section	.text.OS_FlagClr,"ax",%progbits
 1500              		.align	2
 1501              		.global	OS_FlagClr
 1502              		.thumb
 1503              		.thumb_func
 1504              		.type	OS_FlagClr, %function
ARM GAS  C:\Users\alex\AppData\Local\Temp\cc9CNbDG.s 			page 44


 1505              	OS_FlagClr:
 1506              	.LFB7:
 938:..\..\..\..\..\..\uCOS-III\Source/os_flag.c **** 
 939:..\..\..\..\..\..\uCOS-III\Source/os_flag.c **** /*$PAGE*/
 940:..\..\..\..\..\..\uCOS-III\Source/os_flag.c **** /*
 941:..\..\..\..\..\..\uCOS-III\Source/os_flag.c **** ***************************************************************************************************
 942:..\..\..\..\..\..\uCOS-III\Source/os_flag.c **** *                                      CLEAR THE CONTENTS OF AN EVENT FLAG GROUP
 943:..\..\..\..\..\..\uCOS-III\Source/os_flag.c **** *
 944:..\..\..\..\..\..\uCOS-III\Source/os_flag.c **** * Description: This function is called by OSFlagDel() to clear the contents of an event flag group
 945:..\..\..\..\..\..\uCOS-III\Source/os_flag.c **** *
 946:..\..\..\..\..\..\uCOS-III\Source/os_flag.c **** 
 947:..\..\..\..\..\..\uCOS-III\Source/os_flag.c **** * Argument(s): p_grp     is a pointer to the event flag group to clear
 948:..\..\..\..\..\..\uCOS-III\Source/os_flag.c **** *              -----
 949:..\..\..\..\..\..\uCOS-III\Source/os_flag.c **** *
 950:..\..\..\..\..\..\uCOS-III\Source/os_flag.c **** * Returns    : none
 951:..\..\..\..\..\..\uCOS-III\Source/os_flag.c **** *
 952:..\..\..\..\..\..\uCOS-III\Source/os_flag.c **** * Note(s)    : This function is INTERNAL to uC/OS-III and your application should not call it.
 953:..\..\..\..\..\..\uCOS-III\Source/os_flag.c **** ***************************************************************************************************
 954:..\..\..\..\..\..\uCOS-III\Source/os_flag.c **** */
 955:..\..\..\..\..\..\uCOS-III\Source/os_flag.c **** 
 956:..\..\..\..\..\..\uCOS-III\Source/os_flag.c **** void  OS_FlagClr (OS_FLAG_GRP  *p_grp)
 957:..\..\..\..\..\..\uCOS-III\Source/os_flag.c **** {
 1507              		.loc 1 957 0
 1508              		.cfi_startproc
 1509              		@ args = 0, pretend = 0, frame = 16
 1510              		@ frame_needed = 1, uses_anonymous_args = 0
 1511 0000 80B5     		push	{r7, lr}
 1512              		.cfi_def_cfa_offset 8
 1513              		.cfi_offset 7, -8
 1514              		.cfi_offset 14, -4
 1515 0002 84B0     		sub	sp, sp, #16
 1516              		.cfi_def_cfa_offset 24
 1517 0004 00AF     		add	r7, sp, #0
 1518              		.cfi_def_cfa_register 7
 1519 0006 7860     		str	r0, [r7, #4]
 958:..\..\..\..\..\..\uCOS-III\Source/os_flag.c ****     OS_PEND_LIST  *p_pend_list;
 959:..\..\..\..\..\..\uCOS-III\Source/os_flag.c **** 
 960:..\..\..\..\..\..\uCOS-III\Source/os_flag.c **** 
 961:..\..\..\..\..\..\uCOS-III\Source/os_flag.c **** 
 962:..\..\..\..\..\..\uCOS-III\Source/os_flag.c ****     p_grp->Type             = OS_OBJ_TYPE_NONE;
 1520              		.loc 1 962 0
 1521 0008 7B68     		ldr	r3, [r7, #4]
 1522 000a 094A     		ldr	r2, .L124
 1523 000c 1A60     		str	r2, [r3]
 963:..\..\..\..\..\..\uCOS-III\Source/os_flag.c ****     p_grp->NamePtr          = (CPU_CHAR *)((void *)"?FLAG");    /* Unknown name                    
 1524              		.loc 1 963 0
 1525 000e 7B68     		ldr	r3, [r7, #4]
 1526 0010 084A     		ldr	r2, .L124+4
 1527 0012 5A60     		str	r2, [r3, #4]
 964:..\..\..\..\..\..\uCOS-III\Source/os_flag.c ****     p_grp->Flags            = (OS_FLAGS )0;
 1528              		.loc 1 964 0
 1529 0014 7B68     		ldr	r3, [r7, #4]
 1530 0016 0022     		movs	r2, #0
 1531 0018 1A62     		str	r2, [r3, #32]
 965:..\..\..\..\..\..\uCOS-III\Source/os_flag.c ****     p_pend_list             = &p_grp->PendList;
 1532              		.loc 1 965 0
 1533 001a 7B68     		ldr	r3, [r7, #4]
ARM GAS  C:\Users\alex\AppData\Local\Temp\cc9CNbDG.s 			page 45


 1534 001c 0833     		adds	r3, r3, #8
 1535 001e FB60     		str	r3, [r7, #12]
 966:..\..\..\..\..\..\uCOS-III\Source/os_flag.c ****     OS_PendListInit(p_pend_list);
 1536              		.loc 1 966 0
 1537 0020 F868     		ldr	r0, [r7, #12]
 1538 0022 FFF7FEFF 		bl	OS_PendListInit
 967:..\..\..\..\..\..\uCOS-III\Source/os_flag.c **** }
 1539              		.loc 1 967 0
 1540 0026 00BF     		nop
 1541 0028 1037     		adds	r7, r7, #16
 1542              		.cfi_def_cfa_offset 8
 1543 002a BD46     		mov	sp, r7
 1544              		.cfi_def_cfa_register 13
 1545              		@ sp needed
 1546 002c 80BD     		pop	{r7, pc}
 1547              	.L125:
 1548 002e 00BF     		.align	2
 1549              	.L124:
 1550 0030 4E4F4E45 		.word	1162760014
 1551 0034 00000000 		.word	.LC0
 1552              		.cfi_endproc
 1553              	.LFE7:
 1554              		.size	OS_FlagClr, .-OS_FlagClr
 1555              		.section	.text.OS_FlagInit,"ax",%progbits
 1556              		.align	2
 1557              		.global	OS_FlagInit
 1558              		.thumb
 1559              		.thumb_func
 1560              		.type	OS_FlagInit, %function
 1561              	OS_FlagInit:
 1562              	.LFB8:
 968:..\..\..\..\..\..\uCOS-III\Source/os_flag.c **** 
 969:..\..\..\..\..\..\uCOS-III\Source/os_flag.c **** /*$PAGE*/
 970:..\..\..\..\..\..\uCOS-III\Source/os_flag.c **** /*
 971:..\..\..\..\..\..\uCOS-III\Source/os_flag.c **** ***************************************************************************************************
 972:..\..\..\..\..\..\uCOS-III\Source/os_flag.c **** *                                          INITIALIZE THE EVENT FLAG MODULE
 973:..\..\..\..\..\..\uCOS-III\Source/os_flag.c **** *
 974:..\..\..\..\..\..\uCOS-III\Source/os_flag.c **** * Description: This function is called by uC/OS-III to initialize the event flag module.  Your appl
 975:..\..\..\..\..\..\uCOS-III\Source/os_flag.c **** *              this function.  In other words, this function is internal to uC/OS-III.
 976:..\..\..\..\..\..\uCOS-III\Source/os_flag.c **** *
 977:..\..\..\..\..\..\uCOS-III\Source/os_flag.c **** * Arguments  : p_err     is a pointer to an error code that can contain one of the following values
 978:..\..\..\..\..\..\uCOS-III\Source/os_flag.c **** *
 979:..\..\..\..\..\..\uCOS-III\Source/os_flag.c **** *                            OS_ERR_NONE   The call was successful.
 980:..\..\..\..\..\..\uCOS-III\Source/os_flag.c **** *
 981:..\..\..\..\..\..\uCOS-III\Source/os_flag.c **** * Returns    : none
 982:..\..\..\..\..\..\uCOS-III\Source/os_flag.c **** *
 983:..\..\..\..\..\..\uCOS-III\Source/os_flag.c **** * Note(s)    : This function is INTERNAL to uC/OS-III and your application should not call it.
 984:..\..\..\..\..\..\uCOS-III\Source/os_flag.c **** ***************************************************************************************************
 985:..\..\..\..\..\..\uCOS-III\Source/os_flag.c **** */
 986:..\..\..\..\..\..\uCOS-III\Source/os_flag.c **** 
 987:..\..\..\..\..\..\uCOS-III\Source/os_flag.c **** void  OS_FlagInit (OS_ERR  *p_err)
 988:..\..\..\..\..\..\uCOS-III\Source/os_flag.c **** {
 1563              		.loc 1 988 0
 1564              		.cfi_startproc
 1565              		@ args = 0, pretend = 0, frame = 8
 1566              		@ frame_needed = 1, uses_anonymous_args = 0
 1567              		@ link register save eliminated.
ARM GAS  C:\Users\alex\AppData\Local\Temp\cc9CNbDG.s 			page 46


 1568 0000 80B4     		push	{r7}
 1569              		.cfi_def_cfa_offset 4
 1570              		.cfi_offset 7, -4
 1571 0002 83B0     		sub	sp, sp, #12
 1572              		.cfi_def_cfa_offset 16
 1573 0004 00AF     		add	r7, sp, #0
 1574              		.cfi_def_cfa_register 7
 1575 0006 7860     		str	r0, [r7, #4]
 989:..\..\..\..\..\..\uCOS-III\Source/os_flag.c **** #ifdef OS_SAFETY_CRITICAL
 990:..\..\..\..\..\..\uCOS-III\Source/os_flag.c ****     if (p_err == (OS_ERR *)0) {
 991:..\..\..\..\..\..\uCOS-III\Source/os_flag.c ****         OS_SAFETY_CRITICAL_EXCEPTION();
 992:..\..\..\..\..\..\uCOS-III\Source/os_flag.c ****         return;
 993:..\..\..\..\..\..\uCOS-III\Source/os_flag.c ****     }
 994:..\..\..\..\..\..\uCOS-III\Source/os_flag.c **** #endif
 995:..\..\..\..\..\..\uCOS-III\Source/os_flag.c **** 
 996:..\..\..\..\..\..\uCOS-III\Source/os_flag.c **** #if OS_CFG_DBG_EN > 0u
 997:..\..\..\..\..\..\uCOS-III\Source/os_flag.c ****     OSFlagDbgListPtr = (OS_FLAG_GRP *)0;
 1576              		.loc 1 997 0
 1577 0008 064B     		ldr	r3, .L127
 1578 000a 0022     		movs	r2, #0
 1579 000c 1A60     		str	r2, [r3]
 998:..\..\..\..\..\..\uCOS-III\Source/os_flag.c **** #endif
 999:..\..\..\..\..\..\uCOS-III\Source/os_flag.c **** 
1000:..\..\..\..\..\..\uCOS-III\Source/os_flag.c ****     OSFlagQty        = (OS_OBJ_QTY   )0;
 1580              		.loc 1 1000 0
 1581 000e 064B     		ldr	r3, .L127+4
 1582 0010 0022     		movs	r2, #0
 1583 0012 1A80     		strh	r2, [r3]	@ movhi
1001:..\..\..\..\..\..\uCOS-III\Source/os_flag.c ****    *p_err            = OS_ERR_NONE;
 1584              		.loc 1 1001 0
 1585 0014 7B68     		ldr	r3, [r7, #4]
 1586 0016 0022     		movs	r2, #0
 1587 0018 1A80     		strh	r2, [r3]	@ movhi
1002:..\..\..\..\..\..\uCOS-III\Source/os_flag.c **** }
 1588              		.loc 1 1002 0
 1589 001a 00BF     		nop
 1590 001c 0C37     		adds	r7, r7, #12
 1591              		.cfi_def_cfa_offset 4
 1592 001e BD46     		mov	sp, r7
 1593              		.cfi_def_cfa_register 13
 1594              		@ sp needed
 1595 0020 80BC     		pop	{r7}
 1596              		.cfi_restore 7
 1597              		.cfi_def_cfa_offset 0
 1598 0022 7047     		bx	lr
 1599              	.L128:
 1600              		.align	2
 1601              	.L127:
 1602 0024 00000000 		.word	OSFlagDbgListPtr
 1603 0028 00000000 		.word	OSFlagQty
 1604              		.cfi_endproc
 1605              	.LFE8:
 1606              		.size	OS_FlagInit, .-OS_FlagInit
 1607              		.section	.rodata
 1608 0006 0000     		.align	2
 1609              	.LC1:
 1610 0008 2000     		.ascii	" \000"
ARM GAS  C:\Users\alex\AppData\Local\Temp\cc9CNbDG.s 			page 47


 1611              		.section	.text.OS_FlagDbgListAdd,"ax",%progbits
 1612              		.align	2
 1613              		.global	OS_FlagDbgListAdd
 1614              		.thumb
 1615              		.thumb_func
 1616              		.type	OS_FlagDbgListAdd, %function
 1617              	OS_FlagDbgListAdd:
 1618              	.LFB9:
1003:..\..\..\..\..\..\uCOS-III\Source/os_flag.c **** 
1004:..\..\..\..\..\..\uCOS-III\Source/os_flag.c **** /*$PAGE*/
1005:..\..\..\..\..\..\uCOS-III\Source/os_flag.c **** /*
1006:..\..\..\..\..\..\uCOS-III\Source/os_flag.c **** ***************************************************************************************************
1007:..\..\..\..\..\..\uCOS-III\Source/os_flag.c **** *                                    ADD/REMOVE EVENT FLAG GROUP TO/FROM DEBUG LIST
1008:..\..\..\..\..\..\uCOS-III\Source/os_flag.c **** *
1009:..\..\..\..\..\..\uCOS-III\Source/os_flag.c **** * Description: These functions are called by uC/OS-III to add or remove an event flag group from th
1010:..\..\..\..\..\..\uCOS-III\Source/os_flag.c **** *              list.
1011:..\..\..\..\..\..\uCOS-III\Source/os_flag.c **** *
1012:..\..\..\..\..\..\uCOS-III\Source/os_flag.c **** * Arguments  : p_grp     is a pointer to the event flag group to add/remove
1013:..\..\..\..\..\..\uCOS-III\Source/os_flag.c **** *
1014:..\..\..\..\..\..\uCOS-III\Source/os_flag.c **** * Returns    : none
1015:..\..\..\..\..\..\uCOS-III\Source/os_flag.c **** *
1016:..\..\..\..\..\..\uCOS-III\Source/os_flag.c **** * Note(s)    : These functions are INTERNAL to uC/OS-III and your application should not call it.
1017:..\..\..\..\..\..\uCOS-III\Source/os_flag.c **** ***************************************************************************************************
1018:..\..\..\..\..\..\uCOS-III\Source/os_flag.c **** */
1019:..\..\..\..\..\..\uCOS-III\Source/os_flag.c **** 
1020:..\..\..\..\..\..\uCOS-III\Source/os_flag.c **** #if OS_CFG_DBG_EN > 0u
1021:..\..\..\..\..\..\uCOS-III\Source/os_flag.c **** void  OS_FlagDbgListAdd (OS_FLAG_GRP  *p_grp)
1022:..\..\..\..\..\..\uCOS-III\Source/os_flag.c **** {
 1619              		.loc 1 1022 0
 1620              		.cfi_startproc
 1621              		@ args = 0, pretend = 0, frame = 8
 1622              		@ frame_needed = 1, uses_anonymous_args = 0
 1623              		@ link register save eliminated.
 1624 0000 80B4     		push	{r7}
 1625              		.cfi_def_cfa_offset 4
 1626              		.cfi_offset 7, -4
 1627 0002 83B0     		sub	sp, sp, #12
 1628              		.cfi_def_cfa_offset 16
 1629 0004 00AF     		add	r7, sp, #0
 1630              		.cfi_def_cfa_register 7
 1631 0006 7860     		str	r0, [r7, #4]
1023:..\..\..\..\..\..\uCOS-III\Source/os_flag.c ****     p_grp->DbgNamePtr                = (CPU_CHAR    *)((void *)" ");
 1632              		.loc 1 1023 0
 1633 0008 7B68     		ldr	r3, [r7, #4]
 1634 000a 0E4A     		ldr	r2, .L132
 1635 000c DA61     		str	r2, [r3, #28]
1024:..\..\..\..\..\..\uCOS-III\Source/os_flag.c ****     p_grp->DbgPrevPtr                = (OS_FLAG_GRP *)0;
 1636              		.loc 1 1024 0
 1637 000e 7B68     		ldr	r3, [r7, #4]
 1638 0010 0022     		movs	r2, #0
 1639 0012 5A61     		str	r2, [r3, #20]
1025:..\..\..\..\..\..\uCOS-III\Source/os_flag.c ****     if (OSFlagDbgListPtr == (OS_FLAG_GRP *)0) {
 1640              		.loc 1 1025 0
 1641 0014 0C4B     		ldr	r3, .L132+4
 1642 0016 1B68     		ldr	r3, [r3]
 1643 0018 002B     		cmp	r3, #0
 1644 001a 03D1     		bne	.L130
ARM GAS  C:\Users\alex\AppData\Local\Temp\cc9CNbDG.s 			page 48


1026:..\..\..\..\..\..\uCOS-III\Source/os_flag.c ****         p_grp->DbgNextPtr            = (OS_FLAG_GRP *)0;
 1645              		.loc 1 1026 0
 1646 001c 7B68     		ldr	r3, [r7, #4]
 1647 001e 0022     		movs	r2, #0
 1648 0020 9A61     		str	r2, [r3, #24]
 1649 0022 07E0     		b	.L131
 1650              	.L130:
1027:..\..\..\..\..\..\uCOS-III\Source/os_flag.c ****     } else {
1028:..\..\..\..\..\..\uCOS-III\Source/os_flag.c ****         p_grp->DbgNextPtr            =  OSFlagDbgListPtr;
 1651              		.loc 1 1028 0
 1652 0024 084B     		ldr	r3, .L132+4
 1653 0026 1A68     		ldr	r2, [r3]
 1654 0028 7B68     		ldr	r3, [r7, #4]
 1655 002a 9A61     		str	r2, [r3, #24]
1029:..\..\..\..\..\..\uCOS-III\Source/os_flag.c ****         OSFlagDbgListPtr->DbgPrevPtr =  p_grp;
 1656              		.loc 1 1029 0
 1657 002c 064B     		ldr	r3, .L132+4
 1658 002e 1B68     		ldr	r3, [r3]
 1659 0030 7A68     		ldr	r2, [r7, #4]
 1660 0032 5A61     		str	r2, [r3, #20]
 1661              	.L131:
1030:..\..\..\..\..\..\uCOS-III\Source/os_flag.c ****     }
1031:..\..\..\..\..\..\uCOS-III\Source/os_flag.c ****     OSFlagDbgListPtr                 =  p_grp;
 1662              		.loc 1 1031 0
 1663 0034 044A     		ldr	r2, .L132+4
 1664 0036 7B68     		ldr	r3, [r7, #4]
 1665 0038 1360     		str	r3, [r2]
1032:..\..\..\..\..\..\uCOS-III\Source/os_flag.c **** }
 1666              		.loc 1 1032 0
 1667 003a 00BF     		nop
 1668 003c 0C37     		adds	r7, r7, #12
 1669              		.cfi_def_cfa_offset 4
 1670 003e BD46     		mov	sp, r7
 1671              		.cfi_def_cfa_register 13
 1672              		@ sp needed
 1673 0040 80BC     		pop	{r7}
 1674              		.cfi_restore 7
 1675              		.cfi_def_cfa_offset 0
 1676 0042 7047     		bx	lr
 1677              	.L133:
 1678              		.align	2
 1679              	.L132:
 1680 0044 08000000 		.word	.LC1
 1681 0048 00000000 		.word	OSFlagDbgListPtr
 1682              		.cfi_endproc
 1683              	.LFE9:
 1684              		.size	OS_FlagDbgListAdd, .-OS_FlagDbgListAdd
 1685              		.section	.text.OS_FlagDbgListRemove,"ax",%progbits
 1686              		.align	2
 1687              		.global	OS_FlagDbgListRemove
 1688              		.thumb
 1689              		.thumb_func
 1690              		.type	OS_FlagDbgListRemove, %function
 1691              	OS_FlagDbgListRemove:
 1692              	.LFB10:
1033:..\..\..\..\..\..\uCOS-III\Source/os_flag.c **** 
1034:..\..\..\..\..\..\uCOS-III\Source/os_flag.c **** 
ARM GAS  C:\Users\alex\AppData\Local\Temp\cc9CNbDG.s 			page 49


1035:..\..\..\..\..\..\uCOS-III\Source/os_flag.c **** 
1036:..\..\..\..\..\..\uCOS-III\Source/os_flag.c **** void  OS_FlagDbgListRemove (OS_FLAG_GRP  *p_grp)
1037:..\..\..\..\..\..\uCOS-III\Source/os_flag.c **** {
 1693              		.loc 1 1037 0
 1694              		.cfi_startproc
 1695              		@ args = 0, pretend = 0, frame = 16
 1696              		@ frame_needed = 1, uses_anonymous_args = 0
 1697              		@ link register save eliminated.
 1698 0000 80B4     		push	{r7}
 1699              		.cfi_def_cfa_offset 4
 1700              		.cfi_offset 7, -4
 1701 0002 85B0     		sub	sp, sp, #20
 1702              		.cfi_def_cfa_offset 24
 1703 0004 00AF     		add	r7, sp, #0
 1704              		.cfi_def_cfa_register 7
 1705 0006 7860     		str	r0, [r7, #4]
1038:..\..\..\..\..\..\uCOS-III\Source/os_flag.c ****     OS_FLAG_GRP  *p_grp_next;
1039:..\..\..\..\..\..\uCOS-III\Source/os_flag.c ****     OS_FLAG_GRP  *p_grp_prev;
1040:..\..\..\..\..\..\uCOS-III\Source/os_flag.c **** 
1041:..\..\..\..\..\..\uCOS-III\Source/os_flag.c **** 
1042:..\..\..\..\..\..\uCOS-III\Source/os_flag.c ****     p_grp_prev = p_grp->DbgPrevPtr;
 1706              		.loc 1 1042 0
 1707 0008 7B68     		ldr	r3, [r7, #4]
 1708 000a 5B69     		ldr	r3, [r3, #20]
 1709 000c FB60     		str	r3, [r7, #12]
1043:..\..\..\..\..\..\uCOS-III\Source/os_flag.c ****     p_grp_next = p_grp->DbgNextPtr;
 1710              		.loc 1 1043 0
 1711 000e 7B68     		ldr	r3, [r7, #4]
 1712 0010 9B69     		ldr	r3, [r3, #24]
 1713 0012 BB60     		str	r3, [r7, #8]
1044:..\..\..\..\..\..\uCOS-III\Source/os_flag.c **** 
1045:..\..\..\..\..\..\uCOS-III\Source/os_flag.c ****     if (p_grp_prev == (OS_FLAG_GRP *)0) {
 1714              		.loc 1 1045 0
 1715 0014 FB68     		ldr	r3, [r7, #12]
 1716 0016 002B     		cmp	r3, #0
 1717 0018 0CD1     		bne	.L135
1046:..\..\..\..\..\..\uCOS-III\Source/os_flag.c ****         OSFlagDbgListPtr = p_grp_next;
 1718              		.loc 1 1046 0
 1719 001a 144A     		ldr	r2, .L140
 1720 001c BB68     		ldr	r3, [r7, #8]
 1721 001e 1360     		str	r3, [r2]
1047:..\..\..\..\..\..\uCOS-III\Source/os_flag.c ****         if (p_grp_next != (OS_FLAG_GRP *)0) {
 1722              		.loc 1 1047 0
 1723 0020 BB68     		ldr	r3, [r7, #8]
 1724 0022 002B     		cmp	r3, #0
 1725 0024 02D0     		beq	.L136
1048:..\..\..\..\..\..\uCOS-III\Source/os_flag.c ****             p_grp_next->DbgPrevPtr = (OS_FLAG_GRP *)0;
 1726              		.loc 1 1048 0
 1727 0026 BB68     		ldr	r3, [r7, #8]
 1728 0028 0022     		movs	r2, #0
 1729 002a 5A61     		str	r2, [r3, #20]
 1730              	.L136:
1049:..\..\..\..\..\..\uCOS-III\Source/os_flag.c ****         }
1050:..\..\..\..\..\..\uCOS-III\Source/os_flag.c ****         p_grp->DbgNextPtr = (OS_FLAG_GRP *)0;
 1731              		.loc 1 1050 0
 1732 002c 7B68     		ldr	r3, [r7, #4]
 1733 002e 0022     		movs	r2, #0
ARM GAS  C:\Users\alex\AppData\Local\Temp\cc9CNbDG.s 			page 50


 1734 0030 9A61     		str	r2, [r3, #24]
1051:..\..\..\..\..\..\uCOS-III\Source/os_flag.c **** 
1052:..\..\..\..\..\..\uCOS-III\Source/os_flag.c ****     } else if (p_grp_next == (OS_FLAG_GRP *)0) {
1053:..\..\..\..\..\..\uCOS-III\Source/os_flag.c ****         p_grp_prev->DbgNextPtr = (OS_FLAG_GRP *)0;
1054:..\..\..\..\..\..\uCOS-III\Source/os_flag.c ****         p_grp->DbgPrevPtr      = (OS_FLAG_GRP *)0;
1055:..\..\..\..\..\..\uCOS-III\Source/os_flag.c **** 
1056:..\..\..\..\..\..\uCOS-III\Source/os_flag.c ****     } else {
1057:..\..\..\..\..\..\uCOS-III\Source/os_flag.c ****         p_grp_prev->DbgNextPtr =  p_grp_next;
1058:..\..\..\..\..\..\uCOS-III\Source/os_flag.c ****         p_grp_next->DbgPrevPtr =  p_grp_prev;
1059:..\..\..\..\..\..\uCOS-III\Source/os_flag.c ****         p_grp->DbgNextPtr      = (OS_FLAG_GRP *)0;
1060:..\..\..\..\..\..\uCOS-III\Source/os_flag.c ****         p_grp->DbgPrevPtr      = (OS_FLAG_GRP *)0;
1061:..\..\..\..\..\..\uCOS-III\Source/os_flag.c ****     }
1062:..\..\..\..\..\..\uCOS-III\Source/os_flag.c **** }
 1735              		.loc 1 1062 0
 1736 0032 15E0     		b	.L139
 1737              	.L135:
1052:..\..\..\..\..\..\uCOS-III\Source/os_flag.c ****         p_grp_prev->DbgNextPtr = (OS_FLAG_GRP *)0;
 1738              		.loc 1 1052 0
 1739 0034 BB68     		ldr	r3, [r7, #8]
 1740 0036 002B     		cmp	r3, #0
 1741 0038 06D1     		bne	.L138
1053:..\..\..\..\..\..\uCOS-III\Source/os_flag.c ****         p_grp->DbgPrevPtr      = (OS_FLAG_GRP *)0;
 1742              		.loc 1 1053 0
 1743 003a FB68     		ldr	r3, [r7, #12]
 1744 003c 0022     		movs	r2, #0
 1745 003e 9A61     		str	r2, [r3, #24]
1054:..\..\..\..\..\..\uCOS-III\Source/os_flag.c **** 
 1746              		.loc 1 1054 0
 1747 0040 7B68     		ldr	r3, [r7, #4]
 1748 0042 0022     		movs	r2, #0
 1749 0044 5A61     		str	r2, [r3, #20]
 1750              		.loc 1 1062 0
 1751 0046 0BE0     		b	.L139
 1752              	.L138:
1057:..\..\..\..\..\..\uCOS-III\Source/os_flag.c ****         p_grp_next->DbgPrevPtr =  p_grp_prev;
 1753              		.loc 1 1057 0
 1754 0048 FB68     		ldr	r3, [r7, #12]
 1755 004a BA68     		ldr	r2, [r7, #8]
 1756 004c 9A61     		str	r2, [r3, #24]
1058:..\..\..\..\..\..\uCOS-III\Source/os_flag.c ****         p_grp->DbgNextPtr      = (OS_FLAG_GRP *)0;
 1757              		.loc 1 1058 0
 1758 004e BB68     		ldr	r3, [r7, #8]
 1759 0050 FA68     		ldr	r2, [r7, #12]
 1760 0052 5A61     		str	r2, [r3, #20]
1059:..\..\..\..\..\..\uCOS-III\Source/os_flag.c ****         p_grp->DbgPrevPtr      = (OS_FLAG_GRP *)0;
 1761              		.loc 1 1059 0
 1762 0054 7B68     		ldr	r3, [r7, #4]
 1763 0056 0022     		movs	r2, #0
 1764 0058 9A61     		str	r2, [r3, #24]
1060:..\..\..\..\..\..\uCOS-III\Source/os_flag.c ****     }
 1765              		.loc 1 1060 0
 1766 005a 7B68     		ldr	r3, [r7, #4]
 1767 005c 0022     		movs	r2, #0
 1768 005e 5A61     		str	r2, [r3, #20]
 1769              	.L139:
 1770              		.loc 1 1062 0
 1771 0060 00BF     		nop
ARM GAS  C:\Users\alex\AppData\Local\Temp\cc9CNbDG.s 			page 51


 1772 0062 1437     		adds	r7, r7, #20
 1773              		.cfi_def_cfa_offset 4
 1774 0064 BD46     		mov	sp, r7
 1775              		.cfi_def_cfa_register 13
 1776              		@ sp needed
 1777 0066 80BC     		pop	{r7}
 1778              		.cfi_restore 7
 1779              		.cfi_def_cfa_offset 0
 1780 0068 7047     		bx	lr
 1781              	.L141:
 1782 006a 00BF     		.align	2
 1783              	.L140:
 1784 006c 00000000 		.word	OSFlagDbgListPtr
 1785              		.cfi_endproc
 1786              	.LFE10:
 1787              		.size	OS_FlagDbgListRemove, .-OS_FlagDbgListRemove
 1788              		.section	.text.OS_FlagPost,"ax",%progbits
 1789              		.align	2
 1790              		.global	OS_FlagPost
 1791              		.thumb
 1792              		.thumb_func
 1793              		.type	OS_FlagPost, %function
 1794              	OS_FlagPost:
 1795              	.LFB11:
1063:..\..\..\..\..\..\uCOS-III\Source/os_flag.c **** #endif
1064:..\..\..\..\..\..\uCOS-III\Source/os_flag.c **** 
1065:..\..\..\..\..\..\uCOS-III\Source/os_flag.c **** /*$PAGE*/
1066:..\..\..\..\..\..\uCOS-III\Source/os_flag.c **** /*
1067:..\..\..\..\..\..\uCOS-III\Source/os_flag.c **** ***************************************************************************************************
1068:..\..\..\..\..\..\uCOS-III\Source/os_flag.c **** *                                                POST EVENT FLAG BIT(S)
1069:..\..\..\..\..\..\uCOS-III\Source/os_flag.c **** *
1070:..\..\..\..\..\..\uCOS-III\Source/os_flag.c **** * Description: This function is called to set or clear some bits in an event flag group.  The bits 
1071:..\..\..\..\..\..\uCOS-III\Source/os_flag.c **** *              specified by a 'bit mask'.
1072:..\..\..\..\..\..\uCOS-III\Source/os_flag.c **** *
1073:..\..\..\..\..\..\uCOS-III\Source/os_flag.c **** * Arguments  : p_grp         is a pointer to the desired event flag group.
1074:..\..\..\..\..\..\uCOS-III\Source/os_flag.c **** *
1075:..\..\..\..\..\..\uCOS-III\Source/os_flag.c **** *              flags         If 'opt' (see below) is OS_OPT_POST_FLAG_SET, each bit that is set in 
1076:..\..\..\..\..\..\uCOS-III\Source/os_flag.c **** *                            set the corresponding bit in the event flag group.  e.g. to set bits 0
1077:..\..\..\..\..\..\uCOS-III\Source/os_flag.c **** *                            and 5 you would set 'flags' to:
1078:..\..\..\..\..\..\uCOS-III\Source/os_flag.c **** *
1079:..\..\..\..\..\..\uCOS-III\Source/os_flag.c **** *                                0x31     (note, bit 0 is least significant bit)
1080:..\..\..\..\..\..\uCOS-III\Source/os_flag.c **** *
1081:..\..\..\..\..\..\uCOS-III\Source/os_flag.c **** *                            If 'opt' (see below) is OS_OPT_POST_FLAG_CLR, each bit that is set in 
1082:..\..\..\..\..\..\uCOS-III\Source/os_flag.c **** *                            CLEAR the corresponding bit in the event flag group.  e.g. to clear bi
1083:..\..\..\..\..\..\uCOS-III\Source/os_flag.c **** *                            4 and 5 you would specify 'flags' as:
1084:..\..\..\..\..\..\uCOS-III\Source/os_flag.c **** *
1085:..\..\..\..\..\..\uCOS-III\Source/os_flag.c **** *                                0x31     (note, bit 0 is least significant bit)
1086:..\..\..\..\..\..\uCOS-III\Source/os_flag.c **** *
1087:..\..\..\..\..\..\uCOS-III\Source/os_flag.c **** *              opt           indicates whether the flags will be:
1088:..\..\..\..\..\..\uCOS-III\Source/os_flag.c **** *
1089:..\..\..\..\..\..\uCOS-III\Source/os_flag.c **** *                                OS_OPT_POST_FLAG_SET       set
1090:..\..\..\..\..\..\uCOS-III\Source/os_flag.c **** *                                OS_OPT_POST_FLAG_CLR       cleared
1091:..\..\..\..\..\..\uCOS-III\Source/os_flag.c **** *
1092:..\..\..\..\..\..\uCOS-III\Source/os_flag.c **** *                            you can also 'add' OS_OPT_POST_NO_SCHED to prevent the scheduler from 
1093:..\..\..\..\..\..\uCOS-III\Source/os_flag.c **** *
1094:..\..\..\..\..\..\uCOS-III\Source/os_flag.c **** *              ts            is the timestamp of the post
1095:..\..\..\..\..\..\uCOS-III\Source/os_flag.c **** *
ARM GAS  C:\Users\alex\AppData\Local\Temp\cc9CNbDG.s 			page 52


1096:..\..\..\..\..\..\uCOS-III\Source/os_flag.c **** *              p_err         is a pointer to an error code and can be:
1097:..\..\..\..\..\..\uCOS-III\Source/os_flag.c **** *
1098:..\..\..\..\..\..\uCOS-III\Source/os_flag.c **** *                                OS_ERR_NONE                The call was successful
1099:..\..\..\..\..\..\uCOS-III\Source/os_flag.c **** *                                OS_ERR_OBJ_PTR_NULL        You passed a NULL pointer
1100:..\..\..\..\..\..\uCOS-III\Source/os_flag.c **** *                                OS_ERR_OBJ_TYPE            You are not pointing to an event flag g
1101:..\..\..\..\..\..\uCOS-III\Source/os_flag.c **** *                                OS_ERR_OPT_INVALID         You specified an invalid option
1102:..\..\..\..\..\..\uCOS-III\Source/os_flag.c **** *
1103:..\..\..\..\..\..\uCOS-III\Source/os_flag.c **** * Returns    : the new value of the event flags bits that are still set.
1104:..\..\..\..\..\..\uCOS-III\Source/os_flag.c **** *
1105:..\..\..\..\..\..\uCOS-III\Source/os_flag.c **** * Note(s)    : 1) The execution time of this function depends on the number of tasks waiting on the
1106:..\..\..\..\..\..\uCOS-III\Source/os_flag.c **** ***************************************************************************************************
1107:..\..\..\..\..\..\uCOS-III\Source/os_flag.c **** */
1108:..\..\..\..\..\..\uCOS-III\Source/os_flag.c **** 
1109:..\..\..\..\..\..\uCOS-III\Source/os_flag.c **** OS_FLAGS  OS_FlagPost (OS_FLAG_GRP  *p_grp,
1110:..\..\..\..\..\..\uCOS-III\Source/os_flag.c ****                        OS_FLAGS      flags,
1111:..\..\..\..\..\..\uCOS-III\Source/os_flag.c ****                        OS_OPT        opt,
1112:..\..\..\..\..\..\uCOS-III\Source/os_flag.c ****                        CPU_TS        ts,
1113:..\..\..\..\..\..\uCOS-III\Source/os_flag.c ****                        OS_ERR       *p_err)
1114:..\..\..\..\..\..\uCOS-III\Source/os_flag.c **** {
 1796              		.loc 1 1114 0
 1797              		.cfi_startproc
 1798              		@ args = 4, pretend = 0, frame = 48
 1799              		@ frame_needed = 1, uses_anonymous_args = 0
 1800 0000 80B5     		push	{r7, lr}
 1801              		.cfi_def_cfa_offset 8
 1802              		.cfi_offset 7, -8
 1803              		.cfi_offset 14, -4
 1804 0002 8CB0     		sub	sp, sp, #48
 1805              		.cfi_def_cfa_offset 56
 1806 0004 00AF     		add	r7, sp, #0
 1807              		.cfi_def_cfa_register 7
 1808 0006 F860     		str	r0, [r7, #12]
 1809 0008 B960     		str	r1, [r7, #8]
 1810 000a 3B60     		str	r3, [r7]
 1811 000c 1346     		mov	r3, r2	@ movhi
 1812 000e FB80     		strh	r3, [r7, #6]	@ movhi
1115:..\..\..\..\..\..\uCOS-III\Source/os_flag.c ****     OS_FLAGS        flags_cur;
1116:..\..\..\..\..\..\uCOS-III\Source/os_flag.c ****     OS_FLAGS        flags_rdy;
1117:..\..\..\..\..\..\uCOS-III\Source/os_flag.c ****     OS_OPT          mode;
1118:..\..\..\..\..\..\uCOS-III\Source/os_flag.c ****     OS_PEND_DATA   *p_pend_data;
1119:..\..\..\..\..\..\uCOS-III\Source/os_flag.c ****     OS_PEND_DATA   *p_pend_data_next;
1120:..\..\..\..\..\..\uCOS-III\Source/os_flag.c ****     OS_PEND_LIST   *p_pend_list;
1121:..\..\..\..\..\..\uCOS-III\Source/os_flag.c ****     OS_TCB         *p_tcb;
1122:..\..\..\..\..\..\uCOS-III\Source/os_flag.c ****     CPU_SR_ALLOC();
 1813              		.loc 1 1122 0
 1814 0010 0023     		movs	r3, #0
 1815 0012 7B62     		str	r3, [r7, #36]
1123:..\..\..\..\..\..\uCOS-III\Source/os_flag.c **** 
1124:..\..\..\..\..\..\uCOS-III\Source/os_flag.c **** 
1125:..\..\..\..\..\..\uCOS-III\Source/os_flag.c **** 
1126:..\..\..\..\..\..\uCOS-III\Source/os_flag.c ****     CPU_CRITICAL_ENTER();
 1816              		.loc 1 1126 0
 1817 0014 FFF7FEFF 		bl	CPU_SR_Save
 1818 0018 7862     		str	r0, [r7, #36]
1127:..\..\..\..\..\..\uCOS-III\Source/os_flag.c ****     switch (opt) {
 1819              		.loc 1 1127 0
 1820 001a FB88     		ldrh	r3, [r7, #6]
ARM GAS  C:\Users\alex\AppData\Local\Temp\cc9CNbDG.s 			page 53


 1821 001c 012B     		cmp	r3, #1
 1822 001e 13D0     		beq	.L144
 1823 0020 012B     		cmp	r3, #1
 1824 0022 02DC     		bgt	.L145
 1825 0024 002B     		cmp	r3, #0
 1826 0026 08D0     		beq	.L146
 1827 0028 16E0     		b	.L143
 1828              	.L145:
 1829 002a B3F5004F 		cmp	r3, #32768
 1830 002e 04D0     		beq	.L146
 1831 0030 48F20102 		movw	r2, #32769
 1832 0034 9342     		cmp	r3, r2
 1833 0036 07D0     		beq	.L144
 1834 0038 0EE0     		b	.L143
 1835              	.L146:
1128:..\..\..\..\..\..\uCOS-III\Source/os_flag.c ****         case OS_OPT_POST_FLAG_SET:
1129:..\..\..\..\..\..\uCOS-III\Source/os_flag.c ****         case OS_OPT_POST_FLAG_SET | OS_OPT_POST_NO_SCHED:
1130:..\..\..\..\..\..\uCOS-III\Source/os_flag.c ****              p_grp->Flags |=  flags;                            /* Set   the flags specified in the
 1836              		.loc 1 1130 0
 1837 003a FB68     		ldr	r3, [r7, #12]
 1838 003c 1A6A     		ldr	r2, [r3, #32]
 1839 003e BB68     		ldr	r3, [r7, #8]
 1840 0040 1A43     		orrs	r2, r2, r3
 1841 0042 FB68     		ldr	r3, [r7, #12]
 1842 0044 1A62     		str	r2, [r3, #32]
1131:..\..\..\..\..\..\uCOS-III\Source/os_flag.c ****              break;
 1843              		.loc 1 1131 0
 1844 0046 10E0     		b	.L147
 1845              	.L144:
1132:..\..\..\..\..\..\uCOS-III\Source/os_flag.c **** 
1133:..\..\..\..\..\..\uCOS-III\Source/os_flag.c ****         case OS_OPT_POST_FLAG_CLR:
1134:..\..\..\..\..\..\uCOS-III\Source/os_flag.c ****         case OS_OPT_POST_FLAG_CLR | OS_OPT_POST_NO_SCHED:
1135:..\..\..\..\..\..\uCOS-III\Source/os_flag.c ****              p_grp->Flags &= ~flags;                            /* Clear the flags specified in the
 1846              		.loc 1 1135 0
 1847 0048 FB68     		ldr	r3, [r7, #12]
 1848 004a 1A6A     		ldr	r2, [r3, #32]
 1849 004c BB68     		ldr	r3, [r7, #8]
 1850 004e DB43     		mvns	r3, r3
 1851 0050 1A40     		ands	r2, r2, r3
 1852 0052 FB68     		ldr	r3, [r7, #12]
 1853 0054 1A62     		str	r2, [r3, #32]
1136:..\..\..\..\..\..\uCOS-III\Source/os_flag.c ****              break;
 1854              		.loc 1 1136 0
 1855 0056 08E0     		b	.L147
 1856              	.L143:
1137:..\..\..\..\..\..\uCOS-III\Source/os_flag.c **** 
1138:..\..\..\..\..\..\uCOS-III\Source/os_flag.c ****         default:
1139:..\..\..\..\..\..\uCOS-III\Source/os_flag.c ****              CPU_CRITICAL_EXIT();                               /* INVALID option                  
 1857              		.loc 1 1139 0
 1858 0058 786A     		ldr	r0, [r7, #36]
 1859 005a FFF7FEFF 		bl	CPU_SR_Restore
1140:..\..\..\..\..\..\uCOS-III\Source/os_flag.c ****             *p_err = OS_ERR_OPT_INVALID;
 1860              		.loc 1 1140 0
 1861 005e BB6B     		ldr	r3, [r7, #56]
 1862 0060 45F62562 		movw	r2, #24101
 1863 0064 1A80     		strh	r2, [r3]	@ movhi
1141:..\..\..\..\..\..\uCOS-III\Source/os_flag.c ****              return ((OS_FLAGS)0);
ARM GAS  C:\Users\alex\AppData\Local\Temp\cc9CNbDG.s 			page 54


 1864              		.loc 1 1141 0
 1865 0066 0023     		movs	r3, #0
 1866 0068 B7E0     		b	.L148
 1867              	.L147:
1142:..\..\..\..\..\..\uCOS-III\Source/os_flag.c ****     }
1143:..\..\..\..\..\..\uCOS-III\Source/os_flag.c ****     p_grp->TS   = ts;
 1868              		.loc 1 1143 0
 1869 006a FB68     		ldr	r3, [r7, #12]
 1870 006c 3A68     		ldr	r2, [r7]
 1871 006e 5A62     		str	r2, [r3, #36]
1144:..\..\..\..\..\..\uCOS-III\Source/os_flag.c ****     p_pend_list = &p_grp->PendList;
 1872              		.loc 1 1144 0
 1873 0070 FB68     		ldr	r3, [r7, #12]
 1874 0072 0833     		adds	r3, r3, #8
 1875 0074 3B62     		str	r3, [r7, #32]
1145:..\..\..\..\..\..\uCOS-III\Source/os_flag.c ****     if (p_pend_list->NbrEntries == 0u) {                        /* Any task waiting on event flag g
 1876              		.loc 1 1145 0
 1877 0076 3B6A     		ldr	r3, [r7, #32]
 1878 0078 1B89     		ldrh	r3, [r3, #8]
 1879 007a 002B     		cmp	r3, #0
 1880 007c 08D1     		bne	.L149
1146:..\..\..\..\..\..\uCOS-III\Source/os_flag.c ****         CPU_CRITICAL_EXIT();                                    /* No                              
 1881              		.loc 1 1146 0
 1882 007e 786A     		ldr	r0, [r7, #36]
 1883 0080 FFF7FEFF 		bl	CPU_SR_Restore
1147:..\..\..\..\..\..\uCOS-III\Source/os_flag.c ****        *p_err = OS_ERR_NONE;
 1884              		.loc 1 1147 0
 1885 0084 BB6B     		ldr	r3, [r7, #56]
 1886 0086 0022     		movs	r2, #0
 1887 0088 1A80     		strh	r2, [r3]	@ movhi
1148:..\..\..\..\..\..\uCOS-III\Source/os_flag.c ****         return (p_grp->Flags);
 1888              		.loc 1 1148 0
 1889 008a FB68     		ldr	r3, [r7, #12]
 1890 008c 1B6A     		ldr	r3, [r3, #32]
 1891 008e A4E0     		b	.L148
 1892              	.L149:
1149:..\..\..\..\..\..\uCOS-III\Source/os_flag.c ****     }
1150:..\..\..\..\..\..\uCOS-III\Source/os_flag.c **** 
1151:..\..\..\..\..\..\uCOS-III\Source/os_flag.c ****     OS_CRITICAL_ENTER_CPU_EXIT();
1152:..\..\..\..\..\..\uCOS-III\Source/os_flag.c ****     p_pend_data = p_pend_list->HeadPtr;
 1893              		.loc 1 1152 0
 1894 0090 3B6A     		ldr	r3, [r7, #32]
 1895 0092 1B68     		ldr	r3, [r3]
 1896 0094 FB62     		str	r3, [r7, #44]
1153:..\..\..\..\..\..\uCOS-III\Source/os_flag.c ****     p_tcb       = p_pend_data->TCBPtr;
 1897              		.loc 1 1153 0
 1898 0096 FB6A     		ldr	r3, [r7, #44]
 1899 0098 9B68     		ldr	r3, [r3, #8]
 1900 009a BB62     		str	r3, [r7, #40]
1154:..\..\..\..\..\..\uCOS-III\Source/os_flag.c ****     while (p_tcb != (OS_TCB *)0) {                              /* Go through all tasks waiting on 
 1901              		.loc 1 1154 0
 1902 009c 83E0     		b	.L150
 1903              	.L163:
1155:..\..\..\..\..\..\uCOS-III\Source/os_flag.c ****         p_pend_data_next = p_pend_data->NextPtr;
 1904              		.loc 1 1155 0
 1905 009e FB6A     		ldr	r3, [r7, #44]
 1906 00a0 5B68     		ldr	r3, [r3, #4]
ARM GAS  C:\Users\alex\AppData\Local\Temp\cc9CNbDG.s 			page 55


 1907 00a2 FB61     		str	r3, [r7, #28]
1156:..\..\..\..\..\..\uCOS-III\Source/os_flag.c ****         mode             = p_tcb->FlagsOpt & OS_OPT_PEND_FLAG_MASK;
 1908              		.loc 1 1156 0
 1909 00a4 BB6A     		ldr	r3, [r7, #40]
 1910 00a6 B3F88830 		ldrh	r3, [r3, #136]
 1911 00aa 03F00F03 		and	r3, r3, #15
 1912 00ae 7B83     		strh	r3, [r7, #26]	@ movhi
1157:..\..\..\..\..\..\uCOS-III\Source/os_flag.c ****         switch (mode) {
 1913              		.loc 1 1157 0
 1914 00b0 7B8B     		ldrh	r3, [r7, #26]
 1915 00b2 013B     		subs	r3, r3, #1
 1916 00b4 072B     		cmp	r3, #7
 1917 00b6 5BD8     		bhi	.L151
 1918 00b8 01A2     		adr	r2, .L153
 1919 00ba 52F823F0 		ldr	pc, [r2, r3, lsl #2]
 1920 00be 00BF     		.p2align 2
 1921              	.L153:
 1922 00c0 27010000 		.word	.L152+1
 1923 00c4 4F010000 		.word	.L154+1
 1924 00c8 71010000 		.word	.L151+1
 1925 00cc E1000000 		.word	.L155+1
 1926 00d0 71010000 		.word	.L151+1
 1927 00d4 71010000 		.word	.L151+1
 1928 00d8 71010000 		.word	.L151+1
 1929 00dc 07010000 		.word	.L156+1
 1930              		.p2align 1
 1931              	.L155:
1158:..\..\..\..\..\..\uCOS-III\Source/os_flag.c ****             case OS_OPT_PEND_FLAG_SET_ALL:                      /* See if all req. flags are set fo
1159:..\..\..\..\..\..\uCOS-III\Source/os_flag.c ****                  flags_rdy = (OS_FLAGS)(p_grp->Flags & p_tcb->FlagsPend);
 1932              		.loc 1 1159 0
 1933 00e0 FB68     		ldr	r3, [r7, #12]
 1934 00e2 1A6A     		ldr	r2, [r3, #32]
 1935 00e4 BB6A     		ldr	r3, [r7, #40]
 1936 00e6 D3F88030 		ldr	r3, [r3, #128]
 1937 00ea 1340     		ands	r3, r3, r2
 1938 00ec 7B61     		str	r3, [r7, #20]
1160:..\..\..\..\..\..\uCOS-III\Source/os_flag.c ****                  if (flags_rdy == p_tcb->FlagsPend) {
 1939              		.loc 1 1160 0
 1940 00ee BB6A     		ldr	r3, [r7, #40]
 1941 00f0 D3F88020 		ldr	r2, [r3, #128]
 1942 00f4 7B69     		ldr	r3, [r7, #20]
 1943 00f6 9A42     		cmp	r2, r3
 1944 00f8 43D1     		bne	.L165
1161:..\..\..\..\..\..\uCOS-III\Source/os_flag.c ****                      OS_FlagTaskRdy(p_tcb,                      /* Make task RTR, event(s) Rx'd    
 1945              		.loc 1 1161 0
 1946 00fa 3A68     		ldr	r2, [r7]
 1947 00fc 7969     		ldr	r1, [r7, #20]
 1948 00fe B86A     		ldr	r0, [r7, #40]
 1949 0100 FFF7FEFF 		bl	OS_FlagTaskRdy
1162:..\..\..\..\..\..\uCOS-III\Source/os_flag.c ****                                     flags_rdy,
1163:..\..\..\..\..\..\uCOS-III\Source/os_flag.c ****                                     ts);
1164:..\..\..\..\..\..\uCOS-III\Source/os_flag.c ****                  }
1165:..\..\..\..\..\..\uCOS-III\Source/os_flag.c ****                  break;
 1950              		.loc 1 1165 0
 1951 0104 3DE0     		b	.L165
 1952              	.L156:
1166:..\..\..\..\..\..\uCOS-III\Source/os_flag.c **** 
ARM GAS  C:\Users\alex\AppData\Local\Temp\cc9CNbDG.s 			page 56


1167:..\..\..\..\..\..\uCOS-III\Source/os_flag.c ****             case OS_OPT_PEND_FLAG_SET_ANY:                      /* See if any flag set             
1168:..\..\..\..\..\..\uCOS-III\Source/os_flag.c ****                  flags_rdy = (OS_FLAGS)(p_grp->Flags & p_tcb->FlagsPend);
 1953              		.loc 1 1168 0
 1954 0106 FB68     		ldr	r3, [r7, #12]
 1955 0108 1A6A     		ldr	r2, [r3, #32]
 1956 010a BB6A     		ldr	r3, [r7, #40]
 1957 010c D3F88030 		ldr	r3, [r3, #128]
 1958 0110 1340     		ands	r3, r3, r2
 1959 0112 7B61     		str	r3, [r7, #20]
1169:..\..\..\..\..\..\uCOS-III\Source/os_flag.c ****                  if (flags_rdy != (OS_FLAGS)0) {
 1960              		.loc 1 1169 0
 1961 0114 7B69     		ldr	r3, [r7, #20]
 1962 0116 002B     		cmp	r3, #0
 1963 0118 35D0     		beq	.L166
1170:..\..\..\..\..\..\uCOS-III\Source/os_flag.c ****                      OS_FlagTaskRdy(p_tcb,                      /* Make task RTR, event(s) Rx'd    
 1964              		.loc 1 1170 0
 1965 011a 3A68     		ldr	r2, [r7]
 1966 011c 7969     		ldr	r1, [r7, #20]
 1967 011e B86A     		ldr	r0, [r7, #40]
 1968 0120 FFF7FEFF 		bl	OS_FlagTaskRdy
1171:..\..\..\..\..\..\uCOS-III\Source/os_flag.c ****                                     flags_rdy,
1172:..\..\..\..\..\..\uCOS-III\Source/os_flag.c ****                                     ts);
1173:..\..\..\..\..\..\uCOS-III\Source/os_flag.c ****                  }
1174:..\..\..\..\..\..\uCOS-III\Source/os_flag.c ****                  break;
 1969              		.loc 1 1174 0
 1970 0124 2FE0     		b	.L166
 1971              	.L152:
1175:..\..\..\..\..\..\uCOS-III\Source/os_flag.c **** 
1176:..\..\..\..\..\..\uCOS-III\Source/os_flag.c **** #if OS_CFG_FLAG_MODE_CLR_EN > 0u
1177:..\..\..\..\..\..\uCOS-III\Source/os_flag.c ****             case OS_OPT_PEND_FLAG_CLR_ALL:                      /* See if all req. flags are set fo
1178:..\..\..\..\..\..\uCOS-III\Source/os_flag.c ****                  flags_rdy = (OS_FLAGS)(~p_grp->Flags & p_tcb->FlagsPend);
 1972              		.loc 1 1178 0
 1973 0126 FB68     		ldr	r3, [r7, #12]
 1974 0128 1B6A     		ldr	r3, [r3, #32]
 1975 012a DA43     		mvns	r2, r3
 1976 012c BB6A     		ldr	r3, [r7, #40]
 1977 012e D3F88030 		ldr	r3, [r3, #128]
 1978 0132 1340     		ands	r3, r3, r2
 1979 0134 7B61     		str	r3, [r7, #20]
1179:..\..\..\..\..\..\uCOS-III\Source/os_flag.c ****                  if (flags_rdy == p_tcb->FlagsPend) {
 1980              		.loc 1 1179 0
 1981 0136 BB6A     		ldr	r3, [r7, #40]
 1982 0138 D3F88020 		ldr	r2, [r3, #128]
 1983 013c 7B69     		ldr	r3, [r7, #20]
 1984 013e 9A42     		cmp	r2, r3
 1985 0140 23D1     		bne	.L167
1180:..\..\..\..\..\..\uCOS-III\Source/os_flag.c ****                      OS_FlagTaskRdy(p_tcb,                      /* Make task RTR, event(s) Rx'd    
 1986              		.loc 1 1180 0
 1987 0142 3A68     		ldr	r2, [r7]
 1988 0144 7969     		ldr	r1, [r7, #20]
 1989 0146 B86A     		ldr	r0, [r7, #40]
 1990 0148 FFF7FEFF 		bl	OS_FlagTaskRdy
1181:..\..\..\..\..\..\uCOS-III\Source/os_flag.c ****                                     flags_rdy,
1182:..\..\..\..\..\..\uCOS-III\Source/os_flag.c ****                                     ts);
1183:..\..\..\..\..\..\uCOS-III\Source/os_flag.c ****                  }
1184:..\..\..\..\..\..\uCOS-III\Source/os_flag.c ****                  break;
 1991              		.loc 1 1184 0
ARM GAS  C:\Users\alex\AppData\Local\Temp\cc9CNbDG.s 			page 57


 1992 014c 1DE0     		b	.L167
 1993              	.L154:
1185:..\..\..\..\..\..\uCOS-III\Source/os_flag.c **** 
1186:..\..\..\..\..\..\uCOS-III\Source/os_flag.c ****             case OS_OPT_PEND_FLAG_CLR_ANY:                      /* See if any flag set             
1187:..\..\..\..\..\..\uCOS-III\Source/os_flag.c ****                  flags_rdy = (OS_FLAGS)(~p_grp->Flags & p_tcb->FlagsPend);
 1994              		.loc 1 1187 0
 1995 014e FB68     		ldr	r3, [r7, #12]
 1996 0150 1B6A     		ldr	r3, [r3, #32]
 1997 0152 DA43     		mvns	r2, r3
 1998 0154 BB6A     		ldr	r3, [r7, #40]
 1999 0156 D3F88030 		ldr	r3, [r3, #128]
 2000 015a 1340     		ands	r3, r3, r2
 2001 015c 7B61     		str	r3, [r7, #20]
1188:..\..\..\..\..\..\uCOS-III\Source/os_flag.c ****                  if (flags_rdy != (OS_FLAGS)0) {
 2002              		.loc 1 1188 0
 2003 015e 7B69     		ldr	r3, [r7, #20]
 2004 0160 002B     		cmp	r3, #0
 2005 0162 14D0     		beq	.L168
1189:..\..\..\..\..\..\uCOS-III\Source/os_flag.c ****                      OS_FlagTaskRdy(p_tcb,                      /* Make task RTR, event(s) Rx'd    
 2006              		.loc 1 1189 0
 2007 0164 3A68     		ldr	r2, [r7]
 2008 0166 7969     		ldr	r1, [r7, #20]
 2009 0168 B86A     		ldr	r0, [r7, #40]
 2010 016a FFF7FEFF 		bl	OS_FlagTaskRdy
1190:..\..\..\..\..\..\uCOS-III\Source/os_flag.c ****                                     flags_rdy,
1191:..\..\..\..\..\..\uCOS-III\Source/os_flag.c ****                                     ts);
1192:..\..\..\..\..\..\uCOS-III\Source/os_flag.c ****                  }
1193:..\..\..\..\..\..\uCOS-III\Source/os_flag.c ****                  break;
 2011              		.loc 1 1193 0
 2012 016e 0EE0     		b	.L168
 2013              	.L151:
1194:..\..\..\..\..\..\uCOS-III\Source/os_flag.c **** #endif
1195:..\..\..\..\..\..\uCOS-III\Source/os_flag.c ****             default:
1196:..\..\..\..\..\..\uCOS-III\Source/os_flag.c ****                  OS_CRITICAL_EXIT();
 2014              		.loc 1 1196 0
 2015 0170 786A     		ldr	r0, [r7, #36]
 2016 0172 FFF7FEFF 		bl	CPU_SR_Restore
1197:..\..\..\..\..\..\uCOS-III\Source/os_flag.c ****                 *p_err = OS_ERR_FLAG_PEND_OPT;
 2017              		.loc 1 1197 0
 2018 0176 BB6B     		ldr	r3, [r7, #56]
 2019 0178 43F6FF22 		movw	r2, #15103
 2020 017c 1A80     		strh	r2, [r3]	@ movhi
1198:..\..\..\..\..\..\uCOS-III\Source/os_flag.c ****                  return ((OS_FLAGS)0);
 2021              		.loc 1 1198 0
 2022 017e 0023     		movs	r3, #0
 2023 0180 2BE0     		b	.L148
 2024              	.L165:
1165:..\..\..\..\..\..\uCOS-III\Source/os_flag.c **** 
 2025              		.loc 1 1165 0
 2026 0182 00BF     		nop
 2027 0184 04E0     		b	.L158
 2028              	.L166:
1174:..\..\..\..\..\..\uCOS-III\Source/os_flag.c **** 
 2029              		.loc 1 1174 0
 2030 0186 00BF     		nop
 2031 0188 02E0     		b	.L158
 2032              	.L167:
ARM GAS  C:\Users\alex\AppData\Local\Temp\cc9CNbDG.s 			page 58


1184:..\..\..\..\..\..\uCOS-III\Source/os_flag.c **** 
 2033              		.loc 1 1184 0
 2034 018a 00BF     		nop
 2035 018c 00E0     		b	.L158
 2036              	.L168:
1193:..\..\..\..\..\..\uCOS-III\Source/os_flag.c **** #endif
 2037              		.loc 1 1193 0
 2038 018e 00BF     		nop
 2039              	.L158:
1199:..\..\..\..\..\..\uCOS-III\Source/os_flag.c ****         }
1200:..\..\..\..\..\..\uCOS-III\Source/os_flag.c ****         p_pend_data = p_pend_data_next;                         /* Point to next task waiting for e
 2040              		.loc 1 1200 0
 2041 0190 FB69     		ldr	r3, [r7, #28]
 2042 0192 FB62     		str	r3, [r7, #44]
1201:..\..\..\..\..\..\uCOS-III\Source/os_flag.c ****         if (p_pend_data != (OS_PEND_DATA *)0) {
 2043              		.loc 1 1201 0
 2044 0194 FB6A     		ldr	r3, [r7, #44]
 2045 0196 002B     		cmp	r3, #0
 2046 0198 03D0     		beq	.L162
1202:..\..\..\..\..\..\uCOS-III\Source/os_flag.c ****             p_tcb = p_pend_data->TCBPtr;
 2047              		.loc 1 1202 0
 2048 019a FB6A     		ldr	r3, [r7, #44]
 2049 019c 9B68     		ldr	r3, [r3, #8]
 2050 019e BB62     		str	r3, [r7, #40]
 2051 01a0 01E0     		b	.L150
 2052              	.L162:
1203:..\..\..\..\..\..\uCOS-III\Source/os_flag.c ****         } else {
1204:..\..\..\..\..\..\uCOS-III\Source/os_flag.c ****             p_tcb = (OS_TCB *)0;
 2053              		.loc 1 1204 0
 2054 01a2 0023     		movs	r3, #0
 2055 01a4 BB62     		str	r3, [r7, #40]
 2056              	.L150:
1154:..\..\..\..\..\..\uCOS-III\Source/os_flag.c ****         p_pend_data_next = p_pend_data->NextPtr;
 2057              		.loc 1 1154 0
 2058 01a6 BB6A     		ldr	r3, [r7, #40]
 2059 01a8 002B     		cmp	r3, #0
 2060 01aa 7FF478AF 		bne	.L163
1205:..\..\..\..\..\..\uCOS-III\Source/os_flag.c ****         }
1206:..\..\..\..\..\..\uCOS-III\Source/os_flag.c ****     }
1207:..\..\..\..\..\..\uCOS-III\Source/os_flag.c ****     OS_CRITICAL_EXIT_NO_SCHED();
 2061              		.loc 1 1207 0
 2062 01ae 786A     		ldr	r0, [r7, #36]
 2063 01b0 FFF7FEFF 		bl	CPU_SR_Restore
1208:..\..\..\..\..\..\uCOS-III\Source/os_flag.c **** 
1209:..\..\..\..\..\..\uCOS-III\Source/os_flag.c ****     if ((opt & OS_OPT_POST_NO_SCHED) == (OS_OPT)0) {
 2064              		.loc 1 1209 0
 2065 01b4 B7F90630 		ldrsh	r3, [r7, #6]
 2066 01b8 002B     		cmp	r3, #0
 2067 01ba 01DB     		blt	.L164
1210:..\..\..\..\..\..\uCOS-III\Source/os_flag.c ****         OSSched();
 2068              		.loc 1 1210 0
 2069 01bc FFF7FEFF 		bl	OSSched
 2070              	.L164:
1211:..\..\..\..\..\..\uCOS-III\Source/os_flag.c ****     }
1212:..\..\..\..\..\..\uCOS-III\Source/os_flag.c **** 
1213:..\..\..\..\..\..\uCOS-III\Source/os_flag.c ****     CPU_CRITICAL_ENTER();
 2071              		.loc 1 1213 0
ARM GAS  C:\Users\alex\AppData\Local\Temp\cc9CNbDG.s 			page 59


 2072 01c0 FFF7FEFF 		bl	CPU_SR_Save
 2073 01c4 7862     		str	r0, [r7, #36]
1214:..\..\..\..\..\..\uCOS-III\Source/os_flag.c ****     flags_cur = p_grp->Flags;
 2074              		.loc 1 1214 0
 2075 01c6 FB68     		ldr	r3, [r7, #12]
 2076 01c8 1B6A     		ldr	r3, [r3, #32]
 2077 01ca 3B61     		str	r3, [r7, #16]
1215:..\..\..\..\..\..\uCOS-III\Source/os_flag.c ****     CPU_CRITICAL_EXIT();
 2078              		.loc 1 1215 0
 2079 01cc 786A     		ldr	r0, [r7, #36]
 2080 01ce FFF7FEFF 		bl	CPU_SR_Restore
1216:..\..\..\..\..\..\uCOS-III\Source/os_flag.c ****    *p_err     = OS_ERR_NONE;
 2081              		.loc 1 1216 0
 2082 01d2 BB6B     		ldr	r3, [r7, #56]
 2083 01d4 0022     		movs	r2, #0
 2084 01d6 1A80     		strh	r2, [r3]	@ movhi
1217:..\..\..\..\..\..\uCOS-III\Source/os_flag.c ****     return (flags_cur);
 2085              		.loc 1 1217 0
 2086 01d8 3B69     		ldr	r3, [r7, #16]
 2087              	.L148:
1218:..\..\..\..\..\..\uCOS-III\Source/os_flag.c **** }
 2088              		.loc 1 1218 0
 2089 01da 1846     		mov	r0, r3
 2090 01dc 3037     		adds	r7, r7, #48
 2091              		.cfi_def_cfa_offset 8
 2092 01de BD46     		mov	sp, r7
 2093              		.cfi_def_cfa_register 13
 2094              		@ sp needed
 2095 01e0 80BD     		pop	{r7, pc}
 2096              		.cfi_endproc
 2097              	.LFE11:
 2098              		.size	OS_FlagPost, .-OS_FlagPost
 2099 01e2 00BF     		.section	.text.OS_FlagTaskRdy,"ax",%progbits
 2100              		.align	2
 2101              		.global	OS_FlagTaskRdy
 2102              		.thumb
 2103              		.thumb_func
 2104              		.type	OS_FlagTaskRdy, %function
 2105              	OS_FlagTaskRdy:
 2106              	.LFB12:
1219:..\..\..\..\..\..\uCOS-III\Source/os_flag.c **** 
1220:..\..\..\..\..\..\uCOS-III\Source/os_flag.c **** /*$PAGE*/
1221:..\..\..\..\..\..\uCOS-III\Source/os_flag.c **** /*
1222:..\..\..\..\..\..\uCOS-III\Source/os_flag.c **** ***************************************************************************************************
1223:..\..\..\..\..\..\uCOS-III\Source/os_flag.c **** *                                        MAKE TASK READY-TO-RUN, EVENT(s) OCCURRED
1224:..\..\..\..\..\..\uCOS-III\Source/os_flag.c **** *
1225:..\..\..\..\..\..\uCOS-III\Source/os_flag.c **** * Description: This function is internal to uC/OS-III and is used to make a task ready-to-run becau
1226:..\..\..\..\..\..\uCOS-III\Source/os_flag.c **** *              flag bits have been set.
1227:..\..\..\..\..\..\uCOS-III\Source/os_flag.c **** *
1228:..\..\..\..\..\..\uCOS-III\Source/os_flag.c **** * Arguments  : p_tcb         is a pointer to the OS_TCB of the task to remove
1229:..\..\..\..\..\..\uCOS-III\Source/os_flag.c **** *              -----
1230:..\..\..\..\..\..\uCOS-III\Source/os_flag.c **** *
1231:..\..\..\..\..\..\uCOS-III\Source/os_flag.c **** *              flags_rdy     contains the bit pattern of the event flags that cause the task to bec
1232:..\..\..\..\..\..\uCOS-III\Source/os_flag.c **** *
1233:..\..\..\..\..\..\uCOS-III\Source/os_flag.c **** *              ts            is a timestamp associated with the post
1234:..\..\..\..\..\..\uCOS-III\Source/os_flag.c **** *
1235:..\..\..\..\..\..\uCOS-III\Source/os_flag.c **** * Returns    : none
ARM GAS  C:\Users\alex\AppData\Local\Temp\cc9CNbDG.s 			page 60


1236:..\..\..\..\..\..\uCOS-III\Source/os_flag.c **** *
1237:..\..\..\..\..\..\uCOS-III\Source/os_flag.c **** * Note(s)    : This function is INTERNAL to uC/OS-III and your application should not call it.
1238:..\..\..\..\..\..\uCOS-III\Source/os_flag.c **** ***************************************************************************************************
1239:..\..\..\..\..\..\uCOS-III\Source/os_flag.c **** */
1240:..\..\..\..\..\..\uCOS-III\Source/os_flag.c **** 
1241:..\..\..\..\..\..\uCOS-III\Source/os_flag.c **** void   OS_FlagTaskRdy (OS_TCB    *p_tcb,
1242:..\..\..\..\..\..\uCOS-III\Source/os_flag.c ****                        OS_FLAGS   flags_rdy,
1243:..\..\..\..\..\..\uCOS-III\Source/os_flag.c ****                        CPU_TS     ts)
1244:..\..\..\..\..\..\uCOS-III\Source/os_flag.c **** {
 2107              		.loc 1 1244 0
 2108              		.cfi_startproc
 2109              		@ args = 0, pretend = 0, frame = 16
 2110              		@ frame_needed = 1, uses_anonymous_args = 0
 2111 0000 80B5     		push	{r7, lr}
 2112              		.cfi_def_cfa_offset 8
 2113              		.cfi_offset 7, -8
 2114              		.cfi_offset 14, -4
 2115 0002 84B0     		sub	sp, sp, #16
 2116              		.cfi_def_cfa_offset 24
 2117 0004 00AF     		add	r7, sp, #0
 2118              		.cfi_def_cfa_register 7
 2119 0006 F860     		str	r0, [r7, #12]
 2120 0008 B960     		str	r1, [r7, #8]
 2121 000a 7A60     		str	r2, [r7, #4]
1245:..\..\..\..\..\..\uCOS-III\Source/os_flag.c ****     p_tcb->FlagsRdy   = flags_rdy;
 2122              		.loc 1 1245 0
 2123 000c FB68     		ldr	r3, [r7, #12]
 2124 000e BA68     		ldr	r2, [r7, #8]
 2125 0010 C3F88420 		str	r2, [r3, #132]
1246:..\..\..\..\..\..\uCOS-III\Source/os_flag.c ****     p_tcb->PendStatus = OS_STATUS_PEND_OK;                  /* Clear pend status                   
 2126              		.loc 1 1246 0
 2127 0014 FB68     		ldr	r3, [r7, #12]
 2128 0016 0022     		movs	r2, #0
 2129 0018 83F83520 		strb	r2, [r3, #53]
1247:..\..\..\..\..\..\uCOS-III\Source/os_flag.c ****     p_tcb->PendOn     = OS_TASK_PEND_ON_NOTHING;            /* Indicate no longer pending          
 2130              		.loc 1 1247 0
 2131 001c FB68     		ldr	r3, [r7, #12]
 2132 001e 0022     		movs	r2, #0
 2133 0020 83F83420 		strb	r2, [r3, #52]
1248:..\..\..\..\..\..\uCOS-III\Source/os_flag.c ****     p_tcb->TS         = ts;
 2134              		.loc 1 1248 0
 2135 0024 FB68     		ldr	r3, [r7, #12]
 2136 0026 7A68     		ldr	r2, [r7, #4]
 2137 0028 1A64     		str	r2, [r3, #64]
1249:..\..\..\..\..\..\uCOS-III\Source/os_flag.c ****     switch (p_tcb->TaskState) {
 2138              		.loc 1 1249 0
 2139 002a FB68     		ldr	r3, [r7, #12]
 2140 002c 93F83630 		ldrb	r3, [r3, #54]	@ zero_extendqisi2
 2141 0030 072B     		cmp	r3, #7
 2142 0032 20D8     		bhi	.L176
 2143 0034 01A2     		adr	r2, .L172
 2144 0036 52F823F0 		ldr	pc, [r2, r3, lsl #2]
 2145 003a 00BF     		.p2align 2
 2146              	.L172:
 2147 003c 77000000 		.word	.L176+1
 2148 0040 77000000 		.word	.L176+1
 2149 0044 5D000000 		.word	.L173+1
ARM GAS  C:\Users\alex\AppData\Local\Temp\cc9CNbDG.s 			page 61


 2150 0048 5D000000 		.word	.L173+1
 2151 004c 77000000 		.word	.L176+1
 2152 0050 77000000 		.word	.L176+1
 2153 0054 6D000000 		.word	.L174+1
 2154 0058 6D000000 		.word	.L174+1
 2155              		.p2align 1
 2156              	.L173:
1250:..\..\..\..\..\..\uCOS-III\Source/os_flag.c ****         case OS_TASK_STATE_RDY:
1251:..\..\..\..\..\..\uCOS-III\Source/os_flag.c ****         case OS_TASK_STATE_DLY:
1252:..\..\..\..\..\..\uCOS-III\Source/os_flag.c ****         case OS_TASK_STATE_DLY_SUSPENDED:
1253:..\..\..\..\..\..\uCOS-III\Source/os_flag.c ****         case OS_TASK_STATE_SUSPENDED:
1254:..\..\..\..\..\..\uCOS-III\Source/os_flag.c ****              break;
1255:..\..\..\..\..\..\uCOS-III\Source/os_flag.c **** 
1256:..\..\..\..\..\..\uCOS-III\Source/os_flag.c ****         case OS_TASK_STATE_PEND:
1257:..\..\..\..\..\..\uCOS-III\Source/os_flag.c ****         case OS_TASK_STATE_PEND_TIMEOUT:
1258:..\..\..\..\..\..\uCOS-III\Source/os_flag.c ****              OS_TaskRdy(p_tcb);
 2157              		.loc 1 1258 0
 2158 005c F868     		ldr	r0, [r7, #12]
 2159 005e FFF7FEFF 		bl	OS_TaskRdy
1259:..\..\..\..\..\..\uCOS-III\Source/os_flag.c ****              p_tcb->TaskState = OS_TASK_STATE_RDY;
 2160              		.loc 1 1259 0
 2161 0062 FB68     		ldr	r3, [r7, #12]
 2162 0064 0022     		movs	r2, #0
 2163 0066 83F83620 		strb	r2, [r3, #54]
1260:..\..\..\..\..\..\uCOS-III\Source/os_flag.c ****              break;
 2164              		.loc 1 1260 0
 2165 006a 05E0     		b	.L175
 2166              	.L174:
1261:..\..\..\..\..\..\uCOS-III\Source/os_flag.c **** 
1262:..\..\..\..\..\..\uCOS-III\Source/os_flag.c ****         case OS_TASK_STATE_PEND_SUSPENDED:
1263:..\..\..\..\..\..\uCOS-III\Source/os_flag.c ****         case OS_TASK_STATE_PEND_TIMEOUT_SUSPENDED:
1264:..\..\..\..\..\..\uCOS-III\Source/os_flag.c ****              p_tcb->TaskState = OS_TASK_STATE_SUSPENDED;
 2167              		.loc 1 1264 0
 2168 006c FB68     		ldr	r3, [r7, #12]
 2169 006e 0422     		movs	r2, #4
 2170 0070 83F83620 		strb	r2, [r3, #54]
1265:..\..\..\..\..\..\uCOS-III\Source/os_flag.c ****              break;
 2171              		.loc 1 1265 0
 2172 0074 00E0     		b	.L175
 2173              	.L176:
1266:..\..\..\..\..\..\uCOS-III\Source/os_flag.c **** 
1267:..\..\..\..\..\..\uCOS-III\Source/os_flag.c ****         default:
1268:..\..\..\..\..\..\uCOS-III\Source/os_flag.c ****              break;
 2174              		.loc 1 1268 0
 2175 0076 00BF     		nop
 2176              	.L175:
1269:..\..\..\..\..\..\uCOS-III\Source/os_flag.c ****     }
1270:..\..\..\..\..\..\uCOS-III\Source/os_flag.c ****     OS_PendListRemove(p_tcb);
 2177              		.loc 1 1270 0
 2178 0078 F868     		ldr	r0, [r7, #12]
 2179 007a FFF7FEFF 		bl	OS_PendListRemove
1271:..\..\..\..\..\..\uCOS-III\Source/os_flag.c **** }
 2180              		.loc 1 1271 0
 2181 007e 00BF     		nop
 2182 0080 1037     		adds	r7, r7, #16
 2183              		.cfi_def_cfa_offset 8
 2184 0082 BD46     		mov	sp, r7
ARM GAS  C:\Users\alex\AppData\Local\Temp\cc9CNbDG.s 			page 62


 2185              		.cfi_def_cfa_register 13
 2186              		@ sp needed
 2187 0084 80BD     		pop	{r7, pc}
 2188              		.cfi_endproc
 2189              	.LFE12:
 2190              		.size	OS_FlagTaskRdy, .-OS_FlagTaskRdy
 2191 0086 00BF     		.text
 2192              	.Letext0:
 2193              		.file 2 "..\\..\\..\\..\\..\\..\\uC-CPU\\ARM-Cortex-M3\\GNU/cpu.h"
 2194              		.file 3 "..\\..\\..\\..\\..\\..\\uC-CPU/cpu_core.h"
 2195              		.file 4 "..\\..\\..\\..\\..\\..\\uCOS-III\\Source/os_type.h"
 2196              		.file 5 "..\\..\\..\\..\\..\\..\\uCOS-III\\Source/os.h"