ARM GAS  C:\Users\alex\AppData\Local\Temp\cctmBoHx.s 			page 1


   1              		.syntax unified
   2              		.cpu cortex-m3
   3              		.fpu softvfp
   4              		.eabi_attribute 20, 1
   5              		.eabi_attribute 21, 1
   6              		.eabi_attribute 23, 3
   7              		.eabi_attribute 24, 1
   8              		.eabi_attribute 25, 1
   9              		.eabi_attribute 26, 1
  10              		.eabi_attribute 30, 6
  11              		.eabi_attribute 34, 1
  12              		.eabi_attribute 18, 4
  13              		.thumb
  14              		.syntax unified
  15              		.file	"os_stat.c"
  16              		.text
  17              	.Ltext0:
  18              		.cfi_sections	.debug_frame
  19              		.section	.text.OSStatReset,"ax",%progbits
  20              		.align	2
  21              		.global	OSStatReset
  22              		.thumb
  23              		.thumb_func
  24              		.type	OSStatReset, %function
  25              	OSStatReset:
  26              	.LFB0:
  27              		.file 1 "..\\..\\..\\..\\..\\..\\uCOS-III\\Source\\os_stat.c"
   1:..\..\..\..\..\..\uCOS-III\Source/os_stat.c **** /*
   2:..\..\..\..\..\..\uCOS-III\Source/os_stat.c **** ***************************************************************************************************
   3:..\..\..\..\..\..\uCOS-III\Source/os_stat.c **** *                                                      uC/OS-III
   4:..\..\..\..\..\..\uCOS-III\Source/os_stat.c **** *                                                 The Real-Time Kernel
   5:..\..\..\..\..\..\uCOS-III\Source/os_stat.c **** *
   6:..\..\..\..\..\..\uCOS-III\Source/os_stat.c **** *                                  (c) Copyright 2009-2012; Micrium, Inc.; Weston, FL
   7:..\..\..\..\..\..\uCOS-III\Source/os_stat.c **** *                           All rights reserved.  Protected by international copyright laws.
   8:..\..\..\..\..\..\uCOS-III\Source/os_stat.c **** *
   9:..\..\..\..\..\..\uCOS-III\Source/os_stat.c **** *                                                  STATISTICS MODULE
  10:..\..\..\..\..\..\uCOS-III\Source/os_stat.c **** *
  11:..\..\..\..\..\..\uCOS-III\Source/os_stat.c **** * File    : OS_STAT.C
  12:..\..\..\..\..\..\uCOS-III\Source/os_stat.c **** * By      : JJL
  13:..\..\..\..\..\..\uCOS-III\Source/os_stat.c **** * Version : V3.03.01
  14:..\..\..\..\..\..\uCOS-III\Source/os_stat.c **** *
  15:..\..\..\..\..\..\uCOS-III\Source/os_stat.c **** * LICENSING TERMS:
  16:..\..\..\..\..\..\uCOS-III\Source/os_stat.c **** * ---------------
  17:..\..\..\..\..\..\uCOS-III\Source/os_stat.c **** *           uC/OS-III is provided in source form for FREE short-term evaluation, for educational us
  18:..\..\..\..\..\..\uCOS-III\Source/os_stat.c **** *           for peaceful research.  If you plan or intend to use uC/OS-III in a commercial applicat
  19:..\..\..\..\..\..\uCOS-III\Source/os_stat.c **** *           product then, you need to contact Micrium to properly license uC/OS-III for its use in 
  20:..\..\..\..\..\..\uCOS-III\Source/os_stat.c **** *           application/product.   We provide ALL the source code for your convenience and to help 
  21:..\..\..\..\..\..\uCOS-III\Source/os_stat.c **** *           experience uC/OS-III.  The fact that the source is provided does NOT mean that you can 
  22:..\..\..\..\..\..\uCOS-III\Source/os_stat.c **** *           it commercially without paying a licensing fee.
  23:..\..\..\..\..\..\uCOS-III\Source/os_stat.c **** *
  24:..\..\..\..\..\..\uCOS-III\Source/os_stat.c **** *           Knowledge of the source code may NOT be used to develop a similar product.
  25:..\..\..\..\..\..\uCOS-III\Source/os_stat.c **** *
  26:..\..\..\..\..\..\uCOS-III\Source/os_stat.c **** *           Please help us continue to provide the embedded community with the finest software avai
  27:..\..\..\..\..\..\uCOS-III\Source/os_stat.c **** *           Your honesty is greatly appreciated.
  28:..\..\..\..\..\..\uCOS-III\Source/os_stat.c **** *
  29:..\..\..\..\..\..\uCOS-III\Source/os_stat.c **** *           You can contact us at www.micrium.com, or by phone at +1 (954) 217-2036.
  30:..\..\..\..\..\..\uCOS-III\Source/os_stat.c **** ***************************************************************************************************
ARM GAS  C:\Users\alex\AppData\Local\Temp\cctmBoHx.s 			page 2


  31:..\..\..\..\..\..\uCOS-III\Source/os_stat.c **** */
  32:..\..\..\..\..\..\uCOS-III\Source/os_stat.c **** 
  33:..\..\..\..\..\..\uCOS-III\Source/os_stat.c **** #define  MICRIUM_SOURCE
  34:..\..\..\..\..\..\uCOS-III\Source/os_stat.c **** #include <os.h>
  35:..\..\..\..\..\..\uCOS-III\Source/os_stat.c **** 
  36:..\..\..\..\..\..\uCOS-III\Source/os_stat.c **** #ifdef VSC_INCLUDE_SOURCE_FILE_NAMES
  37:..\..\..\..\..\..\uCOS-III\Source/os_stat.c **** const  CPU_CHAR  *os_stat__c = "$Id: $";
  38:..\..\..\..\..\..\uCOS-III\Source/os_stat.c **** #endif
  39:..\..\..\..\..\..\uCOS-III\Source/os_stat.c **** 
  40:..\..\..\..\..\..\uCOS-III\Source/os_stat.c **** 
  41:..\..\..\..\..\..\uCOS-III\Source/os_stat.c **** #if OS_CFG_STAT_TASK_EN > 0u
  42:..\..\..\..\..\..\uCOS-III\Source/os_stat.c **** 
  43:..\..\..\..\..\..\uCOS-III\Source/os_stat.c **** /*
  44:..\..\..\..\..\..\uCOS-III\Source/os_stat.c **** ***************************************************************************************************
  45:..\..\..\..\..\..\uCOS-III\Source/os_stat.c **** *                                                   RESET STATISTICS
  46:..\..\..\..\..\..\uCOS-III\Source/os_stat.c **** *
  47:..\..\..\..\..\..\uCOS-III\Source/os_stat.c **** * Description: This function is called by your application to reset the statistics.
  48:..\..\..\..\..\..\uCOS-III\Source/os_stat.c **** *
  49:..\..\..\..\..\..\uCOS-III\Source/os_stat.c **** * Argument(s): p_err      is a pointer to a variable that will contain an error code returned by th
  50:..\..\..\..\..\..\uCOS-III\Source/os_stat.c **** *
  51:..\..\..\..\..\..\uCOS-III\Source/os_stat.c **** *                             OS_ERR_NONE
  52:..\..\..\..\..\..\uCOS-III\Source/os_stat.c **** *
  53:..\..\..\..\..\..\uCOS-III\Source/os_stat.c **** * Returns    : none
  54:..\..\..\..\..\..\uCOS-III\Source/os_stat.c **** ***************************************************************************************************
  55:..\..\..\..\..\..\uCOS-III\Source/os_stat.c **** */
  56:..\..\..\..\..\..\uCOS-III\Source/os_stat.c **** 
  57:..\..\..\..\..\..\uCOS-III\Source/os_stat.c **** void  OSStatReset (OS_ERR  *p_err)
  58:..\..\..\..\..\..\uCOS-III\Source/os_stat.c **** {
  28              		.loc 1 58 0
  29              		.cfi_startproc
  30              		@ args = 0, pretend = 0, frame = 24
  31              		@ frame_needed = 1, uses_anonymous_args = 0
  32 0000 80B5     		push	{r7, lr}
  33              		.cfi_def_cfa_offset 8
  34              		.cfi_offset 7, -8
  35              		.cfi_offset 14, -4
  36 0002 86B0     		sub	sp, sp, #24
  37              		.cfi_def_cfa_offset 32
  38 0004 00AF     		add	r7, sp, #0
  39              		.cfi_def_cfa_register 7
  40 0006 7860     		str	r0, [r7, #4]
  59:..\..\..\..\..\..\uCOS-III\Source/os_stat.c **** #if (OS_CFG_DBG_EN > 0u)
  60:..\..\..\..\..\..\uCOS-III\Source/os_stat.c ****     OS_TCB      *p_tcb;
  61:..\..\..\..\..\..\uCOS-III\Source/os_stat.c **** #if (OS_MSG_EN > 0u)
  62:..\..\..\..\..\..\uCOS-III\Source/os_stat.c ****     OS_MSG_Q    *p_msg_q;
  63:..\..\..\..\..\..\uCOS-III\Source/os_stat.c **** #endif
  64:..\..\..\..\..\..\uCOS-III\Source/os_stat.c **** #if (OS_CFG_Q_EN > 0u)
  65:..\..\..\..\..\..\uCOS-III\Source/os_stat.c ****     OS_Q        *p_q;
  66:..\..\..\..\..\..\uCOS-III\Source/os_stat.c **** #endif
  67:..\..\..\..\..\..\uCOS-III\Source/os_stat.c **** #endif
  68:..\..\..\..\..\..\uCOS-III\Source/os_stat.c ****     CPU_SR_ALLOC();
  41              		.loc 1 68 0
  42 0008 0023     		movs	r3, #0
  43 000a FB60     		str	r3, [r7, #12]
  69:..\..\..\..\..\..\uCOS-III\Source/os_stat.c **** 
  70:..\..\..\..\..\..\uCOS-III\Source/os_stat.c **** 
  71:..\..\..\..\..\..\uCOS-III\Source/os_stat.c **** 
ARM GAS  C:\Users\alex\AppData\Local\Temp\cctmBoHx.s 			page 3


  72:..\..\..\..\..\..\uCOS-III\Source/os_stat.c **** #ifdef OS_SAFETY_CRITICAL
  73:..\..\..\..\..\..\uCOS-III\Source/os_stat.c ****     if (p_err == (OS_ERR *)0) {
  74:..\..\..\..\..\..\uCOS-III\Source/os_stat.c ****         OS_SAFETY_CRITICAL_EXCEPTION();
  75:..\..\..\..\..\..\uCOS-III\Source/os_stat.c ****         return;
  76:..\..\..\..\..\..\uCOS-III\Source/os_stat.c ****     }
  77:..\..\..\..\..\..\uCOS-III\Source/os_stat.c **** #endif
  78:..\..\..\..\..\..\uCOS-III\Source/os_stat.c **** 
  79:..\..\..\..\..\..\uCOS-III\Source/os_stat.c ****     CPU_CRITICAL_ENTER();
  44              		.loc 1 79 0
  45 000c FFF7FEFF 		bl	CPU_SR_Save
  46 0010 F860     		str	r0, [r7, #12]
  80:..\..\..\..\..\..\uCOS-III\Source/os_stat.c **** #if OS_CFG_ISR_POST_DEFERRED_EN > 0u
  81:..\..\..\..\..\..\uCOS-III\Source/os_stat.c ****     OSIntQTaskTimeMax     = (CPU_TS    )0;                  /* Reset the task execution times      
  82:..\..\..\..\..\..\uCOS-III\Source/os_stat.c ****     OSIntQNbrEntriesMax   = (OS_OBJ_QTY)0;                  /* Reset the queue maximum number of en
  83:..\..\..\..\..\..\uCOS-III\Source/os_stat.c **** #endif
  84:..\..\..\..\..\..\uCOS-III\Source/os_stat.c **** 
  85:..\..\..\..\..\..\uCOS-III\Source/os_stat.c **** #if OS_CFG_STAT_TASK_EN > 0u
  86:..\..\..\..\..\..\uCOS-III\Source/os_stat.c ****     OSStatTaskCPUUsageMax = 0u;
  47              		.loc 1 86 0
  48 0012 3B4B     		ldr	r3, .L6
  49 0014 0022     		movs	r2, #0
  50 0016 1A80     		strh	r2, [r3]	@ movhi
  87:..\..\..\..\..\..\uCOS-III\Source/os_stat.c ****     OSStatTaskTimeMax     = (CPU_TS)0;
  51              		.loc 1 87 0
  52 0018 3A4B     		ldr	r3, .L6+4
  53 001a 0022     		movs	r2, #0
  54 001c 1A60     		str	r2, [r3]
  88:..\..\..\..\..\..\uCOS-III\Source/os_stat.c **** #endif
  89:..\..\..\..\..\..\uCOS-III\Source/os_stat.c **** 
  90:..\..\..\..\..\..\uCOS-III\Source/os_stat.c ****     OSTickTaskTimeMax     = (CPU_TS)0;
  55              		.loc 1 90 0
  56 001e 3A4B     		ldr	r3, .L6+8
  57 0020 0022     		movs	r2, #0
  58 0022 1A60     		str	r2, [r3]
  91:..\..\..\..\..\..\uCOS-III\Source/os_stat.c **** 
  92:..\..\..\..\..\..\uCOS-III\Source/os_stat.c **** #if OS_CFG_TMR_EN > 0u
  93:..\..\..\..\..\..\uCOS-III\Source/os_stat.c ****     OSTmrTaskTimeMax      = (CPU_TS)0;
  59              		.loc 1 93 0
  60 0024 394B     		ldr	r3, .L6+12
  61 0026 0022     		movs	r2, #0
  62 0028 1A60     		str	r2, [r3]
  94:..\..\..\..\..\..\uCOS-III\Source/os_stat.c **** #endif
  95:..\..\..\..\..\..\uCOS-III\Source/os_stat.c **** 
  96:..\..\..\..\..\..\uCOS-III\Source/os_stat.c **** #ifdef CPU_CFG_INT_DIS_MEAS_EN
  97:..\..\..\..\..\..\uCOS-III\Source/os_stat.c ****     OSIntDisTimeMax       = (CPU_TS)0;                      /* Reset the maximum interrupt disable 
  98:..\..\..\..\..\..\uCOS-III\Source/os_stat.c **** #endif
  99:..\..\..\..\..\..\uCOS-III\Source/os_stat.c **** 
 100:..\..\..\..\..\..\uCOS-III\Source/os_stat.c **** #if OS_CFG_SCHED_LOCK_TIME_MEAS_EN > 0u
 101:..\..\..\..\..\..\uCOS-III\Source/os_stat.c ****     OSSchedLockTimeMax    = (CPU_TS)0;                      /* Reset the maximum scheduler lock tim
 102:..\..\..\..\..\..\uCOS-III\Source/os_stat.c **** #endif
 103:..\..\..\..\..\..\uCOS-III\Source/os_stat.c **** 
 104:..\..\..\..\..\..\uCOS-III\Source/os_stat.c **** #if OS_MSG_EN > 0u
 105:..\..\..\..\..\..\uCOS-III\Source/os_stat.c ****     OSMsgPool.NbrUsedMax  = 0u;
  63              		.loc 1 105 0
  64 002a 394B     		ldr	r3, .L6+16
  65 002c 0022     		movs	r2, #0
  66 002e 1A81     		strh	r2, [r3, #8]	@ movhi
ARM GAS  C:\Users\alex\AppData\Local\Temp\cctmBoHx.s 			page 4


 106:..\..\..\..\..\..\uCOS-III\Source/os_stat.c **** #endif
 107:..\..\..\..\..\..\uCOS-III\Source/os_stat.c ****     CPU_CRITICAL_EXIT();
  67              		.loc 1 107 0
  68 0030 F868     		ldr	r0, [r7, #12]
  69 0032 FFF7FEFF 		bl	CPU_SR_Restore
 108:..\..\..\..\..\..\uCOS-III\Source/os_stat.c **** 
 109:..\..\..\..\..\..\uCOS-III\Source/os_stat.c **** #if OS_CFG_DBG_EN > 0u
 110:..\..\..\..\..\..\uCOS-III\Source/os_stat.c ****     CPU_CRITICAL_ENTER();
  70              		.loc 1 110 0
  71 0036 FFF7FEFF 		bl	CPU_SR_Save
  72 003a F860     		str	r0, [r7, #12]
 111:..\..\..\..\..\..\uCOS-III\Source/os_stat.c ****     p_tcb = OSTaskDbgListPtr;
  73              		.loc 1 111 0
  74 003c 354B     		ldr	r3, .L6+20
  75 003e 1B68     		ldr	r3, [r3]
  76 0040 7B61     		str	r3, [r7, #20]
 112:..\..\..\..\..\..\uCOS-III\Source/os_stat.c ****     CPU_CRITICAL_EXIT();
  77              		.loc 1 112 0
  78 0042 F868     		ldr	r0, [r7, #12]
  79 0044 FFF7FEFF 		bl	CPU_SR_Restore
 113:..\..\..\..\..\..\uCOS-III\Source/os_stat.c ****     while (p_tcb != (OS_TCB *)0) {                          /* Reset per-Task statistics           
  80              		.loc 1 113 0
  81 0048 30E0     		b	.L2
  82              	.L3:
 114:..\..\..\..\..\..\uCOS-III\Source/os_stat.c ****         CPU_CRITICAL_ENTER();
  83              		.loc 1 114 0
  84 004a FFF7FEFF 		bl	CPU_SR_Save
  85 004e F860     		str	r0, [r7, #12]
 115:..\..\..\..\..\..\uCOS-III\Source/os_stat.c **** 
 116:..\..\..\..\..\..\uCOS-III\Source/os_stat.c **** #ifdef CPU_CFG_INT_DIS_MEAS_EN
 117:..\..\..\..\..\..\uCOS-III\Source/os_stat.c ****         p_tcb->IntDisTimeMax    = (CPU_TS      )0;
 118:..\..\..\..\..\..\uCOS-III\Source/os_stat.c **** #endif
 119:..\..\..\..\..\..\uCOS-III\Source/os_stat.c **** 
 120:..\..\..\..\..\..\uCOS-III\Source/os_stat.c **** #if OS_CFG_SCHED_LOCK_TIME_MEAS_EN > 0u
 121:..\..\..\..\..\..\uCOS-III\Source/os_stat.c ****         p_tcb->SchedLockTimeMax = (CPU_TS      )0;
 122:..\..\..\..\..\..\uCOS-III\Source/os_stat.c **** #endif
 123:..\..\..\..\..\..\uCOS-III\Source/os_stat.c **** 
 124:..\..\..\..\..\..\uCOS-III\Source/os_stat.c **** #if OS_CFG_TASK_PROFILE_EN > 0u
 125:..\..\..\..\..\..\uCOS-III\Source/os_stat.c **** #if OS_CFG_TASK_Q_EN > 0u
 126:..\..\..\..\..\..\uCOS-III\Source/os_stat.c ****         p_tcb->MsgQPendTimeMax  = (CPU_TS      )0;
  86              		.loc 1 126 0
  87 0050 7B69     		ldr	r3, [r7, #20]
  88 0052 0022     		movs	r2, #0
  89 0054 9A67     		str	r2, [r3, #120]
 127:..\..\..\..\..\..\uCOS-III\Source/os_stat.c **** #endif
 128:..\..\..\..\..\..\uCOS-III\Source/os_stat.c ****         p_tcb->SemPendTimeMax   = (CPU_TS      )0;
  90              		.loc 1 128 0
  91 0056 7B69     		ldr	r3, [r7, #20]
  92 0058 0022     		movs	r2, #0
  93 005a C3F8A820 		str	r2, [r3, #168]
 129:..\..\..\..\..\..\uCOS-III\Source/os_stat.c ****         p_tcb->CtxSwCtr         = (OS_CTR      )0;
  94              		.loc 1 129 0
  95 005e 7B69     		ldr	r3, [r7, #20]
  96 0060 0022     		movs	r2, #0
  97 0062 C3F89020 		str	r2, [r3, #144]
 130:..\..\..\..\..\..\uCOS-III\Source/os_stat.c ****         p_tcb->CPUUsage         = (OS_CPU_USAGE)0;
  98              		.loc 1 130 0
ARM GAS  C:\Users\alex\AppData\Local\Temp\cctmBoHx.s 			page 5


  99 0066 7B69     		ldr	r3, [r7, #20]
 100 0068 0022     		movs	r2, #0
 101 006a A3F88C20 		strh	r2, [r3, #140]	@ movhi
 131:..\..\..\..\..\..\uCOS-III\Source/os_stat.c ****         p_tcb->CPUUsageMax      = (OS_CPU_USAGE)0;
 102              		.loc 1 131 0
 103 006e 7B69     		ldr	r3, [r7, #20]
 104 0070 0022     		movs	r2, #0
 105 0072 A3F88E20 		strh	r2, [r3, #142]	@ movhi
 132:..\..\..\..\..\..\uCOS-III\Source/os_stat.c ****         p_tcb->CyclesTotal      = (OS_CYCLES   )0;
 106              		.loc 1 132 0
 107 0076 7B69     		ldr	r3, [r7, #20]
 108 0078 0022     		movs	r2, #0
 109 007a C3F89C20 		str	r2, [r3, #156]
 133:..\..\..\..\..\..\uCOS-III\Source/os_stat.c ****         p_tcb->CyclesTotalPrev  = (OS_CYCLES   )0;
 110              		.loc 1 133 0
 111 007e 7B69     		ldr	r3, [r7, #20]
 112 0080 0022     		movs	r2, #0
 113 0082 C3F8A020 		str	r2, [r3, #160]
 134:..\..\..\..\..\..\uCOS-III\Source/os_stat.c ****         p_tcb->CyclesStart      =  OS_TS_GET();
 114              		.loc 1 134 0
 115 0086 FFF7FEFF 		bl	CPU_TS_TmrRd
 116 008a 0246     		mov	r2, r0
 117 008c 7B69     		ldr	r3, [r7, #20]
 118 008e C3F89820 		str	r2, [r3, #152]
 135:..\..\..\..\..\..\uCOS-III\Source/os_stat.c **** #endif
 136:..\..\..\..\..\..\uCOS-III\Source/os_stat.c **** 
 137:..\..\..\..\..\..\uCOS-III\Source/os_stat.c **** #if OS_CFG_TASK_Q_EN > 0u
 138:..\..\..\..\..\..\uCOS-III\Source/os_stat.c ****         p_msg_q                 = &p_tcb->MsgQ;
 119              		.loc 1 138 0
 120 0092 7B69     		ldr	r3, [r7, #20]
 121 0094 6433     		adds	r3, r3, #100
 122 0096 BB60     		str	r3, [r7, #8]
 139:..\..\..\..\..\..\uCOS-III\Source/os_stat.c ****         p_msg_q->NbrEntriesMax  = (OS_MSG_QTY  )0;
 123              		.loc 1 139 0
 124 0098 BB68     		ldr	r3, [r7, #8]
 125 009a 0022     		movs	r2, #0
 126 009c 9A81     		strh	r2, [r3, #12]	@ movhi
 140:..\..\..\..\..\..\uCOS-III\Source/os_stat.c **** #endif
 141:..\..\..\..\..\..\uCOS-III\Source/os_stat.c ****         p_tcb                   = p_tcb->DbgNextPtr;
 127              		.loc 1 141 0
 128 009e 7B69     		ldr	r3, [r7, #20]
 129 00a0 D3F8B830 		ldr	r3, [r3, #184]
 130 00a4 7B61     		str	r3, [r7, #20]
 142:..\..\..\..\..\..\uCOS-III\Source/os_stat.c ****         CPU_CRITICAL_EXIT();
 131              		.loc 1 142 0
 132 00a6 F868     		ldr	r0, [r7, #12]
 133 00a8 FFF7FEFF 		bl	CPU_SR_Restore
 134              	.L2:
 113:..\..\..\..\..\..\uCOS-III\Source/os_stat.c ****         CPU_CRITICAL_ENTER();
 135              		.loc 1 113 0
 136 00ac 7B69     		ldr	r3, [r7, #20]
 137 00ae 002B     		cmp	r3, #0
 138 00b0 CBD1     		bne	.L3
 143:..\..\..\..\..\..\uCOS-III\Source/os_stat.c ****     }
 144:..\..\..\..\..\..\uCOS-III\Source/os_stat.c **** #endif
 145:..\..\..\..\..\..\uCOS-III\Source/os_stat.c **** 
 146:..\..\..\..\..\..\uCOS-III\Source/os_stat.c **** #if (OS_CFG_Q_EN > 0u) && (OS_CFG_DBG_EN > 0u)
ARM GAS  C:\Users\alex\AppData\Local\Temp\cctmBoHx.s 			page 6


 147:..\..\..\..\..\..\uCOS-III\Source/os_stat.c ****     CPU_CRITICAL_ENTER();
 139              		.loc 1 147 0
 140 00b2 FFF7FEFF 		bl	CPU_SR_Save
 141 00b6 F860     		str	r0, [r7, #12]
 148:..\..\..\..\..\..\uCOS-III\Source/os_stat.c ****     p_q = OSQDbgListPtr;
 142              		.loc 1 148 0
 143 00b8 174B     		ldr	r3, .L6+24
 144 00ba 1B68     		ldr	r3, [r3]
 145 00bc 3B61     		str	r3, [r7, #16]
 149:..\..\..\..\..\..\uCOS-III\Source/os_stat.c ****     CPU_CRITICAL_EXIT();
 146              		.loc 1 149 0
 147 00be F868     		ldr	r0, [r7, #12]
 148 00c0 FFF7FEFF 		bl	CPU_SR_Restore
 150:..\..\..\..\..\..\uCOS-III\Source/os_stat.c ****     while (p_q != (OS_Q *)0) {                              /* Reset message queues statistics     
 149              		.loc 1 150 0
 150 00c4 0EE0     		b	.L4
 151              	.L5:
 151:..\..\..\..\..\..\uCOS-III\Source/os_stat.c ****         CPU_CRITICAL_ENTER();
 152              		.loc 1 151 0
 153 00c6 FFF7FEFF 		bl	CPU_SR_Save
 154 00ca F860     		str	r0, [r7, #12]
 152:..\..\..\..\..\..\uCOS-III\Source/os_stat.c ****         p_msg_q                = &p_q->MsgQ;
 155              		.loc 1 152 0
 156 00cc 3B69     		ldr	r3, [r7, #16]
 157 00ce 2033     		adds	r3, r3, #32
 158 00d0 BB60     		str	r3, [r7, #8]
 153:..\..\..\..\..\..\uCOS-III\Source/os_stat.c ****         p_msg_q->NbrEntriesMax = (OS_MSG_QTY)0;
 159              		.loc 1 153 0
 160 00d2 BB68     		ldr	r3, [r7, #8]
 161 00d4 0022     		movs	r2, #0
 162 00d6 9A81     		strh	r2, [r3, #12]	@ movhi
 154:..\..\..\..\..\..\uCOS-III\Source/os_stat.c ****         p_q                    = p_q->DbgNextPtr;
 163              		.loc 1 154 0
 164 00d8 3B69     		ldr	r3, [r7, #16]
 165 00da 9B69     		ldr	r3, [r3, #24]
 166 00dc 3B61     		str	r3, [r7, #16]
 155:..\..\..\..\..\..\uCOS-III\Source/os_stat.c ****         CPU_CRITICAL_EXIT();
 167              		.loc 1 155 0
 168 00de F868     		ldr	r0, [r7, #12]
 169 00e0 FFF7FEFF 		bl	CPU_SR_Restore
 170              	.L4:
 150:..\..\..\..\..\..\uCOS-III\Source/os_stat.c ****         CPU_CRITICAL_ENTER();
 171              		.loc 1 150 0
 172 00e4 3B69     		ldr	r3, [r7, #16]
 173 00e6 002B     		cmp	r3, #0
 174 00e8 EDD1     		bne	.L5
 156:..\..\..\..\..\..\uCOS-III\Source/os_stat.c ****     }
 157:..\..\..\..\..\..\uCOS-III\Source/os_stat.c **** #endif
 158:..\..\..\..\..\..\uCOS-III\Source/os_stat.c **** 
 159:..\..\..\..\..\..\uCOS-III\Source/os_stat.c ****     OS_TickListResetPeak();                                 /* Reset tick wheel statistics         
 175              		.loc 1 159 0
 176 00ea FFF7FEFF 		bl	OS_TickListResetPeak
 160:..\..\..\..\..\..\uCOS-III\Source/os_stat.c **** 
 161:..\..\..\..\..\..\uCOS-III\Source/os_stat.c **** #if OS_CFG_TMR_EN > 0u
 162:..\..\..\..\..\..\uCOS-III\Source/os_stat.c ****     OS_TmrResetPeak();
 177              		.loc 1 162 0
 178 00ee FFF7FEFF 		bl	OS_TmrResetPeak
ARM GAS  C:\Users\alex\AppData\Local\Temp\cctmBoHx.s 			page 7


 163:..\..\..\..\..\..\uCOS-III\Source/os_stat.c **** #endif
 164:..\..\..\..\..\..\uCOS-III\Source/os_stat.c **** 
 165:..\..\..\..\..\..\uCOS-III\Source/os_stat.c **** 
 166:..\..\..\..\..\..\uCOS-III\Source/os_stat.c ****    *p_err = OS_ERR_NONE;
 179              		.loc 1 166 0
 180 00f2 7B68     		ldr	r3, [r7, #4]
 181 00f4 0022     		movs	r2, #0
 182 00f6 1A80     		strh	r2, [r3]	@ movhi
 167:..\..\..\..\..\..\uCOS-III\Source/os_stat.c **** }
 183              		.loc 1 167 0
 184 00f8 00BF     		nop
 185 00fa 1837     		adds	r7, r7, #24
 186              		.cfi_def_cfa_offset 8
 187 00fc BD46     		mov	sp, r7
 188              		.cfi_def_cfa_register 13
 189              		@ sp needed
 190 00fe 80BD     		pop	{r7, pc}
 191              	.L7:
 192              		.align	2
 193              	.L6:
 194 0100 00000000 		.word	OSStatTaskCPUUsageMax
 195 0104 00000000 		.word	OSStatTaskTimeMax
 196 0108 00000000 		.word	OSTickTaskTimeMax
 197 010c 00000000 		.word	OSTmrTaskTimeMax
 198 0110 00000000 		.word	OSMsgPool
 199 0114 00000000 		.word	OSTaskDbgListPtr
 200 0118 00000000 		.word	OSQDbgListPtr
 201              		.cfi_endproc
 202              	.LFE0:
 203              		.size	OSStatReset, .-OSStatReset
 204              		.section	.text.OSStatTaskCPUUsageInit,"ax",%progbits
 205              		.align	2
 206              		.global	OSStatTaskCPUUsageInit
 207              		.thumb
 208              		.thumb_func
 209              		.type	OSStatTaskCPUUsageInit, %function
 210              	OSStatTaskCPUUsageInit:
 211              	.LFB1:
 168:..\..\..\..\..\..\uCOS-III\Source/os_stat.c **** 
 169:..\..\..\..\..\..\uCOS-III\Source/os_stat.c **** /*$PAGE*/
 170:..\..\..\..\..\..\uCOS-III\Source/os_stat.c **** /*
 171:..\..\..\..\..\..\uCOS-III\Source/os_stat.c **** ***************************************************************************************************
 172:..\..\..\..\..\..\uCOS-III\Source/os_stat.c **** *                                                DETERMINE THE CPU CAPACITY
 173:..\..\..\..\..\..\uCOS-III\Source/os_stat.c **** *
 174:..\..\..\..\..\..\uCOS-III\Source/os_stat.c **** * Description: This function is called by your application to establish CPU usage by first determin
 175:..\..\..\..\..\..\uCOS-III\Source/os_stat.c **** *              counter would count to in 1/10 second if no other tasks were to execute during that 
 176:..\..\..\..\..\..\uCOS-III\Source/os_stat.c **** *              then determined by a low priority task which keeps track of this 32-bit counter ever
 177:..\..\..\..\..\..\uCOS-III\Source/os_stat.c **** *              time, with other tasks running.  CPU usage is determined by:
 178:..\..\..\..\..\..\uCOS-III\Source/os_stat.c **** *
 179:..\..\..\..\..\..\uCOS-III\Source/os_stat.c **** *                                             OS_Stat_IdleCtr
 180:..\..\..\..\..\..\uCOS-III\Source/os_stat.c **** *                 CPU Usage (%) = 100 * (1 - ------------------)
 181:..\..\..\..\..\..\uCOS-III\Source/os_stat.c **** *                                            OS_Stat_IdleCtrMax
 182:..\..\..\..\..\..\uCOS-III\Source/os_stat.c **** *
 183:..\..\..\..\..\..\uCOS-III\Source/os_stat.c **** * Argument(s): p_err      is a pointer to a variable that will contain an error code returned by th
 184:..\..\..\..\..\..\uCOS-III\Source/os_stat.c **** *
 185:..\..\..\..\..\..\uCOS-III\Source/os_stat.c **** *                             OS_ERR_NONE
 186:..\..\..\..\..\..\uCOS-III\Source/os_stat.c **** *
ARM GAS  C:\Users\alex\AppData\Local\Temp\cctmBoHx.s 			page 8


 187:..\..\..\..\..\..\uCOS-III\Source/os_stat.c **** * Returns    : none
 188:..\..\..\..\..\..\uCOS-III\Source/os_stat.c **** ***************************************************************************************************
 189:..\..\..\..\..\..\uCOS-III\Source/os_stat.c **** */
 190:..\..\..\..\..\..\uCOS-III\Source/os_stat.c **** 
 191:..\..\..\..\..\..\uCOS-III\Source/os_stat.c **** void  OSStatTaskCPUUsageInit (OS_ERR  *p_err)
 192:..\..\..\..\..\..\uCOS-III\Source/os_stat.c **** {
 212              		.loc 1 192 0
 213              		.cfi_startproc
 214              		@ args = 0, pretend = 0, frame = 24
 215              		@ frame_needed = 1, uses_anonymous_args = 0
 216 0000 80B5     		push	{r7, lr}
 217              		.cfi_def_cfa_offset 8
 218              		.cfi_offset 7, -8
 219              		.cfi_offset 14, -4
 220 0002 86B0     		sub	sp, sp, #24
 221              		.cfi_def_cfa_offset 32
 222 0004 00AF     		add	r7, sp, #0
 223              		.cfi_def_cfa_register 7
 224 0006 7860     		str	r0, [r7, #4]
 193:..\..\..\..\..\..\uCOS-III\Source/os_stat.c ****     OS_ERR   err;
 194:..\..\..\..\..\..\uCOS-III\Source/os_stat.c ****     OS_TICK  dly;
 195:..\..\..\..\..\..\uCOS-III\Source/os_stat.c ****     CPU_SR_ALLOC();
 225              		.loc 1 195 0
 226 0008 0023     		movs	r3, #0
 227 000a 3B61     		str	r3, [r7, #16]
 196:..\..\..\..\..\..\uCOS-III\Source/os_stat.c **** 
 197:..\..\..\..\..\..\uCOS-III\Source/os_stat.c **** 
 198:..\..\..\..\..\..\uCOS-III\Source/os_stat.c **** 
 199:..\..\..\..\..\..\uCOS-III\Source/os_stat.c **** #ifdef OS_SAFETY_CRITICAL
 200:..\..\..\..\..\..\uCOS-III\Source/os_stat.c ****     if (p_err == (OS_ERR *)0) {
 201:..\..\..\..\..\..\uCOS-III\Source/os_stat.c ****         OS_SAFETY_CRITICAL_EXCEPTION();
 202:..\..\..\..\..\..\uCOS-III\Source/os_stat.c ****         return;
 203:..\..\..\..\..\..\uCOS-III\Source/os_stat.c ****     }
 204:..\..\..\..\..\..\uCOS-III\Source/os_stat.c **** #endif
 205:..\..\..\..\..\..\uCOS-III\Source/os_stat.c **** 
 206:..\..\..\..\..\..\uCOS-III\Source/os_stat.c **** #if (OS_CFG_TMR_EN > 0u)
 207:..\..\..\..\..\..\uCOS-III\Source/os_stat.c ****     OSTaskSuspend(&OSTmrTaskTCB, &err);
 228              		.loc 1 207 0
 229 000c 07F10E03 		add	r3, r7, #14
 230 0010 1946     		mov	r1, r3
 231 0012 3248     		ldr	r0, .L16
 232 0014 FFF7FEFF 		bl	OSTaskSuspend
 208:..\..\..\..\..\..\uCOS-III\Source/os_stat.c ****     if (err != OS_ERR_NONE) {
 233              		.loc 1 208 0
 234 0018 FB89     		ldrh	r3, [r7, #14]
 235 001a 002B     		cmp	r3, #0
 236 001c 03D0     		beq	.L9
 209:..\..\..\..\..\..\uCOS-III\Source/os_stat.c ****        *p_err = err;
 237              		.loc 1 209 0
 238 001e FA89     		ldrh	r2, [r7, #14]
 239 0020 7B68     		ldr	r3, [r7, #4]
 240 0022 1A80     		strh	r2, [r3]	@ movhi
 210:..\..\..\..\..\..\uCOS-III\Source/os_stat.c ****         return;
 241              		.loc 1 210 0
 242 0024 56E0     		b	.L8
 243              	.L9:
 211:..\..\..\..\..\..\uCOS-III\Source/os_stat.c ****     }
ARM GAS  C:\Users\alex\AppData\Local\Temp\cctmBoHx.s 			page 9


 212:..\..\..\..\..\..\uCOS-III\Source/os_stat.c **** #endif
 213:..\..\..\..\..\..\uCOS-III\Source/os_stat.c **** 
 214:..\..\..\..\..\..\uCOS-III\Source/os_stat.c ****     OSTimeDly((OS_TICK )2,                                  /* Synchronize with clock tick         
 244              		.loc 1 214 0
 245 0026 07F10E03 		add	r3, r7, #14
 246 002a 1A46     		mov	r2, r3
 247 002c 0021     		movs	r1, #0
 248 002e 0220     		movs	r0, #2
 249 0030 FFF7FEFF 		bl	OSTimeDly
 215:..\..\..\..\..\..\uCOS-III\Source/os_stat.c ****               (OS_OPT  )OS_OPT_TIME_DLY,
 216:..\..\..\..\..\..\uCOS-III\Source/os_stat.c ****               (OS_ERR *)&err);
 217:..\..\..\..\..\..\uCOS-III\Source/os_stat.c ****     if (err != OS_ERR_NONE) {
 250              		.loc 1 217 0
 251 0034 FB89     		ldrh	r3, [r7, #14]
 252 0036 002B     		cmp	r3, #0
 253 0038 03D0     		beq	.L11
 218:..\..\..\..\..\..\uCOS-III\Source/os_stat.c ****        *p_err = err;
 254              		.loc 1 218 0
 255 003a FA89     		ldrh	r2, [r7, #14]
 256 003c 7B68     		ldr	r3, [r7, #4]
 257 003e 1A80     		strh	r2, [r3]	@ movhi
 219:..\..\..\..\..\..\uCOS-III\Source/os_stat.c ****         return;
 258              		.loc 1 219 0
 259 0040 48E0     		b	.L8
 260              	.L11:
 220:..\..\..\..\..\..\uCOS-III\Source/os_stat.c ****     }
 221:..\..\..\..\..\..\uCOS-III\Source/os_stat.c ****     CPU_CRITICAL_ENTER();
 261              		.loc 1 221 0
 262 0042 FFF7FEFF 		bl	CPU_SR_Save
 263 0046 3861     		str	r0, [r7, #16]
 222:..\..\..\..\..\..\uCOS-III\Source/os_stat.c ****     OSStatTaskCtr = (OS_TICK)0;                             /* Clear idle counter                  
 264              		.loc 1 222 0
 265 0048 254B     		ldr	r3, .L16+4
 266 004a 0022     		movs	r2, #0
 267 004c 1A60     		str	r2, [r3]
 223:..\..\..\..\..\..\uCOS-III\Source/os_stat.c ****     CPU_CRITICAL_EXIT();
 268              		.loc 1 223 0
 269 004e 3869     		ldr	r0, [r7, #16]
 270 0050 FFF7FEFF 		bl	CPU_SR_Restore
 224:..\..\..\..\..\..\uCOS-III\Source/os_stat.c **** 
 225:..\..\..\..\..\..\uCOS-III\Source/os_stat.c ****     dly = (OS_TICK)0;
 271              		.loc 1 225 0
 272 0054 0023     		movs	r3, #0
 273 0056 7B61     		str	r3, [r7, #20]
 226:..\..\..\..\..\..\uCOS-III\Source/os_stat.c ****     if (OSCfg_TickRate_Hz > OSCfg_StatTaskRate_Hz) {
 274              		.loc 1 226 0
 275 0058 224B     		ldr	r3, .L16+8
 276 005a 1A68     		ldr	r2, [r3]
 277 005c 224B     		ldr	r3, .L16+12
 278 005e 1B68     		ldr	r3, [r3]
 279 0060 9A42     		cmp	r2, r3
 280 0062 06D9     		bls	.L12
 227:..\..\..\..\..\..\uCOS-III\Source/os_stat.c ****         dly = (OS_TICK)(OSCfg_TickRate_Hz / OSCfg_StatTaskRate_Hz);
 281              		.loc 1 227 0
 282 0064 1F4B     		ldr	r3, .L16+8
 283 0066 1A68     		ldr	r2, [r3]
 284 0068 1F4B     		ldr	r3, .L16+12
ARM GAS  C:\Users\alex\AppData\Local\Temp\cctmBoHx.s 			page 10


 285 006a 1B68     		ldr	r3, [r3]
 286 006c B2FBF3F3 		udiv	r3, r2, r3
 287 0070 7B61     		str	r3, [r7, #20]
 288              	.L12:
 228:..\..\..\..\..\..\uCOS-III\Source/os_stat.c ****     }
 229:..\..\..\..\..\..\uCOS-III\Source/os_stat.c ****     if (dly == (OS_TICK)0) {
 289              		.loc 1 229 0
 290 0072 7B69     		ldr	r3, [r7, #20]
 291 0074 002B     		cmp	r3, #0
 292 0076 06D1     		bne	.L13
 230:..\..\..\..\..\..\uCOS-III\Source/os_stat.c ****         dly =  (OS_TICK)(OSCfg_TickRate_Hz / (OS_RATE_HZ)10);
 293              		.loc 1 230 0
 294 0078 1A4B     		ldr	r3, .L16+8
 295 007a 1B68     		ldr	r3, [r3]
 296 007c 1B4A     		ldr	r2, .L16+16
 297 007e A2FB0323 		umull	r2, r3, r2, r3
 298 0082 DB08     		lsrs	r3, r3, #3
 299 0084 7B61     		str	r3, [r7, #20]
 300              	.L13:
 231:..\..\..\..\..\..\uCOS-III\Source/os_stat.c ****     }
 232:..\..\..\..\..\..\uCOS-III\Source/os_stat.c **** 
 233:..\..\..\..\..\..\uCOS-III\Source/os_stat.c ****     OSTimeDly(dly,                                          /* Determine MAX. idle counter value   
 301              		.loc 1 233 0
 302 0086 07F10E03 		add	r3, r7, #14
 303 008a 1A46     		mov	r2, r3
 304 008c 0021     		movs	r1, #0
 305 008e 7869     		ldr	r0, [r7, #20]
 306 0090 FFF7FEFF 		bl	OSTimeDly
 234:..\..\..\..\..\..\uCOS-III\Source/os_stat.c ****               OS_OPT_TIME_DLY,
 235:..\..\..\..\..\..\uCOS-III\Source/os_stat.c ****               &err);
 236:..\..\..\..\..\..\uCOS-III\Source/os_stat.c **** 
 237:..\..\..\..\..\..\uCOS-III\Source/os_stat.c **** #if (OS_CFG_TMR_EN > 0u)
 238:..\..\..\..\..\..\uCOS-III\Source/os_stat.c ****     OSTaskResume(&OSTmrTaskTCB, &err);
 307              		.loc 1 238 0
 308 0094 07F10E03 		add	r3, r7, #14
 309 0098 1946     		mov	r1, r3
 310 009a 1048     		ldr	r0, .L16
 311 009c FFF7FEFF 		bl	OSTaskResume
 239:..\..\..\..\..\..\uCOS-III\Source/os_stat.c ****     if (err != OS_ERR_NONE) {
 312              		.loc 1 239 0
 313 00a0 FB89     		ldrh	r3, [r7, #14]
 314 00a2 002B     		cmp	r3, #0
 315 00a4 03D0     		beq	.L14
 240:..\..\..\..\..\..\uCOS-III\Source/os_stat.c ****        *p_err = err;
 316              		.loc 1 240 0
 317 00a6 FA89     		ldrh	r2, [r7, #14]
 318 00a8 7B68     		ldr	r3, [r7, #4]
 319 00aa 1A80     		strh	r2, [r3]	@ movhi
 241:..\..\..\..\..\..\uCOS-III\Source/os_stat.c ****         return;
 320              		.loc 1 241 0
 321 00ac 12E0     		b	.L8
 322              	.L14:
 242:..\..\..\..\..\..\uCOS-III\Source/os_stat.c ****     }
 243:..\..\..\..\..\..\uCOS-III\Source/os_stat.c **** #endif
 244:..\..\..\..\..\..\uCOS-III\Source/os_stat.c **** 
 245:..\..\..\..\..\..\uCOS-III\Source/os_stat.c ****     CPU_CRITICAL_ENTER();
 323              		.loc 1 245 0
ARM GAS  C:\Users\alex\AppData\Local\Temp\cctmBoHx.s 			page 11


 324 00ae FFF7FEFF 		bl	CPU_SR_Save
 325 00b2 3861     		str	r0, [r7, #16]
 246:..\..\..\..\..\..\uCOS-III\Source/os_stat.c ****     OSStatTaskTimeMax = (CPU_TS)0;
 326              		.loc 1 246 0
 327 00b4 0E4B     		ldr	r3, .L16+20
 328 00b6 0022     		movs	r2, #0
 329 00b8 1A60     		str	r2, [r3]
 247:..\..\..\..\..\..\uCOS-III\Source/os_stat.c **** 
 248:..\..\..\..\..\..\uCOS-III\Source/os_stat.c ****     OSStatTaskCtrMax  = OSStatTaskCtr;                      /* Store maximum idle counter count    
 330              		.loc 1 248 0
 331 00ba 094B     		ldr	r3, .L16+4
 332 00bc 1B68     		ldr	r3, [r3]
 333 00be 0D4A     		ldr	r2, .L16+24
 334 00c0 1360     		str	r3, [r2]
 249:..\..\..\..\..\..\uCOS-III\Source/os_stat.c ****     OSStatTaskRdy     = OS_STATE_RDY;
 335              		.loc 1 249 0
 336 00c2 0D4B     		ldr	r3, .L16+28
 337 00c4 0122     		movs	r2, #1
 338 00c6 1A70     		strb	r2, [r3]
 250:..\..\..\..\..\..\uCOS-III\Source/os_stat.c ****     CPU_CRITICAL_EXIT();
 339              		.loc 1 250 0
 340 00c8 3869     		ldr	r0, [r7, #16]
 341 00ca FFF7FEFF 		bl	CPU_SR_Restore
 251:..\..\..\..\..\..\uCOS-III\Source/os_stat.c ****    *p_err             = OS_ERR_NONE;
 342              		.loc 1 251 0
 343 00ce 7B68     		ldr	r3, [r7, #4]
 344 00d0 0022     		movs	r2, #0
 345 00d2 1A80     		strh	r2, [r3]	@ movhi
 346              	.L8:
 252:..\..\..\..\..\..\uCOS-III\Source/os_stat.c **** }
 347              		.loc 1 252 0
 348 00d4 1837     		adds	r7, r7, #24
 349              		.cfi_def_cfa_offset 8
 350 00d6 BD46     		mov	sp, r7
 351              		.cfi_def_cfa_register 13
 352              		@ sp needed
 353 00d8 80BD     		pop	{r7, pc}
 354              	.L17:
 355 00da 00BF     		.align	2
 356              	.L16:
 357 00dc 00000000 		.word	OSTmrTaskTCB
 358 00e0 00000000 		.word	OSStatTaskCtr
 359 00e4 00000000 		.word	OSCfg_TickRate_Hz
 360 00e8 00000000 		.word	OSCfg_StatTaskRate_Hz
 361 00ec CDCCCCCC 		.word	-858993459
 362 00f0 00000000 		.word	OSStatTaskTimeMax
 363 00f4 00000000 		.word	OSStatTaskCtrMax
 364 00f8 00000000 		.word	OSStatTaskRdy
 365              		.cfi_endproc
 366              	.LFE1:
 367              		.size	OSStatTaskCPUUsageInit, .-OSStatTaskCPUUsageInit
 368              		.section	.text.OS_StatTask,"ax",%progbits
 369              		.align	2
 370              		.global	OS_StatTask
 371              		.thumb
 372              		.thumb_func
 373              		.type	OS_StatTask, %function
ARM GAS  C:\Users\alex\AppData\Local\Temp\cctmBoHx.s 			page 12


 374              	OS_StatTask:
 375              	.LFB2:
 253:..\..\..\..\..\..\uCOS-III\Source/os_stat.c **** 
 254:..\..\..\..\..\..\uCOS-III\Source/os_stat.c **** /*$PAGE*/
 255:..\..\..\..\..\..\uCOS-III\Source/os_stat.c **** /*
 256:..\..\..\..\..\..\uCOS-III\Source/os_stat.c **** ***************************************************************************************************
 257:..\..\..\..\..\..\uCOS-III\Source/os_stat.c **** *                                                    STATISTICS TASK
 258:..\..\..\..\..\..\uCOS-III\Source/os_stat.c **** *
 259:..\..\..\..\..\..\uCOS-III\Source/os_stat.c **** * Description: This task is internal to uC/OS-III and is used to compute some statistics about the 
 260:..\..\..\..\..\..\uCOS-III\Source/os_stat.c **** *              environment.  Specifically, OS_StatTask() computes the CPU usage.  CPU usage is dete
 261:..\..\..\..\..\..\uCOS-III\Source/os_stat.c **** *
 262:..\..\..\..\..\..\uCOS-III\Source/os_stat.c **** *                                                   OSStatTaskCtr
 263:..\..\..\..\..\..\uCOS-III\Source/os_stat.c **** *                 OSStatTaskCPUUsage = 100 * (1 - ------------------)     (units are in %)
 264:..\..\..\..\..\..\uCOS-III\Source/os_stat.c **** *                                                  OSStatTaskCtrMax
 265:..\..\..\..\..\..\uCOS-III\Source/os_stat.c **** *
 266:..\..\..\..\..\..\uCOS-III\Source/os_stat.c **** * Arguments  : p_arg     this pointer is not used at this time.
 267:..\..\..\..\..\..\uCOS-III\Source/os_stat.c **** *
 268:..\..\..\..\..\..\uCOS-III\Source/os_stat.c **** * Returns    : none
 269:..\..\..\..\..\..\uCOS-III\Source/os_stat.c **** *
 270:..\..\..\..\..\..\uCOS-III\Source/os_stat.c **** * Note(s)    : 1) This task runs at a priority level higher than the idle task.
 271:..\..\..\..\..\..\uCOS-III\Source/os_stat.c **** *
 272:..\..\..\..\..\..\uCOS-III\Source/os_stat.c **** *              2) You can disable this task by setting the configuration #define OS_CFG_STAT_TASK_E
 273:..\..\..\..\..\..\uCOS-III\Source/os_stat.c **** *
 274:..\..\..\..\..\..\uCOS-III\Source/os_stat.c **** *              3) You MUST have at least a delay of 2/10 seconds to allow for the system to establi
 275:..\..\..\..\..\..\uCOS-III\Source/os_stat.c **** *                 for the idle counter.
 276:..\..\..\..\..\..\uCOS-III\Source/os_stat.c **** *
 277:..\..\..\..\..\..\uCOS-III\Source/os_stat.c **** *              4) This function is INTERNAL to uC/OS-III and your application should not call it.
 278:..\..\..\..\..\..\uCOS-III\Source/os_stat.c **** ***************************************************************************************************
 279:..\..\..\..\..\..\uCOS-III\Source/os_stat.c **** */
 280:..\..\..\..\..\..\uCOS-III\Source/os_stat.c **** 
 281:..\..\..\..\..\..\uCOS-III\Source/os_stat.c **** void  OS_StatTask (void  *p_arg)
 282:..\..\..\..\..\..\uCOS-III\Source/os_stat.c **** {
 376              		.loc 1 282 0
 377              		.cfi_startproc
 378              		@ args = 0, pretend = 0, frame = 64
 379              		@ frame_needed = 1, uses_anonymous_args = 0
 380 0000 80B5     		push	{r7, lr}
 381              		.cfi_def_cfa_offset 8
 382              		.cfi_offset 7, -8
 383              		.cfi_offset 14, -4
 384 0002 90B0     		sub	sp, sp, #64
 385              		.cfi_def_cfa_offset 72
 386 0004 00AF     		add	r7, sp, #0
 387              		.cfi_def_cfa_register 7
 388 0006 7860     		str	r0, [r7, #4]
 283:..\..\..\..\..\..\uCOS-III\Source/os_stat.c **** #if OS_CFG_DBG_EN > 0u
 284:..\..\..\..\..\..\uCOS-III\Source/os_stat.c **** #if OS_CFG_TASK_PROFILE_EN > 0u
 285:..\..\..\..\..\..\uCOS-III\Source/os_stat.c ****     OS_CPU_USAGE usage;
 286:..\..\..\..\..\..\uCOS-III\Source/os_stat.c ****     OS_CYCLES    cycles_total;
 287:..\..\..\..\..\..\uCOS-III\Source/os_stat.c ****     OS_CYCLES    cycles_div;
 288:..\..\..\..\..\..\uCOS-III\Source/os_stat.c ****     OS_CYCLES    cycles_mult;
 289:..\..\..\..\..\..\uCOS-III\Source/os_stat.c ****     OS_CYCLES    cycles_max;
 290:..\..\..\..\..\..\uCOS-III\Source/os_stat.c **** #endif
 291:..\..\..\..\..\..\uCOS-III\Source/os_stat.c ****     OS_TCB      *p_tcb;
 292:..\..\..\..\..\..\uCOS-III\Source/os_stat.c **** #endif
 293:..\..\..\..\..\..\uCOS-III\Source/os_stat.c ****     OS_TICK      ctr_max;
 294:..\..\..\..\..\..\uCOS-III\Source/os_stat.c ****     OS_TICK      ctr_mult;
ARM GAS  C:\Users\alex\AppData\Local\Temp\cctmBoHx.s 			page 13


 295:..\..\..\..\..\..\uCOS-III\Source/os_stat.c ****     OS_TICK      ctr_div;
 296:..\..\..\..\..\..\uCOS-III\Source/os_stat.c ****     OS_ERR       err;
 297:..\..\..\..\..\..\uCOS-III\Source/os_stat.c ****     OS_TICK      dly;
 298:..\..\..\..\..\..\uCOS-III\Source/os_stat.c ****     CPU_TS       ts_start;
 299:..\..\..\..\..\..\uCOS-III\Source/os_stat.c ****     CPU_TS       ts_end;
 300:..\..\..\..\..\..\uCOS-III\Source/os_stat.c ****     CPU_SR_ALLOC();
 389              		.loc 1 300 0
 390 0008 0023     		movs	r3, #0
 391 000a BB61     		str	r3, [r7, #24]
 301:..\..\..\..\..\..\uCOS-III\Source/os_stat.c **** 
 302:..\..\..\..\..\..\uCOS-III\Source/os_stat.c **** 
 303:..\..\..\..\..\..\uCOS-III\Source/os_stat.c **** 
 304:..\..\..\..\..\..\uCOS-III\Source/os_stat.c ****     p_arg = p_arg;                                          /* Prevent compiler warning for not usi
 305:..\..\..\..\..\..\uCOS-III\Source/os_stat.c ****     while (OSStatTaskRdy != DEF_TRUE) {
 392              		.loc 1 305 0
 393 000c 08E0     		b	.L19
 394              	.L20:
 306:..\..\..\..\..\..\uCOS-III\Source/os_stat.c ****         OSTimeDly(2u * OSCfg_StatTaskRate_Hz,               /* Wait until statistic task is ready  
 395              		.loc 1 306 0
 396 000e 844B     		ldr	r3, .L46
 397 0010 1B68     		ldr	r3, [r3]
 398 0012 5B00     		lsls	r3, r3, #1
 399 0014 07F10A02 		add	r2, r7, #10
 400 0018 0021     		movs	r1, #0
 401 001a 1846     		mov	r0, r3
 402 001c FFF7FEFF 		bl	OSTimeDly
 403              	.L19:
 305:..\..\..\..\..\..\uCOS-III\Source/os_stat.c ****         OSTimeDly(2u * OSCfg_StatTaskRate_Hz,               /* Wait until statistic task is ready  
 404              		.loc 1 305 0
 405 0020 804B     		ldr	r3, .L46+4
 406 0022 1B78     		ldrb	r3, [r3]	@ zero_extendqisi2
 407 0024 012B     		cmp	r3, #1
 408 0026 F2D1     		bne	.L20
 307:..\..\..\..\..\..\uCOS-III\Source/os_stat.c ****                   OS_OPT_TIME_DLY,
 308:..\..\..\..\..\..\uCOS-III\Source/os_stat.c ****                   &err);
 309:..\..\..\..\..\..\uCOS-III\Source/os_stat.c ****     }
 310:..\..\..\..\..\..\uCOS-III\Source/os_stat.c ****     OSStatReset(&err);                                      /* Reset statistics                    
 409              		.loc 1 310 0
 410 0028 07F10A03 		add	r3, r7, #10
 411 002c 1846     		mov	r0, r3
 412 002e FFF7FEFF 		bl	OSStatReset
 311:..\..\..\..\..\..\uCOS-III\Source/os_stat.c **** 
 312:..\..\..\..\..\..\uCOS-III\Source/os_stat.c ****     dly = (OS_TICK)0;                                       /* Compute statistic task sleep delay  
 413              		.loc 1 312 0
 414 0032 0023     		movs	r3, #0
 415 0034 FB61     		str	r3, [r7, #28]
 313:..\..\..\..\..\..\uCOS-III\Source/os_stat.c ****     if (OSCfg_TickRate_Hz > OSCfg_StatTaskRate_Hz) {
 416              		.loc 1 313 0
 417 0036 7C4B     		ldr	r3, .L46+8
 418 0038 1A68     		ldr	r2, [r3]
 419 003a 794B     		ldr	r3, .L46
 420 003c 1B68     		ldr	r3, [r3]
 421 003e 9A42     		cmp	r2, r3
 422 0040 06D9     		bls	.L21
 314:..\..\..\..\..\..\uCOS-III\Source/os_stat.c ****         dly = (OS_TICK)(OSCfg_TickRate_Hz / OSCfg_StatTaskRate_Hz);
 423              		.loc 1 314 0
 424 0042 794B     		ldr	r3, .L46+8
ARM GAS  C:\Users\alex\AppData\Local\Temp\cctmBoHx.s 			page 14


 425 0044 1A68     		ldr	r2, [r3]
 426 0046 764B     		ldr	r3, .L46
 427 0048 1B68     		ldr	r3, [r3]
 428 004a B2FBF3F3 		udiv	r3, r2, r3
 429 004e FB61     		str	r3, [r7, #28]
 430              	.L21:
 315:..\..\..\..\..\..\uCOS-III\Source/os_stat.c ****     }
 316:..\..\..\..\..\..\uCOS-III\Source/os_stat.c ****     if (dly == (OS_TICK)0) {
 431              		.loc 1 316 0
 432 0050 FB69     		ldr	r3, [r7, #28]
 433 0052 002B     		cmp	r3, #0
 434 0054 06D1     		bne	.L22
 317:..\..\..\..\..\..\uCOS-III\Source/os_stat.c ****         dly =  (OS_TICK)(OSCfg_TickRate_Hz / (OS_RATE_HZ)10);
 435              		.loc 1 317 0
 436 0056 744B     		ldr	r3, .L46+8
 437 0058 1B68     		ldr	r3, [r3]
 438 005a 744A     		ldr	r2, .L46+12
 439 005c A2FB0323 		umull	r2, r3, r2, r3
 440 0060 DB08     		lsrs	r3, r3, #3
 441 0062 FB61     		str	r3, [r7, #28]
 442              	.L22:
 318:..\..\..\..\..\..\uCOS-III\Source/os_stat.c ****     }
 319:..\..\..\..\..\..\uCOS-III\Source/os_stat.c **** 
 320:..\..\..\..\..\..\uCOS-III\Source/os_stat.c ****     while (DEF_ON) {
 321:..\..\..\..\..\..\uCOS-III\Source/os_stat.c ****         ts_start        = OS_TS_GET();
 443              		.loc 1 321 0
 444 0064 FFF7FEFF 		bl	CPU_TS_TmrRd
 445 0068 7861     		str	r0, [r7, #20]
 322:..\..\..\..\..\..\uCOS-III\Source/os_stat.c **** #ifdef  CPU_CFG_INT_DIS_MEAS_EN
 323:..\..\..\..\..\..\uCOS-III\Source/os_stat.c ****         OSIntDisTimeMax = CPU_IntDisMeasMaxGet();
 324:..\..\..\..\..\..\uCOS-III\Source/os_stat.c **** #endif
 325:..\..\..\..\..\..\uCOS-III\Source/os_stat.c **** 
 326:..\..\..\..\..\..\uCOS-III\Source/os_stat.c ****         CPU_CRITICAL_ENTER();                               /* ----------------- OVERALL CPU USAGE 
 446              		.loc 1 326 0
 447 006a FFF7FEFF 		bl	CPU_SR_Save
 448 006e B861     		str	r0, [r7, #24]
 327:..\..\..\..\..\..\uCOS-III\Source/os_stat.c ****         OSStatTaskCtrRun   = OSStatTaskCtr;                 /* Obtain the of the stat counter for t
 449              		.loc 1 327 0
 450 0070 6F4B     		ldr	r3, .L46+16
 451 0072 1B68     		ldr	r3, [r3]
 452 0074 6F4A     		ldr	r2, .L46+20
 453 0076 1360     		str	r3, [r2]
 328:..\..\..\..\..\..\uCOS-III\Source/os_stat.c ****         OSStatTaskCtr      = (OS_TICK)0;                    /* Reset the stat counter for the next 
 454              		.loc 1 328 0
 455 0078 6D4B     		ldr	r3, .L46+16
 456 007a 0022     		movs	r2, #0
 457 007c 1A60     		str	r2, [r3]
 329:..\..\..\..\..\..\uCOS-III\Source/os_stat.c ****         CPU_CRITICAL_EXIT();
 458              		.loc 1 329 0
 459 007e B869     		ldr	r0, [r7, #24]
 460 0080 FFF7FEFF 		bl	CPU_SR_Restore
 330:..\..\..\..\..\..\uCOS-III\Source/os_stat.c **** 
 331:..\..\..\..\..\..\uCOS-III\Source/os_stat.c ****         if (OSStatTaskCtrMax > OSStatTaskCtrRun) {          /* Compute CPU Usage with best resoluti
 461              		.loc 1 331 0
 462 0084 6C4B     		ldr	r3, .L46+24
 463 0086 1A68     		ldr	r2, [r3]
 464 0088 6A4B     		ldr	r3, .L46+20
ARM GAS  C:\Users\alex\AppData\Local\Temp\cctmBoHx.s 			page 15


 465 008a 1B68     		ldr	r3, [r3]
 466 008c 9A42     		cmp	r2, r3
 467 008e 4FD9     		bls	.L23
 332:..\..\..\..\..\..\uCOS-III\Source/os_stat.c ****             if (OSStatTaskCtrMax < 400000u) {                                        /*            
 468              		.loc 1 332 0
 469 0090 694B     		ldr	r3, .L46+24
 470 0092 1B68     		ldr	r3, [r3]
 471 0094 694A     		ldr	r2, .L46+28
 472 0096 9342     		cmp	r3, r2
 473 0098 05D8     		bhi	.L24
 333:..\..\..\..\..\..\uCOS-III\Source/os_stat.c ****                 ctr_mult = 10000u;
 474              		.loc 1 333 0
 475 009a 42F21073 		movw	r3, #10000
 476 009e 7B62     		str	r3, [r7, #36]
 334:..\..\..\..\..\..\uCOS-III\Source/os_stat.c ****                 ctr_div  =     1u;
 477              		.loc 1 334 0
 478 00a0 0123     		movs	r3, #1
 479 00a2 3B62     		str	r3, [r7, #32]
 480 00a4 24E0     		b	.L25
 481              	.L24:
 335:..\..\..\..\..\..\uCOS-III\Source/os_stat.c ****             } else if (OSStatTaskCtrMax <   4000000u) {                              /*      400,00
 482              		.loc 1 335 0
 483 00a6 644B     		ldr	r3, .L46+24
 484 00a8 1B68     		ldr	r3, [r3]
 485 00aa 654A     		ldr	r2, .L46+32
 486 00ac 9342     		cmp	r3, r2
 487 00ae 05D8     		bhi	.L26
 336:..\..\..\..\..\..\uCOS-III\Source/os_stat.c ****                 ctr_mult =  1000u;
 488              		.loc 1 336 0
 489 00b0 4FF47A73 		mov	r3, #1000
 490 00b4 7B62     		str	r3, [r7, #36]
 337:..\..\..\..\..\..\uCOS-III\Source/os_stat.c ****                 ctr_div  =    10u;
 491              		.loc 1 337 0
 492 00b6 0A23     		movs	r3, #10
 493 00b8 3B62     		str	r3, [r7, #32]
 494 00ba 19E0     		b	.L25
 495              	.L26:
 338:..\..\..\..\..\..\uCOS-III\Source/os_stat.c ****             } else if (OSStatTaskCtrMax <  40000000u) {                              /*    4,000,00
 496              		.loc 1 338 0
 497 00bc 5E4B     		ldr	r3, .L46+24
 498 00be 1B68     		ldr	r3, [r3]
 499 00c0 604A     		ldr	r2, .L46+36
 500 00c2 9342     		cmp	r3, r2
 501 00c4 04D8     		bhi	.L27
 339:..\..\..\..\..\..\uCOS-III\Source/os_stat.c ****                 ctr_mult =   100u;
 502              		.loc 1 339 0
 503 00c6 6423     		movs	r3, #100
 504 00c8 7B62     		str	r3, [r7, #36]
 340:..\..\..\..\..\..\uCOS-III\Source/os_stat.c ****                 ctr_div  =   100u;
 505              		.loc 1 340 0
 506 00ca 6423     		movs	r3, #100
 507 00cc 3B62     		str	r3, [r7, #32]
 508 00ce 0FE0     		b	.L25
 509              	.L27:
 341:..\..\..\..\..\..\uCOS-III\Source/os_stat.c ****             } else if (OSStatTaskCtrMax < 400000000u) {                              /*   40,000,00
 510              		.loc 1 341 0
 511 00d0 594B     		ldr	r3, .L46+24
ARM GAS  C:\Users\alex\AppData\Local\Temp\cctmBoHx.s 			page 16


 512 00d2 1B68     		ldr	r3, [r3]
 513 00d4 5C4A     		ldr	r2, .L46+40
 514 00d6 9342     		cmp	r3, r2
 515 00d8 05D8     		bhi	.L28
 342:..\..\..\..\..\..\uCOS-III\Source/os_stat.c ****                 ctr_mult =    10u;
 516              		.loc 1 342 0
 517 00da 0A23     		movs	r3, #10
 518 00dc 7B62     		str	r3, [r7, #36]
 343:..\..\..\..\..\..\uCOS-III\Source/os_stat.c ****                 ctr_div  =  1000u;
 519              		.loc 1 343 0
 520 00de 4FF47A73 		mov	r3, #1000
 521 00e2 3B62     		str	r3, [r7, #32]
 522 00e4 04E0     		b	.L25
 523              	.L28:
 344:..\..\..\..\..\..\uCOS-III\Source/os_stat.c ****             } else {                                                                 /*  400,000,00
 345:..\..\..\..\..\..\uCOS-III\Source/os_stat.c ****                 ctr_mult =     1u;
 524              		.loc 1 345 0
 525 00e6 0123     		movs	r3, #1
 526 00e8 7B62     		str	r3, [r7, #36]
 346:..\..\..\..\..\..\uCOS-III\Source/os_stat.c ****                 ctr_div  = 10000u;
 527              		.loc 1 346 0
 528 00ea 42F21073 		movw	r3, #10000
 529 00ee 3B62     		str	r3, [r7, #32]
 530              	.L25:
 347:..\..\..\..\..\..\uCOS-III\Source/os_stat.c ****             }
 348:..\..\..\..\..\..\uCOS-III\Source/os_stat.c ****             ctr_max            = OSStatTaskCtrMax / ctr_div;
 531              		.loc 1 348 0
 532 00f0 514B     		ldr	r3, .L46+24
 533 00f2 1A68     		ldr	r2, [r3]
 534 00f4 3B6A     		ldr	r3, [r7, #32]
 535 00f6 B2FBF3F3 		udiv	r3, r2, r3
 536 00fa 3B61     		str	r3, [r7, #16]
 349:..\..\..\..\..\..\uCOS-III\Source/os_stat.c ****             OSStatTaskCPUUsage = (OS_CPU_USAGE)((OS_TICK)10000u - ctr_mult * OSStatTaskCtrRun / ctr
 537              		.loc 1 349 0
 538 00fc 4D4B     		ldr	r3, .L46+20
 539 00fe 1B68     		ldr	r3, [r3]
 540 0100 7A6A     		ldr	r2, [r7, #36]
 541 0102 02FB03F2 		mul	r2, r2, r3
 542 0106 3B69     		ldr	r3, [r7, #16]
 543 0108 B2FBF3F3 		udiv	r3, r2, r3
 544 010c 9BB2     		uxth	r3, r3
 545 010e C3F51C53 		rsb	r3, r3, #9984
 546 0112 1033     		adds	r3, r3, #16
 547 0114 9AB2     		uxth	r2, r3
 548 0116 4D4B     		ldr	r3, .L46+44
 549 0118 1A80     		strh	r2, [r3]	@ movhi
 350:..\..\..\..\..\..\uCOS-III\Source/os_stat.c ****             if (OSStatTaskCPUUsageMax < OSStatTaskCPUUsage) {
 550              		.loc 1 350 0
 551 011a 4D4B     		ldr	r3, .L46+48
 552 011c 1A88     		ldrh	r2, [r3]
 553 011e 4B4B     		ldr	r3, .L46+44
 554 0120 1B88     		ldrh	r3, [r3]
 555 0122 9A42     		cmp	r2, r3
 556 0124 08D2     		bcs	.L30
 351:..\..\..\..\..\..\uCOS-III\Source/os_stat.c ****                 OSStatTaskCPUUsageMax = OSStatTaskCPUUsage;
 557              		.loc 1 351 0
 558 0126 494B     		ldr	r3, .L46+44
ARM GAS  C:\Users\alex\AppData\Local\Temp\cctmBoHx.s 			page 17


 559 0128 1A88     		ldrh	r2, [r3]
 560 012a 494B     		ldr	r3, .L46+48
 561 012c 1A80     		strh	r2, [r3]	@ movhi
 562 012e 03E0     		b	.L30
 563              	.L23:
 352:..\..\..\..\..\..\uCOS-III\Source/os_stat.c ****             }
 353:..\..\..\..\..\..\uCOS-III\Source/os_stat.c ****         } else {
 354:..\..\..\..\..\..\uCOS-III\Source/os_stat.c ****             OSStatTaskCPUUsage = (OS_CPU_USAGE)10000u;
 564              		.loc 1 354 0
 565 0130 464B     		ldr	r3, .L46+44
 566 0132 42F21072 		movw	r2, #10000
 567 0136 1A80     		strh	r2, [r3]	@ movhi
 568              	.L30:
 355:..\..\..\..\..\..\uCOS-III\Source/os_stat.c ****         }
 356:..\..\..\..\..\..\uCOS-III\Source/os_stat.c **** 
 357:..\..\..\..\..\..\uCOS-III\Source/os_stat.c ****         OSStatTaskHook();                                   /* Invoke user definable hook          
 569              		.loc 1 357 0
 570 0138 FFF7FEFF 		bl	OSStatTaskHook
 358:..\..\..\..\..\..\uCOS-III\Source/os_stat.c **** 
 359:..\..\..\..\..\..\uCOS-III\Source/os_stat.c **** 
 360:..\..\..\..\..\..\uCOS-III\Source/os_stat.c **** #if OS_CFG_DBG_EN > 0u
 361:..\..\..\..\..\..\uCOS-III\Source/os_stat.c **** #if OS_CFG_TASK_PROFILE_EN > 0u
 362:..\..\..\..\..\..\uCOS-III\Source/os_stat.c ****         cycles_total = (OS_CYCLES)0;
 571              		.loc 1 362 0
 572 013c 0023     		movs	r3, #0
 573 013e BB63     		str	r3, [r7, #56]
 363:..\..\..\..\..\..\uCOS-III\Source/os_stat.c **** 
 364:..\..\..\..\..\..\uCOS-III\Source/os_stat.c ****         CPU_CRITICAL_ENTER();
 574              		.loc 1 364 0
 575 0140 FFF7FEFF 		bl	CPU_SR_Save
 576 0144 B861     		str	r0, [r7, #24]
 365:..\..\..\..\..\..\uCOS-III\Source/os_stat.c ****         p_tcb = OSTaskDbgListPtr;
 577              		.loc 1 365 0
 578 0146 434B     		ldr	r3, .L46+52
 579 0148 1B68     		ldr	r3, [r3]
 580 014a BB62     		str	r3, [r7, #40]
 366:..\..\..\..\..\..\uCOS-III\Source/os_stat.c ****         CPU_CRITICAL_EXIT();
 581              		.loc 1 366 0
 582 014c B869     		ldr	r0, [r7, #24]
 583 014e FFF7FEFF 		bl	CPU_SR_Restore
 367:..\..\..\..\..\..\uCOS-III\Source/os_stat.c ****         while (p_tcb != (OS_TCB *)0) {                      /* ----------------- TOTAL CYCLES COUNT
 584              		.loc 1 367 0
 585 0152 1FE0     		b	.L31
 586              	.L32:
 368:..\..\..\..\..\..\uCOS-III\Source/os_stat.c ****             OS_CRITICAL_ENTER();
 587              		.loc 1 368 0
 588 0154 FFF7FEFF 		bl	CPU_SR_Save
 589 0158 B861     		str	r0, [r7, #24]
 369:..\..\..\..\..\..\uCOS-III\Source/os_stat.c ****             p_tcb->CyclesTotalPrev =  p_tcb->CyclesTotal;   /* Save accumulated # cycles into a tem
 590              		.loc 1 369 0
 591 015a BB6A     		ldr	r3, [r7, #40]
 592 015c D3F89C20 		ldr	r2, [r3, #156]
 593 0160 BB6A     		ldr	r3, [r7, #40]
 594 0162 C3F8A020 		str	r2, [r3, #160]
 370:..\..\..\..\..\..\uCOS-III\Source/os_stat.c ****             p_tcb->CyclesTotal     = (OS_CYCLES)0;          /* Reset total cycles for task for next
 595              		.loc 1 370 0
 596 0166 BB6A     		ldr	r3, [r7, #40]
ARM GAS  C:\Users\alex\AppData\Local\Temp\cctmBoHx.s 			page 18


 597 0168 0022     		movs	r2, #0
 598 016a C3F89C20 		str	r2, [r3, #156]
 371:..\..\..\..\..\..\uCOS-III\Source/os_stat.c ****             OS_CRITICAL_EXIT();
 599              		.loc 1 371 0
 600 016e B869     		ldr	r0, [r7, #24]
 601 0170 FFF7FEFF 		bl	CPU_SR_Restore
 372:..\..\..\..\..\..\uCOS-III\Source/os_stat.c **** 
 373:..\..\..\..\..\..\uCOS-III\Source/os_stat.c ****             cycles_total          += p_tcb->CyclesTotalPrev;/* Perform sum of all task # cycles    
 602              		.loc 1 373 0
 603 0174 BB6A     		ldr	r3, [r7, #40]
 604 0176 D3F8A030 		ldr	r3, [r3, #160]
 605 017a BA6B     		ldr	r2, [r7, #56]
 606 017c 1344     		add	r3, r3, r2
 607 017e BB63     		str	r3, [r7, #56]
 374:..\..\..\..\..\..\uCOS-III\Source/os_stat.c **** 
 375:..\..\..\..\..\..\uCOS-III\Source/os_stat.c ****             CPU_CRITICAL_ENTER();
 608              		.loc 1 375 0
 609 0180 FFF7FEFF 		bl	CPU_SR_Save
 610 0184 B861     		str	r0, [r7, #24]
 376:..\..\..\..\..\..\uCOS-III\Source/os_stat.c ****             p_tcb                  = p_tcb->DbgNextPtr;
 611              		.loc 1 376 0
 612 0186 BB6A     		ldr	r3, [r7, #40]
 613 0188 D3F8B830 		ldr	r3, [r3, #184]
 614 018c BB62     		str	r3, [r7, #40]
 377:..\..\..\..\..\..\uCOS-III\Source/os_stat.c ****             CPU_CRITICAL_EXIT();
 615              		.loc 1 377 0
 616 018e B869     		ldr	r0, [r7, #24]
 617 0190 FFF7FEFF 		bl	CPU_SR_Restore
 618              	.L31:
 367:..\..\..\..\..\..\uCOS-III\Source/os_stat.c ****             OS_CRITICAL_ENTER();
 619              		.loc 1 367 0
 620 0194 BB6A     		ldr	r3, [r7, #40]
 621 0196 002B     		cmp	r3, #0
 622 0198 DCD1     		bne	.L32
 378:..\..\..\..\..\..\uCOS-III\Source/os_stat.c ****         }
 379:..\..\..\..\..\..\uCOS-III\Source/os_stat.c **** #endif
 380:..\..\..\..\..\..\uCOS-III\Source/os_stat.c **** 
 381:..\..\..\..\..\..\uCOS-III\Source/os_stat.c **** 
 382:..\..\..\..\..\..\uCOS-III\Source/os_stat.c **** #if OS_CFG_TASK_PROFILE_EN > 0u
 383:..\..\..\..\..\..\uCOS-III\Source/os_stat.c ****                                                             /* ------------- INDIVIDUAL TASK CPU US
 384:..\..\..\..\..\..\uCOS-III\Source/os_stat.c ****         if (cycles_total > (OS_CYCLES)0u) {                                          /* 'cycles_tot
 623              		.loc 1 384 0
 624 019a BB6B     		ldr	r3, [r7, #56]
 625 019c 002B     		cmp	r3, #0
 626 019e 31D0     		beq	.L33
 385:..\..\..\..\..\..\uCOS-III\Source/os_stat.c ****             if (cycles_total < 400000u) {                                            /*            
 627              		.loc 1 385 0
 628 01a0 BB6B     		ldr	r3, [r7, #56]
 629 01a2 264A     		ldr	r2, .L46+28
 630 01a4 9342     		cmp	r3, r2
 631 01a6 05D8     		bhi	.L34
 386:..\..\..\..\..\..\uCOS-III\Source/os_stat.c ****                 cycles_mult = 10000u;
 632              		.loc 1 386 0
 633 01a8 42F21073 		movw	r3, #10000
 634 01ac 3B63     		str	r3, [r7, #48]
 387:..\..\..\..\..\..\uCOS-III\Source/os_stat.c ****                 cycles_div  =     1u;
 635              		.loc 1 387 0
ARM GAS  C:\Users\alex\AppData\Local\Temp\cctmBoHx.s 			page 19


 636 01ae 0123     		movs	r3, #1
 637 01b0 7B63     		str	r3, [r7, #52]
 638 01b2 21E0     		b	.L35
 639              	.L34:
 388:..\..\..\..\..\..\uCOS-III\Source/os_stat.c ****             } else if (cycles_total <   4000000u) {                                  /*      400,00
 640              		.loc 1 388 0
 641 01b4 BB6B     		ldr	r3, [r7, #56]
 642 01b6 224A     		ldr	r2, .L46+32
 643 01b8 9342     		cmp	r3, r2
 644 01ba 05D8     		bhi	.L36
 389:..\..\..\..\..\..\uCOS-III\Source/os_stat.c ****                 cycles_mult =  1000u;
 645              		.loc 1 389 0
 646 01bc 4FF47A73 		mov	r3, #1000
 647 01c0 3B63     		str	r3, [r7, #48]
 390:..\..\..\..\..\..\uCOS-III\Source/os_stat.c ****                 cycles_div  =    10u;
 648              		.loc 1 390 0
 649 01c2 0A23     		movs	r3, #10
 650 01c4 7B63     		str	r3, [r7, #52]
 651 01c6 17E0     		b	.L35
 652              	.L36:
 391:..\..\..\..\..\..\uCOS-III\Source/os_stat.c ****             } else if (cycles_total <  40000000u) {                                  /*    4,000,00
 653              		.loc 1 391 0
 654 01c8 BB6B     		ldr	r3, [r7, #56]
 655 01ca 1E4A     		ldr	r2, .L46+36
 656 01cc 9342     		cmp	r3, r2
 657 01ce 04D8     		bhi	.L37
 392:..\..\..\..\..\..\uCOS-III\Source/os_stat.c ****                 cycles_mult =   100u;
 658              		.loc 1 392 0
 659 01d0 6423     		movs	r3, #100
 660 01d2 3B63     		str	r3, [r7, #48]
 393:..\..\..\..\..\..\uCOS-III\Source/os_stat.c ****                 cycles_div  =   100u;
 661              		.loc 1 393 0
 662 01d4 6423     		movs	r3, #100
 663 01d6 7B63     		str	r3, [r7, #52]
 664 01d8 0EE0     		b	.L35
 665              	.L37:
 394:..\..\..\..\..\..\uCOS-III\Source/os_stat.c ****             } else if (cycles_total < 400000000u) {                                  /*   40,000,00
 666              		.loc 1 394 0
 667 01da BB6B     		ldr	r3, [r7, #56]
 668 01dc 1A4A     		ldr	r2, .L46+40
 669 01de 9342     		cmp	r3, r2
 670 01e0 05D8     		bhi	.L38
 395:..\..\..\..\..\..\uCOS-III\Source/os_stat.c ****                 cycles_mult =    10u;
 671              		.loc 1 395 0
 672 01e2 0A23     		movs	r3, #10
 673 01e4 3B63     		str	r3, [r7, #48]
 396:..\..\..\..\..\..\uCOS-III\Source/os_stat.c ****                 cycles_div  =  1000u;
 674              		.loc 1 396 0
 675 01e6 4FF47A73 		mov	r3, #1000
 676 01ea 7B63     		str	r3, [r7, #52]
 677 01ec 04E0     		b	.L35
 678              	.L38:
 397:..\..\..\..\..\..\uCOS-III\Source/os_stat.c ****             } else {                                                                 /*  400,000,00
 398:..\..\..\..\..\..\uCOS-III\Source/os_stat.c ****                 cycles_mult =     1u;
 679              		.loc 1 398 0
 680 01ee 0123     		movs	r3, #1
 681 01f0 3B63     		str	r3, [r7, #48]
ARM GAS  C:\Users\alex\AppData\Local\Temp\cctmBoHx.s 			page 20


 399:..\..\..\..\..\..\uCOS-III\Source/os_stat.c ****                 cycles_div  = 10000u;
 682              		.loc 1 399 0
 683 01f2 42F21073 		movw	r3, #10000
 684 01f6 7B63     		str	r3, [r7, #52]
 685              	.L35:
 400:..\..\..\..\..\..\uCOS-III\Source/os_stat.c ****             }
 401:..\..\..\..\..\..\uCOS-III\Source/os_stat.c ****             cycles_max  = cycles_total / cycles_div;
 686              		.loc 1 401 0
 687 01f8 BA6B     		ldr	r2, [r7, #56]
 688 01fa 7B6B     		ldr	r3, [r7, #52]
 689 01fc B2FBF3F3 		udiv	r3, r2, r3
 690 0200 FB62     		str	r3, [r7, #44]
 691 0202 03E0     		b	.L39
 692              	.L33:
 402:..\..\..\..\..\..\uCOS-III\Source/os_stat.c ****         } else {
 403:..\..\..\..\..\..\uCOS-III\Source/os_stat.c ****             cycles_mult = 0u;
 693              		.loc 1 403 0
 694 0204 0023     		movs	r3, #0
 695 0206 3B63     		str	r3, [r7, #48]
 404:..\..\..\..\..\..\uCOS-III\Source/os_stat.c ****             cycles_max  = 1u;
 696              		.loc 1 404 0
 697 0208 0123     		movs	r3, #1
 698 020a FB62     		str	r3, [r7, #44]
 699              	.L39:
 405:..\..\..\..\..\..\uCOS-III\Source/os_stat.c ****         }
 406:..\..\..\..\..\..\uCOS-III\Source/os_stat.c **** #endif
 407:..\..\..\..\..\..\uCOS-III\Source/os_stat.c ****         CPU_CRITICAL_ENTER();
 700              		.loc 1 407 0
 701 020c FFF7FEFF 		bl	CPU_SR_Save
 702 0210 B861     		str	r0, [r7, #24]
 408:..\..\..\..\..\..\uCOS-III\Source/os_stat.c ****         p_tcb = OSTaskDbgListPtr;
 703              		.loc 1 408 0
 704 0212 104B     		ldr	r3, .L46+52
 705 0214 1B68     		ldr	r3, [r3]
 706 0216 BB62     		str	r3, [r7, #40]
 409:..\..\..\..\..\..\uCOS-III\Source/os_stat.c ****         CPU_CRITICAL_EXIT();
 707              		.loc 1 409 0
 708 0218 B869     		ldr	r0, [r7, #24]
 709 021a FFF7FEFF 		bl	CPU_SR_Restore
 410:..\..\..\..\..\..\uCOS-III\Source/os_stat.c ****         while (p_tcb != (OS_TCB *)0) {
 710              		.loc 1 410 0
 711 021e 50E0     		b	.L40
 712              	.L47:
 713              		.align	2
 714              	.L46:
 715 0220 00000000 		.word	OSCfg_StatTaskRate_Hz
 716 0224 00000000 		.word	OSStatTaskRdy
 717 0228 00000000 		.word	OSCfg_TickRate_Hz
 718 022c CDCCCCCC 		.word	-858993459
 719 0230 00000000 		.word	OSStatTaskCtr
 720 0234 00000000 		.word	OSStatTaskCtrRun
 721 0238 00000000 		.word	OSStatTaskCtrMax
 722 023c 7F1A0600 		.word	399999
 723 0240 FF083D00 		.word	3999999
 724 0244 FF596202 		.word	39999999
 725 0248 FF83D717 		.word	399999999
 726 024c 00000000 		.word	OSStatTaskCPUUsage
ARM GAS  C:\Users\alex\AppData\Local\Temp\cctmBoHx.s 			page 21


 727 0250 00000000 		.word	OSStatTaskCPUUsageMax
 728 0254 00000000 		.word	OSTaskDbgListPtr
 729              	.L43:
 411:..\..\..\..\..\..\uCOS-III\Source/os_stat.c **** #if OS_CFG_TASK_PROFILE_EN > 0u                             /* Compute execution time of each task 
 412:..\..\..\..\..\..\uCOS-III\Source/os_stat.c ****             usage = (OS_CPU_USAGE)(cycles_mult * p_tcb->CyclesTotalPrev / cycles_max);
 730              		.loc 1 412 0
 731 0258 BB6A     		ldr	r3, [r7, #40]
 732 025a D3F8A030 		ldr	r3, [r3, #160]
 733 025e 3A6B     		ldr	r2, [r7, #48]
 734 0260 02FB03F2 		mul	r2, r2, r3
 735 0264 FB6A     		ldr	r3, [r7, #44]
 736 0266 B2FBF3F3 		udiv	r3, r2, r3
 737 026a FB87     		strh	r3, [r7, #62]	@ movhi
 413:..\..\..\..\..\..\uCOS-III\Source/os_stat.c ****             if (usage > 10000u) {
 738              		.loc 1 413 0
 739 026c FB8F     		ldrh	r3, [r7, #62]
 740 026e 42F21072 		movw	r2, #10000
 741 0272 9342     		cmp	r3, r2
 742 0274 02D9     		bls	.L41
 414:..\..\..\..\..\..\uCOS-III\Source/os_stat.c ****                 usage = 10000u;
 743              		.loc 1 414 0
 744 0276 42F21073 		movw	r3, #10000
 745 027a FB87     		strh	r3, [r7, #62]	@ movhi
 746              	.L41:
 415:..\..\..\..\..\..\uCOS-III\Source/os_stat.c ****             }
 416:..\..\..\..\..\..\uCOS-III\Source/os_stat.c ****             p_tcb->CPUUsage = usage;
 747              		.loc 1 416 0
 748 027c BB6A     		ldr	r3, [r7, #40]
 749 027e FA8F     		ldrh	r2, [r7, #62]	@ movhi
 750 0280 A3F88C20 		strh	r2, [r3, #140]	@ movhi
 417:..\..\..\..\..\..\uCOS-III\Source/os_stat.c ****             if (p_tcb->CPUUsageMax < usage) {               /* Detect peak CPU usage               
 751              		.loc 1 417 0
 752 0284 BB6A     		ldr	r3, [r7, #40]
 753 0286 B3F88E30 		ldrh	r3, [r3, #142]
 754 028a FA8F     		ldrh	r2, [r7, #62]
 755 028c 9A42     		cmp	r2, r3
 756 028e 03D9     		bls	.L42
 418:..\..\..\..\..\..\uCOS-III\Source/os_stat.c ****                 p_tcb->CPUUsageMax = usage;
 757              		.loc 1 418 0
 758 0290 BB6A     		ldr	r3, [r7, #40]
 759 0292 FA8F     		ldrh	r2, [r7, #62]	@ movhi
 760 0294 A3F88E20 		strh	r2, [r3, #142]	@ movhi
 761              	.L42:
 419:..\..\..\..\..\..\uCOS-III\Source/os_stat.c ****             }
 420:..\..\..\..\..\..\uCOS-III\Source/os_stat.c **** #endif
 421:..\..\..\..\..\..\uCOS-III\Source/os_stat.c **** 
 422:..\..\..\..\..\..\uCOS-III\Source/os_stat.c **** #if OS_CFG_STAT_TASK_STK_CHK_EN > 0u
 423:..\..\..\..\..\..\uCOS-III\Source/os_stat.c ****             OSTaskStkChk( p_tcb,                            /* Compute stack usage of active tasks 
 762              		.loc 1 423 0
 763 0298 BB6A     		ldr	r3, [r7, #40]
 764 029a 03F1B001 		add	r1, r3, #176
 765 029e BB6A     		ldr	r3, [r7, #40]
 766 02a0 03F1AC02 		add	r2, r3, #172
 767 02a4 07F10A03 		add	r3, r7, #10
 768 02a8 B86A     		ldr	r0, [r7, #40]
 769 02aa FFF7FEFF 		bl	OSTaskStkChk
 424:..\..\..\..\..\..\uCOS-III\Source/os_stat.c ****                          &p_tcb->StkFree,
ARM GAS  C:\Users\alex\AppData\Local\Temp\cctmBoHx.s 			page 22


 425:..\..\..\..\..\..\uCOS-III\Source/os_stat.c ****                          &p_tcb->StkUsed,
 426:..\..\..\..\..\..\uCOS-III\Source/os_stat.c ****                          &err);
 427:..\..\..\..\..\..\uCOS-III\Source/os_stat.c **** #endif
 428:..\..\..\..\..\..\uCOS-III\Source/os_stat.c **** 
 429:..\..\..\..\..\..\uCOS-III\Source/os_stat.c ****             CPU_CRITICAL_ENTER();
 770              		.loc 1 429 0
 771 02ae FFF7FEFF 		bl	CPU_SR_Save
 772 02b2 B861     		str	r0, [r7, #24]
 430:..\..\..\..\..\..\uCOS-III\Source/os_stat.c ****             p_tcb = p_tcb->DbgNextPtr;
 773              		.loc 1 430 0
 774 02b4 BB6A     		ldr	r3, [r7, #40]
 775 02b6 D3F8B830 		ldr	r3, [r3, #184]
 776 02ba BB62     		str	r3, [r7, #40]
 431:..\..\..\..\..\..\uCOS-III\Source/os_stat.c ****             CPU_CRITICAL_EXIT();
 777              		.loc 1 431 0
 778 02bc B869     		ldr	r0, [r7, #24]
 779 02be FFF7FEFF 		bl	CPU_SR_Restore
 780              	.L40:
 410:..\..\..\..\..\..\uCOS-III\Source/os_stat.c **** #if OS_CFG_TASK_PROFILE_EN > 0u                             /* Compute execution time of each task 
 781              		.loc 1 410 0
 782 02c2 BB6A     		ldr	r3, [r7, #40]
 783 02c4 002B     		cmp	r3, #0
 784 02c6 C7D1     		bne	.L43
 432:..\..\..\..\..\..\uCOS-III\Source/os_stat.c ****         }
 433:..\..\..\..\..\..\uCOS-III\Source/os_stat.c **** #endif
 434:..\..\..\..\..\..\uCOS-III\Source/os_stat.c **** 
 435:..\..\..\..\..\..\uCOS-III\Source/os_stat.c ****         if (OSStatResetFlag == DEF_TRUE) {                  /* Check if need to reset statistics   
 785              		.loc 1 435 0
 786 02c8 104B     		ldr	r3, .L48
 787 02ca 1B78     		ldrb	r3, [r3]	@ zero_extendqisi2
 788 02cc 012B     		cmp	r3, #1
 789 02ce 07D1     		bne	.L44
 436:..\..\..\..\..\..\uCOS-III\Source/os_stat.c ****             OSStatResetFlag  = DEF_FALSE;
 790              		.loc 1 436 0
 791 02d0 0E4B     		ldr	r3, .L48
 792 02d2 0022     		movs	r2, #0
 793 02d4 1A70     		strb	r2, [r3]
 437:..\..\..\..\..\..\uCOS-III\Source/os_stat.c ****             OSStatReset(&err);
 794              		.loc 1 437 0
 795 02d6 07F10A03 		add	r3, r7, #10
 796 02da 1846     		mov	r0, r3
 797 02dc FFF7FEFF 		bl	OSStatReset
 798              	.L44:
 438:..\..\..\..\..\..\uCOS-III\Source/os_stat.c ****         }
 439:..\..\..\..\..\..\uCOS-III\Source/os_stat.c **** 
 440:..\..\..\..\..\..\uCOS-III\Source/os_stat.c ****         ts_end = OS_TS_GET() - ts_start;                    /* Measure execution time of statistic 
 799              		.loc 1 440 0
 800 02e0 FFF7FEFF 		bl	CPU_TS_TmrRd
 801 02e4 0246     		mov	r2, r0
 802 02e6 7B69     		ldr	r3, [r7, #20]
 803 02e8 D31A     		subs	r3, r2, r3
 804 02ea FB60     		str	r3, [r7, #12]
 441:..\..\..\..\..\..\uCOS-III\Source/os_stat.c ****         if (OSStatTaskTimeMax < ts_end) {
 805              		.loc 1 441 0
 806 02ec 084B     		ldr	r3, .L48+4
 807 02ee 1A68     		ldr	r2, [r3]
 808 02f0 FB68     		ldr	r3, [r7, #12]
ARM GAS  C:\Users\alex\AppData\Local\Temp\cctmBoHx.s 			page 23


 809 02f2 9A42     		cmp	r2, r3
 810 02f4 02D2     		bcs	.L45
 442:..\..\..\..\..\..\uCOS-III\Source/os_stat.c ****             OSStatTaskTimeMax = ts_end;
 811              		.loc 1 442 0
 812 02f6 064A     		ldr	r2, .L48+4
 813 02f8 FB68     		ldr	r3, [r7, #12]
 814 02fa 1360     		str	r3, [r2]
 815              	.L45:
 443:..\..\..\..\..\..\uCOS-III\Source/os_stat.c ****         }
 444:..\..\..\..\..\..\uCOS-III\Source/os_stat.c **** 
 445:..\..\..\..\..\..\uCOS-III\Source/os_stat.c ****         OSTimeDly(dly,
 816              		.loc 1 445 0
 817 02fc 07F10A03 		add	r3, r7, #10
 818 0300 1A46     		mov	r2, r3
 819 0302 0021     		movs	r1, #0
 820 0304 F869     		ldr	r0, [r7, #28]
 821 0306 FFF7FEFF 		bl	OSTimeDly
 446:..\..\..\..\..\..\uCOS-III\Source/os_stat.c ****                   OS_OPT_TIME_DLY,
 447:..\..\..\..\..\..\uCOS-III\Source/os_stat.c ****                   &err);
 448:..\..\..\..\..\..\uCOS-III\Source/os_stat.c ****     }
 822              		.loc 1 448 0
 823 030a ABE6     		b	.L22
 824              	.L49:
 825              		.align	2
 826              	.L48:
 827 030c 00000000 		.word	OSStatResetFlag
 828 0310 00000000 		.word	OSStatTaskTimeMax
 829              		.cfi_endproc
 830              	.LFE2:
 831              		.size	OS_StatTask, .-OS_StatTask
 832              		.section	.rodata
 833              		.align	2
 834              	.LC0:
 835 0000 75432F4F 		.ascii	"uC/OS-III Stat Task\000"
 835      532D4949 
 835      49205374 
 835      61742054 
 835      61736B00 
 836              		.section	.text.OS_StatTaskInit,"ax",%progbits
 837              		.align	2
 838              		.global	OS_StatTaskInit
 839              		.thumb
 840              		.thumb_func
 841              		.type	OS_StatTaskInit, %function
 842              	OS_StatTaskInit:
 843              	.LFB3:
 449:..\..\..\..\..\..\uCOS-III\Source/os_stat.c **** }
 450:..\..\..\..\..\..\uCOS-III\Source/os_stat.c **** 
 451:..\..\..\..\..\..\uCOS-III\Source/os_stat.c **** /*$PAGE*/
 452:..\..\..\..\..\..\uCOS-III\Source/os_stat.c **** /*
 453:..\..\..\..\..\..\uCOS-III\Source/os_stat.c **** ***************************************************************************************************
 454:..\..\..\..\..\..\uCOS-III\Source/os_stat.c **** *                                              INITIALIZE THE STATISTICS
 455:..\..\..\..\..\..\uCOS-III\Source/os_stat.c **** *
 456:..\..\..\..\..\..\uCOS-III\Source/os_stat.c **** * Description: This function is called by OSInit() to initialize the statistic task.
 457:..\..\..\..\..\..\uCOS-III\Source/os_stat.c **** *
 458:..\..\..\..\..\..\uCOS-III\Source/os_stat.c **** * Argument(s): p_err     is a pointer to a variable that will contain an error code returned by thi
 459:..\..\..\..\..\..\uCOS-III\Source/os_stat.c **** *
ARM GAS  C:\Users\alex\AppData\Local\Temp\cctmBoHx.s 			page 24


 460:..\..\..\..\..\..\uCOS-III\Source/os_stat.c **** *                            OS_ERR_STK_INVALID       If you specified a NULL stack pointer during 
 461:..\..\..\..\..\..\uCOS-III\Source/os_stat.c **** *                            OS_ERR_STK_SIZE_INVALID  If you didn't specify a large enough stack.
 462:..\..\..\..\..\..\uCOS-III\Source/os_stat.c **** *                            OS_ERR_PRIO_INVALID      If you specified a priority for the statistic
 463:..\..\..\..\..\..\uCOS-III\Source/os_stat.c **** *                                                     lower (i.e. higher number) than the idle task
 464:..\..\..\..\..\..\uCOS-III\Source/os_stat.c **** *                            OS_ERR_xxx               An error code returned by OSTaskCreate()
 465:..\..\..\..\..\..\uCOS-III\Source/os_stat.c **** *
 466:..\..\..\..\..\..\uCOS-III\Source/os_stat.c **** * Returns    : none
 467:..\..\..\..\..\..\uCOS-III\Source/os_stat.c **** *
 468:..\..\..\..\..\..\uCOS-III\Source/os_stat.c **** * Note(s)    : This function is INTERNAL to uC/OS-III and your application should not call it.
 469:..\..\..\..\..\..\uCOS-III\Source/os_stat.c **** ***************************************************************************************************
 470:..\..\..\..\..\..\uCOS-III\Source/os_stat.c **** */
 471:..\..\..\..\..\..\uCOS-III\Source/os_stat.c **** 
 472:..\..\..\..\..\..\uCOS-III\Source/os_stat.c **** void  OS_StatTaskInit (OS_ERR  *p_err)
 473:..\..\..\..\..\..\uCOS-III\Source/os_stat.c **** {
 844              		.loc 1 473 0
 845              		.cfi_startproc
 846              		@ args = 0, pretend = 0, frame = 8
 847              		@ frame_needed = 1, uses_anonymous_args = 0
 848 0000 90B5     		push	{r4, r7, lr}
 849              		.cfi_def_cfa_offset 12
 850              		.cfi_offset 4, -12
 851              		.cfi_offset 7, -8
 852              		.cfi_offset 14, -4
 853 0002 8DB0     		sub	sp, sp, #52
 854              		.cfi_def_cfa_offset 64
 855 0004 0AAF     		add	r7, sp, #40
 856              		.cfi_def_cfa 7, 24
 857 0006 7860     		str	r0, [r7, #4]
 474:..\..\..\..\..\..\uCOS-III\Source/os_stat.c **** #ifdef OS_SAFETY_CRITICAL
 475:..\..\..\..\..\..\uCOS-III\Source/os_stat.c ****     if (p_err == (OS_ERR *)0) {
 476:..\..\..\..\..\..\uCOS-III\Source/os_stat.c ****         OS_SAFETY_CRITICAL_EXCEPTION();
 477:..\..\..\..\..\..\uCOS-III\Source/os_stat.c ****         return;
 478:..\..\..\..\..\..\uCOS-III\Source/os_stat.c ****     }
 479:..\..\..\..\..\..\uCOS-III\Source/os_stat.c **** #endif
 480:..\..\..\..\..\..\uCOS-III\Source/os_stat.c **** 
 481:..\..\..\..\..\..\uCOS-III\Source/os_stat.c ****     OSStatTaskCtr    = (OS_TICK)0;
 858              		.loc 1 481 0
 859 0008 254B     		ldr	r3, .L55
 860 000a 0022     		movs	r2, #0
 861 000c 1A60     		str	r2, [r3]
 482:..\..\..\..\..\..\uCOS-III\Source/os_stat.c ****     OSStatTaskCtrRun = (OS_TICK)0;
 862              		.loc 1 482 0
 863 000e 254B     		ldr	r3, .L55+4
 864 0010 0022     		movs	r2, #0
 865 0012 1A60     		str	r2, [r3]
 483:..\..\..\..\..\..\uCOS-III\Source/os_stat.c ****     OSStatTaskCtrMax = (OS_TICK)0;
 866              		.loc 1 483 0
 867 0014 244B     		ldr	r3, .L55+8
 868 0016 0022     		movs	r2, #0
 869 0018 1A60     		str	r2, [r3]
 484:..\..\..\..\..\..\uCOS-III\Source/os_stat.c ****     OSStatTaskRdy    = OS_STATE_NOT_RDY;                    /* Statistic task is not ready         
 870              		.loc 1 484 0
 871 001a 244B     		ldr	r3, .L55+12
 872 001c 0022     		movs	r2, #0
 873 001e 1A70     		strb	r2, [r3]
 485:..\..\..\..\..\..\uCOS-III\Source/os_stat.c ****     OSStatResetFlag  = DEF_FALSE;
 874              		.loc 1 485 0
ARM GAS  C:\Users\alex\AppData\Local\Temp\cctmBoHx.s 			page 25


 875 0020 234B     		ldr	r3, .L55+16
 876 0022 0022     		movs	r2, #0
 877 0024 1A70     		strb	r2, [r3]
 486:..\..\..\..\..\..\uCOS-III\Source/os_stat.c **** 
 487:..\..\..\..\..\..\uCOS-III\Source/os_stat.c ****                                                             /* ---------------- CREATE THE STAT TAS
 488:..\..\..\..\..\..\uCOS-III\Source/os_stat.c ****     if (OSCfg_StatTaskStkBasePtr == (CPU_STK *)0) {
 878              		.loc 1 488 0
 879 0026 234B     		ldr	r3, .L55+20
 880 0028 1B68     		ldr	r3, [r3]
 881 002a 002B     		cmp	r3, #0
 882 002c 04D1     		bne	.L51
 489:..\..\..\..\..\..\uCOS-III\Source/os_stat.c ****        *p_err = OS_ERR_STAT_STK_INVALID;
 883              		.loc 1 489 0
 884 002e 7B68     		ldr	r3, [r7, #4]
 885 0030 46F62B62 		movw	r2, #28203
 886 0034 1A80     		strh	r2, [r3]	@ movhi
 490:..\..\..\..\..\..\uCOS-III\Source/os_stat.c ****         return;
 887              		.loc 1 490 0
 888 0036 2FE0     		b	.L50
 889              	.L51:
 491:..\..\..\..\..\..\uCOS-III\Source/os_stat.c ****     }
 492:..\..\..\..\..\..\uCOS-III\Source/os_stat.c **** 
 493:..\..\..\..\..\..\uCOS-III\Source/os_stat.c ****     if (OSCfg_StatTaskStkSize < OSCfg_StkSizeMin) {
 890              		.loc 1 493 0
 891 0038 1F4B     		ldr	r3, .L55+24
 892 003a 1A68     		ldr	r2, [r3]
 893 003c 1F4B     		ldr	r3, .L55+28
 894 003e 1B68     		ldr	r3, [r3]
 895 0040 9A42     		cmp	r2, r3
 896 0042 04D2     		bcs	.L53
 494:..\..\..\..\..\..\uCOS-III\Source/os_stat.c ****        *p_err = OS_ERR_STAT_STK_SIZE_INVALID;
 897              		.loc 1 494 0
 898 0044 7B68     		ldr	r3, [r7, #4]
 899 0046 46F62C62 		movw	r2, #28204
 900 004a 1A80     		strh	r2, [r3]	@ movhi
 495:..\..\..\..\..\..\uCOS-III\Source/os_stat.c ****         return;
 901              		.loc 1 495 0
 902 004c 24E0     		b	.L50
 903              	.L53:
 496:..\..\..\..\..\..\uCOS-III\Source/os_stat.c ****     }
 497:..\..\..\..\..\..\uCOS-III\Source/os_stat.c **** 
 498:..\..\..\..\..\..\uCOS-III\Source/os_stat.c ****     if (OSCfg_StatTaskPrio >= (OS_CFG_PRIO_MAX - 1u)) {
 904              		.loc 1 498 0
 905 004e 1C4B     		ldr	r3, .L55+32
 906 0050 1B78     		ldrb	r3, [r3]	@ zero_extendqisi2
 907 0052 062B     		cmp	r3, #6
 908 0054 04D9     		bls	.L54
 499:..\..\..\..\..\..\uCOS-III\Source/os_stat.c ****        *p_err = OS_ERR_STAT_PRIO_INVALID;
 909              		.loc 1 499 0
 910 0056 7B68     		ldr	r3, [r7, #4]
 911 0058 46F62A62 		movw	r2, #28202
 912 005c 1A80     		strh	r2, [r3]	@ movhi
 500:..\..\..\..\..\..\uCOS-III\Source/os_stat.c ****         return;
 913              		.loc 1 500 0
 914 005e 1BE0     		b	.L50
 915              	.L54:
 501:..\..\..\..\..\..\uCOS-III\Source/os_stat.c ****     }
ARM GAS  C:\Users\alex\AppData\Local\Temp\cctmBoHx.s 			page 26


 502:..\..\..\..\..\..\uCOS-III\Source/os_stat.c **** 
 503:..\..\..\..\..\..\uCOS-III\Source/os_stat.c ****     OSTaskCreate((OS_TCB     *)&OSStatTaskTCB,
 916              		.loc 1 503 0
 917 0060 174B     		ldr	r3, .L55+32
 918 0062 1B78     		ldrb	r3, [r3]	@ zero_extendqisi2
 919 0064 134A     		ldr	r2, .L55+20
 920 0066 1268     		ldr	r2, [r2]
 921 0068 1649     		ldr	r1, .L55+36
 922 006a 0968     		ldr	r1, [r1]
 923 006c 1248     		ldr	r0, .L55+24
 924 006e 0068     		ldr	r0, [r0]
 925 0070 7C68     		ldr	r4, [r7, #4]
 926 0072 0894     		str	r4, [sp, #32]
 927 0074 0324     		movs	r4, #3
 928 0076 0794     		str	r4, [sp, #28]
 929 0078 0024     		movs	r4, #0
 930 007a 0694     		str	r4, [sp, #24]
 931 007c 0024     		movs	r4, #0
 932 007e 0594     		str	r4, [sp, #20]
 933 0080 0024     		movs	r4, #0
 934 0082 0494     		str	r4, [sp, #16]
 935 0084 0390     		str	r0, [sp, #12]
 936 0086 0291     		str	r1, [sp, #8]
 937 0088 0192     		str	r2, [sp, #4]
 938 008a 0093     		str	r3, [sp]
 939 008c 0023     		movs	r3, #0
 940 008e 0E4A     		ldr	r2, .L55+40
 941 0090 0E49     		ldr	r1, .L55+44
 942 0092 0F48     		ldr	r0, .L55+48
 943 0094 FFF7FEFF 		bl	OSTaskCreate
 944              	.L50:
 504:..\..\..\..\..\..\uCOS-III\Source/os_stat.c ****                  (CPU_CHAR   *)((void *)"uC/OS-III Stat Task"),
 505:..\..\..\..\..\..\uCOS-III\Source/os_stat.c ****                  (OS_TASK_PTR )OS_StatTask,
 506:..\..\..\..\..\..\uCOS-III\Source/os_stat.c ****                  (void       *)0,
 507:..\..\..\..\..\..\uCOS-III\Source/os_stat.c ****                  (OS_PRIO     )OSCfg_StatTaskPrio,
 508:..\..\..\..\..\..\uCOS-III\Source/os_stat.c ****                  (CPU_STK    *)OSCfg_StatTaskStkBasePtr,
 509:..\..\..\..\..\..\uCOS-III\Source/os_stat.c ****                  (CPU_STK_SIZE)OSCfg_StatTaskStkLimit,
 510:..\..\..\..\..\..\uCOS-III\Source/os_stat.c ****                  (CPU_STK_SIZE)OSCfg_StatTaskStkSize,
 511:..\..\..\..\..\..\uCOS-III\Source/os_stat.c ****                  (OS_MSG_QTY  )0,
 512:..\..\..\..\..\..\uCOS-III\Source/os_stat.c ****                  (OS_TICK     )0,
 513:..\..\..\..\..\..\uCOS-III\Source/os_stat.c ****                  (void       *)0,
 514:..\..\..\..\..\..\uCOS-III\Source/os_stat.c ****                  (OS_OPT      )(OS_OPT_TASK_STK_CHK | OS_OPT_TASK_STK_CLR),
 515:..\..\..\..\..\..\uCOS-III\Source/os_stat.c ****                  (OS_ERR     *)p_err);
 516:..\..\..\..\..\..\uCOS-III\Source/os_stat.c **** }
 945              		.loc 1 516 0
 946 0098 0C37     		adds	r7, r7, #12
 947              		.cfi_def_cfa_offset 12
 948 009a BD46     		mov	sp, r7
 949              		.cfi_def_cfa_register 13
 950              		@ sp needed
 951 009c 90BD     		pop	{r4, r7, pc}
 952              	.L56:
 953 009e 00BF     		.align	2
 954              	.L55:
 955 00a0 00000000 		.word	OSStatTaskCtr
 956 00a4 00000000 		.word	OSStatTaskCtrRun
 957 00a8 00000000 		.word	OSStatTaskCtrMax
ARM GAS  C:\Users\alex\AppData\Local\Temp\cctmBoHx.s 			page 27


 958 00ac 00000000 		.word	OSStatTaskRdy
 959 00b0 00000000 		.word	OSStatResetFlag
 960 00b4 00000000 		.word	OSCfg_StatTaskStkBasePtr
 961 00b8 00000000 		.word	OSCfg_StatTaskStkSize
 962 00bc 00000000 		.word	OSCfg_StkSizeMin
 963 00c0 00000000 		.word	OSCfg_StatTaskPrio
 964 00c4 00000000 		.word	OSCfg_StatTaskStkLimit
 965 00c8 00000000 		.word	OS_StatTask
 966 00cc 00000000 		.word	.LC0
 967 00d0 00000000 		.word	OSStatTaskTCB
 968              		.cfi_endproc
 969              	.LFE3:
 970              		.size	OS_StatTaskInit, .-OS_StatTaskInit
 971              		.text
 972              	.Letext0:
 973              		.file 2 "..\\..\\..\\..\\..\\..\\uC-CPU\\ARM-Cortex-M3\\GNU/cpu.h"
 974              		.file 3 "..\\..\\..\\..\\..\\..\\uC-CPU/cpu_core.h"
 975              		.file 4 "..\\..\\..\\..\\..\\..\\uCOS-III\\Source/os_type.h"
 976              		.file 5 "..\\..\\..\\..\\..\\..\\uCOS-III\\Source/os.h"