ARM GAS  C:\Users\alex\AppData\Local\Temp\ccByxCIb.s 			page 1


   1              		.syntax unified
   2              		.cpu cortex-m3
   3              		.fpu softvfp
   4              		.eabi_attribute 20, 1
   5              		.eabi_attribute 21, 1
   6              		.eabi_attribute 23, 3
   7              		.eabi_attribute 24, 1
   8              		.eabi_attribute 25, 1
   9              		.eabi_attribute 26, 1
  10              		.eabi_attribute 30, 6
  11              		.eabi_attribute 34, 1
  12              		.eabi_attribute 18, 4
  13              		.thumb
  14              		.syntax unified
  15              		.file	"os_tmr.c"
  16              		.text
  17              	.Ltext0:
  18              		.cfi_sections	.debug_frame
  19              		.section	.text.OSTmrCreate,"ax",%progbits
  20              		.align	2
  21              		.global	OSTmrCreate
  22              		.thumb
  23              		.thumb_func
  24              		.type	OSTmrCreate, %function
  25              	OSTmrCreate:
  26              	.LFB0:
  27              		.file 1 "..\\..\\..\\..\\..\\..\\uCOS-III\\Source\\os_tmr.c"
   1:..\..\..\..\..\..\uCOS-III\Source/os_tmr.c **** /*
   2:..\..\..\..\..\..\uCOS-III\Source/os_tmr.c **** ***************************************************************************************************
   3:..\..\..\..\..\..\uCOS-III\Source/os_tmr.c **** *                                                      uC/OS-III
   4:..\..\..\..\..\..\uCOS-III\Source/os_tmr.c **** *                                                 The Real-Time Kernel
   5:..\..\..\..\..\..\uCOS-III\Source/os_tmr.c **** *
   6:..\..\..\..\..\..\uCOS-III\Source/os_tmr.c **** *                                  (c) Copyright 2009-2012; Micrium, Inc.; Weston, FL
   7:..\..\..\..\..\..\uCOS-III\Source/os_tmr.c **** *                           All rights reserved.  Protected by international copyright laws.
   8:..\..\..\..\..\..\uCOS-III\Source/os_tmr.c **** *
   9:..\..\..\..\..\..\uCOS-III\Source/os_tmr.c **** *                                                   TIMER MANAGEMENT
  10:..\..\..\..\..\..\uCOS-III\Source/os_tmr.c **** *
  11:..\..\..\..\..\..\uCOS-III\Source/os_tmr.c **** * File    : OS_TMR.C
  12:..\..\..\..\..\..\uCOS-III\Source/os_tmr.c **** * By      : JJL
  13:..\..\..\..\..\..\uCOS-III\Source/os_tmr.c **** * Version : V3.03.01
  14:..\..\..\..\..\..\uCOS-III\Source/os_tmr.c **** *
  15:..\..\..\..\..\..\uCOS-III\Source/os_tmr.c **** * LICENSING TERMS:
  16:..\..\..\..\..\..\uCOS-III\Source/os_tmr.c **** * ---------------
  17:..\..\..\..\..\..\uCOS-III\Source/os_tmr.c **** *           uC/OS-III is provided in source form for FREE short-term evaluation, for educational us
  18:..\..\..\..\..\..\uCOS-III\Source/os_tmr.c **** *           for peaceful research.  If you plan or intend to use uC/OS-III in a commercial applicat
  19:..\..\..\..\..\..\uCOS-III\Source/os_tmr.c **** *           product then, you need to contact Micrium to properly license uC/OS-III for its use in 
  20:..\..\..\..\..\..\uCOS-III\Source/os_tmr.c **** *           application/product.   We provide ALL the source code for your convenience and to help 
  21:..\..\..\..\..\..\uCOS-III\Source/os_tmr.c **** *           experience uC/OS-III.  The fact that the source is provided does NOT mean that you can 
  22:..\..\..\..\..\..\uCOS-III\Source/os_tmr.c **** *           it commercially without paying a licensing fee.
  23:..\..\..\..\..\..\uCOS-III\Source/os_tmr.c **** *
  24:..\..\..\..\..\..\uCOS-III\Source/os_tmr.c **** *           Knowledge of the source code may NOT be used to develop a similar product.
  25:..\..\..\..\..\..\uCOS-III\Source/os_tmr.c **** *
  26:..\..\..\..\..\..\uCOS-III\Source/os_tmr.c **** *           Please help us continue to provide the embedded community with the finest software avai
  27:..\..\..\..\..\..\uCOS-III\Source/os_tmr.c **** *           Your honesty is greatly appreciated.
  28:..\..\..\..\..\..\uCOS-III\Source/os_tmr.c **** *
  29:..\..\..\..\..\..\uCOS-III\Source/os_tmr.c **** *           You can contact us at www.micrium.com, or by phone at +1 (954) 217-2036.
  30:..\..\..\..\..\..\uCOS-III\Source/os_tmr.c **** ***************************************************************************************************
ARM GAS  C:\Users\alex\AppData\Local\Temp\ccByxCIb.s 			page 2


  31:..\..\..\..\..\..\uCOS-III\Source/os_tmr.c **** */
  32:..\..\..\..\..\..\uCOS-III\Source/os_tmr.c **** 
  33:..\..\..\..\..\..\uCOS-III\Source/os_tmr.c **** #define  MICRIUM_SOURCE
  34:..\..\..\..\..\..\uCOS-III\Source/os_tmr.c **** #include <os.h>
  35:..\..\..\..\..\..\uCOS-III\Source/os_tmr.c **** 
  36:..\..\..\..\..\..\uCOS-III\Source/os_tmr.c **** #ifdef VSC_INCLUDE_SOURCE_FILE_NAMES
  37:..\..\..\..\..\..\uCOS-III\Source/os_tmr.c **** const  CPU_CHAR  *os_tmr__c = "$Id: $";
  38:..\..\..\..\..\..\uCOS-III\Source/os_tmr.c **** #endif
  39:..\..\..\..\..\..\uCOS-III\Source/os_tmr.c **** 
  40:..\..\..\..\..\..\uCOS-III\Source/os_tmr.c **** 
  41:..\..\..\..\..\..\uCOS-III\Source/os_tmr.c **** #if OS_CFG_TMR_EN > 0u
  42:..\..\..\..\..\..\uCOS-III\Source/os_tmr.c **** /*
  43:..\..\..\..\..\..\uCOS-III\Source/os_tmr.c **** ***************************************************************************************************
  44:..\..\..\..\..\..\uCOS-III\Source/os_tmr.c **** *                                                     CONSTANTS
  45:..\..\..\..\..\..\uCOS-III\Source/os_tmr.c **** ***************************************************************************************************
  46:..\..\..\..\..\..\uCOS-III\Source/os_tmr.c **** */
  47:..\..\..\..\..\..\uCOS-III\Source/os_tmr.c **** 
  48:..\..\..\..\..\..\uCOS-III\Source/os_tmr.c **** #define  OS_OPT_LINK_DLY       (OS_OPT)(0u)
  49:..\..\..\..\..\..\uCOS-III\Source/os_tmr.c **** #define  OS_OPT_LINK_PERIODIC  (OS_OPT)(1u)
  50:..\..\..\..\..\..\uCOS-III\Source/os_tmr.c **** 
  51:..\..\..\..\..\..\uCOS-III\Source/os_tmr.c **** /*$PAGE*/
  52:..\..\..\..\..\..\uCOS-III\Source/os_tmr.c **** /*
  53:..\..\..\..\..\..\uCOS-III\Source/os_tmr.c **** ***************************************************************************************************
  54:..\..\..\..\..\..\uCOS-III\Source/os_tmr.c **** *                                                   CREATE A TIMER
  55:..\..\..\..\..\..\uCOS-III\Source/os_tmr.c **** *
  56:..\..\..\..\..\..\uCOS-III\Source/os_tmr.c **** * Description: This function is called by your application code to create a timer.
  57:..\..\..\..\..\..\uCOS-III\Source/os_tmr.c **** *
  58:..\..\..\..\..\..\uCOS-III\Source/os_tmr.c **** * Arguments  : p_tmr           Is a pointer to a timer control block
  59:..\..\..\..\..\..\uCOS-III\Source/os_tmr.c **** *
  60:..\..\..\..\..\..\uCOS-III\Source/os_tmr.c **** *              p_name          Is a pointer to an ASCII string that is used to name the timer.  Nam
  61:..\..\..\..\..\..\uCOS-III\Source/os_tmr.c **** *                              debugging.
  62:..\..\..\..\..\..\uCOS-III\Source/os_tmr.c **** *
  63:..\..\..\..\..\..\uCOS-III\Source/os_tmr.c **** *              dly             Initial delay.
  64:..\..\..\..\..\..\uCOS-III\Source/os_tmr.c **** *                              If the timer is configured for ONE-SHOT mode, this is the timeout us
  65:..\..\..\..\..\..\uCOS-III\Source/os_tmr.c **** *                              If the timer is configured for PERIODIC mode, this is the first time
  66:..\..\..\..\..\..\uCOS-III\Source/os_tmr.c **** *                              before the timer starts entering periodic mode
  67:..\..\..\..\..\..\uCOS-III\Source/os_tmr.c **** *
  68:..\..\..\..\..\..\uCOS-III\Source/os_tmr.c **** *              period          The 'period' being repeated for the timer.
  69:..\..\..\..\..\..\uCOS-III\Source/os_tmr.c **** *                              If you specified 'OS_OPT_TMR_PERIODIC' as an option, when the timer 
  70:..\..\..\..\..\..\uCOS-III\Source/os_tmr.c **** *                              automatically restart with the same period.
  71:..\..\..\..\..\..\uCOS-III\Source/os_tmr.c **** *
  72:..\..\..\..\..\..\uCOS-III\Source/os_tmr.c **** *              opt             Specifies either:
  73:..\..\..\..\..\..\uCOS-III\Source/os_tmr.c **** *
  74:..\..\..\..\..\..\uCOS-III\Source/os_tmr.c **** *                                  OS_OPT_TMR_ONE_SHOT       The timer counts down only once
  75:..\..\..\..\..\..\uCOS-III\Source/os_tmr.c **** *                                  OS_OPT_TMR_PERIODIC       The timer counts down and then reloads
  76:..\..\..\..\..\..\uCOS-III\Source/os_tmr.c **** *
  77:..\..\..\..\..\..\uCOS-III\Source/os_tmr.c **** *              p_callback      Is a pointer to a callback function that will be called when the tim
  78:..\..\..\..\..\..\uCOS-III\Source/os_tmr.c **** *                              callback function must be declared as follows:
  79:..\..\..\..\..\..\uCOS-III\Source/os_tmr.c **** *
  80:..\..\..\..\..\..\uCOS-III\Source/os_tmr.c **** *                                  void  MyCallback (OS_TMR *p_tmr, void *p_arg);
  81:..\..\..\..\..\..\uCOS-III\Source/os_tmr.c **** *
  82:..\..\..\..\..\..\uCOS-III\Source/os_tmr.c **** *              p_callback_arg  Is an argument (a pointer) that is passed to the callback function w
  83:..\..\..\..\..\..\uCOS-III\Source/os_tmr.c **** *
  84:..\..\..\..\..\..\uCOS-III\Source/os_tmr.c **** *              p_err           Is a pointer to an error code.  '*p_err' will contain one of the fol
  85:..\..\..\..\..\..\uCOS-III\Source/os_tmr.c **** *
  86:..\..\..\..\..\..\uCOS-III\Source/os_tmr.c **** *                                 OS_ERR_NONE
  87:..\..\..\..\..\..\uCOS-III\Source/os_tmr.c **** *                                 OS_ERR_ILLEGAL_CREATE_RUN_TIME if you are trying to create the ti
ARM GAS  C:\Users\alex\AppData\Local\Temp\ccByxCIb.s 			page 3


  88:..\..\..\..\..\..\uCOS-III\Source/os_tmr.c **** *                                                                  OSSafetyCriticalStart().
  89:..\..\..\..\..\..\uCOS-III\Source/os_tmr.c **** *                                 OS_ERR_OBJ_CREATED             if the timer has already been crea
  90:..\..\..\..\..\..\uCOS-III\Source/os_tmr.c **** *                                 OS_ERR_OBJ_PTR_NULL            is 'p_tmr' is a NULL pointer
  91:..\..\..\..\..\..\uCOS-III\Source/os_tmr.c **** *                                 OS_ERR_OBJ_TYPE                if the object type is invalid
  92:..\..\..\..\..\..\uCOS-III\Source/os_tmr.c **** *                                 OS_ERR_OPT_INVALID             you specified an invalid option
  93:..\..\..\..\..\..\uCOS-III\Source/os_tmr.c **** *                                 OS_ERR_TMR_INVALID_DLY         you specified an invalid delay
  94:..\..\..\..\..\..\uCOS-III\Source/os_tmr.c **** *                                 OS_ERR_TMR_INVALID_PERIOD      you specified an invalid period
  95:..\..\..\..\..\..\uCOS-III\Source/os_tmr.c **** *                                 OS_ERR_TMR_ISR                 if the call was made from an ISR
  96:..\..\..\..\..\..\uCOS-III\Source/os_tmr.c **** *
  97:..\..\..\..\..\..\uCOS-III\Source/os_tmr.c **** * Returns    : none
  98:..\..\..\..\..\..\uCOS-III\Source/os_tmr.c **** *
  99:..\..\..\..\..\..\uCOS-III\Source/os_tmr.c **** * Note(s)    : 1) This function only creates the timer.  In other words, the timer is not started w
 100:..\..\..\..\..\..\uCOS-III\Source/os_tmr.c **** *                 start the timer, call OSTmrStart().
 101:..\..\..\..\..\..\uCOS-III\Source/os_tmr.c **** ***************************************************************************************************
 102:..\..\..\..\..\..\uCOS-III\Source/os_tmr.c **** */
 103:..\..\..\..\..\..\uCOS-III\Source/os_tmr.c **** 
 104:..\..\..\..\..\..\uCOS-III\Source/os_tmr.c **** void  OSTmrCreate (OS_TMR               *p_tmr,
 105:..\..\..\..\..\..\uCOS-III\Source/os_tmr.c ****                    CPU_CHAR             *p_name,
 106:..\..\..\..\..\..\uCOS-III\Source/os_tmr.c ****                    OS_TICK               dly,
 107:..\..\..\..\..\..\uCOS-III\Source/os_tmr.c ****                    OS_TICK               period,
 108:..\..\..\..\..\..\uCOS-III\Source/os_tmr.c ****                    OS_OPT                opt,
 109:..\..\..\..\..\..\uCOS-III\Source/os_tmr.c ****                    OS_TMR_CALLBACK_PTR   p_callback,
 110:..\..\..\..\..\..\uCOS-III\Source/os_tmr.c ****                    void                 *p_callback_arg,
 111:..\..\..\..\..\..\uCOS-III\Source/os_tmr.c ****                    OS_ERR               *p_err)
 112:..\..\..\..\..\..\uCOS-III\Source/os_tmr.c **** {
  28              		.loc 1 112 0
  29              		.cfi_startproc
  30              		@ args = 16, pretend = 0, frame = 24
  31              		@ frame_needed = 1, uses_anonymous_args = 0
  32 0000 80B5     		push	{r7, lr}
  33              		.cfi_def_cfa_offset 8
  34              		.cfi_offset 7, -8
  35              		.cfi_offset 14, -4
  36 0002 86B0     		sub	sp, sp, #24
  37              		.cfi_def_cfa_offset 32
  38 0004 00AF     		add	r7, sp, #0
  39              		.cfi_def_cfa_register 7
  40 0006 F860     		str	r0, [r7, #12]
  41 0008 B960     		str	r1, [r7, #8]
  42 000a 7A60     		str	r2, [r7, #4]
  43 000c 3B60     		str	r3, [r7]
 113:..\..\..\..\..\..\uCOS-III\Source/os_tmr.c ****     CPU_SR_ALLOC();
  44              		.loc 1 113 0
  45 000e 0023     		movs	r3, #0
  46 0010 7B61     		str	r3, [r7, #20]
 114:..\..\..\..\..\..\uCOS-III\Source/os_tmr.c **** 
 115:..\..\..\..\..\..\uCOS-III\Source/os_tmr.c **** 
 116:..\..\..\..\..\..\uCOS-III\Source/os_tmr.c **** 
 117:..\..\..\..\..\..\uCOS-III\Source/os_tmr.c **** #ifdef OS_SAFETY_CRITICAL
 118:..\..\..\..\..\..\uCOS-III\Source/os_tmr.c ****     if (p_err == (OS_ERR *)0) {
 119:..\..\..\..\..\..\uCOS-III\Source/os_tmr.c ****         OS_SAFETY_CRITICAL_EXCEPTION();
 120:..\..\..\..\..\..\uCOS-III\Source/os_tmr.c ****         return;
 121:..\..\..\..\..\..\uCOS-III\Source/os_tmr.c ****     }
 122:..\..\..\..\..\..\uCOS-III\Source/os_tmr.c **** #endif
 123:..\..\..\..\..\..\uCOS-III\Source/os_tmr.c **** 
 124:..\..\..\..\..\..\uCOS-III\Source/os_tmr.c **** #ifdef OS_SAFETY_CRITICAL_IEC61508
 125:..\..\..\..\..\..\uCOS-III\Source/os_tmr.c ****     if (OSSafetyCriticalStartFlag == DEF_TRUE) {
ARM GAS  C:\Users\alex\AppData\Local\Temp\ccByxCIb.s 			page 4


 126:..\..\..\..\..\..\uCOS-III\Source/os_tmr.c ****        *p_err = OS_ERR_ILLEGAL_CREATE_RUN_TIME;
 127:..\..\..\..\..\..\uCOS-III\Source/os_tmr.c ****         return;
 128:..\..\..\..\..\..\uCOS-III\Source/os_tmr.c ****     }
 129:..\..\..\..\..\..\uCOS-III\Source/os_tmr.c **** #endif
 130:..\..\..\..\..\..\uCOS-III\Source/os_tmr.c **** 
 131:..\..\..\..\..\..\uCOS-III\Source/os_tmr.c **** #if OS_CFG_CALLED_FROM_ISR_CHK_EN > 0u
 132:..\..\..\..\..\..\uCOS-III\Source/os_tmr.c ****     if (OSIntNestingCtr > (OS_NESTING_CTR)0) {              /* See if trying to call from an ISR   
  47              		.loc 1 132 0
  48 0012 344B     		ldr	r3, .L14
  49 0014 1B78     		ldrb	r3, [r3]	@ zero_extendqisi2
  50 0016 002B     		cmp	r3, #0
  51 0018 04D0     		beq	.L2
 133:..\..\..\..\..\..\uCOS-III\Source/os_tmr.c ****        *p_err = OS_ERR_TMR_ISR;
  52              		.loc 1 133 0
  53 001a FB6A     		ldr	r3, [r7, #44]
  54 001c 47F24332 		movw	r2, #29507
  55 0020 1A80     		strh	r2, [r3]	@ movhi
 134:..\..\..\..\..\..\uCOS-III\Source/os_tmr.c ****         return;
  56              		.loc 1 134 0
  57 0022 5BE0     		b	.L1
  58              	.L2:
 135:..\..\..\..\..\..\uCOS-III\Source/os_tmr.c ****     }
 136:..\..\..\..\..\..\uCOS-III\Source/os_tmr.c **** #endif
 137:..\..\..\..\..\..\uCOS-III\Source/os_tmr.c **** 
 138:..\..\..\..\..\..\uCOS-III\Source/os_tmr.c **** #if OS_CFG_ARG_CHK_EN > 0u
 139:..\..\..\..\..\..\uCOS-III\Source/os_tmr.c ****     if (p_tmr == (OS_TMR *)0) {                             /* Validate 'p_tmr'                    
  59              		.loc 1 139 0
  60 0024 FB68     		ldr	r3, [r7, #12]
  61 0026 002B     		cmp	r3, #0
  62 0028 04D1     		bne	.L4
 140:..\..\..\..\..\..\uCOS-III\Source/os_tmr.c ****        *p_err = OS_ERR_OBJ_PTR_NULL;
  63              		.loc 1 140 0
  64 002a FB6A     		ldr	r3, [r7, #44]
  65 002c 45F6C352 		movw	r2, #24003
  66 0030 1A80     		strh	r2, [r3]	@ movhi
 141:..\..\..\..\..\..\uCOS-III\Source/os_tmr.c ****         return;
  67              		.loc 1 141 0
  68 0032 53E0     		b	.L1
  69              	.L4:
 142:..\..\..\..\..\..\uCOS-III\Source/os_tmr.c ****     }
 143:..\..\..\..\..\..\uCOS-III\Source/os_tmr.c **** 
 144:..\..\..\..\..\..\uCOS-III\Source/os_tmr.c ****     switch (opt) {
  70              		.loc 1 144 0
  71 0034 3B8C     		ldrh	r3, [r7, #32]
  72 0036 012B     		cmp	r3, #1
  73 0038 09D0     		beq	.L6
  74 003a 022B     		cmp	r3, #2
  75 003c 0FD1     		bne	.L11
 145:..\..\..\..\..\..\uCOS-III\Source/os_tmr.c ****         case OS_OPT_TMR_PERIODIC:
 146:..\..\..\..\..\..\uCOS-III\Source/os_tmr.c ****              if (period == (OS_TICK)0) {
  76              		.loc 1 146 0
  77 003e 3B68     		ldr	r3, [r7]
  78 0040 002B     		cmp	r3, #0
  79 0042 11D1     		bne	.L12
 147:..\..\..\..\..\..\uCOS-III\Source/os_tmr.c ****                 *p_err = OS_ERR_TMR_INVALID_PERIOD;
  80              		.loc 1 147 0
  81 0044 FB6A     		ldr	r3, [r7, #44]
ARM GAS  C:\Users\alex\AppData\Local\Temp\ccByxCIb.s 			page 5


  82 0046 47F24032 		movw	r2, #29504
  83 004a 1A80     		strh	r2, [r3]	@ movhi
 148:..\..\..\..\..\..\uCOS-III\Source/os_tmr.c ****                  return;
  84              		.loc 1 148 0
  85 004c 46E0     		b	.L1
  86              	.L6:
 149:..\..\..\..\..\..\uCOS-III\Source/os_tmr.c ****              }
 150:..\..\..\..\..\..\uCOS-III\Source/os_tmr.c ****              break;
 151:..\..\..\..\..\..\uCOS-III\Source/os_tmr.c **** 
 152:..\..\..\..\..\..\uCOS-III\Source/os_tmr.c ****         case OS_OPT_TMR_ONE_SHOT:
 153:..\..\..\..\..\..\uCOS-III\Source/os_tmr.c ****              if (dly == (OS_TICK)0) {
  87              		.loc 1 153 0
  88 004e 7B68     		ldr	r3, [r7, #4]
  89 0050 002B     		cmp	r3, #0
  90 0052 0BD1     		bne	.L13
 154:..\..\..\..\..\..\uCOS-III\Source/os_tmr.c ****                 *p_err = OS_ERR_TMR_INVALID_DLY;
  91              		.loc 1 154 0
  92 0054 FB6A     		ldr	r3, [r7, #44]
  93 0056 47F23F32 		movw	r2, #29503
  94 005a 1A80     		strh	r2, [r3]	@ movhi
 155:..\..\..\..\..\..\uCOS-III\Source/os_tmr.c ****                  return;
  95              		.loc 1 155 0
  96 005c 3EE0     		b	.L1
  97              	.L11:
 156:..\..\..\..\..\..\uCOS-III\Source/os_tmr.c ****              }
 157:..\..\..\..\..\..\uCOS-III\Source/os_tmr.c ****              break;
 158:..\..\..\..\..\..\uCOS-III\Source/os_tmr.c **** 
 159:..\..\..\..\..\..\uCOS-III\Source/os_tmr.c ****         default:
 160:..\..\..\..\..\..\uCOS-III\Source/os_tmr.c ****             *p_err = OS_ERR_OPT_INVALID;
  98              		.loc 1 160 0
  99 005e FB6A     		ldr	r3, [r7, #44]
 100 0060 45F62562 		movw	r2, #24101
 101 0064 1A80     		strh	r2, [r3]	@ movhi
 161:..\..\..\..\..\..\uCOS-III\Source/os_tmr.c ****              return;
 102              		.loc 1 161 0
 103 0066 39E0     		b	.L1
 104              	.L12:
 150:..\..\..\..\..\..\uCOS-III\Source/os_tmr.c **** 
 105              		.loc 1 150 0
 106 0068 00BF     		nop
 107 006a 00E0     		b	.L9
 108              	.L13:
 157:..\..\..\..\..\..\uCOS-III\Source/os_tmr.c **** 
 109              		.loc 1 157 0
 110 006c 00BF     		nop
 111              	.L9:
 162:..\..\..\..\..\..\uCOS-III\Source/os_tmr.c ****     }
 163:..\..\..\..\..\..\uCOS-III\Source/os_tmr.c **** #endif
 164:..\..\..\..\..\..\uCOS-III\Source/os_tmr.c **** 
 165:..\..\..\..\..\..\uCOS-III\Source/os_tmr.c ****     OS_CRITICAL_ENTER();
 112              		.loc 1 165 0
 113 006e FFF7FEFF 		bl	CPU_SR_Save
 114 0072 7861     		str	r0, [r7, #20]
 166:..\..\..\..\..\..\uCOS-III\Source/os_tmr.c ****     p_tmr->State          = (OS_STATE           )OS_TMR_STATE_STOPPED;     /* Initialize the timer 
 115              		.loc 1 166 0
 116 0074 FB68     		ldr	r3, [r7, #12]
 117 0076 0122     		movs	r2, #1
ARM GAS  C:\Users\alex\AppData\Local\Temp\ccByxCIb.s 			page 6


 118 0078 83F82A20 		strb	r2, [r3, #42]
 167:..\..\..\..\..\..\uCOS-III\Source/os_tmr.c ****     p_tmr->Type           = (OS_OBJ_TYPE        )OS_OBJ_TYPE_TMR;
 119              		.loc 1 167 0
 120 007c FB68     		ldr	r3, [r7, #12]
 121 007e 1A4A     		ldr	r2, .L14+4
 122 0080 1A60     		str	r2, [r3]
 168:..\..\..\..\..\..\uCOS-III\Source/os_tmr.c ****     p_tmr->NamePtr        = (CPU_CHAR          *)p_name;
 123              		.loc 1 168 0
 124 0082 FB68     		ldr	r3, [r7, #12]
 125 0084 BA68     		ldr	r2, [r7, #8]
 126 0086 5A60     		str	r2, [r3, #4]
 169:..\..\..\..\..\..\uCOS-III\Source/os_tmr.c ****     p_tmr->Dly            = (OS_TICK            )dly;
 127              		.loc 1 169 0
 128 0088 FB68     		ldr	r3, [r7, #12]
 129 008a 7A68     		ldr	r2, [r7, #4]
 130 008c 1A62     		str	r2, [r3, #32]
 170:..\..\..\..\..\..\uCOS-III\Source/os_tmr.c ****     p_tmr->Match          = (OS_TICK            )0;
 131              		.loc 1 170 0
 132 008e FB68     		ldr	r3, [r7, #12]
 133 0090 0022     		movs	r2, #0
 134 0092 9A61     		str	r2, [r3, #24]
 171:..\..\..\..\..\..\uCOS-III\Source/os_tmr.c ****     p_tmr->Remain         = (OS_TICK            )0;
 135              		.loc 1 171 0
 136 0094 FB68     		ldr	r3, [r7, #12]
 137 0096 0022     		movs	r2, #0
 138 0098 DA61     		str	r2, [r3, #28]
 172:..\..\..\..\..\..\uCOS-III\Source/os_tmr.c ****     p_tmr->Period         = (OS_TICK            )period;
 139              		.loc 1 172 0
 140 009a FB68     		ldr	r3, [r7, #12]
 141 009c 3A68     		ldr	r2, [r7]
 142 009e 5A62     		str	r2, [r3, #36]
 173:..\..\..\..\..\..\uCOS-III\Source/os_tmr.c ****     p_tmr->Opt            = (OS_OPT             )opt;
 143              		.loc 1 173 0
 144 00a0 FB68     		ldr	r3, [r7, #12]
 145 00a2 3A8C     		ldrh	r2, [r7, #32]	@ movhi
 146 00a4 1A85     		strh	r2, [r3, #40]	@ movhi
 174:..\..\..\..\..\..\uCOS-III\Source/os_tmr.c ****     p_tmr->CallbackPtr    = (OS_TMR_CALLBACK_PTR)p_callback;
 147              		.loc 1 174 0
 148 00a6 FB68     		ldr	r3, [r7, #12]
 149 00a8 7A6A     		ldr	r2, [r7, #36]
 150 00aa 9A60     		str	r2, [r3, #8]
 175:..\..\..\..\..\..\uCOS-III\Source/os_tmr.c ****     p_tmr->CallbackPtrArg = (void              *)p_callback_arg;
 151              		.loc 1 175 0
 152 00ac FB68     		ldr	r3, [r7, #12]
 153 00ae BA6A     		ldr	r2, [r7, #40]
 154 00b0 DA60     		str	r2, [r3, #12]
 176:..\..\..\..\..\..\uCOS-III\Source/os_tmr.c ****     p_tmr->NextPtr        = (OS_TMR            *)0;
 155              		.loc 1 176 0
 156 00b2 FB68     		ldr	r3, [r7, #12]
 157 00b4 0022     		movs	r2, #0
 158 00b6 1A61     		str	r2, [r3, #16]
 177:..\..\..\..\..\..\uCOS-III\Source/os_tmr.c ****     p_tmr->PrevPtr        = (OS_TMR            *)0;
 159              		.loc 1 177 0
 160 00b8 FB68     		ldr	r3, [r7, #12]
 161 00ba 0022     		movs	r2, #0
 162 00bc 5A61     		str	r2, [r3, #20]
 178:..\..\..\..\..\..\uCOS-III\Source/os_tmr.c **** 
ARM GAS  C:\Users\alex\AppData\Local\Temp\ccByxCIb.s 			page 7


 179:..\..\..\..\..\..\uCOS-III\Source/os_tmr.c **** #if OS_CFG_DBG_EN > 0u
 180:..\..\..\..\..\..\uCOS-III\Source/os_tmr.c ****     OS_TmrDbgListAdd(p_tmr);
 163              		.loc 1 180 0
 164 00be F868     		ldr	r0, [r7, #12]
 165 00c0 FFF7FEFF 		bl	OS_TmrDbgListAdd
 181:..\..\..\..\..\..\uCOS-III\Source/os_tmr.c **** #endif
 182:..\..\..\..\..\..\uCOS-III\Source/os_tmr.c ****     OSTmrQty++;                                             /* Keep track of the number of timers c
 166              		.loc 1 182 0
 167 00c4 094B     		ldr	r3, .L14+8
 168 00c6 1B88     		ldrh	r3, [r3]
 169 00c8 0133     		adds	r3, r3, #1
 170 00ca 9AB2     		uxth	r2, r3
 171 00cc 074B     		ldr	r3, .L14+8
 172 00ce 1A80     		strh	r2, [r3]	@ movhi
 183:..\..\..\..\..\..\uCOS-III\Source/os_tmr.c **** 
 184:..\..\..\..\..\..\uCOS-III\Source/os_tmr.c ****     OS_CRITICAL_EXIT_NO_SCHED();
 173              		.loc 1 184 0
 174 00d0 7869     		ldr	r0, [r7, #20]
 175 00d2 FFF7FEFF 		bl	CPU_SR_Restore
 185:..\..\..\..\..\..\uCOS-III\Source/os_tmr.c ****    *p_err = OS_ERR_NONE;
 176              		.loc 1 185 0
 177 00d6 FB6A     		ldr	r3, [r7, #44]
 178 00d8 0022     		movs	r2, #0
 179 00da 1A80     		strh	r2, [r3]	@ movhi
 180              	.L1:
 186:..\..\..\..\..\..\uCOS-III\Source/os_tmr.c **** }
 181              		.loc 1 186 0
 182 00dc 1837     		adds	r7, r7, #24
 183              		.cfi_def_cfa_offset 8
 184 00de BD46     		mov	sp, r7
 185              		.cfi_def_cfa_register 13
 186              		@ sp needed
 187 00e0 80BD     		pop	{r7, pc}
 188              	.L15:
 189 00e2 00BF     		.align	2
 190              	.L14:
 191 00e4 00000000 		.word	OSIntNestingCtr
 192 00e8 544D5220 		.word	542264660
 193 00ec 00000000 		.word	OSTmrQty
 194              		.cfi_endproc
 195              	.LFE0:
 196              		.size	OSTmrCreate, .-OSTmrCreate
 197              		.section	.text.OSTmrDel,"ax",%progbits
 198              		.align	2
 199              		.global	OSTmrDel
 200              		.thumb
 201              		.thumb_func
 202              		.type	OSTmrDel, %function
 203              	OSTmrDel:
 204              	.LFB1:
 187:..\..\..\..\..\..\uCOS-III\Source/os_tmr.c **** 
 188:..\..\..\..\..\..\uCOS-III\Source/os_tmr.c **** /*$PAGE*/
 189:..\..\..\..\..\..\uCOS-III\Source/os_tmr.c **** /*
 190:..\..\..\..\..\..\uCOS-III\Source/os_tmr.c **** ***************************************************************************************************
 191:..\..\..\..\..\..\uCOS-III\Source/os_tmr.c **** *                                                   DELETE A TIMER
 192:..\..\..\..\..\..\uCOS-III\Source/os_tmr.c **** *
 193:..\..\..\..\..\..\uCOS-III\Source/os_tmr.c **** * Description: This function is called by your application code to delete a timer.
ARM GAS  C:\Users\alex\AppData\Local\Temp\ccByxCIb.s 			page 8


 194:..\..\..\..\..\..\uCOS-III\Source/os_tmr.c **** *
 195:..\..\..\..\..\..\uCOS-III\Source/os_tmr.c **** * Arguments  : p_tmr          Is a pointer to the timer to stop and delete.
 196:..\..\..\..\..\..\uCOS-III\Source/os_tmr.c **** *
 197:..\..\..\..\..\..\uCOS-III\Source/os_tmr.c **** *              p_err          Is a pointer to an error code.  '*p_err' will contain one of the foll
 198:..\..\..\..\..\..\uCOS-III\Source/os_tmr.c **** *
 199:..\..\..\..\..\..\uCOS-III\Source/os_tmr.c **** *                                 OS_ERR_NONE
 200:..\..\..\..\..\..\uCOS-III\Source/os_tmr.c **** *                                 OS_ERR_OBJ_TYPE             'p_tmr' is not pointing to a timer
 201:..\..\..\..\..\..\uCOS-III\Source/os_tmr.c **** *                                 OS_ERR_TMR_INVALID          'p_tmr' is a NULL pointer
 202:..\..\..\..\..\..\uCOS-III\Source/os_tmr.c **** *                                 OS_ERR_TMR_ISR              if the function was called from an IS
 203:..\..\..\..\..\..\uCOS-III\Source/os_tmr.c **** *                                 OS_ERR_TMR_INACTIVE         if the timer was not created
 204:..\..\..\..\..\..\uCOS-III\Source/os_tmr.c **** *                                 OS_ERR_TMR_INVALID_STATE    the timer is in an invalid state
 205:..\..\..\..\..\..\uCOS-III\Source/os_tmr.c **** *
 206:..\..\..\..\..\..\uCOS-III\Source/os_tmr.c **** * Returns    : DEF_TRUE   if the timer was deleted
 207:..\..\..\..\..\..\uCOS-III\Source/os_tmr.c **** *              DEF_FALSE  if not or upon an error
 208:..\..\..\..\..\..\uCOS-III\Source/os_tmr.c **** ***************************************************************************************************
 209:..\..\..\..\..\..\uCOS-III\Source/os_tmr.c **** */
 210:..\..\..\..\..\..\uCOS-III\Source/os_tmr.c **** 
 211:..\..\..\..\..\..\uCOS-III\Source/os_tmr.c **** #if OS_CFG_TMR_DEL_EN > 0u
 212:..\..\..\..\..\..\uCOS-III\Source/os_tmr.c **** CPU_BOOLEAN  OSTmrDel (OS_TMR  *p_tmr,
 213:..\..\..\..\..\..\uCOS-III\Source/os_tmr.c ****                        OS_ERR  *p_err)
 214:..\..\..\..\..\..\uCOS-III\Source/os_tmr.c **** {
 205              		.loc 1 214 0
 206              		.cfi_startproc
 207              		@ args = 0, pretend = 0, frame = 16
 208              		@ frame_needed = 1, uses_anonymous_args = 0
 209 0000 80B5     		push	{r7, lr}
 210              		.cfi_def_cfa_offset 8
 211              		.cfi_offset 7, -8
 212              		.cfi_offset 14, -4
 213 0002 84B0     		sub	sp, sp, #16
 214              		.cfi_def_cfa_offset 24
 215 0004 00AF     		add	r7, sp, #0
 216              		.cfi_def_cfa_register 7
 217 0006 7860     		str	r0, [r7, #4]
 218 0008 3960     		str	r1, [r7]
 215:..\..\..\..\..\..\uCOS-III\Source/os_tmr.c ****     OS_ERR       err;
 216:..\..\..\..\..\..\uCOS-III\Source/os_tmr.c ****     CPU_BOOLEAN  success;
 217:..\..\..\..\..\..\uCOS-III\Source/os_tmr.c **** 
 218:..\..\..\..\..\..\uCOS-III\Source/os_tmr.c **** 
 219:..\..\..\..\..\..\uCOS-III\Source/os_tmr.c **** 
 220:..\..\..\..\..\..\uCOS-III\Source/os_tmr.c **** #ifdef OS_SAFETY_CRITICAL
 221:..\..\..\..\..\..\uCOS-III\Source/os_tmr.c ****     if (p_err == (OS_ERR *)0) {
 222:..\..\..\..\..\..\uCOS-III\Source/os_tmr.c ****         OS_SAFETY_CRITICAL_EXCEPTION();
 223:..\..\..\..\..\..\uCOS-III\Source/os_tmr.c ****         return (DEF_FALSE);
 224:..\..\..\..\..\..\uCOS-III\Source/os_tmr.c ****     }
 225:..\..\..\..\..\..\uCOS-III\Source/os_tmr.c **** #endif
 226:..\..\..\..\..\..\uCOS-III\Source/os_tmr.c **** 
 227:..\..\..\..\..\..\uCOS-III\Source/os_tmr.c **** #if OS_CFG_CALLED_FROM_ISR_CHK_EN > 0u
 228:..\..\..\..\..\..\uCOS-III\Source/os_tmr.c ****     if (OSIntNestingCtr > (OS_NESTING_CTR)0) {              /* See if trying to call from an ISR   
 219              		.loc 1 228 0
 220 000a 364B     		ldr	r3, .L27
 221 000c 1B78     		ldrb	r3, [r3]	@ zero_extendqisi2
 222 000e 002B     		cmp	r3, #0
 223 0010 05D0     		beq	.L17
 229:..\..\..\..\..\..\uCOS-III\Source/os_tmr.c ****        *p_err  = OS_ERR_TMR_ISR;
 224              		.loc 1 229 0
 225 0012 3B68     		ldr	r3, [r7]
ARM GAS  C:\Users\alex\AppData\Local\Temp\ccByxCIb.s 			page 9


 226 0014 47F24332 		movw	r2, #29507
 227 0018 1A80     		strh	r2, [r3]	@ movhi
 230:..\..\..\..\..\..\uCOS-III\Source/os_tmr.c ****         return (DEF_FALSE);
 228              		.loc 1 230 0
 229 001a 0023     		movs	r3, #0
 230 001c 5EE0     		b	.L26
 231              	.L17:
 231:..\..\..\..\..\..\uCOS-III\Source/os_tmr.c ****     }
 232:..\..\..\..\..\..\uCOS-III\Source/os_tmr.c **** #endif
 233:..\..\..\..\..\..\uCOS-III\Source/os_tmr.c **** 
 234:..\..\..\..\..\..\uCOS-III\Source/os_tmr.c **** #if OS_CFG_ARG_CHK_EN > 0u
 235:..\..\..\..\..\..\uCOS-III\Source/os_tmr.c ****     if (p_tmr == (OS_TMR *)0) {
 232              		.loc 1 235 0
 233 001e 7B68     		ldr	r3, [r7, #4]
 234 0020 002B     		cmp	r3, #0
 235 0022 05D1     		bne	.L19
 236:..\..\..\..\..\..\uCOS-III\Source/os_tmr.c ****        *p_err = OS_ERR_TMR_INVALID;
 236              		.loc 1 236 0
 237 0024 3B68     		ldr	r3, [r7]
 238 0026 47F24232 		movw	r2, #29506
 239 002a 1A80     		strh	r2, [r3]	@ movhi
 237:..\..\..\..\..\..\uCOS-III\Source/os_tmr.c ****         return (DEF_FALSE);
 240              		.loc 1 237 0
 241 002c 0023     		movs	r3, #0
 242 002e 55E0     		b	.L26
 243              	.L19:
 238:..\..\..\..\..\..\uCOS-III\Source/os_tmr.c ****     }
 239:..\..\..\..\..\..\uCOS-III\Source/os_tmr.c **** #endif
 240:..\..\..\..\..\..\uCOS-III\Source/os_tmr.c **** 
 241:..\..\..\..\..\..\uCOS-III\Source/os_tmr.c **** #if OS_CFG_OBJ_TYPE_CHK_EN > 0u
 242:..\..\..\..\..\..\uCOS-III\Source/os_tmr.c ****     if (p_tmr->Type != OS_OBJ_TYPE_TMR) {                   /* Make sure timer was created         
 243:..\..\..\..\..\..\uCOS-III\Source/os_tmr.c ****        *p_err = OS_ERR_OBJ_TYPE;
 244:..\..\..\..\..\..\uCOS-III\Source/os_tmr.c ****         return (DEF_FALSE);
 245:..\..\..\..\..\..\uCOS-III\Source/os_tmr.c ****     }
 246:..\..\..\..\..\..\uCOS-III\Source/os_tmr.c **** #endif
 247:..\..\..\..\..\..\uCOS-III\Source/os_tmr.c **** 
 248:..\..\..\..\..\..\uCOS-III\Source/os_tmr.c ****     OSSchedLock(&err);
 244              		.loc 1 248 0
 245 0030 07F10C03 		add	r3, r7, #12
 246 0034 1846     		mov	r0, r3
 247 0036 FFF7FEFF 		bl	OSSchedLock
 249:..\..\..\..\..\..\uCOS-III\Source/os_tmr.c **** #if OS_CFG_DBG_EN > 0u
 250:..\..\..\..\..\..\uCOS-III\Source/os_tmr.c ****     OS_TmrDbgListRemove(p_tmr);
 248              		.loc 1 250 0
 249 003a 7868     		ldr	r0, [r7, #4]
 250 003c FFF7FEFF 		bl	OS_TmrDbgListRemove
 251:..\..\..\..\..\..\uCOS-III\Source/os_tmr.c **** #endif
 252:..\..\..\..\..\..\uCOS-III\Source/os_tmr.c ****     OSTmrQty--;                                             /* One less timer                      
 251              		.loc 1 252 0
 252 0040 294B     		ldr	r3, .L27+4
 253 0042 1B88     		ldrh	r3, [r3]
 254 0044 013B     		subs	r3, r3, #1
 255 0046 9AB2     		uxth	r2, r3
 256 0048 274B     		ldr	r3, .L27+4
 257 004a 1A80     		strh	r2, [r3]	@ movhi
 253:..\..\..\..\..\..\uCOS-III\Source/os_tmr.c **** 
 254:..\..\..\..\..\..\uCOS-III\Source/os_tmr.c ****     switch (p_tmr->State) {
ARM GAS  C:\Users\alex\AppData\Local\Temp\ccByxCIb.s 			page 10


 258              		.loc 1 254 0
 259 004c 7B68     		ldr	r3, [r7, #4]
 260 004e 93F82A30 		ldrb	r3, [r3, #42]	@ zero_extendqisi2
 261 0052 032B     		cmp	r3, #3
 262 0054 35D8     		bhi	.L20
 263 0056 01A2     		adr	r2, .L22
 264 0058 52F823F0 		ldr	pc, [r2, r3, lsl #2]
 265              		.p2align 2
 266              	.L22:
 267 005c AB000000 		.word	.L21+1
 268 0060 8F000000 		.word	.L23+1
 269 0064 6D000000 		.word	.L24+1
 270 0068 8F000000 		.word	.L23+1
 271              		.p2align 1
 272              	.L24:
 255:..\..\..\..\..\..\uCOS-III\Source/os_tmr.c ****         case OS_TMR_STATE_RUNNING:
 256:..\..\..\..\..\..\uCOS-III\Source/os_tmr.c ****              OS_TmrUnlink(p_tmr);                           /* Remove from current wheel spoke     
 273              		.loc 1 256 0
 274 006c 7868     		ldr	r0, [r7, #4]
 275 006e FFF7FEFF 		bl	OS_TmrUnlink
 257:..\..\..\..\..\..\uCOS-III\Source/os_tmr.c ****              OS_TmrClr(p_tmr);
 276              		.loc 1 257 0
 277 0072 7868     		ldr	r0, [r7, #4]
 278 0074 FFF7FEFF 		bl	OS_TmrClr
 258:..\..\..\..\..\..\uCOS-III\Source/os_tmr.c ****              OSSchedUnlock(&err);
 279              		.loc 1 258 0
 280 0078 07F10C03 		add	r3, r7, #12
 281 007c 1846     		mov	r0, r3
 282 007e FFF7FEFF 		bl	OSSchedUnlock
 259:..\..\..\..\..\..\uCOS-III\Source/os_tmr.c ****             *p_err   = OS_ERR_NONE;
 283              		.loc 1 259 0
 284 0082 3B68     		ldr	r3, [r7]
 285 0084 0022     		movs	r2, #0
 286 0086 1A80     		strh	r2, [r3]	@ movhi
 260:..\..\..\..\..\..\uCOS-III\Source/os_tmr.c ****              success = DEF_TRUE;
 287              		.loc 1 260 0
 288 0088 0123     		movs	r3, #1
 289 008a FB73     		strb	r3, [r7, #15]
 261:..\..\..\..\..\..\uCOS-III\Source/os_tmr.c ****              break;
 290              		.loc 1 261 0
 291 008c 25E0     		b	.L25
 292              	.L23:
 262:..\..\..\..\..\..\uCOS-III\Source/os_tmr.c **** 
 263:..\..\..\..\..\..\uCOS-III\Source/os_tmr.c ****         case OS_TMR_STATE_STOPPED:                          /* Timer has not started or ...        
 264:..\..\..\..\..\..\uCOS-III\Source/os_tmr.c ****         case OS_TMR_STATE_COMPLETED:                        /* ... timer has completed the ONE-SHOT
 265:..\..\..\..\..\..\uCOS-III\Source/os_tmr.c ****              OS_TmrClr(p_tmr);                              /* Clear timer fields                  
 293              		.loc 1 265 0
 294 008e 7868     		ldr	r0, [r7, #4]
 295 0090 FFF7FEFF 		bl	OS_TmrClr
 266:..\..\..\..\..\..\uCOS-III\Source/os_tmr.c ****              OSSchedUnlock(&err);
 296              		.loc 1 266 0
 297 0094 07F10C03 		add	r3, r7, #12
 298 0098 1846     		mov	r0, r3
 299 009a FFF7FEFF 		bl	OSSchedUnlock
 267:..\..\..\..\..\..\uCOS-III\Source/os_tmr.c ****             *p_err   = OS_ERR_NONE;
 300              		.loc 1 267 0
 301 009e 3B68     		ldr	r3, [r7]
ARM GAS  C:\Users\alex\AppData\Local\Temp\ccByxCIb.s 			page 11


 302 00a0 0022     		movs	r2, #0
 303 00a2 1A80     		strh	r2, [r3]	@ movhi
 268:..\..\..\..\..\..\uCOS-III\Source/os_tmr.c ****              success = DEF_TRUE;
 304              		.loc 1 268 0
 305 00a4 0123     		movs	r3, #1
 306 00a6 FB73     		strb	r3, [r7, #15]
 269:..\..\..\..\..\..\uCOS-III\Source/os_tmr.c ****              break;
 307              		.loc 1 269 0
 308 00a8 17E0     		b	.L25
 309              	.L21:
 270:..\..\..\..\..\..\uCOS-III\Source/os_tmr.c ****              
 271:..\..\..\..\..\..\uCOS-III\Source/os_tmr.c ****         case OS_TMR_STATE_UNUSED:                           /* Already deleted                     
 272:..\..\..\..\..\..\uCOS-III\Source/os_tmr.c ****              OSSchedUnlock(&err);
 310              		.loc 1 272 0
 311 00aa 07F10C03 		add	r3, r7, #12
 312 00ae 1846     		mov	r0, r3
 313 00b0 FFF7FEFF 		bl	OSSchedUnlock
 273:..\..\..\..\..\..\uCOS-III\Source/os_tmr.c ****             *p_err   = OS_ERR_TMR_INACTIVE;
 314              		.loc 1 273 0
 315 00b4 3B68     		ldr	r3, [r7]
 316 00b6 47F23D32 		movw	r2, #29501
 317 00ba 1A80     		strh	r2, [r3]	@ movhi
 274:..\..\..\..\..\..\uCOS-III\Source/os_tmr.c ****              success = DEF_FALSE;
 318              		.loc 1 274 0
 319 00bc 0023     		movs	r3, #0
 320 00be FB73     		strb	r3, [r7, #15]
 275:..\..\..\..\..\..\uCOS-III\Source/os_tmr.c ****              break;
 321              		.loc 1 275 0
 322 00c0 0BE0     		b	.L25
 323              	.L20:
 276:..\..\..\..\..\..\uCOS-III\Source/os_tmr.c **** 
 277:..\..\..\..\..\..\uCOS-III\Source/os_tmr.c ****         default:
 278:..\..\..\..\..\..\uCOS-III\Source/os_tmr.c ****              OSSchedUnlock(&err);
 324              		.loc 1 278 0
 325 00c2 07F10C03 		add	r3, r7, #12
 326 00c6 1846     		mov	r0, r3
 327 00c8 FFF7FEFF 		bl	OSSchedUnlock
 279:..\..\..\..\..\..\uCOS-III\Source/os_tmr.c ****             *p_err   = OS_ERR_TMR_INVALID_STATE;
 328              		.loc 1 279 0
 329 00cc 3B68     		ldr	r3, [r7]
 330 00ce 47F24132 		movw	r2, #29505
 331 00d2 1A80     		strh	r2, [r3]	@ movhi
 280:..\..\..\..\..\..\uCOS-III\Source/os_tmr.c ****              success = DEF_FALSE;
 332              		.loc 1 280 0
 333 00d4 0023     		movs	r3, #0
 334 00d6 FB73     		strb	r3, [r7, #15]
 281:..\..\..\..\..\..\uCOS-III\Source/os_tmr.c ****              break;
 335              		.loc 1 281 0
 336 00d8 00BF     		nop
 337              	.L25:
 282:..\..\..\..\..\..\uCOS-III\Source/os_tmr.c ****     }
 283:..\..\..\..\..\..\uCOS-III\Source/os_tmr.c ****     return (success);
 338              		.loc 1 283 0
 339 00da FB7B     		ldrb	r3, [r7, #15]	@ zero_extendqisi2
 340              	.L26:
 284:..\..\..\..\..\..\uCOS-III\Source/os_tmr.c **** }
 341              		.loc 1 284 0 discriminator 1
ARM GAS  C:\Users\alex\AppData\Local\Temp\ccByxCIb.s 			page 12


 342 00dc 1846     		mov	r0, r3
 343 00de 1037     		adds	r7, r7, #16
 344              		.cfi_def_cfa_offset 8
 345 00e0 BD46     		mov	sp, r7
 346              		.cfi_def_cfa_register 13
 347              		@ sp needed
 348 00e2 80BD     		pop	{r7, pc}
 349              	.L28:
 350              		.align	2
 351              	.L27:
 352 00e4 00000000 		.word	OSIntNestingCtr
 353 00e8 00000000 		.word	OSTmrQty
 354              		.cfi_endproc
 355              	.LFE1:
 356              		.size	OSTmrDel, .-OSTmrDel
 357              		.section	.text.OSTmrRemainGet,"ax",%progbits
 358              		.align	2
 359              		.global	OSTmrRemainGet
 360              		.thumb
 361              		.thumb_func
 362              		.type	OSTmrRemainGet, %function
 363              	OSTmrRemainGet:
 364              	.LFB2:
 285:..\..\..\..\..\..\uCOS-III\Source/os_tmr.c **** #endif
 286:..\..\..\..\..\..\uCOS-III\Source/os_tmr.c **** 
 287:..\..\..\..\..\..\uCOS-III\Source/os_tmr.c **** /*$PAGE*/
 288:..\..\..\..\..\..\uCOS-III\Source/os_tmr.c **** /*
 289:..\..\..\..\..\..\uCOS-III\Source/os_tmr.c **** ***************************************************************************************************
 290:..\..\..\..\..\..\uCOS-III\Source/os_tmr.c **** *                                    GET HOW MUCH TIME IS LEFT BEFORE A TIMER EXPIRES
 291:..\..\..\..\..\..\uCOS-III\Source/os_tmr.c **** *
 292:..\..\..\..\..\..\uCOS-III\Source/os_tmr.c **** * Description: This function is called to get the number of ticks before a timer times out.
 293:..\..\..\..\..\..\uCOS-III\Source/os_tmr.c **** *
 294:..\..\..\..\..\..\uCOS-III\Source/os_tmr.c **** * Arguments  : p_tmr    Is a pointer to the timer to obtain the remaining time from.
 295:..\..\..\..\..\..\uCOS-III\Source/os_tmr.c **** *
 296:..\..\..\..\..\..\uCOS-III\Source/os_tmr.c **** *              p_err    Is a pointer to an error code.  '*p_err' will contain one of the following:
 297:..\..\..\..\..\..\uCOS-III\Source/os_tmr.c **** *
 298:..\..\..\..\..\..\uCOS-III\Source/os_tmr.c **** *                           OS_ERR_NONE
 299:..\..\..\..\..\..\uCOS-III\Source/os_tmr.c **** *                           OS_ERR_OBJ_TYPE           'p_tmr' is not pointing to a timer
 300:..\..\..\..\..\..\uCOS-III\Source/os_tmr.c **** *                           OS_ERR_TMR_INVALID        'p_tmr' is a NULL pointer
 301:..\..\..\..\..\..\uCOS-III\Source/os_tmr.c **** *                           OS_ERR_TMR_ISR            if the call was made from an ISR
 302:..\..\..\..\..\..\uCOS-III\Source/os_tmr.c **** *                           OS_ERR_TMR_INACTIVE       'p_tmr' points to a timer that is not active
 303:..\..\..\..\..\..\uCOS-III\Source/os_tmr.c **** *                           OS_ERR_TMR_INVALID_STATE  the timer is in an invalid state
 304:..\..\..\..\..\..\uCOS-III\Source/os_tmr.c **** *
 305:..\..\..\..\..\..\uCOS-III\Source/os_tmr.c **** * Returns    : The time remaining for the timer to expire.  The time represents 'timer' increments.
 306:..\..\..\..\..\..\uCOS-III\Source/os_tmr.c **** *              OS_TmrTask() is signaled every 1/10 of a second then the returned value represents t
 307:..\..\..\..\..\..\uCOS-III\Source/os_tmr.c **** *              a second remaining before the timer expires.
 308:..\..\..\..\..\..\uCOS-III\Source/os_tmr.c **** ***************************************************************************************************
 309:..\..\..\..\..\..\uCOS-III\Source/os_tmr.c **** */
 310:..\..\..\..\..\..\uCOS-III\Source/os_tmr.c **** 
 311:..\..\..\..\..\..\uCOS-III\Source/os_tmr.c **** OS_TICK  OSTmrRemainGet (OS_TMR  *p_tmr,
 312:..\..\..\..\..\..\uCOS-III\Source/os_tmr.c ****                          OS_ERR  *p_err)
 313:..\..\..\..\..\..\uCOS-III\Source/os_tmr.c **** {
 365              		.loc 1 313 0
 366              		.cfi_startproc
 367              		@ args = 0, pretend = 0, frame = 16
 368              		@ frame_needed = 1, uses_anonymous_args = 0
 369 0000 80B5     		push	{r7, lr}
ARM GAS  C:\Users\alex\AppData\Local\Temp\ccByxCIb.s 			page 13


 370              		.cfi_def_cfa_offset 8
 371              		.cfi_offset 7, -8
 372              		.cfi_offset 14, -4
 373 0002 84B0     		sub	sp, sp, #16
 374              		.cfi_def_cfa_offset 24
 375 0004 00AF     		add	r7, sp, #0
 376              		.cfi_def_cfa_register 7
 377 0006 7860     		str	r0, [r7, #4]
 378 0008 3960     		str	r1, [r7]
 314:..\..\..\..\..\..\uCOS-III\Source/os_tmr.c ****     OS_TICK  remain;
 315:..\..\..\..\..\..\uCOS-III\Source/os_tmr.c ****     OS_ERR   err;
 316:..\..\..\..\..\..\uCOS-III\Source/os_tmr.c **** 
 317:..\..\..\..\..\..\uCOS-III\Source/os_tmr.c **** 
 318:..\..\..\..\..\..\uCOS-III\Source/os_tmr.c **** 
 319:..\..\..\..\..\..\uCOS-III\Source/os_tmr.c **** #ifdef OS_SAFETY_CRITICAL
 320:..\..\..\..\..\..\uCOS-III\Source/os_tmr.c ****     if (p_err == (OS_ERR *)0) {
 321:..\..\..\..\..\..\uCOS-III\Source/os_tmr.c ****         OS_SAFETY_CRITICAL_EXCEPTION();
 322:..\..\..\..\..\..\uCOS-III\Source/os_tmr.c ****         return ((OS_TICK)0);
 323:..\..\..\..\..\..\uCOS-III\Source/os_tmr.c ****     }
 324:..\..\..\..\..\..\uCOS-III\Source/os_tmr.c **** #endif
 325:..\..\..\..\..\..\uCOS-III\Source/os_tmr.c **** 
 326:..\..\..\..\..\..\uCOS-III\Source/os_tmr.c **** #if OS_CFG_CALLED_FROM_ISR_CHK_EN > 0u
 327:..\..\..\..\..\..\uCOS-III\Source/os_tmr.c ****     if (OSIntNestingCtr > (OS_NESTING_CTR)0) {              /* See if trying to call from an ISR   
 379              		.loc 1 327 0
 380 000a 414B     		ldr	r3, .L45
 381 000c 1B78     		ldrb	r3, [r3]	@ zero_extendqisi2
 382 000e 002B     		cmp	r3, #0
 383 0010 05D0     		beq	.L30
 328:..\..\..\..\..\..\uCOS-III\Source/os_tmr.c ****        *p_err = OS_ERR_TMR_ISR;
 384              		.loc 1 328 0
 385 0012 3B68     		ldr	r3, [r7]
 386 0014 47F24332 		movw	r2, #29507
 387 0018 1A80     		strh	r2, [r3]	@ movhi
 329:..\..\..\..\..\..\uCOS-III\Source/os_tmr.c ****         return ((OS_TICK)0);
 388              		.loc 1 329 0
 389 001a 0023     		movs	r3, #0
 390 001c 73E0     		b	.L44
 391              	.L30:
 330:..\..\..\..\..\..\uCOS-III\Source/os_tmr.c ****     }
 331:..\..\..\..\..\..\uCOS-III\Source/os_tmr.c **** #endif
 332:..\..\..\..\..\..\uCOS-III\Source/os_tmr.c **** 
 333:..\..\..\..\..\..\uCOS-III\Source/os_tmr.c **** #if OS_CFG_ARG_CHK_EN > 0u
 334:..\..\..\..\..\..\uCOS-III\Source/os_tmr.c ****     if (p_tmr == (OS_TMR *)0) {
 392              		.loc 1 334 0
 393 001e 7B68     		ldr	r3, [r7, #4]
 394 0020 002B     		cmp	r3, #0
 395 0022 05D1     		bne	.L32
 335:..\..\..\..\..\..\uCOS-III\Source/os_tmr.c ****        *p_err = OS_ERR_TMR_INVALID;
 396              		.loc 1 335 0
 397 0024 3B68     		ldr	r3, [r7]
 398 0026 47F24232 		movw	r2, #29506
 399 002a 1A80     		strh	r2, [r3]	@ movhi
 336:..\..\..\..\..\..\uCOS-III\Source/os_tmr.c ****         return ((OS_TICK)0);
 400              		.loc 1 336 0
 401 002c 0023     		movs	r3, #0
 402 002e 6AE0     		b	.L44
 403              	.L32:
ARM GAS  C:\Users\alex\AppData\Local\Temp\ccByxCIb.s 			page 14


 337:..\..\..\..\..\..\uCOS-III\Source/os_tmr.c ****     }
 338:..\..\..\..\..\..\uCOS-III\Source/os_tmr.c **** #endif
 339:..\..\..\..\..\..\uCOS-III\Source/os_tmr.c **** 
 340:..\..\..\..\..\..\uCOS-III\Source/os_tmr.c **** #if OS_CFG_OBJ_TYPE_CHK_EN > 0u
 341:..\..\..\..\..\..\uCOS-III\Source/os_tmr.c ****     if (p_tmr->Type != OS_OBJ_TYPE_TMR) {                   /* Make sure timer was created         
 342:..\..\..\..\..\..\uCOS-III\Source/os_tmr.c ****        *p_err = OS_ERR_OBJ_TYPE;
 343:..\..\..\..\..\..\uCOS-III\Source/os_tmr.c ****         return ((OS_TICK)0);
 344:..\..\..\..\..\..\uCOS-III\Source/os_tmr.c ****     }
 345:..\..\..\..\..\..\uCOS-III\Source/os_tmr.c **** #endif
 346:..\..\..\..\..\..\uCOS-III\Source/os_tmr.c **** 
 347:..\..\..\..\..\..\uCOS-III\Source/os_tmr.c ****     OSSchedLock(&err);
 404              		.loc 1 347 0
 405 0030 07F10A03 		add	r3, r7, #10
 406 0034 1846     		mov	r0, r3
 407 0036 FFF7FEFF 		bl	OSSchedLock
 348:..\..\..\..\..\..\uCOS-III\Source/os_tmr.c ****     switch (p_tmr->State) {
 408              		.loc 1 348 0
 409 003a 7B68     		ldr	r3, [r7, #4]
 410 003c 93F82A30 		ldrb	r3, [r3, #42]	@ zero_extendqisi2
 411 0040 032B     		cmp	r3, #3
 412 0042 53D8     		bhi	.L33
 413 0044 01A2     		adr	r2, .L35
 414 0046 52F823F0 		ldr	pc, [r2, r3, lsl #2]
 415 004a 00BF     		.p2align 2
 416              	.L35:
 417 004c D5000000 		.word	.L34+1
 418 0050 81000000 		.word	.L36+1
 419 0054 5D000000 		.word	.L37+1
 420 0058 BF000000 		.word	.L38+1
 421              		.p2align 1
 422              	.L37:
 349:..\..\..\..\..\..\uCOS-III\Source/os_tmr.c ****         case OS_TMR_STATE_RUNNING:
 350:..\..\..\..\..\..\uCOS-III\Source/os_tmr.c ****              remain        = p_tmr->Match                   /* Determine how much time is left to t
 423              		.loc 1 350 0
 424 005c 7B68     		ldr	r3, [r7, #4]
 425 005e 9A69     		ldr	r2, [r3, #24]
 351:..\..\..\..\..\..\uCOS-III\Source/os_tmr.c ****                            - OSTmrTickCtr;
 426              		.loc 1 351 0
 427 0060 2C4B     		ldr	r3, .L45+4
 428 0062 1B68     		ldr	r3, [r3]
 350:..\..\..\..\..\..\uCOS-III\Source/os_tmr.c ****                            - OSTmrTickCtr;
 429              		.loc 1 350 0
 430 0064 D31A     		subs	r3, r2, r3
 431 0066 FB60     		str	r3, [r7, #12]
 352:..\..\..\..\..\..\uCOS-III\Source/os_tmr.c ****              p_tmr->Remain = remain;
 432              		.loc 1 352 0
 433 0068 7B68     		ldr	r3, [r7, #4]
 434 006a FA68     		ldr	r2, [r7, #12]
 435 006c DA61     		str	r2, [r3, #28]
 353:..\..\..\..\..\..\uCOS-III\Source/os_tmr.c ****              OSSchedUnlock(&err);
 436              		.loc 1 353 0
 437 006e 07F10A03 		add	r3, r7, #10
 438 0072 1846     		mov	r0, r3
 439 0074 FFF7FEFF 		bl	OSSchedUnlock
 354:..\..\..\..\..\..\uCOS-III\Source/os_tmr.c ****             *p_err         = OS_ERR_NONE;
 440              		.loc 1 354 0
 441 0078 3B68     		ldr	r3, [r7]
ARM GAS  C:\Users\alex\AppData\Local\Temp\ccByxCIb.s 			page 15


 442 007a 0022     		movs	r2, #0
 443 007c 1A80     		strh	r2, [r3]	@ movhi
 355:..\..\..\..\..\..\uCOS-III\Source/os_tmr.c ****              break;
 444              		.loc 1 355 0
 445 007e 41E0     		b	.L39
 446              	.L36:
 356:..\..\..\..\..\..\uCOS-III\Source/os_tmr.c **** 
 357:..\..\..\..\..\..\uCOS-III\Source/os_tmr.c ****         case OS_TMR_STATE_STOPPED:                          /* It's assumed that the timer has not 
 358:..\..\..\..\..\..\uCOS-III\Source/os_tmr.c ****              if (p_tmr->Opt == OS_OPT_TMR_PERIODIC) {
 447              		.loc 1 358 0
 448 0080 7B68     		ldr	r3, [r7, #4]
 449 0082 1B8D     		ldrh	r3, [r3, #40]
 450 0084 022B     		cmp	r3, #2
 451 0086 0BD1     		bne	.L40
 359:..\..\..\..\..\..\uCOS-III\Source/os_tmr.c ****                  if (p_tmr->Dly == 0u) {
 452              		.loc 1 359 0
 453 0088 7B68     		ldr	r3, [r7, #4]
 454 008a 1B6A     		ldr	r3, [r3, #32]
 455 008c 002B     		cmp	r3, #0
 456 008e 03D1     		bne	.L41
 360:..\..\..\..\..\..\uCOS-III\Source/os_tmr.c ****                      remain = p_tmr->Period;
 457              		.loc 1 360 0
 458 0090 7B68     		ldr	r3, [r7, #4]
 459 0092 5B6A     		ldr	r3, [r3, #36]
 460 0094 FB60     		str	r3, [r7, #12]
 461 0096 06E0     		b	.L43
 462              	.L41:
 361:..\..\..\..\..\..\uCOS-III\Source/os_tmr.c ****                  } else {
 362:..\..\..\..\..\..\uCOS-III\Source/os_tmr.c ****                      remain = p_tmr->Dly;
 463              		.loc 1 362 0
 464 0098 7B68     		ldr	r3, [r7, #4]
 465 009a 1B6A     		ldr	r3, [r3, #32]
 466 009c FB60     		str	r3, [r7, #12]
 467 009e 02E0     		b	.L43
 468              	.L40:
 363:..\..\..\..\..\..\uCOS-III\Source/os_tmr.c ****                  }
 364:..\..\..\..\..\..\uCOS-III\Source/os_tmr.c ****              } else {
 365:..\..\..\..\..\..\uCOS-III\Source/os_tmr.c ****                  remain = p_tmr->Dly;
 469              		.loc 1 365 0
 470 00a0 7B68     		ldr	r3, [r7, #4]
 471 00a2 1B6A     		ldr	r3, [r3, #32]
 472 00a4 FB60     		str	r3, [r7, #12]
 473              	.L43:
 366:..\..\..\..\..\..\uCOS-III\Source/os_tmr.c ****              }
 367:..\..\..\..\..\..\uCOS-III\Source/os_tmr.c ****              p_tmr->Remain = remain;
 474              		.loc 1 367 0
 475 00a6 7B68     		ldr	r3, [r7, #4]
 476 00a8 FA68     		ldr	r2, [r7, #12]
 477 00aa DA61     		str	r2, [r3, #28]
 368:..\..\..\..\..\..\uCOS-III\Source/os_tmr.c ****              OSSchedUnlock(&err);
 478              		.loc 1 368 0
 479 00ac 07F10A03 		add	r3, r7, #10
 480 00b0 1846     		mov	r0, r3
 481 00b2 FFF7FEFF 		bl	OSSchedUnlock
 369:..\..\..\..\..\..\uCOS-III\Source/os_tmr.c ****             *p_err         = OS_ERR_NONE;
 482              		.loc 1 369 0
 483 00b6 3B68     		ldr	r3, [r7]
ARM GAS  C:\Users\alex\AppData\Local\Temp\ccByxCIb.s 			page 16


 484 00b8 0022     		movs	r2, #0
 485 00ba 1A80     		strh	r2, [r3]	@ movhi
 370:..\..\..\..\..\..\uCOS-III\Source/os_tmr.c ****              break;
 486              		.loc 1 370 0
 487 00bc 22E0     		b	.L39
 488              	.L38:
 371:..\..\..\..\..\..\uCOS-III\Source/os_tmr.c **** 
 372:..\..\..\..\..\..\uCOS-III\Source/os_tmr.c ****         case OS_TMR_STATE_COMPLETED:                        /* Only ONE-SHOT that timed out can be 
 373:..\..\..\..\..\..\uCOS-III\Source/os_tmr.c ****              OSSchedUnlock(&err);
 489              		.loc 1 373 0
 490 00be 07F10A03 		add	r3, r7, #10
 491 00c2 1846     		mov	r0, r3
 492 00c4 FFF7FEFF 		bl	OSSchedUnlock
 374:..\..\..\..\..\..\uCOS-III\Source/os_tmr.c ****             *p_err  = OS_ERR_NONE;
 493              		.loc 1 374 0
 494 00c8 3B68     		ldr	r3, [r7]
 495 00ca 0022     		movs	r2, #0
 496 00cc 1A80     		strh	r2, [r3]	@ movhi
 375:..\..\..\..\..\..\uCOS-III\Source/os_tmr.c ****              remain = (OS_TICK)0;
 497              		.loc 1 375 0
 498 00ce 0023     		movs	r3, #0
 499 00d0 FB60     		str	r3, [r7, #12]
 376:..\..\..\..\..\..\uCOS-III\Source/os_tmr.c ****              break;
 500              		.loc 1 376 0
 501 00d2 17E0     		b	.L39
 502              	.L34:
 377:..\..\..\..\..\..\uCOS-III\Source/os_tmr.c **** 
 378:..\..\..\..\..\..\uCOS-III\Source/os_tmr.c ****         case OS_TMR_STATE_UNUSED:
 379:..\..\..\..\..\..\uCOS-III\Source/os_tmr.c ****              OSSchedUnlock(&err);
 503              		.loc 1 379 0
 504 00d4 07F10A03 		add	r3, r7, #10
 505 00d8 1846     		mov	r0, r3
 506 00da FFF7FEFF 		bl	OSSchedUnlock
 380:..\..\..\..\..\..\uCOS-III\Source/os_tmr.c ****             *p_err  = OS_ERR_TMR_INACTIVE;
 507              		.loc 1 380 0
 508 00de 3B68     		ldr	r3, [r7]
 509 00e0 47F23D32 		movw	r2, #29501
 510 00e4 1A80     		strh	r2, [r3]	@ movhi
 381:..\..\..\..\..\..\uCOS-III\Source/os_tmr.c ****              remain = (OS_TICK)0;
 511              		.loc 1 381 0
 512 00e6 0023     		movs	r3, #0
 513 00e8 FB60     		str	r3, [r7, #12]
 382:..\..\..\..\..\..\uCOS-III\Source/os_tmr.c ****              break;
 514              		.loc 1 382 0
 515 00ea 0BE0     		b	.L39
 516              	.L33:
 383:..\..\..\..\..\..\uCOS-III\Source/os_tmr.c **** 
 384:..\..\..\..\..\..\uCOS-III\Source/os_tmr.c ****         default:
 385:..\..\..\..\..\..\uCOS-III\Source/os_tmr.c ****              OSSchedUnlock(&err);
 517              		.loc 1 385 0
 518 00ec 07F10A03 		add	r3, r7, #10
 519 00f0 1846     		mov	r0, r3
 520 00f2 FFF7FEFF 		bl	OSSchedUnlock
 386:..\..\..\..\..\..\uCOS-III\Source/os_tmr.c ****             *p_err = OS_ERR_TMR_INVALID_STATE;
 521              		.loc 1 386 0
 522 00f6 3B68     		ldr	r3, [r7]
 523 00f8 47F24132 		movw	r2, #29505
ARM GAS  C:\Users\alex\AppData\Local\Temp\ccByxCIb.s 			page 17


 524 00fc 1A80     		strh	r2, [r3]	@ movhi
 387:..\..\..\..\..\..\uCOS-III\Source/os_tmr.c ****              remain = (OS_TICK)0;
 525              		.loc 1 387 0
 526 00fe 0023     		movs	r3, #0
 527 0100 FB60     		str	r3, [r7, #12]
 388:..\..\..\..\..\..\uCOS-III\Source/os_tmr.c ****              break;
 528              		.loc 1 388 0
 529 0102 00BF     		nop
 530              	.L39:
 389:..\..\..\..\..\..\uCOS-III\Source/os_tmr.c ****     }
 390:..\..\..\..\..\..\uCOS-III\Source/os_tmr.c ****     return (remain);
 531              		.loc 1 390 0
 532 0104 FB68     		ldr	r3, [r7, #12]
 533              	.L44:
 391:..\..\..\..\..\..\uCOS-III\Source/os_tmr.c **** }
 534              		.loc 1 391 0 discriminator 1
 535 0106 1846     		mov	r0, r3
 536 0108 1037     		adds	r7, r7, #16
 537              		.cfi_def_cfa_offset 8
 538 010a BD46     		mov	sp, r7
 539              		.cfi_def_cfa_register 13
 540              		@ sp needed
 541 010c 80BD     		pop	{r7, pc}
 542              	.L46:
 543 010e 00BF     		.align	2
 544              	.L45:
 545 0110 00000000 		.word	OSIntNestingCtr
 546 0114 00000000 		.word	OSTmrTickCtr
 547              		.cfi_endproc
 548              	.LFE2:
 549              		.size	OSTmrRemainGet, .-OSTmrRemainGet
 550              		.section	.text.OSTmrStart,"ax",%progbits
 551              		.align	2
 552              		.global	OSTmrStart
 553              		.thumb
 554              		.thumb_func
 555              		.type	OSTmrStart, %function
 556              	OSTmrStart:
 557              	.LFB3:
 392:..\..\..\..\..\..\uCOS-III\Source/os_tmr.c **** 
 393:..\..\..\..\..\..\uCOS-III\Source/os_tmr.c **** /*$PAGE*/
 394:..\..\..\..\..\..\uCOS-III\Source/os_tmr.c **** /*
 395:..\..\..\..\..\..\uCOS-III\Source/os_tmr.c **** ***************************************************************************************************
 396:..\..\..\..\..\..\uCOS-III\Source/os_tmr.c **** *                                                   START A TIMER
 397:..\..\..\..\..\..\uCOS-III\Source/os_tmr.c **** *
 398:..\..\..\..\..\..\uCOS-III\Source/os_tmr.c **** * Description: This function is called by your application code to start a timer.
 399:..\..\..\..\..\..\uCOS-III\Source/os_tmr.c **** *
 400:..\..\..\..\..\..\uCOS-III\Source/os_tmr.c **** * Arguments  : p_tmr    Is a pointer to an OS_TMR
 401:..\..\..\..\..\..\uCOS-III\Source/os_tmr.c **** *
 402:..\..\..\..\..\..\uCOS-III\Source/os_tmr.c **** *              p_err    Is a pointer to an error code.  '*p_err' will contain one of the following:
 403:..\..\..\..\..\..\uCOS-III\Source/os_tmr.c **** *
 404:..\..\..\..\..\..\uCOS-III\Source/os_tmr.c **** *                           OS_ERR_NONE
 405:..\..\..\..\..\..\uCOS-III\Source/os_tmr.c **** *                           OS_ERR_OBJ_TYPE            if 'p_tmr' is not pointing to a timer
 406:..\..\..\..\..\..\uCOS-III\Source/os_tmr.c **** *                           OS_ERR_TMR_INVALID
 407:..\..\..\..\..\..\uCOS-III\Source/os_tmr.c **** *                           OS_ERR_TMR_INACTIVE        if the timer was not created
 408:..\..\..\..\..\..\uCOS-III\Source/os_tmr.c **** *                           OS_ERR_TMR_INVALID_STATE   the timer is in an invalid state
 409:..\..\..\..\..\..\uCOS-III\Source/os_tmr.c **** *                           OS_ERR_TMR_ISR             if the call was made from an ISR
ARM GAS  C:\Users\alex\AppData\Local\Temp\ccByxCIb.s 			page 18


 410:..\..\..\..\..\..\uCOS-III\Source/os_tmr.c **** *
 411:..\..\..\..\..\..\uCOS-III\Source/os_tmr.c **** * Returns    : DEF_TRUE      is the timer was started
 412:..\..\..\..\..\..\uCOS-III\Source/os_tmr.c **** *              DEF_FALSE     if not or upon an error
 413:..\..\..\..\..\..\uCOS-III\Source/os_tmr.c **** *
 414:..\..\..\..\..\..\uCOS-III\Source/os_tmr.c **** * Note(s)    : 1) When starting/restarting a timer, regardless if it is in PERIODIC or ONE-SHOT mod
 415:..\..\..\..\..\..\uCOS-III\Source/os_tmr.c **** *                 linked to the timer wheel with the OS_OPT_LINK_DLY option. This option sets the i
 416:..\..\..\..\..\..\uCOS-III\Source/os_tmr.c **** *                 time for the timer. For timers in PERIODIC mode, subsequent expiration times are 
 417:..\..\..\..\..\..\uCOS-III\Source/os_tmr.c **** *                 the OS_TmrTask().
 418:..\..\..\..\..\..\uCOS-III\Source/os_tmr.c **** ***************************************************************************************************
 419:..\..\..\..\..\..\uCOS-III\Source/os_tmr.c **** */
 420:..\..\..\..\..\..\uCOS-III\Source/os_tmr.c **** 
 421:..\..\..\..\..\..\uCOS-III\Source/os_tmr.c **** CPU_BOOLEAN  OSTmrStart (OS_TMR  *p_tmr,
 422:..\..\..\..\..\..\uCOS-III\Source/os_tmr.c ****                          OS_ERR  *p_err)
 423:..\..\..\..\..\..\uCOS-III\Source/os_tmr.c **** {
 558              		.loc 1 423 0
 559              		.cfi_startproc
 560              		@ args = 0, pretend = 0, frame = 16
 561              		@ frame_needed = 1, uses_anonymous_args = 0
 562 0000 80B5     		push	{r7, lr}
 563              		.cfi_def_cfa_offset 8
 564              		.cfi_offset 7, -8
 565              		.cfi_offset 14, -4
 566 0002 84B0     		sub	sp, sp, #16
 567              		.cfi_def_cfa_offset 24
 568 0004 00AF     		add	r7, sp, #0
 569              		.cfi_def_cfa_register 7
 570 0006 7860     		str	r0, [r7, #4]
 571 0008 3960     		str	r1, [r7]
 424:..\..\..\..\..\..\uCOS-III\Source/os_tmr.c ****     OS_ERR       err;
 425:..\..\..\..\..\..\uCOS-III\Source/os_tmr.c ****     CPU_BOOLEAN  success;
 426:..\..\..\..\..\..\uCOS-III\Source/os_tmr.c **** 
 427:..\..\..\..\..\..\uCOS-III\Source/os_tmr.c **** 
 428:..\..\..\..\..\..\uCOS-III\Source/os_tmr.c **** 
 429:..\..\..\..\..\..\uCOS-III\Source/os_tmr.c **** #ifdef OS_SAFETY_CRITICAL
 430:..\..\..\..\..\..\uCOS-III\Source/os_tmr.c ****     if (p_err == (OS_ERR *)0) {
 431:..\..\..\..\..\..\uCOS-III\Source/os_tmr.c ****         OS_SAFETY_CRITICAL_EXCEPTION();
 432:..\..\..\..\..\..\uCOS-III\Source/os_tmr.c ****         return (DEF_FALSE);
 433:..\..\..\..\..\..\uCOS-III\Source/os_tmr.c ****     }
 434:..\..\..\..\..\..\uCOS-III\Source/os_tmr.c **** #endif
 435:..\..\..\..\..\..\uCOS-III\Source/os_tmr.c **** 
 436:..\..\..\..\..\..\uCOS-III\Source/os_tmr.c **** #if OS_CFG_CALLED_FROM_ISR_CHK_EN > 0u
 437:..\..\..\..\..\..\uCOS-III\Source/os_tmr.c ****     if (OSIntNestingCtr > (OS_NESTING_CTR)0) {              /* See if trying to call from an ISR   
 572              		.loc 1 437 0
 573 000a 334B     		ldr	r3, .L58
 574 000c 1B78     		ldrb	r3, [r3]	@ zero_extendqisi2
 575 000e 002B     		cmp	r3, #0
 576 0010 05D0     		beq	.L48
 438:..\..\..\..\..\..\uCOS-III\Source/os_tmr.c ****        *p_err = OS_ERR_TMR_ISR;
 577              		.loc 1 438 0
 578 0012 3B68     		ldr	r3, [r7]
 579 0014 47F24332 		movw	r2, #29507
 580 0018 1A80     		strh	r2, [r3]	@ movhi
 439:..\..\..\..\..\..\uCOS-III\Source/os_tmr.c ****         return (DEF_FALSE);
 581              		.loc 1 439 0
 582 001a 0023     		movs	r3, #0
 583 001c 58E0     		b	.L57
 584              	.L48:
ARM GAS  C:\Users\alex\AppData\Local\Temp\ccByxCIb.s 			page 19


 440:..\..\..\..\..\..\uCOS-III\Source/os_tmr.c ****     }
 441:..\..\..\..\..\..\uCOS-III\Source/os_tmr.c **** #endif
 442:..\..\..\..\..\..\uCOS-III\Source/os_tmr.c **** 
 443:..\..\..\..\..\..\uCOS-III\Source/os_tmr.c **** #if OS_CFG_ARG_CHK_EN > 0u
 444:..\..\..\..\..\..\uCOS-III\Source/os_tmr.c ****     if (p_tmr == (OS_TMR *)0) {
 585              		.loc 1 444 0
 586 001e 7B68     		ldr	r3, [r7, #4]
 587 0020 002B     		cmp	r3, #0
 588 0022 05D1     		bne	.L50
 445:..\..\..\..\..\..\uCOS-III\Source/os_tmr.c ****        *p_err = OS_ERR_TMR_INVALID;
 589              		.loc 1 445 0
 590 0024 3B68     		ldr	r3, [r7]
 591 0026 47F24232 		movw	r2, #29506
 592 002a 1A80     		strh	r2, [r3]	@ movhi
 446:..\..\..\..\..\..\uCOS-III\Source/os_tmr.c ****         return (DEF_FALSE);
 593              		.loc 1 446 0
 594 002c 0023     		movs	r3, #0
 595 002e 4FE0     		b	.L57
 596              	.L50:
 447:..\..\..\..\..\..\uCOS-III\Source/os_tmr.c ****     }
 448:..\..\..\..\..\..\uCOS-III\Source/os_tmr.c **** #endif
 449:..\..\..\..\..\..\uCOS-III\Source/os_tmr.c **** 
 450:..\..\..\..\..\..\uCOS-III\Source/os_tmr.c **** #if OS_CFG_OBJ_TYPE_CHK_EN > 0u
 451:..\..\..\..\..\..\uCOS-III\Source/os_tmr.c ****     if (p_tmr->Type != OS_OBJ_TYPE_TMR) {                   /* Make sure timer was created         
 452:..\..\..\..\..\..\uCOS-III\Source/os_tmr.c ****        *p_err = OS_ERR_OBJ_TYPE;
 453:..\..\..\..\..\..\uCOS-III\Source/os_tmr.c ****         return (DEF_FALSE);
 454:..\..\..\..\..\..\uCOS-III\Source/os_tmr.c ****     }
 455:..\..\..\..\..\..\uCOS-III\Source/os_tmr.c **** #endif
 456:..\..\..\..\..\..\uCOS-III\Source/os_tmr.c **** 
 457:..\..\..\..\..\..\uCOS-III\Source/os_tmr.c ****     OSSchedLock(&err);
 597              		.loc 1 457 0
 598 0030 07F10C03 		add	r3, r7, #12
 599 0034 1846     		mov	r0, r3
 600 0036 FFF7FEFF 		bl	OSSchedLock
 458:..\..\..\..\..\..\uCOS-III\Source/os_tmr.c ****     switch (p_tmr->State) {
 601              		.loc 1 458 0
 602 003a 7B68     		ldr	r3, [r7, #4]
 603 003c 93F82A30 		ldrb	r3, [r3, #42]	@ zero_extendqisi2
 604 0040 032B     		cmp	r3, #3
 605 0042 38D8     		bhi	.L51
 606 0044 01A2     		adr	r2, .L53
 607 0046 52F823F0 		ldr	pc, [r2, r3, lsl #2]
 608 004a 00BF     		.p2align 2
 609              	.L53:
 610 004c 9F000000 		.word	.L52+1
 611 0050 81000000 		.word	.L54+1
 612 0054 5D000000 		.word	.L55+1
 613 0058 81000000 		.word	.L54+1
 614              		.p2align 1
 615              	.L55:
 459:..\..\..\..\..\..\uCOS-III\Source/os_tmr.c ****         case OS_TMR_STATE_RUNNING:                          /* Restart the timer                   
 460:..\..\..\..\..\..\uCOS-III\Source/os_tmr.c ****              OS_TmrUnlink(p_tmr);                           /* ... Stop the timer                  
 616              		.loc 1 460 0
 617 005c 7868     		ldr	r0, [r7, #4]
 618 005e FFF7FEFF 		bl	OS_TmrUnlink
 461:..\..\..\..\..\..\uCOS-III\Source/os_tmr.c ****              OS_TmrLink(p_tmr, OS_OPT_LINK_DLY);            /* ... Link timer to timer wheel (see N
 619              		.loc 1 461 0
ARM GAS  C:\Users\alex\AppData\Local\Temp\ccByxCIb.s 			page 20


 620 0062 0021     		movs	r1, #0
 621 0064 7868     		ldr	r0, [r7, #4]
 622 0066 FFF7FEFF 		bl	OS_TmrLink
 462:..\..\..\..\..\..\uCOS-III\Source/os_tmr.c ****              OSSchedUnlock(&err);
 623              		.loc 1 462 0
 624 006a 07F10C03 		add	r3, r7, #12
 625 006e 1846     		mov	r0, r3
 626 0070 FFF7FEFF 		bl	OSSchedUnlock
 463:..\..\..\..\..\..\uCOS-III\Source/os_tmr.c ****             *p_err   = OS_ERR_NONE;
 627              		.loc 1 463 0
 628 0074 3B68     		ldr	r3, [r7]
 629 0076 0022     		movs	r2, #0
 630 0078 1A80     		strh	r2, [r3]	@ movhi
 464:..\..\..\..\..\..\uCOS-III\Source/os_tmr.c ****              success = DEF_TRUE;
 631              		.loc 1 464 0
 632 007a 0123     		movs	r3, #1
 633 007c FB73     		strb	r3, [r7, #15]
 465:..\..\..\..\..\..\uCOS-III\Source/os_tmr.c ****              break;
 634              		.loc 1 465 0
 635 007e 26E0     		b	.L56
 636              	.L54:
 466:..\..\..\..\..\..\uCOS-III\Source/os_tmr.c **** 
 467:..\..\..\..\..\..\uCOS-III\Source/os_tmr.c ****         case OS_TMR_STATE_STOPPED:                          /* Start the timer                     
 468:..\..\..\..\..\..\uCOS-III\Source/os_tmr.c ****         case OS_TMR_STATE_COMPLETED:
 469:..\..\..\..\..\..\uCOS-III\Source/os_tmr.c ****              OS_TmrLink(p_tmr, OS_OPT_LINK_DLY);            /* ... Link timer to timer wheel (see N
 637              		.loc 1 469 0
 638 0080 0021     		movs	r1, #0
 639 0082 7868     		ldr	r0, [r7, #4]
 640 0084 FFF7FEFF 		bl	OS_TmrLink
 470:..\..\..\..\..\..\uCOS-III\Source/os_tmr.c ****              OSSchedUnlock(&err);
 641              		.loc 1 470 0
 642 0088 07F10C03 		add	r3, r7, #12
 643 008c 1846     		mov	r0, r3
 644 008e FFF7FEFF 		bl	OSSchedUnlock
 471:..\..\..\..\..\..\uCOS-III\Source/os_tmr.c ****             *p_err   = OS_ERR_NONE;
 645              		.loc 1 471 0
 646 0092 3B68     		ldr	r3, [r7]
 647 0094 0022     		movs	r2, #0
 648 0096 1A80     		strh	r2, [r3]	@ movhi
 472:..\..\..\..\..\..\uCOS-III\Source/os_tmr.c ****              success = DEF_TRUE;
 649              		.loc 1 472 0
 650 0098 0123     		movs	r3, #1
 651 009a FB73     		strb	r3, [r7, #15]
 473:..\..\..\..\..\..\uCOS-III\Source/os_tmr.c ****              break;
 652              		.loc 1 473 0
 653 009c 17E0     		b	.L56
 654              	.L52:
 474:..\..\..\..\..\..\uCOS-III\Source/os_tmr.c **** 
 475:..\..\..\..\..\..\uCOS-III\Source/os_tmr.c ****         case OS_TMR_STATE_UNUSED:                           /* Timer not created                   
 476:..\..\..\..\..\..\uCOS-III\Source/os_tmr.c ****              OSSchedUnlock(&err);
 655              		.loc 1 476 0
 656 009e 07F10C03 		add	r3, r7, #12
 657 00a2 1846     		mov	r0, r3
 658 00a4 FFF7FEFF 		bl	OSSchedUnlock
 477:..\..\..\..\..\..\uCOS-III\Source/os_tmr.c ****             *p_err   = OS_ERR_TMR_INACTIVE;
 659              		.loc 1 477 0
 660 00a8 3B68     		ldr	r3, [r7]
ARM GAS  C:\Users\alex\AppData\Local\Temp\ccByxCIb.s 			page 21


 661 00aa 47F23D32 		movw	r2, #29501
 662 00ae 1A80     		strh	r2, [r3]	@ movhi
 478:..\..\..\..\..\..\uCOS-III\Source/os_tmr.c ****              success = DEF_FALSE;
 663              		.loc 1 478 0
 664 00b0 0023     		movs	r3, #0
 665 00b2 FB73     		strb	r3, [r7, #15]
 479:..\..\..\..\..\..\uCOS-III\Source/os_tmr.c ****              break;
 666              		.loc 1 479 0
 667 00b4 0BE0     		b	.L56
 668              	.L51:
 480:..\..\..\..\..\..\uCOS-III\Source/os_tmr.c **** 
 481:..\..\..\..\..\..\uCOS-III\Source/os_tmr.c ****         default:
 482:..\..\..\..\..\..\uCOS-III\Source/os_tmr.c ****              OSSchedUnlock(&err);
 669              		.loc 1 482 0
 670 00b6 07F10C03 		add	r3, r7, #12
 671 00ba 1846     		mov	r0, r3
 672 00bc FFF7FEFF 		bl	OSSchedUnlock
 483:..\..\..\..\..\..\uCOS-III\Source/os_tmr.c ****             *p_err = OS_ERR_TMR_INVALID_STATE;
 673              		.loc 1 483 0
 674 00c0 3B68     		ldr	r3, [r7]
 675 00c2 47F24132 		movw	r2, #29505
 676 00c6 1A80     		strh	r2, [r3]	@ movhi
 484:..\..\..\..\..\..\uCOS-III\Source/os_tmr.c ****              success = DEF_FALSE;
 677              		.loc 1 484 0
 678 00c8 0023     		movs	r3, #0
 679 00ca FB73     		strb	r3, [r7, #15]
 485:..\..\..\..\..\..\uCOS-III\Source/os_tmr.c ****              break;
 680              		.loc 1 485 0
 681 00cc 00BF     		nop
 682              	.L56:
 486:..\..\..\..\..\..\uCOS-III\Source/os_tmr.c ****     }
 487:..\..\..\..\..\..\uCOS-III\Source/os_tmr.c ****     return (success);
 683              		.loc 1 487 0
 684 00ce FB7B     		ldrb	r3, [r7, #15]	@ zero_extendqisi2
 685              	.L57:
 488:..\..\..\..\..\..\uCOS-III\Source/os_tmr.c **** }
 686              		.loc 1 488 0 discriminator 1
 687 00d0 1846     		mov	r0, r3
 688 00d2 1037     		adds	r7, r7, #16
 689              		.cfi_def_cfa_offset 8
 690 00d4 BD46     		mov	sp, r7
 691              		.cfi_def_cfa_register 13
 692              		@ sp needed
 693 00d6 80BD     		pop	{r7, pc}
 694              	.L59:
 695              		.align	2
 696              	.L58:
 697 00d8 00000000 		.word	OSIntNestingCtr
 698              		.cfi_endproc
 699              	.LFE3:
 700              		.size	OSTmrStart, .-OSTmrStart
 701              		.section	.text.OSTmrStateGet,"ax",%progbits
 702              		.align	2
 703              		.global	OSTmrStateGet
 704              		.thumb
 705              		.thumb_func
 706              		.type	OSTmrStateGet, %function
ARM GAS  C:\Users\alex\AppData\Local\Temp\ccByxCIb.s 			page 22


 707              	OSTmrStateGet:
 708              	.LFB4:
 489:..\..\..\..\..\..\uCOS-III\Source/os_tmr.c **** 
 490:..\..\..\..\..\..\uCOS-III\Source/os_tmr.c **** /*$PAGE*/
 491:..\..\..\..\..\..\uCOS-III\Source/os_tmr.c **** /*
 492:..\..\..\..\..\..\uCOS-III\Source/os_tmr.c **** ***************************************************************************************************
 493:..\..\..\..\..\..\uCOS-III\Source/os_tmr.c **** *                                           FIND OUT WHAT STATE A TIMER IS IN
 494:..\..\..\..\..\..\uCOS-III\Source/os_tmr.c **** *
 495:..\..\..\..\..\..\uCOS-III\Source/os_tmr.c **** * Description: This function is called to determine what state the timer is in:
 496:..\..\..\..\..\..\uCOS-III\Source/os_tmr.c **** *
 497:..\..\..\..\..\..\uCOS-III\Source/os_tmr.c **** *                  OS_TMR_STATE_UNUSED     the timer has not been created
 498:..\..\..\..\..\..\uCOS-III\Source/os_tmr.c **** *                  OS_TMR_STATE_STOPPED    the timer has been created but has not been started or h
 499:..\..\..\..\..\..\uCOS-III\Source/os_tmr.c **** *                  OS_TMR_COMPLETED        the timer is in ONE-SHOT mode and has completed it's tim
 500:..\..\..\..\..\..\uCOS-III\Source/os_tmr.c **** *                  OS_TMR_RUNNING          the timer is currently running
 501:..\..\..\..\..\..\uCOS-III\Source/os_tmr.c **** *
 502:..\..\..\..\..\..\uCOS-III\Source/os_tmr.c **** * Arguments  : p_tmr    Is a pointer to the desired timer
 503:..\..\..\..\..\..\uCOS-III\Source/os_tmr.c **** *
 504:..\..\..\..\..\..\uCOS-III\Source/os_tmr.c **** *              p_err    Is a pointer to an error code.  '*p_err' will contain one of the following:
 505:..\..\..\..\..\..\uCOS-III\Source/os_tmr.c **** *
 506:..\..\..\..\..\..\uCOS-III\Source/os_tmr.c **** *                           OS_ERR_NONE
 507:..\..\..\..\..\..\uCOS-III\Source/os_tmr.c **** *                           OS_ERR_OBJ_TYPE            if 'p_tmr' is not pointing to a timer
 508:..\..\..\..\..\..\uCOS-III\Source/os_tmr.c **** *                           OS_ERR_TMR_INVALID        'p_tmr' is a NULL pointer
 509:..\..\..\..\..\..\uCOS-III\Source/os_tmr.c **** *                           OS_ERR_TMR_INVALID_STATE  if the timer is not in a valid state
 510:..\..\..\..\..\..\uCOS-III\Source/os_tmr.c **** *                           OS_ERR_TMR_ISR            if the call was made from an ISR
 511:..\..\..\..\..\..\uCOS-III\Source/os_tmr.c **** *
 512:..\..\..\..\..\..\uCOS-III\Source/os_tmr.c **** * Returns    : The current state of the timer (see description).
 513:..\..\..\..\..\..\uCOS-III\Source/os_tmr.c **** ***************************************************************************************************
 514:..\..\..\..\..\..\uCOS-III\Source/os_tmr.c **** */
 515:..\..\..\..\..\..\uCOS-III\Source/os_tmr.c **** 
 516:..\..\..\..\..\..\uCOS-III\Source/os_tmr.c **** OS_STATE  OSTmrStateGet (OS_TMR  *p_tmr,
 517:..\..\..\..\..\..\uCOS-III\Source/os_tmr.c ****                          OS_ERR  *p_err)
 518:..\..\..\..\..\..\uCOS-III\Source/os_tmr.c **** {
 709              		.loc 1 518 0
 710              		.cfi_startproc
 711              		@ args = 0, pretend = 0, frame = 16
 712              		@ frame_needed = 1, uses_anonymous_args = 0
 713 0000 80B5     		push	{r7, lr}
 714              		.cfi_def_cfa_offset 8
 715              		.cfi_offset 7, -8
 716              		.cfi_offset 14, -4
 717 0002 84B0     		sub	sp, sp, #16
 718              		.cfi_def_cfa_offset 24
 719 0004 00AF     		add	r7, sp, #0
 720              		.cfi_def_cfa_register 7
 721 0006 7860     		str	r0, [r7, #4]
 722 0008 3960     		str	r1, [r7]
 519:..\..\..\..\..\..\uCOS-III\Source/os_tmr.c ****     OS_STATE  state;
 520:..\..\..\..\..\..\uCOS-III\Source/os_tmr.c ****     CPU_SR_ALLOC();
 723              		.loc 1 520 0
 724 000a 0023     		movs	r3, #0
 725 000c FB60     		str	r3, [r7, #12]
 521:..\..\..\..\..\..\uCOS-III\Source/os_tmr.c **** 
 522:..\..\..\..\..\..\uCOS-III\Source/os_tmr.c **** 
 523:..\..\..\..\..\..\uCOS-III\Source/os_tmr.c **** 
 524:..\..\..\..\..\..\uCOS-III\Source/os_tmr.c **** #ifdef OS_SAFETY_CRITICAL
 525:..\..\..\..\..\..\uCOS-III\Source/os_tmr.c ****     if (p_err == (OS_ERR *)0) {
 526:..\..\..\..\..\..\uCOS-III\Source/os_tmr.c ****         OS_SAFETY_CRITICAL_EXCEPTION();
ARM GAS  C:\Users\alex\AppData\Local\Temp\ccByxCIb.s 			page 23


 527:..\..\..\..\..\..\uCOS-III\Source/os_tmr.c ****         return (OS_TMR_STATE_UNUSED);
 528:..\..\..\..\..\..\uCOS-III\Source/os_tmr.c ****     }
 529:..\..\..\..\..\..\uCOS-III\Source/os_tmr.c **** #endif
 530:..\..\..\..\..\..\uCOS-III\Source/os_tmr.c **** 
 531:..\..\..\..\..\..\uCOS-III\Source/os_tmr.c **** #if OS_CFG_CALLED_FROM_ISR_CHK_EN > 0u
 532:..\..\..\..\..\..\uCOS-III\Source/os_tmr.c ****     if (OSIntNestingCtr > (OS_NESTING_CTR)0) {              /* See if trying to call from an ISR   
 726              		.loc 1 532 0
 727 000e 174B     		ldr	r3, .L67
 728 0010 1B78     		ldrb	r3, [r3]	@ zero_extendqisi2
 729 0012 002B     		cmp	r3, #0
 730 0014 05D0     		beq	.L61
 533:..\..\..\..\..\..\uCOS-III\Source/os_tmr.c ****        *p_err = OS_ERR_TMR_ISR;
 731              		.loc 1 533 0
 732 0016 3B68     		ldr	r3, [r7]
 733 0018 47F24332 		movw	r2, #29507
 734 001c 1A80     		strh	r2, [r3]	@ movhi
 534:..\..\..\..\..\..\uCOS-III\Source/os_tmr.c ****         return (OS_TMR_STATE_UNUSED);
 735              		.loc 1 534 0
 736 001e 0023     		movs	r3, #0
 737 0020 20E0     		b	.L62
 738              	.L61:
 535:..\..\..\..\..\..\uCOS-III\Source/os_tmr.c ****     }
 536:..\..\..\..\..\..\uCOS-III\Source/os_tmr.c **** #endif
 537:..\..\..\..\..\..\uCOS-III\Source/os_tmr.c **** 
 538:..\..\..\..\..\..\uCOS-III\Source/os_tmr.c **** #if OS_CFG_ARG_CHK_EN > 0u
 539:..\..\..\..\..\..\uCOS-III\Source/os_tmr.c ****     if (p_tmr == (OS_TMR *)0) {
 739              		.loc 1 539 0
 740 0022 7B68     		ldr	r3, [r7, #4]
 741 0024 002B     		cmp	r3, #0
 742 0026 05D1     		bne	.L63
 540:..\..\..\..\..\..\uCOS-III\Source/os_tmr.c ****        *p_err = OS_ERR_TMR_INVALID;
 743              		.loc 1 540 0
 744 0028 3B68     		ldr	r3, [r7]
 745 002a 47F24232 		movw	r2, #29506
 746 002e 1A80     		strh	r2, [r3]	@ movhi
 541:..\..\..\..\..\..\uCOS-III\Source/os_tmr.c ****         return (OS_TMR_STATE_UNUSED);
 747              		.loc 1 541 0
 748 0030 0023     		movs	r3, #0
 749 0032 17E0     		b	.L62
 750              	.L63:
 542:..\..\..\..\..\..\uCOS-III\Source/os_tmr.c ****     }
 543:..\..\..\..\..\..\uCOS-III\Source/os_tmr.c **** #endif
 544:..\..\..\..\..\..\uCOS-III\Source/os_tmr.c **** 
 545:..\..\..\..\..\..\uCOS-III\Source/os_tmr.c **** #if OS_CFG_OBJ_TYPE_CHK_EN > 0u
 546:..\..\..\..\..\..\uCOS-III\Source/os_tmr.c ****     if (p_tmr->Type != OS_OBJ_TYPE_TMR) {                   /* Make sure timer was created         
 547:..\..\..\..\..\..\uCOS-III\Source/os_tmr.c ****        *p_err = OS_ERR_OBJ_TYPE;
 548:..\..\..\..\..\..\uCOS-III\Source/os_tmr.c ****         return (OS_TMR_STATE_UNUSED);
 549:..\..\..\..\..\..\uCOS-III\Source/os_tmr.c ****     }
 550:..\..\..\..\..\..\uCOS-III\Source/os_tmr.c **** #endif
 551:..\..\..\..\..\..\uCOS-III\Source/os_tmr.c **** 
 552:..\..\..\..\..\..\uCOS-III\Source/os_tmr.c ****     CPU_CRITICAL_ENTER();
 751              		.loc 1 552 0
 752 0034 FFF7FEFF 		bl	CPU_SR_Save
 753 0038 F860     		str	r0, [r7, #12]
 553:..\..\..\..\..\..\uCOS-III\Source/os_tmr.c ****     state = p_tmr->State;
 754              		.loc 1 553 0
 755 003a 7B68     		ldr	r3, [r7, #4]
ARM GAS  C:\Users\alex\AppData\Local\Temp\ccByxCIb.s 			page 24


 756 003c 93F82A30 		ldrb	r3, [r3, #42]
 757 0040 FB72     		strb	r3, [r7, #11]
 554:..\..\..\..\..\..\uCOS-III\Source/os_tmr.c ****     switch (state) {
 758              		.loc 1 554 0
 759 0042 FB7A     		ldrb	r3, [r7, #11]	@ zero_extendqisi2
 760 0044 0033     		adds	r3, r3, #0
 761 0046 032B     		cmp	r3, #3
 762 0048 03D8     		bhi	.L64
 555:..\..\..\..\..\..\uCOS-III\Source/os_tmr.c ****         case OS_TMR_STATE_UNUSED:
 556:..\..\..\..\..\..\uCOS-III\Source/os_tmr.c ****         case OS_TMR_STATE_STOPPED:
 557:..\..\..\..\..\..\uCOS-III\Source/os_tmr.c ****         case OS_TMR_STATE_COMPLETED:
 558:..\..\..\..\..\..\uCOS-III\Source/os_tmr.c ****         case OS_TMR_STATE_RUNNING:
 559:..\..\..\..\..\..\uCOS-III\Source/os_tmr.c ****             *p_err = OS_ERR_NONE;
 763              		.loc 1 559 0
 764 004a 3B68     		ldr	r3, [r7]
 765 004c 0022     		movs	r2, #0
 766 004e 1A80     		strh	r2, [r3]	@ movhi
 560:..\..\..\..\..\..\uCOS-III\Source/os_tmr.c ****              break;
 767              		.loc 1 560 0
 768 0050 04E0     		b	.L66
 769              	.L64:
 561:..\..\..\..\..\..\uCOS-III\Source/os_tmr.c **** 
 562:..\..\..\..\..\..\uCOS-III\Source/os_tmr.c ****         default:
 563:..\..\..\..\..\..\uCOS-III\Source/os_tmr.c ****             *p_err = OS_ERR_TMR_INVALID_STATE;
 770              		.loc 1 563 0
 771 0052 3B68     		ldr	r3, [r7]
 772 0054 47F24132 		movw	r2, #29505
 773 0058 1A80     		strh	r2, [r3]	@ movhi
 564:..\..\..\..\..\..\uCOS-III\Source/os_tmr.c ****              break;
 774              		.loc 1 564 0
 775 005a 00BF     		nop
 776              	.L66:
 565:..\..\..\..\..\..\uCOS-III\Source/os_tmr.c ****     }
 566:..\..\..\..\..\..\uCOS-III\Source/os_tmr.c ****     CPU_CRITICAL_EXIT();
 777              		.loc 1 566 0
 778 005c F868     		ldr	r0, [r7, #12]
 779 005e FFF7FEFF 		bl	CPU_SR_Restore
 567:..\..\..\..\..\..\uCOS-III\Source/os_tmr.c ****     return (state);
 780              		.loc 1 567 0
 781 0062 FB7A     		ldrb	r3, [r7, #11]	@ zero_extendqisi2
 782              	.L62:
 568:..\..\..\..\..\..\uCOS-III\Source/os_tmr.c **** }
 783              		.loc 1 568 0
 784 0064 1846     		mov	r0, r3
 785 0066 1037     		adds	r7, r7, #16
 786              		.cfi_def_cfa_offset 8
 787 0068 BD46     		mov	sp, r7
 788              		.cfi_def_cfa_register 13
 789              		@ sp needed
 790 006a 80BD     		pop	{r7, pc}
 791              	.L68:
 792              		.align	2
 793              	.L67:
 794 006c 00000000 		.word	OSIntNestingCtr
 795              		.cfi_endproc
 796              	.LFE4:
 797              		.size	OSTmrStateGet, .-OSTmrStateGet
ARM GAS  C:\Users\alex\AppData\Local\Temp\ccByxCIb.s 			page 25


 798              		.section	.text.OSTmrStop,"ax",%progbits
 799              		.align	2
 800              		.global	OSTmrStop
 801              		.thumb
 802              		.thumb_func
 803              		.type	OSTmrStop, %function
 804              	OSTmrStop:
 805              	.LFB5:
 569:..\..\..\..\..\..\uCOS-III\Source/os_tmr.c **** 
 570:..\..\..\..\..\..\uCOS-III\Source/os_tmr.c **** /*$PAGE*/
 571:..\..\..\..\..\..\uCOS-III\Source/os_tmr.c **** /*
 572:..\..\..\..\..\..\uCOS-III\Source/os_tmr.c **** ***************************************************************************************************
 573:..\..\..\..\..\..\uCOS-III\Source/os_tmr.c **** *                                                    STOP A TIMER
 574:..\..\..\..\..\..\uCOS-III\Source/os_tmr.c **** *
 575:..\..\..\..\..\..\uCOS-III\Source/os_tmr.c **** * Description: This function is called by your application code to stop a timer.
 576:..\..\..\..\..\..\uCOS-III\Source/os_tmr.c **** *
 577:..\..\..\..\..\..\uCOS-III\Source/os_tmr.c **** * Arguments  : p_tmr          Is a pointer to the timer to stop.
 578:..\..\..\..\..\..\uCOS-III\Source/os_tmr.c **** *
 579:..\..\..\..\..\..\uCOS-III\Source/os_tmr.c **** *              opt           Allows you to specify an option to this functions which can be:
 580:..\..\..\..\..\..\uCOS-III\Source/os_tmr.c **** *
 581:..\..\..\..\..\..\uCOS-III\Source/os_tmr.c **** *                               OS_OPT_TMR_NONE            Do nothing special but stop the timer
 582:..\..\..\..\..\..\uCOS-III\Source/os_tmr.c **** *                               OS_OPT_TMR_CALLBACK        Execute the callback function, pass it t
 583:..\..\..\..\..\..\uCOS-III\Source/os_tmr.c **** *                                                          specified when the timer was created.
 584:..\..\..\..\..\..\uCOS-III\Source/os_tmr.c **** *                               OS_OPT_TMR_CALLBACK_ARG    Execute the callback function, pass it t
 585:..\..\..\..\..\..\uCOS-III\Source/os_tmr.c **** *                                                          specified in THIS function call
 586:..\..\..\..\..\..\uCOS-III\Source/os_tmr.c **** *
 587:..\..\..\..\..\..\uCOS-III\Source/os_tmr.c **** *              callback_arg  Is a pointer to a 'new' callback argument that can be passed to the ca
 588:..\..\..\..\..\..\uCOS-III\Source/os_tmr.c **** *                               instead of the timer's callback argument.  In other words, use 'cal
 589:..\..\..\..\..\..\uCOS-III\Source/os_tmr.c **** *                               THIS function INSTEAD of p_tmr->OSTmrCallbackArg
 590:..\..\..\..\..\..\uCOS-III\Source/os_tmr.c **** *
 591:..\..\..\..\..\..\uCOS-III\Source/os_tmr.c **** *              p_err          Is a pointer to an error code.  '*p_err' will contain one of the foll
 592:..\..\..\..\..\..\uCOS-III\Source/os_tmr.c **** *                               OS_ERR_NONE
 593:..\..\..\..\..\..\uCOS-III\Source/os_tmr.c **** *                               OS_ERR_OBJ_TYPE            if 'p_tmr' is not pointing to a timer
 594:..\..\..\..\..\..\uCOS-III\Source/os_tmr.c **** *                               OS_ERR_OPT_INVALID         if you specified an invalid option for '
 595:..\..\..\..\..\..\uCOS-III\Source/os_tmr.c **** *                               OS_ERR_TMR_INACTIVE        if the timer was not created
 596:..\..\..\..\..\..\uCOS-III\Source/os_tmr.c **** *                               OS_ERR_TMR_INVALID         'p_tmr' is a NULL pointer
 597:..\..\..\..\..\..\uCOS-III\Source/os_tmr.c **** *                               OS_ERR_TMR_INVALID_STATE   the timer is in an invalid state
 598:..\..\..\..\..\..\uCOS-III\Source/os_tmr.c **** *                               OS_ERR_TMR_ISR             if the function was called from an ISR
 599:..\..\..\..\..\..\uCOS-III\Source/os_tmr.c **** *                               OS_ERR_TMR_NO_CALLBACK     if the timer does not have a callback fu
 600:..\..\..\..\..\..\uCOS-III\Source/os_tmr.c **** *                               OS_ERR_TMR_STOPPED         if the timer was already stopped
 601:..\..\..\..\..\..\uCOS-III\Source/os_tmr.c **** *
 602:..\..\..\..\..\..\uCOS-III\Source/os_tmr.c **** * Returns    : DEF_TRUE       If we stopped the timer (if the timer is already stopped, we also ret
 603:..\..\..\..\..\..\uCOS-III\Source/os_tmr.c **** *              DEF_FALSE      If not
 604:..\..\..\..\..\..\uCOS-III\Source/os_tmr.c **** ***************************************************************************************************
 605:..\..\..\..\..\..\uCOS-III\Source/os_tmr.c **** */
 606:..\..\..\..\..\..\uCOS-III\Source/os_tmr.c **** 
 607:..\..\..\..\..\..\uCOS-III\Source/os_tmr.c **** CPU_BOOLEAN  OSTmrStop (OS_TMR  *p_tmr,
 608:..\..\..\..\..\..\uCOS-III\Source/os_tmr.c ****                         OS_OPT   opt,
 609:..\..\..\..\..\..\uCOS-III\Source/os_tmr.c ****                         void    *p_callback_arg,
 610:..\..\..\..\..\..\uCOS-III\Source/os_tmr.c ****                         OS_ERR  *p_err)
 611:..\..\..\..\..\..\uCOS-III\Source/os_tmr.c **** {
 806              		.loc 1 611 0
 807              		.cfi_startproc
 808              		@ args = 0, pretend = 0, frame = 32
 809              		@ frame_needed = 1, uses_anonymous_args = 0
 810 0000 80B5     		push	{r7, lr}
 811              		.cfi_def_cfa_offset 8
ARM GAS  C:\Users\alex\AppData\Local\Temp\ccByxCIb.s 			page 26


 812              		.cfi_offset 7, -8
 813              		.cfi_offset 14, -4
 814 0002 88B0     		sub	sp, sp, #32
 815              		.cfi_def_cfa_offset 40
 816 0004 00AF     		add	r7, sp, #0
 817              		.cfi_def_cfa_register 7
 818 0006 F860     		str	r0, [r7, #12]
 819 0008 7A60     		str	r2, [r7, #4]
 820 000a 3B60     		str	r3, [r7]
 821 000c 0B46     		mov	r3, r1	@ movhi
 822 000e 7B81     		strh	r3, [r7, #10]	@ movhi
 612:..\..\..\..\..\..\uCOS-III\Source/os_tmr.c ****     OS_TMR_CALLBACK_PTR  p_fnct;
 613:..\..\..\..\..\..\uCOS-III\Source/os_tmr.c ****     OS_ERR               err;
 614:..\..\..\..\..\..\uCOS-III\Source/os_tmr.c ****     CPU_BOOLEAN          success;
 615:..\..\..\..\..\..\uCOS-III\Source/os_tmr.c **** 
 616:..\..\..\..\..\..\uCOS-III\Source/os_tmr.c **** 
 617:..\..\..\..\..\..\uCOS-III\Source/os_tmr.c **** 
 618:..\..\..\..\..\..\uCOS-III\Source/os_tmr.c **** #ifdef OS_SAFETY_CRITICAL
 619:..\..\..\..\..\..\uCOS-III\Source/os_tmr.c ****     if (p_err == (OS_ERR *)0) {
 620:..\..\..\..\..\..\uCOS-III\Source/os_tmr.c ****         OS_SAFETY_CRITICAL_EXCEPTION();
 621:..\..\..\..\..\..\uCOS-III\Source/os_tmr.c ****         return (DEF_FALSE);
 622:..\..\..\..\..\..\uCOS-III\Source/os_tmr.c ****     }
 623:..\..\..\..\..\..\uCOS-III\Source/os_tmr.c **** #endif
 624:..\..\..\..\..\..\uCOS-III\Source/os_tmr.c **** 
 625:..\..\..\..\..\..\uCOS-III\Source/os_tmr.c **** #if OS_CFG_CALLED_FROM_ISR_CHK_EN > 0u
 626:..\..\..\..\..\..\uCOS-III\Source/os_tmr.c ****     if (OSIntNestingCtr > (OS_NESTING_CTR)0) {                        /* See if trying to call from
 823              		.loc 1 626 0
 824 0010 4A4B     		ldr	r3, .L91
 825 0012 1B78     		ldrb	r3, [r3]	@ zero_extendqisi2
 826 0014 002B     		cmp	r3, #0
 827 0016 05D0     		beq	.L70
 627:..\..\..\..\..\..\uCOS-III\Source/os_tmr.c ****        *p_err = OS_ERR_TMR_ISR;
 828              		.loc 1 627 0
 829 0018 3B68     		ldr	r3, [r7]
 830 001a 47F24332 		movw	r2, #29507
 831 001e 1A80     		strh	r2, [r3]	@ movhi
 628:..\..\..\..\..\..\uCOS-III\Source/os_tmr.c ****         return (DEF_FALSE);
 832              		.loc 1 628 0
 833 0020 0023     		movs	r3, #0
 834 0022 86E0     		b	.L88
 835              	.L70:
 629:..\..\..\..\..\..\uCOS-III\Source/os_tmr.c ****     }
 630:..\..\..\..\..\..\uCOS-III\Source/os_tmr.c **** #endif
 631:..\..\..\..\..\..\uCOS-III\Source/os_tmr.c **** 
 632:..\..\..\..\..\..\uCOS-III\Source/os_tmr.c **** #if OS_CFG_ARG_CHK_EN > 0u
 633:..\..\..\..\..\..\uCOS-III\Source/os_tmr.c ****     if (p_tmr == (OS_TMR *)0) {
 836              		.loc 1 633 0
 837 0024 FB68     		ldr	r3, [r7, #12]
 838 0026 002B     		cmp	r3, #0
 839 0028 05D1     		bne	.L72
 634:..\..\..\..\..\..\uCOS-III\Source/os_tmr.c ****        *p_err = OS_ERR_TMR_INVALID;
 840              		.loc 1 634 0
 841 002a 3B68     		ldr	r3, [r7]
 842 002c 47F24232 		movw	r2, #29506
 843 0030 1A80     		strh	r2, [r3]	@ movhi
 635:..\..\..\..\..\..\uCOS-III\Source/os_tmr.c ****         return (DEF_FALSE);
 844              		.loc 1 635 0
ARM GAS  C:\Users\alex\AppData\Local\Temp\ccByxCIb.s 			page 27


 845 0032 0023     		movs	r3, #0
 846 0034 7DE0     		b	.L88
 847              	.L72:
 636:..\..\..\..\..\..\uCOS-III\Source/os_tmr.c ****     }
 637:..\..\..\..\..\..\uCOS-III\Source/os_tmr.c **** #endif
 638:..\..\..\..\..\..\uCOS-III\Source/os_tmr.c **** 
 639:..\..\..\..\..\..\uCOS-III\Source/os_tmr.c **** #if OS_CFG_OBJ_TYPE_CHK_EN > 0u
 640:..\..\..\..\..\..\uCOS-III\Source/os_tmr.c ****     if (p_tmr->Type != OS_OBJ_TYPE_TMR) {                             /* Make sure timer was create
 641:..\..\..\..\..\..\uCOS-III\Source/os_tmr.c ****        *p_err = OS_ERR_OBJ_TYPE;
 642:..\..\..\..\..\..\uCOS-III\Source/os_tmr.c ****         return (DEF_FALSE);
 643:..\..\..\..\..\..\uCOS-III\Source/os_tmr.c ****     }
 644:..\..\..\..\..\..\uCOS-III\Source/os_tmr.c **** #endif
 645:..\..\..\..\..\..\uCOS-III\Source/os_tmr.c **** 
 646:..\..\..\..\..\..\uCOS-III\Source/os_tmr.c ****     OSSchedLock(&err);
 848              		.loc 1 646 0
 849 0036 07F11603 		add	r3, r7, #22
 850 003a 1846     		mov	r0, r3
 851 003c FFF7FEFF 		bl	OSSchedLock
 647:..\..\..\..\..\..\uCOS-III\Source/os_tmr.c ****     switch (p_tmr->State) {
 852              		.loc 1 647 0
 853 0040 FB68     		ldr	r3, [r7, #12]
 854 0042 93F82A30 		ldrb	r3, [r3, #42]	@ zero_extendqisi2
 855 0046 032B     		cmp	r3, #3
 856 0048 66D8     		bhi	.L73
 857 004a 01A2     		adr	r2, .L75
 858 004c 52F823F0 		ldr	pc, [r2, r3, lsl #2]
 859              		.p2align 2
 860              	.L75:
 861 0050 01010000 		.word	.L74+1
 862 0054 E9000000 		.word	.L76+1
 863 0058 61000000 		.word	.L77+1
 864 005c E9000000 		.word	.L76+1
 865              		.p2align 1
 866              	.L77:
 648:..\..\..\..\..\..\uCOS-III\Source/os_tmr.c ****         case OS_TMR_STATE_RUNNING:
 649:..\..\..\..\..\..\uCOS-III\Source/os_tmr.c ****              OS_TmrUnlink(p_tmr);                                     /* Remove from current wheel 
 867              		.loc 1 649 0
 868 0060 F868     		ldr	r0, [r7, #12]
 869 0062 FFF7FEFF 		bl	OS_TmrUnlink
 650:..\..\..\..\..\..\uCOS-III\Source/os_tmr.c ****             *p_err = OS_ERR_NONE;
 870              		.loc 1 650 0
 871 0066 3B68     		ldr	r3, [r7]
 872 0068 0022     		movs	r2, #0
 873 006a 1A80     		strh	r2, [r3]	@ movhi
 651:..\..\..\..\..\..\uCOS-III\Source/os_tmr.c ****              switch (opt) {
 874              		.loc 1 651 0
 875 006c 7B89     		ldrh	r3, [r7, #10]
 876 006e 032B     		cmp	r3, #3
 877 0070 04D0     		beq	.L79
 878 0072 042B     		cmp	r3, #4
 879 0074 14D0     		beq	.L80
 880 0076 002B     		cmp	r3, #0
 881 0078 2DD0     		beq	.L90
 882 007a 21E0     		b	.L89
 883              	.L79:
 652:..\..\..\..\..\..\uCOS-III\Source/os_tmr.c ****                  case OS_OPT_TMR_CALLBACK:
 653:..\..\..\..\..\..\uCOS-III\Source/os_tmr.c ****                       p_fnct = p_tmr->CallbackPtr;                         /* Execute callback func
ARM GAS  C:\Users\alex\AppData\Local\Temp\ccByxCIb.s 			page 28


 884              		.loc 1 653 0
 885 007c FB68     		ldr	r3, [r7, #12]
 886 007e 9B68     		ldr	r3, [r3, #8]
 887 0080 BB61     		str	r3, [r7, #24]
 654:..\..\..\..\..\..\uCOS-III\Source/os_tmr.c ****                       if (p_fnct != (OS_TMR_CALLBACK_PTR)0) {              /* ... if available     
 888              		.loc 1 654 0
 889 0082 BB69     		ldr	r3, [r7, #24]
 890 0084 002B     		cmp	r3, #0
 891 0086 06D0     		beq	.L82
 655:..\..\..\..\..\..\uCOS-III\Source/os_tmr.c ****                         (*p_fnct)((void *)p_tmr, p_tmr->CallbackPtrArg);   /* Use callback arg when
 892              		.loc 1 655 0
 893 0088 FB68     		ldr	r3, [r7, #12]
 894 008a DA68     		ldr	r2, [r3, #12]
 895 008c BB69     		ldr	r3, [r7, #24]
 896 008e 1146     		mov	r1, r2
 897 0090 F868     		ldr	r0, [r7, #12]
 898 0092 9847     		blx	r3
 656:..\..\..\..\..\..\uCOS-III\Source/os_tmr.c ****                       } else {
 657:..\..\..\..\..\..\uCOS-III\Source/os_tmr.c ****                          *p_err = OS_ERR_TMR_NO_CALLBACK;
 658:..\..\..\..\..\..\uCOS-III\Source/os_tmr.c ****                       }
 659:..\..\..\..\..\..\uCOS-III\Source/os_tmr.c ****                       break;
 899              		.loc 1 659 0
 900 0094 20E0     		b	.L84
 901              	.L82:
 657:..\..\..\..\..\..\uCOS-III\Source/os_tmr.c ****                       }
 902              		.loc 1 657 0
 903 0096 3B68     		ldr	r3, [r7]
 904 0098 47F24432 		movw	r2, #29508
 905 009c 1A80     		strh	r2, [r3]	@ movhi
 906              		.loc 1 659 0
 907 009e 1BE0     		b	.L84
 908              	.L80:
 660:..\..\..\..\..\..\uCOS-III\Source/os_tmr.c **** 
 661:..\..\..\..\..\..\uCOS-III\Source/os_tmr.c ****                  case OS_OPT_TMR_CALLBACK_ARG:
 662:..\..\..\..\..\..\uCOS-III\Source/os_tmr.c ****                       p_fnct = p_tmr->CallbackPtr;                    /* Execute callback function 
 909              		.loc 1 662 0
 910 00a0 FB68     		ldr	r3, [r7, #12]
 911 00a2 9B68     		ldr	r3, [r3, #8]
 912 00a4 BB61     		str	r3, [r7, #24]
 663:..\..\..\..\..\..\uCOS-III\Source/os_tmr.c ****                       if (p_fnct != (OS_TMR_CALLBACK_PTR)0) {
 913              		.loc 1 663 0
 914 00a6 BB69     		ldr	r3, [r7, #24]
 915 00a8 002B     		cmp	r3, #0
 916 00aa 04D0     		beq	.L85
 664:..\..\..\..\..\..\uCOS-III\Source/os_tmr.c ****                         (*p_fnct)((void *)p_tmr, p_callback_arg);     /* .. using the 'callback_arg
 917              		.loc 1 664 0
 918 00ac BB69     		ldr	r3, [r7, #24]
 919 00ae 7968     		ldr	r1, [r7, #4]
 920 00b0 F868     		ldr	r0, [r7, #12]
 921 00b2 9847     		blx	r3
 665:..\..\..\..\..\..\uCOS-III\Source/os_tmr.c ****                       } else {
 666:..\..\..\..\..\..\uCOS-III\Source/os_tmr.c ****                          *p_err = OS_ERR_TMR_NO_CALLBACK;
 667:..\..\..\..\..\..\uCOS-III\Source/os_tmr.c ****                       }
 668:..\..\..\..\..\..\uCOS-III\Source/os_tmr.c ****                       break;
 922              		.loc 1 668 0
 923 00b4 10E0     		b	.L84
 924              	.L85:
ARM GAS  C:\Users\alex\AppData\Local\Temp\ccByxCIb.s 			page 29


 666:..\..\..\..\..\..\uCOS-III\Source/os_tmr.c ****                       }
 925              		.loc 1 666 0
 926 00b6 3B68     		ldr	r3, [r7]
 927 00b8 47F24432 		movw	r2, #29508
 928 00bc 1A80     		strh	r2, [r3]	@ movhi
 929              		.loc 1 668 0
 930 00be 0BE0     		b	.L84
 931              	.L89:
 669:..\..\..\..\..\..\uCOS-III\Source/os_tmr.c **** 
 670:..\..\..\..\..\..\uCOS-III\Source/os_tmr.c ****                  case OS_OPT_TMR_NONE:
 671:..\..\..\..\..\..\uCOS-III\Source/os_tmr.c ****                       break;
 672:..\..\..\..\..\..\uCOS-III\Source/os_tmr.c **** 
 673:..\..\..\..\..\..\uCOS-III\Source/os_tmr.c ****                  default:
 674:..\..\..\..\..\..\uCOS-III\Source/os_tmr.c ****                      OSSchedUnlock(&err);
 932              		.loc 1 674 0
 933 00c0 07F11603 		add	r3, r7, #22
 934 00c4 1846     		mov	r0, r3
 935 00c6 FFF7FEFF 		bl	OSSchedUnlock
 675:..\..\..\..\..\..\uCOS-III\Source/os_tmr.c ****                     *p_err = OS_ERR_OPT_INVALID;
 936              		.loc 1 675 0
 937 00ca 3B68     		ldr	r3, [r7]
 938 00cc 45F62562 		movw	r2, #24101
 939 00d0 1A80     		strh	r2, [r3]	@ movhi
 676:..\..\..\..\..\..\uCOS-III\Source/os_tmr.c ****                      return (DEF_FALSE);
 940              		.loc 1 676 0
 941 00d2 0023     		movs	r3, #0
 942 00d4 2DE0     		b	.L88
 943              	.L90:
 671:..\..\..\..\..\..\uCOS-III\Source/os_tmr.c **** 
 944              		.loc 1 671 0
 945 00d6 00BF     		nop
 946              	.L84:
 677:..\..\..\..\..\..\uCOS-III\Source/os_tmr.c ****              }
 678:..\..\..\..\..\..\uCOS-III\Source/os_tmr.c ****              OSSchedUnlock(&err);
 947              		.loc 1 678 0
 948 00d8 07F11603 		add	r3, r7, #22
 949 00dc 1846     		mov	r0, r3
 950 00de FFF7FEFF 		bl	OSSchedUnlock
 679:..\..\..\..\..\..\uCOS-III\Source/os_tmr.c ****              success = DEF_TRUE;
 951              		.loc 1 679 0
 952 00e2 0123     		movs	r3, #1
 953 00e4 FB77     		strb	r3, [r7, #31]
 680:..\..\..\..\..\..\uCOS-III\Source/os_tmr.c ****              break;
 954              		.loc 1 680 0
 955 00e6 23E0     		b	.L87
 956              	.L76:
 681:..\..\..\..\..\..\uCOS-III\Source/os_tmr.c **** 
 682:..\..\..\..\..\..\uCOS-III\Source/os_tmr.c ****         case OS_TMR_STATE_COMPLETED:                                  /* Timer has already complete
 683:..\..\..\..\..\..\uCOS-III\Source/os_tmr.c ****         case OS_TMR_STATE_STOPPED:                                    /* ... timer has not started 
 684:..\..\..\..\..\..\uCOS-III\Source/os_tmr.c ****              OSSchedUnlock(&err);
 957              		.loc 1 684 0
 958 00e8 07F11603 		add	r3, r7, #22
 959 00ec 1846     		mov	r0, r3
 960 00ee FFF7FEFF 		bl	OSSchedUnlock
 685:..\..\..\..\..\..\uCOS-III\Source/os_tmr.c ****             *p_err   = OS_ERR_TMR_STOPPED;
 961              		.loc 1 685 0
 962 00f2 3B68     		ldr	r3, [r7]
ARM GAS  C:\Users\alex\AppData\Local\Temp\ccByxCIb.s 			page 30


 963 00f4 47F24932 		movw	r2, #29513
 964 00f8 1A80     		strh	r2, [r3]	@ movhi
 686:..\..\..\..\..\..\uCOS-III\Source/os_tmr.c ****              success = DEF_TRUE;
 965              		.loc 1 686 0
 966 00fa 0123     		movs	r3, #1
 967 00fc FB77     		strb	r3, [r7, #31]
 687:..\..\..\..\..\..\uCOS-III\Source/os_tmr.c ****              break;
 968              		.loc 1 687 0
 969 00fe 17E0     		b	.L87
 970              	.L74:
 688:..\..\..\..\..\..\uCOS-III\Source/os_tmr.c **** 
 689:..\..\..\..\..\..\uCOS-III\Source/os_tmr.c ****         case OS_TMR_STATE_UNUSED:                                     /* Timer was not created     
 690:..\..\..\..\..\..\uCOS-III\Source/os_tmr.c ****              OSSchedUnlock(&err);
 971              		.loc 1 690 0
 972 0100 07F11603 		add	r3, r7, #22
 973 0104 1846     		mov	r0, r3
 974 0106 FFF7FEFF 		bl	OSSchedUnlock
 691:..\..\..\..\..\..\uCOS-III\Source/os_tmr.c ****             *p_err   = OS_ERR_TMR_INACTIVE;
 975              		.loc 1 691 0
 976 010a 3B68     		ldr	r3, [r7]
 977 010c 47F23D32 		movw	r2, #29501
 978 0110 1A80     		strh	r2, [r3]	@ movhi
 692:..\..\..\..\..\..\uCOS-III\Source/os_tmr.c ****              success = DEF_FALSE;
 979              		.loc 1 692 0
 980 0112 0023     		movs	r3, #0
 981 0114 FB77     		strb	r3, [r7, #31]
 693:..\..\..\..\..\..\uCOS-III\Source/os_tmr.c ****              break;
 982              		.loc 1 693 0
 983 0116 0BE0     		b	.L87
 984              	.L73:
 694:..\..\..\..\..\..\uCOS-III\Source/os_tmr.c **** 
 695:..\..\..\..\..\..\uCOS-III\Source/os_tmr.c ****         default:
 696:..\..\..\..\..\..\uCOS-III\Source/os_tmr.c ****              OSSchedUnlock(&err);
 985              		.loc 1 696 0
 986 0118 07F11603 		add	r3, r7, #22
 987 011c 1846     		mov	r0, r3
 988 011e FFF7FEFF 		bl	OSSchedUnlock
 697:..\..\..\..\..\..\uCOS-III\Source/os_tmr.c ****             *p_err   = OS_ERR_TMR_INVALID_STATE;
 989              		.loc 1 697 0
 990 0122 3B68     		ldr	r3, [r7]
 991 0124 47F24132 		movw	r2, #29505
 992 0128 1A80     		strh	r2, [r3]	@ movhi
 698:..\..\..\..\..\..\uCOS-III\Source/os_tmr.c ****              success = DEF_FALSE;
 993              		.loc 1 698 0
 994 012a 0023     		movs	r3, #0
 995 012c FB77     		strb	r3, [r7, #31]
 699:..\..\..\..\..\..\uCOS-III\Source/os_tmr.c ****              break;
 996              		.loc 1 699 0
 997 012e 00BF     		nop
 998              	.L87:
 700:..\..\..\..\..\..\uCOS-III\Source/os_tmr.c ****     }
 701:..\..\..\..\..\..\uCOS-III\Source/os_tmr.c ****     return (success);
 999              		.loc 1 701 0
 1000 0130 FB7F     		ldrb	r3, [r7, #31]	@ zero_extendqisi2
 1001              	.L88:
 702:..\..\..\..\..\..\uCOS-III\Source/os_tmr.c **** }
 1002              		.loc 1 702 0 discriminator 1
ARM GAS  C:\Users\alex\AppData\Local\Temp\ccByxCIb.s 			page 31


 1003 0132 1846     		mov	r0, r3
 1004 0134 2037     		adds	r7, r7, #32
 1005              		.cfi_def_cfa_offset 8
 1006 0136 BD46     		mov	sp, r7
 1007              		.cfi_def_cfa_register 13
 1008              		@ sp needed
 1009 0138 80BD     		pop	{r7, pc}
 1010              	.L92:
 1011 013a 00BF     		.align	2
 1012              	.L91:
 1013 013c 00000000 		.word	OSIntNestingCtr
 1014              		.cfi_endproc
 1015              	.LFE5:
 1016              		.size	OSTmrStop, .-OSTmrStop
 1017              		.section	.rodata
 1018              		.align	2
 1019              	.LC0:
 1020 0000 3F544D52 		.ascii	"?TMR\000"
 1020      00
 1021              		.section	.text.OS_TmrClr,"ax",%progbits
 1022              		.align	2
 1023              		.global	OS_TmrClr
 1024              		.thumb
 1025              		.thumb_func
 1026              		.type	OS_TmrClr, %function
 1027              	OS_TmrClr:
 1028              	.LFB6:
 703:..\..\..\..\..\..\uCOS-III\Source/os_tmr.c **** 
 704:..\..\..\..\..\..\uCOS-III\Source/os_tmr.c **** /*$PAGE*/
 705:..\..\..\..\..\..\uCOS-III\Source/os_tmr.c **** /*
 706:..\..\..\..\..\..\uCOS-III\Source/os_tmr.c **** ***************************************************************************************************
 707:..\..\..\..\..\..\uCOS-III\Source/os_tmr.c **** *                                                 CLEAR TIMER FIELDS
 708:..\..\..\..\..\..\uCOS-III\Source/os_tmr.c **** *
 709:..\..\..\..\..\..\uCOS-III\Source/os_tmr.c **** * Description: This function is called to clear all timer fields.
 710:..\..\..\..\..\..\uCOS-III\Source/os_tmr.c **** *
 711:..\..\..\..\..\..\uCOS-III\Source/os_tmr.c **** * Argument(s): p_tmr    is a pointer to the timer to clear
 712:..\..\..\..\..\..\uCOS-III\Source/os_tmr.c **** *              -----
 713:..\..\..\..\..\..\uCOS-III\Source/os_tmr.c **** *
 714:..\..\..\..\..\..\uCOS-III\Source/os_tmr.c **** * Returns    : none
 715:..\..\..\..\..\..\uCOS-III\Source/os_tmr.c **** *
 716:..\..\..\..\..\..\uCOS-III\Source/os_tmr.c **** * Note(s)    : 1) This function is INTERNAL to uC/OS-III and your application MUST NOT call it.
 717:..\..\..\..\..\..\uCOS-III\Source/os_tmr.c **** ***************************************************************************************************
 718:..\..\..\..\..\..\uCOS-III\Source/os_tmr.c **** */
 719:..\..\..\..\..\..\uCOS-III\Source/os_tmr.c **** 
 720:..\..\..\..\..\..\uCOS-III\Source/os_tmr.c **** void  OS_TmrClr (OS_TMR  *p_tmr)
 721:..\..\..\..\..\..\uCOS-III\Source/os_tmr.c **** {
 1029              		.loc 1 721 0
 1030              		.cfi_startproc
 1031              		@ args = 0, pretend = 0, frame = 8
 1032              		@ frame_needed = 1, uses_anonymous_args = 0
 1033              		@ link register save eliminated.
 1034 0000 80B4     		push	{r7}
 1035              		.cfi_def_cfa_offset 4
 1036              		.cfi_offset 7, -4
 1037 0002 83B0     		sub	sp, sp, #12
 1038              		.cfi_def_cfa_offset 16
 1039 0004 00AF     		add	r7, sp, #0
ARM GAS  C:\Users\alex\AppData\Local\Temp\ccByxCIb.s 			page 32


 1040              		.cfi_def_cfa_register 7
 1041 0006 7860     		str	r0, [r7, #4]
 722:..\..\..\..\..\..\uCOS-III\Source/os_tmr.c ****     p_tmr->State          = OS_TMR_STATE_UNUSED;            /* Clear timer fields                  
 1042              		.loc 1 722 0
 1043 0008 7B68     		ldr	r3, [r7, #4]
 1044 000a 0022     		movs	r2, #0
 1045 000c 83F82A20 		strb	r2, [r3, #42]
 723:..\..\..\..\..\..\uCOS-III\Source/os_tmr.c ****     p_tmr->Type           = OS_OBJ_TYPE_NONE;
 1046              		.loc 1 723 0
 1047 0010 7B68     		ldr	r3, [r7, #4]
 1048 0012 124A     		ldr	r2, .L94
 1049 0014 1A60     		str	r2, [r3]
 724:..\..\..\..\..\..\uCOS-III\Source/os_tmr.c ****     p_tmr->NamePtr        = (CPU_CHAR          *)((void *)"?TMR");
 1050              		.loc 1 724 0
 1051 0016 7B68     		ldr	r3, [r7, #4]
 1052 0018 114A     		ldr	r2, .L94+4
 1053 001a 5A60     		str	r2, [r3, #4]
 725:..\..\..\..\..\..\uCOS-III\Source/os_tmr.c ****     p_tmr->Dly            = (OS_TICK            )0;
 1054              		.loc 1 725 0
 1055 001c 7B68     		ldr	r3, [r7, #4]
 1056 001e 0022     		movs	r2, #0
 1057 0020 1A62     		str	r2, [r3, #32]
 726:..\..\..\..\..\..\uCOS-III\Source/os_tmr.c ****     p_tmr->Match          = (OS_TICK            )0;
 1058              		.loc 1 726 0
 1059 0022 7B68     		ldr	r3, [r7, #4]
 1060 0024 0022     		movs	r2, #0
 1061 0026 9A61     		str	r2, [r3, #24]
 727:..\..\..\..\..\..\uCOS-III\Source/os_tmr.c ****     p_tmr->Remain         = (OS_TICK            )0;
 1062              		.loc 1 727 0
 1063 0028 7B68     		ldr	r3, [r7, #4]
 1064 002a 0022     		movs	r2, #0
 1065 002c DA61     		str	r2, [r3, #28]
 728:..\..\..\..\..\..\uCOS-III\Source/os_tmr.c ****     p_tmr->Period         = (OS_TICK            )0;
 1066              		.loc 1 728 0
 1067 002e 7B68     		ldr	r3, [r7, #4]
 1068 0030 0022     		movs	r2, #0
 1069 0032 5A62     		str	r2, [r3, #36]
 729:..\..\..\..\..\..\uCOS-III\Source/os_tmr.c ****     p_tmr->Opt            = (OS_OPT             )0;
 1070              		.loc 1 729 0
 1071 0034 7B68     		ldr	r3, [r7, #4]
 1072 0036 0022     		movs	r2, #0
 1073 0038 1A85     		strh	r2, [r3, #40]	@ movhi
 730:..\..\..\..\..\..\uCOS-III\Source/os_tmr.c ****     p_tmr->CallbackPtr    = (OS_TMR_CALLBACK_PTR)0;
 1074              		.loc 1 730 0
 1075 003a 7B68     		ldr	r3, [r7, #4]
 1076 003c 0022     		movs	r2, #0
 1077 003e 9A60     		str	r2, [r3, #8]
 731:..\..\..\..\..\..\uCOS-III\Source/os_tmr.c ****     p_tmr->CallbackPtrArg = (void              *)0;
 1078              		.loc 1 731 0
 1079 0040 7B68     		ldr	r3, [r7, #4]
 1080 0042 0022     		movs	r2, #0
 1081 0044 DA60     		str	r2, [r3, #12]
 732:..\..\..\..\..\..\uCOS-III\Source/os_tmr.c ****     p_tmr->NextPtr        = (OS_TMR            *)0;
 1082              		.loc 1 732 0
 1083 0046 7B68     		ldr	r3, [r7, #4]
 1084 0048 0022     		movs	r2, #0
 1085 004a 1A61     		str	r2, [r3, #16]
ARM GAS  C:\Users\alex\AppData\Local\Temp\ccByxCIb.s 			page 33


 733:..\..\..\..\..\..\uCOS-III\Source/os_tmr.c ****     p_tmr->PrevPtr        = (OS_TMR            *)0;
 1086              		.loc 1 733 0
 1087 004c 7B68     		ldr	r3, [r7, #4]
 1088 004e 0022     		movs	r2, #0
 1089 0050 5A61     		str	r2, [r3, #20]
 734:..\..\..\..\..\..\uCOS-III\Source/os_tmr.c **** }
 1090              		.loc 1 734 0
 1091 0052 00BF     		nop
 1092 0054 0C37     		adds	r7, r7, #12
 1093              		.cfi_def_cfa_offset 4
 1094 0056 BD46     		mov	sp, r7
 1095              		.cfi_def_cfa_register 13
 1096              		@ sp needed
 1097 0058 80BC     		pop	{r7}
 1098              		.cfi_restore 7
 1099              		.cfi_def_cfa_offset 0
 1100 005a 7047     		bx	lr
 1101              	.L95:
 1102              		.align	2
 1103              	.L94:
 1104 005c 4E4F4E45 		.word	1162760014
 1105 0060 00000000 		.word	.LC0
 1106              		.cfi_endproc
 1107              	.LFE6:
 1108              		.size	OS_TmrClr, .-OS_TmrClr
 1109              		.section	.text.OS_TmrDbgListAdd,"ax",%progbits
 1110              		.align	2
 1111              		.global	OS_TmrDbgListAdd
 1112              		.thumb
 1113              		.thumb_func
 1114              		.type	OS_TmrDbgListAdd, %function
 1115              	OS_TmrDbgListAdd:
 1116              	.LFB7:
 735:..\..\..\..\..\..\uCOS-III\Source/os_tmr.c **** 
 736:..\..\..\..\..\..\uCOS-III\Source/os_tmr.c **** /*$PAGE*/
 737:..\..\..\..\..\..\uCOS-III\Source/os_tmr.c **** /*
 738:..\..\..\..\..\..\uCOS-III\Source/os_tmr.c **** ***************************************************************************************************
 739:..\..\..\..\..\..\uCOS-III\Source/os_tmr.c **** *                                         ADD/REMOVE TIMER TO/FROM DEBUG TABLE
 740:..\..\..\..\..\..\uCOS-III\Source/os_tmr.c **** *
 741:..\..\..\..\..\..\uCOS-III\Source/os_tmr.c **** * Description: These functions are called by uC/OS-III to add or remove a timer to/from a timer deb
 742:..\..\..\..\..\..\uCOS-III\Source/os_tmr.c **** *
 743:..\..\..\..\..\..\uCOS-III\Source/os_tmr.c **** * Arguments  : p_tmr     is a pointer to the timer to add/remove
 744:..\..\..\..\..\..\uCOS-III\Source/os_tmr.c **** *
 745:..\..\..\..\..\..\uCOS-III\Source/os_tmr.c **** * Returns    : none
 746:..\..\..\..\..\..\uCOS-III\Source/os_tmr.c **** *
 747:..\..\..\..\..\..\uCOS-III\Source/os_tmr.c **** * Note(s)    : These functions are INTERNAL to uC/OS-III and your application should not call it.
 748:..\..\..\..\..\..\uCOS-III\Source/os_tmr.c **** ***************************************************************************************************
 749:..\..\..\..\..\..\uCOS-III\Source/os_tmr.c **** */
 750:..\..\..\..\..\..\uCOS-III\Source/os_tmr.c **** 
 751:..\..\..\..\..\..\uCOS-III\Source/os_tmr.c **** 
 752:..\..\..\..\..\..\uCOS-III\Source/os_tmr.c **** #if OS_CFG_DBG_EN > 0u
 753:..\..\..\..\..\..\uCOS-III\Source/os_tmr.c **** void  OS_TmrDbgListAdd (OS_TMR  *p_tmr)
 754:..\..\..\..\..\..\uCOS-III\Source/os_tmr.c **** {
 1117              		.loc 1 754 0
 1118              		.cfi_startproc
 1119              		@ args = 0, pretend = 0, frame = 8
 1120              		@ frame_needed = 1, uses_anonymous_args = 0
ARM GAS  C:\Users\alex\AppData\Local\Temp\ccByxCIb.s 			page 34


 1121              		@ link register save eliminated.
 1122 0000 80B4     		push	{r7}
 1123              		.cfi_def_cfa_offset 4
 1124              		.cfi_offset 7, -4
 1125 0002 83B0     		sub	sp, sp, #12
 1126              		.cfi_def_cfa_offset 16
 1127 0004 00AF     		add	r7, sp, #0
 1128              		.cfi_def_cfa_register 7
 1129 0006 7860     		str	r0, [r7, #4]
 755:..\..\..\..\..\..\uCOS-III\Source/os_tmr.c ****     p_tmr->DbgPrevPtr               = (OS_TMR *)0;
 1130              		.loc 1 755 0
 1131 0008 7B68     		ldr	r3, [r7, #4]
 1132 000a 0022     		movs	r2, #0
 1133 000c DA62     		str	r2, [r3, #44]
 756:..\..\..\..\..\..\uCOS-III\Source/os_tmr.c ****     if (OSTmrDbgListPtr == (OS_TMR *)0) {
 1134              		.loc 1 756 0
 1135 000e 0C4B     		ldr	r3, .L99
 1136 0010 1B68     		ldr	r3, [r3]
 1137 0012 002B     		cmp	r3, #0
 1138 0014 03D1     		bne	.L97
 757:..\..\..\..\..\..\uCOS-III\Source/os_tmr.c ****         p_tmr->DbgNextPtr           = (OS_TMR *)0;
 1139              		.loc 1 757 0
 1140 0016 7B68     		ldr	r3, [r7, #4]
 1141 0018 0022     		movs	r2, #0
 1142 001a 1A63     		str	r2, [r3, #48]
 1143 001c 07E0     		b	.L98
 1144              	.L97:
 758:..\..\..\..\..\..\uCOS-III\Source/os_tmr.c ****     } else {
 759:..\..\..\..\..\..\uCOS-III\Source/os_tmr.c ****         p_tmr->DbgNextPtr           =  OSTmrDbgListPtr;
 1145              		.loc 1 759 0
 1146 001e 084B     		ldr	r3, .L99
 1147 0020 1A68     		ldr	r2, [r3]
 1148 0022 7B68     		ldr	r3, [r7, #4]
 1149 0024 1A63     		str	r2, [r3, #48]
 760:..\..\..\..\..\..\uCOS-III\Source/os_tmr.c ****         OSTmrDbgListPtr->DbgPrevPtr =  p_tmr;
 1150              		.loc 1 760 0
 1151 0026 064B     		ldr	r3, .L99
 1152 0028 1B68     		ldr	r3, [r3]
 1153 002a 7A68     		ldr	r2, [r7, #4]
 1154 002c DA62     		str	r2, [r3, #44]
 1155              	.L98:
 761:..\..\..\..\..\..\uCOS-III\Source/os_tmr.c ****     }
 762:..\..\..\..\..\..\uCOS-III\Source/os_tmr.c ****     OSTmrDbgListPtr                 =  p_tmr;
 1156              		.loc 1 762 0
 1157 002e 044A     		ldr	r2, .L99
 1158 0030 7B68     		ldr	r3, [r7, #4]
 1159 0032 1360     		str	r3, [r2]
 763:..\..\..\..\..\..\uCOS-III\Source/os_tmr.c **** }
 1160              		.loc 1 763 0
 1161 0034 00BF     		nop
 1162 0036 0C37     		adds	r7, r7, #12
 1163              		.cfi_def_cfa_offset 4
 1164 0038 BD46     		mov	sp, r7
 1165              		.cfi_def_cfa_register 13
 1166              		@ sp needed
 1167 003a 80BC     		pop	{r7}
 1168              		.cfi_restore 7
ARM GAS  C:\Users\alex\AppData\Local\Temp\ccByxCIb.s 			page 35


 1169              		.cfi_def_cfa_offset 0
 1170 003c 7047     		bx	lr
 1171              	.L100:
 1172 003e 00BF     		.align	2
 1173              	.L99:
 1174 0040 00000000 		.word	OSTmrDbgListPtr
 1175              		.cfi_endproc
 1176              	.LFE7:
 1177              		.size	OS_TmrDbgListAdd, .-OS_TmrDbgListAdd
 1178              		.section	.text.OS_TmrDbgListRemove,"ax",%progbits
 1179              		.align	2
 1180              		.global	OS_TmrDbgListRemove
 1181              		.thumb
 1182              		.thumb_func
 1183              		.type	OS_TmrDbgListRemove, %function
 1184              	OS_TmrDbgListRemove:
 1185              	.LFB8:
 764:..\..\..\..\..\..\uCOS-III\Source/os_tmr.c **** 
 765:..\..\..\..\..\..\uCOS-III\Source/os_tmr.c **** 
 766:..\..\..\..\..\..\uCOS-III\Source/os_tmr.c **** 
 767:..\..\..\..\..\..\uCOS-III\Source/os_tmr.c **** void  OS_TmrDbgListRemove (OS_TMR  *p_tmr)
 768:..\..\..\..\..\..\uCOS-III\Source/os_tmr.c **** {
 1186              		.loc 1 768 0
 1187              		.cfi_startproc
 1188              		@ args = 0, pretend = 0, frame = 16
 1189              		@ frame_needed = 1, uses_anonymous_args = 0
 1190              		@ link register save eliminated.
 1191 0000 80B4     		push	{r7}
 1192              		.cfi_def_cfa_offset 4
 1193              		.cfi_offset 7, -4
 1194 0002 85B0     		sub	sp, sp, #20
 1195              		.cfi_def_cfa_offset 24
 1196 0004 00AF     		add	r7, sp, #0
 1197              		.cfi_def_cfa_register 7
 1198 0006 7860     		str	r0, [r7, #4]
 769:..\..\..\..\..\..\uCOS-III\Source/os_tmr.c ****     OS_TMR  *p_tmr_next;
 770:..\..\..\..\..\..\uCOS-III\Source/os_tmr.c ****     OS_TMR  *p_tmr_prev;
 771:..\..\..\..\..\..\uCOS-III\Source/os_tmr.c **** 
 772:..\..\..\..\..\..\uCOS-III\Source/os_tmr.c **** 
 773:..\..\..\..\..\..\uCOS-III\Source/os_tmr.c ****     p_tmr_prev = p_tmr->DbgPrevPtr;
 1199              		.loc 1 773 0
 1200 0008 7B68     		ldr	r3, [r7, #4]
 1201 000a DB6A     		ldr	r3, [r3, #44]
 1202 000c FB60     		str	r3, [r7, #12]
 774:..\..\..\..\..\..\uCOS-III\Source/os_tmr.c ****     p_tmr_next = p_tmr->DbgNextPtr;
 1203              		.loc 1 774 0
 1204 000e 7B68     		ldr	r3, [r7, #4]
 1205 0010 1B6B     		ldr	r3, [r3, #48]
 1206 0012 BB60     		str	r3, [r7, #8]
 775:..\..\..\..\..\..\uCOS-III\Source/os_tmr.c **** 
 776:..\..\..\..\..\..\uCOS-III\Source/os_tmr.c ****     if (p_tmr_prev == (OS_TMR *)0) {
 1207              		.loc 1 776 0
 1208 0014 FB68     		ldr	r3, [r7, #12]
 1209 0016 002B     		cmp	r3, #0
 1210 0018 0CD1     		bne	.L102
 777:..\..\..\..\..\..\uCOS-III\Source/os_tmr.c ****         OSTmrDbgListPtr = p_tmr_next;
 1211              		.loc 1 777 0
ARM GAS  C:\Users\alex\AppData\Local\Temp\ccByxCIb.s 			page 36


 1212 001a 144A     		ldr	r2, .L107
 1213 001c BB68     		ldr	r3, [r7, #8]
 1214 001e 1360     		str	r3, [r2]
 778:..\..\..\..\..\..\uCOS-III\Source/os_tmr.c ****         if (p_tmr_next != (OS_TMR *)0) {
 1215              		.loc 1 778 0
 1216 0020 BB68     		ldr	r3, [r7, #8]
 1217 0022 002B     		cmp	r3, #0
 1218 0024 02D0     		beq	.L103
 779:..\..\..\..\..\..\uCOS-III\Source/os_tmr.c ****             p_tmr_next->DbgPrevPtr = (OS_TMR *)0;
 1219              		.loc 1 779 0
 1220 0026 BB68     		ldr	r3, [r7, #8]
 1221 0028 0022     		movs	r2, #0
 1222 002a DA62     		str	r2, [r3, #44]
 1223              	.L103:
 780:..\..\..\..\..\..\uCOS-III\Source/os_tmr.c ****         }
 781:..\..\..\..\..\..\uCOS-III\Source/os_tmr.c ****         p_tmr->DbgNextPtr = (OS_TMR *)0;
 1224              		.loc 1 781 0
 1225 002c 7B68     		ldr	r3, [r7, #4]
 1226 002e 0022     		movs	r2, #0
 1227 0030 1A63     		str	r2, [r3, #48]
 782:..\..\..\..\..\..\uCOS-III\Source/os_tmr.c **** 
 783:..\..\..\..\..\..\uCOS-III\Source/os_tmr.c ****     } else if (p_tmr_next == (OS_TMR *)0) {
 784:..\..\..\..\..\..\uCOS-III\Source/os_tmr.c ****         p_tmr_prev->DbgNextPtr = (OS_TMR *)0;
 785:..\..\..\..\..\..\uCOS-III\Source/os_tmr.c ****         p_tmr->DbgPrevPtr      = (OS_TMR *)0;
 786:..\..\..\..\..\..\uCOS-III\Source/os_tmr.c **** 
 787:..\..\..\..\..\..\uCOS-III\Source/os_tmr.c ****     } else {
 788:..\..\..\..\..\..\uCOS-III\Source/os_tmr.c ****         p_tmr_prev->DbgNextPtr =  p_tmr_next;
 789:..\..\..\..\..\..\uCOS-III\Source/os_tmr.c ****         p_tmr_next->DbgPrevPtr =  p_tmr_prev;
 790:..\..\..\..\..\..\uCOS-III\Source/os_tmr.c ****         p_tmr->DbgNextPtr      = (OS_TMR *)0;
 791:..\..\..\..\..\..\uCOS-III\Source/os_tmr.c ****         p_tmr->DbgPrevPtr      = (OS_TMR *)0;
 792:..\..\..\..\..\..\uCOS-III\Source/os_tmr.c ****     }
 793:..\..\..\..\..\..\uCOS-III\Source/os_tmr.c **** }
 1228              		.loc 1 793 0
 1229 0032 15E0     		b	.L106
 1230              	.L102:
 783:..\..\..\..\..\..\uCOS-III\Source/os_tmr.c ****         p_tmr_prev->DbgNextPtr = (OS_TMR *)0;
 1231              		.loc 1 783 0
 1232 0034 BB68     		ldr	r3, [r7, #8]
 1233 0036 002B     		cmp	r3, #0
 1234 0038 06D1     		bne	.L105
 784:..\..\..\..\..\..\uCOS-III\Source/os_tmr.c ****         p_tmr->DbgPrevPtr      = (OS_TMR *)0;
 1235              		.loc 1 784 0
 1236 003a FB68     		ldr	r3, [r7, #12]
 1237 003c 0022     		movs	r2, #0
 1238 003e 1A63     		str	r2, [r3, #48]
 785:..\..\..\..\..\..\uCOS-III\Source/os_tmr.c **** 
 1239              		.loc 1 785 0
 1240 0040 7B68     		ldr	r3, [r7, #4]
 1241 0042 0022     		movs	r2, #0
 1242 0044 DA62     		str	r2, [r3, #44]
 1243              		.loc 1 793 0
 1244 0046 0BE0     		b	.L106
 1245              	.L105:
 788:..\..\..\..\..\..\uCOS-III\Source/os_tmr.c ****         p_tmr_next->DbgPrevPtr =  p_tmr_prev;
 1246              		.loc 1 788 0
 1247 0048 FB68     		ldr	r3, [r7, #12]
 1248 004a BA68     		ldr	r2, [r7, #8]
ARM GAS  C:\Users\alex\AppData\Local\Temp\ccByxCIb.s 			page 37


 1249 004c 1A63     		str	r2, [r3, #48]
 789:..\..\..\..\..\..\uCOS-III\Source/os_tmr.c ****         p_tmr->DbgNextPtr      = (OS_TMR *)0;
 1250              		.loc 1 789 0
 1251 004e BB68     		ldr	r3, [r7, #8]
 1252 0050 FA68     		ldr	r2, [r7, #12]
 1253 0052 DA62     		str	r2, [r3, #44]
 790:..\..\..\..\..\..\uCOS-III\Source/os_tmr.c ****         p_tmr->DbgPrevPtr      = (OS_TMR *)0;
 1254              		.loc 1 790 0
 1255 0054 7B68     		ldr	r3, [r7, #4]
 1256 0056 0022     		movs	r2, #0
 1257 0058 1A63     		str	r2, [r3, #48]
 791:..\..\..\..\..\..\uCOS-III\Source/os_tmr.c ****     }
 1258              		.loc 1 791 0
 1259 005a 7B68     		ldr	r3, [r7, #4]
 1260 005c 0022     		movs	r2, #0
 1261 005e DA62     		str	r2, [r3, #44]
 1262              	.L106:
 1263              		.loc 1 793 0
 1264 0060 00BF     		nop
 1265 0062 1437     		adds	r7, r7, #20
 1266              		.cfi_def_cfa_offset 4
 1267 0064 BD46     		mov	sp, r7
 1268              		.cfi_def_cfa_register 13
 1269              		@ sp needed
 1270 0066 80BC     		pop	{r7}
 1271              		.cfi_restore 7
 1272              		.cfi_def_cfa_offset 0
 1273 0068 7047     		bx	lr
 1274              	.L108:
 1275 006a 00BF     		.align	2
 1276              	.L107:
 1277 006c 00000000 		.word	OSTmrDbgListPtr
 1278              		.cfi_endproc
 1279              	.LFE8:
 1280              		.size	OS_TmrDbgListRemove, .-OS_TmrDbgListRemove
 1281              		.section	.rodata
 1282 0005 000000   		.align	2
 1283              	.LC1:
 1284 0008 75432F4F 		.ascii	"uC/OS-III Timer Task\000"
 1284      532D4949 
 1284      49205469 
 1284      6D657220 
 1284      5461736B 
 1285              		.section	.text.OS_TmrInit,"ax",%progbits
 1286              		.align	2
 1287              		.global	OS_TmrInit
 1288              		.thumb
 1289              		.thumb_func
 1290              		.type	OS_TmrInit, %function
 1291              	OS_TmrInit:
 1292              	.LFB9:
 794:..\..\..\..\..\..\uCOS-III\Source/os_tmr.c **** #endif
 795:..\..\..\..\..\..\uCOS-III\Source/os_tmr.c **** 
 796:..\..\..\..\..\..\uCOS-III\Source/os_tmr.c **** /*$PAGE*/
 797:..\..\..\..\..\..\uCOS-III\Source/os_tmr.c **** /*
 798:..\..\..\..\..\..\uCOS-III\Source/os_tmr.c **** ***************************************************************************************************
 799:..\..\..\..\..\..\uCOS-III\Source/os_tmr.c **** *                                             INITIALIZE THE TIMER MANAGER
ARM GAS  C:\Users\alex\AppData\Local\Temp\ccByxCIb.s 			page 38


 800:..\..\..\..\..\..\uCOS-III\Source/os_tmr.c **** *
 801:..\..\..\..\..\..\uCOS-III\Source/os_tmr.c **** * Description: This function is called by OSInit() to initialize the timer manager module.
 802:..\..\..\..\..\..\uCOS-III\Source/os_tmr.c **** *
 803:..\..\..\..\..\..\uCOS-III\Source/os_tmr.c **** * Argument(s): p_err    is a pointer to a variable that will contain an error code returned by this
 804:..\..\..\..\..\..\uCOS-III\Source/os_tmr.c **** *
 805:..\..\..\..\..\..\uCOS-III\Source/os_tmr.c **** *                           OS_ERR_NONE
 806:..\..\..\..\..\..\uCOS-III\Source/os_tmr.c **** *                           OS_ERR_TMR_STK_INVALID       if you didn't specify a stack for the time
 807:..\..\..\..\..\..\uCOS-III\Source/os_tmr.c **** *                           OS_ERR_TMR_STK_SIZE_INVALID  if you didn't allocate enough space for th
 808:..\..\..\..\..\..\uCOS-III\Source/os_tmr.c **** *                           OS_ERR_PRIO_INVALID          if you specified the same priority as the 
 809:..\..\..\..\..\..\uCOS-III\Source/os_tmr.c **** *                           OS_ERR_xxx                   any error code returned by OSTaskCreate()
 810:..\..\..\..\..\..\uCOS-III\Source/os_tmr.c **** *
 811:..\..\..\..\..\..\uCOS-III\Source/os_tmr.c **** * Returns    : none
 812:..\..\..\..\..\..\uCOS-III\Source/os_tmr.c **** *
 813:..\..\..\..\..\..\uCOS-III\Source/os_tmr.c **** * Note(s)    : 1) This function is INTERNAL to uC/OS-III and your application MUST NOT call it.
 814:..\..\..\..\..\..\uCOS-III\Source/os_tmr.c **** ***************************************************************************************************
 815:..\..\..\..\..\..\uCOS-III\Source/os_tmr.c **** */
 816:..\..\..\..\..\..\uCOS-III\Source/os_tmr.c **** 
 817:..\..\..\..\..\..\uCOS-III\Source/os_tmr.c **** void  OS_TmrInit (OS_ERR  *p_err)
 818:..\..\..\..\..\..\uCOS-III\Source/os_tmr.c **** {
 1293              		.loc 1 818 0
 1294              		.cfi_startproc
 1295              		@ args = 0, pretend = 0, frame = 16
 1296              		@ frame_needed = 1, uses_anonymous_args = 0
 1297 0000 90B5     		push	{r4, r7, lr}
 1298              		.cfi_def_cfa_offset 12
 1299              		.cfi_offset 4, -12
 1300              		.cfi_offset 7, -8
 1301              		.cfi_offset 14, -4
 1302 0002 8FB0     		sub	sp, sp, #60
 1303              		.cfi_def_cfa_offset 72
 1304 0004 0AAF     		add	r7, sp, #40
 1305              		.cfi_def_cfa 7, 32
 1306 0006 7860     		str	r0, [r7, #4]
 819:..\..\..\..\..\..\uCOS-III\Source/os_tmr.c ****     OS_TMR_SPOKE_IX   i;
 820:..\..\..\..\..\..\uCOS-III\Source/os_tmr.c ****     OS_TMR_SPOKE     *p_spoke;
 821:..\..\..\..\..\..\uCOS-III\Source/os_tmr.c **** 
 822:..\..\..\..\..\..\uCOS-III\Source/os_tmr.c **** 
 823:..\..\..\..\..\..\uCOS-III\Source/os_tmr.c **** 
 824:..\..\..\..\..\..\uCOS-III\Source/os_tmr.c **** #ifdef OS_SAFETY_CRITICAL
 825:..\..\..\..\..\..\uCOS-III\Source/os_tmr.c ****     if (p_err == (OS_ERR *)0) {
 826:..\..\..\..\..\..\uCOS-III\Source/os_tmr.c ****         OS_SAFETY_CRITICAL_EXCEPTION();
 827:..\..\..\..\..\..\uCOS-III\Source/os_tmr.c ****         return;
 828:..\..\..\..\..\..\uCOS-III\Source/os_tmr.c ****     }
 829:..\..\..\..\..\..\uCOS-III\Source/os_tmr.c **** #endif
 830:..\..\..\..\..\..\uCOS-III\Source/os_tmr.c **** 
 831:..\..\..\..\..\..\uCOS-III\Source/os_tmr.c **** #if OS_CFG_DBG_EN > 0u
 832:..\..\..\..\..\..\uCOS-III\Source/os_tmr.c ****     OSTmrDbgListPtr = (OS_TMR *)0;
 1307              		.loc 1 832 0
 1308 0008 3B4B     		ldr	r3, .L118
 1309 000a 0022     		movs	r2, #0
 1310 000c 1A60     		str	r2, [r3]
 833:..\..\..\..\..\..\uCOS-III\Source/os_tmr.c **** #endif
 834:..\..\..\..\..\..\uCOS-III\Source/os_tmr.c **** 
 835:..\..\..\..\..\..\uCOS-III\Source/os_tmr.c ****     if (OSCfg_TmrTaskRate_Hz > (OS_RATE_HZ)0) {
 1311              		.loc 1 835 0
 1312 000e 3B4B     		ldr	r3, .L118+4
 1313 0010 1B68     		ldr	r3, [r3]
ARM GAS  C:\Users\alex\AppData\Local\Temp\ccByxCIb.s 			page 39


 1314 0012 002B     		cmp	r3, #0
 1315 0014 08D0     		beq	.L110
 836:..\..\..\..\..\..\uCOS-III\Source/os_tmr.c ****         OSTmrUpdateCnt = OSCfg_TickRate_Hz / OSCfg_TmrTaskRate_Hz;
 1316              		.loc 1 836 0
 1317 0016 3A4B     		ldr	r3, .L118+8
 1318 0018 1A68     		ldr	r2, [r3]
 1319 001a 384B     		ldr	r3, .L118+4
 1320 001c 1B68     		ldr	r3, [r3]
 1321 001e B2FBF3F3 		udiv	r3, r2, r3
 1322 0022 384A     		ldr	r2, .L118+12
 1323 0024 1360     		str	r3, [r2]
 1324 0026 07E0     		b	.L111
 1325              	.L110:
 837:..\..\..\..\..\..\uCOS-III\Source/os_tmr.c ****     } else {
 838:..\..\..\..\..\..\uCOS-III\Source/os_tmr.c ****         OSTmrUpdateCnt = OSCfg_TickRate_Hz / (OS_RATE_HZ)10;
 1326              		.loc 1 838 0
 1327 0028 354B     		ldr	r3, .L118+8
 1328 002a 1B68     		ldr	r3, [r3]
 1329 002c 364A     		ldr	r2, .L118+16
 1330 002e A2FB0323 		umull	r2, r3, r2, r3
 1331 0032 DB08     		lsrs	r3, r3, #3
 1332 0034 334A     		ldr	r2, .L118+12
 1333 0036 1360     		str	r3, [r2]
 1334              	.L111:
 839:..\..\..\..\..\..\uCOS-III\Source/os_tmr.c ****     }
 840:..\..\..\..\..\..\uCOS-III\Source/os_tmr.c ****     OSTmrUpdateCtr   = OSTmrUpdateCnt;
 1335              		.loc 1 840 0
 1336 0038 324B     		ldr	r3, .L118+12
 1337 003a 1B68     		ldr	r3, [r3]
 1338 003c 334A     		ldr	r2, .L118+20
 1339 003e 1360     		str	r3, [r2]
 841:..\..\..\..\..\..\uCOS-III\Source/os_tmr.c **** 
 842:..\..\..\..\..\..\uCOS-III\Source/os_tmr.c ****     OSTmrTickCtr     = (OS_TICK)0;
 1340              		.loc 1 842 0
 1341 0040 334B     		ldr	r3, .L118+24
 1342 0042 0022     		movs	r2, #0
 1343 0044 1A60     		str	r2, [r3]
 843:..\..\..\..\..\..\uCOS-III\Source/os_tmr.c **** 
 844:..\..\..\..\..\..\uCOS-III\Source/os_tmr.c ****     OSTmrTaskTimeMax = (CPU_TS)0;
 1344              		.loc 1 844 0
 1345 0046 334B     		ldr	r3, .L118+28
 1346 0048 0022     		movs	r2, #0
 1347 004a 1A60     		str	r2, [r3]
 845:..\..\..\..\..\..\uCOS-III\Source/os_tmr.c **** 
 846:..\..\..\..\..\..\uCOS-III\Source/os_tmr.c ****     for (i = 0u; i < OSCfg_TmrWheelSize; i++) {
 1348              		.loc 1 846 0
 1349 004c 0023     		movs	r3, #0
 1350 004e FB81     		strh	r3, [r7, #14]	@ movhi
 1351 0050 10E0     		b	.L112
 1352              	.L113:
 847:..\..\..\..\..\..\uCOS-III\Source/os_tmr.c ****         p_spoke                = &OSCfg_TmrWheel[i];
 1353              		.loc 1 847 0 discriminator 3
 1354 0052 FB89     		ldrh	r3, [r7, #14]
 1355 0054 DB00     		lsls	r3, r3, #3
 1356 0056 304A     		ldr	r2, .L118+32
 1357 0058 1344     		add	r3, r3, r2
 1358 005a BB60     		str	r3, [r7, #8]
ARM GAS  C:\Users\alex\AppData\Local\Temp\ccByxCIb.s 			page 40


 848:..\..\..\..\..\..\uCOS-III\Source/os_tmr.c ****         p_spoke->NbrEntries    = (OS_OBJ_QTY)0;
 1359              		.loc 1 848 0 discriminator 3
 1360 005c BB68     		ldr	r3, [r7, #8]
 1361 005e 0022     		movs	r2, #0
 1362 0060 9A80     		strh	r2, [r3, #4]	@ movhi
 849:..\..\..\..\..\..\uCOS-III\Source/os_tmr.c ****         p_spoke->NbrEntriesMax = (OS_OBJ_QTY)0;
 1363              		.loc 1 849 0 discriminator 3
 1364 0062 BB68     		ldr	r3, [r7, #8]
 1365 0064 0022     		movs	r2, #0
 1366 0066 DA80     		strh	r2, [r3, #6]	@ movhi
 850:..\..\..\..\..\..\uCOS-III\Source/os_tmr.c ****         p_spoke->FirstPtr      = (OS_TMR   *)0;
 1367              		.loc 1 850 0 discriminator 3
 1368 0068 BB68     		ldr	r3, [r7, #8]
 1369 006a 0022     		movs	r2, #0
 1370 006c 1A60     		str	r2, [r3]
 846:..\..\..\..\..\..\uCOS-III\Source/os_tmr.c ****         p_spoke                = &OSCfg_TmrWheel[i];
 1371              		.loc 1 846 0 discriminator 3
 1372 006e FB89     		ldrh	r3, [r7, #14]
 1373 0070 0133     		adds	r3, r3, #1
 1374 0072 FB81     		strh	r3, [r7, #14]	@ movhi
 1375              	.L112:
 846:..\..\..\..\..\..\uCOS-III\Source/os_tmr.c ****         p_spoke                = &OSCfg_TmrWheel[i];
 1376              		.loc 1 846 0 is_stmt 0 discriminator 1
 1377 0074 294B     		ldr	r3, .L118+36
 1378 0076 1B88     		ldrh	r3, [r3]
 1379 0078 FA89     		ldrh	r2, [r7, #14]
 1380 007a 9A42     		cmp	r2, r3
 1381 007c E9D3     		bcc	.L113
 851:..\..\..\..\..\..\uCOS-III\Source/os_tmr.c ****     }
 852:..\..\..\..\..\..\uCOS-III\Source/os_tmr.c **** 
 853:..\..\..\..\..\..\uCOS-III\Source/os_tmr.c ****                                                             /* ---------------- CREATE THE TIMER TA
 854:..\..\..\..\..\..\uCOS-III\Source/os_tmr.c ****     if (OSCfg_TmrTaskStkBasePtr == (CPU_STK*)0) {
 1382              		.loc 1 854 0 is_stmt 1
 1383 007e 284B     		ldr	r3, .L118+40
 1384 0080 1B68     		ldr	r3, [r3]
 1385 0082 002B     		cmp	r3, #0
 1386 0084 04D1     		bne	.L114
 855:..\..\..\..\..\..\uCOS-III\Source/os_tmr.c ****        *p_err = OS_ERR_TMR_STK_INVALID;
 1387              		.loc 1 855 0
 1388 0086 7B68     		ldr	r3, [r7, #4]
 1389 0088 47F24732 		movw	r2, #29511
 1390 008c 1A80     		strh	r2, [r3]	@ movhi
 856:..\..\..\..\..\..\uCOS-III\Source/os_tmr.c ****         return;
 1391              		.loc 1 856 0
 1392 008e 2FE0     		b	.L109
 1393              	.L114:
 857:..\..\..\..\..\..\uCOS-III\Source/os_tmr.c ****     }
 858:..\..\..\..\..\..\uCOS-III\Source/os_tmr.c **** 
 859:..\..\..\..\..\..\uCOS-III\Source/os_tmr.c ****     if (OSCfg_TmrTaskStkSize < OSCfg_StkSizeMin) {
 1394              		.loc 1 859 0
 1395 0090 244B     		ldr	r3, .L118+44
 1396 0092 1A68     		ldr	r2, [r3]
 1397 0094 244B     		ldr	r3, .L118+48
 1398 0096 1B68     		ldr	r3, [r3]
 1399 0098 9A42     		cmp	r2, r3
 1400 009a 04D2     		bcs	.L116
 860:..\..\..\..\..\..\uCOS-III\Source/os_tmr.c ****        *p_err = OS_ERR_TMR_STK_SIZE_INVALID;
ARM GAS  C:\Users\alex\AppData\Local\Temp\ccByxCIb.s 			page 41


 1401              		.loc 1 860 0
 1402 009c 7B68     		ldr	r3, [r7, #4]
 1403 009e 47F24832 		movw	r2, #29512
 1404 00a2 1A80     		strh	r2, [r3]	@ movhi
 861:..\..\..\..\..\..\uCOS-III\Source/os_tmr.c ****         return;
 1405              		.loc 1 861 0
 1406 00a4 24E0     		b	.L109
 1407              	.L116:
 862:..\..\..\..\..\..\uCOS-III\Source/os_tmr.c ****     }
 863:..\..\..\..\..\..\uCOS-III\Source/os_tmr.c **** 
 864:..\..\..\..\..\..\uCOS-III\Source/os_tmr.c ****     if (OSCfg_TmrTaskPrio >= (OS_CFG_PRIO_MAX - 1u)) {
 1408              		.loc 1 864 0
 1409 00a6 214B     		ldr	r3, .L118+52
 1410 00a8 1B78     		ldrb	r3, [r3]	@ zero_extendqisi2
 1411 00aa 062B     		cmp	r3, #6
 1412 00ac 04D9     		bls	.L117
 865:..\..\..\..\..\..\uCOS-III\Source/os_tmr.c ****        *p_err = OS_ERR_TMR_PRIO_INVALID;
 1413              		.loc 1 865 0
 1414 00ae 7B68     		ldr	r3, [r7, #4]
 1415 00b0 47F24632 		movw	r2, #29510
 1416 00b4 1A80     		strh	r2, [r3]	@ movhi
 866:..\..\..\..\..\..\uCOS-III\Source/os_tmr.c ****         return;
 1417              		.loc 1 866 0
 1418 00b6 1BE0     		b	.L109
 1419              	.L117:
 867:..\..\..\..\..\..\uCOS-III\Source/os_tmr.c ****     }
 868:..\..\..\..\..\..\uCOS-III\Source/os_tmr.c **** 
 869:..\..\..\..\..\..\uCOS-III\Source/os_tmr.c ****     OSTaskCreate((OS_TCB     *)&OSTmrTaskTCB,
 1420              		.loc 1 869 0
 1421 00b8 1C4B     		ldr	r3, .L118+52
 1422 00ba 1B78     		ldrb	r3, [r3]	@ zero_extendqisi2
 1423 00bc 184A     		ldr	r2, .L118+40
 1424 00be 1268     		ldr	r2, [r2]
 1425 00c0 1B49     		ldr	r1, .L118+56
 1426 00c2 0968     		ldr	r1, [r1]
 1427 00c4 1748     		ldr	r0, .L118+44
 1428 00c6 0068     		ldr	r0, [r0]
 1429 00c8 7C68     		ldr	r4, [r7, #4]
 1430 00ca 0894     		str	r4, [sp, #32]
 1431 00cc 0B24     		movs	r4, #11
 1432 00ce 0794     		str	r4, [sp, #28]
 1433 00d0 0024     		movs	r4, #0
 1434 00d2 0694     		str	r4, [sp, #24]
 1435 00d4 0024     		movs	r4, #0
 1436 00d6 0594     		str	r4, [sp, #20]
 1437 00d8 0024     		movs	r4, #0
 1438 00da 0494     		str	r4, [sp, #16]
 1439 00dc 0390     		str	r0, [sp, #12]
 1440 00de 0291     		str	r1, [sp, #8]
 1441 00e0 0192     		str	r2, [sp, #4]
 1442 00e2 0093     		str	r3, [sp]
 1443 00e4 0023     		movs	r3, #0
 1444 00e6 134A     		ldr	r2, .L118+60
 1445 00e8 1349     		ldr	r1, .L118+64
 1446 00ea 1448     		ldr	r0, .L118+68
 1447 00ec FFF7FEFF 		bl	OSTaskCreate
 1448              	.L109:
ARM GAS  C:\Users\alex\AppData\Local\Temp\ccByxCIb.s 			page 42


 870:..\..\..\..\..\..\uCOS-III\Source/os_tmr.c ****                  (CPU_CHAR   *)((void *)"uC/OS-III Timer Task"),
 871:..\..\..\..\..\..\uCOS-III\Source/os_tmr.c ****                  (OS_TASK_PTR )OS_TmrTask,
 872:..\..\..\..\..\..\uCOS-III\Source/os_tmr.c ****                  (void       *)0,
 873:..\..\..\..\..\..\uCOS-III\Source/os_tmr.c ****                  (OS_PRIO     )OSCfg_TmrTaskPrio,
 874:..\..\..\..\..\..\uCOS-III\Source/os_tmr.c ****                  (CPU_STK    *)OSCfg_TmrTaskStkBasePtr,
 875:..\..\..\..\..\..\uCOS-III\Source/os_tmr.c ****                  (CPU_STK_SIZE)OSCfg_TmrTaskStkLimit,
 876:..\..\..\..\..\..\uCOS-III\Source/os_tmr.c ****                  (CPU_STK_SIZE)OSCfg_TmrTaskStkSize,
 877:..\..\..\..\..\..\uCOS-III\Source/os_tmr.c ****                  (OS_MSG_QTY  )0,
 878:..\..\..\..\..\..\uCOS-III\Source/os_tmr.c ****                  (OS_TICK     )0,
 879:..\..\..\..\..\..\uCOS-III\Source/os_tmr.c ****                  (void       *)0,
 880:..\..\..\..\..\..\uCOS-III\Source/os_tmr.c ****                  (OS_OPT      )(OS_OPT_TASK_STK_CHK | OS_OPT_TASK_STK_CLR | OS_OPT_TASK_NO_TLS),
 881:..\..\..\..\..\..\uCOS-III\Source/os_tmr.c ****                  (OS_ERR     *)p_err);
 882:..\..\..\..\..\..\uCOS-III\Source/os_tmr.c **** }
 1449              		.loc 1 882 0
 1450 00f0 1437     		adds	r7, r7, #20
 1451              		.cfi_def_cfa_offset 12
 1452 00f2 BD46     		mov	sp, r7
 1453              		.cfi_def_cfa_register 13
 1454              		@ sp needed
 1455 00f4 90BD     		pop	{r4, r7, pc}
 1456              	.L119:
 1457 00f6 00BF     		.align	2
 1458              	.L118:
 1459 00f8 00000000 		.word	OSTmrDbgListPtr
 1460 00fc 00000000 		.word	OSCfg_TmrTaskRate_Hz
 1461 0100 00000000 		.word	OSCfg_TickRate_Hz
 1462 0104 00000000 		.word	OSTmrUpdateCnt
 1463 0108 CDCCCCCC 		.word	-858993459
 1464 010c 00000000 		.word	OSTmrUpdateCtr
 1465 0110 00000000 		.word	OSTmrTickCtr
 1466 0114 00000000 		.word	OSTmrTaskTimeMax
 1467 0118 00000000 		.word	OSCfg_TmrWheel
 1468 011c 00000000 		.word	OSCfg_TmrWheelSize
 1469 0120 00000000 		.word	OSCfg_TmrTaskStkBasePtr
 1470 0124 00000000 		.word	OSCfg_TmrTaskStkSize
 1471 0128 00000000 		.word	OSCfg_StkSizeMin
 1472 012c 00000000 		.word	OSCfg_TmrTaskPrio
 1473 0130 00000000 		.word	OSCfg_TmrTaskStkLimit
 1474 0134 00000000 		.word	OS_TmrTask
 1475 0138 08000000 		.word	.LC1
 1476 013c 00000000 		.word	OSTmrTaskTCB
 1477              		.cfi_endproc
 1478              	.LFE9:
 1479              		.size	OS_TmrInit, .-OS_TmrInit
 1480              		.section	.text.OS_TmrLink,"ax",%progbits
 1481              		.align	2
 1482              		.global	OS_TmrLink
 1483              		.thumb
 1484              		.thumb_func
 1485              		.type	OS_TmrLink, %function
 1486              	OS_TmrLink:
 1487              	.LFB10:
 883:..\..\..\..\..\..\uCOS-III\Source/os_tmr.c **** 
 884:..\..\..\..\..\..\uCOS-III\Source/os_tmr.c **** /*$PAGE*/
 885:..\..\..\..\..\..\uCOS-III\Source/os_tmr.c **** /*
 886:..\..\..\..\..\..\uCOS-III\Source/os_tmr.c **** ***************************************************************************************************
 887:..\..\..\..\..\..\uCOS-III\Source/os_tmr.c **** *                                         INSERT A TIMER INTO THE TIMER WHEEL
ARM GAS  C:\Users\alex\AppData\Local\Temp\ccByxCIb.s 			page 43


 888:..\..\..\..\..\..\uCOS-III\Source/os_tmr.c **** *
 889:..\..\..\..\..\..\uCOS-III\Source/os_tmr.c **** * Description: This function is called to insert the timer into the timer wheel.  The timer is alwa
 890:..\..\..\..\..\..\uCOS-III\Source/os_tmr.c **** *              beginning of the list.
 891:..\..\..\..\..\..\uCOS-III\Source/os_tmr.c **** *
 892:..\..\..\..\..\..\uCOS-III\Source/os_tmr.c **** * Arguments  : p_tmr          Is a pointer to the timer to insert.
 893:..\..\..\..\..\..\uCOS-III\Source/os_tmr.c **** *              -----
 894:..\..\..\..\..\..\uCOS-III\Source/os_tmr.c **** *
 895:..\..\..\..\..\..\uCOS-III\Source/os_tmr.c **** *              opt            Is either:
 896:..\..\..\..\..\..\uCOS-III\Source/os_tmr.c **** *
 897:..\..\..\..\..\..\uCOS-III\Source/os_tmr.c **** *                               OS_OPT_LINK_PERIODIC    Means to re-insert the timer after a period
 898:..\..\..\..\..\..\uCOS-III\Source/os_tmr.c **** *                               OS_OPT_LINK_DLY         Means to insert    the timer the first time
 899:..\..\..\..\..\..\uCOS-III\Source/os_tmr.c **** *
 900:..\..\..\..\..\..\uCOS-III\Source/os_tmr.c **** * Returns    : none
 901:..\..\..\..\..\..\uCOS-III\Source/os_tmr.c **** *
 902:..\..\..\..\..\..\uCOS-III\Source/os_tmr.c **** * Note(s)    : 1) This function is INTERNAL to uC/OS-III and your application MUST NOT call it.
 903:..\..\..\..\..\..\uCOS-III\Source/os_tmr.c **** ***************************************************************************************************
 904:..\..\..\..\..\..\uCOS-III\Source/os_tmr.c **** */
 905:..\..\..\..\..\..\uCOS-III\Source/os_tmr.c **** 
 906:..\..\..\..\..\..\uCOS-III\Source/os_tmr.c **** void  OS_TmrLink (OS_TMR  *p_tmr,
 907:..\..\..\..\..\..\uCOS-III\Source/os_tmr.c ****                   OS_OPT   opt)
 908:..\..\..\..\..\..\uCOS-III\Source/os_tmr.c **** {
 1488              		.loc 1 908 0
 1489              		.cfi_startproc
 1490              		@ args = 0, pretend = 0, frame = 24
 1491              		@ frame_needed = 1, uses_anonymous_args = 0
 1492              		@ link register save eliminated.
 1493 0000 80B4     		push	{r7}
 1494              		.cfi_def_cfa_offset 4
 1495              		.cfi_offset 7, -4
 1496 0002 87B0     		sub	sp, sp, #28
 1497              		.cfi_def_cfa_offset 32
 1498 0004 00AF     		add	r7, sp, #0
 1499              		.cfi_def_cfa_register 7
 1500 0006 7860     		str	r0, [r7, #4]
 1501 0008 0B46     		mov	r3, r1
 1502 000a 7B80     		strh	r3, [r7, #2]	@ movhi
 909:..\..\..\..\..\..\uCOS-III\Source/os_tmr.c ****     OS_TMR_SPOKE     *p_spoke;
 910:..\..\..\..\..\..\uCOS-III\Source/os_tmr.c ****     OS_TMR           *p_tmr0;
 911:..\..\..\..\..\..\uCOS-III\Source/os_tmr.c ****     OS_TMR           *p_tmr1;
 912:..\..\..\..\..\..\uCOS-III\Source/os_tmr.c ****     OS_TMR_SPOKE_IX   spoke;
 913:..\..\..\..\..\..\uCOS-III\Source/os_tmr.c **** 
 914:..\..\..\..\..\..\uCOS-III\Source/os_tmr.c **** 
 915:..\..\..\..\..\..\uCOS-III\Source/os_tmr.c **** 
 916:..\..\..\..\..\..\uCOS-III\Source/os_tmr.c ****     p_tmr->State = OS_TMR_STATE_RUNNING;
 1503              		.loc 1 916 0
 1504 000c 7B68     		ldr	r3, [r7, #4]
 1505 000e 0222     		movs	r2, #2
 1506 0010 83F82A20 		strb	r2, [r3, #42]
 917:..\..\..\..\..\..\uCOS-III\Source/os_tmr.c ****     if (opt == OS_OPT_LINK_PERIODIC) {                      /* Determine when timer will expire    
 1507              		.loc 1 917 0
 1508 0014 7B88     		ldrh	r3, [r7, #2]
 1509 0016 012B     		cmp	r3, #1
 1510 0018 07D1     		bne	.L121
 918:..\..\..\..\..\..\uCOS-III\Source/os_tmr.c ****         p_tmr->Match = p_tmr->Period + OSTmrTickCtr;
 1511              		.loc 1 918 0
 1512 001a 7B68     		ldr	r3, [r7, #4]
 1513 001c 5A6A     		ldr	r2, [r3, #36]
ARM GAS  C:\Users\alex\AppData\Local\Temp\ccByxCIb.s 			page 44


 1514 001e 4F4B     		ldr	r3, .L135
 1515 0020 1B68     		ldr	r3, [r3]
 1516 0022 1A44     		add	r2, r2, r3
 1517 0024 7B68     		ldr	r3, [r7, #4]
 1518 0026 9A61     		str	r2, [r3, #24]
 1519 0028 12E0     		b	.L122
 1520              	.L121:
 919:..\..\..\..\..\..\uCOS-III\Source/os_tmr.c ****     } else {
 920:..\..\..\..\..\..\uCOS-III\Source/os_tmr.c ****         if (p_tmr->Dly == (OS_TICK)0) {
 1521              		.loc 1 920 0
 1522 002a 7B68     		ldr	r3, [r7, #4]
 1523 002c 1B6A     		ldr	r3, [r3, #32]
 1524 002e 002B     		cmp	r3, #0
 1525 0030 07D1     		bne	.L123
 921:..\..\..\..\..\..\uCOS-III\Source/os_tmr.c ****             p_tmr->Match = p_tmr->Period + OSTmrTickCtr;
 1526              		.loc 1 921 0
 1527 0032 7B68     		ldr	r3, [r7, #4]
 1528 0034 5A6A     		ldr	r2, [r3, #36]
 1529 0036 494B     		ldr	r3, .L135
 1530 0038 1B68     		ldr	r3, [r3]
 1531 003a 1A44     		add	r2, r2, r3
 1532 003c 7B68     		ldr	r3, [r7, #4]
 1533 003e 9A61     		str	r2, [r3, #24]
 1534 0040 06E0     		b	.L122
 1535              	.L123:
 922:..\..\..\..\..\..\uCOS-III\Source/os_tmr.c ****         } else {
 923:..\..\..\..\..\..\uCOS-III\Source/os_tmr.c ****             p_tmr->Match = p_tmr->Dly    + OSTmrTickCtr;
 1536              		.loc 1 923 0
 1537 0042 7B68     		ldr	r3, [r7, #4]
 1538 0044 1A6A     		ldr	r2, [r3, #32]
 1539 0046 454B     		ldr	r3, .L135
 1540 0048 1B68     		ldr	r3, [r3]
 1541 004a 1A44     		add	r2, r2, r3
 1542 004c 7B68     		ldr	r3, [r7, #4]
 1543 004e 9A61     		str	r2, [r3, #24]
 1544              	.L122:
 924:..\..\..\..\..\..\uCOS-III\Source/os_tmr.c ****         }
 925:..\..\..\..\..\..\uCOS-III\Source/os_tmr.c ****     }
 926:..\..\..\..\..\..\uCOS-III\Source/os_tmr.c ****     spoke  = (OS_TMR_SPOKE_IX)(p_tmr->Match % OSCfg_TmrWheelSize);
 1545              		.loc 1 926 0
 1546 0050 7B68     		ldr	r3, [r7, #4]
 1547 0052 9B69     		ldr	r3, [r3, #24]
 1548 0054 424A     		ldr	r2, .L135+4
 1549 0056 1288     		ldrh	r2, [r2]
 1550 0058 B3FBF2F1 		udiv	r1, r3, r2
 1551 005c 02FB01F2 		mul	r2, r2, r1
 1552 0060 9B1A     		subs	r3, r3, r2
 1553 0062 7B82     		strh	r3, [r7, #18]	@ movhi
 927:..\..\..\..\..\..\uCOS-III\Source/os_tmr.c ****     p_spoke = &OSCfg_TmrWheel[spoke];
 1554              		.loc 1 927 0
 1555 0064 7B8A     		ldrh	r3, [r7, #18]
 1556 0066 DB00     		lsls	r3, r3, #3
 1557 0068 3E4A     		ldr	r2, .L135+8
 1558 006a 1344     		add	r3, r3, r2
 1559 006c FB60     		str	r3, [r7, #12]
 928:..\..\..\..\..\..\uCOS-III\Source/os_tmr.c **** 
 929:..\..\..\..\..\..\uCOS-III\Source/os_tmr.c ****     if (p_spoke->FirstPtr ==  (OS_TMR *)0) {                /* Link into timer wheel               
ARM GAS  C:\Users\alex\AppData\Local\Temp\ccByxCIb.s 			page 45


 1560              		.loc 1 929 0
 1561 006e FB68     		ldr	r3, [r7, #12]
 1562 0070 1B68     		ldr	r3, [r3]
 1563 0072 002B     		cmp	r3, #0
 1564 0074 0CD1     		bne	.L124
 930:..\..\..\..\..\..\uCOS-III\Source/os_tmr.c ****         p_tmr->NextPtr      = (OS_TMR *)0;
 1565              		.loc 1 930 0
 1566 0076 7B68     		ldr	r3, [r7, #4]
 1567 0078 0022     		movs	r2, #0
 1568 007a 1A61     		str	r2, [r3, #16]
 931:..\..\..\..\..\..\uCOS-III\Source/os_tmr.c ****         p_tmr->PrevPtr      = (OS_TMR *)0;
 1569              		.loc 1 931 0
 1570 007c 7B68     		ldr	r3, [r7, #4]
 1571 007e 0022     		movs	r2, #0
 1572 0080 5A61     		str	r2, [r3, #20]
 932:..\..\..\..\..\..\uCOS-III\Source/os_tmr.c ****         p_spoke->FirstPtr   = p_tmr;
 1573              		.loc 1 932 0
 1574 0082 FB68     		ldr	r3, [r7, #12]
 1575 0084 7A68     		ldr	r2, [r7, #4]
 1576 0086 1A60     		str	r2, [r3]
 933:..\..\..\..\..\..\uCOS-III\Source/os_tmr.c ****         p_spoke->NbrEntries = 1u;
 1577              		.loc 1 933 0
 1578 0088 FB68     		ldr	r3, [r7, #12]
 1579 008a 0122     		movs	r2, #1
 1580 008c 9A80     		strh	r2, [r3, #4]	@ movhi
 1581 008e 56E0     		b	.L125
 1582              	.L124:
 934:..\..\..\..\..\..\uCOS-III\Source/os_tmr.c ****     } else {
 935:..\..\..\..\..\..\uCOS-III\Source/os_tmr.c ****         p_tmr->Remain  = p_tmr->Match                       /* Compute remaining time for timer    
 1583              		.loc 1 935 0
 1584 0090 7B68     		ldr	r3, [r7, #4]
 1585 0092 9A69     		ldr	r2, [r3, #24]
 936:..\..\..\..\..\..\uCOS-III\Source/os_tmr.c ****                        - OSTmrTickCtr;
 1586              		.loc 1 936 0
 1587 0094 314B     		ldr	r3, .L135
 1588 0096 1B68     		ldr	r3, [r3]
 1589 0098 D21A     		subs	r2, r2, r3
 935:..\..\..\..\..\..\uCOS-III\Source/os_tmr.c ****                        - OSTmrTickCtr;
 1590              		.loc 1 935 0
 1591 009a 7B68     		ldr	r3, [r7, #4]
 1592 009c DA61     		str	r2, [r3, #28]
 937:..\..\..\..\..\..\uCOS-III\Source/os_tmr.c ****         p_tmr1         = p_spoke->FirstPtr;                 /* Point to current first timer in the 
 1593              		.loc 1 937 0
 1594 009e FB68     		ldr	r3, [r7, #12]
 1595 00a0 1B68     		ldr	r3, [r3]
 1596 00a2 7B61     		str	r3, [r7, #20]
 938:..\..\..\..\..\..\uCOS-III\Source/os_tmr.c ****         while (p_tmr1 != (OS_TMR *)0) {
 1597              		.loc 1 938 0
 1598 00a4 42E0     		b	.L126
 1599              	.L132:
 939:..\..\..\..\..\..\uCOS-III\Source/os_tmr.c ****             p_tmr1->Remain = p_tmr1->Match                  /* Compute time remaining of current ti
 1600              		.loc 1 939 0
 1601 00a6 7B69     		ldr	r3, [r7, #20]
 1602 00a8 9A69     		ldr	r2, [r3, #24]
 940:..\..\..\..\..\..\uCOS-III\Source/os_tmr.c ****                            - OSTmrTickCtr;
 1603              		.loc 1 940 0
 1604 00aa 2C4B     		ldr	r3, .L135
ARM GAS  C:\Users\alex\AppData\Local\Temp\ccByxCIb.s 			page 46


 1605 00ac 1B68     		ldr	r3, [r3]
 1606 00ae D21A     		subs	r2, r2, r3
 939:..\..\..\..\..\..\uCOS-III\Source/os_tmr.c ****             p_tmr1->Remain = p_tmr1->Match                  /* Compute time remaining of current ti
 1607              		.loc 1 939 0
 1608 00b0 7B69     		ldr	r3, [r7, #20]
 1609 00b2 DA61     		str	r2, [r3, #28]
 941:..\..\..\..\..\..\uCOS-III\Source/os_tmr.c ****             if (p_tmr->Remain > p_tmr1->Remain) {           /* Do we need to insert AFTER current t
 1610              		.loc 1 941 0
 1611 00b4 7B68     		ldr	r3, [r7, #4]
 1612 00b6 DA69     		ldr	r2, [r3, #28]
 1613 00b8 7B69     		ldr	r3, [r7, #20]
 1614 00ba DB69     		ldr	r3, [r3, #28]
 1615 00bc 9A42     		cmp	r2, r3
 1616 00be 13D9     		bls	.L127
 942:..\..\..\..\..\..\uCOS-III\Source/os_tmr.c ****                 if (p_tmr1->NextPtr  != (OS_TMR *)0) {      /* Yes, are we pointing at the last tim
 1617              		.loc 1 942 0
 1618 00c0 7B69     		ldr	r3, [r7, #20]
 1619 00c2 1B69     		ldr	r3, [r3, #16]
 1620 00c4 002B     		cmp	r3, #0
 1621 00c6 03D0     		beq	.L128
 943:..\..\..\..\..\..\uCOS-III\Source/os_tmr.c ****                     p_tmr1            = p_tmr1->NextPtr;    /* No,  Point to next timer in the list
 1622              		.loc 1 943 0
 1623 00c8 7B69     		ldr	r3, [r7, #20]
 1624 00ca 1B69     		ldr	r3, [r3, #16]
 1625 00cc 7B61     		str	r3, [r7, #20]
 1626 00ce 2DE0     		b	.L126
 1627              	.L128:
 944:..\..\..\..\..\..\uCOS-III\Source/os_tmr.c ****                 } else {
 945:..\..\..\..\..\..\uCOS-III\Source/os_tmr.c ****                     p_tmr->NextPtr    = (OS_TMR *)0;
 1628              		.loc 1 945 0
 1629 00d0 7B68     		ldr	r3, [r7, #4]
 1630 00d2 0022     		movs	r2, #0
 1631 00d4 1A61     		str	r2, [r3, #16]
 946:..\..\..\..\..\..\uCOS-III\Source/os_tmr.c ****                     p_tmr->PrevPtr    =  p_tmr1;
 1632              		.loc 1 946 0
 1633 00d6 7B68     		ldr	r3, [r7, #4]
 1634 00d8 7A69     		ldr	r2, [r7, #20]
 1635 00da 5A61     		str	r2, [r3, #20]
 947:..\..\..\..\..\..\uCOS-III\Source/os_tmr.c ****                     p_tmr1->NextPtr   =  p_tmr;             /* Yes, timer to insert is now new last
 1636              		.loc 1 947 0
 1637 00dc 7B69     		ldr	r3, [r7, #20]
 1638 00de 7A68     		ldr	r2, [r7, #4]
 1639 00e0 1A61     		str	r2, [r3, #16]
 948:..\..\..\..\..\..\uCOS-III\Source/os_tmr.c ****                     p_tmr1            = (OS_TMR *)0;        /* Break loop                          
 1640              		.loc 1 948 0
 1641 00e2 0023     		movs	r3, #0
 1642 00e4 7B61     		str	r3, [r7, #20]
 1643 00e6 21E0     		b	.L126
 1644              	.L127:
 949:..\..\..\..\..\..\uCOS-III\Source/os_tmr.c ****                 }
 950:..\..\..\..\..\..\uCOS-III\Source/os_tmr.c ****             } else {                                        /* Insert before the current timer     
 951:..\..\..\..\..\..\uCOS-III\Source/os_tmr.c ****                 if (p_tmr1->PrevPtr == (OS_TMR *)0) {       /* Are we inserting before the first ti
 1645              		.loc 1 951 0
 1646 00e8 7B69     		ldr	r3, [r7, #20]
 1647 00ea 5B69     		ldr	r3, [r3, #20]
 1648 00ec 002B     		cmp	r3, #0
 1649 00ee 0CD1     		bne	.L130
ARM GAS  C:\Users\alex\AppData\Local\Temp\ccByxCIb.s 			page 47


 952:..\..\..\..\..\..\uCOS-III\Source/os_tmr.c ****                     p_tmr->PrevPtr    = (OS_TMR *)0;
 1650              		.loc 1 952 0
 1651 00f0 7B68     		ldr	r3, [r7, #4]
 1652 00f2 0022     		movs	r2, #0
 1653 00f4 5A61     		str	r2, [r3, #20]
 953:..\..\..\..\..\..\uCOS-III\Source/os_tmr.c ****                     p_tmr->NextPtr    = p_tmr1;
 1654              		.loc 1 953 0
 1655 00f6 7B68     		ldr	r3, [r7, #4]
 1656 00f8 7A69     		ldr	r2, [r7, #20]
 1657 00fa 1A61     		str	r2, [r3, #16]
 954:..\..\..\..\..\..\uCOS-III\Source/os_tmr.c ****                     p_tmr1->PrevPtr   = p_tmr;
 1658              		.loc 1 954 0
 1659 00fc 7B69     		ldr	r3, [r7, #20]
 1660 00fe 7A68     		ldr	r2, [r7, #4]
 1661 0100 5A61     		str	r2, [r3, #20]
 955:..\..\..\..\..\..\uCOS-III\Source/os_tmr.c ****                     p_spoke->FirstPtr = p_tmr;
 1662              		.loc 1 955 0
 1663 0102 FB68     		ldr	r3, [r7, #12]
 1664 0104 7A68     		ldr	r2, [r7, #4]
 1665 0106 1A60     		str	r2, [r3]
 1666 0108 0EE0     		b	.L131
 1667              	.L130:
 956:..\..\..\..\..\..\uCOS-III\Source/os_tmr.c ****                 } else {                                    /* Insert in between 2 timers already i
 957:..\..\..\..\..\..\uCOS-III\Source/os_tmr.c ****                     p_tmr0            = p_tmr1->PrevPtr;
 1668              		.loc 1 957 0
 1669 010a 7B69     		ldr	r3, [r7, #20]
 1670 010c 5B69     		ldr	r3, [r3, #20]
 1671 010e BB60     		str	r3, [r7, #8]
 958:..\..\..\..\..\..\uCOS-III\Source/os_tmr.c ****                     p_tmr->PrevPtr    = p_tmr0;
 1672              		.loc 1 958 0
 1673 0110 7B68     		ldr	r3, [r7, #4]
 1674 0112 BA68     		ldr	r2, [r7, #8]
 1675 0114 5A61     		str	r2, [r3, #20]
 959:..\..\..\..\..\..\uCOS-III\Source/os_tmr.c ****                     p_tmr->NextPtr    = p_tmr1;
 1676              		.loc 1 959 0
 1677 0116 7B68     		ldr	r3, [r7, #4]
 1678 0118 7A69     		ldr	r2, [r7, #20]
 1679 011a 1A61     		str	r2, [r3, #16]
 960:..\..\..\..\..\..\uCOS-III\Source/os_tmr.c ****                     p_tmr0->NextPtr   = p_tmr;
 1680              		.loc 1 960 0
 1681 011c BB68     		ldr	r3, [r7, #8]
 1682 011e 7A68     		ldr	r2, [r7, #4]
 1683 0120 1A61     		str	r2, [r3, #16]
 961:..\..\..\..\..\..\uCOS-III\Source/os_tmr.c ****                     p_tmr1->PrevPtr   = p_tmr;
 1684              		.loc 1 961 0
 1685 0122 7B69     		ldr	r3, [r7, #20]
 1686 0124 7A68     		ldr	r2, [r7, #4]
 1687 0126 5A61     		str	r2, [r3, #20]
 1688              	.L131:
 962:..\..\..\..\..\..\uCOS-III\Source/os_tmr.c ****                 }
 963:..\..\..\..\..\..\uCOS-III\Source/os_tmr.c ****                 p_tmr1 = (OS_TMR *)0;                       /* Break loop                          
 1689              		.loc 1 963 0
 1690 0128 0023     		movs	r3, #0
 1691 012a 7B61     		str	r3, [r7, #20]
 1692              	.L126:
 938:..\..\..\..\..\..\uCOS-III\Source/os_tmr.c ****             p_tmr1->Remain = p_tmr1->Match                  /* Compute time remaining of current ti
 1693              		.loc 1 938 0
ARM GAS  C:\Users\alex\AppData\Local\Temp\ccByxCIb.s 			page 48


 1694 012c 7B69     		ldr	r3, [r7, #20]
 1695 012e 002B     		cmp	r3, #0
 1696 0130 B9D1     		bne	.L132
 964:..\..\..\..\..\..\uCOS-III\Source/os_tmr.c ****             }
 965:..\..\..\..\..\..\uCOS-III\Source/os_tmr.c ****         }
 966:..\..\..\..\..\..\uCOS-III\Source/os_tmr.c ****         p_spoke->NbrEntries++;
 1697              		.loc 1 966 0
 1698 0132 FB68     		ldr	r3, [r7, #12]
 1699 0134 9B88     		ldrh	r3, [r3, #4]
 1700 0136 0133     		adds	r3, r3, #1
 1701 0138 9AB2     		uxth	r2, r3
 1702 013a FB68     		ldr	r3, [r7, #12]
 1703 013c 9A80     		strh	r2, [r3, #4]	@ movhi
 1704              	.L125:
 967:..\..\..\..\..\..\uCOS-III\Source/os_tmr.c ****     }
 968:..\..\..\..\..\..\uCOS-III\Source/os_tmr.c ****     if (p_spoke->NbrEntriesMax < p_spoke->NbrEntries) {     /* Keep track of maximum number of entr
 1705              		.loc 1 968 0
 1706 013e FB68     		ldr	r3, [r7, #12]
 1707 0140 DA88     		ldrh	r2, [r3, #6]
 1708 0142 FB68     		ldr	r3, [r7, #12]
 1709 0144 9B88     		ldrh	r3, [r3, #4]
 1710 0146 9A42     		cmp	r2, r3
 1711 0148 03D2     		bcs	.L134
 969:..\..\..\..\..\..\uCOS-III\Source/os_tmr.c ****         p_spoke->NbrEntriesMax = p_spoke->NbrEntries;
 1712              		.loc 1 969 0
 1713 014a FB68     		ldr	r3, [r7, #12]
 1714 014c 9A88     		ldrh	r2, [r3, #4]
 1715 014e FB68     		ldr	r3, [r7, #12]
 1716 0150 DA80     		strh	r2, [r3, #6]	@ movhi
 1717              	.L134:
 970:..\..\..\..\..\..\uCOS-III\Source/os_tmr.c ****     }
 971:..\..\..\..\..\..\uCOS-III\Source/os_tmr.c **** }
 1718              		.loc 1 971 0
 1719 0152 00BF     		nop
 1720 0154 1C37     		adds	r7, r7, #28
 1721              		.cfi_def_cfa_offset 4
 1722 0156 BD46     		mov	sp, r7
 1723              		.cfi_def_cfa_register 13
 1724              		@ sp needed
 1725 0158 80BC     		pop	{r7}
 1726              		.cfi_restore 7
 1727              		.cfi_def_cfa_offset 0
 1728 015a 7047     		bx	lr
 1729              	.L136:
 1730              		.align	2
 1731              	.L135:
 1732 015c 00000000 		.word	OSTmrTickCtr
 1733 0160 00000000 		.word	OSCfg_TmrWheelSize
 1734 0164 00000000 		.word	OSCfg_TmrWheel
 1735              		.cfi_endproc
 1736              	.LFE10:
 1737              		.size	OS_TmrLink, .-OS_TmrLink
 1738              		.section	.text.OS_TmrResetPeak,"ax",%progbits
 1739              		.align	2
 1740              		.global	OS_TmrResetPeak
 1741              		.thumb
 1742              		.thumb_func
ARM GAS  C:\Users\alex\AppData\Local\Temp\ccByxCIb.s 			page 49


 1743              		.type	OS_TmrResetPeak, %function
 1744              	OS_TmrResetPeak:
 1745              	.LFB11:
 972:..\..\..\..\..\..\uCOS-III\Source/os_tmr.c **** 
 973:..\..\..\..\..\..\uCOS-III\Source/os_tmr.c **** /*$PAGE*/
 974:..\..\..\..\..\..\uCOS-III\Source/os_tmr.c **** /*
 975:..\..\..\..\..\..\uCOS-III\Source/os_tmr.c **** ***************************************************************************************************
 976:..\..\..\..\..\..\uCOS-III\Source/os_tmr.c **** *                                              RESET TIMER LIST PEAK DETECTOR
 977:..\..\..\..\..\..\uCOS-III\Source/os_tmr.c **** *
 978:..\..\..\..\..\..\uCOS-III\Source/os_tmr.c **** * Description: This function is used to reset the peak detector for the number of entries in each s
 979:..\..\..\..\..\..\uCOS-III\Source/os_tmr.c **** *
 980:..\..\..\..\..\..\uCOS-III\Source/os_tmr.c **** * Arguments  : void
 981:..\..\..\..\..\..\uCOS-III\Source/os_tmr.c **** *
 982:..\..\..\..\..\..\uCOS-III\Source/os_tmr.c **** * Returns    : none
 983:..\..\..\..\..\..\uCOS-III\Source/os_tmr.c **** *
 984:..\..\..\..\..\..\uCOS-III\Source/os_tmr.c **** * Note(s)    : This function is INTERNAL to uC/OS-III and your application should not call it.
 985:..\..\..\..\..\..\uCOS-III\Source/os_tmr.c **** ***************************************************************************************************
 986:..\..\..\..\..\..\uCOS-III\Source/os_tmr.c **** */
 987:..\..\..\..\..\..\uCOS-III\Source/os_tmr.c **** 
 988:..\..\..\..\..\..\uCOS-III\Source/os_tmr.c **** void  OS_TmrResetPeak (void)
 989:..\..\..\..\..\..\uCOS-III\Source/os_tmr.c **** {
 1746              		.loc 1 989 0
 1747              		.cfi_startproc
 1748              		@ args = 0, pretend = 0, frame = 8
 1749              		@ frame_needed = 1, uses_anonymous_args = 0
 1750              		@ link register save eliminated.
 1751 0000 80B4     		push	{r7}
 1752              		.cfi_def_cfa_offset 4
 1753              		.cfi_offset 7, -4
 1754 0002 83B0     		sub	sp, sp, #12
 1755              		.cfi_def_cfa_offset 16
 1756 0004 00AF     		add	r7, sp, #0
 1757              		.cfi_def_cfa_register 7
 990:..\..\..\..\..\..\uCOS-III\Source/os_tmr.c ****     OS_TMR_SPOKE     *p_spoke;
 991:..\..\..\..\..\..\uCOS-III\Source/os_tmr.c ****     OS_TMR_SPOKE_IX   i;
 992:..\..\..\..\..\..\uCOS-III\Source/os_tmr.c **** 
 993:..\..\..\..\..\..\uCOS-III\Source/os_tmr.c **** 
 994:..\..\..\..\..\..\uCOS-III\Source/os_tmr.c **** 
 995:..\..\..\..\..\..\uCOS-III\Source/os_tmr.c ****     for (i = 0u; i < OSCfg_TmrWheelSize; i++) {
 1758              		.loc 1 995 0
 1759 0006 0023     		movs	r3, #0
 1760 0008 FB80     		strh	r3, [r7, #6]	@ movhi
 1761 000a 0AE0     		b	.L138
 1762              	.L139:
 996:..\..\..\..\..\..\uCOS-III\Source/os_tmr.c ****         p_spoke                = (OS_TMR_SPOKE *)&OSCfg_TmrWheel[i];
 1763              		.loc 1 996 0 discriminator 3
 1764 000c FB88     		ldrh	r3, [r7, #6]
 1765 000e DB00     		lsls	r3, r3, #3
 1766 0010 094A     		ldr	r2, .L140
 1767 0012 1344     		add	r3, r3, r2
 1768 0014 3B60     		str	r3, [r7]
 997:..\..\..\..\..\..\uCOS-III\Source/os_tmr.c ****         p_spoke->NbrEntriesMax = (OS_OBJ_QTY    )0u;
 1769              		.loc 1 997 0 discriminator 3
 1770 0016 3B68     		ldr	r3, [r7]
 1771 0018 0022     		movs	r2, #0
 1772 001a DA80     		strh	r2, [r3, #6]	@ movhi
 995:..\..\..\..\..\..\uCOS-III\Source/os_tmr.c ****         p_spoke                = (OS_TMR_SPOKE *)&OSCfg_TmrWheel[i];
ARM GAS  C:\Users\alex\AppData\Local\Temp\ccByxCIb.s 			page 50


 1773              		.loc 1 995 0 discriminator 3
 1774 001c FB88     		ldrh	r3, [r7, #6]
 1775 001e 0133     		adds	r3, r3, #1
 1776 0020 FB80     		strh	r3, [r7, #6]	@ movhi
 1777              	.L138:
 995:..\..\..\..\..\..\uCOS-III\Source/os_tmr.c ****         p_spoke                = (OS_TMR_SPOKE *)&OSCfg_TmrWheel[i];
 1778              		.loc 1 995 0 is_stmt 0 discriminator 1
 1779 0022 064B     		ldr	r3, .L140+4
 1780 0024 1B88     		ldrh	r3, [r3]
 1781 0026 FA88     		ldrh	r2, [r7, #6]
 1782 0028 9A42     		cmp	r2, r3
 1783 002a EFD3     		bcc	.L139
 998:..\..\..\..\..\..\uCOS-III\Source/os_tmr.c ****     }
 999:..\..\..\..\..\..\uCOS-III\Source/os_tmr.c **** }
 1784              		.loc 1 999 0 is_stmt 1
 1785 002c 00BF     		nop
 1786 002e 0C37     		adds	r7, r7, #12
 1787              		.cfi_def_cfa_offset 4
 1788 0030 BD46     		mov	sp, r7
 1789              		.cfi_def_cfa_register 13
 1790              		@ sp needed
 1791 0032 80BC     		pop	{r7}
 1792              		.cfi_restore 7
 1793              		.cfi_def_cfa_offset 0
 1794 0034 7047     		bx	lr
 1795              	.L141:
 1796 0036 00BF     		.align	2
 1797              	.L140:
 1798 0038 00000000 		.word	OSCfg_TmrWheel
 1799 003c 00000000 		.word	OSCfg_TmrWheelSize
 1800              		.cfi_endproc
 1801              	.LFE11:
 1802              		.size	OS_TmrResetPeak, .-OS_TmrResetPeak
 1803              		.section	.text.OS_TmrUnlink,"ax",%progbits
 1804              		.align	2
 1805              		.global	OS_TmrUnlink
 1806              		.thumb
 1807              		.thumb_func
 1808              		.type	OS_TmrUnlink, %function
 1809              	OS_TmrUnlink:
 1810              	.LFB12:
1000:..\..\..\..\..\..\uCOS-III\Source/os_tmr.c **** 
1001:..\..\..\..\..\..\uCOS-III\Source/os_tmr.c **** /*$PAGE*/
1002:..\..\..\..\..\..\uCOS-III\Source/os_tmr.c **** /*
1003:..\..\..\..\..\..\uCOS-III\Source/os_tmr.c **** ***************************************************************************************************
1004:..\..\..\..\..\..\uCOS-III\Source/os_tmr.c **** *                                         REMOVE A TIMER FROM THE TIMER WHEEL
1005:..\..\..\..\..\..\uCOS-III\Source/os_tmr.c **** *
1006:..\..\..\..\..\..\uCOS-III\Source/os_tmr.c **** * Description: This function is called to remove the timer from the timer wheel.
1007:..\..\..\..\..\..\uCOS-III\Source/os_tmr.c **** *
1008:..\..\..\..\..\..\uCOS-III\Source/os_tmr.c **** * Arguments  : p_tmr          Is a pointer to the timer to remove.
1009:..\..\..\..\..\..\uCOS-III\Source/os_tmr.c **** *              -----
1010:..\..\..\..\..\..\uCOS-III\Source/os_tmr.c **** *
1011:..\..\..\..\..\..\uCOS-III\Source/os_tmr.c **** * Returns    : none
1012:..\..\..\..\..\..\uCOS-III\Source/os_tmr.c **** *
1013:..\..\..\..\..\..\uCOS-III\Source/os_tmr.c **** * Note(s)    : 1) This function is INTERNAL to uC/OS-III and your application MUST NOT call it.
1014:..\..\..\..\..\..\uCOS-III\Source/os_tmr.c **** ***************************************************************************************************
1015:..\..\..\..\..\..\uCOS-III\Source/os_tmr.c **** */
ARM GAS  C:\Users\alex\AppData\Local\Temp\ccByxCIb.s 			page 51


1016:..\..\..\..\..\..\uCOS-III\Source/os_tmr.c **** 
1017:..\..\..\..\..\..\uCOS-III\Source/os_tmr.c **** void  OS_TmrUnlink (OS_TMR  *p_tmr)
1018:..\..\..\..\..\..\uCOS-III\Source/os_tmr.c **** {
 1811              		.loc 1 1018 0
 1812              		.cfi_startproc
 1813              		@ args = 0, pretend = 0, frame = 24
 1814              		@ frame_needed = 1, uses_anonymous_args = 0
 1815              		@ link register save eliminated.
 1816 0000 80B4     		push	{r7}
 1817              		.cfi_def_cfa_offset 4
 1818              		.cfi_offset 7, -4
 1819 0002 87B0     		sub	sp, sp, #28
 1820              		.cfi_def_cfa_offset 32
 1821 0004 00AF     		add	r7, sp, #0
 1822              		.cfi_def_cfa_register 7
 1823 0006 7860     		str	r0, [r7, #4]
1019:..\..\..\..\..\..\uCOS-III\Source/os_tmr.c ****     OS_TMR_SPOKE    *p_spoke;
1020:..\..\..\..\..\..\uCOS-III\Source/os_tmr.c ****     OS_TMR          *p_tmr1;
1021:..\..\..\..\..\..\uCOS-III\Source/os_tmr.c ****     OS_TMR          *p_tmr2;
1022:..\..\..\..\..\..\uCOS-III\Source/os_tmr.c ****     OS_TMR_SPOKE_IX  spoke;
1023:..\..\..\..\..\..\uCOS-III\Source/os_tmr.c **** 
1024:..\..\..\..\..\..\uCOS-III\Source/os_tmr.c **** 
1025:..\..\..\..\..\..\uCOS-III\Source/os_tmr.c **** 
1026:..\..\..\..\..\..\uCOS-III\Source/os_tmr.c ****     spoke   = (OS_TMR_SPOKE_IX)(p_tmr->Match % OSCfg_TmrWheelSize);
 1824              		.loc 1 1026 0
 1825 0008 7B68     		ldr	r3, [r7, #4]
 1826 000a 9B69     		ldr	r3, [r3, #24]
 1827 000c 214A     		ldr	r2, .L146
 1828 000e 1288     		ldrh	r2, [r2]
 1829 0010 B3FBF2F1 		udiv	r1, r3, r2
 1830 0014 02FB01F2 		mul	r2, r2, r1
 1831 0018 9B1A     		subs	r3, r3, r2
 1832 001a FB82     		strh	r3, [r7, #22]	@ movhi
1027:..\..\..\..\..\..\uCOS-III\Source/os_tmr.c ****     p_spoke = &OSCfg_TmrWheel[spoke];
 1833              		.loc 1 1027 0
 1834 001c FB8A     		ldrh	r3, [r7, #22]
 1835 001e DB00     		lsls	r3, r3, #3
 1836 0020 1D4A     		ldr	r2, .L146+4
 1837 0022 1344     		add	r3, r3, r2
 1838 0024 3B61     		str	r3, [r7, #16]
1028:..\..\..\..\..\..\uCOS-III\Source/os_tmr.c **** 
1029:..\..\..\..\..\..\uCOS-III\Source/os_tmr.c ****     if (p_spoke->FirstPtr == p_tmr) {                       /* See if timer to remove is at the beg
 1839              		.loc 1 1029 0
 1840 0026 3B69     		ldr	r3, [r7, #16]
 1841 0028 1A68     		ldr	r2, [r3]
 1842 002a 7B68     		ldr	r3, [r7, #4]
 1843 002c 9A42     		cmp	r2, r3
 1844 002e 0CD1     		bne	.L143
1030:..\..\..\..\..\..\uCOS-III\Source/os_tmr.c ****         p_tmr1            = (OS_TMR *)p_tmr->NextPtr;
 1845              		.loc 1 1030 0
 1846 0030 7B68     		ldr	r3, [r7, #4]
 1847 0032 1B69     		ldr	r3, [r3, #16]
 1848 0034 FB60     		str	r3, [r7, #12]
1031:..\..\..\..\..\..\uCOS-III\Source/os_tmr.c ****         p_spoke->FirstPtr = (OS_TMR *)p_tmr1;
 1849              		.loc 1 1031 0
 1850 0036 3B69     		ldr	r3, [r7, #16]
 1851 0038 FA68     		ldr	r2, [r7, #12]
ARM GAS  C:\Users\alex\AppData\Local\Temp\ccByxCIb.s 			page 52


 1852 003a 1A60     		str	r2, [r3]
1032:..\..\..\..\..\..\uCOS-III\Source/os_tmr.c ****         if (p_tmr1 != (OS_TMR *)0) {
 1853              		.loc 1 1032 0
 1854 003c FB68     		ldr	r3, [r7, #12]
 1855 003e 002B     		cmp	r3, #0
 1856 0040 12D0     		beq	.L145
1033:..\..\..\..\..\..\uCOS-III\Source/os_tmr.c ****             p_tmr1->PrevPtr = (OS_TMR *)0;
 1857              		.loc 1 1033 0
 1858 0042 FB68     		ldr	r3, [r7, #12]
 1859 0044 0022     		movs	r2, #0
 1860 0046 5A61     		str	r2, [r3, #20]
 1861 0048 0EE0     		b	.L145
 1862              	.L143:
1034:..\..\..\..\..\..\uCOS-III\Source/os_tmr.c ****         }
1035:..\..\..\..\..\..\uCOS-III\Source/os_tmr.c ****     } else {
1036:..\..\..\..\..\..\uCOS-III\Source/os_tmr.c ****         p_tmr1          = (OS_TMR *)p_tmr->PrevPtr;         /* Remove timer from somewhere in the l
 1863              		.loc 1 1036 0
 1864 004a 7B68     		ldr	r3, [r7, #4]
 1865 004c 5B69     		ldr	r3, [r3, #20]
 1866 004e FB60     		str	r3, [r7, #12]
1037:..\..\..\..\..\..\uCOS-III\Source/os_tmr.c ****         p_tmr2          = (OS_TMR *)p_tmr->NextPtr;
 1867              		.loc 1 1037 0
 1868 0050 7B68     		ldr	r3, [r7, #4]
 1869 0052 1B69     		ldr	r3, [r3, #16]
 1870 0054 BB60     		str	r3, [r7, #8]
1038:..\..\..\..\..\..\uCOS-III\Source/os_tmr.c ****         p_tmr1->NextPtr = p_tmr2;
 1871              		.loc 1 1038 0
 1872 0056 FB68     		ldr	r3, [r7, #12]
 1873 0058 BA68     		ldr	r2, [r7, #8]
 1874 005a 1A61     		str	r2, [r3, #16]
1039:..\..\..\..\..\..\uCOS-III\Source/os_tmr.c ****         if (p_tmr2 != (OS_TMR *)0) {
 1875              		.loc 1 1039 0
 1876 005c BB68     		ldr	r3, [r7, #8]
 1877 005e 002B     		cmp	r3, #0
 1878 0060 02D0     		beq	.L145
1040:..\..\..\..\..\..\uCOS-III\Source/os_tmr.c ****             p_tmr2->PrevPtr = (OS_TMR *)p_tmr1;
 1879              		.loc 1 1040 0
 1880 0062 BB68     		ldr	r3, [r7, #8]
 1881 0064 FA68     		ldr	r2, [r7, #12]
 1882 0066 5A61     		str	r2, [r3, #20]
 1883              	.L145:
1041:..\..\..\..\..\..\uCOS-III\Source/os_tmr.c ****         }
1042:..\..\..\..\..\..\uCOS-III\Source/os_tmr.c ****     }
1043:..\..\..\..\..\..\uCOS-III\Source/os_tmr.c ****     p_tmr->State   = OS_TMR_STATE_STOPPED;
 1884              		.loc 1 1043 0
 1885 0068 7B68     		ldr	r3, [r7, #4]
 1886 006a 0122     		movs	r2, #1
 1887 006c 83F82A20 		strb	r2, [r3, #42]
1044:..\..\..\..\..\..\uCOS-III\Source/os_tmr.c ****     p_tmr->NextPtr = (OS_TMR *)0;
 1888              		.loc 1 1044 0
 1889 0070 7B68     		ldr	r3, [r7, #4]
 1890 0072 0022     		movs	r2, #0
 1891 0074 1A61     		str	r2, [r3, #16]
1045:..\..\..\..\..\..\uCOS-III\Source/os_tmr.c ****     p_tmr->PrevPtr = (OS_TMR *)0;
 1892              		.loc 1 1045 0
 1893 0076 7B68     		ldr	r3, [r7, #4]
 1894 0078 0022     		movs	r2, #0
ARM GAS  C:\Users\alex\AppData\Local\Temp\ccByxCIb.s 			page 53


 1895 007a 5A61     		str	r2, [r3, #20]
1046:..\..\..\..\..\..\uCOS-III\Source/os_tmr.c ****     p_spoke->NbrEntries--;
 1896              		.loc 1 1046 0
 1897 007c 3B69     		ldr	r3, [r7, #16]
 1898 007e 9B88     		ldrh	r3, [r3, #4]
 1899 0080 013B     		subs	r3, r3, #1
 1900 0082 9AB2     		uxth	r2, r3
 1901 0084 3B69     		ldr	r3, [r7, #16]
 1902 0086 9A80     		strh	r2, [r3, #4]	@ movhi
1047:..\..\..\..\..\..\uCOS-III\Source/os_tmr.c **** }
 1903              		.loc 1 1047 0
 1904 0088 00BF     		nop
 1905 008a 1C37     		adds	r7, r7, #28
 1906              		.cfi_def_cfa_offset 4
 1907 008c BD46     		mov	sp, r7
 1908              		.cfi_def_cfa_register 13
 1909              		@ sp needed
 1910 008e 80BC     		pop	{r7}
 1911              		.cfi_restore 7
 1912              		.cfi_def_cfa_offset 0
 1913 0090 7047     		bx	lr
 1914              	.L147:
 1915 0092 00BF     		.align	2
 1916              	.L146:
 1917 0094 00000000 		.word	OSCfg_TmrWheelSize
 1918 0098 00000000 		.word	OSCfg_TmrWheel
 1919              		.cfi_endproc
 1920              	.LFE12:
 1921              		.size	OS_TmrUnlink, .-OS_TmrUnlink
 1922              		.section	.text.OS_TmrTask,"ax",%progbits
 1923              		.align	2
 1924              		.global	OS_TmrTask
 1925              		.thumb
 1926              		.thumb_func
 1927              		.type	OS_TmrTask, %function
 1928              	OS_TmrTask:
 1929              	.LFB13:
1048:..\..\..\..\..\..\uCOS-III\Source/os_tmr.c **** 
1049:..\..\..\..\..\..\uCOS-III\Source/os_tmr.c **** /*$PAGE*/
1050:..\..\..\..\..\..\uCOS-III\Source/os_tmr.c **** /*
1051:..\..\..\..\..\..\uCOS-III\Source/os_tmr.c **** ***************************************************************************************************
1052:..\..\..\..\..\..\uCOS-III\Source/os_tmr.c **** *                                                 TIMER MANAGEMENT TASK
1053:..\..\..\..\..\..\uCOS-III\Source/os_tmr.c **** *
1054:..\..\..\..\..\..\uCOS-III\Source/os_tmr.c **** * Description: This task is created by OS_TmrInit().
1055:..\..\..\..\..\..\uCOS-III\Source/os_tmr.c **** *
1056:..\..\..\..\..\..\uCOS-III\Source/os_tmr.c **** * Arguments  : none
1057:..\..\..\..\..\..\uCOS-III\Source/os_tmr.c **** *
1058:..\..\..\..\..\..\uCOS-III\Source/os_tmr.c **** * Returns    : none
1059:..\..\..\..\..\..\uCOS-III\Source/os_tmr.c **** *
1060:..\..\..\..\..\..\uCOS-III\Source/os_tmr.c **** * Note(s)    : 1) This function is INTERNAL to uC/OS-III and your application MUST NOT call it.
1061:..\..\..\..\..\..\uCOS-III\Source/os_tmr.c **** ***************************************************************************************************
1062:..\..\..\..\..\..\uCOS-III\Source/os_tmr.c **** */
1063:..\..\..\..\..\..\uCOS-III\Source/os_tmr.c **** 
1064:..\..\..\..\..\..\uCOS-III\Source/os_tmr.c **** void  OS_TmrTask (void  *p_arg)
1065:..\..\..\..\..\..\uCOS-III\Source/os_tmr.c **** {
 1930              		.loc 1 1065 0
 1931              		.cfi_startproc
ARM GAS  C:\Users\alex\AppData\Local\Temp\ccByxCIb.s 			page 54


 1932              		@ args = 0, pretend = 0, frame = 48
 1933              		@ frame_needed = 1, uses_anonymous_args = 0
 1934 0000 80B5     		push	{r7, lr}
 1935              		.cfi_def_cfa_offset 8
 1936              		.cfi_offset 7, -8
 1937              		.cfi_offset 14, -4
 1938 0002 8CB0     		sub	sp, sp, #48
 1939              		.cfi_def_cfa_offset 56
 1940 0004 00AF     		add	r7, sp, #0
 1941              		.cfi_def_cfa_register 7
 1942 0006 7860     		str	r0, [r7, #4]
 1943              	.L158:
1066:..\..\..\..\..\..\uCOS-III\Source/os_tmr.c ****     CPU_BOOLEAN          done;
1067:..\..\..\..\..\..\uCOS-III\Source/os_tmr.c ****     OS_ERR               err;
1068:..\..\..\..\..\..\uCOS-III\Source/os_tmr.c ****     OS_TMR_CALLBACK_PTR  p_fnct;
1069:..\..\..\..\..\..\uCOS-III\Source/os_tmr.c ****     OS_TMR_SPOKE        *p_spoke;
1070:..\..\..\..\..\..\uCOS-III\Source/os_tmr.c ****     OS_TMR              *p_tmr;
1071:..\..\..\..\..\..\uCOS-III\Source/os_tmr.c ****     OS_TMR              *p_tmr_next;
1072:..\..\..\..\..\..\uCOS-III\Source/os_tmr.c ****     OS_TMR_SPOKE_IX      spoke;
1073:..\..\..\..\..\..\uCOS-III\Source/os_tmr.c ****     CPU_TS               ts;
1074:..\..\..\..\..\..\uCOS-III\Source/os_tmr.c ****     CPU_TS               ts_start;
1075:..\..\..\..\..\..\uCOS-III\Source/os_tmr.c ****     CPU_TS               ts_end;
1076:..\..\..\..\..\..\uCOS-III\Source/os_tmr.c **** 
1077:..\..\..\..\..\..\uCOS-III\Source/os_tmr.c **** 
1078:..\..\..\..\..\..\uCOS-III\Source/os_tmr.c **** 
1079:..\..\..\..\..\..\uCOS-III\Source/os_tmr.c ****     p_arg = p_arg;                                               /* Not using 'p_arg', prevent comp
1080:..\..\..\..\..\..\uCOS-III\Source/os_tmr.c ****     while (DEF_ON) {
1081:..\..\..\..\..\..\uCOS-III\Source/os_tmr.c ****         (void)OSTaskSemPend((OS_TICK )0,                         /* Wait for signal indicating time
 1944              		.loc 1 1081 0
 1945 0008 07F10E03 		add	r3, r7, #14
 1946 000c 07F10802 		add	r2, r7, #8
 1947 0010 0021     		movs	r1, #0
 1948 0012 0020     		movs	r0, #0
 1949 0014 FFF7FEFF 		bl	OSTaskSemPend
1082:..\..\..\..\..\..\uCOS-III\Source/os_tmr.c ****                             (OS_OPT  )OS_OPT_PEND_BLOCKING,
1083:..\..\..\..\..\..\uCOS-III\Source/os_tmr.c ****                             (CPU_TS *)&ts,
1084:..\..\..\..\..\..\uCOS-III\Source/os_tmr.c ****                             (OS_ERR *)&err);
1085:..\..\..\..\..\..\uCOS-III\Source/os_tmr.c **** 
1086:..\..\..\..\..\..\uCOS-III\Source/os_tmr.c ****         OSSchedLock(&err);
 1950              		.loc 1 1086 0
 1951 0018 07F10E03 		add	r3, r7, #14
 1952 001c 1846     		mov	r0, r3
 1953 001e FFF7FEFF 		bl	OSSchedLock
1087:..\..\..\..\..\..\uCOS-III\Source/os_tmr.c ****         ts_start = OS_TS_GET();
 1954              		.loc 1 1087 0
 1955 0022 FFF7FEFF 		bl	CPU_TS_TmrRd
 1956 0026 7862     		str	r0, [r7, #36]
1088:..\..\..\..\..\..\uCOS-III\Source/os_tmr.c ****         OSTmrTickCtr++;                                          /* Increment the current time     
 1957              		.loc 1 1088 0
 1958 0028 324B     		ldr	r3, .L159
 1959 002a 1B68     		ldr	r3, [r3]
 1960 002c 0133     		adds	r3, r3, #1
 1961 002e 314A     		ldr	r2, .L159
 1962 0030 1360     		str	r3, [r2]
1089:..\..\..\..\..\..\uCOS-III\Source/os_tmr.c ****         spoke    = (OS_TMR_SPOKE_IX)(OSTmrTickCtr % OSCfg_TmrWheelSize);
 1963              		.loc 1 1089 0
 1964 0032 304B     		ldr	r3, .L159
ARM GAS  C:\Users\alex\AppData\Local\Temp\ccByxCIb.s 			page 55


 1965 0034 1B68     		ldr	r3, [r3]
 1966 0036 304A     		ldr	r2, .L159+4
 1967 0038 1288     		ldrh	r2, [r2]
 1968 003a B3FBF2F1 		udiv	r1, r3, r2
 1969 003e 02FB01F2 		mul	r2, r2, r1
 1970 0042 9B1A     		subs	r3, r3, r2
 1971 0044 7B84     		strh	r3, [r7, #34]	@ movhi
1090:..\..\..\..\..\..\uCOS-III\Source/os_tmr.c ****         p_spoke  = &OSCfg_TmrWheel[spoke];
 1972              		.loc 1 1090 0
 1973 0046 7B8C     		ldrh	r3, [r7, #34]
 1974 0048 DB00     		lsls	r3, r3, #3
 1975 004a 2C4A     		ldr	r2, .L159+8
 1976 004c 1344     		add	r3, r3, r2
 1977 004e FB61     		str	r3, [r7, #28]
1091:..\..\..\..\..\..\uCOS-III\Source/os_tmr.c ****         p_tmr    = p_spoke->FirstPtr;
 1978              		.loc 1 1091 0
 1979 0050 FB69     		ldr	r3, [r7, #28]
 1980 0052 1B68     		ldr	r3, [r3]
 1981 0054 BB62     		str	r3, [r7, #40]
1092:..\..\..\..\..\..\uCOS-III\Source/os_tmr.c ****         done     = DEF_FALSE;
 1982              		.loc 1 1092 0
 1983 0056 0023     		movs	r3, #0
 1984 0058 87F82F30 		strb	r3, [r7, #47]
1093:..\..\..\..\..\..\uCOS-III\Source/os_tmr.c ****         while (done == DEF_FALSE) {
 1985              		.loc 1 1093 0
 1986 005c 31E0     		b	.L149
 1987              	.L156:
1094:..\..\..\..\..\..\uCOS-III\Source/os_tmr.c ****             if (p_tmr != (OS_TMR *)0) {
 1988              		.loc 1 1094 0
 1989 005e BB6A     		ldr	r3, [r7, #40]
 1990 0060 002B     		cmp	r3, #0
 1991 0062 2BD0     		beq	.L150
1095:..\..\..\..\..\..\uCOS-III\Source/os_tmr.c ****                 p_tmr_next = (OS_TMR *)p_tmr->NextPtr;           /* Point to next tmr to update bec
 1992              		.loc 1 1095 0
 1993 0064 BB6A     		ldr	r3, [r7, #40]
 1994 0066 1B69     		ldr	r3, [r3, #16]
 1995 0068 7B61     		str	r3, [r7, #20]
1096:..\..\..\..\..\..\uCOS-III\Source/os_tmr.c ****                                                                  /* ... timer could get unlinked fr
1097:..\..\..\..\..\..\uCOS-III\Source/os_tmr.c ****                 if (OSTmrTickCtr == p_tmr->Match) {              /* Process each timer that expires
 1996              		.loc 1 1097 0
 1997 006a BB6A     		ldr	r3, [r7, #40]
 1998 006c 9A69     		ldr	r2, [r3, #24]
 1999 006e 214B     		ldr	r3, .L159
 2000 0070 1B68     		ldr	r3, [r3]
 2001 0072 9A42     		cmp	r2, r3
 2002 0074 1ED1     		bne	.L151
1098:..\..\..\..\..\..\uCOS-III\Source/os_tmr.c ****                     OS_TmrUnlink(p_tmr);                         /* Remove from current wheel spoke
 2003              		.loc 1 1098 0
 2004 0076 B86A     		ldr	r0, [r7, #40]
 2005 0078 FFF7FEFF 		bl	OS_TmrUnlink
1099:..\..\..\..\..\..\uCOS-III\Source/os_tmr.c ****                     if (p_tmr->Opt == OS_OPT_TMR_PERIODIC) {
 2006              		.loc 1 1099 0
 2007 007c BB6A     		ldr	r3, [r7, #40]
 2008 007e 1B8D     		ldrh	r3, [r3, #40]
 2009 0080 022B     		cmp	r3, #2
 2010 0082 04D1     		bne	.L152
1100:..\..\..\..\..\..\uCOS-III\Source/os_tmr.c ****                         OS_TmrLink(p_tmr,
ARM GAS  C:\Users\alex\AppData\Local\Temp\ccByxCIb.s 			page 56


 2011              		.loc 1 1100 0
 2012 0084 0121     		movs	r1, #1
 2013 0086 B86A     		ldr	r0, [r7, #40]
 2014 0088 FFF7FEFF 		bl	OS_TmrLink
 2015 008c 03E0     		b	.L153
 2016              	.L152:
1101:..\..\..\..\..\..\uCOS-III\Source/os_tmr.c ****                                    OS_OPT_LINK_PERIODIC);        /* Recalculate new position of tim
1102:..\..\..\..\..\..\uCOS-III\Source/os_tmr.c ****                     } else {
1103:..\..\..\..\..\..\uCOS-III\Source/os_tmr.c ****                         p_tmr->State = OS_TMR_STATE_COMPLETED;   /* Indicate that the timer has com
 2017              		.loc 1 1103 0
 2018 008e BB6A     		ldr	r3, [r7, #40]
 2019 0090 0322     		movs	r2, #3
 2020 0092 83F82A20 		strb	r2, [r3, #42]
 2021              	.L153:
1104:..\..\..\..\..\..\uCOS-III\Source/os_tmr.c ****                     }
1105:..\..\..\..\..\..\uCOS-III\Source/os_tmr.c ****                     p_fnct = p_tmr->CallbackPtr;                 /* Execute callback function if av
 2022              		.loc 1 1105 0
 2023 0096 BB6A     		ldr	r3, [r7, #40]
 2024 0098 9B68     		ldr	r3, [r3, #8]
 2025 009a 3B61     		str	r3, [r7, #16]
1106:..\..\..\..\..\..\uCOS-III\Source/os_tmr.c ****                     if (p_fnct != (OS_TMR_CALLBACK_PTR)0) {
 2026              		.loc 1 1106 0
 2027 009c 3B69     		ldr	r3, [r7, #16]
 2028 009e 002B     		cmp	r3, #0
 2029 00a0 05D0     		beq	.L154
1107:..\..\..\..\..\..\uCOS-III\Source/os_tmr.c ****                         (*p_fnct)((void *)p_tmr,
 2030              		.loc 1 1107 0
 2031 00a2 BB6A     		ldr	r3, [r7, #40]
 2032 00a4 DA68     		ldr	r2, [r3, #12]
 2033 00a6 3B69     		ldr	r3, [r7, #16]
 2034 00a8 1146     		mov	r1, r2
 2035 00aa B86A     		ldr	r0, [r7, #40]
 2036 00ac 9847     		blx	r3
 2037              	.L154:
1108:..\..\..\..\..\..\uCOS-III\Source/os_tmr.c ****                                   p_tmr->CallbackPtrArg);
1109:..\..\..\..\..\..\uCOS-III\Source/os_tmr.c ****                     }
1110:..\..\..\..\..\..\uCOS-III\Source/os_tmr.c ****                     p_tmr = p_tmr_next;                          /* See if next timer matches      
 2038              		.loc 1 1110 0
 2039 00ae 7B69     		ldr	r3, [r7, #20]
 2040 00b0 BB62     		str	r3, [r7, #40]
 2041 00b2 06E0     		b	.L149
 2042              	.L151:
1111:..\..\..\..\..\..\uCOS-III\Source/os_tmr.c ****                 } else {
1112:..\..\..\..\..\..\uCOS-III\Source/os_tmr.c ****                     done  = DEF_TRUE;
 2043              		.loc 1 1112 0
 2044 00b4 0123     		movs	r3, #1
 2045 00b6 87F82F30 		strb	r3, [r7, #47]
 2046 00ba 02E0     		b	.L149
 2047              	.L150:
1113:..\..\..\..\..\..\uCOS-III\Source/os_tmr.c ****                 }
1114:..\..\..\..\..\..\uCOS-III\Source/os_tmr.c ****             } else {
1115:..\..\..\..\..\..\uCOS-III\Source/os_tmr.c ****                 done = DEF_TRUE;
 2048              		.loc 1 1115 0
 2049 00bc 0123     		movs	r3, #1
 2050 00be 87F82F30 		strb	r3, [r7, #47]
 2051              	.L149:
1093:..\..\..\..\..\..\uCOS-III\Source/os_tmr.c ****             if (p_tmr != (OS_TMR *)0) {
ARM GAS  C:\Users\alex\AppData\Local\Temp\ccByxCIb.s 			page 57


 2052              		.loc 1 1093 0
 2053 00c2 97F82F30 		ldrb	r3, [r7, #47]	@ zero_extendqisi2
 2054 00c6 002B     		cmp	r3, #0
 2055 00c8 C9D0     		beq	.L156
1116:..\..\..\..\..\..\uCOS-III\Source/os_tmr.c ****             }
1117:..\..\..\..\..\..\uCOS-III\Source/os_tmr.c ****         }
1118:..\..\..\..\..\..\uCOS-III\Source/os_tmr.c ****         ts_end = OS_TS_GET() - ts_start;                         /* Measure execution time of timer
 2056              		.loc 1 1118 0
 2057 00ca FFF7FEFF 		bl	CPU_TS_TmrRd
 2058 00ce 0246     		mov	r2, r0
 2059 00d0 7B6A     		ldr	r3, [r7, #36]
 2060 00d2 D31A     		subs	r3, r2, r3
 2061 00d4 BB61     		str	r3, [r7, #24]
1119:..\..\..\..\..\..\uCOS-III\Source/os_tmr.c ****         OSSchedUnlock(&err);
 2062              		.loc 1 1119 0
 2063 00d6 07F10E03 		add	r3, r7, #14
 2064 00da 1846     		mov	r0, r3
 2065 00dc FFF7FEFF 		bl	OSSchedUnlock
1120:..\..\..\..\..\..\uCOS-III\Source/os_tmr.c ****         if (OSTmrTaskTimeMax < ts_end) {
 2066              		.loc 1 1120 0
 2067 00e0 074B     		ldr	r3, .L159+12
 2068 00e2 1A68     		ldr	r2, [r3]
 2069 00e4 BB69     		ldr	r3, [r7, #24]
 2070 00e6 9A42     		cmp	r2, r3
 2071 00e8 8ED2     		bcs	.L158
1121:..\..\..\..\..\..\uCOS-III\Source/os_tmr.c ****             OSTmrTaskTimeMax = ts_end;
 2072              		.loc 1 1121 0
 2073 00ea 054A     		ldr	r2, .L159+12
 2074 00ec BB69     		ldr	r3, [r7, #24]
 2075 00ee 1360     		str	r3, [r2]
1122:..\..\..\..\..\..\uCOS-III\Source/os_tmr.c ****         }
1123:..\..\..\..\..\..\uCOS-III\Source/os_tmr.c ****     }
 2076              		.loc 1 1123 0
 2077 00f0 8AE7     		b	.L158
 2078              	.L160:
 2079 00f2 00BF     		.align	2
 2080              	.L159:
 2081 00f4 00000000 		.word	OSTmrTickCtr
 2082 00f8 00000000 		.word	OSCfg_TmrWheelSize
 2083 00fc 00000000 		.word	OSCfg_TmrWheel
 2084 0100 00000000 		.word	OSTmrTaskTimeMax
 2085              		.cfi_endproc
 2086              	.LFE13:
 2087              		.size	OS_TmrTask, .-OS_TmrTask
 2088              		.text
 2089              	.Letext0:
 2090              		.file 2 "..\\..\\..\\..\\..\\..\\uC-CPU\\ARM-Cortex-M3\\GNU/cpu.h"
 2091              		.file 3 "..\\..\\..\\..\\..\\..\\uC-CPU/cpu_core.h"
 2092              		.file 4 "..\\..\\..\\..\\..\\..\\uCOS-III\\Source/os_type.h"
 2093              		.file 5 "..\\..\\..\\..\\..\\..\\uCOS-III\\Source/os.h"