ARM GAS  C:\Users\alex\AppData\Local\Temp\ccByxCIb.s 			page 1


   1              		.syntax unified
   2              		.cpu cortex-m3
   3              		.fpu softvfp
   4              		.eabi_attribute 20, 1
   5              		.eabi_attribute 21, 1
   6              		.eabi_attribute 23, 3
   7              		.eabi_attribute 24, 1
   8              		.eabi_attribute 25, 1
   9              		.eabi_attribute 26, 1
  10              		.eabi_attribute 30, 6
  11              		.eabi_attribute 34, 1
  12              		.eabi_attribute 18, 4
  13              		.thumb
  14              		.syntax unified
  15              		.file	"os_tmr.c"
  16              		.text
  17              	.Ltext0:
  18              		.cfi_sections	.debug_frame
  19              		.section	.text.OSTmrCreate,"ax",%progbits
  20              		.align	2
  21              		.global	OSTmrCreate
  22              		.thumb
  23              		.thumb_func
  24              		.type	OSTmrCreate, %function
  25              	OSTmrCreate:
  26              	.LFB0:
  27              		.file 1 "..\\..\\..\\..\\..\\..\\uCOS-III\\Source\\os_tmr.c"
   1:..\..\..\..\..\..\uCOS-III\Source/os_tmr.c **** /*
   2:..\..\..\..\..\..\uCOS-III\Source/os_tmr.c **** ***************************************************************************************************
   3:..\..\..\..\..\..\uCOS-III\Source/os_tmr.c **** *                                                      uC/OS-III
   4:..\..\..\..\..\..\uCOS-III\Source/os_tmr.c **** *                                                 The Real-Time Kernel
   5:..\..\..\..\..\..\uCOS-III\Source/os_tmr.c **** *
   6:..\..\..\..\..\..\uCOS-III\Source/os_tmr.c **** *                                  (c) Copyright 2009-2012; Micrium, Inc.; Weston, FL
   7:..\..\..\..\..\..\uCOS-III\Source/os_tmr.c **** *                           All rights reserved.  Protected by international copyright laws.
   8:..\..\..\..\..\..\uCOS-III\Source/os_tmr.c **** *
   9:..\..\..\..\..\..\uCOS-III\Source/os_tmr.c **** *                                                   TIMER MANAGEMENT
  10:..\..\..\..\..\..\uCOS-III\Source/os_tmr.c **** *
  11:..\..\..\..\..\..\uCOS-III\Source/os_tmr.c **** * File    : OS_TMR.C
  12:..\..\..\..\..\..\uCOS-III\Source/os_tmr.c **** * By      : JJL
  13:..\..\..\..\..\..\uCOS-III\Source/os_tmr.c **** * Version : V3.03.01
  14:..\..\..\..\..\..\uCOS-III\Source/os_tmr.c **** *
  15:..\..\..\..\..\..\uCOS-III\Source/os_tmr.c **** * LICENSING TERMS:
  16:..\..\..\..\..\..\uCOS-III\Source/os_tmr.c **** * ---------------
  17:..\..\..\..\..\..\uCOS-III\Source/os_tmr.c **** *           uC/OS-III is provided in source form for FREE short-term evaluation, for educational us
  18:..\..\..\..\..\..\uCOS-III\Source/os_tmr.c **** *           for peaceful research.  If you plan or intend to use uC/OS-III in a commercial applicat
  19:..\..\..\..\..\..\uCOS-III\Source/os_tmr.c **** *           product then, you need to contact Micrium to properly license uC/OS-III for its use in 
  20:..\..\..\..\..\..\uCOS-III\Source/os_tmr.c **** *           application/product.   We provide ALL the source code for your convenience and to help 
  21:..\..\..\..\..\..\uCOS-III\Source/os_tmr.c **** *           experience uC/OS-III.  The fact that the source is provided does NOT mean that you can 
  22:..\..\..\..\..\..\uCOS-III\Source/os_tmr.c **** *           it commercially without paying a licensing fee.
  23:..\..\..\..\..\..\uCOS-III\Source/os_tmr.c **** *
  24:..\..\..\..\..\..\uCOS-III\Source/os_tmr.c **** *           Knowledge of the source code may NOT be used to develop a similar product.
  25:..\..\..\..\..\..\uCOS-III\Source/os_tmr.c **** *
  26:..\..\..\..\..\..\uCOS-III\Source/os_tmr.c **** *           Please help us continue to provide the embedded community with the finest software avai
  27:..\..\..\..\..\..\uCOS-III\Source/os_tmr.c **** *           Your honesty is greatly appreciated.
  28:..\..\..\..\..\..\uCOS-III\Source/os_tmr.c **** *
  29:..\..\..\..\..\..\uCOS-III\Source/os_tmr.c **** *           You can contact us at www.micrium.com, or by phone at +1 (954) 217-2036.
  30:..\..\..\..\..\..\uCOS-III\Source/os_tmr.c **** ***************************************************************************************************
ARM GAS  C:\Users\alex\AppData\Local\Temp\ccByxCIb.s 			page 2


  31:..\..\..\..\..\..\uCOS-III\Source/os_tmr.c **** */
  32:..\..\..\..\..\..\uCOS-III\Source/os_tmr.c **** 
  33:..\..\..\..\..\..\uCOS-III\Source/os_tmr.c **** #define  MICRIUM_SOURCE
  34:..\..\..\..\..\..\uCOS-III\Source/os_tmr.c **** #include <os.h>
  35:..\..\..\..\..\..\uCOS-III\Source/os_tmr.c **** 
  36:..\..\..\..\..\..\uCOS-III\Source/os_tmr.c **** #ifdef VSC_INCLUDE_SOURCE_FILE_NAMES
  37:..\..\..\..\..\..\uCOS-III\Source/os_tmr.c **** const  CPU_CHAR  *os_tmr__c = "$Id: $";
  38:..\..\..\..\..\..\uCOS-III\Source/os_tmr.c **** #endif
  39:..\..\..\..\..\..\uCOS-III\Source/os_tmr.c **** 
  40:..\..\..\..\..\..\uCOS-III\Source/os_tmr.c **** 
  41:..\..\..\..\..\..\uCOS-III\Source/os_tmr.c **** #if OS_CFG_TMR_EN > 0u
  42:..\..\..\..\..\..\uCOS-III\Source/os_tmr.c **** /*
  43:..\..\..\..\..\..\uCOS-III\Source/os_tmr.c **** ***************************************************************************************************
  44:..\..\..\..\..\..\uCOS-III\Source/os_tmr.c **** *                                                     CONSTANTS
  45:..\..\..\..\..\..\uCOS-III\Source/os_tmr.c **** ***************************************************************************************************
  46:..\..\..\..\..\..\uCOS-III\Source/os_tmr.c **** */
  47:..\..\..\..\..\..\uCOS-III\Source/os_tmr.c **** 
  48:..\..\..\..\..\..\uCOS-III\Source/os_tmr.c **** #define  OS_OPT_LINK_DLY       (OS_OPT)(0u)
  49:..\..\..\..\..\..\uCOS-III\Source/os_tmr.c **** #define  OS_OPT_LINK_PERIODIC  (OS_OPT)(1u)
  50:..\..\..\..\..\..\uCOS-III\Source/os_tmr.c **** 
  51:..\..\..\..\..\..\uCOS-III\Source/os_tmr.c **** /*$PAGE*/
  52:..\..\..\..\..\..\uCOS-III\Source/os_tmr.c **** /*
  53:..\..\..\..\..\..\uCOS-III\Source/os_tmr.c **** ***************************************************************************************************
  54:..\..\..\..\..\..\uCOS-III\Source/os_tmr.c **** *                                                   CREATE A TIMER
  55:..\..\..\..\..\..\uCOS-III\Source/os_tmr.c **** *
  56:..\..\..\..\..\..\uCOS-III\Source/os_tmr.c **** * Description: This function is called by your application code to create a timer.
  57:..\..\..\..\..\..\uCOS-III\Source/os_tmr.c **** *
  58:..\..\..\..\..\..\uCOS-III\Source/os_tmr.c **** * Arguments  : p_tmr           Is a pointer to a timer control block
  59:..\..\..\..\..\..\uCOS-III\Source/os_tmr.c **** *
  60:..\..\..\..\..\..\uCOS-III\Source/os_tmr.c **** *              p_name          Is a pointer to an ASCII string that is used to name the timer.  Nam
  61:..\..\..\..\..\..\uCOS-III\Source/os_tmr.c **** *                              debugging.
  62:..\..\..\..\..\..\uCOS-III\Source/os_tmr.c **** *
  63:..\..\..\..\..\..\uCOS-III\Source/os_tmr.c **** *              dly             Initial delay.
  64:..\..\..\..\..\..\uCOS-III\Source/os_tmr.c **** *                              If the timer is configured for ONE-SHOT mode, this is the timeout us
  65:..\..\..\..\..\..\uCOS-III\Source/os_tmr.c **** *                              If the timer is configured for PERIODIC mode, this is the first time
  66:..\..\..\..\..\..\uCOS-III\Source/os_tmr.c **** *                              before the timer starts entering periodic mode
  67:..\..\..\..\..\..\uCOS-III\Source/os_tmr.c **** *
  68:..\..\..\..\..\..\uCOS-III\Source/os_tmr.c **** *              period          The 'period' being repeated for the timer.
  69:..\..\..\..\..\..\uCOS-III\Source/os_tmr.c **** *                              If you specified 'OS_OPT_TMR_PERIODIC' as an option, when the timer 
  70:..\..\..\..\..\..\uCOS-III\Source/os_tmr.c **** *                              automatically restart with the same period.
  71:..\..\..\..\..\..\uCOS-III\Source/os_tmr.c **** *
  72:..\..\..\..\..\..\uCOS-III\Source/os_tmr.c **** *              opt             Specifies either:
  73:..\..\..\..\..\..\uCOS-III\Source/os_tmr.c **** *
  74:..\..\..\..\..\..\uCOS-III\Source/os_tmr.c **** *                                  OS_OPT_TMR_ONE_SHOT       The timer counts down only once
  75:..\..\..\..\..\..\uCOS-III\Source/os_tmr.c **** *                                  OS_OPT_TMR_PERIODIC       The timer counts down and then reloads
  76:..\..\..\..\..\..\uCOS-III\Source/os_tmr.c **** *
  77:..\..\..\..\..\..\uCOS-III\Source/os_tmr.c **** *              p_callback      Is a pointer to a callback function that will be called when the tim
  78:..\..\..\..\..\..\uCOS-III\Source/os_tmr.c **** *                              callback function must be declared as follows:
  79:..\..\..\..\..\..\uCOS-III\Source/os_tmr.c **** *
  80:..\..\..\..\..\..\uCOS-III\Source/os_tmr.c **** *                                  void  MyCallback (OS_TMR *p_tmr, void *p_arg);
  81:..\..\..\..\..\..\uCOS-III\Source/os_tmr.c **** *
  82:..\..\..\..\..\..\uCOS-III\Source/os_tmr.c **** *              p_callback_arg  Is an argument (a pointer) that is passed to the callback function w
  83:..\..\..\..\..\..\uCOS-III\Source/os_tmr.c **** *
  84:..\..\..\..\..\..\uCOS-III\Source/os_tmr.c **** *              p_err           Is a pointer to an error code.  '*p_err' will contain one of the fol
  85:..\..\..\..\..\..\uCOS-III\Source/os_tmr.c **** *
  86:..\..\..\..\..\..\uCOS-III\Source/os_tmr.c **** *                                 OS_ERR_NONE
  87:..\..\..\..\..\..\uCOS-III\Source/os_tmr.c **** *                                 OS_ERR_ILLEGAL_CREATE_RUN_TIME if you are trying to create the ti
ARM GAS  C:\Users\alex\AppData\Local\Temp\ccByxCIb.s 			page 3


  88:..\..\..\..\..\..\uCOS-III\Source/os_tmr.c **** *                                                                  OSSafetyCriticalStart().
  89:..\..\..\..\..\..\uCOS-III\Source/os_tmr.c **** *                                 OS_ERR_OBJ_CREATED             if the timer has already been crea
  90:..\..\..\..\..\..\uCOS-III\Source/os_tmr.c **** *                                 OS_ERR_OBJ_PTR_NULL            is 'p_tmr' is a NULL pointer
  91:..\..\..\..\..\..\uCOS-III\Source/os_tmr.c **** *                                 OS_ERR_OBJ_TYPE                if the object type is invalid
  92:..\..\..\..\..\..\uCOS-III\Source/os_tmr.c **** *                                 OS_ERR_OPT_INVALID             you specified an invalid option
  93:..\..\..\..\..\..\uCOS-III\Source/os_tmr.c **** *                                 OS_ERR_TMR_INVALID_DLY         you specified an invalid delay
  94:..\..\..\..\..\..\uCOS-III\Source/os_tmr.c **** *                                 OS_ERR_TMR_INVALID_PERIOD      you specified an invalid period
  95:..\..\..\..\..\..\uCOS-III\Source/os_tmr.c **** *                                 OS_ERR_TMR_ISR                 if the call was made from an ISR
  96:..\..\..\..\..\..\uCOS-III\Source/os_tmr.c **** *
  97:..\..\..\..\..\..\uCOS-III\Source/os_tmr.c **** * Returns    : none
  98:..\..\..\..\..\..\uCOS-III\Source/os_tmr.c **** *
  99:..\..\..\..\..\..\uCOS-III\Source/os_tmr.c **** * Note(s)    : 1) This function only creates the timer.  In other words, the timer is not started w
 100:..\..\..\..\..\..\uCOS-III\Source/os_tmr.c **** *                 start the timer, call OSTmrStart().
 101:..\..\..\..\..\..\uCOS-III\Source/os_tmr.c **** ***************************************************************************************************
 102:..\..\..\..\..\..\uCOS-III\Source/os_tmr.c **** */
 103:..\..\..\..\..\..\uCOS-III\Source/os_tmr.c **** 
 104:..\..\..\..\..\..\uCOS-III\Source/os_tmr.c **** void  OSTmrCreate (OS_TMR               *p_tmr,
 105:..\..\..\..\..\..\uCOS-III\Source/os_tmr.c ****                    CPU_CHAR             *p_name,
 106:..\..\..\..\..\..\uCOS-III\Source/os_tmr.c ****                    OS_TICK               dly,
 107:..\..\..\..\..\..\uCOS-III\Source/os_tmr.c ****                    OS_TICK               period,
 108:..\..\..\..\..\..\uCOS-III\Source/os_tmr.c ****                    OS_OPT                opt,
 109:..\..\..\..\..\..\uCOS-III\Source/os_tmr.c ****                    OS_TMR_CALLBACK_PTR   p_callback,
 110:..\..\..\..\..\..\uCOS-III\Source/os_tmr.c ****                    void                 *p_callback_arg,
 111:..\..\..\..\..\..\uCOS-III\Source/os_tmr.c ****                    OS_ERR               *p_err)
 112:..\..\..\..\..\..\uCOS-III\Source/os_tmr.c **** {
  28              		.loc 1 112 0
  29              		.cfi_startproc
  30              		@ args = 16, pretend = 0, frame = 24
  31              		@ frame_needed = 1, uses_anonymous_args = 0
  32 0000 80B5     		push	{r7, lr}
  33              		.cfi_def_cfa_offset 8
  34              		.cfi_offset 7, -8
  35              		.cfi_offset 14, -4
  36 0002 86B0     		sub	sp, sp, #24
  37              		.cfi_def_cfa_offset 32
  38 0004 00AF     		add	r7, sp, #0
  39              		.cfi_def_cfa_register 7
  40 0006 F860     		str	r0, [r7, #12]
  41 0008 B960     		str	r1, [r7, #8]
  42 000a 7A60     		str	r2, [r7, #4]
  43 000c 3B60     		str	r3, [r7]
 113:..\..\..\..\..\..\uCOS-III\Source/os_tmr.c ****     CPU_SR_ALLOC();
  44              		.loc 1 113 0
  45 000e 0023     		movs	r3, #0
  46 0010 7B61     		str	r3, [r7, #20]
 114:..\..\..\..\..\..\uCOS-III\Source/os_tmr.c **** 
 115:..\..\..\..\..\..\uCOS-III\Source/os_tmr.c **** 
 116:..\..\..\..\..\..\uCOS-III\Source/os_tmr.c **** 
 117:..\..\..\..\..\..\uCOS-III\Source/os_tmr.c **** #ifdef OS_SAFETY_CRITICAL
 118:..\..\..\..\..\..\uCOS-III\Source/os_tmr.c ****     if (p_err == (OS_ERR *)0) {
 119:..\..\..\..\..\..\uCOS-III\Source/os_tmr.c ****         OS_SAFETY_CRITICAL_EXCEPTION();
 120:..\..\..\..\..\..\uCOS-III\Source/os_tmr.c ****         return;
 121:..\..\..\..\..\..\uCOS-III\Source/os_tmr.c ****     }
 122:..\..\..\..\..\..\uCOS-III\Source/os_tmr.c **** #endif
 123:..\..\..\..\..\..\uCOS-III\Source/os_tmr.c **** 
 124:..\..\..\..\..\..\uCOS-III\Source/os_tmr.c **** #ifdef OS_SAFETY_CRITICAL_IEC61508
 125:..\..\..\..\..\..\uCOS-III\Source/os_tmr.c ****     if (OSSafetyCriticalStartFlag == DEF_TRUE) {
ARM GAS  C:\Users\alex\AppData\Local\Temp\ccByxCIb.s 			page 4


 126:..\..\..\..\..\..\uCOS-III\Source/os_tmr.c ****        *p_err = OS_ERR_ILLEGAL_CREATE_RUN_TIME;
 127:..\..\..\..\..\..\uCOS-III\Source/os_tmr.c ****         return;
 128:..\..\..\..\..\..\uCOS-III\Source/os_tmr.c ****     }
 129:..\..\..\..\..\..\uCOS-III\Source/os_tmr.c **** #endif
 130:..\..\..\..\..\..\uCOS-III\Source/os_tmr.c **** 
 131:..\..\..\..\..\..\uCOS-III\Source/os_tmr.c **** #if OS_CFG_CALLED_FROM_ISR_CHK_EN > 0u
 132:..\..\..\..\..\..\uCOS-III\Source/os_tmr.c ****     if (OSIntNestingCtr > (OS_NESTING_CTR)0) {              /* See if trying to call from an ISR   
  47              		.loc 1 132 0
  48 0012 344B     		ldr	r3, .L14
  49 0014 1B78     		ldrb	r3, [r3]	@ zero_extendqisi2
  50 0016 002B     		cmp	r3, #0
  51 0018 04D0     		beq	.L2
 133:..\..\..\..\..\..\uCOS-III\Source/os_tmr.c ****        *p_err = OS_ERR_TMR_ISR;
  52              		.loc 1 133 0
  53 001a FB6A     		ldr	r3, [r7, #44]
  54 001c 47F24332 		movw	r2, #29507
  55 0020 1A80     		strh	r2, [r3]	@ movhi
 134:..\..\..\..\..\..\uCOS-III\Source/os_tmr.c ****         return;
  56              		.loc 1 134 0
  57 0022 5BE0     		b	.L1
  58              	.L2:
 135:..\..\..\..\..\..\uCOS-III\Source/os_tmr.c ****     }
 136:..\..\..\..\..\..\uCOS-III\Source/os_tmr.c **** #endif
 137:..\..\..\..\..\..\uCOS-III\Source/os_tmr.c **** 
 138:..\..\..\..\..\..\uCOS-III\Source/os_tmr.c **** #if OS_CFG_ARG_CHK_EN > 0u
 139:..\..\..\..\..\..\uCOS-III\Source/os_tmr.c ****     if (p_tmr == (OS_TMR *)0) {                             /* Validate 'p_tmr'                    
  59              		.loc 1 139 0
  60 0024 FB68     		ldr	r3, [r7, #12]
  61 0026 002B     		cmp	r3, #0
  62 0028 04D1     		bne	.L4
 140:..\..\..\..\..\..\uCOS-III\Source/os_tmr.c ****        *p_err = OS_ERR_OBJ_PTR_NULL;
  63              		.loc 1 140 0
  64 002a FB6A     		ldr	r3, [r7, #44]
  65 002c 45F6C352 		movw	r2, #24003
  66 0030 1A80     		strh	r2, [r3]	@ movhi
 141:..\..\..\..\..\..\uCOS-III\Source/os_tmr.c ****         return;
  67              		.loc 1 141 0
  68 0032 53E0     		b	.L1
  69              	.L4:
 142:..\..\..\..\..\..\uCOS-III\Source/os_tmr.c ****     }
 143:..\..\..\..\..\..\uCOS-III\Source/os_tmr.c **** 
 144:..\..\..\..\..\..\uCOS-III\Source/os_tmr.c ****     switch (opt) {
  70              		.loc 1 144 0
  71 0034 3B8C     		ldrh	r3, [r7, #32]
  72 0036 012B     		cmp	r3, #1
  73 0038 09D0     		beq	.L6
  74 003a 022B     		cmp	r3, #2
  75 003c 0FD1     		bne	.L11
 145:..\..\..\..\..\..\uCOS-III\Source/os_tmr.c ****         case OS_OPT_TMR_PERIODIC:
 146:..\..\..\..\..\..\uCOS-III\Source/os_tmr.c ****              if (period == (OS_TICK)0) {
  76              		.loc 1 146 0
  77 003e 3B68     		ldr	r3, [r7]
  78 0040 002B     		cmp	r3, #0
  79 0042 11D1     		bne	.L12
 147:..\..\..\..\..\..\uCOS-III\Source/os_tmr.c ****                 *p_err = OS_ERR_TMR_INVALID_PERIOD;
  80              		.loc 1 147 0
  81 0044 FB6A     		ldr	r3, [r7, #44]
ARM GAS  C:\Users\alex\AppData\Local\Temp\ccByxCIb.s 			page 5


  82 0046 47F24032 		movw	r2, #29504
  83 004a 1A80     		strh	r2, [r3]	@ movhi
 148:..\..\..\..\..\..\uCOS-III\Source/os_tmr.c ****                  return;
  84              		.loc 1 148 0
  85 004c 46E0     		b	.L1
  86              	.L6:
 149:..\..\..\..\..\..\uCOS-III\Source/os_tmr.c ****              }
 150:..\..\..\..\..\..\uCOS-III\Source/os_tmr.c ****              break;
 151:..\..\..\..\..\..\uCOS-III\Source/os_tmr.c **** 
 152:..\..\..\..\..\..\uCOS-III\Source/os_tmr.c ****         case OS_OPT_TMR_ONE_SHOT:
 153:..\..\..\..\..\..\uCOS-III\Source/os_tmr.c ****              if (dly == (OS_TICK)0) {
  87              		.loc 1 153 0
  88 004e 7B68     		ldr	r3, [r7, #4]
  89 0050 002B     		cmp	r3, #0
  90 0052 0BD1     		bne	.L13
 154:..\..\..\..\..\..\uCOS-III\Source/os_tmr.c ****                 *p_err = OS_ERR_TMR_INVALID_DLY;
  91              		.loc 1 154 0
  92 0054 FB6A     		ldr	r3, [r7, #44]
  93 0056 47F23F32 		movw	r2, #29503
  94 005a 1A80     		strh	r2, [r3]	@ movhi
 155:..\..\..\..\..\..\uCOS-III\Source/os_tmr.c ****                  return;
  95              		.loc 1 155 0
  96 005c 3EE0     		b	.L1
  97              	.L11:
 156:..\..\..\..\..\..\uCOS-III\Source/os_tmr.c ****              }
 157:..\..\..\..\..\..\uCOS-III\Source/os_tmr.c ****              break;
 158:..\..\..\..\..\..\uCOS-III\Source/os_tmr.c **** 
 159:..\..\..\..\..\..\uCOS-III\Source/os_tmr.c ****         default:
 160:..\..\..\..\..\..\uCOS-III\Source/os_tmr.c ****             *p_err = OS_ERR_OPT_INVALID;
  98              		.loc 1 160 0
  99 005e FB6A     		ldr	r3, [r7, #44]
 100 0060 45F62562 		movw	r2, #24101
 101 0064 1A80     		strh	r2, [r3]	@ movhi
 161:..\..\..\..\..\..\uCOS-III\Source/os_tmr.c ****              return;
 102              		.loc 1 161 0
 103 0066 39E0     		b	.L1
 104              	.L12:
 150:..\..\..\..\..\..\uCOS-III\Source/os_tmr.c **** 
 105              		.loc 1 150 0
 106 0068 00BF     		nop
 107 006a 00E0     		b	.L9
 108              	.L13:
 157:..\..\..\..\..\..\uCOS-III\Source/os_tmr.c **** 
 109              		.loc 1 157 0
 110 006c 00BF     		nop
 111              	.L9:
 162:..\..\..\..\..\..\uCOS-III\Source/os_tmr.c ****     }
 163:..\..\..\..\..\..\uCOS-III\Source/os_tmr.c **** #endif
 164:..\..\..\..\..\..\uCOS-III\Source/os_tmr.c **** 
 165:..\..\..\..\..\..\uCOS-III\Source/os_tmr.c ****     OS_CRITICAL_ENTER();
 112              		.loc 1 165 0
 113 006e FFF7FEFF 		bl	CPU_SR_Save
 114 0072 7861     		str	r0, [r7, #20]
 166:..\..\..\..\..\..\uCOS-III\Source/os_tmr.c ****     p_tmr->State          = (OS_STATE           )OS_TMR_STATE_STOPPED;     /* Initialize the timer 
 115              		.loc 1 166 0
 116 0074 FB68     		ldr	r3, [r7, #12]
 117 0076 0122     		movs	r2, #1
ARM GAS  C:\Users\alex\AppData\Local\Temp\ccByxCIb.s 			page 6


 118 0078 83F82A20 		strb	r2, [r3, #42]
 167:..\..\..\..\..\..\uCOS-III\Source/os_tmr.c ****     p_tmr->Type           = (OS_OBJ_TYPE        )OS_OBJ_TYPE_TMR;
 119              		.loc 1 167 0
 120 007c FB68     		ldr	r3, [r7, #12]
 121 007e 1A4A     		ldr	r2, .L14+4
 122 0080 1A60     		str	r2, [r3]
 168:..\..\..\..\..\..\uCOS-III\Source/os_tmr.c ****     p_tmr->NamePtr        = (CPU_CHAR          *)p_name;
 123              		.loc 1 168 0
 124 0082 FB68     		ldr	r3, [r7, #12]
 125 0084 BA68     		ldr	r2, [r7, #8]
 126 0086 5A60     		str	r2, [r3, #4]
 169:..\..\..\..\..\..\uCOS-III\Source/os_tmr.c ****     p_tmr->Dly            = (OS_TICK            )dly;
 127              		.loc 1 169 0
 128 0088 FB68     		ldr	r3, [r7, #12]
 129 008a 7A68     		ldr	r2, [r7, #4]
 130 008c 1A62     		str	r2, [r3, #32]
 170:..\..\..\..\..\..\uCOS-III\Source/os_tmr.c ****     p_tmr->Match          = (OS_TICK            )0;
 131              		.loc 1 170 0
 132 008e FB68     		ldr	r3, [r7, #12]
 133 0090 0022     		movs	r2, #0
 134 0092 9A61     		str	r2, [r3, #24]
 171:..\..\..\..\..\..\uCOS-III\Source/os_tmr.c ****     p_tmr->Remain         = (OS_TICK            )0;
 135              		.loc 1 171 0
 136 0094 FB68     		ldr	r3, [r7, #12]
 137 0096 0022     		movs	r2, #0
 138 0098 DA61     		str	r2, [r3, #28]
 172:..\..\..\..\..\..\uCOS-III\Source/os_tmr.c ****     p_tmr->Period         = (OS_TICK            )period;
 139              		.loc 1 172 0
 140 009a FB68     		ldr	r3, [r7, #12]
 141 009c 3A68     		ldr	r2, [r7]
 142 009e 5A62     		str	r2, [r3, #36]
 173:..\..\..\..\..\..\uCOS-III\Source/os_tmr.c ****     p_tmr->Opt            = (OS_OPT             )opt;
 143              		.loc 1 173 0
 144 00a0 FB68     		ldr	r3, [r7, #12]
 145 00a2 3A8C     		ldrh	r2, [r7, #32]	@ movhi
 146 00a4 1A85     		strh	r2, [r3, #40]	@ movhi
 174:..\..\..\..\..\..\uCOS-III\Source/os_tmr.c ****     p_tmr->CallbackPtr    = (OS_TMR_CALLBACK_PTR)p_callback;
 147              		.loc 1 174 0
 148 00a6 FB68     		ldr	r3, [r7, #12]
 149 00a8 7A6A     		ldr	r2, [r7, #36]
 150 00aa 9A60     		str	r2, [r3, #8]
 175:..\..\..\..\..\..\uCOS-III\Source/os_tmr.c ****     p_tmr->CallbackPtrArg = (void              *)p_callback_arg;
 151              		.loc 1 175 0
 152 00ac FB68     		ldr	r3, [r7, #12]
 153 00ae BA6A     		ldr	r2, [r7, #40]
 154 00b0 DA60     		str	r2, [r3, #12]
 176:..\..\..\..\..\..\uCOS-III\Source/os_tmr.c ****     p_tmr->NextPtr        = (OS_TMR            *)0;
 155              		.loc 1 176 0
 156 00b2 FB68     		ldr	r3, [r7, #12]
 157 00b4 0022     		movs	r2, #0
 158 00b6 1A61     		str	r2, [r3, #16]
 177:..\..\..\..\..\..\uCOS-III\Source/os_tmr.c ****     p_tmr->PrevPtr        = (OS_TMR            *)0;
 159              		.loc 1 177 0
 160 00b8 FB68     		ldr	r3, [r7, #12]
 161 00ba 0022     		movs	r2, #0
 162 00bc 5A61     		str	r2, [r3, #20]
 178:..\..\..\..\..\..\uCOS-III\Source/os_tmr.c **** 
ARM GAS  C:\Users\alex\AppData\Local\Temp\ccByxCIb.s 			page 7


 179:..\..\..\..\..\..\uCOS-III\Source/os_tmr.c **** #if OS_CFG_DBG_EN > 0u
 180:..\..\..\..\..\..\uCOS-III\Source/os_tmr.c ****     OS_TmrDbgListAdd(p_tmr);
 163              		.loc 1 180 0
 164 00be F868     		ldr	r0, [r7, #12]
 165 00c0 FFF7FEFF 		bl	OS_TmrDbgListAdd
 181:..\..\..\..\..\..\uCOS-III\Source/os_tmr.c **** #endif
 182:..\..\..\..\..\..\uCOS-III\Source/os_tmr.c ****     OSTmrQty++;                                             /* Keep track of the number of timers c
 166              		.loc 1 182 0
 167 00c4 094B     		ldr	r3, .L14+8
 168 00c6 1B88     		ldrh	r3, [r3]
 169 00c8 0133     		adds	r3, r3, #1
 170 00ca 9AB2     		uxth	r2, r3
 171 00cc 074B     		ldr	r3, .L14+8
 172 00ce 1A80     		strh	r2, [r3]	@ movhi
 183:..\..\..\..\..\..\uCOS-III\Source/os_tmr.c **** 
 184:..\..\..\..\..\..\uCOS-III\Source/os_tmr.c ****     OS_CRITICAL_EXIT_NO_SCHED();
 173              		.loc 1 184 0
 174 00d0 7869     		ldr	r0, [r7, #20]
 175 00d2 FFF7FEFF 		bl	CPU_SR_Restore
 185:..\..\..\..\..\..\uCOS-III\Source/os_tmr.c ****    *p_err = OS_ERR_NONE;
 176              		.loc 1 185 0
 177 00d6 FB6A     		ldr	r3, [r7, #44]
 178 00d8 0022     		movs	r2, #0
 179 00da 1A80     		strh	r2, [r3]	@ movhi
 180              	.L1:
 186:..\..\..\..\..\..\uCOS-III\Source/os_tmr.c **** }
 181              		.loc 1 186 0
 182 00dc 1837     		adds	r7, r7, #24
 183              		.cfi_def_cfa_offset 8
 184 00de BD46     		mov	sp, r7
 185              		.cfi_def_cfa_register 13
 186              		@ sp needed
 187 00e0 80BD     		pop	{r7, pc}
 188              	.L15:
 189 00e2 00BF     		.align	2
 190              	.L14:
 191 00e4 00000000 		.word	OSIntNestingCtr
 192 00e8 544D5220 		.word	542264660
 193 00ec 00000000 		.word	OSTmrQty
 194              		.cfi_endproc
 195              	.LFE0:
 196              		.size	OSTmrCreate, .-OSTmrCreate
 197              		.section	.text.OSTmrDel,"ax",%progbits
 198              		.align	2
 199              		.global	OSTmrDel
 200              		.thumb
 201              		.thumb_func
 202              		.type	OSTmrDel, %function
 203              	OSTmrDel:
 204              	.LFB1:
 187:..\..\..\..\..\..\uCOS-III\Source/os_tmr.c **** 
 188:..\..\..\..\..\..\uCOS-III\Source/os_tmr.c **** /*$PAGE*/
 189:..\..\..\..\..\..\uCOS-III\Source/os_tmr.c **** /*
 190:..\..\..\..\..\..\uCOS-III\Source/os_tmr.c **** ***************************************************************************************************
 191:..\..\..\..\..\..\uCOS-III\Source/os_tmr.c **** *                                                   DELETE A TIMER
 192:..\..\..\..\..\..\uCOS-III\Source/os_tmr.c **** *
 193:..\..\..\..\..\..\uCOS-III\Source/os_tmr.c **** * Description: This function is called by your application code to delete a timer.
ARM GAS  C:\Users\alex\AppData\Local\Temp\ccByxCIb.s 			page 8


 194:..\..\..\..\..\..\uCOS-III\Source/os_tmr.c **** *
 195:..\..\..\..\..\..\uCOS-III\Source/os_tmr.c **** * Arguments  : p_tmr          Is a pointer to the timer to stop and delete.
 196:..\..\..\..\..\..\uCOS-III\Source/os_tmr.c **** *
 197:..\..\..\..\..\..\uCOS-III\Source/os_tmr.c **** *              p_err          Is a pointer to an error code.  '*p_err' will contain one of the foll
 198:..\..\..\..\..\..\uCOS-III\Source/os_tmr.c **** *
 199:..\..\..\..\..\..\uCOS-III\Source/os_tmr.c **** *                                 OS_ERR_NONE
 200:..\..\..\..\..\..\uCOS-III\Source/os_tmr.c **** *                                 OS_ERR_OBJ_TYPE             'p_tmr' is not pointing to a timer
 201:..\..\..\..\..\..\uCOS-III\Source/os_tmr.c **** *                                 OS_ERR_TMR_INVALID          'p_tmr' is a NULL pointer
 202:..\..\..\..\..\..\uCOS-III\Source/os_tmr.c **** *                                 OS_ERR_TMR_ISR              if the function was called from an IS
 203:..\..\..\..\..\..\uCOS-III\Source/os_tmr.c **** *                                 OS_ERR_TMR_INACTIVE         if the timer was not created
 204:..\..\..\..\..\..\uCOS-III\Source/os_tmr.c **** *                                 OS_ERR_TMR_INVALID_STATE    the timer is in an invalid state
 205:..\..\..\..\..\..\uCOS-III\Source/os_tmr.c **** *
 206:..\..\..\..\..\..\uCOS-III\Source/os_tmr.c **** * Returns    : DEF_TRUE   if the timer was deleted
 207:..\..\..\..\..\..\uCOS-III\Source/os_tmr.c **** *              DEF_FALSE  if not or upon an error
 208:..\..\..\..\..\..\uCOS-III\Source/os_tmr.c **** ***************************************************************************************************
 209:..\..\..\..\..\..\uCOS-III\Source/os_tmr.c **** */
 210:..\..\..\..\..\..\uCOS-III\Source/os_tmr.c **** 
 211:..\..\..\..\..\..\uCOS-III\Source/os_tmr.c **** #if OS_CFG_TMR_DEL_EN > 0u
 212:..\..\..\..\..\..\uCOS-III\Source/os_tmr.c **** CPU_BOOLEAN  OSTmrDel (OS_TMR  *p_tmr,
 213:..\..\..\..\..\..\uCOS-III\Source/os_tmr.c ****                        OS_ERR  *p_err)
 214:..\..\..\..\..\..\uCOS-III\Source/os_tmr.c **** {
 205              		.loc 1 214 0
 206              		.cfi_startproc
 207              		@ args = 0, pretend = 0, frame = 16
 208              		@ frame_needed = 1, uses_anonymous_args = 0
 209 0000 80B5     		push	{r7, lr}
 210              		.cfi_def_cfa_offset 8
 211              		.cfi_offset 7, -8
 212              		.cfi_offset 14, -4
 213 0002 84B0     		sub	sp, sp, #16
 214              		.cfi_def_cfa_offset 24
 215 0004 00AF     		add	r7, sp, #0
 216              		.cfi_def_cfa_register 7
 217 0006 7860     		str	r0, [r7, #4]
 218 0008 3960     		str	r1, [r7]
 215:..\..\..\..\..\..\uCOS-III\Source/os_tmr.c ****     OS_ERR       err;
 216:..\..\..\..\..\..\uCOS-III\Source/os_tmr.c ****     CPU_BOOLEAN  success;
 217:..\..\..\..\..\..\uCOS-III\Source/os_tmr.c **** 
 218:..\..\..\..\..\..\uCOS-III\Source/os_tmr.c **** 
 219:..\..\..\..\..\..\uCOS-III\Source/os_tmr.c **** 
 220:..\..\..\..\..\..\uCOS-III\Source/os_tmr.c **** #ifdef OS_SAFETY_CRITICAL
 221:..\..\..\..\..\..\uCOS-III\Source/os_tmr.c ****     if (p_err == (OS_ERR *)0) {
 222:..\..\..\..\..\..\uCOS-III\Source/os_tmr.c ****         OS_SAFETY_CRITICAL_EXCEPTION();
 223:..\..\..\..\..\..\uCOS-III\Source/os_tmr.c ****         return (DEF_FALSE);
 224:..\..\..\..\..\..\uCOS-III\Source/os_tmr.c ****     }
 225:..\..\..\..\..\..\uCOS-III\Source/os_tmr.c **** #endif
 226:..\..\..\..\..\..\uCOS-III\Source/os_tmr.c **** 
 227:..\..\..\..\..\..\uCOS-III\Source/os_tmr.c **** #if OS_CFG_CALLED_FROM_ISR_CHK_EN > 0u
 228:..\..\..\..\..\..\uCOS-III\Source/os_tmr.c ****     if (OSIntNestingCtr > (OS_NESTING_CTR)0) {              /* See if trying to call from an ISR   
 219              		.loc 1 228 0
 220 000a 364B     		ldr	r3, .L27
 221 000c 1B78     		ldrb	r3, [r3]	@ zero_extendqisi2
 222 000e 002B     		cmp	r3, #0
 223 0010 05D0     		beq	.L17
 229:..\..\..\..\..\..\uCOS-III\Source/os_tmr.c ****        *p_err  = OS_ERR_TMR_ISR;
 224              		.loc 1 229 0
 225 0012 3B68     		ldr	r3, [r7]
ARM GAS  C:\Users\alex\AppData\Local\Temp\ccByxCIb.s 			page 9


 226 0014 47F24332 		movw	r2, #29507
 227 0018 1A80     		strh	r2, [r3]	@ movhi
 230:..\..\..\..\..\..\uCOS-III\Source/os_tmr.c ****         return (DEF_FALSE);
 228              		.loc 1 230 0
 229 001a 0023     		movs	r3, #0
 230 001c 5EE0     		b	.L26
 231              	.L17:
 231:..\..\..\..\..\..\uCOS-III\Source/os_tmr.c ****     }
 232:..\..\..\..\..\..\uCOS-III\Source/os_tmr.c **** #endif
 233:..\..\..\..\..\..\uCOS-III\Source/os_tmr.c **** 
 234:..\..\..\..\..\..\uCOS-III\Source/os_tmr.c **** #if OS_CFG_ARG_CHK_EN > 0u
 235:..\..\..\..\..\..\uCOS-III\Source/os_tmr.c ****     if (p_tmr == (OS_TMR *)0) {
 232              		.loc 1 235 0
 233 001e 7B68     		ldr	r3, [r7, #4]
 234 0020 002B     		cmp	r3, #0
 235 0022 05D1     		bne	.L19
 236:..\..\..\..\..\..\uCOS-III\Source/os_tmr.c ****        *p_err = OS_ERR_TMR_INVALID;
 236              		.loc 1 236 0
 237 0024 3B68     		ldr	r3, [r7]
 238 0026 47F24232 		movw	r2, #29506
 239 002a 1A80     		strh	r2, [r3]	@ movhi
 237:..\..\..\..\..\..\uCOS-III\Source/os_tmr.c ****         return (DEF_FALSE);
 240              		.loc 1 237 0
 241 002c 0023     		movs	r3, #0
 242 002e 55E0     		b	.L26
 243              	.L19:
 238:..\..\..\..\..\..\uCOS-III\Source/os_tmr.c ****     }
 239:..\..\..\..\..\..\uCOS-III\Source/os_tmr.c **** #endif
 240:..\..\..\..\..\..\uCOS-III\Source/os_tmr.c **** 
 241:..\..\..\..\..\..\uCOS-III\Source/os_tmr.c **** #if OS_CFG_OBJ_TYPE_CHK_EN > 0u
 242:..\..\..\..\..\..\uCOS-III\Source/os_tmr.c ****     if (p_tmr->Type != OS_OBJ_TYPE_TMR) {                   /* Make sure timer was created         
 243:..\..\..\..\..\..\uCOS-III\Source/os_tmr.c ****        *p_err = OS_ERR_OBJ_TYPE;
 244:..\..\..\..\..\..\uCOS-III\Source/os_tmr.c ****         return (DEF_FALSE);
 245:..\..\..\..\..\..\uCOS-III\Source/os_tmr.c ****     }
 246:..\..\..\..\..\..\uCOS-III\Source/os_tmr.c **** #endif
 247:..\..\..\..\..\..\uCOS-III\Source/os_tmr.c **** 
 248:..\..\..\..\..\..\uCOS-III\Source/os_tmr.c ****     OSSchedLock(&err);
 244              		.loc 1 248 0
 245 0030 07F10C03 		add	r3, r7, #12
 246 0034 1846     		mov	r0, r3
 247 0036 FFF7FEFF 		bl	OSSchedLock
 249:..\..\..\..\..\..\uCOS-III\Source/os_tmr.c **** #if OS_CFG_DBG_EN > 0u
 250:..\..\..\..\..\..\uCOS-III\Source/os_tmr.c ****     OS_TmrDbgListRemove(p_tmr);
 248              		.loc 1 250 0
 249 003a 7868     		ldr	r0, [r7, #4]
 250 003c FFF7FEFF 		bl	OS_TmrDbgListRemove
 251:..\..\..\..\..\..\uCOS-III\Source/os_tmr.c **** #endif
 252:..\..\..\..\..\..\uCOS-III\Source/os_tmr.c ****     OSTmrQty--;                                             /* One less timer                      
 251              		.loc 1 252 0
 252 0040 294B     		ldr	r3, .L27+4
 253 0042 1B88     		ldrh	r3, [r3]
 254 0044 013B     		subs	r3, r3, #1
 255 0046 9AB2     		uxth	r2, r3
 256 0048 274B     		ldr	r3, .L27+4
 257 004a 1A80     		strh	r2, [r3]	@ movhi
 253:..\..\..\..\..\..\uCOS-III\Source/os_tmr.c **** 
 254:..\..\..\..\..\..\uCOS-III\Source/os_tmr.c ****     switch (p_tmr->State) {
ARM GAS  C:\Users\alex\AppData\Local\Temp\ccByxCIb.s 			page 10


 258              		.loc 1 254 0
 259 004c 7B68     		ldr	r3, [r7, #4]
 260 004e 93F82A30 		ldrb	r3, [r3, #42]	@ zero_extendqisi2
 261 0052 032B     		cmp	r3, #3
 262 0054 35D8     		bhi	.L20
 263 0056 01A2     		adr	r2, .L22
 264 0058 52F823F0 		ldr	pc, [r2, r3, lsl #2]
 265              		.p2align 2
 266              	.L22:
 267 005c AB000000 		.word	.L21+1
 268 0060 8F000000 		.word	.L23+1
 269 0064 6D000000 		.word	.L24+1
 270 0068 8F000000 		.word	.L23+1
 271              		.p2align 1
 272              	.L24:
 255:..\..\..\..\..\..\uCOS-III\Source/os_tmr.c ****         case OS_TMR_STATE_RUNNING:
 256:..\..\..\..\..\..\uCOS-III\Source/os_tmr.c ****              OS_TmrUnlink(p_tmr);                           /* Remove from current wheel spoke     
 273              		.loc 1 256 0
 274 006c 7868     		ldr	r0, [r7, #4]
 275 006e FFF7FEFF 		bl	OS_TmrUnlink
 257:..\..\..\..\..\..\uCOS-III\Source/os_tmr.c ****              OS_TmrClr(p_tmr);
 276              		.loc 1 257 0
 277 0072 7868     		ldr	r0, [r7, #4]
 278 0074 FFF7FEFF 		bl	OS_TmrClr
 258:..\..\..\..\..\..\uCOS-III\Source/os_tmr.c ****              OSSchedUnlock(&err);
 279              		.loc 1 258 0
 280 0078 07F10C03 		add	r3, r7, #12
 281 007c 1846     		mov	r0, r3
 282 007e FFF7FEFF 		bl	OSSchedUnlock
 259:..\..\..\..\..\..\uCOS-III\Source/os_tmr.c ****             *p_err   = OS_ERR_NONE;
 283              		.loc 1 259 0
 284 0082 3B68     		ldr	r3, [r7]
 285 0084 0022     		movs	r2, #0
 286 0086 1A80     		strh	r2, [r3]	@ movhi
 260:..\..\..\..\..\..\uCOS-III\Source/os_tmr.c ****              success = DEF_TRUE;
 287              		.loc 1 260 0
 288 0088 0123     		movs	r3, #1
 289 008a FB73     		strb	r3, [r7, #15]
 261:..\..\..\..\..\..\uCOS-III\Source/os_tmr.c ****              break;
 290              		.loc 1 261 0
 291 008c 25E0     		b	.L25
 292              	.L23:
 262:..\..\..\..\..\..\uCOS-III\Source/os_tmr.c **** 
 263:..\..\..\..\..\..\uCOS-III\Source/os_tmr.c ****         case OS_TMR_STATE_STOPPED:                          /* Timer has not started or ...        
 264:..\..\..\..\..\..\uCOS-III\Source/os_tmr.c ****         case OS_TMR_STATE_COMPLETED:                        /* ... timer has completed the ONE-SHOT
 265:..\..\..\..\..\..\uCOS-III\Source/os_tmr.c ****              OS_TmrClr(p_tmr);                              /* Clear timer fields                  
 293              		.loc 1 265 0
 294 008e 7868     		ldr	r0, [r7, #4]
 295 0090 FFF7FEFF 		bl	OS_TmrClr
 266:..\..\..\..\..\..\uCOS-III\Source/os_tmr.c ****              OSSchedUnlock(&err);
 296              		.loc 1 266 0
 297 0094 07F10C03 		add	r3, r7, #12
 298 0098 1846     		mov	r0, r3
 299 009a FFF7FEFF 		bl	OSSchedUnlock
 267:..\..\..\..\..\..\uCOS-III\Source/os_tmr.c ****             *p_err   = OS_ERR_NONE;
 300              		.loc 1 267 0
 301 009e 3B68     		ldr	r3, [r7]
ARM GAS  C:\Users\alex\AppData\Local\Temp\ccByxCIb.s 			page 11


 302 00a0 0022     		movs	r2, #0
 303 00a2 1A80     		strh	r2, [r3]	@ movhi
 268:..\..\..\..\..\..\uCOS-III\Source/os_tmr.c ****              success = DEF_TRUE;
 304              		.loc 1 268 0
 305 00a4 0123     		movs	r3, #1
 306 00a6 FB73     		strb	r3, [r7, #15]
 269:..\..\..\..\..\..\uCOS-III\Source/os_tmr.c ****              break;
 307              		.loc 1 269 0
 308 00a8 17E0     		b	.L25
 309              	.L21:
 270:..\..\..\..\..\..\uCOS-III\Source/os_tmr.c ****              
 271:..\..\..\..\..\..\uCOS-III\Source/os_tmr.c ****         case OS_TMR_STATE_UNUSED:                           /* Already deleted                     
 272:..\..\..\..\..\..\uCOS-III\Source/os_tmr.c ****              OSSchedUnlock(&err);
 310              		.loc 1 272 0
 311 00aa 07F10C03 		add	r3, r7, #12
 312 00ae 1846     		mov	r0, r3
 313 00b0 FFF7FEFF 		bl	OSSchedUnlock
 273:..\..\..\..\..\..\uCOS-III\Source/os_tmr.c ****             *p_err   = OS_ERR_TMR_INACTIVE;
 314              		.loc 1 273 0
 315 00b4 3B68     		ldr	r3, [r7]
 316 00b6 47F23D32 		movw	r2, #29501
 317 00ba 1A80     		strh	r2, [r3]	@ movhi
 274:..\..\..\..\..\..\uCOS-III\Source/os_tmr.c ****              success = DEF_FALSE;
 318              		.loc 1 274 0
 319 00bc 0023     		movs	r3, #0
 320 00be FB73     		strb	r3, [r7, #15]
 275:..\..\..\..\..\..\uCOS-III\Source/os_tmr.c ****              break;
 321              		.loc 1 275 0
 322 00c0 0BE0     		b	.L25
 323              	.L20:
 276:..\..\..\..\..\..\uCOS-III\Source/os_tmr.c **** 
 277:..\..\..\..\..\..\uCOS-III\Source/os_tmr.c ****         default:
 278:..\..\..\..\..\..\uCOS-III\Source/os_tmr.c ****              OSSchedUnlock(&err);
 324              		.loc 1 278 0
 325 00c2 07F10C03 		add	r3, r7, #12
 326 00c6 1846     		mov	r0, r3
 327 00c8 FFF7FEFF 		bl	OSSchedUnlock
 279:..\..\..\..\..\..\uCOS-III\Source/os_tmr.c ****             *p_err   = OS_ERR_TMR_INVALID_STATE;
 328              		.loc 1 279 0
 329 00cc 3B68     		ldr	r3, [r7]
 330 00ce 47F24132 		movw	r2, #29505
 331 00d2 1A80     		strh	r2, [r3]	@ movhi
 280:..\..\..\..\..\..\uCOS-III\Source/os_tmr.c ****              success = DEF_FALSE;
 332              		.loc 1 280 0
 333 00d4 0023     		movs	r3, #0
 334 00d6 FB73     		strb	r3, [r7, #15]
 281:..\..\..\..\..\..\uCOS-III\Source/os_tmr.c ****              break;
 335              		.loc 1 281 0
 336 00d8 00BF     		nop
 337              	.L25:
 282:..\..\..\..\..\..\uCOS-III\Source/os_tmr.c ****     }
 283:..\..\..\..\..\..\uCOS-III\Source/os_tmr.c ****     return (success);
 338              		.loc 1 283 0
 339 00da FB7B     		ldrb	r3, [r7, #15]	@ zero_extendqisi2
 340              	.L26:
 284:..\..\..\..\..\..\uCOS-III\Source/os_tmr.c **** }
 341              		.loc 1 284 0 discriminator 1
ARM GAS  C:\Users\alex\AppData\Local\Temp\ccByxCIb.s 			page 12


 342 00dc 1846     		mov	r0, r3
 343 00de 1037     		adds	r7, r7, #16
 344              		.cfi_def_cfa_offset 8
 345 00e0 BD46     		mov	sp, r7
 346              		.cfi_def_cfa_register 13
 347              		@ sp needed
 348 00e2 80BD     		pop	{r7, pc}
 349              	.L28:
 350              		.align	2
 351              	.L27:
 352 00e4 00000000 		.word	OSIntNestingCtr
 353 00e8 00000000 		.word	OSTmrQty
 354              		.cfi_endproc
 355              	.LFE1:
 356              		.size	OSTmrDel, .-OSTmrDel
 357              		.section	.text.OSTmrRemainGet,"ax",%progbits
 358              		.align	2
 359              		.global	OSTmrRemainGet
 360              		.thumb
 361              		.thumb_func
 362              		.type	OSTmrRemainGet, %function
 363              	OSTmrRemainGet:
 364              	.LFB2:
 285:..\..\..\..\..\..\uCOS-III\Source/os_tmr.c **** #endif
 286:..\..\..\..\..\..\uCOS-III\Source/os_tmr.c **** 
 287:..\..\..\..\..\..\uCOS-III\Source/os_tmr.c **** /*$PAGE*/
 288:..\..\..\..\..\..\uCOS-III\Source/os_tmr.c **** /*
 289:..\..\..\..\..\..\uCOS-III\Source/os_tmr.c **** ***************************************************************************************************
 290:..\..\..\..\..\..\uCOS-III\Source/os_tmr.c **** *                                    GET HOW MUCH TIME IS LEFT BEFORE A TIMER EXPIRES
 291:..\..\..\..\..\..\uCOS-III\Source/os_tmr.c **** *
 292:..\..\..\..\..\..\uCOS-III\Source/os_tmr.c **** * Description: This function is called to get the number of ticks before a timer times out.
 293:..\..\..\..\..\..\uCOS-III\Source/os_tmr.c **** *
 294:..\..\..\..\..\..\uCOS-III\Source/os_tmr.c **** * Arguments  : p_tmr    Is a pointer to the timer to obtain the remaining time from.
 295:..\..\..\..\..\..\uCOS-III\Source/os_tmr.c **** *
 296:..\..\..\..\..\..\uCOS-III\Source/os_tmr.c **** *              p_err    Is a pointer to an error code.  '*p_err' will contain one of the following:
 297:..\..\..\..\..\..\uCOS-III\Source/os_tmr.c **** *
 298:..\..\..\..\..\..\uCOS-III\Source/os_tmr.c **** *                           OS_ERR_NONE
 299:..\..\..\..\..\..\uCOS-III\Source/os_tmr.c **** *                           OS_ERR_OBJ_TYPE           'p_tmr' is not pointing to a timer
 300:..\..\..\..\..\..\uCOS-III\Source/os_tmr.c **** *                           OS_ERR_TMR_INVALID        'p_tmr' is a NULL pointer
 301:..\..\..\..\..\..\uCOS-III\Source/os_tmr.c **** *                           OS_ERR_TMR_ISR            if the call was made from an ISR
 302:..\..\..\..\..\..\uCOS-III\Source/os_tmr.c **** *                           OS_ERR_TMR_INACTIVE       'p_tmr' points to a timer that is not active
 303:..\..\..\..\..\..\uCOS-III\Source/os_tmr.c **** *                           OS_ERR_TMR_INVALID_STATE  the timer is in an invalid state
 304:..\..\..\..\..\..\uCOS-III\Source/os_tmr.c **** *
 305:..\..\..\..\..\..\uCOS-III\Source/os_tmr.c **** * Returns    : The time remaining for the timer to expire.  The time represents 'timer' increments.
 306:..\..\..\..\..\..\uCOS-III\Source/os_tmr.c **** *              OS_TmrTask() is signaled every 1/10 of a second then the returned value represents t
 307:..\..\..\..\..\..\uCOS-III\Source/os_tmr.c **** *              a second remaining before the timer expires.
 308:..\..\..\..\..\..\uCOS-III\Source/os_tmr.c **** ***************************************************************************************************
 309:..\..\..\..\..\..\uCOS-III\Source/os_tmr.c **** */
 310:..\..\..\..\..\..\uCOS-III\Source/os_tmr.c **** 
 311:..\..\..\..\..\..\uCOS-III\Source/os_tmr.c **** OS_TICK  OSTmrRemainGet (OS_TMR  *p_tmr,
 312:..\..\..\..\..\..\uCOS-III\Source/os_tmr.c ****                          OS_ERR  *p_err)
 313:..\..\..\..\..\..\uCOS-III\Source/os_tmr.c **** {
 365              		.loc 1 313 0
 366              		.cfi_startproc
 367              		@ args = 0, pretend = 0, frame = 16
 368              		@ frame_needed = 1, uses_anonymous_args = 0
 369 0000 80B5     		push	{r7, lr}
ARM GAS  C:\Users\alex\AppData\Local\Temp\ccByxCIb.s 			page 13


 370              		.cfi_def_cfa_offset 8
 371              		.cfi_offset 7, -8
 372              		.cfi_offset 14, -4
 373 0002 84B0     		sub	sp, sp, #16
 374              		.cfi_def_cfa_offset 24
 375 0004 00AF     		add	r7, sp, #0
 376              		.cfi_def_cfa_register 7
 377 0006 7860     		str	r0, [r7, #4]
 378 0008 3960     		str	r1, [r7]
 314:..\..\..\..\..\..\uCOS-III\Source/os_tmr.c ****     OS_TICK  remain;
 315:..\..\..\..\..\..\uCOS-III\Source/os_tmr.c ****     OS_ERR   err;
 316:..\..\..\..\..\..\uCOS-III\Source/os_tmr.c **** 
 317:..\..\..\..\..\..\uCOS-III\Source/os_tmr.c **** 
 318:..\..\..\..\..\..\uCOS-III\Source/os_tmr.c **** 
 319:..\..\..\..\..\..\uCOS-III\Source/os_tmr.c **** #ifdef OS_SAFETY_CRITICAL
 320:..\..\..\..\..\..\uCOS-III\Source/os_tmr.c ****     if (p_err == (OS_ERR *)0) {
 321:..\..\..\..\..\..\uCOS-III\Source/os_tmr.c ****         OS_SAFETY_CRITICAL_EXCEPTION();
 322:..\..\..\..\..\..\uCOS-III\Source/os_tmr.c ****         return ((OS_TICK)0);
 323:..\..\..\..\..\..\uCOS-III\Source/os_tmr.c ****     }
 324:..\..\..\..\..\..\uCOS-III\Source/os_tmr.c **** #endif
 325:..\..\..\..\..\..\uCOS-III\Source/os_tmr.c **** 
 326:..\..\..\..\..\..\uCOS-III\Source/os_tmr.c **** #if OS_CFG_CALLED_FROM_ISR_CHK_EN > 0u
 327:..\..\..\..\..\..\uCOS-III\Source/os_tmr.c ****     if (OSIntNestingCtr > (OS_NESTING_CTR)0) {              /* See if trying to call from an ISR   
 379              		.loc 1 327 0
 380 000a 414B     		ldr	r3, .L45
 381 000c 1B78     		ldrb	r3, [r3]	@ zero_extendqisi2
 382 000e 002B     		cmp	r3, #0
 383 0010 05D0     		beq	.L30
 328:..\..\..\..\..\..\uCOS-III\Source/os_tmr.c ****        *p_err = OS_ERR_TMR_ISR;
 384              		.loc 1 328 0
 385 0012 3B68     		ldr	r3, [r7]
 386 0014 47F24332 		movw	r2, #29507
 387 0018 1A80     		strh	r2, [r3]	@ movhi
 329:..\..\..\..\..\..\uCOS-III\Source/os_tmr.c ****         return ((OS_TICK)0);
 388              		.loc 1 329 0
 389 001a 0023     		movs	r3, #0
 390 001c 73E0     		b	.L44
 391              	.L30:
 330:..\..\..\..\..\..\uCOS-III\Source/os_tmr.c ****     }
 331:..\..\..\..\..\..\uCOS-III\Source/os_tmr.c **** #endif
 332:..\..\..\..\..\..\uCOS-III\Source/os_tmr.c **** 
 333:..\..\..\..\..\..\uCOS-III\Source/os_tmr.c **** #if OS_CFG_ARG_CHK_EN > 0u
 334:..\..\..\..\..\..\uCOS-III\Source/os_tmr.c ****     if (p_tmr == (OS_TMR *)0) {
 392              		.loc 1 334 0
 393 001e 7B68     		ldr	r3, [r7, #4]
 394 0020 002B     		cmp	r3, #0
 395 0022 05D1     		bne	.L32
 335:..\..\..\..\..\..\uCOS-III\Source/os_tmr.c ****        *p_err = OS_ERR_TMR_INVALID;
 396              		.loc 1 335 0
 397 0024 3B68     		ldr	r3, [r7]
 398 0026 47F24232 		movw	r2, #29506
 399 002a 1A80     		strh	r2, [r3]	@ movhi
 336:..\..\..\..\..\..\uCOS-III\Source/os_tmr.c ****         return ((OS_TICK)0);
 400              		.loc 1 336 0
 401 002c 0023     		movs	r3, #0
 402 002e 6AE0     		b	.L44
 403              	.L32:
ARM GAS  C:\Users\alex\AppData\Local\Temp\ccByxCIb.s 			page 14


 337:..\..\..\..\..\..\uCOS-III\Source/os_tmr.c ****     }
 338:..\..\..\..\..\..\uCOS-III\Source/os_tmr.c **** #endif
 339:..\..\..\..\..\..\uCOS-III\Source/os_tmr.c **** 
 340:..\..\..\..\..\..\uCOS-III\Source/os_tmr.c **** #if OS_CFG_OBJ_TYPE_CHK_EN > 0u
 341:..\..\..\..\..\..\uCOS-III\Source/os_tmr.c ****     if (p_tmr->Type != OS_OBJ_TYPE_TMR) {                   /* Make sure timer was created         
 342:..\..\..\..\..\..\uCOS-III\Source/os_tmr.c ****        *p_err = OS_ERR_OBJ_TYPE;
 343:..\..\..\..\..\..\uCOS-III\Source/os_tmr.c ****         return ((OS_TICK)0);
 344:..\..\..\..\..\..\uCOS-III\Source/os_tmr.c ****     }
 345:..\..\..\..\..\..\uCOS-III\Source/os_tmr.c **** #endif
 346:..\..\..\..\..\..\uCOS-III\Source/os_tmr.c **** 
 347:..\..\..\..\..\..\uCOS-III\Source/os_tmr.c ****     OSSchedLock(&err);
 404              		.loc 1 347 0
 405 0030 07F10A03 		add	r3, r7, #10
 406 0034 1846     		mov	r0, r3
 407 0036 FFF7FEFF 		bl	OSSchedLock
 348:..\..\..\..\..\..\uCOS-III\Source/os_tmr.c ****     switch (p_tmr->State) {
 408              		.loc 1 348 0
 409 003a 7B68     		ldr	r3, [r7, #4]
 410 003c 93F82A30 		ldrb	r3, [r3, #42]	@ zero_extendqisi2
 411 0040 032B     		cmp	r3, #3
 412 0042 53D8     		bhi	.L33
 413 0044 01A2     		adr	r2, .L35
 414 0046 52F823F0 		ldr	pc, [r2, r3, lsl #2]
 415 004a 00BF     		.p2align 2
 416              	.L35:
 417 004c D5000000 		.word	.L34+1
 418 0050 81000000 		.word	.L36+1
 419 0054 5D000000 		.word	.L37+1
 420 0058 BF000000 		.word	.L38+1
 421              		.p2align 1
 422              	.L37:
 349:..\..\..\..\..\..\uCOS-III\Source/os_tmr.c ****         case OS_TMR_STATE_RUNNING:
 350:..\..\..\..\..\..\uCOS-III\Source/os_tmr.c ****              remain        = p_tmr->Match                   /* Determine how much time is left to t
 423              		.loc 1 350 0
 424 005c 7B68     		ldr	r3, [r7, #4]
 425 005e 9A69     		ldr	r2, [r3, #24]
 351:..\..\..\..\..\..\uCOS-III\Source/os_tmr.c ****                            - OSTmrTickCtr;
 426              		.loc 1 351 0
 427 0060 2C4B     		ldr	r3, .L45+4
 428 0062 1B68     		ldr	r3, [r3]
 350:..\..\..\..\..\..\uCOS-III\Source/os_tmr.c ****                            - OSTmrTickCtr;
 429              		.loc 1 350 0
 430 0064 D31A     		subs	r3, r2, r3
 431 0066 FB60     		str	r3, [r7, #12]
 352:..\..\..\..\..\..\uCOS-III\Source/os_tmr.c ****              p_tmr->Remain = remain;
 432              		.loc 1 352 0
 433 0068 7B68     		ldr	r3, [r7, #4]
 434 006a FA68     		ldr	r2, [r7, #12]
 435 006c DA61     		str	r2, [r3, #28]
 353:..\..\..\..\..\..\uCOS-III\Source/os_tmr.c ****              OSSchedUnlock(&err);
 436              		.loc 1 353 0
 437 006e 07F10A03 		add	r3, r7, #10
 438 0072 1846     		mov	r0, r3
 439 0074 FFF7FEFF 		bl	OSSchedUnlock
 354:..\..\..\..\..\..\uCOS-III\Source/os_tmr.c ****             *p_err         = OS_ERR_NONE;
 440              		.loc 1 354 0
 441 0078 3B68     		ldr	r3, [r7]
ARM GAS  C:\Users\alex\AppData\Local\Temp\ccByxCIb.s 			page 15


 442 007a 0022     		movs	r2, #0
 443 007c 1A80     		strh	r2, [r3]	@ movhi
 355:..\..\..\..\..\..\uCOS-III\Source/os_tmr.c ****              break;
 444              		.loc 1 355 0
 445 007e 41E0     		b	.L39
 446              	.L36:
 356:..\..\..\..\..\..\uCOS-III\Source/os_tmr.c **** 
 357:..\..\..\..\..\..\uCOS-III\Source/os_tmr.c ****         case OS_TMR_STATE_STOPPED:                          /* It's assumed that the timer has not 
 358:..\..\..\..\..\..\uCOS-III\Source/os_tmr.c ****              if (p_tmr->Opt == OS_OPT_TMR_PERIODIC) {
 447              		.loc 1 358 0
 448 0080 7B68     		ldr	r3, [r7, #4]
 449 0082 1B8D     		ldrh	r3, [r3, #40]
 450 0084 022B     		cmp	r3, #2
 451 0086 0BD1     		bne	.L40
 359:..\..\..\..\..\..\uCOS-III\Source/os_tmr.c ****                  if (p_tmr->Dly == 0u) {
 452              		.loc 1 359 0
 453 0088 7B68     		ldr	r3, [r7, #4]
 454 008a 1B6A     		ldr	r3, [r3, #32]
 455 008c 002B     		cmp	r3, #0
 456 008e 03D1     		bne	.L41
 360:..\..\..\..\..\..\uCOS-III\Source/os_tmr.c ****                      remain = p_tmr->Period;
 457              		.loc 1 360 0
 458 0090 7B68     		ldr	r3, [r7, #4]
 459 0092 5B6A     		ldr	r3, [r3, #36]
 460 0094 FB60     		str	r3, [r7, #12]
 461 0096 06E0     		b	.L43
 462              	.L41:
 361:..\..\..\..\..\..\uCOS-III\Source/os_tmr.c ****                  } else {
 362:..\..\..\..\..\..\uCOS-III\Source/os_tmr.c ****                      remain = p_tmr->Dly;
 463              		.loc 1 362 0
 464 0098 7B68     		ldr	r3, [r7, #4]
 465 009a 1B6A     		ldr	r3, [r3, #32]
 466 009c FB60     		str	r3, [r7, #12]
 467 009e 02E0     		b	.L43
 468              	.L40:
 363:..\..\..\..\..\..\uCOS-III\Source/os_tmr.c ****                  }
 364:..\..\..\..\..\..\uCOS-III\Source/os_tmr.c ****              } else {
 365:..\..\..\..\..\..\uCOS-III\Source/os_tmr.c ****                  remain = p_tmr->Dly;
 469              		.loc 1 365 0
 470 00a0 7B68     		ldr	r3, [r7, #4]
 471 00a2 1B6A     		ldr	r3, [r3, #32]
 472 00a4 FB60     		str	r3, [r7, #12]
 473              	.L43:
 366:..\..\..\..\..\..\uCOS-III\Source/os_tmr.c ****              }
 367:..\..\..\..\..\..\uCOS-III\Source/os_tmr.c ****              p_tmr->Remain = remain;
 474              		.loc 1 367 0
 475 00a6 7B68     		ldr	r3, [r7, #4]
 476 00a8 FA68     		ldr	r2, [r7, #12]
 477 00aa DA61     		str	r2, [r3, #28]
 368:..\..\..\..\..\..\uCOS-III\Source/os_tmr.c ****              OSSchedUnlock(&err);
 478              		.loc 1 368 0
 479 00ac 07F10A03 		add	r3, r7, #10
 480 00b0 1846     		mov	r0, r3
 481 00b2 FFF7FEFF 		bl	OSSchedUnlock
 369:..\..\..\..\..\..\uCOS-III\Source/os_tmr.c ****             *p_err         = OS_ERR_NONE;
 482              		.loc 1 369 0
 483 00b6 3B68     		ldr	r3, [r7]
ARM GAS  C:\Users\alex\AppData\Local\Temp\ccByxCIb.s 			page 16


 484 00b8 0022     		movs	r2, #0
 485 00ba 1A80     		strh	r2, [r3]	@ movhi
 370:..\..\..\..\..\..\uCOS-III\Source/os_tmr.c ****              break;
 486              		.loc 1 370 0
 487 00bc 22E0     		b	.L39
 488              	.L38:
 371:..\..\..\..\..\..\uCOS-III\Source/os_tmr.c **** 
 372:..\..\..\..\..\..\uCOS-III\Source/os_tmr.c ****         case OS_TMR_STATE_COMPLETED:                        /* Only ONE-SHOT that timed out can be 
 373:..\..\..\..\..\..\uCOS-III\Source/os_tmr.c ****              OSSchedUnlock(&err);
 489              		.loc 1 373 0
 490 00be 07F10A03 		add	r3, r7, #10
 491 00c2 1846     		mov	r0, r3
 492 00c4 FFF7FEFF 		bl	OSSchedUnlock
 374:..\..\..\..\..\..\uCOS-III\Source/os_tmr.c ****             *p_err  = OS_ERR_NONE;
 493              		.loc 1 374 0
 494 00c8 3B68     		ldr	r3, [r7]
 495 00ca 0022     		movs	r2, #0
 496 00cc 1A80     		strh	r2, [r3]	@ movhi
 375:..\..\..\..\..\..\uCOS-III\Source/os_tmr.c ****              remain = (OS_TICK)0;
 497              		.loc 1 375 0
 498 00ce 0023     		movs	r3, #0
 499 00d0 FB60     		str	r3, [r7, #12]
 376:..\..\..\..\..\..\uCOS-III\Source/os_tmr.c ****              break;
 500              		.loc 1 376 0
 501 00d2 17E0     		b	.L39
 502              	.L34:
 377:..\..\..\..\..\..\uCOS-III\Source/os_tmr.c **** 
 378:..\..\..\..\..\..\uCOS-III\Source/os_tmr.c ****         case OS_TMR_STATE_UNUSED:
 379:..\..\..\..\..\..\uCOS-III\Source/os_tmr.c ****              OSSchedUnlock(&err);
 503              		.loc 1 379 0
 504 00d4 07F10A03 		add	r3, r7, #10
 505 00d8 1846     		mov	r0, r3
 506 00da FFF7FEFF 		bl	OSSchedUnlock
 380:..\..\..\..\..\..\uCOS-III\Source/os_tmr.c ****             *p_err  = OS_ERR_TMR_INACTIVE;
 507              		.loc 1 380 0
 508 00de 3B68     		ldr	r3, [r7]
 509 00e0 47F23D32 		movw	r2, #29501
 510 00e4 1A80     		strh	r2, [r3]	@ movhi
 381:..\..\..\..\..\..\uCOS-III\Source/os_tmr.c ****              remain = (OS_TICK)0;
 511              		.loc 1 381 0
 512 00e6 0023     		movs	r3, #0
 513 00e8 FB60     		str	r3, [r7, #12]
 382:..\..\..\..\..\..\uCOS-III\Source/os_tmr.c ****              break;
 514              		.loc 1 382 0
 515 00ea 0BE0     		b	.L39
 516              	.L33:
 383:..\..\..\..\..\..\uCOS-III\Source/os_tmr.c **** 
 384:..\..\..\..\..\..\uCOS-III\Source/os_tmr.c ****         default:
 385:..\..\..\..\..\..\uCOS-III\Source/os_tmr.c ****              OSSchedUnlock(&err);
 517              		.loc 1 385 0
 518 00ec 07F10A03 		add	r3, r7, #10
 519 00f0 1846     		mov	r0, r3
 520 00f2 FFF7FEFF 		bl	OSSchedUnlock
 386:..\..\..\..\..\..\uCOS-III\Source/os_tmr.c ****             *p_err = OS_ERR_TMR_INVALID_STATE;
 521              		.loc 1 386 0
 522 00f6 3B68     		ldr	r3, [r7]
 523 00f8 47F24132 		movw	r2, #29505
ARM GAS  C:\Users\alex\AppData\Local\Temp\ccByxCIb.s 			page 17


 524 00fc 1A80     		strh	r2, [r3]	@ movhi
 387:..\..\..\..\..\..\uCOS-III\Source/os_tmr.c ****              remain = (OS_TICK)0;
 525              		.loc 1 387 0
 526 00fe 0023     		movs	r3, #0
 527 0100 FB60     		str	r3, [r7, #12]
 388:..\..\..\..\..\..\uCOS-III\Source/os_tmr.c ****              break;
 528              		.loc 1 388 0
 529 0102 00BF     		nop
 530              	.L39:
 389:..\..\..\..\..\..\uCOS-III\Source/os_tmr.c ****     }
 390:..\..\..\..\..\..\uCOS-III\Source/os_tmr.c ****     return (remain);
 531              		.loc 1 390 0
 532 0104 FB68     		ldr	r3, [r7, #12]
 533              	.L44:
 391:..\..\..\..\..\..\uCOS-III\Source/os_tmr.c **** }
 534              		.loc 1 391 0 discriminator 1
 535 0106 1846     		mov	r0, r3
 536 0108 1037     		adds	r7, r7, #16
 537              		.cfi_def_cfa_offset 8
 538 010a BD46     		mov	sp, r7
 539              		.cfi_def_cfa_register 13
 540              		@ sp needed
 541 010c 80BD     		pop	{r7, pc}
 542              	.L46:
 543 010e 00BF     		.align	2
 544              	.L45:
 545 0110 00000000 		.word	OSIntNestingCtr
 546 0114 00000000 		.word	OSTmrTickCtr
 547              		.cfi_endproc
 548              	.LFE2:
 549              		.size	OSTmrRemainGet, .-OSTmrRemainGet
 550              		.section	.text.OSTmrStart,"ax",%progbits
 551              		.align	2
 552              		.global	OSTmrStart
 553              		.thumb
 554              		.thumb_func
 555              		.type	OSTmrStart, %function
 556              	OSTmrStart:
 557              	.LFB3:
 392:..\..\..\..\..\..\uCOS-III\Source/os_tmr.c **** 
 393:..\..\..\..\..\..\uCOS-III\Source/os_tmr.c **** /*$PAGE*/
 394:..\..\..\..\..\..\uCOS-III\Source/os_tmr.c **** /*
 395:..\..\..\..\..\..\uCOS-III\Source/os_tmr.c **** ***************************************************************************************************
 396:..\..\..\..\..\..\uCOS-III\Source/os_tmr.c **** *                                                   START A TIMER
 397:..\..\..\..\..\..\uCOS-III\Source/os_tmr.c **** *
 398:..\..\..\..\..\..\uCOS-III\Source/os_tmr.c **** * Description: This function is called by your application code to start a timer.
 399:..\..\..\..\..\..\uCOS-III\Source/os_tmr.c **** *
 400:..\..\..\..\..\..\uCOS-III\Source/os_tmr.c **** * Arguments  : p_tmr    Is a pointer to an OS_TMR
 401:..\..\..\..\..\..\uCOS-III\Source/os_tmr.c **** *
 402:..\..\..\..\..\..\uCOS-III\Source/os_tmr.c **** *              p_err    Is a pointer to an error code.  '*p_err' will contain one of the following:
 403:..\..\..\..\..\..\uCOS-III\Source/os_tmr.c **** *
 404:..\..\..\..\..\..\uCOS-III\Source/os_tmr.c **** *                           OS_ERR_NONE
 405:..\..\..\..\..\..\uCOS-III\Source/os_tmr.c **** *                           OS_ERR_OBJ_TYPE            if 'p_tmr' is not pointing to a timer
 406:..\..\..\..\..\..\uCOS-III\Source/os_tmr.c **** *                           OS_ERR_TMR_INVALID
 407:..\..\..\..\..\..\uCOS-III\Source/os_tmr.c **** *                           OS_ERR_TMR_INACTIVE        if the timer was not created
 408:..\..\..\..\..\..\uCOS-III\Source/os_tmr.c **** *                           OS_ERR_TMR_INVALID_STATE   the timer is in an invalid state
 409:..\..\..\..\..\..\uCOS-III\Source/os_tmr.c **** *                           OS_ERR_TMR_ISR             if the call was made from an ISR
ARM GAS  C:\Users\alex\AppData\Local\Temp\ccByxCIb.s 			page 18


 410:..\..\..\..\..\..\uCOS-III\Source/os_tmr.c **** *
 411:..\..\..\..\..\..\uCOS-III\Source/os_tmr.c **** * Returns    : DEF_TRUE      is the timer was started
 412:..\..\..\..\..\..\uCOS-III\Source/os_tmr.c **** *              DEF_FALSE     if not or upon an error
 413:..\..\..\..\..\..\uCOS-III\Source/os_tmr.c **** *
 414:..\..\..\..\..\..\uCOS-III\Source/os_tmr.c **** * Note(s)    : 1) When starting/restarting a timer, regardless if it is in PERIODIC or ONE-SHOT mod
 415:..\..\..\..\..\..\uCOS-III\Source/os_tmr.c **** *                 linked to the timer wheel with the OS_OPT_LINK_DLY option. This option sets the i
 416:..\..\..\..\..\..\uCOS-III\Source/os_tmr.c **** *                 time for the timer. For timers in PERIODIC mode, subsequent expiration times are 
 417:..\..\..\..\..\..\uCOS-III\Source/os_tmr.c **** *                 the OS_TmrTask().
 418:..\..\..\..\..\..\uCOS-III\Source/os_tmr.c **** ***************************************************************************************************
 419:..\..\..\..\..\..\uCOS-III\Source/os_tmr.c **** */
 420:..\..\..\..\..\..\uCOS-III\Source/os_tmr.c **** 
 421:..\..\..\..\..\..\uCOS-III\Source/os_tmr.c **** CPU_BOOLEAN  OSTmrStart (OS_TMR  *p_tmr,
 422:..\..\..\..\..\..\uCOS-III\Source/os_tmr.c ****                          OS_ERR  *p_err)
 423:..\..\..\..\..\..\uCOS-III\Source/os_tmr.c **** {
 558              		.loc 1 423 0
 559              		.cfi_startproc
 560              		@ args = 0, pretend = 0, frame = 16
 561              		@ frame_needed = 1, uses_anonymous_args = 0
 562 0000 80B5     		push	{r7, lr}
 563              		.cfi_def_cfa_offset 8
 564              		.cfi_offset 7, -8
 565              		.cfi_offset 14, -4
 566 0002 84B0     		sub	sp, sp, #16
 567              		.cfi_def_cfa_offset 24
 568 0004 00AF     		add	r7, sp, #0
 569              		.cfi_def_cfa_register 7
 570 0006 7860     		str	r0, [r7, #4]
 571 0008 3960     		str	r1, [r7]
 424:..\..\..\..\..\..\uCOS-III\Source/os_tmr.c ****     OS_ERR       err;
 425:..\..\..\..\..\..\uCOS-III\Source/os_tmr.c ****     CPU_BOOLEAN  success;
 426:..\..\..\..\..\..\uCOS-III\Source/os_tmr.c **** 
 427:..\..\..\..\..\..\uCOS-III\Source/os_tmr.c **** 
 428:..\..\..\..\..\..\uCOS-III\Source/os_tmr.c **** 
 429:..\..\..\..\..\..\uCOS-III\Source/os_tmr.c **** #ifdef OS_SAFETY_CRITICAL
 430:..\..\..\..\..\..\uCOS-III\Source/os_tmr.c ****     if (p_err == (OS_ERR *)0) {
 431:..\..\..\..\..\..\uCOS-III\Source/os_tmr.c ****         OS_SAFETY_CRITICAL_EXCEPTION();
 432:..\..\..\..\..\..\uCOS-III\Source/os_tmr.c ****         return (DEF_FALSE);
 433:..\..\..\..\..\..\uCOS-III\Source/os_tmr.c ****     }
 434:..\..\..\..\..\..\uCOS-III\Source/os_tmr.c **** #endif
 435:..\..\..\..\..\..\uCOS-III\Source/os_tmr.c **** 
 436:..\..\..\..\..\..\uCOS-III\Source/os_tmr.c **** #if OS_CFG_CALLED_FROM_ISR_CHK_EN > 0u
 437:..\..\..\..\..\..\uCOS-III\Source/os_tmr.c ****     if (OSIntNestingCtr > (OS_NESTING_CTR)0) {              /* See if trying to call from an ISR   
 572              		.loc 1 437 0
 573 000a 334B     		ldr	r3, .L58
 574 000c 1B78     		ldrb	r3, [r3]	@ zero_extendqisi2
 575 000e 002B     		cmp	r3, #0
 576 0010 05D0     		beq	.L48
 438:..\..\..\..\..\..\uCOS-III\Source/os_tmr.c ****        *p_err = OS_ERR_TMR_ISR;
 577              		.loc 1 438 0
 578 0012 3B68     		ldr	r3, [r7]
 579 0014 47F24332 		movw	r2, #29507
 580 0018 1A80     		strh	r2, [r3]	@ movhi
 439:..\..\..\..\..\..\uCOS-III\Source/os_tmr.c ****         return (DEF_FALSE);
 581              		.loc 1 439 0
 582 001a 0023     		movs	r3, #0
 583 001c 58E0     		b	.L57
 584              	.L48:
ARM GAS  C:\Users\alex\AppData\Local\Temp\ccByxCIb.s 			page 19


 440:..\..\..\..\..\..\uCOS-III\Source/os_tmr.c ****     }
 441:..\..\..\..\..\..\uCOS-III\Source/os_tmr.c **** #endif
 442:..\..\..\..\..\..\uCOS-III\Source/os_tmr.c **** 
 443:..\..\..\..\..\..\uCOS-III\Source/os_tmr.c **** #if OS_CFG_ARG_CHK_EN > 0u
 444:..\..\..\..\..\..\uCOS-III\Source/os_tmr.c ****     if (p_tmr == (OS_TMR *)0) {
 585              		.loc 1 444 0
 586 001e 7B68     		ldr	r3, [r7, #4]
 587 0020 002B     		cmp	r3, #0
 588 0022 05D1     		bne	.L50
 445:..\..\..\..\..\..\uCOS-III\Source/os_tmr.c ****        *p_err = OS_ERR_TMR_INVALID;
 589              		.loc 1 445 0
 590 0024 3B68     		ldr	r3, [r7]
 591 0026 47F24232 		movw	r2, #29506
 592 002a 1A80     		strh	r2, [r3]	@ movhi
 446:..\..\..\..\..\..\uCOS-III\Source/os_tmr.c ****         return (DEF_FALSE);
 593              		.loc 1 446 0
 594 002c 0023     		movs	r3, #0
 595 002e 4FE0     		b	.L57
 596              	.L50:
 447:..\..\..\..\..\..\uCOS-III\Source/os_tmr.c ****     }
 448:..\..\..\..\..\..\uCOS-III\Source/os_tmr.c **** #endif
 449:..\..\..\..\..\..\uCOS-III\Source/os_tmr.c **** 
 450:..\..\..\..\..\..\uCOS-III\Source/os_tmr.c **** #if OS_CFG_OBJ_TYPE_CHK_EN > 0u
 451:..\..\..\..\..\..\uCOS-III\Source/os_tmr.c ****     if (p_tmr->Type != OS_OBJ_TYPE_TMR) {                   /* Make sure timer was created         
 452:..\..\..\..\..\..\uCOS-III\Source/os_tmr.c ****        *p_err = OS_ERR_OBJ_TYPE;
 453:..\..\..\..\..\..\uCOS-III\Source/os_tmr.c ****         return (DEF_FALSE);
 454:..\..\..\..\..\..\uCOS-III\Source/os_tmr.c ****     }
 455:..\..\..\..\..\..\uCOS-III\Source/os_tmr.c **** #endif
 456:..\..\..\..\..\..\uCOS-III\Source/os_tmr.c **** 
 457:..\..\..\..\..\..\uCOS-III\Source/os_tmr.c ****     OSSchedLock(&err);
 597              		.loc 1 457 0
 598 0030 07F10C03 		add	r3, r7, #12
 599 0034 1846     		mov	r0, r3
 600 0036 FFF7FEFF 		bl	OSSchedLock
 458:..\..\..\..\..\..\uCOS-III\Source/os_tmr.c ****     switch (p_tmr->State) {
 601              		.loc 1 458 0
 602 003a 7B68     		ldr	r3, [r7, #4]
 603 003c 93F82A30 		ldrb	r3, [r3, #42]	@ zero_extendqisi2
 604 0040 032B     		cmp	r3, #3
 605 0042 38D8     		bhi	.L51
 606 0044 01A2     		adr	r2, .L53
 607 0046 52F823F0 		ldr	pc, [r2, r3, lsl #2]
 608 004a 00BF     		.p2align 2
 609              	.L53:
 610 004c 9F000000 		.word	.L52+1
 611 0050 81000000 		.word	.L54+1
 612 0054 5D000000 		.word	.L55+1
 613 0058 81000000 		.word	.L54+1
 614              		.p2align 1
 615              	.L55:
 459:..\..\..\..\..\..\uCOS-III\Source/os_tmr.c ****         case OS_TMR_STATE_RUNNING:                          /* Restart the timer                   
 460:..\..\..\..\..\..\uCOS-III\Source/os_tmr.c ****              OS_TmrUnlink(p_tmr);                           /* ... Stop the timer                  
 616              		.loc 1 460 0
 617 005c 7868     		ldr	r0, [r7, #4]
 618 005e FFF7FEFF 		bl	OS_TmrUnlink
 461:..\..\..\..\..\..\uCOS-III\Source/os_tmr.c ****              OS_TmrLink(p_tmr, OS_OPT_LINK_DLY);            /* ... Link timer to timer wheel (see N
 619              		.loc 1 461 0
ARM GAS  C:\Users\alex\AppData\Local\Temp\ccByxCIb.s 			page 20


 620 0062 0021     		movs	r1, #0
 621 0064 7868     		ldr	r0, [r7, #4]
 622 0066 FFF7FEFF 		bl	OS_TmrLink
 462:..\..\..\..\..\..\uCOS-III\Source/os_tmr.c ****              OSSchedUnlock(&err);
 623              		.loc 1 462 0
 624 006a 07F10C03 		add	r3, r7, #12
 625 006e 1846     		mov	r0, r3
 626 0070 FFF7FEFF 		bl	OSSchedUnlock
 463:..\..\..\..\..\..\uCOS-III\Source/os_tmr.c ****             *p_err   = OS_ERR_NONE;
 627              		.loc 1 463 0
 628 0074 3B68     		ldr	r3, [r7]
 629 0076 0022     		movs	r2, #0
 630 0078 1A80     		strh	r2, [r3]	@ movhi
 464:..\..\..\..\..\..\uCOS-III\Source/os_tmr.c ****              success = DEF_TRUE;
 631              		.loc 1 464 0
 632 007a 0123     		movs	r3, #1
 633 007c FB73     		strb	r3, [r7, #15]
 465:..\..\..\..\..\..\uCOS-III\Source/os_tmr.c ****              break;
 634              		.loc 1 465 0
 635 007e 26E0     		b	.L56
 636              	.L54:
 466:..\..\..\..\..\..\uCOS-III\Source/os_tmr.c **** 
 467:..\..\..\..\..\..\uCOS-III\Source/os_tmr.c ****         case OS_TMR_STATE_STOPPED:                          /* Start the timer                     
 468:..\..\..\..\..\..\uCOS-III\Source/os_tmr.c ****         case OS_TMR_STATE_COMPLETED:
 469:..\..\..\..\..\..\uCOS-III\Source/os_tmr.c ****              OS_TmrLink(p_tmr, OS_OPT_LINK_DLY);            /* ... Link timer to timer wheel (see N
 637              		.loc 1 469 0
 638 0080 0021     		movs	r1, #0
 639 0082 7868     		ldr	r0, [r7, #4]
 640 0084 FFF7FEFF 		bl	OS_TmrLink
 470:..\..\..\..\..\..\uCOS-III\Source/os_tmr.c ****              OSSchedUnlock(&err);
 641              		.loc 1 470 0
 642 0088 07F10C03 		add	r3, r7, #12
 643 008c 1846     		mov	r0, r3
 644 008e FFF7FEFF 		bl	OSSchedUnlock
 471:..\..\..\..\..\..\uCOS-III\Source/os_tmr.c ****             *p_err   = OS_ERR_NONE;
 645              		.loc 1 471 0
 646 0092 3B68     		ldr	r3, [r7]
 647 0094 0022     		movs	r2, #0
 648 0096 1A80     		strh	r2, [r3]	@ movhi
 472:..\..\..\..\..\..\uCOS-III\Source/os_tmr.c ****              success = DEF_TRUE;
 649              		.loc 1 472 0
 650 0098 0123     		movs	r3, #1
 651 009a FB73     		strb	r3, [r7, #15]
 473:..\..\..\..\..\..\uCOS-III\Source/os_tmr.c ****              break;
 652              		.loc 1 473 0
 653 009c 17E0     		b	.L56
 654              	.L52:
 474:..\..\..\..\..\..\uCOS-III\Source/os_tmr.c **** 
 475:..\..\..\..\..\..\uCOS-III\Source/os_tmr.c ****         case OS_TMR_STATE_UNUSED:                           /* Timer not created                   
 476:..\..\..\..\..\..\uCOS-III\Source/os_tmr.c ****              OSSchedUnlock(&err);
 655              		.loc 1 476 0
 656 009e 07F10C03 		add	r3, r7, #12
 657 00a2 1846     		mov	r0, r3
 658 00a4 FFF7FEFF 		bl	OSSchedUnlock
 477:..\..\..\..\..\..\uCOS-III\Source/os_tmr.c ****             *p_err   = OS_ERR_TMR_INACTIVE;
 659              		.loc 1 477 0
 660 00a8 3B68     		ldr	r3, [r7]
ARM GAS  C:\Users\alex\AppData\Local\Temp\ccByxCIb.s 			page 21


 661 00aa 47F23D32 		movw	r2, #29501
 662 00ae 1A80     		strh	r2, [r3]	@ movhi
 478:..\..\..\..\..\..\uCOS-III\Source/os_tmr.c ****              success = DEF_FALSE;
 663              		.loc 1 478 0
 664 00b0 0023     		movs	r3, #0
 665 00b2 FB73     		strb	r3, [r7, #15]
 479:..\..\..\..\..\..\uCOS-III\Source/os_tmr.c ****              break;
 666              		.loc 1 479 0
 667 00b4 0BE0     		b	.L56
 668              	.L51:
 480:..\..\..\..\..\..\uCOS-III\Source/os_tmr.c **** 
 481:..\..\..\..\..\..\uCOS-III\Source/os_tmr.c ****         default:
 482:..\..\..\..\..\..\uCOS-III\Source/os_tmr.c ****              OSSchedUnlock(&err);
 669              		.loc 1 482 0
 670 00b6 07F10C03 		add	r3, r7, #12
 671 00ba 1846     		mov	r0, r3
 672 00bc FFF7FEFF 		bl	OSSchedUnlock
 483:..\..\..\..\..\..\uCOS-III\Source/os_tmr.c ****             *p_err = OS_ERR_TMR_INVALID_STATE;
 673              		.loc 1 483 0
 674 00c0 3B68     		ldr	r3, [r7]
 675 00c2 47F24132 		movw	r2, #29505
 676 00c6 1A80     		strh	r2, [r3]	@ movhi
 484:..\..\..\..\..\..\uCOS-III\Source/os_tmr.c ****              success = DEF_FALSE;
 677              		.loc 1 484 0
 678 00c8 0023     		movs	r3, #0
 679 00ca FB73     		strb	r3, [r7, #15]
 485:..\..\..\..\..\..\uCOS-III\Source/os_tmr.c ****              break;
 680              		.loc 1 485 0
 681 00cc 00BF     		nop
 682              	.L56:
 486:..\..\..\..\..\..\uCOS-III\Source/os_tmr.c ****     }
 487:..\..\..\..\..\..\uCOS-III\Source/os_tmr.c ****     return (success);
 683              		.loc 1 487 0
 684 00ce FB7B     		ldrb	r3, [r7, #15]	@ zero_extendqisi2
 685              	.L57:
 488:..\..\..\..\..\..\uCOS-III\Source/os_tmr.c **** }
 686              		.loc 1 488 0 discriminator 1
 687 00d0 1846     		mov	r0, r3
 688 00d2 1037     		adds	r7, r7, #16
 689              		.cfi_def_cfa_offset 8
 690 00d4 BD46     		mov	sp, r7
 691              		.cfi_def_cfa_register 13
 692              		@ sp needed
 693 00d6 80BD     		pop	{r7, pc}
 694              	.L59:
 695              		.align	2
 696              	.L58:
 697 00d8 00000000 		.word	OSIntNestingCtr
 698              		.cfi_endproc
 699              	.LFE3:
 700              		.size	OSTmrStart, .-OSTmrStart
 701              		.section	.text.OSTmrStateGet,"ax",%progbits
 702              		.align	2
 703              		.global	OSTmrStateGet
 704              		.thumb
 705              		.thumb_func
 706              		.type	OSTmrStateGet, %function
ARM GAS  C:\Users\alex\AppData\Local\Temp\ccByxCIb.s 			page 22


 707              	OSTmrStateGet:
 708              	.LFB4:
 489:..\..\..\..\..\..\uCOS-III\Source/os_tmr.c **** 
 490:..\..\..\..\..\..\uCOS-III\Source/os_tmr.c **** /*$PAGE*/
 491:..\..\..\..\..\..\uCOS-III\Source/os_tmr.c **** /*
 492:..\..\..\..\..\..\uCOS-III\Source/os_tmr.c **** ***************************************************************************************************
 493:..\..\..\..\..\..\uCOS-III\Source/os_tmr.c **** *                                           FIND OUT WHAT STATE A TIMER IS IN
 494:..\..\..\..\..\..\uCOS-III\Source/os_tmr.c **** *
 495:..\..\..\..\..\..\uCOS-III\Source/os_tmr.c **** * Description: This function is called to determine what state the timer is in:
 496:..\..\..\..\..\..\uCOS-III\Source/os_tmr.c **** *
 497:..\..\..\..\..\..\uCOS-III\Source/os_tmr.c **** *                  OS_TMR_STATE_UNUSED     the timer has not been created
 498:..\..\..\..\..\..\uCOS-III\Source/os_tmr.c **** *                  OS_TMR_STATE_STOPPED    the timer has been created but has not been started or h
 499:..\..\..\..\..\..\uCOS-III\Source/os_tmr.c **** *                  OS_TMR_COMPLETED        the timer is in ONE-SHOT mode and has completed it's tim
 500:..\..\..\..\..\..\uCOS-III\Source/os_tmr.c **** *                  OS_TMR_RUNNING          the timer is currently running
 501:..\..\..\..\..\..\uCOS-III\Source/os_tmr.c **** *
 502:..\..\..\..\..\..\uCOS-III\Source/os_tmr.c **** * Arguments  : p_tmr    Is a pointer to the desired timer
 503:..\..\..\..\..\..\uCOS-III\Source/os_tmr.c **** *
 504:..\..\..\..\..\..\uCOS-III\Source/os_tmr.c **** *              p_err    Is a pointer to an error code.  '*p_err' will contain one of the following:
 505:..\..\..\..\..\..\uCOS-III\Source/os_tmr.c **** *
 506:..\..\..\..\..\..\uCOS-III\Source/os_tmr.c **** *                           OS_ERR_NONE
 507:..\..\..\..\..\..\uCOS-III\Source/os_tmr.c **** *                           OS_ERR_OBJ_TYPE            if 'p_tmr' is not pointing to a timer
 508:..\..\..\..\..\..\uCOS-III\Source/os_tmr.c **** *                           OS_ERR_TMR_INVALID        'p_tmr' is a NULL pointer
 509:..\..\..\..\..\..\uCOS-III\Source/os_tmr.c **** *                           OS_ERR_TMR_INVALID_STATE  if the timer is not in a valid state
 510:..\..\..\..\..\..\uCOS-III\Source/os_tmr.c **** *                           OS_ERR_TMR_ISR            if the call was made from an ISR
 511:..\..\..\..\..\..\uCOS-III\Source/os_tmr.c **** *
 512:..\..\..\..\..\..\uCOS-III\Source/os_tmr.c **** * Returns    : The current state of the timer (see description).
 513:..\..\..\..\..\..\uCOS-III\Source/os_tmr.c **** ***************************************************************************************************
 514:..\..\..\..\..\..\uCOS-III\Source/os_tmr.c **** */
 515:..\..\..\..\..\..\uCOS-III\Source/os_tmr.c **** 
 516:..\..\..\..\..\..\uCOS-III\Source/os_tmr.c **** OS_STATE  OSTmrStateGet (OS_TMR  *p_tmr,
 517:..\..\..\..\..\..\uCOS-III\Source/os_tmr.c ****                          OS_ERR  *p_err)
 518:..\..\..\..\..\..\uCOS-III\Source/os_tmr.c **** {
 709              		.loc 1 518 0
 710              		.cfi_startproc
 711              		@ args = 0, pretend = 0, frame = 16
 712              		@ frame_needed = 1, uses_anonymous_args = 0
 713 0000 80B5     		push	{r7, lr}
 714              		.cfi_def_cfa_offset 8
 715              		.cfi_offset 7, -8
 716              		.cfi_offset 14, -4
 717 0002 84B0     		sub	sp, sp, #16
 718              		.cfi_def_cfa_offset 24
 719 0004 00AF     		add	r7, sp, #0
 720              		.cfi_def_cfa_register 7
 721 0006 7860     		str	r0, [r7, #4]
 722 0008 3960     		str	r1, [r7]
 519:..\..\..\..\..\..\uCOS-III\Source/os_tmr.c ****     OS_STATE  state;
 520:..\..\..\..\..\..\uCOS-III\Source/os_tmr.c ****     CPU_SR_ALLOC();
 723              		.loc 1 520 0
 724 000a 0023     		movs	r3, #0
 725 000c FB60     		str	r3, [r7, #12]
 521:..\..\..\..\..\..\uCOS-III\Source/os_tmr.c **** 
 522:..\..\..\..\..\..\uCOS-III\Source/os_tmr.c **** 
 523:..\..\..\..\..\..\uCOS-III\Source/os_tmr.c **** 
 524:..\..\..\..\..\..\uCOS-III\Source/os_tmr.c **** #ifdef OS_SAFETY_CRITICAL
 525:..\..\..\..\..\..\uCOS-III\Source/os_tmr.c ****     if (p_err == (OS_ERR *)0) {
 526:..\..\..\..\..\..\uCOS-III\Source/os_tmr.c ****         OS_SAFETY_CRITICAL_EXCEPTION();
ARM GAS  C:\Users\alex\AppData\Local\Temp\ccByxCIb.s 			page 23


 527:..\..\..\..\..\..\uCOS-III\Source/os_tmr.c ****         return (OS_TMR_STATE_UNUSED);
 528:..\..\..\..\..\..\uCOS-III\Source/os_tmr.c ****     }
 529:..\..\..\..\..\..\uCOS-III\Source/os_tmr.c **** #endif
 530:..\..\..\..\..\..\uCOS-III\Source/os_tmr.c **** 
 531:..\..\..\..\..\..\uCOS-III\Source/os_tmr.c **** #if OS_CFG_CALLED_FROM_ISR_CHK_EN > 0u
 532:..\..\..\..\..\..\uCOS-III\Source/os_tmr.c ****     if (OSIntNestingCtr > (OS_NESTING_CTR)0) {              /* See if trying to call from an ISR   
 726              		.loc 1 532 0
 727 000e 174B     		ldr	r3, .L67
 728 0010 1B78     		ldrb	r3, [r3]	@ zero_extendqisi2
 729 0012 002B     		cmp	r3, #0
 730 0014 05D0     		beq	.L61
 533:..\..\..\..\..\..\uCOS-III\Source/os_tmr.c ****        *p_err = OS_ERR_TMR_ISR;
 731              		.loc 1 533 0
 732 0016 3B68     		ldr	r3, [r7]
 733 0018 47F24332 		movw	r2, #29507
 734 001c 1A80     		strh	r2, [r3]	@ movhi
 534:..\..\..\..\..\..\uCOS-III\Source/os_tmr.c ****         return (OS_TMR_STATE_UNUSED);
 735              		.loc 1 534 0
 736 001e 0023     		movs	r3, #0
 737 0020 20E0     		b	.L62
 738              	.L61:
 535:..\..\..\..\..\..\uCOS-III\Source/os_tmr.c ****     }
 536:..\..\..\..\..\..\uCOS-III\Source/os_tmr.c **** #endif
 537:..\..\..\..\..\..\uCOS-III\Source/os_tmr.c **** 
 538:..\..\..\..\..\..\uCOS-III\Source/os_tmr.c **** #if OS_CFG_ARG_CHK_EN > 0u
 539:..\..\..\..\..\..\uCOS-III\Source/os_tmr.c ****     if (p_tmr == (OS_TMR *)0) {
 739              		.loc 1 539 0
 740 0022 7B68     		ldr	r3, [r7, #4]
 741 0024 002B     		cmp	r3, #0
 742 0026 05D1     		bne	.L63
 540:..\..\..\..\..\..\uCOS-III\Source/os_tmr.c ****        *p_err = OS_ERR_TMR_INVALID;
 743              		.loc 1 540 0
 744 0028 3B68     		ldr	r3, [r7]
 745 002a 47F24232 		movw	r2, #29506
 746 002e 1A80     		strh	r2, [r3]	@ movhi
 541:..\..\..\..\..\..\uCOS-III\Source/os_tmr.c ****         return (OS_TMR_STATE_UNUSED);
 747              		.loc 1 541 0
 748 0030 0023     		movs	r3, #0
 749 0032 17E0     		b	.L62
 750              	.L63:
 542:..\..\..\..\..\..\uCOS-III\Source/os_tmr.c ****     }
 543:..\..\..\..\..\..\uCOS-III\Source/os_tmr.c **** #endif
 544:..\..\..\..\..\..\uCOS-III\Source/os_tmr.c **** 
 545:..\..\..\..\..\..\uCOS-III\Source/os_tmr.c **** #if OS_CFG_OBJ_TYPE_CHK_EN > 0u
 546:..\..\..\..\..\..\uCOS-III\Source/os_tmr.c ****     if (p_tmr->Type != OS_OBJ_TYPE_TMR) {                   /* Make sure timer was created         
 547:..\..\..\..\..\..\uCOS-III\Source/os_tmr.c ****        *p_err = OS_ERR_OBJ_TYPE;
 548:..\..\..\..\..\..\uCOS-III\Source/os_tmr.c ****         return (OS_TMR_STATE_UNUSED);
 549:..\..\..\..\..\..\uCOS-III\Source/os_tmr.c ****     }
 550:..\..\..\..\..\..\uCOS-III\Source/os_tmr.c **** #endif
 551:..\..\..\..\..\..\uCOS-III\Source/os_tmr.c **** 
 552:..\..\..\..\..\..\uCOS-III\Source/os_tmr.c ****     CPU_CRITICAL_ENTER();
 751              		.loc 1 552 0
 752 0034 FFF7FEFF 		bl	CPU_SR_Save
 753 0038 F860     		str	r0, [r7, #12]
 553:..\..\..\..\..\..\uCOS-III\Source/os_tmr.c ****     state = p_tmr->State;
 754              		.loc 1 553 0
 755 003a 7B68     		ldr	r3, [r7, #4]
ARM GAS  C:\Users\alex\AppData\Local\Temp\ccByxCIb.s 			page 24


 756 003c 93F82A30 		ldrb	r3, [r3, #42]
 757 0040 FB72     		strb	r3, [r7, #11]
 554:..\..\..\..\..\..\uCOS-III\Source/os_tmr.c ****     switch (state) {
 758              		.loc 1 554 0
 759 0042 FB7A     		ldrb	r3, [r7, #11]	@ zero_extendqisi2
 760 0044 0033     		adds	r3, r3, #0
 761 0046 032B     		cmp	r3, #3
 762 0048 03D8     		bhi	.L64
 555:..\..\..\..\..\..\uCOS-III\Source/os_tmr.c ****         case OS_TMR_STATE_UNUSED:
 556:..\..\..\..\..\..\uCOS-III\Source/os_tmr.c ****         case OS_TMR_STATE_STOPPED:
 557:..\..\..\..\..\..\uCOS-III\Source/os_tmr.c ****         case OS_TMR_STATE_COMPLETED:
 558:..\..\..\..\..\..\uCOS-III\Source/os_tmr.c ****         case OS_TMR_STATE_RUNNING:
 559:..\..\..\..\..\..\uCOS-III\Source/os_tmr.c ****             *p_err = OS_ERR_NONE;
 763              		.loc 1 559 0
 764 004a 3B68     		ldr	r3, [r7]
 765 004c 0022     		movs	r2, #0
 766 004e 1A80     		strh	r2, [r3]	@ movhi
 560:..\..\..\..\..\..\uCOS-III\Source/os_tmr.c ****              break;
 767              		.loc 1 560 0
 768 0050 04E0     		b	.L66
 769              	.L64:
 561:..\..\..\..\..\..\uCOS-III\Source/os_tmr.c **** 
 562:..\..\..\..\..\..\uCOS-III\Source/os_tmr.c ****         default:
 563:..\..\..\..\..\..\uCOS-III\Source/os_tmr.c ****             *p_err = OS_ERR_TMR_INVALID_STATE;
 770              		.loc 1 563 0
 771 0052 3B68     		ldr	r3, [r7]
 772 0054 47F24132 		movw	r2, #29505
 773 0058 1A80     		strh	r2, [r3]	@ movhi
 564:..\..\..\..\..\..\uCOS-III\Source/os_tmr.c ****              break;
 774              		.loc 1 564 0
 775 005a 00BF     		nop
 776              	.L66:
 565:..\..\..\..\..\..\uCOS-III\Source/os_tmr.c ****     }
 566:..\..\..\..\..\..\uCOS-III\Source/os_tmr.c ****     CPU_CRITICAL_EXIT();
 777              		.loc 1 566 0
 778 005c F868     		ldr	r0, [r7, #12]
 779 005e FFF7FEFF 		bl	CPU_SR_Restore
 567:..\..\..\..\..\..\uCOS-III\Source/os_tmr.c ****     return (state);
 780              		.loc 1 567 0
 781 0062 FB7A     		ldrb	r3, [r7, #11]	@ zero_extendqisi2
 782              	.L62:
 568:..\..\..\..\..\..\uCOS-III\Source/os_tmr.c **** }
 783              		.loc 1 568 0
 784 0064 1846     		mov	r0, r3
 785 0066 1037     		adds	r7, r7, #16
 786              		.cfi_def_cfa_offset 8
 787 0068 BD46     		mov	sp, r7
 788              		.cfi_def_cfa_register 13
 789              		@ sp needed
 790 006a 80BD     		pop	{r7, pc}
 791              	.L68:
 792              		.align	2
 793              	.L67:
 794 006c 00000000 		.word	OSIntNestingCtr
 795              		.cfi_endproc
 796              	.LFE4:
 797              		.size	OSTmrStateGet, .-OSTmrStateGet
ARM GAS  C:\Users\alex\AppData\Local\Temp\ccByxCIb.s 			page 25


 798              		.section	.text.OSTmrStop,"ax",%progbits
 799              		.align	2
 800              		.global	OSTmrStop
 801              		.thumb
 802              		.thumb_func
 803              		.type	OSTmrStop, %function
 804              	OSTmrStop:
 805              	.LFB5:
 569:..\..\..\..\..\..\uCOS-III\Source/os_tmr.c **** 
 570:..\..\..\..\..\..\uCOS-III\Source/os_tmr.c **** /*$PAGE*/
 571:..\..\..\..\..\..\uCOS-III\Source/os_tmr.c **** /*
 572:..\..\..\..\..\..\uCOS-III\Source/os_tmr.c **** ***************************************************************************************************
 573:..\..\..\..\..\..\uCOS-III\Source/os_tmr.c **** *                                                    STOP A TIMER
 574:..\..\..\..\..\..\uCOS-III\Source/os_tmr.c **** *
 575:..\..\..\..\..\..\uCOS-III\Source/os_tmr.c **** * Description: This function is called by your application code to stop a timer.
 576:..\..\..\..\..\..\uCOS-III\Source/os_tmr.c **** *
 577:..\..\..\..\..\..\uCOS-III\Source/os_tmr.c **** * Arguments  : p_tmr          Is a pointer to the timer to stop.
 578:..\..\..\..\..\..\uCOS-III\Source/os_tmr.c **** *
 579:..\..\..\..\..\..\uCOS-III\Source/os_tmr.c **** *              opt           Allows you to specify an option to this functions which can be:
 580:..\..\..\..\..\..\uCOS-III\Source/os_tmr.c **** *
 581:..\..\..\..\..\..\uCOS-III\Source/os_tmr.c **** *                               OS_OPT_TMR_NONE            Do nothing special but stop the timer
 582:..\..\..\..\..\..\uCOS-III\Source/os_tmr.c **** *                               OS_OPT_TMR_CALLBACK        Execute the callback function, pass it t
 583:..\..\..\..\..\..\uCOS-III\Source/os_tmr.c **** *                                                          specified when the timer was created.
 584:..\..\..\..\..\..\uCOS-III\Source/os_tmr.c **** *                               OS_OPT_TMR_CALLBACK_ARG    Execute the callback function, pass it t
 585:..\..\..\..\..\..\uCOS-III\Source/os_tmr.c **** *                                                          specified in THIS function call
 586:..\..\..\..\..\..\uCOS-III\Source/os_tmr.c **** *
 587:..\..\..\..\..\..\uCOS-III\Source/os_tmr.c **** *              callback_arg  Is a pointer to a 'new' callback argument that can be passed to the ca
 588:..\..\..\..\..\..\uCOS-III\Source/os_tmr.c **** *                               instead of the timer's callback argument.  In other words, use 'cal
 589:..\..\..\..\..\..\uCOS-III\Source/os_tmr.c **** *                               THIS function INSTEAD of p_tmr->OSTmrCallbackArg
 590:..\..\..\..\..\..\uCOS-III\Source/os_tmr.c **** *
 591:..\..\..\..\..\..\uCOS-III\Source/os_tmr.c **** *              p_err          Is a pointer to an error code.  '*p_err' will contain one of the foll
 592:..\..\..\..\..\..\uCOS-III\Source/os_tmr.c **** *                               OS_ERR_NONE
 593:..\..\..\..\..\..\uCOS-III\Source/os_tmr.c **** *                               OS_ERR_OBJ_TYPE            if 'p_tmr' is not pointing to a timer
 594:..\..\..\..\..\..\uCOS-III\Source/os_tmr.c **** *                               OS_ERR_OPT_INVALID         if you specified an invalid option for '
 595:..\..\..\..\..\..\uCOS-III\Source/os_tmr.c **** *                               OS_ERR_TMR_INACTIVE        if the timer was not created
 596:..\..\..\..\..\..\uCOS-III\Source/os_tmr.c **** *                               OS_ERR_TMR_INVALID         'p_tmr' is a NULL pointer
 597:..\..\..\..\..\..\uCOS-III\Source/os_tmr.c **** *                               OS_ERR_TMR_INVALID_STATE   the timer is in an invalid state
 598:..\..\..\..\..\..\uCOS-III\Source/os_tmr.c **** *                               OS_ERR_TMR_ISR             if the function was called from an ISR
 599:..\..\..\..\..\..\uCOS-III\Source/os_tmr.c **** *                               OS_ERR_TMR_NO_CALLBACK     if the timer does not have a callback fu
 600:..\..\..\..\..\..\uCOS-III\Source/os_tmr.c **** *                               OS_ERR_TMR_STOPPED         if the timer was already stopped
 601:..\..\..\..\..\..\uCOS-III\Source/os_tmr.c **** *
 602:..\..\..\..\..\..\uCOS-III\Source/os_tmr.c **** * Returns    : DEF_TRUE       If we stopped the timer (if the timer is already stopped, we also ret
 603:..\..\..\..\..\..\uCOS-III\Source/os_tmr.c **** *              DEF_FALSE      If not
 604:..\..\..\..\..\..\uCOS-III\Source/os_tmr.c **** ***************************************************************************************************
 605:..\..\..\..\..\..\uCOS-III\Source/os_tmr.c **** */
 606:..\..\..\..\..\..\uCOS-III\Source/os_tmr.c **** 
 607:..\..\..\..\..\..\uCOS-III\Source/os_tmr.c **** CPU_BOOLEAN  OSTmrStop (OS_TMR  *p_tmr,
 608:..\..\..\..\..\..\uCOS-III\Source/os_tmr.c ****                         OS_OPT   opt,
 609:..\..\..\..\..\..\uCOS-III\Source/os_tmr.c ****                         void    *p_callback_arg,
 610:..\..\..\..\..\..\uCOS-III\Source/os_tmr.c ****                         OS_ERR  *p_err)
 611:..\..\..\..\..\..\uCOS-III\Source/os_tmr.c **** {
 806              		.loc 1 611 0
 807              		.cfi_startproc
 808              		@ args = 0, pretend = 0, frame = 32
 809              		@ frame_needed = 1, uses_anonymous_args = 0
 810 0000 80B5     		push	{r7, lr}
 811              		.cfi_def_cfa_offset 8
ARM GAS  C:\Users\alex\AppData\Local\Temp\ccByxCIb.s 			page 26


 812              		.cfi_offset 7, -8
 813              		.cfi_offset 14, -4
 814 0002 88B0     		sub	sp, sp, #32
 815              		.cfi_def_cfa_offset 40
 816 0004 00AF     		add	r7, sp, #0
 817              		.cfi_def_cfa_register 7
 818 0006 F860     		str	r0, [r7, #12]
 819 0008 7A60     		str	r2, [r7, #4]
 820 000a 3B60     		str	r3, [r7]
 821 000c 0B46     		mov	r3, r1	@ movhi
 822 000e 7B81     		strh	r3, [r7, #10]	@ movhi
 612:..\..\..\..\..\..\uCOS-III\Source/os_tmr.c ****     OS_TMR_CALLBACK_PTR  p_fnct;
 613:..\..\..\..\..\..\uCOS-III\Source/os_tmr.c ****     OS_ERR               err;
 614:..\..\..\..\..\..\uCOS-III\Source/os_tmr.c ****     CPU_BOOLEAN          success;
 615:..\..\..\..\..\..\uCOS-III\Source/os_tmr.c **** 
 616:..\..\..\..\..\..\uCOS-III\Source/os_tmr.c **** 
 617:..\..\..\..\..\..\uCOS-III\Source/os_tmr.c **** 
 618:..\..\..\..\..\..\uCOS-III\Source/os_tmr.c **** #ifdef OS_SAFETY_CRITICAL
 619:..\..\..\..\..\..\uCOS-III\Source/os_tmr.c ****     if (p_err == (OS_ERR *)0) {
 620:..\..\..\..\..\..\uCOS-III\Source/os_tmr.c ****         OS_SAFETY_CRITICAL_EXCEPTION();
 621:..\..\..\..\..\..\uCOS-III\Source/os_tmr.c ****         return (DEF_FALSE);
 622:..\..\..\..\..\..\uCOS-III\Source/os_tmr.c ****     }
 623:..\..\..\..\..\..\uCOS-III\Source/os_tmr.c **** #endif
 624:..\..\..\..\..\..\uCOS-III\Source/os_tmr.c **** 
 625:..\..\..\..\..\..\uCOS-III\Source/os_tmr.c **** #if OS_CFG_CALLED_FROM_ISR_CHK_EN > 0u
 626:..\..\..\..\..\..\uCOS-III\Source/os_tmr.c ****     if (OSIntNestingCtr > (OS_NESTING_CTR)0) {                        /* See if trying to call from
 823              		.loc 1 626 0
 824 0010 4A4B     		ldr	r3, .L91
 825 0012 1B78     		ldrb	r3, [r3]	@ zero_extendqisi2
 826 0014 002B     		cmp	r3, #0
 827 0016 05D0     		beq	.L70
 627:..\..\..\..\..\..\uCOS-III\Source/os_tmr.c ****        *p_err = OS_ERR_TMR_ISR;
 828              		.loc 1 627 0
 829 0018 3B68     		ldr	r3, [r7]
 830 001a 47F24332 		movw	r2, #29507
 831 001e 1A80     		strh	r2, [r3]	@ movhi
 628:..\..\..\..\..\..\uCOS-III\Source/os_tmr.c ****         return (DEF_FALSE);
 832              		.loc 1 628 0
 833 0020 0023     		movs	r3, #0
 834 0022 86E0     		b	.L88
 835              	.L70:
 629:..\..\..\..\..\..\uCOS-III\Source/os_tmr.c ****     }
 630:..\..\..\..\..\..\uCOS-III\Source/os_tmr.c **** #endif
 631:..\..\..\..\..\..\uCOS-III\Source/os_tmr.c **** 
 632:..\..\..\..\..\..\uCOS-III\Source/os_tmr.c **** #if OS_CFG_ARG_CHK_EN > 0u
 633:..\..\..\..\..\..\uCOS-III\Source/os_tmr.c ****     if (p_tmr == (OS_TMR *)0) {
 836              		.loc 1 633 0
 837 0024 FB68     		ldr	r3, [r7, #12]
 838 0026 002B     		cmp	r3, #0
 839 0028 05D1     		bne	.L72
 634:..\..\..\..\..\..\uCOS-III\Source/os_tmr.c ****        *p_err = OS_ERR_TMR_INVALID;
 840              		.loc 1 634 0
 841 002a 3B68     		ldr	r3, [r7]
 842 002c 47F24232 		movw	r2, #29506
 843 0030 1A80     		strh	r2, [r3]	@ movhi
 635:..\..\..\..\..\..\uCOS-III\Source/os_tmr.c ****         return (DEF_FALSE);
 844              		.loc 1 635 0
ARM GAS  C:\Users\alex\AppData\Local\Temp\ccByxCIb.s 			page 27


 845 0032 0023     		movs	r3, #0
 846 0034 7DE0     		b	.L88
 847              	.L72:
 636:..\..\..\..\..\..\uCOS-III\Source/os_tmr.c ****     }
 637:..\..\..\..\..\..\uCOS-III\Source/os_tmr.c **** #endif
 638:..\..\..\..\..\..\uCOS-III\Source/os_tmr.c **** 
 639:..\..\..\..\..\..\uCOS-III\Source/os_tmr.c **** #if OS_CFG_OBJ_TYPE_CHK_EN > 0u
 640:..\..\..\..\..\..\uCOS-III\Source/os_tmr.c ****     if (p_tmr->Type != OS_OBJ_TYPE_TMR) {                             /* Make sure timer was create
 641:..\..\..\..\..\..\uCOS-III\Source/os_tmr.c ****        *p_err = OS_ERR_OBJ_TYPE;
 642:..\..\..\..\..\..\uCOS-III\Source/os_tmr.c ****         return (DEF_FALSE);
 643:..\..\..\..\..\..\uCOS-III\Source/os_tmr.c ****     }
 644:..\..\..\..\..\..\uCOS-III\Source/os_tmr.c **** #endif
 645:..\..\..\..\..\..\uCOS-III\Source/os_tmr.c **** 
 646:..\..\..\..\..\..\uCOS-III\Source/os_tmr.c ****     OSSchedLock(&err);
 848              		.loc 1 646 0
 849 0036 07F11603 		add	r3, r7, #22
 850 003a 1846     		mov	r0, r3
 851 003c FFF7FEFF 		bl	OSSchedLock
 647:..\..\..\..\..\..\uCOS-III\Source/os_tmr.c ****     switch (p_tmr->State) {
 852              		.loc 1 647 0
 853 0040 FB68     		ldr	r3, [r7, #12]
 854 0042 93F82A30 		ldrb	r3, [r3, #42]	@ zero_extendqisi2
 855 0046 032B     		cmp	r3, #3
 856 0048 66D8     		bhi	.L73
 857 004a 01A2     		adr	r2, .L75
 858 004c 52F823F0 		ldr	pc, [r2, r3, lsl #2]
 859              		.p2align 2
 860              	.L75:
 861 0050 01010000 		.word	.L74+1
 862 0054 E9000000 		.word	.L76+1
 863 0058 61000000 		.word	.L77+1
 864 005c E9000000 		.word	.L76+1
 865              		.p2align 1
 866              	.L77:
 648:..\..\..\..\..\..\uCOS-III\Source/os_tmr.c ****         case OS_TMR_STATE_RUNNING:
 649:..\..\..\..\..\..\uCOS-III\Source/os_tmr.c ****              OS_TmrUnlink(p_tmr);                                     /* Remove from current wheel 
 867              		.loc 1 649 0
 868 0060 F868     		ldr	r0, [r7, #12]
 869 0062 FFF7FEFF 		bl	OS_TmrUnlink
 650:..\..\..\..\..\..\uCOS-III\Source/os_tmr.c ****             *p_err = OS_ERR_NONE;
 870              		.loc 1 650 0
 871 0066 3B68     		ldr	r3, [r7]
 872 0068 0022     		movs	r2, #0
 873 006a 1A80     		strh	r2, [r3]	@ movhi
 651:..\..\..\..\..\..\uCOS-III\Source/os_tmr.c ****              switch (opt) {
 874              		.loc 1 651 0
 875 006c 7B89     		ldrh	r3, [r7, #10]
 876 006e 032B     		cmp	r3, #3
 877 0070 04D0     		beq	.L79
 878 0072 042B     		cmp	r3, #4
 879 0074 14D0     		beq	.L80
 880 0076 002B     		cmp	r3, #0
 881 0078 2DD0     		beq	.L90
 882 007a 21E0     		b	.L89
 883              	.L79:
 652:..\..\..\..\..\..\uCOS-III\Source/os_tmr.c ****                  case OS_OPT_TMR_CALLBACK:
 653:..\..\..\..\..\..\uCOS-III\Source/os_tmr.c ****                       p_fnct = p_tmr->CallbackPtr;                         /* Execute callback func
ARM GAS  C:\Users\alex\AppData\Local\Temp\ccByxCIb.s 			page 28


 884              		.loc 1 653 0
 885 007c FB68     		ldr	r3, [r7, #12]
 886 007e 9B68     		ldr	r3, [r3, #8]
 887 0080 BB61     		str	r3, [r7, #24]
 654:..\..\..\..\..\..\uCOS-III\Source/os_tmr.c ****                       if (p_fnct != (OS_TMR_CALLBACK_PTR)0) {              /* ... if available     
 888              		.loc 1 654 0
 889 0082 BB69     		ldr	r3, [r7, #24]
 890 0084 002B     		cmp	r3, #0
 891 0086 06D0     		beq	.L82
 655:..\..\..\..\..\..\uCOS-III\Source/os_tmr.c ****                         (*p_fnct)((void *)p_tmr, p_tmr->CallbackPtrArg);   /* Use callback arg when
 892              		.loc 1 655 0
 893 0088 FB68     		ldr	r3, [r7, #12]
 894 008a DA68     		ldr	r2, [r3, #12]
 895 008c BB69     		ldr	r3, [r7, #24]
 896 008e 1146     		mov	r1, r2
 897 0090 F868     		ldr	r0, [r7, #12]
 898 0092 9847     		blx	r3
 656:..\..\..\..\..\..\uCOS-III\Source/os_tmr.c ****                       } else {
 657:..\..\..\..\..\..\uCOS-III\Source/os_tmr.c ****                          *p_err = OS_ERR_TMR_NO_CALLBACK;
 658:..\..\..\..\..\..\uCOS-III\Source/os_tmr.c ****                       }
 659:..\..\..\..\..\..\uCOS-III\Source/os_tmr.c ****                       break;
 899              		.loc 1 659 0
 900 0094 20E0     		b	.L84
 901              	.L82:
 657:..\..\..\..\..\..\uCOS-III\Source/os_tmr.c ****                       }
 902              		.loc 1 657 0
 903 0096 3B68     		ldr	r3, [r7]
 904 0098 47F24432 		movw	r2, #29508
 905 009c 1A80     		strh	r2, [r3]	@ movhi
 906              		.loc 1 659 0
 907 009e 1BE0     		b	.L84
 908              	.L80:
 660:..\..\..\..\..\..\uCOS-III\Source/os_tmr.c **** 
 661:..\..\..\..\..\..\uCOS-III\Source/os_tmr.c ****                  case OS_OPT_TMR_CALLBACK_ARG:
 662:..\..\..\..\..\..\uCOS-III\Source/os_tmr.c ****                       p_fnct = p_tmr->CallbackPtr;                    /* Execute callback function 
 909              		.loc 1 662 0
 910 00a0 FB68     		ldr	r3, [r7, #12]
 911 00a2 9B68     		ldr	r3, [r3, #8]
 912 00a4 BB61     		str	r3, [r7, #24]
 663:..\..\..\..\..\..\uCOS-III\Source/os_tmr.c ****                       if (p_fnct != (OS_TMR_CALLBACK_PTR)0) {
 913              		.loc 1 663 0
 914 00a6 BB69     		ldr	r3, [r7, #24]
 915 00a8 002B     		cmp	r3, #0
 916 00aa 04D0     		beq	.L85
 664:..\..\..\..\..\..\uCOS-III\Source/os_tmr.c ****                         (*p_fnct)((void *)p_tmr, p_callback_arg);     /* .. using the 'callback_arg
 917              		.loc 1 664 0
 918 00ac BB69     		ldr	r3, [r7, #24]
 919 00ae 7968     		ldr	r1, [r7, #4]
 920 00b0 F868     		ldr	r0, [r7, #12]
 921 00b2 9847     		blx	r3
 665:..\..\..\..\..\..\uCOS-III\Source/os_tmr.c ****                       } else {
 666:..\..\..\..\..\..\uCOS-III\Source/os_tmr.c ****                          *p_err = OS_ERR_TMR_NO_CALLBACK;
 667:..\..\..\..\..\..\uCOS-III\Source/os_tmr.c ****                       }
 668:..\..\..\..\..\..\uCOS-III\Source/os_tmr.c ****                       break;
 922              		.loc 1 668 0
 923 00b4 10E0     		b	.L84
 924              	.L85:
ARM GAS  C:\Users\alex\AppData\Local\Temp\ccByxCIb.s 			page 29


 666:..\..\..\..\..\..\uCOS-III\Source/os_tmr.c ****                       }
 925              		.loc 1 666 0
 926 00b6 3B68     		ldr	r3, [r7]
 927 00b8 47F24432 		movw	r2, #29508
 928 00bc 1A80     		strh	r2, [r3]	@ movhi
 929              		.loc 1 668 0
 930 00be 0BE0     		b	.L84
 931              	.L89:
 669:..\..\..\..\..\..\uCOS-III\Source/os_tmr.c **** 
 670:..\..\..\..\..\..\uCOS-III\Source/os_tmr.c ****                  case OS_OPT_TMR_NONE:
 671:..\..\..\..\..\..\uCOS-III\Source/os_tmr.c ****                       break;
 672:..\..\..\..\..\..\uCOS-III\Source/os_tmr.c **** 
 673:..\..\..\..\..\..\uCOS-III\Source/os_tmr.c ****                  default:
 674:..\..\..\..\..\..\uCOS-III\Source/os_tmr.c ****                      OSSchedUnlock(&err);
 932              		.loc 1 674 0
 933 00c0 07F11603 		add	r3, r7, #22
 934 00c4 1846     		mov	r0, r3
 935 00c6 FFF7FEFF 		bl	OSSchedUnlock
 675:..\..\..\..\..\..\uCOS-III\Source/os_tmr.c ****                     *p_err = OS_ERR_OPT_INVALID;
 936              		.loc 1 675 0
 937 00ca 3B68     		ldr	r3, [r7]
 938 00cc 45F62562 		movw	r2, #24101
 939 00d0 1A80     		strh	r2, [r3]	@ movhi
 676:..\..\..\..\..\..\uCOS-III\Source/os_tmr.c ****                      return (DEF_FALSE);
 940              		.loc 1 676 0
 941 00d2 0023     		movs	r3, #0
 942 00d4 2DE0     		b	.L88
 943              	.L90:
 671:..\..\..\..\..\..\uCOS-III\Source/os_tmr.c **** 
 944              		.loc 1 671 0
 945 00d6 00BF     		nop
 946              	.L84:
 677:..\..\..\..\..\..\uCOS-III\Source/os_tmr.c ****              }
 678:..\..\..\..\..\..\uCOS-III\Source/os_tmr.c ****              OSSchedUnlock(&err);
 947              		.loc 1 678 0
 948 00d8 07F11603 		add	r3, r7, #22
 949 00dc 1846     		mov	r0, r3
 950 00de FFF7FEFF 		bl	OSSchedUnlock
 679:..\..\..\..\..\..\uCOS-III\Source/os_tmr.c ****              success = DEF_TRUE;
 951              		.loc 1 679 0
 952 00e2 0123     		movs	r3, #1
 953 00e4 FB77     		strb	r3, [r7, #31]
 680:..\..\..\..\..\..\uCOS-III\Source/os_tmr.c ****              break;
 954              		.loc 1 680 0
 955 00e6 23E0     		b	.L87
 956              	.L76:
 681:..\..\..\..\..\..\uCOS-III\Source/os_tmr.c **** 
 682:..\..\..\..\..\..\uCOS-III\Source/os_tmr.c ****         case OS_TMR_STATE_COMPLETED:                                  /* Timer has already complete
 683:..\..\..\..\..\..\uCOS-III\Source/os_tmr.c ****         case OS_TMR_STATE_STOPPED:                                    /* ... timer has not started 
 684:..\..\..\..\..\..\uCOS-III\Source/os_tmr.c ****              OSSchedUnlock(&err);
 957              		.loc 1 684 0
 958 00e8 07F11603 		add	r3, r7, #22
 959 00ec 1846     		mov	r0, r3
 960 00ee FFF7FEFF 		bl	OSSchedUnlock
 685:..\..\..\..\..\..\uCOS-III\Source/os_tmr.c ****             *p_err   = OS_ERR_TMR_STOPPED;
 961              		.loc 1 685 0
 962 00f2 3B68     		ldr	r3, [r7]
ARM GAS  C:\Users\alex\AppData\Local\Temp\ccByxCIb.s 			page 30


 963 00f4 47F24932 		movw	r2, #29513
 964 00f8 1A80     		strh	r2, [r3]	@ movhi
 686:..\..\..\..\..\..\uCOS-III\Source/os_tmr.c ****              success = DEF_TRUE;
 965              		.loc 1 686 0
 966 00fa 0123     		movs	r3, #1
 967 00fc FB77     		strb	r3, [r7, #31]
 687:..\..\..\..\..\..\uCOS-III\Source/os_tmr.c ****              break;
 968              		.loc 1 687 0
 969 00fe 17E0     		b	.L87
 970              	.L74:
 688:..\..\..\..\..\..\uCOS-III\Source/os_tmr.c **** 
 689:..\..\..\..\..\..\uCOS-III\Source/os_tmr.c ****         case OS_TMR_STATE_UNUSED:                                     /* Timer was not created     
 690:..\..\..\..\..\..\uCOS-III\Source/os_tmr.c ****              OSSchedUnlock(&err);
 971              		.loc 1 690 0
 972 0100 07F11603 		add	r3, r7, #22
 973 0104 1846     		mov	r0, r3
 974 0106 FFF7FEFF 		bl	OSSchedUnlock
 691:..\..\..\..\..\..\uCOS-III\Source/os_tmr.c ****             *p_err   = OS_ERR_TMR_INACTIVE;
 975              		.loc 1 691 0
 976 010a 3B68     		ldr	r3, [r7]
 977 010c 47F23D32 		movw	r2, #29501
 978 0110 1A80     		strh	r2, [r3]	@ movhi
 692:..\..\..\..\..\..\uCOS-III\Source/os_tmr.c ****              success = DEF_FALSE;
 979              		.loc 1 692 0
 980 0112 0023     		movs	r3, #0
 981 0114 FB77     		strb	r3, [r7, #31]
 693:..\..\..\..\..\..\uCOS-III\Source/os_tmr.c ****              break;
 982              		.loc 1 693 0
 983 0116 0BE0     		b	.L87
 984              	.L73:
 694:..\..\..\..\..\..\uCOS-III\Source/os_tmr.c **** 
 695:..\..\..\..\..\..\uCOS-III\Source/os_tmr.c ****         default:
 696:..\..\..\..\..\..\uCOS-III\Source/os_tmr.c ****              OSSchedUnlock(&err);
 985              		.loc 1 696 0
 986 0118 07F11603 		add	r3, r7, #22
 987 011c 1846     		mov	r0, r3
 988 011e FFF7FEFF 		bl	OSSchedUnlock
 697:..\..\..\..\..\..\uCOS-III\Source/os_tmr.c ****             *p_err   = OS_ERR_TMR_INVALID_STATE;
 989              		.loc 1 697 0
 990 0122 3B68     		ldr	r3, [r7]
 991 0124 47F24132 		movw	r2, #29505
 992 0128 1A80     		strh	r2, [r3]	@ movhi
 698:..\..\..\..\..\..\uCOS-III\Source/os_tmr.c ****              success = DEF_FALSE;
 993              		.loc 1 698 0
 994 012a 0023     		movs	r3, #0
 995 012c FB77     		strb	r3, [r7, #31]
 699:..\..\..\..\..\..\uCOS-III\Source/os_tmr.c ****              break;
 996              		.loc 1 699 0
 997 012e 00BF     		nop
 998              	.L87:
 700:..\..\..\..\..\..\uCOS-III\Source/os_tmr.c ****     }
 701:..\..\..\..\..\..\uCOS-III\Source/os_tmr.c ****     return (success);
 999              		.loc 1 701 0
 1000 0130 FB7F     		ldrb	r3, [r7, #31]	@ zero_extendqisi2
 1001              	.L88:
 702:..\..\..\..\..\..\uCOS-III\Source/os_tmr.c **** }
 1002              		.loc 1 702 0 discriminator 1
ARM GAS  C:\Users\alex\AppData\Local\Temp\ccByxCIb.s 			page 31


 1003 0132 1846     		mov	r0, r3
 1004 0134 2037     		adds	r7, r7, #32
 1005              		.cfi_def_cfa_offset 8
 1006 0136 BD46     		mov	sp, r7
 1007              		.cfi_def_cfa_register 13
 1008              		@ sp needed
 1009 0138 80BD     		pop	{r7, pc}
 1010              	.L92:
 1011 013a 00BF     		.align	2
 1012              	.L91:
 1013 013c 00000000 		.word	OSIntNestingCtr
 1014              		.cfi_endproc
 1015              	.LFE5:
 1016              		.size	OSTmrStop, .-OSTmrStop
 1017              		.section	.rodata
 1018              		.align	2
 1019              	.LC0:
 1020 0000 3F544D52 		.ascii	"?TMR\000"
 1020      00
 1021              		.section	.text.OS_TmrClr,"ax",%progbits
 1022              		.align	2
 1023              		.global	OS_TmrClr
 1024              		.thumb
 1025              		.thumb_func
 1026              		.type	OS_TmrClr, %function
 1027              	OS_TmrClr:
 1028              	.LFB6:
 703:..\..\..\..\..\..\uCOS-III\Source/os_tmr.c **** 
 704:..\..\..\..\..\..\uCOS-III\Source/os_tmr.c **** /*$PAGE*/
 705:..\..\..\..\..\..\uCOS-III\Source/os_tmr.c **** /*
 706:..\..\..\..\..\..\uCOS-III\Source/os_tmr.c **** ***************************************************************************************************
 707:..\..\..\..\..\..\uCOS-III\Source/os_tmr.c **** *                                                 CLEAR TIMER FIELDS
 708:..\..\..\..\..\..\uCOS-III\Source/os_tmr.c **** *
 709:..\..\..\..\..\..\uCOS-III\Source/os_tmr.c **** * Description: This function is called to clear all timer fields.
 710:..\..\..\..\..\..\uCOS-III\Source/os_tmr.c **** *
 711:..\..\..\..\..\..\uCOS-III\Source/os_tmr.c **** * Argument(s): p_tmr    is a pointer to the timer to clear
 712:..\..\..\..\..\..\uCOS-III\Source/os_tmr.c **** *              -----
 713:..\..\..\..\..\..\uCOS-III\Source/os_tmr.c **** *
 714:..\..\..\..\..\..\uCOS-III\Source/os_tmr.c **** * Returns    : none
 715:..\..\..\..\..\..\uCOS-III\Source/os_tmr.c **** *
 716:..\..\..\..\..\..\uCOS-III\Source/os_tmr.c **** * Note(s)    : 1) This function is INTERNAL to uC/OS-III and your application MUST NOT call it.
 717:..\..\..\..\..\..\uCOS-III\Source/os_tmr.c **** ***************************************************************************************************
 718:..\..\..\..\..\..\uCOS-III\Source/os_tmr.c **** */
 719:..\..\..\..\..\..\uCOS-III\Source/os_tmr.c **** 
 720:..\..\..\..\..\..\uCOS-III\Source/os_tmr.c **** void  OS_TmrClr (OS_TMR  *p_tmr)
 721:..\..\..\..\..\..\uCOS-III\Source/os_tmr.c **** {
 1029              		.loc 1 721 0
 1030              		.cfi_startproc
 1031              		@ args = 0, pretend = 0, frame = 8
 1032              		@ frame_needed = 1, uses_anonymous_args = 0
 1033              		@ link register save eliminated.
 1034 0000 80B4     		push	{r7}
 1035              		.cfi_def_cfa_offset 4
 1036              		.cfi_offset 7, -4
 1037 0002 83B0     		sub	sp, sp, #12
 1038              		.cfi_def_cfa_offset 16
 1039 0004 00AF     		add	r7, sp, #0
ARM GAS  C:\Users\alex\AppData\Local\Temp\ccByxCIb.s 			page 32


 1040              		.cfi_def_cfa_register 7
 1041 0006 7860     		str	r0, [r7, #4]
 722:..\..\..\..\..\..\uCOS-III\Source/os_tmr.c ****     p_tmr->State          = OS_TMR_STATE_UNUSED;            /* Clear timer fields                  
 1042              		.loc 1 722 0
 1043 0008 7B68     		ldr	r3, [r7, #4]
 1044 000a 0022     		movs	r2, #0
 1045 000c 83F82A20 		strb	r2, [r3, #42]
 723:..\..\..\..\..\..\uCOS-III\Source/os_tmr.c ****     p_tmr->Type           = OS_OBJ_TYPE_NONE;
 1046              		.loc 1 723 0
 1047 0010 7B68     		ldr	r3, [r7, #4]
 1048 0012 124A     		ldr	r2, .L94
 1049 0014 1A60     		str	r2, [r3]
 724:..\..\..\..\..\..\uCOS-III\Source/os_tmr.c ****     p_tmr->NamePtr        = (CPU_CHAR          *)((void *)"?TMR");
 1050              		.loc 1 724 0
 1051 0016 7B68     		ldr	r3, [r7, #4]
 1052 0018 114A     		ldr	r2, .L94+4
 1053 001a 5A60     		str	r2, [r3, #4]
 725:..\..\..\..\..\..\uCOS-III\Source/os_tmr.c ****     p_tmr->Dly            = (OS_TICK            )0;
 1054              		.loc 1 725 0
 1055 001c 7B68     		ldr	r3, [r7, #4]
 1056 001e 0022     		movs	r2, #0
 1057 0020 1A62     		str	r2, [r3, #32]
 726:..\..\..\..\..\..\uCOS-III\Source/os_tmr.c ****     p_tmr->Match          = (OS_TICK            )0;
 1058              		.loc 1 726 0
 1059 0022 7B68     		ldr	r3, [r7, #4]
 1060 0024 0022     		movs	r2, #0
 1061 0026 9A61     		str	r2, [r3, #24]
 727:..\..\..\..\..\..\uCOS-III\Source/os_tmr.c ****     p_tmr->Remain         = (OS_TICK            )0;
 1062              		.loc 1 727 0
 1063 0028 7B68     		ldr	r3, [r7, #4]
 1064 002a 0022     		movs	r2, #0
 1065 002c DA61     		str	r2, [r3, #28]
 728:..\..\..\..\..\..\uCOS-III\Source/os_tmr.c ****     p_tmr->Period         = (OS_TICK            )0;
 1066              		.loc 1 728 0
 1067 002e 7B68     		ldr	r3, [r7, #4]
 1068 0030 0022     		movs	r2, #0
 1069 0032 5A62     		str	r2, [r3, #36]
 729:..\..\..\..\..\..\uCOS-III\Source/os_tmr.c ****     p_tmr->Opt            = (OS_OPT             )0;
 1070              		.loc 1 729 0
 1071 0034 7B68     		ldr	r3, [r7, #4]
 1072 0036 0022     		movs	r2, #0
 1073 0038 1A85     		strh	r2, [r3, #40]	@ movhi
 730:..\..\..\..\..\..\uCOS-III\Source/os_tmr.c ****     p_tmr->CallbackPtr    = (OS_TMR_CALLBACK_PTR)0;
 1074              		.loc 1 730 0
 1075 003a 7B68     		ldr	r3, [r7, #4]
 1076 003c 0022     		movs	r2, #0
 1077 003e 9A60     		str	r2, [r3, #8]
 731:..\..\..\..\..\..\uCOS-III\Source/os_tmr.c ****     p_tmr->CallbackPtrArg = (void              *)0;
 1078              		.loc 1 731 0
 1079 0040 7B68     		ldr	r3, [r7, #4]
 1080 0042 0022     		movs	r2, #0
 1081 0044 DA60     		str	r2, [r3, #12]
 732:..\..\..\..\..\..\uCOS-III\Source/os_tmr.c ****     p_tmr->NextPtr        = (OS_TMR            *)0;
 1082              		.loc 1 732 0
 1083 0046 7B68     		ldr	r3, [r7, #4]
 1084 0048 0022     		movs	r2, #0
 1085 004a 1A61     		str	r2, [r3, #16]
ARM GAS  C:\Users\alex\AppData\Local\Temp\ccByxCIb.s 			page 33


 733:..\..\..\..\..\..\uCOS-III\Source/os_tmr.c ****     p_tmr->PrevPtr        = (OS_TMR            *)0;
 1086              		.loc 1 733 0
 1087 004c 7B68     		ldr	r3, [r7, #4]
 1088 004e 0022     		movs	r2, #0
 1089 0050 5A61     		str	r2, [r3, #20]
 734:..\..\..\..\..\..\uCOS-III\Source/os_tmr.c **** }
 1090              		.loc 1 734 0
 1091 0052 00BF     		nop
 1092 0054 0C37     		adds	r7, r7, #12
 1093              		.cfi_def_cfa_offset 4
 1094 0056 BD46     		mov	sp, r7
 1095              		.cfi_def_cfa_register 13
 1096              		@ sp needed
 1097 0058 80BC     		pop	{r7}
 1098              		.cfi_restore 7
 1099              		.cfi_def_cfa_offset 0
 1100 005a 7047     		bx	lr
 1101              	.L95:
 1102              		.align	2
 1103              	.L94:
 1104 005c 4E4F4E45 		.word	1162760014
 1105 0060 00000000 		.word	.LC0
 1106              		.cfi_endproc
 1107              	.LFE6:
 1108              		.size	OS_TmrClr, .-OS_TmrClr
 1109              		.section	.text.OS_TmrDbgListAdd,"ax",%progbits
 1110              		.align	2
 1111              		.global	OS_TmrDbgListAdd
 1112              		.thumb
 1113              		.thumb_func
 1114              		.type	OS_TmrDbgListAdd, %function
 1115              	OS_TmrDbgListAdd:
 1116              	.LFB7:
 735:..\..\..\..\..\..\uCOS-III\Source/os_tmr.c **** 
 736:..\..\..\..\..\..\uCOS-III\Source/os_tmr.c **** /*$PAGE*/
 737:..\..\..\..\..\..\uCOS-III\Source/os_tmr.c **** /*
 738:..\..\..\..\..\..\uCOS-III\Source/os_tmr.c **** ***************************************************************************************************
 739:..\..\..\..\..\..\uCOS-III\Source/os_tmr.c **** *                                         ADD/REMOVE TIMER TO/FROM DEBUG TABLE
 740:..\..\..\..\..\..\uCOS-III\Source/os_tmr.c **** *
 741:..\..\..\..\..\..\uCOS-III\Source/os_tmr.c **** * Description: These functions are called by uC/OS-III to add or remove a timer to/from a timer deb
 742:..\..\..\..\..\..\uCOS-III\Source/os_tmr.c **** *
 743:..\..\..\..\..\..\uCOS-III\Source/os_tmr.c **** * Arguments  : p_tmr     is a pointer to the timer to add/remove
 744:..\..\..\..\..\..\uCOS-III\Source/os_tmr.c **** *
 745:..\..\..\..\..\..\uCOS-III\Source/os_tmr.c **** * Returns    : none
 746:..\..\..\..\..\..\uCOS-III\Source/os_tmr.c **** *
 747:..\..\..\..\..\..\uCOS-III\Source/os_tmr.c **** * Note(s)    : These functions are INTERNAL to uC/OS-III and your application should not call it.
 748:..\..\..\..\..\..\uCOS-III\Source/os_tmr.c **** ***************************************************************************************************
 749:..\..\..\..\..\..\uCOS-III\Source/os_tmr.c **** */
 750:..\..\..\..\..\..\uCOS-III\Source/os_tmr.c **** 
 751:..\..\..\..\..\..\uCOS-III\Source/os_tmr.c **** 
 752:..\..\..\..\..\..\uCOS-III\Source/os_tmr.c **** #if OS_CFG_DBG_EN > 0u
 753:..\..\..\..\..\..\uCOS-III\Source/os_tmr.c **** void  OS_TmrDbgListAdd (OS_TMR  *p_tmr)
 754:..\..\..\..\..\..\uCOS-III\Source/os_tmr.c **** {
 1117              		.loc 1 754 0
 1118              		.cfi_startproc
 1119              		@ args = 0, pretend = 0, frame = 8
 1120              		@ frame_needed = 1, uses_anonymous_args = 0
ARM GAS  C:\Users\alex\AppData\Local\Temp\ccByxCIb.s 			page 34


 1121              		@ link register save eliminated.
 1122 0000 80B4     		push	{r7}
 1123              		.cfi_def_cfa_offset 4
 1124              		.cfi_offset 7, -4
 1125 0002 83B0     		sub	sp, sp, #12
 1126              		.cfi_def_cfa_offset 16
 1127 0004 00AF     		add	r7, sp, #0
 1128              		.cfi_def_cfa_register 7
 1129 0006 7860     		str	r0, [r7, #4]
 755:..\..\..\..\..\..\uCOS-III\Source/os_tmr.c ****     p_tmr->DbgPrevPtr               = (OS_TMR *)0;
 1130              		.loc 1 755 0
 1131 0008 7B68     		ldr	r3, [r7, #4]
 1132 000a 0022     		movs	r2, #0
 1133 000c DA62     		str	r2, [r3, #44]
 756:..\..\..\..\..\..\uCOS-III\Source/os_tmr.c ****     if (OSTmrDbgListPtr == (OS_TMR *)0) {
 1134              		.loc 1 756 0
 1135 000e 0C4B     		ldr	r3, .L99
 1136 0010 1B68     		ldr	r3, [r3]
 1137 0012 002B     		cmp	r3, #0
 1138 0014 03D1     		bne	.L97
 757:..\..\..\..\..\..\uCOS-III\Source/os_tmr.c ****         p_tmr->DbgNextPtr           = (OS_TMR *)0;
 1139              		.loc 1 757 0
 1140 0016 7B68     		ldr	r3, [r7, #4]
 1141 0018 0022     		movs	r2, #0
 1142 001a 1A63     		str	r2, [r3, #48]
 1143 001c 07E0     		b	.L98
 1144              	.L97:
 758:..\..\..\..\..\..\uCOS-III\Source/os_tmr.c ****     } else {
 759:..\..\..\..\..\..\uCOS-III\Source/os_tmr.c ****         p_tmr->DbgNextPtr           =  OSTmrDbgListPtr;
 1145              		.loc 1 759 0
 1146 001e 084B     		ldr	r3, .L99
 1147 0020 1A68     		ldr	r2, [r3]
 1148 0022 7B68     		ldr	r3, [r7, #4]
 1149 0024 1A63     		str	r2, [r3, #48]
 760:..\..\..\..\..\..\uCOS-III\Source/os_tmr.c ****         OSTmrDbgListPtr->DbgPrevPtr =  p_tmr;
 1150              		.loc 1 760 0
 1151 0026 064B     		ldr	r3, .L99
 1152 0028 1B68     		ldr	r3, [r3]
 1153 002a 7A68     		ldr	r2, [r7, #4]
 1154 002c DA62     		str	r2, [r3, #44]
 1155              	.L98:
 761:..\..\..\..\..\..\uCOS-III\Source/os_tmr.c ****     }
 762:..\..\..\..\..\..\uCOS-III\Source/os_tmr.c ****     OSTmrDbgListPtr                 =  p_tmr;
 1156              		.loc 1 762 0
 1157 002e 044A     		ldr	r2, .L99
 1158 0030 7B68     		ldr	r3, [r7, #4]
 1159 0032 1360     		str	r3, [r2]
 763:..\..\..\..\..\..\uCOS-III\Source/os_tmr.c **** }
 1160              		.loc 1 763 0
 1161 0034 00BF     		nop
 1162 0036 0C37     		adds	r7, r7, #12
 1163              		.cfi_def_cfa_offset 4
 1164 0038 BD46     		mov	sp, r7
 1165              		.cfi_def_cfa_register 13
 1166              		@ sp needed
 1167 003a 80BC     		pop	{r7}
 1168              		.cfi_restore 7
ARM GAS  C:\Users\alex\AppData\Local\Temp\ccByxCIb.s 			page 35


 1169              		.cfi_def_cfa_offset 0
 1170 003c 7047     		bx	lr
 1171              	.L100:
 1172 003e 00BF     		.align	2
 1173              	.L99:
 1174 0040 00000000 		.word	OSTmrDbgListPtr
 1175              		.cfi_endproc
 1176              	.LFE7:
 1177              		.size	OS_TmrDbgListAdd, .-OS_TmrDbgListAdd
 1178              		.section	.text.OS_TmrDbgListRemove,"ax",%progbits
 1179              		.align	2
 1180              		.global	OS_TmrDbgListRemove
 1181              		.thumb
 1182              		.thumb_func
 1183              		.type	OS_TmrDbgListRemove, %function
 1184              	OS_TmrDbgListRemove:
 1185              	.LFB8:
 764:..\..\..\..\..\..\uCOS-III\Source/os_tmr.c **** 
 765:..\..\..\..\..\..\uCOS-III\Source/os_tmr.c **** 
 766:..\..\..\..\..\..\uCOS-III\Source/os_tmr.c **** 
 767:..\..\..\..\..\..\uCOS-III\Source/os_tmr.c **** void  OS_TmrDbgListRemove (OS_TMR  *p_tmr)
 768:..\..\..\..\..\..\uCOS-III\Source/os_tmr.c **** {
 1186              		.loc 1 768 0
 1187              		.cfi_startproc
 1188              		@ args = 0, pretend = 0, frame = 16
 1189              		@ frame_needed = 1, uses_anonymous_args = 0
 1190              		@ link register save eliminated.
 1191 0000 80B4     		push	{r7}
 1192              		.cfi_def_cfa_offset 4
 1193              		.cfi_offset 7, -4
 1194 0002 85B0     		sub	sp, sp, #20
 1195              		.cfi_def_cfa_offset 24
 1196 0004 00AF     		add	r7, sp, #0
 1197              		.cfi_def_cfa_register 7
 1198 0006 7860     		str	r0, [r7, #4]
 769:..\..\..\..\..\..\uCOS-III\Source/os_tmr.c ****     OS_TMR  *p_tmr_next;
 770:..\..\..\..\..\..\uCOS-III\Source/os_tmr.c ****     OS_TMR  *p_tmr_prev;
 771:..\..\..\..\..\..\uCOS-III\Source/os_tmr.c **** 
 772:..\..\..\..\..\..\uCOS-III\Source/os_tmr.c **** 
 773:..\..\..\..\..\..\uCOS-III\Source/os_tmr.c ****     p_tmr_prev = p_tmr->DbgPrevPtr;
 1199              		.loc 1 773 0
 1200 0008 7B68     		ldr	r3, [r7, #4]
 1201 000a DB6A     		ldr	r3, [r3, #44]
 1202 000c FB60     		str	r3, [r7, #12]
 774:..\..\..\..\..\..\uCOS-III\Source/os_tmr.c ****     p_tmr_next = p_tmr->DbgNextPtr;
 1203              		.loc 1 774 0
 1204 000e 7B68     		ldr	r3, [r7, #4]
 1205 0010 1B6B     		ldr	r3, [r3, #48]
 1206 0012 BB60     		str	r3, [r7, #8]
 775:..\..\..\..\..\..\uCOS-III\Source/os_tmr.c **** 
 776:..\..\..\..\..\..\uCOS-III\Source/os_tmr.c ****     if (p_tmr_prev == (OS_TMR *)0) {
 1207              		.loc 1 776 0
 1208 0014 FB68     		ldr	r3, [r7, #12]
 1209 0016 002B     		cmp	r3, #0
 1210 0018 0CD1     		bne	.L102
 777:..\..\..\..\..\..\uCOS-III\Source/os_tmr.c ****         OSTmrDbgListPtr = p_tmr_next;
 1211              		.loc 1 777 0
ARM GAS  C:\Users\alex\AppData\Local\Temp\ccByxCIb.s 			page 36


 1212 001a 144A     		ldr	r2, .L107
 1213 001c BB68     		ldr	r3, [r7, #8]
 1214 001e 1360     		str	r3, [r2]
 778:..\..\..\..\..\..\uCOS-III\Source/os_tmr.c ****         if (p_tmr_next != (OS_TMR *)0) {
 1215              		.loc 1 778 0
 1216 0020 BB68     		ldr	r3, [r7, #8]
 1217 0022 002B     		cmp	r3, #0
 1218 0024 02D0     		beq	.L103
 779:..\..\..\..\..\..\uCOS-III\Source/os_tmr.c ****             p_tmr_next->DbgPrevPtr = (OS_TMR *)0;
 1219              		.loc 1 779 0
 1220 0026 BB68     		ldr	r3, [r7, #8]
 1221 0028 0022     		movs	r2, #0
 1222 002a DA62     		str	r2, [r3, #44]
 1223              	.L103:
 780:..\..\..\..\..\..\uCOS-III\Source/os_tmr.c ****         }
 781:..\..\..\..\..\..\uCOS-III\Source/os_tmr.c ****         p_tmr->DbgNextPtr = (OS_TMR *)0;
 1224              		.loc 1 781 0
 1225 002c 7B68     		ldr	r3, [r7, #4]
 1226 002e 0022     		movs	r2, #0
 1227 0030 1A63     		str	r2, [r3, #48]
 782:..\..\..\..\..\..\uCOS-III\Source/os_tmr.c **** 
 783:..\..\..\..\..\..\uCOS-III\Source/os_tmr.c ****     } else if (p_tmr_next == (OS_TMR *)0) {
 784:..\..\..\..\..\..\uCOS-III\Source/os_tmr.c ****         p_tmr_prev->DbgNextPtr = (OS_TMR *)0;
 785:..\..\..\..\..\..\uCOS-III\Source/os_tmr.c ****         p_tmr->DbgPrevPtr      = (OS_TMR *)0;
 786:..\..\..\..\..\..\uCOS-III\Source/os_tmr.c **** 
 787:..\..\..\..\..\..\uCOS-III\Source/os_tmr.c ****     } else {
 788:..\..\..\..\..\..\uCOS-III\Source/os_tmr.c ****         p_tmr_prev->DbgNextPtr =  p_tmr_next;
 789:..\..\..\..\..\..\uCOS-III\Source/os_tmr.c ****         p_tmr_next->DbgPrevPtr =  p_tmr_prev;
 790:..\..\..\..\..\..\uCOS-III\Source/os_tmr.c ****         p_tmr->DbgNextPtr      = (OS_TMR *)0;
 791:..\..\..\..\..\..\uCOS-III\Source/os_tmr.c ****         p_tmr->DbgPrevPtr      = (OS_TMR *)0;
 792:..\..\..\..\..\..\uCOS-III\Source/os_tmr.c ****     }
 793:..\..\..\..\..\..\uCOS-III\Source/os_tmr.c **** }
 1228              		.loc 1 793 0
 1229 0032 15E0     		b	.L106
 1230              	.L102:
 783:..\..\..\..\..\..\uCOS-III\Source/os_tmr.c ****         p_tmr_prev->DbgNextPtr = (OS_TMR *)0;
 1231              		.loc 1 783 0
 1232 0034 BB68     		ldr	r3, [r7, #8]
 1233 0036 002B     		cmp	r3, #0
 1234 0038 06D1     		bne	.L105
 784:..\..\..\..\..\..\uCOS-III\Source/os_tmr.c ****         p_tmr->DbgPrevPtr      = (OS_TMR *)0;
 1235              		.loc 1 784 0
 1236 003a FB68     		ldr	r3, [r7, #12]
 1237 003c 0022     		movs	r2, #0
 1238 003e 1A63     		str	r2, [r3, #48]
 785:..\..\..\..\..\..\uCOS-III\Source/os_tmr.c **** 
 1239              		.loc 1 785 0
 1240 0040 7B68     		ldr	r3, [r7, #4]
 1241 0042 0022     		movs	r2, #0
 1242 0044 DA62     		str	r2, [r3, #44]
 1243              		.loc 1 793 0
 1244 0046 0BE0     		b	.L106
 1245              	.L105:
 788:..\..\..\..\..\..\uCOS-III\Source/os_tmr.c ****         p_tmr_next->DbgPrevPtr =  p_tmr_prev;
 1246              		.loc 1 788 0
 1247 0048 FB68     		ldr	r3, [r7, #12]
 1248 004a BA68     		ldr	r2, [r7, #8]
ARM GAS  C:\Users\alex\AppData\Local\Temp\ccByxCIb.s 			page 37


 1249 004c 1A63     		str	r2, [r3, #48]
 789:..\..\..\..\..\..\uCOS-III\Source/os_tmr.c ****         p_tmr->DbgNextPtr      = (OS_TMR *)0;
 1250              		.loc 1 789 0
 1251 004e BB68     		ldr	r3, [r7, #8]
 1252 0050 FA68     		ldr	r2, [r7, #12]
 1253 0052 DA62     		str	r2, [r3, #44]
 790:..\..\..\..\..\..\uCOS-III\Source/os_tmr.c ****         p_tmr->DbgPrevPtr      = (OS_TMR *)0;
 1254              		.loc 1 790 0
 1255 0054 7B68     		ldr	r3, [r7, #4]
 1256 0056 0022     		movs	r2, #0
 1257 0058 1A63     		str	r2, [r3, #48]
 791:..\..\..\..\..\..\uCOS-III\Source/os_tmr.c ****     }
 1258              		.loc 1 791 0
 1259 005a 7B68     		ldr	r3, [r7, #4]
 1260 005c 0022     		movs	r2, #0
 1261 005e DA62     		str	r2, [r3, #44]
 1262              	.L106:
 1263              		.loc 1 793 0
 1264 0060 00BF     		nop
 1265 0062 1437     		adds	r7, r7, #20
 1266              		.cfi_def_cfa_offset 4
 1267 0064 BD46     		mov	sp, r7
 1268              		.cfi_def_cfa_register 13
 1269              		@ sp needed
 1270 0066 80BC     		pop	{r7}
 1271              		.cfi_restore 7
 1272              		.cfi_def_cfa_offset 0
 1273 0068 7047     		bx	lr
 1274              	.L108:
 1275 006a 00BF     		.align	2
 1276              	.L107:
 1277 006c 00000000 		.word	OSTmrDbgListPtr
 1278              		.cfi_endproc
 1279              	.LFE8:
 1280              		.size	OS_TmrDbgListRemove, .-OS_TmrDbgListRemove
 1281              		.section	.rodata
 1282 0005 000000   		.align	2
 1283              	.LC1:
 1284 0008 75432F4F 		.ascii	"uC/OS-III Timer Task\000"
 1284      532D4949 
 1284      49205469 
 1284      6D657220 
 1284      5461736B 
 1285              		.section	.text.OS_TmrInit,"ax",%progbits
 1286              		.align	2
 1287              		.global	OS_TmrInit
 1288              		.thumb
 1289              		.thumb_func
 1290              		.type	OS_TmrInit, %function
 1291              	OS_TmrInit:
 1292              	.LFB9:
 794:..\..\..\..\..\..\uCOS-III\Source/os_tmr.c **** #endif
 795:..\..\..\..\..\..\uCOS-III\Source/os_tmr.c **** 
 796:..\..\..\..\..\..\uCOS-III\Source/os_tmr.c **** /*$PAGE*/
 797:..\..\..\..\..\..\uCOS-III\Source/os_tmr.c **** /*
 798:..\..\..\..\..\..\uCOS-III\Source/os_tmr.c **** ***************************************************************************************************
 799:..\..\..\..\..\..\uCOS-III\Source/os_tmr.c **** *                                             INITIALIZE THE TIMER MANAGER
ARM GAS  C:\Users\alex\AppData\Local\Temp\ccByxCIb.s 			page 38


 800:..\..\..\..\..\..\uCOS-III\Source/os_tmr.c **** *
 801:..\..\..\..\..\..\uCOS-III\Source/os_tmr.c **** * Description: This function is called by OSInit() to initialize the timer manager module.
 802:..\..\..\..\..\..\uCOS-III\Source/os_tmr.c **** *
 803:..\..\..\..\..\..\uCOS-III\Source/os_tmr.c **** * Argument(s): p_err    is a pointer to a variable that will contain an error code returned by this
 804:..\..\..\..\..\..\uCOS-III\Source/os_tmr.c **** *
 805:..\..\..\..\..\..\uCOS-III\Source/os_tmr.c **** *                           OS_ERR_NONE
 806:..\..\..\..\..\..\uCOS-III\Source/os_tmr.c **** *                           OS_ERR_TMR_STK_INVALID       if you didn't specify a stack for the time
 807:..\..\..\..\..\..\uCOS-III\Source/os_tmr.c **** *                           OS_ERR_TMR_STK_SIZE_INVALID  if you didn't allocate enough space for th
 808:..\..\..\..\..\..\uCOS-III\Source/os_tmr.c **** *                           OS_ERR_PRIO_INVALID          if you specified the same priority as the 
 809:..\..\..\..\..\..\uCOS-III\Source/os_tmr.c **** *                           OS_ERR_xxx                   any error code returned by OSTaskCreate()
 810:..\..\..\..\..\..\uCOS-III\Source/os_tmr.c **** *
 811:..\..\..\..\..\..\uCOS-III\Source/os_tmr.c **** * Returns    : none
 812:..\..\..\..\..\..\uCOS-III\Source/os_tmr.c **** *
 813:..\..\..\..\..\..\uCOS-III\Source/os_tmr.c **** * Note(s)    : 1) This function is INTERNAL to uC/OS-III and your application MUST NOT call it.
 814:..\..\..\..\..\..\uCOS-III\Source/os_tmr.c **** ***************************************************************************************************
 815:..\..\..\..\..\..\uCOS-III\Source/os_tmr.c **** */
 816:..\..\..\..\..\..\uCOS-III\Source/os_tmr.c **** 
 817:..\..\..\..\..\..\uCOS-III\Source/os_tmr.c **** void  OS_TmrInit (OS_ERR  *p_err)
 818:..\..\..\..\..\..\uCOS-III\Source/os_tmr.c **** {
 1293              		.loc 1 818 0
 1294              		.cfi_startproc
 1295              		@ args = 0, pretend = 0, frame = 16
 1296              		@ frame_needed = 1, uses_anonymous_args = 0
 1297 0000 90B5     		push	{r4, r7, lr}
 1298              		.cfi_def_cfa_offset 12
 1299              		.cfi_offset 4, -12
 1300              		.cfi_offset 7, -8
 1301              		.cfi_offset 14, -4
 1302 0002 8FB0     		sub	sp, sp, #60
 1303              		.cfi_def_cfa_offset 72
 1304 0004 0AAF     		add	r7, sp, #40
 1305              		.cfi_def_cfa 7, 32
 1306 0006 7860     		str	r0, [r7, #4]
 819:..\..\..\..\..\..\uCOS-III\Source/os_tmr.c ****     OS_TMR_SPOKE_IX   i;
 820:..\..\..\..\..\..\uCOS-III\Source/os_tmr.c ****     OS_TMR_SPOKE     *p_spoke;
 821:..\..\..\..\..\..\uCOS-III\Source/os_tmr.c **** 
 822:..\..\..\..\..\..\uCOS-III\Source/os_tmr.c **** 
 823:..\..\..\..\..\..\uCOS-III\Source/os_tmr.c **** 
 824:..\..\..\..\..\..\uCOS-III\Source/os_tmr.c **** #ifdef OS_SAFETY_CRITICAL
 825:..\..\..\..\..\..\uCOS-III\Source/os_tmr.c ****     if (p_err == (OS_ERR *)0) {
 826:..\..\..\..\..\..\uCOS-III\Source/os_tmr.c ****         OS_SAFETY_CRITICAL_EXCEPTION();
 827:..\..\..\..\..\..\uCOS-III\Source/os_tmr.c ****         return;
 828:..\..\..\..\..\..\uCOS-III\Source/os_tmr.c ****     }
 829:..\..\..\..\..\..\uCOS-III\Source/os_tmr.c **** #endif
 830:..\..\..\..\..\..\uCOS-III\Source/os_tmr.c **** 
 831:..\..\..\..\..\..\uCOS-III\Source/os_tmr.c **** #if OS_CFG_DBG_EN > 0u
 832:..\..\..\..\..\..\uCOS-III\Source/os_tmr.c ****     OSTmrDbgListPtr = (OS_TMR *)0;
 1307              		.loc 1 832 0
 1308 0008 3B4B     		ldr	r3, .L118
 1309 000a 0022     		movs	r2, #0
 1310 000c 1A60     		str	r2, [r3]
 833:..\..\..\..\..\..\uCOS-III\Source/os_tmr.c **** #endif
 834:..\..\..\..\..\..\uCOS-III\Source/os_tmr.c **** 
 835:..\..\..\..\..\..\uCOS-III\Source/os_tmr.c ****     if (OSCfg_TmrTaskRate_Hz > (OS_RATE_HZ)0) {
 1311              		.loc 1 835 0
 1312 000e 3B4B     		ldr	r3, .L118+4
 1313 0010 1B68     		ldr	r3, [r3]
ARM GAS  C:\Users\alex\AppData\Local\Temp\ccByxCIb.s 			page 39


 1314 0012 002B     		cmp	r3, #0
 1315 0014 08D0     		beq	.L110
 836:..\..\..\..\..\..\uCOS-III\Source/os_tmr.c ****         OSTmrUpdateCnt = OSCfg_TickRate_Hz / OSCfg_TmrTaskRate_Hz;
 1316              		.loc 1 836 0
 1317 0016 3A4B     		ldr	r3, .L118+8
 1318 0018 1A68     		ldr	r2, [r3]
 1319 001a 384B     		ldr	r3, .L118+4
 1320 001c 1B68     		ldr	r3, [r3]
 1321 001e B2FBF3F3 		udiv	r3, r2, r3
 1322 0022 384A     		ldr	r2, .L118+12
 1323 0024 1360     		str	r3, [r2]
 1324 0026 07E0     		b	.L111
 1325              	.L110:
 837:..\..\..\..\..\..\uCOS-III\Source/os_tmr.c ****     } else {
 838:..\..\..\..\..\..\uCOS-III\Source/os_tmr.c ****         OSTmrUpdateCnt = OSCfg_TickRate_Hz / (OS_RATE_HZ)10;
 1326              		.loc 1 838 0
 1327 0028 354B     		ldr	r3, .L118+8
 1328 002a 1B68     		ldr	r3, [r3]
 1329 002c 364A     		ldr	r2, .L118+16
 1330 002e A2FB0323 		umull	r2, r3, r2, r3
 1331 0032 DB08     		lsrs	r3, r3, #3
 1332 0034 334A     		ldr	r2, .L118+12
 1333 0036 1360     		str	r3, [r2]
 1334              	.L111:
 839:..\..\..\..\..\..\uCOS-III\Source/os_tmr.c ****     }
 840:..\..\..\..\..\..\uCOS-III\Source/os_tmr.c ****     OSTmrUpdateCtr   = OSTmrUpdateCnt;
 1335              		.loc 1 840 0
 1336 0038 324B     		ldr	r3, .L118+12
 1337 003a 1B68     		ldr	r3, [r3]
 1338 003c 334A     		ldr	r2, .L118+20
 1339 003e 1360     		str	r3, [r2]
 841:..\..\..\..\..\..\uCOS-III\Source/os_tmr.c **** 
 842:..\..\..\..\..\..\uCOS-III\Source/os_tmr.c ****     OSTmrTickCtr     = (OS_TICK)0;
 1340              		.loc 1 842 0
 1341 0040 334B     		ldr	r3, .L118+24
 1342 0042 0022     		movs	r2, #0
 1343 0044 1A60     		str	r2, [r3]
 843:..\..\..\..\..\..\uCOS-III\Source/os_tmr.c **** 
 844:..\..\..\..\..\..\uCOS-III\Source/os_tmr.c ****     OSTmrTaskTimeMax = (CPU_TS)0;
 1344              		.loc 1 844 0
 1345 0046 334B     		ldr	r3, .L118+28
 1346 0048 0022     		movs	r2, #0
 1347 004a 1A60     		str	r2, [r3]
 845:..\..\..\..\..\..\uCOS-III\Source/os_tmr.c **** 
 846:..\..\..\..\..\..\uCOS-III\Source/os_tmr.c ****     for (i = 0u; i < OSCfg_TmrWheelSize; i++) {
 1348              		.loc 1 846 0
 1349 004c 0023     		movs	r3, #0
 1350 004e FB81     		strh	r3, [r7, #14]	@ movhi
 1351 0050 10E0     		b	.L112
 1352              	.L113:
 847:..\..\..\..\..\..\uCOS-III\Source/os_tmr.c ****         p_spoke                = &OSCfg_TmrWheel[i];
 1353              		.loc 1 847 0 discriminator 3
 1354 0052 FB89     		ldrh	r3, [r7, #14]
 1355 0054 DB00     		lsls	r3, r3, #3
 1356 0056 304A     		ldr	r2, .L118+32
 1357 0058 1344     		add	r3, r3, r2
 1358 005a BB60     		str	r3, [r7, #8]
ARM GAS  C:\Users\alex\AppData\Local\Temp\ccByxCIb.s 			page 40


 848:..\..\..\..\..\..\uCOS-III\Source/os_tmr.c ****         p_spoke->NbrEntries    = (OS_OBJ_QTY)0;
 1359              		.loc 1 848 0 discriminator 3
 1360 005c BB68     		ldr	r3, [r7, #8]
 1361 005e 0022     		movs	r2, #0
 1362 0060 9A80     		strh	r2, [r3, #4]	@ movhi
 849:..\..\..\..\..\..\uCOS-III\Source/os_tmr.c ****         p_spoke->NbrEntriesMax = (OS_OBJ_QTY)0;
 1363              		.loc 1 849 0 discriminator 3
 1364 0062 BB68     		ldr	r3, [r7, #8]
 1365 0064 0022     		movs	r2, #0
 1366 0066 DA80     		strh	r2, [r3, #6]	@ movhi
 850:..\..\..\..\..\..\uCOS-III\Source/os_tmr.c ****         p_spoke->FirstPtr      = (OS_TMR   *)0;
 1367              		.loc 1 850 0 discriminator 3
 1368 0068 BB68     		ldr	r3, [r7, #8]
 1369 006a 0022     		movs	r2, #0
 1370 006c 1A60     		str	r2, [r3]
 846:..\..\..\..\..\..\uCOS-III\Source/os_tmr.c ****         p_spoke                = &OSCfg_TmrWheel[i];
 1371              		.loc 1 846 0 discriminator 3
 1372 006e FB89     		ldrh	r3, [r7, #14]
 1373 0070 0133     		adds	r3, r3, #1
 1374 0072 FB81     		strh	r3, [r7, #14]	@ movhi
 1375              	.L112:
 846:..\..\..\..\..\..\uCOS-III\Source/os_tmr.c ****         p_spoke                = &OSCfg_TmrWheel[i];
 1376              		.loc 1 846 0 is_stmt 0 discriminator 1
 1377 0074 294B     		ldr	r3, .L118+36
 1378 0076 1B88     		ldrh	r3, [r3]
 1379 0078 FA89     		ldrh	r2, [r7, #14]
 1380 007a 9A42     		cmp	r2, r3
 1381 007c E9D3     		bcc	.L113
 851:..\..\..\..\..\..\uCOS-III\Source/os_tmr.c ****     }
 852:..\..\..\..\..\..\uCOS-III\Source/os_tmr.c **** 
 853:..\..\..\..\..\..\uCOS-III\Source/os_tmr.c ****                                                             /* ---------------- CREATE THE TIMER TA
 854:..\..\..\..\..\..\uCOS-III\Source/os_tmr.c ****     if (OSCfg_TmrTaskStkBasePtr == (CPU_STK*)0) {
 1382              		.loc 1 854 0 is_stmt 1
 1383 007e 284B     		ldr	r3, .L118+40
 1384 0080 1B68     		ldr	r3, [r3]
 1385 0082 002B     		cmp	r3, #0
 1386 0084 04D1     		bne	.L114
 855:..\..\..\..\..\..\uCOS-III\Source/os_tmr.c ****        *p_err = OS_ERR_TMR_STK_INVALID;
 1387              		.loc 1 855 0
 1388 0086 7B68     		ldr	r3, [r7, #4]
 1389 0088 47F24732 		movw	r2, #29511
 1390 008c 1A80     		strh	r2, [r3]	@ movhi
 856:..\..\..\..\..\..\uCOS-III\Source/os_tmr.c ****         return;
 1391              		.loc 1 856 0
 1392 008e 2FE0     		b	.L109
 1393              	.L114:
 857:..\..\..\..\..\..\uCOS-III\Source/os_tmr.c ****     }
 858:..\..\..\..\..\..\uCOS-III\Source/os_tmr.c **** 
 859:..\..\..\..\..\..\uCOS-III\Source/os_tmr.c ****     if (OSCfg_TmrTaskStkSize < OSCfg_StkSizeMin) {
 1394              		.loc 1 859 0
 1395 0090 244B     		ldr	r3, .L118+44
 1396 0092 1A68     		ldr	r2, [r3]
 1397 0094 244B     		ldr	r3, .L118+48
 1398 0096 1B68     		ldr	r3, [r3]
 1399 0098 9A42     		cmp	r2, r3
 1400 009a 04D2     		bcs	.L116
 860:..\..\..\..\..\..\uCOS-III\Source/os_tmr.c ****        *p_err = OS_ERR_TMR_STK_SIZE_INVALID;
ARM GAS  C:\Users\alex\AppData\Local\Temp\ccByxCIb.s 			page 41


 1401              		.loc 1 860 0
 1402 009c 7B68     		ldr	r3, [r7, #4]
 1403 009e 47F24832 		movw	r2, #29512
 1404 00a2 1A80     		strh	r2, [r3]	@ movhi
 861:..\..\..\..\..\..\uCOS-III\Source/os_tmr.c ****         return;
 1405              		.loc 1 861 0
 1406 00a4 24E0     		b	.L109
 1407              	.L116:
 862:..\..\..\..\..\..\uCOS-III\Source/os_tmr.c ****     }
 863:..\..\..\..\..\..\uCOS-III\Source/os_tmr.c **** 
 864:..\..\..\..\..\..\uCOS-III\Source/os_tmr.c ****     if (OSCfg_TmrTaskPrio >= (OS_CFG_PRIO_MAX - 1u)) {
 1408              		.loc 1 864 0
 1409 00a6 214B     		ldr	r3, .L118+52
 1410 00a8 1B78     		ldrb	r3, [r3]	@ zero_extendqisi2
 1411 00aa 062B     		cmp	r3, #6
 1412 00ac 04D9     		bls	.L117
 865:..\..\..\..\..\..\uCOS-III\Source/os_tmr.c ****        *p_err = OS_ERR_TMR_PRIO_INVALID;
 1413              		.loc 1 865 0
 1414 00ae 7B68     		ldr	r3, [r7, #4]
 1415 00b0 47F24632 		movw	r2, #29510
 1416 00b4 1A80     		strh	r2, [r3]	@ movhi
 866:..\..\..\..\..\..\uCOS-III\Source/os_tmr.c ****         return;
 1417              		.loc 1 866 0
 1418 00b6 1BE0     		b	.L109
 1419              	.L117:
 867:..\..\..\..\..\..\uCOS-III\Source/os_tmr.c ****     }
 868:..\..\..\..\..\..\uCOS-III\Source/os_tmr.c **** 
 869:..\..\..\..\..\..\uCOS-III\Source/os_tmr.c ****     OSTaskCreate((OS_TCB     *)&OSTmrTaskTCB,
 1420              		.loc 1 869 0
 1421 00b8 1C4B     		ldr	r3, .L118+52
 1422 00ba 1B78     		ldrb	r3, [r3]	@ zero_extendqisi2
 1423 00bc 184A     		ldr	r2, .L118+40
 1424 00be 1268     		ldr	r2, [r2]
 1425 00c0 1B49     		ldr	r1, .L118+56
 1426 00c2 0968     		ldr	r1, [r1]
 1427 00c4 1748     		ldr	r0, .L118+44
 1428 00c6 0068     		ldr	r0, [r0]
 1429 00c8 7C68     		ldr	r4, [r7, #4]
 1430 00ca 0894     		str	r4, [sp, #32]
 1431 00cc 0B24     		movs	r4, #11
 1432 00ce 0794     		str	r4, [sp, #28]
 1433 00d0 0024     		movs	r4, #0
 1434 00d2 0694     		str	r4, [sp, #24]
 1435 00d4 0024     		movs	r4, #0
 1436 00d6 0594     		str	r4, [sp, #20]
 1437 00d8 0024     		movs	r4, #0
 1438 00da 0494     		str	r4, [sp, #16]
 1439 00dc 0390     		str	r0, [sp, #12]
 1440 00de 0291     		str	r1, [sp, #8]
 1441 00e0 0192     		str	r2, [sp, #4]
 1442 00e2 0093     		str	r3, [sp]
 1443 00e4 0023     		movs	r3, #0
 1444 00e6 134A     		ldr	r2, .L118+60
 1445 00e8 1349     		ldr	r1, .L118+64
 1446 00ea 1448     		ldr	r0, .L118+68
 1447 00ec FFF7FEFF 		bl	OSTaskCreate
 1448              	.L109:
ARM GAS  C:\Users\alex\AppData\Local\Temp\ccByxCIb.s 			page 42


 870:..\..\..\..\..\..\uCOS-III\Source/os_tmr.c ****                  (CPU_CHAR   *)((void *)"uC/OS-III Timer Task"),
 871:..\..\..\..\..\..\uCOS-III\Source/os_tmr.c ****                  (OS_TASK_PTR )OS_TmrTask,
 872:..\..\..\..\..\..\uCOS-III\Source/os_tmr.c ****                  (void       *)0,
 873:..\..\..\..\..\..\uCOS-III\Source/os_tmr.c ****                  (OS_PRIO     )OSCfg_TmrTaskPrio,
 874:..\..\..\..\..\..\uCOS-III\Source/os_tmr.c ****                  (CPU_STK    *)OSCfg_TmrTaskStkBasePtr,
 875:..\..\..\..\..\..\uCOS-III\Source/os_tmr.c ****                  (CPU_STK_SIZE)OSCfg_TmrTaskStkLimit,
 876:..\..\..\..\..\..\uCOS-III\Source/os_tmr.c ****                  (CPU_STK_SIZE)OSCfg_TmrTaskStkSize,
 877:..\..\..\..\..\..\uCOS-III\Source/os_tmr.c ****                  (OS_MSG_QTY  )0,
 878:..\..\..\..\..\..\uCOS-III\Source/os_tmr.c ****                  (OS_TICK     )0,
 879:..\..\..\..\..\..\uCOS-III\Source/os_tmr.c ****                  (void       *)0,
 880:..\..\..\..\..\..\uCOS-III\Source/os_tmr.c ****                  (OS_OPT      )(OS_OPT_TASK_STK_CHK | OS_OPT_TASK_STK_CLR | OS_OPT_TASK_NO_TLS),
 881:..\..\..\..\..\..\uCOS-III\Source/os_tmr.c ****                  (OS_ERR     *)p_err);
 882:..\..\..\..\..\..\uCOS-III\Source/os_tmr.c **** }
 1449              		.loc 1 882 0
 1450 00f0 1437     		adds	r7, r7, #20
 1451              		.cfi_def_cfa_offset 12
 1452 00f2 BD46     		mov	sp, r7
 1453              		.cfi_def_cfa_register 13
 1454              		@ sp needed
 1455 00f4 90BD     		pop	{r4, r7, pc}
 1456              	.L119:
 1457 00f6 00BF     		.align	2
 1458              	.L118:
 1459 00f8 00000000 		.word	OSTmrDbgListPtr
 1460 00fc 00000000 		.word	OSCfg_TmrTaskRate_Hz
 1461 0100 00000000 		.word	OSCfg_TickRate_Hz
 1462 0104 00000000 		.word	OSTmrUpdateCnt
 1463 0108 CDCCCCCC 		.word	-858993459
 1464 010c 00000000 		.word	OSTmrUpdateCtr
 1465 0110 00000000 		.word	OSTmrTickCtr
 1466 0114 00000000 		.word	OSTmrTaskTimeMax
 1467 0118 00000000 		.word	OSCfg_TmrWheel
 1468 011c 00000000 		.word	OSCfg_TmrWheelSize
 1469 0120 00000000 		.word	OSCfg_TmrTaskStkBasePtr
 1470 0124 00000000 		.word	OSCfg_TmrTaskStkSize
 1471 0128 00000000 		.word	OSCfg_StkSizeMin
 1472 012c 00000000 		.word	OSCfg_TmrTaskPrio
 1473 0130 00000000 		.word	OSCfg_TmrTaskStkLimit
 1474 0134 00000000 		.word	OS_TmrTask
 1475 0138 08000000 		.word	.LC1
 1476 013c 00000000 		.word	OSTmrTaskTCB
 1477              		.cfi_endproc
 1478              	.LFE9:
 1479              		.size	OS_TmrInit, .-OS_TmrInit
 1480              		.section	.text.OS_TmrLink,"ax",%progbits
 1481              		.align	2
 1482              		.global	OS_TmrLink
 1483              		.thumb
 1484              		.thumb_func
 1485              		.type	OS_TmrLink, %function
 1486              	OS_TmrLink:
 1487              	.LFB10:
 883:..\..\..\..\..\..\uCOS-III\Source/os_tmr.c **** 
 884:..\..\..\..\..\..\uCOS-III\Source/os_tmr.c **** /*$PAGE*/
 885:..\..\..\..\..\..\uCOS-III\Source/os_tmr.c **** /*
 886:..\..\..\..\..\..\uCOS-III\Source/os_tmr.c **** ***************************************************************************************************
 887:..\..\..\..\..\..\uCOS-III\Source/os_tmr.c **** *                                         INSERT A TIMER INTO THE TIMER WHEEL
ARM GAS  C:\Users\alex\AppData\Local\Temp\ccByxCIb.s 			page 43


 888:..\..\..\..\..\..\uCOS-III\Source/os_tmr.c **** *
 889:..\..\..\..\..\..\uCOS-III\Source/os_tmr.c **** * Description: This function is called to insert the timer into the timer wheel.  The timer is alwa
 890:..\..\..\..\..\..\uCOS-III\Source/os_tmr.c **** *              beginning of the list.
 891:..\..\..\..\..\..\uCOS-III\Source/os_tmr.c **** *
 892:..\..\..\..\..\..\uCOS-III\Source/os_tmr.c **** * Arguments  : p_tmr          Is a pointer to the timer to insert.
 893:..\..\..\..\..\..\uCOS-III\Source/os_tmr.c **** *              -----
 894:..\..\..\..\..\..\uCOS-III\Source/os_tmr.c **** *
 895:..\..\..\..\..\..\uCOS-III\Source/os_tmr.c **** *              opt            Is either:
 896:..\..\..\..\..\..\uCOS-III\Source/os_tmr.c **** *
 897:..\..\..\..\..\..\uCOS-III\Source/os_tmr.c **** *                               OS_OPT_LINK_PERIODIC    Means to re-insert the timer after a period
 898:..\..\..\..\..\..\uCOS-III\Source/os_tmr.c **** *                               OS_OPT_LINK_DLY         Means to insert    the timer the first time
 899:..\..\..\..\..\..\uCOS-III\Source/os_tmr.c **** *
 900:..\..\..\..\..\..\uCOS-III\Source/os_tmr.c **** * Returns    : none
 901:..\..\..\..\..\..\uCOS-III\Source/os_tmr.c **** *
 902:..\..\..\..\..\..\uCOS-III\Source/os_tmr.c **** * Note(s)    : 1) This function is INTERNAL to uC/OS-III and your application MUST NOT call it.
 903:..\..\..\..\..\..\uCOS-III\Source/os_tmr.c **** ***************************************************************************************************
 904:..\..\..\..\..\..\uCOS-III\Source/os_tmr.c **** */
 905:..\..\..\..\..\..\uCOS-III\Source/os_tmr.c **** 
 906:..\..\..\..\..\..\uCOS-III\Source/os_tmr.c **** void  OS_TmrLink (OS_TMR  *p_tmr,
 907:..\..\..\..\..\..\uCOS-III\Source/os_tmr.c ****                   OS_OPT   opt)
 908:..\..\..\..\..\..\uCOS-III\Source/os_tmr.c **** {
 1488              		.loc 1 908 0
 1489              		.cfi_startproc
 1490              		@ args = 0, pretend = 0, frame = 24
 1491              		@ frame_needed = 1, uses_anonymous_args = 0
 1492              		@ link register save eliminated.
 1493 0000 80B4     		push	{r7}
 1494              		.cfi_def_cfa_offset 4
 1495              		.cfi_offset 7, -4
 1496 0002 87B0     		sub	sp, sp, #28
 1497              		.cfi_def_cfa_offset 32
 1498 0004 00AF     		add	r7, sp, #0
 1499              		.cfi_def_cfa_register 7
 1500 0006 7860     		str	r0, [r7, #4]
 1501 0008 0B46     		mov	r3, r1
 1502 000a 7B80     		strh	r3, [r7, #2]	@ movhi
 909:..\..\..\..\..\..\uCOS-III\Source/os_tmr.c ****     OS_TMR_SPOKE     *p_spoke;
 910:..\..\..\..\..\..\uCOS-III\Source/os_tmr.c ****     OS_TMR           *p_tmr0;
 911:..\..\..\..\..\..\uCOS-III\Source/os_tmr.c ****     OS_TMR           *p_tmr1;
 912:..\..\..\..\..\..\uCOS-III\Source/os_tmr.c ****     OS_TMR_SPOKE_IX   spoke;
 913:..\..\..\..\..\..\uCOS-III\Source/os_tmr.c **** 
 914:..\..\..\..\..\..\uCOS-III\Source/os_tmr.c **** 
 915:..\..\..\..\..\..\uCOS-III\Source/os_tmr.c **** 
 916:..\..\..\..\..\..\uCOS-III\Source/os_tmr.c ****     p_tmr->State = OS_TMR_STATE_RUNNING;
 1503              		.loc 1 916 0
 1504 000c 7B68     		ldr	r3, [r7, #4]
 1505 000e 0222     		movs	r2, #2
 1506 0010 83F82A20 		strb	r2, [r3, #42]
 917:..\..\..\..\..\..\uCOS-III\Source/os_tmr.c ****     if (opt == OS_OPT_LINK_PERIODIC) {                      /* Determine when timer will expire    
 1507              		.loc 1 917 0
 1508 0014 7B88     		ldrh	r3, [r7, #2]
 1509 0016 012B     		cmp	r3, #1
 1510 0018 07D1     		bne	.L121
 918:..\..\..\..\..\..\uCOS-III\Source/os_tmr.c ****         p_tmr->Match = p_tmr->Period + OSTmrTickCtr;
 1511              		.loc 1 918 0
 1512 001a 7B68     		ldr	r3, [r7, #4]
 1513 001c 5A6A     		ldr	r2, [r3, #36]
ARM GAS  C:\Users\alex\AppData\Local\Temp\ccByxCIb.s 			page 44


 1514 001e 4F4B     		ldr	r3, .L135
 1515 0020 1B68     		ldr	r3, [r3]
 1516 0022 1A44     		add	r2, r2, r3
 1517 0024 7B68     		ldr	r3, [r7, #4]
 1518 0026 9A61     		str	r2, [r3, #24]
 1519 0028 12E0     		b	.L122
 1520              	.L121:
 919:..\..\..\..\..\..\uCOS-III\Source/os_tmr.c ****     } else {
 920:..\..\..\..\..\..\uCOS-III\Source/os_tmr.c ****         if (p_tmr->Dly == (OS_TICK)0) {
 1521              		.loc 1 920 0
 1522 002a 7B68     		ldr	r3, [r7, #4]
 1523 002c 1B6A     		ldr	r3, [r3, #32]
 1524 002e 002B     		cmp	r3, #0
 1525 0030 07D1     		bne	.L123
 921:..\..\..\..\..\..\uCOS-III\Source/os_tmr.c ****             p_tmr->Match = p_tmr->Period + OSTmrTickCtr;
 1526              		.loc 1 921 0
 1527 0032 7B68     		ldr	r3, [r7, #4]
 1528 0034 5A6A     		ldr	r2, [r3, #36]
 1529 0036 494B     		ldr	r3, .L135
 1530 0038 1B68     		ldr	r3, [r3]
 1531 003a 1A44     		add	r2, r2, r3
 1532 003c 7B68     		ldr	r3, [r7, #4]
 1533 003e 9A61     		str	r2, [r3, #24]
 1534 0040 06E0     		b	.L122
 1535              	.L123:
 922:..\..\..\..\..\..\uCOS-III\Source/os_tmr.c ****         } else {
 923:..\..\..\..\..\..\uCOS-III\Source/os_tmr.c ****             p_tmr->Match = p_tmr->Dly    + OSTmrTickCtr;
 1536              		.loc 1 923 0
 1537 0042 7B68     		ldr	r3, [r7, #4]
 1538 0044 1A6A     		ldr	r2, [r3, #32]
 1539 0046 454B     		ldr	r3, .L135
 1540 0048 1B68     		ldr	r3, [r3]
 1541 004a 1A44     		add	r2, r2, r3
 1542 004c 7B68     		ldr	r3, [r7, #4]
 1543 004e 9A61     		str	r2, [r3, #24]
 1544              	.L122:
 924:..\..\..\..\..\..\uCOS-III\Source/os_tmr.c ****         }
 925:..\..\..\..\..\..\uCOS-III\Source/os_tmr.c ****     }
 926:..\..\..\..\..\..\uCOS-III\Source/os_tmr.c ****     spoke  = (OS_TMR_SPOKE_IX)(p_tmr->Match % OSCfg_TmrWheelSize);
 1545              		.loc 1 926 0
 1546 0050 7B68     		ldr	r3, [r7, #4]
 1547 0052 9B69     		ldr	r3, [r3, #24]
 1548 0054 424A     		ldr	r2, .L135+4
 1549 0056 1288     		ldrh	r2, [r2]
 1550 0058 B3FBF2F1 		udiv	r1, r3, r2
 1551 005c 02FB01F2 		mul	r2, r2, r1
 1552 0060 9B1A     		subs	r3, r3, r2
 1553 0062 7B82     		strh	r3, [r7, #18]	@ movhi
 927:..\..\..\..\..\..\uCOS-III\Source/os_tmr.c ****     p_spoke = &OSCfg_TmrWheel[spoke];
 1554              		.loc 1 927 0
 1555 0064 7B8A     		ldrh	r3, [r7, #18]
 1556 0066 DB00     		lsls	r3, r3, #3
 1557 0068 3E4A     		ldr	r2, .L135+8
 1558 006a 1344     		add	r3, r3, r2
 1559 006c FB60     		str	r3, [r7, #12]
 928:..\..\..\..\..\..\uCOS-III\Source/os_tmr.c **** 
 929:..\..\..\..\..\..\uCOS-III\Source/os_tmr.c ****     if (p_spoke->FirstPtr ==  (OS_TMR *)0) {                /* Link into timer wheel               
ARM GAS  C:\Users\alex\AppData\Local\Temp\ccByxCIb.s 			page 45


 1560              		.loc 1 929 0
 1561 006e FB68     		ldr	r3, [r7, #12]
 1562 0070 1B68     		ldr	r3, [r3]
 1563 0072 002B     		cmp	r3, #0
 1564 0074 0CD1     		bne	.L124
 930:..\..\..\..\..\..\uCOS-III\Source/os_tmr.c ****         p_tmr->NextPtr      = (OS_TMR *)0;
 1565              		.loc 1 930 0
 1566 0076 7B68     		ldr	r3, [r7, #4]
 1567 0078 0022     		movs	r2, #0
 1568 007a 1A61     		str	r2, [r3, #16]
 931:..\..\..\..\..\..\uCOS-III\Source/os_tmr.c ****         p_tmr->PrevPtr      = (OS_TMR *)0;
 1569              		.loc 1 931 0
 1570 007c 7B68     		ldr	r3, [r7, #4]
 1571 007e 0022     		movs	r2, #0
 1572 0080 5A61     		str	r2, [r3, #20]
 932:..\..\..\..\..\..\uCOS-III\Source/os_tmr.c ****         p_spoke->FirstPtr   = p_tmr;
 1573              		.loc 1 932 0
 1574 0082 FB68     		ldr	r3, [r7, #12]
 1575 0084 7A68     		ldr	r2, [r7, #4]
 1576 0086 1A60     		str	r2, [r3]
 933:..\..\..\..\..\..\uCOS-III\Source/os_tmr.c ****         p_spoke->NbrEntries = 1u;
 1577              		.loc 1 933 0
 1578 0088 FB68     		ldr	r3, [r7, #12]
 1579 008a 0122     		movs	r2, #1
 1580 008c 9A80     		strh	r2, [r3, #4]	@ movhi
 1581 008e 56E0     		b	.L125
 1582              	.L124:
 934:..\..\..\..\..\..\uCOS-III\Source/os_tmr.c ****     } else {
 935:..\..\..\..\..\..\uCOS-III\Source/os_tmr.c ****         p_tmr->Remain  = p_tmr->Match                       /* Compute remaining time for timer    
 1583              		.loc 1 935 0
 1584 0090 7B68     		ldr	r3, [r7, #4]
 1585 0092 9A69     		ldr	r2, [r3, #24]
 936:..\..\..\..\..\..\uCOS-III\Source/os_tmr.c ****                        - OSTmrTickCtr;
 1586              		.loc 1 936 0
 1587 0094 314B     		ldr	r3, .L135
 1588 0096 1B68     		ldr	r3, [r3]
 1589 0098 D21A     		subs	r2, r2, r3
 935:..\..\..\..\..\..\uCOS-III\Source/os_tmr.c ****                        - OSTmrTickCtr;
 1590              		.loc 1 935 0
 1591 009a 7B68     		ldr	r3, [r7, #4]
 1592 009c DA61     		str	r2, [r3, #28]
 937:..\..\..\..\..\..\uCOS-III\Source/os_tmr.c ****         p_tmr1         = p_spoke->FirstPtr;                 /* Point to current first timer in the 
 1593              		.loc 1 937 0
 1594 009e FB68     		ldr	r3, [r7, #12]
 1595 00a0 1B68     		ldr	r3, [r3]
 1596 00a2 7B61     		str	r3, [r7, #20]
 938:..\..\..\..\..\..\uCOS-III\Source/os_tmr.c ****         while (p_tmr1 != (OS_TMR *)0) {
 1597              		.loc 1 938 0
 1598 00a4 42E0     		b	.L126
 1599              	.L132:
 939:..\..\..\..\..\..\uCOS-III\Source/os_tmr.c ****             p_tmr1->Remain = p_tmr1->Match                  /* Compute time remaining of current ti
 1600              		.loc 1 939 0
 1601 00a6 7B69     		ldr	r3, [r7, #20]
 1602 00a8 9A69     		ldr	r2, [r3, #24]
 940:..\..\..\..\..\..\uCOS-III\Source/os_tmr.c ****                            - OSTmrTickCtr;
 1603              		.loc 1 940 0
 1604 00aa 2C4B     		ldr	r3, .L135
ARM GAS  C:\Users\alex\AppData\Local\Temp\ccByxCIb.s 			page 46


 1605 00ac 1B68     		ldr	r3, [r3]
 1606 00ae D21A     		subs	r2, r2, r3
 939:..\..\..\..\..\..\uCOS-III\Source/os_tmr.c ****             p_tmr1->Remain = p_tmr1->Match                  /* Compute time remaining of current ti
 1607              		.loc 1 939 0
 1608 00b0 7B69     		ldr	r3, [r7, #20]
 1609 00b2 DA61     		str	r2, [r3, #28]
 941:..\..\..\..\..\..\uCOS-III\Source/os_tmr.c ****             if (p_tmr->Remain > p_tmr1->Remain) {           /* Do we need to insert AFTER current t
 1610              		.loc 1 941 0
 1611 00b4 7B68     		ldr	r3, [r7, #4]
 1612 00b6 DA69     		ldr	r2, [r3, #28]
 1613 00b8 7B69     		ldr	r3, [r7, #20]
 1614 00ba DB69     		ldr	r3, [r3, #28]
 1615 00bc 9A42     		cmp	r2, r3
 1616 00be 13D9     		bls	.L127
 942:..\..\..\..\..\..\uCOS-III\Source/os_tmr.c ****                 if (p_tmr1->NextPtr  != (OS_TMR *)0) {      /* Yes, are we pointing at the last tim
 1617              		.loc 1 942 0
 1618 00c0 7B69     		ldr	r3, [r7, #20]
 1619 00c2 1B69     		ldr	r3, [r3, #16]
 1620 00c4 002B     		cmp	r3, #0
 1621 00c6 03D0     		beq	.L128
 943:..\..\..\..\..\..\uCOS-III\Source/os_tmr.c ****                     p_tmr1            = p_tmr1->NextPtr;    /* No,  Point to next timer in the list
 1622              		.loc 1 943 0
 1623 00c8 7B69     		ldr	r3, [r7, #20]
 1624 00ca 1B69     		ldr	r3, [r3, #16]
 1625 00cc 7B61     		str	r3, [r7, #20]
 1626 00ce 2DE0     		b	.L126
 1627              	.L128:
 944:..\..\..\..\..\..\uCOS-III\Source/os_tmr.c ****                 } else {
 945:..\..\..\..\..\..\uCOS-III\Source/os_tmr.c ****                     p_tmr->NextPtr    = (OS_TMR *)0;
 1628              		.loc 1 945 0
 1629 00d0 7B68     		ldr	r3, [r7, #4]
 1630 00d2 0022     		movs	r2, #0
 1631 00d4 1A61     		str	r2, [r3, #16]
 946:..\..\..\..\..\..\uCOS-III\Source/os_tmr.c ****                     p_tmr->PrevPtr    =  p_tmr1;
 1632              		.loc 1 946 0
 1633 00d6 7B68     		ldr	r3, [r7, #4]
 1634 00d8 7A69     		ldr	r2, [r7, #20]
 1635 00da 5A61     		str	r2, [r3, #20]
 947:..\..\..\..\..\..\uCOS-III\Source/os_tmr.c ****                     p_tmr1->NextPtr   =  p_tmr;             /* Yes, timer to insert is now new last
 1636              		.loc 1 947 0
 1637 00dc 7B69     		ldr	r3, [r7, #20]
 1638 00de 7A68     		ldr	r2, [r7, #4]
 1639 00e0 1A61     		str	r2, [r3, #16]
 948:..\..\..\..\..\..\uCOS-III\Source/os_tmr.c ****                     p_tmr1            = (OS_TMR *)0;        /* Break loop                          
 1640              		.loc 1 948 0
 1641 00e2 0023     		movs	r3, #0
 1642 00e4 7B61     		str	r3, [r7, #20]
 1643 00e6 21E0     		b	.L126
 1644              	.L127:
 949:..\..\..\..\..\..\uCOS-III\Source/os_tmr.c ****                 }
 950:..\..\..\..\..\..\uCOS-III\Source/os_tmr.c ****             } else {                                        /* Insert before the current timer     
 951:..\..\..\..\..\..\uCOS-III\Source/os_tmr.c ****                 if (p_tmr1->PrevPtr == (OS_TMR *)0) {       /* Are we inserting before the first ti
 1645              		.loc 1 951 0
 1646 00e8 7B69     		ldr	r3, [r7, #20]
 1647 00ea 5B69     		ldr	r3, [r3, #20]
 1648 00ec 002B     		cmp	r3, #0
 1649 00ee 0CD1     		bne	.L130
ARM GAS  C:\Users\alex\AppData\Local\Temp\ccByxCIb.s 			page 47


 952:..\..\..\..\..\..\uCOS-III\Source/os_tmr.c ****                     p_tmr->PrevPtr    = (OS_TMR *)0;
 1650              		.loc 1 952 0
 1651 00f0 7B68     		ldr	r3, [r7, #4]
 1652 00f2 0022     		movs	r2, #0
 1653 00f4 5A61     		str	r2, [r3, #20]
 953:..\..\..\..\..\..\uCOS-III\Source/os_tmr.c ****                     p_tmr->NextPtr    = p_tmr1;
 1654              		.loc 1 953 0
 1655 00f6 7B68     		ldr	r3, [r7, #4]
 1656 00f8 7A69     		ldr	r2, [r7, #20]
 1657 00fa 1A61     		str	r2, [r3, #16]
 954:..\..\..\..\..\..\uCOS-III\Source/os_tmr.c ****                     p_tmr1->PrevPtr   = p_tmr;
 1658              		.loc 1 954 0
 1659 00fc 7B69     		ldr	r3, [r7, #20]
 1660 00fe 7A68     		ldr	r2, [r7, #4]
 1661 0100 5A61     		str	r2, [r3, #20]
 955:..\..\..\..\..\..\uCOS-III\Source/os_tmr.c ****                     p_spoke->FirstPtr = p_tmr;
 1662              		.loc 1 955 0
 1663 0102 FB68     		ldr	r3, [r7, #12]
 1664 0104 7A68     		ldr	r2, [r7, #4]
 1665 0106 1A60     		str	r2, [r3]
 1666 0108 0EE0     		b	.L131
 1667              	.L130:
 956:..\..\..\..\..\..\uCOS-III\Source/os_tmr.c ****                 } else {                                    /* Insert in between 2 timers already i
 957:..\..\..\..\..\..\uCOS-III\Source/os_tmr.c ****                     p_tmr0            = p_tmr1->PrevPtr;
 1668              		.loc 1 957 0
 1669 010a 7B69     		ldr	r3, [r7, #20]
 1670 010c 5B69     		ldr	r3, [r3, #20]
 1671 010e BB60     		str	r3, [r7, #8]
 958:..\..\..\..\..\..\uCOS-III\Source/os_tmr.c ****                     p_tmr->PrevPtr    = p_tmr0;
 1672              		.loc 1 958 0
 1673 0110 7B68     		ldr	r3, [r7, #4]
 1674 0112 BA68     		ldr	r2, [r7, #8]
 1675 0114 5A61     		str	r2, [r3, #20]
 959:..\..\..\..\..\..\uCOS-III\Source/os_tmr.c ****                     p_tmr->NextPtr    = p_tmr1;
 1676              		.loc 1 959 0
 1677 0116 7B68     		ldr	r3, [r7, #4]
 1678 0118 7A69     		ldr	r2, [r7, #20]
 1679 011a 1A61     		str	r2, [r3, #16]
 960:..\..\..\..\..\..\uCOS-III\Source/os_tmr.c ****                     p_tmr0->NextPtr   = p_tmr;
 1680              		.loc 1 960 0
 1681 011c BB68     		ldr	r3, [r7, #8]
 1682 011e 7A68     		ldr	r2, [r7, #4]
 1683 0120 1A61     		str	r2, [r3, #16]
 961:..\..\..\..\..\..\uCOS-III\Source/os_tmr.c ****                     p_tmr1->PrevPtr   = p_tmr;
 1684              		.loc 1 961 0
 1685 0122 7B69     		ldr	r3, [r7, #20]
 1686 0124 7A68     		ldr	r2, [r7, #4]
 1687 0126 5A61     		str	r2, [r3, #20]
 1688              	.L131:
 962:..\..\..\..\..\..\uCOS-III\Source/os_tmr.c ****                 }
 963:..\..\..\..\..\..\uCOS-III\Source/os_tmr.c ****                 p_tmr1 = (OS_TMR *)0;                       /* Break loop                          
 1689              		.loc 1 963 0
 1690 0128 0023     		movs	r3, #0
 1691 012a 7B61     		str	r3, [r7, #20]
 1692              	.L126:
 938:..\..\..\..\..\..\uCOS-III\Source/os_tmr.c ****             p_tmr1->Remain = p_tmr1->Match                  /* Compute time remaining of current ti
 1693              		.loc 1 938 0
ARM GAS  C:\Users\alex\AppData\Local\Temp\ccByxCIb.s 			page 48


 1694 012c 7B69     		ldr	r3, [r7, #20]
 1695 012e 002B     		cmp	r3, #0
 1696 0130 B9D1     		bne	.L132
 964:..\..\..\..\..\..\uCOS-III\Source/os_tmr.c ****             }
 965:..\..\..\..\..\..\uCOS-III\Source/os_tmr.c ****         }
 966:..\..\..\..\..\..\uCOS-III\Source/os_tmr.c ****         p_spoke->NbrEntries++;
 1697              		.loc 1 966 0
 1698 0132 FB68     		ldr	r3, [r7, #12]
 1699 0134 9B88     		ldrh	r3, [r3, #4]
 1700 0136 0133     		adds	r3, r3, #1
 1701 0138 9AB2     		uxth	r2, r3
 1702 013a FB68     		ldr	r3, [r7, #12]
 1703 013c 9A80     		strh	r2, [r3, #4]	@ movhi
 1704              	.L125:
 967:..\..\..\..\..\..\uCOS-III\Source/os_tmr.c ****     }
 968:..\..\..\..\..\..\uCOS-III\Source/os_tmr.c ****     if (p_spoke->NbrEntriesMax < p_spoke->NbrEntries) {     /* Keep track of maximum number of entr
 1705              		.loc 1 968 0
 1706 013e FB68     		ldr	r3, [r7, #12]
 1707 0140 DA88     		ldrh	r2, [r3, #6]
 1708 0142 FB68     		ldr	r3, [r7, #12]
 1709 0144 9B88     		ldrh	r3, [r3, #4]
 1710 0146 9A42     		cmp	r2, r3
 1711 0148 03D2     		bcs	.L134
 969:..\..\..\..\..\..\uCOS-III\Source/os_tmr.c ****         p_spoke->NbrEntriesMax = p_spoke->NbrEntries;
 1712              		.loc 1 969 0
 1713 014a FB68     		ldr	r3, [r7, #12]
 1714 014c 9A88     		ldrh	r2, [r3, #4]
 1715 014e FB68     		ldr	r3, [r7, #12]
 1716 0150 DA80     		strh	r2, [r3, #6]	@ movhi
 1717              	.L134:
 970:..\..\..\..\..\..\uCOS-III\Source/os_tmr.c ****     }
 971:..\..\..\..\..\..\uCOS-III\Source/os_tmr.c **** }
 1718              		.loc 1 971 0
 1719 0152 00BF     		nop
 1720 0154 1C37     		adds	r7, r7, #28
 1721              		.cfi_def_cfa_offset 4
 1722 0156 BD46     		mov	sp, r7
 1723              		.cfi_def_cfa_register 13
 1724              		@ sp needed
 1725 0158 80BC     		pop	{r7}
 1726              		.cfi_restore 7
 1727              		.cfi_def_cfa_offset 0
 1728 015a 7047     		bx	lr
 1729              	.L136:
 1730              		.align	2
 1731              	.L135:
 1732 015c 00000000 		.word	OSTmrTickCtr
 1733 0160 00000000 		.word	OSCfg_TmrWheelSize
 1734 0164 00000000 		.word	OSCfg_TmrWheel
 1735              		.cfi_endproc
 1736              	.LFE10:
 1737              		.size	OS_TmrLink, .-OS_TmrLink
 1738              		.section	.text.OS_TmrResetPeak,"ax",%progbits
 1739              		.align	2
 1740              		.global	OS_TmrResetPeak
 1741              		.thumb
 1742              		.thumb_func
ARM GAS  C:\Users\alex\AppData\Local\Temp\ccByxCIb.s 			page 49


 1743              		.type	OS_TmrResetPeak, %function
 1744              	OS_TmrResetPeak:
 1745              	.LFB11:
 972:..\..\..\..\..\..\uCOS-III\Source/os_tmr.c **** 
 973:..\..\..\..\..\..\uCOS-III\Source/os_tmr.c **** /*$PAGE*/
 974:..\..\..\..\..\..\uCOS-III\Source/os_tmr.c **** /*
 975:..\..\..\..\..\..\uCOS-III\Source/os_tmr.c **** ***************************************************************************************************
 976:..\..\..\..\..\..\uCOS-III\Source/os_tmr.c **** *                                              RESET TIMER LIST PEAK DETECTOR
 977:..\..\..\..\..\..\uCOS-III\Source/os_tmr.c **** *
 978:..\..\..\..\..\..\uCOS-III\Source/os_tmr.c **** * Description: This function is used to reset the peak detector for the number of entries in each s
 979:..\..\..\..\..\..\uCOS-III\Source/os_tmr.c **** *
 980:..\..\..\..\..\..\uCOS-III\Source/os_tmr.c **** * Arguments  : void
 981:..\..\..\..\..\..\uCOS-III\Source/os_tmr.c **** *
 982:..\..\..\..\..\..\uCOS-III\Source/os_tmr.c **** * Returns    : none
 983:..\..\..\..\..\..\uCOS-III\Source/os_tmr.c **** *
 984:..\..\..\..\..\..\uCOS-III\Source/os_tmr.c **** * Note(s)    : This function is INTERNAL to uC/OS-III and your application should not call it.
 985:..\..\..\..\..\..\uCOS-III\Source/os_tmr.c **** ***************************************************************************************************
 986:..\..\..\..\..\..\uCOS-III\Source/os_tmr.c **** */
 987:..\..\..\..\..\..\uCOS-III\Source/os_tmr.c **** 
 988:..\..\..\..\..\..\uCOS-III\Source/os_tmr.c **** void  OS_TmrResetPeak (void)
 989:..\..\..\..\..\..\uCOS-III\Source/os_tmr.c **** {
 1746              		.loc 1 989 0
 1747              		.cfi_startproc
 1748              		@ args = 0, pretend = 0, frame = 8
 1749              		@ frame_needed = 1, uses_anonymous_args = 0
 1750              		@ link register save eliminated.
 1751 0000 80B4     		push	{r7}
 1752              		.cfi_def_cfa_offset 4
 1753              		.cfi_offset 7, -4
 1754 0002 83B0     		sub	sp, sp, #12
 1755              		.cfi_def_cfa_offset 16
 1756 0004 00AF     		add	r7, sp, #0
 1757              		.cfi_def_cfa_register 7
 990:..\..\..\..\..\..\uCOS-III\Source/os_tmr.c ****     OS_TMR_SPOKE     *p_spoke;
 991:..\..\..\..\..\..\uCOS-III\Source/os_tmr.c ****     OS_TMR_SPOKE_IX   i;
 992:..\..\..\..\..\..\uCOS-III\Source/os_tmr.c **** 
 993:..\..\..\..\..\..\uCOS-III\Source/os_tmr.c **** 
 994:..\..\..\..\..\..\uCOS-III\Source/os_tmr.c **** 
 995:..\..\..\..\..\..\uCOS-III\Source/os_tmr.c ****     for (i = 0u; i < OSCfg_TmrWheelSize; i++) {
 1758              		.loc 1 995 0
 1759 0006 0023     		movs	r3, #0
 1760 0008 FB80     		strh	r3, [r7, #6]	@ movhi
 1761 000a 0AE0     		b	.L138
 1762              	.L139:
 996:..\..\..\..\..\..\uCOS-III\Source/os_tmr.c ****         p_spoke                = (OS_TMR_SPOKE *)&OSCfg_TmrWheel[i];
 1763              		.loc 1 996 0 discriminator 3
 1764 000c FB88     		ldrh	r3, [r7, #6]
 1765 000e DB00     		lsls	r3, r3, #3
 1766 0010 094A     		ldr	r2, .L140
 1767 0012 1344     		add	r3, r3, r2
 1768 0014 3B60     		str	r3, [r7]
 997:..\..\..\..\..\..\uCOS-III\Source/os_tmr.c ****         p_spoke->NbrEntriesMax = (OS_OBJ_QTY    )0u;
 1769              		.loc 1 997 0 discriminator 3
 1770 0016 3B68     		ldr	r3, [r7]
 1771 0018 0022     		movs	r2, #0
 1772 001a DA80     		strh	r2, [r3, #6]	@ movhi
 995:..\..\..\..\..\..\uCOS-III\Source/os_tmr.c ****         p_spoke                = (OS_TMR_SPOKE *)&OSCfg_TmrWheel[i];
ARM GAS  C:\Users\alex\AppData\Local\Temp\ccByxCIb.s 			page 50


 1773              		.loc 1 995 0 discriminator 3
 1774 001c FB88     		ldrh	r3, [r7, #6]
 1775 001e 0133     		adds	r3, r3, #1
 1776 0020 FB80     		strh	r3, [r7, #6]	@ movhi
 1777              	.L138:
 995:..\..\..\..\..\..\uCOS-III\Source/os_tmr.c ****         p_spoke                = (OS_TMR_SPOKE *)&OSCfg_TmrWheel[i];
 1778              		.loc 1 995 0 is_stmt 0 discriminator 1
 1779 0022 064B     		ldr	r3, .L140+4
 1780 0024 1B88     		ldrh	r3, [r3]
 1781 0026 FA88     		ldrh	r2, [r7, #6]
 1782 0028 9A42     		cmp	r2, r3
 1783 002a EFD3     		bcc	.L139
 998:..\..\..\..\..\..\uCOS-III\Source/os_tmr.c ****     }
 999:..\..\..\..\..\..\uCOS-III\Source/os_tmr.c **** }
 1784              		.loc 1 999 0 is_stmt 1
 1785 002c 00BF     		nop
 1786 002e 0C37     		adds	r7, r7, #12
 1787              		.cfi_def_cfa_offset 4
 1788 0030 BD46     		mov	sp, r7
 1789              		.cfi_def_cfa_register 13
 1790              		@ sp needed
 1791 0032 80BC     		pop	{r7}
 1792              		.cfi_restore 7
 1793              		.cfi_def_cfa_offset 0
 1794 0034 7047     		bx	lr
 1795              	.L141:
 1796 0036 00BF     		.align	2
 1797              	.L140:
 1798 0038 00000000 		.word	OSCfg_TmrWheel
 1799 003c 00000000 		.word	OSCfg_TmrWheelSize
 1800              		.cfi_endproc
 1801              	.LFE11:
 1802              		.size	OS_TmrResetPeak, .-OS_TmrResetPeak
 1803              		.section	.text.OS_TmrUnlink,"ax",%progbits
 1804              		.align	2
 1805              		.global	OS_TmrUnlink
 1806              		.thumb
 1807              		.thumb_func
 1808              		.type	OS_TmrUnlink, %function
 1809              	OS_TmrUnlink:
 1810              	.LFB12:
1000:..\..\..\..\..\..\uCOS-III\Source/os_tmr.c **** 
1001:..\..\..\..\..\..\uCOS-III\Source/os_tmr.c **** /*$PAGE*/
1002:..\..\..\..\..\..\uCOS-III\Source/os_tmr.c **** /*
1003:..\..\..\..\..\..\uCOS-III\Source/os_tmr.c **** ***************************************************************************************************
1004:..\..\..\..\..\..\uCOS-III\Source/os_tmr.c **** *                                         REMOVE A TIMER FROM THE TIMER WHEEL
1005:..\..\..\..\..\..\uCOS-III\Source/os_tmr.c **** *
1006:..\..\..\..\..\..\uCOS-III\Source/os_tmr.c **** * Description: This function is called to remove the timer from the timer wheel.
1007:..\..\..\..\..\..\uCOS-III\Source/os_tmr.c **** *
1008:..\..\..\..\..\..\uCOS-III\Source/os_tmr.c **** * Arguments  : p_tmr          Is a pointer to the timer to remove.
1009:..\..\..\..\..\..\uCOS-III\Source/os_tmr.c **** *              -----
1010:..\..\..\..\..\..\uCOS-III\Source/os_tmr.c **** *
1011:..\..\..\..\..\..\uCOS-III\Source/os_tmr.c **** * Returns    : none
1012:..\..\..\..\..\..\uCOS-III\Source/os_tmr.c **** *
1013:..\..\..\..\..\..\uCOS-III\Source/os_tmr.c **** * Note(s)    : 1) This function is INTERNAL to uC/OS-III and your application MUST NOT call it.
1014:..\..\..\..\..\..\uCOS-III\Source/os_tmr.c **** ***************************************************************************************************
1015:..\..\..\..\..\..\uCOS-III\Source/os_tmr.c **** */
ARM GAS  C:\Users\alex\AppData\Local\Temp\ccByxCIb.s 			page 51


1016:..\..\..\..\..\..\uCOS-III\Source/os_tmr.c **** 
1017:..\..\..\..\..\..\uCOS-III\Source/os_tmr.c **** void  OS_TmrUnlink (OS_TMR  *p_tmr)
1018:..\..\..\..\..\..\uCOS-III\Source/os_tmr.c **** {
 1811              		.loc 1 1018 0
 1812              		.cfi_startproc
 1813              		@ args = 0, pretend = 0, frame = 24
 1814              		@ frame_needed = 1, uses_anonymous_args = 0
 1815              		@ link register save eliminated.
 1816 0000 80B4     		push	{r7}
 1817              		.cfi_def_cfa_offset 4
 1818              		.cfi_offset 7, -4
 1819 0002 87B0     		sub	sp, sp, #28
 1820              		.cfi_def_cfa_offset 32
 1821 0004 00AF     		add	r7, sp, #0
 1822              		.cfi_def_cfa_register 7
 1823 0006 7860     		str	r0, [r7, #4]
1019:..\..\..\..\..\..\uCOS-III\Source/os_tmr.c ****     OS_TMR_SPOKE    *p_spoke;
1020:..\..\..\..\..\..\uCOS-III\Source/os_tmr.c ****     OS_TMR          *p_tmr1;
1021:..\..\..\..\..\..\uCOS-III\Source/os_tmr.c ****     OS_TMR          *p_tmr2;
1022:..\..\..\..\..\..\uCOS-III\Source/os_tmr.c ****     OS_TMR_SPOKE_IX  spoke;
1023:..\..\..\..\..\..\uCOS-III\Source/os_tmr.c **** 
1024:..\..\..\..\..\..\uCOS-III\Source/os_tmr.c **** 
1025:..\..\..\..\..\..\uCOS-III\Source/os_tmr.c **** 
1026:..\..\..\..\..\..\uCOS-III\Source/os_tmr.c ****     spoke   = (OS_TMR_SPOKE_IX)(p_tmr->Match % OSCfg_TmrWheelSize);
 1824              		.loc 1 1026 0
 1825 0008 7B68     		ldr	r3, [r7, #4]
 1826 000a 9B69     		ldr	r3, [r3, #24]
 1827 000c 214A     		ldr	r2, .L146
 1828 000e 1288     		ldrh	r2, [r2]
 1829 0010 B3FBF2F1 		udiv	r1, r3, r2
 1830 0014 02FB01F2 		mul	r2, r2, r1
 1831 0018 9B1A     		subs	r3, r3, r2
 1832 001a FB82     		strh	r3, [r7, #22]	@ movhi
1027:..\..\..\..\..\..\uCOS-III\Source/os_tmr.c ****     p_spoke = &OSCfg_TmrWheel[spoke];
 1833              		.loc 1 1027 0
 1834 001c FB8A     		ldrh	r3, [r7, #22]
 1835 001e DB00     		lsls	r3, r3, #3
 1836 0020 1D4A     		ldr	r2, .L146+4
 1837 0022 1344     		add	r3, r3, r2
 1838 0024 3B61     		str	r3, [r7, #16]
1028:..\..\..\..\..\..\uCOS-III\Source/os_tmr.c **** 
1029:..\..\..\..\..\..\uCOS-III\Source/os_tmr.c ****     if (p_spoke->FirstPtr == p_tmr) {                       /* See if timer to remove is at the beg
 1839              		.loc 1 1029 0
 1840 0026 3B69     		ldr	r3, [r7, #16]
 1841 0028 1A68     		ldr	r2, [r3]
 1842 002a 7B68     		ldr	r3, [r7, #4]
 1843 002c 9A42     		cmp	r2, r3
 1844 002e 0CD1     		bne	.L143
1030:..\..\..\..\..\..\uCOS-III\Source/os_tmr.c ****         p_tmr1            = (OS_TMR *)p_tmr->NextPtr;
 1845              		.loc 1 1030 0
 1846 0030 7B68     		ldr	r3, [r7, #4]
 1847 0032 1B69     		ldr	r3, [r3, #16]
 1848 0034 FB60     		str	r3, [r7, #12]
1031:..\..\..\..\..\..\uCOS-III\Source/os_tmr.c ****         p_spoke->FirstPtr = (OS_TMR *)p_tmr1;
 1849              		.loc 1 1031 0
 1850 0036 3B69     		ldr	r3, [r7, #16]
 1851 0038 FA68     		ldr	r2, [r7, #12]
ARM GAS  C:\Users\alex\AppData\Local\Temp\ccByxCIb.s 			page 52


 1852 003a 1A60     		str	r2, [r3]
1032:..\..\..\..\..\..\uCOS-III\Source/os_tmr.c ****         if (p_tmr1 != (OS_TMR *)0) {
 1853              		.loc 1 1032 0
 1854 003c FB68     		ldr	r3, [r7, #12]
 1855 003e 002B     		cmp	r3, #0
 1856 0040 12D0     		beq	.L145
1033:..\..\..\..\..\..\uCOS-III\Source/os_tmr.c ****             p_tmr1->PrevPtr = (OS_TMR *)0;
 1857              		.loc 1 1033 0
 1858 0042 FB68     		ldr	r3, [r7, #12]
 1859 0044 0022     		movs	r2, #0
 1860 0046 5A61     		str	r2, [r3, #20]
 1861 0048 0EE0     		b	.L145
 1862              	.L143:
1034:..\..\..\..\..\..\uCOS-III\Source/os_tmr.c ****         }
1035:..\..\..\..\..\..\uCOS-III\Source/os_tmr.c ****     } else {
1036:..\..\..\..\..\..\uCOS-III\Source/os_tmr.c ****         p_tmr1          = (OS_TMR *)p_tmr->PrevPtr;         /* Remove timer from somewhere in the l
 1863              		.loc 1 1036 0
 1864 004a 7B68     		ldr	r3, [r7, #4]
 1865 004c 5B69     		ldr	r3, [r3, #20]
 1866 004e FB60     		str	r3, [r7, #12]
1037:..\..\..\..\..\..\uCOS-III\Source/os_tmr.c ****         p_tmr2          = (OS_TMR *)p_tmr->NextPtr;
 1867              		.loc 1 1037 0
 1868 0050 7B68     		ldr	r3, [r7, #4]
 1869 0052 1B69     		ldr	r3, [r3, #16]
 1870 0054 BB60     		str	r3, [r7, #8]
1038:..\..\..\..\..\..\uCOS-III\Source/os_tmr.c ****         p_tmr1->NextPtr = p_tmr2;
 1871              		.loc 1 1038 0
 1872 0056 FB68     		ldr	r3, [r7, #12]
 1873 0058 BA68     		ldr	r2, [r7, #8]
 1874 005a 1A61     		str	r2, [r3, #16]
1039:..\..\..\..\..\..\uCOS-III\Source/os_tmr.c ****         if (p_tmr2 != (OS_TMR *)0) {
 1875              		.loc 1 1039 0
 1876 005c BB68     		ldr	r3, [r7, #8]
 1877 005e 002B     		cmp	r3, #0
 1878 0060 02D0     		beq	.L145
1040:..\..\..\..\..\..\uCOS-III\Source/os_tmr.c ****             p_tmr2->PrevPtr = (OS_TMR *)p_tmr1;
 1879              		.loc 1 1040 0
 1880 0062 BB68     		ldr	r3, [r7, #8]
 1881 0064 FA68     		ldr	r2, [r7, #12]
 1882 0066 5A61     		str	r2, [r3, #20]
 1883              	.L145:
1041:..\..\..\..\..\..\uCOS-III\Source/os_tmr.c ****         }
1042:..\..\..\..\..\..\uCOS-III\Source/os_tmr.c ****     }
1043:..\..\..\..\..\..\uCOS-III\Source/os_tmr.c ****     p_tmr->State   = OS_TMR_STATE_STOPPED;
 1884              		.loc 1 1043 0
 1885 0068 7B68     		ldr	r3, [r7, #4]
 1886 006a 0122     		movs	r2, #1
 1887 006c 83F82A20 		strb	r2, [r3, #42]
1044:..\..\..\..\..\..\uCOS-III\Source/os_tmr.c ****     p_tmr->NextPtr = (OS_TMR *)0;
 1888              		.loc 1 1044 0
 1889 0070 7B68     		ldr	r3, [r7, #4]
 1890 0072 0022     		movs	r2, #0
 1891 0074 1A61     		str	r2, [r3, #16]
1045:..\..\..\..\..\..\uCOS-III\Source/os_tmr.c ****     p_tmr->PrevPtr = (OS_TMR *)0;
 1892              		.loc 1 1045 0
 1893 0076 7B68     		ldr	r3, [r7, #4]
 1894 0078 0022     		movs	r2, #0
ARM GAS  C:\Users\alex\AppData\Local\Temp\ccByxCIb.s 			page 53


 1895 007a 5A61     		str	r2, [r3, #20]
1046:..\..\..\..\..\..\uCOS-III\Source/os_tmr.c ****     p_spoke->NbrEntries--;
 1896              		.loc 1 1046 0
 1897 007c 3B69     		ldr	r3, [r7, #16]
 1898 007e 9B88     		ldrh	r3, [r3, #4]
 1899 0080 013B     		subs	r3, r3, #1
 1900 0082 9AB2     		uxth	r2, r3
 1901 0084 3B69     		ldr	r3, [r7, #16]
 1902 0086 9A80     		strh	r2, [r3, #4]	@ movhi
1047:..\..\..\..\..\..\uCOS-III\Source/os_tmr.c **** }
 1903              		.loc 1 1047 0
 1904 0088 00BF     		nop
 1905 008a 1C37     		adds	r7, r7, #28
 1906              		.cfi_def_cfa_offset 4
 1907 008c BD46     		mov	sp, r7
 1908              		.cfi_def_cfa_register 13
 1909              		@ sp needed
 1910 008e 80BC     		pop	{r7}
 1911              		.cfi_restore 7
 1912              		.cfi_def_cfa_offset 0
 1913 0090 7047     		bx	lr
 1914              	.L147:
 1915 0092 00BF     		.align	2
 1916              	.L146:
 1917 0094 00000000 		.word	OSCfg_TmrWheelSize
 1918 0098 00000000 		.word	OSCfg_TmrWheel
 1919              		.cfi_endproc
 1920              	.LFE12:
 1921              		.size	OS_TmrUnlink, .-OS_TmrUnlink
 1922              		.section	.text.OS_TmrTask,"ax",%progbits
 1923              		.align	2
 1924              		.global	OS_TmrTask
 1925              		.thumb
 1926              		.thumb_func
 1927              		.type	OS_TmrTask, %function
 1928              	OS_TmrTask:
 1929              	.LFB13:
1048:..\..\..\..\..\..\uCOS-III\Source/os_tmr.c **** 
1049:..\..\..\..\..\..\uCOS-III\Source/os_tmr.c **** /*$PAGE*/
1050:..\..\..\..\..\..\uCOS-III\Source/os_tmr.c **** /*
1051:..\..\..\..\..\..\uCOS-III\Source/os_tmr.c **** ***************************************************************************************************
1052:..\..\..\..\..\..\uCOS-III\Source/os_tmr.c **** *                                                 TIMER MANAGEMENT TASK
1053:..\..\..\..\..\..\uCOS-III\Source/os_tmr.c **** *
1054:..\..\..\..\..\..\uCOS-III\Source/os_tmr.c **** * Description: This task is created by OS_TmrInit().
1055:..\..\..\..\..\..\uCOS-III\Source/os_tmr.c **** *
1056:..\..\..\..\..\..\uCOS-III\Source/os_tmr.c **** * Arguments  : none
1057:..\..\..\..\..\..\uCOS-III\Source/os_tmr.c **** *
1058:..\..\..\..\..\..\uCOS-III\Source/os_tmr.c **** * Returns    : none
1059:..\..\..\..\..\..\uCOS-III\Source/os_tmr.c **** *
1060:..\..\..\..\..\..\uCOS-III\Source/os_tmr.c **** * Note(s)    : 1) This function is INTERNAL to uC/OS-III and your application MUST NOT call it.
1061:..\..\..\..\..\..\uCOS-III\Source/os_tmr.c **** ***************************************************************************************************
1062:..\..\..\..\..\..\uCOS-III\Source/os_tmr.c **** */
1063:..\..\..\..\..\..\uCOS-III\Source/os_tmr.c **** 
1064:..\..\..\..\..\..\uCOS-III\Source/os_tmr.c **** void  OS_TmrTask (void  *p_arg)
1065:..\..\..\..\..\..\uCOS-III\Source/os_tmr.c **** {
 1930              		.loc 1 1065 0
 1931              		.cfi_startproc
ARM GAS  C:\Users\alex\AppData\Local\Temp\ccByxCIb.s 			page 54


 1932              		@ args = 0, pretend = 0, frame = 48
 1933              		@ frame_needed = 1, uses_anonymous_args = 0
 1934 0000 80B5     		push	{r7, lr}
 1935              		.cfi_def_cfa_offset 8
 1936              		.cfi_offset 7, -8
 1937              		.cfi_offset 14, -4
 1938 0002 8CB0     		sub	sp, sp, #48
 1939              		.cfi_def_cfa_offset 56
 1940 0004 00AF     		add	r7, sp, #0
 1941              		.cfi_def_cfa_register 7
 1942 0006 7860     		str	r0, [r7, #4]
 1943              	.L158:
1066:..\..\..\..\..\..\uCOS-III\Source/os_tmr.c ****     CPU_BOOLEAN          done;
1067:..\..\..\..\..\..\uCOS-III\Source/os_tmr.c ****     OS_ERR               err;
1068:..\..\..\..\..\..\uCOS-III\Source/os_tmr.c ****     OS_TMR_CALLBACK_PTR  p_fnct;
1069:..\..\..\..\..\..\uCOS-III\Source/os_tmr.c ****     OS_TMR_SPOKE        *p_spoke;
1070:..\..\..\..\..\..\uCOS-III\Source/os_tmr.c ****     OS_TMR              *p_tmr;
1071:..\..\..\..\..\..\uCOS-III\Source/os_tmr.c ****     OS_TMR              *p_tmr_next;
1072:..\..\..\..\..\..\uCOS-III\Source/os_tmr.c ****     OS_TMR_SPOKE_IX      spoke;
1073:..\..\..\..\..\..\uCOS-III\Source/os_tmr.c ****     CPU_TS               ts;
1074:..\..\..\..\..\..\uCOS-III\Source/os_tmr.c ****     CPU_TS               ts_start;
1075:..\..\..\..\..\..\uCOS-III\Source/os_tmr.c ****     CPU_TS               ts_end;
1076:..\..\..\..\..\..\uCOS-III\Source/os_tmr.c **** 
1077:..\..\..\..\..\..\uCOS-III\Source/os_tmr.c **** 
1078:..\..\..\..\..\..\uCOS-III\Source/os_tmr.c **** 
1079:..\..\..\..\..\..\uCOS-III\Source/os_tmr.c ****     p_arg = p_arg;                                               /* Not using 'p_arg', prevent comp
1080:..\..\..\..\..\..\uCOS-III\Source/os_tmr.c ****     while (DEF_ON) {
1081:..\..\..\..\..\..\uCOS-III\Source/os_tmr.c ****         (void)OSTaskSemPend((OS_TICK )0,                         /* Wait for signal indicating time
 1944              		.loc 1 1081 0
 1945 0008 07F10E03 		add	r3, r7, #14
 1946 000c 07F10802 		add	r2, r7, #8
 1947 0010 0021     		movs	r1, #0
 1948 0012 0020     		movs	r0, #0
 1949 0014 FFF7FEFF 		bl	OSTaskSemPend
1082:..\..\..\..\..\..\uCOS-III\Source/os_tmr.c ****                             (OS_OPT  )OS_OPT_PEND_BLOCKING,
1083:..\..\..\..\..\..\uCOS-III\Source/os_tmr.c ****                             (CPU_TS *)&ts,
1084:..\..\..\..\..\..\uCOS-III\Source/os_tmr.c ****                             (OS_ERR *)&err);
1085:..\..\..\..\..\..\uCOS-III\Source/os_tmr.c **** 
1086:..\..\..\..\..\..\uCOS-III\Source/os_tmr.c ****         OSSchedLock(&err);
 1950              		.loc 1 1086 0
 1951 0018 07F10E03 		add	r3, r7, #14
 1952 001c 1846     		mov	r0, r3
 1953 001e FFF7FEFF 		bl	OSSchedLock
1087:..\..\..\..\..\..\uCOS-III\Source/os_tmr.c ****         ts_start = OS_TS_GET();
 1954              		.loc 1 1087 0
 1955 0022 FFF7FEFF 		bl	CPU_TS_TmrRd
 1956 0026 7862     		str	r0, [r7, #36]
1088:..\..\..\..\..\..\uCOS-III\Source/os_tmr.c ****         OSTmrTickCtr++;                                          /* Increment the current time     
 1957              		.loc 1 1088 0
 1958 0028 324B     		ldr	r3, .L159
 1959 002a 1B68     		ldr	r3, [r3]
 1960 002c 0133     		adds	r3, r3, #1
 1961 002e 314A     		ldr	r2, .L159
 1962 0030 1360     		str	r3, [r2]
1089:..\..\..\..\..\..\uCOS-III\Source/os_tmr.c ****         spoke    = (OS_TMR_SPOKE_IX)(OSTmrTickCtr % OSCfg_TmrWheelSize);
 1963              		.loc 1 1089 0
 1964 0032 304B     		ldr	r3, .L159
ARM GAS  C:\Users\alex\AppData\Local\Temp\ccByxCIb.s 			page 55


 1965 0034 1B68     		ldr	r3, [r3]
 1966 0036 304A     		ldr	r2, .L159+4
 1967 0038 1288     		ldrh	r2, [r2]
 1968 003a B3FBF2F1 		udiv	r1, r3, r2
 1969 003e 02FB01F2 		mul	r2, r2, r1
 1970 0042 9B1A     		subs	r3, r3, r2
 1971 0044 7B84     		strh	r3, [r7, #34]	@ movhi
1090:..\..\..\..\..\..\uCOS-III\Source/os_tmr.c ****         p_spoke  = &OSCfg_TmrWheel[spoke];
 1972              		.loc 1 1090 0
 1973 0046 7B8C     		ldrh	r3, [r7, #34]
 1974 0048 DB00     		lsls	r3, r3, #3
 1975 004a 2C4A     		ldr	r2, .L159+8
 1976 004c 1344     		add	r3, r3, r2
 1977 004e FB61     		str	r3, [r7, #28]
1091:..\..\..\..\..\..\uCOS-III\Source/os_tmr.c ****         p_tmr    = p_spoke->FirstPtr;
 1978              		.loc 1 1091 0
 1979 0050 FB69     		ldr	r3, [r7, #28]
 1980 0052 1B68     		ldr	r3, [r3]
 1981 0054 BB62     		str	r3, [r7, #40]
1092:..\..\..\..\..\..\uCOS-III\Source/os_tmr.c ****         done     = DEF_FALSE;
 1982              		.loc 1 1092 0
 1983 0056 0023     		movs	r3, #0
 1984 0058 87F82F30 		strb	r3, [r7, #47]
1093:..\..\..\..\..\..\uCOS-III\Source/os_tmr.c ****         while (done == DEF_FALSE) {
 1985              		.loc 1 1093 0
 1986 005c 31E0     		b	.L149
 1987              	.L156:
1094:..\..\..\..\..\..\uCOS-III\Source/os_tmr.c ****             if (p_tmr != (OS_TMR *)0) {
 1988              		.loc 1 1094 0
 1989 005e BB6A     		ldr	r3, [r7, #40]
 1990 0060 002B     		cmp	r3, #0
 1991 0062 2BD0     		beq	.L150
1095:..\..\..\..\..\..\uCOS-III\Source/os_tmr.c ****                 p_tmr_next = (OS_TMR *)p_tmr->NextPtr;           /* Point to next tmr to update bec
 1992              		.loc 1 1095 0
 1993 0064 BB6A     		ldr	r3, [r7, #40]
 1994 0066 1B69     		ldr	r3, [r3, #16]
 1995 0068 7B61     		str	r3, [r7, #20]
1096:..\..\..\..\..\..\uCOS-III\Source/os_tmr.c ****                                                                  /* ... timer could get unlinked fr
1097:..\..\..\..\..\..\uCOS-III\Source/os_tmr.c ****                 if (OSTmrTickCtr == p_tmr->Match) {              /* Process each timer that expires
 1996              		.loc 1 1097 0
 1997 006a BB6A     		ldr	r3, [r7, #40]
 1998 006c 9A69     		ldr	r2, [r3, #24]
 1999 006e 214B     		ldr	r3, .L159
 2000 0070 1B68     		ldr	r3, [r3]
 2001 0072 9A42     		cmp	r2, r3
 2002 0074 1ED1     		bne	.L151
1098:..\..\..\..\..\..\uCOS-III\Source/os_tmr.c ****                     OS_TmrUnlink(p_tmr);                         /* Remove from current wheel spoke
 2003              		.loc 1 1098 0
 2004 0076 B86A     		ldr	r0, [r7, #40]
 2005 0078 FFF7FEFF 		bl	OS_TmrUnlink
1099:..\..\..\..\..\..\uCOS-III\Source/os_tmr.c ****                     if (p_tmr->Opt == OS_OPT_TMR_PERIODIC) {
 2006              		.loc 1 1099 0
 2007 007c BB6A     		ldr	r3, [r7, #40]
 2008 007e 1B8D     		ldrh	r3, [r3, #40]
 2009 0080 022B     		cmp	r3, #2
 2010 0082 04D1     		bne	.L152
1100:..\..\..\..\..\..\uCOS-III\Source/os_tmr.c ****                         OS_TmrLink(p_tmr,
ARM GAS  C:\Users\alex\AppData\Local\Temp\ccByxCIb.s 			page 56


 2011              		.loc 1 1100 0
 2012 0084 0121     		movs	r1, #1
 2013 0086 B86A     		ldr	r0, [r7, #40]
 2014 0088 FFF7FEFF 		bl	OS_TmrLink
 2015 008c 03E0     		b	.L153
 2016              	.L152:
1101:..\..\..\..\..\..\uCOS-III\Source/os_tmr.c ****                                    OS_OPT_LINK_PERIODIC);        /* Recalculate new position of tim
1102:..\..\..\..\..\..\uCOS-III\Source/os_tmr.c ****                     } else {
1103:..\..\..\..\..\..\uCOS-III\Source/os_tmr.c ****                         p_tmr->State = OS_TMR_STATE_COMPLETED;   /* Indicate that the timer has com
 2017              		.loc 1 1103 0
 2018 008e BB6A     		ldr	r3, [r7, #40]
 2019 0090 0322     		movs	r2, #3
 2020 0092 83F82A20 		strb	r2, [r3, #42]
 2021              	.L153:
1104:..\..\..\..\..\..\uCOS-III\Source/os_tmr.c ****                     }
1105:..\..\..\..\..\..\uCOS-III\Source/os_tmr.c ****                     p_fnct = p_tmr->CallbackPtr;                 /* Execute callback function if av
 2022              		.loc 1 1105 0
 2023 0096 BB6A     		ldr	r3, [r7, #40]
 2024 0098 9B68     		ldr	r3, [r3, #8]
 2025 009a 3B61     		str	r3, [r7, #16]
1106:..\..\..\..\..\..\uCOS-III\Source/os_tmr.c ****                     if (p_fnct != (OS_TMR_CALLBACK_PTR)0) {
 2026              		.loc 1 1106 0
 2027 009c 3B69     		ldr	r3, [r7, #16]
 2028 009e 002B     		cmp	r3, #0
 2029 00a0 05D0     		beq	.L154
1107:..\..\..\..\..\..\uCOS-III\Source/os_tmr.c ****                         (*p_fnct)((void *)p_tmr,
 2030              		.loc 1 1107 0
 2031 00a2 BB6A     		ldr	r3, [r7, #40]
 2032 00a4 DA68     		ldr	r2, [r3, #12]
 2033 00a6 3B69     		ldr	r3, [r7, #16]
 2034 00a8 1146     		mov	r1, r2
 2035 00aa B86A     		ldr	r0, [r7, #40]
 2036 00ac 9847     		blx	r3
 2037              	.L154:
1108:..\..\..\..\..\..\uCOS-III\Source/os_tmr.c ****                                   p_tmr->CallbackPtrArg);
1109:..\..\..\..\..\..\uCOS-III\Source/os_tmr.c ****                     }
1110:..\..\..\..\..\..\uCOS-III\Source/os_tmr.c ****                     p_tmr = p_tmr_next;                          /* See if next timer matches      
 2038              		.loc 1 1110 0
 2039 00ae 7B69     		ldr	r3, [r7, #20]
 2040 00b0 BB62     		str	r3, [r7, #40]
 2041 00b2 06E0     		b	.L149
 2042              	.L151:
1111:..\..\..\..\..\..\uCOS-III\Source/os_tmr.c ****                 } else {
1112:..\..\..\..\..\..\uCOS-III\Source/os_tmr.c ****                     done  = DEF_TRUE;
 2043              		.loc 1 1112 0
 2044 00b4 0123     		movs	r3, #1
 2045 00b6 87F82F30 		strb	r3, [r7, #47]
 2046 00ba 02E0     		b	.L149
 2047              	.L150:
1113:..\..\..\..\..\..\uCOS-III\Source/os_tmr.c ****                 }
1114:..\..\..\..\..\..\uCOS-III\Source/os_tmr.c ****             } else {
1115:..\..\..\..\..\..\uCOS-III\Source/os_tmr.c ****                 done = DEF_TRUE;
 2048              		.loc 1 1115 0
 2049 00bc 0123     		movs	r3, #1
 2050 00be 87F82F30 		strb	r3, [r7, #47]
 2051              	.L149:
1093:..\..\..\..\..\..\uCOS-III\Source/os_tmr.c ****             if (p_tmr != (OS_TMR *)0) {
ARM GAS  C:\Users\alex\AppData\Local\Temp\ccByxCIb.s 			page 57


 2052              		.loc 1 1093 0
 2053 00c2 97F82F30 		ldrb	r3, [r7, #47]	@ zero_extendqisi2
 2054 00c6 002B     		cmp	r3, #0
 2055 00c8 C9D0     		beq	.L156
1116:..\..\..\..\..\..\uCOS-III\Source/os_tmr.c ****             }
1117:..\..\..\..\..\..\uCOS-III\Source/os_tmr.c ****         }
1118:..\..\..\..\..\..\uCOS-III\Source/os_tmr.c ****         ts_end = OS_TS_GET() - ts_start;                         /* Measure execution time of timer
 2056              		.loc 1 1118 0
 2057 00ca FFF7FEFF 		bl	CPU_TS_TmrRd
 2058 00ce 0246     		mov	r2, r0
 2059 00d0 7B6A     		ldr	r3, [r7, #36]
 2060 00d2 D31A     		subs	r3, r2, r3
 2061 00d4 BB61     		str	r3, [r7, #24]
1119:..\..\..\..\..\..\uCOS-III\Source/os_tmr.c ****         OSSchedUnlock(&err);
 2062              		.loc 1 1119 0
 2063 00d6 07F10E03 		add	r3, r7, #14
 2064 00da 1846     		mov	r0, r3
 2065 00dc FFF7FEFF 		bl	OSSchedUnlock
1120:..\..\..\..\..\..\uCOS-III\Source/os_tmr.c ****         if (OSTmrTaskTimeMax < ts_end) {
 2066              		.loc 1 1120 0
 2067 00e0 074B     		ldr	r3, .L159+12
 2068 00e2 1A68     		ldr	r2, [r3]
 2069 00e4 BB69     		ldr	r3, [r7, #24]
 2070 00e6 9A42     		cmp	r2, r3
 2071 00e8 8ED2     		bcs	.L158
1121:..\..\..\..\..\..\uCOS-III\Source/os_tmr.c ****             OSTmrTaskTimeMax = ts_end;
 2072              		.loc 1 1121 0
 2073 00ea 054A     		ldr	r2, .L159+12
 2074 00ec BB69     		ldr	r3, [r7, #24]
 2075 00ee 1360     		str	r3, [r2]
1122:..\..\..\..\..\..\uCOS-III\Source/os_tmr.c ****         }
1123:..\..\..\..\..\..\uCOS-III\Source/os_tmr.c ****     }
 2076              		.loc 1 1123 0
 2077 00f0 8AE7     		b	.L158
 2078              	.L160:
 2079 00f2 00BF     		.align	2
 2080              	.L159:
 2081 00f4 00000000 		.word	OSTmrTickCtr
 2082 00f8 00000000 		.word	OSCfg_TmrWheelSize
 2083 00fc 00000000 		.word	OSCfg_TmrWheel
 2084 0100 00000000 		.word	OSTmrTaskTimeMax
 2085              		.cfi_endproc
 2086              	.LFE13:
 2087              		.size	OS_TmrTask, .-OS_TmrTask
 2088              		.text
 2089              	.Letext0:
 2090              		.file 2 "..\\..\\..\\..\\..\\..\\uC-CPU\\ARM-Cortex-M3\\GNU/cpu.h"
 2091              		.file 3 "..\\..\\..\\..\\..\\..\\uC-CPU/cpu_core.h"
 2092              		.file 4 "..\\..\\..\\..\\..\\..\\uCOS-III\\Source/os_type.h"
 2093              		.file 5 "..\\..\\..\\..\\..\\..\\uCOS-III\\Source/os.h"
 2094              		.section	.debug_info,"",%progbits
 2095              	.Ldebug_info0:
 2096 0000 9A120000 		.4byte	0x129a
 2097 0004 0400     		.2byte	0x4
 2098 0006 00000000 		.4byte	.Ldebug_abbrev0
 2099 000a 04       		.byte	0x4
 2100 000b 01       		.uleb128 0x1
ARM GAS  C:\Users\alex\AppData\Local\Temp\ccByxCIb.s 			page 58


 2101 000c 95020000 		.4byte	.LASF348
 2102 0010 0C       		.byte	0xc
 2103 0011 E3060000 		.4byte	.LASF349
 2104 0015 D90B0000 		.4byte	.LASF350
 2105 0019 00000000 		.4byte	.Ldebug_ranges0+0
 2106 001d 00000000 		.4byte	0
 2107 0021 00000000 		.4byte	.Ldebug_line0
 2108 0025 02       		.uleb128 0x2
 2109 0026 15080000 		.4byte	.LASF0
 2110 002a 02       		.byte	0x2
 2111 002b 76       		.byte	0x76
 2112 002c 30000000 		.4byte	0x30
 2113 0030 03       		.uleb128 0x3
 2114 0031 01       		.byte	0x1
 2115 0032 08       		.byte	0x8
 2116 0033 C7090000 		.4byte	.LASF2
 2117 0037 02       		.uleb128 0x2
 2118 0038 34110000 		.4byte	.LASF1
 2119 003c 02       		.byte	0x2
 2120 003d 77       		.byte	0x77
 2121 003e 42000000 		.4byte	0x42
 2122 0042 03       		.uleb128 0x3
 2123 0043 01       		.byte	0x1
 2124 0044 08       		.byte	0x8
 2125 0045 97110000 		.4byte	.LASF3
 2126 0049 02       		.uleb128 0x2
 2127 004a D8060000 		.4byte	.LASF4
 2128 004e 02       		.byte	0x2
 2129 004f 78       		.byte	0x78
 2130 0050 42000000 		.4byte	0x42
 2131 0054 03       		.uleb128 0x3
 2132 0055 01       		.byte	0x1
 2133 0056 06       		.byte	0x6
 2134 0057 07130000 		.4byte	.LASF5
 2135 005b 02       		.uleb128 0x2
 2136 005c 700B0000 		.4byte	.LASF6
 2137 0060 02       		.byte	0x2
 2138 0061 7A       		.byte	0x7a
 2139 0062 66000000 		.4byte	0x66
 2140 0066 03       		.uleb128 0x3
 2141 0067 02       		.byte	0x2
 2142 0068 07       		.byte	0x7
 2143 0069 34130000 		.4byte	.LASF7
 2144 006d 03       		.uleb128 0x3
 2145 006e 02       		.byte	0x2
 2146 006f 05       		.byte	0x5
 2147 0070 DA0E0000 		.4byte	.LASF8
 2148 0074 02       		.uleb128 0x2
 2149 0075 CD010000 		.4byte	.LASF9
 2150 0079 02       		.byte	0x2
 2151 007a 7C       		.byte	0x7c
 2152 007b 7F000000 		.4byte	0x7f
 2153 007f 03       		.uleb128 0x3
 2154 0080 04       		.byte	0x4
 2155 0081 07       		.byte	0x7
 2156 0082 3A100000 		.4byte	.LASF10
 2157 0086 04       		.uleb128 0x4
ARM GAS  C:\Users\alex\AppData\Local\Temp\ccByxCIb.s 			page 59


 2158 0087 04       		.byte	0x4
 2159 0088 05       		.byte	0x5
 2160 0089 696E7400 		.ascii	"int\000"
 2161 008d 03       		.uleb128 0x3
 2162 008e 08       		.byte	0x8
 2163 008f 07       		.byte	0x7
 2164 0090 15060000 		.4byte	.LASF11
 2165 0094 03       		.uleb128 0x3
 2166 0095 08       		.byte	0x8
 2167 0096 05       		.byte	0x5
 2168 0097 DB0A0000 		.4byte	.LASF12
 2169 009b 03       		.uleb128 0x3
 2170 009c 04       		.byte	0x4
 2171 009d 04       		.byte	0x4
 2172 009e 68050000 		.4byte	.LASF13
 2173 00a2 03       		.uleb128 0x3
 2174 00a3 08       		.byte	0x8
 2175 00a4 04       		.byte	0x4
 2176 00a5 C8130000 		.4byte	.LASF14
 2177 00a9 05       		.uleb128 0x5
 2178 00aa 04       		.byte	0x4
 2179 00ab AF000000 		.4byte	0xaf
 2180 00af 06       		.uleb128 0x6
 2181 00b0 BA000000 		.4byte	0xba
 2182 00b4 07       		.uleb128 0x7
 2183 00b5 BA000000 		.4byte	0xba
 2184 00b9 00       		.byte	0
 2185 00ba 08       		.uleb128 0x8
 2186 00bb 04       		.byte	0x4
 2187 00bc 02       		.uleb128 0x2
 2188 00bd DA100000 		.4byte	.LASF15
 2189 00c1 02       		.byte	0x2
 2190 00c2 B5       		.byte	0xb5
 2191 00c3 74000000 		.4byte	0x74
 2192 00c7 02       		.uleb128 0x2
 2193 00c8 6A150000 		.4byte	.LASF16
 2194 00cc 02       		.byte	0x2
 2195 00cd D9       		.byte	0xd9
 2196 00ce 74000000 		.4byte	0x74
 2197 00d2 02       		.uleb128 0x2
 2198 00d3 49080000 		.4byte	.LASF17
 2199 00d7 02       		.byte	0x2
 2200 00d8 DA       		.byte	0xda
 2201 00d9 BC000000 		.4byte	0xbc
 2202 00dd 09       		.uleb128 0x9
 2203 00de FD090000 		.4byte	.LASF18
 2204 00e2 02       		.byte	0x2
 2205 00e3 2901     		.2byte	0x129
 2206 00e5 74000000 		.4byte	0x74
 2207 00e9 02       		.uleb128 0x2
 2208 00ea 9C0C0000 		.4byte	.LASF19
 2209 00ee 03       		.byte	0x3
 2210 00ef C4       		.byte	0xc4
 2211 00f0 74000000 		.4byte	0x74
 2212 00f4 02       		.uleb128 0x2
 2213 00f5 D40A0000 		.4byte	.LASF20
 2214 00f9 03       		.byte	0x3
ARM GAS  C:\Users\alex\AppData\Local\Temp\ccByxCIb.s 			page 60


 2215 00fa C7       		.byte	0xc7
 2216 00fb E9000000 		.4byte	0xe9
 2217 00ff 02       		.uleb128 0x2
 2218 0100 A3010000 		.4byte	.LASF21
 2219 0104 04       		.byte	0x4
 2220 0105 30       		.byte	0x30
 2221 0106 5B000000 		.4byte	0x5b
 2222 010a 02       		.uleb128 0x2
 2223 010b 35080000 		.4byte	.LASF22
 2224 010f 04       		.byte	0x4
 2225 0110 32       		.byte	0x32
 2226 0111 74000000 		.4byte	0x74
 2227 0115 02       		.uleb128 0x2
 2228 0116 22000000 		.4byte	.LASF23
 2229 011a 04       		.byte	0x4
 2230 011b 34       		.byte	0x34
 2231 011c 74000000 		.4byte	0x74
 2232 0120 02       		.uleb128 0x2
 2233 0121 40110000 		.4byte	.LASF24
 2234 0125 04       		.byte	0x4
 2235 0126 36       		.byte	0x36
 2236 0127 74000000 		.4byte	0x74
 2237 012b 02       		.uleb128 0x2
 2238 012c 47130000 		.4byte	.LASF25
 2239 0130 04       		.byte	0x4
 2240 0131 38       		.byte	0x38
 2241 0132 74000000 		.4byte	0x74
 2242 0136 02       		.uleb128 0x2
 2243 0137 56080000 		.4byte	.LASF26
 2244 013b 04       		.byte	0x4
 2245 013c 3F       		.byte	0x3f
 2246 013d 5B000000 		.4byte	0x5b
 2247 0141 02       		.uleb128 0x2
 2248 0142 DA070000 		.4byte	.LASF27
 2249 0146 04       		.byte	0x4
 2250 0147 40       		.byte	0x40
 2251 0148 5B000000 		.4byte	0x5b
 2252 014c 02       		.uleb128 0x2
 2253 014d 880F0000 		.4byte	.LASF28
 2254 0151 04       		.byte	0x4
 2255 0152 42       		.byte	0x42
 2256 0153 49000000 		.4byte	0x49
 2257 0157 02       		.uleb128 0x2
 2258 0158 8A020000 		.4byte	.LASF29
 2259 015c 04       		.byte	0x4
 2260 015d 44       		.byte	0x44
 2261 015e 5B000000 		.4byte	0x5b
 2262 0162 02       		.uleb128 0x2
 2263 0163 CC090000 		.4byte	.LASF30
 2264 0167 04       		.byte	0x4
 2265 0168 45       		.byte	0x45
 2266 0169 74000000 		.4byte	0x74
 2267 016d 02       		.uleb128 0x2
 2268 016e DE110000 		.4byte	.LASF31
 2269 0172 04       		.byte	0x4
 2270 0173 47       		.byte	0x47
 2271 0174 5B000000 		.4byte	0x5b
ARM GAS  C:\Users\alex\AppData\Local\Temp\ccByxCIb.s 			page 61


 2272 0178 02       		.uleb128 0x2
 2273 0179 60050000 		.4byte	.LASF32
 2274 017d 04       		.byte	0x4
 2275 017e 49       		.byte	0x49
 2276 017f 49000000 		.4byte	0x49
 2277 0183 02       		.uleb128 0x2
 2278 0184 440A0000 		.4byte	.LASF33
 2279 0188 04       		.byte	0x4
 2280 0189 4D       		.byte	0x4d
 2281 018a 74000000 		.4byte	0x74
 2282 018e 02       		.uleb128 0x2
 2283 018f 7F070000 		.4byte	.LASF34
 2284 0193 04       		.byte	0x4
 2285 0194 4F       		.byte	0x4f
 2286 0195 74000000 		.4byte	0x74
 2287 0199 02       		.uleb128 0x2
 2288 019a C80C0000 		.4byte	.LASF35
 2289 019e 04       		.byte	0x4
 2290 019f 52       		.byte	0x52
 2291 01a0 74000000 		.4byte	0x74
 2292 01a4 02       		.uleb128 0x2
 2293 01a5 D5110000 		.4byte	.LASF36
 2294 01a9 04       		.byte	0x4
 2295 01aa 54       		.byte	0x54
 2296 01ab 49000000 		.4byte	0x49
 2297 01af 02       		.uleb128 0x2
 2298 01b0 92070000 		.4byte	.LASF37
 2299 01b4 04       		.byte	0x4
 2300 01b5 56       		.byte	0x56
 2301 01b6 49000000 		.4byte	0x49
 2302 01ba 02       		.uleb128 0x2
 2303 01bb 0E140000 		.4byte	.LASF38
 2304 01bf 04       		.byte	0x4
 2305 01c0 58       		.byte	0x58
 2306 01c1 74000000 		.4byte	0x74
 2307 01c5 02       		.uleb128 0x2
 2308 01c6 040A0000 		.4byte	.LASF39
 2309 01ca 04       		.byte	0x4
 2310 01cb 5B       		.byte	0x5b
 2311 01cc 5B000000 		.4byte	0x5b
 2312 01d0 0A       		.uleb128 0xa
 2313 01d1 68010000 		.4byte	.LASF351
 2314 01d5 02       		.byte	0x2
 2315 01d6 66000000 		.4byte	0x66
 2316 01da 05       		.byte	0x5
 2317 01db A501     		.2byte	0x1a5
 2318 01dd 48060000 		.4byte	0x648
 2319 01e1 0B       		.uleb128 0xb
 2320 01e2 70130000 		.4byte	.LASF40
 2321 01e6 00       		.byte	0
 2322 01e7 0C       		.uleb128 0xc
 2323 01e8 76000000 		.4byte	.LASF41
 2324 01ec 1027     		.2byte	0x2710
 2325 01ee 0C       		.uleb128 0xc
 2326 01ef 9B030000 		.4byte	.LASF42
 2327 01f3 1127     		.2byte	0x2711
 2328 01f5 0C       		.uleb128 0xc
ARM GAS  C:\Users\alex\AppData\Local\Temp\ccByxCIb.s 			page 62


 2329 01f6 7F000000 		.4byte	.LASF43
 2330 01fa F82A     		.2byte	0x2af8
 2331 01fc 0C       		.uleb128 0xc
 2332 01fd 88000000 		.4byte	.LASF44
 2333 0201 E02E     		.2byte	0x2ee0
 2334 0203 0C       		.uleb128 0xc
 2335 0204 91010000 		.4byte	.LASF45
 2336 0208 E12E     		.2byte	0x2ee1
 2337 020a 0C       		.uleb128 0xc
 2338 020b 91000000 		.4byte	.LASF46
 2339 020f C832     		.2byte	0x32c8
 2340 0211 0C       		.uleb128 0xc
 2341 0212 91090000 		.4byte	.LASF47
 2342 0216 C932     		.2byte	0x32c9
 2343 0218 0C       		.uleb128 0xc
 2344 0219 9A000000 		.4byte	.LASF48
 2345 021d B036     		.2byte	0x36b0
 2346 021f 0C       		.uleb128 0xc
 2347 0220 A3000000 		.4byte	.LASF49
 2348 0224 983A     		.2byte	0x3a98
 2349 0226 0C       		.uleb128 0xc
 2350 0227 20130000 		.4byte	.LASF50
 2351 022b 993A     		.2byte	0x3a99
 2352 022d 0C       		.uleb128 0xc
 2353 022e E3080000 		.4byte	.LASF51
 2354 0232 FD3A     		.2byte	0x3afd
 2355 0234 0C       		.uleb128 0xc
 2356 0235 95100000 		.4byte	.LASF52
 2357 0239 FE3A     		.2byte	0x3afe
 2358 023b 0C       		.uleb128 0xc
 2359 023c E90A0000 		.4byte	.LASF53
 2360 0240 FF3A     		.2byte	0x3aff
 2361 0242 0C       		.uleb128 0xc
 2362 0243 AB130000 		.4byte	.LASF54
 2363 0247 003B     		.2byte	0x3b00
 2364 0249 0C       		.uleb128 0xc
 2365 024a AC000000 		.4byte	.LASF55
 2366 024e 803E     		.2byte	0x3e80
 2367 0250 0C       		.uleb128 0xc
 2368 0251 B5000000 		.4byte	.LASF56
 2369 0255 6842     		.2byte	0x4268
 2370 0257 0C       		.uleb128 0xc
 2371 0258 BE000000 		.4byte	.LASF57
 2372 025c 5046     		.2byte	0x4650
 2373 025e 0C       		.uleb128 0xc
 2374 025f EA040000 		.4byte	.LASF58
 2375 0263 5146     		.2byte	0x4651
 2376 0265 0C       		.uleb128 0xc
 2377 0266 69030000 		.4byte	.LASF59
 2378 026a 5246     		.2byte	0x4652
 2379 026c 0C       		.uleb128 0xc
 2380 026d A0040000 		.4byte	.LASF60
 2381 0271 5346     		.2byte	0x4653
 2382 0273 0C       		.uleb128 0xc
 2383 0274 7F010000 		.4byte	.LASF61
 2384 0278 5446     		.2byte	0x4654
 2385 027a 0C       		.uleb128 0xc
ARM GAS  C:\Users\alex\AppData\Local\Temp\ccByxCIb.s 			page 63


 2386 027b A5120000 		.4byte	.LASF62
 2387 027f 5546     		.2byte	0x4655
 2388 0281 0C       		.uleb128 0xc
 2389 0282 970D0000 		.4byte	.LASF63
 2390 0286 5646     		.2byte	0x4656
 2391 0288 0C       		.uleb128 0xc
 2392 0289 C7000000 		.4byte	.LASF64
 2393 028d 384A     		.2byte	0x4a38
 2394 028f 0C       		.uleb128 0xc
 2395 0290 D0000000 		.4byte	.LASF65
 2396 0294 204E     		.2byte	0x4e20
 2397 0296 0C       		.uleb128 0xc
 2398 0297 D9000000 		.4byte	.LASF66
 2399 029b 0852     		.2byte	0x5208
 2400 029d 0C       		.uleb128 0xc
 2401 029e AA0E0000 		.4byte	.LASF67
 2402 02a2 0952     		.2byte	0x5209
 2403 02a4 0C       		.uleb128 0xc
 2404 02a5 E2000000 		.4byte	.LASF68
 2405 02a9 F055     		.2byte	0x55f0
 2406 02ab 0C       		.uleb128 0xc
 2407 02ac FA110000 		.4byte	.LASF69
 2408 02b0 B956     		.2byte	0x56b9
 2409 02b2 0C       		.uleb128 0xc
 2410 02b3 5B0C0000 		.4byte	.LASF70
 2411 02b7 BA56     		.2byte	0x56ba
 2412 02b9 0C       		.uleb128 0xc
 2413 02ba 8A0E0000 		.4byte	.LASF71
 2414 02be BB56     		.2byte	0x56bb
 2415 02c0 0C       		.uleb128 0xc
 2416 02c1 FC080000 		.4byte	.LASF72
 2417 02c5 BC56     		.2byte	0x56bc
 2418 02c7 0C       		.uleb128 0xc
 2419 02c8 970B0000 		.4byte	.LASF73
 2420 02cc BD56     		.2byte	0x56bd
 2421 02ce 0C       		.uleb128 0xc
 2422 02cf 710E0000 		.4byte	.LASF74
 2423 02d3 BE56     		.2byte	0x56be
 2424 02d5 0C       		.uleb128 0xc
 2425 02d6 830C0000 		.4byte	.LASF75
 2426 02da BF56     		.2byte	0x56bf
 2427 02dc 0C       		.uleb128 0xc
 2428 02dd B3050000 		.4byte	.LASF76
 2429 02e1 C056     		.2byte	0x56c0
 2430 02e3 0C       		.uleb128 0xc
 2431 02e4 4C140000 		.4byte	.LASF77
 2432 02e8 C156     		.2byte	0x56c1
 2433 02ea 0C       		.uleb128 0xc
 2434 02eb 43150000 		.4byte	.LASF78
 2435 02ef C256     		.2byte	0x56c2
 2436 02f1 0C       		.uleb128 0xc
 2437 02f2 F60E0000 		.4byte	.LASF79
 2438 02f6 1D57     		.2byte	0x571d
 2439 02f8 0C       		.uleb128 0xc
 2440 02f9 6F0F0000 		.4byte	.LASF80
 2441 02fd 1E57     		.2byte	0x571e
 2442 02ff 0C       		.uleb128 0xc
ARM GAS  C:\Users\alex\AppData\Local\Temp\ccByxCIb.s 			page 64


 2443 0300 C3070000 		.4byte	.LASF81
 2444 0304 8157     		.2byte	0x5781
 2445 0306 0C       		.uleb128 0xc
 2446 0307 5C100000 		.4byte	.LASF82
 2447 030b 8257     		.2byte	0x5782
 2448 030d 0C       		.uleb128 0xc
 2449 030e C5030000 		.4byte	.LASF83
 2450 0312 8357     		.2byte	0x5783
 2451 0314 0C       		.uleb128 0xc
 2452 0315 EB000000 		.4byte	.LASF84
 2453 0319 D859     		.2byte	0x59d8
 2454 031b 0C       		.uleb128 0xc
 2455 031c 86070000 		.4byte	.LASF85
 2456 0320 D959     		.2byte	0x59d9
 2457 0322 0C       		.uleb128 0xc
 2458 0323 8D050000 		.4byte	.LASF86
 2459 0327 DA59     		.2byte	0x59da
 2460 0329 0C       		.uleb128 0xc
 2461 032a F4000000 		.4byte	.LASF87
 2462 032e C05D     		.2byte	0x5dc0
 2463 0330 0C       		.uleb128 0xc
 2464 0331 29040000 		.4byte	.LASF88
 2465 0335 C15D     		.2byte	0x5dc1
 2466 0337 0C       		.uleb128 0xc
 2467 0338 C50A0000 		.4byte	.LASF89
 2468 033c C25D     		.2byte	0x5dc2
 2469 033e 0C       		.uleb128 0xc
 2470 033f AF0B0000 		.4byte	.LASF90
 2471 0343 C35D     		.2byte	0x5dc3
 2472 0345 0C       		.uleb128 0xc
 2473 0346 DC0F0000 		.4byte	.LASF91
 2474 034a C45D     		.2byte	0x5dc4
 2475 034c 0C       		.uleb128 0xc
 2476 034d EA090000 		.4byte	.LASF92
 2477 0351 255E     		.2byte	0x5e25
 2478 0353 0C       		.uleb128 0xc
 2479 0354 140E0000 		.4byte	.LASF93
 2480 0358 895E     		.2byte	0x5e89
 2481 035a 0C       		.uleb128 0xc
 2482 035b 61080000 		.4byte	.LASF94
 2483 035f 8A5E     		.2byte	0x5e8a
 2484 0361 0C       		.uleb128 0xc
 2485 0362 FD000000 		.4byte	.LASF95
 2486 0366 A861     		.2byte	0x61a8
 2487 0368 0C       		.uleb128 0xc
 2488 0369 CF130000 		.4byte	.LASF96
 2489 036d A961     		.2byte	0x61a9
 2490 036f 0C       		.uleb128 0xc
 2491 0370 C4100000 		.4byte	.LASF97
 2492 0374 AA61     		.2byte	0x61aa
 2493 0376 0C       		.uleb128 0xc
 2494 0377 23100000 		.4byte	.LASF98
 2495 037b AB61     		.2byte	0x61ab
 2496 037d 0C       		.uleb128 0xc
 2497 037e 590B0000 		.4byte	.LASF99
 2498 0382 AC61     		.2byte	0x61ac
 2499 0384 0C       		.uleb128 0xc
ARM GAS  C:\Users\alex\AppData\Local\Temp\ccByxCIb.s 			page 65


 2500 0385 16140000 		.4byte	.LASF100
 2501 0389 AD61     		.2byte	0x61ad
 2502 038b 0C       		.uleb128 0xc
 2503 038c 2F120000 		.4byte	.LASF101
 2504 0390 AE61     		.2byte	0x61ae
 2505 0392 0C       		.uleb128 0xc
 2506 0393 77020000 		.4byte	.LASF102
 2507 0397 AF61     		.2byte	0x61af
 2508 0399 0C       		.uleb128 0xc
 2509 039a 0B020000 		.4byte	.LASF103
 2510 039e B061     		.2byte	0x61b0
 2511 03a0 0C       		.uleb128 0xc
 2512 03a1 78050000 		.4byte	.LASF104
 2513 03a5 0D62     		.2byte	0x620d
 2514 03a7 0C       		.uleb128 0xc
 2515 03a8 E3100000 		.4byte	.LASF105
 2516 03ac 0E62     		.2byte	0x620e
 2517 03ae 0C       		.uleb128 0xc
 2518 03af 16150000 		.4byte	.LASF106
 2519 03b3 7162     		.2byte	0x6271
 2520 03b5 0C       		.uleb128 0xc
 2521 03b6 02140000 		.4byte	.LASF107
 2522 03ba 7262     		.2byte	0x6272
 2523 03bc 0C       		.uleb128 0xc
 2524 03bd 07000000 		.4byte	.LASF108
 2525 03c1 7362     		.2byte	0x6273
 2526 03c3 0C       		.uleb128 0xc
 2527 03c4 E40D0000 		.4byte	.LASF109
 2528 03c8 D562     		.2byte	0x62d5
 2529 03ca 0C       		.uleb128 0xc
 2530 03cb 06010000 		.4byte	.LASF110
 2531 03cf 9065     		.2byte	0x6590
 2532 03d1 0C       		.uleb128 0xc
 2533 03d2 74120000 		.4byte	.LASF111
 2534 03d6 9165     		.2byte	0x6591
 2535 03d8 0C       		.uleb128 0xc
 2536 03d9 4F070000 		.4byte	.LASF112
 2537 03dd 9265     		.2byte	0x6592
 2538 03df 0C       		.uleb128 0xc
 2539 03e0 B2090000 		.4byte	.LASF113
 2540 03e4 9365     		.2byte	0x6593
 2541 03e6 0C       		.uleb128 0xc
 2542 03e7 1A0B0000 		.4byte	.LASF114
 2543 03eb 9465     		.2byte	0x6594
 2544 03ed 0C       		.uleb128 0xc
 2545 03ee 0F010000 		.4byte	.LASF115
 2546 03f2 7869     		.2byte	0x6978
 2547 03f4 0C       		.uleb128 0xc
 2548 03f5 C30B0000 		.4byte	.LASF116
 2549 03f9 7969     		.2byte	0x6979
 2550 03fb 0C       		.uleb128 0xc
 2551 03fc 5C0E0000 		.4byte	.LASF117
 2552 0400 7A69     		.2byte	0x697a
 2553 0402 0C       		.uleb128 0xc
 2554 0403 7B0B0000 		.4byte	.LASF118
 2555 0407 7B69     		.2byte	0x697b
 2556 0409 0C       		.uleb128 0xc
ARM GAS  C:\Users\alex\AppData\Local\Temp\ccByxCIb.s 			page 66


 2557 040a 18010000 		.4byte	.LASF119
 2558 040e 606D     		.2byte	0x6d60
 2559 0410 0C       		.uleb128 0xc
 2560 0411 1F0A0000 		.4byte	.LASF120
 2561 0415 616D     		.2byte	0x6d61
 2562 0417 0C       		.uleb128 0xc
 2563 0418 63090000 		.4byte	.LASF121
 2564 041c 626D     		.2byte	0x6d62
 2565 041e 0C       		.uleb128 0xc
 2566 041f 97130000 		.4byte	.LASF122
 2567 0423 636D     		.2byte	0x6d63
 2568 0425 0C       		.uleb128 0xc
 2569 0426 EA130000 		.4byte	.LASF123
 2570 042a 646D     		.2byte	0x6d64
 2571 042c 0C       		.uleb128 0xc
 2572 042d 0C0F0000 		.4byte	.LASF124
 2573 0431 656D     		.2byte	0x6d65
 2574 0433 0C       		.uleb128 0xc
 2575 0434 9F140000 		.4byte	.LASF125
 2576 0438 C56D     		.2byte	0x6dc5
 2577 043a 0C       		.uleb128 0xc
 2578 043b 7A140000 		.4byte	.LASF126
 2579 043f C66D     		.2byte	0x6dc6
 2580 0441 0C       		.uleb128 0xc
 2581 0442 61020000 		.4byte	.LASF127
 2582 0446 296E     		.2byte	0x6e29
 2583 0448 0C       		.uleb128 0xc
 2584 0449 5D0A0000 		.4byte	.LASF128
 2585 044d 2A6E     		.2byte	0x6e2a
 2586 044f 0C       		.uleb128 0xc
 2587 0450 CB080000 		.4byte	.LASF129
 2588 0454 2B6E     		.2byte	0x6e2b
 2589 0456 0C       		.uleb128 0xc
 2590 0457 78100000 		.4byte	.LASF130
 2591 045b 2C6E     		.2byte	0x6e2c
 2592 045d 0C       		.uleb128 0xc
 2593 045e F70D0000 		.4byte	.LASF131
 2594 0462 2D6E     		.2byte	0x6e2d
 2595 0464 0C       		.uleb128 0xc
 2596 0465 10120000 		.4byte	.LASF132
 2597 0469 2E6E     		.2byte	0x6e2e
 2598 046b 0C       		.uleb128 0xc
 2599 046c D8010000 		.4byte	.LASF133
 2600 0470 2F6E     		.2byte	0x6e2f
 2601 0472 0C       		.uleb128 0xc
 2602 0473 51110000 		.4byte	.LASF134
 2603 0477 306E     		.2byte	0x6e30
 2604 0479 0C       		.uleb128 0xc
 2605 047a 07110000 		.4byte	.LASF135
 2606 047e 316E     		.2byte	0x6e31
 2607 0480 0C       		.uleb128 0xc
 2608 0481 21010000 		.4byte	.LASF136
 2609 0485 4871     		.2byte	0x7148
 2610 0487 0C       		.uleb128 0xc
 2611 0488 2E020000 		.4byte	.LASF137
 2612 048c 4971     		.2byte	0x7149
 2613 048e 0C       		.uleb128 0xc
ARM GAS  C:\Users\alex\AppData\Local\Temp\ccByxCIb.s 			page 67


 2614 048f 1E080000 		.4byte	.LASF138
 2615 0493 4A71     		.2byte	0x714a
 2616 0495 0C       		.uleb128 0xc
 2617 0496 DA120000 		.4byte	.LASF139
 2618 049a 4B71     		.2byte	0x714b
 2619 049c 0C       		.uleb128 0xc
 2620 049d AE140000 		.4byte	.LASF140
 2621 04a1 4C71     		.2byte	0x714c
 2622 04a3 0C       		.uleb128 0xc
 2623 04a4 88060000 		.4byte	.LASF141
 2624 04a8 4D71     		.2byte	0x714d
 2625 04aa 0C       		.uleb128 0xc
 2626 04ab C40D0000 		.4byte	.LASF142
 2627 04af 4E71     		.2byte	0x714e
 2628 04b1 0C       		.uleb128 0xc
 2629 04b2 390D0000 		.4byte	.LASF143
 2630 04b6 4F71     		.2byte	0x714f
 2631 04b8 0C       		.uleb128 0xc
 2632 04b9 6B0C0000 		.4byte	.LASF144
 2633 04bd 5071     		.2byte	0x7150
 2634 04bf 0C       		.uleb128 0xc
 2635 04c0 4A030000 		.4byte	.LASF145
 2636 04c4 5171     		.2byte	0x7151
 2637 04c6 0C       		.uleb128 0xc
 2638 04c7 120D0000 		.4byte	.LASF146
 2639 04cb 5271     		.2byte	0x7152
 2640 04cd 0C       		.uleb128 0xc
 2641 04ce 30030000 		.4byte	.LASF147
 2642 04d2 5371     		.2byte	0x7153
 2643 04d4 0C       		.uleb128 0xc
 2644 04d5 A5110000 		.4byte	.LASF148
 2645 04d9 5471     		.2byte	0x7154
 2646 04db 0C       		.uleb128 0xc
 2647 04dc F4010000 		.4byte	.LASF149
 2648 04e0 5571     		.2byte	0x7155
 2649 04e2 0C       		.uleb128 0xc
 2650 04e3 33050000 		.4byte	.LASF150
 2651 04e7 5671     		.2byte	0x7156
 2652 04e9 0C       		.uleb128 0xc
 2653 04ea AF0F0000 		.4byte	.LASF151
 2654 04ee 5771     		.2byte	0x7157
 2655 04f0 0C       		.uleb128 0xc
 2656 04f1 2C060000 		.4byte	.LASF152
 2657 04f5 5871     		.2byte	0x7158
 2658 04f7 0C       		.uleb128 0xc
 2659 04f8 C20E0000 		.4byte	.LASF153
 2660 04fc 5971     		.2byte	0x7159
 2661 04fe 0C       		.uleb128 0xc
 2662 04ff 64140000 		.4byte	.LASF154
 2663 0503 5A71     		.2byte	0x715a
 2664 0505 0C       		.uleb128 0xc
 2665 0506 87040000 		.4byte	.LASF155
 2666 050a 5B71     		.2byte	0x715b
 2667 050c 0C       		.uleb128 0xc
 2668 050d 68060000 		.4byte	.LASF156
 2669 0511 5C71     		.2byte	0x715c
 2670 0513 0C       		.uleb128 0xc
ARM GAS  C:\Users\alex\AppData\Local\Temp\ccByxCIb.s 			page 68


 2671 0514 AD030000 		.4byte	.LASF157
 2672 0518 5D71     		.2byte	0x715d
 2673 051a 0C       		.uleb128 0xc
 2674 051b 650D0000 		.4byte	.LASF158
 2675 051f 5E71     		.2byte	0x715e
 2676 0521 0C       		.uleb128 0xc
 2677 0522 81030000 		.4byte	.LASF159
 2678 0526 5F71     		.2byte	0x715f
 2679 0528 0C       		.uleb128 0xc
 2680 0529 22070000 		.4byte	.LASF160
 2681 052d AD71     		.2byte	0x71ad
 2682 052f 0C       		.uleb128 0xc
 2683 0530 FF050000 		.4byte	.LASF161
 2684 0534 C071     		.2byte	0x71c0
 2685 0536 0C       		.uleb128 0xc
 2686 0537 B50D0000 		.4byte	.LASF162
 2687 053b C171     		.2byte	0x71c1
 2688 053d 0C       		.uleb128 0xc
 2689 053e 57130000 		.4byte	.LASF163
 2690 0542 C271     		.2byte	0x71c2
 2691 0544 0C       		.uleb128 0xc
 2692 0545 D8090000 		.4byte	.LASF164
 2693 0549 C371     		.2byte	0x71c3
 2694 054b 0C       		.uleb128 0xc
 2695 054c A6070000 		.4byte	.LASF165
 2696 0550 C471     		.2byte	0x71c4
 2697 0552 0C       		.uleb128 0xc
 2698 0553 FD140000 		.4byte	.LASF166
 2699 0557 1172     		.2byte	0x7211
 2700 0559 0C       		.uleb128 0xc
 2701 055a 570F0000 		.4byte	.LASF167
 2702 055e 1272     		.2byte	0x7212
 2703 0560 0C       		.uleb128 0xc
 2704 0561 B0010000 		.4byte	.LASF168
 2705 0565 1372     		.2byte	0x7213
 2706 0567 0C       		.uleb128 0xc
 2707 0568 EF0C0000 		.4byte	.LASF169
 2708 056c 1472     		.2byte	0x7214
 2709 056e 0C       		.uleb128 0xc
 2710 056f F3100000 		.4byte	.LASF170
 2711 0573 7572     		.2byte	0x7275
 2712 0575 0C       		.uleb128 0xc
 2713 0576 E2140000 		.4byte	.LASF171
 2714 057a 7672     		.2byte	0x7276
 2715 057c 0C       		.uleb128 0xc
 2716 057d C3140000 		.4byte	.LASF172
 2717 0581 7772     		.2byte	0x7277
 2718 0583 0C       		.uleb128 0xc
 2719 0584 E6070000 		.4byte	.LASF173
 2720 0588 7872     		.2byte	0x7278
 2721 058a 0C       		.uleb128 0xc
 2722 058b 5A000000 		.4byte	.LASF174
 2723 058f 7972     		.2byte	0x7279
 2724 0591 0C       		.uleb128 0xc
 2725 0592 BE120000 		.4byte	.LASF175
 2726 0596 7A72     		.2byte	0x727a
 2727 0598 0C       		.uleb128 0xc
ARM GAS  C:\Users\alex\AppData\Local\Temp\ccByxCIb.s 			page 69


 2728 0599 5E070000 		.4byte	.LASF176
 2729 059d 7B72     		.2byte	0x727b
 2730 059f 0C       		.uleb128 0xc
 2731 05a0 760A0000 		.4byte	.LASF177
 2732 05a4 7C72     		.2byte	0x727c
 2733 05a6 0C       		.uleb128 0xc
 2734 05a7 480E0000 		.4byte	.LASF178
 2735 05ab 7D72     		.2byte	0x727d
 2736 05ad 0C       		.uleb128 0xc
 2737 05ae A1080000 		.4byte	.LASF179
 2738 05b2 7E72     		.2byte	0x727e
 2739 05b4 0C       		.uleb128 0xc
 2740 05b5 B5110000 		.4byte	.LASF180
 2741 05b9 D972     		.2byte	0x72d9
 2742 05bb 0C       		.uleb128 0xc
 2743 05bc EB050000 		.4byte	.LASF181
 2744 05c0 3D73     		.2byte	0x733d
 2745 05c2 0C       		.uleb128 0xc
 2746 05c3 4B090000 		.4byte	.LASF182
 2747 05c7 3E73     		.2byte	0x733e
 2748 05c9 0C       		.uleb128 0xc
 2749 05ca 13050000 		.4byte	.LASF183
 2750 05ce 3F73     		.2byte	0x733f
 2751 05d0 0C       		.uleb128 0xc
 2752 05d1 4E010000 		.4byte	.LASF184
 2753 05d5 4073     		.2byte	0x7340
 2754 05d7 0C       		.uleb128 0xc
 2755 05d8 E3030000 		.4byte	.LASF185
 2756 05dc 4173     		.2byte	0x7341
 2757 05de 0C       		.uleb128 0xc
 2758 05df 48060000 		.4byte	.LASF186
 2759 05e3 4273     		.2byte	0x7342
 2760 05e5 0C       		.uleb128 0xc
 2761 05e6 4B000000 		.4byte	.LASF187
 2762 05ea 4373     		.2byte	0x7343
 2763 05ec 0C       		.uleb128 0xc
 2764 05ed D4050000 		.4byte	.LASF188
 2765 05f1 4473     		.2byte	0x7344
 2766 05f3 0C       		.uleb128 0xc
 2767 05f4 00080000 		.4byte	.LASF189
 2768 05f8 4573     		.2byte	0x7345
 2769 05fa 0C       		.uleb128 0xc
 2770 05fb 4D0D0000 		.4byte	.LASF190
 2771 05ff 4673     		.2byte	0x7346
 2772 0601 0C       		.uleb128 0xc
 2773 0602 B6060000 		.4byte	.LASF191
 2774 0606 4773     		.2byte	0x7347
 2775 0608 0C       		.uleb128 0xc
 2776 0609 D30C0000 		.4byte	.LASF192
 2777 060d 4873     		.2byte	0x7348
 2778 060f 0C       		.uleb128 0xc
 2779 0610 84110000 		.4byte	.LASF193
 2780 0614 4973     		.2byte	0x7349
 2781 0616 0C       		.uleb128 0xc
 2782 0617 2A010000 		.4byte	.LASF194
 2783 061b 3075     		.2byte	0x7530
 2784 061d 0C       		.uleb128 0xc
ARM GAS  C:\Users\alex\AppData\Local\Temp\ccByxCIb.s 			page 70


 2785 061e 33010000 		.4byte	.LASF195
 2786 0622 1879     		.2byte	0x7918
 2787 0624 0C       		.uleb128 0xc
 2788 0625 3C010000 		.4byte	.LASF196
 2789 0629 007D     		.2byte	0x7d00
 2790 062b 0C       		.uleb128 0xc
 2791 062c 45010000 		.4byte	.LASF197
 2792 0630 E880     		.2byte	0x80e8
 2793 0632 0C       		.uleb128 0xc
 2794 0633 26120000 		.4byte	.LASF198
 2795 0637 D084     		.2byte	0x84d0
 2796 0639 0C       		.uleb128 0xc
 2797 063a B40A0000 		.4byte	.LASF199
 2798 063e D184     		.2byte	0x84d1
 2799 0640 0C       		.uleb128 0xc
 2800 0641 3F120000 		.4byte	.LASF200
 2801 0645 B888     		.2byte	0x88b8
 2802 0647 00       		.byte	0
 2803 0648 09       		.uleb128 0x9
 2804 0649 1B000000 		.4byte	.LASF201
 2805 064d 05       		.byte	0x5
 2806 064e 7202     		.2byte	0x272
 2807 0650 D0010000 		.4byte	0x1d0
 2808 0654 09       		.uleb128 0x9
 2809 0655 3D090000 		.4byte	.LASF202
 2810 0659 05       		.byte	0x5
 2811 065a 8202     		.2byte	0x282
 2812 065c 60060000 		.4byte	0x660
 2813 0660 0D       		.uleb128 0xd
 2814 0661 1B070000 		.4byte	.LASF208
 2815 0665 10       		.byte	0x10
 2816 0666 05       		.byte	0x5
 2817 0667 4003     		.2byte	0x340
 2818 0669 A2060000 		.4byte	0x6a2
 2819 066d 0E       		.uleb128 0xe
 2820 066e 0C0E0000 		.4byte	.LASF203
 2821 0672 05       		.byte	0x5
 2822 0673 4103     		.2byte	0x341
 2823 0675 700C0000 		.4byte	0xc70
 2824 0679 00       		.byte	0
 2825 067a 0E       		.uleb128 0xe
 2826 067b 50130000 		.4byte	.LASF204
 2827 067f 05       		.byte	0x5
 2828 0680 4203     		.2byte	0x342
 2829 0682 BA000000 		.4byte	0xba
 2830 0686 04       		.byte	0x4
 2831 0687 0E       		.uleb128 0xe
 2832 0688 54100000 		.4byte	.LASF205
 2833 068c 05       		.byte	0x5
 2834 068d 4303     		.2byte	0x343
 2835 068f 41010000 		.4byte	0x141
 2836 0693 08       		.byte	0x8
 2837 0694 0E       		.uleb128 0xe
 2838 0695 1A130000 		.4byte	.LASF206
 2839 0699 05       		.byte	0x5
 2840 069a 4403     		.2byte	0x344
 2841 069c F4000000 		.4byte	0xf4
ARM GAS  C:\Users\alex\AppData\Local\Temp\ccByxCIb.s 			page 71


 2842 06a0 0C       		.byte	0xc
 2843 06a1 00       		.byte	0
 2844 06a2 09       		.uleb128 0x9
 2845 06a3 9D0A0000 		.4byte	.LASF207
 2846 06a7 05       		.byte	0x5
 2847 06a8 8402     		.2byte	0x284
 2848 06aa AE060000 		.4byte	0x6ae
 2849 06ae 0D       		.uleb128 0xd
 2850 06af 28150000 		.4byte	.LASF209
 2851 06b3 10       		.byte	0x10
 2852 06b4 05       		.byte	0x5
 2853 06b5 5303     		.2byte	0x353
 2854 06b7 FD060000 		.4byte	0x6fd
 2855 06bb 0E       		.uleb128 0xe
 2856 06bc 02100000 		.4byte	.LASF210
 2857 06c0 05       		.byte	0x5
 2858 06c1 5403     		.2byte	0x354
 2859 06c3 700C0000 		.4byte	0xc70
 2860 06c7 00       		.byte	0
 2861 06c8 0E       		.uleb128 0xe
 2862 06c9 60120000 		.4byte	.LASF211
 2863 06cd 05       		.byte	0x5
 2864 06ce 5503     		.2byte	0x355
 2865 06d0 700C0000 		.4byte	0xc70
 2866 06d4 04       		.byte	0x4
 2867 06d5 0E       		.uleb128 0xe
 2868 06d6 87080000 		.4byte	.LASF212
 2869 06da 05       		.byte	0x5
 2870 06db 5603     		.2byte	0x356
 2871 06dd 36010000 		.4byte	0x136
 2872 06e1 08       		.byte	0x8
 2873 06e2 0E       		.uleb128 0xe
 2874 06e3 6F010000 		.4byte	.LASF213
 2875 06e7 05       		.byte	0x5
 2876 06e8 5703     		.2byte	0x357
 2877 06ea 36010000 		.4byte	0x136
 2878 06ee 0A       		.byte	0xa
 2879 06ef 0E       		.uleb128 0xe
 2880 06f0 31140000 		.4byte	.LASF214
 2881 06f4 05       		.byte	0x5
 2882 06f5 5803     		.2byte	0x358
 2883 06f7 36010000 		.4byte	0x136
 2884 06fb 0C       		.byte	0xc
 2885 06fc 00       		.byte	0
 2886 06fd 09       		.uleb128 0x9
 2887 06fe E5110000 		.4byte	.LASF215
 2888 0702 05       		.byte	0x5
 2889 0703 8E02     		.2byte	0x28e
 2890 0705 A9000000 		.4byte	0xa9
 2891 0709 09       		.uleb128 0x9
 2892 070a 4A110000 		.4byte	.LASF216
 2893 070e 05       		.byte	0x5
 2894 070f 9002     		.2byte	0x290
 2895 0711 15070000 		.4byte	0x715
 2896 0715 0D       		.uleb128 0xd
 2897 0716 00000000 		.4byte	.LASF217
 2898 071a C0       		.byte	0xc0
ARM GAS  C:\Users\alex\AppData\Local\Temp\ccByxCIb.s 			page 72


 2899 071b 05       		.byte	0x5
 2900 071c AB03     		.2byte	0x3ab
 2901 071e B9090000 		.4byte	0x9b9
 2902 0722 0E       		.uleb128 0xe
 2903 0723 FE0A0000 		.4byte	.LASF218
 2904 0727 05       		.byte	0x5
 2905 0728 AC03     		.2byte	0x3ac
 2906 072a 760C0000 		.4byte	0xc76
 2907 072e 00       		.byte	0
 2908 072f 0E       		.uleb128 0xe
 2909 0730 AF100000 		.4byte	.LASF219
 2910 0734 05       		.byte	0x5
 2911 0735 AE03     		.2byte	0x3ae
 2912 0737 BA000000 		.4byte	0xba
 2913 073b 04       		.byte	0x4
 2914 073c 0E       		.uleb128 0xe
 2915 073d B00C0000 		.4byte	.LASF220
 2916 0741 05       		.byte	0x5
 2917 0742 B003     		.2byte	0x3b0
 2918 0744 760C0000 		.4byte	0xc76
 2919 0748 08       		.byte	0x8
 2920 0749 0E       		.uleb128 0xe
 2921 074a 0C0E0000 		.4byte	.LASF203
 2922 074e 05       		.byte	0x5
 2923 074f B203     		.2byte	0x3b2
 2924 0751 580C0000 		.4byte	0xc58
 2925 0755 0C       		.byte	0xc
 2926 0756 0E       		.uleb128 0xe
 2927 0757 BF090000 		.4byte	.LASF221
 2928 075b 05       		.byte	0x5
 2929 075c B303     		.2byte	0x3b3
 2930 075e 580C0000 		.4byte	0xc58
 2931 0762 10       		.byte	0x10
 2932 0763 0E       		.uleb128 0xe
 2933 0764 060D0000 		.4byte	.LASF222
 2934 0768 05       		.byte	0x5
 2935 0769 B503     		.2byte	0x3b5
 2936 076b 580C0000 		.4byte	0xc58
 2937 076f 14       		.byte	0x14
 2938 0770 0E       		.uleb128 0xe
 2939 0771 B6080000 		.4byte	.LASF223
 2940 0775 05       		.byte	0x5
 2941 0776 B603     		.2byte	0x3b6
 2942 0778 580C0000 		.4byte	0xc58
 2943 077c 18       		.byte	0x18
 2944 077d 0E       		.uleb128 0xe
 2945 077e 48120000 		.4byte	.LASF224
 2946 0782 05       		.byte	0x5
 2947 0783 B803     		.2byte	0x3b8
 2948 0785 7C0C0000 		.4byte	0xc7c
 2949 0789 1C       		.byte	0x1c
 2950 078a 0E       		.uleb128 0xe
 2951 078b 8A0A0000 		.4byte	.LASF225
 2952 078f 05       		.byte	0x5
 2953 0790 BA03     		.2byte	0x3ba
 2954 0792 6A0C0000 		.4byte	0xc6a
 2955 0796 20       		.byte	0x20
ARM GAS  C:\Users\alex\AppData\Local\Temp\ccByxCIb.s 			page 73


 2956 0797 0E       		.uleb128 0xe
 2957 0798 3D070000 		.4byte	.LASF226
 2958 079c 05       		.byte	0x5
 2959 079d BC03     		.2byte	0x3bc
 2960 079f 760C0000 		.4byte	0xc76
 2961 07a3 24       		.byte	0x24
 2962 07a4 0E       		.uleb128 0xe
 2963 07a5 4F0A0000 		.4byte	.LASF227
 2964 07a9 05       		.byte	0x5
 2965 07aa C203     		.2byte	0x3c2
 2966 07ac FD060000 		.4byte	0x6fd
 2967 07b0 28       		.byte	0x28
 2968 07b1 0E       		.uleb128 0xe
 2969 07b2 67120000 		.4byte	.LASF228
 2970 07b6 05       		.byte	0x5
 2971 07b7 C303     		.2byte	0x3c3
 2972 07b9 BA000000 		.4byte	0xba
 2973 07bd 2C       		.byte	0x2c
 2974 07be 0E       		.uleb128 0xe
 2975 07bf EC0F0000 		.4byte	.LASF229
 2976 07c3 05       		.byte	0x5
 2977 07c4 C503     		.2byte	0x3c5
 2978 07c6 5E0C0000 		.4byte	0xc5e
 2979 07ca 30       		.byte	0x30
 2980 07cb 0E       		.uleb128 0xe
 2981 07cc FC030000 		.4byte	.LASF230
 2982 07d0 05       		.byte	0x5
 2983 07d1 C603     		.2byte	0x3c6
 2984 07d3 A4010000 		.4byte	0x1a4
 2985 07d7 34       		.byte	0x34
 2986 07d8 0E       		.uleb128 0xe
 2987 07d9 920A0000 		.4byte	.LASF231
 2988 07dd 05       		.byte	0x5
 2989 07de C703     		.2byte	0x3c7
 2990 07e0 AF010000 		.4byte	0x1af
 2991 07e4 35       		.byte	0x35
 2992 07e5 0E       		.uleb128 0xe
 2993 07e6 9C070000 		.4byte	.LASF232
 2994 07ea 05       		.byte	0x5
 2995 07eb C903     		.2byte	0x3c9
 2996 07ed A4010000 		.4byte	0x1a4
 2997 07f1 36       		.byte	0x36
 2998 07f2 0E       		.uleb128 0xe
 2999 07f3 BC130000 		.4byte	.LASF233
 3000 07f7 05       		.byte	0x5
 3001 07f8 CA03     		.2byte	0x3ca
 3002 07fa 78010000 		.4byte	0x178
 3003 07fe 37       		.byte	0x37
 3004 07ff 0E       		.uleb128 0xe
 3005 0800 35070000 		.4byte	.LASF234
 3006 0804 05       		.byte	0x5
 3007 0805 CB03     		.2byte	0x3cb
 3008 0807 D2000000 		.4byte	0xd2
 3009 080b 38       		.byte	0x38
 3010 080c 0F       		.uleb128 0xf
 3011 080d 4F707400 		.ascii	"Opt\000"
 3012 0811 05       		.byte	0x5
ARM GAS  C:\Users\alex\AppData\Local\Temp\ccByxCIb.s 			page 74


 3013 0812 CC03     		.2byte	0x3cc
 3014 0814 6D010000 		.4byte	0x16d
 3015 0818 3C       		.byte	0x3c
 3016 0819 0E       		.uleb128 0xe
 3017 081a 16040000 		.4byte	.LASF235
 3018 081e 05       		.byte	0x5
 3019 081f CE03     		.2byte	0x3ce
 3020 0821 57010000 		.4byte	0x157
 3021 0825 3E       		.byte	0x3e
 3022 0826 0F       		.uleb128 0xf
 3023 0827 545300   		.ascii	"TS\000"
 3024 082a 05       		.byte	0x5
 3025 082b D003     		.2byte	0x3d0
 3026 082d F4000000 		.4byte	0xf4
 3027 0831 40       		.byte	0x40
 3028 0832 0E       		.uleb128 0xe
 3029 0833 FB0F0000 		.4byte	.LASF236
 3030 0837 05       		.byte	0x5
 3031 0838 D203     		.2byte	0x3d2
 3032 083a 99010000 		.4byte	0x199
 3033 083e 44       		.byte	0x44
 3034 083f 0E       		.uleb128 0xe
 3035 0840 7B080000 		.4byte	.LASF237
 3036 0844 05       		.byte	0x5
 3037 0845 D503     		.2byte	0x3d5
 3038 0847 BA010000 		.4byte	0x1ba
 3039 084b 48       		.byte	0x48
 3040 084c 0E       		.uleb128 0xe
 3041 084d B2040000 		.4byte	.LASF238
 3042 0851 05       		.byte	0x5
 3043 0852 D603     		.2byte	0x3d6
 3044 0854 BA010000 		.4byte	0x1ba
 3045 0858 4C       		.byte	0x4c
 3046 0859 0E       		.uleb128 0xe
 3047 085a 08100000 		.4byte	.LASF239
 3048 085e 05       		.byte	0x5
 3049 085f D703     		.2byte	0x3d7
 3050 0861 BA010000 		.4byte	0x1ba
 3051 0865 50       		.byte	0x50
 3052 0866 0E       		.uleb128 0xe
 3053 0867 D7140000 		.4byte	.LASF240
 3054 086b 05       		.byte	0x5
 3055 086c D903     		.2byte	0x3d9
 3056 086e BA010000 		.4byte	0x1ba
 3057 0872 54       		.byte	0x54
 3058 0873 0E       		.uleb128 0xe
 3059 0874 A60A0000 		.4byte	.LASF241
 3060 0878 05       		.byte	0x5
 3061 0879 DA03     		.2byte	0x3da
 3062 087b BA010000 		.4byte	0x1ba
 3063 087f 58       		.byte	0x58
 3064 0880 0E       		.uleb128 0xe
 3065 0881 50130000 		.4byte	.LASF204
 3066 0885 05       		.byte	0x5
 3067 0886 DD03     		.2byte	0x3dd
 3068 0888 BA000000 		.4byte	0xba
 3069 088c 5C       		.byte	0x5c
ARM GAS  C:\Users\alex\AppData\Local\Temp\ccByxCIb.s 			page 75


 3070 088d 0E       		.uleb128 0xe
 3071 088e 54100000 		.4byte	.LASF205
 3072 0892 05       		.byte	0x5
 3073 0893 DE03     		.2byte	0x3de
 3074 0895 41010000 		.4byte	0x141
 3075 0899 60       		.byte	0x60
 3076 089a 0E       		.uleb128 0xe
 3077 089b 3F0A0000 		.4byte	.LASF242
 3078 089f 05       		.byte	0x5
 3079 08a0 E203     		.2byte	0x3e2
 3080 08a2 A2060000 		.4byte	0x6a2
 3081 08a6 64       		.byte	0x64
 3082 08a7 0E       		.uleb128 0xe
 3083 08a8 30090000 		.4byte	.LASF243
 3084 08ac 05       		.byte	0x5
 3085 08ad E403     		.2byte	0x3e4
 3086 08af F4000000 		.4byte	0xf4
 3087 08b3 74       		.byte	0x74
 3088 08b4 0E       		.uleb128 0xe
 3089 08b5 20090000 		.4byte	.LASF244
 3090 08b9 05       		.byte	0x5
 3091 08ba E503     		.2byte	0x3e5
 3092 08bc F4000000 		.4byte	0xf4
 3093 08c0 78       		.byte	0x78
 3094 08c1 0E       		.uleb128 0xe
 3095 08c2 89140000 		.4byte	.LASF245
 3096 08c6 05       		.byte	0x5
 3097 08c7 EA03     		.2byte	0x3ea
 3098 08c9 820C0000 		.4byte	0xc82
 3099 08cd 7C       		.byte	0x7c
 3100 08ce 0E       		.uleb128 0xe
 3101 08cf 09050000 		.4byte	.LASF246
 3102 08d3 05       		.byte	0x5
 3103 08d4 EE03     		.2byte	0x3ee
 3104 08d6 2B010000 		.4byte	0x12b
 3105 08da 80       		.byte	0x80
 3106 08db 0E       		.uleb128 0xe
 3107 08dc C2080000 		.4byte	.LASF247
 3108 08e0 05       		.byte	0x5
 3109 08e1 EF03     		.2byte	0x3ef
 3110 08e3 2B010000 		.4byte	0x12b
 3111 08e7 84       		.byte	0x84
 3112 08e8 0E       		.uleb128 0xe
 3113 08e9 EB010000 		.4byte	.LASF248
 3114 08ed 05       		.byte	0x5
 3115 08ee F003     		.2byte	0x3f0
 3116 08f0 6D010000 		.4byte	0x16d
 3117 08f4 88       		.byte	0x88
 3118 08f5 0E       		.uleb128 0xe
 3119 08f6 A50C0000 		.4byte	.LASF249
 3120 08fa 05       		.byte	0x5
 3121 08fb F403     		.2byte	0x3f4
 3122 08fd 4C010000 		.4byte	0x14c
 3123 0901 8A       		.byte	0x8a
 3124 0902 0E       		.uleb128 0xe
 3125 0903 E1130000 		.4byte	.LASF250
 3126 0907 05       		.byte	0x5
ARM GAS  C:\Users\alex\AppData\Local\Temp\ccByxCIb.s 			page 76


 3127 0908 F803     		.2byte	0x3f8
 3128 090a FF000000 		.4byte	0xff
 3129 090e 8C       		.byte	0x8c
 3130 090f 0E       		.uleb128 0xe
 3131 0910 C70F0000 		.4byte	.LASF251
 3132 0914 05       		.byte	0x5
 3133 0915 F903     		.2byte	0x3f9
 3134 0917 FF000000 		.4byte	0xff
 3135 091b 8E       		.byte	0x8e
 3136 091c 0E       		.uleb128 0xe
 3137 091d 2A050000 		.4byte	.LASF252
 3138 0921 05       		.byte	0x5
 3139 0922 FA03     		.2byte	0x3fa
 3140 0924 15010000 		.4byte	0x115
 3141 0928 90       		.byte	0x90
 3142 0929 0E       		.uleb128 0xe
 3143 092a BC0C0000 		.4byte	.LASF253
 3144 092e 05       		.byte	0x5
 3145 092f FB03     		.2byte	0x3fb
 3146 0931 F4000000 		.4byte	0xf4
 3147 0935 94       		.byte	0x94
 3148 0936 0E       		.uleb128 0xe
 3149 0937 280B0000 		.4byte	.LASF254
 3150 093b 05       		.byte	0x5
 3151 093c FC03     		.2byte	0x3fc
 3152 093e F4000000 		.4byte	0xf4
 3153 0942 98       		.byte	0x98
 3154 0943 0E       		.uleb128 0xe
 3155 0944 970F0000 		.4byte	.LASF255
 3156 0948 05       		.byte	0x5
 3157 0949 FD03     		.2byte	0x3fd
 3158 094b 20010000 		.4byte	0x120
 3159 094f 9C       		.byte	0x9c
 3160 0950 0E       		.uleb128 0xe
 3161 0951 470F0000 		.4byte	.LASF256
 3162 0955 05       		.byte	0x5
 3163 0956 FE03     		.2byte	0x3fe
 3164 0958 20010000 		.4byte	0x120
 3165 095c A0       		.byte	0xa0
 3166 095d 0E       		.uleb128 0xe
 3167 095e D80D0000 		.4byte	.LASF257
 3168 0962 05       		.byte	0x5
 3169 0963 0004     		.2byte	0x400
 3170 0965 F4000000 		.4byte	0xf4
 3171 0969 A4       		.byte	0xa4
 3172 096a 0E       		.uleb128 0xe
 3173 096b 240F0000 		.4byte	.LASF258
 3174 096f 05       		.byte	0x5
 3175 0970 0104     		.2byte	0x401
 3176 0972 F4000000 		.4byte	0xf4
 3177 0976 A8       		.byte	0xa8
 3178 0977 0E       		.uleb128 0xe
 3179 0978 40060000 		.4byte	.LASF259
 3180 097c 05       		.byte	0x5
 3181 097d 0504     		.2byte	0x405
 3182 097f D2000000 		.4byte	0xd2
 3183 0983 AC       		.byte	0xac
ARM GAS  C:\Users\alex\AppData\Local\Temp\ccByxCIb.s 			page 77


 3184 0984 0E       		.uleb128 0xe
 3185 0985 73080000 		.4byte	.LASF260
 3186 0989 05       		.byte	0x5
 3187 098a 0604     		.2byte	0x406
 3188 098c D2000000 		.4byte	0xd2
 3189 0990 B0       		.byte	0xb0
 3190 0991 0E       		.uleb128 0xe
 3191 0992 5E030000 		.4byte	.LASF261
 3192 0996 05       		.byte	0x5
 3193 0997 1104     		.2byte	0x411
 3194 0999 580C0000 		.4byte	0xc58
 3195 099d B4       		.byte	0xb4
 3196 099e 0E       		.uleb128 0xe
 3197 099f 76030000 		.4byte	.LASF262
 3198 09a3 05       		.byte	0x5
 3199 09a4 1204     		.2byte	0x412
 3200 09a6 580C0000 		.4byte	0xc58
 3201 09aa B8       		.byte	0xb8
 3202 09ab 0E       		.uleb128 0xe
 3203 09ac 55120000 		.4byte	.LASF263
 3204 09b0 05       		.byte	0x5
 3205 09b1 1304     		.2byte	0x413
 3206 09b3 6A0C0000 		.4byte	0xc6a
 3207 09b7 BC       		.byte	0xbc
 3208 09b8 00       		.byte	0
 3209 09b9 09       		.uleb128 0x9
 3210 09ba A5050000 		.4byte	.LASF264
 3211 09be 05       		.byte	0x5
 3212 09bf 9E02     		.2byte	0x29e
 3213 09c1 C5090000 		.4byte	0x9c5
 3214 09c5 0D       		.uleb128 0xd
 3215 09c6 0C0B0000 		.4byte	.LASF265
 3216 09ca 08       		.byte	0x8
 3217 09cb 05       		.byte	0x5
 3218 09cc 1E04     		.2byte	0x41e
 3219 09ce FA090000 		.4byte	0x9fa
 3220 09d2 0E       		.uleb128 0xe
 3221 09d3 6F100000 		.4byte	.LASF266
 3222 09d7 05       		.byte	0x5
 3223 09d8 1F04     		.2byte	0x41f
 3224 09da 580C0000 		.4byte	0xc58
 3225 09de 00       		.byte	0
 3226 09df 0E       		.uleb128 0xe
 3227 09e0 6F010000 		.4byte	.LASF213
 3228 09e4 05       		.byte	0x5
 3229 09e5 2004     		.2byte	0x420
 3230 09e7 57010000 		.4byte	0x157
 3231 09eb 04       		.byte	0x4
 3232 09ec 0E       		.uleb128 0xe
 3233 09ed 31140000 		.4byte	.LASF214
 3234 09f1 05       		.byte	0x5
 3235 09f2 2104     		.2byte	0x421
 3236 09f4 57010000 		.4byte	0x157
 3237 09f8 06       		.byte	0x6
 3238 09f9 00       		.byte	0
 3239 09fa 09       		.uleb128 0x9
 3240 09fb 330F0000 		.4byte	.LASF267
ARM GAS  C:\Users\alex\AppData\Local\Temp\ccByxCIb.s 			page 78


 3241 09ff 05       		.byte	0x5
 3242 0a00 A002     		.2byte	0x2a0
 3243 0a02 060A0000 		.4byte	0xa06
 3244 0a06 05       		.uleb128 0x5
 3245 0a07 04       		.byte	0x4
 3246 0a08 0C0A0000 		.4byte	0xa0c
 3247 0a0c 06       		.uleb128 0x6
 3248 0a0d 1C0A0000 		.4byte	0xa1c
 3249 0a11 07       		.uleb128 0x7
 3250 0a12 BA000000 		.4byte	0xba
 3251 0a16 07       		.uleb128 0x7
 3252 0a17 BA000000 		.4byte	0xba
 3253 0a1b 00       		.byte	0
 3254 0a1c 09       		.uleb128 0x9
 3255 0a1d 2A0E0000 		.4byte	.LASF268
 3256 0a21 05       		.byte	0x5
 3257 0a22 A102     		.2byte	0x2a1
 3258 0a24 280A0000 		.4byte	0xa28
 3259 0a28 0D       		.uleb128 0xd
 3260 0a29 EF0E0000 		.4byte	.LASF269
 3261 0a2d 34       		.byte	0x34
 3262 0a2e 05       		.byte	0x5
 3263 0a2f 2B04     		.2byte	0x42b
 3264 0a31 EC0A0000 		.4byte	0xaec
 3265 0a35 0E       		.uleb128 0xe
 3266 0a36 BF100000 		.4byte	.LASF270
 3267 0a3a 05       		.byte	0x5
 3268 0a3b 2C04     		.2byte	0x42c
 3269 0a3d 62010000 		.4byte	0x162
 3270 0a41 00       		.byte	0
 3271 0a42 0E       		.uleb128 0xe
 3272 0a43 8A0A0000 		.4byte	.LASF225
 3273 0a47 05       		.byte	0x5
 3274 0a48 2D04     		.2byte	0x42d
 3275 0a4a 6A0C0000 		.4byte	0xc6a
 3276 0a4e 04       		.byte	0x4
 3277 0a4f 0E       		.uleb128 0xe
 3278 0a50 14090000 		.4byte	.LASF271
 3279 0a54 05       		.byte	0x5
 3280 0a55 2E04     		.2byte	0x42e
 3281 0a57 FA090000 		.4byte	0x9fa
 3282 0a5b 08       		.byte	0x8
 3283 0a5c 0E       		.uleb128 0xe
 3284 0a5d 90140000 		.4byte	.LASF272
 3285 0a61 05       		.byte	0x5
 3286 0a62 2F04     		.2byte	0x42f
 3287 0a64 BA000000 		.4byte	0xba
 3288 0a68 0C       		.byte	0xc
 3289 0a69 0E       		.uleb128 0xe
 3290 0a6a 0C0E0000 		.4byte	.LASF203
 3291 0a6e 05       		.byte	0x5
 3292 0a6f 3004     		.2byte	0x430
 3293 0a71 990C0000 		.4byte	0xc99
 3294 0a75 10       		.byte	0x10
 3295 0a76 0E       		.uleb128 0xe
 3296 0a77 BF090000 		.4byte	.LASF221
 3297 0a7b 05       		.byte	0x5
ARM GAS  C:\Users\alex\AppData\Local\Temp\ccByxCIb.s 			page 79


 3298 0a7c 3104     		.2byte	0x431
 3299 0a7e 990C0000 		.4byte	0xc99
 3300 0a82 14       		.byte	0x14
 3301 0a83 0E       		.uleb128 0xe
 3302 0a84 72150000 		.4byte	.LASF273
 3303 0a88 05       		.byte	0x5
 3304 0a89 3204     		.2byte	0x432
 3305 0a8b BA010000 		.4byte	0x1ba
 3306 0a8f 18       		.byte	0x18
 3307 0a90 0E       		.uleb128 0xe
 3308 0a91 A0060000 		.4byte	.LASF274
 3309 0a95 05       		.byte	0x5
 3310 0a96 3304     		.2byte	0x433
 3311 0a98 BA010000 		.4byte	0x1ba
 3312 0a9c 1C       		.byte	0x1c
 3313 0a9d 0F       		.uleb128 0xf
 3314 0a9e 446C7900 		.ascii	"Dly\000"
 3315 0aa2 05       		.byte	0x5
 3316 0aa3 3404     		.2byte	0x434
 3317 0aa5 BA010000 		.4byte	0x1ba
 3318 0aa9 20       		.byte	0x20
 3319 0aaa 0E       		.uleb128 0xe
 3320 0aab 3A0B0000 		.4byte	.LASF275
 3321 0aaf 05       		.byte	0x5
 3322 0ab0 3504     		.2byte	0x435
 3323 0ab2 BA010000 		.4byte	0x1ba
 3324 0ab6 24       		.byte	0x24
 3325 0ab7 0F       		.uleb128 0xf
 3326 0ab8 4F707400 		.ascii	"Opt\000"
 3327 0abc 05       		.byte	0x5
 3328 0abd 3604     		.2byte	0x436
 3329 0abf 6D010000 		.4byte	0x16d
 3330 0ac3 28       		.byte	0x28
 3331 0ac4 0E       		.uleb128 0xe
 3332 0ac5 95030000 		.4byte	.LASF276
 3333 0ac9 05       		.byte	0x5
 3334 0aca 3704     		.2byte	0x437
 3335 0acc A4010000 		.4byte	0x1a4
 3336 0ad0 2A       		.byte	0x2a
 3337 0ad1 0E       		.uleb128 0xe
 3338 0ad2 5E030000 		.4byte	.LASF261
 3339 0ad6 05       		.byte	0x5
 3340 0ad7 3904     		.2byte	0x439
 3341 0ad9 990C0000 		.4byte	0xc99
 3342 0add 2C       		.byte	0x2c
 3343 0ade 0E       		.uleb128 0xe
 3344 0adf 76030000 		.4byte	.LASF262
 3345 0ae3 05       		.byte	0x5
 3346 0ae4 3A04     		.2byte	0x43a
 3347 0ae6 990C0000 		.4byte	0xc99
 3348 0aea 30       		.byte	0x30
 3349 0aeb 00       		.byte	0
 3350 0aec 09       		.uleb128 0x9
 3351 0aed 0E070000 		.4byte	.LASF277
 3352 0af1 05       		.byte	0x5
 3353 0af2 A202     		.2byte	0x2a2
 3354 0af4 F80A0000 		.4byte	0xaf8
ARM GAS  C:\Users\alex\AppData\Local\Temp\ccByxCIb.s 			page 80


 3355 0af8 0D       		.uleb128 0xd
 3356 0af9 3C080000 		.4byte	.LASF278
 3357 0afd 08       		.byte	0x8
 3358 0afe 05       		.byte	0x5
 3359 0aff 4004     		.2byte	0x440
 3360 0b01 2D0B0000 		.4byte	0xb2d
 3361 0b05 0E       		.uleb128 0xe
 3362 0b06 6F100000 		.4byte	.LASF266
 3363 0b0a 05       		.byte	0x5
 3364 0b0b 4104     		.2byte	0x441
 3365 0b0d 990C0000 		.4byte	0xc99
 3366 0b11 00       		.byte	0
 3367 0b12 0E       		.uleb128 0xe
 3368 0b13 6F010000 		.4byte	.LASF213
 3369 0b17 05       		.byte	0x5
 3370 0b18 4204     		.2byte	0x442
 3371 0b1a 57010000 		.4byte	0x157
 3372 0b1e 04       		.byte	0x4
 3373 0b1f 0E       		.uleb128 0xe
 3374 0b20 31140000 		.4byte	.LASF214
 3375 0b24 05       		.byte	0x5
 3376 0b25 4304     		.2byte	0x443
 3377 0b27 57010000 		.4byte	0x157
 3378 0b2b 06       		.byte	0x6
 3379 0b2c 00       		.byte	0
 3380 0b2d 09       		.uleb128 0x9
 3381 0b2e 5B060000 		.4byte	.LASF279
 3382 0b32 05       		.byte	0x5
 3383 0b33 A502     		.2byte	0x2a5
 3384 0b35 390B0000 		.4byte	0xb39
 3385 0b39 0D       		.uleb128 0xd
 3386 0b3a 8A130000 		.4byte	.LASF280
 3387 0b3e 20       		.byte	0x20
 3388 0b3f 05       		.byte	0x5
 3389 0b40 DD02     		.2byte	0x2dd
 3390 0b42 AF0B0000 		.4byte	0xbaf
 3391 0b46 0E       		.uleb128 0xe
 3392 0b47 BF090000 		.4byte	.LASF221
 3393 0b4b 05       		.byte	0x5
 3394 0b4c DE02     		.2byte	0x2de
 3395 0b4e 5E0C0000 		.4byte	0xc5e
 3396 0b52 00       		.byte	0
 3397 0b53 0E       		.uleb128 0xe
 3398 0b54 0C0E0000 		.4byte	.LASF203
 3399 0b58 05       		.byte	0x5
 3400 0b59 DF02     		.2byte	0x2df
 3401 0b5b 5E0C0000 		.4byte	0xc5e
 3402 0b5f 04       		.byte	0x4
 3403 0b60 0E       		.uleb128 0xe
 3404 0b61 520B0000 		.4byte	.LASF281
 3405 0b65 05       		.byte	0x5
 3406 0b66 E002     		.2byte	0x2e0
 3407 0b68 580C0000 		.4byte	0xc58
 3408 0b6c 08       		.byte	0x8
 3409 0b6d 0E       		.uleb128 0xe
 3410 0b6e 26140000 		.4byte	.LASF282
 3411 0b72 05       		.byte	0x5
ARM GAS  C:\Users\alex\AppData\Local\Temp\ccByxCIb.s 			page 81


 3412 0b73 E102     		.2byte	0x2e1
 3413 0b75 640C0000 		.4byte	0xc64
 3414 0b79 0C       		.byte	0xc
 3415 0b7a 0E       		.uleb128 0xe
 3416 0b7b 8D0D0000 		.4byte	.LASF283
 3417 0b7f 05       		.byte	0x5
 3418 0b80 E202     		.2byte	0x2e2
 3419 0b82 640C0000 		.4byte	0xc64
 3420 0b86 10       		.byte	0x10
 3421 0b87 0E       		.uleb128 0xe
 3422 0b88 CA040000 		.4byte	.LASF284
 3423 0b8c 05       		.byte	0x5
 3424 0b8d E302     		.2byte	0x2e3
 3425 0b8f BA000000 		.4byte	0xba
 3426 0b93 14       		.byte	0x14
 3427 0b94 0E       		.uleb128 0xe
 3428 0b95 E40E0000 		.4byte	.LASF285
 3429 0b99 05       		.byte	0x5
 3430 0b9a E402     		.2byte	0x2e4
 3431 0b9c 41010000 		.4byte	0x141
 3432 0ba0 18       		.byte	0x18
 3433 0ba1 0E       		.uleb128 0xe
 3434 0ba2 A40E0000 		.4byte	.LASF286
 3435 0ba6 05       		.byte	0x5
 3436 0ba7 E502     		.2byte	0x2e5
 3437 0ba9 F4000000 		.4byte	0xf4
 3438 0bad 1C       		.byte	0x1c
 3439 0bae 00       		.byte	0
 3440 0baf 09       		.uleb128 0x9
 3441 0bb0 EA120000 		.4byte	.LASF287
 3442 0bb4 05       		.byte	0x5
 3443 0bb5 A602     		.2byte	0x2a6
 3444 0bb7 BB0B0000 		.4byte	0xbbb
 3445 0bbb 0D       		.uleb128 0xd
 3446 0bbc 3F140000 		.4byte	.LASF288
 3447 0bc0 0C       		.byte	0xc
 3448 0bc1 05       		.byte	0x5
 3449 0bc2 E902     		.2byte	0x2e9
 3450 0bc4 F00B0000 		.4byte	0xbf0
 3451 0bc8 0E       		.uleb128 0xe
 3452 0bc9 13100000 		.4byte	.LASF289
 3453 0bcd 05       		.byte	0x5
 3454 0bce EA02     		.2byte	0x2ea
 3455 0bd0 5E0C0000 		.4byte	0xc5e
 3456 0bd4 00       		.byte	0
 3457 0bd5 0E       		.uleb128 0xe
 3458 0bd6 5E040000 		.4byte	.LASF290
 3459 0bda 05       		.byte	0x5
 3460 0bdb EB02     		.2byte	0x2eb
 3461 0bdd 5E0C0000 		.4byte	0xc5e
 3462 0be1 04       		.byte	0x4
 3463 0be2 0E       		.uleb128 0xe
 3464 0be3 6F010000 		.4byte	.LASF213
 3465 0be7 05       		.byte	0x5
 3466 0be8 EC02     		.2byte	0x2ec
 3467 0bea 57010000 		.4byte	0x157
 3468 0bee 08       		.byte	0x8
ARM GAS  C:\Users\alex\AppData\Local\Temp\ccByxCIb.s 			page 82


 3469 0bef 00       		.byte	0
 3470 0bf0 09       		.uleb128 0x9
 3471 0bf1 A30F0000 		.4byte	.LASF291
 3472 0bf5 05       		.byte	0x5
 3473 0bf6 A702     		.2byte	0x2a7
 3474 0bf8 FC0B0000 		.4byte	0xbfc
 3475 0bfc 0D       		.uleb128 0xd
 3476 0bfd D4040000 		.4byte	.LASF292
 3477 0c01 20       		.byte	0x20
 3478 0c02 05       		.byte	0x5
 3479 0c03 FF02     		.2byte	0x2ff
 3480 0c05 580C0000 		.4byte	0xc58
 3481 0c09 0E       		.uleb128 0xe
 3482 0c0a BF100000 		.4byte	.LASF270
 3483 0c0e 05       		.byte	0x5
 3484 0c0f 0003     		.2byte	0x300
 3485 0c11 62010000 		.4byte	0x162
 3486 0c15 00       		.byte	0
 3487 0c16 0E       		.uleb128 0xe
 3488 0c17 8A0A0000 		.4byte	.LASF225
 3489 0c1b 05       		.byte	0x5
 3490 0c1c 0103     		.2byte	0x301
 3491 0c1e 6A0C0000 		.4byte	0xc6a
 3492 0c22 04       		.byte	0x4
 3493 0c23 0E       		.uleb128 0xe
 3494 0c24 D30F0000 		.4byte	.LASF293
 3495 0c28 05       		.byte	0x5
 3496 0c29 0203     		.2byte	0x302
 3497 0c2b AF0B0000 		.4byte	0xbaf
 3498 0c2f 08       		.byte	0x8
 3499 0c30 0E       		.uleb128 0xe
 3500 0c31 5E030000 		.4byte	.LASF261
 3501 0c35 05       		.byte	0x5
 3502 0c36 0403     		.2byte	0x304
 3503 0c38 BA000000 		.4byte	0xba
 3504 0c3c 14       		.byte	0x14
 3505 0c3d 0E       		.uleb128 0xe
 3506 0c3e 76030000 		.4byte	.LASF262
 3507 0c42 05       		.byte	0x5
 3508 0c43 0503     		.2byte	0x305
 3509 0c45 BA000000 		.4byte	0xba
 3510 0c49 18       		.byte	0x18
 3511 0c4a 0E       		.uleb128 0xe
 3512 0c4b 55120000 		.4byte	.LASF263
 3513 0c4f 05       		.byte	0x5
 3514 0c50 0603     		.2byte	0x306
 3515 0c52 6A0C0000 		.4byte	0xc6a
 3516 0c56 1C       		.byte	0x1c
 3517 0c57 00       		.byte	0
 3518 0c58 05       		.uleb128 0x5
 3519 0c59 04       		.byte	0x4
 3520 0c5a 09070000 		.4byte	0x709
 3521 0c5e 05       		.uleb128 0x5
 3522 0c5f 04       		.byte	0x4
 3523 0c60 2D0B0000 		.4byte	0xb2d
 3524 0c64 05       		.uleb128 0x5
 3525 0c65 04       		.byte	0x4
ARM GAS  C:\Users\alex\AppData\Local\Temp\ccByxCIb.s 			page 83


 3526 0c66 F00B0000 		.4byte	0xbf0
 3527 0c6a 05       		.uleb128 0x5
 3528 0c6b 04       		.byte	0x4
 3529 0c6c 25000000 		.4byte	0x25
 3530 0c70 05       		.uleb128 0x5
 3531 0c71 04       		.byte	0x4
 3532 0c72 54060000 		.4byte	0x654
 3533 0c76 05       		.uleb128 0x5
 3534 0c77 04       		.byte	0x4
 3535 0c78 C7000000 		.4byte	0xc7
 3536 0c7c 05       		.uleb128 0x5
 3537 0c7d 04       		.byte	0x4
 3538 0c7e B9090000 		.4byte	0x9b9
 3539 0c82 10       		.uleb128 0x10
 3540 0c83 8E010000 		.4byte	0x18e
 3541 0c87 920C0000 		.4byte	0xc92
 3542 0c8b 11       		.uleb128 0x11
 3543 0c8c 920C0000 		.4byte	0xc92
 3544 0c90 00       		.byte	0
 3545 0c91 00       		.byte	0
 3546 0c92 03       		.uleb128 0x3
 3547 0c93 04       		.byte	0x4
 3548 0c94 07       		.byte	0x7
 3549 0c95 B6100000 		.4byte	.LASF294
 3550 0c99 05       		.uleb128 0x5
 3551 0c9a 04       		.byte	0x4
 3552 0c9b 1C0A0000 		.4byte	0xa1c
 3553 0c9f 12       		.uleb128 0x12
 3554 0ca0 A6090000 		.4byte	.LASF311
 3555 0ca4 01       		.byte	0x1
 3556 0ca5 68       		.byte	0x68
 3557 0ca6 00000000 		.4byte	.LFB0
 3558 0caa F0000000 		.4byte	.LFE0-.LFB0
 3559 0cae 01       		.uleb128 0x1
 3560 0caf 9C       		.byte	0x9c
 3561 0cb0 330D0000 		.4byte	0xd33
 3562 0cb4 13       		.uleb128 0x13
 3563 0cb5 78150000 		.4byte	.LASF295
 3564 0cb9 01       		.byte	0x1
 3565 0cba 68       		.byte	0x68
 3566 0cbb 990C0000 		.4byte	0xc99
 3567 0cbf 02       		.uleb128 0x2
 3568 0cc0 91       		.byte	0x91
 3569 0cc1 6C       		.sleb128 -20
 3570 0cc2 13       		.uleb128 0x13
 3571 0cc3 44090000 		.4byte	.LASF296
 3572 0cc7 01       		.byte	0x1
 3573 0cc8 69       		.byte	0x69
 3574 0cc9 6A0C0000 		.4byte	0xc6a
 3575 0ccd 02       		.uleb128 0x2
 3576 0cce 91       		.byte	0x91
 3577 0ccf 68       		.sleb128 -24
 3578 0cd0 14       		.uleb128 0x14
 3579 0cd1 646C7900 		.ascii	"dly\000"
 3580 0cd5 01       		.byte	0x1
 3581 0cd6 6A       		.byte	0x6a
 3582 0cd7 BA010000 		.4byte	0x1ba
ARM GAS  C:\Users\alex\AppData\Local\Temp\ccByxCIb.s 			page 84


 3583 0cdb 02       		.uleb128 0x2
 3584 0cdc 91       		.byte	0x91
 3585 0cdd 64       		.sleb128 -28
 3586 0cde 13       		.uleb128 0x13
 3587 0cdf 13130000 		.4byte	.LASF297
 3588 0ce3 01       		.byte	0x1
 3589 0ce4 6B       		.byte	0x6b
 3590 0ce5 BA010000 		.4byte	0x1ba
 3591 0ce9 02       		.uleb128 0x2
 3592 0cea 91       		.byte	0x91
 3593 0ceb 60       		.sleb128 -32
 3594 0cec 14       		.uleb128 0x14
 3595 0ced 6F707400 		.ascii	"opt\000"
 3596 0cf1 01       		.byte	0x1
 3597 0cf2 6C       		.byte	0x6c
 3598 0cf3 6D010000 		.4byte	0x16d
 3599 0cf7 02       		.uleb128 0x2
 3600 0cf8 91       		.byte	0x91
 3601 0cf9 00       		.sleb128 0
 3602 0cfa 13       		.uleb128 0x13
 3603 0cfb CD060000 		.4byte	.LASF298
 3604 0cff 01       		.byte	0x1
 3605 0d00 6D       		.byte	0x6d
 3606 0d01 FA090000 		.4byte	0x9fa
 3607 0d05 02       		.uleb128 0x2
 3608 0d06 91       		.byte	0x91
 3609 0d07 04       		.sleb128 4
 3610 0d08 13       		.uleb128 0x13
 3611 0d09 4A020000 		.4byte	.LASF299
 3612 0d0d 01       		.byte	0x1
 3613 0d0e 6E       		.byte	0x6e
 3614 0d0f BA000000 		.4byte	0xba
 3615 0d13 02       		.uleb128 0x2
 3616 0d14 91       		.byte	0x91
 3617 0d15 08       		.sleb128 8
 3618 0d16 13       		.uleb128 0x13
 3619 0d17 A0090000 		.4byte	.LASF300
 3620 0d1b 01       		.byte	0x1
 3621 0d1c 6F       		.byte	0x6f
 3622 0d1d 330D0000 		.4byte	0xd33
 3623 0d21 02       		.uleb128 0x2
 3624 0d22 91       		.byte	0x91
 3625 0d23 0C       		.sleb128 12
 3626 0d24 15       		.uleb128 0x15
 3627 0d25 CD050000 		.4byte	.LASF301
 3628 0d29 01       		.byte	0x1
 3629 0d2a 71       		.byte	0x71
 3630 0d2b DD000000 		.4byte	0xdd
 3631 0d2f 02       		.uleb128 0x2
 3632 0d30 91       		.byte	0x91
 3633 0d31 74       		.sleb128 -12
 3634 0d32 00       		.byte	0
 3635 0d33 05       		.uleb128 0x5
 3636 0d34 04       		.byte	0x4
 3637 0d35 48060000 		.4byte	0x648
 3638 0d39 16       		.uleb128 0x16
 3639 0d3a 69110000 		.4byte	.LASF303
ARM GAS  C:\Users\alex\AppData\Local\Temp\ccByxCIb.s 			page 85


 3640 0d3e 01       		.byte	0x1
 3641 0d3f D4       		.byte	0xd4
 3642 0d40 37000000 		.4byte	0x37
 3643 0d44 00000000 		.4byte	.LFB1
 3644 0d48 EC000000 		.4byte	.LFE1-.LFB1
 3645 0d4c 01       		.uleb128 0x1
 3646 0d4d 9C       		.byte	0x9c
 3647 0d4e 8B0D0000 		.4byte	0xd8b
 3648 0d52 13       		.uleb128 0x13
 3649 0d53 78150000 		.4byte	.LASF295
 3650 0d57 01       		.byte	0x1
 3651 0d58 D4       		.byte	0xd4
 3652 0d59 990C0000 		.4byte	0xc99
 3653 0d5d 02       		.uleb128 0x2
 3654 0d5e 91       		.byte	0x91
 3655 0d5f 6C       		.sleb128 -20
 3656 0d60 13       		.uleb128 0x13
 3657 0d61 A0090000 		.4byte	.LASF300
 3658 0d65 01       		.byte	0x1
 3659 0d66 D5       		.byte	0xd5
 3660 0d67 330D0000 		.4byte	0xd33
 3661 0d6b 02       		.uleb128 0x2
 3662 0d6c 91       		.byte	0x91
 3663 0d6d 68       		.sleb128 -24
 3664 0d6e 17       		.uleb128 0x17
 3665 0d6f 65727200 		.ascii	"err\000"
 3666 0d73 01       		.byte	0x1
 3667 0d74 D7       		.byte	0xd7
 3668 0d75 48060000 		.4byte	0x648
 3669 0d79 02       		.uleb128 0x2
 3670 0d7a 91       		.byte	0x91
 3671 0d7b 74       		.sleb128 -12
 3672 0d7c 15       		.uleb128 0x15
 3673 0d7d 1B100000 		.4byte	.LASF302
 3674 0d81 01       		.byte	0x1
 3675 0d82 D8       		.byte	0xd8
 3676 0d83 37000000 		.4byte	0x37
 3677 0d87 02       		.uleb128 0x2
 3678 0d88 91       		.byte	0x91
 3679 0d89 77       		.sleb128 -9
 3680 0d8a 00       		.byte	0
 3681 0d8b 18       		.uleb128 0x18
 3682 0d8c 5B150000 		.4byte	.LASF304
 3683 0d90 01       		.byte	0x1
 3684 0d91 3701     		.2byte	0x137
 3685 0d93 BA010000 		.4byte	0x1ba
 3686 0d97 00000000 		.4byte	.LFB2
 3687 0d9b 18010000 		.4byte	.LFE2-.LFB2
 3688 0d9f 01       		.uleb128 0x1
 3689 0da0 9C       		.byte	0x9c
 3690 0da1 E20D0000 		.4byte	0xde2
 3691 0da5 19       		.uleb128 0x19
 3692 0da6 78150000 		.4byte	.LASF295
 3693 0daa 01       		.byte	0x1
 3694 0dab 3701     		.2byte	0x137
 3695 0dad 990C0000 		.4byte	0xc99
 3696 0db1 02       		.uleb128 0x2
ARM GAS  C:\Users\alex\AppData\Local\Temp\ccByxCIb.s 			page 86


 3697 0db2 91       		.byte	0x91
 3698 0db3 6C       		.sleb128 -20
 3699 0db4 19       		.uleb128 0x19
 3700 0db5 A0090000 		.4byte	.LASF300
 3701 0db9 01       		.byte	0x1
 3702 0dba 3801     		.2byte	0x138
 3703 0dbc 330D0000 		.4byte	0xd33
 3704 0dc0 02       		.uleb128 0x2
 3705 0dc1 91       		.byte	0x91
 3706 0dc2 68       		.sleb128 -24
 3707 0dc3 1A       		.uleb128 0x1a
 3708 0dc4 410E0000 		.4byte	.LASF305
 3709 0dc8 01       		.byte	0x1
 3710 0dc9 3A01     		.2byte	0x13a
 3711 0dcb BA010000 		.4byte	0x1ba
 3712 0dcf 02       		.uleb128 0x2
 3713 0dd0 91       		.byte	0x91
 3714 0dd1 74       		.sleb128 -12
 3715 0dd2 1B       		.uleb128 0x1b
 3716 0dd3 65727200 		.ascii	"err\000"
 3717 0dd7 01       		.byte	0x1
 3718 0dd8 3B01     		.2byte	0x13b
 3719 0dda 48060000 		.4byte	0x648
 3720 0dde 02       		.uleb128 0x2
 3721 0ddf 91       		.byte	0x91
 3722 0de0 72       		.sleb128 -14
 3723 0de1 00       		.byte	0
 3724 0de2 18       		.uleb128 0x18
 3725 0de3 BF040000 		.4byte	.LASF306
 3726 0de7 01       		.byte	0x1
 3727 0de8 A501     		.2byte	0x1a5
 3728 0dea 37000000 		.4byte	0x37
 3729 0dee 00000000 		.4byte	.LFB3
 3730 0df2 DC000000 		.4byte	.LFE3-.LFB3
 3731 0df6 01       		.uleb128 0x1
 3732 0df7 9C       		.byte	0x9c
 3733 0df8 390E0000 		.4byte	0xe39
 3734 0dfc 19       		.uleb128 0x19
 3735 0dfd 78150000 		.4byte	.LASF295
 3736 0e01 01       		.byte	0x1
 3737 0e02 A501     		.2byte	0x1a5
 3738 0e04 990C0000 		.4byte	0xc99
 3739 0e08 02       		.uleb128 0x2
 3740 0e09 91       		.byte	0x91
 3741 0e0a 6C       		.sleb128 -20
 3742 0e0b 19       		.uleb128 0x19
 3743 0e0c A0090000 		.4byte	.LASF300
 3744 0e10 01       		.byte	0x1
 3745 0e11 A601     		.2byte	0x1a6
 3746 0e13 330D0000 		.4byte	0xd33
 3747 0e17 02       		.uleb128 0x2
 3748 0e18 91       		.byte	0x91
 3749 0e19 68       		.sleb128 -24
 3750 0e1a 1B       		.uleb128 0x1b
 3751 0e1b 65727200 		.ascii	"err\000"
 3752 0e1f 01       		.byte	0x1
 3753 0e20 A801     		.2byte	0x1a8
ARM GAS  C:\Users\alex\AppData\Local\Temp\ccByxCIb.s 			page 87


 3754 0e22 48060000 		.4byte	0x648
 3755 0e26 02       		.uleb128 0x2
 3756 0e27 91       		.byte	0x91
 3757 0e28 74       		.sleb128 -12
 3758 0e29 1A       		.uleb128 0x1a
 3759 0e2a 1B100000 		.4byte	.LASF302
 3760 0e2e 01       		.byte	0x1
 3761 0e2f A901     		.2byte	0x1a9
 3762 0e31 37000000 		.4byte	0x37
 3763 0e35 02       		.uleb128 0x2
 3764 0e36 91       		.byte	0x91
 3765 0e37 77       		.sleb128 -9
 3766 0e38 00       		.byte	0
 3767 0e39 18       		.uleb128 0x18
 3768 0e3a 7C130000 		.4byte	.LASF307
 3769 0e3e 01       		.byte	0x1
 3770 0e3f 0402     		.2byte	0x204
 3771 0e41 A4010000 		.4byte	0x1a4
 3772 0e45 00000000 		.4byte	.LFB4
 3773 0e49 70000000 		.4byte	.LFE4-.LFB4
 3774 0e4d 01       		.uleb128 0x1
 3775 0e4e 9C       		.byte	0x9c
 3776 0e4f 900E0000 		.4byte	0xe90
 3777 0e53 19       		.uleb128 0x19
 3778 0e54 78150000 		.4byte	.LASF295
 3779 0e58 01       		.byte	0x1
 3780 0e59 0402     		.2byte	0x204
 3781 0e5b 990C0000 		.4byte	0xc99
 3782 0e5f 02       		.uleb128 0x2
 3783 0e60 91       		.byte	0x91
 3784 0e61 6C       		.sleb128 -20
 3785 0e62 19       		.uleb128 0x19
 3786 0e63 A0090000 		.4byte	.LASF300
 3787 0e67 01       		.byte	0x1
 3788 0e68 0502     		.2byte	0x205
 3789 0e6a 330D0000 		.4byte	0xd33
 3790 0e6e 02       		.uleb128 0x2
 3791 0e6f 91       		.byte	0x91
 3792 0e70 68       		.sleb128 -24
 3793 0e71 1A       		.uleb128 0x1a
 3794 0e72 82120000 		.4byte	.LASF308
 3795 0e76 01       		.byte	0x1
 3796 0e77 0702     		.2byte	0x207
 3797 0e79 A4010000 		.4byte	0x1a4
 3798 0e7d 02       		.uleb128 0x2
 3799 0e7e 91       		.byte	0x91
 3800 0e7f 73       		.sleb128 -13
 3801 0e80 1A       		.uleb128 0x1a
 3802 0e81 CD050000 		.4byte	.LASF301
 3803 0e85 01       		.byte	0x1
 3804 0e86 0802     		.2byte	0x208
 3805 0e88 DD000000 		.4byte	0xdd
 3806 0e8c 02       		.uleb128 0x2
 3807 0e8d 91       		.byte	0x91
 3808 0e8e 74       		.sleb128 -12
 3809 0e8f 00       		.byte	0
 3810 0e90 18       		.uleb128 0x18
ARM GAS  C:\Users\alex\AppData\Local\Temp\ccByxCIb.s 			page 88


 3811 0e91 6E050000 		.4byte	.LASF309
 3812 0e95 01       		.byte	0x1
 3813 0e96 5F02     		.2byte	0x25f
 3814 0e98 37000000 		.4byte	0x37
 3815 0e9c 00000000 		.4byte	.LFB5
 3816 0ea0 40010000 		.4byte	.LFE5-.LFB5
 3817 0ea4 01       		.uleb128 0x1
 3818 0ea5 9C       		.byte	0x9c
 3819 0ea6 140F0000 		.4byte	0xf14
 3820 0eaa 19       		.uleb128 0x19
 3821 0eab 78150000 		.4byte	.LASF295
 3822 0eaf 01       		.byte	0x1
 3823 0eb0 5F02     		.2byte	0x25f
 3824 0eb2 990C0000 		.4byte	0xc99
 3825 0eb6 02       		.uleb128 0x2
 3826 0eb7 91       		.byte	0x91
 3827 0eb8 64       		.sleb128 -28
 3828 0eb9 1C       		.uleb128 0x1c
 3829 0eba 6F707400 		.ascii	"opt\000"
 3830 0ebe 01       		.byte	0x1
 3831 0ebf 6002     		.2byte	0x260
 3832 0ec1 6D010000 		.4byte	0x16d
 3833 0ec5 02       		.uleb128 0x2
 3834 0ec6 91       		.byte	0x91
 3835 0ec7 62       		.sleb128 -30
 3836 0ec8 19       		.uleb128 0x19
 3837 0ec9 4A020000 		.4byte	.LASF299
 3838 0ecd 01       		.byte	0x1
 3839 0ece 6102     		.2byte	0x261
 3840 0ed0 BA000000 		.4byte	0xba
 3841 0ed4 02       		.uleb128 0x2
 3842 0ed5 91       		.byte	0x91
 3843 0ed6 5C       		.sleb128 -36
 3844 0ed7 19       		.uleb128 0x19
 3845 0ed8 A0090000 		.4byte	.LASF300
 3846 0edc 01       		.byte	0x1
 3847 0edd 6202     		.2byte	0x262
 3848 0edf 330D0000 		.4byte	0xd33
 3849 0ee3 02       		.uleb128 0x2
 3850 0ee4 91       		.byte	0x91
 3851 0ee5 58       		.sleb128 -40
 3852 0ee6 1A       		.uleb128 0x1a
 3853 0ee7 48070000 		.4byte	.LASF310
 3854 0eeb 01       		.byte	0x1
 3855 0eec 6402     		.2byte	0x264
 3856 0eee FA090000 		.4byte	0x9fa
 3857 0ef2 02       		.uleb128 0x2
 3858 0ef3 91       		.byte	0x91
 3859 0ef4 70       		.sleb128 -16
 3860 0ef5 1B       		.uleb128 0x1b
 3861 0ef6 65727200 		.ascii	"err\000"
 3862 0efa 01       		.byte	0x1
 3863 0efb 6502     		.2byte	0x265
 3864 0efd 48060000 		.4byte	0x648
 3865 0f01 02       		.uleb128 0x2
 3866 0f02 91       		.byte	0x91
 3867 0f03 6E       		.sleb128 -18
ARM GAS  C:\Users\alex\AppData\Local\Temp\ccByxCIb.s 			page 89


 3868 0f04 1A       		.uleb128 0x1a
 3869 0f05 1B100000 		.4byte	.LASF302
 3870 0f09 01       		.byte	0x1
 3871 0f0a 6602     		.2byte	0x266
 3872 0f0c 37000000 		.4byte	0x37
 3873 0f10 02       		.uleb128 0x2
 3874 0f11 91       		.byte	0x91
 3875 0f12 77       		.sleb128 -9
 3876 0f13 00       		.byte	0
 3877 0f14 1D       		.uleb128 0x1d
 3878 0f15 E0040000 		.4byte	.LASF312
 3879 0f19 01       		.byte	0x1
 3880 0f1a D002     		.2byte	0x2d0
 3881 0f1c 00000000 		.4byte	.LFB6
 3882 0f20 64000000 		.4byte	.LFE6-.LFB6
 3883 0f24 01       		.uleb128 0x1
 3884 0f25 9C       		.byte	0x9c
 3885 0f26 3A0F0000 		.4byte	0xf3a
 3886 0f2a 19       		.uleb128 0x19
 3887 0f2b 78150000 		.4byte	.LASF295
 3888 0f2f 01       		.byte	0x1
 3889 0f30 D002     		.2byte	0x2d0
 3890 0f32 990C0000 		.4byte	0xc99
 3891 0f36 02       		.uleb128 0x2
 3892 0f37 91       		.byte	0x91
 3893 0f38 74       		.sleb128 -12
 3894 0f39 00       		.byte	0
 3895 0f3a 1D       		.uleb128 0x1d
 3896 0f3b 410B0000 		.4byte	.LASF313
 3897 0f3f 01       		.byte	0x1
 3898 0f40 F102     		.2byte	0x2f1
 3899 0f42 00000000 		.4byte	.LFB7
 3900 0f46 44000000 		.4byte	.LFE7-.LFB7
 3901 0f4a 01       		.uleb128 0x1
 3902 0f4b 9C       		.byte	0x9c
 3903 0f4c 600F0000 		.4byte	0xf60
 3904 0f50 19       		.uleb128 0x19
 3905 0f51 78150000 		.4byte	.LASF295
 3906 0f55 01       		.byte	0x1
 3907 0f56 F102     		.2byte	0x2f1
 3908 0f58 990C0000 		.4byte	0xc99
 3909 0f5c 02       		.uleb128 0x2
 3910 0f5d 91       		.byte	0x91
 3911 0f5e 74       		.sleb128 -12
 3912 0f5f 00       		.byte	0
 3913 0f60 1D       		.uleb128 0x1d
 3914 0f61 20110000 		.4byte	.LASF314
 3915 0f65 01       		.byte	0x1
 3916 0f66 FF02     		.2byte	0x2ff
 3917 0f68 00000000 		.4byte	.LFB8
 3918 0f6c 70000000 		.4byte	.LFE8-.LFB8
 3919 0f70 01       		.uleb128 0x1
 3920 0f71 9C       		.byte	0x9c
 3921 0f72 A40F0000 		.4byte	0xfa4
 3922 0f76 19       		.uleb128 0x19
 3923 0f77 78150000 		.4byte	.LASF295
 3924 0f7b 01       		.byte	0x1
ARM GAS  C:\Users\alex\AppData\Local\Temp\ccByxCIb.s 			page 90


 3925 0f7c FF02     		.2byte	0x2ff
 3926 0f7e 990C0000 		.4byte	0xc99
 3927 0f82 02       		.uleb128 0x2
 3928 0f83 91       		.byte	0x91
 3929 0f84 6C       		.sleb128 -20
 3930 0f85 1A       		.uleb128 0x1a
 3931 0f86 96080000 		.4byte	.LASF315
 3932 0f8a 01       		.byte	0x1
 3933 0f8b 0103     		.2byte	0x301
 3934 0f8d 990C0000 		.4byte	0xc99
 3935 0f91 02       		.uleb128 0x2
 3936 0f92 91       		.byte	0x91
 3937 0f93 70       		.sleb128 -16
 3938 0f94 1A       		.uleb128 0x1a
 3939 0f95 140A0000 		.4byte	.LASF316
 3940 0f99 01       		.byte	0x1
 3941 0f9a 0203     		.2byte	0x302
 3942 0f9c 990C0000 		.4byte	0xc99
 3943 0fa0 02       		.uleb128 0x2
 3944 0fa1 91       		.byte	0x91
 3945 0fa2 74       		.sleb128 -12
 3946 0fa3 00       		.byte	0
 3947 0fa4 1E       		.uleb128 0x1e
 3948 0fa5 7C040000 		.4byte	.LASF317
 3949 0fa9 01       		.byte	0x1
 3950 0faa 3103     		.2byte	0x331
 3951 0fac 00000000 		.4byte	.LFB9
 3952 0fb0 40010000 		.4byte	.LFE9-.LFB9
 3953 0fb4 01       		.uleb128 0x1
 3954 0fb5 9C       		.byte	0x9c
 3955 0fb6 E60F0000 		.4byte	0xfe6
 3956 0fba 19       		.uleb128 0x19
 3957 0fbb A0090000 		.4byte	.LASF300
 3958 0fbf 01       		.byte	0x1
 3959 0fc0 3103     		.2byte	0x331
 3960 0fc2 330D0000 		.4byte	0xd33
 3961 0fc6 02       		.uleb128 0x2
 3962 0fc7 91       		.byte	0x91
 3963 0fc8 64       		.sleb128 -28
 3964 0fc9 1B       		.uleb128 0x1b
 3965 0fca 6900     		.ascii	"i\000"
 3966 0fcc 01       		.byte	0x1
 3967 0fcd 3303     		.2byte	0x333
 3968 0fcf C5010000 		.4byte	0x1c5
 3969 0fd3 02       		.uleb128 0x2
 3970 0fd4 91       		.byte	0x91
 3971 0fd5 6E       		.sleb128 -18
 3972 0fd6 1A       		.uleb128 0x1a
 3973 0fd7 59020000 		.4byte	.LASF318
 3974 0fdb 01       		.byte	0x1
 3975 0fdc 3403     		.2byte	0x334
 3976 0fde E60F0000 		.4byte	0xfe6
 3977 0fe2 02       		.uleb128 0x2
 3978 0fe3 91       		.byte	0x91
 3979 0fe4 68       		.sleb128 -24
 3980 0fe5 00       		.byte	0
 3981 0fe6 05       		.uleb128 0x5
ARM GAS  C:\Users\alex\AppData\Local\Temp\ccByxCIb.s 			page 91


 3982 0fe7 04       		.byte	0x4
 3983 0fe8 EC0A0000 		.4byte	0xaec
 3984 0fec 1D       		.uleb128 0x1d
 3985 0fed 23020000 		.4byte	.LASF319
 3986 0ff1 01       		.byte	0x1
 3987 0ff2 8A03     		.2byte	0x38a
 3988 0ff4 00000000 		.4byte	.LFB10
 3989 0ff8 68010000 		.4byte	.LFE10-.LFB10
 3990 0ffc 01       		.uleb128 0x1
 3991 0ffd 9C       		.byte	0x9c
 3992 0ffe 5D100000 		.4byte	0x105d
 3993 1002 19       		.uleb128 0x19
 3994 1003 78150000 		.4byte	.LASF295
 3995 1007 01       		.byte	0x1
 3996 1008 8A03     		.2byte	0x38a
 3997 100a 990C0000 		.4byte	0xc99
 3998 100e 02       		.uleb128 0x2
 3999 100f 91       		.byte	0x91
 4000 1010 64       		.sleb128 -28
 4001 1011 1C       		.uleb128 0x1c
 4002 1012 6F707400 		.ascii	"opt\000"
 4003 1016 01       		.byte	0x1
 4004 1017 8B03     		.2byte	0x38b
 4005 1019 6D010000 		.4byte	0x16d
 4006 101d 02       		.uleb128 0x2
 4007 101e 91       		.byte	0x91
 4008 101f 62       		.sleb128 -30
 4009 1020 1A       		.uleb128 0x1a
 4010 1021 59020000 		.4byte	.LASF318
 4011 1025 01       		.byte	0x1
 4012 1026 8D03     		.2byte	0x38d
 4013 1028 E60F0000 		.4byte	0xfe6
 4014 102c 02       		.uleb128 0x2
 4015 102d 91       		.byte	0x91
 4016 102e 6C       		.sleb128 -20
 4017 102f 1A       		.uleb128 0x1a
 4018 1030 97120000 		.4byte	.LASF320
 4019 1034 01       		.byte	0x1
 4020 1035 8E03     		.2byte	0x38e
 4021 1037 990C0000 		.4byte	0xc99
 4022 103b 02       		.uleb128 0x2
 4023 103c 91       		.byte	0x91
 4024 103d 68       		.sleb128 -24
 4025 103e 1A       		.uleb128 0x1a
 4026 103f 9E120000 		.4byte	.LASF321
 4027 1043 01       		.byte	0x1
 4028 1044 8F03     		.2byte	0x38f
 4029 1046 990C0000 		.4byte	0xc99
 4030 104a 02       		.uleb128 0x2
 4031 104b 91       		.byte	0x91
 4032 104c 74       		.sleb128 -12
 4033 104d 1A       		.uleb128 0x1a
 4034 104e 340B0000 		.4byte	.LASF322
 4035 1052 01       		.byte	0x1
 4036 1053 9003     		.2byte	0x390
 4037 1055 C5010000 		.4byte	0x1c5
 4038 1059 02       		.uleb128 0x2
ARM GAS  C:\Users\alex\AppData\Local\Temp\ccByxCIb.s 			page 92


 4039 105a 91       		.byte	0x91
 4040 105b 72       		.sleb128 -14
 4041 105c 00       		.byte	0
 4042 105d 1D       		.uleb128 0x1d
 4043 105e 30000000 		.4byte	.LASF323
 4044 1062 01       		.byte	0x1
 4045 1063 DC03     		.2byte	0x3dc
 4046 1065 00000000 		.4byte	.LFB11
 4047 1069 40000000 		.4byte	.LFE11-.LFB11
 4048 106d 01       		.uleb128 0x1
 4049 106e 9C       		.byte	0x9c
 4050 106f 90100000 		.4byte	0x1090
 4051 1073 1A       		.uleb128 0x1a
 4052 1074 59020000 		.4byte	.LASF318
 4053 1078 01       		.byte	0x1
 4054 1079 DE03     		.2byte	0x3de
 4055 107b E60F0000 		.4byte	0xfe6
 4056 107f 02       		.uleb128 0x2
 4057 1080 91       		.byte	0x91
 4058 1081 70       		.sleb128 -16
 4059 1082 1B       		.uleb128 0x1b
 4060 1083 6900     		.ascii	"i\000"
 4061 1085 01       		.byte	0x1
 4062 1086 DF03     		.2byte	0x3df
 4063 1088 C5010000 		.4byte	0x1c5
 4064 108c 02       		.uleb128 0x2
 4065 108d 91       		.byte	0x91
 4066 108e 76       		.sleb128 -10
 4067 108f 00       		.byte	0
 4068 1090 1D       		.uleb128 0x1d
 4069 1091 47100000 		.4byte	.LASF324
 4070 1095 01       		.byte	0x1
 4071 1096 F903     		.2byte	0x3f9
 4072 1098 00000000 		.4byte	.LFB12
 4073 109c 9C000000 		.4byte	.LFE12-.LFB12
 4074 10a0 01       		.uleb128 0x1
 4075 10a1 9C       		.byte	0x9c
 4076 10a2 F2100000 		.4byte	0x10f2
 4077 10a6 19       		.uleb128 0x19
 4078 10a7 78150000 		.4byte	.LASF295
 4079 10ab 01       		.byte	0x1
 4080 10ac F903     		.2byte	0x3f9
 4081 10ae 990C0000 		.4byte	0xc99
 4082 10b2 02       		.uleb128 0x2
 4083 10b3 91       		.byte	0x91
 4084 10b4 64       		.sleb128 -28
 4085 10b5 1A       		.uleb128 0x1a
 4086 10b6 59020000 		.4byte	.LASF318
 4087 10ba 01       		.byte	0x1
 4088 10bb FB03     		.2byte	0x3fb
 4089 10bd E60F0000 		.4byte	0xfe6
 4090 10c1 02       		.uleb128 0x2
 4091 10c2 91       		.byte	0x91
 4092 10c3 70       		.sleb128 -16
 4093 10c4 1A       		.uleb128 0x1a
 4094 10c5 9E120000 		.4byte	.LASF321
 4095 10c9 01       		.byte	0x1
ARM GAS  C:\Users\alex\AppData\Local\Temp\ccByxCIb.s 			page 93


 4096 10ca FC03     		.2byte	0x3fc
 4097 10cc 990C0000 		.4byte	0xc99
 4098 10d0 02       		.uleb128 0x2
 4099 10d1 91       		.byte	0x91
 4100 10d2 6C       		.sleb128 -20
 4101 10d3 1A       		.uleb128 0x1a
 4102 10d4 050B0000 		.4byte	.LASF325
 4103 10d8 01       		.byte	0x1
 4104 10d9 FD03     		.2byte	0x3fd
 4105 10db 990C0000 		.4byte	0xc99
 4106 10df 02       		.uleb128 0x2
 4107 10e0 91       		.byte	0x91
 4108 10e1 68       		.sleb128 -24
 4109 10e2 1A       		.uleb128 0x1a
 4110 10e3 340B0000 		.4byte	.LASF322
 4111 10e7 01       		.byte	0x1
 4112 10e8 FE03     		.2byte	0x3fe
 4113 10ea C5010000 		.4byte	0x1c5
 4114 10ee 02       		.uleb128 0x2
 4115 10ef 91       		.byte	0x91
 4116 10f0 76       		.sleb128 -10
 4117 10f1 00       		.byte	0
 4118 10f2 1E       		.uleb128 0x1e
 4119 10f3 40000000 		.4byte	.LASF326
 4120 10f7 01       		.byte	0x1
 4121 10f8 2804     		.2byte	0x428
 4122 10fa 00000000 		.4byte	.LFB13
 4123 10fe 04010000 		.4byte	.LFE13-.LFB13
 4124 1102 01       		.uleb128 0x1
 4125 1103 9C       		.byte	0x9c
 4126 1104 AD110000 		.4byte	0x11ad
 4127 1108 19       		.uleb128 0x19
 4128 1109 A9100000 		.4byte	.LASF327
 4129 110d 01       		.byte	0x1
 4130 110e 2804     		.2byte	0x428
 4131 1110 BA000000 		.4byte	0xba
 4132 1114 02       		.uleb128 0x2
 4133 1115 91       		.byte	0x91
 4134 1116 4C       		.sleb128 -52
 4135 1117 1A       		.uleb128 0x1a
 4136 1118 7A010000 		.4byte	.LASF328
 4137 111c 01       		.byte	0x1
 4138 111d 2A04     		.2byte	0x42a
 4139 111f 37000000 		.4byte	0x37
 4140 1123 02       		.uleb128 0x2
 4141 1124 91       		.byte	0x91
 4142 1125 77       		.sleb128 -9
 4143 1126 1B       		.uleb128 0x1b
 4144 1127 65727200 		.ascii	"err\000"
 4145 112b 01       		.byte	0x1
 4146 112c 2B04     		.2byte	0x42b
 4147 112e 48060000 		.4byte	0x648
 4148 1132 02       		.uleb128 0x2
 4149 1133 91       		.byte	0x91
 4150 1134 56       		.sleb128 -42
 4151 1135 1A       		.uleb128 0x1a
 4152 1136 48070000 		.4byte	.LASF310
ARM GAS  C:\Users\alex\AppData\Local\Temp\ccByxCIb.s 			page 94


 4153 113a 01       		.byte	0x1
 4154 113b 2C04     		.2byte	0x42c
 4155 113d FA090000 		.4byte	0x9fa
 4156 1141 02       		.uleb128 0x2
 4157 1142 91       		.byte	0x91
 4158 1143 58       		.sleb128 -40
 4159 1144 1A       		.uleb128 0x1a
 4160 1145 59020000 		.4byte	.LASF318
 4161 1149 01       		.byte	0x1
 4162 114a 2D04     		.2byte	0x42d
 4163 114c E60F0000 		.4byte	0xfe6
 4164 1150 02       		.uleb128 0x2
 4165 1151 91       		.byte	0x91
 4166 1152 64       		.sleb128 -28
 4167 1153 1A       		.uleb128 0x1a
 4168 1154 78150000 		.4byte	.LASF295
 4169 1158 01       		.byte	0x1
 4170 1159 2E04     		.2byte	0x42e
 4171 115b 990C0000 		.4byte	0xc99
 4172 115f 02       		.uleb128 0x2
 4173 1160 91       		.byte	0x91
 4174 1161 70       		.sleb128 -16
 4175 1162 1A       		.uleb128 0x1a
 4176 1163 96080000 		.4byte	.LASF315
 4177 1167 01       		.byte	0x1
 4178 1168 2F04     		.2byte	0x42f
 4179 116a 990C0000 		.4byte	0xc99
 4180 116e 02       		.uleb128 0x2
 4181 116f 91       		.byte	0x91
 4182 1170 5C       		.sleb128 -36
 4183 1171 1A       		.uleb128 0x1a
 4184 1172 340B0000 		.4byte	.LASF322
 4185 1176 01       		.byte	0x1
 4186 1177 3004     		.2byte	0x430
 4187 1179 C5010000 		.4byte	0x1c5
 4188 117d 02       		.uleb128 0x2
 4189 117e 91       		.byte	0x91
 4190 117f 6A       		.sleb128 -22
 4191 1180 1B       		.uleb128 0x1b
 4192 1181 747300   		.ascii	"ts\000"
 4193 1184 01       		.byte	0x1
 4194 1185 3104     		.2byte	0x431
 4195 1187 F4000000 		.4byte	0xf4
 4196 118b 02       		.uleb128 0x2
 4197 118c 91       		.byte	0x91
 4198 118d 50       		.sleb128 -48
 4199 118e 1A       		.uleb128 0x1a
 4200 118f DA030000 		.4byte	.LASF329
 4201 1193 01       		.byte	0x1
 4202 1194 3204     		.2byte	0x432
 4203 1196 F4000000 		.4byte	0xf4
 4204 119a 02       		.uleb128 0x2
 4205 119b 91       		.byte	0x91
 4206 119c 6C       		.sleb128 -20
 4207 119d 1A       		.uleb128 0x1a
 4208 119e C1130000 		.4byte	.LASF330
 4209 11a2 01       		.byte	0x1
ARM GAS  C:\Users\alex\AppData\Local\Temp\ccByxCIb.s 			page 95


 4210 11a3 3304     		.2byte	0x433
 4211 11a5 F4000000 		.4byte	0xf4
 4212 11a9 02       		.uleb128 0x2
 4213 11aa 91       		.byte	0x91
 4214 11ab 60       		.sleb128 -32
 4215 11ac 00       		.byte	0
 4216 11ad 1F       		.uleb128 0x1f
 4217 11ae 310E0000 		.4byte	.LASF331
 4218 11b2 05       		.byte	0x5
 4219 11b3 5F04     		.2byte	0x45f
 4220 11b5 4C010000 		.4byte	0x14c
 4221 11b9 1F       		.uleb128 0x1f
 4222 11ba F7120000 		.4byte	.LASF332
 4223 11be 05       		.byte	0x5
 4224 11bf DA04     		.2byte	0x4da
 4225 11c1 990C0000 		.4byte	0xc99
 4226 11c5 1F       		.uleb128 0x1f
 4227 11c6 F1110000 		.4byte	.LASF333
 4228 11ca 05       		.byte	0x5
 4229 11cb DC04     		.2byte	0x4dc
 4230 11cd 57010000 		.4byte	0x157
 4231 11d1 1F       		.uleb128 0x1f
 4232 11d2 23030000 		.4byte	.LASF334
 4233 11d6 05       		.byte	0x5
 4234 11d7 DD04     		.2byte	0x4dd
 4235 11d9 09070000 		.4byte	0x709
 4236 11dd 1F       		.uleb128 0x1f
 4237 11de C4110000 		.4byte	.LASF335
 4238 11e2 05       		.byte	0x5
 4239 11e3 DE04     		.2byte	0x4de
 4240 11e5 F4000000 		.4byte	0xf4
 4241 11e9 1F       		.uleb128 0x1f
 4242 11ea 3C040000 		.4byte	.LASF336
 4243 11ee 05       		.byte	0x5
 4244 11ef DF04     		.2byte	0x4df
 4245 11f1 BA010000 		.4byte	0x1ba
 4246 11f5 1F       		.uleb128 0x1f
 4247 11f6 88120000 		.4byte	.LASF337
 4248 11fa 05       		.byte	0x5
 4249 11fb E004     		.2byte	0x4e0
 4250 11fd 0A010000 		.4byte	0x10a
 4251 1201 1F       		.uleb128 0x1f
 4252 1202 A7060000 		.4byte	.LASF338
 4253 1206 05       		.byte	0x5
 4254 1207 E104     		.2byte	0x4e1
 4255 1209 0A010000 		.4byte	0x10a
 4256 120d 1F       		.uleb128 0x1f
 4257 120e 280D0000 		.4byte	.LASF339
 4258 1212 05       		.byte	0x5
 4259 1213 0D05     		.2byte	0x50d
 4260 1215 19120000 		.4byte	0x1219
 4261 1219 20       		.uleb128 0x20
 4262 121a D2000000 		.4byte	0xd2
 4263 121e 1F       		.uleb128 0x1f
 4264 121f 31150000 		.4byte	.LASF340
 4265 1223 05       		.byte	0x5
 4266 1224 0F05     		.2byte	0x50f
ARM GAS  C:\Users\alex\AppData\Local\Temp\ccByxCIb.s 			page 96


 4267 1226 2A120000 		.4byte	0x122a
 4268 122a 20       		.uleb128 0x20
 4269 122b 83010000 		.4byte	0x183
 4270 122f 1F       		.uleb128 0x1f
 4271 1230 72110000 		.4byte	.LASF341
 4272 1234 05       		.byte	0x5
 4273 1235 1805     		.2byte	0x518
 4274 1237 3B120000 		.4byte	0x123b
 4275 123b 20       		.uleb128 0x20
 4276 123c 78010000 		.4byte	0x178
 4277 1240 1F       		.uleb128 0x1f
 4278 1241 4B050000 		.4byte	.LASF342
 4279 1245 05       		.byte	0x5
 4280 1246 1905     		.2byte	0x519
 4281 1248 2A120000 		.4byte	0x122a
 4282 124c 1F       		.uleb128 0x1f
 4283 124d 79090000 		.4byte	.LASF343
 4284 1251 05       		.byte	0x5
 4285 1252 1A05     		.2byte	0x51a
 4286 1254 58120000 		.4byte	0x1258
 4287 1258 20       		.uleb128 0x20
 4288 1259 760C0000 		.4byte	0xc76
 4289 125d 1F       		.uleb128 0x1f
 4290 125e 66040000 		.4byte	.LASF344
 4291 1262 05       		.byte	0x5
 4292 1263 1B05     		.2byte	0x51b
 4293 1265 19120000 		.4byte	0x1219
 4294 1269 1F       		.uleb128 0x1f
 4295 126a 49040000 		.4byte	.LASF345
 4296 126e 05       		.byte	0x5
 4297 126f 1C05     		.2byte	0x51c
 4298 1271 19120000 		.4byte	0x1219
 4299 1275 1F       		.uleb128 0x1f
 4300 1276 03040000 		.4byte	.LASF346
 4301 127a 05       		.byte	0x5
 4302 127b 1E05     		.2byte	0x51e
 4303 127d 81120000 		.4byte	0x1281
 4304 1281 20       		.uleb128 0x20
 4305 1282 57010000 		.4byte	0x157
 4306 1286 10       		.uleb128 0x10
 4307 1287 EC0A0000 		.4byte	0xaec
 4308 128b 91120000 		.4byte	0x1291
 4309 128f 21       		.uleb128 0x21
 4310 1290 00       		.byte	0
 4311 1291 1F       		.uleb128 0x1f
 4312 1292 7E0D0000 		.4byte	.LASF347
 4313 1296 05       		.byte	0x5
 4314 1297 3805     		.2byte	0x538
 4315 1299 86120000 		.4byte	0x1286
 4316 129d 00       		.byte	0
 4317              		.section	.debug_abbrev,"",%progbits
 4318              	.Ldebug_abbrev0:
 4319 0000 01       		.uleb128 0x1
 4320 0001 11       		.uleb128 0x11
 4321 0002 01       		.byte	0x1
 4322 0003 25       		.uleb128 0x25
 4323 0004 0E       		.uleb128 0xe
ARM GAS  C:\Users\alex\AppData\Local\Temp\ccByxCIb.s 			page 97


 4324 0005 13       		.uleb128 0x13
 4325 0006 0B       		.uleb128 0xb
 4326 0007 03       		.uleb128 0x3
 4327 0008 0E       		.uleb128 0xe
 4328 0009 1B       		.uleb128 0x1b
 4329 000a 0E       		.uleb128 0xe
 4330 000b 55       		.uleb128 0x55
 4331 000c 17       		.uleb128 0x17
 4332 000d 11       		.uleb128 0x11
 4333 000e 01       		.uleb128 0x1
 4334 000f 10       		.uleb128 0x10
 4335 0010 17       		.uleb128 0x17
 4336 0011 00       		.byte	0
 4337 0012 00       		.byte	0
 4338 0013 02       		.uleb128 0x2
 4339 0014 16       		.uleb128 0x16
 4340 0015 00       		.byte	0
 4341 0016 03       		.uleb128 0x3
 4342 0017 0E       		.uleb128 0xe
 4343 0018 3A       		.uleb128 0x3a
 4344 0019 0B       		.uleb128 0xb
 4345 001a 3B       		.uleb128 0x3b
 4346 001b 0B       		.uleb128 0xb
 4347 001c 49       		.uleb128 0x49
 4348 001d 13       		.uleb128 0x13
 4349 001e 00       		.byte	0
 4350 001f 00       		.byte	0
 4351 0020 03       		.uleb128 0x3
 4352 0021 24       		.uleb128 0x24
 4353 0022 00       		.byte	0
 4354 0023 0B       		.uleb128 0xb
 4355 0024 0B       		.uleb128 0xb
 4356 0025 3E       		.uleb128 0x3e
 4357 0026 0B       		.uleb128 0xb
 4358 0027 03       		.uleb128 0x3
 4359 0028 0E       		.uleb128 0xe
 4360 0029 00       		.byte	0
 4361 002a 00       		.byte	0
 4362 002b 04       		.uleb128 0x4
 4363 002c 24       		.uleb128 0x24
 4364 002d 00       		.byte	0
 4365 002e 0B       		.uleb128 0xb
 4366 002f 0B       		.uleb128 0xb
 4367 0030 3E       		.uleb128 0x3e
 4368 0031 0B       		.uleb128 0xb
 4369 0032 03       		.uleb128 0x3
 4370 0033 08       		.uleb128 0x8
 4371 0034 00       		.byte	0
 4372 0035 00       		.byte	0
 4373 0036 05       		.uleb128 0x5
 4374 0037 0F       		.uleb128 0xf
 4375 0038 00       		.byte	0
 4376 0039 0B       		.uleb128 0xb
 4377 003a 0B       		.uleb128 0xb
 4378 003b 49       		.uleb128 0x49
 4379 003c 13       		.uleb128 0x13
 4380 003d 00       		.byte	0
ARM GAS  C:\Users\alex\AppData\Local\Temp\ccByxCIb.s 			page 98


 4381 003e 00       		.byte	0
 4382 003f 06       		.uleb128 0x6
 4383 0040 15       		.uleb128 0x15
 4384 0041 01       		.byte	0x1
 4385 0042 27       		.uleb128 0x27
 4386 0043 19       		.uleb128 0x19
 4387 0044 01       		.uleb128 0x1
 4388 0045 13       		.uleb128 0x13
 4389 0046 00       		.byte	0
 4390 0047 00       		.byte	0
 4391 0048 07       		.uleb128 0x7
 4392 0049 05       		.uleb128 0x5
 4393 004a 00       		.byte	0
 4394 004b 49       		.uleb128 0x49
 4395 004c 13       		.uleb128 0x13
 4396 004d 00       		.byte	0
 4397 004e 00       		.byte	0
 4398 004f 08       		.uleb128 0x8
 4399 0050 0F       		.uleb128 0xf
 4400 0051 00       		.byte	0
 4401 0052 0B       		.uleb128 0xb
 4402 0053 0B       		.uleb128 0xb
 4403 0054 00       		.byte	0
 4404 0055 00       		.byte	0
 4405 0056 09       		.uleb128 0x9
 4406 0057 16       		.uleb128 0x16
 4407 0058 00       		.byte	0
 4408 0059 03       		.uleb128 0x3
 4409 005a 0E       		.uleb128 0xe
 4410 005b 3A       		.uleb128 0x3a
 4411 005c 0B       		.uleb128 0xb
 4412 005d 3B       		.uleb128 0x3b
 4413 005e 05       		.uleb128 0x5
 4414 005f 49       		.uleb128 0x49
 4415 0060 13       		.uleb128 0x13
 4416 0061 00       		.byte	0
 4417 0062 00       		.byte	0
 4418 0063 0A       		.uleb128 0xa
 4419 0064 04       		.uleb128 0x4
 4420 0065 01       		.byte	0x1
 4421 0066 03       		.uleb128 0x3
 4422 0067 0E       		.uleb128 0xe
 4423 0068 0B       		.uleb128 0xb
 4424 0069 0B       		.uleb128 0xb
 4425 006a 49       		.uleb128 0x49
 4426 006b 13       		.uleb128 0x13
 4427 006c 3A       		.uleb128 0x3a
 4428 006d 0B       		.uleb128 0xb
 4429 006e 3B       		.uleb128 0x3b
 4430 006f 05       		.uleb128 0x5
 4431 0070 01       		.uleb128 0x1
 4432 0071 13       		.uleb128 0x13
 4433 0072 00       		.byte	0
 4434 0073 00       		.byte	0
 4435 0074 0B       		.uleb128 0xb
 4436 0075 28       		.uleb128 0x28
 4437 0076 00       		.byte	0
ARM GAS  C:\Users\alex\AppData\Local\Temp\ccByxCIb.s 			page 99


 4438 0077 03       		.uleb128 0x3
 4439 0078 0E       		.uleb128 0xe
 4440 0079 1C       		.uleb128 0x1c
 4441 007a 0B       		.uleb128 0xb
 4442 007b 00       		.byte	0
 4443 007c 00       		.byte	0
 4444 007d 0C       		.uleb128 0xc
 4445 007e 28       		.uleb128 0x28
 4446 007f 00       		.byte	0
 4447 0080 03       		.uleb128 0x3
 4448 0081 0E       		.uleb128 0xe
 4449 0082 1C       		.uleb128 0x1c
 4450 0083 05       		.uleb128 0x5
 4451 0084 00       		.byte	0
 4452 0085 00       		.byte	0
 4453 0086 0D       		.uleb128 0xd
 4454 0087 13       		.uleb128 0x13
 4455 0088 01       		.byte	0x1
 4456 0089 03       		.uleb128 0x3
 4457 008a 0E       		.uleb128 0xe
 4458 008b 0B       		.uleb128 0xb
 4459 008c 0B       		.uleb128 0xb
 4460 008d 3A       		.uleb128 0x3a
 4461 008e 0B       		.uleb128 0xb
 4462 008f 3B       		.uleb128 0x3b
 4463 0090 05       		.uleb128 0x5
 4464 0091 01       		.uleb128 0x1
 4465 0092 13       		.uleb128 0x13
 4466 0093 00       		.byte	0
 4467 0094 00       		.byte	0
 4468 0095 0E       		.uleb128 0xe
 4469 0096 0D       		.uleb128 0xd
 4470 0097 00       		.byte	0
 4471 0098 03       		.uleb128 0x3
 4472 0099 0E       		.uleb128 0xe
 4473 009a 3A       		.uleb128 0x3a
 4474 009b 0B       		.uleb128 0xb
 4475 009c 3B       		.uleb128 0x3b
 4476 009d 05       		.uleb128 0x5
 4477 009e 49       		.uleb128 0x49
 4478 009f 13       		.uleb128 0x13
 4479 00a0 38       		.uleb128 0x38
 4480 00a1 0B       		.uleb128 0xb
 4481 00a2 00       		.byte	0
 4482 00a3 00       		.byte	0
 4483 00a4 0F       		.uleb128 0xf
 4484 00a5 0D       		.uleb128 0xd
 4485 00a6 00       		.byte	0
 4486 00a7 03       		.uleb128 0x3
 4487 00a8 08       		.uleb128 0x8
 4488 00a9 3A       		.uleb128 0x3a
 4489 00aa 0B       		.uleb128 0xb
 4490 00ab 3B       		.uleb128 0x3b
 4491 00ac 05       		.uleb128 0x5
 4492 00ad 49       		.uleb128 0x49
 4493 00ae 13       		.uleb128 0x13
 4494 00af 38       		.uleb128 0x38
ARM GAS  C:\Users\alex\AppData\Local\Temp\ccByxCIb.s 			page 100


 4495 00b0 0B       		.uleb128 0xb
 4496 00b1 00       		.byte	0
 4497 00b2 00       		.byte	0
 4498 00b3 10       		.uleb128 0x10
 4499 00b4 01       		.uleb128 0x1
 4500 00b5 01       		.byte	0x1
 4501 00b6 49       		.uleb128 0x49
 4502 00b7 13       		.uleb128 0x13
 4503 00b8 01       		.uleb128 0x1
 4504 00b9 13       		.uleb128 0x13
 4505 00ba 00       		.byte	0
 4506 00bb 00       		.byte	0
 4507 00bc 11       		.uleb128 0x11
 4508 00bd 21       		.uleb128 0x21
 4509 00be 00       		.byte	0
 4510 00bf 49       		.uleb128 0x49
 4511 00c0 13       		.uleb128 0x13
 4512 00c1 2F       		.uleb128 0x2f
 4513 00c2 0B       		.uleb128 0xb
 4514 00c3 00       		.byte	0
 4515 00c4 00       		.byte	0
 4516 00c5 12       		.uleb128 0x12
 4517 00c6 2E       		.uleb128 0x2e
 4518 00c7 01       		.byte	0x1
 4519 00c8 3F       		.uleb128 0x3f
 4520 00c9 19       		.uleb128 0x19
 4521 00ca 03       		.uleb128 0x3
 4522 00cb 0E       		.uleb128 0xe
 4523 00cc 3A       		.uleb128 0x3a
 4524 00cd 0B       		.uleb128 0xb
 4525 00ce 3B       		.uleb128 0x3b
 4526 00cf 0B       		.uleb128 0xb
 4527 00d0 27       		.uleb128 0x27
 4528 00d1 19       		.uleb128 0x19
 4529 00d2 11       		.uleb128 0x11
 4530 00d3 01       		.uleb128 0x1
 4531 00d4 12       		.uleb128 0x12
 4532 00d5 06       		.uleb128 0x6
 4533 00d6 40       		.uleb128 0x40
 4534 00d7 18       		.uleb128 0x18
 4535 00d8 9642     		.uleb128 0x2116
 4536 00da 19       		.uleb128 0x19
 4537 00db 01       		.uleb128 0x1
 4538 00dc 13       		.uleb128 0x13
 4539 00dd 00       		.byte	0
 4540 00de 00       		.byte	0
 4541 00df 13       		.uleb128 0x13
 4542 00e0 05       		.uleb128 0x5
 4543 00e1 00       		.byte	0
 4544 00e2 03       		.uleb128 0x3
 4545 00e3 0E       		.uleb128 0xe
 4546 00e4 3A       		.uleb128 0x3a
 4547 00e5 0B       		.uleb128 0xb
 4548 00e6 3B       		.uleb128 0x3b
 4549 00e7 0B       		.uleb128 0xb
 4550 00e8 49       		.uleb128 0x49
 4551 00e9 13       		.uleb128 0x13
ARM GAS  C:\Users\alex\AppData\Local\Temp\ccByxCIb.s 			page 101


 4552 00ea 02       		.uleb128 0x2
 4553 00eb 18       		.uleb128 0x18
 4554 00ec 00       		.byte	0
 4555 00ed 00       		.byte	0
 4556 00ee 14       		.uleb128 0x14
 4557 00ef 05       		.uleb128 0x5
 4558 00f0 00       		.byte	0
 4559 00f1 03       		.uleb128 0x3
 4560 00f2 08       		.uleb128 0x8
 4561 00f3 3A       		.uleb128 0x3a
 4562 00f4 0B       		.uleb128 0xb
 4563 00f5 3B       		.uleb128 0x3b
 4564 00f6 0B       		.uleb128 0xb
 4565 00f7 49       		.uleb128 0x49
 4566 00f8 13       		.uleb128 0x13
 4567 00f9 02       		.uleb128 0x2
 4568 00fa 18       		.uleb128 0x18
 4569 00fb 00       		.byte	0
 4570 00fc 00       		.byte	0
 4571 00fd 15       		.uleb128 0x15
 4572 00fe 34       		.uleb128 0x34
 4573 00ff 00       		.byte	0
 4574 0100 03       		.uleb128 0x3
 4575 0101 0E       		.uleb128 0xe
 4576 0102 3A       		.uleb128 0x3a
 4577 0103 0B       		.uleb128 0xb
 4578 0104 3B       		.uleb128 0x3b
 4579 0105 0B       		.uleb128 0xb
 4580 0106 49       		.uleb128 0x49
 4581 0107 13       		.uleb128 0x13
 4582 0108 02       		.uleb128 0x2
 4583 0109 18       		.uleb128 0x18
 4584 010a 00       		.byte	0
 4585 010b 00       		.byte	0
 4586 010c 16       		.uleb128 0x16
 4587 010d 2E       		.uleb128 0x2e
 4588 010e 01       		.byte	0x1
 4589 010f 3F       		.uleb128 0x3f
 4590 0110 19       		.uleb128 0x19
 4591 0111 03       		.uleb128 0x3
 4592 0112 0E       		.uleb128 0xe
 4593 0113 3A       		.uleb128 0x3a
 4594 0114 0B       		.uleb128 0xb
 4595 0115 3B       		.uleb128 0x3b
 4596 0116 0B       		.uleb128 0xb
 4597 0117 27       		.uleb128 0x27
 4598 0118 19       		.uleb128 0x19
 4599 0119 49       		.uleb128 0x49
 4600 011a 13       		.uleb128 0x13
 4601 011b 11       		.uleb128 0x11
 4602 011c 01       		.uleb128 0x1
 4603 011d 12       		.uleb128 0x12
 4604 011e 06       		.uleb128 0x6
 4605 011f 40       		.uleb128 0x40
 4606 0120 18       		.uleb128 0x18
 4607 0121 9642     		.uleb128 0x2116
 4608 0123 19       		.uleb128 0x19
ARM GAS  C:\Users\alex\AppData\Local\Temp\ccByxCIb.s 			page 102


 4609 0124 01       		.uleb128 0x1
 4610 0125 13       		.uleb128 0x13
 4611 0126 00       		.byte	0
 4612 0127 00       		.byte	0
 4613 0128 17       		.uleb128 0x17
 4614 0129 34       		.uleb128 0x34
 4615 012a 00       		.byte	0
 4616 012b 03       		.uleb128 0x3
 4617 012c 08       		.uleb128 0x8
 4618 012d 3A       		.uleb128 0x3a
 4619 012e 0B       		.uleb128 0xb
 4620 012f 3B       		.uleb128 0x3b
 4621 0130 0B       		.uleb128 0xb
 4622 0131 49       		.uleb128 0x49
 4623 0132 13       		.uleb128 0x13
 4624 0133 02       		.uleb128 0x2
 4625 0134 18       		.uleb128 0x18
 4626 0135 00       		.byte	0
 4627 0136 00       		.byte	0
 4628 0137 18       		.uleb128 0x18
 4629 0138 2E       		.uleb128 0x2e
 4630 0139 01       		.byte	0x1
 4631 013a 3F       		.uleb128 0x3f
 4632 013b 19       		.uleb128 0x19
 4633 013c 03       		.uleb128 0x3
 4634 013d 0E       		.uleb128 0xe
 4635 013e 3A       		.uleb128 0x3a
 4636 013f 0B       		.uleb128 0xb
 4637 0140 3B       		.uleb128 0x3b
 4638 0141 05       		.uleb128 0x5
 4639 0142 27       		.uleb128 0x27
 4640 0143 19       		.uleb128 0x19
 4641 0144 49       		.uleb128 0x49
 4642 0145 13       		.uleb128 0x13
 4643 0146 11       		.uleb128 0x11
 4644 0147 01       		.uleb128 0x1
 4645 0148 12       		.uleb128 0x12
 4646 0149 06       		.uleb128 0x6
 4647 014a 40       		.uleb128 0x40
 4648 014b 18       		.uleb128 0x18
 4649 014c 9642     		.uleb128 0x2116
 4650 014e 19       		.uleb128 0x19
 4651 014f 01       		.uleb128 0x1
 4652 0150 13       		.uleb128 0x13
 4653 0151 00       		.byte	0
 4654 0152 00       		.byte	0
 4655 0153 19       		.uleb128 0x19
 4656 0154 05       		.uleb128 0x5
 4657 0155 00       		.byte	0
 4658 0156 03       		.uleb128 0x3
 4659 0157 0E       		.uleb128 0xe
 4660 0158 3A       		.uleb128 0x3a
 4661 0159 0B       		.uleb128 0xb
 4662 015a 3B       		.uleb128 0x3b
 4663 015b 05       		.uleb128 0x5
 4664 015c 49       		.uleb128 0x49
 4665 015d 13       		.uleb128 0x13
ARM GAS  C:\Users\alex\AppData\Local\Temp\ccByxCIb.s 			page 103


 4666 015e 02       		.uleb128 0x2
 4667 015f 18       		.uleb128 0x18
 4668 0160 00       		.byte	0
 4669 0161 00       		.byte	0
 4670 0162 1A       		.uleb128 0x1a
 4671 0163 34       		.uleb128 0x34
 4672 0164 00       		.byte	0
 4673 0165 03       		.uleb128 0x3
 4674 0166 0E       		.uleb128 0xe
 4675 0167 3A       		.uleb128 0x3a
 4676 0168 0B       		.uleb128 0xb
 4677 0169 3B       		.uleb128 0x3b
 4678 016a 05       		.uleb128 0x5
 4679 016b 49       		.uleb128 0x49
 4680 016c 13       		.uleb128 0x13
 4681 016d 02       		.uleb128 0x2
 4682 016e 18       		.uleb128 0x18
 4683 016f 00       		.byte	0
 4684 0170 00       		.byte	0
 4685 0171 1B       		.uleb128 0x1b
 4686 0172 34       		.uleb128 0x34
 4687 0173 00       		.byte	0
 4688 0174 03       		.uleb128 0x3
 4689 0175 08       		.uleb128 0x8
 4690 0176 3A       		.uleb128 0x3a
 4691 0177 0B       		.uleb128 0xb
 4692 0178 3B       		.uleb128 0x3b
 4693 0179 05       		.uleb128 0x5
 4694 017a 49       		.uleb128 0x49
 4695 017b 13       		.uleb128 0x13
 4696 017c 02       		.uleb128 0x2
 4697 017d 18       		.uleb128 0x18
 4698 017e 00       		.byte	0
 4699 017f 00       		.byte	0
 4700 0180 1C       		.uleb128 0x1c
 4701 0181 05       		.uleb128 0x5
 4702 0182 00       		.byte	0
 4703 0183 03       		.uleb128 0x3
 4704 0184 08       		.uleb128 0x8
 4705 0185 3A       		.uleb128 0x3a
 4706 0186 0B       		.uleb128 0xb
 4707 0187 3B       		.uleb128 0x3b
 4708 0188 05       		.uleb128 0x5
 4709 0189 49       		.uleb128 0x49
 4710 018a 13       		.uleb128 0x13
 4711 018b 02       		.uleb128 0x2
 4712 018c 18       		.uleb128 0x18
 4713 018d 00       		.byte	0
 4714 018e 00       		.byte	0
 4715 018f 1D       		.uleb128 0x1d
 4716 0190 2E       		.uleb128 0x2e
 4717 0191 01       		.byte	0x1
 4718 0192 3F       		.uleb128 0x3f
 4719 0193 19       		.uleb128 0x19
 4720 0194 03       		.uleb128 0x3
 4721 0195 0E       		.uleb128 0xe
 4722 0196 3A       		.uleb128 0x3a
ARM GAS  C:\Users\alex\AppData\Local\Temp\ccByxCIb.s 			page 104


 4723 0197 0B       		.uleb128 0xb
 4724 0198 3B       		.uleb128 0x3b
 4725 0199 05       		.uleb128 0x5
 4726 019a 27       		.uleb128 0x27
 4727 019b 19       		.uleb128 0x19
 4728 019c 11       		.uleb128 0x11
 4729 019d 01       		.uleb128 0x1
 4730 019e 12       		.uleb128 0x12
 4731 019f 06       		.uleb128 0x6
 4732 01a0 40       		.uleb128 0x40
 4733 01a1 18       		.uleb128 0x18
 4734 01a2 9742     		.uleb128 0x2117
 4735 01a4 19       		.uleb128 0x19
 4736 01a5 01       		.uleb128 0x1
 4737 01a6 13       		.uleb128 0x13
 4738 01a7 00       		.byte	0
 4739 01a8 00       		.byte	0
 4740 01a9 1E       		.uleb128 0x1e
 4741 01aa 2E       		.uleb128 0x2e
 4742 01ab 01       		.byte	0x1
 4743 01ac 3F       		.uleb128 0x3f
 4744 01ad 19       		.uleb128 0x19
 4745 01ae 03       		.uleb128 0x3
 4746 01af 0E       		.uleb128 0xe
 4747 01b0 3A       		.uleb128 0x3a
 4748 01b1 0B       		.uleb128 0xb
 4749 01b2 3B       		.uleb128 0x3b
 4750 01b3 05       		.uleb128 0x5
 4751 01b4 27       		.uleb128 0x27
 4752 01b5 19       		.uleb128 0x19
 4753 01b6 11       		.uleb128 0x11
 4754 01b7 01       		.uleb128 0x1
 4755 01b8 12       		.uleb128 0x12
 4756 01b9 06       		.uleb128 0x6
 4757 01ba 40       		.uleb128 0x40
 4758 01bb 18       		.uleb128 0x18
 4759 01bc 9642     		.uleb128 0x2116
 4760 01be 19       		.uleb128 0x19
 4761 01bf 01       		.uleb128 0x1
 4762 01c0 13       		.uleb128 0x13
 4763 01c1 00       		.byte	0
 4764 01c2 00       		.byte	0
 4765 01c3 1F       		.uleb128 0x1f
 4766 01c4 34       		.uleb128 0x34
 4767 01c5 00       		.byte	0
 4768 01c6 03       		.uleb128 0x3
 4769 01c7 0E       		.uleb128 0xe
 4770 01c8 3A       		.uleb128 0x3a
 4771 01c9 0B       		.uleb128 0xb
 4772 01ca 3B       		.uleb128 0x3b
 4773 01cb 05       		.uleb128 0x5
 4774 01cc 49       		.uleb128 0x49
 4775 01cd 13       		.uleb128 0x13
 4776 01ce 3F       		.uleb128 0x3f
 4777 01cf 19       		.uleb128 0x19
 4778 01d0 3C       		.uleb128 0x3c
 4779 01d1 19       		.uleb128 0x19
ARM GAS  C:\Users\alex\AppData\Local\Temp\ccByxCIb.s 			page 105


 4780 01d2 00       		.byte	0
 4781 01d3 00       		.byte	0
 4782 01d4 20       		.uleb128 0x20
 4783 01d5 26       		.uleb128 0x26
 4784 01d6 00       		.byte	0
 4785 01d7 49       		.uleb128 0x49
 4786 01d8 13       		.uleb128 0x13
 4787 01d9 00       		.byte	0
 4788 01da 00       		.byte	0
 4789 01db 21       		.uleb128 0x21
 4790 01dc 21       		.uleb128 0x21
 4791 01dd 00       		.byte	0
 4792 01de 00       		.byte	0
 4793 01df 00       		.byte	0
 4794 01e0 00       		.byte	0
 4795              		.section	.debug_aranges,"",%progbits
 4796 0000 84000000 		.4byte	0x84
 4797 0004 0200     		.2byte	0x2
 4798 0006 00000000 		.4byte	.Ldebug_info0
 4799 000a 04       		.byte	0x4
 4800 000b 00       		.byte	0
 4801 000c 0000     		.2byte	0
 4802 000e 0000     		.2byte	0
 4803 0010 00000000 		.4byte	.LFB0
 4804 0014 F0000000 		.4byte	.LFE0-.LFB0
 4805 0018 00000000 		.4byte	.LFB1
 4806 001c EC000000 		.4byte	.LFE1-.LFB1
 4807 0020 00000000 		.4byte	.LFB2
 4808 0024 18010000 		.4byte	.LFE2-.LFB2
 4809 0028 00000000 		.4byte	.LFB3
 4810 002c DC000000 		.4byte	.LFE3-.LFB3
 4811 0030 00000000 		.4byte	.LFB4
 4812 0034 70000000 		.4byte	.LFE4-.LFB4
 4813 0038 00000000 		.4byte	.LFB5
 4814 003c 40010000 		.4byte	.LFE5-.LFB5
 4815 0040 00000000 		.4byte	.LFB6
 4816 0044 64000000 		.4byte	.LFE6-.LFB6
 4817 0048 00000000 		.4byte	.LFB7
 4818 004c 44000000 		.4byte	.LFE7-.LFB7
 4819 0050 00000000 		.4byte	.LFB8
 4820 0054 70000000 		.4byte	.LFE8-.LFB8
 4821 0058 00000000 		.4byte	.LFB9
 4822 005c 40010000 		.4byte	.LFE9-.LFB9
 4823 0060 00000000 		.4byte	.LFB10
 4824 0064 68010000 		.4byte	.LFE10-.LFB10
 4825 0068 00000000 		.4byte	.LFB11
 4826 006c 40000000 		.4byte	.LFE11-.LFB11
 4827 0070 00000000 		.4byte	.LFB12
 4828 0074 9C000000 		.4byte	.LFE12-.LFB12
 4829 0078 00000000 		.4byte	.LFB13
 4830 007c 04010000 		.4byte	.LFE13-.LFB13
 4831 0080 00000000 		.4byte	0
 4832 0084 00000000 		.4byte	0
 4833              		.section	.debug_ranges,"",%progbits
 4834              	.Ldebug_ranges0:
 4835 0000 00000000 		.4byte	.LFB0
 4836 0004 F0000000 		.4byte	.LFE0
ARM GAS  C:\Users\alex\AppData\Local\Temp\ccByxCIb.s 			page 106


 4837 0008 00000000 		.4byte	.LFB1
 4838 000c EC000000 		.4byte	.LFE1
 4839 0010 00000000 		.4byte	.LFB2
 4840 0014 18010000 		.4byte	.LFE2
 4841 0018 00000000 		.4byte	.LFB3
 4842 001c DC000000 		.4byte	.LFE3
 4843 0020 00000000 		.4byte	.LFB4
 4844 0024 70000000 		.4byte	.LFE4
 4845 0028 00000000 		.4byte	.LFB5
 4846 002c 40010000 		.4byte	.LFE5
 4847 0030 00000000 		.4byte	.LFB6
 4848 0034 64000000 		.4byte	.LFE6
 4849 0038 00000000 		.4byte	.LFB7
 4850 003c 44000000 		.4byte	.LFE7
 4851 0040 00000000 		.4byte	.LFB8
 4852 0044 70000000 		.4byte	.LFE8
 4853 0048 00000000 		.4byte	.LFB9
 4854 004c 40010000 		.4byte	.LFE9
 4855 0050 00000000 		.4byte	.LFB10
 4856 0054 68010000 		.4byte	.LFE10
 4857 0058 00000000 		.4byte	.LFB11
 4858 005c 40000000 		.4byte	.LFE11
 4859 0060 00000000 		.4byte	.LFB12
 4860 0064 9C000000 		.4byte	.LFE12
 4861 0068 00000000 		.4byte	.LFB13
 4862 006c 04010000 		.4byte	.LFE13
 4863 0070 00000000 		.4byte	0
 4864 0074 00000000 		.4byte	0
 4865              		.section	.debug_line,"",%progbits
 4866              	.Ldebug_line0:
 4867 0000 60030000 		.section	.debug_str,"MS",%progbits,1
 4867      0200B100 
 4867      00000201 
 4867      FB0E0D00 
 4867      01010101 
 4868              	.LASF217:
 4869 0000 6F735F74 		.ascii	"os_tcb\000"
 4869      636200
 4870              	.LASF108:
 4871 0007 4F535F45 		.ascii	"OS_ERR_PRIO_INVALID\000"
 4871      52525F50 
 4871      52494F5F 
 4871      494E5641 
 4871      4C494400 
 4872              	.LASF201:
 4873 001b 4F535F45 		.ascii	"OS_ERR\000"
 4873      525200
 4874              	.LASF23:
 4875 0022 4F535F43 		.ascii	"OS_CTX_SW_CTR\000"
 4875      54585F53 
 4875      575F4354 
 4875      5200
 4876              	.LASF323:
 4877 0030 4F535F54 		.ascii	"OS_TmrResetPeak\000"
 4877      6D725265 
 4877      73657450 
 4877      65616B00 
ARM GAS  C:\Users\alex\AppData\Local\Temp\ccByxCIb.s 			page 107


 4878              	.LASF326:
 4879 0040 4F535F54 		.ascii	"OS_TmrTask\000"
 4879      6D725461 
 4879      736B00
 4880              	.LASF187:
 4881 004b 4F535F45 		.ascii	"OS_ERR_TMR_ISR\000"
 4881      52525F54 
 4881      4D525F49 
 4881      535200
 4882              	.LASF174:
 4883 005a 4F535F45 		.ascii	"OS_ERR_TIME_INVALID_MINUTES\000"
 4883      52525F54 
 4883      494D455F 
 4883      494E5641 
 4883      4C49445F 
 4884              	.LASF41:
 4885 0076 4F535F45 		.ascii	"OS_ERR_A\000"
 4885      52525F41 
 4885      00
 4886              	.LASF43:
 4887 007f 4F535F45 		.ascii	"OS_ERR_B\000"
 4887      52525F42 
 4887      00
 4888              	.LASF44:
 4889 0088 4F535F45 		.ascii	"OS_ERR_C\000"
 4889      52525F43 
 4889      00
 4890              	.LASF46:
 4891 0091 4F535F45 		.ascii	"OS_ERR_D\000"
 4891      52525F44 
 4891      00
 4892              	.LASF48:
 4893 009a 4F535F45 		.ascii	"OS_ERR_E\000"
 4893      52525F45 
 4893      00
 4894              	.LASF49:
 4895 00a3 4F535F45 		.ascii	"OS_ERR_F\000"
 4895      52525F46 
 4895      00
 4896              	.LASF55:
 4897 00ac 4F535F45 		.ascii	"OS_ERR_G\000"
 4897      52525F47 
 4897      00
 4898              	.LASF56:
 4899 00b5 4F535F45 		.ascii	"OS_ERR_H\000"
 4899      52525F48 
 4899      00
 4900              	.LASF57:
 4901 00be 4F535F45 		.ascii	"OS_ERR_I\000"
 4901      52525F49 
 4901      00
 4902              	.LASF64:
 4903 00c7 4F535F45 		.ascii	"OS_ERR_J\000"
 4903      52525F4A 
 4903      00
 4904              	.LASF65:
 4905 00d0 4F535F45 		.ascii	"OS_ERR_K\000"
ARM GAS  C:\Users\alex\AppData\Local\Temp\ccByxCIb.s 			page 108


 4905      52525F4B 
 4905      00
 4906              	.LASF66:
 4907 00d9 4F535F45 		.ascii	"OS_ERR_L\000"
 4907      52525F4C 
 4907      00
 4908              	.LASF68:
 4909 00e2 4F535F45 		.ascii	"OS_ERR_M\000"
 4909      52525F4D 
 4909      00
 4910              	.LASF84:
 4911 00eb 4F535F45 		.ascii	"OS_ERR_N\000"
 4911      52525F4E 
 4911      00
 4912              	.LASF87:
 4913 00f4 4F535F45 		.ascii	"OS_ERR_O\000"
 4913      52525F4F 
 4913      00
 4914              	.LASF95:
 4915 00fd 4F535F45 		.ascii	"OS_ERR_P\000"
 4915      52525F50 
 4915      00
 4916              	.LASF110:
 4917 0106 4F535F45 		.ascii	"OS_ERR_Q\000"
 4917      52525F51 
 4917      00
 4918              	.LASF115:
 4919 010f 4F535F45 		.ascii	"OS_ERR_R\000"
 4919      52525F52 
 4919      00
 4920              	.LASF119:
 4921 0118 4F535F45 		.ascii	"OS_ERR_S\000"
 4921      52525F53 
 4921      00
 4922              	.LASF136:
 4923 0121 4F535F45 		.ascii	"OS_ERR_T\000"
 4923      52525F54 
 4923      00
 4924              	.LASF194:
 4925 012a 4F535F45 		.ascii	"OS_ERR_U\000"
 4925      52525F55 
 4925      00
 4926              	.LASF195:
 4927 0133 4F535F45 		.ascii	"OS_ERR_V\000"
 4927      52525F56 
 4927      00
 4928              	.LASF196:
 4929 013c 4F535F45 		.ascii	"OS_ERR_W\000"
 4929      52525F57 
 4929      00
 4930              	.LASF197:
 4931 0145 4F535F45 		.ascii	"OS_ERR_X\000"
 4931      52525F58 
 4931      00
 4932              	.LASF184:
 4933 014e 4F535F45 		.ascii	"OS_ERR_TMR_INVALID_PERIOD\000"
 4933      52525F54 
ARM GAS  C:\Users\alex\AppData\Local\Temp\ccByxCIb.s 			page 109


 4933      4D525F49 
 4933      4E56414C 
 4933      49445F50 
 4934              	.LASF351:
 4935 0168 6F735F65 		.ascii	"os_err\000"
 4935      727200
 4936              	.LASF213:
 4937 016f 4E627245 		.ascii	"NbrEntries\000"
 4937      6E747269 
 4937      657300
 4938              	.LASF328:
 4939 017a 646F6E65 		.ascii	"done\000"
 4939      00
 4940              	.LASF61:
 4941 017f 4F535F45 		.ascii	"OS_ERR_INT_Q_SIZE\000"
 4941      52525F49 
 4941      4E545F51 
 4941      5F53495A 
 4941      4500
 4942              	.LASF45:
 4943 0191 4F535F45 		.ascii	"OS_ERR_CREATE_ISR\000"
 4943      52525F43 
 4943      52454154 
 4943      455F4953 
 4943      5200
 4944              	.LASF21:
 4945 01a3 4F535F43 		.ascii	"OS_CPU_USAGE\000"
 4945      50555F55 
 4945      53414745 
 4945      00
 4946              	.LASF168:
 4947 01b0 4F535F45 		.ascii	"OS_ERR_TICK_STK_SIZE_INVALID\000"
 4947      52525F54 
 4947      49434B5F 
 4947      53544B5F 
 4947      53495A45 
 4948              	.LASF9:
 4949 01cd 4350555F 		.ascii	"CPU_INT32U\000"
 4949      494E5433 
 4949      325500
 4950              	.LASF133:
 4951 01d8 4F535F45 		.ascii	"OS_ERR_STK_INVALID\000"
 4951      52525F53 
 4951      544B5F49 
 4951      4E56414C 
 4951      494400
 4952              	.LASF248:
 4953 01eb 466C6167 		.ascii	"FlagsOpt\000"
 4953      734F7074 
 4953      00
 4954              	.LASF149:
 4955 01f4 4F535F45 		.ascii	"OS_ERR_TASK_RESUME_ISR\000"
 4955      52525F54 
 4955      41534B5F 
 4955      52455355 
 4955      4D455F49 
 4956              	.LASF103:
ARM GAS  C:\Users\alex\AppData\Local\Temp\ccByxCIb.s 			page 110


 4957 020b 4F535F45 		.ascii	"OS_ERR_PEND_WOULD_BLOCK\000"
 4957      52525F50 
 4957      454E445F 
 4957      574F554C 
 4957      445F424C 
 4958              	.LASF319:
 4959 0223 4F535F54 		.ascii	"OS_TmrLink\000"
 4959      6D724C69 
 4959      6E6B00
 4960              	.LASF137:
 4961 022e 4F535F45 		.ascii	"OS_ERR_TASK_CHANGE_PRIO_ISR\000"
 4961      52525F54 
 4961      41534B5F 
 4961      4348414E 
 4961      47455F50 
 4962              	.LASF299:
 4963 024a 705F6361 		.ascii	"p_callback_arg\000"
 4963      6C6C6261 
 4963      636B5F61 
 4963      726700
 4964              	.LASF318:
 4965 0259 705F7370 		.ascii	"p_spoke\000"
 4965      6F6B6500 
 4966              	.LASF127:
 4967 0261 4F535F45 		.ascii	"OS_ERR_STAT_RESET_ISR\000"
 4967      52525F53 
 4967      5441545F 
 4967      52455345 
 4967      545F4953 
 4968              	.LASF102:
 4969 0277 4F535F45 		.ascii	"OS_ERR_PEND_LOCKED\000"
 4969      52525F50 
 4969      454E445F 
 4969      4C4F434B 
 4969      454400
 4970              	.LASF29:
 4971 028a 4F535F4F 		.ascii	"OS_OBJ_QTY\000"
 4971      424A5F51 
 4971      545900
 4972              	.LASF348:
 4973 0295 474E5520 		.ascii	"GNU C11 5.4.1 20160609 (release) [ARM/embedded-5-br"
 4973      43313120 
 4973      352E342E 
 4973      31203230 
 4973      31363036 
 4974 02c8 616E6368 		.ascii	"anch revision 237715] -mcpu=cortex-m3 -mthumb -g -O"
 4974      20726576 
 4974      6973696F 
 4974      6E203233 
 4974      37373135 
 4975 02fb 30202D66 		.ascii	"0 -ffunction-sections -ffat-lto-objects\000"
 4975      66756E63 
 4975      74696F6E 
 4975      2D736563 
 4975      74696F6E 
 4976              	.LASF334:
 4977 0323 4F53546D 		.ascii	"OSTmrTaskTCB\000"
ARM GAS  C:\Users\alex\AppData\Local\Temp\ccByxCIb.s 			page 111


 4977      72546173 
 4977      6B544342 
 4977      00
 4978              	.LASF147:
 4979 0330 4F535F45 		.ascii	"OS_ERR_TASK_NOT_SUSPENDED\000"
 4979      52525F54 
 4979      41534B5F 
 4979      4E4F545F 
 4979      53555350 
 4980              	.LASF145:
 4981 034a 4F535F45 		.ascii	"OS_ERR_TASK_NOT_DLY\000"
 4981      52525F54 
 4981      41534B5F 
 4981      4E4F545F 
 4981      444C5900 
 4982              	.LASF261:
 4983 035e 44626750 		.ascii	"DbgPrevPtr\000"
 4983      72657650 
 4983      747200
 4984              	.LASF59:
 4985 0369 4F535F45 		.ascii	"OS_ERR_INT_Q\000"
 4985      52525F49 
 4985      4E545F51 
 4985      00
 4986              	.LASF262:
 4987 0376 4462674E 		.ascii	"DbgNextPtr\000"
 4987      65787450 
 4987      747200
 4988              	.LASF159:
 4989 0381 4F535F45 		.ascii	"OS_ERR_TASK_WAITING\000"
 4989      52525F54 
 4989      41534B5F 
 4989      57414954 
 4989      494E4700 
 4990              	.LASF276:
 4991 0395 53746174 		.ascii	"State\000"
 4991      6500
 4992              	.LASF42:
 4993 039b 4F535F45 		.ascii	"OS_ERR_ACCEPT_ISR\000"
 4993      52525F41 
 4993      43434550 
 4993      545F4953 
 4993      5200
 4994              	.LASF157:
 4995 03ad 4F535F45 		.ascii	"OS_ERR_TASK_SUSPEND_ISR\000"
 4995      52525F54 
 4995      41534B5F 
 4995      53555350 
 4995      454E445F 
 4996              	.LASF83:
 4997 03c5 4F535F45 		.ascii	"OS_ERR_MUTEX_NESTING\000"
 4997      52525F4D 
 4997      55544558 
 4997      5F4E4553 
 4997      54494E47 
 4998              	.LASF329:
 4999 03da 74735F73 		.ascii	"ts_start\000"
ARM GAS  C:\Users\alex\AppData\Local\Temp\ccByxCIb.s 			page 112


 4999      74617274 
 4999      00
 5000              	.LASF185:
 5001 03e3 4F535F45 		.ascii	"OS_ERR_TMR_INVALID_STATE\000"
 5001      52525F54 
 5001      4D525F49 
 5001      4E56414C 
 5001      49445F53 
 5002              	.LASF230:
 5003 03fc 50656E64 		.ascii	"PendOn\000"
 5003      4F6E00
 5004              	.LASF346:
 5005 0403 4F534366 		.ascii	"OSCfg_TmrWheelSize\000"
 5005      675F546D 
 5005      72576865 
 5005      656C5369 
 5005      7A6500
 5006              	.LASF235:
 5007 0416 50656E64 		.ascii	"PendDataTblEntries\000"
 5007      44617461 
 5007      54626C45 
 5007      6E747269 
 5007      657300
 5008              	.LASF88:
 5009 0429 4F535F45 		.ascii	"OS_ERR_OBJ_CREATED\000"
 5009      52525F4F 
 5009      424A5F43 
 5009      52454154 
 5009      454400
 5010              	.LASF336:
 5011 043c 4F53546D 		.ascii	"OSTmrTickCtr\000"
 5011      72546963 
 5011      6B437472 
 5011      00
 5012              	.LASF345:
 5013 0449 4F534366 		.ascii	"OSCfg_TmrTaskStkSize\000"
 5013      675F546D 
 5013      72546173 
 5013      6B53746B 
 5013      53697A65 
 5014              	.LASF290:
 5015 045e 5461696C 		.ascii	"TailPtr\000"
 5015      50747200 
 5016              	.LASF344:
 5017 0466 4F534366 		.ascii	"OSCfg_TmrTaskStkLimit\000"
 5017      675F546D 
 5017      72546173 
 5017      6B53746B 
 5017      4C696D69 
 5018              	.LASF317:
 5019 047c 4F535F54 		.ascii	"OS_TmrInit\000"
 5019      6D72496E 
 5019      697400
 5020              	.LASF155:
 5021 0487 4F535F45 		.ascii	"OS_ERR_TASK_SUSPEND_IDLE\000"
 5021      52525F54 
 5021      41534B5F 
ARM GAS  C:\Users\alex\AppData\Local\Temp\ccByxCIb.s 			page 113


 5021      53555350 
 5021      454E445F 
 5022              	.LASF60:
 5023 04a0 4F535F45 		.ascii	"OS_ERR_INT_Q_FULL\000"
 5023      52525F49 
 5023      4E545F51 
 5023      5F46554C 
 5023      4C00
 5024              	.LASF238:
 5025 04b2 5469636B 		.ascii	"TickCtrMatch\000"
 5025      4374724D 
 5025      61746368 
 5025      00
 5026              	.LASF306:
 5027 04bf 4F53546D 		.ascii	"OSTmrStart\000"
 5027      72537461 
 5027      727400
 5028              	.LASF284:
 5029 04ca 5264794D 		.ascii	"RdyMsgPtr\000"
 5029      73675074 
 5029      7200
 5030              	.LASF292:
 5031 04d4 6F735F70 		.ascii	"os_pend_obj\000"
 5031      656E645F 
 5031      6F626A00 
 5032              	.LASF312:
 5033 04e0 4F535F54 		.ascii	"OS_TmrClr\000"
 5033      6D72436C 
 5033      7200
 5034              	.LASF58:
 5035 04ea 4F535F45 		.ascii	"OS_ERR_ILLEGAL_CREATE_RUN_TIME\000"
 5035      52525F49 
 5035      4C4C4547 
 5035      414C5F43 
 5035      52454154 
 5036              	.LASF246:
 5037 0509 466C6167 		.ascii	"FlagsPend\000"
 5037      7350656E 
 5037      6400
 5038              	.LASF183:
 5039 0513 4F535F45 		.ascii	"OS_ERR_TMR_INVALID_DLY\000"
 5039      52525F54 
 5039      4D525F49 
 5039      4E56414C 
 5039      49445F44 
 5040              	.LASF252:
 5041 052a 43747853 		.ascii	"CtxSwCtr\000"
 5041      77437472 
 5041      00
 5042              	.LASF150:
 5043 0533 4F535F45 		.ascii	"OS_ERR_TASK_RESUME_PRIO\000"
 5043      52525F54 
 5043      41534B5F 
 5043      52455355 
 5043      4D455F50 
 5044              	.LASF342:
 5045 054b 4F534366 		.ascii	"OSCfg_TmrTaskRate_Hz\000"
ARM GAS  C:\Users\alex\AppData\Local\Temp\ccByxCIb.s 			page 114


 5045      675F546D 
 5045      72546173 
 5045      6B526174 
 5045      655F487A 
 5046              	.LASF32:
 5047 0560 4F535F50 		.ascii	"OS_PRIO\000"
 5047      52494F00 
 5048              	.LASF13:
 5049 0568 666C6F61 		.ascii	"float\000"
 5049      7400
 5050              	.LASF309:
 5051 056e 4F53546D 		.ascii	"OSTmrStop\000"
 5051      7253746F 
 5051      7000
 5052              	.LASF104:
 5053 0578 4F535F45 		.ascii	"OS_ERR_POST_NULL_PTR\000"
 5053      52525F50 
 5053      4F53545F 
 5053      4E554C4C 
 5053      5F505452 
 5054              	.LASF86:
 5055 058d 4F535F45 		.ascii	"OS_ERR_NO_MORE_ID_AVAIL\000"
 5055      52525F4E 
 5055      4F5F4D4F 
 5055      52455F49 
 5055      445F4156 
 5056              	.LASF264:
 5057 05a5 4F535F54 		.ascii	"OS_TICK_SPOKE\000"
 5057      49434B5F 
 5057      53504F4B 
 5057      4500
 5058              	.LASF76:
 5059 05b3 4F535F45 		.ascii	"OS_ERR_MEM_INVALID_P_DATA\000"
 5059      52525F4D 
 5059      454D5F49 
 5059      4E56414C 
 5059      49445F50 
 5060              	.LASF301:
 5061 05cd 6370755F 		.ascii	"cpu_sr\000"
 5061      737200
 5062              	.LASF188:
 5063 05d4 4F535F45 		.ascii	"OS_ERR_TMR_NO_CALLBACK\000"
 5063      52525F54 
 5063      4D525F4E 
 5063      4F5F4341 
 5063      4C4C4241 
 5064              	.LASF181:
 5065 05eb 4F535F45 		.ascii	"OS_ERR_TMR_INACTIVE\000"
 5065      52525F54 
 5065      4D525F49 
 5065      4E414354 
 5065      49564500 
 5066              	.LASF161:
 5067 05ff 4F535F45 		.ascii	"OS_ERR_TLS_ID_INVALID\000"
 5067      52525F54 
 5067      4C535F49 
 5067      445F494E 
ARM GAS  C:\Users\alex\AppData\Local\Temp\ccByxCIb.s 			page 115


 5067      56414C49 
 5068              	.LASF11:
 5069 0615 6C6F6E67 		.ascii	"long long unsigned int\000"
 5069      206C6F6E 
 5069      6720756E 
 5069      7369676E 
 5069      65642069 
 5070              	.LASF152:
 5071 062c 4F535F45 		.ascii	"OS_ERR_TASK_RUNNING\000"
 5071      52525F54 
 5071      41534B5F 
 5071      52554E4E 
 5071      494E4700 
 5072              	.LASF259:
 5073 0640 53746B55 		.ascii	"StkUsed\000"
 5073      73656400 
 5074              	.LASF186:
 5075 0648 4F535F45 		.ascii	"OS_ERR_TMR_INVALID\000"
 5075      52525F54 
 5075      4D525F49 
 5075      4E56414C 
 5075      494400
 5076              	.LASF279:
 5077 065b 4F535F50 		.ascii	"OS_PEND_DATA\000"
 5077      454E445F 
 5077      44415441 
 5077      00
 5078              	.LASF156:
 5079 0668 4F535F45 		.ascii	"OS_ERR_TASK_SUSPEND_INT_HANDLER\000"
 5079      52525F54 
 5079      41534B5F 
 5079      53555350 
 5079      454E445F 
 5080              	.LASF141:
 5081 0688 4F535F45 		.ascii	"OS_ERR_TASK_DEL_INVALID\000"
 5081      52525F54 
 5081      41534B5F 
 5081      44454C5F 
 5081      494E5641 
 5082              	.LASF274:
 5083 06a0 52656D61 		.ascii	"Remain\000"
 5083      696E00
 5084              	.LASF338:
 5085 06a7 4F53546D 		.ascii	"OSTmrUpdateCtr\000"
 5085      72557064 
 5085      61746543 
 5085      747200
 5086              	.LASF191:
 5087 06b6 4F535F45 		.ascii	"OS_ERR_TMR_STK_INVALID\000"
 5087      52525F54 
 5087      4D525F53 
 5087      544B5F49 
 5087      4E56414C 
 5088              	.LASF298:
 5089 06cd 705F6361 		.ascii	"p_callback\000"
 5089      6C6C6261 
 5089      636B00
ARM GAS  C:\Users\alex\AppData\Local\Temp\ccByxCIb.s 			page 116


 5090              	.LASF4:
 5091 06d8 4350555F 		.ascii	"CPU_INT08U\000"
 5091      494E5430 
 5091      385500
 5092              	.LASF349:
 5093 06e3 2E2E5C2E 		.ascii	"..\\..\\..\\..\\..\\..\\uCOS-III\\Source\\os_tmr.c\000"
 5093      2E5C2E2E 
 5093      5C2E2E5C 
 5093      2E2E5C2E 
 5093      2E5C7543 
 5094              	.LASF277:
 5095 070e 4F535F54 		.ascii	"OS_TMR_SPOKE\000"
 5095      4D525F53 
 5095      504F4B45 
 5095      00
 5096              	.LASF208:
 5097 071b 6F735F6D 		.ascii	"os_msg\000"
 5097      736700
 5098              	.LASF160:
 5099 0722 4F535F45 		.ascii	"OS_ERR_TCB_INVALID\000"
 5099      52525F54 
 5099      43425F49 
 5099      4E56414C 
 5099      494400
 5100              	.LASF234:
 5101 0735 53746B53 		.ascii	"StkSize\000"
 5101      697A6500 
 5102              	.LASF226:
 5103 073d 53746B42 		.ascii	"StkBasePtr\000"
 5103      61736550 
 5103      747200
 5104              	.LASF310:
 5105 0748 705F666E 		.ascii	"p_fnct\000"
 5105      637400
 5106              	.LASF112:
 5107 074f 4F535F45 		.ascii	"OS_ERR_Q_EMPTY\000"
 5107      52525F51 
 5107      5F454D50 
 5107      545900
 5108              	.LASF176:
 5109 075e 4F535F45 		.ascii	"OS_ERR_TIME_INVALID_MILLISECONDS\000"
 5109      52525F54 
 5109      494D455F 
 5109      494E5641 
 5109      4C49445F 
 5110              	.LASF34:
 5111 077f 4F535F52 		.ascii	"OS_REG\000"
 5111      454700
 5112              	.LASF85:
 5113 0786 4F535F45 		.ascii	"OS_ERR_NAME\000"
 5113      52525F4E 
 5113      414D4500 
 5114              	.LASF37:
 5115 0792 4F535F53 		.ascii	"OS_STATUS\000"
 5115      54415455 
 5115      5300
 5116              	.LASF232:
ARM GAS  C:\Users\alex\AppData\Local\Temp\ccByxCIb.s 			page 117


 5117 079c 5461736B 		.ascii	"TaskState\000"
 5117      53746174 
 5117      6500
 5118              	.LASF165:
 5119 07a6 4F535F45 		.ascii	"OS_ERR_TLS_DESTRUCT_ASSIGNED\000"
 5119      52525F54 
 5119      4C535F44 
 5119      45535452 
 5119      5543545F 
 5120              	.LASF81:
 5121 07c3 4F535F45 		.ascii	"OS_ERR_MUTEX_NOT_OWNER\000"
 5121      52525F4D 
 5121      55544558 
 5121      5F4E4F54 
 5121      5F4F574E 
 5122              	.LASF27:
 5123 07da 4F535F4D 		.ascii	"OS_MSG_SIZE\000"
 5123      53475F53 
 5123      495A4500 
 5124              	.LASF173:
 5125 07e6 4F535F45 		.ascii	"OS_ERR_TIME_INVALID_HOURS\000"
 5125      52525F54 
 5125      494D455F 
 5125      494E5641 
 5125      4C49445F 
 5126              	.LASF189:
 5127 0800 4F535F45 		.ascii	"OS_ERR_TMR_NON_AVAIL\000"
 5127      52525F54 
 5127      4D525F4E 
 5127      4F4E5F41 
 5127      5641494C 
 5128              	.LASF0:
 5129 0815 4350555F 		.ascii	"CPU_CHAR\000"
 5129      43484152 
 5129      00
 5130              	.LASF138:
 5131 081e 4F535F45 		.ascii	"OS_ERR_TASK_CREATE_ISR\000"
 5131      52525F54 
 5131      41534B5F 
 5131      43524541 
 5131      54455F49 
 5132              	.LASF22:
 5133 0835 4F535F43 		.ascii	"OS_CTR\000"
 5133      545200
 5134              	.LASF278:
 5135 083c 6F735F74 		.ascii	"os_tmr_spoke\000"
 5135      6D725F73 
 5135      706F6B65 
 5135      00
 5136              	.LASF17:
 5137 0849 4350555F 		.ascii	"CPU_STK_SIZE\000"
 5137      53544B5F 
 5137      53495A45 
 5137      00
 5138              	.LASF26:
 5139 0856 4F535F4D 		.ascii	"OS_MSG_QTY\000"
 5139      53475F51 
ARM GAS  C:\Users\alex\AppData\Local\Temp\ccByxCIb.s 			page 118


 5139      545900
 5140              	.LASF94:
 5141 0861 4F535F45 		.ascii	"OS_ERR_OS_RUNNING\000"
 5141      52525F4F 
 5141      535F5255 
 5141      4E4E494E 
 5141      4700
 5142              	.LASF260:
 5143 0873 53746B46 		.ascii	"StkFree\000"
 5143      72656500 
 5144              	.LASF237:
 5145 087b 5469636B 		.ascii	"TickCtrPrev\000"
 5145      43747250 
 5145      72657600 
 5146              	.LASF212:
 5147 0887 4E627245 		.ascii	"NbrEntriesSize\000"
 5147      6E747269 
 5147      65735369 
 5147      7A6500
 5148              	.LASF315:
 5149 0896 705F746D 		.ascii	"p_tmr_next\000"
 5149      725F6E65 
 5149      787400
 5150              	.LASF179:
 5151 08a1 4F535F45 		.ascii	"OS_ERR_TIME_ZERO_DLY\000"
 5151      52525F54 
 5151      494D455F 
 5151      5A45524F 
 5151      5F444C59 
 5152              	.LASF223:
 5153 08b6 5469636B 		.ascii	"TickPrevPtr\000"
 5153      50726576 
 5153      50747200 
 5154              	.LASF247:
 5155 08c2 466C6167 		.ascii	"FlagsRdy\000"
 5155      73526479 
 5155      00
 5156              	.LASF129:
 5157 08cb 4F535F45 		.ascii	"OS_ERR_STAT_STK_INVALID\000"
 5157      52525F53 
 5157      5441545F 
 5157      53544B5F 
 5157      494E5641 
 5158              	.LASF51:
 5159 08e3 4F535F45 		.ascii	"OS_ERR_FLAG_GRP_DEPLETED\000"
 5159      52525F46 
 5159      4C41475F 
 5159      4752505F 
 5159      4445504C 
 5160              	.LASF72:
 5161 08fc 4F535F45 		.ascii	"OS_ERR_MEM_INVALID_BLKS\000"
 5161      52525F4D 
 5161      454D5F49 
 5161      4E56414C 
 5161      49445F42 
 5162              	.LASF271:
 5163 0914 43616C6C 		.ascii	"CallbackPtr\000"
ARM GAS  C:\Users\alex\AppData\Local\Temp\ccByxCIb.s 			page 119


 5163      6261636B 
 5163      50747200 
 5164              	.LASF244:
 5165 0920 4D736751 		.ascii	"MsgQPendTimeMax\000"
 5165      50656E64 
 5165      54696D65 
 5165      4D617800 
 5166              	.LASF243:
 5167 0930 4D736751 		.ascii	"MsgQPendTime\000"
 5167      50656E64 
 5167      54696D65 
 5167      00
 5168              	.LASF202:
 5169 093d 4F535F4D 		.ascii	"OS_MSG\000"
 5169      534700
 5170              	.LASF296:
 5171 0944 705F6E61 		.ascii	"p_name\000"
 5171      6D6500
 5172              	.LASF182:
 5173 094b 4F535F45 		.ascii	"OS_ERR_TMR_INVALID_DEST\000"
 5173      52525F54 
 5173      4D525F49 
 5173      4E56414C 
 5173      49445F44 
 5174              	.LASF121:
 5175 0963 4F535F45 		.ascii	"OS_ERR_SCHED_LOCK_ISR\000"
 5175      52525F53 
 5175      43484544 
 5175      5F4C4F43 
 5175      4B5F4953 
 5176              	.LASF343:
 5177 0979 4F534366 		.ascii	"OSCfg_TmrTaskStkBasePtr\000"
 5177      675F546D 
 5177      72546173 
 5177      6B53746B 
 5177      42617365 
 5178              	.LASF47:
 5179 0991 4F535F45 		.ascii	"OS_ERR_DEL_ISR\000"
 5179      52525F44 
 5179      454C5F49 
 5179      535200
 5180              	.LASF300:
 5181 09a0 705F6572 		.ascii	"p_err\000"
 5181      7200
 5182              	.LASF311:
 5183 09a6 4F53546D 		.ascii	"OSTmrCreate\000"
 5183      72437265 
 5183      61746500 
 5184              	.LASF113:
 5185 09b2 4F535F45 		.ascii	"OS_ERR_Q_MAX\000"
 5185      52525F51 
 5185      5F4D4158 
 5185      00
 5186              	.LASF221:
 5187 09bf 50726576 		.ascii	"PrevPtr\000"
 5187      50747200 
 5188              	.LASF2:
ARM GAS  C:\Users\alex\AppData\Local\Temp\ccByxCIb.s 			page 120


 5189 09c7 63686172 		.ascii	"char\000"
 5189      00
 5190              	.LASF30:
 5191 09cc 4F535F4F 		.ascii	"OS_OBJ_TYPE\000"
 5191      424A5F54 
 5191      59504500 
 5192              	.LASF164:
 5193 09d8 4F535F45 		.ascii	"OS_ERR_TLS_NOT_EN\000"
 5193      52525F54 
 5193      4C535F4E 
 5193      4F545F45 
 5193      4E00
 5194              	.LASF92:
 5195 09ea 4F535F45 		.ascii	"OS_ERR_OPT_INVALID\000"
 5195      52525F4F 
 5195      50545F49 
 5195      4E56414C 
 5195      494400
 5196              	.LASF18:
 5197 09fd 4350555F 		.ascii	"CPU_SR\000"
 5197      535200
 5198              	.LASF39:
 5199 0a04 4F535F54 		.ascii	"OS_TMR_SPOKE_IX\000"
 5199      4D525F53 
 5199      504F4B45 
 5199      5F495800 
 5200              	.LASF316:
 5201 0a14 705F746D 		.ascii	"p_tmr_prev\000"
 5201      725F7072 
 5201      657600
 5202              	.LASF120:
 5203 0a1f 4F535F45 		.ascii	"OS_ERR_SCHED_INVALID_TIME_SLICE\000"
 5203      52525F53 
 5203      43484544 
 5203      5F494E56 
 5203      414C4944 
 5204              	.LASF242:
 5205 0a3f 4D736751 		.ascii	"MsgQ\000"
 5205      00
 5206              	.LASF33:
 5207 0a44 4F535F52 		.ascii	"OS_RATE_HZ\000"
 5207      4154455F 
 5207      485A00
 5208              	.LASF227:
 5209 0a4f 5461736B 		.ascii	"TaskEntryAddr\000"
 5209      456E7472 
 5209      79416464 
 5209      7200
 5210              	.LASF128:
 5211 0a5d 4F535F45 		.ascii	"OS_ERR_STAT_PRIO_INVALID\000"
 5211      52525F53 
 5211      5441545F 
 5211      5052494F 
 5211      5F494E56 
 5212              	.LASF177:
 5213 0a76 4F535F45 		.ascii	"OS_ERR_TIME_NOT_DLY\000"
 5213      52525F54 
ARM GAS  C:\Users\alex\AppData\Local\Temp\ccByxCIb.s 			page 121


 5213      494D455F 
 5213      4E4F545F 
 5213      444C5900 
 5214              	.LASF225:
 5215 0a8a 4E616D65 		.ascii	"NamePtr\000"
 5215      50747200 
 5216              	.LASF231:
 5217 0a92 50656E64 		.ascii	"PendStatus\000"
 5217      53746174 
 5217      757300
 5218              	.LASF207:
 5219 0a9d 4F535F4D 		.ascii	"OS_MSG_Q\000"
 5219      53475F51 
 5219      00
 5220              	.LASF241:
 5221 0aa6 54696D65 		.ascii	"TimeQuantaCtr\000"
 5221      5175616E 
 5221      74614374 
 5221      7200
 5222              	.LASF199:
 5223 0ab4 4F535F45 		.ascii	"OS_ERR_YIELD_ISR\000"
 5223      52525F59 
 5223      49454C44 
 5223      5F495352 
 5223      00
 5224              	.LASF89:
 5225 0ac5 4F535F45 		.ascii	"OS_ERR_OBJ_DEL\000"
 5225      52525F4F 
 5225      424A5F44 
 5225      454C00
 5226              	.LASF20:
 5227 0ad4 4350555F 		.ascii	"CPU_TS\000"
 5227      545300
 5228              	.LASF12:
 5229 0adb 6C6F6E67 		.ascii	"long long int\000"
 5229      206C6F6E 
 5229      6720696E 
 5229      7400
 5230              	.LASF53:
 5231 0ae9 4F535F45 		.ascii	"OS_ERR_FLAG_PEND_OPT\000"
 5231      52525F46 
 5231      4C41475F 
 5231      50454E44 
 5231      5F4F5054 
 5232              	.LASF218:
 5233 0afe 53746B50 		.ascii	"StkPtr\000"
 5233      747200
 5234              	.LASF325:
 5235 0b05 705F746D 		.ascii	"p_tmr2\000"
 5235      723200
 5236              	.LASF265:
 5237 0b0c 6F735F74 		.ascii	"os_tick_spoke\000"
 5237      69636B5F 
 5237      73706F6B 
 5237      6500
 5238              	.LASF114:
 5239 0b1a 4F535F45 		.ascii	"OS_ERR_Q_SIZE\000"
ARM GAS  C:\Users\alex\AppData\Local\Temp\ccByxCIb.s 			page 122


 5239      52525F51 
 5239      5F53495A 
 5239      4500
 5240              	.LASF254:
 5241 0b28 4379636C 		.ascii	"CyclesStart\000"
 5241      65735374 
 5241      61727400 
 5242              	.LASF322:
 5243 0b34 73706F6B 		.ascii	"spoke\000"
 5243      6500
 5244              	.LASF275:
 5245 0b3a 50657269 		.ascii	"Period\000"
 5245      6F6400
 5246              	.LASF313:
 5247 0b41 4F535F54 		.ascii	"OS_TmrDbgListAdd\000"
 5247      6D724462 
 5247      674C6973 
 5247      74416464 
 5247      00
 5248              	.LASF281:
 5249 0b52 54434250 		.ascii	"TCBPtr\000"
 5249      747200
 5250              	.LASF99:
 5251 0b59 4F535F45 		.ascii	"OS_ERR_PEND_ABORT_SELF\000"
 5251      52525F50 
 5251      454E445F 
 5251      41424F52 
 5251      545F5345 
 5252              	.LASF6:
 5253 0b70 4350555F 		.ascii	"CPU_INT16U\000"
 5253      494E5431 
 5253      365500
 5254              	.LASF118:
 5255 0b7b 4F535F45 		.ascii	"OS_ERR_ROUND_ROBIN_DISABLED\000"
 5255      52525F52 
 5255      4F554E44 
 5255      5F524F42 
 5255      494E5F44 
 5256              	.LASF73:
 5257 0b97 4F535F45 		.ascii	"OS_ERR_MEM_INVALID_PART\000"
 5257      52525F4D 
 5257      454D5F49 
 5257      4E56414C 
 5257      49445F50 
 5258              	.LASF90:
 5259 0baf 4F535F45 		.ascii	"OS_ERR_OBJ_PTR_NULL\000"
 5259      52525F4F 
 5259      424A5F50 
 5259      54525F4E 
 5259      554C4C00 
 5260              	.LASF116:
 5261 0bc3 4F535F45 		.ascii	"OS_ERR_REG_ID_INVALID\000"
 5261      52525F52 
 5261      45475F49 
 5261      445F494E 
 5261      56414C49 
 5262              	.LASF350:
ARM GAS  C:\Users\alex\AppData\Local\Temp\ccByxCIb.s 			page 123


 5263 0bd9 593A5C55 		.ascii	"Y:\\UFOP\\BCC722\\BCC722-RTOS-moinho\\UCoS\\Micrium"
 5263      464F505C 
 5263      42434337 
 5263      32325C42 
 5263      43433732 
 5264 0c07 5F325C53 		.ascii	"_2\\Software\\EvalBoards\\Cypress\\CY8CKIT-050\\PSo"
 5264      6F667477 
 5264      6172655C 
 5264      4576616C 
 5264      426F6172 
 5265 0c35 435C7543 		.ascii	"C\\uCOS-III-Probe\\uCOS-III-Probe.cydsn\000"
 5265      4F532D49 
 5265      49492D50 
 5265      726F6265 
 5265      5C75434F 
 5266              	.LASF70:
 5267 0c5b 4F535F45 		.ascii	"OS_ERR_MEM_FULL\000"
 5267      52525F4D 
 5267      454D5F46 
 5267      554C4C00 
 5268              	.LASF144:
 5269 0c6b 4F535F45 		.ascii	"OS_ERR_TASK_NO_MORE_TCB\000"
 5269      52525F54 
 5269      41534B5F 
 5269      4E4F5F4D 
 5269      4F52455F 
 5270              	.LASF75:
 5271 0c83 4F535F45 		.ascii	"OS_ERR_MEM_INVALID_P_MEM\000"
 5271      52525F4D 
 5271      454D5F49 
 5271      4E56414C 
 5271      49445F50 
 5272              	.LASF19:
 5273 0c9c 4350555F 		.ascii	"CPU_TS32\000"
 5273      54533332 
 5273      00
 5274              	.LASF249:
 5275 0ca5 53757370 		.ascii	"SuspendCtr\000"
 5275      656E6443 
 5275      747200
 5276              	.LASF220:
 5277 0cb0 53746B4C 		.ascii	"StkLimitPtr\000"
 5277      696D6974 
 5277      50747200 
 5278              	.LASF253:
 5279 0cbc 4379636C 		.ascii	"CyclesDelta\000"
 5279      65734465 
 5279      6C746100 
 5280              	.LASF35:
 5281 0cc8 4F535F53 		.ascii	"OS_SEM_CTR\000"
 5281      454D5F43 
 5281      545200
 5282              	.LASF192:
 5283 0cd3 4F535F45 		.ascii	"OS_ERR_TMR_STK_SIZE_INVALID\000"
 5283      52525F54 
 5283      4D525F53 
 5283      544B5F53 
ARM GAS  C:\Users\alex\AppData\Local\Temp\ccByxCIb.s 			page 124


 5283      495A455F 
 5284              	.LASF169:
 5285 0cef 4F535F45 		.ascii	"OS_ERR_TICK_WHEEL_SIZE\000"
 5285      52525F54 
 5285      49434B5F 
 5285      57484545 
 5285      4C5F5349 
 5286              	.LASF222:
 5287 0d06 5469636B 		.ascii	"TickNextPtr\000"
 5287      4E657874 
 5287      50747200 
 5288              	.LASF146:
 5289 0d12 4F535F45 		.ascii	"OS_ERR_TASK_NOT_EXIST\000"
 5289      52525F54 
 5289      41534B5F 
 5289      4E4F545F 
 5289      45584953 
 5290              	.LASF339:
 5291 0d28 4F534366 		.ascii	"OSCfg_StkSizeMin\000"
 5291      675F5374 
 5291      6B53697A 
 5291      654D696E 
 5291      00
 5292              	.LASF143:
 5293 0d39 4F535F45 		.ascii	"OS_ERR_TASK_INVALID\000"
 5293      52525F54 
 5293      41534B5F 
 5293      494E5641 
 5293      4C494400 
 5294              	.LASF190:
 5295 0d4d 4F535F45 		.ascii	"OS_ERR_TMR_PRIO_INVALID\000"
 5295      52525F54 
 5295      4D525F50 
 5295      52494F5F 
 5295      494E5641 
 5296              	.LASF158:
 5297 0d65 4F535F45 		.ascii	"OS_ERR_TASK_SUSPEND_PRIO\000"
 5297      52525F54 
 5297      41534B5F 
 5297      53555350 
 5297      454E445F 
 5298              	.LASF347:
 5299 0d7e 4F534366 		.ascii	"OSCfg_TmrWheel\000"
 5299      675F546D 
 5299      72576865 
 5299      656C00
 5300              	.LASF283:
 5301 0d8d 5264794F 		.ascii	"RdyObjPtr\000"
 5301      626A5074 
 5301      7200
 5302              	.LASF63:
 5303 0d97 4F535F45 		.ascii	"OS_ERR_INT_Q_STK_SIZE_INVALID\000"
 5303      52525F49 
 5303      4E545F51 
 5303      5F53544B 
 5303      5F53495A 
 5304              	.LASF162:
ARM GAS  C:\Users\alex\AppData\Local\Temp\ccByxCIb.s 			page 125


 5305 0db5 4F535F45 		.ascii	"OS_ERR_TLS_ISR\000"
 5305      52525F54 
 5305      4C535F49 
 5305      535200
 5306              	.LASF142:
 5307 0dc4 4F535F45 		.ascii	"OS_ERR_TASK_DEL_ISR\000"
 5307      52525F54 
 5307      41534B5F 
 5307      44454C5F 
 5307      49535200 
 5308              	.LASF257:
 5309 0dd8 53656D50 		.ascii	"SemPendTime\000"
 5309      656E6454 
 5309      696D6500 
 5310              	.LASF109:
 5311 0de4 4F535F45 		.ascii	"OS_ERR_PTR_INVALID\000"
 5311      52525F50 
 5311      54525F49 
 5311      4E56414C 
 5311      494400
 5312              	.LASF131:
 5313 0df7 4F535F45 		.ascii	"OS_ERR_STATE_INVALID\000"
 5313      52525F53 
 5313      54415445 
 5313      5F494E56 
 5313      414C4944 
 5314              	.LASF203:
 5315 0e0c 4E657874 		.ascii	"NextPtr\000"
 5315      50747200 
 5316              	.LASF93:
 5317 0e14 4F535F45 		.ascii	"OS_ERR_OS_NOT_RUNNING\000"
 5317      52525F4F 
 5317      535F4E4F 
 5317      545F5255 
 5317      4E4E494E 
 5318              	.LASF268:
 5319 0e2a 4F535F54 		.ascii	"OS_TMR\000"
 5319      4D5200
 5320              	.LASF331:
 5321 0e31 4F53496E 		.ascii	"OSIntNestingCtr\000"
 5321      744E6573 
 5321      74696E67 
 5321      43747200 
 5322              	.LASF305:
 5323 0e41 72656D61 		.ascii	"remain\000"
 5323      696E00
 5324              	.LASF178:
 5325 0e48 4F535F45 		.ascii	"OS_ERR_TIME_SET_ISR\000"
 5325      52525F54 
 5325      494D455F 
 5325      5345545F 
 5325      49535200 
 5326              	.LASF117:
 5327 0e5c 4F535F45 		.ascii	"OS_ERR_ROUND_ROBIN_1\000"
 5327      52525F52 
 5327      4F554E44 
 5327      5F524F42 
ARM GAS  C:\Users\alex\AppData\Local\Temp\ccByxCIb.s 			page 126


 5327      494E5F31 
 5328              	.LASF74:
 5329 0e71 4F535F45 		.ascii	"OS_ERR_MEM_INVALID_P_BLK\000"
 5329      52525F4D 
 5329      454D5F49 
 5329      4E56414C 
 5329      49445F50 
 5330              	.LASF71:
 5331 0e8a 4F535F45 		.ascii	"OS_ERR_MEM_INVALID_P_ADDR\000"
 5331      52525F4D 
 5331      454D5F49 
 5331      4E56414C 
 5331      49445F50 
 5332              	.LASF286:
 5333 0ea4 52647954 		.ascii	"RdyTS\000"
 5333      5300
 5334              	.LASF67:
 5335 0eaa 4F535F45 		.ascii	"OS_ERR_LOCK_NESTING_OVF\000"
 5335      52525F4C 
 5335      4F434B5F 
 5335      4E455354 
 5335      494E475F 
 5336              	.LASF153:
 5337 0ec2 4F535F45 		.ascii	"OS_ERR_TASK_STK_CHK_ISR\000"
 5337      52525F54 
 5337      41534B5F 
 5337      53544B5F 
 5337      43484B5F 
 5338              	.LASF8:
 5339 0eda 73686F72 		.ascii	"short int\000"
 5339      7420696E 
 5339      7400
 5340              	.LASF285:
 5341 0ee4 5264794D 		.ascii	"RdyMsgSize\000"
 5341      73675369 
 5341      7A6500
 5342              	.LASF269:
 5343 0eef 6F735F74 		.ascii	"os_tmr\000"
 5343      6D7200
 5344              	.LASF79:
 5345 0ef6 4F535F45 		.ascii	"OS_ERR_MSG_POOL_EMPTY\000"
 5345      52525F4D 
 5345      53475F50 
 5345      4F4F4C5F 
 5345      454D5054 
 5346              	.LASF124:
 5347 0f0c 4F535F45 		.ascii	"OS_ERR_SCHED_UNLOCK_ISR\000"
 5347      52525F53 
 5347      43484544 
 5347      5F554E4C 
 5347      4F434B5F 
 5348              	.LASF258:
 5349 0f24 53656D50 		.ascii	"SemPendTimeMax\000"
 5349      656E6454 
 5349      696D654D 
 5349      617800
 5350              	.LASF267:
ARM GAS  C:\Users\alex\AppData\Local\Temp\ccByxCIb.s 			page 127


 5351 0f33 4F535F54 		.ascii	"OS_TMR_CALLBACK_PTR\000"
 5351      4D525F43 
 5351      414C4C42 
 5351      41434B5F 
 5351      50545200 
 5352              	.LASF256:
 5353 0f47 4379636C 		.ascii	"CyclesTotalPrev\000"
 5353      6573546F 
 5353      74616C50 
 5353      72657600 
 5354              	.LASF167:
 5355 0f57 4F535F45 		.ascii	"OS_ERR_TICK_STK_INVALID\000"
 5355      52525F54 
 5355      49434B5F 
 5355      53544B5F 
 5355      494E5641 
 5356              	.LASF80:
 5357 0f6f 4F535F45 		.ascii	"OS_ERR_MSG_POOL_NULL_PTR\000"
 5357      52525F4D 
 5357      53475F50 
 5357      4F4F4C5F 
 5357      4E554C4C 
 5358              	.LASF28:
 5359 0f88 4F535F4E 		.ascii	"OS_NESTING_CTR\000"
 5359      45535449 
 5359      4E475F43 
 5359      545200
 5360              	.LASF255:
 5361 0f97 4379636C 		.ascii	"CyclesTotal\000"
 5361      6573546F 
 5361      74616C00 
 5362              	.LASF291:
 5363 0fa3 4F535F50 		.ascii	"OS_PEND_OBJ\000"
 5363      454E445F 
 5363      4F424A00 
 5364              	.LASF151:
 5365 0faf 4F535F45 		.ascii	"OS_ERR_TASK_RESUME_SELF\000"
 5365      52525F54 
 5365      41534B5F 
 5365      52455355 
 5365      4D455F53 
 5366              	.LASF251:
 5367 0fc7 43505555 		.ascii	"CPUUsageMax\000"
 5367      73616765 
 5367      4D617800 
 5368              	.LASF293:
 5369 0fd3 50656E64 		.ascii	"PendList\000"
 5369      4C697374 
 5369      00
 5370              	.LASF91:
 5371 0fdc 4F535F45 		.ascii	"OS_ERR_OBJ_TYPE\000"
 5371      52525F4F 
 5371      424A5F54 
 5371      59504500 
 5372              	.LASF229:
 5373 0fec 50656E64 		.ascii	"PendDataTblPtr\000"
 5373      44617461 
ARM GAS  C:\Users\alex\AppData\Local\Temp\ccByxCIb.s 			page 128


 5373      54626C50 
 5373      747200
 5374              	.LASF236:
 5375 0ffb 53656D43 		.ascii	"SemCtr\000"
 5375      747200
 5376              	.LASF210:
 5377 1002 496E5074 		.ascii	"InPtr\000"
 5377      7200
 5378              	.LASF239:
 5379 1008 5469636B 		.ascii	"TickRemain\000"
 5379      52656D61 
 5379      696E00
 5380              	.LASF289:
 5381 1013 48656164 		.ascii	"HeadPtr\000"
 5381      50747200 
 5382              	.LASF302:
 5383 101b 73756363 		.ascii	"success\000"
 5383      65737300 
 5384              	.LASF98:
 5385 1023 4F535F45 		.ascii	"OS_ERR_PEND_ABORT_NONE\000"
 5385      52525F50 
 5385      454E445F 
 5385      41424F52 
 5385      545F4E4F 
 5386              	.LASF10:
 5387 103a 756E7369 		.ascii	"unsigned int\000"
 5387      676E6564 
 5387      20696E74 
 5387      00
 5388              	.LASF324:
 5389 1047 4F535F54 		.ascii	"OS_TmrUnlink\000"
 5389      6D72556E 
 5389      6C696E6B 
 5389      00
 5390              	.LASF205:
 5391 1054 4D736753 		.ascii	"MsgSize\000"
 5391      697A6500 
 5392              	.LASF82:
 5393 105c 4F535F45 		.ascii	"OS_ERR_MUTEX_OWNER\000"
 5393      52525F4D 
 5393      55544558 
 5393      5F4F574E 
 5393      455200
 5394              	.LASF266:
 5395 106f 46697273 		.ascii	"FirstPtr\000"
 5395      74507472 
 5395      00
 5396              	.LASF130:
 5397 1078 4F535F45 		.ascii	"OS_ERR_STAT_STK_SIZE_INVALID\000"
 5397      52525F53 
 5397      5441545F 
 5397      53544B5F 
 5397      53495A45 
 5398              	.LASF52:
 5399 1095 4F535F45 		.ascii	"OS_ERR_FLAG_NOT_RDY\000"
 5399      52525F46 
 5399      4C41475F 
ARM GAS  C:\Users\alex\AppData\Local\Temp\ccByxCIb.s 			page 129


 5399      4E4F545F 
 5399      52445900 
 5400              	.LASF327:
 5401 10a9 705F6172 		.ascii	"p_arg\000"
 5401      6700
 5402              	.LASF219:
 5403 10af 45787450 		.ascii	"ExtPtr\000"
 5403      747200
 5404              	.LASF294:
 5405 10b6 73697A65 		.ascii	"sizetype\000"
 5405      74797065 
 5405      00
 5406              	.LASF270:
 5407 10bf 54797065 		.ascii	"Type\000"
 5407      00
 5408              	.LASF97:
 5409 10c4 4F535F45 		.ascii	"OS_ERR_PEND_ABORT_ISR\000"
 5409      52525F50 
 5409      454E445F 
 5409      41424F52 
 5409      545F4953 
 5410              	.LASF15:
 5411 10da 4350555F 		.ascii	"CPU_ADDR\000"
 5411      41444452 
 5411      00
 5412              	.LASF105:
 5413 10e3 4F535F45 		.ascii	"OS_ERR_POST_ISR\000"
 5413      52525F50 
 5413      4F53545F 
 5413      49535200 
 5414              	.LASF170:
 5415 10f3 4F535F45 		.ascii	"OS_ERR_TIME_DLY_ISR\000"
 5415      52525F54 
 5415      494D455F 
 5415      444C595F 
 5415      49535200 
 5416              	.LASF135:
 5417 1107 4F535F45 		.ascii	"OS_ERR_STK_LIMIT_INVALID\000"
 5417      52525F53 
 5417      544B5F4C 
 5417      494D4954 
 5417      5F494E56 
 5418              	.LASF314:
 5419 1120 4F535F54 		.ascii	"OS_TmrDbgListRemove\000"
 5419      6D724462 
 5419      674C6973 
 5419      7452656D 
 5419      6F766500 
 5420              	.LASF1:
 5421 1134 4350555F 		.ascii	"CPU_BOOLEAN\000"
 5421      424F4F4C 
 5421      45414E00 
 5422              	.LASF24:
 5423 1140 4F535F43 		.ascii	"OS_CYCLES\000"
 5423      59434C45 
 5423      5300
 5424              	.LASF216:
ARM GAS  C:\Users\alex\AppData\Local\Temp\ccByxCIb.s 			page 130


 5425 114a 4F535F54 		.ascii	"OS_TCB\000"
 5425      434200
 5426              	.LASF134:
 5427 1151 4F535F45 		.ascii	"OS_ERR_STK_SIZE_INVALID\000"
 5427      52525F53 
 5427      544B5F53 
 5427      495A455F 
 5427      494E5641 
 5428              	.LASF303:
 5429 1169 4F53546D 		.ascii	"OSTmrDel\000"
 5429      7244656C 
 5429      00
 5430              	.LASF341:
 5431 1172 4F534366 		.ascii	"OSCfg_TmrTaskPrio\000"
 5431      675F546D 
 5431      72546173 
 5431      6B507269 
 5431      6F00
 5432              	.LASF193:
 5433 1184 4F535F45 		.ascii	"OS_ERR_TMR_STOPPED\000"
 5433      52525F54 
 5433      4D525F53 
 5433      544F5050 
 5433      454400
 5434              	.LASF3:
 5435 1197 756E7369 		.ascii	"unsigned char\000"
 5435      676E6564 
 5435      20636861 
 5435      7200
 5436              	.LASF148:
 5437 11a5 4F535F45 		.ascii	"OS_ERR_TASK_OPT\000"
 5437      52525F54 
 5437      41534B5F 
 5437      4F505400 
 5438              	.LASF180:
 5439 11b5 4F535F45 		.ascii	"OS_ERR_TIMEOUT\000"
 5439      52525F54 
 5439      494D454F 
 5439      555400
 5440              	.LASF335:
 5441 11c4 4F53546D 		.ascii	"OSTmrTaskTimeMax\000"
 5441      72546173 
 5441      6B54696D 
 5441      654D6178 
 5441      00
 5442              	.LASF36:
 5443 11d5 4F535F53 		.ascii	"OS_STATE\000"
 5443      54415445 
 5443      00
 5444              	.LASF31:
 5445 11de 4F535F4F 		.ascii	"OS_OPT\000"
 5445      505400
 5446              	.LASF215:
 5447 11e5 4F535F54 		.ascii	"OS_TASK_PTR\000"
 5447      41534B5F 
 5447      50545200 
 5448              	.LASF333:
ARM GAS  C:\Users\alex\AppData\Local\Temp\ccByxCIb.s 			page 131


 5449 11f1 4F53546D 		.ascii	"OSTmrQty\000"
 5449      72517479 
 5449      00
 5450              	.LASF69:
 5451 11fa 4F535F45 		.ascii	"OS_ERR_MEM_CREATE_ISR\000"
 5451      52525F4D 
 5451      454D5F43 
 5451      52454154 
 5451      455F4953 
 5452              	.LASF132:
 5453 1210 4F535F45 		.ascii	"OS_ERR_STATUS_INVALID\000"
 5453      52525F53 
 5453      54415455 
 5453      535F494E 
 5453      56414C49 
 5454              	.LASF198:
 5455 1226 4F535F45 		.ascii	"OS_ERR_Y\000"
 5455      52525F59 
 5455      00
 5456              	.LASF101:
 5457 122f 4F535F45 		.ascii	"OS_ERR_PEND_ISR\000"
 5457      52525F50 
 5457      454E445F 
 5457      49535200 
 5458              	.LASF200:
 5459 123f 4F535F45 		.ascii	"OS_ERR_Z\000"
 5459      52525F5A 
 5459      00
 5460              	.LASF224:
 5461 1248 5469636B 		.ascii	"TickSpokePtr\000"
 5461      53706F6B 
 5461      65507472 
 5461      00
 5462              	.LASF263:
 5463 1255 4462674E 		.ascii	"DbgNamePtr\000"
 5463      616D6550 
 5463      747200
 5464              	.LASF211:
 5465 1260 4F757450 		.ascii	"OutPtr\000"
 5465      747200
 5466              	.LASF228:
 5467 1267 5461736B 		.ascii	"TaskEntryArg\000"
 5467      456E7472 
 5467      79417267 
 5467      00
 5468              	.LASF111:
 5469 1274 4F535F45 		.ascii	"OS_ERR_Q_FULL\000"
 5469      52525F51 
 5469      5F46554C 
 5469      4C00
 5470              	.LASF308:
 5471 1282 73746174 		.ascii	"state\000"
 5471      6500
 5472              	.LASF337:
 5473 1288 4F53546D 		.ascii	"OSTmrUpdateCnt\000"
 5473      72557064 
 5473      61746543 
ARM GAS  C:\Users\alex\AppData\Local\Temp\ccByxCIb.s 			page 132


 5473      6E7400
 5474              	.LASF320:
 5475 1297 705F746D 		.ascii	"p_tmr0\000"
 5475      723000
 5476              	.LASF321:
 5477 129e 705F746D 		.ascii	"p_tmr1\000"
 5477      723100
 5478              	.LASF62:
 5479 12a5 4F535F45 		.ascii	"OS_ERR_INT_Q_STK_INVALID\000"
 5479      52525F49 
 5479      4E545F51 
 5479      5F53544B 
 5479      5F494E56 
 5480              	.LASF175:
 5481 12be 4F535F45 		.ascii	"OS_ERR_TIME_INVALID_SECONDS\000"
 5481      52525F54 
 5481      494D455F 
 5481      494E5641 
 5481      4C49445F 
 5482              	.LASF139:
 5483 12da 4F535F45 		.ascii	"OS_ERR_TASK_DEL\000"
 5483      52525F54 
 5483      41534B5F 
 5483      44454C00 
 5484              	.LASF287:
 5485 12ea 4F535F50 		.ascii	"OS_PEND_LIST\000"
 5485      454E445F 
 5485      4C495354 
 5485      00
 5486              	.LASF332:
 5487 12f7 4F53546D 		.ascii	"OSTmrDbgListPtr\000"
 5487      72446267 
 5487      4C697374 
 5487      50747200 
 5488              	.LASF5:
 5489 1307 7369676E 		.ascii	"signed char\000"
 5489      65642063 
 5489      68617200 
 5490              	.LASF297:
 5491 1313 70657269 		.ascii	"period\000"
 5491      6F6400
 5492              	.LASF206:
 5493 131a 4D736754 		.ascii	"MsgTS\000"
 5493      5300
 5494              	.LASF50:
 5495 1320 4F535F45 		.ascii	"OS_ERR_FATAL_RETURN\000"
 5495      52525F46 
 5495      4154414C 
 5495      5F524554 
 5495      55524E00 
 5496              	.LASF7:
 5497 1334 73686F72 		.ascii	"short unsigned int\000"
 5497      7420756E 
 5497      7369676E 
 5497      65642069 
 5497      6E7400
 5498              	.LASF25:
ARM GAS  C:\Users\alex\AppData\Local\Temp\ccByxCIb.s 			page 133


 5499 1347 4F535F46 		.ascii	"OS_FLAGS\000"
 5499      4C414753 
 5499      00
 5500              	.LASF204:
 5501 1350 4D736750 		.ascii	"MsgPtr\000"
 5501      747200
 5502              	.LASF163:
 5503 1357 4F535F45 		.ascii	"OS_ERR_TLS_NO_MORE_AVAIL\000"
 5503      52525F54 
 5503      4C535F4E 
 5503      4F5F4D4F 
 5503      52455F41 
 5504              	.LASF40:
 5505 1370 4F535F45 		.ascii	"OS_ERR_NONE\000"
 5505      52525F4E 
 5505      4F4E4500 
 5506              	.LASF307:
 5507 137c 4F53546D 		.ascii	"OSTmrStateGet\000"
 5507      72537461 
 5507      74654765 
 5507      7400
 5508              	.LASF280:
 5509 138a 6F735F70 		.ascii	"os_pend_data\000"
 5509      656E645F 
 5509      64617461 
 5509      00
 5510              	.LASF122:
 5511 1397 4F535F45 		.ascii	"OS_ERR_SCHED_LOCKED\000"
 5511      52525F53 
 5511      43484544 
 5511      5F4C4F43 
 5511      4B454400 
 5512              	.LASF54:
 5513 13ab 4F535F45 		.ascii	"OS_ERR_FLUSH_ISR\000"
 5513      52525F46 
 5513      4C555348 
 5513      5F495352 
 5513      00
 5514              	.LASF233:
 5515 13bc 5072696F 		.ascii	"Prio\000"
 5515      00
 5516              	.LASF330:
 5517 13c1 74735F65 		.ascii	"ts_end\000"
 5517      6E6400
 5518              	.LASF14:
 5519 13c8 646F7562 		.ascii	"double\000"
 5519      6C6500
 5520              	.LASF96:
 5521 13cf 4F535F45 		.ascii	"OS_ERR_PEND_ABORT\000"
 5521      52525F50 
 5521      454E445F 
 5521      41424F52 
 5521      5400
 5522              	.LASF250:
 5523 13e1 43505555 		.ascii	"CPUUsage\000"
 5523      73616765 
 5523      00
ARM GAS  C:\Users\alex\AppData\Local\Temp\ccByxCIb.s 			page 134


 5524              	.LASF123:
 5525 13ea 4F535F45 		.ascii	"OS_ERR_SCHED_NOT_LOCKED\000"
 5525      52525F53 
 5525      43484544 
 5525      5F4E4F54 
 5525      5F4C4F43 
 5526              	.LASF107:
 5527 1402 4F535F45 		.ascii	"OS_ERR_PRIO\000"
 5527      52525F50 
 5527      52494F00 
 5528              	.LASF38:
 5529 140e 4F535F54 		.ascii	"OS_TICK\000"
 5529      49434B00 
 5530              	.LASF100:
 5531 1416 4F535F45 		.ascii	"OS_ERR_PEND_DEL\000"
 5531      52525F50 
 5531      454E445F 
 5531      44454C00 
 5532              	.LASF282:
 5533 1426 50656E64 		.ascii	"PendObjPtr\000"
 5533      4F626A50 
 5533      747200
 5534              	.LASF214:
 5535 1431 4E627245 		.ascii	"NbrEntriesMax\000"
 5535      6E747269 
 5535      65734D61 
 5535      7800
 5536              	.LASF288:
 5537 143f 6F735F70 		.ascii	"os_pend_list\000"
 5537      656E645F 
 5537      6C697374 
 5537      00
 5538              	.LASF77:
 5539 144c 4F535F45 		.ascii	"OS_ERR_MEM_INVALID_SIZE\000"
 5539      52525F4D 
 5539      454D5F49 
 5539      4E56414C 
 5539      49445F53 
 5540              	.LASF154:
 5541 1464 4F535F45 		.ascii	"OS_ERR_TASK_SUSPENDED\000"
 5541      52525F54 
 5541      41534B5F 
 5541      53555350 
 5541      454E4445 
 5542              	.LASF126:
 5543 147a 4F535F45 		.ascii	"OS_ERR_SET_ISR\000"
 5543      52525F53 
 5543      45545F49 
 5543      535200
 5544              	.LASF245:
 5545 1489 52656754 		.ascii	"RegTbl\000"
 5545      626C00
 5546              	.LASF272:
 5547 1490 43616C6C 		.ascii	"CallbackPtrArg\000"
 5547      6261636B 
 5547      50747241 
 5547      726700
ARM GAS  C:\Users\alex\AppData\Local\Temp\ccByxCIb.s 			page 135


 5548              	.LASF125:
 5549 149f 4F535F45 		.ascii	"OS_ERR_SEM_OVF\000"
 5549      52525F53 
 5549      454D5F4F 
 5549      564600
 5550              	.LASF140:
 5551 14ae 4F535F45 		.ascii	"OS_ERR_TASK_DEL_IDLE\000"
 5551      52525F54 
 5551      41534B5F 
 5551      44454C5F 
 5551      49444C45 
 5552              	.LASF172:
 5553 14c3 4F535F45 		.ascii	"OS_ERR_TIME_GET_ISR\000"
 5553      52525F54 
 5553      494D455F 
 5553      4745545F 
 5553      49535200 
 5554              	.LASF240:
 5555 14d7 54696D65 		.ascii	"TimeQuanta\000"
 5555      5175616E 
 5555      746100
 5556              	.LASF171:
 5557 14e2 4F535F45 		.ascii	"OS_ERR_TIME_DLY_RESUME_ISR\000"
 5557      52525F54 
 5557      494D455F 
 5557      444C595F 
 5557      52455355 
 5558              	.LASF166:
 5559 14fd 4F535F45 		.ascii	"OS_ERR_TICK_PRIO_INVALID\000"
 5559      52525F54 
 5559      49434B5F 
 5559      5052494F 
 5559      5F494E56 
 5560              	.LASF106:
 5561 1516 4F535F45 		.ascii	"OS_ERR_PRIO_EXIST\000"
 5561      52525F50 
 5561      52494F5F 
 5561      45584953 
 5561      5400
 5562              	.LASF209:
 5563 1528 6F735F6D 		.ascii	"os_msg_q\000"
 5563      73675F71 
 5563      00
 5564              	.LASF340:
 5565 1531 4F534366 		.ascii	"OSCfg_TickRate_Hz\000"
 5565      675F5469 
 5565      636B5261 
 5565      74655F48 
 5565      7A00
 5566              	.LASF78:
 5567 1543 4F535F45 		.ascii	"OS_ERR_MEM_NO_FREE_BLKS\000"
 5567      52525F4D 
 5567      454D5F4E 
 5567      4F5F4652 
 5567      45455F42 
 5568              	.LASF304:
 5569 155b 4F53546D 		.ascii	"OSTmrRemainGet\000"
ARM GAS  C:\Users\alex\AppData\Local\Temp\ccByxCIb.s 			page 136


 5569      7252656D 
 5569      61696E47 
 5569      657400
 5570              	.LASF16:
 5571 156a 4350555F 		.ascii	"CPU_STK\000"
 5571      53544B00 
 5572              	.LASF273:
 5573 1572 4D617463 		.ascii	"Match\000"
 5573      6800
 5574              	.LASF295:
 5575 1578 705F746D 		.ascii	"p_tmr\000"
 5575      7200
 5576              		.ident	"GCC: (GNU Tools for ARM Embedded Processors) 5.4.1 20160609 (release) [ARM/embedded-5-bran
