ARM GAS  C:\Users\alex\AppData\Local\Temp\ccKfBJGu.s 			page 1


   1              		.syntax unified
   2              		.cpu cortex-m3
   3              		.fpu softvfp
   4              		.eabi_attribute 20, 1
   5              		.eabi_attribute 21, 1
   6              		.eabi_attribute 23, 3
   7              		.eabi_attribute 24, 1
   8              		.eabi_attribute 25, 1
   9              		.eabi_attribute 26, 1
  10              		.eabi_attribute 30, 6
  11              		.eabi_attribute 34, 1
  12              		.eabi_attribute 18, 4
  13              		.thumb
  14              		.syntax unified
  15              		.file	"probe_com.c"
  16              		.text
  17              	.Ltext0:
  18              		.cfi_sections	.debug_frame
  19              		.comm	ProbeCom_RxPktCtr,4,4
  20              		.comm	ProbeCom_TxPktCtr,4,4
  21              		.comm	ProbeCom_TxSymCtr,4,4
  22              		.comm	ProbeCom_TxSymByteCtr,4,4
  23              		.comm	ProbeCom_ErrPktCtr,4,4
  24              		.comm	ProbeCom_RxSymCtr,4,4
  25              		.comm	ProbeCom_RxSymByteCtr,4,4
  26              		.bss
  27              		.align	2
  28              	ProbeCom_EndiannessTest:
  29 0000 00000000 		.space	4
  30              		.section	.text.ProbeCom_Init,"ax",%progbits
  31              		.align	2
  32              		.global	ProbeCom_Init
  33              		.thumb
  34              		.thumb_func
  35              		.type	ProbeCom_Init, %function
  36              	ProbeCom_Init:
  37              	.LFB0:
  38              		.file 1 "..\\..\\..\\..\\..\\..\\uC-Probe\\Target\\Communication\\Generic\\Source\\probe_com.c"
   1:..\..\..\..\..\..\uC-Probe\Target\Communication\Generic\Source/probe_com.c **** /*
   2:..\..\..\..\..\..\uC-Probe\Target\Communication\Generic\Source/probe_com.c **** ***************************************************************************************************
   3:..\..\..\..\..\..\uC-Probe\Target\Communication\Generic\Source/probe_com.c **** *                                       uC/Probe Communication
   4:..\..\..\..\..\..\uC-Probe\Target\Communication\Generic\Source/probe_com.c **** *
   5:..\..\..\..\..\..\uC-Probe\Target\Communication\Generic\Source/probe_com.c **** *                         (c) Copyright 2007-2008; Micrium, Inc.; Weston, FL
   6:..\..\..\..\..\..\uC-Probe\Target\Communication\Generic\Source/probe_com.c **** *
   7:..\..\..\..\..\..\uC-Probe\Target\Communication\Generic\Source/probe_com.c **** *               All rights reserved.  Protected by international copyright laws.
   8:..\..\..\..\..\..\uC-Probe\Target\Communication\Generic\Source/probe_com.c **** *               Knowledge of the source code may NOT be used to develop a similar product.
   9:..\..\..\..\..\..\uC-Probe\Target\Communication\Generic\Source/probe_com.c **** *               Please help us continue to provide the Embedded community with the finest
  10:..\..\..\..\..\..\uC-Probe\Target\Communication\Generic\Source/probe_com.c **** *               software available.  Your honesty is greatly appreciated.
  11:..\..\..\..\..\..\uC-Probe\Target\Communication\Generic\Source/probe_com.c **** ***************************************************************************************************
  12:..\..\..\..\..\..\uC-Probe\Target\Communication\Generic\Source/probe_com.c **** */
  13:..\..\..\..\..\..\uC-Probe\Target\Communication\Generic\Source/probe_com.c **** 
  14:..\..\..\..\..\..\uC-Probe\Target\Communication\Generic\Source/probe_com.c **** /*
  15:..\..\..\..\..\..\uC-Probe\Target\Communication\Generic\Source/probe_com.c **** ***************************************************************************************************
  16:..\..\..\..\..\..\uC-Probe\Target\Communication\Generic\Source/probe_com.c **** *
  17:..\..\..\..\..\..\uC-Probe\Target\Communication\Generic\Source/probe_com.c **** *                                       COMMUNICATION: GENERIC
  18:..\..\..\..\..\..\uC-Probe\Target\Communication\Generic\Source/probe_com.c **** *
  19:..\..\..\..\..\..\uC-Probe\Target\Communication\Generic\Source/probe_com.c **** * Filename      : probe_com.c
ARM GAS  C:\Users\alex\AppData\Local\Temp\ccKfBJGu.s 			page 2


  20:..\..\..\..\..\..\uC-Probe\Target\Communication\Generic\Source/probe_com.c **** * Version       : V2.30
  21:..\..\..\..\..\..\uC-Probe\Target\Communication\Generic\Source/probe_com.c **** * Programmer(s) : BAN
  22:..\..\..\..\..\..\uC-Probe\Target\Communication\Generic\Source/probe_com.c **** ***************************************************************************************************
  23:..\..\..\..\..\..\uC-Probe\Target\Communication\Generic\Source/probe_com.c **** * Note(s)       : (1) This file contains code to respond to generic (non protocol-dependent) comman
  24:..\..\..\..\..\..\uC-Probe\Target\Communication\Generic\Source/probe_com.c **** *                     received by the target.
  25:..\..\..\..\..\..\uC-Probe\Target\Communication\Generic\Source/probe_com.c **** ***************************************************************************************************
  26:..\..\..\..\..\..\uC-Probe\Target\Communication\Generic\Source/probe_com.c **** */
  27:..\..\..\..\..\..\uC-Probe\Target\Communication\Generic\Source/probe_com.c **** 
  28:..\..\..\..\..\..\uC-Probe\Target\Communication\Generic\Source/probe_com.c **** 
  29:..\..\..\..\..\..\uC-Probe\Target\Communication\Generic\Source/probe_com.c **** /*
  30:..\..\..\..\..\..\uC-Probe\Target\Communication\Generic\Source/probe_com.c **** ***************************************************************************************************
  31:..\..\..\..\..\..\uC-Probe\Target\Communication\Generic\Source/probe_com.c **** *                                            INCLUDE FILES
  32:..\..\..\..\..\..\uC-Probe\Target\Communication\Generic\Source/probe_com.c **** ***************************************************************************************************
  33:..\..\..\..\..\..\uC-Probe\Target\Communication\Generic\Source/probe_com.c **** */
  34:..\..\..\..\..\..\uC-Probe\Target\Communication\Generic\Source/probe_com.c **** 
  35:..\..\..\..\..\..\uC-Probe\Target\Communication\Generic\Source/probe_com.c **** #define   PROBE_COM_MODULE
  36:..\..\..\..\..\..\uC-Probe\Target\Communication\Generic\Source/probe_com.c **** #include  <probe_com.h>
  37:..\..\..\..\..\..\uC-Probe\Target\Communication\Generic\Source/probe_com.c **** 
  38:..\..\..\..\..\..\uC-Probe\Target\Communication\Generic\Source/probe_com.c **** 
  39:..\..\..\..\..\..\uC-Probe\Target\Communication\Generic\Source/probe_com.c **** /*
  40:..\..\..\..\..\..\uC-Probe\Target\Communication\Generic\Source/probe_com.c **** ***************************************************************************************************
  41:..\..\..\..\..\..\uC-Probe\Target\Communication\Generic\Source/probe_com.c **** *                                            LOCAL DEFINES
  42:..\..\..\..\..\..\uC-Probe\Target\Communication\Generic\Source/probe_com.c **** ***************************************************************************************************
  43:..\..\..\..\..\..\uC-Probe\Target\Communication\Generic\Source/probe_com.c **** */
  44:..\..\..\..\..\..\uC-Probe\Target\Communication\Generic\Source/probe_com.c **** 
  45:..\..\..\..\..\..\uC-Probe\Target\Communication\Generic\Source/probe_com.c **** /*
  46:..\..\..\..\..\..\uC-Probe\Target\Communication\Generic\Source/probe_com.c **** ***************************************************************************************************
  47:..\..\..\..\..\..\uC-Probe\Target\Communication\Generic\Source/probe_com.c **** *                                        DATA FORMATS DEFINES
  48:..\..\..\..\..\..\uC-Probe\Target\Communication\Generic\Source/probe_com.c **** ***************************************************************************************************
  49:..\..\..\..\..\..\uC-Probe\Target\Communication\Generic\Source/probe_com.c **** */
  50:..\..\..\..\..\..\uC-Probe\Target\Communication\Generic\Source/probe_com.c **** 
  51:..\..\..\..\..\..\uC-Probe\Target\Communication\Generic\Source/probe_com.c **** #define  PROBE_COM_FMT_TX_ERR                         0x8000u
  52:..\..\..\..\..\..\uC-Probe\Target\Communication\Generic\Source/probe_com.c **** 
  53:..\..\..\..\..\..\uC-Probe\Target\Communication\Generic\Source/probe_com.c **** #define  PROBE_COM_FMT_RX_QUERY                       0x0001u   /* Query setup parameter or capabil
  54:..\..\..\..\..\..\uC-Probe\Target\Communication\Generic\Source/probe_com.c **** #define  PROBE_COM_FMT_TX_QUERY                       0x8001u
  55:..\..\..\..\..\..\uC-Probe\Target\Communication\Generic\Source/probe_com.c **** 
  56:..\..\..\..\..\..\uC-Probe\Target\Communication\Generic\Source/probe_com.c **** #define  PROBE_COM_FMT_RX_RD                          0x0002u   /* Read data at memory address.    
  57:..\..\..\..\..\..\uC-Probe\Target\Communication\Generic\Source/probe_com.c **** #define  PROBE_COM_FMT_TX_RD                          0x8002u
  58:..\..\..\..\..\..\uC-Probe\Target\Communication\Generic\Source/probe_com.c **** 
  59:..\..\..\..\..\..\uC-Probe\Target\Communication\Generic\Source/probe_com.c **** #define  PROBE_COM_FMT_RX_WR                          0x0003u   /* Write data at memory address.   
  60:..\..\..\..\..\..\uC-Probe\Target\Communication\Generic\Source/probe_com.c **** #define  PROBE_COM_FMT_TX_WR                          0x8003u
  61:..\..\..\..\..\..\uC-Probe\Target\Communication\Generic\Source/probe_com.c **** 
  62:..\..\..\..\..\..\uC-Probe\Target\Communication\Generic\Source/probe_com.c **** #define  PROBE_COM_FMT_RX_RD_MULTI                    0x0007u   /* Read data at multiple memory add
  63:..\..\..\..\..\..\uC-Probe\Target\Communication\Generic\Source/probe_com.c **** #define  PROBE_COM_FMT_TX_RD_MULTI                    0x8007u
  64:..\..\..\..\..\..\uC-Probe\Target\Communication\Generic\Source/probe_com.c **** #define  PROBE_COM_FMT_TX_RD_MULTI_LO                   0x07u
  65:..\..\..\..\..\..\uC-Probe\Target\Communication\Generic\Source/probe_com.c **** #define  PROBE_COM_FMT_TX_RD_MULTI_HI                   0x80u
  66:..\..\..\..\..\..\uC-Probe\Target\Communication\Generic\Source/probe_com.c **** 
  67:..\..\..\..\..\..\uC-Probe\Target\Communication\Generic\Source/probe_com.c **** #define  PROBE_COM_FMT_RX_WR_MULTI                    0x0008u   /* Write data at multiple memory ad
  68:..\..\..\..\..\..\uC-Probe\Target\Communication\Generic\Source/probe_com.c **** #define  PROBE_COM_FMT_TX_WR_MULTI                    0x8008u
  69:..\..\..\..\..\..\uC-Probe\Target\Communication\Generic\Source/probe_com.c **** 
  70:..\..\..\..\..\..\uC-Probe\Target\Communication\Generic\Source/probe_com.c **** #define  PROBE_COM_FMT_RX_STR_OUT                     0x0009u   /* Transmit output string to Probe.
  71:..\..\..\..\..\..\uC-Probe\Target\Communication\Generic\Source/probe_com.c **** #define  PROBE_COM_FMT_TX_STR_OUT                     0x8009u
  72:..\..\..\..\..\..\uC-Probe\Target\Communication\Generic\Source/probe_com.c **** 
  73:..\..\..\..\..\..\uC-Probe\Target\Communication\Generic\Source/probe_com.c **** #define  PROBE_COM_FMT_RX_STR_IN                      0x000Au   /* Receive input string from Probe.
  74:..\..\..\..\..\..\uC-Probe\Target\Communication\Generic\Source/probe_com.c **** #define  PROBE_COM_FMT_TX_STR_IN                      0x800Au
  75:..\..\..\..\..\..\uC-Probe\Target\Communication\Generic\Source/probe_com.c **** 
  76:..\..\..\..\..\..\uC-Probe\Target\Communication\Generic\Source/probe_com.c **** #define  PROBE_COM_FMT_RX_TERMINAL_EXEC               0x000Bu   /* Execute terminal command.       
ARM GAS  C:\Users\alex\AppData\Local\Temp\ccKfBJGu.s 			page 3


  77:..\..\..\..\..\..\uC-Probe\Target\Communication\Generic\Source/probe_com.c **** #define  PROBE_COM_FMT_TX_TERMINAL_EXEC               0x800Bu
  78:..\..\..\..\..\..\uC-Probe\Target\Communication\Generic\Source/probe_com.c **** 
  79:..\..\..\..\..\..\uC-Probe\Target\Communication\Generic\Source/probe_com.c **** #define  PROBE_COM_FMT_RX_TERMINAL_OUT                0x000Cu   /* Transmit output data to Probe.  
  80:..\..\..\..\..\..\uC-Probe\Target\Communication\Generic\Source/probe_com.c **** #define  PROBE_COM_FMT_TX_TERMINAL_OUT                0x800Cu
  81:..\..\..\..\..\..\uC-Probe\Target\Communication\Generic\Source/probe_com.c **** 
  82:..\..\..\..\..\..\uC-Probe\Target\Communication\Generic\Source/probe_com.c **** #define  PROBE_COM_FMT_RX_TERMINAL_IN                 0x000Du   /* Receive input data from Probe.  
  83:..\..\..\..\..\..\uC-Probe\Target\Communication\Generic\Source/probe_com.c **** #define  PROBE_COM_FMT_TX_TERMINAL_IN                 0x800Du
  84:..\..\..\..\..\..\uC-Probe\Target\Communication\Generic\Source/probe_com.c **** 
  85:..\..\..\..\..\..\uC-Probe\Target\Communication\Generic\Source/probe_com.c **** /*
  86:..\..\..\..\..\..\uC-Probe\Target\Communication\Generic\Source/probe_com.c **** ***************************************************************************************************
  87:..\..\..\..\..\..\uC-Probe\Target\Communication\Generic\Source/probe_com.c **** *                                      STATUS CONSTANTS DEFINES
  88:..\..\..\..\..\..\uC-Probe\Target\Communication\Generic\Source/probe_com.c **** ***************************************************************************************************
  89:..\..\..\..\..\..\uC-Probe\Target\Communication\Generic\Source/probe_com.c **** */
  90:..\..\..\..\..\..\uC-Probe\Target\Communication\Generic\Source/probe_com.c **** 
  91:..\..\..\..\..\..\uC-Probe\Target\Communication\Generic\Source/probe_com.c **** #define  PROBE_COM_STATUS_OK                            0x01u
  92:..\..\..\..\..\..\uC-Probe\Target\Communication\Generic\Source/probe_com.c **** #define  PROBE_COM_STATUS_TERMINAL_EXEC_NOT_RDY         0xF4u   /* Terminal not rdy to exec new cmd
  93:..\..\..\..\..\..\uC-Probe\Target\Communication\Generic\Source/probe_com.c **** #define  PROBE_COM_STATUS_TERMINAL_IN_OVF               0xF5u   /* Terminal in buf ovf'd.          
  94:..\..\..\..\..\..\uC-Probe\Target\Communication\Generic\Source/probe_com.c **** #define  PROBE_COM_STATUS_TERMINAL_OUT_NONE             0xF6u   /* Terminal out buf empty.         
  95:..\..\..\..\..\..\uC-Probe\Target\Communication\Generic\Source/probe_com.c **** #define  PROBE_COM_STATUS_STR_IN_OVF                    0xF7u   /* String in buf ovf'd.            
  96:..\..\..\..\..\..\uC-Probe\Target\Communication\Generic\Source/probe_com.c **** #define  PROBE_COM_STATUS_STR_OUT_NONE                  0xF8u   /* String out buf empty.           
  97:..\..\..\..\..\..\uC-Probe\Target\Communication\Generic\Source/probe_com.c **** #define  PROBE_COM_STATUS_UNKNOWN_REQUEST               0xF9u   /* Unknown req.                    
  98:..\..\..\..\..\..\uC-Probe\Target\Communication\Generic\Source/probe_com.c **** #define  PROBE_COM_STATUS_QUERY_NOT_SUPPORTED           0xFCu   /* Query not supported.            
  99:..\..\..\..\..\..\uC-Probe\Target\Communication\Generic\Source/probe_com.c **** #define  PROBE_COM_STATUS_TX_PKT_TOO_LARGE              0xFDu   /* Reply pkt too large for buf.    
 100:..\..\..\..\..\..\uC-Probe\Target\Communication\Generic\Source/probe_com.c **** #define  PROBE_COM_STATUS_RX_PKT_WRONG_SIZE             0xFEu   /* Req pkt not correct size.       
 101:..\..\..\..\..\..\uC-Probe\Target\Communication\Generic\Source/probe_com.c **** #define  PROBE_COM_STATUS_FAIL                          0xFFu   /* Req exec failed (or unknown err)
 102:..\..\..\..\..\..\uC-Probe\Target\Communication\Generic\Source/probe_com.c **** 
 103:..\..\..\..\..\..\uC-Probe\Target\Communication\Generic\Source/probe_com.c **** /*
 104:..\..\..\..\..\..\uC-Probe\Target\Communication\Generic\Source/probe_com.c **** ***************************************************************************************************
 105:..\..\..\..\..\..\uC-Probe\Target\Communication\Generic\Source/probe_com.c **** *                                           QUERIES DEFINES
 106:..\..\..\..\..\..\uC-Probe\Target\Communication\Generic\Source/probe_com.c **** ***************************************************************************************************
 107:..\..\..\..\..\..\uC-Probe\Target\Communication\Generic\Source/probe_com.c **** */
 108:..\..\..\..\..\..\uC-Probe\Target\Communication\Generic\Source/probe_com.c **** 
 109:..\..\..\..\..\..\uC-Probe\Target\Communication\Generic\Source/probe_com.c ****                                                                 /* ------------------- CONFIGURATIO
 110:..\..\..\..\..\..\uC-Probe\Target\Communication\Generic\Source/probe_com.c **** #define  PROBE_COM_QUERY_MAX_RX_SIZE                  0x0101u   /* Get data size of largest pkt tar
 111:..\..\..\..\..\..\uC-Probe\Target\Communication\Generic\Source/probe_com.c **** #define  PROBE_COM_QUERY_MAX_TX_SIZE                  0x0102u   /* Get data size of largest pkt tar
 112:..\..\..\..\..\..\uC-Probe\Target\Communication\Generic\Source/probe_com.c **** 
 113:..\..\..\..\..\..\uC-Probe\Target\Communication\Generic\Source/probe_com.c ****                                                                 /* ----------------- TARGET PROPERT
 114:..\..\..\..\..\..\uC-Probe\Target\Communication\Generic\Source/probe_com.c **** #define  PROBE_COM_QUERY_ENDIANNESS_TEST              0x0201u   /* Test endianness of target.      
 115:..\..\..\..\..\..\uC-Probe\Target\Communication\Generic\Source/probe_com.c **** #define  PROBE_COM_QUERY_STATUS                       0x0202u   /* Target status.                  
 116:..\..\..\..\..\..\uC-Probe\Target\Communication\Generic\Source/probe_com.c **** 
 117:..\..\..\..\..\..\uC-Probe\Target\Communication\Generic\Source/probe_com.c ****                                                                 /* ------------- COMMUNICATION CAPA
 118:..\..\..\..\..\..\uC-Probe\Target\Communication\Generic\Source/probe_com.c **** #define  PROBE_COM_QUERY_FMT_SUPPORT                  0x1001u   /* Get list of supported req's.    
 119:..\..\..\..\..\..\uC-Probe\Target\Communication\Generic\Source/probe_com.c **** #define  PROBE_COM_QUERY_VERSION                      0x1002u   /* Get target code ver.            
 120:..\..\..\..\..\..\uC-Probe\Target\Communication\Generic\Source/probe_com.c **** 
 121:..\..\..\..\..\..\uC-Probe\Target\Communication\Generic\Source/probe_com.c **** /*
 122:..\..\..\..\..\..\uC-Probe\Target\Communication\Generic\Source/probe_com.c **** ***************************************************************************************************
 123:..\..\..\..\..\..\uC-Probe\Target\Communication\Generic\Source/probe_com.c **** *                                          MODIFIERS DEFINES
 124:..\..\..\..\..\..\uC-Probe\Target\Communication\Generic\Source/probe_com.c **** ***************************************************************************************************
 125:..\..\..\..\..\..\uC-Probe\Target\Communication\Generic\Source/probe_com.c **** */
 126:..\..\..\..\..\..\uC-Probe\Target\Communication\Generic\Source/probe_com.c **** 
 127:..\..\..\..\..\..\uC-Probe\Target\Communication\Generic\Source/probe_com.c **** #define  PROBE_COM_MODIFIER_NONE                  DEF_BIT_NONE
 128:..\..\..\..\..\..\uC-Probe\Target\Communication\Generic\Source/probe_com.c **** #define  PROBE_COM_MODIFIER_STR_OUT_AVAIL         DEF_BIT_00    /* Str out is avail.               
 129:..\..\..\..\..\..\uC-Probe\Target\Communication\Generic\Source/probe_com.c **** #define  PROBE_COM_MODIFIER_TERMINAL_EXEC_DONE    DEF_BIT_01    /* Terminal cmd exec done.         
 130:..\..\..\..\..\..\uC-Probe\Target\Communication\Generic\Source/probe_com.c **** #define  PROBE_COM_MODIFIER_TERMINAL_OUT_AVAIL    DEF_BIT_02    /* Terminal out is avail.          
 131:..\..\..\..\..\..\uC-Probe\Target\Communication\Generic\Source/probe_com.c **** 
 132:..\..\..\..\..\..\uC-Probe\Target\Communication\Generic\Source/probe_com.c **** /*
 133:..\..\..\..\..\..\uC-Probe\Target\Communication\Generic\Source/probe_com.c **** ***************************************************************************************************
ARM GAS  C:\Users\alex\AppData\Local\Temp\ccKfBJGu.s 			page 4


 134:..\..\..\..\..\..\uC-Probe\Target\Communication\Generic\Source/probe_com.c **** *                                        HEADER SIZES DEFINES
 135:..\..\..\..\..\..\uC-Probe\Target\Communication\Generic\Source/probe_com.c **** *
 136:..\..\..\..\..\..\uC-Probe\Target\Communication\Generic\Source/probe_com.c **** * Note(s):  (1) The first four bytes in all tx data segments is identical:
 137:..\..\..\..\..\..\uC-Probe\Target\Communication\Generic\Source/probe_com.c **** *
 138:..\..\..\..\..\..\uC-Probe\Target\Communication\Generic\Source/probe_com.c **** *               (a) A 2-byte format;
 139:..\..\..\..\..\..\uC-Probe\Target\Communication\Generic\Source/probe_com.c **** *               (b) A 1-byte status;
 140:..\..\..\..\..\..\uC-Probe\Target\Communication\Generic\Source/probe_com.c **** *               (c) A 1-byte modifier, currently unused.
 141:..\..\..\..\..\..\uC-Probe\Target\Communication\Generic\Source/probe_com.c **** *
 142:..\..\..\..\..\..\uC-Probe\Target\Communication\Generic\Source/probe_com.c **** *           (2) The first two bytes in all rx data segments is identical:
 143:..\..\..\..\..\..\uC-Probe\Target\Communication\Generic\Source/probe_com.c **** *
 144:..\..\..\..\..\..\uC-Probe\Target\Communication\Generic\Source/probe_com.c **** *               (a) A 2-byte format.
 145:..\..\..\..\..\..\uC-Probe\Target\Communication\Generic\Source/probe_com.c **** ***************************************************************************************************
 146:..\..\..\..\..\..\uC-Probe\Target\Communication\Generic\Source/probe_com.c **** */
 147:..\..\..\..\..\..\uC-Probe\Target\Communication\Generic\Source/probe_com.c **** 
 148:..\..\..\..\..\..\uC-Probe\Target\Communication\Generic\Source/probe_com.c **** #define  PROBE_COM_SIZE_RX_HDR                             2u
 149:..\..\..\..\..\..\uC-Probe\Target\Communication\Generic\Source/probe_com.c **** #define  PROBE_COM_SIZE_TX_HDR                             4u
 150:..\..\..\..\..\..\uC-Probe\Target\Communication\Generic\Source/probe_com.c **** 
 151:..\..\..\..\..\..\uC-Probe\Target\Communication\Generic\Source/probe_com.c **** /*
 152:..\..\..\..\..\..\uC-Probe\Target\Communication\Generic\Source/probe_com.c **** ***************************************************************************************************
 153:..\..\..\..\..\..\uC-Probe\Target\Communication\Generic\Source/probe_com.c **** *                                           LOCAL CONSTANTS
 154:..\..\..\..\..\..\uC-Probe\Target\Communication\Generic\Source/probe_com.c **** ***************************************************************************************************
 155:..\..\..\..\..\..\uC-Probe\Target\Communication\Generic\Source/probe_com.c **** */
 156:..\..\..\..\..\..\uC-Probe\Target\Communication\Generic\Source/probe_com.c **** 
 157:..\..\..\..\..\..\uC-Probe\Target\Communication\Generic\Source/probe_com.c **** 
 158:..\..\..\..\..\..\uC-Probe\Target\Communication\Generic\Source/probe_com.c **** /*
 159:..\..\..\..\..\..\uC-Probe\Target\Communication\Generic\Source/probe_com.c **** ***************************************************************************************************
 160:..\..\..\..\..\..\uC-Probe\Target\Communication\Generic\Source/probe_com.c **** *                                          LOCAL DATA TYPES
 161:..\..\..\..\..\..\uC-Probe\Target\Communication\Generic\Source/probe_com.c **** ***************************************************************************************************
 162:..\..\..\..\..\..\uC-Probe\Target\Communication\Generic\Source/probe_com.c **** */
 163:..\..\..\..\..\..\uC-Probe\Target\Communication\Generic\Source/probe_com.c **** 
 164:..\..\..\..\..\..\uC-Probe\Target\Communication\Generic\Source/probe_com.c **** typedef  struct  probe_com_buf {
 165:..\..\..\..\..\..\uC-Probe\Target\Communication\Generic\Source/probe_com.c ****     CPU_SIZE_T   Len;
 166:..\..\..\..\..\..\uC-Probe\Target\Communication\Generic\Source/probe_com.c ****     CPU_SIZE_T   IxRd;
 167:..\..\..\..\..\..\uC-Probe\Target\Communication\Generic\Source/probe_com.c ****     CPU_SIZE_T   IxWr;
 168:..\..\..\..\..\..\uC-Probe\Target\Communication\Generic\Source/probe_com.c ****     CPU_INT08U  *DataPtr;
 169:..\..\..\..\..\..\uC-Probe\Target\Communication\Generic\Source/probe_com.c **** } PROBE_COM_BUF;
 170:..\..\..\..\..\..\uC-Probe\Target\Communication\Generic\Source/probe_com.c **** 
 171:..\..\..\..\..\..\uC-Probe\Target\Communication\Generic\Source/probe_com.c **** 
 172:..\..\..\..\..\..\uC-Probe\Target\Communication\Generic\Source/probe_com.c **** /*
 173:..\..\..\..\..\..\uC-Probe\Target\Communication\Generic\Source/probe_com.c **** ***************************************************************************************************
 174:..\..\..\..\..\..\uC-Probe\Target\Communication\Generic\Source/probe_com.c **** *                                            LOCAL TABLES
 175:..\..\..\..\..\..\uC-Probe\Target\Communication\Generic\Source/probe_com.c **** ***************************************************************************************************
 176:..\..\..\..\..\..\uC-Probe\Target\Communication\Generic\Source/probe_com.c **** */
 177:..\..\..\..\..\..\uC-Probe\Target\Communication\Generic\Source/probe_com.c **** 
 178:..\..\..\..\..\..\uC-Probe\Target\Communication\Generic\Source/probe_com.c **** 
 179:..\..\..\..\..\..\uC-Probe\Target\Communication\Generic\Source/probe_com.c **** /*
 180:..\..\..\..\..\..\uC-Probe\Target\Communication\Generic\Source/probe_com.c **** ***************************************************************************************************
 181:..\..\..\..\..\..\uC-Probe\Target\Communication\Generic\Source/probe_com.c **** *                                       LOCAL GLOBAL VARIABLES
 182:..\..\..\..\..\..\uC-Probe\Target\Communication\Generic\Source/probe_com.c **** ***************************************************************************************************
 183:..\..\..\..\..\..\uC-Probe\Target\Communication\Generic\Source/probe_com.c **** */
 184:..\..\..\..\..\..\uC-Probe\Target\Communication\Generic\Source/probe_com.c **** 
 185:..\..\..\..\..\..\uC-Probe\Target\Communication\Generic\Source/probe_com.c **** #if (PROBE_COM_CFG_STR_REQ_EN       == DEF_ENABLED)
 186:..\..\..\..\..\..\uC-Probe\Target\Communication\Generic\Source/probe_com.c **** static  CPU_CHAR                       ProbeCom_StrInBufData[PROBE_COM_CFG_STR_IN_BUF_SIZE];
 187:..\..\..\..\..\..\uC-Probe\Target\Communication\Generic\Source/probe_com.c **** static  PROBE_COM_BUF                  ProbeCom_StrInBuf;
 188:..\..\..\..\..\..\uC-Probe\Target\Communication\Generic\Source/probe_com.c **** 
 189:..\..\..\..\..\..\uC-Probe\Target\Communication\Generic\Source/probe_com.c **** static  CPU_CHAR                       ProbeCom_StrOutBufData[PROBE_COM_CFG_STR_OUT_BUF_SIZE];
 190:..\..\..\..\..\..\uC-Probe\Target\Communication\Generic\Source/probe_com.c **** static  PROBE_COM_BUF                  ProbeCom_StrOutBuf;
ARM GAS  C:\Users\alex\AppData\Local\Temp\ccKfBJGu.s 			page 5


 191:..\..\..\..\..\..\uC-Probe\Target\Communication\Generic\Source/probe_com.c **** #endif
 192:..\..\..\..\..\..\uC-Probe\Target\Communication\Generic\Source/probe_com.c **** 
 193:..\..\..\..\..\..\uC-Probe\Target\Communication\Generic\Source/probe_com.c **** #if (PROBE_COM_CFG_TERMINAL_REQ_EN  == DEF_ENABLED)
 194:..\..\..\..\..\..\uC-Probe\Target\Communication\Generic\Source/probe_com.c **** static  PROBE_COM_TERMINAL_EXEC_FNCT   ProbeCom_TerminalExecHandler;
 195:..\..\..\..\..\..\uC-Probe\Target\Communication\Generic\Source/probe_com.c **** static  CPU_BOOLEAN                    ProbeCom_TerminalExecuting;
 196:..\..\..\..\..\..\uC-Probe\Target\Communication\Generic\Source/probe_com.c **** 
 197:..\..\..\..\..\..\uC-Probe\Target\Communication\Generic\Source/probe_com.c **** static  PROBE_COM_TERMINAL_IN_FNCT     ProbeCom_TerminalInHandler;
 198:..\..\..\..\..\..\uC-Probe\Target\Communication\Generic\Source/probe_com.c **** 
 199:..\..\..\..\..\..\uC-Probe\Target\Communication\Generic\Source/probe_com.c **** static  CPU_INT08U                    *ProbeCom_TerminalOutBufPtr;
 200:..\..\..\..\..\..\uC-Probe\Target\Communication\Generic\Source/probe_com.c **** static  CPU_SIZE_T                     ProbeCom_TerminalOutBufIx;
 201:..\..\..\..\..\..\uC-Probe\Target\Communication\Generic\Source/probe_com.c **** static  CPU_SIZE_T                     ProbeCom_TerminalOutBufLen;
 202:..\..\..\..\..\..\uC-Probe\Target\Communication\Generic\Source/probe_com.c **** #endif
 203:..\..\..\..\..\..\uC-Probe\Target\Communication\Generic\Source/probe_com.c **** 
 204:..\..\..\..\..\..\uC-Probe\Target\Communication\Generic\Source/probe_com.c **** static  CPU_INT32U                     ProbeCom_EndiannessTest;
 205:..\..\..\..\..\..\uC-Probe\Target\Communication\Generic\Source/probe_com.c **** 
 206:..\..\..\..\..\..\uC-Probe\Target\Communication\Generic\Source/probe_com.c **** 
 207:..\..\..\..\..\..\uC-Probe\Target\Communication\Generic\Source/probe_com.c **** /*
 208:..\..\..\..\..\..\uC-Probe\Target\Communication\Generic\Source/probe_com.c **** ***************************************************************************************************
 209:..\..\..\..\..\..\uC-Probe\Target\Communication\Generic\Source/probe_com.c **** *                                      LOCAL FUNCTION PROTOTYPES
 210:..\..\..\..\..\..\uC-Probe\Target\Communication\Generic\Source/probe_com.c **** ***************************************************************************************************
 211:..\..\..\..\..\..\uC-Probe\Target\Communication\Generic\Source/probe_com.c **** */
 212:..\..\..\..\..\..\uC-Probe\Target\Communication\Generic\Source/probe_com.c **** 
 213:..\..\..\..\..\..\uC-Probe\Target\Communication\Generic\Source/probe_com.c **** static  CPU_INT08U   ProbeCom_PktModifier     (void);
 214:..\..\..\..\..\..\uC-Probe\Target\Communication\Generic\Source/probe_com.c **** 
 215:..\..\..\..\..\..\uC-Probe\Target\Communication\Generic\Source/probe_com.c **** static  CPU_SIZE_T   ProbeCom_ReqErr          (CPU_INT08U      *ptx_buf,
 216:..\..\..\..\..\..\uC-Probe\Target\Communication\Generic\Source/probe_com.c ****                                                CPU_INT08U       pcomm_err);
 217:..\..\..\..\..\..\uC-Probe\Target\Communication\Generic\Source/probe_com.c **** 
 218:..\..\..\..\..\..\uC-Probe\Target\Communication\Generic\Source/probe_com.c **** 
 219:..\..\..\..\..\..\uC-Probe\Target\Communication\Generic\Source/probe_com.c ****                                                                 /* ------------------- HANDLE REQ'S
 220:..\..\..\..\..\..\uC-Probe\Target\Communication\Generic\Source/probe_com.c **** static  CPU_SIZE_T   ProbeCom_ReqQuery        (CPU_INT08U      *prx_buf,
 221:..\..\..\..\..\..\uC-Probe\Target\Communication\Generic\Source/probe_com.c ****                                                CPU_INT08U      *ptx_buf,
 222:..\..\..\..\..\..\uC-Probe\Target\Communication\Generic\Source/probe_com.c ****                                                CPU_SIZE_T       rx_pkt_size,
 223:..\..\..\..\..\..\uC-Probe\Target\Communication\Generic\Source/probe_com.c ****                                                CPU_SIZE_T       tx_buf_size);
 224:..\..\..\..\..\..\uC-Probe\Target\Communication\Generic\Source/probe_com.c **** 
 225:..\..\..\..\..\..\uC-Probe\Target\Communication\Generic\Source/probe_com.c **** static  CPU_SIZE_T   ProbeCom_ReqRd           (CPU_INT08U      *prx_buf,
 226:..\..\..\..\..\..\uC-Probe\Target\Communication\Generic\Source/probe_com.c ****                                                CPU_INT08U      *ptx_buf,
 227:..\..\..\..\..\..\uC-Probe\Target\Communication\Generic\Source/probe_com.c ****                                                CPU_SIZE_T       rx_pkt_size,
 228:..\..\..\..\..\..\uC-Probe\Target\Communication\Generic\Source/probe_com.c ****                                                CPU_SIZE_T       tx_buf_size);
 229:..\..\..\..\..\..\uC-Probe\Target\Communication\Generic\Source/probe_com.c **** 
 230:..\..\..\..\..\..\uC-Probe\Target\Communication\Generic\Source/probe_com.c **** static  CPU_SIZE_T   ProbeCom_ReqRdMulti      (CPU_INT08U      *prx_buf,
 231:..\..\..\..\..\..\uC-Probe\Target\Communication\Generic\Source/probe_com.c ****                                                CPU_INT08U      *ptx_buf,
 232:..\..\..\..\..\..\uC-Probe\Target\Communication\Generic\Source/probe_com.c ****                                                CPU_SIZE_T       rx_pkt_size,
 233:..\..\..\..\..\..\uC-Probe\Target\Communication\Generic\Source/probe_com.c ****                                                CPU_SIZE_T       tx_buf_size);
 234:..\..\..\..\..\..\uC-Probe\Target\Communication\Generic\Source/probe_com.c **** 
 235:..\..\..\..\..\..\uC-Probe\Target\Communication\Generic\Source/probe_com.c **** #if (PROBE_COM_CFG_WR_REQ_EN == DEF_ENABLED)
 236:..\..\..\..\..\..\uC-Probe\Target\Communication\Generic\Source/probe_com.c **** static  CPU_SIZE_T   ProbeCom_ReqWr           (CPU_INT08U      *prx_buf,
 237:..\..\..\..\..\..\uC-Probe\Target\Communication\Generic\Source/probe_com.c ****                                                CPU_INT08U      *ptx_buf,
 238:..\..\..\..\..\..\uC-Probe\Target\Communication\Generic\Source/probe_com.c ****                                                CPU_SIZE_T       rx_pkt_size,
 239:..\..\..\..\..\..\uC-Probe\Target\Communication\Generic\Source/probe_com.c ****                                                CPU_SIZE_T       tx_buf_size);
 240:..\..\..\..\..\..\uC-Probe\Target\Communication\Generic\Source/probe_com.c **** 
 241:..\..\..\..\..\..\uC-Probe\Target\Communication\Generic\Source/probe_com.c **** static  CPU_SIZE_T   ProbeCom_ReqWrMulti      (CPU_INT08U      *prx_buf,
 242:..\..\..\..\..\..\uC-Probe\Target\Communication\Generic\Source/probe_com.c ****                                                CPU_INT08U      *ptx_buf,
 243:..\..\..\..\..\..\uC-Probe\Target\Communication\Generic\Source/probe_com.c ****                                                CPU_SIZE_T       rx_pkt_size,
 244:..\..\..\..\..\..\uC-Probe\Target\Communication\Generic\Source/probe_com.c ****                                                CPU_SIZE_T       tx_buf_size);
 245:..\..\..\..\..\..\uC-Probe\Target\Communication\Generic\Source/probe_com.c **** #endif
 246:..\..\..\..\..\..\uC-Probe\Target\Communication\Generic\Source/probe_com.c **** 
 247:..\..\..\..\..\..\uC-Probe\Target\Communication\Generic\Source/probe_com.c **** #if (PROBE_COM_CFG_STR_REQ_EN == DEF_ENABLED)
ARM GAS  C:\Users\alex\AppData\Local\Temp\ccKfBJGu.s 			page 6


 248:..\..\..\..\..\..\uC-Probe\Target\Communication\Generic\Source/probe_com.c **** static  CPU_SIZE_T   ProbeCom_ReqStrIn        (CPU_INT08U      *prx_buf,
 249:..\..\..\..\..\..\uC-Probe\Target\Communication\Generic\Source/probe_com.c ****                                                CPU_INT08U      *ptx_buf,
 250:..\..\..\..\..\..\uC-Probe\Target\Communication\Generic\Source/probe_com.c ****                                                CPU_SIZE_T       rx_pkt_size,
 251:..\..\..\..\..\..\uC-Probe\Target\Communication\Generic\Source/probe_com.c ****                                                CPU_SIZE_T       tx_buf_size);
 252:..\..\..\..\..\..\uC-Probe\Target\Communication\Generic\Source/probe_com.c **** 
 253:..\..\..\..\..\..\uC-Probe\Target\Communication\Generic\Source/probe_com.c **** static  CPU_SIZE_T   ProbeCom_ReqStrOut       (CPU_INT08U      *prx_buf,
 254:..\..\..\..\..\..\uC-Probe\Target\Communication\Generic\Source/probe_com.c ****                                                CPU_INT08U      *ptx_buf,
 255:..\..\..\..\..\..\uC-Probe\Target\Communication\Generic\Source/probe_com.c ****                                                CPU_SIZE_T       rx_pkt_size,
 256:..\..\..\..\..\..\uC-Probe\Target\Communication\Generic\Source/probe_com.c ****                                                CPU_SIZE_T       tx_buf_size);
 257:..\..\..\..\..\..\uC-Probe\Target\Communication\Generic\Source/probe_com.c **** #endif
 258:..\..\..\..\..\..\uC-Probe\Target\Communication\Generic\Source/probe_com.c **** 
 259:..\..\..\..\..\..\uC-Probe\Target\Communication\Generic\Source/probe_com.c **** #if (PROBE_COM_CFG_TERMINAL_REQ_EN == DEF_ENABLED)
 260:..\..\..\..\..\..\uC-Probe\Target\Communication\Generic\Source/probe_com.c **** static  CPU_SIZE_T   ProbeCom_ReqTerminalExec (CPU_INT08U      *prx_buf,
 261:..\..\..\..\..\..\uC-Probe\Target\Communication\Generic\Source/probe_com.c ****                                                CPU_INT08U      *ptx_buf,
 262:..\..\..\..\..\..\uC-Probe\Target\Communication\Generic\Source/probe_com.c ****                                                CPU_SIZE_T       rx_pkt_size,
 263:..\..\..\..\..\..\uC-Probe\Target\Communication\Generic\Source/probe_com.c ****                                                CPU_SIZE_T       tx_buf_size);
 264:..\..\..\..\..\..\uC-Probe\Target\Communication\Generic\Source/probe_com.c **** 
 265:..\..\..\..\..\..\uC-Probe\Target\Communication\Generic\Source/probe_com.c **** static  CPU_SIZE_T   ProbeCom_ReqTerminalIn   (CPU_INT08U      *prx_buf,
 266:..\..\..\..\..\..\uC-Probe\Target\Communication\Generic\Source/probe_com.c ****                                                CPU_INT08U      *ptx_buf,
 267:..\..\..\..\..\..\uC-Probe\Target\Communication\Generic\Source/probe_com.c ****                                                CPU_SIZE_T       rx_pkt_size,
 268:..\..\..\..\..\..\uC-Probe\Target\Communication\Generic\Source/probe_com.c ****                                                CPU_SIZE_T       tx_buf_size);
 269:..\..\..\..\..\..\uC-Probe\Target\Communication\Generic\Source/probe_com.c **** 
 270:..\..\..\..\..\..\uC-Probe\Target\Communication\Generic\Source/probe_com.c **** static  CPU_SIZE_T   ProbeCom_ReqTerminalOut  (CPU_INT08U      *prx_buf,
 271:..\..\..\..\..\..\uC-Probe\Target\Communication\Generic\Source/probe_com.c ****                                                CPU_INT08U      *ptx_buf,
 272:..\..\..\..\..\..\uC-Probe\Target\Communication\Generic\Source/probe_com.c ****                                                CPU_SIZE_T       rx_pkt_size,
 273:..\..\..\..\..\..\uC-Probe\Target\Communication\Generic\Source/probe_com.c ****                                                CPU_SIZE_T       tx_buf_size);
 274:..\..\..\..\..\..\uC-Probe\Target\Communication\Generic\Source/probe_com.c **** #endif
 275:..\..\..\..\..\..\uC-Probe\Target\Communication\Generic\Source/probe_com.c **** 
 276:..\..\..\..\..\..\uC-Probe\Target\Communication\Generic\Source/probe_com.c ****                                                                 /* ------------------- DYNAMIC BUFF
 277:..\..\..\..\..\..\uC-Probe\Target\Communication\Generic\Source/probe_com.c **** #if (PROBE_COM_CFG_STR_REQ_EN == DEF_TRUE)
 278:..\..\..\..\..\..\uC-Probe\Target\Communication\Generic\Source/probe_com.c **** static  void         ProbeCom_BufInit         (PROBE_COM_BUF   *pbuf,
 279:..\..\..\..\..\..\uC-Probe\Target\Communication\Generic\Source/probe_com.c ****                                                CPU_INT08U      *pdata,
 280:..\..\..\..\..\..\uC-Probe\Target\Communication\Generic\Source/probe_com.c ****                                                CPU_SIZE_T       len);
 281:..\..\..\..\..\..\uC-Probe\Target\Communication\Generic\Source/probe_com.c **** 
 282:..\..\..\..\..\..\uC-Probe\Target\Communication\Generic\Source/probe_com.c **** static  CPU_SIZE_T   ProbeCom_BufRd           (PROBE_COM_BUF   *pbuf,
 283:..\..\..\..\..\..\uC-Probe\Target\Communication\Generic\Source/probe_com.c ****                                                CPU_INT08U      *pdest,
 284:..\..\..\..\..\..\uC-Probe\Target\Communication\Generic\Source/probe_com.c ****                                                CPU_SIZE_T       len)
 285:..\..\..\..\..\..\uC-Probe\Target\Communication\Generic\Source/probe_com.c **** ;
 286:..\..\..\..\..\..\uC-Probe\Target\Communication\Generic\Source/probe_com.c **** static  CPU_SIZE_T   ProbeCom_BufWr           (PROBE_COM_BUF   *pbuf,
 287:..\..\..\..\..\..\uC-Probe\Target\Communication\Generic\Source/probe_com.c ****                                                CPU_INT08U      *psrc,
 288:..\..\..\..\..\..\uC-Probe\Target\Communication\Generic\Source/probe_com.c ****                                                CPU_SIZE_T       len);
 289:..\..\..\..\..\..\uC-Probe\Target\Communication\Generic\Source/probe_com.c **** 
 290:..\..\..\..\..\..\uC-Probe\Target\Communication\Generic\Source/probe_com.c **** static  CPU_BOOLEAN  ProbeCom_BufIsEmpty      (PROBE_COM_BUF   *pbuf);
 291:..\..\..\..\..\..\uC-Probe\Target\Communication\Generic\Source/probe_com.c **** #endif
 292:..\..\..\..\..\..\uC-Probe\Target\Communication\Generic\Source/probe_com.c **** 
 293:..\..\..\..\..\..\uC-Probe\Target\Communication\Generic\Source/probe_com.c **** #if 0
 294:..\..\..\..\..\..\uC-Probe\Target\Communication\Generic\Source/probe_com.c **** static  CPU_BOOLEAN  ProbeCom_BufIsFull       (PROBE_COM_BUF   *pbuf);
 295:..\..\..\..\..\..\uC-Probe\Target\Communication\Generic\Source/probe_com.c **** #endif
 296:..\..\..\..\..\..\uC-Probe\Target\Communication\Generic\Source/probe_com.c **** 
 297:..\..\..\..\..\..\uC-Probe\Target\Communication\Generic\Source/probe_com.c ****                                                                 /* ------------------- STATIC BUFFE
 298:..\..\..\..\..\..\uC-Probe\Target\Communication\Generic\Source/probe_com.c **** static  CPU_INT08U   ProbeCom_GetINT08U       (CPU_INT08U     **pbuf);
 299:..\..\..\..\..\..\uC-Probe\Target\Communication\Generic\Source/probe_com.c **** 
 300:..\..\..\..\..\..\uC-Probe\Target\Communication\Generic\Source/probe_com.c **** static  CPU_INT16U   ProbeCom_GetINT16U       (CPU_INT08U     **pbuf);
 301:..\..\..\..\..\..\uC-Probe\Target\Communication\Generic\Source/probe_com.c **** 
 302:..\..\..\..\..\..\uC-Probe\Target\Communication\Generic\Source/probe_com.c **** static  CPU_INT32U   ProbeCom_GetINT32U       (CPU_INT08U     **pbuf);
 303:..\..\..\..\..\..\uC-Probe\Target\Communication\Generic\Source/probe_com.c **** 
 304:..\..\..\..\..\..\uC-Probe\Target\Communication\Generic\Source/probe_com.c **** static  void         ProbeCom_StoINT08U       (CPU_INT08U     **pbuf,
ARM GAS  C:\Users\alex\AppData\Local\Temp\ccKfBJGu.s 			page 7


 305:..\..\..\..\..\..\uC-Probe\Target\Communication\Generic\Source/probe_com.c ****                                                CPU_INT08U       data);
 306:..\..\..\..\..\..\uC-Probe\Target\Communication\Generic\Source/probe_com.c **** 
 307:..\..\..\..\..\..\uC-Probe\Target\Communication\Generic\Source/probe_com.c **** static  void         ProbeCom_StoINT16U       (CPU_INT08U     **pbuf,
 308:..\..\..\..\..\..\uC-Probe\Target\Communication\Generic\Source/probe_com.c ****                                                CPU_INT16U       data);
 309:..\..\..\..\..\..\uC-Probe\Target\Communication\Generic\Source/probe_com.c **** 
 310:..\..\..\..\..\..\uC-Probe\Target\Communication\Generic\Source/probe_com.c **** #if 0
 311:..\..\..\..\..\..\uC-Probe\Target\Communication\Generic\Source/probe_com.c **** static  void         ProbeCom_StoINT32U       (CPU_INT08U     **pbuf,
 312:..\..\..\..\..\..\uC-Probe\Target\Communication\Generic\Source/probe_com.c ****                                                CPU_INT32U       data);
 313:..\..\..\..\..\..\uC-Probe\Target\Communication\Generic\Source/probe_com.c **** #endif
 314:..\..\..\..\..\..\uC-Probe\Target\Communication\Generic\Source/probe_com.c **** 
 315:..\..\..\..\..\..\uC-Probe\Target\Communication\Generic\Source/probe_com.c ****                                                                 /* -------------- DETERMINE PKT MOD
 316:..\..\..\..\..\..\uC-Probe\Target\Communication\Generic\Source/probe_com.c **** #if (PROBE_COM_CFG_STR_REQ_EN == DEF_ENABLED)
 317:..\..\..\..\..\..\uC-Probe\Target\Communication\Generic\Source/probe_com.c **** static  CPU_BOOLEAN  ProbeCom_StrOutAvail     (void);
 318:..\..\..\..\..\..\uC-Probe\Target\Communication\Generic\Source/probe_com.c **** #endif
 319:..\..\..\..\..\..\uC-Probe\Target\Communication\Generic\Source/probe_com.c **** 
 320:..\..\..\..\..\..\uC-Probe\Target\Communication\Generic\Source/probe_com.c **** 
 321:..\..\..\..\..\..\uC-Probe\Target\Communication\Generic\Source/probe_com.c **** #if (PROBE_COM_CFG_TERMINAL_REQ_EN == DEF_ENABLED)
 322:..\..\..\..\..\..\uC-Probe\Target\Communication\Generic\Source/probe_com.c **** static  CPU_BOOLEAN  ProbeCom_TerminalOutAvail(void);
 323:..\..\..\..\..\..\uC-Probe\Target\Communication\Generic\Source/probe_com.c **** 
 324:..\..\..\..\..\..\uC-Probe\Target\Communication\Generic\Source/probe_com.c **** static  CPU_BOOLEAN  ProbeCom_TerminalExecDone(void);
 325:..\..\..\..\..\..\uC-Probe\Target\Communication\Generic\Source/probe_com.c **** #endif
 326:..\..\..\..\..\..\uC-Probe\Target\Communication\Generic\Source/probe_com.c **** 
 327:..\..\..\..\..\..\uC-Probe\Target\Communication\Generic\Source/probe_com.c **** 
 328:..\..\..\..\..\..\uC-Probe\Target\Communication\Generic\Source/probe_com.c **** /*
 329:..\..\..\..\..\..\uC-Probe\Target\Communication\Generic\Source/probe_com.c **** ***************************************************************************************************
 330:..\..\..\..\..\..\uC-Probe\Target\Communication\Generic\Source/probe_com.c **** *                                     LOCAL CONFIGURATION ERRORS
 331:..\..\..\..\..\..\uC-Probe\Target\Communication\Generic\Source/probe_com.c **** ***************************************************************************************************
 332:..\..\..\..\..\..\uC-Probe\Target\Communication\Generic\Source/probe_com.c **** */
 333:..\..\..\..\..\..\uC-Probe\Target\Communication\Generic\Source/probe_com.c **** 
 334:..\..\..\..\..\..\uC-Probe\Target\Communication\Generic\Source/probe_com.c **** 
 335:..\..\..\..\..\..\uC-Probe\Target\Communication\Generic\Source/probe_com.c **** /*
 336:..\..\..\..\..\..\uC-Probe\Target\Communication\Generic\Source/probe_com.c **** ***************************************************************************************************
 337:..\..\..\..\..\..\uC-Probe\Target\Communication\Generic\Source/probe_com.c **** *                                           ProbeCom_Init()
 338:..\..\..\..\..\..\uC-Probe\Target\Communication\Generic\Source/probe_com.c **** *
 339:..\..\..\..\..\..\uC-Probe\Target\Communication\Generic\Source/probe_com.c **** * Description : Initialize the module.
 340:..\..\..\..\..\..\uC-Probe\Target\Communication\Generic\Source/probe_com.c **** *
 341:..\..\..\..\..\..\uC-Probe\Target\Communication\Generic\Source/probe_com.c **** * Argument(s) : none.
 342:..\..\..\..\..\..\uC-Probe\Target\Communication\Generic\Source/probe_com.c **** *
 343:..\..\..\..\..\..\uC-Probe\Target\Communication\Generic\Source/probe_com.c **** * Return(s)   : DEF_OK,   if initialization successful.
 344:..\..\..\..\..\..\uC-Probe\Target\Communication\Generic\Source/probe_com.c **** *               DEF_FAIL, otherwise.
 345:..\..\..\..\..\..\uC-Probe\Target\Communication\Generic\Source/probe_com.c **** *
 346:..\..\..\..\..\..\uC-Probe\Target\Communication\Generic\Source/probe_com.c **** * Caller(s)   : Application.
 347:..\..\..\..\..\..\uC-Probe\Target\Communication\Generic\Source/probe_com.c **** *
 348:..\..\..\..\..\..\uC-Probe\Target\Communication\Generic\Source/probe_com.c **** * Note(s)     : none.
 349:..\..\..\..\..\..\uC-Probe\Target\Communication\Generic\Source/probe_com.c **** ***************************************************************************************************
 350:..\..\..\..\..\..\uC-Probe\Target\Communication\Generic\Source/probe_com.c **** */
 351:..\..\..\..\..\..\uC-Probe\Target\Communication\Generic\Source/probe_com.c **** 
 352:..\..\..\..\..\..\uC-Probe\Target\Communication\Generic\Source/probe_com.c **** CPU_BOOLEAN  ProbeCom_Init (void)
 353:..\..\..\..\..\..\uC-Probe\Target\Communication\Generic\Source/probe_com.c **** {
  39              		.loc 1 353 0
  40              		.cfi_startproc
  41              		@ args = 0, pretend = 0, frame = 0
  42              		@ frame_needed = 1, uses_anonymous_args = 0
  43              		@ link register save eliminated.
  44 0000 80B4     		push	{r7}
  45              		.cfi_def_cfa_offset 4
  46              		.cfi_offset 7, -4
ARM GAS  C:\Users\alex\AppData\Local\Temp\ccKfBJGu.s 			page 8


  47 0002 00AF     		add	r7, sp, #0
  48              		.cfi_def_cfa_register 7
 354:..\..\..\..\..\..\uC-Probe\Target\Communication\Generic\Source/probe_com.c **** #if (PROBE_COM_CFG_TERMINAL_REQ_EN == DEF_ENABLED)
 355:..\..\..\..\..\..\uC-Probe\Target\Communication\Generic\Source/probe_com.c ****     CPU_BOOLEAN  ok;
 356:..\..\..\..\..\..\uC-Probe\Target\Communication\Generic\Source/probe_com.c **** #endif
 357:..\..\..\..\..\..\uC-Probe\Target\Communication\Generic\Source/probe_com.c **** 
 358:..\..\..\..\..\..\uC-Probe\Target\Communication\Generic\Source/probe_com.c **** 
 359:..\..\..\..\..\..\uC-Probe\Target\Communication\Generic\Source/probe_com.c **** #if (PROBE_COM_CFG_STR_REQ_EN      == DEF_ENABLED)
 360:..\..\..\..\..\..\uC-Probe\Target\Communication\Generic\Source/probe_com.c ****     Mem_Clr((void     *)&ProbeCom_StrInBufData[0],
 361:..\..\..\..\..\..\uC-Probe\Target\Communication\Generic\Source/probe_com.c ****             (CPU_SIZE_T) PROBE_COM_CFG_STR_IN_BUF_SIZE);
 362:..\..\..\..\..\..\uC-Probe\Target\Communication\Generic\Source/probe_com.c **** 
 363:..\..\..\..\..\..\uC-Probe\Target\Communication\Generic\Source/probe_com.c ****     ProbeCom_BufInit((PROBE_COM_BUF *)&ProbeCom_StrInBuf,
 364:..\..\..\..\..\..\uC-Probe\Target\Communication\Generic\Source/probe_com.c ****                      (CPU_INT08U    *)&ProbeCom_StrInBufData[0],
 365:..\..\..\..\..\..\uC-Probe\Target\Communication\Generic\Source/probe_com.c ****                      (CPU_SIZE_T     ) PROBE_COM_CFG_STR_IN_BUF_SIZE);
 366:..\..\..\..\..\..\uC-Probe\Target\Communication\Generic\Source/probe_com.c **** 
 367:..\..\..\..\..\..\uC-Probe\Target\Communication\Generic\Source/probe_com.c ****     Mem_Clr((void     *)&ProbeCom_StrOutBufData[0],
 368:..\..\..\..\..\..\uC-Probe\Target\Communication\Generic\Source/probe_com.c ****             (CPU_SIZE_T) PROBE_COM_CFG_STR_OUT_BUF_SIZE);
 369:..\..\..\..\..\..\uC-Probe\Target\Communication\Generic\Source/probe_com.c **** 
 370:..\..\..\..\..\..\uC-Probe\Target\Communication\Generic\Source/probe_com.c ****     ProbeCom_BufInit((PROBE_COM_BUF *)&ProbeCom_StrOutBuf,
 371:..\..\..\..\..\..\uC-Probe\Target\Communication\Generic\Source/probe_com.c ****                      (CPU_INT08U    *)&ProbeCom_StrOutBufData[0],
 372:..\..\..\..\..\..\uC-Probe\Target\Communication\Generic\Source/probe_com.c ****                      (CPU_SIZE_T     ) PROBE_COM_CFG_STR_OUT_BUF_SIZE);
 373:..\..\..\..\..\..\uC-Probe\Target\Communication\Generic\Source/probe_com.c **** #endif
 374:..\..\..\..\..\..\uC-Probe\Target\Communication\Generic\Source/probe_com.c **** 
 375:..\..\..\..\..\..\uC-Probe\Target\Communication\Generic\Source/probe_com.c **** 
 376:..\..\..\..\..\..\uC-Probe\Target\Communication\Generic\Source/probe_com.c **** #if (PROBE_COM_CFG_TERMINAL_REQ_EN == DEF_ENABLED)
 377:..\..\..\..\..\..\uC-Probe\Target\Communication\Generic\Source/probe_com.c ****     ProbeCom_TerminalExecHandler   = (void        *)0;
 378:..\..\..\..\..\..\uC-Probe\Target\Communication\Generic\Source/probe_com.c ****     ProbeCom_TerminalExecuting     = (CPU_BOOLEAN  )DEF_NO;
 379:..\..\..\..\..\..\uC-Probe\Target\Communication\Generic\Source/probe_com.c **** 
 380:..\..\..\..\..\..\uC-Probe\Target\Communication\Generic\Source/probe_com.c ****     ProbeCom_TerminalInHandler     = (void        *)0;
 381:..\..\..\..\..\..\uC-Probe\Target\Communication\Generic\Source/probe_com.c **** 
 382:..\..\..\..\..\..\uC-Probe\Target\Communication\Generic\Source/probe_com.c ****     ProbeCom_TerminalOutBufPtr     = (CPU_INT08U  *)0;
 383:..\..\..\..\..\..\uC-Probe\Target\Communication\Generic\Source/probe_com.c ****     ProbeCom_TerminalOutBufIx      = (CPU_SIZE_T   )0;
 384:..\..\..\..\..\..\uC-Probe\Target\Communication\Generic\Source/probe_com.c ****     ProbeCom_TerminalOutBufLen     = (CPU_SIZE_T   )0;
 385:..\..\..\..\..\..\uC-Probe\Target\Communication\Generic\Source/probe_com.c **** 
 386:..\..\..\..\..\..\uC-Probe\Target\Communication\Generic\Source/probe_com.c ****     ok = ProbeCom_OS_Init();
 387:..\..\..\..\..\..\uC-Probe\Target\Communication\Generic\Source/probe_com.c **** 
 388:..\..\..\..\..\..\uC-Probe\Target\Communication\Generic\Source/probe_com.c ****     if (ok == DEF_FAIL) {
 389:..\..\..\..\..\..\uC-Probe\Target\Communication\Generic\Source/probe_com.c ****         return (DEF_FAIL);
 390:..\..\..\..\..\..\uC-Probe\Target\Communication\Generic\Source/probe_com.c ****     }
 391:..\..\..\..\..\..\uC-Probe\Target\Communication\Generic\Source/probe_com.c **** #endif
 392:..\..\..\..\..\..\uC-Probe\Target\Communication\Generic\Source/probe_com.c **** 
 393:..\..\..\..\..\..\uC-Probe\Target\Communication\Generic\Source/probe_com.c **** 
 394:..\..\..\..\..\..\uC-Probe\Target\Communication\Generic\Source/probe_com.c **** #if (PROBE_COM_CFG_STAT_EN         == DEF_ENABLED)
 395:..\..\..\..\..\..\uC-Probe\Target\Communication\Generic\Source/probe_com.c ****     ProbeCom_RxPktCtr              =  0u;
  49              		.loc 1 395 0
  50 0004 0E4B     		ldr	r3, .L3
  51 0006 0022     		movs	r2, #0
  52 0008 1A60     		str	r2, [r3]
 396:..\..\..\..\..\..\uC-Probe\Target\Communication\Generic\Source/probe_com.c ****     ProbeCom_TxPktCtr              =  0u;
  53              		.loc 1 396 0
  54 000a 0E4B     		ldr	r3, .L3+4
  55 000c 0022     		movs	r2, #0
  56 000e 1A60     		str	r2, [r3]
 397:..\..\..\..\..\..\uC-Probe\Target\Communication\Generic\Source/probe_com.c **** 
 398:..\..\..\..\..\..\uC-Probe\Target\Communication\Generic\Source/probe_com.c ****     ProbeCom_TxSymCtr              =  0u;
  57              		.loc 1 398 0
  58 0010 0D4B     		ldr	r3, .L3+8
ARM GAS  C:\Users\alex\AppData\Local\Temp\ccKfBJGu.s 			page 9


  59 0012 0022     		movs	r2, #0
  60 0014 1A60     		str	r2, [r3]
 399:..\..\..\..\..\..\uC-Probe\Target\Communication\Generic\Source/probe_com.c ****     ProbeCom_TxSymByteCtr          =  0u;
  61              		.loc 1 399 0
  62 0016 0D4B     		ldr	r3, .L3+12
  63 0018 0022     		movs	r2, #0
  64 001a 1A60     		str	r2, [r3]
 400:..\..\..\..\..\..\uC-Probe\Target\Communication\Generic\Source/probe_com.c ****     ProbeCom_ErrPktCtr             =  0u;
  65              		.loc 1 400 0
  66 001c 0C4B     		ldr	r3, .L3+16
  67 001e 0022     		movs	r2, #0
  68 0020 1A60     		str	r2, [r3]
 401:..\..\..\..\..\..\uC-Probe\Target\Communication\Generic\Source/probe_com.c **** 
 402:..\..\..\..\..\..\uC-Probe\Target\Communication\Generic\Source/probe_com.c **** #if (PROBE_COM_CFG_STR_REQ_EN      == DEF_ENABLED)
 403:..\..\..\..\..\..\uC-Probe\Target\Communication\Generic\Source/probe_com.c ****     ProbeCom_StrRxCtr              =  0u;
 404:..\..\..\..\..\..\uC-Probe\Target\Communication\Generic\Source/probe_com.c ****     ProbeCom_StrRxOvfErrCtr        =  0u;
 405:..\..\..\..\..\..\uC-Probe\Target\Communication\Generic\Source/probe_com.c **** 
 406:..\..\..\..\..\..\uC-Probe\Target\Communication\Generic\Source/probe_com.c ****     ProbeCom_StrTxCtr              =  0u;
 407:..\..\..\..\..\..\uC-Probe\Target\Communication\Generic\Source/probe_com.c ****     ProbeCom_StrTxOvfErrCtr        =  0u;
 408:..\..\..\..\..\..\uC-Probe\Target\Communication\Generic\Source/probe_com.c **** #endif
 409:..\..\..\..\..\..\uC-Probe\Target\Communication\Generic\Source/probe_com.c **** 
 410:..\..\..\..\..\..\uC-Probe\Target\Communication\Generic\Source/probe_com.c **** #if (PROBE_COM_CFG_WR_REQ_EN       == DEF_ENABLED)
 411:..\..\..\..\..\..\uC-Probe\Target\Communication\Generic\Source/probe_com.c ****     ProbeCom_RxSymCtr              =  0u;
  69              		.loc 1 411 0
  70 0022 0C4B     		ldr	r3, .L3+20
  71 0024 0022     		movs	r2, #0
  72 0026 1A60     		str	r2, [r3]
 412:..\..\..\..\..\..\uC-Probe\Target\Communication\Generic\Source/probe_com.c ****     ProbeCom_RxSymByteCtr          =  0u;
  73              		.loc 1 412 0
  74 0028 0B4B     		ldr	r3, .L3+24
  75 002a 0022     		movs	r2, #0
  76 002c 1A60     		str	r2, [r3]
 413:..\..\..\..\..\..\uC-Probe\Target\Communication\Generic\Source/probe_com.c **** #endif
 414:..\..\..\..\..\..\uC-Probe\Target\Communication\Generic\Source/probe_com.c **** #endif
 415:..\..\..\..\..\..\uC-Probe\Target\Communication\Generic\Source/probe_com.c **** 
 416:..\..\..\..\..\..\uC-Probe\Target\Communication\Generic\Source/probe_com.c ****     ProbeCom_EndiannessTest        =  0x12345678uL;
  77              		.loc 1 416 0
  78 002e 0B4B     		ldr	r3, .L3+28
  79 0030 0B4A     		ldr	r2, .L3+32
  80 0032 1A60     		str	r2, [r3]
 417:..\..\..\..\..\..\uC-Probe\Target\Communication\Generic\Source/probe_com.c **** 
 418:..\..\..\..\..\..\uC-Probe\Target\Communication\Generic\Source/probe_com.c ****     return (DEF_OK);
  81              		.loc 1 418 0
  82 0034 0123     		movs	r3, #1
 419:..\..\..\..\..\..\uC-Probe\Target\Communication\Generic\Source/probe_com.c **** }
  83              		.loc 1 419 0
  84 0036 1846     		mov	r0, r3
  85 0038 BD46     		mov	sp, r7
  86              		.cfi_def_cfa_register 13
  87              		@ sp needed
  88 003a 80BC     		pop	{r7}
  89              		.cfi_restore 7
  90              		.cfi_def_cfa_offset 0
  91 003c 7047     		bx	lr
  92              	.L4:
  93 003e 00BF     		.align	2
  94              	.L3:
ARM GAS  C:\Users\alex\AppData\Local\Temp\ccKfBJGu.s 			page 10


  95 0040 00000000 		.word	ProbeCom_RxPktCtr
  96 0044 00000000 		.word	ProbeCom_TxPktCtr
  97 0048 00000000 		.word	ProbeCom_TxSymCtr
  98 004c 00000000 		.word	ProbeCom_TxSymByteCtr
  99 0050 00000000 		.word	ProbeCom_ErrPktCtr
 100 0054 00000000 		.word	ProbeCom_RxSymCtr
 101 0058 00000000 		.word	ProbeCom_RxSymByteCtr
 102 005c 00000000 		.word	ProbeCom_EndiannessTest
 103 0060 78563412 		.word	305419896
 104              		.cfi_endproc
 105              	.LFE0:
 106              		.size	ProbeCom_Init, .-ProbeCom_Init
 107              		.section	.text.ProbeCom_ParseRxPkt,"ax",%progbits
 108              		.align	2
 109              		.global	ProbeCom_ParseRxPkt
 110              		.thumb
 111              		.thumb_func
 112              		.type	ProbeCom_ParseRxPkt, %function
 113              	ProbeCom_ParseRxPkt:
 114              	.LFB1:
 420:..\..\..\..\..\..\uC-Probe\Target\Communication\Generic\Source/probe_com.c **** 
 421:..\..\..\..\..\..\uC-Probe\Target\Communication\Generic\Source/probe_com.c **** 
 422:..\..\..\..\..\..\uC-Probe\Target\Communication\Generic\Source/probe_com.c **** /*
 423:..\..\..\..\..\..\uC-Probe\Target\Communication\Generic\Source/probe_com.c **** ***************************************************************************************************
 424:..\..\..\..\..\..\uC-Probe\Target\Communication\Generic\Source/probe_com.c **** *                                          ProbeCom_StrRd()
 425:..\..\..\..\..\..\uC-Probe\Target\Communication\Generic\Source/probe_com.c **** *
 426:..\..\..\..\..\..\uC-Probe\Target\Communication\Generic\Source/probe_com.c **** * Description : Read input data.
 427:..\..\..\..\..\..\uC-Probe\Target\Communication\Generic\Source/probe_com.c **** *
 428:..\..\..\..\..\..\uC-Probe\Target\Communication\Generic\Source/probe_com.c **** * Argument(s) : pdest       Pointer to the destination buffer.
 429:..\..\..\..\..\..\uC-Probe\Target\Communication\Generic\Source/probe_com.c **** *
 430:..\..\..\..\..\..\uC-Probe\Target\Communication\Generic\Source/probe_com.c **** *               len         Length of the destination buffer, in octets/characters.
 431:..\..\..\..\..\..\uC-Probe\Target\Communication\Generic\Source/probe_com.c **** *
 432:..\..\..\..\..\..\uC-Probe\Target\Communication\Generic\Source/probe_com.c **** * Return(s)   : Number of octets/characters read.
 433:..\..\..\..\..\..\uC-Probe\Target\Communication\Generic\Source/probe_com.c **** *
 434:..\..\..\..\..\..\uC-Probe\Target\Communication\Generic\Source/probe_com.c **** * Caller(s)   : Application.
 435:..\..\..\..\..\..\uC-Probe\Target\Communication\Generic\Source/probe_com.c **** *
 436:..\..\..\..\..\..\uC-Probe\Target\Communication\Generic\Source/probe_com.c **** * Note(s)     : (1) This function implements a non-blocking read.  It will read as much data as fit
 437:..\..\..\..\..\..\uC-Probe\Target\Communication\Generic\Source/probe_com.c **** *                   into the buffer, up to 'len' bytes/characters.  The calling application should
 438:..\..\..\..\..\..\uC-Probe\Target\Communication\Generic\Source/probe_com.c **** *                   monitor the return value to see if more data needs to be read.
 439:..\..\..\..\..\..\uC-Probe\Target\Communication\Generic\Source/probe_com.c **** *
 440:..\..\..\..\..\..\uC-Probe\Target\Communication\Generic\Source/probe_com.c **** *               (2) Since this function never blocks, it should not be called in a tight loop witho
 441:..\..\..\..\..\..\uC-Probe\Target\Communication\Generic\Source/probe_com.c **** *                   delay.
 442:..\..\..\..\..\..\uC-Probe\Target\Communication\Generic\Source/probe_com.c **** *
 443:..\..\..\..\..\..\uC-Probe\Target\Communication\Generic\Source/probe_com.c **** *               (3) This function MAY be called from an ISR.
 444:..\..\..\..\..\..\uC-Probe\Target\Communication\Generic\Source/probe_com.c **** ***************************************************************************************************
 445:..\..\..\..\..\..\uC-Probe\Target\Communication\Generic\Source/probe_com.c **** */
 446:..\..\..\..\..\..\uC-Probe\Target\Communication\Generic\Source/probe_com.c **** 
 447:..\..\..\..\..\..\uC-Probe\Target\Communication\Generic\Source/probe_com.c **** #if (PROBE_COM_CFG_STR_REQ_EN == DEF_ENABLED)
 448:..\..\..\..\..\..\uC-Probe\Target\Communication\Generic\Source/probe_com.c **** CPU_SIZE_T  ProbeCom_StrRd (CPU_CHAR    *pdest,
 449:..\..\..\..\..\..\uC-Probe\Target\Communication\Generic\Source/probe_com.c ****                             CPU_SIZE_T   len)
 450:..\..\..\..\..\..\uC-Probe\Target\Communication\Generic\Source/probe_com.c **** {
 451:..\..\..\..\..\..\uC-Probe\Target\Communication\Generic\Source/probe_com.c ****     CPU_SIZE_T  len_rd;
 452:..\..\..\..\..\..\uC-Probe\Target\Communication\Generic\Source/probe_com.c **** 
 453:..\..\..\..\..\..\uC-Probe\Target\Communication\Generic\Source/probe_com.c **** 
 454:..\..\..\..\..\..\uC-Probe\Target\Communication\Generic\Source/probe_com.c ****     len_rd = ProbeCom_BufRd((PROBE_COM_BUF *)&ProbeCom_StrInBuf,
 455:..\..\..\..\..\..\uC-Probe\Target\Communication\Generic\Source/probe_com.c ****                             (CPU_INT08U    *) pdest,
 456:..\..\..\..\..\..\uC-Probe\Target\Communication\Generic\Source/probe_com.c ****                             (CPU_SIZE_T     ) len);
ARM GAS  C:\Users\alex\AppData\Local\Temp\ccKfBJGu.s 			page 11


 457:..\..\..\..\..\..\uC-Probe\Target\Communication\Generic\Source/probe_com.c **** 
 458:..\..\..\..\..\..\uC-Probe\Target\Communication\Generic\Source/probe_com.c ****     return (len_rd);
 459:..\..\..\..\..\..\uC-Probe\Target\Communication\Generic\Source/probe_com.c **** }
 460:..\..\..\..\..\..\uC-Probe\Target\Communication\Generic\Source/probe_com.c **** #endif
 461:..\..\..\..\..\..\uC-Probe\Target\Communication\Generic\Source/probe_com.c **** 
 462:..\..\..\..\..\..\uC-Probe\Target\Communication\Generic\Source/probe_com.c **** 
 463:..\..\..\..\..\..\uC-Probe\Target\Communication\Generic\Source/probe_com.c **** /*
 464:..\..\..\..\..\..\uC-Probe\Target\Communication\Generic\Source/probe_com.c **** ***************************************************************************************************
 465:..\..\..\..\..\..\uC-Probe\Target\Communication\Generic\Source/probe_com.c **** *                                          ProbeCom_StrWr()
 466:..\..\..\..\..\..\uC-Probe\Target\Communication\Generic\Source/probe_com.c **** *
 467:..\..\..\..\..\..\uC-Probe\Target\Communication\Generic\Source/probe_com.c **** * Description : Write or buffer data for output.
 468:..\..\..\..\..\..\uC-Probe\Target\Communication\Generic\Source/probe_com.c **** *
 469:..\..\..\..\..\..\uC-Probe\Target\Communication\Generic\Source/probe_com.c **** * Argument(s) : psrc        Pointer to the source buffer.
 470:..\..\..\..\..\..\uC-Probe\Target\Communication\Generic\Source/probe_com.c **** *
 471:..\..\..\..\..\..\uC-Probe\Target\Communication\Generic\Source/probe_com.c **** *               len         Length of the source buffer, in octets/characters.
 472:..\..\..\..\..\..\uC-Probe\Target\Communication\Generic\Source/probe_com.c **** *
 473:..\..\..\..\..\..\uC-Probe\Target\Communication\Generic\Source/probe_com.c **** * Return(s)   : Number of octets/characters written or buffered.
 474:..\..\..\..\..\..\uC-Probe\Target\Communication\Generic\Source/probe_com.c **** *
 475:..\..\..\..\..\..\uC-Probe\Target\Communication\Generic\Source/probe_com.c **** * Caller(s)   : Application.
 476:..\..\..\..\..\..\uC-Probe\Target\Communication\Generic\Source/probe_com.c **** *
 477:..\..\..\..\..\..\uC-Probe\Target\Communication\Generic\Source/probe_com.c **** * Note(s)     : (1) This function implements a non-blocking write.  It will write as much data as f
 478:..\..\..\..\..\..\uC-Probe\Target\Communication\Generic\Source/probe_com.c **** *                   into the buffer, up to 'len' bytes/characters.  The calling application should
 479:..\..\..\..\..\..\uC-Probe\Target\Communication\Generic\Source/probe_com.c **** *                   monitor the return value to see if more data from the buffer needs to be writte
 480:..\..\..\..\..\..\uC-Probe\Target\Communication\Generic\Source/probe_com.c **** *
 481:..\..\..\..\..\..\uC-Probe\Target\Communication\Generic\Source/probe_com.c **** *               (2) Since this function never blocks, it should not be called in a tight loop witho
 482:..\..\..\..\..\..\uC-Probe\Target\Communication\Generic\Source/probe_com.c **** *                   delay.
 483:..\..\..\..\..\..\uC-Probe\Target\Communication\Generic\Source/probe_com.c **** *
 484:..\..\..\..\..\..\uC-Probe\Target\Communication\Generic\Source/probe_com.c **** *               (3) This function MAY be called from an ISR.
 485:..\..\..\..\..\..\uC-Probe\Target\Communication\Generic\Source/probe_com.c **** ***************************************************************************************************
 486:..\..\..\..\..\..\uC-Probe\Target\Communication\Generic\Source/probe_com.c **** */
 487:..\..\..\..\..\..\uC-Probe\Target\Communication\Generic\Source/probe_com.c **** 
 488:..\..\..\..\..\..\uC-Probe\Target\Communication\Generic\Source/probe_com.c **** #if (PROBE_COM_CFG_STR_REQ_EN == DEF_ENABLED)
 489:..\..\..\..\..\..\uC-Probe\Target\Communication\Generic\Source/probe_com.c **** CPU_SIZE_T  ProbeCom_StrWr (CPU_CHAR    *psrc,
 490:..\..\..\..\..\..\uC-Probe\Target\Communication\Generic\Source/probe_com.c ****                             CPU_SIZE_T   len)
 491:..\..\..\..\..\..\uC-Probe\Target\Communication\Generic\Source/probe_com.c **** {
 492:..\..\..\..\..\..\uC-Probe\Target\Communication\Generic\Source/probe_com.c ****     CPU_SIZE_T  len_wr;
 493:..\..\..\..\..\..\uC-Probe\Target\Communication\Generic\Source/probe_com.c **** 
 494:..\..\..\..\..\..\uC-Probe\Target\Communication\Generic\Source/probe_com.c **** 
 495:..\..\..\..\..\..\uC-Probe\Target\Communication\Generic\Source/probe_com.c ****     len_wr = ProbeCom_BufWr((PROBE_COM_BUF *)&ProbeCom_StrOutBuf,
 496:..\..\..\..\..\..\uC-Probe\Target\Communication\Generic\Source/probe_com.c ****                             (CPU_INT08U    *) psrc,
 497:..\..\..\..\..\..\uC-Probe\Target\Communication\Generic\Source/probe_com.c ****                             (CPU_SIZE_T     ) len);
 498:..\..\..\..\..\..\uC-Probe\Target\Communication\Generic\Source/probe_com.c **** 
 499:..\..\..\..\..\..\uC-Probe\Target\Communication\Generic\Source/probe_com.c **** #if (PROBE_COM_CFG_STAT_EN == DEF_ENABLED)
 500:..\..\..\..\..\..\uC-Probe\Target\Communication\Generic\Source/probe_com.c ****     if (len_wr < len) {
 501:..\..\..\..\..\..\uC-Probe\Target\Communication\Generic\Source/probe_com.c ****         ProbeCom_StrTxOvfErrCtr++;
 502:..\..\..\..\..\..\uC-Probe\Target\Communication\Generic\Source/probe_com.c ****     }
 503:..\..\..\..\..\..\uC-Probe\Target\Communication\Generic\Source/probe_com.c **** #endif
 504:..\..\..\..\..\..\uC-Probe\Target\Communication\Generic\Source/probe_com.c **** 
 505:..\..\..\..\..\..\uC-Probe\Target\Communication\Generic\Source/probe_com.c ****     return (len_wr);
 506:..\..\..\..\..\..\uC-Probe\Target\Communication\Generic\Source/probe_com.c **** }
 507:..\..\..\..\..\..\uC-Probe\Target\Communication\Generic\Source/probe_com.c **** #endif
 508:..\..\..\..\..\..\uC-Probe\Target\Communication\Generic\Source/probe_com.c **** 
 509:..\..\..\..\..\..\uC-Probe\Target\Communication\Generic\Source/probe_com.c **** 
 510:..\..\..\..\..\..\uC-Probe\Target\Communication\Generic\Source/probe_com.c **** /*
 511:..\..\..\..\..\..\uC-Probe\Target\Communication\Generic\Source/probe_com.c **** ***************************************************************************************************
 512:..\..\..\..\..\..\uC-Probe\Target\Communication\Generic\Source/probe_com.c **** *                                       ProbeCom_TerminalOut()
 513:..\..\..\..\..\..\uC-Probe\Target\Communication\Generic\Source/probe_com.c **** *
ARM GAS  C:\Users\alex\AppData\Local\Temp\ccKfBJGu.s 			page 12


 514:..\..\..\..\..\..\uC-Probe\Target\Communication\Generic\Source/probe_com.c **** * Description : Output data over terminal.
 515:..\..\..\..\..\..\uC-Probe\Target\Communication\Generic\Source/probe_com.c **** *
 516:..\..\..\..\..\..\uC-Probe\Target\Communication\Generic\Source/probe_com.c **** * Argument(s) : psrc        Pointer to the source buffer.
 517:..\..\..\..\..\..\uC-Probe\Target\Communication\Generic\Source/probe_com.c **** *
 518:..\..\..\..\..\..\uC-Probe\Target\Communication\Generic\Source/probe_com.c **** *               len         Length of source buffer, in octets/characters.
 519:..\..\..\..\..\..\uC-Probe\Target\Communication\Generic\Source/probe_com.c **** *
 520:..\..\..\..\..\..\uC-Probe\Target\Communication\Generic\Source/probe_com.c **** * Return(s)   : Number of octets/characters output.
 521:..\..\..\..\..\..\uC-Probe\Target\Communication\Generic\Source/probe_com.c **** *
 522:..\..\..\..\..\..\uC-Probe\Target\Communication\Generic\Source/probe_com.c **** * Caller(s)   : Application.
 523:..\..\..\..\..\..\uC-Probe\Target\Communication\Generic\Source/probe_com.c **** *
 524:..\..\..\..\..\..\uC-Probe\Target\Communication\Generic\Source/probe_com.c **** * Note(s)     : (1) This function implements a blocking write.  It will queue the request and wait 
 525:..\..\..\..\..\..\uC-Probe\Target\Communication\Generic\Source/probe_com.c **** *                   all of the data has been buffered or transmitted before returning.
 526:..\..\..\..\..\..\uC-Probe\Target\Communication\Generic\Source/probe_com.c **** *
 527:..\..\..\..\..\..\uC-Probe\Target\Communication\Generic\Source/probe_com.c **** *               (2) Terminal data may ONLY be output while a command is being executed.
 528:..\..\..\..\..\..\uC-Probe\Target\Communication\Generic\Source/probe_com.c **** *
 529:..\..\..\..\..\..\uC-Probe\Target\Communication\Generic\Source/probe_com.c **** *                   (a) Generic read/write functionality is provided by the string read/write funct
 530:..\..\..\..\..\..\uC-Probe\Target\Communication\Generic\Source/probe_com.c **** *                       (see 'ProbeCom_StrRd()', 'ProbeCom_StrWr()').
 531:..\..\..\..\..\..\uC-Probe\Target\Communication\Generic\Source/probe_com.c **** *
 532:..\..\..\..\..\..\uC-Probe\Target\Communication\Generic\Source/probe_com.c **** *               (3) This function MUST NOT be called from an ISR.
 533:..\..\..\..\..\..\uC-Probe\Target\Communication\Generic\Source/probe_com.c **** ***************************************************************************************************
 534:..\..\..\..\..\..\uC-Probe\Target\Communication\Generic\Source/probe_com.c **** */
 535:..\..\..\..\..\..\uC-Probe\Target\Communication\Generic\Source/probe_com.c **** 
 536:..\..\..\..\..\..\uC-Probe\Target\Communication\Generic\Source/probe_com.c **** #if (PROBE_COM_CFG_TERMINAL_REQ_EN == DEF_ENABLED)
 537:..\..\..\..\..\..\uC-Probe\Target\Communication\Generic\Source/probe_com.c **** CPU_SIZE_T  ProbeCom_TerminalOut (CPU_CHAR    *psrc,
 538:..\..\..\..\..\..\uC-Probe\Target\Communication\Generic\Source/probe_com.c ****                                   CPU_SIZE_T   len)
 539:..\..\..\..\..\..\uC-Probe\Target\Communication\Generic\Source/probe_com.c **** {
 540:..\..\..\..\..\..\uC-Probe\Target\Communication\Generic\Source/probe_com.c ****     CPU_SR_ALLOC();
 541:..\..\..\..\..\..\uC-Probe\Target\Communication\Generic\Source/probe_com.c **** 
 542:..\..\..\..\..\..\uC-Probe\Target\Communication\Generic\Source/probe_com.c **** 
 543:..\..\..\..\..\..\uC-Probe\Target\Communication\Generic\Source/probe_com.c ****                                                                 /* ------------------- VALIDATE ARG
 544:..\..\..\..\..\..\uC-Probe\Target\Communication\Generic\Source/probe_com.c ****     if (psrc == (CPU_CHAR *)0) {                                /* Validate NULL ptr.              
 545:..\..\..\..\..\..\uC-Probe\Target\Communication\Generic\Source/probe_com.c ****         return ((CPU_SIZE_T)0);
 546:..\..\..\..\..\..\uC-Probe\Target\Communication\Generic\Source/probe_com.c ****     }
 547:..\..\..\..\..\..\uC-Probe\Target\Communication\Generic\Source/probe_com.c **** 
 548:..\..\..\..\..\..\uC-Probe\Target\Communication\Generic\Source/probe_com.c ****     if (len == 0u) {                                            /* Validate NULL len.              
 549:..\..\..\..\..\..\uC-Probe\Target\Communication\Generic\Source/probe_com.c ****         return ((CPU_SIZE_T)0);
 550:..\..\..\..\..\..\uC-Probe\Target\Communication\Generic\Source/probe_com.c ****     }
 551:..\..\..\..\..\..\uC-Probe\Target\Communication\Generic\Source/probe_com.c **** 
 552:..\..\..\..\..\..\uC-Probe\Target\Communication\Generic\Source/probe_com.c **** 
 553:..\..\..\..\..\..\uC-Probe\Target\Communication\Generic\Source/probe_com.c **** 
 554:..\..\..\..\..\..\uC-Probe\Target\Communication\Generic\Source/probe_com.c ****                                                                 /* ------------------- START OUTPUT
 555:..\..\..\..\..\..\uC-Probe\Target\Communication\Generic\Source/probe_com.c ****     CPU_CRITICAL_ENTER();
 556:..\..\..\..\..\..\uC-Probe\Target\Communication\Generic\Source/probe_com.c ****     if (ProbeCom_TerminalExecuting == DEF_NO) {                 /* Chk if cmd exec'ing.            
 557:..\..\..\..\..\..\uC-Probe\Target\Communication\Generic\Source/probe_com.c ****         CPU_CRITICAL_EXIT();
 558:..\..\..\..\..\..\uC-Probe\Target\Communication\Generic\Source/probe_com.c ****         return ((CPU_SIZE_T)0);
 559:..\..\..\..\..\..\uC-Probe\Target\Communication\Generic\Source/probe_com.c ****     }
 560:..\..\..\..\..\..\uC-Probe\Target\Communication\Generic\Source/probe_com.c **** 
 561:..\..\..\..\..\..\uC-Probe\Target\Communication\Generic\Source/probe_com.c ****     if (ProbeCom_TerminalOutBufPtr != (CPU_INT08U *)0) {        /* Chk if out in progress.         
 562:..\..\..\..\..\..\uC-Probe\Target\Communication\Generic\Source/probe_com.c ****         CPU_CRITICAL_EXIT();
 563:..\..\..\..\..\..\uC-Probe\Target\Communication\Generic\Source/probe_com.c ****         return ((CPU_SIZE_T)0);
 564:..\..\..\..\..\..\uC-Probe\Target\Communication\Generic\Source/probe_com.c ****     }
 565:..\..\..\..\..\..\uC-Probe\Target\Communication\Generic\Source/probe_com.c **** 
 566:..\..\..\..\..\..\uC-Probe\Target\Communication\Generic\Source/probe_com.c ****     ProbeCom_TerminalOutBufPtr = (CPU_INT08U *)psrc;            /* Schedule output.                
 567:..\..\..\..\..\..\uC-Probe\Target\Communication\Generic\Source/probe_com.c ****     ProbeCom_TerminalOutBufIx  = (CPU_SIZE_T  )0;
 568:..\..\..\..\..\..\uC-Probe\Target\Communication\Generic\Source/probe_com.c ****     ProbeCom_TerminalOutBufLen = (CPU_SIZE_T  )len;
 569:..\..\..\..\..\..\uC-Probe\Target\Communication\Generic\Source/probe_com.c **** 
 570:..\..\..\..\..\..\uC-Probe\Target\Communication\Generic\Source/probe_com.c ****     ProbeCom_OS_TerminalOutWait();                              /* Wait for output completion.     
ARM GAS  C:\Users\alex\AppData\Local\Temp\ccKfBJGu.s 			page 13


 571:..\..\..\..\..\..\uC-Probe\Target\Communication\Generic\Source/probe_com.c **** 
 572:..\..\..\..\..\..\uC-Probe\Target\Communication\Generic\Source/probe_com.c ****     ProbeCom_TerminalOutBufPtr = (CPU_INT08U *)0;
 573:..\..\..\..\..\..\uC-Probe\Target\Communication\Generic\Source/probe_com.c ****     ProbeCom_TerminalOutBufIx  = (CPU_SIZE_T  )0;
 574:..\..\..\..\..\..\uC-Probe\Target\Communication\Generic\Source/probe_com.c ****     ProbeCom_TerminalOutBufLen = (CPU_SIZE_T  )0;
 575:..\..\..\..\..\..\uC-Probe\Target\Communication\Generic\Source/probe_com.c ****     CPU_CRITICAL_EXIT();
 576:..\..\..\..\..\..\uC-Probe\Target\Communication\Generic\Source/probe_com.c **** 
 577:..\..\..\..\..\..\uC-Probe\Target\Communication\Generic\Source/probe_com.c **** 
 578:..\..\..\..\..\..\uC-Probe\Target\Communication\Generic\Source/probe_com.c **** 
 579:..\..\..\..\..\..\uC-Probe\Target\Communication\Generic\Source/probe_com.c ****                                                                 /* ----------------------- RTN ----
 580:..\..\..\..\..\..\uC-Probe\Target\Communication\Generic\Source/probe_com.c ****     return (len);
 581:..\..\..\..\..\..\uC-Probe\Target\Communication\Generic\Source/probe_com.c **** }
 582:..\..\..\..\..\..\uC-Probe\Target\Communication\Generic\Source/probe_com.c **** #endif
 583:..\..\..\..\..\..\uC-Probe\Target\Communication\Generic\Source/probe_com.c **** 
 584:..\..\..\..\..\..\uC-Probe\Target\Communication\Generic\Source/probe_com.c **** 
 585:..\..\..\..\..\..\uC-Probe\Target\Communication\Generic\Source/probe_com.c **** /*
 586:..\..\..\..\..\..\uC-Probe\Target\Communication\Generic\Source/probe_com.c **** ***************************************************************************************************
 587:..\..\..\..\..\..\uC-Probe\Target\Communication\Generic\Source/probe_com.c **** *                                   ProbeCom_TerminalExecComplete()
 588:..\..\..\..\..\..\uC-Probe\Target\Communication\Generic\Source/probe_com.c **** *
 589:..\..\..\..\..\..\uC-Probe\Target\Communication\Generic\Source/probe_com.c **** * Description : Signal completion of command execution.
 590:..\..\..\..\..\..\uC-Probe\Target\Communication\Generic\Source/probe_com.c **** *
 591:..\..\..\..\..\..\uC-Probe\Target\Communication\Generic\Source/probe_com.c **** * Argument(s) : none.
 592:..\..\..\..\..\..\uC-Probe\Target\Communication\Generic\Source/probe_com.c **** *
 593:..\..\..\..\..\..\uC-Probe\Target\Communication\Generic\Source/probe_com.c **** * Return(s)   : The number of bytes in the data segment of the packet to transmit in response.
 594:..\..\..\..\..\..\uC-Probe\Target\Communication\Generic\Source/probe_com.c **** *
 595:..\..\..\..\..\..\uC-Probe\Target\Communication\Generic\Source/probe_com.c **** * Caller(s)   : Application.
 596:..\..\..\..\..\..\uC-Probe\Target\Communication\Generic\Source/probe_com.c **** *
 597:..\..\..\..\..\..\uC-Probe\Target\Communication\Generic\Source/probe_com.c **** * Note(s)     : none.
 598:..\..\..\..\..\..\uC-Probe\Target\Communication\Generic\Source/probe_com.c **** ***************************************************************************************************
 599:..\..\..\..\..\..\uC-Probe\Target\Communication\Generic\Source/probe_com.c **** */
 600:..\..\..\..\..\..\uC-Probe\Target\Communication\Generic\Source/probe_com.c **** 
 601:..\..\..\..\..\..\uC-Probe\Target\Communication\Generic\Source/probe_com.c **** #if (PROBE_COM_CFG_TERMINAL_REQ_EN == DEF_ENABLED)
 602:..\..\..\..\..\..\uC-Probe\Target\Communication\Generic\Source/probe_com.c **** void  ProbeCom_TerminalExecComplete (void)
 603:..\..\..\..\..\..\uC-Probe\Target\Communication\Generic\Source/probe_com.c **** {
 604:..\..\..\..\..\..\uC-Probe\Target\Communication\Generic\Source/probe_com.c ****     CPU_BOOLEAN  executing;
 605:..\..\..\..\..\..\uC-Probe\Target\Communication\Generic\Source/probe_com.c ****     CPU_SR_ALLOC();
 606:..\..\..\..\..\..\uC-Probe\Target\Communication\Generic\Source/probe_com.c **** 
 607:..\..\..\..\..\..\uC-Probe\Target\Communication\Generic\Source/probe_com.c **** 
 608:..\..\..\..\..\..\uC-Probe\Target\Communication\Generic\Source/probe_com.c ****     CPU_CRITICAL_ENTER();
 609:..\..\..\..\..\..\uC-Probe\Target\Communication\Generic\Source/probe_com.c ****     executing = ProbeCom_TerminalExecuting;
 610:..\..\..\..\..\..\uC-Probe\Target\Communication\Generic\Source/probe_com.c ****     if (executing == DEF_YES) {
 611:..\..\..\..\..\..\uC-Probe\Target\Communication\Generic\Source/probe_com.c ****         ProbeCom_TerminalExecuting = DEF_NO;
 612:..\..\..\..\..\..\uC-Probe\Target\Communication\Generic\Source/probe_com.c ****     }
 613:..\..\..\..\..\..\uC-Probe\Target\Communication\Generic\Source/probe_com.c ****     CPU_CRITICAL_EXIT();
 614:..\..\..\..\..\..\uC-Probe\Target\Communication\Generic\Source/probe_com.c **** }
 615:..\..\..\..\..\..\uC-Probe\Target\Communication\Generic\Source/probe_com.c **** #endif
 616:..\..\..\..\..\..\uC-Probe\Target\Communication\Generic\Source/probe_com.c **** 
 617:..\..\..\..\..\..\uC-Probe\Target\Communication\Generic\Source/probe_com.c **** 
 618:..\..\..\..\..\..\uC-Probe\Target\Communication\Generic\Source/probe_com.c **** /*
 619:..\..\..\..\..\..\uC-Probe\Target\Communication\Generic\Source/probe_com.c **** ***************************************************************************************************
 620:..\..\..\..\..\..\uC-Probe\Target\Communication\Generic\Source/probe_com.c **** *                                     ProbeCom_TerminalExecSet()
 621:..\..\..\..\..\..\uC-Probe\Target\Communication\Generic\Source/probe_com.c **** *
 622:..\..\..\..\..\..\uC-Probe\Target\Communication\Generic\Source/probe_com.c **** * Description : Set the handler that will be invoked to process a terminal command.
 623:..\..\..\..\..\..\uC-Probe\Target\Communication\Generic\Source/probe_com.c **** *
 624:..\..\..\..\..\..\uC-Probe\Target\Communication\Generic\Source/probe_com.c **** * Argument(s) : handler         The handler that will be invoked.
 625:..\..\..\..\..\..\uC-Probe\Target\Communication\Generic\Source/probe_com.c **** *
 626:..\..\..\..\..\..\uC-Probe\Target\Communication\Generic\Source/probe_com.c **** * Return(s)   : none.
 627:..\..\..\..\..\..\uC-Probe\Target\Communication\Generic\Source/probe_com.c **** *
ARM GAS  C:\Users\alex\AppData\Local\Temp\ccKfBJGu.s 			page 14


 628:..\..\..\..\..\..\uC-Probe\Target\Communication\Generic\Source/probe_com.c **** * Caller(s)   : Application.
 629:..\..\..\..\..\..\uC-Probe\Target\Communication\Generic\Source/probe_com.c **** *
 630:..\..\..\..\..\..\uC-Probe\Target\Communication\Generic\Source/probe_com.c **** * Note(s)     : (1) The handler should be a function with the following prototype:
 631:..\..\..\..\..\..\uC-Probe\Target\Communication\Generic\Source/probe_com.c **** *
 632:..\..\..\..\..\..\uC-Probe\Target\Communication\Generic\Source/probe_com.c **** *                       void  App_TerminalExecFnct (CPU_CHAR    *pstr,
 633:..\..\..\..\..\..\uC-Probe\Target\Communication\Generic\Source/probe_com.c **** *                                                   CPU_SIZE_T   len);
 634:..\..\..\..\..\..\uC-Probe\Target\Communication\Generic\Source/probe_com.c **** *
 635:..\..\..\..\..\..\uC-Probe\Target\Communication\Generic\Source/probe_com.c **** *                   where 'pstr' is a pointer to the command string, and 'len' is the length of the
 636:..\..\..\..\..\..\uC-Probe\Target\Communication\Generic\Source/probe_com.c **** *                   command string (in characters) excluding the final NULL byte.  The command stri
 637:..\..\..\..\..\..\uC-Probe\Target\Communication\Generic\Source/probe_com.c **** *                   will NOT include a terminating new line or line feed.
 638:..\..\..\..\..\..\uC-Probe\Target\Communication\Generic\Source/probe_com.c **** ***************************************************************************************************
 639:..\..\..\..\..\..\uC-Probe\Target\Communication\Generic\Source/probe_com.c **** */
 640:..\..\..\..\..\..\uC-Probe\Target\Communication\Generic\Source/probe_com.c **** 
 641:..\..\..\..\..\..\uC-Probe\Target\Communication\Generic\Source/probe_com.c **** #if (PROBE_COM_CFG_TERMINAL_REQ_EN == DEF_ENABLED)
 642:..\..\..\..\..\..\uC-Probe\Target\Communication\Generic\Source/probe_com.c **** void  ProbeCom_TerminalExecSet (PROBE_COM_TERMINAL_EXEC_FNCT  handler)
 643:..\..\..\..\..\..\uC-Probe\Target\Communication\Generic\Source/probe_com.c **** {
 644:..\..\..\..\..\..\uC-Probe\Target\Communication\Generic\Source/probe_com.c ****     CPU_SR_ALLOC();
 645:..\..\..\..\..\..\uC-Probe\Target\Communication\Generic\Source/probe_com.c **** 
 646:..\..\..\..\..\..\uC-Probe\Target\Communication\Generic\Source/probe_com.c **** 
 647:..\..\..\..\..\..\uC-Probe\Target\Communication\Generic\Source/probe_com.c ****     CPU_CRITICAL_ENTER();
 648:..\..\..\..\..\..\uC-Probe\Target\Communication\Generic\Source/probe_com.c ****     ProbeCom_TerminalExecHandler = handler;
 649:..\..\..\..\..\..\uC-Probe\Target\Communication\Generic\Source/probe_com.c ****     CPU_CRITICAL_EXIT();
 650:..\..\..\..\..\..\uC-Probe\Target\Communication\Generic\Source/probe_com.c **** }
 651:..\..\..\..\..\..\uC-Probe\Target\Communication\Generic\Source/probe_com.c **** #endif
 652:..\..\..\..\..\..\uC-Probe\Target\Communication\Generic\Source/probe_com.c **** 
 653:..\..\..\..\..\..\uC-Probe\Target\Communication\Generic\Source/probe_com.c **** 
 654:..\..\..\..\..\..\uC-Probe\Target\Communication\Generic\Source/probe_com.c **** /*
 655:..\..\..\..\..\..\uC-Probe\Target\Communication\Generic\Source/probe_com.c **** ***************************************************************************************************
 656:..\..\..\..\..\..\uC-Probe\Target\Communication\Generic\Source/probe_com.c **** *                                      ProbeCom_TerminalInSet()
 657:..\..\..\..\..\..\uC-Probe\Target\Communication\Generic\Source/probe_com.c **** *
 658:..\..\..\..\..\..\uC-Probe\Target\Communication\Generic\Source/probe_com.c **** * Description : Set the handler that will be invoked to process terminal input.
 659:..\..\..\..\..\..\uC-Probe\Target\Communication\Generic\Source/probe_com.c **** *
 660:..\..\..\..\..\..\uC-Probe\Target\Communication\Generic\Source/probe_com.c **** * Argument(s) : handler         The handler that will be invoked.
 661:..\..\..\..\..\..\uC-Probe\Target\Communication\Generic\Source/probe_com.c **** *
 662:..\..\..\..\..\..\uC-Probe\Target\Communication\Generic\Source/probe_com.c **** * Return(s)   : none.
 663:..\..\..\..\..\..\uC-Probe\Target\Communication\Generic\Source/probe_com.c **** *
 664:..\..\..\..\..\..\uC-Probe\Target\Communication\Generic\Source/probe_com.c **** * Caller(s)   : Application.
 665:..\..\..\..\..\..\uC-Probe\Target\Communication\Generic\Source/probe_com.c **** *
 666:..\..\..\..\..\..\uC-Probe\Target\Communication\Generic\Source/probe_com.c **** * Note(s)     : (1) The handler should be a function with the following prototype:
 667:..\..\..\..\..\..\uC-Probe\Target\Communication\Generic\Source/probe_com.c **** *
 668:..\..\..\..\..\..\uC-Probe\Target\Communication\Generic\Source/probe_com.c **** *                       void  App_TerminalInFnct (CPU_CHAR    *pstr,
 669:..\..\..\..\..\..\uC-Probe\Target\Communication\Generic\Source/probe_com.c **** *                                                 CPU_SIZE_T   len);
 670:..\..\..\..\..\..\uC-Probe\Target\Communication\Generic\Source/probe_com.c **** *
 671:..\..\..\..\..\..\uC-Probe\Target\Communication\Generic\Source/probe_com.c **** *                   where 'pstr' is a pointer to the input string, and 'len' is the length of the i
 672:..\..\..\..\..\..\uC-Probe\Target\Communication\Generic\Source/probe_com.c **** *                   string (in characters) excluding the final NULL byte.  The input string will NO
 673:..\..\..\..\..\..\uC-Probe\Target\Communication\Generic\Source/probe_com.c **** *                   include a terminating new line or line feed.
 674:..\..\..\..\..\..\uC-Probe\Target\Communication\Generic\Source/probe_com.c **** ***************************************************************************************************
 675:..\..\..\..\..\..\uC-Probe\Target\Communication\Generic\Source/probe_com.c **** */
 676:..\..\..\..\..\..\uC-Probe\Target\Communication\Generic\Source/probe_com.c **** 
 677:..\..\..\..\..\..\uC-Probe\Target\Communication\Generic\Source/probe_com.c **** #if (PROBE_COM_CFG_TERMINAL_REQ_EN == DEF_ENABLED)
 678:..\..\..\..\..\..\uC-Probe\Target\Communication\Generic\Source/probe_com.c **** void  ProbeCom_TerminalInSet (PROBE_COM_TERMINAL_IN_FNCT  handler)
 679:..\..\..\..\..\..\uC-Probe\Target\Communication\Generic\Source/probe_com.c **** {
 680:..\..\..\..\..\..\uC-Probe\Target\Communication\Generic\Source/probe_com.c **** #if (CPU_CFG_CRITICAL_METHOD == CPU_CRITICAL_METHOD_STATUS_LOCAL)
 681:..\..\..\..\..\..\uC-Probe\Target\Communication\Generic\Source/probe_com.c ****     CPU_SR  cpu_sr;
 682:..\..\..\..\..\..\uC-Probe\Target\Communication\Generic\Source/probe_com.c **** #endif
 683:..\..\..\..\..\..\uC-Probe\Target\Communication\Generic\Source/probe_com.c **** 
 684:..\..\..\..\..\..\uC-Probe\Target\Communication\Generic\Source/probe_com.c **** 
ARM GAS  C:\Users\alex\AppData\Local\Temp\ccKfBJGu.s 			page 15


 685:..\..\..\..\..\..\uC-Probe\Target\Communication\Generic\Source/probe_com.c ****     CPU_CRITICAL_ENTER();
 686:..\..\..\..\..\..\uC-Probe\Target\Communication\Generic\Source/probe_com.c ****     ProbeCom_TerminalInHandler = handler;
 687:..\..\..\..\..\..\uC-Probe\Target\Communication\Generic\Source/probe_com.c ****     CPU_CRITICAL_EXIT();
 688:..\..\..\..\..\..\uC-Probe\Target\Communication\Generic\Source/probe_com.c **** }
 689:..\..\..\..\..\..\uC-Probe\Target\Communication\Generic\Source/probe_com.c **** #endif
 690:..\..\..\..\..\..\uC-Probe\Target\Communication\Generic\Source/probe_com.c **** 
 691:..\..\..\..\..\..\uC-Probe\Target\Communication\Generic\Source/probe_com.c **** 
 692:..\..\..\..\..\..\uC-Probe\Target\Communication\Generic\Source/probe_com.c **** /*
 693:..\..\..\..\..\..\uC-Probe\Target\Communication\Generic\Source/probe_com.c **** ***************************************************************************************************
 694:..\..\..\..\..\..\uC-Probe\Target\Communication\Generic\Source/probe_com.c **** *                                        ProbeCom_ParseRxPkt()
 695:..\..\..\..\..\..\uC-Probe\Target\Communication\Generic\Source/probe_com.c **** *
 696:..\..\..\..\..\..\uC-Probe\Target\Communication\Generic\Source/probe_com.c **** * Description : Parse a packet & formulate a response.
 697:..\..\..\..\..\..\uC-Probe\Target\Communication\Generic\Source/probe_com.c **** *
 698:..\..\..\..\..\..\uC-Probe\Target\Communication\Generic\Source/probe_com.c **** * Argument(s) : prx_pkt         Pointer to the receive  packet buffer
 699:..\..\..\..\..\..\uC-Probe\Target\Communication\Generic\Source/probe_com.c **** *
 700:..\..\..\..\..\..\uC-Probe\Target\Communication\Generic\Source/probe_com.c **** *               ptx_pkt         Pointer to the transmit packet buffer
 701:..\..\..\..\..\..\uC-Probe\Target\Communication\Generic\Source/probe_com.c **** *
 702:..\..\..\..\..\..\uC-Probe\Target\Communication\Generic\Source/probe_com.c **** *               rx_pkt_size     Size of the received packet
 703:..\..\..\..\..\..\uC-Probe\Target\Communication\Generic\Source/probe_com.c **** *
 704:..\..\..\..\..\..\uC-Probe\Target\Communication\Generic\Source/probe_com.c **** *               tx_pkt_size     Size of the transmit packet buffer
 705:..\..\..\..\..\..\uC-Probe\Target\Communication\Generic\Source/probe_com.c **** *
 706:..\..\..\..\..\..\uC-Probe\Target\Communication\Generic\Source/probe_com.c **** * Return(s)   : The number of bytes in the data segment of the packet to transmit in response.
 707:..\..\..\..\..\..\uC-Probe\Target\Communication\Generic\Source/probe_com.c **** *
 708:..\..\..\..\..\..\uC-Probe\Target\Communication\Generic\Source/probe_com.c **** * Caller(s)   : Tasks/receive handlers in communications-specific drivers, (e.g., probe_rs232,
 709:..\..\..\..\..\..\uC-Probe\Target\Communication\Generic\Source/probe_com.c **** *               probe_usb, probe_tcpip, etc.).
 710:..\..\..\..\..\..\uC-Probe\Target\Communication\Generic\Source/probe_com.c **** *
 711:..\..\..\..\..\..\uC-Probe\Target\Communication\Generic\Source/probe_com.c **** * Note(s)     : none.
 712:..\..\..\..\..\..\uC-Probe\Target\Communication\Generic\Source/probe_com.c **** ***************************************************************************************************
 713:..\..\..\..\..\..\uC-Probe\Target\Communication\Generic\Source/probe_com.c **** */
 714:..\..\..\..\..\..\uC-Probe\Target\Communication\Generic\Source/probe_com.c **** 
 715:..\..\..\..\..\..\uC-Probe\Target\Communication\Generic\Source/probe_com.c **** CPU_SIZE_T  ProbeCom_ParseRxPkt (void        *prx_pkt,
 716:..\..\..\..\..\..\uC-Probe\Target\Communication\Generic\Source/probe_com.c ****                                  void        *ptx_pkt,
 717:..\..\..\..\..\..\uC-Probe\Target\Communication\Generic\Source/probe_com.c ****                                  CPU_SIZE_T   rx_pkt_size,
 718:..\..\..\..\..\..\uC-Probe\Target\Communication\Generic\Source/probe_com.c ****                                  CPU_SIZE_T   tx_buf_size)
 719:..\..\..\..\..\..\uC-Probe\Target\Communication\Generic\Source/probe_com.c **** {
 115              		.loc 1 719 0
 116              		.cfi_startproc
 117              		@ args = 0, pretend = 0, frame = 32
 118              		@ frame_needed = 1, uses_anonymous_args = 0
 119 0000 80B5     		push	{r7, lr}
 120              		.cfi_def_cfa_offset 8
 121              		.cfi_offset 7, -8
 122              		.cfi_offset 14, -4
 123 0002 88B0     		sub	sp, sp, #32
 124              		.cfi_def_cfa_offset 40
 125 0004 00AF     		add	r7, sp, #0
 126              		.cfi_def_cfa_register 7
 127 0006 F860     		str	r0, [r7, #12]
 128 0008 B960     		str	r1, [r7, #8]
 129 000a 7A60     		str	r2, [r7, #4]
 130 000c 3B60     		str	r3, [r7]
 720:..\..\..\..\..\..\uC-Probe\Target\Communication\Generic\Source/probe_com.c ****     CPU_SIZE_T   tx_buf_wr;
 721:..\..\..\..\..\..\uC-Probe\Target\Communication\Generic\Source/probe_com.c ****     CPU_INT16U   format;
 722:..\..\..\..\..\..\uC-Probe\Target\Communication\Generic\Source/probe_com.c ****     CPU_INT08U  *prx_pkt_08;
 723:..\..\..\..\..\..\uC-Probe\Target\Communication\Generic\Source/probe_com.c ****     CPU_INT08U  *ptx_pkt_08;
 724:..\..\..\..\..\..\uC-Probe\Target\Communication\Generic\Source/probe_com.c **** 
 725:..\..\..\..\..\..\uC-Probe\Target\Communication\Generic\Source/probe_com.c **** 
ARM GAS  C:\Users\alex\AppData\Local\Temp\ccKfBJGu.s 			page 16


 726:..\..\..\..\..\..\uC-Probe\Target\Communication\Generic\Source/probe_com.c ****     if (rx_pkt_size < 2u) {
 131              		.loc 1 726 0
 132 000e 7B68     		ldr	r3, [r7, #4]
 133 0010 012B     		cmp	r3, #1
 134 0012 01D8     		bhi	.L6
 727:..\..\..\..\..\..\uC-Probe\Target\Communication\Generic\Source/probe_com.c ****         return (0);
 135              		.loc 1 727 0
 136 0014 0023     		movs	r3, #0
 137 0016 62E0     		b	.L7
 138              	.L6:
 728:..\..\..\..\..\..\uC-Probe\Target\Communication\Generic\Source/probe_com.c ****     }
 729:..\..\..\..\..\..\uC-Probe\Target\Communication\Generic\Source/probe_com.c **** 
 730:..\..\..\..\..\..\uC-Probe\Target\Communication\Generic\Source/probe_com.c ****     prx_pkt_08  = (CPU_INT08U *)prx_pkt;
 139              		.loc 1 730 0
 140 0018 FB68     		ldr	r3, [r7, #12]
 141 001a BB61     		str	r3, [r7, #24]
 731:..\..\..\..\..\..\uC-Probe\Target\Communication\Generic\Source/probe_com.c ****     ptx_pkt_08  = (CPU_INT08U *)ptx_pkt;
 142              		.loc 1 731 0
 143 001c BB68     		ldr	r3, [r7, #8]
 144 001e 7B61     		str	r3, [r7, #20]
 732:..\..\..\..\..\..\uC-Probe\Target\Communication\Generic\Source/probe_com.c ****     format      = (prx_pkt_08[1] << 8) + prx_pkt_08[0];
 145              		.loc 1 732 0
 146 0020 BB69     		ldr	r3, [r7, #24]
 147 0022 0133     		adds	r3, r3, #1
 148 0024 1B78     		ldrb	r3, [r3]	@ zero_extendqisi2
 149 0026 9BB2     		uxth	r3, r3
 150 0028 1B02     		lsls	r3, r3, #8
 151 002a 9AB2     		uxth	r2, r3
 152 002c BB69     		ldr	r3, [r7, #24]
 153 002e 1B78     		ldrb	r3, [r3]	@ zero_extendqisi2
 154 0030 9BB2     		uxth	r3, r3
 155 0032 1344     		add	r3, r3, r2
 156 0034 7B82     		strh	r3, [r7, #18]	@ movhi
 733:..\..\..\..\..\..\uC-Probe\Target\Communication\Generic\Source/probe_com.c ****     prx_pkt_08 += 2u;
 157              		.loc 1 733 0
 158 0036 BB69     		ldr	r3, [r7, #24]
 159 0038 0233     		adds	r3, r3, #2
 160 003a BB61     		str	r3, [r7, #24]
 734:..\..\..\..\..\..\uC-Probe\Target\Communication\Generic\Source/probe_com.c **** 
 735:..\..\..\..\..\..\uC-Probe\Target\Communication\Generic\Source/probe_com.c **** #if (PROBE_COM_CFG_STAT_EN == DEF_ENABLED)
 736:..\..\..\..\..\..\uC-Probe\Target\Communication\Generic\Source/probe_com.c ****     ProbeCom_RxPktCtr++;
 161              		.loc 1 736 0
 162 003c 2A4B     		ldr	r3, .L16
 163 003e 1B68     		ldr	r3, [r3]
 164 0040 0133     		adds	r3, r3, #1
 165 0042 294A     		ldr	r2, .L16
 166 0044 1360     		str	r3, [r2]
 737:..\..\..\..\..\..\uC-Probe\Target\Communication\Generic\Source/probe_com.c ****     ProbeCom_TxPktCtr++;
 167              		.loc 1 737 0
 168 0046 294B     		ldr	r3, .L16+4
 169 0048 1B68     		ldr	r3, [r3]
 170 004a 0133     		adds	r3, r3, #1
 171 004c 274A     		ldr	r2, .L16+4
 172 004e 1360     		str	r3, [r2]
 738:..\..\..\..\..\..\uC-Probe\Target\Communication\Generic\Source/probe_com.c **** #endif
 739:..\..\..\..\..\..\uC-Probe\Target\Communication\Generic\Source/probe_com.c **** 
 740:..\..\..\..\..\..\uC-Probe\Target\Communication\Generic\Source/probe_com.c ****     switch (format) {
ARM GAS  C:\Users\alex\AppData\Local\Temp\ccKfBJGu.s 			page 17


 173              		.loc 1 740 0
 174 0050 7B8A     		ldrh	r3, [r7, #18]
 175 0052 013B     		subs	r3, r3, #1
 176 0054 072B     		cmp	r3, #7
 177 0056 3BD8     		bhi	.L8
 178 0058 01A2     		adr	r2, .L10
 179 005a 52F823F0 		ldr	pc, [r2, r3, lsl #2]
 180 005e 00BF     		.p2align 2
 181              	.L10:
 182 0060 81000000 		.word	.L9+1
 183 0064 91000000 		.word	.L11+1
 184 0068 B1000000 		.word	.L12+1
 185 006c D1000000 		.word	.L8+1
 186 0070 D1000000 		.word	.L8+1
 187 0074 D1000000 		.word	.L8+1
 188 0078 A1000000 		.word	.L13+1
 189 007c C1000000 		.word	.L14+1
 190              		.p2align 1
 191              	.L9:
 741:..\..\..\..\..\..\uC-Probe\Target\Communication\Generic\Source/probe_com.c ****         case PROBE_COM_FMT_RX_QUERY:
 742:..\..\..\..\..\..\uC-Probe\Target\Communication\Generic\Source/probe_com.c ****              tx_buf_wr = ProbeCom_ReqQuery(       prx_pkt_08, ptx_pkt_08, rx_pkt_size, tx_buf_size)
 192              		.loc 1 742 0
 193 0080 3B68     		ldr	r3, [r7]
 194 0082 7A68     		ldr	r2, [r7, #4]
 195 0084 7969     		ldr	r1, [r7, #20]
 196 0086 B869     		ldr	r0, [r7, #24]
 197 0088 FFF7FEFF 		bl	ProbeCom_ReqQuery
 198 008c F861     		str	r0, [r7, #28]
 743:..\..\..\..\..\..\uC-Probe\Target\Communication\Generic\Source/probe_com.c ****              break;
 199              		.loc 1 743 0
 200 008e 25E0     		b	.L15
 201              	.L11:
 744:..\..\..\..\..\..\uC-Probe\Target\Communication\Generic\Source/probe_com.c **** 
 745:..\..\..\..\..\..\uC-Probe\Target\Communication\Generic\Source/probe_com.c ****         case PROBE_COM_FMT_RX_RD:
 746:..\..\..\..\..\..\uC-Probe\Target\Communication\Generic\Source/probe_com.c ****              tx_buf_wr = ProbeCom_ReqRd(          prx_pkt_08, ptx_pkt_08, rx_pkt_size, tx_buf_size)
 202              		.loc 1 746 0
 203 0090 3B68     		ldr	r3, [r7]
 204 0092 7A68     		ldr	r2, [r7, #4]
 205 0094 7969     		ldr	r1, [r7, #20]
 206 0096 B869     		ldr	r0, [r7, #24]
 207 0098 FFF7FEFF 		bl	ProbeCom_ReqRd
 208 009c F861     		str	r0, [r7, #28]
 747:..\..\..\..\..\..\uC-Probe\Target\Communication\Generic\Source/probe_com.c ****              break;
 209              		.loc 1 747 0
 210 009e 1DE0     		b	.L15
 211              	.L13:
 748:..\..\..\..\..\..\uC-Probe\Target\Communication\Generic\Source/probe_com.c **** 
 749:..\..\..\..\..\..\uC-Probe\Target\Communication\Generic\Source/probe_com.c ****         case PROBE_COM_FMT_RX_RD_MULTI:
 750:..\..\..\..\..\..\uC-Probe\Target\Communication\Generic\Source/probe_com.c ****              tx_buf_wr = ProbeCom_ReqRdMulti(     prx_pkt_08, ptx_pkt_08, rx_pkt_size, tx_buf_size)
 212              		.loc 1 750 0
 213 00a0 3B68     		ldr	r3, [r7]
 214 00a2 7A68     		ldr	r2, [r7, #4]
 215 00a4 7969     		ldr	r1, [r7, #20]
 216 00a6 B869     		ldr	r0, [r7, #24]
 217 00a8 FFF7FEFF 		bl	ProbeCom_ReqRdMulti
 218 00ac F861     		str	r0, [r7, #28]
 751:..\..\..\..\..\..\uC-Probe\Target\Communication\Generic\Source/probe_com.c ****              break;
ARM GAS  C:\Users\alex\AppData\Local\Temp\ccKfBJGu.s 			page 18


 219              		.loc 1 751 0
 220 00ae 15E0     		b	.L15
 221              	.L12:
 752:..\..\..\..\..\..\uC-Probe\Target\Communication\Generic\Source/probe_com.c **** 
 753:..\..\..\..\..\..\uC-Probe\Target\Communication\Generic\Source/probe_com.c **** #if (PROBE_COM_CFG_WR_REQ_EN == DEF_ENABLED)
 754:..\..\..\..\..\..\uC-Probe\Target\Communication\Generic\Source/probe_com.c ****         case PROBE_COM_FMT_RX_WR:
 755:..\..\..\..\..\..\uC-Probe\Target\Communication\Generic\Source/probe_com.c ****              tx_buf_wr = ProbeCom_ReqWr(          prx_pkt_08, ptx_pkt_08, rx_pkt_size, tx_buf_size)
 222              		.loc 1 755 0
 223 00b0 3B68     		ldr	r3, [r7]
 224 00b2 7A68     		ldr	r2, [r7, #4]
 225 00b4 7969     		ldr	r1, [r7, #20]
 226 00b6 B869     		ldr	r0, [r7, #24]
 227 00b8 FFF7FEFF 		bl	ProbeCom_ReqWr
 228 00bc F861     		str	r0, [r7, #28]
 756:..\..\..\..\..\..\uC-Probe\Target\Communication\Generic\Source/probe_com.c ****              break;
 229              		.loc 1 756 0
 230 00be 0DE0     		b	.L15
 231              	.L14:
 757:..\..\..\..\..\..\uC-Probe\Target\Communication\Generic\Source/probe_com.c **** 
 758:..\..\..\..\..\..\uC-Probe\Target\Communication\Generic\Source/probe_com.c ****         case PROBE_COM_FMT_RX_WR_MULTI:
 759:..\..\..\..\..\..\uC-Probe\Target\Communication\Generic\Source/probe_com.c ****              tx_buf_wr = ProbeCom_ReqWrMulti(     prx_pkt_08, ptx_pkt_08, rx_pkt_size, tx_buf_size)
 232              		.loc 1 759 0
 233 00c0 3B68     		ldr	r3, [r7]
 234 00c2 7A68     		ldr	r2, [r7, #4]
 235 00c4 7969     		ldr	r1, [r7, #20]
 236 00c6 B869     		ldr	r0, [r7, #24]
 237 00c8 FFF7FEFF 		bl	ProbeCom_ReqWrMulti
 238 00cc F861     		str	r0, [r7, #28]
 760:..\..\..\..\..\..\uC-Probe\Target\Communication\Generic\Source/probe_com.c ****              break;
 239              		.loc 1 760 0
 240 00ce 05E0     		b	.L15
 241              	.L8:
 761:..\..\..\..\..\..\uC-Probe\Target\Communication\Generic\Source/probe_com.c **** #endif
 762:..\..\..\..\..\..\uC-Probe\Target\Communication\Generic\Source/probe_com.c **** 
 763:..\..\..\..\..\..\uC-Probe\Target\Communication\Generic\Source/probe_com.c **** #if (PROBE_COM_CFG_STR_REQ_EN == DEF_ENABLED)
 764:..\..\..\..\..\..\uC-Probe\Target\Communication\Generic\Source/probe_com.c ****         case PROBE_COM_FMT_RX_STR_IN:
 765:..\..\..\..\..\..\uC-Probe\Target\Communication\Generic\Source/probe_com.c ****              tx_buf_wr = ProbeCom_ReqStrIn(       prx_pkt_08, ptx_pkt_08, rx_pkt_size, tx_buf_size)
 766:..\..\..\..\..\..\uC-Probe\Target\Communication\Generic\Source/probe_com.c ****              break;
 767:..\..\..\..\..\..\uC-Probe\Target\Communication\Generic\Source/probe_com.c **** 
 768:..\..\..\..\..\..\uC-Probe\Target\Communication\Generic\Source/probe_com.c ****         case PROBE_COM_FMT_RX_STR_OUT:
 769:..\..\..\..\..\..\uC-Probe\Target\Communication\Generic\Source/probe_com.c ****              tx_buf_wr = ProbeCom_ReqStrOut(      prx_pkt_08, ptx_pkt_08, rx_pkt_size, tx_buf_size)
 770:..\..\..\..\..\..\uC-Probe\Target\Communication\Generic\Source/probe_com.c ****              break;
 771:..\..\..\..\..\..\uC-Probe\Target\Communication\Generic\Source/probe_com.c **** #endif
 772:..\..\..\..\..\..\uC-Probe\Target\Communication\Generic\Source/probe_com.c **** 
 773:..\..\..\..\..\..\uC-Probe\Target\Communication\Generic\Source/probe_com.c **** #if (PROBE_COM_CFG_TERMINAL_REQ_EN == DEF_ENABLED)
 774:..\..\..\..\..\..\uC-Probe\Target\Communication\Generic\Source/probe_com.c ****         case PROBE_COM_FMT_RX_TERMINAL_EXEC:
 775:..\..\..\..\..\..\uC-Probe\Target\Communication\Generic\Source/probe_com.c ****              tx_buf_wr = ProbeCom_ReqTerminalExec(prx_pkt_08, ptx_pkt_08, rx_pkt_size, tx_buf_size)
 776:..\..\..\..\..\..\uC-Probe\Target\Communication\Generic\Source/probe_com.c ****              break;
 777:..\..\..\..\..\..\uC-Probe\Target\Communication\Generic\Source/probe_com.c **** 
 778:..\..\..\..\..\..\uC-Probe\Target\Communication\Generic\Source/probe_com.c ****         case PROBE_COM_FMT_RX_TERMINAL_IN:
 779:..\..\..\..\..\..\uC-Probe\Target\Communication\Generic\Source/probe_com.c ****              tx_buf_wr = ProbeCom_ReqTerminalIn(  prx_pkt_08, ptx_pkt_08, rx_pkt_size, tx_buf_size)
 780:..\..\..\..\..\..\uC-Probe\Target\Communication\Generic\Source/probe_com.c ****              break;
 781:..\..\..\..\..\..\uC-Probe\Target\Communication\Generic\Source/probe_com.c **** 
 782:..\..\..\..\..\..\uC-Probe\Target\Communication\Generic\Source/probe_com.c ****         case PROBE_COM_FMT_RX_TERMINAL_OUT:
 783:..\..\..\..\..\..\uC-Probe\Target\Communication\Generic\Source/probe_com.c ****              tx_buf_wr = ProbeCom_ReqTerminalOut( prx_pkt_08, ptx_pkt_08, rx_pkt_size, tx_buf_size)
 784:..\..\..\..\..\..\uC-Probe\Target\Communication\Generic\Source/probe_com.c ****              break;
 785:..\..\..\..\..\..\uC-Probe\Target\Communication\Generic\Source/probe_com.c **** #endif
ARM GAS  C:\Users\alex\AppData\Local\Temp\ccKfBJGu.s 			page 19


 786:..\..\..\..\..\..\uC-Probe\Target\Communication\Generic\Source/probe_com.c **** 
 787:..\..\..\..\..\..\uC-Probe\Target\Communication\Generic\Source/probe_com.c ****         default:
 788:..\..\..\..\..\..\uC-Probe\Target\Communication\Generic\Source/probe_com.c ****              tx_buf_wr = ProbeCom_ReqErr(                     ptx_pkt_08, PROBE_COM_STATUS_UNKNOWN_
 242              		.loc 1 788 0
 243 00d0 F921     		movs	r1, #249
 244 00d2 7869     		ldr	r0, [r7, #20]
 245 00d4 FFF7FEFF 		bl	ProbeCom_ReqErr
 246 00d8 F861     		str	r0, [r7, #28]
 789:..\..\..\..\..\..\uC-Probe\Target\Communication\Generic\Source/probe_com.c ****              break;
 247              		.loc 1 789 0
 248 00da 00BF     		nop
 249              	.L15:
 790:..\..\..\..\..\..\uC-Probe\Target\Communication\Generic\Source/probe_com.c ****     }
 791:..\..\..\..\..\..\uC-Probe\Target\Communication\Generic\Source/probe_com.c **** 
 792:..\..\..\..\..\..\uC-Probe\Target\Communication\Generic\Source/probe_com.c ****     return (tx_buf_wr);
 250              		.loc 1 792 0
 251 00dc FB69     		ldr	r3, [r7, #28]
 252              	.L7:
 793:..\..\..\..\..\..\uC-Probe\Target\Communication\Generic\Source/probe_com.c **** }
 253              		.loc 1 793 0
 254 00de 1846     		mov	r0, r3
 255 00e0 2037     		adds	r7, r7, #32
 256              		.cfi_def_cfa_offset 8
 257 00e2 BD46     		mov	sp, r7
 258              		.cfi_def_cfa_register 13
 259              		@ sp needed
 260 00e4 80BD     		pop	{r7, pc}
 261              	.L17:
 262 00e6 00BF     		.align	2
 263              	.L16:
 264 00e8 00000000 		.word	ProbeCom_RxPktCtr
 265 00ec 00000000 		.word	ProbeCom_TxPktCtr
 266              		.cfi_endproc
 267              	.LFE1:
 268              		.size	ProbeCom_ParseRxPkt, .-ProbeCom_ParseRxPkt
 269              		.section	.text.ProbeCom_PktModifier,"ax",%progbits
 270              		.align	2
 271              		.thumb
 272              		.thumb_func
 273              		.type	ProbeCom_PktModifier, %function
 274              	ProbeCom_PktModifier:
 275              	.LFB2:
 794:..\..\..\..\..\..\uC-Probe\Target\Communication\Generic\Source/probe_com.c **** 
 795:..\..\..\..\..\..\uC-Probe\Target\Communication\Generic\Source/probe_com.c **** 
 796:..\..\..\..\..\..\uC-Probe\Target\Communication\Generic\Source/probe_com.c **** /*
 797:..\..\..\..\..\..\uC-Probe\Target\Communication\Generic\Source/probe_com.c **** ***************************************************************************************************
 798:..\..\..\..\..\..\uC-Probe\Target\Communication\Generic\Source/probe_com.c **** ***************************************************************************************************
 799:..\..\..\..\..\..\uC-Probe\Target\Communication\Generic\Source/probe_com.c **** *                                           LOCAL FUNCTIONS
 800:..\..\..\..\..\..\uC-Probe\Target\Communication\Generic\Source/probe_com.c **** ***************************************************************************************************
 801:..\..\..\..\..\..\uC-Probe\Target\Communication\Generic\Source/probe_com.c **** ***************************************************************************************************
 802:..\..\..\..\..\..\uC-Probe\Target\Communication\Generic\Source/probe_com.c **** */
 803:..\..\..\..\..\..\uC-Probe\Target\Communication\Generic\Source/probe_com.c **** 
 804:..\..\..\..\..\..\uC-Probe\Target\Communication\Generic\Source/probe_com.c **** /*
 805:..\..\..\..\..\..\uC-Probe\Target\Communication\Generic\Source/probe_com.c **** ***************************************************************************************************
 806:..\..\..\..\..\..\uC-Probe\Target\Communication\Generic\Source/probe_com.c **** *                                       ProbeCom_StrOutAvail()
 807:..\..\..\..\..\..\uC-Probe\Target\Communication\Generic\Source/probe_com.c **** *
 808:..\..\..\..\..\..\uC-Probe\Target\Communication\Generic\Source/probe_com.c **** * Description : Check if string output is waiting for transmission.
ARM GAS  C:\Users\alex\AppData\Local\Temp\ccKfBJGu.s 			page 20


 809:..\..\..\..\..\..\uC-Probe\Target\Communication\Generic\Source/probe_com.c **** *
 810:..\..\..\..\..\..\uC-Probe\Target\Communication\Generic\Source/probe_com.c **** * Argument(s) : none.
 811:..\..\..\..\..\..\uC-Probe\Target\Communication\Generic\Source/probe_com.c **** *
 812:..\..\..\..\..\..\uC-Probe\Target\Communication\Generic\Source/probe_com.c **** * Return(s)   : DEF_TRUE   if a  string output is waiting for transmission.
 813:..\..\..\..\..\..\uC-Probe\Target\Communication\Generic\Source/probe_com.c **** *               DEF_FALSE  if no string output is waiting for transmission.
 814:..\..\..\..\..\..\uC-Probe\Target\Communication\Generic\Source/probe_com.c **** *
 815:..\..\..\..\..\..\uC-Probe\Target\Communication\Generic\Source/probe_com.c **** * Caller(s)   : ProbeCom_PktModifier().
 816:..\..\..\..\..\..\uC-Probe\Target\Communication\Generic\Source/probe_com.c **** *
 817:..\..\..\..\..\..\uC-Probe\Target\Communication\Generic\Source/probe_com.c **** * Note(s)     : (1) See Notes for 'ProbeCom_StrWr()'.
 818:..\..\..\..\..\..\uC-Probe\Target\Communication\Generic\Source/probe_com.c **** ***************************************************************************************************
 819:..\..\..\..\..\..\uC-Probe\Target\Communication\Generic\Source/probe_com.c **** */
 820:..\..\..\..\..\..\uC-Probe\Target\Communication\Generic\Source/probe_com.c **** 
 821:..\..\..\..\..\..\uC-Probe\Target\Communication\Generic\Source/probe_com.c **** #if (PROBE_COM_CFG_STR_REQ_EN == DEF_ENABLED)
 822:..\..\..\..\..\..\uC-Probe\Target\Communication\Generic\Source/probe_com.c **** static  CPU_BOOLEAN  ProbeCom_StrOutAvail (void)
 823:..\..\..\..\..\..\uC-Probe\Target\Communication\Generic\Source/probe_com.c **** {
 824:..\..\..\..\..\..\uC-Probe\Target\Communication\Generic\Source/probe_com.c ****     CPU_BOOLEAN  avail;
 825:..\..\..\..\..\..\uC-Probe\Target\Communication\Generic\Source/probe_com.c ****     CPU_BOOLEAN  empty;
 826:..\..\..\..\..\..\uC-Probe\Target\Communication\Generic\Source/probe_com.c **** 
 827:..\..\..\..\..\..\uC-Probe\Target\Communication\Generic\Source/probe_com.c **** 
 828:..\..\..\..\..\..\uC-Probe\Target\Communication\Generic\Source/probe_com.c ****     empty = ProbeCom_BufIsEmpty(&ProbeCom_StrOutBuf);
 829:..\..\..\..\..\..\uC-Probe\Target\Communication\Generic\Source/probe_com.c ****     avail = (empty == DEF_YES) ? (DEF_FALSE) : (DEF_TRUE);
 830:..\..\..\..\..\..\uC-Probe\Target\Communication\Generic\Source/probe_com.c **** 
 831:..\..\..\..\..\..\uC-Probe\Target\Communication\Generic\Source/probe_com.c ****     return (avail);
 832:..\..\..\..\..\..\uC-Probe\Target\Communication\Generic\Source/probe_com.c **** }
 833:..\..\..\..\..\..\uC-Probe\Target\Communication\Generic\Source/probe_com.c **** #endif
 834:..\..\..\..\..\..\uC-Probe\Target\Communication\Generic\Source/probe_com.c **** 
 835:..\..\..\..\..\..\uC-Probe\Target\Communication\Generic\Source/probe_com.c **** 
 836:..\..\..\..\..\..\uC-Probe\Target\Communication\Generic\Source/probe_com.c **** 
 837:..\..\..\..\..\..\uC-Probe\Target\Communication\Generic\Source/probe_com.c **** /*
 838:..\..\..\..\..\..\uC-Probe\Target\Communication\Generic\Source/probe_com.c **** ***************************************************************************************************
 839:..\..\..\..\..\..\uC-Probe\Target\Communication\Generic\Source/probe_com.c **** *                                     ProbeCom_TerminalOutAvail()
 840:..\..\..\..\..\..\uC-Probe\Target\Communication\Generic\Source/probe_com.c **** *
 841:..\..\..\..\..\..\uC-Probe\Target\Communication\Generic\Source/probe_com.c **** * Description : Check if terminal output is waiting for transmission.
 842:..\..\..\..\..\..\uC-Probe\Target\Communication\Generic\Source/probe_com.c **** *
 843:..\..\..\..\..\..\uC-Probe\Target\Communication\Generic\Source/probe_com.c **** * Argument(s) : none.
 844:..\..\..\..\..\..\uC-Probe\Target\Communication\Generic\Source/probe_com.c **** *
 845:..\..\..\..\..\..\uC-Probe\Target\Communication\Generic\Source/probe_com.c **** * Return(s)   : DEF_TRUE   if a  terminal output is waiting for transmission.
 846:..\..\..\..\..\..\uC-Probe\Target\Communication\Generic\Source/probe_com.c **** *               DEF_FALSE  if no terminal output is waiting for transmission.
 847:..\..\..\..\..\..\uC-Probe\Target\Communication\Generic\Source/probe_com.c **** *
 848:..\..\..\..\..\..\uC-Probe\Target\Communication\Generic\Source/probe_com.c **** * Caller(s)   : ProbeCom_PktModifier().
 849:..\..\..\..\..\..\uC-Probe\Target\Communication\Generic\Source/probe_com.c **** *
 850:..\..\..\..\..\..\uC-Probe\Target\Communication\Generic\Source/probe_com.c **** * Note(s)     : (1) See Notes for 'ProbeCom_TerminalOut()'.
 851:..\..\..\..\..\..\uC-Probe\Target\Communication\Generic\Source/probe_com.c **** ***************************************************************************************************
 852:..\..\..\..\..\..\uC-Probe\Target\Communication\Generic\Source/probe_com.c **** */
 853:..\..\..\..\..\..\uC-Probe\Target\Communication\Generic\Source/probe_com.c **** 
 854:..\..\..\..\..\..\uC-Probe\Target\Communication\Generic\Source/probe_com.c **** #if (PROBE_COM_CFG_TERMINAL_REQ_EN == DEF_ENABLED)
 855:..\..\..\..\..\..\uC-Probe\Target\Communication\Generic\Source/probe_com.c **** static  CPU_BOOLEAN  ProbeCom_TerminalOutAvail (void)
 856:..\..\..\..\..\..\uC-Probe\Target\Communication\Generic\Source/probe_com.c **** {
 857:..\..\..\..\..\..\uC-Probe\Target\Communication\Generic\Source/probe_com.c ****     CPU_SIZE_T   buf_len;
 858:..\..\..\..\..\..\uC-Probe\Target\Communication\Generic\Source/probe_com.c ****     CPU_BOOLEAN  avail;
 859:..\..\..\..\..\..\uC-Probe\Target\Communication\Generic\Source/probe_com.c ****     CPU_SR_ALLOC();
 860:..\..\..\..\..\..\uC-Probe\Target\Communication\Generic\Source/probe_com.c **** 
 861:..\..\..\..\..\..\uC-Probe\Target\Communication\Generic\Source/probe_com.c **** 
 862:..\..\..\..\..\..\uC-Probe\Target\Communication\Generic\Source/probe_com.c ****     CPU_CRITICAL_ENTER();
 863:..\..\..\..\..\..\uC-Probe\Target\Communication\Generic\Source/probe_com.c ****     buf_len = ProbeCom_TerminalOutBufLen;
 864:..\..\..\..\..\..\uC-Probe\Target\Communication\Generic\Source/probe_com.c ****     CPU_CRITICAL_EXIT();
 865:..\..\..\..\..\..\uC-Probe\Target\Communication\Generic\Source/probe_com.c **** 
ARM GAS  C:\Users\alex\AppData\Local\Temp\ccKfBJGu.s 			page 21


 866:..\..\..\..\..\..\uC-Probe\Target\Communication\Generic\Source/probe_com.c ****     avail   = (buf_len == 0u) ? (DEF_FALSE) : (DEF_TRUE);
 867:..\..\..\..\..\..\uC-Probe\Target\Communication\Generic\Source/probe_com.c **** 
 868:..\..\..\..\..\..\uC-Probe\Target\Communication\Generic\Source/probe_com.c ****     return (avail);
 869:..\..\..\..\..\..\uC-Probe\Target\Communication\Generic\Source/probe_com.c **** }
 870:..\..\..\..\..\..\uC-Probe\Target\Communication\Generic\Source/probe_com.c **** #endif
 871:..\..\..\..\..\..\uC-Probe\Target\Communication\Generic\Source/probe_com.c **** 
 872:..\..\..\..\..\..\uC-Probe\Target\Communication\Generic\Source/probe_com.c **** 
 873:..\..\..\..\..\..\uC-Probe\Target\Communication\Generic\Source/probe_com.c **** 
 874:..\..\..\..\..\..\uC-Probe\Target\Communication\Generic\Source/probe_com.c **** /*
 875:..\..\..\..\..\..\uC-Probe\Target\Communication\Generic\Source/probe_com.c **** ***************************************************************************************************
 876:..\..\..\..\..\..\uC-Probe\Target\Communication\Generic\Source/probe_com.c **** *                                     ProbeCom_TerminalExecDone()
 877:..\..\..\..\..\..\uC-Probe\Target\Communication\Generic\Source/probe_com.c **** *
 878:..\..\..\..\..\..\uC-Probe\Target\Communication\Generic\Source/probe_com.c **** * Description : Check if terminal execution is done.
 879:..\..\..\..\..\..\uC-Probe\Target\Communication\Generic\Source/probe_com.c **** *
 880:..\..\..\..\..\..\uC-Probe\Target\Communication\Generic\Source/probe_com.c **** * Argument(s) : none.
 881:..\..\..\..\..\..\uC-Probe\Target\Communication\Generic\Source/probe_com.c **** *
 882:..\..\..\..\..\..\uC-Probe\Target\Communication\Generic\Source/probe_com.c **** * Return(s)   : DEF_TRUE   if terminal command execution is     done.
 883:..\..\..\..\..\..\uC-Probe\Target\Communication\Generic\Source/probe_com.c **** *               DEF_FALSE  if terminal command execution is NOT done.
 884:..\..\..\..\..\..\uC-Probe\Target\Communication\Generic\Source/probe_com.c **** *
 885:..\..\..\..\..\..\uC-Probe\Target\Communication\Generic\Source/probe_com.c **** * Caller(s)   : ProbeCom_PktModifier().
 886:..\..\..\..\..\..\uC-Probe\Target\Communication\Generic\Source/probe_com.c **** *
 887:..\..\..\..\..\..\uC-Probe\Target\Communication\Generic\Source/probe_com.c **** * Note(s)     : (1) See Notes for 'ProbeCom_TerminalOut()'.
 888:..\..\..\..\..\..\uC-Probe\Target\Communication\Generic\Source/probe_com.c **** ***************************************************************************************************
 889:..\..\..\..\..\..\uC-Probe\Target\Communication\Generic\Source/probe_com.c **** */
 890:..\..\..\..\..\..\uC-Probe\Target\Communication\Generic\Source/probe_com.c **** 
 891:..\..\..\..\..\..\uC-Probe\Target\Communication\Generic\Source/probe_com.c **** #if (PROBE_COM_CFG_TERMINAL_REQ_EN == DEF_ENABLED)
 892:..\..\..\..\..\..\uC-Probe\Target\Communication\Generic\Source/probe_com.c **** static  CPU_BOOLEAN  ProbeCom_TerminalExecDone (void)
 893:..\..\..\..\..\..\uC-Probe\Target\Communication\Generic\Source/probe_com.c **** {
 894:..\..\..\..\..\..\uC-Probe\Target\Communication\Generic\Source/probe_com.c **** #if (CPU_CFG_CRITICAL_METHOD == CPU_CRITICAL_METHOD_STATUS_LOCAL)
 895:..\..\..\..\..\..\uC-Probe\Target\Communication\Generic\Source/probe_com.c ****     CPU_SR       cpu_sr;
 896:..\..\..\..\..\..\uC-Probe\Target\Communication\Generic\Source/probe_com.c **** #endif
 897:..\..\..\..\..\..\uC-Probe\Target\Communication\Generic\Source/probe_com.c ****     CPU_BOOLEAN  executing;
 898:..\..\..\..\..\..\uC-Probe\Target\Communication\Generic\Source/probe_com.c ****     CPU_BOOLEAN  done;
 899:..\..\..\..\..\..\uC-Probe\Target\Communication\Generic\Source/probe_com.c **** 
 900:..\..\..\..\..\..\uC-Probe\Target\Communication\Generic\Source/probe_com.c **** 
 901:..\..\..\..\..\..\uC-Probe\Target\Communication\Generic\Source/probe_com.c ****     CPU_CRITICAL_ENTER();
 902:..\..\..\..\..\..\uC-Probe\Target\Communication\Generic\Source/probe_com.c ****     executing = ProbeCom_TerminalExecuting;
 903:..\..\..\..\..\..\uC-Probe\Target\Communication\Generic\Source/probe_com.c ****     CPU_CRITICAL_EXIT();
 904:..\..\..\..\..\..\uC-Probe\Target\Communication\Generic\Source/probe_com.c **** 
 905:..\..\..\..\..\..\uC-Probe\Target\Communication\Generic\Source/probe_com.c ****     done = (executing == DEF_YES) ? (DEF_FALSE) : (DEF_TRUE);
 906:..\..\..\..\..\..\uC-Probe\Target\Communication\Generic\Source/probe_com.c **** 
 907:..\..\..\..\..\..\uC-Probe\Target\Communication\Generic\Source/probe_com.c ****     return (done);
 908:..\..\..\..\..\..\uC-Probe\Target\Communication\Generic\Source/probe_com.c **** }
 909:..\..\..\..\..\..\uC-Probe\Target\Communication\Generic\Source/probe_com.c **** #endif
 910:..\..\..\..\..\..\uC-Probe\Target\Communication\Generic\Source/probe_com.c **** 
 911:..\..\..\..\..\..\uC-Probe\Target\Communication\Generic\Source/probe_com.c **** 
 912:..\..\..\..\..\..\uC-Probe\Target\Communication\Generic\Source/probe_com.c **** /*
 913:..\..\..\..\..\..\uC-Probe\Target\Communication\Generic\Source/probe_com.c **** ***************************************************************************************************
 914:..\..\..\..\..\..\uC-Probe\Target\Communication\Generic\Source/probe_com.c **** *                                       ProbeCom_PktModifier()
 915:..\..\..\..\..\..\uC-Probe\Target\Communication\Generic\Source/probe_com.c **** *
 916:..\..\..\..\..\..\uC-Probe\Target\Communication\Generic\Source/probe_com.c **** * Description : Get packet modfier byte.
 917:..\..\..\..\..\..\uC-Probe\Target\Communication\Generic\Source/probe_com.c **** *
 918:..\..\..\..\..\..\uC-Probe\Target\Communication\Generic\Source/probe_com.c **** * Argument(s) : none.
 919:..\..\..\..\..\..\uC-Probe\Target\Communication\Generic\Source/probe_com.c **** *
 920:..\..\..\..\..\..\uC-Probe\Target\Communication\Generic\Source/probe_com.c **** * Return(s)   : The modifier byte.
 921:..\..\..\..\..\..\uC-Probe\Target\Communication\Generic\Source/probe_com.c **** *
 922:..\..\..\..\..\..\uC-Probe\Target\Communication\Generic\Source/probe_com.c **** * Caller(s)   : Various command handlers (ProbeCom_Req????()).
ARM GAS  C:\Users\alex\AppData\Local\Temp\ccKfBJGu.s 			page 22


 923:..\..\..\..\..\..\uC-Probe\Target\Communication\Generic\Source/probe_com.c **** *
 924:..\..\..\..\..\..\uC-Probe\Target\Communication\Generic\Source/probe_com.c **** * Note(s)     : none.
 925:..\..\..\..\..\..\uC-Probe\Target\Communication\Generic\Source/probe_com.c **** ***************************************************************************************************
 926:..\..\..\..\..\..\uC-Probe\Target\Communication\Generic\Source/probe_com.c **** */
 927:..\..\..\..\..\..\uC-Probe\Target\Communication\Generic\Source/probe_com.c **** 
 928:..\..\..\..\..\..\uC-Probe\Target\Communication\Generic\Source/probe_com.c **** static  CPU_INT08U  ProbeCom_PktModifier (void)
 929:..\..\..\..\..\..\uC-Probe\Target\Communication\Generic\Source/probe_com.c **** {
 276              		.loc 1 929 0
 277              		.cfi_startproc
 278              		@ args = 0, pretend = 0, frame = 8
 279              		@ frame_needed = 1, uses_anonymous_args = 0
 280              		@ link register save eliminated.
 281 0000 80B4     		push	{r7}
 282              		.cfi_def_cfa_offset 4
 283              		.cfi_offset 7, -4
 284 0002 83B0     		sub	sp, sp, #12
 285              		.cfi_def_cfa_offset 16
 286 0004 00AF     		add	r7, sp, #0
 287              		.cfi_def_cfa_register 7
 930:..\..\..\..\..\..\uC-Probe\Target\Communication\Generic\Source/probe_com.c **** #if ((PROBE_COM_CFG_STR_REQ_EN      == DEF_ENABLED) || \
 931:..\..\..\..\..\..\uC-Probe\Target\Communication\Generic\Source/probe_com.c ****      (PROBE_COM_CFG_TERMINAL_REQ_EN == DEF_ENABLED))
 932:..\..\..\..\..\..\uC-Probe\Target\Communication\Generic\Source/probe_com.c ****     CPU_BOOLEAN  avail;
 933:..\..\..\..\..\..\uC-Probe\Target\Communication\Generic\Source/probe_com.c **** #endif
 934:..\..\..\..\..\..\uC-Probe\Target\Communication\Generic\Source/probe_com.c **** #if  (PROBE_COM_CFG_TERMINAL_REQ_EN == DEF_ENABLED)
 935:..\..\..\..\..\..\uC-Probe\Target\Communication\Generic\Source/probe_com.c ****     CPU_BOOLEAN  done;
 936:..\..\..\..\..\..\uC-Probe\Target\Communication\Generic\Source/probe_com.c **** #endif
 937:..\..\..\..\..\..\uC-Probe\Target\Communication\Generic\Source/probe_com.c ****     CPU_INT08U   mod;
 938:..\..\..\..\..\..\uC-Probe\Target\Communication\Generic\Source/probe_com.c **** 
 939:..\..\..\..\..\..\uC-Probe\Target\Communication\Generic\Source/probe_com.c **** 
 940:..\..\..\..\..\..\uC-Probe\Target\Communication\Generic\Source/probe_com.c ****     mod = PROBE_COM_MODIFIER_NONE;
 288              		.loc 1 940 0
 289 0006 0023     		movs	r3, #0
 290 0008 FB71     		strb	r3, [r7, #7]
 941:..\..\..\..\..\..\uC-Probe\Target\Communication\Generic\Source/probe_com.c **** 
 942:..\..\..\..\..\..\uC-Probe\Target\Communication\Generic\Source/probe_com.c **** #if (PROBE_COM_CFG_STR_REQ_EN == DEF_ENABLED)
 943:..\..\..\..\..\..\uC-Probe\Target\Communication\Generic\Source/probe_com.c ****     avail = ProbeCom_StrOutAvail();
 944:..\..\..\..\..\..\uC-Probe\Target\Communication\Generic\Source/probe_com.c ****     if (avail == DEF_TRUE) {
 945:..\..\..\..\..\..\uC-Probe\Target\Communication\Generic\Source/probe_com.c ****         DEF_BIT_SET(mod, PROBE_COM_MODIFIER_STR_OUT_AVAIL);
 946:..\..\..\..\..\..\uC-Probe\Target\Communication\Generic\Source/probe_com.c ****     }
 947:..\..\..\..\..\..\uC-Probe\Target\Communication\Generic\Source/probe_com.c **** #endif
 948:..\..\..\..\..\..\uC-Probe\Target\Communication\Generic\Source/probe_com.c **** 
 949:..\..\..\..\..\..\uC-Probe\Target\Communication\Generic\Source/probe_com.c **** #if (PROBE_COM_CFG_TERMINAL_REQ_EN == DEF_ENABLED)
 950:..\..\..\..\..\..\uC-Probe\Target\Communication\Generic\Source/probe_com.c ****     avail = ProbeCom_TerminalOutAvail();
 951:..\..\..\..\..\..\uC-Probe\Target\Communication\Generic\Source/probe_com.c ****     if (avail == DEF_TRUE) {
 952:..\..\..\..\..\..\uC-Probe\Target\Communication\Generic\Source/probe_com.c ****         DEF_BIT_SET(mod, PROBE_COM_MODIFIER_TERMINAL_OUT_AVAIL);
 953:..\..\..\..\..\..\uC-Probe\Target\Communication\Generic\Source/probe_com.c ****     }
 954:..\..\..\..\..\..\uC-Probe\Target\Communication\Generic\Source/probe_com.c **** 
 955:..\..\..\..\..\..\uC-Probe\Target\Communication\Generic\Source/probe_com.c ****     done = ProbeCom_TerminalExecDone();
 956:..\..\..\..\..\..\uC-Probe\Target\Communication\Generic\Source/probe_com.c ****     if (done == DEF_TRUE) {
 957:..\..\..\..\..\..\uC-Probe\Target\Communication\Generic\Source/probe_com.c ****         DEF_BIT_SET(mod, PROBE_COM_MODIFIER_TERMINAL_EXEC_DONE);
 958:..\..\..\..\..\..\uC-Probe\Target\Communication\Generic\Source/probe_com.c ****     }
 959:..\..\..\..\..\..\uC-Probe\Target\Communication\Generic\Source/probe_com.c **** #endif
 960:..\..\..\..\..\..\uC-Probe\Target\Communication\Generic\Source/probe_com.c **** 
 961:..\..\..\..\..\..\uC-Probe\Target\Communication\Generic\Source/probe_com.c ****     return (mod);
 291              		.loc 1 961 0
 292 000a FB79     		ldrb	r3, [r7, #7]	@ zero_extendqisi2
 962:..\..\..\..\..\..\uC-Probe\Target\Communication\Generic\Source/probe_com.c **** }
ARM GAS  C:\Users\alex\AppData\Local\Temp\ccKfBJGu.s 			page 23


 293              		.loc 1 962 0
 294 000c 1846     		mov	r0, r3
 295 000e 0C37     		adds	r7, r7, #12
 296              		.cfi_def_cfa_offset 4
 297 0010 BD46     		mov	sp, r7
 298              		.cfi_def_cfa_register 13
 299              		@ sp needed
 300 0012 80BC     		pop	{r7}
 301              		.cfi_restore 7
 302              		.cfi_def_cfa_offset 0
 303 0014 7047     		bx	lr
 304              		.cfi_endproc
 305              	.LFE2:
 306              		.size	ProbeCom_PktModifier, .-ProbeCom_PktModifier
 307 0016 00BF     		.section	.text.ProbeCom_ReqErr,"ax",%progbits
 308              		.align	2
 309              		.thumb
 310              		.thumb_func
 311              		.type	ProbeCom_ReqErr, %function
 312              	ProbeCom_ReqErr:
 313              	.LFB3:
 963:..\..\..\..\..\..\uC-Probe\Target\Communication\Generic\Source/probe_com.c **** 
 964:..\..\..\..\..\..\uC-Probe\Target\Communication\Generic\Source/probe_com.c **** 
 965:..\..\..\..\..\..\uC-Probe\Target\Communication\Generic\Source/probe_com.c **** /*
 966:..\..\..\..\..\..\uC-Probe\Target\Communication\Generic\Source/probe_com.c **** ***************************************************************************************************
 967:..\..\..\..\..\..\uC-Probe\Target\Communication\Generic\Source/probe_com.c **** *                                          ProbeCom_ReqErr()
 968:..\..\..\..\..\..\uC-Probe\Target\Communication\Generic\Source/probe_com.c **** *
 969:..\..\..\..\..\..\uC-Probe\Target\Communication\Generic\Source/probe_com.c **** * Description : Formulate error response when the target receives a request it cannot handle.
 970:..\..\..\..\..\..\uC-Probe\Target\Communication\Generic\Source/probe_com.c **** *
 971:..\..\..\..\..\..\uC-Probe\Target\Communication\Generic\Source/probe_com.c **** * Argument(s) : ptx_buf      Pointer to the transmit buffer
 972:..\..\..\..\..\..\uC-Probe\Target\Communication\Generic\Source/probe_com.c **** *
 973:..\..\..\..\..\..\uC-Probe\Target\Communication\Generic\Source/probe_com.c **** *               comm_err     Error that occurred
 974:..\..\..\..\..\..\uC-Probe\Target\Communication\Generic\Source/probe_com.c **** *
 975:..\..\..\..\..\..\uC-Probe\Target\Communication\Generic\Source/probe_com.c **** * Return(s)   : The number of bytes written to the tx buffer.
 976:..\..\..\..\..\..\uC-Probe\Target\Communication\Generic\Source/probe_com.c **** *
 977:..\..\..\..\..\..\uC-Probe\Target\Communication\Generic\Source/probe_com.c **** * Caller(s)   : Various command handlers (ProbeCom_Req????()).
 978:..\..\..\..\..\..\uC-Probe\Target\Communication\Generic\Source/probe_com.c **** *
 979:..\..\..\..\..\..\uC-Probe\Target\Communication\Generic\Source/probe_com.c **** * Note(s)     : (1) The TX format:
 980:..\..\..\..\..\..\uC-Probe\Target\Communication\Generic\Source/probe_com.c **** *
 981:..\..\..\..\..\..\uC-Probe\Target\Communication\Generic\Source/probe_com.c **** *                   (A) A 2-byte format  , indicating the data segment format;
 982:..\..\..\..\..\..\uC-Probe\Target\Communication\Generic\Source/probe_com.c **** *                   (B) A 1-byte constant, PROBE_RS232_OK,   if the location can    be read;
 983:..\..\..\..\..\..\uC-Probe\Target\Communication\Generic\Source/probe_com.c **** *                       A 1-byte constant, PROBE_RS232_FAIL, if the location cannot be read.
 984:..\..\..\..\..\..\uC-Probe\Target\Communication\Generic\Source/probe_com.c **** *                   (C) A 1-byte modifier.
 985:..\..\..\..\..\..\uC-Probe\Target\Communication\Generic\Source/probe_com.c **** *
 986:..\..\..\..\..\..\uC-Probe\Target\Communication\Generic\Source/probe_com.c **** *                         +-------------------------+------------+------------+
 987:..\..\..\..\..\..\uC-Probe\Target\Communication\Generic\Source/probe_com.c **** *                         |          Format         |   Status   |  Modifier  |
 988:..\..\..\..\..\..\uC-Probe\Target\Communication\Generic\Source/probe_com.c **** *                         +-------------------------+------------+------------+
 989:..\..\..\..\..\..\uC-Probe\Target\Communication\Generic\Source/probe_com.c **** ***************************************************************************************************
 990:..\..\..\..\..\..\uC-Probe\Target\Communication\Generic\Source/probe_com.c **** */
 991:..\..\..\..\..\..\uC-Probe\Target\Communication\Generic\Source/probe_com.c **** 
 992:..\..\..\..\..\..\uC-Probe\Target\Communication\Generic\Source/probe_com.c **** static  CPU_SIZE_T  ProbeCom_ReqErr (CPU_INT08U  *ptx_buf,
 993:..\..\..\..\..\..\uC-Probe\Target\Communication\Generic\Source/probe_com.c ****                                      CPU_INT08U   comm_err)
 994:..\..\..\..\..\..\uC-Probe\Target\Communication\Generic\Source/probe_com.c **** {
 314              		.loc 1 994 0
 315              		.cfi_startproc
 316              		@ args = 0, pretend = 0, frame = 16
 317              		@ frame_needed = 1, uses_anonymous_args = 0
ARM GAS  C:\Users\alex\AppData\Local\Temp\ccKfBJGu.s 			page 24


 318 0000 80B5     		push	{r7, lr}
 319              		.cfi_def_cfa_offset 8
 320              		.cfi_offset 7, -8
 321              		.cfi_offset 14, -4
 322 0002 84B0     		sub	sp, sp, #16
 323              		.cfi_def_cfa_offset 24
 324 0004 00AF     		add	r7, sp, #0
 325              		.cfi_def_cfa_register 7
 326 0006 7860     		str	r0, [r7, #4]
 327 0008 0B46     		mov	r3, r1
 328 000a FB70     		strb	r3, [r7, #3]
 995:..\..\..\..\..\..\uC-Probe\Target\Communication\Generic\Source/probe_com.c ****     CPU_SIZE_T  tx_len;
 996:..\..\..\..\..\..\uC-Probe\Target\Communication\Generic\Source/probe_com.c **** 
 997:..\..\..\..\..\..\uC-Probe\Target\Communication\Generic\Source/probe_com.c **** 
 998:..\..\..\..\..\..\uC-Probe\Target\Communication\Generic\Source/probe_com.c **** #if (PROBE_COM_CFG_STAT_EN == DEF_ENABLED)
 999:..\..\..\..\..\..\uC-Probe\Target\Communication\Generic\Source/probe_com.c ****     ProbeCom_ErrPktCtr++;
 329              		.loc 1 999 0
 330 000c 104B     		ldr	r3, .L22
 331 000e 1B68     		ldr	r3, [r3]
 332 0010 0133     		adds	r3, r3, #1
 333 0012 0F4A     		ldr	r2, .L22
 334 0014 1360     		str	r3, [r2]
1000:..\..\..\..\..\..\uC-Probe\Target\Communication\Generic\Source/probe_com.c **** #endif
1001:..\..\..\..\..\..\uC-Probe\Target\Communication\Generic\Source/probe_com.c **** 
1002:..\..\..\..\..\..\uC-Probe\Target\Communication\Generic\Source/probe_com.c ****     ProbeCom_StoINT16U(&ptx_buf, PROBE_COM_FMT_TX_ERR);         /* Tx pkt fmt.                     
 335              		.loc 1 1002 0
 336 0016 3B1D     		adds	r3, r7, #4
 337 0018 4FF40041 		mov	r1, #32768
 338 001c 1846     		mov	r0, r3
 339 001e FFF7FEFF 		bl	ProbeCom_StoINT16U
1003:..\..\..\..\..\..\uC-Probe\Target\Communication\Generic\Source/probe_com.c ****     ProbeCom_StoINT08U(&ptx_buf, comm_err);                     /* Target status.                  
 340              		.loc 1 1003 0
 341 0022 FA78     		ldrb	r2, [r7, #3]	@ zero_extendqisi2
 342 0024 3B1D     		adds	r3, r7, #4
 343 0026 1146     		mov	r1, r2
 344 0028 1846     		mov	r0, r3
 345 002a FFF7FEFF 		bl	ProbeCom_StoINT08U
1004:..\..\..\..\..\..\uC-Probe\Target\Communication\Generic\Source/probe_com.c ****     ProbeCom_StoINT08U(&ptx_buf, ProbeCom_PktModifier());       /* Modifier.                       
 346              		.loc 1 1004 0
 347 002e FFF7FEFF 		bl	ProbeCom_PktModifier
 348 0032 0346     		mov	r3, r0
 349 0034 1A46     		mov	r2, r3
 350 0036 3B1D     		adds	r3, r7, #4
 351 0038 1146     		mov	r1, r2
 352 003a 1846     		mov	r0, r3
 353 003c FFF7FEFF 		bl	ProbeCom_StoINT08U
1005:..\..\..\..\..\..\uC-Probe\Target\Communication\Generic\Source/probe_com.c **** 
1006:..\..\..\..\..\..\uC-Probe\Target\Communication\Generic\Source/probe_com.c ****     tx_len = (CPU_SIZE_T)PROBE_COM_SIZE_TX_HDR;
 354              		.loc 1 1006 0
 355 0040 0423     		movs	r3, #4
 356 0042 FB60     		str	r3, [r7, #12]
1007:..\..\..\..\..\..\uC-Probe\Target\Communication\Generic\Source/probe_com.c ****     return (tx_len);                                            /* Rtn TX data segment size =  4 (=
 357              		.loc 1 1007 0
 358 0044 FB68     		ldr	r3, [r7, #12]
1008:..\..\..\..\..\..\uC-Probe\Target\Communication\Generic\Source/probe_com.c **** }
 359              		.loc 1 1008 0
 360 0046 1846     		mov	r0, r3
ARM GAS  C:\Users\alex\AppData\Local\Temp\ccKfBJGu.s 			page 25


 361 0048 1037     		adds	r7, r7, #16
 362              		.cfi_def_cfa_offset 8
 363 004a BD46     		mov	sp, r7
 364              		.cfi_def_cfa_register 13
 365              		@ sp needed
 366 004c 80BD     		pop	{r7, pc}
 367              	.L23:
 368 004e 00BF     		.align	2
 369              	.L22:
 370 0050 00000000 		.word	ProbeCom_ErrPktCtr
 371              		.cfi_endproc
 372              	.LFE3:
 373              		.size	ProbeCom_ReqErr, .-ProbeCom_ReqErr
 374              		.section	.text.ProbeCom_ReqQuery,"ax",%progbits
 375              		.align	2
 376              		.thumb
 377              		.thumb_func
 378              		.type	ProbeCom_ReqQuery, %function
 379              	ProbeCom_ReqQuery:
 380              	.LFB4:
1009:..\..\..\..\..\..\uC-Probe\Target\Communication\Generic\Source/probe_com.c **** 
1010:..\..\..\..\..\..\uC-Probe\Target\Communication\Generic\Source/probe_com.c **** 
1011:..\..\..\..\..\..\uC-Probe\Target\Communication\Generic\Source/probe_com.c **** /*
1012:..\..\..\..\..\..\uC-Probe\Target\Communication\Generic\Source/probe_com.c **** ***************************************************************************************************
1013:..\..\..\..\..\..\uC-Probe\Target\Communication\Generic\Source/probe_com.c **** *                                         ProbeCom_ReqQuery()
1014:..\..\..\..\..\..\uC-Probe\Target\Communication\Generic\Source/probe_com.c **** *
1015:..\..\..\..\..\..\uC-Probe\Target\Communication\Generic\Source/probe_com.c **** * Description : Parse the FMT_QUERY command & formulate response.  This command asks the target
1016:..\..\..\..\..\..\uC-Probe\Target\Communication\Generic\Source/probe_com.c **** *               about its capabilities, which are returned in response.
1017:..\..\..\..\..\..\uC-Probe\Target\Communication\Generic\Source/probe_com.c **** *
1018:..\..\..\..\..\..\uC-Probe\Target\Communication\Generic\Source/probe_com.c **** * Argument(s) : prx_buf         Pointer to the receive  buffer
1019:..\..\..\..\..\..\uC-Probe\Target\Communication\Generic\Source/probe_com.c **** *
1020:..\..\..\..\..\..\uC-Probe\Target\Communication\Generic\Source/probe_com.c **** *               ptx_buf         Pointer to the transmit buffer
1021:..\..\..\..\..\..\uC-Probe\Target\Communication\Generic\Source/probe_com.c **** *
1022:..\..\..\..\..\..\uC-Probe\Target\Communication\Generic\Source/probe_com.c **** *               rx_pkt_size     Size of the receive  packet
1023:..\..\..\..\..\..\uC-Probe\Target\Communication\Generic\Source/probe_com.c **** *
1024:..\..\..\..\..\..\uC-Probe\Target\Communication\Generic\Source/probe_com.c **** *               tx_buf_size     Size of the transmit buffer
1025:..\..\..\..\..\..\uC-Probe\Target\Communication\Generic\Source/probe_com.c **** *
1026:..\..\..\..\..\..\uC-Probe\Target\Communication\Generic\Source/probe_com.c **** * Return(s)   : The number of bytes written to the tx buffer.
1027:..\..\..\..\..\..\uC-Probe\Target\Communication\Generic\Source/probe_com.c **** *
1028:..\..\..\..\..\..\uC-Probe\Target\Communication\Generic\Source/probe_com.c **** * Caller(s)   : ProbeCom_ParseRxPkt().
1029:..\..\..\..\..\..\uC-Probe\Target\Communication\Generic\Source/probe_com.c **** *
1030:..\..\..\..\..\..\uC-Probe\Target\Communication\Generic\Source/probe_com.c **** * Note(s)     : (1) The RX format:
1031:..\..\..\..\..\..\uC-Probe\Target\Communication\Generic\Source/probe_com.c **** *
1032:..\..\..\..\..\..\uC-Probe\Target\Communication\Generic\Source/probe_com.c **** *                   (A) A 2-byte format, indicating the data segment format;
1033:..\..\..\..\..\..\uC-Probe\Target\Communication\Generic\Source/probe_com.c **** *                   (B) A 2-byte query , indicating the query type.
1034:..\..\..\..\..\..\uC-Probe\Target\Communication\Generic\Source/probe_com.c **** *
1035:..\..\..\..\..\..\uC-Probe\Target\Communication\Generic\Source/probe_com.c **** *                         +-------------------------+-------------------------+
1036:..\..\..\..\..\..\uC-Probe\Target\Communication\Generic\Source/probe_com.c **** *                         |          Format         |          Query          |
1037:..\..\..\..\..\..\uC-Probe\Target\Communication\Generic\Source/probe_com.c **** *                         +-------------------------+-------------------------+
1038:..\..\..\..\..\..\uC-Probe\Target\Communication\Generic\Source/probe_com.c **** *
1039:..\..\..\..\..\..\uC-Probe\Target\Communication\Generic\Source/probe_com.c **** *              (2) The TX format:
1040:..\..\..\..\..\..\uC-Probe\Target\Communication\Generic\Source/probe_com.c **** *
1041:..\..\..\..\..\..\uC-Probe\Target\Communication\Generic\Source/probe_com.c **** *                   (A) A 2-byte format, indicating the data segment format;
1042:..\..\..\..\..\..\uC-Probe\Target\Communication\Generic\Source/probe_com.c **** *                   (B) A 1-byte status, indicating the status after the request;
1043:..\..\..\..\..\..\uC-Probe\Target\Communication\Generic\Source/probe_com.c **** *                   (C) A 1-byte modifier;
1044:..\..\..\..\..\..\uC-Probe\Target\Communication\Generic\Source/probe_com.c **** *                   (E) A n-byte answer, the answer to the query.
1045:..\..\..\..\..\..\uC-Probe\Target\Communication\Generic\Source/probe_com.c **** *
ARM GAS  C:\Users\alex\AppData\Local\Temp\ccKfBJGu.s 			page 26


1046:..\..\..\..\..\..\uC-Probe\Target\Communication\Generic\Source/probe_com.c **** *                         +-------------------------+------------+------------+
1047:..\..\..\..\..\..\uC-Probe\Target\Communication\Generic\Source/probe_com.c **** *                         |          Format         |   Status   |  Modifier  |
1048:..\..\..\..\..\..\uC-Probe\Target\Communication\Generic\Source/probe_com.c **** *                         +-------------------------+------------+------------+
1049:..\..\..\..\..\..\uC-Probe\Target\Communication\Generic\Source/probe_com.c **** *                         |                       Answer                      |
1050:..\..\..\..\..\..\uC-Probe\Target\Communication\Generic\Source/probe_com.c **** *                         |                         .                         |
1051:..\..\..\..\..\..\uC-Probe\Target\Communication\Generic\Source/probe_com.c **** *                         |                         .                         |
1052:..\..\..\..\..\..\uC-Probe\Target\Communication\Generic\Source/probe_com.c **** *                         |                         .                         |
1053:..\..\..\..\..\..\uC-Probe\Target\Communication\Generic\Source/probe_com.c **** *                         +---------------------------------------------------+
1054:..\..\..\..\..\..\uC-Probe\Target\Communication\Generic\Source/probe_com.c **** *
1055:..\..\..\..\..\..\uC-Probe\Target\Communication\Generic\Source/probe_com.c **** ***************************************************************************************************
1056:..\..\..\..\..\..\uC-Probe\Target\Communication\Generic\Source/probe_com.c **** */
1057:..\..\..\..\..\..\uC-Probe\Target\Communication\Generic\Source/probe_com.c **** 
1058:..\..\..\..\..\..\uC-Probe\Target\Communication\Generic\Source/probe_com.c **** static  CPU_SIZE_T  ProbeCom_ReqQuery (CPU_INT08U  *prx_buf,
1059:..\..\..\..\..\..\uC-Probe\Target\Communication\Generic\Source/probe_com.c ****                                        CPU_INT08U  *ptx_buf,
1060:..\..\..\..\..\..\uC-Probe\Target\Communication\Generic\Source/probe_com.c ****                                        CPU_SIZE_T   rx_pkt_size,
1061:..\..\..\..\..\..\uC-Probe\Target\Communication\Generic\Source/probe_com.c ****                                        CPU_SIZE_T   tx_buf_size)
1062:..\..\..\..\..\..\uC-Probe\Target\Communication\Generic\Source/probe_com.c **** {
 381              		.loc 1 1062 0
 382              		.cfi_startproc
 383              		@ args = 0, pretend = 0, frame = 32
 384              		@ frame_needed = 1, uses_anonymous_args = 0
 385 0000 80B5     		push	{r7, lr}
 386              		.cfi_def_cfa_offset 8
 387              		.cfi_offset 7, -8
 388              		.cfi_offset 14, -4
 389 0002 88B0     		sub	sp, sp, #32
 390              		.cfi_def_cfa_offset 40
 391 0004 00AF     		add	r7, sp, #0
 392              		.cfi_def_cfa_register 7
 393 0006 F860     		str	r0, [r7, #12]
 394 0008 B960     		str	r1, [r7, #8]
 395 000a 7A60     		str	r2, [r7, #4]
 396 000c 3B60     		str	r3, [r7]
1063:..\..\..\..\..\..\uC-Probe\Target\Communication\Generic\Source/probe_com.c ****     CPU_INT16U  query;
1064:..\..\..\..\..\..\uC-Probe\Target\Communication\Generic\Source/probe_com.c ****     CPU_INT32U  status;
1065:..\..\..\..\..\..\uC-Probe\Target\Communication\Generic\Source/probe_com.c ****     CPU_SIZE_T  tx_len;
1066:..\..\..\..\..\..\uC-Probe\Target\Communication\Generic\Source/probe_com.c ****     CPU_INT32U  version;
1067:..\..\..\..\..\..\uC-Probe\Target\Communication\Generic\Source/probe_com.c **** 
1068:..\..\..\..\..\..\uC-Probe\Target\Communication\Generic\Source/probe_com.c **** 
1069:..\..\..\..\..\..\uC-Probe\Target\Communication\Generic\Source/probe_com.c ****    (void)&tx_buf_size;                                          /* Prevent compiler warning.       
1070:..\..\..\..\..\..\uC-Probe\Target\Communication\Generic\Source/probe_com.c **** 
1071:..\..\..\..\..\..\uC-Probe\Target\Communication\Generic\Source/probe_com.c ****                                                                 /* ------------------- CHK PKT SIZE
1072:..\..\..\..\..\..\uC-Probe\Target\Communication\Generic\Source/probe_com.c ****                                                                 /* Expected size =  2 (= Rx hdr siz
1073:..\..\..\..\..\..\uC-Probe\Target\Communication\Generic\Source/probe_com.c ****                                                                 /*               +  2 (= Query     
1074:..\..\..\..\..\..\uC-Probe\Target\Communication\Generic\Source/probe_com.c ****     if (rx_pkt_size != 4u) {
 397              		.loc 1 1074 0
 398 000e 7B68     		ldr	r3, [r7, #4]
 399 0010 042B     		cmp	r3, #4
 400 0012 07D0     		beq	.L25
1075:..\..\..\..\..\..\uC-Probe\Target\Communication\Generic\Source/probe_com.c ****         tx_len = ProbeCom_ReqErr(ptx_buf, PROBE_COM_STATUS_RX_PKT_WRONG_SIZE);
 401              		.loc 1 1075 0
 402 0014 BB68     		ldr	r3, [r7, #8]
 403 0016 FE21     		movs	r1, #254
 404 0018 1846     		mov	r0, r3
 405 001a FFF7FEFF 		bl	ProbeCom_ReqErr
 406 001e F861     		str	r0, [r7, #28]
1076:..\..\..\..\..\..\uC-Probe\Target\Communication\Generic\Source/probe_com.c ****         return (tx_len);
ARM GAS  C:\Users\alex\AppData\Local\Temp\ccKfBJGu.s 			page 27


 407              		.loc 1 1076 0
 408 0020 FB69     		ldr	r3, [r7, #28]
 409 0022 C7E0     		b	.L40
 410              	.L25:
1077:..\..\..\..\..\..\uC-Probe\Target\Communication\Generic\Source/probe_com.c ****     }
1078:..\..\..\..\..\..\uC-Probe\Target\Communication\Generic\Source/probe_com.c **** 
1079:..\..\..\..\..\..\uC-Probe\Target\Communication\Generic\Source/probe_com.c ****                                                                 /* ------------------- HANDLE QUERY
1080:..\..\..\..\..\..\uC-Probe\Target\Communication\Generic\Source/probe_com.c ****     query = ProbeCom_GetINT16U(&prx_buf);                       /* Rd the query.                   
 411              		.loc 1 1080 0
 412 0024 07F10C03 		add	r3, r7, #12
 413 0028 1846     		mov	r0, r3
 414 002a FFF7FEFF 		bl	ProbeCom_GetINT16U
 415 002e 0346     		mov	r3, r0
 416 0030 7B83     		strh	r3, [r7, #26]	@ movhi
1081:..\..\..\..\..\..\uC-Probe\Target\Communication\Generic\Source/probe_com.c **** 
1082:..\..\..\..\..\..\uC-Probe\Target\Communication\Generic\Source/probe_com.c ****     switch (query) {                                            /* Determine if query is supported.
 417              		.loc 1 1082 0
 418 0032 7B8B     		ldrh	r3, [r7, #26]
 419 0034 40F20222 		movw	r2, #514
 420 0038 9342     		cmp	r3, r2
 421 003a 07DC     		bgt	.L28
 422 003c B3F5007F 		cmp	r3, #512
 423 0040 11DC     		bgt	.L41
 424 0042 A3F20113 		subw	r3, r3, #257
 425 0046 012B     		cmp	r3, #1
 426 0048 05D8     		bhi	.L27
1083:..\..\..\..\..\..\uC-Probe\Target\Communication\Generic\Source/probe_com.c ****         case PROBE_COM_QUERY_MAX_RX_SIZE:
1084:..\..\..\..\..\..\uC-Probe\Target\Communication\Generic\Source/probe_com.c ****         case PROBE_COM_QUERY_MAX_TX_SIZE:
1085:..\..\..\..\..\..\uC-Probe\Target\Communication\Generic\Source/probe_com.c ****         case PROBE_COM_QUERY_FMT_SUPPORT:
1086:..\..\..\..\..\..\uC-Probe\Target\Communication\Generic\Source/probe_com.c ****         case PROBE_COM_QUERY_ENDIANNESS_TEST:
1087:..\..\..\..\..\..\uC-Probe\Target\Communication\Generic\Source/probe_com.c ****         case PROBE_COM_QUERY_STATUS:
1088:..\..\..\..\..\..\uC-Probe\Target\Communication\Generic\Source/probe_com.c ****         case PROBE_COM_QUERY_VERSION:
1089:..\..\..\..\..\..\uC-Probe\Target\Communication\Generic\Source/probe_com.c ****              break;
 427              		.loc 1 1089 0
 428 004a 0CE0     		b	.L41
 429              	.L28:
1082:..\..\..\..\..\..\uC-Probe\Target\Communication\Generic\Source/probe_com.c ****         case PROBE_COM_QUERY_MAX_RX_SIZE:
 430              		.loc 1 1082 0
 431 004c A3F58053 		sub	r3, r3, #4096
 432 0050 013B     		subs	r3, r3, #1
 433 0052 012B     		cmp	r3, #1
 434 0054 07D9     		bls	.L41
 435              	.L27:
1090:..\..\..\..\..\..\uC-Probe\Target\Communication\Generic\Source/probe_com.c **** 
1091:..\..\..\..\..\..\uC-Probe\Target\Communication\Generic\Source/probe_com.c ****         default:
1092:..\..\..\..\..\..\uC-Probe\Target\Communication\Generic\Source/probe_com.c ****              tx_len = ProbeCom_ReqErr(ptx_buf, PROBE_COM_STATUS_QUERY_NOT_SUPPORTED);
 436              		.loc 1 1092 0
 437 0056 BB68     		ldr	r3, [r7, #8]
 438 0058 FC21     		movs	r1, #252
 439 005a 1846     		mov	r0, r3
 440 005c FFF7FEFF 		bl	ProbeCom_ReqErr
 441 0060 F861     		str	r0, [r7, #28]
1093:..\..\..\..\..\..\uC-Probe\Target\Communication\Generic\Source/probe_com.c ****              return (tx_len);
 442              		.loc 1 1093 0
 443 0062 FB69     		ldr	r3, [r7, #28]
 444 0064 A6E0     		b	.L40
 445              	.L41:
ARM GAS  C:\Users\alex\AppData\Local\Temp\ccKfBJGu.s 			page 28


1089:..\..\..\..\..\..\uC-Probe\Target\Communication\Generic\Source/probe_com.c **** 
 446              		.loc 1 1089 0
 447 0066 00BF     		nop
1094:..\..\..\..\..\..\uC-Probe\Target\Communication\Generic\Source/probe_com.c ****     }
1095:..\..\..\..\..\..\uC-Probe\Target\Communication\Generic\Source/probe_com.c **** 
1096:..\..\..\..\..\..\uC-Probe\Target\Communication\Generic\Source/probe_com.c ****                                                                 /* Sto tx pkt hdr :                
1097:..\..\..\..\..\..\uC-Probe\Target\Communication\Generic\Source/probe_com.c ****     ProbeCom_StoINT16U(&ptx_buf, PROBE_COM_FMT_TX_QUERY);       /*  (a) TX pkt fmt.                
 448              		.loc 1 1097 0
 449 0068 07F10803 		add	r3, r7, #8
 450 006c 48F20101 		movw	r1, #32769
 451 0070 1846     		mov	r0, r3
 452 0072 FFF7FEFF 		bl	ProbeCom_StoINT16U
1098:..\..\..\..\..\..\uC-Probe\Target\Communication\Generic\Source/probe_com.c ****     ProbeCom_StoINT08U(&ptx_buf, PROBE_COM_STATUS_OK);          /*  (b) Target status.             
 453              		.loc 1 1098 0
 454 0076 07F10803 		add	r3, r7, #8
 455 007a 0121     		movs	r1, #1
 456 007c 1846     		mov	r0, r3
 457 007e FFF7FEFF 		bl	ProbeCom_StoINT08U
1099:..\..\..\..\..\..\uC-Probe\Target\Communication\Generic\Source/probe_com.c ****     ProbeCom_StoINT08U(&ptx_buf, ProbeCom_PktModifier());       /*  (c) Modifier.                  
 458              		.loc 1 1099 0
 459 0082 FFF7FEFF 		bl	ProbeCom_PktModifier
 460 0086 0346     		mov	r3, r0
 461 0088 1A46     		mov	r2, r3
 462 008a 07F10803 		add	r3, r7, #8
 463 008e 1146     		mov	r1, r2
 464 0090 1846     		mov	r0, r3
 465 0092 FFF7FEFF 		bl	ProbeCom_StoINT08U
1100:..\..\..\..\..\..\uC-Probe\Target\Communication\Generic\Source/probe_com.c **** 
1101:..\..\..\..\..\..\uC-Probe\Target\Communication\Generic\Source/probe_com.c ****                                                                 /* Sto tx data segment data.       
1102:..\..\..\..\..\..\uC-Probe\Target\Communication\Generic\Source/probe_com.c ****     switch (query) {
 466              		.loc 1 1102 0
 467 0096 7B8B     		ldrh	r3, [r7, #26]
 468 0098 40F20122 		movw	r2, #513
 469 009c 9342     		cmp	r3, r2
 470 009e 5CD0     		beq	.L32
 471 00a0 40F20122 		movw	r2, #513
 472 00a4 9342     		cmp	r3, r2
 473 00a6 07DC     		bgt	.L33
 474 00a8 40F20112 		movw	r2, #257
 475 00ac 9342     		cmp	r3, r2
 476 00ae 10D0     		beq	.L34
 477 00b0 B3F5817F 		cmp	r3, #258
 478 00b4 1DD0     		beq	.L35
 479 00b6 76E0     		b	.L31
 480              	.L33:
 481 00b8 41F20102 		movw	r2, #4097
 482 00bc 9342     		cmp	r3, r2
 483 00be 28D0     		beq	.L36
 484 00c0 41F20202 		movw	r2, #4098
 485 00c4 9342     		cmp	r3, r2
 486 00c6 62D0     		beq	.L37
 487 00c8 40F20222 		movw	r2, #514
 488 00cc 9342     		cmp	r3, r2
 489 00ce 50D0     		beq	.L38
 490 00d0 69E0     		b	.L31
 491              	.L34:
1103:..\..\..\..\..\..\uC-Probe\Target\Communication\Generic\Source/probe_com.c ****         case PROBE_COM_QUERY_MAX_RX_SIZE:
ARM GAS  C:\Users\alex\AppData\Local\Temp\ccKfBJGu.s 			page 29


1104:..\..\..\..\..\..\uC-Probe\Target\Communication\Generic\Source/probe_com.c ****              ProbeCom_StoINT16U(&ptx_buf, PROBE_COM_CFG_RX_MAX_SIZE);
 492              		.loc 1 1104 0
 493 00d2 07F10803 		add	r3, r7, #8
 494 00d6 4FF40071 		mov	r1, #512
 495 00da 1846     		mov	r0, r3
 496 00dc FFF7FEFF 		bl	ProbeCom_StoINT16U
1105:..\..\..\..\..\..\uC-Probe\Target\Communication\Generic\Source/probe_com.c ****              ProbeCom_StoINT16U(&ptx_buf, 0);
 497              		.loc 1 1105 0
 498 00e0 07F10803 		add	r3, r7, #8
 499 00e4 0021     		movs	r1, #0
 500 00e6 1846     		mov	r0, r3
 501 00e8 FFF7FEFF 		bl	ProbeCom_StoINT16U
1106:..\..\..\..\..\..\uC-Probe\Target\Communication\Generic\Source/probe_com.c ****              tx_len  = 4u;
 502              		.loc 1 1106 0
 503 00ec 0423     		movs	r3, #4
 504 00ee FB61     		str	r3, [r7, #28]
1107:..\..\..\..\..\..\uC-Probe\Target\Communication\Generic\Source/probe_com.c ****              break;
 505              		.loc 1 1107 0
 506 00f0 5CE0     		b	.L39
 507              	.L35:
1108:..\..\..\..\..\..\uC-Probe\Target\Communication\Generic\Source/probe_com.c **** 
1109:..\..\..\..\..\..\uC-Probe\Target\Communication\Generic\Source/probe_com.c **** 
1110:..\..\..\..\..\..\uC-Probe\Target\Communication\Generic\Source/probe_com.c ****         case PROBE_COM_QUERY_MAX_TX_SIZE:
1111:..\..\..\..\..\..\uC-Probe\Target\Communication\Generic\Source/probe_com.c ****              ProbeCom_StoINT16U(&ptx_buf, PROBE_COM_CFG_TX_MAX_SIZE);
 508              		.loc 1 1111 0
 509 00f2 07F10803 		add	r3, r7, #8
 510 00f6 4FF40071 		mov	r1, #512
 511 00fa 1846     		mov	r0, r3
 512 00fc FFF7FEFF 		bl	ProbeCom_StoINT16U
1112:..\..\..\..\..\..\uC-Probe\Target\Communication\Generic\Source/probe_com.c ****              ProbeCom_StoINT16U(&ptx_buf, 0);
 513              		.loc 1 1112 0
 514 0100 07F10803 		add	r3, r7, #8
 515 0104 0021     		movs	r1, #0
 516 0106 1846     		mov	r0, r3
 517 0108 FFF7FEFF 		bl	ProbeCom_StoINT16U
1113:..\..\..\..\..\..\uC-Probe\Target\Communication\Generic\Source/probe_com.c ****              tx_len  = 4u;
 518              		.loc 1 1113 0
 519 010c 0423     		movs	r3, #4
 520 010e FB61     		str	r3, [r7, #28]
1114:..\..\..\..\..\..\uC-Probe\Target\Communication\Generic\Source/probe_com.c ****              break;
 521              		.loc 1 1114 0
 522 0110 4CE0     		b	.L39
 523              	.L36:
1115:..\..\..\..\..\..\uC-Probe\Target\Communication\Generic\Source/probe_com.c **** 
1116:..\..\..\..\..\..\uC-Probe\Target\Communication\Generic\Source/probe_com.c **** 
1117:..\..\..\..\..\..\uC-Probe\Target\Communication\Generic\Source/probe_com.c ****         case PROBE_COM_QUERY_FMT_SUPPORT:
1118:..\..\..\..\..\..\uC-Probe\Target\Communication\Generic\Source/probe_com.c ****              ProbeCom_StoINT16U(&ptx_buf, PROBE_COM_FMT_RX_QUERY);
 524              		.loc 1 1118 0
 525 0112 07F10803 		add	r3, r7, #8
 526 0116 0121     		movs	r1, #1
 527 0118 1846     		mov	r0, r3
 528 011a FFF7FEFF 		bl	ProbeCom_StoINT16U
1119:..\..\..\..\..\..\uC-Probe\Target\Communication\Generic\Source/probe_com.c ****              ProbeCom_StoINT16U(&ptx_buf, PROBE_COM_FMT_RX_RD);
 529              		.loc 1 1119 0
 530 011e 07F10803 		add	r3, r7, #8
 531 0122 0221     		movs	r1, #2
 532 0124 1846     		mov	r0, r3
ARM GAS  C:\Users\alex\AppData\Local\Temp\ccKfBJGu.s 			page 30


 533 0126 FFF7FEFF 		bl	ProbeCom_StoINT16U
1120:..\..\..\..\..\..\uC-Probe\Target\Communication\Generic\Source/probe_com.c ****              ProbeCom_StoINT16U(&ptx_buf, PROBE_COM_FMT_RX_RD_MULTI);
 534              		.loc 1 1120 0
 535 012a 07F10803 		add	r3, r7, #8
 536 012e 0721     		movs	r1, #7
 537 0130 1846     		mov	r0, r3
 538 0132 FFF7FEFF 		bl	ProbeCom_StoINT16U
1121:..\..\..\..\..\..\uC-Probe\Target\Communication\Generic\Source/probe_com.c ****              tx_len  = 8u;
 539              		.loc 1 1121 0
 540 0136 0823     		movs	r3, #8
 541 0138 FB61     		str	r3, [r7, #28]
1122:..\..\..\..\..\..\uC-Probe\Target\Communication\Generic\Source/probe_com.c **** #if (PROBE_COM_CFG_WR_REQ_EN == DEF_ENABLED)
1123:..\..\..\..\..\..\uC-Probe\Target\Communication\Generic\Source/probe_com.c ****              ProbeCom_StoINT16U(&ptx_buf, PROBE_COM_FMT_RX_WR);
 542              		.loc 1 1123 0
 543 013a 07F10803 		add	r3, r7, #8
 544 013e 0321     		movs	r1, #3
 545 0140 1846     		mov	r0, r3
 546 0142 FFF7FEFF 		bl	ProbeCom_StoINT16U
1124:..\..\..\..\..\..\uC-Probe\Target\Communication\Generic\Source/probe_com.c ****              ProbeCom_StoINT16U(&ptx_buf, PROBE_COM_FMT_RX_WR_MULTI);
 547              		.loc 1 1124 0
 548 0146 07F10803 		add	r3, r7, #8
 549 014a 0821     		movs	r1, #8
 550 014c 1846     		mov	r0, r3
 551 014e FFF7FEFF 		bl	ProbeCom_StoINT16U
1125:..\..\..\..\..\..\uC-Probe\Target\Communication\Generic\Source/probe_com.c ****              tx_len += 4u;
 552              		.loc 1 1125 0
 553 0152 FB69     		ldr	r3, [r7, #28]
 554 0154 0433     		adds	r3, r3, #4
 555 0156 FB61     		str	r3, [r7, #28]
1126:..\..\..\..\..\..\uC-Probe\Target\Communication\Generic\Source/probe_com.c **** #endif
1127:..\..\..\..\..\..\uC-Probe\Target\Communication\Generic\Source/probe_com.c **** #if (PROBE_COM_CFG_STR_REQ_EN == DEF_ENABLED)
1128:..\..\..\..\..\..\uC-Probe\Target\Communication\Generic\Source/probe_com.c ****              ProbeCom_StoINT16U(&ptx_buf, PROBE_COM_FMT_RX_STR_IN);
1129:..\..\..\..\..\..\uC-Probe\Target\Communication\Generic\Source/probe_com.c ****              ProbeCom_StoINT16U(&ptx_buf, PROBE_COM_FMT_RX_STR_OUT);
1130:..\..\..\..\..\..\uC-Probe\Target\Communication\Generic\Source/probe_com.c ****              tx_len += 4u;
1131:..\..\..\..\..\..\uC-Probe\Target\Communication\Generic\Source/probe_com.c **** #endif
1132:..\..\..\..\..\..\uC-Probe\Target\Communication\Generic\Source/probe_com.c **** #if (PROBE_COM_CFG_TERMINAL_REQ_EN == DEF_ENABLED)
1133:..\..\..\..\..\..\uC-Probe\Target\Communication\Generic\Source/probe_com.c ****              ProbeCom_StoINT16U(&ptx_buf, PROBE_COM_FMT_RX_TERMINAL_EXEC);
1134:..\..\..\..\..\..\uC-Probe\Target\Communication\Generic\Source/probe_com.c ****              ProbeCom_StoINT16U(&ptx_buf, PROBE_COM_FMT_RX_TERMINAL_IN);
1135:..\..\..\..\..\..\uC-Probe\Target\Communication\Generic\Source/probe_com.c ****              ProbeCom_StoINT16U(&ptx_buf, PROBE_COM_FMT_RX_TERMINAL_OUT);
1136:..\..\..\..\..\..\uC-Probe\Target\Communication\Generic\Source/probe_com.c ****              tx_len += 6u;
1137:..\..\..\..\..\..\uC-Probe\Target\Communication\Generic\Source/probe_com.c **** #endif
1138:..\..\..\..\..\..\uC-Probe\Target\Communication\Generic\Source/probe_com.c ****              break;
 556              		.loc 1 1138 0
 557 0158 28E0     		b	.L39
 558              	.L32:
1139:..\..\..\..\..\..\uC-Probe\Target\Communication\Generic\Source/probe_com.c **** 
1140:..\..\..\..\..\..\uC-Probe\Target\Communication\Generic\Source/probe_com.c **** 
1141:..\..\..\..\..\..\uC-Probe\Target\Communication\Generic\Source/probe_com.c ****         case PROBE_COM_QUERY_ENDIANNESS_TEST:
1142:..\..\..\..\..\..\uC-Probe\Target\Communication\Generic\Source/probe_com.c ****              ProbeCom_EndiannessTest = 0x12345678;
 559              		.loc 1 1142 0
 560 015a 184B     		ldr	r3, .L42
 561 015c 184A     		ldr	r2, .L42+4
 562 015e 1A60     		str	r2, [r3]
1143:..\..\..\..\..\..\uC-Probe\Target\Communication\Generic\Source/probe_com.c ****              Mem_Copy((void     *) ptx_buf,
 563              		.loc 1 1143 0
 564 0160 BB68     		ldr	r3, [r7, #8]
 565 0162 0422     		movs	r2, #4
ARM GAS  C:\Users\alex\AppData\Local\Temp\ccKfBJGu.s 			page 31


 566 0164 1549     		ldr	r1, .L42
 567 0166 1846     		mov	r0, r3
 568 0168 FFF7FEFF 		bl	Mem_Copy
1144:..\..\..\..\..\..\uC-Probe\Target\Communication\Generic\Source/probe_com.c ****                       (void     *)&ProbeCom_EndiannessTest,
1145:..\..\..\..\..\..\uC-Probe\Target\Communication\Generic\Source/probe_com.c ****                       (CPU_SIZE_T) 4);
1146:..\..\..\..\..\..\uC-Probe\Target\Communication\Generic\Source/probe_com.c ****              tx_len  = 4u;
 569              		.loc 1 1146 0
 570 016c 0423     		movs	r3, #4
 571 016e FB61     		str	r3, [r7, #28]
1147:..\..\..\..\..\..\uC-Probe\Target\Communication\Generic\Source/probe_com.c ****              break;
 572              		.loc 1 1147 0
 573 0170 1CE0     		b	.L39
 574              	.L38:
1148:..\..\..\..\..\..\uC-Probe\Target\Communication\Generic\Source/probe_com.c **** 
1149:..\..\..\..\..\..\uC-Probe\Target\Communication\Generic\Source/probe_com.c **** 
1150:..\..\..\..\..\..\uC-Probe\Target\Communication\Generic\Source/probe_com.c ****         case PROBE_COM_QUERY_STATUS:
1151:..\..\..\..\..\..\uC-Probe\Target\Communication\Generic\Source/probe_com.c ****              status = (CPU_INT32U)ProbeCom_PktModifier();
 575              		.loc 1 1151 0
 576 0172 FFF7FEFF 		bl	ProbeCom_PktModifier
 577 0176 0346     		mov	r3, r0
 578 0178 7B61     		str	r3, [r7, #20]
1152:..\..\..\..\..\..\uC-Probe\Target\Communication\Generic\Source/probe_com.c ****              Mem_Copy((void     *) ptx_buf,
 579              		.loc 1 1152 0
 580 017a BB68     		ldr	r3, [r7, #8]
 581 017c 07F11401 		add	r1, r7, #20
 582 0180 0422     		movs	r2, #4
 583 0182 1846     		mov	r0, r3
 584 0184 FFF7FEFF 		bl	Mem_Copy
1153:..\..\..\..\..\..\uC-Probe\Target\Communication\Generic\Source/probe_com.c ****                       (void     *)&status,
1154:..\..\..\..\..\..\uC-Probe\Target\Communication\Generic\Source/probe_com.c ****                       (CPU_SIZE_T) 4);
1155:..\..\..\..\..\..\uC-Probe\Target\Communication\Generic\Source/probe_com.c ****              tx_len = 4u;
 585              		.loc 1 1155 0
 586 0188 0423     		movs	r3, #4
 587 018a FB61     		str	r3, [r7, #28]
1156:..\..\..\..\..\..\uC-Probe\Target\Communication\Generic\Source/probe_com.c ****              break;
 588              		.loc 1 1156 0
 589 018c 0EE0     		b	.L39
 590              	.L37:
1157:..\..\..\..\..\..\uC-Probe\Target\Communication\Generic\Source/probe_com.c **** 
1158:..\..\..\..\..\..\uC-Probe\Target\Communication\Generic\Source/probe_com.c **** 
1159:..\..\..\..\..\..\uC-Probe\Target\Communication\Generic\Source/probe_com.c ****         case PROBE_COM_QUERY_VERSION:
1160:..\..\..\..\..\..\uC-Probe\Target\Communication\Generic\Source/probe_com.c ****              version = PROBE_COM_VERSION;
 591              		.loc 1 1160 0
 592 018e DC23     		movs	r3, #220
 593 0190 3B61     		str	r3, [r7, #16]
1161:..\..\..\..\..\..\uC-Probe\Target\Communication\Generic\Source/probe_com.c ****              Mem_Copy((void     *) ptx_buf,
 594              		.loc 1 1161 0
 595 0192 BB68     		ldr	r3, [r7, #8]
 596 0194 07F11001 		add	r1, r7, #16
 597 0198 0422     		movs	r2, #4
 598 019a 1846     		mov	r0, r3
 599 019c FFF7FEFF 		bl	Mem_Copy
1162:..\..\..\..\..\..\uC-Probe\Target\Communication\Generic\Source/probe_com.c ****                       (void     *)&version,
1163:..\..\..\..\..\..\uC-Probe\Target\Communication\Generic\Source/probe_com.c ****                       (CPU_SIZE_T) 4);
1164:..\..\..\..\..\..\uC-Probe\Target\Communication\Generic\Source/probe_com.c ****              tx_len  = 4u;
 600              		.loc 1 1164 0
 601 01a0 0423     		movs	r3, #4
ARM GAS  C:\Users\alex\AppData\Local\Temp\ccKfBJGu.s 			page 32


 602 01a2 FB61     		str	r3, [r7, #28]
1165:..\..\..\..\..\..\uC-Probe\Target\Communication\Generic\Source/probe_com.c ****              break;
 603              		.loc 1 1165 0
 604 01a4 02E0     		b	.L39
 605              	.L31:
1166:..\..\..\..\..\..\uC-Probe\Target\Communication\Generic\Source/probe_com.c **** 
1167:..\..\..\..\..\..\uC-Probe\Target\Communication\Generic\Source/probe_com.c **** 
1168:..\..\..\..\..\..\uC-Probe\Target\Communication\Generic\Source/probe_com.c ****         default:
1169:..\..\..\..\..\..\uC-Probe\Target\Communication\Generic\Source/probe_com.c ****              tx_len  = 0u;
 606              		.loc 1 1169 0
 607 01a6 0023     		movs	r3, #0
 608 01a8 FB61     		str	r3, [r7, #28]
1170:..\..\..\..\..\..\uC-Probe\Target\Communication\Generic\Source/probe_com.c ****              break;
 609              		.loc 1 1170 0
 610 01aa 00BF     		nop
 611              	.L39:
1171:..\..\..\..\..\..\uC-Probe\Target\Communication\Generic\Source/probe_com.c ****     }
1172:..\..\..\..\..\..\uC-Probe\Target\Communication\Generic\Source/probe_com.c **** 
1173:..\..\..\..\..\..\uC-Probe\Target\Communication\Generic\Source/probe_com.c ****                                                                 /* ------------------ RTN TX PKT SI
1174:..\..\..\..\..\..\uC-Probe\Target\Communication\Generic\Source/probe_com.c ****     tx_len += PROBE_COM_SIZE_TX_HDR;
 612              		.loc 1 1174 0
 613 01ac FB69     		ldr	r3, [r7, #28]
 614 01ae 0433     		adds	r3, r3, #4
 615 01b0 FB61     		str	r3, [r7, #28]
1175:..\..\..\..\..\..\uC-Probe\Target\Communication\Generic\Source/probe_com.c ****     return (tx_len);                                            /* TX pkt size = nbytes (= Tx data 
 616              		.loc 1 1175 0
 617 01b2 FB69     		ldr	r3, [r7, #28]
 618              	.L40:
1176:..\..\..\..\..\..\uC-Probe\Target\Communication\Generic\Source/probe_com.c ****                                                                 /*             + 4      (= Tx hdr  
1177:..\..\..\..\..\..\uC-Probe\Target\Communication\Generic\Source/probe_com.c **** }
 619              		.loc 1 1177 0 discriminator 1
 620 01b4 1846     		mov	r0, r3
 621 01b6 2037     		adds	r7, r7, #32
 622              		.cfi_def_cfa_offset 8
 623 01b8 BD46     		mov	sp, r7
 624              		.cfi_def_cfa_register 13
 625              		@ sp needed
 626 01ba 80BD     		pop	{r7, pc}
 627              	.L43:
 628              		.align	2
 629              	.L42:
 630 01bc 00000000 		.word	ProbeCom_EndiannessTest
 631 01c0 78563412 		.word	305419896
 632              		.cfi_endproc
 633              	.LFE4:
 634              		.size	ProbeCom_ReqQuery, .-ProbeCom_ReqQuery
 635              		.section	.text.ProbeCom_ReqRd,"ax",%progbits
 636              		.align	2
 637              		.thumb
 638              		.thumb_func
 639              		.type	ProbeCom_ReqRd, %function
 640              	ProbeCom_ReqRd:
 641              	.LFB5:
1178:..\..\..\..\..\..\uC-Probe\Target\Communication\Generic\Source/probe_com.c **** 
1179:..\..\..\..\..\..\uC-Probe\Target\Communication\Generic\Source/probe_com.c **** 
1180:..\..\..\..\..\..\uC-Probe\Target\Communication\Generic\Source/probe_com.c **** /*
1181:..\..\..\..\..\..\uC-Probe\Target\Communication\Generic\Source/probe_com.c **** ***************************************************************************************************
ARM GAS  C:\Users\alex\AppData\Local\Temp\ccKfBJGu.s 			page 33


1182:..\..\..\..\..\..\uC-Probe\Target\Communication\Generic\Source/probe_com.c **** *                                          ProbeCom_ReqRd()
1183:..\..\..\..\..\..\uC-Probe\Target\Communication\Generic\Source/probe_com.c **** *
1184:..\..\..\..\..\..\uC-Probe\Target\Communication\Generic\Source/probe_com.c **** * Description : Parse the FMT_RD request & formulate response.  This command causes the target to s
1185:..\..\..\..\..\..\uC-Probe\Target\Communication\Generic\Source/probe_com.c **** *               data read from its memory for a certain {memory address, data length} pair (which i
1186:..\..\..\..\..\..\uC-Probe\Target\Communication\Generic\Source/probe_com.c **** *               given in the request).
1187:..\..\..\..\..\..\uC-Probe\Target\Communication\Generic\Source/probe_com.c **** *
1188:..\..\..\..\..\..\uC-Probe\Target\Communication\Generic\Source/probe_com.c **** * Argument(s) : prx_buf         Pointer to the receive  buffer
1189:..\..\..\..\..\..\uC-Probe\Target\Communication\Generic\Source/probe_com.c **** *
1190:..\..\..\..\..\..\uC-Probe\Target\Communication\Generic\Source/probe_com.c **** *               ptx_buf         Pointer to the transmit buffer
1191:..\..\..\..\..\..\uC-Probe\Target\Communication\Generic\Source/probe_com.c **** *
1192:..\..\..\..\..\..\uC-Probe\Target\Communication\Generic\Source/probe_com.c **** *               rx_pkt_size     Size of the receive  packet
1193:..\..\..\..\..\..\uC-Probe\Target\Communication\Generic\Source/probe_com.c **** *
1194:..\..\..\..\..\..\uC-Probe\Target\Communication\Generic\Source/probe_com.c **** *               tx_buf_size     Size of the transmit buffer
1195:..\..\..\..\..\..\uC-Probe\Target\Communication\Generic\Source/probe_com.c **** *
1196:..\..\..\..\..\..\uC-Probe\Target\Communication\Generic\Source/probe_com.c **** * Return(s)   : The number of bytes written to the tx buffer.
1197:..\..\..\..\..\..\uC-Probe\Target\Communication\Generic\Source/probe_com.c **** *
1198:..\..\..\..\..\..\uC-Probe\Target\Communication\Generic\Source/probe_com.c **** * Caller(s)   : ProbeCom_ParseRxPkt().
1199:..\..\..\..\..\..\uC-Probe\Target\Communication\Generic\Source/probe_com.c **** *
1200:..\..\..\..\..\..\uC-Probe\Target\Communication\Generic\Source/probe_com.c **** * Note(s)     : (1) The RX format:
1201:..\..\..\..\..\..\uC-Probe\Target\Communication\Generic\Source/probe_com.c **** *
1202:..\..\..\..\..\..\uC-Probe\Target\Communication\Generic\Source/probe_com.c **** *                   (A) A 2-byte format , indicating the data segment format;
1203:..\..\..\..\..\..\uC-Probe\Target\Communication\Generic\Source/probe_com.c **** *                   (B) A 2-byte length , indicating the number of bytes to read;
1204:..\..\..\..\..\..\uC-Probe\Target\Communication\Generic\Source/probe_com.c **** *                   (C) A 4-byte address, the starting address of the data to read.
1205:..\..\..\..\..\..\uC-Probe\Target\Communication\Generic\Source/probe_com.c **** *
1206:..\..\..\..\..\..\uC-Probe\Target\Communication\Generic\Source/probe_com.c **** *                         +-------------------------+-------------------------+
1207:..\..\..\..\..\..\uC-Probe\Target\Communication\Generic\Source/probe_com.c **** *                         |          Format         |     Number of bytes     |
1208:..\..\..\..\..\..\uC-Probe\Target\Communication\Generic\Source/probe_com.c **** *                         +-------------------------+-------------------------+
1209:..\..\..\..\..\..\uC-Probe\Target\Communication\Generic\Source/probe_com.c **** *                         |                      Address                      |
1210:..\..\..\..\..\..\uC-Probe\Target\Communication\Generic\Source/probe_com.c **** *                         +-------------------------+-------------------------+
1211:..\..\..\..\..\..\uC-Probe\Target\Communication\Generic\Source/probe_com.c **** *
1212:..\..\..\..\..\..\uC-Probe\Target\Communication\Generic\Source/probe_com.c **** *               (2) The TX format:
1213:..\..\..\..\..\..\uC-Probe\Target\Communication\Generic\Source/probe_com.c **** *
1214:..\..\..\..\..\..\uC-Probe\Target\Communication\Generic\Source/probe_com.c **** *                   (A) A 2-byte format, indicating the data segment format;
1215:..\..\..\..\..\..\uC-Probe\Target\Communication\Generic\Source/probe_com.c **** *                   (B) A 1-byte status, indicating the status after the request;
1216:..\..\..\..\..\..\uC-Probe\Target\Communication\Generic\Source/probe_com.c **** *                   (C) A 1-byte modifier;
1217:..\..\..\..\..\..\uC-Probe\Target\Communication\Generic\Source/probe_com.c **** *                   (D) The memory data.
1218:..\..\..\..\..\..\uC-Probe\Target\Communication\Generic\Source/probe_com.c **** *
1219:..\..\..\..\..\..\uC-Probe\Target\Communication\Generic\Source/probe_com.c **** *                         +-------------------------+------------+------------+
1220:..\..\..\..\..\..\uC-Probe\Target\Communication\Generic\Source/probe_com.c **** *                         |          Format         |   Status   |  Modifier  |
1221:..\..\..\..\..\..\uC-Probe\Target\Communication\Generic\Source/probe_com.c **** *                         +-------------------------+------------+------------+
1222:..\..\..\..\..\..\uC-Probe\Target\Communication\Generic\Source/probe_com.c **** *                         |                        Data                       |
1223:..\..\..\..\..\..\uC-Probe\Target\Communication\Generic\Source/probe_com.c **** *                         |                         .                         |
1224:..\..\..\..\..\..\uC-Probe\Target\Communication\Generic\Source/probe_com.c **** *                         |                         .                         |
1225:..\..\..\..\..\..\uC-Probe\Target\Communication\Generic\Source/probe_com.c **** *                         |                         .                         |
1226:..\..\..\..\..\..\uC-Probe\Target\Communication\Generic\Source/probe_com.c **** *                         +---------------------------------------------------+
1227:..\..\..\..\..\..\uC-Probe\Target\Communication\Generic\Source/probe_com.c **** *
1228:..\..\..\..\..\..\uC-Probe\Target\Communication\Generic\Source/probe_com.c **** ***************************************************************************************************
1229:..\..\..\..\..\..\uC-Probe\Target\Communication\Generic\Source/probe_com.c **** */
1230:..\..\..\..\..\..\uC-Probe\Target\Communication\Generic\Source/probe_com.c **** 
1231:..\..\..\..\..\..\uC-Probe\Target\Communication\Generic\Source/probe_com.c **** static  CPU_SIZE_T  ProbeCom_ReqRd (CPU_INT08U  *prx_buf,
1232:..\..\..\..\..\..\uC-Probe\Target\Communication\Generic\Source/probe_com.c ****                                     CPU_INT08U  *ptx_buf,
1233:..\..\..\..\..\..\uC-Probe\Target\Communication\Generic\Source/probe_com.c ****                                     CPU_SIZE_T   rx_pkt_size,
1234:..\..\..\..\..\..\uC-Probe\Target\Communication\Generic\Source/probe_com.c ****                                     CPU_SIZE_T   tx_buf_size)
1235:..\..\..\..\..\..\uC-Probe\Target\Communication\Generic\Source/probe_com.c **** {
 642              		.loc 1 1235 0
 643              		.cfi_startproc
 644              		@ args = 0, pretend = 0, frame = 32
ARM GAS  C:\Users\alex\AppData\Local\Temp\ccKfBJGu.s 			page 34


 645              		@ frame_needed = 1, uses_anonymous_args = 0
 646 0000 80B5     		push	{r7, lr}
 647              		.cfi_def_cfa_offset 8
 648              		.cfi_offset 7, -8
 649              		.cfi_offset 14, -4
 650 0002 88B0     		sub	sp, sp, #32
 651              		.cfi_def_cfa_offset 40
 652 0004 00AF     		add	r7, sp, #0
 653              		.cfi_def_cfa_register 7
 654 0006 F860     		str	r0, [r7, #12]
 655 0008 B960     		str	r1, [r7, #8]
 656 000a 7A60     		str	r2, [r7, #4]
 657 000c 3B60     		str	r3, [r7]
1236:..\..\..\..\..\..\uC-Probe\Target\Communication\Generic\Source/probe_com.c ****     CPU_ADDR    sym_addr;
1237:..\..\..\..\..\..\uC-Probe\Target\Communication\Generic\Source/probe_com.c ****     CPU_SIZE_T  sym_size;
1238:..\..\..\..\..\..\uC-Probe\Target\Communication\Generic\Source/probe_com.c ****     CPU_SIZE_T  tx_len;
1239:..\..\..\..\..\..\uC-Probe\Target\Communication\Generic\Source/probe_com.c **** 
1240:..\..\..\..\..\..\uC-Probe\Target\Communication\Generic\Source/probe_com.c **** 
1241:..\..\..\..\..\..\uC-Probe\Target\Communication\Generic\Source/probe_com.c ****                                                                 /* ------------------- CHK PKT SIZE
1242:..\..\..\..\..\..\uC-Probe\Target\Communication\Generic\Source/probe_com.c ****                                                                 /* Expected size = 2 (= Rx hdr size
1243:..\..\..\..\..\..\uC-Probe\Target\Communication\Generic\Source/probe_com.c ****                                                                 /*               + 2 (= Sym size   
1244:..\..\..\..\..\..\uC-Probe\Target\Communication\Generic\Source/probe_com.c ****                                                                 /*               + 4 (= Sym addr   
1245:..\..\..\..\..\..\uC-Probe\Target\Communication\Generic\Source/probe_com.c ****     if (rx_pkt_size != 8u) {
 658              		.loc 1 1245 0
 659 000e 7B68     		ldr	r3, [r7, #4]
 660 0010 082B     		cmp	r3, #8
 661 0012 07D0     		beq	.L45
1246:..\..\..\..\..\..\uC-Probe\Target\Communication\Generic\Source/probe_com.c ****         tx_len = ProbeCom_ReqErr(ptx_buf, PROBE_COM_STATUS_RX_PKT_WRONG_SIZE);
 662              		.loc 1 1246 0
 663 0014 BB68     		ldr	r3, [r7, #8]
 664 0016 FE21     		movs	r1, #254
 665 0018 1846     		mov	r0, r3
 666 001a FFF7FEFF 		bl	ProbeCom_ReqErr
 667 001e F861     		str	r0, [r7, #28]
1247:..\..\..\..\..\..\uC-Probe\Target\Communication\Generic\Source/probe_com.c ****         return (tx_len);
 668              		.loc 1 1247 0
 669 0020 FB69     		ldr	r3, [r7, #28]
 670 0022 45E0     		b	.L46
 671              	.L45:
1248:..\..\..\..\..\..\uC-Probe\Target\Communication\Generic\Source/probe_com.c ****     }
1249:..\..\..\..\..\..\uC-Probe\Target\Communication\Generic\Source/probe_com.c **** 
1250:..\..\..\..\..\..\uC-Probe\Target\Communication\Generic\Source/probe_com.c **** 
1251:..\..\..\..\..\..\uC-Probe\Target\Communication\Generic\Source/probe_com.c ****                                                                 /* -------------------- HANDLE RD -
1252:..\..\..\..\..\..\uC-Probe\Target\Communication\Generic\Source/probe_com.c ****     sym_size = ProbeCom_GetINT16U(&prx_buf);                    /* Get nbr of bytes to rd.         
 672              		.loc 1 1252 0
 673 0024 07F10C03 		add	r3, r7, #12
 674 0028 1846     		mov	r0, r3
 675 002a FFF7FEFF 		bl	ProbeCom_GetINT16U
 676 002e 0346     		mov	r3, r0
 677 0030 BB61     		str	r3, [r7, #24]
1253:..\..\..\..\..\..\uC-Probe\Target\Communication\Generic\Source/probe_com.c **** 
1254:..\..\..\..\..\..\uC-Probe\Target\Communication\Generic\Source/probe_com.c ****                                                                 /* Get rd addr.                    
1255:..\..\..\..\..\..\uC-Probe\Target\Communication\Generic\Source/probe_com.c **** #if ((!defined(CPU_CFG_ADDR_SIZE)) || \
1256:..\..\..\..\..\..\uC-Probe\Target\Communication\Generic\Source/probe_com.c ****      ((defined(CPU_CFG_ADDR_SIZE)) && \
1257:..\..\..\..\..\..\uC-Probe\Target\Communication\Generic\Source/probe_com.c ****               (CPU_CFG_ADDR_SIZE   != CPU_WORD_SIZE_16)))
1258:..\..\..\..\..\..\uC-Probe\Target\Communication\Generic\Source/probe_com.c ****     sym_addr = (CPU_ADDR)ProbeCom_GetINT32U(&prx_buf);
 678              		.loc 1 1258 0
ARM GAS  C:\Users\alex\AppData\Local\Temp\ccKfBJGu.s 			page 35


 679 0032 07F10C03 		add	r3, r7, #12
 680 0036 1846     		mov	r0, r3
 681 0038 FFF7FEFF 		bl	ProbeCom_GetINT32U
 682 003c 7861     		str	r0, [r7, #20]
1259:..\..\..\..\..\..\uC-Probe\Target\Communication\Generic\Source/probe_com.c **** #else
1260:..\..\..\..\..\..\uC-Probe\Target\Communication\Generic\Source/probe_com.c ****     sym_addr = (CPU_ADDR)ProbeCom_GetINT16U(&prx_buf);
1261:..\..\..\..\..\..\uC-Probe\Target\Communication\Generic\Source/probe_com.c **** #endif
1262:..\..\..\..\..\..\uC-Probe\Target\Communication\Generic\Source/probe_com.c **** 
1263:..\..\..\..\..\..\uC-Probe\Target\Communication\Generic\Source/probe_com.c ****     if (sym_size + PROBE_COM_SIZE_TX_HDR > tx_buf_size) {       /* If tx pkt will NOT fit in buf, r
 683              		.loc 1 1263 0
 684 003e BB69     		ldr	r3, [r7, #24]
 685 0040 1A1D     		adds	r2, r3, #4
 686 0042 3B68     		ldr	r3, [r7]
 687 0044 9A42     		cmp	r2, r3
 688 0046 07D9     		bls	.L47
1264:..\..\..\..\..\..\uC-Probe\Target\Communication\Generic\Source/probe_com.c ****         tx_len = ProbeCom_ReqErr(ptx_buf, PROBE_COM_STATUS_TX_PKT_TOO_LARGE);
 689              		.loc 1 1264 0
 690 0048 BB68     		ldr	r3, [r7, #8]
 691 004a FD21     		movs	r1, #253
 692 004c 1846     		mov	r0, r3
 693 004e FFF7FEFF 		bl	ProbeCom_ReqErr
 694 0052 F861     		str	r0, [r7, #28]
1265:..\..\..\..\..\..\uC-Probe\Target\Communication\Generic\Source/probe_com.c ****         return (tx_len);
 695              		.loc 1 1265 0
 696 0054 FB69     		ldr	r3, [r7, #28]
 697 0056 2BE0     		b	.L46
 698              	.L47:
1266:..\..\..\..\..\..\uC-Probe\Target\Communication\Generic\Source/probe_com.c ****     }
1267:..\..\..\..\..\..\uC-Probe\Target\Communication\Generic\Source/probe_com.c **** 
1268:..\..\..\..\..\..\uC-Probe\Target\Communication\Generic\Source/probe_com.c **** #if (PROBE_COM_CFG_STAT_EN == DEF_ENABLED)
1269:..\..\..\..\..\..\uC-Probe\Target\Communication\Generic\Source/probe_com.c ****     ProbeCom_TxSymCtr++;                                        /* Inc tx sym ctr.                 
 699              		.loc 1 1269 0
 700 0058 174B     		ldr	r3, .L48
 701 005a 1B68     		ldr	r3, [r3]
 702 005c 0133     		adds	r3, r3, #1
 703 005e 164A     		ldr	r2, .L48
 704 0060 1360     		str	r3, [r2]
1270:..\..\..\..\..\..\uC-Probe\Target\Communication\Generic\Source/probe_com.c ****     ProbeCom_TxSymByteCtr += sym_size;
 705              		.loc 1 1270 0
 706 0062 164B     		ldr	r3, .L48+4
 707 0064 1A68     		ldr	r2, [r3]
 708 0066 BB69     		ldr	r3, [r7, #24]
 709 0068 1344     		add	r3, r3, r2
 710 006a 144A     		ldr	r2, .L48+4
 711 006c 1360     		str	r3, [r2]
1271:..\..\..\..\..\..\uC-Probe\Target\Communication\Generic\Source/probe_com.c **** #endif
1272:..\..\..\..\..\..\uC-Probe\Target\Communication\Generic\Source/probe_com.c **** 
1273:..\..\..\..\..\..\uC-Probe\Target\Communication\Generic\Source/probe_com.c ****                                                                 /* Store tx pkt hdr :              
1274:..\..\..\..\..\..\uC-Probe\Target\Communication\Generic\Source/probe_com.c ****     ProbeCom_StoINT16U(&ptx_buf, PROBE_COM_FMT_TX_RD);          /*  (a) Tx pkt fmt.                
 712              		.loc 1 1274 0
 713 006e 07F10803 		add	r3, r7, #8
 714 0072 48F20201 		movw	r1, #32770
 715 0076 1846     		mov	r0, r3
 716 0078 FFF7FEFF 		bl	ProbeCom_StoINT16U
1275:..\..\..\..\..\..\uC-Probe\Target\Communication\Generic\Source/probe_com.c ****     ProbeCom_StoINT08U(&ptx_buf, PROBE_COM_STATUS_OK);          /*  (b) Target status.             
 717              		.loc 1 1275 0
 718 007c 07F10803 		add	r3, r7, #8
ARM GAS  C:\Users\alex\AppData\Local\Temp\ccKfBJGu.s 			page 36


 719 0080 0121     		movs	r1, #1
 720 0082 1846     		mov	r0, r3
 721 0084 FFF7FEFF 		bl	ProbeCom_StoINT08U
1276:..\..\..\..\..\..\uC-Probe\Target\Communication\Generic\Source/probe_com.c ****     ProbeCom_StoINT08U(&ptx_buf, ProbeCom_PktModifier());       /*  (c) Modifier.                  
 722              		.loc 1 1276 0
 723 0088 FFF7FEFF 		bl	ProbeCom_PktModifier
 724 008c 0346     		mov	r3, r0
 725 008e 1A46     		mov	r2, r3
 726 0090 07F10803 		add	r3, r7, #8
 727 0094 1146     		mov	r1, r2
 728 0096 1846     		mov	r0, r3
 729 0098 FFF7FEFF 		bl	ProbeCom_StoINT08U
1277:..\..\..\..\..\..\uC-Probe\Target\Communication\Generic\Source/probe_com.c **** 
1278:..\..\..\..\..\..\uC-Probe\Target\Communication\Generic\Source/probe_com.c ****     Mem_Copy((void     *)ptx_buf,                               /* Save tx data segment data.      
 730              		.loc 1 1278 0
 731 009c BB68     		ldr	r3, [r7, #8]
 732 009e 7969     		ldr	r1, [r7, #20]
 733 00a0 BA69     		ldr	r2, [r7, #24]
 734 00a2 1846     		mov	r0, r3
 735 00a4 FFF7FEFF 		bl	Mem_Copy
1279:..\..\..\..\..\..\uC-Probe\Target\Communication\Generic\Source/probe_com.c ****              (void     *)sym_addr,
1280:..\..\..\..\..\..\uC-Probe\Target\Communication\Generic\Source/probe_com.c ****              (CPU_SIZE_T)sym_size);
1281:..\..\..\..\..\..\uC-Probe\Target\Communication\Generic\Source/probe_com.c **** 
1282:..\..\..\..\..\..\uC-Probe\Target\Communication\Generic\Source/probe_com.c ****                                                                 /* ------------------ RTN TX PKT SI
1283:..\..\..\..\..\..\uC-Probe\Target\Communication\Generic\Source/probe_com.c ****     tx_len = sym_size + PROBE_COM_SIZE_TX_HDR;
 736              		.loc 1 1283 0
 737 00a8 BB69     		ldr	r3, [r7, #24]
 738 00aa 0433     		adds	r3, r3, #4
 739 00ac FB61     		str	r3, [r7, #28]
1284:..\..\..\..\..\..\uC-Probe\Target\Communication\Generic\Source/probe_com.c ****     return (tx_len);                                            /* Tx pkt size = nbytes (= Tx data 
 740              		.loc 1 1284 0
 741 00ae FB69     		ldr	r3, [r7, #28]
 742              	.L46:
1285:..\..\..\..\..\..\uC-Probe\Target\Communication\Generic\Source/probe_com.c ****                                                                 /*             + 4      (= Tx heade
1286:..\..\..\..\..\..\uC-Probe\Target\Communication\Generic\Source/probe_com.c **** }
 743              		.loc 1 1286 0
 744 00b0 1846     		mov	r0, r3
 745 00b2 2037     		adds	r7, r7, #32
 746              		.cfi_def_cfa_offset 8
 747 00b4 BD46     		mov	sp, r7
 748              		.cfi_def_cfa_register 13
 749              		@ sp needed
 750 00b6 80BD     		pop	{r7, pc}
 751              	.L49:
 752              		.align	2
 753              	.L48:
 754 00b8 00000000 		.word	ProbeCom_TxSymCtr
 755 00bc 00000000 		.word	ProbeCom_TxSymByteCtr
 756              		.cfi_endproc
 757              	.LFE5:
 758              		.size	ProbeCom_ReqRd, .-ProbeCom_ReqRd
 759              		.section	.text.ProbeCom_ReqRdMulti,"ax",%progbits
 760              		.align	2
 761              		.thumb
 762              		.thumb_func
 763              		.type	ProbeCom_ReqRdMulti, %function
 764              	ProbeCom_ReqRdMulti:
ARM GAS  C:\Users\alex\AppData\Local\Temp\ccKfBJGu.s 			page 37


 765              	.LFB6:
1287:..\..\..\..\..\..\uC-Probe\Target\Communication\Generic\Source/probe_com.c **** 
1288:..\..\..\..\..\..\uC-Probe\Target\Communication\Generic\Source/probe_com.c **** 
1289:..\..\..\..\..\..\uC-Probe\Target\Communication\Generic\Source/probe_com.c **** /*
1290:..\..\..\..\..\..\uC-Probe\Target\Communication\Generic\Source/probe_com.c **** ***************************************************************************************************
1291:..\..\..\..\..\..\uC-Probe\Target\Communication\Generic\Source/probe_com.c **** *                                        ProbeCom_ReqRdMulti()
1292:..\..\..\..\..\..\uC-Probe\Target\Communication\Generic\Source/probe_com.c **** *
1293:..\..\..\..\..\..\uC-Probe\Target\Communication\Generic\Source/probe_com.c **** * Description : Parse the FMT_RD_MULTI request & formulate respnse.  This command causes the target
1294:..\..\..\..\..\..\uC-Probe\Target\Communication\Generic\Source/probe_com.c **** *               send data read from its memory for a certain set of {memory address, data length} p
1295:..\..\..\..\..\..\uC-Probe\Target\Communication\Generic\Source/probe_com.c **** *               (which are given in the request).
1296:..\..\..\..\..\..\uC-Probe\Target\Communication\Generic\Source/probe_com.c **** *
1297:..\..\..\..\..\..\uC-Probe\Target\Communication\Generic\Source/probe_com.c **** * Argument(s) : prx_buf         Pointer to the receive  buffer
1298:..\..\..\..\..\..\uC-Probe\Target\Communication\Generic\Source/probe_com.c **** *
1299:..\..\..\..\..\..\uC-Probe\Target\Communication\Generic\Source/probe_com.c **** *               ptx_buf         Pointer to the transmit buffer
1300:..\..\..\..\..\..\uC-Probe\Target\Communication\Generic\Source/probe_com.c **** *
1301:..\..\..\..\..\..\uC-Probe\Target\Communication\Generic\Source/probe_com.c **** *               rx_pkt_size     Size of the receive  packet
1302:..\..\..\..\..\..\uC-Probe\Target\Communication\Generic\Source/probe_com.c **** *
1303:..\..\..\..\..\..\uC-Probe\Target\Communication\Generic\Source/probe_com.c **** *               tx_buf_size     Size of the transmit buffer
1304:..\..\..\..\..\..\uC-Probe\Target\Communication\Generic\Source/probe_com.c **** *
1305:..\..\..\..\..\..\uC-Probe\Target\Communication\Generic\Source/probe_com.c **** * Return(s)   : The number of bytes written to the tx buffer.
1306:..\..\..\..\..\..\uC-Probe\Target\Communication\Generic\Source/probe_com.c **** *
1307:..\..\..\..\..\..\uC-Probe\Target\Communication\Generic\Source/probe_com.c **** * Caller(s)   : ProbeCom_ParseRxPkt().
1308:..\..\..\..\..\..\uC-Probe\Target\Communication\Generic\Source/probe_com.c **** *
1309:..\..\..\..\..\..\uC-Probe\Target\Communication\Generic\Source/probe_com.c **** * Note(s)     : (1) The RX format:
1310:..\..\..\..\..\..\uC-Probe\Target\Communication\Generic\Source/probe_com.c **** *
1311:..\..\..\..\..\..\uC-Probe\Target\Communication\Generic\Source/probe_com.c **** *                   (A) A 2-byte format,          indicating the data segment format;
1312:..\..\..\..\..\..\uC-Probe\Target\Communication\Generic\Source/probe_com.c **** *                   (B) A 5-byte item descriptor, for each item in the list, consisting of:
1313:..\..\..\..\..\..\uC-Probe\Target\Communication\Generic\Source/probe_com.c **** *
1314:..\..\..\..\..\..\uC-Probe\Target\Communication\Generic\Source/probe_com.c **** *                       (1) A 4-byte address, the starting address of the data to read;
1315:..\..\..\..\..\..\uC-Probe\Target\Communication\Generic\Source/probe_com.c **** *                       (2) A 1-byte length,  indicating the number of bytes to read.
1316:..\..\..\..\..\..\uC-Probe\Target\Communication\Generic\Source/probe_com.c **** *
1317:..\..\..\..\..\..\uC-Probe\Target\Communication\Generic\Source/probe_com.c **** *                         +-------------------------+------------+------------+
1318:..\..\..\..\..\..\uC-Probe\Target\Communication\Generic\Source/probe_com.c **** *                         |          Format         | Num. bytes |         Addr       ---
1319:..\..\..\..\..\..\uC-Probe\Target\Communication\Generic\Source/probe_com.c **** *                         +-------------------------+------------+------------+        |    Item 1
1320:..\..\..\..\..\..\uC-Probe\Target\Communication\Generic\Source/probe_com.c **** *                         ress                                   | Num. bytes |       ---
1321:..\..\..\..\..\..\uC-Probe\Target\Communication\Generic\Source/probe_com.c **** *                         +--------------------------------------+------------+        |
1322:..\..\..\..\..\..\uC-Probe\Target\Communication\Generic\Source/probe_com.c **** *                         |                      Address                      |        |    Item 2
1323:..\..\..\..\..\..\uC-Probe\Target\Communication\Generic\Source/probe_com.c **** *                         +------------+--------------------------------------+       ---
1324:..\..\..\..\..\..\uC-Probe\Target\Communication\Generic\Source/probe_com.c **** *                         | Num. bytes |                                   Addr        |    Item 3
1325:..\..\..\..\..\..\uC-Probe\Target\Communication\Generic\Source/probe_com.c **** *                         +------------+--------------------------------------+        .
1326:..\..\..\..\..\..\uC-Probe\Target\Communication\Generic\Source/probe_com.c **** *                         |                         .                         |        .
1327:..\..\..\..\..\..\uC-Probe\Target\Communication\Generic\Source/probe_com.c **** *                         |                         .                         |        .
1328:..\..\..\..\..\..\uC-Probe\Target\Communication\Generic\Source/probe_com.c **** *                         |                         .                         |        .
1329:..\..\..\..\..\..\uC-Probe\Target\Communication\Generic\Source/probe_com.c **** *                         |                         .                         |        .
1330:..\..\..\..\..\..\uC-Probe\Target\Communication\Generic\Source/probe_com.c **** *                         +--------------------------------------+------------+        .
1331:..\..\..\..\..\..\uC-Probe\Target\Communication\Generic\Source/probe_com.c **** *                         ress                                   | Num. bytes |       ---
1332:..\..\..\..\..\..\uC-Probe\Target\Communication\Generic\Source/probe_com.c **** *                         ---------------------------------------+------------+        |   Item n
1333:..\..\..\..\..\..\uC-Probe\Target\Communication\Generic\Source/probe_com.c **** *                         |                      Address                      |        |
1334:..\..\..\..\..\..\uC-Probe\Target\Communication\Generic\Source/probe_com.c **** *                         +---------------------------------------------------+       ---
1335:..\..\..\..\..\..\uC-Probe\Target\Communication\Generic\Source/probe_com.c **** *
1336:..\..\..\..\..\..\uC-Probe\Target\Communication\Generic\Source/probe_com.c **** *               (2) The TX format:
1337:..\..\..\..\..\..\uC-Probe\Target\Communication\Generic\Source/probe_com.c **** *
1338:..\..\..\..\..\..\uC-Probe\Target\Communication\Generic\Source/probe_com.c **** *                   (A) A 2-byte format, indicating the data segment format;
1339:..\..\..\..\..\..\uC-Probe\Target\Communication\Generic\Source/probe_com.c **** *                   (B) A 1-byte status, indicating the status after the request;
1340:..\..\..\..\..\..\uC-Probe\Target\Communication\Generic\Source/probe_com.c **** *                   (C) A 1-byte modifier;
1341:..\..\..\..\..\..\uC-Probe\Target\Communication\Generic\Source/probe_com.c **** *                   (D) For each item, the following is sent:
1342:..\..\..\..\..\..\uC-Probe\Target\Communication\Generic\Source/probe_com.c **** *
ARM GAS  C:\Users\alex\AppData\Local\Temp\ccKfBJGu.s 			page 38


1343:..\..\..\..\..\..\uC-Probe\Target\Communication\Generic\Source/probe_com.c **** *                       (1) The memory data.
1344:..\..\..\..\..\..\uC-Probe\Target\Communication\Generic\Source/probe_com.c **** *
1345:..\..\..\..\..\..\uC-Probe\Target\Communication\Generic\Source/probe_com.c **** *                         +-------------------------+------------+------------+
1346:..\..\..\..\..\..\uC-Probe\Target\Communication\Generic\Source/probe_com.c **** *                         |          Format         |   Status   |  Modifier  |
1347:..\..\..\..\..\..\uC-Probe\Target\Communication\Generic\Source/probe_com.c **** *                         +-------------------------+------------+------------+       ---
1348:..\..\..\..\..\..\uC-Probe\Target\Communication\Generic\Source/probe_com.c **** *                         |                        Data                       |        |    Item 1
1349:..\..\..\..\..\..\uC-Probe\Target\Communication\Generic\Source/probe_com.c **** *                         |                         .                         |        |
1350:..\..\..\..\..\..\uC-Probe\Target\Communication\Generic\Source/probe_com.c **** *                         |                         .                         |        |
1351:..\..\..\..\..\..\uC-Probe\Target\Communication\Generic\Source/probe_com.c **** *                         |                         .                         |        |
1352:..\..\..\..\..\..\uC-Probe\Target\Communication\Generic\Source/probe_com.c **** *                         +---------------------------------------------------+       ---
1353:..\..\..\..\..\..\uC-Probe\Target\Communication\Generic\Source/probe_com.c **** *                         |                         .                         |        .
1354:..\..\..\..\..\..\uC-Probe\Target\Communication\Generic\Source/probe_com.c **** *                         |                         .                         |        .
1355:..\..\..\..\..\..\uC-Probe\Target\Communication\Generic\Source/probe_com.c **** *                         |                         .                         |        .
1356:..\..\..\..\..\..\uC-Probe\Target\Communication\Generic\Source/probe_com.c **** *                         |                         .                         |        .
1357:..\..\..\..\..\..\uC-Probe\Target\Communication\Generic\Source/probe_com.c **** *                         |                         .                         |        .
1358:..\..\..\..\..\..\uC-Probe\Target\Communication\Generic\Source/probe_com.c **** *                         +---------------------------------------------------+       ---
1359:..\..\..\..\..\..\uC-Probe\Target\Communication\Generic\Source/probe_com.c **** *                         |                        Data                       |        |    Item n
1360:..\..\..\..\..\..\uC-Probe\Target\Communication\Generic\Source/probe_com.c **** *                         |                         .                         |        |
1361:..\..\..\..\..\..\uC-Probe\Target\Communication\Generic\Source/probe_com.c **** *                         |                         .                         |        |
1362:..\..\..\..\..\..\uC-Probe\Target\Communication\Generic\Source/probe_com.c **** *                         |                         .                         |        |
1363:..\..\..\..\..\..\uC-Probe\Target\Communication\Generic\Source/probe_com.c **** *                         +---------------------------------------------------+       ---
1364:..\..\..\..\..\..\uC-Probe\Target\Communication\Generic\Source/probe_com.c **** *
1365:..\..\..\..\..\..\uC-Probe\Target\Communication\Generic\Source/probe_com.c **** ***************************************************************************************************
1366:..\..\..\..\..\..\uC-Probe\Target\Communication\Generic\Source/probe_com.c **** */
1367:..\..\..\..\..\..\uC-Probe\Target\Communication\Generic\Source/probe_com.c **** 
1368:..\..\..\..\..\..\uC-Probe\Target\Communication\Generic\Source/probe_com.c **** static  CPU_SIZE_T  ProbeCom_ReqRdMulti (CPU_INT08U  *prx_buf,
1369:..\..\..\..\..\..\uC-Probe\Target\Communication\Generic\Source/probe_com.c ****                                          CPU_INT08U  *ptx_buf,
1370:..\..\..\..\..\..\uC-Probe\Target\Communication\Generic\Source/probe_com.c ****                                          CPU_SIZE_T   rx_pkt_size,
1371:..\..\..\..\..\..\uC-Probe\Target\Communication\Generic\Source/probe_com.c ****                                          CPU_SIZE_T   tx_buf_size)
1372:..\..\..\..\..\..\uC-Probe\Target\Communication\Generic\Source/probe_com.c **** {
 766              		.loc 1 1372 0
 767              		.cfi_startproc
 768              		@ args = 0, pretend = 0, frame = 48
 769              		@ frame_needed = 1, uses_anonymous_args = 0
 770 0000 90B5     		push	{r4, r7, lr}
 771              		.cfi_def_cfa_offset 12
 772              		.cfi_offset 4, -12
 773              		.cfi_offset 7, -8
 774              		.cfi_offset 14, -4
 775 0002 8DB0     		sub	sp, sp, #52
 776              		.cfi_def_cfa_offset 64
 777 0004 00AF     		add	r7, sp, #0
 778              		.cfi_def_cfa_register 7
 779 0006 F860     		str	r0, [r7, #12]
 780 0008 B960     		str	r1, [r7, #8]
 781 000a 7A60     		str	r2, [r7, #4]
 782 000c 3B60     		str	r3, [r7]
1373:..\..\..\..\..\..\uC-Probe\Target\Communication\Generic\Source/probe_com.c ****     CPU_SIZE_T   rx_pkt_ix;
1374:..\..\..\..\..\..\uC-Probe\Target\Communication\Generic\Source/probe_com.c **** #if (PROBE_COM_CFG_STAT_EN == DEF_ENABLED)
1375:..\..\..\..\..\..\uC-Probe\Target\Communication\Generic\Source/probe_com.c ****     CPU_INT32U   sym_byte_ctr;
1376:..\..\..\..\..\..\uC-Probe\Target\Communication\Generic\Source/probe_com.c ****     CPU_INT32U   sym_ctr;
1377:..\..\..\..\..\..\uC-Probe\Target\Communication\Generic\Source/probe_com.c **** #endif
1378:..\..\..\..\..\..\uC-Probe\Target\Communication\Generic\Source/probe_com.c ****     CPU_ADDR     sym_addr;
1379:..\..\..\..\..\..\uC-Probe\Target\Communication\Generic\Source/probe_com.c ****     CPU_SIZE_T   sym_size;
1380:..\..\..\..\..\..\uC-Probe\Target\Communication\Generic\Source/probe_com.c ****     CPU_SIZE_T   tx_len;
1381:..\..\..\..\..\..\uC-Probe\Target\Communication\Generic\Source/probe_com.c ****     CPU_INT08U  *ptx_buf_start;
1382:..\..\..\..\..\..\uC-Probe\Target\Communication\Generic\Source/probe_com.c **** 
ARM GAS  C:\Users\alex\AppData\Local\Temp\ccKfBJGu.s 			page 39


1383:..\..\..\..\..\..\uC-Probe\Target\Communication\Generic\Source/probe_com.c **** 
1384:..\..\..\..\..\..\uC-Probe\Target\Communication\Generic\Source/probe_com.c ****                                                                 /* ------------------- CHK PKT SIZE
1385:..\..\..\..\..\..\uC-Probe\Target\Communication\Generic\Source/probe_com.c ****                                                                 /* Expected size >= 2 (= Rx hdr siz
1386:..\..\..\..\..\..\uC-Probe\Target\Communication\Generic\Source/probe_com.c ****                                                                 /*                + 5 (= 1 item des
1387:..\..\..\..\..\..\uC-Probe\Target\Communication\Generic\Source/probe_com.c ****     if (rx_pkt_size  < 7u) {
 783              		.loc 1 1387 0
 784 000e 7B68     		ldr	r3, [r7, #4]
 785 0010 062B     		cmp	r3, #6
 786 0012 06D8     		bhi	.L51
1388:..\..\..\..\..\..\uC-Probe\Target\Communication\Generic\Source/probe_com.c ****         tx_len = ProbeCom_ReqErr(ptx_buf, PROBE_COM_STATUS_RX_PKT_WRONG_SIZE);
 787              		.loc 1 1388 0
 788 0014 FE21     		movs	r1, #254
 789 0016 B868     		ldr	r0, [r7, #8]
 790 0018 FFF7FEFF 		bl	ProbeCom_ReqErr
 791 001c 3862     		str	r0, [r7, #32]
1389:..\..\..\..\..\..\uC-Probe\Target\Communication\Generic\Source/probe_com.c ****         return (tx_len);
 792              		.loc 1 1389 0
 793 001e 3B6A     		ldr	r3, [r7, #32]
 794 0020 71E0     		b	.L52
 795              	.L51:
1390:..\..\..\..\..\..\uC-Probe\Target\Communication\Generic\Source/probe_com.c ****     }
1391:..\..\..\..\..\..\uC-Probe\Target\Communication\Generic\Source/probe_com.c **** 
1392:..\..\..\..\..\..\uC-Probe\Target\Communication\Generic\Source/probe_com.c ****                                                                 /* -------------------- HANDLE RD -
1393:..\..\..\..\..\..\uC-Probe\Target\Communication\Generic\Source/probe_com.c ****     ptx_buf_start = ptx_buf;                                    /* Save ptr to tx buf in case pkt i
 796              		.loc 1 1393 0
 797 0022 BB68     		ldr	r3, [r7, #8]
 798 0024 FB61     		str	r3, [r7, #28]
1394:..\..\..\..\..\..\uC-Probe\Target\Communication\Generic\Source/probe_com.c ****     tx_len        = PROBE_COM_SIZE_TX_HDR;                      /* Init tx pkt len = 4 = size of hd
 799              		.loc 1 1394 0
 800 0026 0423     		movs	r3, #4
 801 0028 3B62     		str	r3, [r7, #32]
1395:..\..\..\..\..\..\uC-Probe\Target\Communication\Generic\Source/probe_com.c **** 
1396:..\..\..\..\..\..\uC-Probe\Target\Communication\Generic\Source/probe_com.c ****                                                                 /* Store TX pkt hdr :              
1397:..\..\..\..\..\..\uC-Probe\Target\Communication\Generic\Source/probe_com.c ****     ptx_buf[0]    = PROBE_COM_FMT_TX_RD_MULTI_LO;               /* (a) TX pkt fmt.                 
 802              		.loc 1 1397 0
 803 002a BB68     		ldr	r3, [r7, #8]
 804 002c 0722     		movs	r2, #7
 805 002e 1A70     		strb	r2, [r3]
1398:..\..\..\..\..\..\uC-Probe\Target\Communication\Generic\Source/probe_com.c ****     ptx_buf[1]    = PROBE_COM_FMT_TX_RD_MULTI_HI;
 806              		.loc 1 1398 0
 807 0030 BB68     		ldr	r3, [r7, #8]
 808 0032 0133     		adds	r3, r3, #1
 809 0034 8022     		movs	r2, #128
 810 0036 1A70     		strb	r2, [r3]
1399:..\..\..\..\..\..\uC-Probe\Target\Communication\Generic\Source/probe_com.c ****     ptx_buf[2]    = PROBE_COM_STATUS_OK;                        /* (b) Target status.              
 811              		.loc 1 1399 0
 812 0038 BB68     		ldr	r3, [r7, #8]
 813 003a 0233     		adds	r3, r3, #2
 814 003c 0122     		movs	r2, #1
 815 003e 1A70     		strb	r2, [r3]
1400:..\..\..\..\..\..\uC-Probe\Target\Communication\Generic\Source/probe_com.c ****     ptx_buf[3]    = ProbeCom_PktModifier();                     /* (c) Modifier.                   
 816              		.loc 1 1400 0
 817 0040 BB68     		ldr	r3, [r7, #8]
 818 0042 DC1C     		adds	r4, r3, #3
 819 0044 FFF7FEFF 		bl	ProbeCom_PktModifier
 820 0048 0346     		mov	r3, r0
 821 004a 2370     		strb	r3, [r4]
ARM GAS  C:\Users\alex\AppData\Local\Temp\ccKfBJGu.s 			page 40


1401:..\..\..\..\..\..\uC-Probe\Target\Communication\Generic\Source/probe_com.c ****     ptx_buf      += PROBE_COM_SIZE_TX_HDR;
 822              		.loc 1 1401 0
 823 004c BB68     		ldr	r3, [r7, #8]
 824 004e 0433     		adds	r3, r3, #4
 825 0050 BB60     		str	r3, [r7, #8]
1402:..\..\..\..\..\..\uC-Probe\Target\Communication\Generic\Source/probe_com.c **** 
1403:..\..\..\..\..\..\uC-Probe\Target\Communication\Generic\Source/probe_com.c ****     rx_pkt_ix     = 7u;                                         /* Tx pkt ix after 1st item = 2 (= 
 826              		.loc 1 1403 0
 827 0052 0723     		movs	r3, #7
 828 0054 FB62     		str	r3, [r7, #44]
1404:..\..\..\..\..\..\uC-Probe\Target\Communication\Generic\Source/probe_com.c ****                                                                 /*                          + 5 (= 
1405:..\..\..\..\..\..\uC-Probe\Target\Communication\Generic\Source/probe_com.c **** 
1406:..\..\..\..\..\..\uC-Probe\Target\Communication\Generic\Source/probe_com.c **** #if (PROBE_COM_CFG_STAT_EN == DEF_ENABLED)
1407:..\..\..\..\..\..\uC-Probe\Target\Communication\Generic\Source/probe_com.c ****     sym_ctr      = 0;
 829              		.loc 1 1407 0
 830 0056 0023     		movs	r3, #0
 831 0058 7B62     		str	r3, [r7, #36]
1408:..\..\..\..\..\..\uC-Probe\Target\Communication\Generic\Source/probe_com.c ****     sym_byte_ctr = 0;
 832              		.loc 1 1408 0
 833 005a 0023     		movs	r3, #0
 834 005c BB62     		str	r3, [r7, #40]
1409:..\..\..\..\..\..\uC-Probe\Target\Communication\Generic\Source/probe_com.c **** #endif
1410:..\..\..\..\..\..\uC-Probe\Target\Communication\Generic\Source/probe_com.c ****                                                                 /* Sto data for each item.         
1411:..\..\..\..\..\..\uC-Probe\Target\Communication\Generic\Source/probe_com.c ****     while (rx_pkt_ix <= rx_pkt_size) {
 835              		.loc 1 1411 0
 836 005e 41E0     		b	.L53
 837              	.L55:
1412:..\..\..\..\..\..\uC-Probe\Target\Communication\Generic\Source/probe_com.c ****         sym_size   =  prx_buf[0];                               /* (a) Get nbr of bytes to rd.     
 838              		.loc 1 1412 0
 839 0060 FB68     		ldr	r3, [r7, #12]
 840 0062 1B78     		ldrb	r3, [r3]	@ zero_extendqisi2
 841 0064 BB61     		str	r3, [r7, #24]
1413:..\..\..\..\..\..\uC-Probe\Target\Communication\Generic\Source/probe_com.c **** 
1414:..\..\..\..\..\..\uC-Probe\Target\Communication\Generic\Source/probe_com.c ****                                                                 /* (b) Get rd addr.                
1415:..\..\..\..\..\..\uC-Probe\Target\Communication\Generic\Source/probe_com.c **** #if ((!defined(CPU_CFG_ADDR_SIZE)) || \
1416:..\..\..\..\..\..\uC-Probe\Target\Communication\Generic\Source/probe_com.c ****      ((defined(CPU_CFG_ADDR_SIZE)) && \
1417:..\..\..\..\..\..\uC-Probe\Target\Communication\Generic\Source/probe_com.c ****               (CPU_CFG_ADDR_SIZE   != CPU_WORD_SIZE_16)))
1418:..\..\..\..\..\..\uC-Probe\Target\Communication\Generic\Source/probe_com.c ****         sym_addr   = ((CPU_ADDR)prx_buf[4] << 8) + prx_buf[3];
 842              		.loc 1 1418 0
 843 0066 FB68     		ldr	r3, [r7, #12]
 844 0068 0433     		adds	r3, r3, #4
 845 006a 1B78     		ldrb	r3, [r3]	@ zero_extendqisi2
 846 006c 1B02     		lsls	r3, r3, #8
 847 006e FA68     		ldr	r2, [r7, #12]
 848 0070 0332     		adds	r2, r2, #3
 849 0072 1278     		ldrb	r2, [r2]	@ zero_extendqisi2
 850 0074 1344     		add	r3, r3, r2
 851 0076 7B61     		str	r3, [r7, #20]
1419:..\..\..\..\..\..\uC-Probe\Target\Communication\Generic\Source/probe_com.c ****         sym_addr   = ((CPU_ADDR)sym_addr   << 8) + prx_buf[2];
 852              		.loc 1 1419 0
 853 0078 7B69     		ldr	r3, [r7, #20]
 854 007a 1B02     		lsls	r3, r3, #8
 855 007c FA68     		ldr	r2, [r7, #12]
 856 007e 0232     		adds	r2, r2, #2
 857 0080 1278     		ldrb	r2, [r2]	@ zero_extendqisi2
 858 0082 1344     		add	r3, r3, r2
 859 0084 7B61     		str	r3, [r7, #20]
ARM GAS  C:\Users\alex\AppData\Local\Temp\ccKfBJGu.s 			page 41


1420:..\..\..\..\..\..\uC-Probe\Target\Communication\Generic\Source/probe_com.c ****         sym_addr   = ((CPU_ADDR)sym_addr   << 8) + prx_buf[1];
 860              		.loc 1 1420 0
 861 0086 7B69     		ldr	r3, [r7, #20]
 862 0088 1B02     		lsls	r3, r3, #8
 863 008a FA68     		ldr	r2, [r7, #12]
 864 008c 0132     		adds	r2, r2, #1
 865 008e 1278     		ldrb	r2, [r2]	@ zero_extendqisi2
 866 0090 1344     		add	r3, r3, r2
 867 0092 7B61     		str	r3, [r7, #20]
1421:..\..\..\..\..\..\uC-Probe\Target\Communication\Generic\Source/probe_com.c **** #else
1422:..\..\..\..\..\..\uC-Probe\Target\Communication\Generic\Source/probe_com.c ****         sym_addr   = ((CPU_ADDR)prx_buf[2] << 8) + prx_buf[1];
1423:..\..\..\..\..\..\uC-Probe\Target\Communication\Generic\Source/probe_com.c **** #endif
1424:..\..\..\..\..\..\uC-Probe\Target\Communication\Generic\Source/probe_com.c **** 
1425:..\..\..\..\..\..\uC-Probe\Target\Communication\Generic\Source/probe_com.c ****         prx_buf   += 5u;
 868              		.loc 1 1425 0
 869 0094 FB68     		ldr	r3, [r7, #12]
 870 0096 0533     		adds	r3, r3, #5
 871 0098 FB60     		str	r3, [r7, #12]
1426:..\..\..\..\..\..\uC-Probe\Target\Communication\Generic\Source/probe_com.c ****         rx_pkt_ix += 5u;
 872              		.loc 1 1426 0
 873 009a FB6A     		ldr	r3, [r7, #44]
 874 009c 0533     		adds	r3, r3, #5
 875 009e FB62     		str	r3, [r7, #44]
1427:..\..\..\..\..\..\uC-Probe\Target\Communication\Generic\Source/probe_com.c **** 
1428:..\..\..\..\..\..\uC-Probe\Target\Communication\Generic\Source/probe_com.c ****         tx_len    += sym_size;                                  /* (c) Add nbr of bytes to pkt len.
 876              		.loc 1 1428 0
 877 00a0 3A6A     		ldr	r2, [r7, #32]
 878 00a2 BB69     		ldr	r3, [r7, #24]
 879 00a4 1344     		add	r3, r3, r2
 880 00a6 3B62     		str	r3, [r7, #32]
1429:..\..\..\..\..\..\uC-Probe\Target\Communication\Generic\Source/probe_com.c **** 
1430:..\..\..\..\..\..\uC-Probe\Target\Communication\Generic\Source/probe_com.c ****         if (tx_len > tx_buf_size) {                             /* (d) Will pkt be too long for TX 
 881              		.loc 1 1430 0
 882 00a8 3A6A     		ldr	r2, [r7, #32]
 883 00aa 3B68     		ldr	r3, [r7]
 884 00ac 9A42     		cmp	r2, r3
 885 00ae 08D9     		bls	.L54
1431:..\..\..\..\..\..\uC-Probe\Target\Communication\Generic\Source/probe_com.c ****             ptx_buf = ptx_buf_start;                            /*     ... rtn err.                
 886              		.loc 1 1431 0
 887 00b0 FB69     		ldr	r3, [r7, #28]
 888 00b2 BB60     		str	r3, [r7, #8]
1432:..\..\..\..\..\..\uC-Probe\Target\Communication\Generic\Source/probe_com.c ****             tx_len  = ProbeCom_ReqErr(ptx_buf, PROBE_COM_STATUS_TX_PKT_TOO_LARGE);
 889              		.loc 1 1432 0
 890 00b4 FD21     		movs	r1, #253
 891 00b6 B868     		ldr	r0, [r7, #8]
 892 00b8 FFF7FEFF 		bl	ProbeCom_ReqErr
 893 00bc 3862     		str	r0, [r7, #32]
1433:..\..\..\..\..\..\uC-Probe\Target\Communication\Generic\Source/probe_com.c ****             return (tx_len);
 894              		.loc 1 1433 0
 895 00be 3B6A     		ldr	r3, [r7, #32]
 896 00c0 21E0     		b	.L52
 897              	.L54:
1434:..\..\..\..\..\..\uC-Probe\Target\Communication\Generic\Source/probe_com.c ****         }
1435:..\..\..\..\..\..\uC-Probe\Target\Communication\Generic\Source/probe_com.c **** 
1436:..\..\..\..\..\..\uC-Probe\Target\Communication\Generic\Source/probe_com.c **** #if (PROBE_COM_CFG_STAT_EN == DEF_ENABLED)
1437:..\..\..\..\..\..\uC-Probe\Target\Communication\Generic\Source/probe_com.c ****         sym_ctr++;                                              /* (e) Inc local sym ctr.          
 898              		.loc 1 1437 0
ARM GAS  C:\Users\alex\AppData\Local\Temp\ccKfBJGu.s 			page 42


 899 00c2 7B6A     		ldr	r3, [r7, #36]
 900 00c4 0133     		adds	r3, r3, #1
 901 00c6 7B62     		str	r3, [r7, #36]
1438:..\..\..\..\..\..\uC-Probe\Target\Communication\Generic\Source/probe_com.c ****         sym_byte_ctr += sym_size;
 902              		.loc 1 1438 0
 903 00c8 BA6A     		ldr	r2, [r7, #40]
 904 00ca BB69     		ldr	r3, [r7, #24]
 905 00cc 1344     		add	r3, r3, r2
 906 00ce BB62     		str	r3, [r7, #40]
1439:..\..\..\..\..\..\uC-Probe\Target\Communication\Generic\Source/probe_com.c **** #endif
1440:..\..\..\..\..\..\uC-Probe\Target\Communication\Generic\Source/probe_com.c ****                                                                 /* (f) Otherwise, save TX data.    
1441:..\..\..\..\..\..\uC-Probe\Target\Communication\Generic\Source/probe_com.c ****         Mem_Copy((void     *)ptx_buf,
 907              		.loc 1 1441 0
 908 00d0 7B69     		ldr	r3, [r7, #20]
 909 00d2 BA69     		ldr	r2, [r7, #24]
 910 00d4 1946     		mov	r1, r3
 911 00d6 B868     		ldr	r0, [r7, #8]
 912 00d8 FFF7FEFF 		bl	Mem_Copy
1442:..\..\..\..\..\..\uC-Probe\Target\Communication\Generic\Source/probe_com.c ****                  (void     *)sym_addr,
1443:..\..\..\..\..\..\uC-Probe\Target\Communication\Generic\Source/probe_com.c ****                  (CPU_SIZE_T)sym_size);
1444:..\..\..\..\..\..\uC-Probe\Target\Communication\Generic\Source/probe_com.c **** 
1445:..\..\..\..\..\..\uC-Probe\Target\Communication\Generic\Source/probe_com.c ****         ptx_buf += sym_size;
 913              		.loc 1 1445 0
 914 00dc BA68     		ldr	r2, [r7, #8]
 915 00de BB69     		ldr	r3, [r7, #24]
 916 00e0 1344     		add	r3, r3, r2
 917 00e2 BB60     		str	r3, [r7, #8]
 918              	.L53:
1411:..\..\..\..\..\..\uC-Probe\Target\Communication\Generic\Source/probe_com.c ****         sym_size   =  prx_buf[0];                               /* (a) Get nbr of bytes to rd.     
 919              		.loc 1 1411 0
 920 00e4 FA6A     		ldr	r2, [r7, #44]
 921 00e6 7B68     		ldr	r3, [r7, #4]
 922 00e8 9A42     		cmp	r2, r3
 923 00ea B9D9     		bls	.L55
1446:..\..\..\..\..\..\uC-Probe\Target\Communication\Generic\Source/probe_com.c ****     }
1447:..\..\..\..\..\..\uC-Probe\Target\Communication\Generic\Source/probe_com.c **** 
1448:..\..\..\..\..\..\uC-Probe\Target\Communication\Generic\Source/probe_com.c **** #if (PROBE_COM_CFG_STAT_EN == DEF_ENABLED)
1449:..\..\..\..\..\..\uC-Probe\Target\Communication\Generic\Source/probe_com.c ****     ProbeCom_TxSymCtr     += sym_ctr;                           /* Inc global sym ctr.             
 924              		.loc 1 1449 0
 925 00ec 084B     		ldr	r3, .L56
 926 00ee 1A68     		ldr	r2, [r3]
 927 00f0 7B6A     		ldr	r3, [r7, #36]
 928 00f2 1344     		add	r3, r3, r2
 929 00f4 064A     		ldr	r2, .L56
 930 00f6 1360     		str	r3, [r2]
1450:..\..\..\..\..\..\uC-Probe\Target\Communication\Generic\Source/probe_com.c ****     ProbeCom_TxSymByteCtr += sym_byte_ctr;
 931              		.loc 1 1450 0
 932 00f8 064B     		ldr	r3, .L56+4
 933 00fa 1A68     		ldr	r2, [r3]
 934 00fc BB6A     		ldr	r3, [r7, #40]
 935 00fe 1344     		add	r3, r3, r2
 936 0100 044A     		ldr	r2, .L56+4
 937 0102 1360     		str	r3, [r2]
1451:..\..\..\..\..\..\uC-Probe\Target\Communication\Generic\Source/probe_com.c **** #endif
1452:..\..\..\..\..\..\uC-Probe\Target\Communication\Generic\Source/probe_com.c **** 
1453:..\..\..\..\..\..\uC-Probe\Target\Communication\Generic\Source/probe_com.c ****                                                                 /* ------------------ RTN TX PKT SI
1454:..\..\..\..\..\..\uC-Probe\Target\Communication\Generic\Source/probe_com.c ****     return (tx_len);
ARM GAS  C:\Users\alex\AppData\Local\Temp\ccKfBJGu.s 			page 43


 938              		.loc 1 1454 0
 939 0104 3B6A     		ldr	r3, [r7, #32]
 940              	.L52:
1455:..\..\..\..\..\..\uC-Probe\Target\Communication\Generic\Source/probe_com.c **** }
 941              		.loc 1 1455 0
 942 0106 1846     		mov	r0, r3
 943 0108 3437     		adds	r7, r7, #52
 944              		.cfi_def_cfa_offset 12
 945 010a BD46     		mov	sp, r7
 946              		.cfi_def_cfa_register 13
 947              		@ sp needed
 948 010c 90BD     		pop	{r4, r7, pc}
 949              	.L57:
 950 010e 00BF     		.align	2
 951              	.L56:
 952 0110 00000000 		.word	ProbeCom_TxSymCtr
 953 0114 00000000 		.word	ProbeCom_TxSymByteCtr
 954              		.cfi_endproc
 955              	.LFE6:
 956              		.size	ProbeCom_ReqRdMulti, .-ProbeCom_ReqRdMulti
 957              		.section	.text.ProbeCom_ReqWr,"ax",%progbits
 958              		.align	2
 959              		.thumb
 960              		.thumb_func
 961              		.type	ProbeCom_ReqWr, %function
 962              	ProbeCom_ReqWr:
 963              	.LFB7:
1456:..\..\..\..\..\..\uC-Probe\Target\Communication\Generic\Source/probe_com.c **** 
1457:..\..\..\..\..\..\uC-Probe\Target\Communication\Generic\Source/probe_com.c **** 
1458:..\..\..\..\..\..\uC-Probe\Target\Communication\Generic\Source/probe_com.c **** /*
1459:..\..\..\..\..\..\uC-Probe\Target\Communication\Generic\Source/probe_com.c **** ***************************************************************************************************
1460:..\..\..\..\..\..\uC-Probe\Target\Communication\Generic\Source/probe_com.c **** *                                          ProbeCom_ReqWr()
1461:..\..\..\..\..\..\uC-Probe\Target\Communication\Generic\Source/probe_com.c **** *
1462:..\..\..\..\..\..\uC-Probe\Target\Communication\Generic\Source/probe_com.c **** * Description : Parse the FMT_WR request & formulate response.  This command causes the target to w
1463:..\..\..\..\..\..\uC-Probe\Target\Communication\Generic\Source/probe_com.c **** *               into its memory data from a certain {memory address, data length, data} triplet whi
1464:..\..\..\..\..\..\uC-Probe\Target\Communication\Generic\Source/probe_com.c **** *               given in the request.
1465:..\..\..\..\..\..\uC-Probe\Target\Communication\Generic\Source/probe_com.c **** *
1466:..\..\..\..\..\..\uC-Probe\Target\Communication\Generic\Source/probe_com.c **** * Argument(s) : prx_buf         Pointer to the receive  buffer
1467:..\..\..\..\..\..\uC-Probe\Target\Communication\Generic\Source/probe_com.c **** *
1468:..\..\..\..\..\..\uC-Probe\Target\Communication\Generic\Source/probe_com.c **** *               ptx_buf         Pointer to the transmit buffer
1469:..\..\..\..\..\..\uC-Probe\Target\Communication\Generic\Source/probe_com.c **** *
1470:..\..\..\..\..\..\uC-Probe\Target\Communication\Generic\Source/probe_com.c **** *               rx_pkt_size     Size of the receive  packet
1471:..\..\..\..\..\..\uC-Probe\Target\Communication\Generic\Source/probe_com.c **** *
1472:..\..\..\..\..\..\uC-Probe\Target\Communication\Generic\Source/probe_com.c **** *               tx_buf_size     Size of the transmit buffer
1473:..\..\..\..\..\..\uC-Probe\Target\Communication\Generic\Source/probe_com.c **** *
1474:..\..\..\..\..\..\uC-Probe\Target\Communication\Generic\Source/probe_com.c **** * Return(s)   : The number of bytes written to the tx buffer.
1475:..\..\..\..\..\..\uC-Probe\Target\Communication\Generic\Source/probe_com.c **** *
1476:..\..\..\..\..\..\uC-Probe\Target\Communication\Generic\Source/probe_com.c **** * Caller(s)   : ProbeCom_ParseRxPkt().
1477:..\..\..\..\..\..\uC-Probe\Target\Communication\Generic\Source/probe_com.c **** *
1478:..\..\..\..\..\..\uC-Probe\Target\Communication\Generic\Source/probe_com.c **** * Note(s)     : (1) The RX format:
1479:..\..\..\..\..\..\uC-Probe\Target\Communication\Generic\Source/probe_com.c **** *
1480:..\..\..\..\..\..\uC-Probe\Target\Communication\Generic\Source/probe_com.c **** *                   (A) A 2-byte format,  indicating the data segment format;
1481:..\..\..\..\..\..\uC-Probe\Target\Communication\Generic\Source/probe_com.c **** *                   (B) A 2-byte length,  indicating the number of bytes to write;
1482:..\..\..\..\..\..\uC-Probe\Target\Communication\Generic\Source/probe_com.c **** *                   (C) A 4-byte address, the starting address at which the data should be written;
1483:..\..\..\..\..\..\uC-Probe\Target\Communication\Generic\Source/probe_com.c **** *                   (D) The memory data.
1484:..\..\..\..\..\..\uC-Probe\Target\Communication\Generic\Source/probe_com.c **** *
1485:..\..\..\..\..\..\uC-Probe\Target\Communication\Generic\Source/probe_com.c **** *                         +-------------------------+-------------------------+
ARM GAS  C:\Users\alex\AppData\Local\Temp\ccKfBJGu.s 			page 44


1486:..\..\..\..\..\..\uC-Probe\Target\Communication\Generic\Source/probe_com.c **** *                         |          Format         |      Number of bytes    |
1487:..\..\..\..\..\..\uC-Probe\Target\Communication\Generic\Source/probe_com.c **** *                         +-------------------------+-------------------------+
1488:..\..\..\..\..\..\uC-Probe\Target\Communication\Generic\Source/probe_com.c **** *                         |                      Address                      |
1489:..\..\..\..\..\..\uC-Probe\Target\Communication\Generic\Source/probe_com.c **** *                         +---------------------------------------------------+
1490:..\..\..\..\..\..\uC-Probe\Target\Communication\Generic\Source/probe_com.c **** *                         |                        Data                       |
1491:..\..\..\..\..\..\uC-Probe\Target\Communication\Generic\Source/probe_com.c **** *                         |                         .                         |
1492:..\..\..\..\..\..\uC-Probe\Target\Communication\Generic\Source/probe_com.c **** *                         |                         .                         |
1493:..\..\..\..\..\..\uC-Probe\Target\Communication\Generic\Source/probe_com.c **** *                         |                         .                         |
1494:..\..\..\..\..\..\uC-Probe\Target\Communication\Generic\Source/probe_com.c **** *                         +---------------------------------------------------+
1495:..\..\..\..\..\..\uC-Probe\Target\Communication\Generic\Source/probe_com.c **** *
1496:..\..\..\..\..\..\uC-Probe\Target\Communication\Generic\Source/probe_com.c **** *               (2) The TX format:
1497:..\..\..\..\..\..\uC-Probe\Target\Communication\Generic\Source/probe_com.c **** *
1498:..\..\..\..\..\..\uC-Probe\Target\Communication\Generic\Source/probe_com.c **** *                   (A) A 2-byte format, indicating the data segment format;
1499:..\..\..\..\..\..\uC-Probe\Target\Communication\Generic\Source/probe_com.c **** *                   (B) A 1-byte status, indicating the status after the request;
1500:..\..\..\..\..\..\uC-Probe\Target\Communication\Generic\Source/probe_com.c **** *                   (C) A 1-byte modifier.
1501:..\..\..\..\..\..\uC-Probe\Target\Communication\Generic\Source/probe_com.c **** *
1502:..\..\..\..\..\..\uC-Probe\Target\Communication\Generic\Source/probe_com.c **** *                         +-------------------------+------------+------------+
1503:..\..\..\..\..\..\uC-Probe\Target\Communication\Generic\Source/probe_com.c **** *                         |          Format         |   Status   |  Modifier  |
1504:..\..\..\..\..\..\uC-Probe\Target\Communication\Generic\Source/probe_com.c **** *                         +-------------------------+------------+------------+
1505:..\..\..\..\..\..\uC-Probe\Target\Communication\Generic\Source/probe_com.c **** *
1506:..\..\..\..\..\..\uC-Probe\Target\Communication\Generic\Source/probe_com.c **** ***************************************************************************************************
1507:..\..\..\..\..\..\uC-Probe\Target\Communication\Generic\Source/probe_com.c **** */
1508:..\..\..\..\..\..\uC-Probe\Target\Communication\Generic\Source/probe_com.c **** 
1509:..\..\..\..\..\..\uC-Probe\Target\Communication\Generic\Source/probe_com.c **** #if (PROBE_COM_CFG_WR_REQ_EN == DEF_ENABLED)
1510:..\..\..\..\..\..\uC-Probe\Target\Communication\Generic\Source/probe_com.c **** static  CPU_SIZE_T  ProbeCom_ReqWr (CPU_INT08U  *prx_buf,
1511:..\..\..\..\..\..\uC-Probe\Target\Communication\Generic\Source/probe_com.c ****                                     CPU_INT08U  *ptx_buf,
1512:..\..\..\..\..\..\uC-Probe\Target\Communication\Generic\Source/probe_com.c ****                                     CPU_SIZE_T   rx_pkt_size,
1513:..\..\..\..\..\..\uC-Probe\Target\Communication\Generic\Source/probe_com.c ****                                     CPU_SIZE_T   tx_buf_size)
1514:..\..\..\..\..\..\uC-Probe\Target\Communication\Generic\Source/probe_com.c **** {
 964              		.loc 1 1514 0
 965              		.cfi_startproc
 966              		@ args = 0, pretend = 0, frame = 32
 967              		@ frame_needed = 1, uses_anonymous_args = 0
 968 0000 80B5     		push	{r7, lr}
 969              		.cfi_def_cfa_offset 8
 970              		.cfi_offset 7, -8
 971              		.cfi_offset 14, -4
 972 0002 88B0     		sub	sp, sp, #32
 973              		.cfi_def_cfa_offset 40
 974 0004 00AF     		add	r7, sp, #0
 975              		.cfi_def_cfa_register 7
 976 0006 F860     		str	r0, [r7, #12]
 977 0008 B960     		str	r1, [r7, #8]
 978 000a 7A60     		str	r2, [r7, #4]
 979 000c 3B60     		str	r3, [r7]
1515:..\..\..\..\..\..\uC-Probe\Target\Communication\Generic\Source/probe_com.c ****     CPU_SIZE_T  sym_size;
1516:..\..\..\..\..\..\uC-Probe\Target\Communication\Generic\Source/probe_com.c ****     CPU_ADDR    sym_addr;
1517:..\..\..\..\..\..\uC-Probe\Target\Communication\Generic\Source/probe_com.c ****     CPU_SIZE_T  tx_len;
1518:..\..\..\..\..\..\uC-Probe\Target\Communication\Generic\Source/probe_com.c ****     CPU_SR_ALLOC();
 980              		.loc 1 1518 0
 981 000e 0023     		movs	r3, #0
 982 0010 FB61     		str	r3, [r7, #28]
1519:..\..\..\..\..\..\uC-Probe\Target\Communication\Generic\Source/probe_com.c **** 
1520:..\..\..\..\..\..\uC-Probe\Target\Communication\Generic\Source/probe_com.c **** 
1521:..\..\..\..\..\..\uC-Probe\Target\Communication\Generic\Source/probe_com.c ****    (void)&tx_buf_size;                                          /* Prevent compiler warning.       
1522:..\..\..\..\..\..\uC-Probe\Target\Communication\Generic\Source/probe_com.c **** 
1523:..\..\..\..\..\..\uC-Probe\Target\Communication\Generic\Source/probe_com.c **** 
ARM GAS  C:\Users\alex\AppData\Local\Temp\ccKfBJGu.s 			page 45


1524:..\..\..\..\..\..\uC-Probe\Target\Communication\Generic\Source/probe_com.c ****                                                                 /* ------------------- CHK PKT SIZE
1525:..\..\..\..\..\..\uC-Probe\Target\Communication\Generic\Source/probe_com.c ****                                                                 /* Expected size >= 2      (= Rx hd
1526:..\..\..\..\..\..\uC-Probe\Target\Communication\Generic\Source/probe_com.c ****                                                                 /*                + 2      (= Sym s
1527:..\..\..\..\..\..\uC-Probe\Target\Communication\Generic\Source/probe_com.c ****                                                                 /*                + 4      (= Sym a
1528:..\..\..\..\..\..\uC-Probe\Target\Communication\Generic\Source/probe_com.c ****                                                                 /*                + nbytes (= Data 
1529:..\..\..\..\..\..\uC-Probe\Target\Communication\Generic\Source/probe_com.c ****     if (rx_pkt_size < 8u) {
 983              		.loc 1 1529 0
 984 0012 7B68     		ldr	r3, [r7, #4]
 985 0014 072B     		cmp	r3, #7
 986 0016 07D8     		bhi	.L59
1530:..\..\..\..\..\..\uC-Probe\Target\Communication\Generic\Source/probe_com.c ****         tx_len = ProbeCom_ReqErr(ptx_buf, PROBE_COM_STATUS_RX_PKT_WRONG_SIZE);
 987              		.loc 1 1530 0
 988 0018 BB68     		ldr	r3, [r7, #8]
 989 001a FE21     		movs	r1, #254
 990 001c 1846     		mov	r0, r3
 991 001e FFF7FEFF 		bl	ProbeCom_ReqErr
 992 0022 B861     		str	r0, [r7, #24]
1531:..\..\..\..\..\..\uC-Probe\Target\Communication\Generic\Source/probe_com.c ****         return (tx_len);
 993              		.loc 1 1531 0
 994 0024 BB69     		ldr	r3, [r7, #24]
 995 0026 4BE0     		b	.L60
 996              	.L59:
1532:..\..\..\..\..\..\uC-Probe\Target\Communication\Generic\Source/probe_com.c ****     }
1533:..\..\..\..\..\..\uC-Probe\Target\Communication\Generic\Source/probe_com.c **** 
1534:..\..\..\..\..\..\uC-Probe\Target\Communication\Generic\Source/probe_com.c **** 
1535:..\..\..\..\..\..\uC-Probe\Target\Communication\Generic\Source/probe_com.c **** 
1536:..\..\..\..\..\..\uC-Probe\Target\Communication\Generic\Source/probe_com.c ****                                                                 /* -------------------- HANDLE WR -
1537:..\..\..\..\..\..\uC-Probe\Target\Communication\Generic\Source/probe_com.c ****     sym_size = ProbeCom_GetINT16U(&prx_buf);                    /* Get nbr of bytes to wr.         
 997              		.loc 1 1537 0
 998 0028 07F10C03 		add	r3, r7, #12
 999 002c 1846     		mov	r0, r3
 1000 002e FFF7FEFF 		bl	ProbeCom_GetINT16U
 1001 0032 0346     		mov	r3, r0
 1002 0034 7B61     		str	r3, [r7, #20]
1538:..\..\..\..\..\..\uC-Probe\Target\Communication\Generic\Source/probe_com.c **** 
1539:..\..\..\..\..\..\uC-Probe\Target\Communication\Generic\Source/probe_com.c ****                                                                 /* Get wr addr.                    
1540:..\..\..\..\..\..\uC-Probe\Target\Communication\Generic\Source/probe_com.c **** #if ((!defined(CPU_CFG_ADDR_SIZE)) || \
1541:..\..\..\..\..\..\uC-Probe\Target\Communication\Generic\Source/probe_com.c ****      ((defined(CPU_CFG_ADDR_SIZE)) && \
1542:..\..\..\..\..\..\uC-Probe\Target\Communication\Generic\Source/probe_com.c ****               (CPU_CFG_ADDR_SIZE   != CPU_WORD_SIZE_16)))
1543:..\..\..\..\..\..\uC-Probe\Target\Communication\Generic\Source/probe_com.c ****     sym_addr = (CPU_ADDR)ProbeCom_GetINT32U(&prx_buf);
 1003              		.loc 1 1543 0
 1004 0036 07F10C03 		add	r3, r7, #12
 1005 003a 1846     		mov	r0, r3
 1006 003c FFF7FEFF 		bl	ProbeCom_GetINT32U
 1007 0040 3861     		str	r0, [r7, #16]
1544:..\..\..\..\..\..\uC-Probe\Target\Communication\Generic\Source/probe_com.c **** #else
1545:..\..\..\..\..\..\uC-Probe\Target\Communication\Generic\Source/probe_com.c ****     sym_addr = (CPU_ADDR)ProbeCom_GetINT16U(&prx_buf);
1546:..\..\..\..\..\..\uC-Probe\Target\Communication\Generic\Source/probe_com.c ****     prx_buf += 2;
1547:..\..\..\..\..\..\uC-Probe\Target\Communication\Generic\Source/probe_com.c **** #endif
1548:..\..\..\..\..\..\uC-Probe\Target\Communication\Generic\Source/probe_com.c **** 
1549:..\..\..\..\..\..\uC-Probe\Target\Communication\Generic\Source/probe_com.c ****     if (rx_pkt_size != (8 + sym_size)) {                        /* If rx data segment is NOT expect
 1008              		.loc 1 1549 0
 1009 0042 7B69     		ldr	r3, [r7, #20]
 1010 0044 03F10802 		add	r2, r3, #8
 1011 0048 7B68     		ldr	r3, [r7, #4]
 1012 004a 9A42     		cmp	r2, r3
 1013 004c 07D0     		beq	.L61
ARM GAS  C:\Users\alex\AppData\Local\Temp\ccKfBJGu.s 			page 46


1550:..\..\..\..\..\..\uC-Probe\Target\Communication\Generic\Source/probe_com.c ****         tx_len = ProbeCom_ReqErr(ptx_buf, PROBE_COM_STATUS_RX_PKT_WRONG_SIZE);
 1014              		.loc 1 1550 0
 1015 004e BB68     		ldr	r3, [r7, #8]
 1016 0050 FE21     		movs	r1, #254
 1017 0052 1846     		mov	r0, r3
 1018 0054 FFF7FEFF 		bl	ProbeCom_ReqErr
 1019 0058 B861     		str	r0, [r7, #24]
1551:..\..\..\..\..\..\uC-Probe\Target\Communication\Generic\Source/probe_com.c ****         return (tx_len);
 1020              		.loc 1 1551 0
 1021 005a BB69     		ldr	r3, [r7, #24]
 1022 005c 30E0     		b	.L60
 1023              	.L61:
1552:..\..\..\..\..\..\uC-Probe\Target\Communication\Generic\Source/probe_com.c ****     }
1553:..\..\..\..\..\..\uC-Probe\Target\Communication\Generic\Source/probe_com.c **** 
1554:..\..\..\..\..\..\uC-Probe\Target\Communication\Generic\Source/probe_com.c ****                                                                 /* Copy data into mem.             
1555:..\..\..\..\..\..\uC-Probe\Target\Communication\Generic\Source/probe_com.c ****     CPU_CRITICAL_ENTER();
 1024              		.loc 1 1555 0
 1025 005e FFF7FEFF 		bl	CPU_SR_Save
 1026 0062 F861     		str	r0, [r7, #28]
1556:..\..\..\..\..\..\uC-Probe\Target\Communication\Generic\Source/probe_com.c ****     Mem_Copy((void     *)sym_addr,
 1027              		.loc 1 1556 0
 1028 0064 3B69     		ldr	r3, [r7, #16]
 1029 0066 F968     		ldr	r1, [r7, #12]
 1030 0068 7A69     		ldr	r2, [r7, #20]
 1031 006a 1846     		mov	r0, r3
 1032 006c FFF7FEFF 		bl	Mem_Copy
1557:..\..\..\..\..\..\uC-Probe\Target\Communication\Generic\Source/probe_com.c ****              (void     *)prx_buf,
1558:..\..\..\..\..\..\uC-Probe\Target\Communication\Generic\Source/probe_com.c ****              (CPU_SIZE_T)sym_size);
1559:..\..\..\..\..\..\uC-Probe\Target\Communication\Generic\Source/probe_com.c ****     CPU_CRITICAL_EXIT();
 1033              		.loc 1 1559 0
 1034 0070 F869     		ldr	r0, [r7, #28]
 1035 0072 FFF7FEFF 		bl	CPU_SR_Restore
1560:..\..\..\..\..\..\uC-Probe\Target\Communication\Generic\Source/probe_com.c **** 
1561:..\..\..\..\..\..\uC-Probe\Target\Communication\Generic\Source/probe_com.c **** #if (PROBE_COM_CFG_STAT_EN == DEF_ENABLED)
1562:..\..\..\..\..\..\uC-Probe\Target\Communication\Generic\Source/probe_com.c ****     ProbeCom_RxSymCtr++;                                        /* Inc global sym ctr.             
 1036              		.loc 1 1562 0
 1037 0076 144B     		ldr	r3, .L62
 1038 0078 1B68     		ldr	r3, [r3]
 1039 007a 0133     		adds	r3, r3, #1
 1040 007c 124A     		ldr	r2, .L62
 1041 007e 1360     		str	r3, [r2]
1563:..\..\..\..\..\..\uC-Probe\Target\Communication\Generic\Source/probe_com.c ****     ProbeCom_RxSymByteCtr += sym_size;
 1042              		.loc 1 1563 0
 1043 0080 124B     		ldr	r3, .L62+4
 1044 0082 1A68     		ldr	r2, [r3]
 1045 0084 7B69     		ldr	r3, [r7, #20]
 1046 0086 1344     		add	r3, r3, r2
 1047 0088 104A     		ldr	r2, .L62+4
 1048 008a 1360     		str	r3, [r2]
1564:..\..\..\..\..\..\uC-Probe\Target\Communication\Generic\Source/probe_com.c **** #endif
1565:..\..\..\..\..\..\uC-Probe\Target\Communication\Generic\Source/probe_com.c **** 
1566:..\..\..\..\..\..\uC-Probe\Target\Communication\Generic\Source/probe_com.c ****                                                                 /* Store TX pkt hdr :              
1567:..\..\..\..\..\..\uC-Probe\Target\Communication\Generic\Source/probe_com.c ****     ProbeCom_StoINT16U(&ptx_buf, PROBE_COM_FMT_TX_WR);          /* (a) TX pkt fmt.                 
 1049              		.loc 1 1567 0
 1050 008c 07F10803 		add	r3, r7, #8
 1051 0090 48F20301 		movw	r1, #32771
 1052 0094 1846     		mov	r0, r3
ARM GAS  C:\Users\alex\AppData\Local\Temp\ccKfBJGu.s 			page 47


 1053 0096 FFF7FEFF 		bl	ProbeCom_StoINT16U
1568:..\..\..\..\..\..\uC-Probe\Target\Communication\Generic\Source/probe_com.c ****     ProbeCom_StoINT08U(&ptx_buf, PROBE_COM_STATUS_OK);          /* (b) Target status.              
 1054              		.loc 1 1568 0
 1055 009a 07F10803 		add	r3, r7, #8
 1056 009e 0121     		movs	r1, #1
 1057 00a0 1846     		mov	r0, r3
 1058 00a2 FFF7FEFF 		bl	ProbeCom_StoINT08U
1569:..\..\..\..\..\..\uC-Probe\Target\Communication\Generic\Source/probe_com.c ****     ProbeCom_StoINT08U(&ptx_buf, ProbeCom_PktModifier());       /* (c) Modifier.                   
 1059              		.loc 1 1569 0
 1060 00a6 FFF7FEFF 		bl	ProbeCom_PktModifier
 1061 00aa 0346     		mov	r3, r0
 1062 00ac 1A46     		mov	r2, r3
 1063 00ae 07F10803 		add	r3, r7, #8
 1064 00b2 1146     		mov	r1, r2
 1065 00b4 1846     		mov	r0, r3
 1066 00b6 FFF7FEFF 		bl	ProbeCom_StoINT08U
1570:..\..\..\..\..\..\uC-Probe\Target\Communication\Generic\Source/probe_com.c **** 
1571:..\..\..\..\..\..\uC-Probe\Target\Communication\Generic\Source/probe_com.c **** 
1572:..\..\..\..\..\..\uC-Probe\Target\Communication\Generic\Source/probe_com.c **** 
1573:..\..\..\..\..\..\uC-Probe\Target\Communication\Generic\Source/probe_com.c ****                                                                 /* ------------------ RTN TX PKT SI
1574:..\..\..\..\..\..\uC-Probe\Target\Communication\Generic\Source/probe_com.c ****     tx_len = (CPU_SIZE_T)PROBE_COM_SIZE_TX_HDR;                 /* Tx pkt size = 4 (= Tx hdr size).
 1067              		.loc 1 1574 0
 1068 00ba 0423     		movs	r3, #4
 1069 00bc BB61     		str	r3, [r7, #24]
1575:..\..\..\..\..\..\uC-Probe\Target\Communication\Generic\Source/probe_com.c ****     return (tx_len);
 1070              		.loc 1 1575 0
 1071 00be BB69     		ldr	r3, [r7, #24]
 1072              	.L60:
1576:..\..\..\..\..\..\uC-Probe\Target\Communication\Generic\Source/probe_com.c **** }
 1073              		.loc 1 1576 0
 1074 00c0 1846     		mov	r0, r3
 1075 00c2 2037     		adds	r7, r7, #32
 1076              		.cfi_def_cfa_offset 8
 1077 00c4 BD46     		mov	sp, r7
 1078              		.cfi_def_cfa_register 13
 1079              		@ sp needed
 1080 00c6 80BD     		pop	{r7, pc}
 1081              	.L63:
 1082              		.align	2
 1083              	.L62:
 1084 00c8 00000000 		.word	ProbeCom_RxSymCtr
 1085 00cc 00000000 		.word	ProbeCom_RxSymByteCtr
 1086              		.cfi_endproc
 1087              	.LFE7:
 1088              		.size	ProbeCom_ReqWr, .-ProbeCom_ReqWr
 1089              		.section	.text.ProbeCom_ReqWrMulti,"ax",%progbits
 1090              		.align	2
 1091              		.thumb
 1092              		.thumb_func
 1093              		.type	ProbeCom_ReqWrMulti, %function
 1094              	ProbeCom_ReqWrMulti:
 1095              	.LFB8:
1577:..\..\..\..\..\..\uC-Probe\Target\Communication\Generic\Source/probe_com.c **** #endif
1578:..\..\..\..\..\..\uC-Probe\Target\Communication\Generic\Source/probe_com.c **** 
1579:..\..\..\..\..\..\uC-Probe\Target\Communication\Generic\Source/probe_com.c **** 
1580:..\..\..\..\..\..\uC-Probe\Target\Communication\Generic\Source/probe_com.c **** /*
1581:..\..\..\..\..\..\uC-Probe\Target\Communication\Generic\Source/probe_com.c **** ***************************************************************************************************
ARM GAS  C:\Users\alex\AppData\Local\Temp\ccKfBJGu.s 			page 48


1582:..\..\..\..\..\..\uC-Probe\Target\Communication\Generic\Source/probe_com.c **** *                                        ProbeCom_ReqWrMulti()
1583:..\..\..\..\..\..\uC-Probe\Target\Communication\Generic\Source/probe_com.c **** *
1584:..\..\..\..\..\..\uC-Probe\Target\Communication\Generic\Source/probe_com.c **** * Description : Parse the FMT_WR_MULTI request & formulate response.  This command causes the targe
1585:..\..\..\..\..\..\uC-Probe\Target\Communication\Generic\Source/probe_com.c **** *               write certain data into its memroy, for a certain number of {memory address, data l
1586:..\..\..\..\..\..\uC-Probe\Target\Communication\Generic\Source/probe_com.c **** *               data} triplets (which are given in the request).
1587:..\..\..\..\..\..\uC-Probe\Target\Communication\Generic\Source/probe_com.c **** *
1588:..\..\..\..\..\..\uC-Probe\Target\Communication\Generic\Source/probe_com.c **** * Argument(s) : prx_buf         Pointer to the receive  buffer
1589:..\..\..\..\..\..\uC-Probe\Target\Communication\Generic\Source/probe_com.c **** *
1590:..\..\..\..\..\..\uC-Probe\Target\Communication\Generic\Source/probe_com.c **** *               ptx_buf         Pointer to the transmit buffer
1591:..\..\..\..\..\..\uC-Probe\Target\Communication\Generic\Source/probe_com.c **** *
1592:..\..\..\..\..\..\uC-Probe\Target\Communication\Generic\Source/probe_com.c **** *               rx_pkt_size     Size of the receive  packet
1593:..\..\..\..\..\..\uC-Probe\Target\Communication\Generic\Source/probe_com.c **** *
1594:..\..\..\..\..\..\uC-Probe\Target\Communication\Generic\Source/probe_com.c **** *               tx_buf_size     Size of the transmit buffer
1595:..\..\..\..\..\..\uC-Probe\Target\Communication\Generic\Source/probe_com.c **** *
1596:..\..\..\..\..\..\uC-Probe\Target\Communication\Generic\Source/probe_com.c **** * Return(s)   : The number of bytes written to the tx buffer.
1597:..\..\..\..\..\..\uC-Probe\Target\Communication\Generic\Source/probe_com.c **** *
1598:..\..\..\..\..\..\uC-Probe\Target\Communication\Generic\Source/probe_com.c **** * Caller(s)   : ProbeCom_ParseRxPkt().
1599:..\..\..\..\..\..\uC-Probe\Target\Communication\Generic\Source/probe_com.c **** *
1600:..\..\..\..\..\..\uC-Probe\Target\Communication\Generic\Source/probe_com.c **** * Note(s)     : (1) The RX format:
1601:..\..\..\..\..\..\uC-Probe\Target\Communication\Generic\Source/probe_com.c **** *
1602:..\..\..\..\..\..\uC-Probe\Target\Communication\Generic\Source/probe_com.c **** *                   (A) A 2-byte format,  indicating the data segment format;
1603:..\..\..\..\..\..\uC-Probe\Target\Communication\Generic\Source/probe_com.c **** *                   (B) A n-byte item descriptor, for each item in the list, consiting of the follo
1604:..\..\..\..\..\..\uC-Probe\Target\Communication\Generic\Source/probe_com.c **** *
1605:..\..\..\..\..\..\uC-Probe\Target\Communication\Generic\Source/probe_com.c **** *                       (1) A 1-byte length,  indicating the number of bytes to write;
1606:..\..\..\..\..\..\uC-Probe\Target\Communication\Generic\Source/probe_com.c **** *                       (2) A 4-byte address, the starting address at which the data should be writ
1607:..\..\..\..\..\..\uC-Probe\Target\Communication\Generic\Source/probe_com.c **** *                       (3) The memory data.
1608:..\..\..\..\..\..\uC-Probe\Target\Communication\Generic\Source/probe_com.c **** *
1609:..\..\..\..\..\..\uC-Probe\Target\Communication\Generic\Source/probe_com.c **** *                         +-------------------------+------------+------------+
1610:..\..\..\..\..\..\uC-Probe\Target\Communication\Generic\Source/probe_com.c **** *                         |          Format         | Num. bytes |         Addr       ---
1611:..\..\..\..\..\..\uC-Probe\Target\Communication\Generic\Source/probe_com.c **** *                         +-------------------------+------------+------------+        |
1612:..\..\..\..\..\..\uC-Probe\Target\Communication\Generic\Source/probe_com.c **** *                         ress                                   |            |        |
1613:..\..\..\..\..\..\uC-Probe\Target\Communication\Generic\Source/probe_com.c **** *                         +--------------------------------------+            |        |    Item 1
1614:..\..\..\..\..\..\uC-Probe\Target\Communication\Generic\Source/probe_com.c **** *                         |                       Data                        |        |
1615:..\..\..\..\..\..\uC-Probe\Target\Communication\Generic\Source/probe_com.c **** *                         |                         .                         |        |
