ARM GAS  C:\Users\alex\AppData\Local\Temp\ccmAXObg.s 			page 1


   1              		.syntax unified
   2              		.cpu cortex-m3
   3              		.fpu softvfp
   4              		.eabi_attribute 20, 1
   5              		.eabi_attribute 21, 1
   6              		.eabi_attribute 23, 3
   7              		.eabi_attribute 24, 1
   8              		.eabi_attribute 25, 1
   9              		.eabi_attribute 26, 1
  10              		.eabi_attribute 30, 6
  11              		.eabi_attribute 34, 1
  12              		.eabi_attribute 18, 4
  13              		.thumb
  14              		.syntax unified
  15              		.file	"probe_rs232_os.c"
  16              		.text
  17              	.Ltext0:
  18              		.cfi_sections	.debug_frame
  19              		.bss
  20              		.align	2
  21              	ProbeRS232_OS_TaskStk:
  22 0000 00000000 		.space	512
  22      00000000 
  22      00000000 
  22      00000000 
  22      00000000 
  23              		.align	2
  24              	ProbeRS232_OS_TaskTCB:
  25 0200 00000000 		.space	192
  25      00000000 
  25      00000000 
  25      00000000 
  25      00000000 
  26              		.align	2
  27              	ProbeRS232_OS_Sem:
  28 02c0 00000000 		.space	40
  28      00000000 
  28      00000000 
  28      00000000 
  28      00000000 
  29              		.section	.rodata
  30              		.align	2
  31              	.LC0:
  32 0000 50726F62 		.ascii	"Probe RS-232\000"
  32      65205253 
  32      2D323332 
  32      00
  33 000d 000000   		.align	2
  34              	.LC1:
  35 0010 50726F62 		.ascii	"Probe RS232\000"
  35      65205253 
  35      32333200 
  36              		.section	.text.ProbeRS232_OS_Init,"ax",%progbits
  37              		.align	2
  38              		.global	ProbeRS232_OS_Init
  39              		.thumb
  40              		.thumb_func
ARM GAS  C:\Users\alex\AppData\Local\Temp\ccmAXObg.s 			page 2


  41              		.type	ProbeRS232_OS_Init, %function
  42              	ProbeRS232_OS_Init:
  43              	.LFB0:
  44              		.file 1 "..\\..\\..\\..\\..\\..\\uC-Probe\\Target\\Communication\\Generic\\RS-232\\OS\\uCOS-III\\p
   1:..\..\..\..\..\..\uC-Probe\Target\Communication\Generic\RS-232\OS\uCOS-III/probe_rs232_os.c **** /*
   2:..\..\..\..\..\..\uC-Probe\Target\Communication\Generic\RS-232\OS\uCOS-III/probe_rs232_os.c **** ***************************************************************************************************
   3:..\..\..\..\..\..\uC-Probe\Target\Communication\Generic\RS-232\OS\uCOS-III/probe_rs232_os.c **** *                                       uC/Probe Communication
   4:..\..\..\..\..\..\uC-Probe\Target\Communication\Generic\RS-232\OS\uCOS-III/probe_rs232_os.c **** *
   5:..\..\..\..\..\..\uC-Probe\Target\Communication\Generic\RS-232\OS\uCOS-III/probe_rs232_os.c **** *                         (c) Copyright 2007-2008; Micrium, Inc.; Weston, FL
   6:..\..\..\..\..\..\uC-Probe\Target\Communication\Generic\RS-232\OS\uCOS-III/probe_rs232_os.c **** *
   7:..\..\..\..\..\..\uC-Probe\Target\Communication\Generic\RS-232\OS\uCOS-III/probe_rs232_os.c **** *               All rights reserved.  Protected by international copyright laws.
   8:..\..\..\..\..\..\uC-Probe\Target\Communication\Generic\RS-232\OS\uCOS-III/probe_rs232_os.c **** *               Knowledge of the source code may NOT be used to develop a similar product.
   9:..\..\..\..\..\..\uC-Probe\Target\Communication\Generic\RS-232\OS\uCOS-III/probe_rs232_os.c **** *               Please help us continue to provide the Embedded community with the finest
  10:..\..\..\..\..\..\uC-Probe\Target\Communication\Generic\RS-232\OS\uCOS-III/probe_rs232_os.c **** *               software available.  Your honesty is greatly appreciated.
  11:..\..\..\..\..\..\uC-Probe\Target\Communication\Generic\RS-232\OS\uCOS-III/probe_rs232_os.c **** ***************************************************************************************************
  12:..\..\..\..\..\..\uC-Probe\Target\Communication\Generic\RS-232\OS\uCOS-III/probe_rs232_os.c **** */
  13:..\..\..\..\..\..\uC-Probe\Target\Communication\Generic\RS-232\OS\uCOS-III/probe_rs232_os.c **** 
  14:..\..\..\..\..\..\uC-Probe\Target\Communication\Generic\RS-232\OS\uCOS-III/probe_rs232_os.c **** /*
  15:..\..\..\..\..\..\uC-Probe\Target\Communication\Generic\RS-232\OS\uCOS-III/probe_rs232_os.c **** ***************************************************************************************************
  16:..\..\..\..\..\..\uC-Probe\Target\Communication\Generic\RS-232\OS\uCOS-III/probe_rs232_os.c **** *
  17:..\..\..\..\..\..\uC-Probe\Target\Communication\Generic\RS-232\OS\uCOS-III/probe_rs232_os.c **** *                                        COMMUNICATION: RS-232
  18:..\..\..\..\..\..\uC-Probe\Target\Communication\Generic\RS-232\OS\uCOS-III/probe_rs232_os.c **** *                                        Micrium uC/OS-III PORT
  19:..\..\..\..\..\..\uC-Probe\Target\Communication\Generic\RS-232\OS\uCOS-III/probe_rs232_os.c **** *
  20:..\..\..\..\..\..\uC-Probe\Target\Communication\Generic\RS-232\OS\uCOS-III/probe_rs232_os.c **** * Filename      : probe_rs232_os.c
  21:..\..\..\..\..\..\uC-Probe\Target\Communication\Generic\RS-232\OS\uCOS-III/probe_rs232_os.c **** * Version       : V2.30
  22:..\..\..\..\..\..\uC-Probe\Target\Communication\Generic\RS-232\OS\uCOS-III/probe_rs232_os.c **** * Programmer(s) : BAN
  23:..\..\..\..\..\..\uC-Probe\Target\Communication\Generic\RS-232\OS\uCOS-III/probe_rs232_os.c **** *                 FT
  24:..\..\..\..\..\..\uC-Probe\Target\Communication\Generic\RS-232\OS\uCOS-III/probe_rs232_os.c **** ***************************************************************************************************
  25:..\..\..\..\..\..\uC-Probe\Target\Communication\Generic\RS-232\OS\uCOS-III/probe_rs232_os.c **** * Note(s)       : (1) This file is the uC/OS-III layer for the uC/Probe RS-232 Communication Module
  26:..\..\..\..\..\..\uC-Probe\Target\Communication\Generic\RS-232\OS\uCOS-III/probe_rs232_os.c **** *
  27:..\..\..\..\..\..\uC-Probe\Target\Communication\Generic\RS-232\OS\uCOS-III/probe_rs232_os.c **** *                 (2) Assumes uC/OS-II V3.00 is included in the project build.
  28:..\..\..\..\..\..\uC-Probe\Target\Communication\Generic\RS-232\OS\uCOS-III/probe_rs232_os.c **** ***************************************************************************************************
  29:..\..\..\..\..\..\uC-Probe\Target\Communication\Generic\RS-232\OS\uCOS-III/probe_rs232_os.c **** */
  30:..\..\..\..\..\..\uC-Probe\Target\Communication\Generic\RS-232\OS\uCOS-III/probe_rs232_os.c **** 
  31:..\..\..\..\..\..\uC-Probe\Target\Communication\Generic\RS-232\OS\uCOS-III/probe_rs232_os.c **** 
  32:..\..\..\..\..\..\uC-Probe\Target\Communication\Generic\RS-232\OS\uCOS-III/probe_rs232_os.c **** /*
  33:..\..\..\..\..\..\uC-Probe\Target\Communication\Generic\RS-232\OS\uCOS-III/probe_rs232_os.c **** ***************************************************************************************************
  34:..\..\..\..\..\..\uC-Probe\Target\Communication\Generic\RS-232\OS\uCOS-III/probe_rs232_os.c **** *                                            INCLUDE FILES
  35:..\..\..\..\..\..\uC-Probe\Target\Communication\Generic\RS-232\OS\uCOS-III/probe_rs232_os.c **** ***************************************************************************************************
  36:..\..\..\..\..\..\uC-Probe\Target\Communication\Generic\RS-232\OS\uCOS-III/probe_rs232_os.c **** */
  37:..\..\..\..\..\..\uC-Probe\Target\Communication\Generic\RS-232\OS\uCOS-III/probe_rs232_os.c **** 
  38:..\..\..\..\..\..\uC-Probe\Target\Communication\Generic\RS-232\OS\uCOS-III/probe_rs232_os.c **** #include  <probe_com.h>
  39:..\..\..\..\..\..\uC-Probe\Target\Communication\Generic\RS-232\OS\uCOS-III/probe_rs232_os.c **** #include  <probe_rs232.h>
  40:..\..\..\..\..\..\uC-Probe\Target\Communication\Generic\RS-232\OS\uCOS-III/probe_rs232_os.c **** #include  <os.h>
  41:..\..\..\..\..\..\uC-Probe\Target\Communication\Generic\RS-232\OS\uCOS-III/probe_rs232_os.c **** 
  42:..\..\..\..\..\..\uC-Probe\Target\Communication\Generic\RS-232\OS\uCOS-III/probe_rs232_os.c **** 
  43:..\..\..\..\..\..\uC-Probe\Target\Communication\Generic\RS-232\OS\uCOS-III/probe_rs232_os.c **** /*
  44:..\..\..\..\..\..\uC-Probe\Target\Communication\Generic\RS-232\OS\uCOS-III/probe_rs232_os.c **** ***************************************************************************************************
  45:..\..\..\..\..\..\uC-Probe\Target\Communication\Generic\RS-232\OS\uCOS-III/probe_rs232_os.c **** *                                               ENABLE
  46:..\..\..\..\..\..\uC-Probe\Target\Communication\Generic\RS-232\OS\uCOS-III/probe_rs232_os.c **** *
  47:..\..\..\..\..\..\uC-Probe\Target\Communication\Generic\RS-232\OS\uCOS-III/probe_rs232_os.c **** * Note(s) : (1) See 'probe_rs232.h  ENABLE'.
  48:..\..\..\..\..\..\uC-Probe\Target\Communication\Generic\RS-232\OS\uCOS-III/probe_rs232_os.c **** ***************************************************************************************************
  49:..\..\..\..\..\..\uC-Probe\Target\Communication\Generic\RS-232\OS\uCOS-III/probe_rs232_os.c **** */
  50:..\..\..\..\..\..\uC-Probe\Target\Communication\Generic\RS-232\OS\uCOS-III/probe_rs232_os.c **** 
  51:..\..\..\..\..\..\uC-Probe\Target\Communication\Generic\RS-232\OS\uCOS-III/probe_rs232_os.c **** #if (PROBE_COM_CFG_RS232_EN == DEF_ENABLED)                     /* See Note #1.                    
  52:..\..\..\..\..\..\uC-Probe\Target\Communication\Generic\RS-232\OS\uCOS-III/probe_rs232_os.c **** 
  53:..\..\..\..\..\..\uC-Probe\Target\Communication\Generic\RS-232\OS\uCOS-III/probe_rs232_os.c **** 
ARM GAS  C:\Users\alex\AppData\Local\Temp\ccmAXObg.s 			page 3


  54:..\..\..\..\..\..\uC-Probe\Target\Communication\Generic\RS-232\OS\uCOS-III/probe_rs232_os.c **** /*
  55:..\..\..\..\..\..\uC-Probe\Target\Communication\Generic\RS-232\OS\uCOS-III/probe_rs232_os.c **** ***************************************************************************************************
  56:..\..\..\..\..\..\uC-Probe\Target\Communication\Generic\RS-232\OS\uCOS-III/probe_rs232_os.c **** *                                            LOCAL DEFINES
  57:..\..\..\..\..\..\uC-Probe\Target\Communication\Generic\RS-232\OS\uCOS-III/probe_rs232_os.c **** ***************************************************************************************************
  58:..\..\..\..\..\..\uC-Probe\Target\Communication\Generic\RS-232\OS\uCOS-III/probe_rs232_os.c **** */
  59:..\..\..\..\..\..\uC-Probe\Target\Communication\Generic\RS-232\OS\uCOS-III/probe_rs232_os.c **** 
  60:..\..\..\..\..\..\uC-Probe\Target\Communication\Generic\RS-232\OS\uCOS-III/probe_rs232_os.c **** #define  PROBE_RS232_TASK_STK_LIMIT_PCT_FULL             90u
  61:..\..\..\..\..\..\uC-Probe\Target\Communication\Generic\RS-232\OS\uCOS-III/probe_rs232_os.c **** #define  PROBE_RS232_TASK_STK_LIMIT             ((PROBE_RS232_CFG_TASK_STK_SIZE * (100u - PROBE_RS2
  62:..\..\..\..\..\..\uC-Probe\Target\Communication\Generic\RS-232\OS\uCOS-III/probe_rs232_os.c **** 
  63:..\..\..\..\..\..\uC-Probe\Target\Communication\Generic\RS-232\OS\uCOS-III/probe_rs232_os.c **** /*
  64:..\..\..\..\..\..\uC-Probe\Target\Communication\Generic\RS-232\OS\uCOS-III/probe_rs232_os.c **** ***************************************************************************************************
  65:..\..\..\..\..\..\uC-Probe\Target\Communication\Generic\RS-232\OS\uCOS-III/probe_rs232_os.c **** *                                           LOCAL CONSTANTS
  66:..\..\..\..\..\..\uC-Probe\Target\Communication\Generic\RS-232\OS\uCOS-III/probe_rs232_os.c **** ***************************************************************************************************
  67:..\..\..\..\..\..\uC-Probe\Target\Communication\Generic\RS-232\OS\uCOS-III/probe_rs232_os.c **** */
  68:..\..\..\..\..\..\uC-Probe\Target\Communication\Generic\RS-232\OS\uCOS-III/probe_rs232_os.c **** 
  69:..\..\..\..\..\..\uC-Probe\Target\Communication\Generic\RS-232\OS\uCOS-III/probe_rs232_os.c **** 
  70:..\..\..\..\..\..\uC-Probe\Target\Communication\Generic\RS-232\OS\uCOS-III/probe_rs232_os.c **** /*
  71:..\..\..\..\..\..\uC-Probe\Target\Communication\Generic\RS-232\OS\uCOS-III/probe_rs232_os.c **** ***************************************************************************************************
  72:..\..\..\..\..\..\uC-Probe\Target\Communication\Generic\RS-232\OS\uCOS-III/probe_rs232_os.c **** *                                          LOCAL DATA TYPES
  73:..\..\..\..\..\..\uC-Probe\Target\Communication\Generic\RS-232\OS\uCOS-III/probe_rs232_os.c **** ***************************************************************************************************
  74:..\..\..\..\..\..\uC-Probe\Target\Communication\Generic\RS-232\OS\uCOS-III/probe_rs232_os.c **** */
  75:..\..\..\..\..\..\uC-Probe\Target\Communication\Generic\RS-232\OS\uCOS-III/probe_rs232_os.c **** 
  76:..\..\..\..\..\..\uC-Probe\Target\Communication\Generic\RS-232\OS\uCOS-III/probe_rs232_os.c **** 
  77:..\..\..\..\..\..\uC-Probe\Target\Communication\Generic\RS-232\OS\uCOS-III/probe_rs232_os.c **** /*
  78:..\..\..\..\..\..\uC-Probe\Target\Communication\Generic\RS-232\OS\uCOS-III/probe_rs232_os.c **** ***************************************************************************************************
  79:..\..\..\..\..\..\uC-Probe\Target\Communication\Generic\RS-232\OS\uCOS-III/probe_rs232_os.c **** *                                            LOCAL TABLES
  80:..\..\..\..\..\..\uC-Probe\Target\Communication\Generic\RS-232\OS\uCOS-III/probe_rs232_os.c **** ***************************************************************************************************
  81:..\..\..\..\..\..\uC-Probe\Target\Communication\Generic\RS-232\OS\uCOS-III/probe_rs232_os.c **** */
  82:..\..\..\..\..\..\uC-Probe\Target\Communication\Generic\RS-232\OS\uCOS-III/probe_rs232_os.c **** 
  83:..\..\..\..\..\..\uC-Probe\Target\Communication\Generic\RS-232\OS\uCOS-III/probe_rs232_os.c **** 
  84:..\..\..\..\..\..\uC-Probe\Target\Communication\Generic\RS-232\OS\uCOS-III/probe_rs232_os.c **** /*
  85:..\..\..\..\..\..\uC-Probe\Target\Communication\Generic\RS-232\OS\uCOS-III/probe_rs232_os.c **** ***************************************************************************************************
  86:..\..\..\..\..\..\uC-Probe\Target\Communication\Generic\RS-232\OS\uCOS-III/probe_rs232_os.c **** *                                       LOCAL GLOBAL VARIABLES
  87:..\..\..\..\..\..\uC-Probe\Target\Communication\Generic\RS-232\OS\uCOS-III/probe_rs232_os.c **** ***************************************************************************************************
  88:..\..\..\..\..\..\uC-Probe\Target\Communication\Generic\RS-232\OS\uCOS-III/probe_rs232_os.c **** */
  89:..\..\..\..\..\..\uC-Probe\Target\Communication\Generic\RS-232\OS\uCOS-III/probe_rs232_os.c **** 
  90:..\..\..\..\..\..\uC-Probe\Target\Communication\Generic\RS-232\OS\uCOS-III/probe_rs232_os.c **** #if (PROBE_RS232_CFG_PARSE_TASK_EN == DEF_ENABLED)
  91:..\..\..\..\..\..\uC-Probe\Target\Communication\Generic\RS-232\OS\uCOS-III/probe_rs232_os.c **** static  CPU_STK  ProbeRS232_OS_TaskStk[PROBE_RS232_CFG_TASK_STK_SIZE];  /* Probe RS-232 task stack.
  92:..\..\..\..\..\..\uC-Probe\Target\Communication\Generic\RS-232\OS\uCOS-III/probe_rs232_os.c **** static  OS_TCB   ProbeRS232_OS_TaskTCB;
  93:..\..\..\..\..\..\uC-Probe\Target\Communication\Generic\RS-232\OS\uCOS-III/probe_rs232_os.c **** 
  94:..\..\..\..\..\..\uC-Probe\Target\Communication\Generic\RS-232\OS\uCOS-III/probe_rs232_os.c **** static  OS_SEM   ProbeRS232_OS_Sem;                                     /* Packet receive signal.  
  95:..\..\..\..\..\..\uC-Probe\Target\Communication\Generic\RS-232\OS\uCOS-III/probe_rs232_os.c **** #endif
  96:..\..\..\..\..\..\uC-Probe\Target\Communication\Generic\RS-232\OS\uCOS-III/probe_rs232_os.c **** 
  97:..\..\..\..\..\..\uC-Probe\Target\Communication\Generic\RS-232\OS\uCOS-III/probe_rs232_os.c **** 
  98:..\..\..\..\..\..\uC-Probe\Target\Communication\Generic\RS-232\OS\uCOS-III/probe_rs232_os.c **** /*
  99:..\..\..\..\..\..\uC-Probe\Target\Communication\Generic\RS-232\OS\uCOS-III/probe_rs232_os.c **** ***************************************************************************************************
 100:..\..\..\..\..\..\uC-Probe\Target\Communication\Generic\RS-232\OS\uCOS-III/probe_rs232_os.c **** *                                      LOCAL FUNCTION PROTOTYPES
 101:..\..\..\..\..\..\uC-Probe\Target\Communication\Generic\RS-232\OS\uCOS-III/probe_rs232_os.c **** ***************************************************************************************************
 102:..\..\..\..\..\..\uC-Probe\Target\Communication\Generic\RS-232\OS\uCOS-III/probe_rs232_os.c **** */
 103:..\..\..\..\..\..\uC-Probe\Target\Communication\Generic\RS-232\OS\uCOS-III/probe_rs232_os.c **** 
 104:..\..\..\..\..\..\uC-Probe\Target\Communication\Generic\RS-232\OS\uCOS-III/probe_rs232_os.c **** #if (PROBE_RS232_CFG_PARSE_TASK_EN == DEF_ENABLED)
 105:..\..\..\..\..\..\uC-Probe\Target\Communication\Generic\RS-232\OS\uCOS-III/probe_rs232_os.c **** static  void  ProbeRS232_OS_Task(void *p_arg);                          /* Probe RS-232 task.      
 106:..\..\..\..\..\..\uC-Probe\Target\Communication\Generic\RS-232\OS\uCOS-III/probe_rs232_os.c **** #endif
 107:..\..\..\..\..\..\uC-Probe\Target\Communication\Generic\RS-232\OS\uCOS-III/probe_rs232_os.c **** 
 108:..\..\..\..\..\..\uC-Probe\Target\Communication\Generic\RS-232\OS\uCOS-III/probe_rs232_os.c **** 
 109:..\..\..\..\..\..\uC-Probe\Target\Communication\Generic\RS-232\OS\uCOS-III/probe_rs232_os.c **** /*
 110:..\..\..\..\..\..\uC-Probe\Target\Communication\Generic\RS-232\OS\uCOS-III/probe_rs232_os.c **** ***************************************************************************************************
ARM GAS  C:\Users\alex\AppData\Local\Temp\ccmAXObg.s 			page 4


 111:..\..\..\..\..\..\uC-Probe\Target\Communication\Generic\RS-232\OS\uCOS-III/probe_rs232_os.c **** *                                     LOCAL CONFIGURATION ERRORS
 112:..\..\..\..\..\..\uC-Probe\Target\Communication\Generic\RS-232\OS\uCOS-III/probe_rs232_os.c **** ***************************************************************************************************
 113:..\..\..\..\..\..\uC-Probe\Target\Communication\Generic\RS-232\OS\uCOS-III/probe_rs232_os.c **** */
 114:..\..\..\..\..\..\uC-Probe\Target\Communication\Generic\RS-232\OS\uCOS-III/probe_rs232_os.c **** 
 115:..\..\..\..\..\..\uC-Probe\Target\Communication\Generic\RS-232\OS\uCOS-III/probe_rs232_os.c **** #if     (PROBE_RS232_CFG_PARSE_TASK_EN == DEF_ENABLED)
 116:..\..\..\..\..\..\uC-Probe\Target\Communication\Generic\RS-232\OS\uCOS-III/probe_rs232_os.c **** #if     (OS_CFG_SEM_EN < 1)
 117:..\..\..\..\..\..\uC-Probe\Target\Communication\Generic\RS-232\OS\uCOS-III/probe_rs232_os.c **** #error  "OS_CFG_SEM_EN          illegally #define'd in 'os_cfg.h'   "
 118:..\..\..\..\..\..\uC-Probe\Target\Communication\Generic\RS-232\OS\uCOS-III/probe_rs232_os.c **** #error  "                       [MUST be  > 0]                      "
 119:..\..\..\..\..\..\uC-Probe\Target\Communication\Generic\RS-232\OS\uCOS-III/probe_rs232_os.c **** #endif
 120:..\..\..\..\..\..\uC-Probe\Target\Communication\Generic\RS-232\OS\uCOS-III/probe_rs232_os.c **** #endif
 121:..\..\..\..\..\..\uC-Probe\Target\Communication\Generic\RS-232\OS\uCOS-III/probe_rs232_os.c **** 
 122:..\..\..\..\..\..\uC-Probe\Target\Communication\Generic\RS-232\OS\uCOS-III/probe_rs232_os.c **** 
 123:..\..\..\..\..\..\uC-Probe\Target\Communication\Generic\RS-232\OS\uCOS-III/probe_rs232_os.c **** /*
 124:..\..\..\..\..\..\uC-Probe\Target\Communication\Generic\RS-232\OS\uCOS-III/probe_rs232_os.c **** ***************************************************************************************************
 125:..\..\..\..\..\..\uC-Probe\Target\Communication\Generic\RS-232\OS\uCOS-III/probe_rs232_os.c **** *                                         ProbeRS232_OS_Init()
 126:..\..\..\..\..\..\uC-Probe\Target\Communication\Generic\RS-232\OS\uCOS-III/probe_rs232_os.c **** *
 127:..\..\..\..\..\..\uC-Probe\Target\Communication\Generic\RS-232\OS\uCOS-III/probe_rs232_os.c **** * Description : Create RTOS objects for RS-232 communication.
 128:..\..\..\..\..\..\uC-Probe\Target\Communication\Generic\RS-232\OS\uCOS-III/probe_rs232_os.c **** *
 129:..\..\..\..\..\..\uC-Probe\Target\Communication\Generic\RS-232\OS\uCOS-III/probe_rs232_os.c **** * Argument(s) : none.
 130:..\..\..\..\..\..\uC-Probe\Target\Communication\Generic\RS-232\OS\uCOS-III/probe_rs232_os.c **** *
 131:..\..\..\..\..\..\uC-Probe\Target\Communication\Generic\RS-232\OS\uCOS-III/probe_rs232_os.c **** * Return(s)   : DEF_OK,   if OS initialization successful.
 132:..\..\..\..\..\..\uC-Probe\Target\Communication\Generic\RS-232\OS\uCOS-III/probe_rs232_os.c **** *               DEF_FAIL, otherwise.
 133:..\..\..\..\..\..\uC-Probe\Target\Communication\Generic\RS-232\OS\uCOS-III/probe_rs232_os.c **** *
 134:..\..\..\..\..\..\uC-Probe\Target\Communication\Generic\RS-232\OS\uCOS-III/probe_rs232_os.c **** * Caller(s)   : ProbeRS232_Init().
 135:..\..\..\..\..\..\uC-Probe\Target\Communication\Generic\RS-232\OS\uCOS-III/probe_rs232_os.c **** *
 136:..\..\..\..\..\..\uC-Probe\Target\Communication\Generic\RS-232\OS\uCOS-III/probe_rs232_os.c **** * Note(s)     : none.
 137:..\..\..\..\..\..\uC-Probe\Target\Communication\Generic\RS-232\OS\uCOS-III/probe_rs232_os.c **** ***************************************************************************************************
 138:..\..\..\..\..\..\uC-Probe\Target\Communication\Generic\RS-232\OS\uCOS-III/probe_rs232_os.c **** */
 139:..\..\..\..\..\..\uC-Probe\Target\Communication\Generic\RS-232\OS\uCOS-III/probe_rs232_os.c **** 
 140:..\..\..\..\..\..\uC-Probe\Target\Communication\Generic\RS-232\OS\uCOS-III/probe_rs232_os.c **** #if (PROBE_RS232_CFG_PARSE_TASK_EN == DEF_ENABLED)
 141:..\..\..\..\..\..\uC-Probe\Target\Communication\Generic\RS-232\OS\uCOS-III/probe_rs232_os.c **** CPU_BOOLEAN  ProbeRS232_OS_Init (void)
 142:..\..\..\..\..\..\uC-Probe\Target\Communication\Generic\RS-232\OS\uCOS-III/probe_rs232_os.c **** {
  45              		.loc 1 142 0
  46              		.cfi_startproc
  47              		@ args = 0, pretend = 0, frame = 8
  48              		@ frame_needed = 1, uses_anonymous_args = 0
  49 0000 80B5     		push	{r7, lr}
  50              		.cfi_def_cfa_offset 8
  51              		.cfi_offset 7, -8
  52              		.cfi_offset 14, -4
  53 0002 8CB0     		sub	sp, sp, #48
  54              		.cfi_def_cfa_offset 56
  55 0004 0AAF     		add	r7, sp, #40
  56              		.cfi_def_cfa 7, 16
 143:..\..\..\..\..\..\uC-Probe\Target\Communication\Generic\RS-232\OS\uCOS-III/probe_rs232_os.c ****     OS_ERR  os_err;
 144:..\..\..\..\..\..\uC-Probe\Target\Communication\Generic\RS-232\OS\uCOS-III/probe_rs232_os.c **** 
 145:..\..\..\..\..\..\uC-Probe\Target\Communication\Generic\RS-232\OS\uCOS-III/probe_rs232_os.c **** 
 146:..\..\..\..\..\..\uC-Probe\Target\Communication\Generic\RS-232\OS\uCOS-III/probe_rs232_os.c ****     OSSemCreate((OS_SEM     *)&ProbeRS232_OS_Sem,
  57              		.loc 1 146 0
  58 0006 BB1D     		adds	r3, r7, #6
  59 0008 0022     		movs	r2, #0
  60 000a 1549     		ldr	r1, .L6
  61 000c 1548     		ldr	r0, .L6+4
  62 000e FFF7FEFF 		bl	OSSemCreate
 147:..\..\..\..\..\..\uC-Probe\Target\Communication\Generic\RS-232\OS\uCOS-III/probe_rs232_os.c ****                 (CPU_CHAR   *)"Probe RS-232",
 148:..\..\..\..\..\..\uC-Probe\Target\Communication\Generic\RS-232\OS\uCOS-III/probe_rs232_os.c ****                 (OS_SEM_CTR  ) 0,
 149:..\..\..\..\..\..\uC-Probe\Target\Communication\Generic\RS-232\OS\uCOS-III/probe_rs232_os.c ****                 (OS_ERR     *)&os_err);
ARM GAS  C:\Users\alex\AppData\Local\Temp\ccmAXObg.s 			page 5


 150:..\..\..\..\..\..\uC-Probe\Target\Communication\Generic\RS-232\OS\uCOS-III/probe_rs232_os.c **** 
 151:..\..\..\..\..\..\uC-Probe\Target\Communication\Generic\RS-232\OS\uCOS-III/probe_rs232_os.c ****     if (os_err != OS_ERR_NONE) {
  63              		.loc 1 151 0
  64 0012 FB88     		ldrh	r3, [r7, #6]
  65 0014 002B     		cmp	r3, #0
  66 0016 01D0     		beq	.L2
 152:..\..\..\..\..\..\uC-Probe\Target\Communication\Generic\RS-232\OS\uCOS-III/probe_rs232_os.c ****         return (DEF_FAIL);
  67              		.loc 1 152 0
  68 0018 0023     		movs	r3, #0
  69 001a 1DE0     		b	.L5
  70              	.L2:
 153:..\..\..\..\..\..\uC-Probe\Target\Communication\Generic\RS-232\OS\uCOS-III/probe_rs232_os.c ****     }
 154:..\..\..\..\..\..\uC-Probe\Target\Communication\Generic\RS-232\OS\uCOS-III/probe_rs232_os.c **** 
 155:..\..\..\..\..\..\uC-Probe\Target\Communication\Generic\RS-232\OS\uCOS-III/probe_rs232_os.c **** 
 156:..\..\..\..\..\..\uC-Probe\Target\Communication\Generic\RS-232\OS\uCOS-III/probe_rs232_os.c ****     OSTaskCreate((OS_TCB     *)&ProbeRS232_OS_TaskTCB,
  71              		.loc 1 156 0
  72 001c BB1D     		adds	r3, r7, #6
  73 001e 0893     		str	r3, [sp, #32]
  74 0020 0323     		movs	r3, #3
  75 0022 0793     		str	r3, [sp, #28]
  76 0024 0023     		movs	r3, #0
  77 0026 0693     		str	r3, [sp, #24]
  78 0028 0023     		movs	r3, #0
  79 002a 0593     		str	r3, [sp, #20]
  80 002c 0023     		movs	r3, #0
  81 002e 0493     		str	r3, [sp, #16]
  82 0030 8023     		movs	r3, #128
  83 0032 0393     		str	r3, [sp, #12]
  84 0034 0C23     		movs	r3, #12
  85 0036 0293     		str	r3, [sp, #8]
  86 0038 0B4B     		ldr	r3, .L6+8
  87 003a 0193     		str	r3, [sp, #4]
  88 003c 0423     		movs	r3, #4
  89 003e 0093     		str	r3, [sp]
  90 0040 0023     		movs	r3, #0
  91 0042 0A4A     		ldr	r2, .L6+12
  92 0044 0A49     		ldr	r1, .L6+16
  93 0046 0B48     		ldr	r0, .L6+20
  94 0048 FFF7FEFF 		bl	OSTaskCreate
 157:..\..\..\..\..\..\uC-Probe\Target\Communication\Generic\RS-232\OS\uCOS-III/probe_rs232_os.c ****                  (CPU_CHAR   *)"Probe RS232",
 158:..\..\..\..\..\..\uC-Probe\Target\Communication\Generic\RS-232\OS\uCOS-III/probe_rs232_os.c ****                  (OS_TASK_PTR ) ProbeRS232_OS_Task,
 159:..\..\..\..\..\..\uC-Probe\Target\Communication\Generic\RS-232\OS\uCOS-III/probe_rs232_os.c ****                  (void       *) 0,
 160:..\..\..\..\..\..\uC-Probe\Target\Communication\Generic\RS-232\OS\uCOS-III/probe_rs232_os.c ****                  (OS_PRIO     ) PROBE_RS232_CFG_TASK_PRIO,
 161:..\..\..\..\..\..\uC-Probe\Target\Communication\Generic\RS-232\OS\uCOS-III/probe_rs232_os.c ****                  (CPU_STK    *)&ProbeRS232_OS_TaskStk[0],
 162:..\..\..\..\..\..\uC-Probe\Target\Communication\Generic\RS-232\OS\uCOS-III/probe_rs232_os.c ****                  (CPU_STK_SIZE) PROBE_RS232_TASK_STK_LIMIT,
 163:..\..\..\..\..\..\uC-Probe\Target\Communication\Generic\RS-232\OS\uCOS-III/probe_rs232_os.c ****                  (CPU_STK_SIZE) PROBE_RS232_CFG_TASK_STK_SIZE,
 164:..\..\..\..\..\..\uC-Probe\Target\Communication\Generic\RS-232\OS\uCOS-III/probe_rs232_os.c ****                  (OS_MSG_QTY  ) 0u,
 165:..\..\..\..\..\..\uC-Probe\Target\Communication\Generic\RS-232\OS\uCOS-III/probe_rs232_os.c ****                  (OS_TICK     ) 0u,
 166:..\..\..\..\..\..\uC-Probe\Target\Communication\Generic\RS-232\OS\uCOS-III/probe_rs232_os.c ****                  (void       *) 0,
 167:..\..\..\..\..\..\uC-Probe\Target\Communication\Generic\RS-232\OS\uCOS-III/probe_rs232_os.c ****                  (OS_OPT      )(OS_OPT_TASK_STK_CHK | OS_OPT_TASK_STK_CLR),
 168:..\..\..\..\..\..\uC-Probe\Target\Communication\Generic\RS-232\OS\uCOS-III/probe_rs232_os.c ****                  (OS_ERR     *)&os_err);
 169:..\..\..\..\..\..\uC-Probe\Target\Communication\Generic\RS-232\OS\uCOS-III/probe_rs232_os.c **** 
 170:..\..\..\..\..\..\uC-Probe\Target\Communication\Generic\RS-232\OS\uCOS-III/probe_rs232_os.c ****     if (os_err != OS_ERR_NONE) {
  95              		.loc 1 170 0
  96 004c FB88     		ldrh	r3, [r7, #6]
  97 004e 002B     		cmp	r3, #0
  98 0050 01D0     		beq	.L4
ARM GAS  C:\Users\alex\AppData\Local\Temp\ccmAXObg.s 			page 6


 171:..\..\..\..\..\..\uC-Probe\Target\Communication\Generic\RS-232\OS\uCOS-III/probe_rs232_os.c ****         return (DEF_FAIL);
  99              		.loc 1 171 0
 100 0052 0023     		movs	r3, #0
 101 0054 00E0     		b	.L5
 102              	.L4:
 172:..\..\..\..\..\..\uC-Probe\Target\Communication\Generic\RS-232\OS\uCOS-III/probe_rs232_os.c ****     }
 173:..\..\..\..\..\..\uC-Probe\Target\Communication\Generic\RS-232\OS\uCOS-III/probe_rs232_os.c **** 
 174:..\..\..\..\..\..\uC-Probe\Target\Communication\Generic\RS-232\OS\uCOS-III/probe_rs232_os.c ****     return (DEF_OK);
 103              		.loc 1 174 0
 104 0056 0123     		movs	r3, #1
 105              	.L5:
 175:..\..\..\..\..\..\uC-Probe\Target\Communication\Generic\RS-232\OS\uCOS-III/probe_rs232_os.c **** }
 106              		.loc 1 175 0 discriminator 1
 107 0058 1846     		mov	r0, r3
 108 005a 0837     		adds	r7, r7, #8
 109              		.cfi_def_cfa_offset 8
 110 005c BD46     		mov	sp, r7
 111              		.cfi_def_cfa_register 13
 112              		@ sp needed
 113 005e 80BD     		pop	{r7, pc}
 114              	.L7:
 115              		.align	2
 116              	.L6:
 117 0060 00000000 		.word	.LC0
 118 0064 C0020000 		.word	ProbeRS232_OS_Sem
 119 0068 00000000 		.word	ProbeRS232_OS_TaskStk
 120 006c 00000000 		.word	ProbeRS232_OS_Task
 121 0070 10000000 		.word	.LC1
 122 0074 00020000 		.word	ProbeRS232_OS_TaskTCB
 123              		.cfi_endproc
 124              	.LFE0:
 125              		.size	ProbeRS232_OS_Init, .-ProbeRS232_OS_Init
 126              		.section	.text.ProbeRS232_OS_Pend,"ax",%progbits
 127              		.align	2
 128              		.global	ProbeRS232_OS_Pend
 129              		.thumb
 130              		.thumb_func
 131              		.type	ProbeRS232_OS_Pend, %function
 132              	ProbeRS232_OS_Pend:
 133              	.LFB1:
 176:..\..\..\..\..\..\uC-Probe\Target\Communication\Generic\RS-232\OS\uCOS-III/probe_rs232_os.c **** #endif
 177:..\..\..\..\..\..\uC-Probe\Target\Communication\Generic\RS-232\OS\uCOS-III/probe_rs232_os.c **** 
 178:..\..\..\..\..\..\uC-Probe\Target\Communication\Generic\RS-232\OS\uCOS-III/probe_rs232_os.c **** 
 179:..\..\..\..\..\..\uC-Probe\Target\Communication\Generic\RS-232\OS\uCOS-III/probe_rs232_os.c **** /*
 180:..\..\..\..\..\..\uC-Probe\Target\Communication\Generic\RS-232\OS\uCOS-III/probe_rs232_os.c **** ***************************************************************************************************
 181:..\..\..\..\..\..\uC-Probe\Target\Communication\Generic\RS-232\OS\uCOS-III/probe_rs232_os.c **** *                                       ProbeRS232_OS_Pend()
 182:..\..\..\..\..\..\uC-Probe\Target\Communication\Generic\RS-232\OS\uCOS-III/probe_rs232_os.c **** *
 183:..\..\..\..\..\..\uC-Probe\Target\Communication\Generic\RS-232\OS\uCOS-III/probe_rs232_os.c **** * Description : Wait for a packet to be received.
 184:..\..\..\..\..\..\uC-Probe\Target\Communication\Generic\RS-232\OS\uCOS-III/probe_rs232_os.c **** *
 185:..\..\..\..\..\..\uC-Probe\Target\Communication\Generic\RS-232\OS\uCOS-III/probe_rs232_os.c **** * Argument(s) : none.
 186:..\..\..\..\..\..\uC-Probe\Target\Communication\Generic\RS-232\OS\uCOS-III/probe_rs232_os.c **** *
 187:..\..\..\..\..\..\uC-Probe\Target\Communication\Generic\RS-232\OS\uCOS-III/probe_rs232_os.c **** * Return(s)   : none.
 188:..\..\..\..\..\..\uC-Probe\Target\Communication\Generic\RS-232\OS\uCOS-III/probe_rs232_os.c **** *
 189:..\..\..\..\..\..\uC-Probe\Target\Communication\Generic\RS-232\OS\uCOS-III/probe_rs232_os.c **** * Caller(s)   : ProbeRS232_Task().
 190:..\..\..\..\..\..\uC-Probe\Target\Communication\Generic\RS-232\OS\uCOS-III/probe_rs232_os.c **** *
 191:..\..\..\..\..\..\uC-Probe\Target\Communication\Generic\RS-232\OS\uCOS-III/probe_rs232_os.c **** * Note(s)     : none.
 192:..\..\..\..\..\..\uC-Probe\Target\Communication\Generic\RS-232\OS\uCOS-III/probe_rs232_os.c **** ***************************************************************************************************
ARM GAS  C:\Users\alex\AppData\Local\Temp\ccmAXObg.s 			page 7


 193:..\..\..\..\..\..\uC-Probe\Target\Communication\Generic\RS-232\OS\uCOS-III/probe_rs232_os.c **** */
 194:..\..\..\..\..\..\uC-Probe\Target\Communication\Generic\RS-232\OS\uCOS-III/probe_rs232_os.c **** 
 195:..\..\..\..\..\..\uC-Probe\Target\Communication\Generic\RS-232\OS\uCOS-III/probe_rs232_os.c **** #if (PROBE_RS232_CFG_PARSE_TASK_EN == DEF_ENABLED)
 196:..\..\..\..\..\..\uC-Probe\Target\Communication\Generic\RS-232\OS\uCOS-III/probe_rs232_os.c **** void  ProbeRS232_OS_Pend (void)
 197:..\..\..\..\..\..\uC-Probe\Target\Communication\Generic\RS-232\OS\uCOS-III/probe_rs232_os.c **** {
 134              		.loc 1 197 0
 135              		.cfi_startproc
 136              		@ args = 0, pretend = 0, frame = 8
 137              		@ frame_needed = 1, uses_anonymous_args = 0
 138 0000 80B5     		push	{r7, lr}
 139              		.cfi_def_cfa_offset 8
 140              		.cfi_offset 7, -8
 141              		.cfi_offset 14, -4
 142 0002 84B0     		sub	sp, sp, #16
 143              		.cfi_def_cfa_offset 24
 144 0004 02AF     		add	r7, sp, #8
 145              		.cfi_def_cfa 7, 16
 198:..\..\..\..\..\..\uC-Probe\Target\Communication\Generic\RS-232\OS\uCOS-III/probe_rs232_os.c ****     OS_ERR  os_err;
 199:..\..\..\..\..\..\uC-Probe\Target\Communication\Generic\RS-232\OS\uCOS-III/probe_rs232_os.c **** 
 200:..\..\..\..\..\..\uC-Probe\Target\Communication\Generic\RS-232\OS\uCOS-III/probe_rs232_os.c **** 
 201:..\..\..\..\..\..\uC-Probe\Target\Communication\Generic\RS-232\OS\uCOS-III/probe_rs232_os.c ****     OSSemPend((OS_SEM  *)&ProbeRS232_OS_Sem,                    /* Wait for a packet to be received
 146              		.loc 1 201 0
 147 0006 BB1D     		adds	r3, r7, #6
 148 0008 0093     		str	r3, [sp]
 149 000a 0023     		movs	r3, #0
 150 000c 0022     		movs	r2, #0
 151 000e 0021     		movs	r1, #0
 152 0010 0348     		ldr	r0, .L9
 153 0012 FFF7FEFF 		bl	OSSemPend
 202:..\..\..\..\..\..\uC-Probe\Target\Communication\Generic\RS-232\OS\uCOS-III/probe_rs232_os.c ****               (OS_TICK  ) 0u,                                   /* ... without timeout.            
 203:..\..\..\..\..\..\uC-Probe\Target\Communication\Generic\RS-232\OS\uCOS-III/probe_rs232_os.c ****               (OS_OPT   ) OS_OPT_PEND_BLOCKING,
 204:..\..\..\..\..\..\uC-Probe\Target\Communication\Generic\RS-232\OS\uCOS-III/probe_rs232_os.c ****               (CPU_TS  *) 0u,
 205:..\..\..\..\..\..\uC-Probe\Target\Communication\Generic\RS-232\OS\uCOS-III/probe_rs232_os.c ****               (OS_ERR  *)&os_err);
 206:..\..\..\..\..\..\uC-Probe\Target\Communication\Generic\RS-232\OS\uCOS-III/probe_rs232_os.c **** 
 207:..\..\..\..\..\..\uC-Probe\Target\Communication\Generic\RS-232\OS\uCOS-III/probe_rs232_os.c ****    (void)&os_err;
 208:..\..\..\..\..\..\uC-Probe\Target\Communication\Generic\RS-232\OS\uCOS-III/probe_rs232_os.c **** }
 154              		.loc 1 208 0
 155 0016 00BF     		nop
 156 0018 0837     		adds	r7, r7, #8
 157              		.cfi_def_cfa_offset 8
 158 001a BD46     		mov	sp, r7
 159              		.cfi_def_cfa_register 13
 160              		@ sp needed
 161 001c 80BD     		pop	{r7, pc}
 162              	.L10:
 163 001e 00BF     		.align	2
 164              	.L9:
 165 0020 C0020000 		.word	ProbeRS232_OS_Sem
 166              		.cfi_endproc
 167              	.LFE1:
 168              		.size	ProbeRS232_OS_Pend, .-ProbeRS232_OS_Pend
 169              		.section	.text.ProbeRS232_OS_Post,"ax",%progbits
 170              		.align	2
 171              		.global	ProbeRS232_OS_Post
 172              		.thumb
 173              		.thumb_func
 174              		.type	ProbeRS232_OS_Post, %function
ARM GAS  C:\Users\alex\AppData\Local\Temp\ccmAXObg.s 			page 8


 175              	ProbeRS232_OS_Post:
 176              	.LFB2:
 209:..\..\..\..\..\..\uC-Probe\Target\Communication\Generic\RS-232\OS\uCOS-III/probe_rs232_os.c **** #endif
 210:..\..\..\..\..\..\uC-Probe\Target\Communication\Generic\RS-232\OS\uCOS-III/probe_rs232_os.c **** 
 211:..\..\..\..\..\..\uC-Probe\Target\Communication\Generic\RS-232\OS\uCOS-III/probe_rs232_os.c **** 
 212:..\..\..\..\..\..\uC-Probe\Target\Communication\Generic\RS-232\OS\uCOS-III/probe_rs232_os.c **** /*
 213:..\..\..\..\..\..\uC-Probe\Target\Communication\Generic\RS-232\OS\uCOS-III/probe_rs232_os.c **** ***************************************************************************************************
 214:..\..\..\..\..\..\uC-Probe\Target\Communication\Generic\RS-232\OS\uCOS-III/probe_rs232_os.c **** *                                       ProbeRS232_OS_Post()
 215:..\..\..\..\..\..\uC-Probe\Target\Communication\Generic\RS-232\OS\uCOS-III/probe_rs232_os.c **** *
 216:..\..\..\..\..\..\uC-Probe\Target\Communication\Generic\RS-232\OS\uCOS-III/probe_rs232_os.c **** * Description : Notify a pending task that a packet has been receieved.
 217:..\..\..\..\..\..\uC-Probe\Target\Communication\Generic\RS-232\OS\uCOS-III/probe_rs232_os.c **** *
 218:..\..\..\..\..\..\uC-Probe\Target\Communication\Generic\RS-232\OS\uCOS-III/probe_rs232_os.c **** * Argument(s) : none.
 219:..\..\..\..\..\..\uC-Probe\Target\Communication\Generic\RS-232\OS\uCOS-III/probe_rs232_os.c **** *
 220:..\..\..\..\..\..\uC-Probe\Target\Communication\Generic\RS-232\OS\uCOS-III/probe_rs232_os.c **** * Return(s)   : none.
 221:..\..\..\..\..\..\uC-Probe\Target\Communication\Generic\RS-232\OS\uCOS-III/probe_rs232_os.c **** *
 222:..\..\..\..\..\..\uC-Probe\Target\Communication\Generic\RS-232\OS\uCOS-III/probe_rs232_os.c **** * Caller(s)   : ProbeRS232_RxPkt().
 223:..\..\..\..\..\..\uC-Probe\Target\Communication\Generic\RS-232\OS\uCOS-III/probe_rs232_os.c **** *
 224:..\..\..\..\..\..\uC-Probe\Target\Communication\Generic\RS-232\OS\uCOS-III/probe_rs232_os.c **** * Note(s)     : none.
 225:..\..\..\..\..\..\uC-Probe\Target\Communication\Generic\RS-232\OS\uCOS-III/probe_rs232_os.c **** ***************************************************************************************************
 226:..\..\..\..\..\..\uC-Probe\Target\Communication\Generic\RS-232\OS\uCOS-III/probe_rs232_os.c **** */
 227:..\..\..\..\..\..\uC-Probe\Target\Communication\Generic\RS-232\OS\uCOS-III/probe_rs232_os.c **** 
 228:..\..\..\..\..\..\uC-Probe\Target\Communication\Generic\RS-232\OS\uCOS-III/probe_rs232_os.c **** #if (PROBE_RS232_CFG_PARSE_TASK_EN == DEF_ENABLED)
 229:..\..\..\..\..\..\uC-Probe\Target\Communication\Generic\RS-232\OS\uCOS-III/probe_rs232_os.c **** void  ProbeRS232_OS_Post (void)
 230:..\..\..\..\..\..\uC-Probe\Target\Communication\Generic\RS-232\OS\uCOS-III/probe_rs232_os.c **** {
 177              		.loc 1 230 0
 178              		.cfi_startproc
 179              		@ args = 0, pretend = 0, frame = 8
 180              		@ frame_needed = 1, uses_anonymous_args = 0
 181 0000 80B5     		push	{r7, lr}
 182              		.cfi_def_cfa_offset 8
 183              		.cfi_offset 7, -8
 184              		.cfi_offset 14, -4
 185 0002 82B0     		sub	sp, sp, #8
 186              		.cfi_def_cfa_offset 16
 187 0004 00AF     		add	r7, sp, #0
 188              		.cfi_def_cfa_register 7
 231:..\..\..\..\..\..\uC-Probe\Target\Communication\Generic\RS-232\OS\uCOS-III/probe_rs232_os.c ****     OS_ERR  os_err;
 232:..\..\..\..\..\..\uC-Probe\Target\Communication\Generic\RS-232\OS\uCOS-III/probe_rs232_os.c **** 
 233:..\..\..\..\..\..\uC-Probe\Target\Communication\Generic\RS-232\OS\uCOS-III/probe_rs232_os.c **** 
 234:..\..\..\..\..\..\uC-Probe\Target\Communication\Generic\RS-232\OS\uCOS-III/probe_rs232_os.c ****     OSSemPost((OS_SEM *)&ProbeRS232_OS_Sem,                         /* A packet has been received. 
 189              		.loc 1 234 0
 190 0006 BB1D     		adds	r3, r7, #6
 191 0008 1A46     		mov	r2, r3
 192 000a 0021     		movs	r1, #0
 193 000c 0348     		ldr	r0, .L12
 194 000e FFF7FEFF 		bl	OSSemPost
 235:..\..\..\..\..\..\uC-Probe\Target\Communication\Generic\RS-232\OS\uCOS-III/probe_rs232_os.c ****               (OS_OPT  )OS_OPT_POST_FIFO,
 236:..\..\..\..\..\..\uC-Probe\Target\Communication\Generic\RS-232\OS\uCOS-III/probe_rs232_os.c ****               (OS_ERR *)&os_err);
 237:..\..\..\..\..\..\uC-Probe\Target\Communication\Generic\RS-232\OS\uCOS-III/probe_rs232_os.c **** 
 238:..\..\..\..\..\..\uC-Probe\Target\Communication\Generic\RS-232\OS\uCOS-III/probe_rs232_os.c ****    (void)&os_err;
 239:..\..\..\..\..\..\uC-Probe\Target\Communication\Generic\RS-232\OS\uCOS-III/probe_rs232_os.c **** }
 195              		.loc 1 239 0
 196 0012 00BF     		nop
 197 0014 0837     		adds	r7, r7, #8
 198              		.cfi_def_cfa_offset 8
 199 0016 BD46     		mov	sp, r7
 200              		.cfi_def_cfa_register 13
ARM GAS  C:\Users\alex\AppData\Local\Temp\ccmAXObg.s 			page 9


 201              		@ sp needed
 202 0018 80BD     		pop	{r7, pc}
 203              	.L13:
 204 001a 00BF     		.align	2
 205              	.L12:
 206 001c C0020000 		.word	ProbeRS232_OS_Sem
 207              		.cfi_endproc
 208              	.LFE2:
 209              		.size	ProbeRS232_OS_Post, .-ProbeRS232_OS_Post
 210              		.section	.text.ProbeRS232_OS_Task,"ax",%progbits
 211              		.align	2
 212              		.thumb
 213              		.thumb_func
 214              		.type	ProbeRS232_OS_Task, %function
 215              	ProbeRS232_OS_Task:
 216              	.LFB3:
 240:..\..\..\..\..\..\uC-Probe\Target\Communication\Generic\RS-232\OS\uCOS-III/probe_rs232_os.c **** #endif
 241:..\..\..\..\..\..\uC-Probe\Target\Communication\Generic\RS-232\OS\uCOS-III/probe_rs232_os.c **** 
 242:..\..\..\..\..\..\uC-Probe\Target\Communication\Generic\RS-232\OS\uCOS-III/probe_rs232_os.c **** 
 243:..\..\..\..\..\..\uC-Probe\Target\Communication\Generic\RS-232\OS\uCOS-III/probe_rs232_os.c **** /*
 244:..\..\..\..\..\..\uC-Probe\Target\Communication\Generic\RS-232\OS\uCOS-III/probe_rs232_os.c **** ***************************************************************************************************
 245:..\..\..\..\..\..\uC-Probe\Target\Communication\Generic\RS-232\OS\uCOS-III/probe_rs232_os.c **** ***************************************************************************************************
 246:..\..\..\..\..\..\uC-Probe\Target\Communication\Generic\RS-232\OS\uCOS-III/probe_rs232_os.c **** *                                           LOCAL FUNCTIONS
 247:..\..\..\..\..\..\uC-Probe\Target\Communication\Generic\RS-232\OS\uCOS-III/probe_rs232_os.c **** ***************************************************************************************************
 248:..\..\..\..\..\..\uC-Probe\Target\Communication\Generic\RS-232\OS\uCOS-III/probe_rs232_os.c **** ***************************************************************************************************
 249:..\..\..\..\..\..\uC-Probe\Target\Communication\Generic\RS-232\OS\uCOS-III/probe_rs232_os.c **** */
 250:..\..\..\..\..\..\uC-Probe\Target\Communication\Generic\RS-232\OS\uCOS-III/probe_rs232_os.c **** 
 251:..\..\..\..\..\..\uC-Probe\Target\Communication\Generic\RS-232\OS\uCOS-III/probe_rs232_os.c **** /*
 252:..\..\..\..\..\..\uC-Probe\Target\Communication\Generic\RS-232\OS\uCOS-III/probe_rs232_os.c **** ***************************************************************************************************
 253:..\..\..\..\..\..\uC-Probe\Target\Communication\Generic\RS-232\OS\uCOS-III/probe_rs232_os.c **** *                                         ProbeRS232_OS_Task()
 254:..\..\..\..\..\..\uC-Probe\Target\Communication\Generic\RS-232\OS\uCOS-III/probe_rs232_os.c **** *
 255:..\..\..\..\..\..\uC-Probe\Target\Communication\Generic\RS-232\OS\uCOS-III/probe_rs232_os.c **** * Description : Task which waits for packets to be received, formalates responses, and begins trans
 256:..\..\..\..\..\..\uC-Probe\Target\Communication\Generic\RS-232\OS\uCOS-III/probe_rs232_os.c **** *
 257:..\..\..\..\..\..\uC-Probe\Target\Communication\Generic\RS-232\OS\uCOS-III/probe_rs232_os.c **** * Argument(s) : p_arg       Argument passed to ProbeRS232_OS_Task() by 'OSTaskCreate()'.
 258:..\..\..\..\..\..\uC-Probe\Target\Communication\Generic\RS-232\OS\uCOS-III/probe_rs232_os.c **** *
 259:..\..\..\..\..\..\uC-Probe\Target\Communication\Generic\RS-232\OS\uCOS-III/probe_rs232_os.c **** * Return(s)   : none.
 260:..\..\..\..\..\..\uC-Probe\Target\Communication\Generic\RS-232\OS\uCOS-III/probe_rs232_os.c **** *
 261:..\..\..\..\..\..\uC-Probe\Target\Communication\Generic\RS-232\OS\uCOS-III/probe_rs232_os.c **** * Caller(s)   : This is a task.
 262:..\..\..\..\..\..\uC-Probe\Target\Communication\Generic\RS-232\OS\uCOS-III/probe_rs232_os.c **** *
 263:..\..\..\..\..\..\uC-Probe\Target\Communication\Generic\RS-232\OS\uCOS-III/probe_rs232_os.c **** * Note(s)     : none.
 264:..\..\..\..\..\..\uC-Probe\Target\Communication\Generic\RS-232\OS\uCOS-III/probe_rs232_os.c **** ***************************************************************************************************
 265:..\..\..\..\..\..\uC-Probe\Target\Communication\Generic\RS-232\OS\uCOS-III/probe_rs232_os.c **** */
 266:..\..\..\..\..\..\uC-Probe\Target\Communication\Generic\RS-232\OS\uCOS-III/probe_rs232_os.c **** 
 267:..\..\..\..\..\..\uC-Probe\Target\Communication\Generic\RS-232\OS\uCOS-III/probe_rs232_os.c **** #if (PROBE_RS232_CFG_PARSE_TASK_EN == DEF_ENABLED)
 268:..\..\..\..\..\..\uC-Probe\Target\Communication\Generic\RS-232\OS\uCOS-III/probe_rs232_os.c **** static  void  ProbeRS232_OS_Task (void *p_arg)
 269:..\..\..\..\..\..\uC-Probe\Target\Communication\Generic\RS-232\OS\uCOS-III/probe_rs232_os.c **** {
 217              		.loc 1 269 0
 218              		.cfi_startproc
 219              		@ args = 0, pretend = 0, frame = 8
 220              		@ frame_needed = 1, uses_anonymous_args = 0
 221 0000 80B5     		push	{r7, lr}
 222              		.cfi_def_cfa_offset 8
 223              		.cfi_offset 7, -8
 224              		.cfi_offset 14, -4
 225 0002 82B0     		sub	sp, sp, #8
 226              		.cfi_def_cfa_offset 16
 227 0004 00AF     		add	r7, sp, #0
ARM GAS  C:\Users\alex\AppData\Local\Temp\ccmAXObg.s 			page 10


 228              		.cfi_def_cfa_register 7
 229 0006 7860     		str	r0, [r7, #4]
 270:..\..\..\..\..\..\uC-Probe\Target\Communication\Generic\RS-232\OS\uCOS-III/probe_rs232_os.c ****    (void)&p_arg;
 271:..\..\..\..\..\..\uC-Probe\Target\Communication\Generic\RS-232\OS\uCOS-III/probe_rs232_os.c ****     ProbeRS232_Task();
 230              		.loc 1 271 0
 231 0008 FFF7FEFF 		bl	ProbeRS232_Task
 272:..\..\..\..\..\..\uC-Probe\Target\Communication\Generic\RS-232\OS\uCOS-III/probe_rs232_os.c **** }
 232              		.loc 1 272 0
 233 000c 00BF     		nop
 234 000e 0837     		adds	r7, r7, #8
 235              		.cfi_def_cfa_offset 8
 236 0010 BD46     		mov	sp, r7
 237              		.cfi_def_cfa_register 13
 238              		@ sp needed
 239 0012 80BD     		pop	{r7, pc}
 240              		.cfi_endproc
 241              	.LFE3:
 242              		.size	ProbeRS232_OS_Task, .-ProbeRS232_OS_Task
 243              		.text
 244              	.Letext0:
 245              		.file 2 "..\\..\\..\\..\\..\\..\\uC-CPU\\ARM-Cortex-M3\\GNU/cpu.h"
 246              		.file 3 "..\\..\\..\\..\\..\\..\\uC-CPU/cpu_core.h"
 247              		.file 4 "..\\..\\..\\..\\..\\..\\uCOS-III\\Source/os_type.h"
 248              		.file 5 "..\\..\\..\\..\\..\\..\\uCOS-III\\Source/os.h"