ARM GAS  C:\Users\Aluno\AppData\Local\Temp\cccS7k0x.s 			page 1


   1              		.syntax unified
   2              		.cpu cortex-m3
   3              		.fpu softvfp
   4              		.eabi_attribute 20, 1
   5              		.eabi_attribute 21, 1
   6              		.eabi_attribute 23, 3
   7              		.eabi_attribute 24, 1
   8              		.eabi_attribute 25, 1
   9              		.eabi_attribute 26, 1
  10              		.eabi_attribute 30, 6
  11              		.eabi_attribute 34, 1
  12              		.eabi_attribute 18, 4
  13              		.thumb
  14              		.syntax unified
  15              		.file	"os_mutex.c"
  16              		.text
  17              	.Ltext0:
  18              		.cfi_sections	.debug_frame
  19              		.section	.text.OSMutexCreate,"ax",%progbits
  20              		.align	2
  21              		.global	OSMutexCreate
  22              		.thumb
  23              		.thumb_func
  24              		.type	OSMutexCreate, %function
  25              	OSMutexCreate:
  26              	.LFB0:
  27              		.file 1 "..\\..\\..\\..\\..\\..\\uCOS-III\\Source\\os_mutex.c"
   1:..\..\..\..\..\..\uCOS-III\Source/os_mutex.c **** /*
   2:..\..\..\..\..\..\uCOS-III\Source/os_mutex.c **** ***************************************************************************************************
   3:..\..\..\..\..\..\uCOS-III\Source/os_mutex.c **** *                                                      uC/OS-III
   4:..\..\..\..\..\..\uCOS-III\Source/os_mutex.c **** *                                                 The Real-Time Kernel
   5:..\..\..\..\..\..\uCOS-III\Source/os_mutex.c **** *
   6:..\..\..\..\..\..\uCOS-III\Source/os_mutex.c **** *                                  (c) Copyright 2009-2012; Micrium, Inc.; Weston, FL
   7:..\..\..\..\..\..\uCOS-III\Source/os_mutex.c **** *                           All rights reserved.  Protected by international copyright laws.
   8:..\..\..\..\..\..\uCOS-III\Source/os_mutex.c **** *
   9:..\..\..\..\..\..\uCOS-III\Source/os_mutex.c **** *                                                   MUTEX MANAGEMENT
  10:..\..\..\..\..\..\uCOS-III\Source/os_mutex.c **** *
  11:..\..\..\..\..\..\uCOS-III\Source/os_mutex.c **** * File    : OS_MUTEX.C
  12:..\..\..\..\..\..\uCOS-III\Source/os_mutex.c **** * By      : JJL
  13:..\..\..\..\..\..\uCOS-III\Source/os_mutex.c **** * Version : V3.03.01
  14:..\..\..\..\..\..\uCOS-III\Source/os_mutex.c **** *
  15:..\..\..\..\..\..\uCOS-III\Source/os_mutex.c **** * LICENSING TERMS:
  16:..\..\..\..\..\..\uCOS-III\Source/os_mutex.c **** * ---------------
  17:..\..\..\..\..\..\uCOS-III\Source/os_mutex.c **** *           uC/OS-III is provided in source form for FREE short-term evaluation, for educational us
  18:..\..\..\..\..\..\uCOS-III\Source/os_mutex.c **** *           for peaceful research.  If you plan or intend to use uC/OS-III in a commercial applicat
  19:..\..\..\..\..\..\uCOS-III\Source/os_mutex.c **** *           product then, you need to contact Micrium to properly license uC/OS-III for its use in 
  20:..\..\..\..\..\..\uCOS-III\Source/os_mutex.c **** *           application/product.   We provide ALL the source code for your convenience and to help 
  21:..\..\..\..\..\..\uCOS-III\Source/os_mutex.c **** *           experience uC/OS-III.  The fact that the source is provided does NOT mean that you can 
  22:..\..\..\..\..\..\uCOS-III\Source/os_mutex.c **** *           it commercially without paying a licensing fee.
  23:..\..\..\..\..\..\uCOS-III\Source/os_mutex.c **** *
  24:..\..\..\..\..\..\uCOS-III\Source/os_mutex.c **** *           Knowledge of the source code may NOT be used to develop a similar product.
  25:..\..\..\..\..\..\uCOS-III\Source/os_mutex.c **** *
  26:..\..\..\..\..\..\uCOS-III\Source/os_mutex.c **** *           Please help us continue to provide the embedded community with the finest software avai
  27:..\..\..\..\..\..\uCOS-III\Source/os_mutex.c **** *           Your honesty is greatly appreciated.
  28:..\..\..\..\..\..\uCOS-III\Source/os_mutex.c **** *
  29:..\..\..\..\..\..\uCOS-III\Source/os_mutex.c **** *           You can contact us at www.micrium.com, or by phone at +1 (954) 217-2036.
  30:..\..\..\..\..\..\uCOS-III\Source/os_mutex.c **** ***************************************************************************************************
ARM GAS  C:\Users\Aluno\AppData\Local\Temp\cccS7k0x.s 			page 2


  31:..\..\..\..\..\..\uCOS-III\Source/os_mutex.c **** */
  32:..\..\..\..\..\..\uCOS-III\Source/os_mutex.c **** 
  33:..\..\..\..\..\..\uCOS-III\Source/os_mutex.c **** #define  MICRIUM_SOURCE
  34:..\..\..\..\..\..\uCOS-III\Source/os_mutex.c **** #include <os.h>
  35:..\..\..\..\..\..\uCOS-III\Source/os_mutex.c **** 
  36:..\..\..\..\..\..\uCOS-III\Source/os_mutex.c **** #ifdef VSC_INCLUDE_SOURCE_FILE_NAMES
  37:..\..\..\..\..\..\uCOS-III\Source/os_mutex.c **** const  CPU_CHAR  *os_mutex__c = "$Id: $";
  38:..\..\..\..\..\..\uCOS-III\Source/os_mutex.c **** #endif
  39:..\..\..\..\..\..\uCOS-III\Source/os_mutex.c **** 
  40:..\..\..\..\..\..\uCOS-III\Source/os_mutex.c **** 
  41:..\..\..\..\..\..\uCOS-III\Source/os_mutex.c **** #if OS_CFG_MUTEX_EN > 0u
  42:..\..\..\..\..\..\uCOS-III\Source/os_mutex.c **** /*
  43:..\..\..\..\..\..\uCOS-III\Source/os_mutex.c **** ***************************************************************************************************
  44:..\..\..\..\..\..\uCOS-III\Source/os_mutex.c **** *                                                   CREATE A MUTEX
  45:..\..\..\..\..\..\uCOS-III\Source/os_mutex.c **** *
  46:..\..\..\..\..\..\uCOS-III\Source/os_mutex.c **** * Description: This function creates a mutex.
  47:..\..\..\..\..\..\uCOS-III\Source/os_mutex.c **** *
  48:..\..\..\..\..\..\uCOS-III\Source/os_mutex.c **** * Arguments  : p_mutex       is a pointer to the mutex to initialize.  Your application is responsi
  49:..\..\..\..\..\..\uCOS-III\Source/os_mutex.c **** *                            storage for the mutex.
  50:..\..\..\..\..\..\uCOS-III\Source/os_mutex.c **** *
  51:..\..\..\..\..\..\uCOS-III\Source/os_mutex.c **** *              p_name        is a pointer to the name you would like to give the mutex.
  52:..\..\..\..\..\..\uCOS-III\Source/os_mutex.c **** *
  53:..\..\..\..\..\..\uCOS-III\Source/os_mutex.c **** *              p_err         is a pointer to a variable that will contain an error code returned by
  54:..\..\..\..\..\..\uCOS-III\Source/os_mutex.c **** *
  55:..\..\..\..\..\..\uCOS-III\Source/os_mutex.c **** *                                OS_ERR_NONE                    if the call was successful
  56:..\..\..\..\..\..\uCOS-III\Source/os_mutex.c **** *                                OS_ERR_CREATE_ISR              if you called this function from an
  57:..\..\..\..\..\..\uCOS-III\Source/os_mutex.c **** *                                OS_ERR_ILLEGAL_CREATE_RUN_TIME if you are trying to create the Mut
  58:..\..\..\..\..\..\uCOS-III\Source/os_mutex.c **** *                                                                 OSSafetyCriticalStart().
  59:..\..\..\..\..\..\uCOS-III\Source/os_mutex.c **** *                                OS_ERR_NAME                    if 'p_name'  is a NULL pointer
  60:..\..\..\..\..\..\uCOS-III\Source/os_mutex.c **** *                                OS_ERR_OBJ_CREATED             if the mutex has already been creat
  61:..\..\..\..\..\..\uCOS-III\Source/os_mutex.c **** *                                OS_ERR_OBJ_PTR_NULL            if 'p_mutex' is a NULL pointer
  62:..\..\..\..\..\..\uCOS-III\Source/os_mutex.c **** *
  63:..\..\..\..\..\..\uCOS-III\Source/os_mutex.c **** * Returns    : none
  64:..\..\..\..\..\..\uCOS-III\Source/os_mutex.c **** ***************************************************************************************************
  65:..\..\..\..\..\..\uCOS-III\Source/os_mutex.c **** */
  66:..\..\..\..\..\..\uCOS-III\Source/os_mutex.c **** 
  67:..\..\..\..\..\..\uCOS-III\Source/os_mutex.c **** void  OSMutexCreate (OS_MUTEX  *p_mutex,
  68:..\..\..\..\..\..\uCOS-III\Source/os_mutex.c ****                      CPU_CHAR  *p_name,
  69:..\..\..\..\..\..\uCOS-III\Source/os_mutex.c ****                      OS_ERR    *p_err)
  70:..\..\..\..\..\..\uCOS-III\Source/os_mutex.c **** {
  28              		.loc 1 70 0
  29              		.cfi_startproc
  30              		@ args = 0, pretend = 0, frame = 24
  31              		@ frame_needed = 1, uses_anonymous_args = 0
  32 0000 80B5     		push	{r7, lr}
  33              		.cfi_def_cfa_offset 8
  34              		.cfi_offset 7, -8
  35              		.cfi_offset 14, -4
  36 0002 86B0     		sub	sp, sp, #24
  37              		.cfi_def_cfa_offset 32
  38 0004 00AF     		add	r7, sp, #0
  39              		.cfi_def_cfa_register 7
  40 0006 F860     		str	r0, [r7, #12]
  41 0008 B960     		str	r1, [r7, #8]
  42 000a 7A60     		str	r2, [r7, #4]
  71:..\..\..\..\..\..\uCOS-III\Source/os_mutex.c ****     CPU_SR_ALLOC();
  43              		.loc 1 71 0
ARM GAS  C:\Users\Aluno\AppData\Local\Temp\cccS7k0x.s 			page 3


  44 000c 0023     		movs	r3, #0
  45 000e 7B61     		str	r3, [r7, #20]
  72:..\..\..\..\..\..\uCOS-III\Source/os_mutex.c **** 
  73:..\..\..\..\..\..\uCOS-III\Source/os_mutex.c **** 
  74:..\..\..\..\..\..\uCOS-III\Source/os_mutex.c **** 
  75:..\..\..\..\..\..\uCOS-III\Source/os_mutex.c **** #ifdef OS_SAFETY_CRITICAL
  76:..\..\..\..\..\..\uCOS-III\Source/os_mutex.c ****     if (p_err == (OS_ERR *)0) {
  77:..\..\..\..\..\..\uCOS-III\Source/os_mutex.c ****         OS_SAFETY_CRITICAL_EXCEPTION();
  78:..\..\..\..\..\..\uCOS-III\Source/os_mutex.c ****         return;
  79:..\..\..\..\..\..\uCOS-III\Source/os_mutex.c ****     }
  80:..\..\..\..\..\..\uCOS-III\Source/os_mutex.c **** #endif
  81:..\..\..\..\..\..\uCOS-III\Source/os_mutex.c **** 
  82:..\..\..\..\..\..\uCOS-III\Source/os_mutex.c **** #ifdef OS_SAFETY_CRITICAL_IEC61508
  83:..\..\..\..\..\..\uCOS-III\Source/os_mutex.c ****     if (OSSafetyCriticalStartFlag == DEF_TRUE) {
  84:..\..\..\..\..\..\uCOS-III\Source/os_mutex.c ****        *p_err = OS_ERR_ILLEGAL_CREATE_RUN_TIME;
  85:..\..\..\..\..\..\uCOS-III\Source/os_mutex.c ****         return;
  86:..\..\..\..\..\..\uCOS-III\Source/os_mutex.c ****     }
  87:..\..\..\..\..\..\uCOS-III\Source/os_mutex.c **** #endif
  88:..\..\..\..\..\..\uCOS-III\Source/os_mutex.c **** 
  89:..\..\..\..\..\..\uCOS-III\Source/os_mutex.c **** #if OS_CFG_CALLED_FROM_ISR_CHK_EN > 0u
  90:..\..\..\..\..\..\uCOS-III\Source/os_mutex.c ****     if (OSIntNestingCtr > (OS_NESTING_CTR)0) {              /* Not allowed to be called from an ISR
  46              		.loc 1 90 0
  47 0010 1F4B     		ldr	r3, .L5
  48 0012 1B78     		ldrb	r3, [r3]	@ zero_extendqisi2
  49 0014 002B     		cmp	r3, #0
  50 0016 04D0     		beq	.L2
  91:..\..\..\..\..\..\uCOS-III\Source/os_mutex.c ****        *p_err = OS_ERR_CREATE_ISR;
  51              		.loc 1 91 0
  52 0018 7B68     		ldr	r3, [r7, #4]
  53 001a 42F6E162 		movw	r2, #12001
  54 001e 1A80     		strh	r2, [r3]	@ movhi
  92:..\..\..\..\..\..\uCOS-III\Source/os_mutex.c ****         return;
  55              		.loc 1 92 0
  56 0020 32E0     		b	.L1
  57              	.L2:
  93:..\..\..\..\..\..\uCOS-III\Source/os_mutex.c ****     }
  94:..\..\..\..\..\..\uCOS-III\Source/os_mutex.c **** #endif
  95:..\..\..\..\..\..\uCOS-III\Source/os_mutex.c **** 
  96:..\..\..\..\..\..\uCOS-III\Source/os_mutex.c **** #if OS_CFG_ARG_CHK_EN > 0u
  97:..\..\..\..\..\..\uCOS-III\Source/os_mutex.c ****     if (p_mutex == (OS_MUTEX *)0) {                         /* Validate 'p_mutex'                  
  58              		.loc 1 97 0
  59 0022 FB68     		ldr	r3, [r7, #12]
  60 0024 002B     		cmp	r3, #0
  61 0026 04D1     		bne	.L4
  98:..\..\..\..\..\..\uCOS-III\Source/os_mutex.c ****        *p_err = OS_ERR_OBJ_PTR_NULL;
  62              		.loc 1 98 0
  63 0028 7B68     		ldr	r3, [r7, #4]
  64 002a 45F6C352 		movw	r2, #24003
  65 002e 1A80     		strh	r2, [r3]	@ movhi
  99:..\..\..\..\..\..\uCOS-III\Source/os_mutex.c ****         return;
  66              		.loc 1 99 0
  67 0030 2AE0     		b	.L1
  68              	.L4:
 100:..\..\..\..\..\..\uCOS-III\Source/os_mutex.c ****     }
 101:..\..\..\..\..\..\uCOS-III\Source/os_mutex.c **** #endif
 102:..\..\..\..\..\..\uCOS-III\Source/os_mutex.c **** 
 103:..\..\..\..\..\..\uCOS-III\Source/os_mutex.c ****     OS_CRITICAL_ENTER();
ARM GAS  C:\Users\Aluno\AppData\Local\Temp\cccS7k0x.s 			page 4


  69              		.loc 1 103 0
  70 0032 FFF7FEFF 		bl	CPU_SR_Save
  71 0036 7861     		str	r0, [r7, #20]
 104:..\..\..\..\..\..\uCOS-III\Source/os_mutex.c ****     p_mutex->Type              =  OS_OBJ_TYPE_MUTEX;        /* Mark the data structure as a mutex  
  72              		.loc 1 104 0
  73 0038 FB68     		ldr	r3, [r7, #12]
  74 003a 164A     		ldr	r2, .L5+4
  75 003c 1A60     		str	r2, [r3]
 105:..\..\..\..\..\..\uCOS-III\Source/os_mutex.c ****     p_mutex->NamePtr           =  p_name;
  76              		.loc 1 105 0
  77 003e FB68     		ldr	r3, [r7, #12]
  78 0040 BA68     		ldr	r2, [r7, #8]
  79 0042 5A60     		str	r2, [r3, #4]
 106:..\..\..\..\..\..\uCOS-III\Source/os_mutex.c ****     p_mutex->OwnerTCBPtr       = (OS_TCB       *)0;
  80              		.loc 1 106 0
  81 0044 FB68     		ldr	r3, [r7, #12]
  82 0046 0022     		movs	r2, #0
  83 0048 1A62     		str	r2, [r3, #32]
 107:..\..\..\..\..\..\uCOS-III\Source/os_mutex.c ****     p_mutex->OwnerNestingCtr   = (OS_NESTING_CTR)0;         /* Mutex is available                  
  84              		.loc 1 107 0
  85 004a FB68     		ldr	r3, [r7, #12]
  86 004c 0022     		movs	r2, #0
  87 004e 83F82520 		strb	r2, [r3, #37]
 108:..\..\..\..\..\..\uCOS-III\Source/os_mutex.c ****     p_mutex->TS                = (CPU_TS        )0;
  88              		.loc 1 108 0
  89 0052 FB68     		ldr	r3, [r7, #12]
  90 0054 0022     		movs	r2, #0
  91 0056 9A62     		str	r2, [r3, #40]
 109:..\..\..\..\..\..\uCOS-III\Source/os_mutex.c ****     p_mutex->OwnerOriginalPrio =  OS_CFG_PRIO_MAX;
  92              		.loc 1 109 0
  93 0058 FB68     		ldr	r3, [r7, #12]
  94 005a 0822     		movs	r2, #8
  95 005c 83F82420 		strb	r2, [r3, #36]
 110:..\..\..\..\..\..\uCOS-III\Source/os_mutex.c ****     OS_PendListInit(&p_mutex->PendList);                    /* Initialize the waiting list         
  96              		.loc 1 110 0
  97 0060 FB68     		ldr	r3, [r7, #12]
  98 0062 0833     		adds	r3, r3, #8
  99 0064 1846     		mov	r0, r3
 100 0066 FFF7FEFF 		bl	OS_PendListInit
 111:..\..\..\..\..\..\uCOS-III\Source/os_mutex.c **** 
 112:..\..\..\..\..\..\uCOS-III\Source/os_mutex.c **** #if OS_CFG_DBG_EN > 0u
 113:..\..\..\..\..\..\uCOS-III\Source/os_mutex.c ****     OS_MutexDbgListAdd(p_mutex);
 101              		.loc 1 113 0
 102 006a F868     		ldr	r0, [r7, #12]
 103 006c FFF7FEFF 		bl	OS_MutexDbgListAdd
 114:..\..\..\..\..\..\uCOS-III\Source/os_mutex.c **** #endif
 115:..\..\..\..\..\..\uCOS-III\Source/os_mutex.c ****     OSMutexQty++;
 104              		.loc 1 115 0
 105 0070 094B     		ldr	r3, .L5+8
 106 0072 1B88     		ldrh	r3, [r3]
 107 0074 0133     		adds	r3, r3, #1
 108 0076 9AB2     		uxth	r2, r3
 109 0078 074B     		ldr	r3, .L5+8
 110 007a 1A80     		strh	r2, [r3]	@ movhi
 116:..\..\..\..\..\..\uCOS-III\Source/os_mutex.c **** 
 117:..\..\..\..\..\..\uCOS-III\Source/os_mutex.c ****     OS_CRITICAL_EXIT_NO_SCHED();
 111              		.loc 1 117 0
ARM GAS  C:\Users\Aluno\AppData\Local\Temp\cccS7k0x.s 			page 5


 112 007c 7869     		ldr	r0, [r7, #20]
 113 007e FFF7FEFF 		bl	CPU_SR_Restore
 118:..\..\..\..\..\..\uCOS-III\Source/os_mutex.c ****    *p_err = OS_ERR_NONE;
 114              		.loc 1 118 0
 115 0082 7B68     		ldr	r3, [r7, #4]
 116 0084 0022     		movs	r2, #0
 117 0086 1A80     		strh	r2, [r3]	@ movhi
 118              	.L1:
 119:..\..\..\..\..\..\uCOS-III\Source/os_mutex.c **** }
 119              		.loc 1 119 0
 120 0088 1837     		adds	r7, r7, #24
 121              		.cfi_def_cfa_offset 8
 122 008a BD46     		mov	sp, r7
 123              		.cfi_def_cfa_register 13
 124              		@ sp needed
 125 008c 80BD     		pop	{r7, pc}
 126              	.L6:
 127 008e 00BF     		.align	2
 128              	.L5:
 129 0090 00000000 		.word	OSIntNestingCtr
 130 0094 4D555458 		.word	1481921869
 131 0098 00000000 		.word	OSMutexQty
 132              		.cfi_endproc
 133              	.LFE0:
 134              		.size	OSMutexCreate, .-OSMutexCreate
 135              		.section	.text.OSMutexDel,"ax",%progbits
 136              		.align	2
 137              		.global	OSMutexDel
 138              		.thumb
 139              		.thumb_func
 140              		.type	OSMutexDel, %function
 141              	OSMutexDel:
 142              	.LFB1:
 120:..\..\..\..\..\..\uCOS-III\Source/os_mutex.c **** 
 121:..\..\..\..\..\..\uCOS-III\Source/os_mutex.c **** /*$PAGE*/
 122:..\..\..\..\..\..\uCOS-III\Source/os_mutex.c **** /*
 123:..\..\..\..\..\..\uCOS-III\Source/os_mutex.c **** ***************************************************************************************************
 124:..\..\..\..\..\..\uCOS-III\Source/os_mutex.c **** *                                                   DELETE A MUTEX
 125:..\..\..\..\..\..\uCOS-III\Source/os_mutex.c **** *
 126:..\..\..\..\..\..\uCOS-III\Source/os_mutex.c **** * Description: This function deletes a mutex and readies all tasks pending on the mutex.
 127:..\..\..\..\..\..\uCOS-III\Source/os_mutex.c **** *
 128:..\..\..\..\..\..\uCOS-III\Source/os_mutex.c **** * Arguments  : p_mutex       is a pointer to the mutex to delete
 129:..\..\..\..\..\..\uCOS-III\Source/os_mutex.c **** *
 130:..\..\..\..\..\..\uCOS-III\Source/os_mutex.c **** *              opt           determines delete options as follows:
 131:..\..\..\..\..\..\uCOS-III\Source/os_mutex.c **** *
 132:..\..\..\..\..\..\uCOS-III\Source/os_mutex.c **** *                                OS_OPT_DEL_NO_PEND          Delete mutex ONLY if no task pending
 133:..\..\..\..\..\..\uCOS-III\Source/os_mutex.c **** *                                OS_OPT_DEL_ALWAYS           Deletes the mutex even if tasks are wa
 134:..\..\..\..\..\..\uCOS-III\Source/os_mutex.c **** *                                                            In this case, all the tasks pending wi
 135:..\..\..\..\..\..\uCOS-III\Source/os_mutex.c **** *
 136:..\..\..\..\..\..\uCOS-III\Source/os_mutex.c **** *              p_err         is a pointer to a variable that will contain an error code returned by
 137:..\..\..\..\..\..\uCOS-III\Source/os_mutex.c **** *
 138:..\..\..\..\..\..\uCOS-III\Source/os_mutex.c **** *                                OS_ERR_NONE                 The call was successful and the mutex 
 139:..\..\..\..\..\..\uCOS-III\Source/os_mutex.c **** *                                OS_ERR_DEL_ISR              If you attempted to delete the mutex f
 140:..\..\..\..\..\..\uCOS-III\Source/os_mutex.c **** *                                OS_ERR_OBJ_PTR_NULL         If 'p_mutex' is a NULL pointer.
 141:..\..\..\..\..\..\uCOS-III\Source/os_mutex.c **** *                                OS_ERR_OBJ_TYPE             If 'p_mutex' is not pointing to a mute
 142:..\..\..\..\..\..\uCOS-III\Source/os_mutex.c **** *                                OS_ERR_OPT_INVALID          An invalid option was specified
 143:..\..\..\..\..\..\uCOS-III\Source/os_mutex.c **** *                                OS_ERR_STATE_INVALID        Task is in an invalid state
ARM GAS  C:\Users\Aluno\AppData\Local\Temp\cccS7k0x.s 			page 6


 144:..\..\..\..\..\..\uCOS-III\Source/os_mutex.c **** *                                OS_ERR_TASK_WAITING         One or more tasks were waiting on the 
 145:..\..\..\..\..\..\uCOS-III\Source/os_mutex.c **** *
 146:..\..\..\..\..\..\uCOS-III\Source/os_mutex.c **** * Returns    : == 0          if no tasks were waiting on the mutex, or upon error.
 147:..\..\..\..\..\..\uCOS-III\Source/os_mutex.c **** *              >  0          if one or more tasks waiting on the mutex are now readied and informed
 148:..\..\..\..\..\..\uCOS-III\Source/os_mutex.c **** *
 149:..\..\..\..\..\..\uCOS-III\Source/os_mutex.c **** * Note(s)    : 1) This function must be used with care.  Tasks that would normally expect the prese
 150:..\..\..\..\..\..\uCOS-III\Source/os_mutex.c **** *                 check the return code of OSMutexPend().
 151:..\..\..\..\..\..\uCOS-III\Source/os_mutex.c **** *
 152:..\..\..\..\..\..\uCOS-III\Source/os_mutex.c **** *              2) OSMutexAccept() callers will not know that the intended mutex has been deleted.
 153:..\..\..\..\..\..\uCOS-III\Source/os_mutex.c **** *
 154:..\..\..\..\..\..\uCOS-III\Source/os_mutex.c **** *              3) Because ALL tasks pending on the mutex will be readied, you MUST be careful in ap
 155:..\..\..\..\..\..\uCOS-III\Source/os_mutex.c **** *                 mutex is used for mutual exclusion because the resource(s) will no longer be guar
 156:..\..\..\..\..\..\uCOS-III\Source/os_mutex.c **** ***************************************************************************************************
 157:..\..\..\..\..\..\uCOS-III\Source/os_mutex.c **** */
 158:..\..\..\..\..\..\uCOS-III\Source/os_mutex.c **** 
 159:..\..\..\..\..\..\uCOS-III\Source/os_mutex.c **** #if OS_CFG_MUTEX_DEL_EN > 0u
 160:..\..\..\..\..\..\uCOS-III\Source/os_mutex.c **** OS_OBJ_QTY  OSMutexDel (OS_MUTEX  *p_mutex,
 161:..\..\..\..\..\..\uCOS-III\Source/os_mutex.c ****                         OS_OPT     opt,
 162:..\..\..\..\..\..\uCOS-III\Source/os_mutex.c ****                         OS_ERR    *p_err)
 163:..\..\..\..\..\..\uCOS-III\Source/os_mutex.c **** {
 143              		.loc 1 163 0
 144              		.cfi_startproc
 145              		@ args = 0, pretend = 0, frame = 48
 146              		@ frame_needed = 1, uses_anonymous_args = 0
 147 0000 80B5     		push	{r7, lr}
 148              		.cfi_def_cfa_offset 8
 149              		.cfi_offset 7, -8
 150              		.cfi_offset 14, -4
 151 0002 8CB0     		sub	sp, sp, #48
 152              		.cfi_def_cfa_offset 56
 153 0004 00AF     		add	r7, sp, #0
 154              		.cfi_def_cfa_register 7
 155 0006 F860     		str	r0, [r7, #12]
 156 0008 0B46     		mov	r3, r1
 157 000a 7A60     		str	r2, [r7, #4]
 158 000c 7B81     		strh	r3, [r7, #10]	@ movhi
 164:..\..\..\..\..\..\uCOS-III\Source/os_mutex.c ****     OS_OBJ_QTY     cnt;
 165:..\..\..\..\..\..\uCOS-III\Source/os_mutex.c ****     OS_OBJ_QTY     nbr_tasks;
 166:..\..\..\..\..\..\uCOS-III\Source/os_mutex.c ****     OS_PEND_DATA  *p_pend_data;
 167:..\..\..\..\..\..\uCOS-III\Source/os_mutex.c ****     OS_PEND_LIST  *p_pend_list;
 168:..\..\..\..\..\..\uCOS-III\Source/os_mutex.c ****     OS_TCB        *p_tcb;
 169:..\..\..\..\..\..\uCOS-III\Source/os_mutex.c ****     OS_TCB        *p_tcb_owner;
 170:..\..\..\..\..\..\uCOS-III\Source/os_mutex.c ****     CPU_TS         ts;
 171:..\..\..\..\..\..\uCOS-III\Source/os_mutex.c ****     CPU_SR_ALLOC();
 159              		.loc 1 171 0
 160 000e 0023     		movs	r3, #0
 161 0010 BB62     		str	r3, [r7, #40]
 172:..\..\..\..\..\..\uCOS-III\Source/os_mutex.c **** 
 173:..\..\..\..\..\..\uCOS-III\Source/os_mutex.c **** 
 174:..\..\..\..\..\..\uCOS-III\Source/os_mutex.c **** 
 175:..\..\..\..\..\..\uCOS-III\Source/os_mutex.c **** #ifdef OS_SAFETY_CRITICAL
 176:..\..\..\..\..\..\uCOS-III\Source/os_mutex.c ****     if (p_err == (OS_ERR *)0) {
 177:..\..\..\..\..\..\uCOS-III\Source/os_mutex.c ****         OS_SAFETY_CRITICAL_EXCEPTION();
 178:..\..\..\..\..\..\uCOS-III\Source/os_mutex.c ****         return ((OS_OBJ_QTY)0);
 179:..\..\..\..\..\..\uCOS-III\Source/os_mutex.c ****     }
 180:..\..\..\..\..\..\uCOS-III\Source/os_mutex.c **** #endif
 181:..\..\..\..\..\..\uCOS-III\Source/os_mutex.c **** 
ARM GAS  C:\Users\Aluno\AppData\Local\Temp\cccS7k0x.s 			page 7


 182:..\..\..\..\..\..\uCOS-III\Source/os_mutex.c **** #if OS_CFG_CALLED_FROM_ISR_CHK_EN > 0u
 183:..\..\..\..\..\..\uCOS-III\Source/os_mutex.c ****     if (OSIntNestingCtr > (OS_NESTING_CTR)0) {                  /* Not allowed to delete a mutex fr
 162              		.loc 1 183 0
 163 0012 6A4B     		ldr	r3, .L31
 164 0014 1B78     		ldrb	r3, [r3]	@ zero_extendqisi2
 165 0016 002B     		cmp	r3, #0
 166 0018 05D0     		beq	.L8
 184:..\..\..\..\..\..\uCOS-III\Source/os_mutex.c ****        *p_err = OS_ERR_DEL_ISR;
 167              		.loc 1 184 0
 168 001a 7B68     		ldr	r3, [r7, #4]
 169 001c 43F2C922 		movw	r2, #13001
 170 0020 1A80     		strh	r2, [r3]	@ movhi
 185:..\..\..\..\..\..\uCOS-III\Source/os_mutex.c ****         return ((OS_OBJ_QTY)0);
 171              		.loc 1 185 0
 172 0022 0023     		movs	r3, #0
 173 0024 C6E0     		b	.L9
 174              	.L8:
 186:..\..\..\..\..\..\uCOS-III\Source/os_mutex.c ****     }
 187:..\..\..\..\..\..\uCOS-III\Source/os_mutex.c **** #endif
 188:..\..\..\..\..\..\uCOS-III\Source/os_mutex.c **** 
 189:..\..\..\..\..\..\uCOS-III\Source/os_mutex.c **** #if OS_CFG_ARG_CHK_EN > 0u
 190:..\..\..\..\..\..\uCOS-III\Source/os_mutex.c ****     if (p_mutex == (OS_MUTEX *)0) {                             /* Validate 'p_mutex'              
 175              		.loc 1 190 0
 176 0026 FB68     		ldr	r3, [r7, #12]
 177 0028 002B     		cmp	r3, #0
 178 002a 05D1     		bne	.L10
 191:..\..\..\..\..\..\uCOS-III\Source/os_mutex.c ****        *p_err = OS_ERR_OBJ_PTR_NULL;
 179              		.loc 1 191 0
 180 002c 7B68     		ldr	r3, [r7, #4]
 181 002e 45F6C352 		movw	r2, #24003
 182 0032 1A80     		strh	r2, [r3]	@ movhi
 192:..\..\..\..\..\..\uCOS-III\Source/os_mutex.c ****         return ((OS_OBJ_QTY)0);
 183              		.loc 1 192 0
 184 0034 0023     		movs	r3, #0
 185 0036 BDE0     		b	.L9
 186              	.L10:
 193:..\..\..\..\..\..\uCOS-III\Source/os_mutex.c ****     }
 194:..\..\..\..\..\..\uCOS-III\Source/os_mutex.c ****     switch (opt) {                                              /* Validate 'opt'                  
 187              		.loc 1 194 0
 188 0038 7B89     		ldrh	r3, [r7, #10]
 189 003a 0033     		adds	r3, r3, #0
 190 003c 012B     		cmp	r3, #1
 191 003e 05D9     		bls	.L30
 195:..\..\..\..\..\..\uCOS-III\Source/os_mutex.c ****         case OS_OPT_DEL_NO_PEND:
 196:..\..\..\..\..\..\uCOS-III\Source/os_mutex.c ****         case OS_OPT_DEL_ALWAYS:
 197:..\..\..\..\..\..\uCOS-III\Source/os_mutex.c ****              break;
 198:..\..\..\..\..\..\uCOS-III\Source/os_mutex.c **** 
 199:..\..\..\..\..\..\uCOS-III\Source/os_mutex.c ****         default:
 200:..\..\..\..\..\..\uCOS-III\Source/os_mutex.c ****             *p_err =  OS_ERR_OPT_INVALID;
 192              		.loc 1 200 0
 193 0040 7B68     		ldr	r3, [r7, #4]
 194 0042 45F62562 		movw	r2, #24101
 195 0046 1A80     		strh	r2, [r3]	@ movhi
 201:..\..\..\..\..\..\uCOS-III\Source/os_mutex.c ****              return ((OS_OBJ_QTY)0);
 196              		.loc 1 201 0
 197 0048 0023     		movs	r3, #0
 198 004a B3E0     		b	.L9
ARM GAS  C:\Users\Aluno\AppData\Local\Temp\cccS7k0x.s 			page 8


 199              	.L30:
 197:..\..\..\..\..\..\uCOS-III\Source/os_mutex.c **** 
 200              		.loc 1 197 0
 201 004c 00BF     		nop
 202:..\..\..\..\..\..\uCOS-III\Source/os_mutex.c ****     }
 203:..\..\..\..\..\..\uCOS-III\Source/os_mutex.c **** #endif
 204:..\..\..\..\..\..\uCOS-III\Source/os_mutex.c **** 
 205:..\..\..\..\..\..\uCOS-III\Source/os_mutex.c **** #if OS_CFG_OBJ_TYPE_CHK_EN > 0u
 206:..\..\..\..\..\..\uCOS-III\Source/os_mutex.c ****     if (p_mutex->Type != OS_OBJ_TYPE_MUTEX) {                   /* Make sure mutex was created     
 207:..\..\..\..\..\..\uCOS-III\Source/os_mutex.c ****        *p_err = OS_ERR_OBJ_TYPE;
 208:..\..\..\..\..\..\uCOS-III\Source/os_mutex.c ****         return ((OS_OBJ_QTY)0);
 209:..\..\..\..\..\..\uCOS-III\Source/os_mutex.c ****     }
 210:..\..\..\..\..\..\uCOS-III\Source/os_mutex.c **** #endif
 211:..\..\..\..\..\..\uCOS-III\Source/os_mutex.c **** 
 212:..\..\..\..\..\..\uCOS-III\Source/os_mutex.c ****     OS_CRITICAL_ENTER();
 202              		.loc 1 212 0
 203 004e FFF7FEFF 		bl	CPU_SR_Save
 204 0052 B862     		str	r0, [r7, #40]
 213:..\..\..\..\..\..\uCOS-III\Source/os_mutex.c ****     p_pend_list = &p_mutex->PendList;
 205              		.loc 1 213 0
 206 0054 FB68     		ldr	r3, [r7, #12]
 207 0056 0833     		adds	r3, r3, #8
 208 0058 7B62     		str	r3, [r7, #36]
 214:..\..\..\..\..\..\uCOS-III\Source/os_mutex.c ****     cnt         = p_pend_list->NbrEntries;
 209              		.loc 1 214 0
 210 005a 7B6A     		ldr	r3, [r7, #36]
 211 005c 1B89     		ldrh	r3, [r3, #8]	@ movhi
 212 005e FB85     		strh	r3, [r7, #46]	@ movhi
 215:..\..\..\..\..\..\uCOS-III\Source/os_mutex.c ****     nbr_tasks   = cnt;
 213              		.loc 1 215 0
 214 0060 FB8D     		ldrh	r3, [r7, #46]	@ movhi
 215 0062 7B84     		strh	r3, [r7, #34]	@ movhi
 216:..\..\..\..\..\..\uCOS-III\Source/os_mutex.c ****     switch (opt) {
 216              		.loc 1 216 0
 217 0064 7B89     		ldrh	r3, [r7, #10]
 218 0066 002B     		cmp	r3, #0
 219 0068 02D0     		beq	.L15
 220 006a 012B     		cmp	r3, #1
 221 006c 1ED0     		beq	.L16
 222 006e 98E0     		b	.L29
 223              	.L15:
 217:..\..\..\..\..\..\uCOS-III\Source/os_mutex.c ****         case OS_OPT_DEL_NO_PEND:                                /* Delete mutex only if no task wai
 218:..\..\..\..\..\..\uCOS-III\Source/os_mutex.c ****              if (nbr_tasks == (OS_OBJ_QTY)0) {
 224              		.loc 1 218 0
 225 0070 7B8C     		ldrh	r3, [r7, #34]
 226 0072 002B     		cmp	r3, #0
 227 0074 12D1     		bne	.L17
 219:..\..\..\..\..\..\uCOS-III\Source/os_mutex.c **** #if OS_CFG_DBG_EN > 0u
 220:..\..\..\..\..\..\uCOS-III\Source/os_mutex.c ****                  OS_MutexDbgListRemove(p_mutex);
 228              		.loc 1 220 0
 229 0076 F868     		ldr	r0, [r7, #12]
 230 0078 FFF7FEFF 		bl	OS_MutexDbgListRemove
 221:..\..\..\..\..\..\uCOS-III\Source/os_mutex.c **** #endif
 222:..\..\..\..\..\..\uCOS-III\Source/os_mutex.c ****                  OSMutexQty--;
 231              		.loc 1 222 0
 232 007c 504B     		ldr	r3, .L31+4
 233 007e 1B88     		ldrh	r3, [r3]
ARM GAS  C:\Users\Aluno\AppData\Local\Temp\cccS7k0x.s 			page 9


 234 0080 013B     		subs	r3, r3, #1
 235 0082 9AB2     		uxth	r2, r3
 236 0084 4E4B     		ldr	r3, .L31+4
 237 0086 1A80     		strh	r2, [r3]	@ movhi
 223:..\..\..\..\..\..\uCOS-III\Source/os_mutex.c ****                  OS_MutexClr(p_mutex);
 238              		.loc 1 223 0
 239 0088 F868     		ldr	r0, [r7, #12]
 240 008a FFF7FEFF 		bl	OS_MutexClr
 224:..\..\..\..\..\..\uCOS-III\Source/os_mutex.c ****                  OS_CRITICAL_EXIT();
 241              		.loc 1 224 0
 242 008e B86A     		ldr	r0, [r7, #40]
 243 0090 FFF7FEFF 		bl	CPU_SR_Restore
 225:..\..\..\..\..\..\uCOS-III\Source/os_mutex.c ****                 *p_err = OS_ERR_NONE;
 244              		.loc 1 225 0
 245 0094 7B68     		ldr	r3, [r7, #4]
 246 0096 0022     		movs	r2, #0
 247 0098 1A80     		strh	r2, [r3]	@ movhi
 226:..\..\..\..\..\..\uCOS-III\Source/os_mutex.c ****              } else {
 227:..\..\..\..\..\..\uCOS-III\Source/os_mutex.c ****                  OS_CRITICAL_EXIT();
 228:..\..\..\..\..\..\uCOS-III\Source/os_mutex.c ****                 *p_err = OS_ERR_TASK_WAITING;
 229:..\..\..\..\..\..\uCOS-III\Source/os_mutex.c ****              }
 230:..\..\..\..\..\..\uCOS-III\Source/os_mutex.c ****              break;
 248              		.loc 1 230 0
 249 009a 8AE0     		b	.L19
 250              	.L17:
 227:..\..\..\..\..\..\uCOS-III\Source/os_mutex.c ****                 *p_err = OS_ERR_TASK_WAITING;
 251              		.loc 1 227 0
 252 009c B86A     		ldr	r0, [r7, #40]
 253 009e FFF7FEFF 		bl	CPU_SR_Restore
 228:..\..\..\..\..\..\uCOS-III\Source/os_mutex.c ****              }
 254              		.loc 1 228 0
 255 00a2 7B68     		ldr	r3, [r7, #4]
 256 00a4 47F25F12 		movw	r2, #29023
 257 00a8 1A80     		strh	r2, [r3]	@ movhi
 258              		.loc 1 230 0
 259 00aa 82E0     		b	.L19
 260              	.L16:
 231:..\..\..\..\..\..\uCOS-III\Source/os_mutex.c **** 
 232:..\..\..\..\..\..\uCOS-III\Source/os_mutex.c ****         case OS_OPT_DEL_ALWAYS:                                            /* Always delete the mut
 233:..\..\..\..\..\..\uCOS-III\Source/os_mutex.c ****              p_tcb_owner = p_mutex->OwnerTCBPtr;                           /* Did we had to change 
 261              		.loc 1 233 0
 262 00ac FB68     		ldr	r3, [r7, #12]
 263 00ae 1B6A     		ldr	r3, [r3, #32]
 264 00b0 FB61     		str	r3, [r7, #28]
 234:..\..\..\..\..\..\uCOS-III\Source/os_mutex.c ****              if ((p_tcb_owner       != (OS_TCB *)0) &&
 265              		.loc 1 234 0
 266 00b2 FB69     		ldr	r3, [r7, #28]
 267 00b4 002B     		cmp	r3, #0
 268 00b6 4AD0     		beq	.L20
 235:..\..\..\..\..\..\uCOS-III\Source/os_mutex.c ****                  (p_tcb_owner->Prio !=  p_mutex->OwnerOriginalPrio)) {
 269              		.loc 1 235 0 discriminator 1
 270 00b8 FB69     		ldr	r3, [r7, #28]
 271 00ba 93F83720 		ldrb	r2, [r3, #55]	@ zero_extendqisi2
 272 00be FB68     		ldr	r3, [r7, #12]
 273 00c0 93F82430 		ldrb	r3, [r3, #36]	@ zero_extendqisi2
 234:..\..\..\..\..\..\uCOS-III\Source/os_mutex.c ****              if ((p_tcb_owner       != (OS_TCB *)0) &&
 274              		.loc 1 234 0 discriminator 1
ARM GAS  C:\Users\Aluno\AppData\Local\Temp\cccS7k0x.s 			page 10


 275 00c4 9A42     		cmp	r2, r3
 276 00c6 42D0     		beq	.L20
 236:..\..\..\..\..\..\uCOS-III\Source/os_mutex.c ****                  switch (p_tcb_owner->TaskState) {                         /* yes                  
 277              		.loc 1 236 0
 278 00c8 FB69     		ldr	r3, [r7, #28]
 279 00ca 93F83630 		ldrb	r3, [r3, #54]	@ zero_extendqisi2
 280 00ce 072B     		cmp	r3, #7
 281 00d0 34D8     		bhi	.L21
 282 00d2 01A2     		adr	r2, .L23
 283 00d4 52F823F0 		ldr	pc, [r2, r3, lsl #2]
 284              		.p2align 2
 285              	.L23:
 286 00d8 F9000000 		.word	.L22+1
 287 00dc 1F010000 		.word	.L24+1
 288 00e0 2D010000 		.word	.L25+1
 289 00e4 2D010000 		.word	.L25+1
 290 00e8 1F010000 		.word	.L24+1
 291 00ec 1F010000 		.word	.L24+1
 292 00f0 2D010000 		.word	.L25+1
 293 00f4 2D010000 		.word	.L25+1
 294              		.p2align 1
 295              	.L22:
 237:..\..\..\..\..\..\uCOS-III\Source/os_mutex.c ****                      case OS_TASK_STATE_RDY:
 238:..\..\..\..\..\..\uCOS-III\Source/os_mutex.c ****                           OS_RdyListRemove(p_tcb_owner);
 296              		.loc 1 238 0
 297 00f8 F869     		ldr	r0, [r7, #28]
 298 00fa FFF7FEFF 		bl	OS_RdyListRemove
 239:..\..\..\..\..\..\uCOS-III\Source/os_mutex.c ****                           p_tcb_owner->Prio = p_mutex->OwnerOriginalPrio;  /* Lower owner's prio ba
 299              		.loc 1 239 0
 300 00fe FB68     		ldr	r3, [r7, #12]
 301 0100 93F82420 		ldrb	r2, [r3, #36]	@ zero_extendqisi2
 302 0104 FB69     		ldr	r3, [r7, #28]
 303 0106 83F83720 		strb	r2, [r3, #55]
 240:..\..\..\..\..\..\uCOS-III\Source/os_mutex.c ****                           OS_PrioInsert(p_tcb_owner->Prio);
 304              		.loc 1 240 0
 305 010a FB69     		ldr	r3, [r7, #28]
 306 010c 93F83730 		ldrb	r3, [r3, #55]	@ zero_extendqisi2
 307 0110 1846     		mov	r0, r3
 308 0112 FFF7FEFF 		bl	OS_PrioInsert
 241:..\..\..\..\..\..\uCOS-III\Source/os_mutex.c ****                           OS_RdyListInsertTail(p_tcb_owner);               /* Insert owner in ready
 309              		.loc 1 241 0
 310 0116 F869     		ldr	r0, [r7, #28]
 311 0118 FFF7FEFF 		bl	OS_RdyListInsertTail
 242:..\..\..\..\..\..\uCOS-III\Source/os_mutex.c ****                           break;
 312              		.loc 1 242 0
 313 011c 17E0     		b	.L20
 314              	.L24:
 243:..\..\..\..\..\..\uCOS-III\Source/os_mutex.c **** 
 244:..\..\..\..\..\..\uCOS-III\Source/os_mutex.c ****                      case OS_TASK_STATE_DLY:
 245:..\..\..\..\..\..\uCOS-III\Source/os_mutex.c ****                      case OS_TASK_STATE_SUSPENDED:
 246:..\..\..\..\..\..\uCOS-III\Source/os_mutex.c ****                      case OS_TASK_STATE_DLY_SUSPENDED:
 247:..\..\..\..\..\..\uCOS-III\Source/os_mutex.c ****                           p_tcb_owner->Prio = p_mutex->OwnerOriginalPrio;  /* Not in any pend list,
 315              		.loc 1 247 0
 316 011e FB68     		ldr	r3, [r7, #12]
 317 0120 93F82420 		ldrb	r2, [r3, #36]	@ zero_extendqisi2
 318 0124 FB69     		ldr	r3, [r7, #28]
 319 0126 83F83720 		strb	r2, [r3, #55]
ARM GAS  C:\Users\Aluno\AppData\Local\Temp\cccS7k0x.s 			page 11


 248:..\..\..\..\..\..\uCOS-III\Source/os_mutex.c ****                           break;
 320              		.loc 1 248 0
 321 012a 10E0     		b	.L20
 322              	.L25:
 249:..\..\..\..\..\..\uCOS-III\Source/os_mutex.c **** 
 250:..\..\..\..\..\..\uCOS-III\Source/os_mutex.c ****                      case OS_TASK_STATE_PEND:
 251:..\..\..\..\..\..\uCOS-III\Source/os_mutex.c ****                      case OS_TASK_STATE_PEND_TIMEOUT:
 252:..\..\..\..\..\..\uCOS-III\Source/os_mutex.c ****                      case OS_TASK_STATE_PEND_SUSPENDED:
 253:..\..\..\..\..\..\uCOS-III\Source/os_mutex.c ****                      case OS_TASK_STATE_PEND_TIMEOUT_SUSPENDED:
 254:..\..\..\..\..\..\uCOS-III\Source/os_mutex.c ****                           OS_PendListChangePrio(p_tcb_owner,               /* Owner is pending on a
 323              		.loc 1 254 0
 324 012c FB68     		ldr	r3, [r7, #12]
 325 012e 93F82430 		ldrb	r3, [r3, #36]	@ zero_extendqisi2
 326 0132 1946     		mov	r1, r3
 327 0134 F869     		ldr	r0, [r7, #28]
 328 0136 FFF7FEFF 		bl	OS_PendListChangePrio
 255:..\..\..\..\..\..\uCOS-III\Source/os_mutex.c ****                                                 p_mutex->OwnerOriginalPrio);
 256:..\..\..\..\..\..\uCOS-III\Source/os_mutex.c ****                           break;
 329              		.loc 1 256 0
 330 013a 08E0     		b	.L20
 331              	.L21:
 257:..\..\..\..\..\..\uCOS-III\Source/os_mutex.c **** 
 258:..\..\..\..\..\..\uCOS-III\Source/os_mutex.c ****                      default:
 259:..\..\..\..\..\..\uCOS-III\Source/os_mutex.c ****                           OS_CRITICAL_EXIT();
 332              		.loc 1 259 0
 333 013c B86A     		ldr	r0, [r7, #40]
 334 013e FFF7FEFF 		bl	CPU_SR_Restore
 260:..\..\..\..\..\..\uCOS-III\Source/os_mutex.c ****                          *p_err = OS_ERR_STATE_INVALID;
 335              		.loc 1 260 0
 336 0142 7B68     		ldr	r3, [r7, #4]
 337 0144 46F62D62 		movw	r2, #28205
 338 0148 1A80     		strh	r2, [r3]	@ movhi
 261:..\..\..\..\..\..\uCOS-III\Source/os_mutex.c ****                           return ((OS_OBJ_QTY)0);
 339              		.loc 1 261 0
 340 014a 0023     		movs	r3, #0
 341 014c 32E0     		b	.L9
 342              	.L20:
 262:..\..\..\..\..\..\uCOS-III\Source/os_mutex.c ****                  }
 263:..\..\..\..\..\..\uCOS-III\Source/os_mutex.c ****              }
 264:..\..\..\..\..\..\uCOS-III\Source/os_mutex.c **** 
 265:..\..\..\..\..\..\uCOS-III\Source/os_mutex.c ****              ts = OS_TS_GET();                                             /* Get timestamp        
 343              		.loc 1 265 0
 344 014e FFF7FEFF 		bl	CPU_TS_TmrRd
 345 0152 B861     		str	r0, [r7, #24]
 266:..\..\..\..\..\..\uCOS-III\Source/os_mutex.c ****              while (cnt > 0u) {                                            /* Remove all tasks from
 346              		.loc 1 266 0
 347 0154 0DE0     		b	.L26
 348              	.L27:
 267:..\..\..\..\..\..\uCOS-III\Source/os_mutex.c ****                  p_pend_data = p_pend_list->HeadPtr;
 349              		.loc 1 267 0
 350 0156 7B6A     		ldr	r3, [r7, #36]
 351 0158 1B68     		ldr	r3, [r3]
 352 015a 7B61     		str	r3, [r7, #20]
 268:..\..\..\..\..\..\uCOS-III\Source/os_mutex.c ****                  p_tcb       = p_pend_data->TCBPtr;
 353              		.loc 1 268 0
 354 015c 7B69     		ldr	r3, [r7, #20]
 355 015e 9B68     		ldr	r3, [r3, #8]
ARM GAS  C:\Users\Aluno\AppData\Local\Temp\cccS7k0x.s 			page 12


 356 0160 3B61     		str	r3, [r7, #16]
 269:..\..\..\..\..\..\uCOS-III\Source/os_mutex.c ****                  OS_PendObjDel((OS_PEND_OBJ *)((void *)p_mutex),
 357              		.loc 1 269 0
 358 0162 BA69     		ldr	r2, [r7, #24]
 359 0164 3969     		ldr	r1, [r7, #16]
 360 0166 F868     		ldr	r0, [r7, #12]
 361 0168 FFF7FEFF 		bl	OS_PendObjDel
 270:..\..\..\..\..\..\uCOS-III\Source/os_mutex.c ****                                p_tcb,
 271:..\..\..\..\..\..\uCOS-III\Source/os_mutex.c ****                                ts);
 272:..\..\..\..\..\..\uCOS-III\Source/os_mutex.c ****                  cnt--;
 362              		.loc 1 272 0
 363 016c FB8D     		ldrh	r3, [r7, #46]
 364 016e 013B     		subs	r3, r3, #1
 365 0170 FB85     		strh	r3, [r7, #46]	@ movhi
 366              	.L26:
 266:..\..\..\..\..\..\uCOS-III\Source/os_mutex.c ****                  p_pend_data = p_pend_list->HeadPtr;
 367              		.loc 1 266 0
 368 0172 FB8D     		ldrh	r3, [r7, #46]
 369 0174 002B     		cmp	r3, #0
 370 0176 EED1     		bne	.L27
 273:..\..\..\..\..\..\uCOS-III\Source/os_mutex.c ****              }
 274:..\..\..\..\..\..\uCOS-III\Source/os_mutex.c **** #if OS_CFG_DBG_EN > 0u
 275:..\..\..\..\..\..\uCOS-III\Source/os_mutex.c ****              OS_MutexDbgListRemove(p_mutex);
 371              		.loc 1 275 0
 372 0178 F868     		ldr	r0, [r7, #12]
 373 017a FFF7FEFF 		bl	OS_MutexDbgListRemove
 276:..\..\..\..\..\..\uCOS-III\Source/os_mutex.c **** #endif
 277:..\..\..\..\..\..\uCOS-III\Source/os_mutex.c ****              OSMutexQty--;
 374              		.loc 1 277 0
 375 017e 104B     		ldr	r3, .L31+4
 376 0180 1B88     		ldrh	r3, [r3]
 377 0182 013B     		subs	r3, r3, #1
 378 0184 9AB2     		uxth	r2, r3
 379 0186 0E4B     		ldr	r3, .L31+4
 380 0188 1A80     		strh	r2, [r3]	@ movhi
 278:..\..\..\..\..\..\uCOS-III\Source/os_mutex.c ****              OS_MutexClr(p_mutex);
 381              		.loc 1 278 0
 382 018a F868     		ldr	r0, [r7, #12]
 383 018c FFF7FEFF 		bl	OS_MutexClr
 279:..\..\..\..\..\..\uCOS-III\Source/os_mutex.c ****              OS_CRITICAL_EXIT_NO_SCHED();
 384              		.loc 1 279 0
 385 0190 B86A     		ldr	r0, [r7, #40]
 386 0192 FFF7FEFF 		bl	CPU_SR_Restore
 280:..\..\..\..\..\..\uCOS-III\Source/os_mutex.c ****              OSSched();                                                    /* Find highest priority
 387              		.loc 1 280 0
 388 0196 FFF7FEFF 		bl	OSSched
 281:..\..\..\..\..\..\uCOS-III\Source/os_mutex.c ****             *p_err = OS_ERR_NONE;
 389              		.loc 1 281 0
 390 019a 7B68     		ldr	r3, [r7, #4]
 391 019c 0022     		movs	r2, #0
 392 019e 1A80     		strh	r2, [r3]	@ movhi
 282:..\..\..\..\..\..\uCOS-III\Source/os_mutex.c ****              break;
 393              		.loc 1 282 0
 394 01a0 07E0     		b	.L19
 395              	.L29:
 283:..\..\..\..\..\..\uCOS-III\Source/os_mutex.c **** 
 284:..\..\..\..\..\..\uCOS-III\Source/os_mutex.c ****         default:
ARM GAS  C:\Users\Aluno\AppData\Local\Temp\cccS7k0x.s 			page 13


 285:..\..\..\..\..\..\uCOS-III\Source/os_mutex.c ****              OS_CRITICAL_EXIT();
 396              		.loc 1 285 0
 397 01a2 B86A     		ldr	r0, [r7, #40]
 398 01a4 FFF7FEFF 		bl	CPU_SR_Restore
 286:..\..\..\..\..\..\uCOS-III\Source/os_mutex.c ****             *p_err = OS_ERR_OPT_INVALID;
 399              		.loc 1 286 0
 400 01a8 7B68     		ldr	r3, [r7, #4]
 401 01aa 45F62562 		movw	r2, #24101
 402 01ae 1A80     		strh	r2, [r3]	@ movhi
 287:..\..\..\..\..\..\uCOS-III\Source/os_mutex.c ****              break;
 403              		.loc 1 287 0
 404 01b0 00BF     		nop
 405              	.L19:
 288:..\..\..\..\..\..\uCOS-III\Source/os_mutex.c ****     }
 289:..\..\..\..\..\..\uCOS-III\Source/os_mutex.c ****     return (nbr_tasks);
 406              		.loc 1 289 0
 407 01b2 7B8C     		ldrh	r3, [r7, #34]
 408              	.L9:
 290:..\..\..\..\..\..\uCOS-III\Source/os_mutex.c **** }
 409              		.loc 1 290 0
 410 01b4 1846     		mov	r0, r3
 411 01b6 3037     		adds	r7, r7, #48
 412              		.cfi_def_cfa_offset 8
 413 01b8 BD46     		mov	sp, r7
 414              		.cfi_def_cfa_register 13
 415              		@ sp needed
 416 01ba 80BD     		pop	{r7, pc}
 417              	.L32:
 418              		.align	2
 419              	.L31:
 420 01bc 00000000 		.word	OSIntNestingCtr
 421 01c0 00000000 		.word	OSMutexQty
 422              		.cfi_endproc
 423              	.LFE1:
 424              		.size	OSMutexDel, .-OSMutexDel
 425              		.section	.text.OSMutexPend,"ax",%progbits
 426              		.align	2
 427              		.global	OSMutexPend
 428              		.thumb
 429              		.thumb_func
 430              		.type	OSMutexPend, %function
 431              	OSMutexPend:
 432              	.LFB2:
 291:..\..\..\..\..\..\uCOS-III\Source/os_mutex.c **** #endif
 292:..\..\..\..\..\..\uCOS-III\Source/os_mutex.c **** 
 293:..\..\..\..\..\..\uCOS-III\Source/os_mutex.c **** /*$PAGE*/
 294:..\..\..\..\..\..\uCOS-III\Source/os_mutex.c **** /*
 295:..\..\..\..\..\..\uCOS-III\Source/os_mutex.c **** ***************************************************************************************************
 296:..\..\..\..\..\..\uCOS-III\Source/os_mutex.c **** *                                                    PEND ON MUTEX
 297:..\..\..\..\..\..\uCOS-III\Source/os_mutex.c **** *
 298:..\..\..\..\..\..\uCOS-III\Source/os_mutex.c **** * Description: This function waits for a mutex.
 299:..\..\..\..\..\..\uCOS-III\Source/os_mutex.c **** *
 300:..\..\..\..\..\..\uCOS-III\Source/os_mutex.c **** * Arguments  : p_mutex       is a pointer to the mutex
 301:..\..\..\..\..\..\uCOS-III\Source/os_mutex.c **** *
 302:..\..\..\..\..\..\uCOS-III\Source/os_mutex.c **** *              timeout       is an optional timeout period (in clock ticks).  If non-zero, your tas
 303:..\..\..\..\..\..\uCOS-III\Source/os_mutex.c **** *                            resource up to the amount of time (in 'ticks') specified by this argum
 304:..\..\..\..\..\..\uCOS-III\Source/os_mutex.c **** *                            0, however, your task will wait forever at the specified mutex or, unt
ARM GAS  C:\Users\Aluno\AppData\Local\Temp\cccS7k0x.s 			page 14


 305:..\..\..\..\..\..\uCOS-III\Source/os_mutex.c **** *                            becomes available.
 306:..\..\..\..\..\..\uCOS-III\Source/os_mutex.c **** *
 307:..\..\..\..\..\..\uCOS-III\Source/os_mutex.c **** *              opt           determines whether the user wants to block if the mutex is not availab
 308:..\..\..\..\..\..\uCOS-III\Source/os_mutex.c **** *
 309:..\..\..\..\..\..\uCOS-III\Source/os_mutex.c **** *                                OS_OPT_PEND_BLOCKING
 310:..\..\..\..\..\..\uCOS-III\Source/os_mutex.c **** *                                OS_OPT_PEND_NON_BLOCKING
 311:..\..\..\..\..\..\uCOS-III\Source/os_mutex.c **** *
 312:..\..\..\..\..\..\uCOS-III\Source/os_mutex.c **** *              p_ts          is a pointer to a variable that will receive the timestamp of when the
 313:..\..\..\..\..\..\uCOS-III\Source/os_mutex.c **** *                            pend aborted or the mutex deleted.  If you pass a NULL pointer (i.e. (
 314:..\..\..\..\..\..\uCOS-III\Source/os_mutex.c **** *                            will not get the timestamp.  In other words, passing a NULL pointer is
 315:..\..\..\..\..\..\uCOS-III\Source/os_mutex.c **** *                            that you don't need the timestamp.
 316:..\..\..\..\..\..\uCOS-III\Source/os_mutex.c **** *
 317:..\..\..\..\..\..\uCOS-III\Source/os_mutex.c **** *              p_err         is a pointer to a variable that will contain an error code returned by
 318:..\..\..\..\..\..\uCOS-III\Source/os_mutex.c **** *
 319:..\..\..\..\..\..\uCOS-III\Source/os_mutex.c **** *                                OS_ERR_NONE               The call was successful and your task ow
 320:..\..\..\..\..\..\uCOS-III\Source/os_mutex.c **** *                                OS_ERR_MUTEX_OWNER        If calling task already owns the mutex
 321:..\..\..\..\..\..\uCOS-III\Source/os_mutex.c **** *                                OS_ERR_OBJ_DEL            If 'p_mutex' was deleted
 322:..\..\..\..\..\..\uCOS-III\Source/os_mutex.c **** *                                OS_ERR_OBJ_PTR_NULL       If 'p_mutex' is a NULL pointer.
 323:..\..\..\..\..\..\uCOS-III\Source/os_mutex.c **** *                                OS_ERR_OBJ_TYPE           If 'p_mutex' is not pointing at a mutex
 324:..\..\..\..\..\..\uCOS-III\Source/os_mutex.c **** *                                OS_ERR_OPT_INVALID        If you didn't specify a valid option
 325:..\..\..\..\..\..\uCOS-III\Source/os_mutex.c **** *                                OS_ERR_PEND_ABORT         If the pend was aborted by another task
 326:..\..\..\..\..\..\uCOS-III\Source/os_mutex.c **** *                                OS_ERR_PEND_ISR           If you called this function from an ISR 
 327:..\..\..\..\..\..\uCOS-III\Source/os_mutex.c **** *                                                          would lead to a suspension.
 328:..\..\..\..\..\..\uCOS-III\Source/os_mutex.c **** *                                OS_ERR_PEND_WOULD_BLOCK   If you specified non-blocking but the mu
 329:..\..\..\..\..\..\uCOS-III\Source/os_mutex.c **** *                                                          available.
 330:..\..\..\..\..\..\uCOS-III\Source/os_mutex.c **** *                                OS_ERR_SCHED_LOCKED       If you called this function when the sch
 331:..\..\..\..\..\..\uCOS-III\Source/os_mutex.c **** *                                OS_ERR_STATE_INVALID      If the task is in an invalid state
 332:..\..\..\..\..\..\uCOS-III\Source/os_mutex.c **** *                                OS_ERR_STATUS_INVALID     If the pend status has an invalid value
 333:..\..\..\..\..\..\uCOS-III\Source/os_mutex.c **** *                                OS_ERR_TIMEOUT            The mutex was not received within the sp
 334:..\..\..\..\..\..\uCOS-III\Source/os_mutex.c **** *
 335:..\..\..\..\..\..\uCOS-III\Source/os_mutex.c **** * Returns    : none
 336:..\..\..\..\..\..\uCOS-III\Source/os_mutex.c **** ***************************************************************************************************
 337:..\..\..\..\..\..\uCOS-III\Source/os_mutex.c **** */
 338:..\..\..\..\..\..\uCOS-III\Source/os_mutex.c **** 
 339:..\..\..\..\..\..\uCOS-III\Source/os_mutex.c **** void  OSMutexPend (OS_MUTEX  *p_mutex,
 340:..\..\..\..\..\..\uCOS-III\Source/os_mutex.c ****                    OS_TICK    timeout,
 341:..\..\..\..\..\..\uCOS-III\Source/os_mutex.c ****                    OS_OPT     opt,
 342:..\..\..\..\..\..\uCOS-III\Source/os_mutex.c ****                    CPU_TS    *p_ts,
 343:..\..\..\..\..\..\uCOS-III\Source/os_mutex.c ****                    OS_ERR    *p_err)
 344:..\..\..\..\..\..\uCOS-III\Source/os_mutex.c **** {
 433              		.loc 1 344 0
 434              		.cfi_startproc
 435              		@ args = 4, pretend = 0, frame = 56
 436              		@ frame_needed = 1, uses_anonymous_args = 0
 437 0000 80B5     		push	{r7, lr}
 438              		.cfi_def_cfa_offset 8
 439              		.cfi_offset 7, -8
 440              		.cfi_offset 14, -4
 441 0002 8EB0     		sub	sp, sp, #56
 442              		.cfi_def_cfa_offset 64
 443 0004 00AF     		add	r7, sp, #0
 444              		.cfi_def_cfa_register 7
 445 0006 F860     		str	r0, [r7, #12]
 446 0008 B960     		str	r1, [r7, #8]
 447 000a 3B60     		str	r3, [r7]
 448 000c 1346     		mov	r3, r2	@ movhi
 449 000e FB80     		strh	r3, [r7, #6]	@ movhi
ARM GAS  C:\Users\Aluno\AppData\Local\Temp\cccS7k0x.s 			page 15


 345:..\..\..\..\..\..\uCOS-III\Source/os_mutex.c ****     OS_PEND_DATA  pend_data;
 346:..\..\..\..\..\..\uCOS-III\Source/os_mutex.c ****     OS_TCB       *p_tcb;
 347:..\..\..\..\..\..\uCOS-III\Source/os_mutex.c ****     CPU_SR_ALLOC();
 450              		.loc 1 347 0
 451 0010 0023     		movs	r3, #0
 452 0012 7B63     		str	r3, [r7, #52]
 348:..\..\..\..\..\..\uCOS-III\Source/os_mutex.c **** 
 349:..\..\..\..\..\..\uCOS-III\Source/os_mutex.c **** 
 350:..\..\..\..\..\..\uCOS-III\Source/os_mutex.c **** 
 351:..\..\..\..\..\..\uCOS-III\Source/os_mutex.c **** #ifdef OS_SAFETY_CRITICAL
 352:..\..\..\..\..\..\uCOS-III\Source/os_mutex.c ****     if (p_err == (OS_ERR *)0) {
 353:..\..\..\..\..\..\uCOS-III\Source/os_mutex.c ****         OS_SAFETY_CRITICAL_EXCEPTION();
 354:..\..\..\..\..\..\uCOS-III\Source/os_mutex.c ****         return;
 355:..\..\..\..\..\..\uCOS-III\Source/os_mutex.c ****     }
 356:..\..\..\..\..\..\uCOS-III\Source/os_mutex.c **** #endif
 357:..\..\..\..\..\..\uCOS-III\Source/os_mutex.c **** 
 358:..\..\..\..\..\..\uCOS-III\Source/os_mutex.c **** #if OS_CFG_CALLED_FROM_ISR_CHK_EN > 0u
 359:..\..\..\..\..\..\uCOS-III\Source/os_mutex.c ****     if (OSIntNestingCtr > (OS_NESTING_CTR)0) {              /* Not allowed to call from an ISR     
 453              		.loc 1 359 0
 454 0014 954B     		ldr	r3, .L66
 455 0016 1B78     		ldrb	r3, [r3]	@ zero_extendqisi2
 456 0018 002B     		cmp	r3, #0
 457 001a 04D0     		beq	.L34
 360:..\..\..\..\..\..\uCOS-III\Source/os_mutex.c ****        *p_err = OS_ERR_PEND_ISR;
 458              		.loc 1 360 0
 459 001c 3B6C     		ldr	r3, [r7, #64]
 460 001e 46F2AE12 		movw	r2, #25006
 461 0022 1A80     		strh	r2, [r3]	@ movhi
 361:..\..\..\..\..\..\uCOS-III\Source/os_mutex.c ****         return;
 462              		.loc 1 361 0
 463 0024 1FE1     		b	.L33
 464              	.L34:
 362:..\..\..\..\..\..\uCOS-III\Source/os_mutex.c ****     }
 363:..\..\..\..\..\..\uCOS-III\Source/os_mutex.c **** #endif
 364:..\..\..\..\..\..\uCOS-III\Source/os_mutex.c **** 
 365:..\..\..\..\..\..\uCOS-III\Source/os_mutex.c **** #if OS_CFG_ARG_CHK_EN > 0u
 366:..\..\..\..\..\..\uCOS-III\Source/os_mutex.c ****     if (p_mutex == (OS_MUTEX *)0) {                         /* Validate arguments                  
 465              		.loc 1 366 0
 466 0026 FB68     		ldr	r3, [r7, #12]
 467 0028 002B     		cmp	r3, #0
 468 002a 04D1     		bne	.L36
 367:..\..\..\..\..\..\uCOS-III\Source/os_mutex.c ****        *p_err = OS_ERR_OBJ_PTR_NULL;
 469              		.loc 1 367 0
 470 002c 3B6C     		ldr	r3, [r7, #64]
 471 002e 45F6C352 		movw	r2, #24003
 472 0032 1A80     		strh	r2, [r3]	@ movhi
 368:..\..\..\..\..\..\uCOS-III\Source/os_mutex.c ****         return;
 473              		.loc 1 368 0
 474 0034 17E1     		b	.L33
 475              	.L36:
 369:..\..\..\..\..\..\uCOS-III\Source/os_mutex.c ****     }
 370:..\..\..\..\..\..\uCOS-III\Source/os_mutex.c ****     switch (opt) {                                          /* Validate 'opt'                      
 476              		.loc 1 370 0
 477 0036 FB88     		ldrh	r3, [r7, #6]
 478 0038 002B     		cmp	r3, #0
 479 003a 07D0     		beq	.L65
 480 003c B3F5004F 		cmp	r3, #32768
ARM GAS  C:\Users\Aluno\AppData\Local\Temp\cccS7k0x.s 			page 16


 481 0040 04D0     		beq	.L65
 371:..\..\..\..\..\..\uCOS-III\Source/os_mutex.c ****         case OS_OPT_PEND_BLOCKING:
 372:..\..\..\..\..\..\uCOS-III\Source/os_mutex.c ****         case OS_OPT_PEND_NON_BLOCKING:
 373:..\..\..\..\..\..\uCOS-III\Source/os_mutex.c ****              break;
 374:..\..\..\..\..\..\uCOS-III\Source/os_mutex.c **** 
 375:..\..\..\..\..\..\uCOS-III\Source/os_mutex.c ****         default:
 376:..\..\..\..\..\..\uCOS-III\Source/os_mutex.c ****             *p_err = OS_ERR_OPT_INVALID;
 482              		.loc 1 376 0
 483 0042 3B6C     		ldr	r3, [r7, #64]
 484 0044 45F62562 		movw	r2, #24101
 485 0048 1A80     		strh	r2, [r3]	@ movhi
 377:..\..\..\..\..\..\uCOS-III\Source/os_mutex.c ****              return;
 486              		.loc 1 377 0
 487 004a 0CE1     		b	.L33
 488              	.L65:
 373:..\..\..\..\..\..\uCOS-III\Source/os_mutex.c **** 
 489              		.loc 1 373 0
 490 004c 00BF     		nop
 378:..\..\..\..\..\..\uCOS-III\Source/os_mutex.c ****     }
 379:..\..\..\..\..\..\uCOS-III\Source/os_mutex.c **** #endif
 380:..\..\..\..\..\..\uCOS-III\Source/os_mutex.c **** 
 381:..\..\..\..\..\..\uCOS-III\Source/os_mutex.c **** #if OS_CFG_OBJ_TYPE_CHK_EN > 0u
 382:..\..\..\..\..\..\uCOS-III\Source/os_mutex.c ****     if (p_mutex->Type != OS_OBJ_TYPE_MUTEX) {               /* Make sure mutex was created         
 383:..\..\..\..\..\..\uCOS-III\Source/os_mutex.c ****        *p_err = OS_ERR_OBJ_TYPE;
 384:..\..\..\..\..\..\uCOS-III\Source/os_mutex.c ****         return;
 385:..\..\..\..\..\..\uCOS-III\Source/os_mutex.c ****     }
 386:..\..\..\..\..\..\uCOS-III\Source/os_mutex.c **** #endif
 387:..\..\..\..\..\..\uCOS-III\Source/os_mutex.c **** 
 388:..\..\..\..\..\..\uCOS-III\Source/os_mutex.c ****     if (p_ts != (CPU_TS *)0) {
 491              		.loc 1 388 0
 492 004e 3B68     		ldr	r3, [r7]
 493 0050 002B     		cmp	r3, #0
 494 0052 02D0     		beq	.L40
 389:..\..\..\..\..\..\uCOS-III\Source/os_mutex.c ****        *p_ts  = (CPU_TS  )0;                                /* Initialize the returned timestamp   
 495              		.loc 1 389 0
 496 0054 3B68     		ldr	r3, [r7]
 497 0056 0022     		movs	r2, #0
 498 0058 1A60     		str	r2, [r3]
 499              	.L40:
 390:..\..\..\..\..\..\uCOS-III\Source/os_mutex.c ****     }
 391:..\..\..\..\..\..\uCOS-III\Source/os_mutex.c **** 
 392:..\..\..\..\..\..\uCOS-III\Source/os_mutex.c ****     CPU_CRITICAL_ENTER();
 500              		.loc 1 392 0
 501 005a FFF7FEFF 		bl	CPU_SR_Save
 502 005e 7863     		str	r0, [r7, #52]
 393:..\..\..\..\..\..\uCOS-III\Source/os_mutex.c ****     if (p_mutex->OwnerNestingCtr == (OS_NESTING_CTR)0) {    /* Resource available?                 
 503              		.loc 1 393 0
 504 0060 FB68     		ldr	r3, [r7, #12]
 505 0062 93F82530 		ldrb	r3, [r3, #37]	@ zero_extendqisi2
 506 0066 002B     		cmp	r3, #0
 507 0068 1CD1     		bne	.L41
 394:..\..\..\..\..\..\uCOS-III\Source/os_mutex.c ****         p_mutex->OwnerTCBPtr       =  OSTCBCurPtr;          /* Yes, caller may proceed             
 508              		.loc 1 394 0
 509 006a 814B     		ldr	r3, .L66+4
 510 006c 1A68     		ldr	r2, [r3]
 511 006e FB68     		ldr	r3, [r7, #12]
 512 0070 1A62     		str	r2, [r3, #32]
ARM GAS  C:\Users\Aluno\AppData\Local\Temp\cccS7k0x.s 			page 17


 395:..\..\..\..\..\..\uCOS-III\Source/os_mutex.c ****         p_mutex->OwnerOriginalPrio =  OSTCBCurPtr->Prio;
 513              		.loc 1 395 0
 514 0072 7F4B     		ldr	r3, .L66+4
 515 0074 1B68     		ldr	r3, [r3]
 516 0076 93F83720 		ldrb	r2, [r3, #55]	@ zero_extendqisi2
 517 007a FB68     		ldr	r3, [r7, #12]
 518 007c 83F82420 		strb	r2, [r3, #36]
 396:..\..\..\..\..\..\uCOS-III\Source/os_mutex.c ****         p_mutex->OwnerNestingCtr   = (OS_NESTING_CTR)1;
 519              		.loc 1 396 0
 520 0080 FB68     		ldr	r3, [r7, #12]
 521 0082 0122     		movs	r2, #1
 522 0084 83F82520 		strb	r2, [r3, #37]
 397:..\..\..\..\..\..\uCOS-III\Source/os_mutex.c ****         if (p_ts != (CPU_TS *)0) {
 523              		.loc 1 397 0
 524 0088 3B68     		ldr	r3, [r7]
 525 008a 002B     		cmp	r3, #0
 526 008c 03D0     		beq	.L42
 398:..\..\..\..\..\..\uCOS-III\Source/os_mutex.c ****            *p_ts  = p_mutex->TS;
 527              		.loc 1 398 0
 528 008e FB68     		ldr	r3, [r7, #12]
 529 0090 9A6A     		ldr	r2, [r3, #40]
 530 0092 3B68     		ldr	r3, [r7]
 531 0094 1A60     		str	r2, [r3]
 532              	.L42:
 399:..\..\..\..\..\..\uCOS-III\Source/os_mutex.c ****         }
 400:..\..\..\..\..\..\uCOS-III\Source/os_mutex.c ****         CPU_CRITICAL_EXIT();
 533              		.loc 1 400 0
 534 0096 786B     		ldr	r0, [r7, #52]
 535 0098 FFF7FEFF 		bl	CPU_SR_Restore
 401:..\..\..\..\..\..\uCOS-III\Source/os_mutex.c ****        *p_err = OS_ERR_NONE;
 536              		.loc 1 401 0
 537 009c 3B6C     		ldr	r3, [r7, #64]
 538 009e 0022     		movs	r2, #0
 539 00a0 1A80     		strh	r2, [r3]	@ movhi
 402:..\..\..\..\..\..\uCOS-III\Source/os_mutex.c ****         return;
 540              		.loc 1 402 0
 541 00a2 E0E0     		b	.L33
 542              	.L41:
 403:..\..\..\..\..\..\uCOS-III\Source/os_mutex.c ****     }
 404:..\..\..\..\..\..\uCOS-III\Source/os_mutex.c **** 
 405:..\..\..\..\..\..\uCOS-III\Source/os_mutex.c ****     if (OSTCBCurPtr == p_mutex->OwnerTCBPtr) {              /* See if current task is already the o
 543              		.loc 1 405 0
 544 00a4 FB68     		ldr	r3, [r7, #12]
 545 00a6 1A6A     		ldr	r2, [r3, #32]
 546 00a8 714B     		ldr	r3, .L66+4
 547 00aa 1B68     		ldr	r3, [r3]
 548 00ac 9A42     		cmp	r2, r3
 549 00ae 16D1     		bne	.L43
 406:..\..\..\..\..\..\uCOS-III\Source/os_mutex.c ****         p_mutex->OwnerNestingCtr++;
 550              		.loc 1 406 0
 551 00b0 FB68     		ldr	r3, [r7, #12]
 552 00b2 93F82530 		ldrb	r3, [r3, #37]	@ zero_extendqisi2
 553 00b6 0133     		adds	r3, r3, #1
 554 00b8 DAB2     		uxtb	r2, r3
 555 00ba FB68     		ldr	r3, [r7, #12]
 556 00bc 83F82520 		strb	r2, [r3, #37]
 407:..\..\..\..\..\..\uCOS-III\Source/os_mutex.c ****         if (p_ts != (CPU_TS *)0) {
ARM GAS  C:\Users\Aluno\AppData\Local\Temp\cccS7k0x.s 			page 18


 557              		.loc 1 407 0
 558 00c0 3B68     		ldr	r3, [r7]
 559 00c2 002B     		cmp	r3, #0
 560 00c4 03D0     		beq	.L44
 408:..\..\..\..\..\..\uCOS-III\Source/os_mutex.c ****            *p_ts  = p_mutex->TS;
 561              		.loc 1 408 0
 562 00c6 FB68     		ldr	r3, [r7, #12]
 563 00c8 9A6A     		ldr	r2, [r3, #40]
 564 00ca 3B68     		ldr	r3, [r7]
 565 00cc 1A60     		str	r2, [r3]
 566              	.L44:
 409:..\..\..\..\..\..\uCOS-III\Source/os_mutex.c ****         }
 410:..\..\..\..\..\..\uCOS-III\Source/os_mutex.c ****         CPU_CRITICAL_EXIT();
 567              		.loc 1 410 0
 568 00ce 786B     		ldr	r0, [r7, #52]
 569 00d0 FFF7FEFF 		bl	CPU_SR_Restore
 411:..\..\..\..\..\..\uCOS-III\Source/os_mutex.c ****        *p_err = OS_ERR_MUTEX_OWNER;                         /* Indicate that current task already o
 570              		.loc 1 411 0
 571 00d4 3B6C     		ldr	r3, [r7, #64]
 572 00d6 45F28272 		movw	r2, #22402
 573 00da 1A80     		strh	r2, [r3]	@ movhi
 412:..\..\..\..\..\..\uCOS-III\Source/os_mutex.c ****         return;
 574              		.loc 1 412 0
 575 00dc C3E0     		b	.L33
 576              	.L43:
 413:..\..\..\..\..\..\uCOS-III\Source/os_mutex.c ****     }
 414:..\..\..\..\..\..\uCOS-III\Source/os_mutex.c **** 
 415:..\..\..\..\..\..\uCOS-III\Source/os_mutex.c ****     if ((opt & OS_OPT_PEND_NON_BLOCKING) != (OS_OPT)0) {    /* Caller wants to block if not availab
 577              		.loc 1 415 0
 578 00de B7F90630 		ldrsh	r3, [r7, #6]
 579 00e2 002B     		cmp	r3, #0
 580 00e4 07DA     		bge	.L45
 416:..\..\..\..\..\..\uCOS-III\Source/os_mutex.c ****         CPU_CRITICAL_EXIT();
 581              		.loc 1 416 0
 582 00e6 786B     		ldr	r0, [r7, #52]
 583 00e8 FFF7FEFF 		bl	CPU_SR_Restore
 417:..\..\..\..\..\..\uCOS-III\Source/os_mutex.c ****        *p_err = OS_ERR_PEND_WOULD_BLOCK;                    /* No                                  
 584              		.loc 1 417 0
 585 00ec 3B6C     		ldr	r3, [r7, #64]
 586 00ee 46F2B012 		movw	r2, #25008
 587 00f2 1A80     		strh	r2, [r3]	@ movhi
 418:..\..\..\..\..\..\uCOS-III\Source/os_mutex.c ****         return;
 588              		.loc 1 418 0
 589 00f4 B7E0     		b	.L33
 590              	.L45:
 419:..\..\..\..\..\..\uCOS-III\Source/os_mutex.c ****     } else {
 420:..\..\..\..\..\..\uCOS-III\Source/os_mutex.c ****         if (OSSchedLockNestingCtr > (OS_NESTING_CTR)0) {    /* Can't pend when the scheduler is loc
 591              		.loc 1 420 0
 592 00f6 5F4B     		ldr	r3, .L66+8
 593 00f8 1B78     		ldrb	r3, [r3]	@ zero_extendqisi2
 594 00fa 002B     		cmp	r3, #0
 595 00fc 07D0     		beq	.L46
 421:..\..\..\..\..\..\uCOS-III\Source/os_mutex.c ****             CPU_CRITICAL_EXIT();
 596              		.loc 1 421 0
 597 00fe 786B     		ldr	r0, [r7, #52]
 598 0100 FFF7FEFF 		bl	CPU_SR_Restore
 422:..\..\..\..\..\..\uCOS-III\Source/os_mutex.c ****            *p_err = OS_ERR_SCHED_LOCKED;
ARM GAS  C:\Users\Aluno\AppData\Local\Temp\cccS7k0x.s 			page 19


 599              		.loc 1 422 0
 600 0104 3B6C     		ldr	r3, [r7, #64]
 601 0106 46F66352 		movw	r2, #28003
 602 010a 1A80     		strh	r2, [r3]	@ movhi
 423:..\..\..\..\..\..\uCOS-III\Source/os_mutex.c ****             return;
 603              		.loc 1 423 0
 604 010c ABE0     		b	.L33
 605              	.L46:
 424:..\..\..\..\..\..\uCOS-III\Source/os_mutex.c ****         }
 425:..\..\..\..\..\..\uCOS-III\Source/os_mutex.c ****     }
 426:..\..\..\..\..\..\uCOS-III\Source/os_mutex.c ****                                                             /* Lock the scheduler/re-enable interru
 427:..\..\..\..\..\..\uCOS-III\Source/os_mutex.c ****     OS_CRITICAL_ENTER_CPU_EXIT();
 428:..\..\..\..\..\..\uCOS-III\Source/os_mutex.c ****     p_tcb = p_mutex->OwnerTCBPtr;                           /* Point to the TCB of the Mutex owner 
 606              		.loc 1 428 0
 607 010e FB68     		ldr	r3, [r7, #12]
 608 0110 1B6A     		ldr	r3, [r3, #32]
 609 0112 3B63     		str	r3, [r7, #48]
 429:..\..\..\..\..\..\uCOS-III\Source/os_mutex.c ****     if (p_tcb->Prio > OSTCBCurPtr->Prio) {                  /* See if mutex owner has a lower prior
 610              		.loc 1 429 0
 611 0114 3B6B     		ldr	r3, [r7, #48]
 612 0116 93F83720 		ldrb	r2, [r3, #55]	@ zero_extendqisi2
 613 011a 554B     		ldr	r3, .L66+4
 614 011c 1B68     		ldr	r3, [r3]
 615 011e 93F83730 		ldrb	r3, [r3, #55]	@ zero_extendqisi2
 616 0122 9A42     		cmp	r2, r3
 617 0124 45D9     		bls	.L47
 430:..\..\..\..\..\..\uCOS-III\Source/os_mutex.c ****         switch (p_tcb->TaskState) {
 618              		.loc 1 430 0
 619 0126 3B6B     		ldr	r3, [r7, #48]
 620 0128 93F83630 		ldrb	r3, [r3, #54]	@ zero_extendqisi2
 621 012c 072B     		cmp	r3, #7
 622 012e 38D8     		bhi	.L48
 623 0130 01A2     		adr	r2, .L50
 624 0132 52F823F0 		ldr	pc, [r2, r3, lsl #2]
 625 0136 00BF     		.p2align 2
 626              	.L50:
 627 0138 59010000 		.word	.L49+1
 628 013c 81010000 		.word	.L51+1
 629 0140 91010000 		.word	.L52+1
 630 0144 91010000 		.word	.L52+1
 631 0148 81010000 		.word	.L51+1
 632 014c 81010000 		.word	.L51+1
 633 0150 91010000 		.word	.L52+1
 634 0154 91010000 		.word	.L52+1
 635              		.p2align 1
 636              	.L49:
 431:..\..\..\..\..\..\uCOS-III\Source/os_mutex.c ****             case OS_TASK_STATE_RDY:
 432:..\..\..\..\..\..\uCOS-III\Source/os_mutex.c ****                  OS_RdyListRemove(p_tcb);                   /* Remove from ready list at current pr
 637              		.loc 1 432 0
 638 0158 386B     		ldr	r0, [r7, #48]
 639 015a FFF7FEFF 		bl	OS_RdyListRemove
 433:..\..\..\..\..\..\uCOS-III\Source/os_mutex.c ****                  p_tcb->Prio = OSTCBCurPtr->Prio;           /* Raise owner's priority              
 640              		.loc 1 433 0
 641 015e 444B     		ldr	r3, .L66+4
 642 0160 1B68     		ldr	r3, [r3]
 643 0162 93F83720 		ldrb	r2, [r3, #55]	@ zero_extendqisi2
 644 0166 3B6B     		ldr	r3, [r7, #48]
ARM GAS  C:\Users\Aluno\AppData\Local\Temp\cccS7k0x.s 			page 20


 645 0168 83F83720 		strb	r2, [r3, #55]
 434:..\..\..\..\..\..\uCOS-III\Source/os_mutex.c ****                  OS_PrioInsert(p_tcb->Prio);
 646              		.loc 1 434 0
 647 016c 3B6B     		ldr	r3, [r7, #48]
 648 016e 93F83730 		ldrb	r3, [r3, #55]	@ zero_extendqisi2
 649 0172 1846     		mov	r0, r3
 650 0174 FFF7FEFF 		bl	OS_PrioInsert
 435:..\..\..\..\..\..\uCOS-III\Source/os_mutex.c ****                  OS_RdyListInsertHead(p_tcb);               /* Insert in ready list at new priority
 651              		.loc 1 435 0
 652 0178 386B     		ldr	r0, [r7, #48]
 653 017a FFF7FEFF 		bl	OS_RdyListInsertHead
 436:..\..\..\..\..\..\uCOS-III\Source/os_mutex.c ****                  break;
 654              		.loc 1 436 0
 655 017e 18E0     		b	.L47
 656              	.L51:
 437:..\..\..\..\..\..\uCOS-III\Source/os_mutex.c **** 
 438:..\..\..\..\..\..\uCOS-III\Source/os_mutex.c ****             case OS_TASK_STATE_DLY:
 439:..\..\..\..\..\..\uCOS-III\Source/os_mutex.c ****             case OS_TASK_STATE_DLY_SUSPENDED:
 440:..\..\..\..\..\..\uCOS-III\Source/os_mutex.c ****             case OS_TASK_STATE_SUSPENDED:
 441:..\..\..\..\..\..\uCOS-III\Source/os_mutex.c ****                  p_tcb->Prio = OSTCBCurPtr->Prio;           /* Only need to raise the owner's prior
 657              		.loc 1 441 0
 658 0180 3B4B     		ldr	r3, .L66+4
 659 0182 1B68     		ldr	r3, [r3]
 660 0184 93F83720 		ldrb	r2, [r3, #55]	@ zero_extendqisi2
 661 0188 3B6B     		ldr	r3, [r7, #48]
 662 018a 83F83720 		strb	r2, [r3, #55]
 442:..\..\..\..\..\..\uCOS-III\Source/os_mutex.c ****                  break;
 663              		.loc 1 442 0
 664 018e 10E0     		b	.L47
 665              	.L52:
 443:..\..\..\..\..\..\uCOS-III\Source/os_mutex.c **** 
 444:..\..\..\..\..\..\uCOS-III\Source/os_mutex.c ****             case OS_TASK_STATE_PEND:                        /* Change the position of the task in t
 445:..\..\..\..\..\..\uCOS-III\Source/os_mutex.c ****             case OS_TASK_STATE_PEND_TIMEOUT:
 446:..\..\..\..\..\..\uCOS-III\Source/os_mutex.c ****             case OS_TASK_STATE_PEND_SUSPENDED:
 447:..\..\..\..\..\..\uCOS-III\Source/os_mutex.c ****             case OS_TASK_STATE_PEND_TIMEOUT_SUSPENDED:
 448:..\..\..\..\..\..\uCOS-III\Source/os_mutex.c ****                  OS_PendListChangePrio(p_tcb,
 449:..\..\..\..\..\..\uCOS-III\Source/os_mutex.c ****                                        OSTCBCurPtr->Prio);
 666              		.loc 1 449 0
 667 0190 374B     		ldr	r3, .L66+4
 668 0192 1B68     		ldr	r3, [r3]
 448:..\..\..\..\..\..\uCOS-III\Source/os_mutex.c ****                                        OSTCBCurPtr->Prio);
 669              		.loc 1 448 0
 670 0194 93F83730 		ldrb	r3, [r3, #55]	@ zero_extendqisi2
 671 0198 1946     		mov	r1, r3
 672 019a 386B     		ldr	r0, [r7, #48]
 673 019c FFF7FEFF 		bl	OS_PendListChangePrio
 450:..\..\..\..\..\..\uCOS-III\Source/os_mutex.c ****                  break;
 674              		.loc 1 450 0
 675 01a0 07E0     		b	.L47
 676              	.L48:
 451:..\..\..\..\..\..\uCOS-III\Source/os_mutex.c **** 
 452:..\..\..\..\..\..\uCOS-III\Source/os_mutex.c ****             default:
 453:..\..\..\..\..\..\uCOS-III\Source/os_mutex.c ****                  OS_CRITICAL_EXIT();
 677              		.loc 1 453 0
 678 01a2 786B     		ldr	r0, [r7, #52]
 679 01a4 FFF7FEFF 		bl	CPU_SR_Restore
 454:..\..\..\..\..\..\uCOS-III\Source/os_mutex.c ****                 *p_err = OS_ERR_STATE_INVALID;
ARM GAS  C:\Users\Aluno\AppData\Local\Temp\cccS7k0x.s 			page 21


 680              		.loc 1 454 0
 681 01a8 3B6C     		ldr	r3, [r7, #64]
 682 01aa 46F62D62 		movw	r2, #28205
 683 01ae 1A80     		strh	r2, [r3]	@ movhi
 455:..\..\..\..\..\..\uCOS-III\Source/os_mutex.c ****                  return;
 684              		.loc 1 455 0
 685 01b0 59E0     		b	.L33
 686              	.L47:
 456:..\..\..\..\..\..\uCOS-III\Source/os_mutex.c ****         }
 457:..\..\..\..\..\..\uCOS-III\Source/os_mutex.c ****     }
 458:..\..\..\..\..\..\uCOS-III\Source/os_mutex.c **** 
 459:..\..\..\..\..\..\uCOS-III\Source/os_mutex.c ****     OS_Pend(&pend_data,                                     /* Block task pending on Mutex         
 687              		.loc 1 459 0
 688 01b2 07F11000 		add	r0, r7, #16
 689 01b6 BB68     		ldr	r3, [r7, #8]
 690 01b8 0422     		movs	r2, #4
 691 01ba F968     		ldr	r1, [r7, #12]
 692 01bc FFF7FEFF 		bl	OS_Pend
 460:..\..\..\..\..\..\uCOS-III\Source/os_mutex.c ****             (OS_PEND_OBJ *)((void *)p_mutex),
 461:..\..\..\..\..\..\uCOS-III\Source/os_mutex.c ****              OS_TASK_PEND_ON_MUTEX,
 462:..\..\..\..\..\..\uCOS-III\Source/os_mutex.c ****              timeout);
 463:..\..\..\..\..\..\uCOS-III\Source/os_mutex.c **** 
 464:..\..\..\..\..\..\uCOS-III\Source/os_mutex.c ****     OS_CRITICAL_EXIT_NO_SCHED();
 693              		.loc 1 464 0
 694 01c0 786B     		ldr	r0, [r7, #52]
 695 01c2 FFF7FEFF 		bl	CPU_SR_Restore
 465:..\..\..\..\..\..\uCOS-III\Source/os_mutex.c **** 
 466:..\..\..\..\..\..\uCOS-III\Source/os_mutex.c ****     OSSched();                                              /* Find the next highest priority task 
 696              		.loc 1 466 0
 697 01c6 FFF7FEFF 		bl	OSSched
 467:..\..\..\..\..\..\uCOS-III\Source/os_mutex.c **** 
 468:..\..\..\..\..\..\uCOS-III\Source/os_mutex.c ****     CPU_CRITICAL_ENTER();
 698              		.loc 1 468 0
 699 01ca FFF7FEFF 		bl	CPU_SR_Save
 700 01ce 7863     		str	r0, [r7, #52]
 469:..\..\..\..\..\..\uCOS-III\Source/os_mutex.c ****     switch (OSTCBCurPtr->PendStatus) {
 701              		.loc 1 469 0
 702 01d0 274B     		ldr	r3, .L66+4
 703 01d2 1B68     		ldr	r3, [r3]
 704 01d4 93F83530 		ldrb	r3, [r3, #53]	@ zero_extendqisi2
 705 01d8 032B     		cmp	r3, #3
 706 01da 3CD8     		bhi	.L53
 707 01dc 01A2     		adr	r2, .L55
 708 01de 52F823F0 		ldr	pc, [r2, r3, lsl #2]
 709 01e2 00BF     		.p2align 2
 710              	.L55:
 711 01e4 F5010000 		.word	.L54+1
 712 01e8 0D020000 		.word	.L56+1
 713 01ec 3D020000 		.word	.L57+1
 714 01f0 27020000 		.word	.L58+1
 715              		.p2align 1
 716              	.L54:
 470:..\..\..\..\..\..\uCOS-III\Source/os_mutex.c ****         case OS_STATUS_PEND_OK:                             /* We got the mutex                    
 471:..\..\..\..\..\..\uCOS-III\Source/os_mutex.c ****              if (p_ts != (CPU_TS *)0) {
 717              		.loc 1 471 0
 718 01f4 3B68     		ldr	r3, [r7]
 719 01f6 002B     		cmp	r3, #0
ARM GAS  C:\Users\Aluno\AppData\Local\Temp\cccS7k0x.s 			page 22


 720 01f8 04D0     		beq	.L59
 472:..\..\..\..\..\..\uCOS-III\Source/os_mutex.c ****                 *p_ts  = OSTCBCurPtr->TS;
 721              		.loc 1 472 0
 722 01fa 1D4B     		ldr	r3, .L66+4
 723 01fc 1B68     		ldr	r3, [r3]
 724 01fe 1A6C     		ldr	r2, [r3, #64]
 725 0200 3B68     		ldr	r3, [r7]
 726 0202 1A60     		str	r2, [r3]
 727              	.L59:
 473:..\..\..\..\..\..\uCOS-III\Source/os_mutex.c ****              }
 474:..\..\..\..\..\..\uCOS-III\Source/os_mutex.c ****             *p_err = OS_ERR_NONE;
 728              		.loc 1 474 0
 729 0204 3B6C     		ldr	r3, [r7, #64]
 730 0206 0022     		movs	r2, #0
 731 0208 1A80     		strh	r2, [r3]	@ movhi
 475:..\..\..\..\..\..\uCOS-III\Source/os_mutex.c ****              break;
 732              		.loc 1 475 0
 733 020a 29E0     		b	.L60
 734              	.L56:
 476:..\..\..\..\..\..\uCOS-III\Source/os_mutex.c **** 
 477:..\..\..\..\..\..\uCOS-III\Source/os_mutex.c ****         case OS_STATUS_PEND_ABORT:                          /* Indicate that we aborted            
 478:..\..\..\..\..\..\uCOS-III\Source/os_mutex.c ****              if (p_ts != (CPU_TS *)0) {
 735              		.loc 1 478 0
 736 020c 3B68     		ldr	r3, [r7]
 737 020e 002B     		cmp	r3, #0
 738 0210 04D0     		beq	.L61
 479:..\..\..\..\..\..\uCOS-III\Source/os_mutex.c ****                 *p_ts  = OSTCBCurPtr->TS;
 739              		.loc 1 479 0
 740 0212 174B     		ldr	r3, .L66+4
 741 0214 1B68     		ldr	r3, [r3]
 742 0216 1A6C     		ldr	r2, [r3, #64]
 743 0218 3B68     		ldr	r3, [r7]
 744 021a 1A60     		str	r2, [r3]
 745              	.L61:
 480:..\..\..\..\..\..\uCOS-III\Source/os_mutex.c ****              }
 481:..\..\..\..\..\..\uCOS-III\Source/os_mutex.c ****             *p_err = OS_ERR_PEND_ABORT;
 746              		.loc 1 481 0
 747 021c 3B6C     		ldr	r3, [r7, #64]
 748 021e 46F2A912 		movw	r2, #25001
 749 0222 1A80     		strh	r2, [r3]	@ movhi
 482:..\..\..\..\..\..\uCOS-III\Source/os_mutex.c ****              break;
 750              		.loc 1 482 0
 751 0224 1CE0     		b	.L60
 752              	.L58:
 483:..\..\..\..\..\..\uCOS-III\Source/os_mutex.c **** 
 484:..\..\..\..\..\..\uCOS-III\Source/os_mutex.c ****         case OS_STATUS_PEND_TIMEOUT:                        /* Indicate that we didn't get mutex wi
 485:..\..\..\..\..\..\uCOS-III\Source/os_mutex.c ****              if (p_ts != (CPU_TS *)0) {
 753              		.loc 1 485 0
 754 0226 3B68     		ldr	r3, [r7]
 755 0228 002B     		cmp	r3, #0
 756 022a 02D0     		beq	.L62
 486:..\..\..\..\..\..\uCOS-III\Source/os_mutex.c ****                 *p_ts  = (CPU_TS  )0;
 757              		.loc 1 486 0
 758 022c 3B68     		ldr	r3, [r7]
 759 022e 0022     		movs	r2, #0
 760 0230 1A60     		str	r2, [r3]
 761              	.L62:
ARM GAS  C:\Users\Aluno\AppData\Local\Temp\cccS7k0x.s 			page 23


 487:..\..\..\..\..\..\uCOS-III\Source/os_mutex.c ****              }
 488:..\..\..\..\..\..\uCOS-III\Source/os_mutex.c ****             *p_err = OS_ERR_TIMEOUT;
 762              		.loc 1 488 0
 763 0232 3B6C     		ldr	r3, [r7, #64]
 764 0234 47F2D922 		movw	r2, #29401
 765 0238 1A80     		strh	r2, [r3]	@ movhi
 489:..\..\..\..\..\..\uCOS-III\Source/os_mutex.c ****              break;
 766              		.loc 1 489 0
 767 023a 11E0     		b	.L60
 768              	.L57:
 490:..\..\..\..\..\..\uCOS-III\Source/os_mutex.c **** 
 491:..\..\..\..\..\..\uCOS-III\Source/os_mutex.c ****         case OS_STATUS_PEND_DEL:                            /* Indicate that object pended on has b
 492:..\..\..\..\..\..\uCOS-III\Source/os_mutex.c ****              if (p_ts != (CPU_TS *)0) {
 769              		.loc 1 492 0
 770 023c 3B68     		ldr	r3, [r7]
 771 023e 002B     		cmp	r3, #0
 772 0240 04D0     		beq	.L63
 493:..\..\..\..\..\..\uCOS-III\Source/os_mutex.c ****                 *p_ts  = OSTCBCurPtr->TS;
 773              		.loc 1 493 0
 774 0242 0B4B     		ldr	r3, .L66+4
 775 0244 1B68     		ldr	r3, [r3]
 776 0246 1A6C     		ldr	r2, [r3, #64]
 777 0248 3B68     		ldr	r3, [r7]
 778 024a 1A60     		str	r2, [r3]
 779              	.L63:
 494:..\..\..\..\..\..\uCOS-III\Source/os_mutex.c ****              }
 495:..\..\..\..\..\..\uCOS-III\Source/os_mutex.c ****             *p_err = OS_ERR_OBJ_DEL;
 780              		.loc 1 495 0
 781 024c 3B6C     		ldr	r3, [r7, #64]
 782 024e 45F6C252 		movw	r2, #24002
 783 0252 1A80     		strh	r2, [r3]	@ movhi
 496:..\..\..\..\..\..\uCOS-III\Source/os_mutex.c ****              break;
 784              		.loc 1 496 0
 785 0254 04E0     		b	.L60
 786              	.L53:
 497:..\..\..\..\..\..\uCOS-III\Source/os_mutex.c **** 
 498:..\..\..\..\..\..\uCOS-III\Source/os_mutex.c ****         default:
 499:..\..\..\..\..\..\uCOS-III\Source/os_mutex.c ****             *p_err = OS_ERR_STATUS_INVALID;
 787              		.loc 1 499 0
 788 0256 3B6C     		ldr	r3, [r7, #64]
 789 0258 46F62E62 		movw	r2, #28206
 790 025c 1A80     		strh	r2, [r3]	@ movhi
 500:..\..\..\..\..\..\uCOS-III\Source/os_mutex.c ****              break;
 791              		.loc 1 500 0
 792 025e 00BF     		nop
 793              	.L60:
 501:..\..\..\..\..\..\uCOS-III\Source/os_mutex.c ****     }
 502:..\..\..\..\..\..\uCOS-III\Source/os_mutex.c ****     CPU_CRITICAL_EXIT();
 794              		.loc 1 502 0
 795 0260 786B     		ldr	r0, [r7, #52]
 796 0262 FFF7FEFF 		bl	CPU_SR_Restore
 797              	.L33:
 503:..\..\..\..\..\..\uCOS-III\Source/os_mutex.c **** }
 798              		.loc 1 503 0
 799 0266 3837     		adds	r7, r7, #56
 800              		.cfi_def_cfa_offset 8
 801 0268 BD46     		mov	sp, r7
ARM GAS  C:\Users\Aluno\AppData\Local\Temp\cccS7k0x.s 			page 24


 802              		.cfi_def_cfa_register 13
 803              		@ sp needed
 804 026a 80BD     		pop	{r7, pc}
 805              	.L67:
 806              		.align	2
 807              	.L66:
 808 026c 00000000 		.word	OSIntNestingCtr
 809 0270 00000000 		.word	OSTCBCurPtr
 810 0274 00000000 		.word	OSSchedLockNestingCtr
 811              		.cfi_endproc
 812              	.LFE2:
 813              		.size	OSMutexPend, .-OSMutexPend
 814              		.section	.text.OSMutexPendAbort,"ax",%progbits
 815              		.align	2
 816              		.global	OSMutexPendAbort
 817              		.thumb
 818              		.thumb_func
 819              		.type	OSMutexPendAbort, %function
 820              	OSMutexPendAbort:
 821              	.LFB3:
 504:..\..\..\..\..\..\uCOS-III\Source/os_mutex.c **** 
 505:..\..\..\..\..\..\uCOS-III\Source/os_mutex.c **** /*$PAGE*/
 506:..\..\..\..\..\..\uCOS-III\Source/os_mutex.c **** /*
 507:..\..\..\..\..\..\uCOS-III\Source/os_mutex.c **** ***************************************************************************************************
 508:..\..\..\..\..\..\uCOS-III\Source/os_mutex.c **** *                                               ABORT WAITING ON A MUTEX
 509:..\..\..\..\..\..\uCOS-III\Source/os_mutex.c **** *
 510:..\..\..\..\..\..\uCOS-III\Source/os_mutex.c **** * Description: This function aborts & readies any tasks currently waiting on a mutex.  This functio
 511:..\..\..\..\..\..\uCOS-III\Source/os_mutex.c **** *              to fault-abort the wait on the mutex, rather than to normally signal the mutex via O
 512:..\..\..\..\..\..\uCOS-III\Source/os_mutex.c **** *
 513:..\..\..\..\..\..\uCOS-III\Source/os_mutex.c **** * Arguments  : p_mutex   is a pointer to the mutex
 514:..\..\..\..\..\..\uCOS-III\Source/os_mutex.c **** *
 515:..\..\..\..\..\..\uCOS-III\Source/os_mutex.c **** *              opt       determines the type of ABORT performed:
 516:..\..\..\..\..\..\uCOS-III\Source/os_mutex.c **** *
 517:..\..\..\..\..\..\uCOS-III\Source/os_mutex.c **** *                            OS_OPT_PEND_ABORT_1          ABORT wait for a single task (HPT) waitin
 518:..\..\..\..\..\..\uCOS-III\Source/os_mutex.c **** *                            OS_OPT_PEND_ABORT_ALL        ABORT wait for ALL tasks that are  waitin
 519:..\..\..\..\..\..\uCOS-III\Source/os_mutex.c **** *                            OS_OPT_POST_NO_SCHED         Do not call the scheduler
 520:..\..\..\..\..\..\uCOS-III\Source/os_mutex.c **** *
 521:..\..\..\..\..\..\uCOS-III\Source/os_mutex.c **** *              p_err     is a pointer to a variable that will contain an error code returned by thi
 522:..\..\..\..\..\..\uCOS-III\Source/os_mutex.c **** *
 523:..\..\..\..\..\..\uCOS-III\Source/os_mutex.c **** *                            OS_ERR_NONE                  At least one task waiting on the mutex wa
 524:..\..\..\..\..\..\uCOS-III\Source/os_mutex.c **** *                                                         informed of the aborted wait; check retur
 525:..\..\..\..\..\..\uCOS-III\Source/os_mutex.c **** *                                                         number of tasks whose wait on the mutex w
 526:..\..\..\..\..\..\uCOS-III\Source/os_mutex.c **** *                            OS_ERR_OBJ_PTR_NULL          If 'p_mutex' is a NULL pointer.
 527:..\..\..\..\..\..\uCOS-III\Source/os_mutex.c **** *                            OS_ERR_OBJ_TYPE              If 'p_mutex' is not pointing at a mutex
 528:..\..\..\..\..\..\uCOS-III\Source/os_mutex.c **** *                            OS_ERR_OPT_INVALID           If you specified an invalid option
 529:..\..\..\..\..\..\uCOS-III\Source/os_mutex.c **** *                            OS_ERR_PEND_ABORT_ISR        If you attempted to call this function fr
 530:..\..\..\..\..\..\uCOS-III\Source/os_mutex.c **** *                            OS_ERR_PEND_ABORT_NONE       No task were pending
 531:..\..\..\..\..\..\uCOS-III\Source/os_mutex.c **** *
 532:..\..\..\..\..\..\uCOS-III\Source/os_mutex.c **** * Returns    : == 0          if no tasks were waiting on the mutex, or upon error.
 533:..\..\..\..\..\..\uCOS-III\Source/os_mutex.c **** *              >  0          if one or more tasks waiting on the mutex are now readied and informed
 534:..\..\..\..\..\..\uCOS-III\Source/os_mutex.c **** ***************************************************************************************************
 535:..\..\..\..\..\..\uCOS-III\Source/os_mutex.c **** */
 536:..\..\..\..\..\..\uCOS-III\Source/os_mutex.c **** 
 537:..\..\..\..\..\..\uCOS-III\Source/os_mutex.c **** #if OS_CFG_MUTEX_PEND_ABORT_EN > 0u
 538:..\..\..\..\..\..\uCOS-III\Source/os_mutex.c **** OS_OBJ_QTY  OSMutexPendAbort (OS_MUTEX  *p_mutex,
 539:..\..\..\..\..\..\uCOS-III\Source/os_mutex.c ****                               OS_OPT     opt,
 540:..\..\..\..\..\..\uCOS-III\Source/os_mutex.c ****                               OS_ERR    *p_err)
ARM GAS  C:\Users\Aluno\AppData\Local\Temp\cccS7k0x.s 			page 25


 541:..\..\..\..\..\..\uCOS-III\Source/os_mutex.c **** {
 822              		.loc 1 541 0
 823              		.cfi_startproc
 824              		@ args = 0, pretend = 0, frame = 40
 825              		@ frame_needed = 1, uses_anonymous_args = 0
 826 0000 80B5     		push	{r7, lr}
 827              		.cfi_def_cfa_offset 8
 828              		.cfi_offset 7, -8
 829              		.cfi_offset 14, -4
 830 0002 8AB0     		sub	sp, sp, #40
 831              		.cfi_def_cfa_offset 48
 832 0004 00AF     		add	r7, sp, #0
 833              		.cfi_def_cfa_register 7
 834 0006 F860     		str	r0, [r7, #12]
 835 0008 0B46     		mov	r3, r1
 836 000a 7A60     		str	r2, [r7, #4]
 837 000c 7B81     		strh	r3, [r7, #10]	@ movhi
 542:..\..\..\..\..\..\uCOS-III\Source/os_mutex.c ****     OS_PEND_LIST  *p_pend_list;
 543:..\..\..\..\..\..\uCOS-III\Source/os_mutex.c ****     OS_TCB        *p_tcb;
 544:..\..\..\..\..\..\uCOS-III\Source/os_mutex.c ****     CPU_TS         ts;
 545:..\..\..\..\..\..\uCOS-III\Source/os_mutex.c ****     OS_OBJ_QTY     nbr_tasks;
 546:..\..\..\..\..\..\uCOS-III\Source/os_mutex.c ****     CPU_SR_ALLOC();
 838              		.loc 1 546 0
 839 000e 0023     		movs	r3, #0
 840 0010 3B62     		str	r3, [r7, #32]
 547:..\..\..\..\..\..\uCOS-III\Source/os_mutex.c **** 
 548:..\..\..\..\..\..\uCOS-III\Source/os_mutex.c **** 
 549:..\..\..\..\..\..\uCOS-III\Source/os_mutex.c **** 
 550:..\..\..\..\..\..\uCOS-III\Source/os_mutex.c **** #ifdef OS_SAFETY_CRITICAL
 551:..\..\..\..\..\..\uCOS-III\Source/os_mutex.c ****     if (p_err == (OS_ERR *)0) {
 552:..\..\..\..\..\..\uCOS-III\Source/os_mutex.c ****         OS_SAFETY_CRITICAL_EXCEPTION();
 553:..\..\..\..\..\..\uCOS-III\Source/os_mutex.c ****         return ((OS_OBJ_QTY)0u);
 554:..\..\..\..\..\..\uCOS-III\Source/os_mutex.c ****     }
 555:..\..\..\..\..\..\uCOS-III\Source/os_mutex.c **** #endif
 556:..\..\..\..\..\..\uCOS-III\Source/os_mutex.c **** 
 557:..\..\..\..\..\..\uCOS-III\Source/os_mutex.c **** #if OS_CFG_CALLED_FROM_ISR_CHK_EN > 0u
 558:..\..\..\..\..\..\uCOS-III\Source/os_mutex.c ****     if (OSIntNestingCtr > (OS_NESTING_CTR)0u) {             /* Not allowed to Pend Abort from an IS
 841              		.loc 1 558 0
 842 0012 354B     		ldr	r3, .L83
 843 0014 1B78     		ldrb	r3, [r3]	@ zero_extendqisi2
 844 0016 002B     		cmp	r3, #0
 845 0018 05D0     		beq	.L69
 559:..\..\..\..\..\..\uCOS-III\Source/os_mutex.c ****        *p_err =  OS_ERR_PEND_ABORT_ISR;
 846              		.loc 1 559 0
 847 001a 7B68     		ldr	r3, [r7, #4]
 848 001c 46F2AA12 		movw	r2, #25002
 849 0020 1A80     		strh	r2, [r3]	@ movhi
 560:..\..\..\..\..\..\uCOS-III\Source/os_mutex.c ****         return ((OS_OBJ_QTY)0u);
 850              		.loc 1 560 0
 851 0022 0023     		movs	r3, #0
 852 0024 5BE0     		b	.L70
 853              	.L69:
 561:..\..\..\..\..\..\uCOS-III\Source/os_mutex.c ****     }
 562:..\..\..\..\..\..\uCOS-III\Source/os_mutex.c **** #endif
 563:..\..\..\..\..\..\uCOS-III\Source/os_mutex.c **** 
 564:..\..\..\..\..\..\uCOS-III\Source/os_mutex.c **** #if OS_CFG_ARG_CHK_EN > 0u
 565:..\..\..\..\..\..\uCOS-III\Source/os_mutex.c ****     if (p_mutex == (OS_MUTEX *)0) {                         /* Validate 'p_mutex'                  
ARM GAS  C:\Users\Aluno\AppData\Local\Temp\cccS7k0x.s 			page 26


 854              		.loc 1 565 0
 855 0026 FB68     		ldr	r3, [r7, #12]
 856 0028 002B     		cmp	r3, #0
 857 002a 05D1     		bne	.L71
 566:..\..\..\..\..\..\uCOS-III\Source/os_mutex.c ****        *p_err =  OS_ERR_OBJ_PTR_NULL;
 858              		.loc 1 566 0
 859 002c 7B68     		ldr	r3, [r7, #4]
 860 002e 45F6C352 		movw	r2, #24003
 861 0032 1A80     		strh	r2, [r3]	@ movhi
 567:..\..\..\..\..\..\uCOS-III\Source/os_mutex.c ****         return ((OS_OBJ_QTY)0u);
 862              		.loc 1 567 0
 863 0034 0023     		movs	r3, #0
 864 0036 52E0     		b	.L70
 865              	.L71:
 568:..\..\..\..\..\..\uCOS-III\Source/os_mutex.c ****     }
 569:..\..\..\..\..\..\uCOS-III\Source/os_mutex.c ****     switch (opt) {                                          /* Validate 'opt'                      
 866              		.loc 1 569 0
 867 0038 7B89     		ldrh	r3, [r7, #10]
 868 003a B3F5807F 		cmp	r3, #256
 869 003e 11D0     		beq	.L81
 870 0040 B3F5807F 		cmp	r3, #256
 871 0044 02DC     		bgt	.L74
 872 0046 002B     		cmp	r3, #0
 873 0048 0CD0     		beq	.L81
 874 004a 05E0     		b	.L72
 875              	.L74:
 876 004c B3F5004F 		cmp	r3, #32768
 877 0050 08D0     		beq	.L81
 878 0052 B3F5014F 		cmp	r3, #33024
 879 0056 05D0     		beq	.L81
 880              	.L72:
 570:..\..\..\..\..\..\uCOS-III\Source/os_mutex.c ****         case OS_OPT_PEND_ABORT_1:
 571:..\..\..\..\..\..\uCOS-III\Source/os_mutex.c ****         case OS_OPT_PEND_ABORT_ALL:
 572:..\..\..\..\..\..\uCOS-III\Source/os_mutex.c ****         case OS_OPT_PEND_ABORT_1   | OS_OPT_POST_NO_SCHED:
 573:..\..\..\..\..\..\uCOS-III\Source/os_mutex.c ****         case OS_OPT_PEND_ABORT_ALL | OS_OPT_POST_NO_SCHED:
 574:..\..\..\..\..\..\uCOS-III\Source/os_mutex.c ****              break;
 575:..\..\..\..\..\..\uCOS-III\Source/os_mutex.c **** 
 576:..\..\..\..\..\..\uCOS-III\Source/os_mutex.c ****         default:
 577:..\..\..\..\..\..\uCOS-III\Source/os_mutex.c ****             *p_err =  OS_ERR_OPT_INVALID;
 881              		.loc 1 577 0
 882 0058 7B68     		ldr	r3, [r7, #4]
 883 005a 45F62562 		movw	r2, #24101
 884 005e 1A80     		strh	r2, [r3]	@ movhi
 578:..\..\..\..\..\..\uCOS-III\Source/os_mutex.c ****              return ((OS_OBJ_QTY)0u);
 885              		.loc 1 578 0
 886 0060 0023     		movs	r3, #0
 887 0062 3CE0     		b	.L70
 888              	.L81:
 574:..\..\..\..\..\..\uCOS-III\Source/os_mutex.c **** 
 889              		.loc 1 574 0
 890 0064 00BF     		nop
 579:..\..\..\..\..\..\uCOS-III\Source/os_mutex.c ****     }
 580:..\..\..\..\..\..\uCOS-III\Source/os_mutex.c **** #endif
 581:..\..\..\..\..\..\uCOS-III\Source/os_mutex.c **** 
 582:..\..\..\..\..\..\uCOS-III\Source/os_mutex.c **** #if OS_CFG_OBJ_TYPE_CHK_EN > 0u
 583:..\..\..\..\..\..\uCOS-III\Source/os_mutex.c ****     if (p_mutex->Type != OS_OBJ_TYPE_MUTEX) {               /* Make sure mutex was created         
 584:..\..\..\..\..\..\uCOS-III\Source/os_mutex.c ****        *p_err =  OS_ERR_OBJ_TYPE;
ARM GAS  C:\Users\Aluno\AppData\Local\Temp\cccS7k0x.s 			page 27


 585:..\..\..\..\..\..\uCOS-III\Source/os_mutex.c ****         return ((OS_OBJ_QTY)0u);
 586:..\..\..\..\..\..\uCOS-III\Source/os_mutex.c ****     }
 587:..\..\..\..\..\..\uCOS-III\Source/os_mutex.c **** #endif
 588:..\..\..\..\..\..\uCOS-III\Source/os_mutex.c **** 
 589:..\..\..\..\..\..\uCOS-III\Source/os_mutex.c ****     CPU_CRITICAL_ENTER();
 891              		.loc 1 589 0
 892 0066 FFF7FEFF 		bl	CPU_SR_Save
 893 006a 3862     		str	r0, [r7, #32]
 590:..\..\..\..\..\..\uCOS-III\Source/os_mutex.c ****     p_pend_list = &p_mutex->PendList;
 894              		.loc 1 590 0
 895 006c FB68     		ldr	r3, [r7, #12]
 896 006e 0833     		adds	r3, r3, #8
 897 0070 FB61     		str	r3, [r7, #28]
 591:..\..\..\..\..\..\uCOS-III\Source/os_mutex.c ****     if (p_pend_list->NbrEntries == (OS_OBJ_QTY)0u) {        /* Any task waiting on mutex?          
 898              		.loc 1 591 0
 899 0072 FB69     		ldr	r3, [r7, #28]
 900 0074 1B89     		ldrh	r3, [r3, #8]
 901 0076 002B     		cmp	r3, #0
 902 0078 08D1     		bne	.L76
 592:..\..\..\..\..\..\uCOS-III\Source/os_mutex.c ****         CPU_CRITICAL_EXIT();                                /* No                                  
 903              		.loc 1 592 0
 904 007a 386A     		ldr	r0, [r7, #32]
 905 007c FFF7FEFF 		bl	CPU_SR_Restore
 593:..\..\..\..\..\..\uCOS-III\Source/os_mutex.c ****        *p_err =  OS_ERR_PEND_ABORT_NONE;
 906              		.loc 1 593 0
 907 0080 7B68     		ldr	r3, [r7, #4]
 908 0082 46F2AB12 		movw	r2, #25003
 909 0086 1A80     		strh	r2, [r3]	@ movhi
 594:..\..\..\..\..\..\uCOS-III\Source/os_mutex.c ****         return ((OS_OBJ_QTY)0u);
 910              		.loc 1 594 0
 911 0088 0023     		movs	r3, #0
 912 008a 28E0     		b	.L70
 913              	.L76:
 595:..\..\..\..\..\..\uCOS-III\Source/os_mutex.c ****     }
 596:..\..\..\..\..\..\uCOS-III\Source/os_mutex.c **** 
 597:..\..\..\..\..\..\uCOS-III\Source/os_mutex.c ****     OS_CRITICAL_ENTER_CPU_EXIT();
 598:..\..\..\..\..\..\uCOS-III\Source/os_mutex.c ****     nbr_tasks = 0u;
 914              		.loc 1 598 0
 915 008c 0023     		movs	r3, #0
 916 008e FB84     		strh	r3, [r7, #38]	@ movhi
 599:..\..\..\..\..\..\uCOS-III\Source/os_mutex.c ****     ts        = OS_TS_GET();                                /* Get local time stamp so all tasks ge
 917              		.loc 1 599 0
 918 0090 FFF7FEFF 		bl	CPU_TS_TmrRd
 919 0094 B861     		str	r0, [r7, #24]
 600:..\..\..\..\..\..\uCOS-III\Source/os_mutex.c ****     while (p_pend_list->NbrEntries > (OS_OBJ_QTY)0u) {
 920              		.loc 1 600 0
 921 0096 0FE0     		b	.L77
 922              	.L79:
 601:..\..\..\..\..\..\uCOS-III\Source/os_mutex.c ****         p_tcb = p_pend_list->HeadPtr->TCBPtr;
 923              		.loc 1 601 0
 924 0098 FB69     		ldr	r3, [r7, #28]
 925 009a 1B68     		ldr	r3, [r3]
 926 009c 9B68     		ldr	r3, [r3, #8]
 927 009e 7B61     		str	r3, [r7, #20]
 602:..\..\..\..\..\..\uCOS-III\Source/os_mutex.c ****         OS_PendAbort((OS_PEND_OBJ *)((void *)p_mutex),
 928              		.loc 1 602 0
 929 00a0 BA69     		ldr	r2, [r7, #24]
ARM GAS  C:\Users\Aluno\AppData\Local\Temp\cccS7k0x.s 			page 28


 930 00a2 7969     		ldr	r1, [r7, #20]
 931 00a4 F868     		ldr	r0, [r7, #12]
 932 00a6 FFF7FEFF 		bl	OS_PendAbort
 603:..\..\..\..\..\..\uCOS-III\Source/os_mutex.c ****                      p_tcb,
 604:..\..\..\..\..\..\uCOS-III\Source/os_mutex.c ****                      ts);
 605:..\..\..\..\..\..\uCOS-III\Source/os_mutex.c ****         nbr_tasks++;
 933              		.loc 1 605 0
 934 00aa FB8C     		ldrh	r3, [r7, #38]
 935 00ac 0133     		adds	r3, r3, #1
 936 00ae FB84     		strh	r3, [r7, #38]	@ movhi
 606:..\..\..\..\..\..\uCOS-III\Source/os_mutex.c ****         if (opt != OS_OPT_PEND_ABORT_ALL) {                 /* Pend abort all tasks waiting?       
 937              		.loc 1 606 0
 938 00b0 7B89     		ldrh	r3, [r7, #10]
 939 00b2 B3F5807F 		cmp	r3, #256
 940 00b6 04D1     		bne	.L82
 941              	.L77:
 600:..\..\..\..\..\..\uCOS-III\Source/os_mutex.c ****         p_tcb = p_pend_list->HeadPtr->TCBPtr;
 942              		.loc 1 600 0
 943 00b8 FB69     		ldr	r3, [r7, #28]
 944 00ba 1B89     		ldrh	r3, [r3, #8]
 945 00bc 002B     		cmp	r3, #0
 946 00be EBD1     		bne	.L79
 947 00c0 00E0     		b	.L78
 948              	.L82:
 607:..\..\..\..\..\..\uCOS-III\Source/os_mutex.c ****             break;                                          /* No                                  
 949              		.loc 1 607 0
 950 00c2 00BF     		nop
 951              	.L78:
 608:..\..\..\..\..\..\uCOS-III\Source/os_mutex.c ****         }
 609:..\..\..\..\..\..\uCOS-III\Source/os_mutex.c ****     }
 610:..\..\..\..\..\..\uCOS-III\Source/os_mutex.c ****     OS_CRITICAL_EXIT_NO_SCHED();
 952              		.loc 1 610 0
 953 00c4 386A     		ldr	r0, [r7, #32]
 954 00c6 FFF7FEFF 		bl	CPU_SR_Restore
 611:..\..\..\..\..\..\uCOS-III\Source/os_mutex.c **** 
 612:..\..\..\..\..\..\uCOS-III\Source/os_mutex.c ****     if ((opt & OS_OPT_POST_NO_SCHED) == (OS_OPT)0u) {
 955              		.loc 1 612 0
 956 00ca B7F90A30 		ldrsh	r3, [r7, #10]
 957 00ce 002B     		cmp	r3, #0
 958 00d0 01DB     		blt	.L80
 613:..\..\..\..\..\..\uCOS-III\Source/os_mutex.c ****         OSSched();                                          /* Run the scheduler                   
 959              		.loc 1 613 0
 960 00d2 FFF7FEFF 		bl	OSSched
 961              	.L80:
 614:..\..\..\..\..\..\uCOS-III\Source/os_mutex.c ****     }
 615:..\..\..\..\..\..\uCOS-III\Source/os_mutex.c **** 
 616:..\..\..\..\..\..\uCOS-III\Source/os_mutex.c ****    *p_err = OS_ERR_NONE;
 962              		.loc 1 616 0
 963 00d6 7B68     		ldr	r3, [r7, #4]
 964 00d8 0022     		movs	r2, #0
 965 00da 1A80     		strh	r2, [r3]	@ movhi
 617:..\..\..\..\..\..\uCOS-III\Source/os_mutex.c ****     return (nbr_tasks);
 966              		.loc 1 617 0
 967 00dc FB8C     		ldrh	r3, [r7, #38]
 968              	.L70:
 618:..\..\..\..\..\..\uCOS-III\Source/os_mutex.c **** }
 969              		.loc 1 618 0
ARM GAS  C:\Users\Aluno\AppData\Local\Temp\cccS7k0x.s 			page 29


 970 00de 1846     		mov	r0, r3
 971 00e0 2837     		adds	r7, r7, #40
 972              		.cfi_def_cfa_offset 8
 973 00e2 BD46     		mov	sp, r7
 974              		.cfi_def_cfa_register 13
 975              		@ sp needed
 976 00e4 80BD     		pop	{r7, pc}
 977              	.L84:
 978 00e6 00BF     		.align	2
 979              	.L83:
 980 00e8 00000000 		.word	OSIntNestingCtr
 981              		.cfi_endproc
 982              	.LFE3:
 983              		.size	OSMutexPendAbort, .-OSMutexPendAbort
 984              		.section	.text.OSMutexPost,"ax",%progbits
 985              		.align	2
 986              		.global	OSMutexPost
 987              		.thumb
 988              		.thumb_func
 989              		.type	OSMutexPost, %function
 990              	OSMutexPost:
 991              	.LFB4:
 619:..\..\..\..\..\..\uCOS-III\Source/os_mutex.c **** #endif
 620:..\..\..\..\..\..\uCOS-III\Source/os_mutex.c **** 
 621:..\..\..\..\..\..\uCOS-III\Source/os_mutex.c **** /*$PAGE*/
 622:..\..\..\..\..\..\uCOS-III\Source/os_mutex.c **** /*
 623:..\..\..\..\..\..\uCOS-III\Source/os_mutex.c **** ***************************************************************************************************
 624:..\..\..\..\..\..\uCOS-III\Source/os_mutex.c **** *                                                   POST TO A MUTEX
 625:..\..\..\..\..\..\uCOS-III\Source/os_mutex.c **** *
 626:..\..\..\..\..\..\uCOS-III\Source/os_mutex.c **** * Description: This function signals a mutex
 627:..\..\..\..\..\..\uCOS-III\Source/os_mutex.c **** *
 628:..\..\..\..\..\..\uCOS-III\Source/os_mutex.c **** * Arguments  : p_mutex  is a pointer to the mutex
 629:..\..\..\..\..\..\uCOS-III\Source/os_mutex.c **** *
 630:..\..\..\..\..\..\uCOS-III\Source/os_mutex.c **** *              opt      is an option you can specify to alter the behavior of the post.  The choice
 631:..\..\..\..\..\..\uCOS-III\Source/os_mutex.c **** *
 632:..\..\..\..\..\..\uCOS-III\Source/os_mutex.c **** *                           OS_OPT_POST_NONE        No special option selected
 633:..\..\..\..\..\..\uCOS-III\Source/os_mutex.c **** *                           OS_OPT_POST_NO_SCHED    If you don't want the scheduler to be called af
 634:..\..\..\..\..\..\uCOS-III\Source/os_mutex.c **** *
 635:..\..\..\..\..\..\uCOS-III\Source/os_mutex.c **** *              p_err    is a pointer to a variable that will contain an error code returned by this
 636:..\..\..\..\..\..\uCOS-III\Source/os_mutex.c **** *
 637:..\..\..\..\..\..\uCOS-III\Source/os_mutex.c **** *                           OS_ERR_NONE             The call was successful and the mutex was signa
 638:..\..\..\..\..\..\uCOS-III\Source/os_mutex.c **** *                           OS_ERR_MUTEX_NESTING    Mutex owner nested its use of the mutex
 639:..\..\..\..\..\..\uCOS-III\Source/os_mutex.c **** *                           OS_ERR_MUTEX_NOT_OWNER  If the task posting is not the Mutex owner
 640:..\..\..\..\..\..\uCOS-III\Source/os_mutex.c **** *                           OS_ERR_OBJ_PTR_NULL     If 'p_mutex' is a NULL pointer.
 641:..\..\..\..\..\..\uCOS-III\Source/os_mutex.c **** *                           OS_ERR_OBJ_TYPE         If 'p_mutex' is not pointing at a mutex
 642:..\..\..\..\..\..\uCOS-III\Source/os_mutex.c **** *                           OS_ERR_POST_ISR         If you attempted to post from an ISR
 643:..\..\..\..\..\..\uCOS-III\Source/os_mutex.c **** *
 644:..\..\..\..\..\..\uCOS-III\Source/os_mutex.c **** * Returns    : none
 645:..\..\..\..\..\..\uCOS-III\Source/os_mutex.c **** ***************************************************************************************************
 646:..\..\..\..\..\..\uCOS-III\Source/os_mutex.c **** */
 647:..\..\..\..\..\..\uCOS-III\Source/os_mutex.c **** 
 648:..\..\..\..\..\..\uCOS-III\Source/os_mutex.c **** void  OSMutexPost (OS_MUTEX  *p_mutex,
 649:..\..\..\..\..\..\uCOS-III\Source/os_mutex.c ****                    OS_OPT     opt,
 650:..\..\..\..\..\..\uCOS-III\Source/os_mutex.c ****                    OS_ERR    *p_err)
 651:..\..\..\..\..\..\uCOS-III\Source/os_mutex.c **** {
 992              		.loc 1 651 0
 993              		.cfi_startproc
ARM GAS  C:\Users\Aluno\AppData\Local\Temp\cccS7k0x.s 			page 30


 994              		@ args = 0, pretend = 0, frame = 32
 995              		@ frame_needed = 1, uses_anonymous_args = 0
 996 0000 80B5     		push	{r7, lr}
 997              		.cfi_def_cfa_offset 8
 998              		.cfi_offset 7, -8
 999              		.cfi_offset 14, -4
 1000 0002 8AB0     		sub	sp, sp, #40
 1001              		.cfi_def_cfa_offset 48
 1002 0004 02AF     		add	r7, sp, #8
 1003              		.cfi_def_cfa 7, 40
 1004 0006 F860     		str	r0, [r7, #12]
 1005 0008 0B46     		mov	r3, r1
 1006 000a 7A60     		str	r2, [r7, #4]
 1007 000c 7B81     		strh	r3, [r7, #10]	@ movhi
 652:..\..\..\..\..\..\uCOS-III\Source/os_mutex.c ****     OS_PEND_LIST  *p_pend_list;
 653:..\..\..\..\..\..\uCOS-III\Source/os_mutex.c ****     OS_TCB        *p_tcb;
 654:..\..\..\..\..\..\uCOS-III\Source/os_mutex.c ****     CPU_TS         ts;
 655:..\..\..\..\..\..\uCOS-III\Source/os_mutex.c ****     CPU_SR_ALLOC();
 1008              		.loc 1 655 0
 1009 000e 0023     		movs	r3, #0
 1010 0010 FB61     		str	r3, [r7, #28]
 656:..\..\..\..\..\..\uCOS-III\Source/os_mutex.c **** 
 657:..\..\..\..\..\..\uCOS-III\Source/os_mutex.c **** 
 658:..\..\..\..\..\..\uCOS-III\Source/os_mutex.c **** 
 659:..\..\..\..\..\..\uCOS-III\Source/os_mutex.c **** #ifdef OS_SAFETY_CRITICAL
 660:..\..\..\..\..\..\uCOS-III\Source/os_mutex.c ****     if (p_err == (OS_ERR *)0) {
 661:..\..\..\..\..\..\uCOS-III\Source/os_mutex.c ****         OS_SAFETY_CRITICAL_EXCEPTION();
 662:..\..\..\..\..\..\uCOS-III\Source/os_mutex.c ****         return;
 663:..\..\..\..\..\..\uCOS-III\Source/os_mutex.c ****     }
 664:..\..\..\..\..\..\uCOS-III\Source/os_mutex.c **** #endif
 665:..\..\..\..\..\..\uCOS-III\Source/os_mutex.c **** 
 666:..\..\..\..\..\..\uCOS-III\Source/os_mutex.c **** #if OS_CFG_CALLED_FROM_ISR_CHK_EN > 0u
 667:..\..\..\..\..\..\uCOS-III\Source/os_mutex.c ****     if (OSIntNestingCtr > (OS_NESTING_CTR)0) {              /* Not allowed to call from an ISR     
 1011              		.loc 1 667 0
 1012 0012 564B     		ldr	r3, .L98
 1013 0014 1B78     		ldrb	r3, [r3]	@ zero_extendqisi2
 1014 0016 002B     		cmp	r3, #0
 1015 0018 04D0     		beq	.L86
 668:..\..\..\..\..\..\uCOS-III\Source/os_mutex.c ****        *p_err = OS_ERR_POST_ISR;
 1016              		.loc 1 668 0
 1017 001a 7B68     		ldr	r3, [r7, #4]
 1018 001c 46F20E22 		movw	r2, #25102
 1019 0020 1A80     		strh	r2, [r3]	@ movhi
 669:..\..\..\..\..\..\uCOS-III\Source/os_mutex.c ****         return;
 1020              		.loc 1 669 0
 1021 0022 A0E0     		b	.L85
 1022              	.L86:
 670:..\..\..\..\..\..\uCOS-III\Source/os_mutex.c ****     }
 671:..\..\..\..\..\..\uCOS-III\Source/os_mutex.c **** #endif
 672:..\..\..\..\..\..\uCOS-III\Source/os_mutex.c **** 
 673:..\..\..\..\..\..\uCOS-III\Source/os_mutex.c **** #if OS_CFG_ARG_CHK_EN > 0u
 674:..\..\..\..\..\..\uCOS-III\Source/os_mutex.c ****     if (p_mutex == (OS_MUTEX *)0) {                         /* Validate 'p_mutex'                  
 1023              		.loc 1 674 0
 1024 0024 FB68     		ldr	r3, [r7, #12]
 1025 0026 002B     		cmp	r3, #0
 1026 0028 04D1     		bne	.L88
 675:..\..\..\..\..\..\uCOS-III\Source/os_mutex.c ****        *p_err = OS_ERR_OBJ_PTR_NULL;
ARM GAS  C:\Users\Aluno\AppData\Local\Temp\cccS7k0x.s 			page 31


 1027              		.loc 1 675 0
 1028 002a 7B68     		ldr	r3, [r7, #4]
 1029 002c 45F6C352 		movw	r2, #24003
 1030 0030 1A80     		strh	r2, [r3]	@ movhi
 676:..\..\..\..\..\..\uCOS-III\Source/os_mutex.c ****         return;
 1031              		.loc 1 676 0
 1032 0032 98E0     		b	.L85
 1033              	.L88:
 677:..\..\..\..\..\..\uCOS-III\Source/os_mutex.c ****     }
 678:..\..\..\..\..\..\uCOS-III\Source/os_mutex.c ****     switch (opt) {                                          /* Validate 'opt'                      
 1034              		.loc 1 678 0
 1035 0034 7B89     		ldrh	r3, [r7, #10]
 1036 0036 002B     		cmp	r3, #0
 1037 0038 07D0     		beq	.L97
 1038 003a B3F5004F 		cmp	r3, #32768
 1039 003e 04D0     		beq	.L97
 679:..\..\..\..\..\..\uCOS-III\Source/os_mutex.c ****         case OS_OPT_POST_NONE:
 680:..\..\..\..\..\..\uCOS-III\Source/os_mutex.c ****         case OS_OPT_POST_NO_SCHED:
 681:..\..\..\..\..\..\uCOS-III\Source/os_mutex.c ****              break;
 682:..\..\..\..\..\..\uCOS-III\Source/os_mutex.c **** 
 683:..\..\..\..\..\..\uCOS-III\Source/os_mutex.c ****         default:
 684:..\..\..\..\..\..\uCOS-III\Source/os_mutex.c ****             *p_err =  OS_ERR_OPT_INVALID;
 1040              		.loc 1 684 0
 1041 0040 7B68     		ldr	r3, [r7, #4]
 1042 0042 45F62562 		movw	r2, #24101
 1043 0046 1A80     		strh	r2, [r3]	@ movhi
 685:..\..\..\..\..\..\uCOS-III\Source/os_mutex.c ****              return;
 1044              		.loc 1 685 0
 1045 0048 8DE0     		b	.L85
 1046              	.L97:
 681:..\..\..\..\..\..\uCOS-III\Source/os_mutex.c **** 
 1047              		.loc 1 681 0
 1048 004a 00BF     		nop
 686:..\..\..\..\..\..\uCOS-III\Source/os_mutex.c ****     }
 687:..\..\..\..\..\..\uCOS-III\Source/os_mutex.c **** #endif
 688:..\..\..\..\..\..\uCOS-III\Source/os_mutex.c **** 
 689:..\..\..\..\..\..\uCOS-III\Source/os_mutex.c **** #if OS_CFG_OBJ_TYPE_CHK_EN > 0u
 690:..\..\..\..\..\..\uCOS-III\Source/os_mutex.c ****     if (p_mutex->Type != OS_OBJ_TYPE_MUTEX) {               /* Make sure mutex was created         
 691:..\..\..\..\..\..\uCOS-III\Source/os_mutex.c ****        *p_err = OS_ERR_OBJ_TYPE;
 692:..\..\..\..\..\..\uCOS-III\Source/os_mutex.c ****         return;
 693:..\..\..\..\..\..\uCOS-III\Source/os_mutex.c ****     }
 694:..\..\..\..\..\..\uCOS-III\Source/os_mutex.c **** #endif
 695:..\..\..\..\..\..\uCOS-III\Source/os_mutex.c **** 
 696:..\..\..\..\..\..\uCOS-III\Source/os_mutex.c ****     CPU_CRITICAL_ENTER();
 1049              		.loc 1 696 0
 1050 004c FFF7FEFF 		bl	CPU_SR_Save
 1051 0050 F861     		str	r0, [r7, #28]
 697:..\..\..\..\..\..\uCOS-III\Source/os_mutex.c ****     if (OSTCBCurPtr != p_mutex->OwnerTCBPtr) {              /* Make sure the mutex owner is releasi
 1052              		.loc 1 697 0
 1053 0052 FB68     		ldr	r3, [r7, #12]
 1054 0054 1A6A     		ldr	r2, [r3, #32]
 1055 0056 464B     		ldr	r3, .L98+4
 1056 0058 1B68     		ldr	r3, [r3]
 1057 005a 9A42     		cmp	r2, r3
 1058 005c 07D0     		beq	.L92
 698:..\..\..\..\..\..\uCOS-III\Source/os_mutex.c ****         CPU_CRITICAL_EXIT();
 1059              		.loc 1 698 0
ARM GAS  C:\Users\Aluno\AppData\Local\Temp\cccS7k0x.s 			page 32


 1060 005e F869     		ldr	r0, [r7, #28]
 1061 0060 FFF7FEFF 		bl	CPU_SR_Restore
 699:..\..\..\..\..\..\uCOS-III\Source/os_mutex.c ****        *p_err = OS_ERR_MUTEX_NOT_OWNER;
 1062              		.loc 1 699 0
 1063 0064 7B68     		ldr	r3, [r7, #4]
 1064 0066 45F28172 		movw	r2, #22401
 1065 006a 1A80     		strh	r2, [r3]	@ movhi
 700:..\..\..\..\..\..\uCOS-III\Source/os_mutex.c ****         return;
 1066              		.loc 1 700 0
 1067 006c 7BE0     		b	.L85
 1068              	.L92:
 701:..\..\..\..\..\..\uCOS-III\Source/os_mutex.c ****     }
 702:..\..\..\..\..\..\uCOS-III\Source/os_mutex.c **** 
 703:..\..\..\..\..\..\uCOS-III\Source/os_mutex.c ****     OS_CRITICAL_ENTER_CPU_EXIT();
 704:..\..\..\..\..\..\uCOS-III\Source/os_mutex.c ****     ts          = OS_TS_GET();                              /* Get timestamp                       
 1069              		.loc 1 704 0
 1070 006e FFF7FEFF 		bl	CPU_TS_TmrRd
 1071 0072 B861     		str	r0, [r7, #24]
 705:..\..\..\..\..\..\uCOS-III\Source/os_mutex.c ****     p_mutex->TS = ts;
 1072              		.loc 1 705 0
 1073 0074 FB68     		ldr	r3, [r7, #12]
 1074 0076 BA69     		ldr	r2, [r7, #24]
 1075 0078 9A62     		str	r2, [r3, #40]
 706:..\..\..\..\..\..\uCOS-III\Source/os_mutex.c ****     p_mutex->OwnerNestingCtr--;                             /* Decrement owner's nesting counter   
 1076              		.loc 1 706 0
 1077 007a FB68     		ldr	r3, [r7, #12]
 1078 007c 93F82530 		ldrb	r3, [r3, #37]	@ zero_extendqisi2
 1079 0080 013B     		subs	r3, r3, #1
 1080 0082 DAB2     		uxtb	r2, r3
 1081 0084 FB68     		ldr	r3, [r7, #12]
 1082 0086 83F82520 		strb	r2, [r3, #37]
 707:..\..\..\..\..\..\uCOS-III\Source/os_mutex.c ****     if (p_mutex->OwnerNestingCtr > (OS_NESTING_CTR)0) {     /* Are we done with all nestings?      
 1083              		.loc 1 707 0
 1084 008a FB68     		ldr	r3, [r7, #12]
 1085 008c 93F82530 		ldrb	r3, [r3, #37]	@ zero_extendqisi2
 1086 0090 002B     		cmp	r3, #0
 1087 0092 07D0     		beq	.L93
 708:..\..\..\..\..\..\uCOS-III\Source/os_mutex.c ****         OS_CRITICAL_EXIT();                                 /* No                                  
 1088              		.loc 1 708 0
 1089 0094 F869     		ldr	r0, [r7, #28]
 1090 0096 FFF7FEFF 		bl	CPU_SR_Restore
 709:..\..\..\..\..\..\uCOS-III\Source/os_mutex.c ****        *p_err = OS_ERR_MUTEX_NESTING;
 1091              		.loc 1 709 0
 1092 009a 7B68     		ldr	r3, [r7, #4]
 1093 009c 45F28372 		movw	r2, #22403
 1094 00a0 1A80     		strh	r2, [r3]	@ movhi
 710:..\..\..\..\..\..\uCOS-III\Source/os_mutex.c ****         return;
 1095              		.loc 1 710 0
 1096 00a2 60E0     		b	.L85
 1097              	.L93:
 711:..\..\..\..\..\..\uCOS-III\Source/os_mutex.c ****     }
 712:..\..\..\..\..\..\uCOS-III\Source/os_mutex.c **** 
 713:..\..\..\..\..\..\uCOS-III\Source/os_mutex.c ****     p_pend_list = &p_mutex->PendList;
 1098              		.loc 1 713 0
 1099 00a4 FB68     		ldr	r3, [r7, #12]
 1100 00a6 0833     		adds	r3, r3, #8
 1101 00a8 7B61     		str	r3, [r7, #20]
ARM GAS  C:\Users\Aluno\AppData\Local\Temp\cccS7k0x.s 			page 33


 714:..\..\..\..\..\..\uCOS-III\Source/os_mutex.c ****     if (p_pend_list->NbrEntries == (OS_OBJ_QTY)0) {         /* Any task waiting on mutex?          
 1102              		.loc 1 714 0
 1103 00aa 7B69     		ldr	r3, [r7, #20]
 1104 00ac 1B89     		ldrh	r3, [r3, #8]
 1105 00ae 002B     		cmp	r3, #0
 1106 00b0 0DD1     		bne	.L94
 715:..\..\..\..\..\..\uCOS-III\Source/os_mutex.c ****         p_mutex->OwnerTCBPtr     = (OS_TCB       *)0;       /* No                                  
 1107              		.loc 1 715 0
 1108 00b2 FB68     		ldr	r3, [r7, #12]
 1109 00b4 0022     		movs	r2, #0
 1110 00b6 1A62     		str	r2, [r3, #32]
 716:..\..\..\..\..\..\uCOS-III\Source/os_mutex.c ****         p_mutex->OwnerNestingCtr = (OS_NESTING_CTR)0;
 1111              		.loc 1 716 0
 1112 00b8 FB68     		ldr	r3, [r7, #12]
 1113 00ba 0022     		movs	r2, #0
 1114 00bc 83F82520 		strb	r2, [r3, #37]
 717:..\..\..\..\..\..\uCOS-III\Source/os_mutex.c ****         OS_CRITICAL_EXIT();
 1115              		.loc 1 717 0
 1116 00c0 F869     		ldr	r0, [r7, #28]
 1117 00c2 FFF7FEFF 		bl	CPU_SR_Restore
 718:..\..\..\..\..\..\uCOS-III\Source/os_mutex.c ****        *p_err = OS_ERR_NONE;
 1118              		.loc 1 718 0
 1119 00c6 7B68     		ldr	r3, [r7, #4]
 1120 00c8 0022     		movs	r2, #0
 1121 00ca 1A80     		strh	r2, [r3]	@ movhi
 719:..\..\..\..\..\..\uCOS-III\Source/os_mutex.c ****         return;
 1122              		.loc 1 719 0
 1123 00cc 4BE0     		b	.L85
 1124              	.L94:
 720:..\..\..\..\..\..\uCOS-III\Source/os_mutex.c ****     }
 721:..\..\..\..\..\..\uCOS-III\Source/os_mutex.c ****                                                             /* Yes                                 
 722:..\..\..\..\..\..\uCOS-III\Source/os_mutex.c ****     if (OSTCBCurPtr->Prio != p_mutex->OwnerOriginalPrio) {
 1125              		.loc 1 722 0
 1126 00ce 284B     		ldr	r3, .L98+4
 1127 00d0 1B68     		ldr	r3, [r3]
 1128 00d2 93F83720 		ldrb	r2, [r3, #55]	@ zero_extendqisi2
 1129 00d6 FB68     		ldr	r3, [r7, #12]
 1130 00d8 93F82430 		ldrb	r3, [r3, #36]	@ zero_extendqisi2
 1131 00dc 9A42     		cmp	r2, r3
 1132 00de 1DD0     		beq	.L95
 723:..\..\..\..\..\..\uCOS-III\Source/os_mutex.c ****         OS_RdyListRemove(OSTCBCurPtr);
 1133              		.loc 1 723 0
 1134 00e0 234B     		ldr	r3, .L98+4
 1135 00e2 1B68     		ldr	r3, [r3]
 1136 00e4 1846     		mov	r0, r3
 1137 00e6 FFF7FEFF 		bl	OS_RdyListRemove
 724:..\..\..\..\..\..\uCOS-III\Source/os_mutex.c ****         OSTCBCurPtr->Prio = p_mutex->OwnerOriginalPrio;     /* Lower owner's priority back to its o
 1138              		.loc 1 724 0
 1139 00ea 214B     		ldr	r3, .L98+4
 1140 00ec 1B68     		ldr	r3, [r3]
 1141 00ee FA68     		ldr	r2, [r7, #12]
 1142 00f0 92F82420 		ldrb	r2, [r2, #36]	@ zero_extendqisi2
 1143 00f4 83F83720 		strb	r2, [r3, #55]
 725:..\..\..\..\..\..\uCOS-III\Source/os_mutex.c ****         OS_PrioInsert(OSTCBCurPtr->Prio);
 1144              		.loc 1 725 0
 1145 00f8 1D4B     		ldr	r3, .L98+4
 1146 00fa 1B68     		ldr	r3, [r3]
ARM GAS  C:\Users\Aluno\AppData\Local\Temp\cccS7k0x.s 			page 34


 1147 00fc 93F83730 		ldrb	r3, [r3, #55]	@ zero_extendqisi2
 1148 0100 1846     		mov	r0, r3
 1149 0102 FFF7FEFF 		bl	OS_PrioInsert
 726:..\..\..\..\..\..\uCOS-III\Source/os_mutex.c ****         OS_RdyListInsertTail(OSTCBCurPtr);                  /* Insert owner in ready list at new pr
 1150              		.loc 1 726 0
 1151 0106 1A4B     		ldr	r3, .L98+4
 1152 0108 1B68     		ldr	r3, [r3]
 1153 010a 1846     		mov	r0, r3
 1154 010c FFF7FEFF 		bl	OS_RdyListInsertTail
 727:..\..\..\..\..\..\uCOS-III\Source/os_mutex.c ****         OSPrioCur         = OSTCBCurPtr->Prio;
 1155              		.loc 1 727 0
 1156 0110 174B     		ldr	r3, .L98+4
 1157 0112 1B68     		ldr	r3, [r3]
 1158 0114 93F83720 		ldrb	r2, [r3, #55]	@ zero_extendqisi2
 1159 0118 164B     		ldr	r3, .L98+8
 1160 011a 1A70     		strb	r2, [r3]
 1161              	.L95:
 728:..\..\..\..\..\..\uCOS-III\Source/os_mutex.c ****     }
 729:..\..\..\..\..\..\uCOS-III\Source/os_mutex.c ****                                                             /* Get TCB from head of pend list      
 730:..\..\..\..\..\..\uCOS-III\Source/os_mutex.c ****     p_tcb                      = p_pend_list->HeadPtr->TCBPtr;
 1162              		.loc 1 730 0
 1163 011c 7B69     		ldr	r3, [r7, #20]
 1164 011e 1B68     		ldr	r3, [r3]
 1165 0120 9B68     		ldr	r3, [r3, #8]
 1166 0122 3B61     		str	r3, [r7, #16]
 731:..\..\..\..\..\..\uCOS-III\Source/os_mutex.c ****     p_mutex->OwnerTCBPtr       = p_tcb;                     /* Give mutex to new owner             
 1167              		.loc 1 731 0
 1168 0124 FB68     		ldr	r3, [r7, #12]
 1169 0126 3A69     		ldr	r2, [r7, #16]
 1170 0128 1A62     		str	r2, [r3, #32]
 732:..\..\..\..\..\..\uCOS-III\Source/os_mutex.c ****     p_mutex->OwnerOriginalPrio = p_tcb->Prio;
 1171              		.loc 1 732 0
 1172 012a 3B69     		ldr	r3, [r7, #16]
 1173 012c 93F83720 		ldrb	r2, [r3, #55]	@ zero_extendqisi2
 1174 0130 FB68     		ldr	r3, [r7, #12]
 1175 0132 83F82420 		strb	r2, [r3, #36]
 733:..\..\..\..\..\..\uCOS-III\Source/os_mutex.c ****     p_mutex->OwnerNestingCtr   = (OS_NESTING_CTR)1;
 1176              		.loc 1 733 0
 1177 0136 FB68     		ldr	r3, [r7, #12]
 1178 0138 0122     		movs	r2, #1
 1179 013a 83F82520 		strb	r2, [r3, #37]
 734:..\..\..\..\..\..\uCOS-III\Source/os_mutex.c ****                                                             /* Post to mutex                       
 735:..\..\..\..\..\..\uCOS-III\Source/os_mutex.c ****     OS_Post((OS_PEND_OBJ *)((void *)p_mutex),
 1180              		.loc 1 735 0
 1181 013e BB69     		ldr	r3, [r7, #24]
 1182 0140 0093     		str	r3, [sp]
 1183 0142 0023     		movs	r3, #0
 1184 0144 0022     		movs	r2, #0
 1185 0146 3969     		ldr	r1, [r7, #16]
 1186 0148 F868     		ldr	r0, [r7, #12]
 1187 014a FFF7FEFF 		bl	OS_Post
 736:..\..\..\..\..\..\uCOS-III\Source/os_mutex.c ****             (OS_TCB      *)p_tcb,
 737:..\..\..\..\..\..\uCOS-III\Source/os_mutex.c ****             (void        *)0,
 738:..\..\..\..\..\..\uCOS-III\Source/os_mutex.c ****             (OS_MSG_SIZE  )0,
 739:..\..\..\..\..\..\uCOS-III\Source/os_mutex.c ****             (CPU_TS       )ts);
 740:..\..\..\..\..\..\uCOS-III\Source/os_mutex.c **** 
 741:..\..\..\..\..\..\uCOS-III\Source/os_mutex.c ****     OS_CRITICAL_EXIT_NO_SCHED();
ARM GAS  C:\Users\Aluno\AppData\Local\Temp\cccS7k0x.s 			page 35


 1188              		.loc 1 741 0
 1189 014e F869     		ldr	r0, [r7, #28]
 1190 0150 FFF7FEFF 		bl	CPU_SR_Restore
 742:..\..\..\..\..\..\uCOS-III\Source/os_mutex.c **** 
 743:..\..\..\..\..\..\uCOS-III\Source/os_mutex.c ****     if ((opt & OS_OPT_POST_NO_SCHED) == (OS_OPT)0) {
 1191              		.loc 1 743 0
 1192 0154 B7F90A30 		ldrsh	r3, [r7, #10]
 1193 0158 002B     		cmp	r3, #0
 1194 015a 01DB     		blt	.L96
 744:..\..\..\..\..\..\uCOS-III\Source/os_mutex.c ****         OSSched();                                          /* Run the scheduler                   
 1195              		.loc 1 744 0
 1196 015c FFF7FEFF 		bl	OSSched
 1197              	.L96:
 745:..\..\..\..\..\..\uCOS-III\Source/os_mutex.c ****     }
 746:..\..\..\..\..\..\uCOS-III\Source/os_mutex.c **** 
 747:..\..\..\..\..\..\uCOS-III\Source/os_mutex.c ****    *p_err = OS_ERR_NONE;
 1198              		.loc 1 747 0
 1199 0160 7B68     		ldr	r3, [r7, #4]
 1200 0162 0022     		movs	r2, #0
 1201 0164 1A80     		strh	r2, [r3]	@ movhi
 1202              	.L85:
 748:..\..\..\..\..\..\uCOS-III\Source/os_mutex.c **** }
 1203              		.loc 1 748 0
 1204 0166 2037     		adds	r7, r7, #32
 1205              		.cfi_def_cfa_offset 8
 1206 0168 BD46     		mov	sp, r7
 1207              		.cfi_def_cfa_register 13
 1208              		@ sp needed
 1209 016a 80BD     		pop	{r7, pc}
 1210              	.L99:
 1211              		.align	2
 1212              	.L98:
 1213 016c 00000000 		.word	OSIntNestingCtr
 1214 0170 00000000 		.word	OSTCBCurPtr
 1215 0174 00000000 		.word	OSPrioCur
 1216              		.cfi_endproc
 1217              	.LFE4:
 1218              		.size	OSMutexPost, .-OSMutexPost
 1219              		.section	.rodata
 1220              		.align	2
 1221              	.LC0:
 1222 0000 3F4D5554 		.ascii	"?MUTEX\000"
 1222      455800
 1223              		.section	.text.OS_MutexClr,"ax",%progbits
 1224              		.align	2
 1225              		.global	OS_MutexClr
 1226              		.thumb
 1227              		.thumb_func
 1228              		.type	OS_MutexClr, %function
 1229              	OS_MutexClr:
 1230              	.LFB5:
 749:..\..\..\..\..\..\uCOS-III\Source/os_mutex.c **** 
 750:..\..\..\..\..\..\uCOS-III\Source/os_mutex.c **** /*$PAGE*/
 751:..\..\..\..\..\..\uCOS-III\Source/os_mutex.c **** /*
 752:..\..\..\..\..\..\uCOS-III\Source/os_mutex.c **** ***************************************************************************************************
 753:..\..\..\..\..\..\uCOS-III\Source/os_mutex.c **** *                                            CLEAR THE CONTENTS OF A MUTEX
 754:..\..\..\..\..\..\uCOS-III\Source/os_mutex.c **** *
ARM GAS  C:\Users\Aluno\AppData\Local\Temp\cccS7k0x.s 			page 36


 755:..\..\..\..\..\..\uCOS-III\Source/os_mutex.c **** * Description: This function is called by OSMutexDel() to clear the contents of a mutex
 756:..\..\..\..\..\..\uCOS-III\Source/os_mutex.c **** *
 757:..\..\..\..\..\..\uCOS-III\Source/os_mutex.c **** 
 758:..\..\..\..\..\..\uCOS-III\Source/os_mutex.c **** * Argument(s): p_mutex      is a pointer to the mutex to clear
 759:..\..\..\..\..\..\uCOS-III\Source/os_mutex.c **** *              -------
 760:..\..\..\..\..\..\uCOS-III\Source/os_mutex.c **** *
 761:..\..\..\..\..\..\uCOS-III\Source/os_mutex.c **** * Returns    : none
 762:..\..\..\..\..\..\uCOS-III\Source/os_mutex.c **** *
 763:..\..\..\..\..\..\uCOS-III\Source/os_mutex.c **** * Note(s)    : This function is INTERNAL to uC/OS-III and your application should not call it.
 764:..\..\..\..\..\..\uCOS-III\Source/os_mutex.c **** ***************************************************************************************************
 765:..\..\..\..\..\..\uCOS-III\Source/os_mutex.c **** */
 766:..\..\..\..\..\..\uCOS-III\Source/os_mutex.c **** 
 767:..\..\..\..\..\..\uCOS-III\Source/os_mutex.c **** void  OS_MutexClr (OS_MUTEX  *p_mutex)
 768:..\..\..\..\..\..\uCOS-III\Source/os_mutex.c **** {
 1231              		.loc 1 768 0
 1232              		.cfi_startproc
 1233              		@ args = 0, pretend = 0, frame = 8
 1234              		@ frame_needed = 1, uses_anonymous_args = 0
 1235 0000 80B5     		push	{r7, lr}
 1236              		.cfi_def_cfa_offset 8
 1237              		.cfi_offset 7, -8
 1238              		.cfi_offset 14, -4
 1239 0002 82B0     		sub	sp, sp, #8
 1240              		.cfi_def_cfa_offset 16
 1241 0004 00AF     		add	r7, sp, #0
 1242              		.cfi_def_cfa_register 7
 1243 0006 7860     		str	r0, [r7, #4]
 769:..\..\..\..\..\..\uCOS-III\Source/os_mutex.c ****     p_mutex->Type              =  OS_OBJ_TYPE_NONE;         /* Mark the data structure as a NONE   
 1244              		.loc 1 769 0
 1245 0008 7B68     		ldr	r3, [r7, #4]
 1246 000a 0E4A     		ldr	r2, .L101
 1247 000c 1A60     		str	r2, [r3]
 770:..\..\..\..\..\..\uCOS-III\Source/os_mutex.c ****     p_mutex->NamePtr           = (CPU_CHAR     *)((void *)"?MUTEX");
 1248              		.loc 1 770 0
 1249 000e 7B68     		ldr	r3, [r7, #4]
 1250 0010 0D4A     		ldr	r2, .L101+4
 1251 0012 5A60     		str	r2, [r3, #4]
 771:..\..\..\..\..\..\uCOS-III\Source/os_mutex.c ****     p_mutex->OwnerTCBPtr       = (OS_TCB       *)0;
 1252              		.loc 1 771 0
 1253 0014 7B68     		ldr	r3, [r7, #4]
 1254 0016 0022     		movs	r2, #0
 1255 0018 1A62     		str	r2, [r3, #32]
 772:..\..\..\..\..\..\uCOS-III\Source/os_mutex.c ****     p_mutex->OwnerNestingCtr   = (OS_NESTING_CTR)0;
 1256              		.loc 1 772 0
 1257 001a 7B68     		ldr	r3, [r7, #4]
 1258 001c 0022     		movs	r2, #0
 1259 001e 83F82520 		strb	r2, [r3, #37]
 773:..\..\..\..\..\..\uCOS-III\Source/os_mutex.c ****     p_mutex->TS                = (CPU_TS        )0;
 1260              		.loc 1 773 0
 1261 0022 7B68     		ldr	r3, [r7, #4]
 1262 0024 0022     		movs	r2, #0
 1263 0026 9A62     		str	r2, [r3, #40]
 774:..\..\..\..\..\..\uCOS-III\Source/os_mutex.c ****     p_mutex->OwnerOriginalPrio =  OS_CFG_PRIO_MAX;
 1264              		.loc 1 774 0
 1265 0028 7B68     		ldr	r3, [r7, #4]
 1266 002a 0822     		movs	r2, #8
 1267 002c 83F82420 		strb	r2, [r3, #36]
ARM GAS  C:\Users\Aluno\AppData\Local\Temp\cccS7k0x.s 			page 37


 775:..\..\..\..\..\..\uCOS-III\Source/os_mutex.c ****     OS_PendListInit(&p_mutex->PendList);                    /* Initialize the waiting list         
 1268              		.loc 1 775 0
 1269 0030 7B68     		ldr	r3, [r7, #4]
 1270 0032 0833     		adds	r3, r3, #8
 1271 0034 1846     		mov	r0, r3
 1272 0036 FFF7FEFF 		bl	OS_PendListInit
 776:..\..\..\..\..\..\uCOS-III\Source/os_mutex.c **** }
 1273              		.loc 1 776 0
 1274 003a 00BF     		nop
 1275 003c 0837     		adds	r7, r7, #8
 1276              		.cfi_def_cfa_offset 8
 1277 003e BD46     		mov	sp, r7
 1278              		.cfi_def_cfa_register 13
 1279              		@ sp needed
 1280 0040 80BD     		pop	{r7, pc}
 1281              	.L102:
 1282 0042 00BF     		.align	2
 1283              	.L101:
 1284 0044 4E4F4E45 		.word	1162760014
 1285 0048 00000000 		.word	.LC0
 1286              		.cfi_endproc
 1287              	.LFE5:
 1288              		.size	OS_MutexClr, .-OS_MutexClr
 1289              		.section	.rodata
 1290 0007 00       		.align	2
 1291              	.LC1:
 1292 0008 2000     		.ascii	" \000"
 1293              		.section	.text.OS_MutexDbgListAdd,"ax",%progbits
 1294              		.align	2
 1295              		.global	OS_MutexDbgListAdd
 1296              		.thumb
 1297              		.thumb_func
 1298              		.type	OS_MutexDbgListAdd, %function
 1299              	OS_MutexDbgListAdd:
 1300              	.LFB6:
 777:..\..\..\..\..\..\uCOS-III\Source/os_mutex.c **** 
 778:..\..\..\..\..\..\uCOS-III\Source/os_mutex.c **** /*$PAGE*/
 779:..\..\..\..\..\..\uCOS-III\Source/os_mutex.c **** /*
 780:..\..\..\..\..\..\uCOS-III\Source/os_mutex.c **** ***************************************************************************************************
 781:..\..\..\..\..\..\uCOS-III\Source/os_mutex.c **** *                                          ADD/REMOVE MUTEX TO/FROM DEBUG LIST
 782:..\..\..\..\..\..\uCOS-III\Source/os_mutex.c **** *
 783:..\..\..\..\..\..\uCOS-III\Source/os_mutex.c **** * Description: These functions are called by uC/OS-III to add or remove a mutex to/from the debug l
 784:..\..\..\..\..\..\uCOS-III\Source/os_mutex.c **** *
 785:..\..\..\..\..\..\uCOS-III\Source/os_mutex.c **** * Arguments  : p_mutex     is a pointer to the mutex to add/remove
 786:..\..\..\..\..\..\uCOS-III\Source/os_mutex.c **** *
 787:..\..\..\..\..\..\uCOS-III\Source/os_mutex.c **** * Returns    : none
 788:..\..\..\..\..\..\uCOS-III\Source/os_mutex.c **** *
 789:..\..\..\..\..\..\uCOS-III\Source/os_mutex.c **** * Note(s)    : These functions are INTERNAL to uC/OS-III and your application should not call it.
 790:..\..\..\..\..\..\uCOS-III\Source/os_mutex.c **** ***************************************************************************************************
 791:..\..\..\..\..\..\uCOS-III\Source/os_mutex.c **** */
 792:..\..\..\..\..\..\uCOS-III\Source/os_mutex.c **** 
 793:..\..\..\..\..\..\uCOS-III\Source/os_mutex.c **** 
 794:..\..\..\..\..\..\uCOS-III\Source/os_mutex.c **** #if OS_CFG_DBG_EN > 0u
 795:..\..\..\..\..\..\uCOS-III\Source/os_mutex.c **** void  OS_MutexDbgListAdd (OS_MUTEX  *p_mutex)
 796:..\..\..\..\..\..\uCOS-III\Source/os_mutex.c **** {
 1301              		.loc 1 796 0
 1302              		.cfi_startproc
ARM GAS  C:\Users\Aluno\AppData\Local\Temp\cccS7k0x.s 			page 38


 1303              		@ args = 0, pretend = 0, frame = 8
 1304              		@ frame_needed = 1, uses_anonymous_args = 0
 1305              		@ link register save eliminated.
 1306 0000 80B4     		push	{r7}
 1307              		.cfi_def_cfa_offset 4
 1308              		.cfi_offset 7, -4
 1309 0002 83B0     		sub	sp, sp, #12
 1310              		.cfi_def_cfa_offset 16
 1311 0004 00AF     		add	r7, sp, #0
 1312              		.cfi_def_cfa_register 7
 1313 0006 7860     		str	r0, [r7, #4]
 797:..\..\..\..\..\..\uCOS-III\Source/os_mutex.c ****     p_mutex->DbgNamePtr               = (CPU_CHAR *)((void *)" ");
 1314              		.loc 1 797 0
 1315 0008 7B68     		ldr	r3, [r7, #4]
 1316 000a 0E4A     		ldr	r2, .L106
 1317 000c DA61     		str	r2, [r3, #28]
 798:..\..\..\..\..\..\uCOS-III\Source/os_mutex.c ****     p_mutex->DbgPrevPtr               = (OS_MUTEX *)0;
 1318              		.loc 1 798 0
 1319 000e 7B68     		ldr	r3, [r7, #4]
 1320 0010 0022     		movs	r2, #0
 1321 0012 5A61     		str	r2, [r3, #20]
 799:..\..\..\..\..\..\uCOS-III\Source/os_mutex.c ****     if (OSMutexDbgListPtr == (OS_MUTEX *)0) {
 1322              		.loc 1 799 0
 1323 0014 0C4B     		ldr	r3, .L106+4
 1324 0016 1B68     		ldr	r3, [r3]
 1325 0018 002B     		cmp	r3, #0
 1326 001a 03D1     		bne	.L104
 800:..\..\..\..\..\..\uCOS-III\Source/os_mutex.c ****         p_mutex->DbgNextPtr           = (OS_MUTEX *)0;
 1327              		.loc 1 800 0
 1328 001c 7B68     		ldr	r3, [r7, #4]
 1329 001e 0022     		movs	r2, #0
 1330 0020 9A61     		str	r2, [r3, #24]
 1331 0022 07E0     		b	.L105
 1332              	.L104:
 801:..\..\..\..\..\..\uCOS-III\Source/os_mutex.c ****     } else {
 802:..\..\..\..\..\..\uCOS-III\Source/os_mutex.c ****         p_mutex->DbgNextPtr           =  OSMutexDbgListPtr;
 1333              		.loc 1 802 0
 1334 0024 084B     		ldr	r3, .L106+4
 1335 0026 1A68     		ldr	r2, [r3]
 1336 0028 7B68     		ldr	r3, [r7, #4]
 1337 002a 9A61     		str	r2, [r3, #24]
 803:..\..\..\..\..\..\uCOS-III\Source/os_mutex.c ****         OSMutexDbgListPtr->DbgPrevPtr =  p_mutex;
 1338              		.loc 1 803 0
 1339 002c 064B     		ldr	r3, .L106+4
 1340 002e 1B68     		ldr	r3, [r3]
 1341 0030 7A68     		ldr	r2, [r7, #4]
 1342 0032 5A61     		str	r2, [r3, #20]
 1343              	.L105:
 804:..\..\..\..\..\..\uCOS-III\Source/os_mutex.c ****     }
 805:..\..\..\..\..\..\uCOS-III\Source/os_mutex.c ****     OSMutexDbgListPtr                 =  p_mutex;
 1344              		.loc 1 805 0
 1345 0034 044A     		ldr	r2, .L106+4
 1346 0036 7B68     		ldr	r3, [r7, #4]
 1347 0038 1360     		str	r3, [r2]
 806:..\..\..\..\..\..\uCOS-III\Source/os_mutex.c **** }
 1348              		.loc 1 806 0
 1349 003a 00BF     		nop
ARM GAS  C:\Users\Aluno\AppData\Local\Temp\cccS7k0x.s 			page 39


 1350 003c 0C37     		adds	r7, r7, #12
 1351              		.cfi_def_cfa_offset 4
 1352 003e BD46     		mov	sp, r7
 1353              		.cfi_def_cfa_register 13
 1354              		@ sp needed
 1355 0040 80BC     		pop	{r7}
 1356              		.cfi_restore 7
 1357              		.cfi_def_cfa_offset 0
 1358 0042 7047     		bx	lr
 1359              	.L107:
 1360              		.align	2
 1361              	.L106:
 1362 0044 08000000 		.word	.LC1
 1363 0048 00000000 		.word	OSMutexDbgListPtr
 1364              		.cfi_endproc
 1365              	.LFE6:
 1366              		.size	OS_MutexDbgListAdd, .-OS_MutexDbgListAdd
 1367              		.section	.text.OS_MutexDbgListRemove,"ax",%progbits
 1368              		.align	2
 1369              		.global	OS_MutexDbgListRemove
 1370              		.thumb
 1371              		.thumb_func
 1372              		.type	OS_MutexDbgListRemove, %function
 1373              	OS_MutexDbgListRemove:
 1374              	.LFB7:
 807:..\..\..\..\..\..\uCOS-III\Source/os_mutex.c **** 
 808:..\..\..\..\..\..\uCOS-III\Source/os_mutex.c **** 
 809:..\..\..\..\..\..\uCOS-III\Source/os_mutex.c **** 
 810:..\..\..\..\..\..\uCOS-III\Source/os_mutex.c **** void  OS_MutexDbgListRemove (OS_MUTEX  *p_mutex)
 811:..\..\..\..\..\..\uCOS-III\Source/os_mutex.c **** {
 1375              		.loc 1 811 0
 1376              		.cfi_startproc
 1377              		@ args = 0, pretend = 0, frame = 16
 1378              		@ frame_needed = 1, uses_anonymous_args = 0
 1379              		@ link register save eliminated.
 1380 0000 80B4     		push	{r7}
 1381              		.cfi_def_cfa_offset 4
 1382              		.cfi_offset 7, -4
 1383 0002 85B0     		sub	sp, sp, #20
 1384              		.cfi_def_cfa_offset 24
 1385 0004 00AF     		add	r7, sp, #0
 1386              		.cfi_def_cfa_register 7
 1387 0006 7860     		str	r0, [r7, #4]
 812:..\..\..\..\..\..\uCOS-III\Source/os_mutex.c ****     OS_MUTEX  *p_mutex_next;
 813:..\..\..\..\..\..\uCOS-III\Source/os_mutex.c ****     OS_MUTEX  *p_mutex_prev;
 814:..\..\..\..\..\..\uCOS-III\Source/os_mutex.c **** 
 815:..\..\..\..\..\..\uCOS-III\Source/os_mutex.c **** 
 816:..\..\..\..\..\..\uCOS-III\Source/os_mutex.c ****     p_mutex_prev = p_mutex->DbgPrevPtr;
 1388              		.loc 1 816 0
 1389 0008 7B68     		ldr	r3, [r7, #4]
 1390 000a 5B69     		ldr	r3, [r3, #20]
 1391 000c FB60     		str	r3, [r7, #12]
 817:..\..\..\..\..\..\uCOS-III\Source/os_mutex.c ****     p_mutex_next = p_mutex->DbgNextPtr;
 1392              		.loc 1 817 0
 1393 000e 7B68     		ldr	r3, [r7, #4]
 1394 0010 9B69     		ldr	r3, [r3, #24]
 1395 0012 BB60     		str	r3, [r7, #8]
ARM GAS  C:\Users\Aluno\AppData\Local\Temp\cccS7k0x.s 			page 40


 818:..\..\..\..\..\..\uCOS-III\Source/os_mutex.c **** 
 819:..\..\..\..\..\..\uCOS-III\Source/os_mutex.c ****     if (p_mutex_prev == (OS_MUTEX *)0) {
 1396              		.loc 1 819 0
 1397 0014 FB68     		ldr	r3, [r7, #12]
 1398 0016 002B     		cmp	r3, #0
 1399 0018 0CD1     		bne	.L109
 820:..\..\..\..\..\..\uCOS-III\Source/os_mutex.c ****         OSMutexDbgListPtr = p_mutex_next;
 1400              		.loc 1 820 0
 1401 001a 144A     		ldr	r2, .L114
 1402 001c BB68     		ldr	r3, [r7, #8]
 1403 001e 1360     		str	r3, [r2]
 821:..\..\..\..\..\..\uCOS-III\Source/os_mutex.c ****         if (p_mutex_next != (OS_MUTEX *)0) {
 1404              		.loc 1 821 0
 1405 0020 BB68     		ldr	r3, [r7, #8]
 1406 0022 002B     		cmp	r3, #0
 1407 0024 02D0     		beq	.L110
 822:..\..\..\..\..\..\uCOS-III\Source/os_mutex.c ****             p_mutex_next->DbgPrevPtr = (OS_MUTEX *)0;
 1408              		.loc 1 822 0
 1409 0026 BB68     		ldr	r3, [r7, #8]
 1410 0028 0022     		movs	r2, #0
 1411 002a 5A61     		str	r2, [r3, #20]
 1412              	.L110:
 823:..\..\..\..\..\..\uCOS-III\Source/os_mutex.c ****         }
 824:..\..\..\..\..\..\uCOS-III\Source/os_mutex.c ****         p_mutex->DbgNextPtr = (OS_MUTEX *)0;
 1413              		.loc 1 824 0
 1414 002c 7B68     		ldr	r3, [r7, #4]
 1415 002e 0022     		movs	r2, #0
 1416 0030 9A61     		str	r2, [r3, #24]
 825:..\..\..\..\..\..\uCOS-III\Source/os_mutex.c **** 
 826:..\..\..\..\..\..\uCOS-III\Source/os_mutex.c ****     } else if (p_mutex_next == (OS_MUTEX *)0) {
 827:..\..\..\..\..\..\uCOS-III\Source/os_mutex.c ****         p_mutex_prev->DbgNextPtr = (OS_MUTEX *)0;
 828:..\..\..\..\..\..\uCOS-III\Source/os_mutex.c ****         p_mutex->DbgPrevPtr      = (OS_MUTEX *)0;
 829:..\..\..\..\..\..\uCOS-III\Source/os_mutex.c **** 
 830:..\..\..\..\..\..\uCOS-III\Source/os_mutex.c ****     } else {
 831:..\..\..\..\..\..\uCOS-III\Source/os_mutex.c ****         p_mutex_prev->DbgNextPtr =  p_mutex_next;
 832:..\..\..\..\..\..\uCOS-III\Source/os_mutex.c ****         p_mutex_next->DbgPrevPtr =  p_mutex_prev;
 833:..\..\..\..\..\..\uCOS-III\Source/os_mutex.c ****         p_mutex->DbgNextPtr      = (OS_MUTEX *)0;
 834:..\..\..\..\..\..\uCOS-III\Source/os_mutex.c ****         p_mutex->DbgPrevPtr      = (OS_MUTEX *)0;
 835:..\..\..\..\..\..\uCOS-III\Source/os_mutex.c ****     }
 836:..\..\..\..\..\..\uCOS-III\Source/os_mutex.c **** }
 1417              		.loc 1 836 0
 1418 0032 15E0     		b	.L113
 1419              	.L109:
 826:..\..\..\..\..\..\uCOS-III\Source/os_mutex.c ****         p_mutex_prev->DbgNextPtr = (OS_MUTEX *)0;
 1420              		.loc 1 826 0
 1421 0034 BB68     		ldr	r3, [r7, #8]
 1422 0036 002B     		cmp	r3, #0
 1423 0038 06D1     		bne	.L112
 827:..\..\..\..\..\..\uCOS-III\Source/os_mutex.c ****         p_mutex->DbgPrevPtr      = (OS_MUTEX *)0;
 1424              		.loc 1 827 0
 1425 003a FB68     		ldr	r3, [r7, #12]
 1426 003c 0022     		movs	r2, #0
 1427 003e 9A61     		str	r2, [r3, #24]
 828:..\..\..\..\..\..\uCOS-III\Source/os_mutex.c **** 
 1428              		.loc 1 828 0
 1429 0040 7B68     		ldr	r3, [r7, #4]
 1430 0042 0022     		movs	r2, #0
ARM GAS  C:\Users\Aluno\AppData\Local\Temp\cccS7k0x.s 			page 41


 1431 0044 5A61     		str	r2, [r3, #20]
 1432              		.loc 1 836 0
 1433 0046 0BE0     		b	.L113
 1434              	.L112:
 831:..\..\..\..\..\..\uCOS-III\Source/os_mutex.c ****         p_mutex_next->DbgPrevPtr =  p_mutex_prev;
 1435              		.loc 1 831 0
 1436 0048 FB68     		ldr	r3, [r7, #12]
 1437 004a BA68     		ldr	r2, [r7, #8]
 1438 004c 9A61     		str	r2, [r3, #24]
 832:..\..\..\..\..\..\uCOS-III\Source/os_mutex.c ****         p_mutex->DbgNextPtr      = (OS_MUTEX *)0;
 1439              		.loc 1 832 0
 1440 004e BB68     		ldr	r3, [r7, #8]
 1441 0050 FA68     		ldr	r2, [r7, #12]
 1442 0052 5A61     		str	r2, [r3, #20]
 833:..\..\..\..\..\..\uCOS-III\Source/os_mutex.c ****         p_mutex->DbgPrevPtr      = (OS_MUTEX *)0;
 1443              		.loc 1 833 0
 1444 0054 7B68     		ldr	r3, [r7, #4]
 1445 0056 0022     		movs	r2, #0
 1446 0058 9A61     		str	r2, [r3, #24]
 834:..\..\..\..\..\..\uCOS-III\Source/os_mutex.c ****     }
 1447              		.loc 1 834 0
 1448 005a 7B68     		ldr	r3, [r7, #4]
 1449 005c 0022     		movs	r2, #0
 1450 005e 5A61     		str	r2, [r3, #20]
 1451              	.L113:
 1452              		.loc 1 836 0
 1453 0060 00BF     		nop
 1454 0062 1437     		adds	r7, r7, #20
 1455              		.cfi_def_cfa_offset 4
 1456 0064 BD46     		mov	sp, r7
 1457              		.cfi_def_cfa_register 13
 1458              		@ sp needed
 1459 0066 80BC     		pop	{r7}
 1460              		.cfi_restore 7
 1461              		.cfi_def_cfa_offset 0
 1462 0068 7047     		bx	lr
 1463              	.L115:
 1464 006a 00BF     		.align	2
 1465              	.L114:
 1466 006c 00000000 		.word	OSMutexDbgListPtr
 1467              		.cfi_endproc
 1468              	.LFE7:
 1469              		.size	OS_MutexDbgListRemove, .-OS_MutexDbgListRemove
 1470              		.section	.text.OS_MutexInit,"ax",%progbits
 1471              		.align	2
 1472              		.global	OS_MutexInit
 1473              		.thumb
 1474              		.thumb_func
 1475              		.type	OS_MutexInit, %function
 1476              	OS_MutexInit:
 1477              	.LFB8:
 837:..\..\..\..\..\..\uCOS-III\Source/os_mutex.c **** #endif
 838:..\..\..\..\..\..\uCOS-III\Source/os_mutex.c **** 
 839:..\..\..\..\..\..\uCOS-III\Source/os_mutex.c **** /*$PAGE*/
 840:..\..\..\..\..\..\uCOS-III\Source/os_mutex.c **** /*
 841:..\..\..\..\..\..\uCOS-III\Source/os_mutex.c **** ***************************************************************************************************
 842:..\..\..\..\..\..\uCOS-III\Source/os_mutex.c **** *                                                MUTEX INITIALIZATION
ARM GAS  C:\Users\Aluno\AppData\Local\Temp\cccS7k0x.s 			page 42


 843:..\..\..\..\..\..\uCOS-III\Source/os_mutex.c **** *
 844:..\..\..\..\..\..\uCOS-III\Source/os_mutex.c **** * Description: This function is called by OSInit() to initialize the mutex management.
 845:..\..\..\..\..\..\uCOS-III\Source/os_mutex.c **** *
 846:..\..\..\..\..\..\uCOS-III\Source/os_mutex.c **** 
 847:..\..\..\..\..\..\uCOS-III\Source/os_mutex.c **** * Argument(s): p_err        is a pointer to a variable that will contain an error code returned by 
 848:..\..\..\..\..\..\uCOS-III\Source/os_mutex.c **** *
 849:..\..\..\..\..\..\uCOS-III\Source/os_mutex.c **** *                                OS_ERR_NONE     the call was successful
 850:..\..\..\..\..\..\uCOS-III\Source/os_mutex.c **** *
 851:..\..\..\..\..\..\uCOS-III\Source/os_mutex.c **** * Returns    : none
 852:..\..\..\..\..\..\uCOS-III\Source/os_mutex.c **** *
 853:..\..\..\..\..\..\uCOS-III\Source/os_mutex.c **** * Note(s)    : 1) This function is INTERNAL to uC/OS-III and your application MUST NOT call it.
 854:..\..\..\..\..\..\uCOS-III\Source/os_mutex.c **** ***************************************************************************************************
 855:..\..\..\..\..\..\uCOS-III\Source/os_mutex.c **** */
 856:..\..\..\..\..\..\uCOS-III\Source/os_mutex.c **** 
 857:..\..\..\..\..\..\uCOS-III\Source/os_mutex.c **** void  OS_MutexInit (OS_ERR  *p_err)
 858:..\..\..\..\..\..\uCOS-III\Source/os_mutex.c **** {
 1478              		.loc 1 858 0
 1479              		.cfi_startproc
 1480              		@ args = 0, pretend = 0, frame = 8
 1481              		@ frame_needed = 1, uses_anonymous_args = 0
 1482              		@ link register save eliminated.
 1483 0000 80B4     		push	{r7}
 1484              		.cfi_def_cfa_offset 4
 1485              		.cfi_offset 7, -4
 1486 0002 83B0     		sub	sp, sp, #12
 1487              		.cfi_def_cfa_offset 16
 1488 0004 00AF     		add	r7, sp, #0
 1489              		.cfi_def_cfa_register 7
 1490 0006 7860     		str	r0, [r7, #4]
 859:..\..\..\..\..\..\uCOS-III\Source/os_mutex.c **** #ifdef OS_SAFETY_CRITICAL
 860:..\..\..\..\..\..\uCOS-III\Source/os_mutex.c ****     if (p_err == (OS_ERR *)0) {
 861:..\..\..\..\..\..\uCOS-III\Source/os_mutex.c ****         OS_SAFETY_CRITICAL_EXCEPTION();
 862:..\..\..\..\..\..\uCOS-III\Source/os_mutex.c ****         return;
 863:..\..\..\..\..\..\uCOS-III\Source/os_mutex.c ****     }
 864:..\..\..\..\..\..\uCOS-III\Source/os_mutex.c **** #endif
 865:..\..\..\..\..\..\uCOS-III\Source/os_mutex.c **** 
 866:..\..\..\..\..\..\uCOS-III\Source/os_mutex.c **** #if OS_CFG_DBG_EN > 0u
 867:..\..\..\..\..\..\uCOS-III\Source/os_mutex.c ****     OSMutexDbgListPtr = (OS_MUTEX *)0;
 1491              		.loc 1 867 0
 1492 0008 064B     		ldr	r3, .L117
 1493 000a 0022     		movs	r2, #0
 1494 000c 1A60     		str	r2, [r3]
 868:..\..\..\..\..\..\uCOS-III\Source/os_mutex.c **** #endif
 869:..\..\..\..\..\..\uCOS-III\Source/os_mutex.c **** 
 870:..\..\..\..\..\..\uCOS-III\Source/os_mutex.c ****     OSMutexQty        = (OS_OBJ_QTY)0;
 1495              		.loc 1 870 0
 1496 000e 064B     		ldr	r3, .L117+4
 1497 0010 0022     		movs	r2, #0
 1498 0012 1A80     		strh	r2, [r3]	@ movhi
 871:..\..\..\..\..\..\uCOS-III\Source/os_mutex.c ****    *p_err             =  OS_ERR_NONE;
 1499              		.loc 1 871 0
 1500 0014 7B68     		ldr	r3, [r7, #4]
 1501 0016 0022     		movs	r2, #0
 1502 0018 1A80     		strh	r2, [r3]	@ movhi
 872:..\..\..\..\..\..\uCOS-III\Source/os_mutex.c **** }
 1503              		.loc 1 872 0
 1504 001a 00BF     		nop
ARM GAS  C:\Users\Aluno\AppData\Local\Temp\cccS7k0x.s 			page 43


 1505 001c 0C37     		adds	r7, r7, #12
 1506              		.cfi_def_cfa_offset 4
 1507 001e BD46     		mov	sp, r7
 1508              		.cfi_def_cfa_register 13
 1509              		@ sp needed
 1510 0020 80BC     		pop	{r7}
 1511              		.cfi_restore 7
 1512              		.cfi_def_cfa_offset 0
 1513 0022 7047     		bx	lr
 1514              	.L118:
 1515              		.align	2
 1516              	.L117:
 1517 0024 00000000 		.word	OSMutexDbgListPtr
 1518 0028 00000000 		.word	OSMutexQty
 1519              		.cfi_endproc
 1520              	.LFE8:
 1521              		.size	OS_MutexInit, .-OS_MutexInit
 1522              		.text
 1523              	.Letext0:
 1524              		.file 2 "..\\..\\..\\..\\..\\..\\uC-CPU\\ARM-Cortex-M3\\GNU/cpu.h"
 1525              		.file 3 "..\\..\\..\\..\\..\\..\\uC-CPU/cpu_core.h"
 1526              		.file 4 "..\\..\\..\\..\\..\\..\\uCOS-III\\Source/os_type.h"
 1527              		.file 5 "..\\..\\..\\..\\..\\..\\uCOS-III\\Source/os.h"
 1528              		.section	.debug_info,"",%progbits
 1529              	.Ldebug_info0:
 1530 0000 890F0000 		.4byte	0xf89
 1531 0004 0400     		.2byte	0x4
 1532 0006 00000000 		.4byte	.Ldebug_abbrev0
 1533 000a 04       		.byte	0x4
 1534 000b 01       		.uleb128 0x1
 1535 000c A2020000 		.4byte	.LASF314
 1536 0010 0C       		.byte	0xc
 1537 0011 170B0000 		.4byte	.LASF315
 1538 0015 3C0A0000 		.4byte	.LASF316
 1539 0019 00000000 		.4byte	.Ldebug_ranges0+0
 1540 001d 00000000 		.4byte	0
 1541 0021 00000000 		.4byte	.Ldebug_line0
 1542 0025 02       		.uleb128 0x2
 1543 0026 71070000 		.4byte	.LASF2
 1544 002a 02       		.byte	0x2
 1545 002b 76       		.byte	0x76
 1546 002c 30000000 		.4byte	0x30
 1547 0030 03       		.uleb128 0x3
 1548 0031 01       		.byte	0x1
 1549 0032 08       		.byte	0x8
 1550 0033 0B090000 		.4byte	.LASF0
 1551 0037 03       		.uleb128 0x3
 1552 0038 01       		.byte	0x1
 1553 0039 08       		.byte	0x8
 1554 003a 95100000 		.4byte	.LASF1
 1555 003e 02       		.uleb128 0x2
 1556 003f 4F060000 		.4byte	.LASF3
 1557 0043 02       		.byte	0x2
 1558 0044 78       		.byte	0x78
 1559 0045 37000000 		.4byte	0x37
 1560 0049 03       		.uleb128 0x3
 1561 004a 01       		.byte	0x1
ARM GAS  C:\Users\Aluno\AppData\Local\Temp\cccS7k0x.s 			page 44


 1562 004b 06       		.byte	0x6
 1563 004c D6110000 		.4byte	.LASF4
 1564 0050 02       		.uleb128 0x2
 1565 0051 0C0B0000 		.4byte	.LASF5
 1566 0055 02       		.byte	0x2
 1567 0056 7A       		.byte	0x7a
 1568 0057 5B000000 		.4byte	0x5b
 1569 005b 03       		.uleb128 0x3
 1570 005c 02       		.byte	0x2
 1571 005d 07       		.byte	0x7
 1572 005e FC110000 		.4byte	.LASF6
 1573 0062 03       		.uleb128 0x3
 1574 0063 02       		.byte	0x2
 1575 0064 05       		.byte	0x5
 1576 0065 290E0000 		.4byte	.LASF7
 1577 0069 02       		.uleb128 0x2
 1578 006a D5010000 		.4byte	.LASF8
 1579 006e 02       		.byte	0x2
 1580 006f 7C       		.byte	0x7c
 1581 0070 74000000 		.4byte	0x74
 1582 0074 03       		.uleb128 0x3
 1583 0075 04       		.byte	0x4
 1584 0076 07       		.byte	0x7
 1585 0077 7A0F0000 		.4byte	.LASF9
 1586 007b 04       		.uleb128 0x4
 1587 007c 04       		.byte	0x4
 1588 007d 05       		.byte	0x5
 1589 007e 696E7400 		.ascii	"int\000"
 1590 0082 03       		.uleb128 0x3
 1591 0083 08       		.byte	0x8
 1592 0084 07       		.byte	0x7
 1593 0085 9F050000 		.4byte	.LASF10
 1594 0089 03       		.uleb128 0x3
 1595 008a 08       		.byte	0x8
 1596 008b 05       		.byte	0x5
 1597 008c F0090000 		.4byte	.LASF11
 1598 0090 03       		.uleb128 0x3
 1599 0091 04       		.byte	0x4
 1600 0092 04       		.byte	0x4
 1601 0093 FC040000 		.4byte	.LASF12
 1602 0097 03       		.uleb128 0x3
 1603 0098 08       		.byte	0x8
 1604 0099 04       		.byte	0x4
 1605 009a 8E120000 		.4byte	.LASF13
 1606 009e 05       		.uleb128 0x5
 1607 009f 04       		.byte	0x4
 1608 00a0 A4000000 		.4byte	0xa4
 1609 00a4 06       		.uleb128 0x6
 1610 00a5 AF000000 		.4byte	0xaf
 1611 00a9 07       		.uleb128 0x7
 1612 00aa AF000000 		.4byte	0xaf
 1613 00ae 00       		.byte	0
 1614 00af 08       		.uleb128 0x8
 1615 00b0 04       		.byte	0x4
 1616 00b1 02       		.uleb128 0x2
 1617 00b2 13100000 		.4byte	.LASF14
 1618 00b6 02       		.byte	0x2
ARM GAS  C:\Users\Aluno\AppData\Local\Temp\cccS7k0x.s 			page 45


 1619 00b7 B5       		.byte	0xb5
 1620 00b8 69000000 		.4byte	0x69
 1621 00bc 02       		.uleb128 0x2
 1622 00bd 05140000 		.4byte	.LASF15
 1623 00c1 02       		.byte	0x2
 1624 00c2 D9       		.byte	0xd9
 1625 00c3 69000000 		.4byte	0x69
 1626 00c7 02       		.uleb128 0x2
 1627 00c8 B0070000 		.4byte	.LASF16
 1628 00cc 02       		.byte	0x2
 1629 00cd DA       		.byte	0xda
 1630 00ce B1000000 		.4byte	0xb1
 1631 00d2 09       		.uleb128 0x9
 1632 00d3 41090000 		.4byte	.LASF17
 1633 00d7 02       		.byte	0x2
 1634 00d8 2901     		.2byte	0x129
 1635 00da 69000000 		.4byte	0x69
 1636 00de 02       		.uleb128 0x2
 1637 00df F50B0000 		.4byte	.LASF18
 1638 00e3 03       		.byte	0x3
 1639 00e4 C4       		.byte	0xc4
 1640 00e5 69000000 		.4byte	0x69
 1641 00e9 02       		.uleb128 0x2
 1642 00ea E9090000 		.4byte	.LASF19
 1643 00ee 03       		.byte	0x3
 1644 00ef C7       		.byte	0xc7
 1645 00f0 DE000000 		.4byte	0xde
 1646 00f4 02       		.uleb128 0x2
 1647 00f5 AB010000 		.4byte	.LASF20
 1648 00f9 04       		.byte	0x4
 1649 00fa 30       		.byte	0x30
 1650 00fb 50000000 		.4byte	0x50
 1651 00ff 02       		.uleb128 0x2
 1652 0100 2F000000 		.4byte	.LASF21
 1653 0104 04       		.byte	0x4
 1654 0105 34       		.byte	0x34
 1655 0106 69000000 		.4byte	0x69
 1656 010a 02       		.uleb128 0x2
 1657 010b 59100000 		.4byte	.LASF22
 1658 010f 04       		.byte	0x4
 1659 0110 36       		.byte	0x36
 1660 0111 69000000 		.4byte	0x69
 1661 0115 02       		.uleb128 0x2
 1662 0116 0F120000 		.4byte	.LASF23
 1663 011a 04       		.byte	0x4
 1664 011b 38       		.byte	0x38
 1665 011c 69000000 		.4byte	0x69
 1666 0120 02       		.uleb128 0x2
 1667 0121 BD070000 		.4byte	.LASF24
 1668 0125 04       		.byte	0x4
 1669 0126 3F       		.byte	0x3f
 1670 0127 50000000 		.4byte	0x50
 1671 012b 02       		.uleb128 0x2
 1672 012c 36070000 		.4byte	.LASF25
 1673 0130 04       		.byte	0x4
 1674 0131 40       		.byte	0x40
 1675 0132 50000000 		.4byte	0x50
ARM GAS  C:\Users\Aluno\AppData\Local\Temp\cccS7k0x.s 			page 46


 1676 0136 02       		.uleb128 0x2
 1677 0137 C40E0000 		.4byte	.LASF26
 1678 013b 04       		.byte	0x4
 1679 013c 42       		.byte	0x42
 1680 013d 3E000000 		.4byte	0x3e
 1681 0141 02       		.uleb128 0x2
 1682 0142 97020000 		.4byte	.LASF27
 1683 0146 04       		.byte	0x4
 1684 0147 44       		.byte	0x44
 1685 0148 50000000 		.4byte	0x50
 1686 014c 02       		.uleb128 0x2
 1687 014d 10090000 		.4byte	.LASF28
 1688 0151 04       		.byte	0x4
 1689 0152 45       		.byte	0x45
 1690 0153 69000000 		.4byte	0x69
 1691 0157 02       		.uleb128 0x2
 1692 0158 E9100000 		.4byte	.LASF29
 1693 015c 04       		.byte	0x4
 1694 015d 47       		.byte	0x47
 1695 015e 50000000 		.4byte	0x50
 1696 0162 02       		.uleb128 0x2
 1697 0163 F4040000 		.4byte	.LASF30
 1698 0167 04       		.byte	0x4
 1699 0168 49       		.byte	0x49
 1700 0169 3E000000 		.4byte	0x3e
 1701 016d 02       		.uleb128 0x2
 1702 016e C1060000 		.4byte	.LASF31
 1703 0172 04       		.byte	0x4
 1704 0173 4F       		.byte	0x4f
 1705 0174 69000000 		.4byte	0x69
 1706 0178 02       		.uleb128 0x2
 1707 0179 210C0000 		.4byte	.LASF32
 1708 017d 04       		.byte	0x4
 1709 017e 52       		.byte	0x52
 1710 017f 69000000 		.4byte	0x69
 1711 0183 02       		.uleb128 0x2
 1712 0184 D8100000 		.4byte	.LASF33
 1713 0188 04       		.byte	0x4
 1714 0189 54       		.byte	0x54
 1715 018a 3E000000 		.4byte	0x3e
 1716 018e 02       		.uleb128 0x2
 1717 018f EE060000 		.4byte	.LASF34
 1718 0193 04       		.byte	0x4
 1719 0194 56       		.byte	0x56
 1720 0195 3E000000 		.4byte	0x3e
 1721 0199 02       		.uleb128 0x2
 1722 019a AC0B0000 		.4byte	.LASF35
 1723 019e 04       		.byte	0x4
 1724 019f 58       		.byte	0x58
 1725 01a0 69000000 		.4byte	0x69
 1726 01a4 0A       		.uleb128 0xa
 1727 01a5 65010000 		.4byte	.LASF317
 1728 01a9 02       		.byte	0x2
 1729 01aa 5B000000 		.4byte	0x5b
 1730 01ae 05       		.byte	0x5
 1731 01af A501     		.2byte	0x1a5
 1732 01b1 1C060000 		.4byte	0x61c
ARM GAS  C:\Users\Aluno\AppData\Local\Temp\cccS7k0x.s 			page 47


 1733 01b5 0B       		.uleb128 0xb
 1734 01b6 4B120000 		.4byte	.LASF36
 1735 01ba 00       		.byte	0
 1736 01bb 0C       		.uleb128 0xc
 1737 01bc 73000000 		.4byte	.LASF37
 1738 01c0 1027     		.2byte	0x2710
 1739 01c2 0C       		.uleb128 0xc
 1740 01c3 95030000 		.4byte	.LASF38
 1741 01c7 1127     		.2byte	0x2711
 1742 01c9 0C       		.uleb128 0xc
 1743 01ca 7C000000 		.4byte	.LASF39
 1744 01ce F82A     		.2byte	0x2af8
 1745 01d0 0C       		.uleb128 0xc
 1746 01d1 85000000 		.4byte	.LASF40
 1747 01d5 E02E     		.2byte	0x2ee0
 1748 01d7 0C       		.uleb128 0xc
 1749 01d8 89010000 		.4byte	.LASF41
 1750 01dc E12E     		.2byte	0x2ee1
 1751 01de 0C       		.uleb128 0xc
 1752 01df 8E000000 		.4byte	.LASF42
 1753 01e3 C832     		.2byte	0x32c8
 1754 01e5 0C       		.uleb128 0xc
 1755 01e6 DB080000 		.4byte	.LASF43
 1756 01ea C932     		.2byte	0x32c9
 1757 01ec 0C       		.uleb128 0xc
 1758 01ed 97000000 		.4byte	.LASF44
 1759 01f1 B036     		.2byte	0x36b0
 1760 01f3 0C       		.uleb128 0xc
 1761 01f4 A0000000 		.4byte	.LASF45
 1762 01f8 983A     		.2byte	0x3a98
 1763 01fa 0C       		.uleb128 0xc
 1764 01fb E8110000 		.4byte	.LASF46
 1765 01ff 993A     		.2byte	0x3a99
 1766 0201 0C       		.uleb128 0xc
 1767 0202 3F080000 		.4byte	.LASF47
 1768 0206 FD3A     		.2byte	0x3afd
 1769 0208 0C       		.uleb128 0xc
 1770 0209 C80F0000 		.4byte	.LASF48
 1771 020d FE3A     		.2byte	0x3afe
 1772 020f 0C       		.uleb128 0xc
 1773 0210 FE090000 		.4byte	.LASF49
 1774 0214 FF3A     		.2byte	0x3aff
 1775 0216 0C       		.uleb128 0xc
 1776 0217 78120000 		.4byte	.LASF50
 1777 021b 003B     		.2byte	0x3b00
 1778 021d 0C       		.uleb128 0xc
 1779 021e A9000000 		.4byte	.LASF51
 1780 0222 803E     		.2byte	0x3e80
 1781 0224 0C       		.uleb128 0xc
 1782 0225 B2000000 		.4byte	.LASF52
 1783 0229 6842     		.2byte	0x4268
 1784 022b 0C       		.uleb128 0xc
 1785 022c BB000000 		.4byte	.LASF53
 1786 0230 5046     		.2byte	0x4650
 1787 0232 0C       		.uleb128 0xc
 1788 0233 87040000 		.4byte	.LASF54
 1789 0237 5146     		.2byte	0x4651
ARM GAS  C:\Users\Aluno\AppData\Local\Temp\cccS7k0x.s 			page 48


 1790 0239 0C       		.uleb128 0xc
 1791 023a 69030000 		.4byte	.LASF55
 1792 023e 5246     		.2byte	0x4652
 1793 0240 0C       		.uleb128 0xc
 1794 0241 52040000 		.4byte	.LASF56
 1795 0245 5346     		.2byte	0x4653
 1796 0247 0C       		.uleb128 0xc
 1797 0248 77010000 		.4byte	.LASF57
 1798 024c 5446     		.2byte	0x4654
 1799 024e 0C       		.uleb128 0xc
 1800 024f 84110000 		.4byte	.LASF58
 1801 0253 5546     		.2byte	0x4655
 1802 0255 0C       		.uleb128 0xc
 1803 0256 D50C0000 		.4byte	.LASF59
 1804 025a 5646     		.2byte	0x4656
 1805 025c 0C       		.uleb128 0xc
 1806 025d C4000000 		.4byte	.LASF60
 1807 0261 384A     		.2byte	0x4a38
 1808 0263 0C       		.uleb128 0xc
 1809 0264 CD000000 		.4byte	.LASF61
 1810 0268 204E     		.2byte	0x4e20
 1811 026a 0C       		.uleb128 0xc
 1812 026b D6000000 		.4byte	.LASF62
 1813 026f 0852     		.2byte	0x5208
 1814 0271 0C       		.uleb128 0xc
 1815 0272 F90D0000 		.4byte	.LASF63
 1816 0276 0952     		.2byte	0x5209
 1817 0278 0C       		.uleb128 0xc
 1818 0279 DF000000 		.4byte	.LASF64
 1819 027d F055     		.2byte	0x55f0
 1820 027f 0C       		.uleb128 0xc
 1821 0280 FC100000 		.4byte	.LASF65
 1822 0284 B956     		.2byte	0x56b9
 1823 0286 0C       		.uleb128 0xc
 1824 0287 B40B0000 		.4byte	.LASF66
 1825 028b BA56     		.2byte	0x56ba
 1826 028d 0C       		.uleb128 0xc
 1827 028e D90D0000 		.4byte	.LASF67
 1828 0292 BB56     		.2byte	0x56bb
 1829 0294 0C       		.uleb128 0xc
 1830 0295 58080000 		.4byte	.LASF68
 1831 0299 BC56     		.2byte	0x56bc
 1832 029b 0C       		.uleb128 0xc
 1833 029c 600B0000 		.4byte	.LASF69
 1834 02a0 BD56     		.2byte	0x56bd
 1835 02a2 0C       		.uleb128 0xc
 1836 02a3 C00D0000 		.4byte	.LASF70
 1837 02a7 BE56     		.2byte	0x56be
 1838 02a9 0C       		.uleb128 0xc
 1839 02aa DC0B0000 		.4byte	.LASF71
 1840 02ae BF56     		.2byte	0x56bf
 1841 02b0 0C       		.uleb128 0xc
 1842 02b1 3D050000 		.4byte	.LASF72
 1843 02b5 C056     		.2byte	0x56c0
 1844 02b7 0C       		.uleb128 0xc
 1845 02b8 17130000 		.4byte	.LASF73
 1846 02bc C156     		.2byte	0x56c1
ARM GAS  C:\Users\Aluno\AppData\Local\Temp\cccS7k0x.s 			page 49


 1847 02be 0C       		.uleb128 0xc
 1848 02bf ED130000 		.4byte	.LASF74
 1849 02c3 C256     		.2byte	0x56c2
 1850 02c5 0C       		.uleb128 0xc
 1851 02c6 3E0E0000 		.4byte	.LASF75
 1852 02ca 1D57     		.2byte	0x571d
 1853 02cc 0C       		.uleb128 0xc
 1854 02cd AB0E0000 		.4byte	.LASF76
 1855 02d1 1E57     		.2byte	0x571e
 1856 02d3 0C       		.uleb128 0xc
 1857 02d4 1F070000 		.4byte	.LASF77
 1858 02d8 8157     		.2byte	0x5781
 1859 02da 0C       		.uleb128 0xc
 1860 02db 8F0F0000 		.4byte	.LASF78
 1861 02df 8257     		.2byte	0x5782
 1862 02e1 0C       		.uleb128 0xc
 1863 02e2 BF030000 		.4byte	.LASF79
 1864 02e6 8357     		.2byte	0x5783
 1865 02e8 0C       		.uleb128 0xc
 1866 02e9 E8000000 		.4byte	.LASF80
 1867 02ed D859     		.2byte	0x59d8
 1868 02ef 0C       		.uleb128 0xc
 1869 02f0 C8060000 		.4byte	.LASF81
 1870 02f4 D959     		.2byte	0x59d9
 1871 02f6 0C       		.uleb128 0xc
 1872 02f7 17050000 		.4byte	.LASF82
 1873 02fb DA59     		.2byte	0x59da
 1874 02fd 0C       		.uleb128 0xc
 1875 02fe F1000000 		.4byte	.LASF83
 1876 0302 C05D     		.2byte	0x5dc0
 1877 0304 0C       		.uleb128 0xc
 1878 0305 13040000 		.4byte	.LASF84
 1879 0309 C15D     		.2byte	0x5dc1
 1880 030b 0C       		.uleb128 0xc
 1881 030c DA090000 		.4byte	.LASF85
 1882 0310 C25D     		.2byte	0x5dc2
 1883 0312 0C       		.uleb128 0xc
 1884 0313 780B0000 		.4byte	.LASF86
 1885 0317 C35D     		.2byte	0x5dc3
 1886 0319 0C       		.uleb128 0xc
 1887 031a 180F0000 		.4byte	.LASF87
 1888 031e C45D     		.2byte	0x5dc4
 1889 0320 0C       		.uleb128 0xc
 1890 0321 2E090000 		.4byte	.LASF88
 1891 0325 255E     		.2byte	0x5e25
 1892 0327 0C       		.uleb128 0xc
 1893 0328 520D0000 		.4byte	.LASF89
 1894 032c 895E     		.2byte	0x5e89
 1895 032e 0C       		.uleb128 0xc
 1896 032f C8070000 		.4byte	.LASF90
 1897 0333 8A5E     		.2byte	0x5e8a
 1898 0335 0C       		.uleb128 0xc
 1899 0336 FA000000 		.4byte	.LASF91
 1900 033a A861     		.2byte	0x61a8
 1901 033c 0C       		.uleb128 0xc
 1902 033d 95120000 		.4byte	.LASF92
 1903 0341 A961     		.2byte	0x61a9
ARM GAS  C:\Users\Aluno\AppData\Local\Temp\cccS7k0x.s 			page 50


 1904 0343 0C       		.uleb128 0xc
 1905 0344 FD0F0000 		.4byte	.LASF93
 1906 0348 AA61     		.2byte	0x61aa
 1907 034a 0C       		.uleb128 0xc
 1908 034b 630F0000 		.4byte	.LASF94
 1909 034f AB61     		.2byte	0x61ab
 1910 0351 0C       		.uleb128 0xc
 1911 0352 F50A0000 		.4byte	.LASF95
 1912 0356 AC61     		.2byte	0x61ac
 1913 0358 0C       		.uleb128 0xc
 1914 0359 E1120000 		.4byte	.LASF96
 1915 035d AD61     		.2byte	0x61ad
 1916 035f 0C       		.uleb128 0xc
 1917 0360 31110000 		.4byte	.LASF97
 1918 0364 AE61     		.2byte	0x61ae
 1919 0366 0C       		.uleb128 0xc
 1920 0367 84020000 		.4byte	.LASF98
 1921 036b AF61     		.2byte	0x61af
 1922 036d 0C       		.uleb128 0xc
 1923 036e 28020000 		.4byte	.LASF99
 1924 0372 B061     		.2byte	0x61b0
 1925 0374 0C       		.uleb128 0xc
 1926 0375 02050000 		.4byte	.LASF100
 1927 0379 0D62     		.2byte	0x620d
 1928 037b 0C       		.uleb128 0xc
 1929 037c 1C100000 		.4byte	.LASF101
 1930 0380 0E62     		.2byte	0x620e
 1931 0382 0C       		.uleb128 0xc
 1932 0383 D2130000 		.4byte	.LASF102
 1933 0387 7162     		.2byte	0x6271
 1934 0389 0C       		.uleb128 0xc
 1935 038a D5120000 		.4byte	.LASF103
 1936 038e 7262     		.2byte	0x6272
 1937 0390 0C       		.uleb128 0xc
 1938 0391 07000000 		.4byte	.LASF104
 1939 0395 7362     		.2byte	0x6273
 1940 0397 0C       		.uleb128 0xc
 1941 0398 220D0000 		.4byte	.LASF105
 1942 039c D562     		.2byte	0x62d5
 1943 039e 0C       		.uleb128 0xc
 1944 039f 03010000 		.4byte	.LASF106
 1945 03a3 9065     		.2byte	0x6590
 1946 03a5 0C       		.uleb128 0xc
 1947 03a6 76110000 		.4byte	.LASF107
 1948 03aa 9165     		.2byte	0x6591
 1949 03ac 0C       		.uleb128 0xc
 1950 03ad 87060000 		.4byte	.LASF108
 1951 03b1 9265     		.2byte	0x6592
 1952 03b3 0C       		.uleb128 0xc
 1953 03b4 EA080000 		.4byte	.LASF109
 1954 03b8 9365     		.2byte	0x6593
 1955 03ba 0C       		.uleb128 0xc
 1956 03bb 2E0A0000 		.4byte	.LASF110
 1957 03bf 9465     		.2byte	0x6594
 1958 03c1 0C       		.uleb128 0xc
 1959 03c2 0C010000 		.4byte	.LASF111
 1960 03c6 7869     		.2byte	0x6978
ARM GAS  C:\Users\Aluno\AppData\Local\Temp\cccS7k0x.s 			page 51


 1961 03c8 0C       		.uleb128 0xc
 1962 03c9 8C0B0000 		.4byte	.LASF112
 1963 03cd 7969     		.2byte	0x6979
 1964 03cf 0C       		.uleb128 0xc
 1965 03d0 AB0D0000 		.4byte	.LASF113
 1966 03d4 7A69     		.2byte	0x697a
 1967 03d6 0C       		.uleb128 0xc
 1968 03d7 440B0000 		.4byte	.LASF114
 1969 03db 7B69     		.2byte	0x697b
 1970 03dd 0C       		.uleb128 0xc
 1971 03de 15010000 		.4byte	.LASF115
 1972 03e2 606D     		.2byte	0x6d60
 1973 03e4 0C       		.uleb128 0xc
 1974 03e5 48090000 		.4byte	.LASF116
 1975 03e9 616D     		.2byte	0x6d61
 1976 03eb 0C       		.uleb128 0xc
 1977 03ec C5080000 		.4byte	.LASF117
 1978 03f0 626D     		.2byte	0x6d62
 1979 03f2 0C       		.uleb128 0xc
 1980 03f3 64120000 		.4byte	.LASF118
 1981 03f7 636D     		.2byte	0x6d63
 1982 03f9 0C       		.uleb128 0xc
 1983 03fa BD120000 		.4byte	.LASF119
 1984 03fe 646D     		.2byte	0x6d64
 1985 0400 0C       		.uleb128 0xc
 1986 0401 540E0000 		.4byte	.LASF120
 1987 0405 656D     		.2byte	0x6d65
 1988 0407 0C       		.uleb128 0xc
 1989 0408 5B130000 		.4byte	.LASF121
 1990 040c C56D     		.2byte	0x6dc5
 1991 040e 0C       		.uleb128 0xc
 1992 040f 45130000 		.4byte	.LASF122
 1993 0413 C66D     		.2byte	0x6dc6
 1994 0415 0C       		.uleb128 0xc
 1995 0416 5C020000 		.4byte	.LASF123
 1996 041a 296E     		.2byte	0x6e29
 1997 041c 0C       		.uleb128 0xc
 1998 041d 7B090000 		.4byte	.LASF124
 1999 0421 2A6E     		.2byte	0x6e2a
 2000 0423 0C       		.uleb128 0xc
 2001 0424 27080000 		.4byte	.LASF125
 2002 0428 2B6E     		.2byte	0x6e2b
 2003 042a 0C       		.uleb128 0xc
 2004 042b AB0F0000 		.4byte	.LASF126
 2005 042f 2C6E     		.2byte	0x6e2c
 2006 0431 0C       		.uleb128 0xc
 2007 0432 350D0000 		.4byte	.LASF127
 2008 0436 2D6E     		.2byte	0x6e2d
 2009 0438 0C       		.uleb128 0xc
 2010 0439 12110000 		.4byte	.LASF128
 2011 043d 2E6E     		.2byte	0x6e2e
 2012 043f 0C       		.uleb128 0xc
 2013 0440 F5010000 		.4byte	.LASF129
 2014 0444 2F6E     		.2byte	0x6e2f
 2015 0446 0C       		.uleb128 0xc
 2016 0447 6A100000 		.4byte	.LASF130
 2017 044b 306E     		.2byte	0x6e30
ARM GAS  C:\Users\Aluno\AppData\Local\Temp\cccS7k0x.s 			page 52


 2018 044d 0C       		.uleb128 0xc
 2019 044e 40100000 		.4byte	.LASF131
 2020 0452 316E     		.2byte	0x6e31
 2021 0454 0C       		.uleb128 0xc
 2022 0455 1E010000 		.4byte	.LASF132
 2023 0459 4871     		.2byte	0x7148
 2024 045b 0C       		.uleb128 0xc
 2025 045c 40020000 		.4byte	.LASF133
 2026 0460 4971     		.2byte	0x7149
 2027 0462 0C       		.uleb128 0xc
 2028 0463 8C070000 		.4byte	.LASF134
 2029 0467 4A71     		.2byte	0x714a
 2030 0469 0C       		.uleb128 0xc
 2031 046a B9110000 		.4byte	.LASF135
 2032 046e 4B71     		.2byte	0x714b
 2033 0470 0C       		.uleb128 0xc
 2034 0471 6A130000 		.4byte	.LASF136
 2035 0475 4C71     		.2byte	0x714c
 2036 0477 0C       		.uleb128 0xc
 2037 0478 12060000 		.4byte	.LASF137
 2038 047c 4D71     		.2byte	0x714d
 2039 047e 0C       		.uleb128 0xc
 2040 047f 020D0000 		.4byte	.LASF138
 2041 0483 4E71     		.2byte	0x714e
 2042 0485 0C       		.uleb128 0xc
 2043 0486 810C0000 		.4byte	.LASF139
 2044 048a 4F71     		.2byte	0x714f
 2045 048c 0C       		.uleb128 0xc
 2046 048d C40B0000 		.4byte	.LASF140
 2047 0491 5071     		.2byte	0x7150
 2048 0493 0C       		.uleb128 0xc
 2049 0494 4A030000 		.4byte	.LASF141
 2050 0498 5171     		.2byte	0x7151
 2051 049a 0C       		.uleb128 0xc
 2052 049b 6B0C0000 		.4byte	.LASF142
 2053 049f 5271     		.2byte	0x7152
 2054 04a1 0C       		.uleb128 0xc
 2055 04a2 30030000 		.4byte	.LASF143
 2056 04a6 5371     		.2byte	0x7153
 2057 04a8 0C       		.uleb128 0xc
 2058 04a9 A3100000 		.4byte	.LASF144
 2059 04ad 5471     		.2byte	0x7154
 2060 04af 0C       		.uleb128 0xc
 2061 04b0 11020000 		.4byte	.LASF145
 2062 04b4 5571     		.2byte	0x7155
 2063 04b6 0C       		.uleb128 0xc
 2064 04b7 DC040000 		.4byte	.LASF146
 2065 04bb 5671     		.2byte	0x7156
 2066 04bd 0C       		.uleb128 0xc
 2067 04be EB0E0000 		.4byte	.LASF147
 2068 04c2 5771     		.2byte	0x7157
 2069 04c4 0C       		.uleb128 0xc
 2070 04c5 B6050000 		.4byte	.LASF148
 2071 04c9 5871     		.2byte	0x7158
 2072 04cb 0C       		.uleb128 0xc
 2073 04cc 110E0000 		.4byte	.LASF149
 2074 04d0 5971     		.2byte	0x7159
ARM GAS  C:\Users\Aluno\AppData\Local\Temp\cccS7k0x.s 			page 53


 2075 04d2 0C       		.uleb128 0xc
 2076 04d3 2F130000 		.4byte	.LASF150
 2077 04d7 5A71     		.2byte	0x715a
 2078 04d9 0C       		.uleb128 0xc
 2079 04da 39040000 		.4byte	.LASF151
 2080 04de 5B71     		.2byte	0x715b
 2081 04e0 0C       		.uleb128 0xc
 2082 04e1 F2050000 		.4byte	.LASF152
 2083 04e5 5C71     		.2byte	0x715c
 2084 04e7 0C       		.uleb128 0xc
 2085 04e8 A7030000 		.4byte	.LASF153
 2086 04ec 5D71     		.2byte	0x715d
 2087 04ee 0C       		.uleb128 0xc
 2088 04ef B20C0000 		.4byte	.LASF154
 2089 04f3 5E71     		.2byte	0x715e
 2090 04f5 0C       		.uleb128 0xc
 2091 04f6 81030000 		.4byte	.LASF155
 2092 04fa 5F71     		.2byte	0x715f
 2093 04fc 0C       		.uleb128 0xc
 2094 04fd 61060000 		.4byte	.LASF156
 2095 0501 AD71     		.2byte	0x71ad
 2096 0503 0C       		.uleb128 0xc
 2097 0504 89050000 		.4byte	.LASF157
 2098 0508 C071     		.2byte	0x71c0
 2099 050a 0C       		.uleb128 0xc
 2100 050b F30C0000 		.4byte	.LASF158
 2101 050f C171     		.2byte	0x71c1
 2102 0511 0C       		.uleb128 0xc
 2103 0512 1F120000 		.4byte	.LASF159
 2104 0516 C271     		.2byte	0x71c2
 2105 0518 0C       		.uleb128 0xc
 2106 0519 1C090000 		.4byte	.LASF160
 2107 051d C371     		.2byte	0x71c3
 2108 051f 0C       		.uleb128 0xc
 2109 0520 02070000 		.4byte	.LASF161
 2110 0524 C471     		.2byte	0x71c4
 2111 0526 0C       		.uleb128 0xc
 2112 0527 B9130000 		.4byte	.LASF162
 2113 052b 1172     		.2byte	0x7211
 2114 052d 0C       		.uleb128 0xc
 2115 052e 930E0000 		.4byte	.LASF163
 2116 0532 1272     		.2byte	0x7212
 2117 0534 0C       		.uleb128 0xc
 2118 0535 B8010000 		.4byte	.LASF164
 2119 0539 1372     		.2byte	0x7213
 2120 053b 0C       		.uleb128 0xc
 2121 053c 480C0000 		.4byte	.LASF165
 2122 0540 1472     		.2byte	0x7214
 2123 0542 0C       		.uleb128 0xc
 2124 0543 2C100000 		.4byte	.LASF166
 2125 0547 7572     		.2byte	0x7275
 2126 0549 0C       		.uleb128 0xc
 2127 054a 9E130000 		.4byte	.LASF167
 2128 054e 7672     		.2byte	0x7276
 2129 0550 0C       		.uleb128 0xc
 2130 0551 7F130000 		.4byte	.LASF168
 2131 0555 7772     		.2byte	0x7277
ARM GAS  C:\Users\Aluno\AppData\Local\Temp\cccS7k0x.s 			page 54


 2132 0557 0C       		.uleb128 0xc
 2133 0558 42070000 		.4byte	.LASF169
 2134 055c 7872     		.2byte	0x7278
 2135 055e 0C       		.uleb128 0xc
 2136 055f 57000000 		.4byte	.LASF170
 2137 0563 7972     		.2byte	0x7279
 2138 0565 0C       		.uleb128 0xc
 2139 0566 9D110000 		.4byte	.LASF171
 2140 056a 7A72     		.2byte	0x727a
 2141 056c 0C       		.uleb128 0xc
 2142 056d 96060000 		.4byte	.LASF172
 2143 0571 7B72     		.2byte	0x727b
 2144 0573 0C       		.uleb128 0xc
 2145 0574 94090000 		.4byte	.LASF173
 2146 0578 7C72     		.2byte	0x727c
 2147 057a 0C       		.uleb128 0xc
 2148 057b 970D0000 		.4byte	.LASF174
 2149 057f 7D72     		.2byte	0x727d
 2150 0581 0C       		.uleb128 0xc
 2151 0582 FD070000 		.4byte	.LASF175
 2152 0586 7E72     		.2byte	0x727e
 2153 0588 0C       		.uleb128 0xc
 2154 0589 C9100000 		.4byte	.LASF176
 2155 058d D972     		.2byte	0x72d9
 2156 058f 0C       		.uleb128 0xc
 2157 0590 75050000 		.4byte	.LASF177
 2158 0594 3D73     		.2byte	0x733d
 2159 0596 0C       		.uleb128 0xc
 2160 0597 A1080000 		.4byte	.LASF178
 2161 059b 3E73     		.2byte	0x733e
 2162 059d 0C       		.uleb128 0xc
 2163 059e B0040000 		.4byte	.LASF179
 2164 05a2 3F73     		.2byte	0x733f
 2165 05a4 0C       		.uleb128 0xc
 2166 05a5 4B010000 		.4byte	.LASF180
 2167 05a9 4073     		.2byte	0x7340
 2168 05ab 0C       		.uleb128 0xc
 2169 05ac E0030000 		.4byte	.LASF181
 2170 05b0 4173     		.2byte	0x7341
 2171 05b2 0C       		.uleb128 0xc
 2172 05b3 D2050000 		.4byte	.LASF182
 2173 05b7 4273     		.2byte	0x7342
 2174 05b9 0C       		.uleb128 0xc
 2175 05ba 48000000 		.4byte	.LASF183
 2176 05be 4373     		.2byte	0x7343
 2177 05c0 0C       		.uleb128 0xc
 2178 05c1 5E050000 		.4byte	.LASF184
 2179 05c5 4473     		.2byte	0x7344
 2180 05c7 0C       		.uleb128 0xc
 2181 05c8 5C070000 		.4byte	.LASF185
 2182 05cc 4573     		.2byte	0x7345
 2183 05ce 0C       		.uleb128 0xc
 2184 05cf 950C0000 		.4byte	.LASF186
 2185 05d3 4673     		.2byte	0x7346
 2186 05d5 0C       		.uleb128 0xc
 2187 05d6 38060000 		.4byte	.LASF187
 2188 05da 4773     		.2byte	0x7347
ARM GAS  C:\Users\Aluno\AppData\Local\Temp\cccS7k0x.s 			page 55


 2189 05dc 0C       		.uleb128 0xc
 2190 05dd 2C0C0000 		.4byte	.LASF188
 2191 05e1 4873     		.2byte	0x7348
 2192 05e3 0C       		.uleb128 0xc
 2193 05e4 82100000 		.4byte	.LASF189
 2194 05e8 4973     		.2byte	0x7349
 2195 05ea 0C       		.uleb128 0xc
 2196 05eb 27010000 		.4byte	.LASF190
 2197 05ef 3075     		.2byte	0x7530
 2198 05f1 0C       		.uleb128 0xc
 2199 05f2 30010000 		.4byte	.LASF191
 2200 05f6 1879     		.2byte	0x7918
 2201 05f8 0C       		.uleb128 0xc
 2202 05f9 39010000 		.4byte	.LASF192
 2203 05fd 007D     		.2byte	0x7d00
 2204 05ff 0C       		.uleb128 0xc
 2205 0600 42010000 		.4byte	.LASF193
 2206 0604 E880     		.2byte	0x80e8
 2207 0606 0C       		.uleb128 0xc
 2208 0607 28110000 		.4byte	.LASF194
 2209 060b D084     		.2byte	0x84d0
 2210 060d 0C       		.uleb128 0xc
 2211 060e C9090000 		.4byte	.LASF195
 2212 0612 D184     		.2byte	0x84d1
 2213 0614 0C       		.uleb128 0xc
 2214 0615 41110000 		.4byte	.LASF196
 2215 0619 B888     		.2byte	0x88b8
 2216 061b 00       		.byte	0
 2217 061c 09       		.uleb128 0x9
 2218 061d 1B000000 		.4byte	.LASF197
 2219 0621 05       		.byte	0x5
 2220 0622 7202     		.2byte	0x272
 2221 0624 A4010000 		.4byte	0x1a4
 2222 0628 09       		.uleb128 0x9
 2223 0629 93080000 		.4byte	.LASF198
 2224 062d 05       		.byte	0x5
 2225 062e 8202     		.2byte	0x282
 2226 0630 34060000 		.4byte	0x634
 2227 0634 0D       		.uleb128 0xd
 2228 0635 5A060000 		.4byte	.LASF204
 2229 0639 10       		.byte	0x10
 2230 063a 05       		.byte	0x5
 2231 063b 4003     		.2byte	0x340
 2232 063d 76060000 		.4byte	0x676
 2233 0641 0E       		.uleb128 0xe
 2234 0642 4A0D0000 		.4byte	.LASF199
 2235 0646 05       		.byte	0x5
 2236 0647 4103     		.2byte	0x341
 2237 0649 AC0B0000 		.4byte	0xbac
 2238 064d 00       		.byte	0
 2239 064e 0E       		.uleb128 0xe
 2240 064f 18120000 		.4byte	.LASF200
 2241 0653 05       		.byte	0x5
 2242 0654 4203     		.2byte	0x342
 2243 0656 AF000000 		.4byte	0xaf
 2244 065a 04       		.byte	0x4
 2245 065b 0E       		.uleb128 0xe
ARM GAS  C:\Users\Aluno\AppData\Local\Temp\cccS7k0x.s 			page 56


 2246 065c 870F0000 		.4byte	.LASF201
 2247 0660 05       		.byte	0x5
 2248 0661 4303     		.2byte	0x343
 2249 0663 2B010000 		.4byte	0x12b
 2250 0667 08       		.byte	0x8
 2251 0668 0E       		.uleb128 0xe
 2252 0669 E2110000 		.4byte	.LASF202
 2253 066d 05       		.byte	0x5
 2254 066e 4403     		.2byte	0x344
 2255 0670 E9000000 		.4byte	0xe9
 2256 0674 0C       		.byte	0xc
 2257 0675 00       		.byte	0
 2258 0676 09       		.uleb128 0x9
 2259 0677 BB090000 		.4byte	.LASF203
 2260 067b 05       		.byte	0x5
 2261 067c 8402     		.2byte	0x284
 2262 067e 82060000 		.4byte	0x682
 2263 0682 0D       		.uleb128 0xd
 2264 0683 E4130000 		.4byte	.LASF205
 2265 0687 10       		.byte	0x10
 2266 0688 05       		.byte	0x5
 2267 0689 5303     		.2byte	0x353
 2268 068b D1060000 		.4byte	0x6d1
 2269 068f 0E       		.uleb128 0xe
 2270 0690 4A0F0000 		.4byte	.LASF206
 2271 0694 05       		.byte	0x5
 2272 0695 5403     		.2byte	0x354
 2273 0697 AC0B0000 		.4byte	0xbac
 2274 069b 00       		.byte	0
 2275 069c 0E       		.uleb128 0xe
 2276 069d 62110000 		.4byte	.LASF207
 2277 06a1 05       		.byte	0x5
 2278 06a2 5503     		.2byte	0x355
 2279 06a4 AC0B0000 		.4byte	0xbac
 2280 06a8 04       		.byte	0x4
 2281 06a9 0E       		.uleb128 0xe
 2282 06aa EE070000 		.4byte	.LASF208
 2283 06ae 05       		.byte	0x5
 2284 06af 5603     		.2byte	0x356
 2285 06b1 20010000 		.4byte	0x120
 2286 06b5 08       		.byte	0x8
 2287 06b6 0E       		.uleb128 0xe
 2288 06b7 6C010000 		.4byte	.LASF209
 2289 06bb 05       		.byte	0x5
 2290 06bc 5703     		.2byte	0x357
 2291 06be 20010000 		.4byte	0x120
 2292 06c2 0A       		.byte	0xa
 2293 06c3 0E       		.uleb128 0xe
 2294 06c4 FC120000 		.4byte	.LASF210
 2295 06c8 05       		.byte	0x5
 2296 06c9 5803     		.2byte	0x358
 2297 06cb 20010000 		.4byte	0x120
 2298 06cf 0C       		.byte	0xc
 2299 06d0 00       		.byte	0
 2300 06d1 09       		.uleb128 0x9
 2301 06d2 EC010000 		.4byte	.LASF211
 2302 06d6 05       		.byte	0x5
ARM GAS  C:\Users\Aluno\AppData\Local\Temp\cccS7k0x.s 			page 57


 2303 06d7 8602     		.2byte	0x286
 2304 06d9 DD060000 		.4byte	0x6dd
 2305 06dd 0D       		.uleb128 0xd
 2306 06de 680D0000 		.4byte	.LASF212
 2307 06e2 2C       		.byte	0x2c
 2308 06e3 05       		.byte	0x5
 2309 06e4 6403     		.2byte	0x364
 2310 06e6 6C070000 		.4byte	0x76c
 2311 06ea 0E       		.uleb128 0xe
 2312 06eb C4090000 		.4byte	.LASF213
 2313 06ef 05       		.byte	0x5
 2314 06f0 6603     		.2byte	0x366
 2315 06f2 4C010000 		.4byte	0x14c
 2316 06f6 00       		.byte	0
 2317 06f7 0E       		.uleb128 0xe
 2318 06f8 A8090000 		.4byte	.LASF214
 2319 06fc 05       		.byte	0x5
 2320 06fd 6703     		.2byte	0x367
 2321 06ff A60B0000 		.4byte	0xba6
 2322 0703 04       		.byte	0x4
 2323 0704 0E       		.uleb128 0xe
 2324 0705 0F0F0000 		.4byte	.LASF215
 2325 0709 05       		.byte	0x5
 2326 070a 6803     		.2byte	0x368
 2327 070c EB0A0000 		.4byte	0xaeb
 2328 0710 08       		.byte	0x8
 2329 0711 0E       		.uleb128 0xe
 2330 0712 5E030000 		.4byte	.LASF216
 2331 0716 05       		.byte	0x5
 2332 0717 6A03     		.2byte	0x36a
 2333 0719 B20B0000 		.4byte	0xbb2
 2334 071d 14       		.byte	0x14
 2335 071e 0E       		.uleb128 0xe
 2336 071f 76030000 		.4byte	.LASF217
 2337 0723 05       		.byte	0x5
 2338 0724 6B03     		.2byte	0x36b
 2339 0726 B20B0000 		.4byte	0xbb2
 2340 072a 18       		.byte	0x18
 2341 072b 0E       		.uleb128 0xe
 2342 072c 57110000 		.4byte	.LASF218
 2343 0730 05       		.byte	0x5
 2344 0731 6C03     		.2byte	0x36c
 2345 0733 A60B0000 		.4byte	0xba6
 2346 0737 1C       		.byte	0x1c
 2347 0738 0E       		.uleb128 0xe
 2348 0739 C7040000 		.4byte	.LASF219
 2349 073d 05       		.byte	0x5
 2350 073e 6F03     		.2byte	0x36f
 2351 0740 940B0000 		.4byte	0xb94
 2352 0744 20       		.byte	0x20
 2353 0745 0E       		.uleb128 0xe
 2354 0746 7A070000 		.4byte	.LASF220
 2355 074a 05       		.byte	0x5
 2356 074b 7003     		.2byte	0x370
 2357 074d 62010000 		.4byte	0x162
 2358 0751 24       		.byte	0x24
 2359 0752 0E       		.uleb128 0xe
ARM GAS  C:\Users\Aluno\AppData\Local\Temp\cccS7k0x.s 			page 58


 2360 0753 9B010000 		.4byte	.LASF221
 2361 0757 05       		.byte	0x5
 2362 0758 7103     		.2byte	0x371
 2363 075a 36010000 		.4byte	0x136
 2364 075e 25       		.byte	0x25
 2365 075f 0F       		.uleb128 0xf
 2366 0760 545300   		.ascii	"TS\000"
 2367 0763 05       		.byte	0x5
 2368 0764 7203     		.2byte	0x372
 2369 0766 E9000000 		.4byte	0xe9
 2370 076a 28       		.byte	0x28
 2371 076b 00       		.byte	0
 2372 076c 09       		.uleb128 0x9
 2373 076d F0100000 		.4byte	.LASF222
 2374 0771 05       		.byte	0x5
 2375 0772 8E02     		.2byte	0x28e
 2376 0774 9E000000 		.4byte	0x9e
 2377 0778 09       		.uleb128 0x9
 2378 0779 63100000 		.4byte	.LASF223
 2379 077d 05       		.byte	0x5
 2380 077e 9002     		.2byte	0x290
 2381 0780 84070000 		.4byte	0x784
 2382 0784 0D       		.uleb128 0xd
 2383 0785 00000000 		.4byte	.LASF224
 2384 0789 C0       		.byte	0xc0
 2385 078a 05       		.byte	0x5
 2386 078b AB03     		.2byte	0x3ab
 2387 078d 280A0000 		.4byte	0xa28
 2388 0791 0E       		.uleb128 0xe
 2389 0792 130A0000 		.4byte	.LASF225
 2390 0796 05       		.byte	0x5
 2391 0797 AC03     		.2byte	0x3ac
 2392 0799 B80B0000 		.4byte	0xbb8
 2393 079d 00       		.byte	0
 2394 079e 0E       		.uleb128 0xe
 2395 079f DC0F0000 		.4byte	.LASF226
 2396 07a3 05       		.byte	0x5
 2397 07a4 AE03     		.2byte	0x3ae
 2398 07a6 AF000000 		.4byte	0xaf
 2399 07aa 04       		.byte	0x4
 2400 07ab 0E       		.uleb128 0xe
 2401 07ac 090C0000 		.4byte	.LASF227
 2402 07b0 05       		.byte	0x5
 2403 07b1 B003     		.2byte	0x3b0
 2404 07b3 B80B0000 		.4byte	0xbb8
 2405 07b7 08       		.byte	0x8
 2406 07b8 0E       		.uleb128 0xe
 2407 07b9 4A0D0000 		.4byte	.LASF199
 2408 07bd 05       		.byte	0x5
 2409 07be B203     		.2byte	0x3b2
 2410 07c0 940B0000 		.4byte	0xb94
 2411 07c4 0C       		.byte	0xc
 2412 07c5 0E       		.uleb128 0xe
 2413 07c6 03090000 		.4byte	.LASF228
 2414 07ca 05       		.byte	0x5
 2415 07cb B303     		.2byte	0x3b3
 2416 07cd 940B0000 		.4byte	0xb94
ARM GAS  C:\Users\Aluno\AppData\Local\Temp\cccS7k0x.s 			page 59


 2417 07d1 10       		.byte	0x10
 2418 07d2 0E       		.uleb128 0xe
 2419 07d3 5F0C0000 		.4byte	.LASF229
 2420 07d7 05       		.byte	0x5
 2421 07d8 B503     		.2byte	0x3b5
 2422 07da 940B0000 		.4byte	0xb94
 2423 07de 14       		.byte	0x14
 2424 07df 0E       		.uleb128 0xe
 2425 07e0 12080000 		.4byte	.LASF230
 2426 07e4 05       		.byte	0x5
 2427 07e5 B603     		.2byte	0x3b6
 2428 07e7 940B0000 		.4byte	0xb94
 2429 07eb 18       		.byte	0x18
 2430 07ec 0E       		.uleb128 0xe
 2431 07ed 4A110000 		.4byte	.LASF231
 2432 07f1 05       		.byte	0x5
 2433 07f2 B803     		.2byte	0x3b8
 2434 07f4 BE0B0000 		.4byte	0xbbe
 2435 07f8 1C       		.byte	0x1c
 2436 07f9 0E       		.uleb128 0xe
 2437 07fa A8090000 		.4byte	.LASF214
 2438 07fe 05       		.byte	0x5
 2439 07ff BA03     		.2byte	0x3ba
 2440 0801 A60B0000 		.4byte	0xba6
 2441 0805 20       		.byte	0x20
 2442 0806 0E       		.uleb128 0xe
 2443 0807 7C060000 		.4byte	.LASF232
 2444 080b 05       		.byte	0x5
 2445 080c BC03     		.2byte	0x3bc
 2446 080e B80B0000 		.4byte	0xbb8
 2447 0812 24       		.byte	0x24
 2448 0813 0E       		.uleb128 0xe
 2449 0814 6D090000 		.4byte	.LASF233
 2450 0818 05       		.byte	0x5
 2451 0819 C203     		.2byte	0x3c2
 2452 081b 6C070000 		.4byte	0x76c
 2453 081f 28       		.byte	0x28
 2454 0820 0E       		.uleb128 0xe
 2455 0821 69110000 		.4byte	.LASF234
 2456 0825 05       		.byte	0x5
 2457 0826 C303     		.2byte	0x3c3
 2458 0828 AF000000 		.4byte	0xaf
 2459 082c 2C       		.byte	0x2c
 2460 082d 0E       		.uleb128 0xe
 2461 082e 280F0000 		.4byte	.LASF235
 2462 0832 05       		.byte	0x5
 2463 0833 C503     		.2byte	0x3c5
 2464 0835 9A0B0000 		.4byte	0xb9a
 2465 0839 30       		.byte	0x30
 2466 083a 0E       		.uleb128 0xe
 2467 083b F9030000 		.4byte	.LASF236
 2468 083f 05       		.byte	0x5
 2469 0840 C603     		.2byte	0x3c6
 2470 0842 83010000 		.4byte	0x183
 2471 0846 34       		.byte	0x34
 2472 0847 0E       		.uleb128 0xe
 2473 0848 B0090000 		.4byte	.LASF237
ARM GAS  C:\Users\Aluno\AppData\Local\Temp\cccS7k0x.s 			page 60


 2474 084c 05       		.byte	0x5
 2475 084d C703     		.2byte	0x3c7
 2476 084f 8E010000 		.4byte	0x18e
 2477 0853 35       		.byte	0x35
 2478 0854 0E       		.uleb128 0xe
 2479 0855 F8060000 		.4byte	.LASF238
 2480 0859 05       		.byte	0x5
 2481 085a C903     		.2byte	0x3c9
 2482 085c 83010000 		.4byte	0x183
 2483 0860 36       		.byte	0x36
 2484 0861 0E       		.uleb128 0xe
 2485 0862 89120000 		.4byte	.LASF239
 2486 0866 05       		.byte	0x5
 2487 0867 CA03     		.2byte	0x3ca
 2488 0869 62010000 		.4byte	0x162
 2489 086d 37       		.byte	0x37
 2490 086e 0E       		.uleb128 0xe
 2491 086f 74060000 		.4byte	.LASF240
 2492 0873 05       		.byte	0x5
 2493 0874 CB03     		.2byte	0x3cb
 2494 0876 C7000000 		.4byte	0xc7
 2495 087a 38       		.byte	0x38
 2496 087b 0F       		.uleb128 0xf
 2497 087c 4F707400 		.ascii	"Opt\000"
 2498 0880 05       		.byte	0x5
 2499 0881 CC03     		.2byte	0x3cc
 2500 0883 57010000 		.4byte	0x157
 2501 0887 3C       		.byte	0x3c
 2502 0888 0E       		.uleb128 0xe
 2503 0889 00040000 		.4byte	.LASF241
 2504 088d 05       		.byte	0x5
 2505 088e CE03     		.2byte	0x3ce
 2506 0890 41010000 		.4byte	0x141
 2507 0894 3E       		.byte	0x3e
 2508 0895 0F       		.uleb128 0xf
 2509 0896 545300   		.ascii	"TS\000"
 2510 0899 05       		.byte	0x5
 2511 089a D003     		.2byte	0x3d0
 2512 089c E9000000 		.4byte	0xe9
 2513 08a0 40       		.byte	0x40
 2514 08a1 0E       		.uleb128 0xe
 2515 08a2 370F0000 		.4byte	.LASF242
 2516 08a6 05       		.byte	0x5
 2517 08a7 D203     		.2byte	0x3d2
 2518 08a9 78010000 		.4byte	0x178
 2519 08ad 44       		.byte	0x44
 2520 08ae 0E       		.uleb128 0xe
 2521 08af E2070000 		.4byte	.LASF243
 2522 08b3 05       		.byte	0x5
 2523 08b4 D503     		.2byte	0x3d5
 2524 08b6 99010000 		.4byte	0x199
 2525 08ba 48       		.byte	0x48
 2526 08bb 0E       		.uleb128 0xe
 2527 08bc 64040000 		.4byte	.LASF244
 2528 08c0 05       		.byte	0x5
 2529 08c1 D603     		.2byte	0x3d6
 2530 08c3 99010000 		.4byte	0x199
ARM GAS  C:\Users\Aluno\AppData\Local\Temp\cccS7k0x.s 			page 61


 2531 08c7 4C       		.byte	0x4c
 2532 08c8 0E       		.uleb128 0xe
 2533 08c9 500F0000 		.4byte	.LASF245
 2534 08cd 05       		.byte	0x5
 2535 08ce D703     		.2byte	0x3d7
 2536 08d0 99010000 		.4byte	0x199
 2537 08d4 50       		.byte	0x50
 2538 08d5 0E       		.uleb128 0xe
 2539 08d6 93130000 		.4byte	.LASF246
 2540 08da 05       		.byte	0x5
 2541 08db D903     		.2byte	0x3d9
 2542 08dd 99010000 		.4byte	0x199
 2543 08e1 54       		.byte	0x54
 2544 08e2 0E       		.uleb128 0xe
 2545 08e3 E0060000 		.4byte	.LASF247
 2546 08e7 05       		.byte	0x5
 2547 08e8 DA03     		.2byte	0x3da
 2548 08ea 99010000 		.4byte	0x199
 2549 08ee 58       		.byte	0x58
 2550 08ef 0E       		.uleb128 0xe
 2551 08f0 18120000 		.4byte	.LASF200
 2552 08f4 05       		.byte	0x5
 2553 08f5 DD03     		.2byte	0x3dd
 2554 08f7 AF000000 		.4byte	0xaf
 2555 08fb 5C       		.byte	0x5c
 2556 08fc 0E       		.uleb128 0xe
 2557 08fd 870F0000 		.4byte	.LASF201
 2558 0901 05       		.byte	0x5
 2559 0902 DE03     		.2byte	0x3de
 2560 0904 2B010000 		.4byte	0x12b
 2561 0908 60       		.byte	0x60
 2562 0909 0E       		.uleb128 0xe
 2563 090a 68090000 		.4byte	.LASF248
 2564 090e 05       		.byte	0x5
 2565 090f E203     		.2byte	0x3e2
 2566 0911 76060000 		.4byte	0x676
 2567 0915 64       		.byte	0x64
 2568 0916 0E       		.uleb128 0xe
 2569 0917 86080000 		.4byte	.LASF249
 2570 091b 05       		.byte	0x5
 2571 091c E403     		.2byte	0x3e4
 2572 091e E9000000 		.4byte	0xe9
 2573 0922 74       		.byte	0x74
 2574 0923 0E       		.uleb128 0xe
 2575 0924 76080000 		.4byte	.LASF250
 2576 0928 05       		.byte	0x5
 2577 0929 E503     		.2byte	0x3e5
 2578 092b E9000000 		.4byte	0xe9
 2579 092f 78       		.byte	0x78
 2580 0930 0E       		.uleb128 0xe
 2581 0931 54130000 		.4byte	.LASF251
 2582 0935 05       		.byte	0x5
 2583 0936 EA03     		.2byte	0x3ea
 2584 0938 C40B0000 		.4byte	0xbc4
 2585 093c 7C       		.byte	0x7c
 2586 093d 0E       		.uleb128 0xe
 2587 093e A6040000 		.4byte	.LASF252
ARM GAS  C:\Users\Aluno\AppData\Local\Temp\cccS7k0x.s 			page 62


 2588 0942 05       		.byte	0x5
 2589 0943 EE03     		.2byte	0x3ee
 2590 0945 15010000 		.4byte	0x115
 2591 0949 80       		.byte	0x80
 2592 094a 0E       		.uleb128 0xe
 2593 094b 1E080000 		.4byte	.LASF253
 2594 094f 05       		.byte	0x5
 2595 0950 EF03     		.2byte	0x3ef
 2596 0952 15010000 		.4byte	0x115
 2597 0956 84       		.byte	0x84
 2598 0957 0E       		.uleb128 0xe
 2599 0958 08020000 		.4byte	.LASF254
 2600 095c 05       		.byte	0x5
 2601 095d F003     		.2byte	0x3f0
 2602 095f 57010000 		.4byte	0x157
 2603 0963 88       		.byte	0x88
 2604 0964 0E       		.uleb128 0xe
 2605 0965 FE0B0000 		.4byte	.LASF255
 2606 0969 05       		.byte	0x5
 2607 096a F403     		.2byte	0x3f4
 2608 096c 36010000 		.4byte	0x136
 2609 0970 8A       		.byte	0x8a
 2610 0971 0E       		.uleb128 0xe
 2611 0972 B4120000 		.4byte	.LASF256
 2612 0976 05       		.byte	0x5
 2613 0977 F803     		.2byte	0x3f8
 2614 0979 F4000000 		.4byte	0xf4
 2615 097d 8C       		.byte	0x8c
 2616 097e 0E       		.uleb128 0xe
 2617 097f 030F0000 		.4byte	.LASF257
 2618 0983 05       		.byte	0x5
 2619 0984 F903     		.2byte	0x3f9
 2620 0986 F4000000 		.4byte	0xf4
 2621 098a 8E       		.byte	0x8e
 2622 098b 0E       		.uleb128 0xe
 2623 098c D3040000 		.4byte	.LASF258
 2624 0990 05       		.byte	0x5
 2625 0991 FA03     		.2byte	0x3fa
 2626 0993 FF000000 		.4byte	0xff
 2627 0997 90       		.byte	0x90
 2628 0998 0E       		.uleb128 0xe
 2629 0999 150C0000 		.4byte	.LASF259
 2630 099d 05       		.byte	0x5
 2631 099e FB03     		.2byte	0x3fb
 2632 09a0 E9000000 		.4byte	0xe9
 2633 09a4 94       		.byte	0x94
 2634 09a5 0E       		.uleb128 0xe
 2635 09a6 D80A0000 		.4byte	.LASF260
 2636 09aa 05       		.byte	0x5
 2637 09ab FC03     		.2byte	0x3fc
 2638 09ad E9000000 		.4byte	0xe9
 2639 09b1 98       		.byte	0x98
 2640 09b2 0E       		.uleb128 0xe
 2641 09b3 D30E0000 		.4byte	.LASF261
 2642 09b7 05       		.byte	0x5
 2643 09b8 FD03     		.2byte	0x3fd
 2644 09ba 0A010000 		.4byte	0x10a
ARM GAS  C:\Users\Aluno\AppData\Local\Temp\cccS7k0x.s 			page 63


 2645 09be 9C       		.byte	0x9c
 2646 09bf 0E       		.uleb128 0xe
 2647 09c0 830E0000 		.4byte	.LASF262
 2648 09c4 05       		.byte	0x5
 2649 09c5 FE03     		.2byte	0x3fe
 2650 09c7 0A010000 		.4byte	0x10a
 2651 09cb A0       		.byte	0xa0
 2652 09cc 0E       		.uleb128 0xe
 2653 09cd 160D0000 		.4byte	.LASF263
 2654 09d1 05       		.byte	0x5
 2655 09d2 0004     		.2byte	0x400
 2656 09d4 E9000000 		.4byte	0xe9
 2657 09d8 A4       		.byte	0xa4
 2658 09d9 0E       		.uleb128 0xe
 2659 09da 6C0E0000 		.4byte	.LASF264
 2660 09de 05       		.byte	0x5
 2661 09df 0104     		.2byte	0x401
 2662 09e1 E9000000 		.4byte	0xe9
 2663 09e5 A8       		.byte	0xa8
 2664 09e6 0E       		.uleb128 0xe
 2665 09e7 CA050000 		.4byte	.LASF265
 2666 09eb 05       		.byte	0x5
 2667 09ec 0504     		.2byte	0x405
 2668 09ee C7000000 		.4byte	0xc7
 2669 09f2 AC       		.byte	0xac
 2670 09f3 0E       		.uleb128 0xe
 2671 09f4 DA070000 		.4byte	.LASF266
 2672 09f8 05       		.byte	0x5
 2673 09f9 0604     		.2byte	0x406
 2674 09fb C7000000 		.4byte	0xc7
 2675 09ff B0       		.byte	0xb0
 2676 0a00 0E       		.uleb128 0xe
 2677 0a01 5E030000 		.4byte	.LASF216
 2678 0a05 05       		.byte	0x5
 2679 0a06 1104     		.2byte	0x411
 2680 0a08 940B0000 		.4byte	0xb94
 2681 0a0c B4       		.byte	0xb4
 2682 0a0d 0E       		.uleb128 0xe
 2683 0a0e 76030000 		.4byte	.LASF217
 2684 0a12 05       		.byte	0x5
 2685 0a13 1204     		.2byte	0x412
 2686 0a15 940B0000 		.4byte	0xb94
 2687 0a19 B8       		.byte	0xb8
 2688 0a1a 0E       		.uleb128 0xe
 2689 0a1b 57110000 		.4byte	.LASF218
 2690 0a1f 05       		.byte	0x5
 2691 0a20 1304     		.2byte	0x413
 2692 0a22 A60B0000 		.4byte	0xba6
 2693 0a26 BC       		.byte	0xbc
 2694 0a27 00       		.byte	0
 2695 0a28 09       		.uleb128 0x9
 2696 0a29 2F050000 		.4byte	.LASF267
 2697 0a2d 05       		.byte	0x5
 2698 0a2e 9E02     		.2byte	0x29e
 2699 0a30 340A0000 		.4byte	0xa34
 2700 0a34 0D       		.uleb128 0xd
 2701 0a35 1A0A0000 		.4byte	.LASF268
ARM GAS  C:\Users\Aluno\AppData\Local\Temp\cccS7k0x.s 			page 64


 2702 0a39 08       		.byte	0x8
 2703 0a3a 05       		.byte	0x5
 2704 0a3b 1E04     		.2byte	0x41e
 2705 0a3d 690A0000 		.4byte	0xa69
 2706 0a41 0E       		.uleb128 0xe
 2707 0a42 A20F0000 		.4byte	.LASF269
 2708 0a46 05       		.byte	0x5
 2709 0a47 1F04     		.2byte	0x41f
 2710 0a49 940B0000 		.4byte	0xb94
 2711 0a4d 00       		.byte	0
 2712 0a4e 0E       		.uleb128 0xe
 2713 0a4f 6C010000 		.4byte	.LASF209
 2714 0a53 05       		.byte	0x5
 2715 0a54 2004     		.2byte	0x420
 2716 0a56 41010000 		.4byte	0x141
 2717 0a5a 04       		.byte	0x4
 2718 0a5b 0E       		.uleb128 0xe
 2719 0a5c FC120000 		.4byte	.LASF210
 2720 0a60 05       		.byte	0x5
 2721 0a61 2104     		.2byte	0x421
 2722 0a63 41010000 		.4byte	0x141
 2723 0a67 06       		.byte	0x6
 2724 0a68 00       		.byte	0
 2725 0a69 09       		.uleb128 0x9
 2726 0a6a E5050000 		.4byte	.LASF270
 2727 0a6e 05       		.byte	0x5
 2728 0a6f A502     		.2byte	0x2a5
 2729 0a71 750A0000 		.4byte	0xa75
 2730 0a75 0D       		.uleb128 0xd
 2731 0a76 57120000 		.4byte	.LASF271
 2732 0a7a 20       		.byte	0x20
 2733 0a7b 05       		.byte	0x5
 2734 0a7c DD02     		.2byte	0x2dd
 2735 0a7e EB0A0000 		.4byte	0xaeb
 2736 0a82 0E       		.uleb128 0xe
 2737 0a83 03090000 		.4byte	.LASF228
 2738 0a87 05       		.byte	0x5
 2739 0a88 DE02     		.2byte	0x2de
 2740 0a8a 9A0B0000 		.4byte	0xb9a
 2741 0a8e 00       		.byte	0
 2742 0a8f 0E       		.uleb128 0xe
 2743 0a90 4A0D0000 		.4byte	.LASF199
 2744 0a94 05       		.byte	0x5
 2745 0a95 DF02     		.2byte	0x2df
 2746 0a97 9A0B0000 		.4byte	0xb9a
 2747 0a9b 04       		.byte	0x4
 2748 0a9c 0E       		.uleb128 0xe
 2749 0a9d EE0A0000 		.4byte	.LASF272
 2750 0aa1 05       		.byte	0x5
 2751 0aa2 E002     		.2byte	0x2e0
 2752 0aa4 940B0000 		.4byte	0xb94
 2753 0aa8 08       		.byte	0x8
 2754 0aa9 0E       		.uleb128 0xe
 2755 0aaa F1120000 		.4byte	.LASF273
 2756 0aae 05       		.byte	0x5
 2757 0aaf E102     		.2byte	0x2e1
 2758 0ab1 A00B0000 		.4byte	0xba0
ARM GAS  C:\Users\Aluno\AppData\Local\Temp\cccS7k0x.s 			page 65


 2759 0ab5 0C       		.byte	0xc
 2760 0ab6 0E       		.uleb128 0xe
 2761 0ab7 CB0C0000 		.4byte	.LASF274
 2762 0abb 05       		.byte	0x5
 2763 0abc E202     		.2byte	0x2e2
 2764 0abe A00B0000 		.4byte	0xba0
 2765 0ac2 10       		.byte	0x10
 2766 0ac3 0E       		.uleb128 0xe
 2767 0ac4 71040000 		.4byte	.LASF275
 2768 0ac8 05       		.byte	0x5
 2769 0ac9 E302     		.2byte	0x2e3
 2770 0acb AF000000 		.4byte	0xaf
 2771 0acf 14       		.byte	0x14
 2772 0ad0 0E       		.uleb128 0xe
 2773 0ad1 330E0000 		.4byte	.LASF276
 2774 0ad5 05       		.byte	0x5
 2775 0ad6 E402     		.2byte	0x2e4
 2776 0ad8 2B010000 		.4byte	0x12b
 2777 0adc 18       		.byte	0x18
 2778 0add 0E       		.uleb128 0xe
 2779 0ade F30D0000 		.4byte	.LASF277
 2780 0ae2 05       		.byte	0x5
 2781 0ae3 E502     		.2byte	0x2e5
 2782 0ae5 E9000000 		.4byte	0xe9
 2783 0ae9 1C       		.byte	0x1c
 2784 0aea 00       		.byte	0
 2785 0aeb 09       		.uleb128 0x9
 2786 0aec C9110000 		.4byte	.LASF278
 2787 0af0 05       		.byte	0x5
 2788 0af1 A602     		.2byte	0x2a6
 2789 0af3 F70A0000 		.4byte	0xaf7
 2790 0af7 0D       		.uleb128 0xd
 2791 0af8 0A130000 		.4byte	.LASF279
 2792 0afc 0C       		.byte	0xc
 2793 0afd 05       		.byte	0x5
 2794 0afe E902     		.2byte	0x2e9
 2795 0b00 2C0B0000 		.4byte	0xb2c
 2796 0b04 0E       		.uleb128 0xe
 2797 0b05 5B0F0000 		.4byte	.LASF280
 2798 0b09 05       		.byte	0x5
 2799 0b0a EA02     		.2byte	0x2ea
 2800 0b0c 9A0B0000 		.4byte	0xb9a
 2801 0b10 00       		.byte	0
 2802 0b11 0E       		.uleb128 0xe
 2803 0b12 31040000 		.4byte	.LASF281
 2804 0b16 05       		.byte	0x5
 2805 0b17 EB02     		.2byte	0x2eb
 2806 0b19 9A0B0000 		.4byte	0xb9a
 2807 0b1d 04       		.byte	0x4
 2808 0b1e 0E       		.uleb128 0xe
 2809 0b1f 6C010000 		.4byte	.LASF209
 2810 0b23 05       		.byte	0x5
 2811 0b24 EC02     		.2byte	0x2ec
 2812 0b26 41010000 		.4byte	0x141
 2813 0b2a 08       		.byte	0x8
 2814 0b2b 00       		.byte	0
 2815 0b2c 09       		.uleb128 0x9
ARM GAS  C:\Users\Aluno\AppData\Local\Temp\cccS7k0x.s 			page 66


 2816 0b2d DF0E0000 		.4byte	.LASF282
 2817 0b31 05       		.byte	0x5
 2818 0b32 A702     		.2byte	0x2a7
 2819 0b34 380B0000 		.4byte	0xb38
 2820 0b38 0D       		.uleb128 0xd
 2821 0b39 7B040000 		.4byte	.LASF283
 2822 0b3d 20       		.byte	0x20
 2823 0b3e 05       		.byte	0x5
 2824 0b3f FF02     		.2byte	0x2ff
 2825 0b41 940B0000 		.4byte	0xb94
 2826 0b45 0E       		.uleb128 0xe
 2827 0b46 C4090000 		.4byte	.LASF213
 2828 0b4a 05       		.byte	0x5
 2829 0b4b 0003     		.2byte	0x300
 2830 0b4d 4C010000 		.4byte	0x14c
 2831 0b51 00       		.byte	0
 2832 0b52 0E       		.uleb128 0xe
 2833 0b53 A8090000 		.4byte	.LASF214
 2834 0b57 05       		.byte	0x5
 2835 0b58 0103     		.2byte	0x301
 2836 0b5a A60B0000 		.4byte	0xba6
 2837 0b5e 04       		.byte	0x4
 2838 0b5f 0E       		.uleb128 0xe
 2839 0b60 0F0F0000 		.4byte	.LASF215
 2840 0b64 05       		.byte	0x5
 2841 0b65 0203     		.2byte	0x302
 2842 0b67 EB0A0000 		.4byte	0xaeb
 2843 0b6b 08       		.byte	0x8
 2844 0b6c 0E       		.uleb128 0xe
 2845 0b6d 5E030000 		.4byte	.LASF216
 2846 0b71 05       		.byte	0x5
 2847 0b72 0403     		.2byte	0x304
 2848 0b74 AF000000 		.4byte	0xaf
 2849 0b78 14       		.byte	0x14
 2850 0b79 0E       		.uleb128 0xe
 2851 0b7a 76030000 		.4byte	.LASF217
 2852 0b7e 05       		.byte	0x5
 2853 0b7f 0503     		.2byte	0x305
 2854 0b81 AF000000 		.4byte	0xaf
 2855 0b85 18       		.byte	0x18
 2856 0b86 0E       		.uleb128 0xe
 2857 0b87 57110000 		.4byte	.LASF218
 2858 0b8b 05       		.byte	0x5
 2859 0b8c 0603     		.2byte	0x306
 2860 0b8e A60B0000 		.4byte	0xba6
 2861 0b92 1C       		.byte	0x1c
 2862 0b93 00       		.byte	0
 2863 0b94 05       		.uleb128 0x5
 2864 0b95 04       		.byte	0x4
 2865 0b96 78070000 		.4byte	0x778
 2866 0b9a 05       		.uleb128 0x5
 2867 0b9b 04       		.byte	0x4
 2868 0b9c 690A0000 		.4byte	0xa69
 2869 0ba0 05       		.uleb128 0x5
 2870 0ba1 04       		.byte	0x4
 2871 0ba2 2C0B0000 		.4byte	0xb2c
 2872 0ba6 05       		.uleb128 0x5
ARM GAS  C:\Users\Aluno\AppData\Local\Temp\cccS7k0x.s 			page 67


 2873 0ba7 04       		.byte	0x4
 2874 0ba8 25000000 		.4byte	0x25
 2875 0bac 05       		.uleb128 0x5
 2876 0bad 04       		.byte	0x4
 2877 0bae 28060000 		.4byte	0x628
 2878 0bb2 05       		.uleb128 0x5
 2879 0bb3 04       		.byte	0x4
 2880 0bb4 D1060000 		.4byte	0x6d1
 2881 0bb8 05       		.uleb128 0x5
 2882 0bb9 04       		.byte	0x4
 2883 0bba BC000000 		.4byte	0xbc
 2884 0bbe 05       		.uleb128 0x5
 2885 0bbf 04       		.byte	0x4
 2886 0bc0 280A0000 		.4byte	0xa28
 2887 0bc4 10       		.uleb128 0x10
 2888 0bc5 6D010000 		.4byte	0x16d
 2889 0bc9 D40B0000 		.4byte	0xbd4
 2890 0bcd 11       		.uleb128 0x11
 2891 0bce D40B0000 		.4byte	0xbd4
 2892 0bd2 00       		.byte	0
 2893 0bd3 00       		.byte	0
 2894 0bd4 03       		.uleb128 0x3
 2895 0bd5 04       		.byte	0x4
 2896 0bd6 07       		.byte	0x7
 2897 0bd7 E30F0000 		.4byte	.LASF284
 2898 0bdb 12       		.uleb128 0x12
 2899 0bdc 2A060000 		.4byte	.LASF294
 2900 0be0 01       		.byte	0x1
 2901 0be1 43       		.byte	0x43
 2902 0be2 00000000 		.4byte	.LFB0
 2903 0be6 9C000000 		.4byte	.LFE0-.LFB0
 2904 0bea 01       		.uleb128 0x1
 2905 0beb 9C       		.byte	0x9c
 2906 0bec 290C0000 		.4byte	0xc29
 2907 0bf0 13       		.uleb128 0x13
 2908 0bf1 7B0E0000 		.4byte	.LASF285
 2909 0bf5 01       		.byte	0x1
 2910 0bf6 43       		.byte	0x43
 2911 0bf7 B20B0000 		.4byte	0xbb2
 2912 0bfb 02       		.uleb128 0x2
 2913 0bfc 91       		.byte	0x91
 2914 0bfd 6C       		.sleb128 -20
 2915 0bfe 13       		.uleb128 0x13
 2916 0bff 9A080000 		.4byte	.LASF286
 2917 0c03 01       		.byte	0x1
 2918 0c04 44       		.byte	0x44
 2919 0c05 A60B0000 		.4byte	0xba6
 2920 0c09 02       		.uleb128 0x2
 2921 0c0a 91       		.byte	0x91
 2922 0c0b 68       		.sleb128 -24
 2923 0c0c 13       		.uleb128 0x13
 2924 0c0d 70080000 		.4byte	.LASF287
 2925 0c11 01       		.byte	0x1
 2926 0c12 45       		.byte	0x45
 2927 0c13 290C0000 		.4byte	0xc29
 2928 0c17 02       		.uleb128 0x2
 2929 0c18 91       		.byte	0x91
ARM GAS  C:\Users\Aluno\AppData\Local\Temp\cccS7k0x.s 			page 68


 2930 0c19 64       		.sleb128 -28
 2931 0c1a 14       		.uleb128 0x14
 2932 0c1b 57050000 		.4byte	.LASF288
 2933 0c1f 01       		.byte	0x1
 2934 0c20 47       		.byte	0x47
 2935 0c21 D2000000 		.4byte	0xd2
 2936 0c25 02       		.uleb128 0x2
 2937 0c26 91       		.byte	0x91
 2938 0c27 74       		.sleb128 -12
 2939 0c28 00       		.byte	0
 2940 0c29 05       		.uleb128 0x5
 2941 0c2a 04       		.byte	0x4
 2942 0c2b 1C060000 		.4byte	0x61c
 2943 0c2f 15       		.uleb128 0x15
 2944 0c30 3D000000 		.4byte	.LASF299
 2945 0c34 01       		.byte	0x1
 2946 0c35 A0       		.byte	0xa0
 2947 0c36 41010000 		.4byte	0x141
 2948 0c3a 00000000 		.4byte	.LFB1
 2949 0c3e C4010000 		.4byte	.LFE1-.LFB1
 2950 0c42 01       		.uleb128 0x1
 2951 0c43 9C       		.byte	0x9c
 2952 0c44 E20C0000 		.4byte	0xce2
 2953 0c48 13       		.uleb128 0x13
 2954 0c49 7B0E0000 		.4byte	.LASF285
 2955 0c4d 01       		.byte	0x1
 2956 0c4e A0       		.byte	0xa0
 2957 0c4f B20B0000 		.4byte	0xbb2
 2958 0c53 02       		.uleb128 0x2
 2959 0c54 91       		.byte	0x91
 2960 0c55 54       		.sleb128 -44
 2961 0c56 16       		.uleb128 0x16
 2962 0c57 6F707400 		.ascii	"opt\000"
 2963 0c5b 01       		.byte	0x1
 2964 0c5c A1       		.byte	0xa1
 2965 0c5d 57010000 		.4byte	0x157
 2966 0c61 02       		.uleb128 0x2
 2967 0c62 91       		.byte	0x91
 2968 0c63 52       		.sleb128 -46
 2969 0c64 13       		.uleb128 0x13
 2970 0c65 70080000 		.4byte	.LASF287
 2971 0c69 01       		.byte	0x1
 2972 0c6a A2       		.byte	0xa2
 2973 0c6b 290C0000 		.4byte	0xc29
 2974 0c6f 02       		.uleb128 0x2
 2975 0c70 91       		.byte	0x91
 2976 0c71 4C       		.sleb128 -52
 2977 0c72 17       		.uleb128 0x17
 2978 0c73 636E7400 		.ascii	"cnt\000"
 2979 0c77 01       		.byte	0x1
 2980 0c78 A4       		.byte	0xa4
 2981 0c79 41010000 		.4byte	0x141
 2982 0c7d 02       		.uleb128 0x2
 2983 0c7e 91       		.byte	0x91
 2984 0c7f 76       		.sleb128 -10
 2985 0c80 14       		.uleb128 0x14
 2986 0c81 A20B0000 		.4byte	.LASF289
ARM GAS  C:\Users\Aluno\AppData\Local\Temp\cccS7k0x.s 			page 69


 2987 0c85 01       		.byte	0x1
 2988 0c86 A5       		.byte	0xa5
 2989 0c87 41010000 		.4byte	0x141
 2990 0c8b 02       		.uleb128 0x2
 2991 0c8c 91       		.byte	0x91
 2992 0c8d 6A       		.sleb128 -22
 2993 0c8e 14       		.uleb128 0x14
 2994 0c8f F7080000 		.4byte	.LASF290
 2995 0c93 01       		.byte	0x1
 2996 0c94 A6       		.byte	0xa6
 2997 0c95 9A0B0000 		.4byte	0xb9a
 2998 0c99 02       		.uleb128 0x2
 2999 0c9a 91       		.byte	0x91
 3000 0c9b 5C       		.sleb128 -36
 3001 0c9c 14       		.uleb128 0x14
 3002 0c9d D4030000 		.4byte	.LASF291
 3003 0ca1 01       		.byte	0x1
 3004 0ca2 A7       		.byte	0xa7
 3005 0ca3 E20C0000 		.4byte	0xce2
 3006 0ca7 02       		.uleb128 0x2
 3007 0ca8 91       		.byte	0x91
 3008 0ca9 6C       		.sleb128 -20
 3009 0caa 14       		.uleb128 0x14
 3010 0cab 280A0000 		.4byte	.LASF292
 3011 0caf 01       		.byte	0x1
 3012 0cb0 A8       		.byte	0xa8
 3013 0cb1 940B0000 		.4byte	0xb94
 3014 0cb5 02       		.uleb128 0x2
 3015 0cb6 91       		.byte	0x91
 3016 0cb7 58       		.sleb128 -40
 3017 0cb8 14       		.uleb128 0x14
 3018 0cb9 3E0F0000 		.4byte	.LASF293
 3019 0cbd 01       		.byte	0x1
 3020 0cbe A9       		.byte	0xa9
 3021 0cbf 940B0000 		.4byte	0xb94
 3022 0cc3 02       		.uleb128 0x2
 3023 0cc4 91       		.byte	0x91
 3024 0cc5 64       		.sleb128 -28
 3025 0cc6 17       		.uleb128 0x17
 3026 0cc7 747300   		.ascii	"ts\000"
 3027 0cca 01       		.byte	0x1
 3028 0ccb AA       		.byte	0xaa
 3029 0ccc E9000000 		.4byte	0xe9
 3030 0cd0 02       		.uleb128 0x2
 3031 0cd1 91       		.byte	0x91
 3032 0cd2 60       		.sleb128 -32
 3033 0cd3 14       		.uleb128 0x14
 3034 0cd4 57050000 		.4byte	.LASF288
 3035 0cd8 01       		.byte	0x1
 3036 0cd9 AB       		.byte	0xab
 3037 0cda D2000000 		.4byte	0xd2
 3038 0cde 02       		.uleb128 0x2
 3039 0cdf 91       		.byte	0x91
 3040 0ce0 70       		.sleb128 -16
 3041 0ce1 00       		.byte	0
 3042 0ce2 05       		.uleb128 0x5
 3043 0ce3 04       		.byte	0x4
ARM GAS  C:\Users\Aluno\AppData\Local\Temp\cccS7k0x.s 			page 70


 3044 0ce4 EB0A0000 		.4byte	0xaeb
 3045 0ce8 18       		.uleb128 0x18
 3046 0ce9 0D140000 		.4byte	.LASF295
 3047 0ced 01       		.byte	0x1
 3048 0cee 5301     		.2byte	0x153
 3049 0cf0 00000000 		.4byte	.LFB2
 3050 0cf4 78020000 		.4byte	.LFE2-.LFB2
 3051 0cf8 01       		.uleb128 0x1
 3052 0cf9 9C       		.byte	0x9c
 3053 0cfa 770D0000 		.4byte	0xd77
 3054 0cfe 19       		.uleb128 0x19
 3055 0cff 7B0E0000 		.4byte	.LASF285
 3056 0d03 01       		.byte	0x1
 3057 0d04 5301     		.2byte	0x153
 3058 0d06 B20B0000 		.4byte	0xbb2
 3059 0d0a 02       		.uleb128 0x2
 3060 0d0b 91       		.byte	0x91
 3061 0d0c 4C       		.sleb128 -52
 3062 0d0d 19       		.uleb128 0x19
 3063 0d0e E1100000 		.4byte	.LASF296
 3064 0d12 01       		.byte	0x1
 3065 0d13 5401     		.2byte	0x154
 3066 0d15 99010000 		.4byte	0x199
 3067 0d19 02       		.uleb128 0x2
 3068 0d1a 91       		.byte	0x91
 3069 0d1b 48       		.sleb128 -56
 3070 0d1c 1A       		.uleb128 0x1a
 3071 0d1d 6F707400 		.ascii	"opt\000"
 3072 0d21 01       		.byte	0x1
 3073 0d22 5501     		.2byte	0x155
 3074 0d24 57010000 		.4byte	0x157
 3075 0d28 02       		.uleb128 0x2
 3076 0d29 91       		.byte	0x91
 3077 0d2a 46       		.sleb128 -58
 3078 0d2b 19       		.uleb128 0x19
 3079 0d2c AD0C0000 		.4byte	.LASF297
 3080 0d30 01       		.byte	0x1
 3081 0d31 5601     		.2byte	0x156
 3082 0d33 770D0000 		.4byte	0xd77
 3083 0d37 02       		.uleb128 0x2
 3084 0d38 91       		.byte	0x91
 3085 0d39 40       		.sleb128 -64
 3086 0d3a 19       		.uleb128 0x19
 3087 0d3b 70080000 		.4byte	.LASF287
 3088 0d3f 01       		.byte	0x1
 3089 0d40 5701     		.2byte	0x157
 3090 0d42 290C0000 		.4byte	0xc29
 3091 0d46 02       		.uleb128 0x2
 3092 0d47 91       		.byte	0x91
 3093 0d48 00       		.sleb128 0
 3094 0d49 1B       		.uleb128 0x1b
 3095 0d4a E40A0000 		.4byte	.LASF298
 3096 0d4e 01       		.byte	0x1
 3097 0d4f 5901     		.2byte	0x159
 3098 0d51 690A0000 		.4byte	0xa69
 3099 0d55 02       		.uleb128 0x2
 3100 0d56 91       		.byte	0x91
ARM GAS  C:\Users\Aluno\AppData\Local\Temp\cccS7k0x.s 			page 71


 3101 0d57 50       		.sleb128 -48
 3102 0d58 1B       		.uleb128 0x1b
 3103 0d59 280A0000 		.4byte	.LASF292
 3104 0d5d 01       		.byte	0x1
 3105 0d5e 5A01     		.2byte	0x15a
 3106 0d60 940B0000 		.4byte	0xb94
 3107 0d64 02       		.uleb128 0x2
 3108 0d65 91       		.byte	0x91
 3109 0d66 70       		.sleb128 -16
 3110 0d67 1B       		.uleb128 0x1b
 3111 0d68 57050000 		.4byte	.LASF288
 3112 0d6c 01       		.byte	0x1
 3113 0d6d 5B01     		.2byte	0x15b
 3114 0d6f D2000000 		.4byte	0xd2
 3115 0d73 02       		.uleb128 0x2
 3116 0d74 91       		.byte	0x91
 3117 0d75 74       		.sleb128 -12
 3118 0d76 00       		.byte	0
 3119 0d77 05       		.uleb128 0x5
 3120 0d78 04       		.byte	0x4
 3121 0d79 E9000000 		.4byte	0xe9
 3122 0d7d 1C       		.uleb128 0x1c
 3123 0d7e EC0F0000 		.4byte	.LASF300
 3124 0d82 01       		.byte	0x1
 3125 0d83 1A02     		.2byte	0x21a
 3126 0d85 41010000 		.4byte	0x141
 3127 0d89 00000000 		.4byte	.LFB3
 3128 0d8d EC000000 		.4byte	.LFE3-.LFB3
 3129 0d91 01       		.uleb128 0x1
 3130 0d92 9C       		.byte	0x9c
 3131 0d93 0F0E0000 		.4byte	0xe0f
 3132 0d97 19       		.uleb128 0x19
 3133 0d98 7B0E0000 		.4byte	.LASF285
 3134 0d9c 01       		.byte	0x1
 3135 0d9d 1A02     		.2byte	0x21a
 3136 0d9f B20B0000 		.4byte	0xbb2
 3137 0da3 02       		.uleb128 0x2
 3138 0da4 91       		.byte	0x91
 3139 0da5 5C       		.sleb128 -36
 3140 0da6 1A       		.uleb128 0x1a
 3141 0da7 6F707400 		.ascii	"opt\000"
 3142 0dab 01       		.byte	0x1
 3143 0dac 1B02     		.2byte	0x21b
 3144 0dae 57010000 		.4byte	0x157
 3145 0db2 02       		.uleb128 0x2
 3146 0db3 91       		.byte	0x91
 3147 0db4 5A       		.sleb128 -38
 3148 0db5 19       		.uleb128 0x19
 3149 0db6 70080000 		.4byte	.LASF287
 3150 0dba 01       		.byte	0x1
 3151 0dbb 1C02     		.2byte	0x21c
 3152 0dbd 290C0000 		.4byte	0xc29
 3153 0dc1 02       		.uleb128 0x2
 3154 0dc2 91       		.byte	0x91
 3155 0dc3 54       		.sleb128 -44
 3156 0dc4 1B       		.uleb128 0x1b
 3157 0dc5 D4030000 		.4byte	.LASF291
ARM GAS  C:\Users\Aluno\AppData\Local\Temp\cccS7k0x.s 			page 72


 3158 0dc9 01       		.byte	0x1
 3159 0dca 1E02     		.2byte	0x21e
 3160 0dcc E20C0000 		.4byte	0xce2
 3161 0dd0 02       		.uleb128 0x2
 3162 0dd1 91       		.byte	0x91
 3163 0dd2 6C       		.sleb128 -20
 3164 0dd3 1B       		.uleb128 0x1b
 3165 0dd4 280A0000 		.4byte	.LASF292
 3166 0dd8 01       		.byte	0x1
 3167 0dd9 1F02     		.2byte	0x21f
 3168 0ddb 940B0000 		.4byte	0xb94
 3169 0ddf 02       		.uleb128 0x2
 3170 0de0 91       		.byte	0x91
 3171 0de1 64       		.sleb128 -28
 3172 0de2 1D       		.uleb128 0x1d
 3173 0de3 747300   		.ascii	"ts\000"
 3174 0de6 01       		.byte	0x1
 3175 0de7 2002     		.2byte	0x220
 3176 0de9 E9000000 		.4byte	0xe9
 3177 0ded 02       		.uleb128 0x2
 3178 0dee 91       		.byte	0x91
 3179 0def 68       		.sleb128 -24
 3180 0df0 1B       		.uleb128 0x1b
 3181 0df1 A20B0000 		.4byte	.LASF289
 3182 0df5 01       		.byte	0x1
 3183 0df6 2102     		.2byte	0x221
 3184 0df8 41010000 		.4byte	0x141
 3185 0dfc 02       		.uleb128 0x2
 3186 0dfd 91       		.byte	0x91
 3187 0dfe 76       		.sleb128 -10
 3188 0dff 1B       		.uleb128 0x1b
 3189 0e00 57050000 		.4byte	.LASF288
 3190 0e04 01       		.byte	0x1
 3191 0e05 2202     		.2byte	0x222
 3192 0e07 D2000000 		.4byte	0xd2
 3193 0e0b 02       		.uleb128 0x2
 3194 0e0c 91       		.byte	0x91
 3195 0e0d 70       		.sleb128 -16
 3196 0e0e 00       		.byte	0
 3197 0e0f 18       		.uleb128 0x18
 3198 0e10 D4060000 		.4byte	.LASF301
 3199 0e14 01       		.byte	0x1
 3200 0e15 8802     		.2byte	0x288
 3201 0e17 00000000 		.4byte	.LFB4
 3202 0e1b 78010000 		.4byte	.LFE4-.LFB4
 3203 0e1f 01       		.uleb128 0x1
 3204 0e20 9C       		.byte	0x9c
 3205 0e21 8E0E0000 		.4byte	0xe8e
 3206 0e25 19       		.uleb128 0x19
 3207 0e26 7B0E0000 		.4byte	.LASF285
 3208 0e2a 01       		.byte	0x1
 3209 0e2b 8802     		.2byte	0x288
 3210 0e2d B20B0000 		.4byte	0xbb2
 3211 0e31 02       		.uleb128 0x2
 3212 0e32 91       		.byte	0x91
 3213 0e33 64       		.sleb128 -28
 3214 0e34 1A       		.uleb128 0x1a
ARM GAS  C:\Users\Aluno\AppData\Local\Temp\cccS7k0x.s 			page 73


 3215 0e35 6F707400 		.ascii	"opt\000"
 3216 0e39 01       		.byte	0x1
 3217 0e3a 8902     		.2byte	0x289
 3218 0e3c 57010000 		.4byte	0x157
 3219 0e40 02       		.uleb128 0x2
 3220 0e41 91       		.byte	0x91
 3221 0e42 62       		.sleb128 -30
 3222 0e43 19       		.uleb128 0x19
 3223 0e44 70080000 		.4byte	.LASF287
 3224 0e48 01       		.byte	0x1
 3225 0e49 8A02     		.2byte	0x28a
 3226 0e4b 290C0000 		.4byte	0xc29
 3227 0e4f 02       		.uleb128 0x2
 3228 0e50 91       		.byte	0x91
 3229 0e51 5C       		.sleb128 -36
 3230 0e52 1B       		.uleb128 0x1b
 3231 0e53 D4030000 		.4byte	.LASF291
 3232 0e57 01       		.byte	0x1
 3233 0e58 8C02     		.2byte	0x28c
 3234 0e5a E20C0000 		.4byte	0xce2
 3235 0e5e 02       		.uleb128 0x2
 3236 0e5f 91       		.byte	0x91
 3237 0e60 6C       		.sleb128 -20
 3238 0e61 1B       		.uleb128 0x1b
 3239 0e62 280A0000 		.4byte	.LASF292
 3240 0e66 01       		.byte	0x1
 3241 0e67 8D02     		.2byte	0x28d
 3242 0e69 940B0000 		.4byte	0xb94
 3243 0e6d 02       		.uleb128 0x2
 3244 0e6e 91       		.byte	0x91
 3245 0e6f 68       		.sleb128 -24
 3246 0e70 1D       		.uleb128 0x1d
 3247 0e71 747300   		.ascii	"ts\000"
 3248 0e74 01       		.byte	0x1
 3249 0e75 8E02     		.2byte	0x28e
 3250 0e77 E9000000 		.4byte	0xe9
 3251 0e7b 02       		.uleb128 0x2
 3252 0e7c 91       		.byte	0x91
 3253 0e7d 70       		.sleb128 -16
 3254 0e7e 1B       		.uleb128 0x1b
 3255 0e7f 57050000 		.4byte	.LASF288
 3256 0e83 01       		.byte	0x1
 3257 0e84 8F02     		.2byte	0x28f
 3258 0e86 D2000000 		.4byte	0xd2
 3259 0e8a 02       		.uleb128 0x2
 3260 0e8b 91       		.byte	0x91
 3261 0e8c 74       		.sleb128 -12
 3262 0e8d 00       		.byte	0
 3263 0e8e 18       		.uleb128 0x18
 3264 0e8f B9080000 		.4byte	.LASF302
 3265 0e93 01       		.byte	0x1
 3266 0e94 FF02     		.2byte	0x2ff
 3267 0e96 00000000 		.4byte	.LFB5
 3268 0e9a 4C000000 		.4byte	.LFE5-.LFB5
 3269 0e9e 01       		.uleb128 0x1
 3270 0e9f 9C       		.byte	0x9c
 3271 0ea0 B40E0000 		.4byte	0xeb4
ARM GAS  C:\Users\Aluno\AppData\Local\Temp\cccS7k0x.s 			page 74


 3272 0ea4 19       		.uleb128 0x19
 3273 0ea5 7B0E0000 		.4byte	.LASF285
 3274 0ea9 01       		.byte	0x1
 3275 0eaa FF02     		.2byte	0x2ff
 3276 0eac B20B0000 		.4byte	0xbb2
 3277 0eb0 02       		.uleb128 0x2
 3278 0eb1 91       		.byte	0x91
 3279 0eb2 74       		.sleb128 -12
 3280 0eb3 00       		.byte	0
 3281 0eb4 1E       		.uleb128 0x1e
 3282 0eb5 38120000 		.4byte	.LASF303
 3283 0eb9 01       		.byte	0x1
 3284 0eba 1B03     		.2byte	0x31b
 3285 0ebc 00000000 		.4byte	.LFB6
 3286 0ec0 4C000000 		.4byte	.LFE6-.LFB6
 3287 0ec4 01       		.uleb128 0x1
 3288 0ec5 9C       		.byte	0x9c
 3289 0ec6 DA0E0000 		.4byte	0xeda
 3290 0eca 19       		.uleb128 0x19
 3291 0ecb 7B0E0000 		.4byte	.LASF285
 3292 0ecf 01       		.byte	0x1
 3293 0ed0 1B03     		.2byte	0x31b
 3294 0ed2 B20B0000 		.4byte	0xbb2
 3295 0ed6 02       		.uleb128 0x2
 3296 0ed7 91       		.byte	0x91
 3297 0ed8 74       		.sleb128 -12
 3298 0ed9 00       		.byte	0
 3299 0eda 1E       		.uleb128 0x1e
 3300 0edb 710D0000 		.4byte	.LASF304
 3301 0edf 01       		.byte	0x1
 3302 0ee0 2A03     		.2byte	0x32a
 3303 0ee2 00000000 		.4byte	.LFB7
 3304 0ee6 70000000 		.4byte	.LFE7-.LFB7
 3305 0eea 01       		.uleb128 0x1
 3306 0eeb 9C       		.byte	0x9c
 3307 0eec 1E0F0000 		.4byte	0xf1e
 3308 0ef0 19       		.uleb128 0x19
 3309 0ef1 7B0E0000 		.4byte	.LASF285
 3310 0ef5 01       		.byte	0x1
 3311 0ef6 2A03     		.2byte	0x32a
 3312 0ef8 B20B0000 		.4byte	0xbb2
 3313 0efc 02       		.uleb128 0x2
 3314 0efd 91       		.byte	0x91
 3315 0efe 6C       		.sleb128 -20
 3316 0eff 1B       		.uleb128 0x1b
 3317 0f00 A7120000 		.4byte	.LASF305
 3318 0f04 01       		.byte	0x1
 3319 0f05 2C03     		.2byte	0x32c
 3320 0f07 B20B0000 		.4byte	0xbb2
 3321 0f0b 02       		.uleb128 0x2
 3322 0f0c 91       		.byte	0x91
 3323 0f0d 70       		.sleb128 -16
 3324 0f0e 1B       		.uleb128 0x1b
 3325 0f0f 22000000 		.4byte	.LASF306
 3326 0f13 01       		.byte	0x1
 3327 0f14 2D03     		.2byte	0x32d
 3328 0f16 B20B0000 		.4byte	0xbb2
ARM GAS  C:\Users\Aluno\AppData\Local\Temp\cccS7k0x.s 			page 75


 3329 0f1a 02       		.uleb128 0x2
 3330 0f1b 91       		.byte	0x91
 3331 0f1c 74       		.sleb128 -12
 3332 0f1d 00       		.byte	0
 3333 0f1e 1E       		.uleb128 0x1e
 3334 0f1f A3070000 		.4byte	.LASF307
 3335 0f23 01       		.byte	0x1
 3336 0f24 5903     		.2byte	0x359
 3337 0f26 00000000 		.4byte	.LFB8
 3338 0f2a 2C000000 		.4byte	.LFE8-.LFB8
 3339 0f2e 01       		.uleb128 0x1
 3340 0f2f 9C       		.byte	0x9c
 3341 0f30 440F0000 		.4byte	0xf44
 3342 0f34 19       		.uleb128 0x19
 3343 0f35 70080000 		.4byte	.LASF287
 3344 0f39 01       		.byte	0x1
 3345 0f3a 5903     		.2byte	0x359
 3346 0f3c 290C0000 		.4byte	0xc29
 3347 0f40 02       		.uleb128 0x2
 3348 0f41 91       		.byte	0x91
 3349 0f42 74       		.sleb128 -12
 3350 0f43 00       		.byte	0
 3351 0f44 1F       		.uleb128 0x1f
 3352 0f45 870D0000 		.4byte	.LASF308
 3353 0f49 05       		.byte	0x5
 3354 0f4a 5F04     		.2byte	0x45f
 3355 0f4c 36010000 		.4byte	0x136
 3356 0f50 1F       		.uleb128 0x1f
 3357 0f51 72020000 		.4byte	.LASF309
 3358 0f55 05       		.byte	0x5
 3359 0f56 8A04     		.2byte	0x48a
 3360 0f58 B20B0000 		.4byte	0xbb2
 3361 0f5c 1F       		.uleb128 0x1f
 3362 0f5d 26040000 		.4byte	.LASF310
 3363 0f61 05       		.byte	0x5
 3364 0f62 8C04     		.2byte	0x48c
 3365 0f64 41010000 		.4byte	0x141
 3366 0f68 1F       		.uleb128 0x1f
 3367 0f69 B7060000 		.4byte	.LASF311
 3368 0f6d 05       		.byte	0x5
 3369 0f6e 9004     		.2byte	0x490
 3370 0f70 62010000 		.4byte	0x162
 3371 0f74 1F       		.uleb128 0x1f
 3372 0f75 B3100000 		.4byte	.LASF312
 3373 0f79 05       		.byte	0x5
 3374 0f7a AD04     		.2byte	0x4ad
 3375 0f7c 36010000 		.4byte	0x136
 3376 0f80 1F       		.uleb128 0x1f
 3377 0f81 E0010000 		.4byte	.LASF313
 3378 0f85 05       		.byte	0x5
 3379 0f86 E504     		.2byte	0x4e5
 3380 0f88 940B0000 		.4byte	0xb94
 3381 0f8c 00       		.byte	0
 3382              		.section	.debug_abbrev,"",%progbits
 3383              	.Ldebug_abbrev0:
 3384 0000 01       		.uleb128 0x1
 3385 0001 11       		.uleb128 0x11
ARM GAS  C:\Users\Aluno\AppData\Local\Temp\cccS7k0x.s 			page 76


 3386 0002 01       		.byte	0x1
 3387 0003 25       		.uleb128 0x25
 3388 0004 0E       		.uleb128 0xe
 3389 0005 13       		.uleb128 0x13
 3390 0006 0B       		.uleb128 0xb
 3391 0007 03       		.uleb128 0x3
 3392 0008 0E       		.uleb128 0xe
 3393 0009 1B       		.uleb128 0x1b
 3394 000a 0E       		.uleb128 0xe
 3395 000b 55       		.uleb128 0x55
 3396 000c 17       		.uleb128 0x17
 3397 000d 11       		.uleb128 0x11
 3398 000e 01       		.uleb128 0x1
 3399 000f 10       		.uleb128 0x10
 3400 0010 17       		.uleb128 0x17
 3401 0011 00       		.byte	0
 3402 0012 00       		.byte	0
 3403 0013 02       		.uleb128 0x2
 3404 0014 16       		.uleb128 0x16
 3405 0015 00       		.byte	0
 3406 0016 03       		.uleb128 0x3
 3407 0017 0E       		.uleb128 0xe
 3408 0018 3A       		.uleb128 0x3a
 3409 0019 0B       		.uleb128 0xb
 3410 001a 3B       		.uleb128 0x3b
 3411 001b 0B       		.uleb128 0xb
 3412 001c 49       		.uleb128 0x49
 3413 001d 13       		.uleb128 0x13
 3414 001e 00       		.byte	0
 3415 001f 00       		.byte	0
 3416 0020 03       		.uleb128 0x3
 3417 0021 24       		.uleb128 0x24
 3418 0022 00       		.byte	0
 3419 0023 0B       		.uleb128 0xb
 3420 0024 0B       		.uleb128 0xb
 3421 0025 3E       		.uleb128 0x3e
 3422 0026 0B       		.uleb128 0xb
 3423 0027 03       		.uleb128 0x3
 3424 0028 0E       		.uleb128 0xe
 3425 0029 00       		.byte	0
 3426 002a 00       		.byte	0
 3427 002b 04       		.uleb128 0x4
 3428 002c 24       		.uleb128 0x24
 3429 002d 00       		.byte	0
 3430 002e 0B       		.uleb128 0xb
 3431 002f 0B       		.uleb128 0xb
 3432 0030 3E       		.uleb128 0x3e
 3433 0031 0B       		.uleb128 0xb
 3434 0032 03       		.uleb128 0x3
 3435 0033 08       		.uleb128 0x8
 3436 0034 00       		.byte	0
 3437 0035 00       		.byte	0
 3438 0036 05       		.uleb128 0x5
 3439 0037 0F       		.uleb128 0xf
 3440 0038 00       		.byte	0
 3441 0039 0B       		.uleb128 0xb
 3442 003a 0B       		.uleb128 0xb
ARM GAS  C:\Users\Aluno\AppData\Local\Temp\cccS7k0x.s 			page 77


 3443 003b 49       		.uleb128 0x49
 3444 003c 13       		.uleb128 0x13
 3445 003d 00       		.byte	0
 3446 003e 00       		.byte	0
 3447 003f 06       		.uleb128 0x6
 3448 0040 15       		.uleb128 0x15
 3449 0041 01       		.byte	0x1
 3450 0042 27       		.uleb128 0x27
 3451 0043 19       		.uleb128 0x19
 3452 0044 01       		.uleb128 0x1
 3453 0045 13       		.uleb128 0x13
 3454 0046 00       		.byte	0
 3455 0047 00       		.byte	0
 3456 0048 07       		.uleb128 0x7
 3457 0049 05       		.uleb128 0x5
 3458 004a 00       		.byte	0
 3459 004b 49       		.uleb128 0x49
 3460 004c 13       		.uleb128 0x13
 3461 004d 00       		.byte	0
 3462 004e 00       		.byte	0
 3463 004f 08       		.uleb128 0x8
 3464 0050 0F       		.uleb128 0xf
 3465 0051 00       		.byte	0
 3466 0052 0B       		.uleb128 0xb
 3467 0053 0B       		.uleb128 0xb
 3468 0054 00       		.byte	0
 3469 0055 00       		.byte	0
 3470 0056 09       		.uleb128 0x9
 3471 0057 16       		.uleb128 0x16
 3472 0058 00       		.byte	0
 3473 0059 03       		.uleb128 0x3
 3474 005a 0E       		.uleb128 0xe
 3475 005b 3A       		.uleb128 0x3a
 3476 005c 0B       		.uleb128 0xb
 3477 005d 3B       		.uleb128 0x3b
 3478 005e 05       		.uleb128 0x5
 3479 005f 49       		.uleb128 0x49
 3480 0060 13       		.uleb128 0x13
 3481 0061 00       		.byte	0
 3482 0062 00       		.byte	0
 3483 0063 0A       		.uleb128 0xa
 3484 0064 04       		.uleb128 0x4
 3485 0065 01       		.byte	0x1
 3486 0066 03       		.uleb128 0x3
 3487 0067 0E       		.uleb128 0xe
 3488 0068 0B       		.uleb128 0xb
 3489 0069 0B       		.uleb128 0xb
 3490 006a 49       		.uleb128 0x49
 3491 006b 13       		.uleb128 0x13
 3492 006c 3A       		.uleb128 0x3a
 3493 006d 0B       		.uleb128 0xb
 3494 006e 3B       		.uleb128 0x3b
 3495 006f 05       		.uleb128 0x5
 3496 0070 01       		.uleb128 0x1
 3497 0071 13       		.uleb128 0x13
 3498 0072 00       		.byte	0
 3499 0073 00       		.byte	0
ARM GAS  C:\Users\Aluno\AppData\Local\Temp\cccS7k0x.s 			page 78


 3500 0074 0B       		.uleb128 0xb
 3501 0075 28       		.uleb128 0x28
 3502 0076 00       		.byte	0
 3503 0077 03       		.uleb128 0x3
 3504 0078 0E       		.uleb128 0xe
 3505 0079 1C       		.uleb128 0x1c
 3506 007a 0B       		.uleb128 0xb
 3507 007b 00       		.byte	0
 3508 007c 00       		.byte	0
 3509 007d 0C       		.uleb128 0xc
 3510 007e 28       		.uleb128 0x28
 3511 007f 00       		.byte	0
 3512 0080 03       		.uleb128 0x3
 3513 0081 0E       		.uleb128 0xe
 3514 0082 1C       		.uleb128 0x1c
 3515 0083 05       		.uleb128 0x5
 3516 0084 00       		.byte	0
 3517 0085 00       		.byte	0
 3518 0086 0D       		.uleb128 0xd
 3519 0087 13       		.uleb128 0x13
 3520 0088 01       		.byte	0x1
 3521 0089 03       		.uleb128 0x3
 3522 008a 0E       		.uleb128 0xe
 3523 008b 0B       		.uleb128 0xb
 3524 008c 0B       		.uleb128 0xb
 3525 008d 3A       		.uleb128 0x3a
 3526 008e 0B       		.uleb128 0xb
 3527 008f 3B       		.uleb128 0x3b
 3528 0090 05       		.uleb128 0x5
 3529 0091 01       		.uleb128 0x1
 3530 0092 13       		.uleb128 0x13
 3531 0093 00       		.byte	0
 3532 0094 00       		.byte	0
 3533 0095 0E       		.uleb128 0xe
 3534 0096 0D       		.uleb128 0xd
 3535 0097 00       		.byte	0
 3536 0098 03       		.uleb128 0x3
 3537 0099 0E       		.uleb128 0xe
 3538 009a 3A       		.uleb128 0x3a
 3539 009b 0B       		.uleb128 0xb
 3540 009c 3B       		.uleb128 0x3b
 3541 009d 05       		.uleb128 0x5
 3542 009e 49       		.uleb128 0x49
 3543 009f 13       		.uleb128 0x13
 3544 00a0 38       		.uleb128 0x38
 3545 00a1 0B       		.uleb128 0xb
 3546 00a2 00       		.byte	0
 3547 00a3 00       		.byte	0
 3548 00a4 0F       		.uleb128 0xf
 3549 00a5 0D       		.uleb128 0xd
 3550 00a6 00       		.byte	0
 3551 00a7 03       		.uleb128 0x3
 3552 00a8 08       		.uleb128 0x8
 3553 00a9 3A       		.uleb128 0x3a
 3554 00aa 0B       		.uleb128 0xb
 3555 00ab 3B       		.uleb128 0x3b
 3556 00ac 05       		.uleb128 0x5
ARM GAS  C:\Users\Aluno\AppData\Local\Temp\cccS7k0x.s 			page 79


 3557 00ad 49       		.uleb128 0x49
 3558 00ae 13       		.uleb128 0x13
 3559 00af 38       		.uleb128 0x38
 3560 00b0 0B       		.uleb128 0xb
 3561 00b1 00       		.byte	0
 3562 00b2 00       		.byte	0
 3563 00b3 10       		.uleb128 0x10
 3564 00b4 01       		.uleb128 0x1
 3565 00b5 01       		.byte	0x1
 3566 00b6 49       		.uleb128 0x49
 3567 00b7 13       		.uleb128 0x13
 3568 00b8 01       		.uleb128 0x1
 3569 00b9 13       		.uleb128 0x13
 3570 00ba 00       		.byte	0
 3571 00bb 00       		.byte	0
 3572 00bc 11       		.uleb128 0x11
 3573 00bd 21       		.uleb128 0x21
 3574 00be 00       		.byte	0
 3575 00bf 49       		.uleb128 0x49
 3576 00c0 13       		.uleb128 0x13
 3577 00c1 2F       		.uleb128 0x2f
 3578 00c2 0B       		.uleb128 0xb
 3579 00c3 00       		.byte	0
 3580 00c4 00       		.byte	0
 3581 00c5 12       		.uleb128 0x12
 3582 00c6 2E       		.uleb128 0x2e
 3583 00c7 01       		.byte	0x1
 3584 00c8 3F       		.uleb128 0x3f
 3585 00c9 19       		.uleb128 0x19
 3586 00ca 03       		.uleb128 0x3
 3587 00cb 0E       		.uleb128 0xe
 3588 00cc 3A       		.uleb128 0x3a
 3589 00cd 0B       		.uleb128 0xb
 3590 00ce 3B       		.uleb128 0x3b
 3591 00cf 0B       		.uleb128 0xb
 3592 00d0 27       		.uleb128 0x27
 3593 00d1 19       		.uleb128 0x19
 3594 00d2 11       		.uleb128 0x11
 3595 00d3 01       		.uleb128 0x1
 3596 00d4 12       		.uleb128 0x12
 3597 00d5 06       		.uleb128 0x6
 3598 00d6 40       		.uleb128 0x40
 3599 00d7 18       		.uleb128 0x18
 3600 00d8 9642     		.uleb128 0x2116
 3601 00da 19       		.uleb128 0x19
 3602 00db 01       		.uleb128 0x1
 3603 00dc 13       		.uleb128 0x13
 3604 00dd 00       		.byte	0
 3605 00de 00       		.byte	0
 3606 00df 13       		.uleb128 0x13
 3607 00e0 05       		.uleb128 0x5
 3608 00e1 00       		.byte	0
 3609 00e2 03       		.uleb128 0x3
 3610 00e3 0E       		.uleb128 0xe
 3611 00e4 3A       		.uleb128 0x3a
 3612 00e5 0B       		.uleb128 0xb
 3613 00e6 3B       		.uleb128 0x3b
ARM GAS  C:\Users\Aluno\AppData\Local\Temp\cccS7k0x.s 			page 80


 3614 00e7 0B       		.uleb128 0xb
 3615 00e8 49       		.uleb128 0x49
 3616 00e9 13       		.uleb128 0x13
 3617 00ea 02       		.uleb128 0x2
 3618 00eb 18       		.uleb128 0x18
 3619 00ec 00       		.byte	0
 3620 00ed 00       		.byte	0
 3621 00ee 14       		.uleb128 0x14
 3622 00ef 34       		.uleb128 0x34
 3623 00f0 00       		.byte	0
 3624 00f1 03       		.uleb128 0x3
 3625 00f2 0E       		.uleb128 0xe
 3626 00f3 3A       		.uleb128 0x3a
 3627 00f4 0B       		.uleb128 0xb
 3628 00f5 3B       		.uleb128 0x3b
 3629 00f6 0B       		.uleb128 0xb
 3630 00f7 49       		.uleb128 0x49
 3631 00f8 13       		.uleb128 0x13
 3632 00f9 02       		.uleb128 0x2
 3633 00fa 18       		.uleb128 0x18
 3634 00fb 00       		.byte	0
 3635 00fc 00       		.byte	0
 3636 00fd 15       		.uleb128 0x15
 3637 00fe 2E       		.uleb128 0x2e
 3638 00ff 01       		.byte	0x1
 3639 0100 3F       		.uleb128 0x3f
 3640 0101 19       		.uleb128 0x19
 3641 0102 03       		.uleb128 0x3
 3642 0103 0E       		.uleb128 0xe
 3643 0104 3A       		.uleb128 0x3a
 3644 0105 0B       		.uleb128 0xb
 3645 0106 3B       		.uleb128 0x3b
 3646 0107 0B       		.uleb128 0xb
 3647 0108 27       		.uleb128 0x27
 3648 0109 19       		.uleb128 0x19
 3649 010a 49       		.uleb128 0x49
 3650 010b 13       		.uleb128 0x13
 3651 010c 11       		.uleb128 0x11
 3652 010d 01       		.uleb128 0x1
 3653 010e 12       		.uleb128 0x12
 3654 010f 06       		.uleb128 0x6
 3655 0110 40       		.uleb128 0x40
 3656 0111 18       		.uleb128 0x18
 3657 0112 9642     		.uleb128 0x2116
 3658 0114 19       		.uleb128 0x19
 3659 0115 01       		.uleb128 0x1
 3660 0116 13       		.uleb128 0x13
 3661 0117 00       		.byte	0
 3662 0118 00       		.byte	0
 3663 0119 16       		.uleb128 0x16
 3664 011a 05       		.uleb128 0x5
 3665 011b 00       		.byte	0
 3666 011c 03       		.uleb128 0x3
 3667 011d 08       		.uleb128 0x8
 3668 011e 3A       		.uleb128 0x3a
 3669 011f 0B       		.uleb128 0xb
 3670 0120 3B       		.uleb128 0x3b
ARM GAS  C:\Users\Aluno\AppData\Local\Temp\cccS7k0x.s 			page 81


 3671 0121 0B       		.uleb128 0xb
 3672 0122 49       		.uleb128 0x49
 3673 0123 13       		.uleb128 0x13
 3674 0124 02       		.uleb128 0x2
 3675 0125 18       		.uleb128 0x18
 3676 0126 00       		.byte	0
 3677 0127 00       		.byte	0
 3678 0128 17       		.uleb128 0x17
 3679 0129 34       		.uleb128 0x34
 3680 012a 00       		.byte	0
 3681 012b 03       		.uleb128 0x3
 3682 012c 08       		.uleb128 0x8
 3683 012d 3A       		.uleb128 0x3a
 3684 012e 0B       		.uleb128 0xb
 3685 012f 3B       		.uleb128 0x3b
 3686 0130 0B       		.uleb128 0xb
 3687 0131 49       		.uleb128 0x49
 3688 0132 13       		.uleb128 0x13
 3689 0133 02       		.uleb128 0x2
 3690 0134 18       		.uleb128 0x18
 3691 0135 00       		.byte	0
 3692 0136 00       		.byte	0
 3693 0137 18       		.uleb128 0x18
 3694 0138 2E       		.uleb128 0x2e
 3695 0139 01       		.byte	0x1
 3696 013a 3F       		.uleb128 0x3f
 3697 013b 19       		.uleb128 0x19
 3698 013c 03       		.uleb128 0x3
 3699 013d 0E       		.uleb128 0xe
 3700 013e 3A       		.uleb128 0x3a
 3701 013f 0B       		.uleb128 0xb
 3702 0140 3B       		.uleb128 0x3b
 3703 0141 05       		.uleb128 0x5
 3704 0142 27       		.uleb128 0x27
 3705 0143 19       		.uleb128 0x19
 3706 0144 11       		.uleb128 0x11
 3707 0145 01       		.uleb128 0x1
 3708 0146 12       		.uleb128 0x12
 3709 0147 06       		.uleb128 0x6
 3710 0148 40       		.uleb128 0x40
 3711 0149 18       		.uleb128 0x18
 3712 014a 9642     		.uleb128 0x2116
 3713 014c 19       		.uleb128 0x19
 3714 014d 01       		.uleb128 0x1
 3715 014e 13       		.uleb128 0x13
 3716 014f 00       		.byte	0
 3717 0150 00       		.byte	0
 3718 0151 19       		.uleb128 0x19
 3719 0152 05       		.uleb128 0x5
 3720 0153 00       		.byte	0
 3721 0154 03       		.uleb128 0x3
 3722 0155 0E       		.uleb128 0xe
 3723 0156 3A       		.uleb128 0x3a
 3724 0157 0B       		.uleb128 0xb
 3725 0158 3B       		.uleb128 0x3b
 3726 0159 05       		.uleb128 0x5
 3727 015a 49       		.uleb128 0x49
ARM GAS  C:\Users\Aluno\AppData\Local\Temp\cccS7k0x.s 			page 82


 3728 015b 13       		.uleb128 0x13
 3729 015c 02       		.uleb128 0x2
 3730 015d 18       		.uleb128 0x18
 3731 015e 00       		.byte	0
 3732 015f 00       		.byte	0
 3733 0160 1A       		.uleb128 0x1a
 3734 0161 05       		.uleb128 0x5
 3735 0162 00       		.byte	0
 3736 0163 03       		.uleb128 0x3
 3737 0164 08       		.uleb128 0x8
 3738 0165 3A       		.uleb128 0x3a
 3739 0166 0B       		.uleb128 0xb
 3740 0167 3B       		.uleb128 0x3b
 3741 0168 05       		.uleb128 0x5
 3742 0169 49       		.uleb128 0x49
 3743 016a 13       		.uleb128 0x13
 3744 016b 02       		.uleb128 0x2
 3745 016c 18       		.uleb128 0x18
 3746 016d 00       		.byte	0
 3747 016e 00       		.byte	0
 3748 016f 1B       		.uleb128 0x1b
 3749 0170 34       		.uleb128 0x34
 3750 0171 00       		.byte	0
 3751 0172 03       		.uleb128 0x3
 3752 0173 0E       		.uleb128 0xe
 3753 0174 3A       		.uleb128 0x3a
 3754 0175 0B       		.uleb128 0xb
 3755 0176 3B       		.uleb128 0x3b
 3756 0177 05       		.uleb128 0x5
 3757 0178 49       		.uleb128 0x49
 3758 0179 13       		.uleb128 0x13
 3759 017a 02       		.uleb128 0x2
 3760 017b 18       		.uleb128 0x18
 3761 017c 00       		.byte	0
 3762 017d 00       		.byte	0
 3763 017e 1C       		.uleb128 0x1c
 3764 017f 2E       		.uleb128 0x2e
 3765 0180 01       		.byte	0x1
 3766 0181 3F       		.uleb128 0x3f
 3767 0182 19       		.uleb128 0x19
 3768 0183 03       		.uleb128 0x3
 3769 0184 0E       		.uleb128 0xe
 3770 0185 3A       		.uleb128 0x3a
 3771 0186 0B       		.uleb128 0xb
 3772 0187 3B       		.uleb128 0x3b
 3773 0188 05       		.uleb128 0x5
 3774 0189 27       		.uleb128 0x27
 3775 018a 19       		.uleb128 0x19
 3776 018b 49       		.uleb128 0x49
 3777 018c 13       		.uleb128 0x13
 3778 018d 11       		.uleb128 0x11
 3779 018e 01       		.uleb128 0x1
 3780 018f 12       		.uleb128 0x12
 3781 0190 06       		.uleb128 0x6
 3782 0191 40       		.uleb128 0x40
 3783 0192 18       		.uleb128 0x18
 3784 0193 9642     		.uleb128 0x2116
ARM GAS  C:\Users\Aluno\AppData\Local\Temp\cccS7k0x.s 			page 83


 3785 0195 19       		.uleb128 0x19
 3786 0196 01       		.uleb128 0x1
 3787 0197 13       		.uleb128 0x13
 3788 0198 00       		.byte	0
 3789 0199 00       		.byte	0
 3790 019a 1D       		.uleb128 0x1d
 3791 019b 34       		.uleb128 0x34
 3792 019c 00       		.byte	0
 3793 019d 03       		.uleb128 0x3
 3794 019e 08       		.uleb128 0x8
 3795 019f 3A       		.uleb128 0x3a
 3796 01a0 0B       		.uleb128 0xb
 3797 01a1 3B       		.uleb128 0x3b
 3798 01a2 05       		.uleb128 0x5
 3799 01a3 49       		.uleb128 0x49
 3800 01a4 13       		.uleb128 0x13
 3801 01a5 02       		.uleb128 0x2
 3802 01a6 18       		.uleb128 0x18
 3803 01a7 00       		.byte	0
 3804 01a8 00       		.byte	0
 3805 01a9 1E       		.uleb128 0x1e
 3806 01aa 2E       		.uleb128 0x2e
 3807 01ab 01       		.byte	0x1
 3808 01ac 3F       		.uleb128 0x3f
 3809 01ad 19       		.uleb128 0x19
 3810 01ae 03       		.uleb128 0x3
 3811 01af 0E       		.uleb128 0xe
 3812 01b0 3A       		.uleb128 0x3a
 3813 01b1 0B       		.uleb128 0xb
 3814 01b2 3B       		.uleb128 0x3b
 3815 01b3 05       		.uleb128 0x5
 3816 01b4 27       		.uleb128 0x27
 3817 01b5 19       		.uleb128 0x19
 3818 01b6 11       		.uleb128 0x11
 3819 01b7 01       		.uleb128 0x1
 3820 01b8 12       		.uleb128 0x12
 3821 01b9 06       		.uleb128 0x6
 3822 01ba 40       		.uleb128 0x40
 3823 01bb 18       		.uleb128 0x18
 3824 01bc 9742     		.uleb128 0x2117
 3825 01be 19       		.uleb128 0x19
 3826 01bf 01       		.uleb128 0x1
 3827 01c0 13       		.uleb128 0x13
 3828 01c1 00       		.byte	0
 3829 01c2 00       		.byte	0
 3830 01c3 1F       		.uleb128 0x1f
 3831 01c4 34       		.uleb128 0x34
 3832 01c5 00       		.byte	0
 3833 01c6 03       		.uleb128 0x3
 3834 01c7 0E       		.uleb128 0xe
 3835 01c8 3A       		.uleb128 0x3a
 3836 01c9 0B       		.uleb128 0xb
 3837 01ca 3B       		.uleb128 0x3b
 3838 01cb 05       		.uleb128 0x5
 3839 01cc 49       		.uleb128 0x49
 3840 01cd 13       		.uleb128 0x13
 3841 01ce 3F       		.uleb128 0x3f
ARM GAS  C:\Users\Aluno\AppData\Local\Temp\cccS7k0x.s 			page 84


 3842 01cf 19       		.uleb128 0x19
 3843 01d0 3C       		.uleb128 0x3c
 3844 01d1 19       		.uleb128 0x19
 3845 01d2 00       		.byte	0
 3846 01d3 00       		.byte	0
 3847 01d4 00       		.byte	0
 3848              		.section	.debug_aranges,"",%progbits
 3849 0000 5C000000 		.4byte	0x5c
 3850 0004 0200     		.2byte	0x2
 3851 0006 00000000 		.4byte	.Ldebug_info0
 3852 000a 04       		.byte	0x4
 3853 000b 00       		.byte	0
 3854 000c 0000     		.2byte	0
 3855 000e 0000     		.2byte	0
 3856 0010 00000000 		.4byte	.LFB0
 3857 0014 9C000000 		.4byte	.LFE0-.LFB0
 3858 0018 00000000 		.4byte	.LFB1
 3859 001c C4010000 		.4byte	.LFE1-.LFB1
 3860 0020 00000000 		.4byte	.LFB2
 3861 0024 78020000 		.4byte	.LFE2-.LFB2
 3862 0028 00000000 		.4byte	.LFB3
 3863 002c EC000000 		.4byte	.LFE3-.LFB3
 3864 0030 00000000 		.4byte	.LFB4
 3865 0034 78010000 		.4byte	.LFE4-.LFB4
 3866 0038 00000000 		.4byte	.LFB5
 3867 003c 4C000000 		.4byte	.LFE5-.LFB5
 3868 0040 00000000 		.4byte	.LFB6
 3869 0044 4C000000 		.4byte	.LFE6-.LFB6
 3870 0048 00000000 		.4byte	.LFB7
 3871 004c 70000000 		.4byte	.LFE7-.LFB7
 3872 0050 00000000 		.4byte	.LFB8
 3873 0054 2C000000 		.4byte	.LFE8-.LFB8
 3874 0058 00000000 		.4byte	0
 3875 005c 00000000 		.4byte	0
 3876              		.section	.debug_ranges,"",%progbits
 3877              	.Ldebug_ranges0:
 3878 0000 00000000 		.4byte	.LFB0
 3879 0004 9C000000 		.4byte	.LFE0
 3880 0008 00000000 		.4byte	.LFB1
 3881 000c C4010000 		.4byte	.LFE1
 3882 0010 00000000 		.4byte	.LFB2
 3883 0014 78020000 		.4byte	.LFE2
 3884 0018 00000000 		.4byte	.LFB3
 3885 001c EC000000 		.4byte	.LFE3
 3886 0020 00000000 		.4byte	.LFB4
 3887 0024 78010000 		.4byte	.LFE4
 3888 0028 00000000 		.4byte	.LFB5
 3889 002c 4C000000 		.4byte	.LFE5
 3890 0030 00000000 		.4byte	.LFB6
 3891 0034 4C000000 		.4byte	.LFE6
 3892 0038 00000000 		.4byte	.LFB7
 3893 003c 70000000 		.4byte	.LFE7
 3894 0040 00000000 		.4byte	.LFB8
 3895 0044 2C000000 		.4byte	.LFE8
 3896 0048 00000000 		.4byte	0
 3897 004c 00000000 		.4byte	0
 3898              		.section	.debug_line,"",%progbits
ARM GAS  C:\Users\Aluno\AppData\Local\Temp\cccS7k0x.s 			page 85


 3899              	.Ldebug_line0:
 3900 0000 86020000 		.section	.debug_str,"MS",%progbits,1
 3900      0200B300 
 3900      00000201 
 3900      FB0E0D00 
 3900      01010101 
 3901              	.LASF224:
 3902 0000 6F735F74 		.ascii	"os_tcb\000"
 3902      636200
 3903              	.LASF104:
 3904 0007 4F535F45 		.ascii	"OS_ERR_PRIO_INVALID\000"
 3904      52525F50 
 3904      52494F5F 
 3904      494E5641 
 3904      4C494400 
 3905              	.LASF197:
 3906 001b 4F535F45 		.ascii	"OS_ERR\000"
 3906      525200
 3907              	.LASF306:
 3908 0022 705F6D75 		.ascii	"p_mutex_prev\000"
 3908      7465785F 
 3908      70726576 
 3908      00
 3909              	.LASF21:
 3910 002f 4F535F43 		.ascii	"OS_CTX_SW_CTR\000"
 3910      54585F53 
 3910      575F4354 
 3910      5200
 3911              	.LASF299:
 3912 003d 4F534D75 		.ascii	"OSMutexDel\000"
 3912      74657844 
 3912      656C00
 3913              	.LASF183:
 3914 0048 4F535F45 		.ascii	"OS_ERR_TMR_ISR\000"
 3914      52525F54 
 3914      4D525F49 
 3914      535200
 3915              	.LASF170:
 3916 0057 4F535F45 		.ascii	"OS_ERR_TIME_INVALID_MINUTES\000"
 3916      52525F54 
 3916      494D455F 
 3916      494E5641 
 3916      4C49445F 
 3917              	.LASF37:
 3918 0073 4F535F45 		.ascii	"OS_ERR_A\000"
 3918      52525F41 
 3918      00
 3919              	.LASF39:
 3920 007c 4F535F45 		.ascii	"OS_ERR_B\000"
 3920      52525F42 
 3920      00
 3921              	.LASF40:
 3922 0085 4F535F45 		.ascii	"OS_ERR_C\000"
 3922      52525F43 
 3922      00
 3923              	.LASF42:
 3924 008e 4F535F45 		.ascii	"OS_ERR_D\000"
ARM GAS  C:\Users\Aluno\AppData\Local\Temp\cccS7k0x.s 			page 86


 3924      52525F44 
 3924      00
 3925              	.LASF44:
 3926 0097 4F535F45 		.ascii	"OS_ERR_E\000"
 3926      52525F45 
 3926      00
 3927              	.LASF45:
 3928 00a0 4F535F45 		.ascii	"OS_ERR_F\000"
 3928      52525F46 
 3928      00
 3929              	.LASF51:
 3930 00a9 4F535F45 		.ascii	"OS_ERR_G\000"
 3930      52525F47 
 3930      00
 3931              	.LASF52:
 3932 00b2 4F535F45 		.ascii	"OS_ERR_H\000"
 3932      52525F48 
 3932      00
 3933              	.LASF53:
 3934 00bb 4F535F45 		.ascii	"OS_ERR_I\000"
 3934      52525F49 
 3934      00
 3935              	.LASF60:
 3936 00c4 4F535F45 		.ascii	"OS_ERR_J\000"
 3936      52525F4A 
 3936      00
 3937              	.LASF61:
 3938 00cd 4F535F45 		.ascii	"OS_ERR_K\000"
 3938      52525F4B 
 3938      00
 3939              	.LASF62:
 3940 00d6 4F535F45 		.ascii	"OS_ERR_L\000"
 3940      52525F4C 
 3940      00
 3941              	.LASF64:
 3942 00df 4F535F45 		.ascii	"OS_ERR_M\000"
 3942      52525F4D 
 3942      00
 3943              	.LASF80:
 3944 00e8 4F535F45 		.ascii	"OS_ERR_N\000"
 3944      52525F4E 
 3944      00
 3945              	.LASF83:
 3946 00f1 4F535F45 		.ascii	"OS_ERR_O\000"
 3946      52525F4F 
 3946      00
 3947              	.LASF91:
 3948 00fa 4F535F45 		.ascii	"OS_ERR_P\000"
 3948      52525F50 
 3948      00
 3949              	.LASF106:
 3950 0103 4F535F45 		.ascii	"OS_ERR_Q\000"
 3950      52525F51 
 3950      00
 3951              	.LASF111:
 3952 010c 4F535F45 		.ascii	"OS_ERR_R\000"
 3952      52525F52 
ARM GAS  C:\Users\Aluno\AppData\Local\Temp\cccS7k0x.s 			page 87


 3952      00
 3953              	.LASF115:
 3954 0115 4F535F45 		.ascii	"OS_ERR_S\000"
 3954      52525F53 
 3954      00
 3955              	.LASF132:
 3956 011e 4F535F45 		.ascii	"OS_ERR_T\000"
 3956      52525F54 
 3956      00
 3957              	.LASF190:
 3958 0127 4F535F45 		.ascii	"OS_ERR_U\000"
 3958      52525F55 
 3958      00
 3959              	.LASF191:
 3960 0130 4F535F45 		.ascii	"OS_ERR_V\000"
 3960      52525F56 
 3960      00
 3961              	.LASF192:
 3962 0139 4F535F45 		.ascii	"OS_ERR_W\000"
 3962      52525F57 
 3962      00
 3963              	.LASF193:
 3964 0142 4F535F45 		.ascii	"OS_ERR_X\000"
 3964      52525F58 
 3964      00
 3965              	.LASF180:
 3966 014b 4F535F45 		.ascii	"OS_ERR_TMR_INVALID_PERIOD\000"
 3966      52525F54 
 3966      4D525F49 
 3966      4E56414C 
 3966      49445F50 
 3967              	.LASF317:
 3968 0165 6F735F65 		.ascii	"os_err\000"
 3968      727200
 3969              	.LASF209:
 3970 016c 4E627245 		.ascii	"NbrEntries\000"
 3970      6E747269 
 3970      657300
 3971              	.LASF57:
 3972 0177 4F535F45 		.ascii	"OS_ERR_INT_Q_SIZE\000"
 3972      52525F49 
 3972      4E545F51 
 3972      5F53495A 
 3972      4500
 3973              	.LASF41:
 3974 0189 4F535F45 		.ascii	"OS_ERR_CREATE_ISR\000"
 3974      52525F43 
 3974      52454154 
 3974      455F4953 
 3974      5200
 3975              	.LASF221:
 3976 019b 4F776E65 		.ascii	"OwnerNestingCtr\000"
 3976      724E6573 
 3976      74696E67 
 3976      43747200 
 3977              	.LASF20:
 3978 01ab 4F535F43 		.ascii	"OS_CPU_USAGE\000"
ARM GAS  C:\Users\Aluno\AppData\Local\Temp\cccS7k0x.s 			page 88


 3978      50555F55 
 3978      53414745 
 3978      00
 3979              	.LASF164:
 3980 01b8 4F535F45 		.ascii	"OS_ERR_TICK_STK_SIZE_INVALID\000"
 3980      52525F54 
 3980      49434B5F 
 3980      53544B5F 
 3980      53495A45 
 3981              	.LASF8:
 3982 01d5 4350555F 		.ascii	"CPU_INT32U\000"
 3982      494E5433 
 3982      325500
 3983              	.LASF313:
 3984 01e0 4F535443 		.ascii	"OSTCBCurPtr\000"
 3984      42437572 
 3984      50747200 
 3985              	.LASF211:
 3986 01ec 4F535F4D 		.ascii	"OS_MUTEX\000"
 3986      55544558 
 3986      00
 3987              	.LASF129:
 3988 01f5 4F535F45 		.ascii	"OS_ERR_STK_INVALID\000"
 3988      52525F53 
 3988      544B5F49 
 3988      4E56414C 
 3988      494400
 3989              	.LASF254:
 3990 0208 466C6167 		.ascii	"FlagsOpt\000"
 3990      734F7074 
 3990      00
 3991              	.LASF145:
 3992 0211 4F535F45 		.ascii	"OS_ERR_TASK_RESUME_ISR\000"
 3992      52525F54 
 3992      41534B5F 
 3992      52455355 
 3992      4D455F49 
 3993              	.LASF99:
 3994 0228 4F535F45 		.ascii	"OS_ERR_PEND_WOULD_BLOCK\000"
 3994      52525F50 
 3994      454E445F 
 3994      574F554C 
 3994      445F424C 
 3995              	.LASF133:
 3996 0240 4F535F45 		.ascii	"OS_ERR_TASK_CHANGE_PRIO_ISR\000"
 3996      52525F54 
 3996      41534B5F 
 3996      4348414E 
 3996      47455F50 
 3997              	.LASF123:
 3998 025c 4F535F45 		.ascii	"OS_ERR_STAT_RESET_ISR\000"
 3998      52525F53 
 3998      5441545F 
 3998      52455345 
 3998      545F4953 
 3999              	.LASF309:
 4000 0272 4F534D75 		.ascii	"OSMutexDbgListPtr\000"
ARM GAS  C:\Users\Aluno\AppData\Local\Temp\cccS7k0x.s 			page 89


 4000      74657844 
 4000      62674C69 
 4000      73745074 
 4000      7200
 4001              	.LASF98:
 4002 0284 4F535F45 		.ascii	"OS_ERR_PEND_LOCKED\000"
 4002      52525F50 
 4002      454E445F 
 4002      4C4F434B 
 4002      454400
 4003              	.LASF27:
 4004 0297 4F535F4F 		.ascii	"OS_OBJ_QTY\000"
 4004      424A5F51 
 4004      545900
 4005              	.LASF314:
 4006 02a2 474E5520 		.ascii	"GNU C11 5.4.1 20160609 (release) [ARM/embedded-5-br"
 4006      43313120 
 4006      352E342E 
 4006      31203230 
 4006      31363036 
 4007 02d5 616E6368 		.ascii	"anch revision 237715] -mcpu=cortex-m3 -mthumb -g -O"
 4007      20726576 
 4007      6973696F 
 4007      6E203233 
 4007      37373135 
 4008 0308 30202D66 		.ascii	"0 -ffunction-sections -ffat-lto-objects\000"
 4008      66756E63 
 4008      74696F6E 
 4008      2D736563 
 4008      74696F6E 
 4009              	.LASF143:
 4010 0330 4F535F45 		.ascii	"OS_ERR_TASK_NOT_SUSPENDED\000"
 4010      52525F54 
 4010      41534B5F 
 4010      4E4F545F 
 4010      53555350 
 4011              	.LASF141:
 4012 034a 4F535F45 		.ascii	"OS_ERR_TASK_NOT_DLY\000"
 4012      52525F54 
 4012      41534B5F 
 4012      4E4F545F 
 4012      444C5900 
 4013              	.LASF216:
 4014 035e 44626750 		.ascii	"DbgPrevPtr\000"
 4014      72657650 
 4014      747200
 4015              	.LASF55:
 4016 0369 4F535F45 		.ascii	"OS_ERR_INT_Q\000"
 4016      52525F49 
 4016      4E545F51 
 4016      00
 4017              	.LASF217:
 4018 0376 4462674E 		.ascii	"DbgNextPtr\000"
 4018      65787450 
 4018      747200
 4019              	.LASF155:
 4020 0381 4F535F45 		.ascii	"OS_ERR_TASK_WAITING\000"
ARM GAS  C:\Users\Aluno\AppData\Local\Temp\cccS7k0x.s 			page 90


 4020      52525F54 
 4020      41534B5F 
 4020      57414954 
 4020      494E4700 
 4021              	.LASF38:
 4022 0395 4F535F45 		.ascii	"OS_ERR_ACCEPT_ISR\000"
 4022      52525F41 
 4022      43434550 
 4022      545F4953 
 4022      5200
 4023              	.LASF153:
 4024 03a7 4F535F45 		.ascii	"OS_ERR_TASK_SUSPEND_ISR\000"
 4024      52525F54 
 4024      41534B5F 
 4024      53555350 
 4024      454E445F 
 4025              	.LASF79:
 4026 03bf 4F535F45 		.ascii	"OS_ERR_MUTEX_NESTING\000"
 4026      52525F4D 
 4026      55544558 
 4026      5F4E4553 
 4026      54494E47 
 4027              	.LASF291:
 4028 03d4 705F7065 		.ascii	"p_pend_list\000"
 4028      6E645F6C 
 4028      69737400 
 4029              	.LASF181:
 4030 03e0 4F535F45 		.ascii	"OS_ERR_TMR_INVALID_STATE\000"
 4030      52525F54 
 4030      4D525F49 
 4030      4E56414C 
 4030      49445F53 
 4031              	.LASF236:
 4032 03f9 50656E64 		.ascii	"PendOn\000"
 4032      4F6E00
 4033              	.LASF241:
 4034 0400 50656E64 		.ascii	"PendDataTblEntries\000"
 4034      44617461 
 4034      54626C45 
 4034      6E747269 
 4034      657300
 4035              	.LASF84:
 4036 0413 4F535F45 		.ascii	"OS_ERR_OBJ_CREATED\000"
 4036      52525F4F 
 4036      424A5F43 
 4036      52454154 
 4036      454400
 4037              	.LASF310:
 4038 0426 4F534D75 		.ascii	"OSMutexQty\000"
 4038      74657851 
 4038      747900
 4039              	.LASF281:
 4040 0431 5461696C 		.ascii	"TailPtr\000"
 4040      50747200 
 4041              	.LASF151:
 4042 0439 4F535F45 		.ascii	"OS_ERR_TASK_SUSPEND_IDLE\000"
 4042      52525F54 
ARM GAS  C:\Users\Aluno\AppData\Local\Temp\cccS7k0x.s 			page 91


 4042      41534B5F 
 4042      53555350 
 4042      454E445F 
 4043              	.LASF56:
 4044 0452 4F535F45 		.ascii	"OS_ERR_INT_Q_FULL\000"
 4044      52525F49 
 4044      4E545F51 
 4044      5F46554C 
 4044      4C00
 4045              	.LASF244:
 4046 0464 5469636B 		.ascii	"TickCtrMatch\000"
 4046      4374724D 
 4046      61746368 
 4046      00
 4047              	.LASF275:
 4048 0471 5264794D 		.ascii	"RdyMsgPtr\000"
 4048      73675074 
 4048      7200
 4049              	.LASF283:
 4050 047b 6F735F70 		.ascii	"os_pend_obj\000"
 4050      656E645F 
 4050      6F626A00 
 4051              	.LASF54:
 4052 0487 4F535F45 		.ascii	"OS_ERR_ILLEGAL_CREATE_RUN_TIME\000"
 4052      52525F49 
 4052      4C4C4547 
 4052      414C5F43 
 4052      52454154 
 4053              	.LASF252:
 4054 04a6 466C6167 		.ascii	"FlagsPend\000"
 4054      7350656E 
 4054      6400
 4055              	.LASF179:
 4056 04b0 4F535F45 		.ascii	"OS_ERR_TMR_INVALID_DLY\000"
 4056      52525F54 
 4056      4D525F49 
 4056      4E56414C 
 4056      49445F44 
 4057              	.LASF219:
 4058 04c7 4F776E65 		.ascii	"OwnerTCBPtr\000"
 4058      72544342 
 4058      50747200 
 4059              	.LASF258:
 4060 04d3 43747853 		.ascii	"CtxSwCtr\000"
 4060      77437472 
 4060      00
 4061              	.LASF146:
 4062 04dc 4F535F45 		.ascii	"OS_ERR_TASK_RESUME_PRIO\000"
 4062      52525F54 
 4062      41534B5F 
 4062      52455355 
 4062      4D455F50 
 4063              	.LASF30:
 4064 04f4 4F535F50 		.ascii	"OS_PRIO\000"
 4064      52494F00 
 4065              	.LASF12:
 4066 04fc 666C6F61 		.ascii	"float\000"
ARM GAS  C:\Users\Aluno\AppData\Local\Temp\cccS7k0x.s 			page 92


 4066      7400
 4067              	.LASF100:
 4068 0502 4F535F45 		.ascii	"OS_ERR_POST_NULL_PTR\000"
 4068      52525F50 
 4068      4F53545F 
 4068      4E554C4C 
 4068      5F505452 
 4069              	.LASF82:
 4070 0517 4F535F45 		.ascii	"OS_ERR_NO_MORE_ID_AVAIL\000"
 4070      52525F4E 
 4070      4F5F4D4F 
 4070      52455F49 
 4070      445F4156 
 4071              	.LASF267:
 4072 052f 4F535F54 		.ascii	"OS_TICK_SPOKE\000"
 4072      49434B5F 
 4072      53504F4B 
 4072      4500
 4073              	.LASF72:
 4074 053d 4F535F45 		.ascii	"OS_ERR_MEM_INVALID_P_DATA\000"
 4074      52525F4D 
 4074      454D5F49 
 4074      4E56414C 
 4074      49445F50 
 4075              	.LASF288:
 4076 0557 6370755F 		.ascii	"cpu_sr\000"
 4076      737200
 4077              	.LASF184:
 4078 055e 4F535F45 		.ascii	"OS_ERR_TMR_NO_CALLBACK\000"
 4078      52525F54 
 4078      4D525F4E 
 4078      4F5F4341 
 4078      4C4C4241 
 4079              	.LASF177:
 4080 0575 4F535F45 		.ascii	"OS_ERR_TMR_INACTIVE\000"
 4080      52525F54 
 4080      4D525F49 
 4080      4E414354 
 4080      49564500 
 4081              	.LASF157:
 4082 0589 4F535F45 		.ascii	"OS_ERR_TLS_ID_INVALID\000"
 4082      52525F54 
 4082      4C535F49 
 4082      445F494E 
 4082      56414C49 
 4083              	.LASF10:
 4084 059f 6C6F6E67 		.ascii	"long long unsigned int\000"
 4084      206C6F6E 
 4084      6720756E 
 4084      7369676E 
 4084      65642069 
 4085              	.LASF148:
 4086 05b6 4F535F45 		.ascii	"OS_ERR_TASK_RUNNING\000"
 4086      52525F54 
 4086      41534B5F 
 4086      52554E4E 
 4086      494E4700 
ARM GAS  C:\Users\Aluno\AppData\Local\Temp\cccS7k0x.s 			page 93


 4087              	.LASF265:
 4088 05ca 53746B55 		.ascii	"StkUsed\000"
 4088      73656400 
 4089              	.LASF182:
 4090 05d2 4F535F45 		.ascii	"OS_ERR_TMR_INVALID\000"
 4090      52525F54 
 4090      4D525F49 
 4090      4E56414C 
 4090      494400
 4091              	.LASF270:
 4092 05e5 4F535F50 		.ascii	"OS_PEND_DATA\000"
 4092      454E445F 
 4092      44415441 
 4092      00
 4093              	.LASF152:
 4094 05f2 4F535F45 		.ascii	"OS_ERR_TASK_SUSPEND_INT_HANDLER\000"
 4094      52525F54 
 4094      41534B5F 
 4094      53555350 
 4094      454E445F 
 4095              	.LASF137:
 4096 0612 4F535F45 		.ascii	"OS_ERR_TASK_DEL_INVALID\000"
 4096      52525F54 
 4096      41534B5F 
 4096      44454C5F 
 4096      494E5641 
 4097              	.LASF294:
 4098 062a 4F534D75 		.ascii	"OSMutexCreate\000"
 4098      74657843 
 4098      72656174 
 4098      6500
 4099              	.LASF187:
 4100 0638 4F535F45 		.ascii	"OS_ERR_TMR_STK_INVALID\000"
 4100      52525F54 
 4100      4D525F53 
 4100      544B5F49 
 4100      4E56414C 
 4101              	.LASF3:
 4102 064f 4350555F 		.ascii	"CPU_INT08U\000"
 4102      494E5430 
 4102      385500
 4103              	.LASF204:
 4104 065a 6F735F6D 		.ascii	"os_msg\000"
 4104      736700
 4105              	.LASF156:
 4106 0661 4F535F45 		.ascii	"OS_ERR_TCB_INVALID\000"
 4106      52525F54 
 4106      43425F49 
 4106      4E56414C 
 4106      494400
 4107              	.LASF240:
 4108 0674 53746B53 		.ascii	"StkSize\000"
 4108      697A6500 
 4109              	.LASF232:
 4110 067c 53746B42 		.ascii	"StkBasePtr\000"
 4110      61736550 
 4110      747200
ARM GAS  C:\Users\Aluno\AppData\Local\Temp\cccS7k0x.s 			page 94


 4111              	.LASF108:
 4112 0687 4F535F45 		.ascii	"OS_ERR_Q_EMPTY\000"
 4112      52525F51 
 4112      5F454D50 
 4112      545900
 4113              	.LASF172:
 4114 0696 4F535F45 		.ascii	"OS_ERR_TIME_INVALID_MILLISECONDS\000"
 4114      52525F54 
 4114      494D455F 
 4114      494E5641 
 4114      4C49445F 
 4115              	.LASF311:
 4116 06b7 4F535072 		.ascii	"OSPrioCur\000"
 4116      696F4375 
 4116      7200
 4117              	.LASF31:
 4118 06c1 4F535F52 		.ascii	"OS_REG\000"
 4118      454700
 4119              	.LASF81:
 4120 06c8 4F535F45 		.ascii	"OS_ERR_NAME\000"
 4120      52525F4E 
 4120      414D4500 
 4121              	.LASF301:
 4122 06d4 4F534D75 		.ascii	"OSMutexPost\000"
 4122      74657850 
 4122      6F737400 
 4123              	.LASF247:
 4124 06e0 54696D65 		.ascii	"TimeQuantaCtr\000"
 4124      5175616E 
 4124      74614374 
 4124      7200
 4125              	.LASF34:
 4126 06ee 4F535F53 		.ascii	"OS_STATUS\000"
 4126      54415455 
 4126      5300
 4127              	.LASF238:
 4128 06f8 5461736B 		.ascii	"TaskState\000"
 4128      53746174 
 4128      6500
 4129              	.LASF161:
 4130 0702 4F535F45 		.ascii	"OS_ERR_TLS_DESTRUCT_ASSIGNED\000"
 4130      52525F54 
 4130      4C535F44 
 4130      45535452 
 4130      5543545F 
 4131              	.LASF77:
 4132 071f 4F535F45 		.ascii	"OS_ERR_MUTEX_NOT_OWNER\000"
 4132      52525F4D 
 4132      55544558 
 4132      5F4E4F54 
 4132      5F4F574E 
 4133              	.LASF25:
 4134 0736 4F535F4D 		.ascii	"OS_MSG_SIZE\000"
 4134      53475F53 
 4134      495A4500 
 4135              	.LASF169:
 4136 0742 4F535F45 		.ascii	"OS_ERR_TIME_INVALID_HOURS\000"
ARM GAS  C:\Users\Aluno\AppData\Local\Temp\cccS7k0x.s 			page 95


 4136      52525F54 
 4136      494D455F 
 4136      494E5641 
 4136      4C49445F 
 4137              	.LASF185:
 4138 075c 4F535F45 		.ascii	"OS_ERR_TMR_NON_AVAIL\000"
 4138      52525F54 
 4138      4D525F4E 
 4138      4F4E5F41 
 4138      5641494C 
 4139              	.LASF2:
 4140 0771 4350555F 		.ascii	"CPU_CHAR\000"
 4140      43484152 
 4140      00
 4141              	.LASF220:
 4142 077a 4F776E65 		.ascii	"OwnerOriginalPrio\000"
 4142      724F7269 
 4142      67696E61 
 4142      6C507269 
 4142      6F00
 4143              	.LASF134:
 4144 078c 4F535F45 		.ascii	"OS_ERR_TASK_CREATE_ISR\000"
 4144      52525F54 
 4144      41534B5F 
 4144      43524541 
 4144      54455F49 
 4145              	.LASF307:
 4146 07a3 4F535F4D 		.ascii	"OS_MutexInit\000"
 4146      75746578 
 4146      496E6974 
 4146      00
 4147              	.LASF16:
 4148 07b0 4350555F 		.ascii	"CPU_STK_SIZE\000"
 4148      53544B5F 
 4148      53495A45 
 4148      00
 4149              	.LASF24:
 4150 07bd 4F535F4D 		.ascii	"OS_MSG_QTY\000"
 4150      53475F51 
 4150      545900
 4151              	.LASF90:
 4152 07c8 4F535F45 		.ascii	"OS_ERR_OS_RUNNING\000"
 4152      52525F4F 
 4152      535F5255 
 4152      4E4E494E 
 4152      4700
 4153              	.LASF266:
 4154 07da 53746B46 		.ascii	"StkFree\000"
 4154      72656500 
 4155              	.LASF243:
 4156 07e2 5469636B 		.ascii	"TickCtrPrev\000"
 4156      43747250 
 4156      72657600 
 4157              	.LASF208:
 4158 07ee 4E627245 		.ascii	"NbrEntriesSize\000"
 4158      6E747269 
 4158      65735369 
ARM GAS  C:\Users\Aluno\AppData\Local\Temp\cccS7k0x.s 			page 96


 4158      7A6500
 4159              	.LASF175:
 4160 07fd 4F535F45 		.ascii	"OS_ERR_TIME_ZERO_DLY\000"
 4160      52525F54 
 4160      494D455F 
 4160      5A45524F 
 4160      5F444C59 
 4161              	.LASF230:
 4162 0812 5469636B 		.ascii	"TickPrevPtr\000"
 4162      50726576 
 4162      50747200 
 4163              	.LASF253:
 4164 081e 466C6167 		.ascii	"FlagsRdy\000"
 4164      73526479 
 4164      00
 4165              	.LASF125:
 4166 0827 4F535F45 		.ascii	"OS_ERR_STAT_STK_INVALID\000"
 4166      52525F53 
 4166      5441545F 
 4166      53544B5F 
 4166      494E5641 
 4167              	.LASF47:
 4168 083f 4F535F45 		.ascii	"OS_ERR_FLAG_GRP_DEPLETED\000"
 4168      52525F46 
 4168      4C41475F 
 4168      4752505F 
 4168      4445504C 
 4169              	.LASF68:
 4170 0858 4F535F45 		.ascii	"OS_ERR_MEM_INVALID_BLKS\000"
 4170      52525F4D 
 4170      454D5F49 
 4170      4E56414C 
 4170      49445F42 
 4171              	.LASF287:
 4172 0870 705F6572 		.ascii	"p_err\000"
 4172      7200
 4173              	.LASF250:
 4174 0876 4D736751 		.ascii	"MsgQPendTimeMax\000"
 4174      50656E64 
 4174      54696D65 
 4174      4D617800 
 4175              	.LASF249:
 4176 0886 4D736751 		.ascii	"MsgQPendTime\000"
 4176      50656E64 
 4176      54696D65 
 4176      00
 4177              	.LASF198:
 4178 0893 4F535F4D 		.ascii	"OS_MSG\000"
 4178      534700
 4179              	.LASF286:
 4180 089a 705F6E61 		.ascii	"p_name\000"
 4180      6D6500
 4181              	.LASF178:
 4182 08a1 4F535F45 		.ascii	"OS_ERR_TMR_INVALID_DEST\000"
 4182      52525F54 
 4182      4D525F49 
 4182      4E56414C 
ARM GAS  C:\Users\Aluno\AppData\Local\Temp\cccS7k0x.s 			page 97


 4182      49445F44 
 4183              	.LASF302:
 4184 08b9 4F535F4D 		.ascii	"OS_MutexClr\000"
 4184      75746578 
 4184      436C7200 
 4185              	.LASF117:
 4186 08c5 4F535F45 		.ascii	"OS_ERR_SCHED_LOCK_ISR\000"
 4186      52525F53 
 4186      43484544 
 4186      5F4C4F43 
 4186      4B5F4953 
 4187              	.LASF43:
 4188 08db 4F535F45 		.ascii	"OS_ERR_DEL_ISR\000"
 4188      52525F44 
 4188      454C5F49 
 4188      535200
 4189              	.LASF109:
 4190 08ea 4F535F45 		.ascii	"OS_ERR_Q_MAX\000"
 4190      52525F51 
 4190      5F4D4158 
 4190      00
 4191              	.LASF290:
 4192 08f7 705F7065 		.ascii	"p_pend_data\000"
 4192      6E645F64 
 4192      61746100 
 4193              	.LASF228:
 4194 0903 50726576 		.ascii	"PrevPtr\000"
 4194      50747200 
 4195              	.LASF0:
 4196 090b 63686172 		.ascii	"char\000"
 4196      00
 4197              	.LASF28:
 4198 0910 4F535F4F 		.ascii	"OS_OBJ_TYPE\000"
 4198      424A5F54 
 4198      59504500 
 4199              	.LASF160:
 4200 091c 4F535F45 		.ascii	"OS_ERR_TLS_NOT_EN\000"
 4200      52525F54 
 4200      4C535F4E 
 4200      4F545F45 
 4200      4E00
 4201              	.LASF88:
 4202 092e 4F535F45 		.ascii	"OS_ERR_OPT_INVALID\000"
 4202      52525F4F 
 4202      50545F49 
 4202      4E56414C 
 4202      494400
 4203              	.LASF17:
 4204 0941 4350555F 		.ascii	"CPU_SR\000"
 4204      535200
 4205              	.LASF116:
 4206 0948 4F535F45 		.ascii	"OS_ERR_SCHED_INVALID_TIME_SLICE\000"
 4206      52525F53 
 4206      43484544 
 4206      5F494E56 
 4206      414C4944 
 4207              	.LASF248:
ARM GAS  C:\Users\Aluno\AppData\Local\Temp\cccS7k0x.s 			page 98


 4208 0968 4D736751 		.ascii	"MsgQ\000"
 4208      00
 4209              	.LASF233:
 4210 096d 5461736B 		.ascii	"TaskEntryAddr\000"
 4210      456E7472 
 4210      79416464 
 4210      7200
 4211              	.LASF124:
 4212 097b 4F535F45 		.ascii	"OS_ERR_STAT_PRIO_INVALID\000"
 4212      52525F53 
 4212      5441545F 
 4212      5052494F 
 4212      5F494E56 
 4213              	.LASF173:
 4214 0994 4F535F45 		.ascii	"OS_ERR_TIME_NOT_DLY\000"
 4214      52525F54 
 4214      494D455F 
 4214      4E4F545F 
 4214      444C5900 
 4215              	.LASF214:
 4216 09a8 4E616D65 		.ascii	"NamePtr\000"
 4216      50747200 
 4217              	.LASF237:
 4218 09b0 50656E64 		.ascii	"PendStatus\000"
 4218      53746174 
 4218      757300
 4219              	.LASF203:
 4220 09bb 4F535F4D 		.ascii	"OS_MSG_Q\000"
 4220      53475F51 
 4220      00
 4221              	.LASF213:
 4222 09c4 54797065 		.ascii	"Type\000"
 4222      00
 4223              	.LASF195:
 4224 09c9 4F535F45 		.ascii	"OS_ERR_YIELD_ISR\000"
 4224      52525F59 
 4224      49454C44 
 4224      5F495352 
 4224      00
 4225              	.LASF85:
 4226 09da 4F535F45 		.ascii	"OS_ERR_OBJ_DEL\000"
 4226      52525F4F 
 4226      424A5F44 
 4226      454C00
 4227              	.LASF19:
 4228 09e9 4350555F 		.ascii	"CPU_TS\000"
 4228      545300
 4229              	.LASF11:
 4230 09f0 6C6F6E67 		.ascii	"long long int\000"
 4230      206C6F6E 
 4230      6720696E 
 4230      7400
 4231              	.LASF49:
 4232 09fe 4F535F45 		.ascii	"OS_ERR_FLAG_PEND_OPT\000"
 4232      52525F46 
 4232      4C41475F 
 4232      50454E44 
ARM GAS  C:\Users\Aluno\AppData\Local\Temp\cccS7k0x.s 			page 99


 4232      5F4F5054 
 4233              	.LASF225:
 4234 0a13 53746B50 		.ascii	"StkPtr\000"
 4234      747200
 4235              	.LASF268:
 4236 0a1a 6F735F74 		.ascii	"os_tick_spoke\000"
 4236      69636B5F 
 4236      73706F6B 
 4236      6500
 4237              	.LASF292:
 4238 0a28 705F7463 		.ascii	"p_tcb\000"
 4238      6200
 4239              	.LASF110:
 4240 0a2e 4F535F45 		.ascii	"OS_ERR_Q_SIZE\000"
 4240      52525F51 
 4240      5F53495A 
 4240      4500
 4241              	.LASF316:
 4242 0a3c 433A5C55 		.ascii	"C:\\Users\\Aluno\\Documents\\PSoC Creator\\BCC722-P"
 4242      73657273 
 4242      5C416C75 
 4242      6E6F5C44 
 4242      6F63756D 
 4243 0a6a 52415449 		.ascii	"RATICA-03\\UCoS\\Micrium_2\\Software\\EvalBoards\\C"
 4243      43412D30 
 4243      335C5543 
 4243      6F535C4D 
 4243      69637269 
 4244 0a98 79707265 		.ascii	"ypress\\CY8CKIT-050\\PSoC\\uCOS-III-Probe\\Pratica0"
 4244      73735C43 
 4244      5938434B 
 4244      49542D30 
 4244      35305C50 
 4245 0ac7 332D7543 		.ascii	"3-uCOS-III.cydsn\000"
 4245      4F532D49 
 4245      49492E63 
 4245      7964736E 
 4245      00
 4246              	.LASF260:
 4247 0ad8 4379636C 		.ascii	"CyclesStart\000"
 4247      65735374 
 4247      61727400 
 4248              	.LASF298:
 4249 0ae4 70656E64 		.ascii	"pend_data\000"
 4249      5F646174 
 4249      6100
 4250              	.LASF272:
 4251 0aee 54434250 		.ascii	"TCBPtr\000"
 4251      747200
 4252              	.LASF95:
 4253 0af5 4F535F45 		.ascii	"OS_ERR_PEND_ABORT_SELF\000"
 4253      52525F50 
 4253      454E445F 
 4253      41424F52 
 4253      545F5345 
 4254              	.LASF5:
 4255 0b0c 4350555F 		.ascii	"CPU_INT16U\000"
ARM GAS  C:\Users\Aluno\AppData\Local\Temp\cccS7k0x.s 			page 100


 4255      494E5431 
 4255      365500
 4256              	.LASF315:
 4257 0b17 2E2E5C2E 		.ascii	"..\\..\\..\\..\\..\\..\\uCOS-III\\Source\\os_mutex."
 4257      2E5C2E2E 
 4257      5C2E2E5C 
 4257      2E2E5C2E 
 4257      2E5C7543 
 4258 0b42 6300     		.ascii	"c\000"
 4259              	.LASF114:
 4260 0b44 4F535F45 		.ascii	"OS_ERR_ROUND_ROBIN_DISABLED\000"
 4260      52525F52 
 4260      4F554E44 
 4260      5F524F42 
 4260      494E5F44 
 4261              	.LASF69:
 4262 0b60 4F535F45 		.ascii	"OS_ERR_MEM_INVALID_PART\000"
 4262      52525F4D 
 4262      454D5F49 
 4262      4E56414C 
 4262      49445F50 
 4263              	.LASF86:
 4264 0b78 4F535F45 		.ascii	"OS_ERR_OBJ_PTR_NULL\000"
 4264      52525F4F 
 4264      424A5F50 
 4264      54525F4E 
 4264      554C4C00 
 4265              	.LASF112:
 4266 0b8c 4F535F45 		.ascii	"OS_ERR_REG_ID_INVALID\000"
 4266      52525F52 
 4266      45475F49 
 4266      445F494E 
 4266      56414C49 
 4267              	.LASF289:
 4268 0ba2 6E62725F 		.ascii	"nbr_tasks\000"
 4268      7461736B 
 4268      7300
 4269              	.LASF35:
 4270 0bac 4F535F54 		.ascii	"OS_TICK\000"
 4270      49434B00 
 4271              	.LASF66:
 4272 0bb4 4F535F45 		.ascii	"OS_ERR_MEM_FULL\000"
 4272      52525F4D 
 4272      454D5F46 
 4272      554C4C00 
 4273              	.LASF140:
 4274 0bc4 4F535F45 		.ascii	"OS_ERR_TASK_NO_MORE_TCB\000"
 4274      52525F54 
 4274      41534B5F 
 4274      4E4F5F4D 
 4274      4F52455F 
 4275              	.LASF71:
 4276 0bdc 4F535F45 		.ascii	"OS_ERR_MEM_INVALID_P_MEM\000"
 4276      52525F4D 
 4276      454D5F49 
 4276      4E56414C 
 4276      49445F50 
ARM GAS  C:\Users\Aluno\AppData\Local\Temp\cccS7k0x.s 			page 101


 4277              	.LASF18:
 4278 0bf5 4350555F 		.ascii	"CPU_TS32\000"
 4278      54533332 
 4278      00
 4279              	.LASF255:
 4280 0bfe 53757370 		.ascii	"SuspendCtr\000"
 4280      656E6443 
 4280      747200
 4281              	.LASF227:
 4282 0c09 53746B4C 		.ascii	"StkLimitPtr\000"
 4282      696D6974 
 4282      50747200 
 4283              	.LASF259:
 4284 0c15 4379636C 		.ascii	"CyclesDelta\000"
 4284      65734465 
 4284      6C746100 
 4285              	.LASF32:
 4286 0c21 4F535F53 		.ascii	"OS_SEM_CTR\000"
 4286      454D5F43 
 4286      545200
 4287              	.LASF188:
 4288 0c2c 4F535F45 		.ascii	"OS_ERR_TMR_STK_SIZE_INVALID\000"
 4288      52525F54 
 4288      4D525F53 
 4288      544B5F53 
 4288      495A455F 
 4289              	.LASF165:
 4290 0c48 4F535F45 		.ascii	"OS_ERR_TICK_WHEEL_SIZE\000"
 4290      52525F54 
 4290      49434B5F 
 4290      57484545 
 4290      4C5F5349 
 4291              	.LASF229:
 4292 0c5f 5469636B 		.ascii	"TickNextPtr\000"
 4292      4E657874 
 4292      50747200 
 4293              	.LASF142:
 4294 0c6b 4F535F45 		.ascii	"OS_ERR_TASK_NOT_EXIST\000"
 4294      52525F54 
 4294      41534B5F 
 4294      4E4F545F 
 4294      45584953 
 4295              	.LASF139:
 4296 0c81 4F535F45 		.ascii	"OS_ERR_TASK_INVALID\000"
 4296      52525F54 
 4296      41534B5F 
 4296      494E5641 
 4296      4C494400 
 4297              	.LASF186:
 4298 0c95 4F535F45 		.ascii	"OS_ERR_TMR_PRIO_INVALID\000"
 4298      52525F54 
 4298      4D525F50 
 4298      52494F5F 
 4298      494E5641 
 4299              	.LASF297:
 4300 0cad 705F7473 		.ascii	"p_ts\000"
 4300      00
ARM GAS  C:\Users\Aluno\AppData\Local\Temp\cccS7k0x.s 			page 102


 4301              	.LASF154:
 4302 0cb2 4F535F45 		.ascii	"OS_ERR_TASK_SUSPEND_PRIO\000"
 4302      52525F54 
 4302      41534B5F 
 4302      53555350 
 4302      454E445F 
 4303              	.LASF274:
 4304 0ccb 5264794F 		.ascii	"RdyObjPtr\000"
 4304      626A5074 
 4304      7200
 4305              	.LASF59:
 4306 0cd5 4F535F45 		.ascii	"OS_ERR_INT_Q_STK_SIZE_INVALID\000"
 4306      52525F49 
 4306      4E545F51 
 4306      5F53544B 
 4306      5F53495A 
 4307              	.LASF158:
 4308 0cf3 4F535F45 		.ascii	"OS_ERR_TLS_ISR\000"
 4308      52525F54 
 4308      4C535F49 
 4308      535200
 4309              	.LASF138:
 4310 0d02 4F535F45 		.ascii	"OS_ERR_TASK_DEL_ISR\000"
 4310      52525F54 
 4310      41534B5F 
 4310      44454C5F 
 4310      49535200 
 4311              	.LASF263:
 4312 0d16 53656D50 		.ascii	"SemPendTime\000"
 4312      656E6454 
 4312      696D6500 
 4313              	.LASF105:
 4314 0d22 4F535F45 		.ascii	"OS_ERR_PTR_INVALID\000"
 4314      52525F50 
 4314      54525F49 
 4314      4E56414C 
 4314      494400
 4315              	.LASF127:
 4316 0d35 4F535F45 		.ascii	"OS_ERR_STATE_INVALID\000"
 4316      52525F53 
 4316      54415445 
 4316      5F494E56 
 4316      414C4944 
 4317              	.LASF199:
 4318 0d4a 4E657874 		.ascii	"NextPtr\000"
 4318      50747200 
 4319              	.LASF89:
 4320 0d52 4F535F45 		.ascii	"OS_ERR_OS_NOT_RUNNING\000"
 4320      52525F4F 
 4320      535F4E4F 
 4320      545F5255 
 4320      4E4E494E 
 4321              	.LASF212:
 4322 0d68 6F735F6D 		.ascii	"os_mutex\000"
 4322      75746578 
 4322      00
 4323              	.LASF304:
ARM GAS  C:\Users\Aluno\AppData\Local\Temp\cccS7k0x.s 			page 103


 4324 0d71 4F535F4D 		.ascii	"OS_MutexDbgListRemove\000"
 4324      75746578 
 4324      4462674C 
 4324      69737452 
 4324      656D6F76 
 4325              	.LASF308:
 4326 0d87 4F53496E 		.ascii	"OSIntNestingCtr\000"
 4326      744E6573 
 4326      74696E67 
 4326      43747200 
 4327              	.LASF174:
 4328 0d97 4F535F45 		.ascii	"OS_ERR_TIME_SET_ISR\000"
 4328      52525F54 
 4328      494D455F 
 4328      5345545F 
 4328      49535200 
 4329              	.LASF113:
 4330 0dab 4F535F45 		.ascii	"OS_ERR_ROUND_ROBIN_1\000"
 4330      52525F52 
 4330      4F554E44 
 4330      5F524F42 
 4330      494E5F31 
 4331              	.LASF70:
 4332 0dc0 4F535F45 		.ascii	"OS_ERR_MEM_INVALID_P_BLK\000"
 4332      52525F4D 
 4332      454D5F49 
 4332      4E56414C 
 4332      49445F50 
 4333              	.LASF67:
 4334 0dd9 4F535F45 		.ascii	"OS_ERR_MEM_INVALID_P_ADDR\000"
 4334      52525F4D 
 4334      454D5F49 
 4334      4E56414C 
 4334      49445F50 
 4335              	.LASF277:
 4336 0df3 52647954 		.ascii	"RdyTS\000"
 4336      5300
 4337              	.LASF63:
 4338 0df9 4F535F45 		.ascii	"OS_ERR_LOCK_NESTING_OVF\000"
 4338      52525F4C 
 4338      4F434B5F 
 4338      4E455354 
 4338      494E475F 
 4339              	.LASF149:
 4340 0e11 4F535F45 		.ascii	"OS_ERR_TASK_STK_CHK_ISR\000"
 4340      52525F54 
 4340      41534B5F 
 4340      53544B5F 
 4340      43484B5F 
 4341              	.LASF7:
 4342 0e29 73686F72 		.ascii	"short int\000"
 4342      7420696E 
 4342      7400
 4343              	.LASF276:
 4344 0e33 5264794D 		.ascii	"RdyMsgSize\000"
 4344      73675369 
 4344      7A6500
ARM GAS  C:\Users\Aluno\AppData\Local\Temp\cccS7k0x.s 			page 104


 4345              	.LASF75:
 4346 0e3e 4F535F45 		.ascii	"OS_ERR_MSG_POOL_EMPTY\000"
 4346      52525F4D 
 4346      53475F50 
 4346      4F4F4C5F 
 4346      454D5054 
 4347              	.LASF120:
 4348 0e54 4F535F45 		.ascii	"OS_ERR_SCHED_UNLOCK_ISR\000"
 4348      52525F53 
 4348      43484544 
 4348      5F554E4C 
 4348      4F434B5F 
 4349              	.LASF264:
 4350 0e6c 53656D50 		.ascii	"SemPendTimeMax\000"
 4350      656E6454 
 4350      696D654D 
 4350      617800
 4351              	.LASF285:
 4352 0e7b 705F6D75 		.ascii	"p_mutex\000"
 4352      74657800 
 4353              	.LASF262:
 4354 0e83 4379636C 		.ascii	"CyclesTotalPrev\000"
 4354      6573546F 
 4354      74616C50 
 4354      72657600 
 4355              	.LASF163:
 4356 0e93 4F535F45 		.ascii	"OS_ERR_TICK_STK_INVALID\000"
 4356      52525F54 
 4356      49434B5F 
 4356      53544B5F 
 4356      494E5641 
 4357              	.LASF76:
 4358 0eab 4F535F45 		.ascii	"OS_ERR_MSG_POOL_NULL_PTR\000"
 4358      52525F4D 
 4358      53475F50 
 4358      4F4F4C5F 
 4358      4E554C4C 
 4359              	.LASF26:
 4360 0ec4 4F535F4E 		.ascii	"OS_NESTING_CTR\000"
 4360      45535449 
 4360      4E475F43 
 4360      545200
 4361              	.LASF261:
 4362 0ed3 4379636C 		.ascii	"CyclesTotal\000"
 4362      6573546F 
 4362      74616C00 
 4363              	.LASF282:
 4364 0edf 4F535F50 		.ascii	"OS_PEND_OBJ\000"
 4364      454E445F 
 4364      4F424A00 
 4365              	.LASF147:
 4366 0eeb 4F535F45 		.ascii	"OS_ERR_TASK_RESUME_SELF\000"
 4366      52525F54 
 4366      41534B5F 
 4366      52455355 
 4366      4D455F53 
 4367              	.LASF257:
ARM GAS  C:\Users\Aluno\AppData\Local\Temp\cccS7k0x.s 			page 105


 4368 0f03 43505555 		.ascii	"CPUUsageMax\000"
 4368      73616765 
 4368      4D617800 
 4369              	.LASF215:
 4370 0f0f 50656E64 		.ascii	"PendList\000"
 4370      4C697374 
 4370      00
 4371              	.LASF87:
 4372 0f18 4F535F45 		.ascii	"OS_ERR_OBJ_TYPE\000"
 4372      52525F4F 
 4372      424A5F54 
 4372      59504500 
 4373              	.LASF235:
 4374 0f28 50656E64 		.ascii	"PendDataTblPtr\000"
 4374      44617461 
 4374      54626C50 
 4374      747200
 4375              	.LASF242:
 4376 0f37 53656D43 		.ascii	"SemCtr\000"
 4376      747200
 4377              	.LASF293:
 4378 0f3e 705F7463 		.ascii	"p_tcb_owner\000"
 4378      625F6F77 
 4378      6E657200 
 4379              	.LASF206:
 4380 0f4a 496E5074 		.ascii	"InPtr\000"
 4380      7200
 4381              	.LASF245:
 4382 0f50 5469636B 		.ascii	"TickRemain\000"
 4382      52656D61 
 4382      696E00
 4383              	.LASF280:
 4384 0f5b 48656164 		.ascii	"HeadPtr\000"
 4384      50747200 
 4385              	.LASF94:
 4386 0f63 4F535F45 		.ascii	"OS_ERR_PEND_ABORT_NONE\000"
 4386      52525F50 
 4386      454E445F 
 4386      41424F52 
 4386      545F4E4F 
 4387              	.LASF9:
 4388 0f7a 756E7369 		.ascii	"unsigned int\000"
 4388      676E6564 
 4388      20696E74 
 4388      00
 4389              	.LASF201:
 4390 0f87 4D736753 		.ascii	"MsgSize\000"
 4390      697A6500 
 4391              	.LASF78:
 4392 0f8f 4F535F45 		.ascii	"OS_ERR_MUTEX_OWNER\000"
 4392      52525F4D 
 4392      55544558 
 4392      5F4F574E 
 4392      455200
 4393              	.LASF269:
 4394 0fa2 46697273 		.ascii	"FirstPtr\000"
 4394      74507472 
ARM GAS  C:\Users\Aluno\AppData\Local\Temp\cccS7k0x.s 			page 106


 4394      00
 4395              	.LASF126:
 4396 0fab 4F535F45 		.ascii	"OS_ERR_STAT_STK_SIZE_INVALID\000"
 4396      52525F53 
 4396      5441545F 
 4396      53544B5F 
 4396      53495A45 
 4397              	.LASF48:
 4398 0fc8 4F535F45 		.ascii	"OS_ERR_FLAG_NOT_RDY\000"
 4398      52525F46 
 4398      4C41475F 
 4398      4E4F545F 
 4398      52445900 
 4399              	.LASF226:
 4400 0fdc 45787450 		.ascii	"ExtPtr\000"
 4400      747200
 4401              	.LASF284:
 4402 0fe3 73697A65 		.ascii	"sizetype\000"
 4402      74797065 
 4402      00
 4403              	.LASF300:
 4404 0fec 4F534D75 		.ascii	"OSMutexPendAbort\000"
 4404      74657850 
 4404      656E6441 
 4404      626F7274 
 4404      00
 4405              	.LASF93:
 4406 0ffd 4F535F45 		.ascii	"OS_ERR_PEND_ABORT_ISR\000"
 4406      52525F50 
 4406      454E445F 
 4406      41424F52 
 4406      545F4953 
 4407              	.LASF14:
 4408 1013 4350555F 		.ascii	"CPU_ADDR\000"
 4408      41444452 
 4408      00
 4409              	.LASF101:
 4410 101c 4F535F45 		.ascii	"OS_ERR_POST_ISR\000"
 4410      52525F50 
 4410      4F53545F 
 4410      49535200 
 4411              	.LASF166:
 4412 102c 4F535F45 		.ascii	"OS_ERR_TIME_DLY_ISR\000"
 4412      52525F54 
 4412      494D455F 
 4412      444C595F 
 4412      49535200 
 4413              	.LASF131:
 4414 1040 4F535F45 		.ascii	"OS_ERR_STK_LIMIT_INVALID\000"
 4414      52525F53 
 4414      544B5F4C 
 4414      494D4954 
 4414      5F494E56 
 4415              	.LASF22:
 4416 1059 4F535F43 		.ascii	"OS_CYCLES\000"
 4416      59434C45 
 4416      5300
ARM GAS  C:\Users\Aluno\AppData\Local\Temp\cccS7k0x.s 			page 107


 4417              	.LASF223:
 4418 1063 4F535F54 		.ascii	"OS_TCB\000"
 4418      434200
 4419              	.LASF130:
 4420 106a 4F535F45 		.ascii	"OS_ERR_STK_SIZE_INVALID\000"
 4420      52525F53 
 4420      544B5F53 
 4420      495A455F 
 4420      494E5641 
 4421              	.LASF189:
 4422 1082 4F535F45 		.ascii	"OS_ERR_TMR_STOPPED\000"
 4422      52525F54 
 4422      4D525F53 
 4422      544F5050 
 4422      454400
 4423              	.LASF1:
 4424 1095 756E7369 		.ascii	"unsigned char\000"
 4424      676E6564 
 4424      20636861 
 4424      7200
 4425              	.LASF144:
 4426 10a3 4F535F45 		.ascii	"OS_ERR_TASK_OPT\000"
 4426      52525F54 
 4426      41534B5F 
 4426      4F505400 
 4427              	.LASF312:
 4428 10b3 4F535363 		.ascii	"OSSchedLockNestingCtr\000"
 4428      6865644C 
 4428      6F636B4E 
 4428      65737469 
 4428      6E674374 
 4429              	.LASF176:
 4430 10c9 4F535F45 		.ascii	"OS_ERR_TIMEOUT\000"
 4430      52525F54 
 4430      494D454F 
 4430      555400
 4431              	.LASF33:
 4432 10d8 4F535F53 		.ascii	"OS_STATE\000"
 4432      54415445 
 4432      00
 4433              	.LASF296:
 4434 10e1 74696D65 		.ascii	"timeout\000"
 4434      6F757400 
 4435              	.LASF29:
 4436 10e9 4F535F4F 		.ascii	"OS_OPT\000"
 4436      505400
 4437              	.LASF222:
 4438 10f0 4F535F54 		.ascii	"OS_TASK_PTR\000"
 4438      41534B5F 
 4438      50545200 
 4439              	.LASF65:
 4440 10fc 4F535F45 		.ascii	"OS_ERR_MEM_CREATE_ISR\000"
 4440      52525F4D 
 4440      454D5F43 
 4440      52454154 
 4440      455F4953 
 4441              	.LASF128:
ARM GAS  C:\Users\Aluno\AppData\Local\Temp\cccS7k0x.s 			page 108


 4442 1112 4F535F45 		.ascii	"OS_ERR_STATUS_INVALID\000"
 4442      52525F53 
 4442      54415455 
 4442      535F494E 
 4442      56414C49 
 4443              	.LASF194:
 4444 1128 4F535F45 		.ascii	"OS_ERR_Y\000"
 4444      52525F59 
 4444      00
 4445              	.LASF97:
 4446 1131 4F535F45 		.ascii	"OS_ERR_PEND_ISR\000"
 4446      52525F50 
 4446      454E445F 
 4446      49535200 
 4447              	.LASF196:
 4448 1141 4F535F45 		.ascii	"OS_ERR_Z\000"
 4448      52525F5A 
 4448      00
 4449              	.LASF231:
 4450 114a 5469636B 		.ascii	"TickSpokePtr\000"
 4450      53706F6B 
 4450      65507472 
 4450      00
 4451              	.LASF218:
 4452 1157 4462674E 		.ascii	"DbgNamePtr\000"
 4452      616D6550 
 4452      747200
 4453              	.LASF207:
 4454 1162 4F757450 		.ascii	"OutPtr\000"
 4454      747200
 4455              	.LASF234:
 4456 1169 5461736B 		.ascii	"TaskEntryArg\000"
 4456      456E7472 
 4456      79417267 
 4456      00
 4457              	.LASF107:
 4458 1176 4F535F45 		.ascii	"OS_ERR_Q_FULL\000"
 4458      52525F51 
 4458      5F46554C 
 4458      4C00
 4459              	.LASF58:
 4460 1184 4F535F45 		.ascii	"OS_ERR_INT_Q_STK_INVALID\000"
 4460      52525F49 
 4460      4E545F51 
 4460      5F53544B 
 4460      5F494E56 
 4461              	.LASF171:
 4462 119d 4F535F45 		.ascii	"OS_ERR_TIME_INVALID_SECONDS\000"
 4462      52525F54 
 4462      494D455F 
 4462      494E5641 
 4462      4C49445F 
 4463              	.LASF135:
 4464 11b9 4F535F45 		.ascii	"OS_ERR_TASK_DEL\000"
 4464      52525F54 
 4464      41534B5F 
 4464      44454C00 
ARM GAS  C:\Users\Aluno\AppData\Local\Temp\cccS7k0x.s 			page 109


 4465              	.LASF278:
 4466 11c9 4F535F50 		.ascii	"OS_PEND_LIST\000"
 4466      454E445F 
 4466      4C495354 
 4466      00
 4467              	.LASF4:
 4468 11d6 7369676E 		.ascii	"signed char\000"
 4468      65642063 
 4468      68617200 
 4469              	.LASF202:
 4470 11e2 4D736754 		.ascii	"MsgTS\000"
 4470      5300
 4471              	.LASF46:
 4472 11e8 4F535F45 		.ascii	"OS_ERR_FATAL_RETURN\000"
 4472      52525F46 
 4472      4154414C 
 4472      5F524554 
 4472      55524E00 
 4473              	.LASF6:
 4474 11fc 73686F72 		.ascii	"short unsigned int\000"
 4474      7420756E 
 4474      7369676E 
 4474      65642069 
 4474      6E7400
 4475              	.LASF23:
 4476 120f 4F535F46 		.ascii	"OS_FLAGS\000"
 4476      4C414753 
 4476      00
 4477              	.LASF200:
 4478 1218 4D736750 		.ascii	"MsgPtr\000"
 4478      747200
 4479              	.LASF159:
 4480 121f 4F535F45 		.ascii	"OS_ERR_TLS_NO_MORE_AVAIL\000"
 4480      52525F54 
 4480      4C535F4E 
 4480      4F5F4D4F 
 4480      52455F41 
 4481              	.LASF303:
 4482 1238 4F535F4D 		.ascii	"OS_MutexDbgListAdd\000"
 4482      75746578 
 4482      4462674C 
 4482      69737441 
 4482      646400
 4483              	.LASF36:
 4484 124b 4F535F45 		.ascii	"OS_ERR_NONE\000"
 4484      52525F4E 
 4484      4F4E4500 
 4485              	.LASF271:
 4486 1257 6F735F70 		.ascii	"os_pend_data\000"
 4486      656E645F 
 4486      64617461 
 4486      00
 4487              	.LASF118:
 4488 1264 4F535F45 		.ascii	"OS_ERR_SCHED_LOCKED\000"
 4488      52525F53 
 4488      43484544 
 4488      5F4C4F43 
ARM GAS  C:\Users\Aluno\AppData\Local\Temp\cccS7k0x.s 			page 110


 4488      4B454400 
 4489              	.LASF50:
 4490 1278 4F535F45 		.ascii	"OS_ERR_FLUSH_ISR\000"
 4490      52525F46 
 4490      4C555348 
 4490      5F495352 
 4490      00
 4491              	.LASF239:
 4492 1289 5072696F 		.ascii	"Prio\000"
 4492      00
 4493              	.LASF13:
 4494 128e 646F7562 		.ascii	"double\000"
 4494      6C6500
 4495              	.LASF92:
 4496 1295 4F535F45 		.ascii	"OS_ERR_PEND_ABORT\000"
 4496      52525F50 
 4496      454E445F 
 4496      41424F52 
 4496      5400
 4497              	.LASF305:
 4498 12a7 705F6D75 		.ascii	"p_mutex_next\000"
 4498      7465785F 
 4498      6E657874 
 4498      00
 4499              	.LASF256:
 4500 12b4 43505555 		.ascii	"CPUUsage\000"
 4500      73616765 
 4500      00
 4501              	.LASF119:
 4502 12bd 4F535F45 		.ascii	"OS_ERR_SCHED_NOT_LOCKED\000"
 4502      52525F53 
 4502      43484544 
 4502      5F4E4F54 
 4502      5F4C4F43 
 4503              	.LASF103:
 4504 12d5 4F535F45 		.ascii	"OS_ERR_PRIO\000"
 4504      52525F50 
 4504      52494F00 
 4505              	.LASF96:
 4506 12e1 4F535F45 		.ascii	"OS_ERR_PEND_DEL\000"
 4506      52525F50 
 4506      454E445F 
 4506      44454C00 
 4507              	.LASF273:
 4508 12f1 50656E64 		.ascii	"PendObjPtr\000"
 4508      4F626A50 
 4508      747200
 4509              	.LASF210:
 4510 12fc 4E627245 		.ascii	"NbrEntriesMax\000"
 4510      6E747269 
 4510      65734D61 
 4510      7800
 4511              	.LASF279:
 4512 130a 6F735F70 		.ascii	"os_pend_list\000"
 4512      656E645F 
 4512      6C697374 
 4512      00
ARM GAS  C:\Users\Aluno\AppData\Local\Temp\cccS7k0x.s 			page 111


 4513              	.LASF73:
 4514 1317 4F535F45 		.ascii	"OS_ERR_MEM_INVALID_SIZE\000"
 4514      52525F4D 
 4514      454D5F49 
 4514      4E56414C 
 4514      49445F53 
 4515              	.LASF150:
 4516 132f 4F535F45 		.ascii	"OS_ERR_TASK_SUSPENDED\000"
 4516      52525F54 
 4516      41534B5F 
 4516      53555350 
 4516      454E4445 
 4517              	.LASF122:
 4518 1345 4F535F45 		.ascii	"OS_ERR_SET_ISR\000"
 4518      52525F53 
 4518      45545F49 
 4518      535200
 4519              	.LASF251:
 4520 1354 52656754 		.ascii	"RegTbl\000"
 4520      626C00
 4521              	.LASF121:
 4522 135b 4F535F45 		.ascii	"OS_ERR_SEM_OVF\000"
 4522      52525F53 
 4522      454D5F4F 
 4522      564600
 4523              	.LASF136:
 4524 136a 4F535F45 		.ascii	"OS_ERR_TASK_DEL_IDLE\000"
 4524      52525F54 
 4524      41534B5F 
 4524      44454C5F 
 4524      49444C45 
 4525              	.LASF168:
 4526 137f 4F535F45 		.ascii	"OS_ERR_TIME_GET_ISR\000"
 4526      52525F54 
 4526      494D455F 
 4526      4745545F 
 4526      49535200 
 4527              	.LASF246:
 4528 1393 54696D65 		.ascii	"TimeQuanta\000"
 4528      5175616E 
 4528      746100
 4529              	.LASF167:
 4530 139e 4F535F45 		.ascii	"OS_ERR_TIME_DLY_RESUME_ISR\000"
 4530      52525F54 
 4530      494D455F 
 4530      444C595F 
 4530      52455355 
 4531              	.LASF162:
 4532 13b9 4F535F45 		.ascii	"OS_ERR_TICK_PRIO_INVALID\000"
 4532      52525F54 
 4532      49434B5F 
 4532      5052494F 
 4532      5F494E56 
 4533              	.LASF102:
 4534 13d2 4F535F45 		.ascii	"OS_ERR_PRIO_EXIST\000"
 4534      52525F50 
 4534      52494F5F 
ARM GAS  C:\Users\Aluno\AppData\Local\Temp\cccS7k0x.s 			page 112


 4534      45584953 
 4534      5400
 4535              	.LASF205:
 4536 13e4 6F735F6D 		.ascii	"os_msg_q\000"
 4536      73675F71 
 4536      00
 4537              	.LASF74:
 4538 13ed 4F535F45 		.ascii	"OS_ERR_MEM_NO_FREE_BLKS\000"
 4538      52525F4D 
 4538      454D5F4E 
 4538      4F5F4652 
 4538      45455F42 
 4539              	.LASF15:
 4540 1405 4350555F 		.ascii	"CPU_STK\000"
 4540      53544B00 
 4541              	.LASF295:
 4542 140d 4F534D75 		.ascii	"OSMutexPend\000"
 4542      74657850 
 4542      656E6400 
 4543              		.ident	"GCC: (GNU Tools for ARM Embedded Processors) 5.4.1 20160609 (release) [ARM/embedded-5-bran
