ARM GAS  C:\Users\Aluno\AppData\Local\Temp\cccS7k0x.s 			page 1


   1              		.syntax unified
   2              		.cpu cortex-m3
   3              		.fpu softvfp
   4              		.eabi_attribute 20, 1
   5              		.eabi_attribute 21, 1
   6              		.eabi_attribute 23, 3
   7              		.eabi_attribute 24, 1
   8              		.eabi_attribute 25, 1
   9              		.eabi_attribute 26, 1
  10              		.eabi_attribute 30, 6
  11              		.eabi_attribute 34, 1
  12              		.eabi_attribute 18, 4
  13              		.thumb
  14              		.syntax unified
  15              		.file	"os_mutex.c"
  16              		.text
  17              	.Ltext0:
  18              		.cfi_sections	.debug_frame
  19              		.section	.text.OSMutexCreate,"ax",%progbits
  20              		.align	2
  21              		.global	OSMutexCreate
  22              		.thumb
  23              		.thumb_func
  24              		.type	OSMutexCreate, %function
  25              	OSMutexCreate:
  26              	.LFB0:
  27              		.file 1 "..\\..\\..\\..\\..\\..\\uCOS-III\\Source\\os_mutex.c"
   1:..\..\..\..\..\..\uCOS-III\Source/os_mutex.c **** /*
   2:..\..\..\..\..\..\uCOS-III\Source/os_mutex.c **** ***************************************************************************************************
   3:..\..\..\..\..\..\uCOS-III\Source/os_mutex.c **** *                                                      uC/OS-III
   4:..\..\..\..\..\..\uCOS-III\Source/os_mutex.c **** *                                                 The Real-Time Kernel
   5:..\..\..\..\..\..\uCOS-III\Source/os_mutex.c **** *
   6:..\..\..\..\..\..\uCOS-III\Source/os_mutex.c **** *                                  (c) Copyright 2009-2012; Micrium, Inc.; Weston, FL
   7:..\..\..\..\..\..\uCOS-III\Source/os_mutex.c **** *                           All rights reserved.  Protected by international copyright laws.
   8:..\..\..\..\..\..\uCOS-III\Source/os_mutex.c **** *
   9:..\..\..\..\..\..\uCOS-III\Source/os_mutex.c **** *                                                   MUTEX MANAGEMENT
  10:..\..\..\..\..\..\uCOS-III\Source/os_mutex.c **** *
  11:..\..\..\..\..\..\uCOS-III\Source/os_mutex.c **** * File    : OS_MUTEX.C
  12:..\..\..\..\..\..\uCOS-III\Source/os_mutex.c **** * By      : JJL
  13:..\..\..\..\..\..\uCOS-III\Source/os_mutex.c **** * Version : V3.03.01
  14:..\..\..\..\..\..\uCOS-III\Source/os_mutex.c **** *
  15:..\..\..\..\..\..\uCOS-III\Source/os_mutex.c **** * LICENSING TERMS:
  16:..\..\..\..\..\..\uCOS-III\Source/os_mutex.c **** * ---------------
  17:..\..\..\..\..\..\uCOS-III\Source/os_mutex.c **** *           uC/OS-III is provided in source form for FREE short-term evaluation, for educational us
  18:..\..\..\..\..\..\uCOS-III\Source/os_mutex.c **** *           for peaceful research.  If you plan or intend to use uC/OS-III in a commercial applicat
  19:..\..\..\..\..\..\uCOS-III\Source/os_mutex.c **** *           product then, you need to contact Micrium to properly license uC/OS-III for its use in 
  20:..\..\..\..\..\..\uCOS-III\Source/os_mutex.c **** *           application/product.   We provide ALL the source code for your convenience and to help 
  21:..\..\..\..\..\..\uCOS-III\Source/os_mutex.c **** *           experience uC/OS-III.  The fact that the source is provided does NOT mean that you can 
  22:..\..\..\..\..\..\uCOS-III\Source/os_mutex.c **** *           it commercially without paying a licensing fee.
  23:..\..\..\..\..\..\uCOS-III\Source/os_mutex.c **** *
  24:..\..\..\..\..\..\uCOS-III\Source/os_mutex.c **** *           Knowledge of the source code may NOT be used to develop a similar product.
  25:..\..\..\..\..\..\uCOS-III\Source/os_mutex.c **** *
  26:..\..\..\..\..\..\uCOS-III\Source/os_mutex.c **** *           Please help us continue to provide the embedded community with the finest software avai
  27:..\..\..\..\..\..\uCOS-III\Source/os_mutex.c **** *           Your honesty is greatly appreciated.
  28:..\..\..\..\..\..\uCOS-III\Source/os_mutex.c **** *
  29:..\..\..\..\..\..\uCOS-III\Source/os_mutex.c **** *           You can contact us at www.micrium.com, or by phone at +1 (954) 217-2036.
  30:..\..\..\..\..\..\uCOS-III\Source/os_mutex.c **** ***************************************************************************************************
ARM GAS  C:\Users\Aluno\AppData\Local\Temp\cccS7k0x.s 			page 2


  31:..\..\..\..\..\..\uCOS-III\Source/os_mutex.c **** */
  32:..\..\..\..\..\..\uCOS-III\Source/os_mutex.c **** 
  33:..\..\..\..\..\..\uCOS-III\Source/os_mutex.c **** #define  MICRIUM_SOURCE
  34:..\..\..\..\..\..\uCOS-III\Source/os_mutex.c **** #include <os.h>
  35:..\..\..\..\..\..\uCOS-III\Source/os_mutex.c **** 
  36:..\..\..\..\..\..\uCOS-III\Source/os_mutex.c **** #ifdef VSC_INCLUDE_SOURCE_FILE_NAMES
  37:..\..\..\..\..\..\uCOS-III\Source/os_mutex.c **** const  CPU_CHAR  *os_mutex__c = "$Id: $";
  38:..\..\..\..\..\..\uCOS-III\Source/os_mutex.c **** #endif
  39:..\..\..\..\..\..\uCOS-III\Source/os_mutex.c **** 
  40:..\..\..\..\..\..\uCOS-III\Source/os_mutex.c **** 
  41:..\..\..\..\..\..\uCOS-III\Source/os_mutex.c **** #if OS_CFG_MUTEX_EN > 0u
  42:..\..\..\..\..\..\uCOS-III\Source/os_mutex.c **** /*
  43:..\..\..\..\..\..\uCOS-III\Source/os_mutex.c **** ***************************************************************************************************
  44:..\..\..\..\..\..\uCOS-III\Source/os_mutex.c **** *                                                   CREATE A MUTEX
  45:..\..\..\..\..\..\uCOS-III\Source/os_mutex.c **** *
  46:..\..\..\..\..\..\uCOS-III\Source/os_mutex.c **** * Description: This function creates a mutex.
  47:..\..\..\..\..\..\uCOS-III\Source/os_mutex.c **** *
  48:..\..\..\..\..\..\uCOS-III\Source/os_mutex.c **** * Arguments  : p_mutex       is a pointer to the mutex to initialize.  Your application is responsi
  49:..\..\..\..\..\..\uCOS-III\Source/os_mutex.c **** *                            storage for the mutex.
  50:..\..\..\..\..\..\uCOS-III\Source/os_mutex.c **** *
  51:..\..\..\..\..\..\uCOS-III\Source/os_mutex.c **** *              p_name        is a pointer to the name you would like to give the mutex.
  52:..\..\..\..\..\..\uCOS-III\Source/os_mutex.c **** *
  53:..\..\..\..\..\..\uCOS-III\Source/os_mutex.c **** *              p_err         is a pointer to a variable that will contain an error code returned by
  54:..\..\..\..\..\..\uCOS-III\Source/os_mutex.c **** *
  55:..\..\..\..\..\..\uCOS-III\Source/os_mutex.c **** *                                OS_ERR_NONE                    if the call was successful
  56:..\..\..\..\..\..\uCOS-III\Source/os_mutex.c **** *                                OS_ERR_CREATE_ISR              if you called this function from an
  57:..\..\..\..\..\..\uCOS-III\Source/os_mutex.c **** *                                OS_ERR_ILLEGAL_CREATE_RUN_TIME if you are trying to create the Mut
  58:..\..\..\..\..\..\uCOS-III\Source/os_mutex.c **** *                                                                 OSSafetyCriticalStart().
  59:..\..\..\..\..\..\uCOS-III\Source/os_mutex.c **** *                                OS_ERR_NAME                    if 'p_name'  is a NULL pointer
  60:..\..\..\..\..\..\uCOS-III\Source/os_mutex.c **** *                                OS_ERR_OBJ_CREATED             if the mutex has already been creat
  61:..\..\..\..\..\..\uCOS-III\Source/os_mutex.c **** *                                OS_ERR_OBJ_PTR_NULL            if 'p_mutex' is a NULL pointer
  62:..\..\..\..\..\..\uCOS-III\Source/os_mutex.c **** *
  63:..\..\..\..\..\..\uCOS-III\Source/os_mutex.c **** * Returns    : none
  64:..\..\..\..\..\..\uCOS-III\Source/os_mutex.c **** ***************************************************************************************************
  65:..\..\..\..\..\..\uCOS-III\Source/os_mutex.c **** */
  66:..\..\..\..\..\..\uCOS-III\Source/os_mutex.c **** 
  67:..\..\..\..\..\..\uCOS-III\Source/os_mutex.c **** void  OSMutexCreate (OS_MUTEX  *p_mutex,
  68:..\..\..\..\..\..\uCOS-III\Source/os_mutex.c ****                      CPU_CHAR  *p_name,
  69:..\..\..\..\..\..\uCOS-III\Source/os_mutex.c ****                      OS_ERR    *p_err)
  70:..\..\..\..\..\..\uCOS-III\Source/os_mutex.c **** {
  28              		.loc 1 70 0
  29              		.cfi_startproc
  30              		@ args = 0, pretend = 0, frame = 24
  31              		@ frame_needed = 1, uses_anonymous_args = 0
  32 0000 80B5     		push	{r7, lr}
  33              		.cfi_def_cfa_offset 8
  34              		.cfi_offset 7, -8
  35              		.cfi_offset 14, -4
  36 0002 86B0     		sub	sp, sp, #24
  37              		.cfi_def_cfa_offset 32
  38 0004 00AF     		add	r7, sp, #0
  39              		.cfi_def_cfa_register 7
  40 0006 F860     		str	r0, [r7, #12]
  41 0008 B960     		str	r1, [r7, #8]
  42 000a 7A60     		str	r2, [r7, #4]
  71:..\..\..\..\..\..\uCOS-III\Source/os_mutex.c ****     CPU_SR_ALLOC();
  43              		.loc 1 71 0
ARM GAS  C:\Users\Aluno\AppData\Local\Temp\cccS7k0x.s 			page 3


  44 000c 0023     		movs	r3, #0
  45 000e 7B61     		str	r3, [r7, #20]
  72:..\..\..\..\..\..\uCOS-III\Source/os_mutex.c **** 
  73:..\..\..\..\..\..\uCOS-III\Source/os_mutex.c **** 
  74:..\..\..\..\..\..\uCOS-III\Source/os_mutex.c **** 
  75:..\..\..\..\..\..\uCOS-III\Source/os_mutex.c **** #ifdef OS_SAFETY_CRITICAL
  76:..\..\..\..\..\..\uCOS-III\Source/os_mutex.c ****     if (p_err == (OS_ERR *)0) {
  77:..\..\..\..\..\..\uCOS-III\Source/os_mutex.c ****         OS_SAFETY_CRITICAL_EXCEPTION();
  78:..\..\..\..\..\..\uCOS-III\Source/os_mutex.c ****         return;
  79:..\..\..\..\..\..\uCOS-III\Source/os_mutex.c ****     }
  80:..\..\..\..\..\..\uCOS-III\Source/os_mutex.c **** #endif
  81:..\..\..\..\..\..\uCOS-III\Source/os_mutex.c **** 
  82:..\..\..\..\..\..\uCOS-III\Source/os_mutex.c **** #ifdef OS_SAFETY_CRITICAL_IEC61508
  83:..\..\..\..\..\..\uCOS-III\Source/os_mutex.c ****     if (OSSafetyCriticalStartFlag == DEF_TRUE) {
  84:..\..\..\..\..\..\uCOS-III\Source/os_mutex.c ****        *p_err = OS_ERR_ILLEGAL_CREATE_RUN_TIME;
  85:..\..\..\..\..\..\uCOS-III\Source/os_mutex.c ****         return;
  86:..\..\..\..\..\..\uCOS-III\Source/os_mutex.c ****     }
  87:..\..\..\..\..\..\uCOS-III\Source/os_mutex.c **** #endif
  88:..\..\..\..\..\..\uCOS-III\Source/os_mutex.c **** 
  89:..\..\..\..\..\..\uCOS-III\Source/os_mutex.c **** #if OS_CFG_CALLED_FROM_ISR_CHK_EN > 0u
  90:..\..\..\..\..\..\uCOS-III\Source/os_mutex.c ****     if (OSIntNestingCtr > (OS_NESTING_CTR)0) {              /* Not allowed to be called from an ISR
  46              		.loc 1 90 0
  47 0010 1F4B     		ldr	r3, .L5
  48 0012 1B78     		ldrb	r3, [r3]	@ zero_extendqisi2
  49 0014 002B     		cmp	r3, #0
  50 0016 04D0     		beq	.L2
  91:..\..\..\..\..\..\uCOS-III\Source/os_mutex.c ****        *p_err = OS_ERR_CREATE_ISR;
  51              		.loc 1 91 0
  52 0018 7B68     		ldr	r3, [r7, #4]
  53 001a 42F6E162 		movw	r2, #12001
  54 001e 1A80     		strh	r2, [r3]	@ movhi
  92:..\..\..\..\..\..\uCOS-III\Source/os_mutex.c ****         return;
  55              		.loc 1 92 0
  56 0020 32E0     		b	.L1
  57              	.L2:
  93:..\..\..\..\..\..\uCOS-III\Source/os_mutex.c ****     }
  94:..\..\..\..\..\..\uCOS-III\Source/os_mutex.c **** #endif
  95:..\..\..\..\..\..\uCOS-III\Source/os_mutex.c **** 
  96:..\..\..\..\..\..\uCOS-III\Source/os_mutex.c **** #if OS_CFG_ARG_CHK_EN > 0u
  97:..\..\..\..\..\..\uCOS-III\Source/os_mutex.c ****     if (p_mutex == (OS_MUTEX *)0) {                         /* Validate 'p_mutex'                  
  58              		.loc 1 97 0
  59 0022 FB68     		ldr	r3, [r7, #12]
  60 0024 002B     		cmp	r3, #0
  61 0026 04D1     		bne	.L4
  98:..\..\..\..\..\..\uCOS-III\Source/os_mutex.c ****        *p_err = OS_ERR_OBJ_PTR_NULL;
  62              		.loc 1 98 0
  63 0028 7B68     		ldr	r3, [r7, #4]
  64 002a 45F6C352 		movw	r2, #24003
  65 002e 1A80     		strh	r2, [r3]	@ movhi
  99:..\..\..\..\..\..\uCOS-III\Source/os_mutex.c ****         return;
  66              		.loc 1 99 0
  67 0030 2AE0     		b	.L1
  68              	.L4:
 100:..\..\..\..\..\..\uCOS-III\Source/os_mutex.c ****     }
 101:..\..\..\..\..\..\uCOS-III\Source/os_mutex.c **** #endif
 102:..\..\..\..\..\..\uCOS-III\Source/os_mutex.c **** 
 103:..\..\..\..\..\..\uCOS-III\Source/os_mutex.c ****     OS_CRITICAL_ENTER();
ARM GAS  C:\Users\Aluno\AppData\Local\Temp\cccS7k0x.s 			page 4


  69              		.loc 1 103 0
  70 0032 FFF7FEFF 		bl	CPU_SR_Save
  71 0036 7861     		str	r0, [r7, #20]
 104:..\..\..\..\..\..\uCOS-III\Source/os_mutex.c ****     p_mutex->Type              =  OS_OBJ_TYPE_MUTEX;        /* Mark the data structure as a mutex  
  72              		.loc 1 104 0
  73 0038 FB68     		ldr	r3, [r7, #12]
  74 003a 164A     		ldr	r2, .L5+4
  75 003c 1A60     		str	r2, [r3]
 105:..\..\..\..\..\..\uCOS-III\Source/os_mutex.c ****     p_mutex->NamePtr           =  p_name;
  76              		.loc 1 105 0
  77 003e FB68     		ldr	r3, [r7, #12]
  78 0040 BA68     		ldr	r2, [r7, #8]
  79 0042 5A60     		str	r2, [r3, #4]
 106:..\..\..\..\..\..\uCOS-III\Source/os_mutex.c ****     p_mutex->OwnerTCBPtr       = (OS_TCB       *)0;
  80              		.loc 1 106 0
  81 0044 FB68     		ldr	r3, [r7, #12]
  82 0046 0022     		movs	r2, #0
  83 0048 1A62     		str	r2, [r3, #32]
 107:..\..\..\..\..\..\uCOS-III\Source/os_mutex.c ****     p_mutex->OwnerNestingCtr   = (OS_NESTING_CTR)0;         /* Mutex is available                  
  84              		.loc 1 107 0
  85 004a FB68     		ldr	r3, [r7, #12]
  86 004c 0022     		movs	r2, #0
  87 004e 83F82520 		strb	r2, [r3, #37]
 108:..\..\..\..\..\..\uCOS-III\Source/os_mutex.c ****     p_mutex->TS                = (CPU_TS        )0;
  88              		.loc 1 108 0
  89 0052 FB68     		ldr	r3, [r7, #12]
  90 0054 0022     		movs	r2, #0
  91 0056 9A62     		str	r2, [r3, #40]
 109:..\..\..\..\..\..\uCOS-III\Source/os_mutex.c ****     p_mutex->OwnerOriginalPrio =  OS_CFG_PRIO_MAX;
  92              		.loc 1 109 0
  93 0058 FB68     		ldr	r3, [r7, #12]
  94 005a 0822     		movs	r2, #8
  95 005c 83F82420 		strb	r2, [r3, #36]
 110:..\..\..\..\..\..\uCOS-III\Source/os_mutex.c ****     OS_PendListInit(&p_mutex->PendList);                    /* Initialize the waiting list         
  96              		.loc 1 110 0
  97 0060 FB68     		ldr	r3, [r7, #12]
  98 0062 0833     		adds	r3, r3, #8
  99 0064 1846     		mov	r0, r3
 100 0066 FFF7FEFF 		bl	OS_PendListInit
 111:..\..\..\..\..\..\uCOS-III\Source/os_mutex.c **** 
 112:..\..\..\..\..\..\uCOS-III\Source/os_mutex.c **** #if OS_CFG_DBG_EN > 0u
 113:..\..\..\..\..\..\uCOS-III\Source/os_mutex.c ****     OS_MutexDbgListAdd(p_mutex);
 101              		.loc 1 113 0
 102 006a F868     		ldr	r0, [r7, #12]
 103 006c FFF7FEFF 		bl	OS_MutexDbgListAdd
 114:..\..\..\..\..\..\uCOS-III\Source/os_mutex.c **** #endif
 115:..\..\..\..\..\..\uCOS-III\Source/os_mutex.c ****     OSMutexQty++;
 104              		.loc 1 115 0
 105 0070 094B     		ldr	r3, .L5+8
 106 0072 1B88     		ldrh	r3, [r3]
 107 0074 0133     		adds	r3, r3, #1
 108 0076 9AB2     		uxth	r2, r3
 109 0078 074B     		ldr	r3, .L5+8
 110 007a 1A80     		strh	r2, [r3]	@ movhi
 116:..\..\..\..\..\..\uCOS-III\Source/os_mutex.c **** 
 117:..\..\..\..\..\..\uCOS-III\Source/os_mutex.c ****     OS_CRITICAL_EXIT_NO_SCHED();
 111              		.loc 1 117 0
ARM GAS  C:\Users\Aluno\AppData\Local\Temp\cccS7k0x.s 			page 5


 112 007c 7869     		ldr	r0, [r7, #20]
 113 007e FFF7FEFF 		bl	CPU_SR_Restore
 118:..\..\..\..\..\..\uCOS-III\Source/os_mutex.c ****    *p_err = OS_ERR_NONE;
 114              		.loc 1 118 0
 115 0082 7B68     		ldr	r3, [r7, #4]
 116 0084 0022     		movs	r2, #0
 117 0086 1A80     		strh	r2, [r3]	@ movhi
 118              	.L1:
 119:..\..\..\..\..\..\uCOS-III\Source/os_mutex.c **** }
 119              		.loc 1 119 0
 120 0088 1837     		adds	r7, r7, #24
 121              		.cfi_def_cfa_offset 8
 122 008a BD46     		mov	sp, r7
 123              		.cfi_def_cfa_register 13
 124              		@ sp needed
 125 008c 80BD     		pop	{r7, pc}
 126              	.L6:
 127 008e 00BF     		.align	2
 128              	.L5:
 129 0090 00000000 		.word	OSIntNestingCtr
 130 0094 4D555458 		.word	1481921869
 131 0098 00000000 		.word	OSMutexQty
 132              		.cfi_endproc
 133              	.LFE0:
 134              		.size	OSMutexCreate, .-OSMutexCreate
 135              		.section	.text.OSMutexDel,"ax",%progbits
 136              		.align	2
 137              		.global	OSMutexDel
 138              		.thumb
 139              		.thumb_func
 140              		.type	OSMutexDel, %function
 141              	OSMutexDel:
 142              	.LFB1:
 120:..\..\..\..\..\..\uCOS-III\Source/os_mutex.c **** 
 121:..\..\..\..\..\..\uCOS-III\Source/os_mutex.c **** /*$PAGE*/
 122:..\..\..\..\..\..\uCOS-III\Source/os_mutex.c **** /*
 123:..\..\..\..\..\..\uCOS-III\Source/os_mutex.c **** ***************************************************************************************************
 124:..\..\..\..\..\..\uCOS-III\Source/os_mutex.c **** *                                                   DELETE A MUTEX
 125:..\..\..\..\..\..\uCOS-III\Source/os_mutex.c **** *
 126:..\..\..\..\..\..\uCOS-III\Source/os_mutex.c **** * Description: This function deletes a mutex and readies all tasks pending on the mutex.
 127:..\..\..\..\..\..\uCOS-III\Source/os_mutex.c **** *
 128:..\..\..\..\..\..\uCOS-III\Source/os_mutex.c **** * Arguments  : p_mutex       is a pointer to the mutex to delete
 129:..\..\..\..\..\..\uCOS-III\Source/os_mutex.c **** *
 130:..\..\..\..\..\..\uCOS-III\Source/os_mutex.c **** *              opt           determines delete options as follows:
 131:..\..\..\..\..\..\uCOS-III\Source/os_mutex.c **** *
 132:..\..\..\..\..\..\uCOS-III\Source/os_mutex.c **** *                                OS_OPT_DEL_NO_PEND          Delete mutex ONLY if no task pending
 133:..\..\..\..\..\..\uCOS-III\Source/os_mutex.c **** *                                OS_OPT_DEL_ALWAYS           Deletes the mutex even if tasks are wa
 134:..\..\..\..\..\..\uCOS-III\Source/os_mutex.c **** *                                                            In this case, all the tasks pending wi
 135:..\..\..\..\..\..\uCOS-III\Source/os_mutex.c **** *
 136:..\..\..\..\..\..\uCOS-III\Source/os_mutex.c **** *              p_err         is a pointer to a variable that will contain an error code returned by
 137:..\..\..\..\..\..\uCOS-III\Source/os_mutex.c **** *
 138:..\..\..\..\..\..\uCOS-III\Source/os_mutex.c **** *                                OS_ERR_NONE                 The call was successful and the mutex 
 139:..\..\..\..\..\..\uCOS-III\Source/os_mutex.c **** *                                OS_ERR_DEL_ISR              If you attempted to delete the mutex f
 140:..\..\..\..\..\..\uCOS-III\Source/os_mutex.c **** *                                OS_ERR_OBJ_PTR_NULL         If 'p_mutex' is a NULL pointer.
 141:..\..\..\..\..\..\uCOS-III\Source/os_mutex.c **** *                                OS_ERR_OBJ_TYPE             If 'p_mutex' is not pointing to a mute
 142:..\..\..\..\..\..\uCOS-III\Source/os_mutex.c **** *                                OS_ERR_OPT_INVALID          An invalid option was specified
 143:..\..\..\..\..\..\uCOS-III\Source/os_mutex.c **** *                                OS_ERR_STATE_INVALID        Task is in an invalid state
ARM GAS  C:\Users\Aluno\AppData\Local\Temp\cccS7k0x.s 			page 6


 144:..\..\..\..\..\..\uCOS-III\Source/os_mutex.c **** *                                OS_ERR_TASK_WAITING         One or more tasks were waiting on the 
 145:..\..\..\..\..\..\uCOS-III\Source/os_mutex.c **** *
 146:..\..\..\..\..\..\uCOS-III\Source/os_mutex.c **** * Returns    : == 0          if no tasks were waiting on the mutex, or upon error.
 147:..\..\..\..\..\..\uCOS-III\Source/os_mutex.c **** *              >  0          if one or more tasks waiting on the mutex are now readied and informed
 148:..\..\..\..\..\..\uCOS-III\Source/os_mutex.c **** *
 149:..\..\..\..\..\..\uCOS-III\Source/os_mutex.c **** * Note(s)    : 1) This function must be used with care.  Tasks that would normally expect the prese
 150:..\..\..\..\..\..\uCOS-III\Source/os_mutex.c **** *                 check the return code of OSMutexPend().
 151:..\..\..\..\..\..\uCOS-III\Source/os_mutex.c **** *
 152:..\..\..\..\..\..\uCOS-III\Source/os_mutex.c **** *              2) OSMutexAccept() callers will not know that the intended mutex has been deleted.
 153:..\..\..\..\..\..\uCOS-III\Source/os_mutex.c **** *
 154:..\..\..\..\..\..\uCOS-III\Source/os_mutex.c **** *              3) Because ALL tasks pending on the mutex will be readied, you MUST be careful in ap
 155:..\..\..\..\..\..\uCOS-III\Source/os_mutex.c **** *                 mutex is used for mutual exclusion because the resource(s) will no longer be guar
 156:..\..\..\..\..\..\uCOS-III\Source/os_mutex.c **** ***************************************************************************************************
 157:..\..\..\..\..\..\uCOS-III\Source/os_mutex.c **** */
 158:..\..\..\..\..\..\uCOS-III\Source/os_mutex.c **** 
 159:..\..\..\..\..\..\uCOS-III\Source/os_mutex.c **** #if OS_CFG_MUTEX_DEL_EN > 0u
 160:..\..\..\..\..\..\uCOS-III\Source/os_mutex.c **** OS_OBJ_QTY  OSMutexDel (OS_MUTEX  *p_mutex,
 161:..\..\..\..\..\..\uCOS-III\Source/os_mutex.c ****                         OS_OPT     opt,
 162:..\..\..\..\..\..\uCOS-III\Source/os_mutex.c ****                         OS_ERR    *p_err)
 163:..\..\..\..\..\..\uCOS-III\Source/os_mutex.c **** {
 143              		.loc 1 163 0
 144              		.cfi_startproc
 145              		@ args = 0, pretend = 0, frame = 48
 146              		@ frame_needed = 1, uses_anonymous_args = 0
 147 0000 80B5     		push	{r7, lr}
 148              		.cfi_def_cfa_offset 8
 149              		.cfi_offset 7, -8
 150              		.cfi_offset 14, -4
 151 0002 8CB0     		sub	sp, sp, #48
 152              		.cfi_def_cfa_offset 56
 153 0004 00AF     		add	r7, sp, #0
 154              		.cfi_def_cfa_register 7
 155 0006 F860     		str	r0, [r7, #12]
 156 0008 0B46     		mov	r3, r1
 157 000a 7A60     		str	r2, [r7, #4]
 158 000c 7B81     		strh	r3, [r7, #10]	@ movhi
 164:..\..\..\..\..\..\uCOS-III\Source/os_mutex.c ****     OS_OBJ_QTY     cnt;
 165:..\..\..\..\..\..\uCOS-III\Source/os_mutex.c ****     OS_OBJ_QTY     nbr_tasks;
 166:..\..\..\..\..\..\uCOS-III\Source/os_mutex.c ****     OS_PEND_DATA  *p_pend_data;
 167:..\..\..\..\..\..\uCOS-III\Source/os_mutex.c ****     OS_PEND_LIST  *p_pend_list;
 168:..\..\..\..\..\..\uCOS-III\Source/os_mutex.c ****     OS_TCB        *p_tcb;
 169:..\..\..\..\..\..\uCOS-III\Source/os_mutex.c ****     OS_TCB        *p_tcb_owner;
 170:..\..\..\..\..\..\uCOS-III\Source/os_mutex.c ****     CPU_TS         ts;
 171:..\..\..\..\..\..\uCOS-III\Source/os_mutex.c ****     CPU_SR_ALLOC();
 159              		.loc 1 171 0
 160 000e 0023     		movs	r3, #0
 161 0010 BB62     		str	r3, [r7, #40]
 172:..\..\..\..\..\..\uCOS-III\Source/os_mutex.c **** 
 173:..\..\..\..\..\..\uCOS-III\Source/os_mutex.c **** 
 174:..\..\..\..\..\..\uCOS-III\Source/os_mutex.c **** 
 175:..\..\..\..\..\..\uCOS-III\Source/os_mutex.c **** #ifdef OS_SAFETY_CRITICAL
 176:..\..\..\..\..\..\uCOS-III\Source/os_mutex.c ****     if (p_err == (OS_ERR *)0) {
 177:..\..\..\..\..\..\uCOS-III\Source/os_mutex.c ****         OS_SAFETY_CRITICAL_EXCEPTION();
 178:..\..\..\..\..\..\uCOS-III\Source/os_mutex.c ****         return ((OS_OBJ_QTY)0);
 179:..\..\..\..\..\..\uCOS-III\Source/os_mutex.c ****     }
 180:..\..\..\..\..\..\uCOS-III\Source/os_mutex.c **** #endif
 181:..\..\..\..\..\..\uCOS-III\Source/os_mutex.c **** 
ARM GAS  C:\Users\Aluno\AppData\Local\Temp\cccS7k0x.s 			page 7


 182:..\..\..\..\..\..\uCOS-III\Source/os_mutex.c **** #if OS_CFG_CALLED_FROM_ISR_CHK_EN > 0u
 183:..\..\..\..\..\..\uCOS-III\Source/os_mutex.c ****     if (OSIntNestingCtr > (OS_NESTING_CTR)0) {                  /* Not allowed to delete a mutex fr
 162              		.loc 1 183 0
 163 0012 6A4B     		ldr	r3, .L31
 164 0014 1B78     		ldrb	r3, [r3]	@ zero_extendqisi2
 165 0016 002B     		cmp	r3, #0
 166 0018 05D0     		beq	.L8
 184:..\..\..\..\..\..\uCOS-III\Source/os_mutex.c ****        *p_err = OS_ERR_DEL_ISR;
 167              		.loc 1 184 0
 168 001a 7B68     		ldr	r3, [r7, #4]
 169 001c 43F2C922 		movw	r2, #13001
 170 0020 1A80     		strh	r2, [r3]	@ movhi
 185:..\..\..\..\..\..\uCOS-III\Source/os_mutex.c ****         return ((OS_OBJ_QTY)0);
 171              		.loc 1 185 0
 172 0022 0023     		movs	r3, #0
 173 0024 C6E0     		b	.L9
 174              	.L8:
 186:..\..\..\..\..\..\uCOS-III\Source/os_mutex.c ****     }
 187:..\..\..\..\..\..\uCOS-III\Source/os_mutex.c **** #endif
 188:..\..\..\..\..\..\uCOS-III\Source/os_mutex.c **** 
 189:..\..\..\..\..\..\uCOS-III\Source/os_mutex.c **** #if OS_CFG_ARG_CHK_EN > 0u
 190:..\..\..\..\..\..\uCOS-III\Source/os_mutex.c ****     if (p_mutex == (OS_MUTEX *)0) {                             /* Validate 'p_mutex'              
 175              		.loc 1 190 0
 176 0026 FB68     		ldr	r3, [r7, #12]
 177 0028 002B     		cmp	r3, #0
 178 002a 05D1     		bne	.L10
 191:..\..\..\..\..\..\uCOS-III\Source/os_mutex.c ****        *p_err = OS_ERR_OBJ_PTR_NULL;
 179              		.loc 1 191 0
 180 002c 7B68     		ldr	r3, [r7, #4]
 181 002e 45F6C352 		movw	r2, #24003
 182 0032 1A80     		strh	r2, [r3]	@ movhi
 192:..\..\..\..\..\..\uCOS-III\Source/os_mutex.c ****         return ((OS_OBJ_QTY)0);
 183              		.loc 1 192 0
 184 0034 0023     		movs	r3, #0
 185 0036 BDE0     		b	.L9
 186              	.L10:
 193:..\..\..\..\..\..\uCOS-III\Source/os_mutex.c ****     }
 194:..\..\..\..\..\..\uCOS-III\Source/os_mutex.c ****     switch (opt) {                                              /* Validate 'opt'                  
 187              		.loc 1 194 0
 188 0038 7B89     		ldrh	r3, [r7, #10]
 189 003a 0033     		adds	r3, r3, #0
 190 003c 012B     		cmp	r3, #1
 191 003e 05D9     		bls	.L30
 195:..\..\..\..\..\..\uCOS-III\Source/os_mutex.c ****         case OS_OPT_DEL_NO_PEND:
 196:..\..\..\..\..\..\uCOS-III\Source/os_mutex.c ****         case OS_OPT_DEL_ALWAYS:
 197:..\..\..\..\..\..\uCOS-III\Source/os_mutex.c ****              break;
 198:..\..\..\..\..\..\uCOS-III\Source/os_mutex.c **** 
 199:..\..\..\..\..\..\uCOS-III\Source/os_mutex.c ****         default:
 200:..\..\..\..\..\..\uCOS-III\Source/os_mutex.c ****             *p_err =  OS_ERR_OPT_INVALID;
 192              		.loc 1 200 0
 193 0040 7B68     		ldr	r3, [r7, #4]
 194 0042 45F62562 		movw	r2, #24101
 195 0046 1A80     		strh	r2, [r3]	@ movhi
 201:..\..\..\..\..\..\uCOS-III\Source/os_mutex.c ****              return ((OS_OBJ_QTY)0);
 196              		.loc 1 201 0
 197 0048 0023     		movs	r3, #0
 198 004a B3E0     		b	.L9
ARM GAS  C:\Users\Aluno\AppData\Local\Temp\cccS7k0x.s 			page 8


 199              	.L30:
 197:..\..\..\..\..\..\uCOS-III\Source/os_mutex.c **** 
 200              		.loc 1 197 0
 201 004c 00BF     		nop
 202:..\..\..\..\..\..\uCOS-III\Source/os_mutex.c ****     }
 203:..\..\..\..\..\..\uCOS-III\Source/os_mutex.c **** #endif
 204:..\..\..\..\..\..\uCOS-III\Source/os_mutex.c **** 
 205:..\..\..\..\..\..\uCOS-III\Source/os_mutex.c **** #if OS_CFG_OBJ_TYPE_CHK_EN > 0u
 206:..\..\..\..\..\..\uCOS-III\Source/os_mutex.c ****     if (p_mutex->Type != OS_OBJ_TYPE_MUTEX) {                   /* Make sure mutex was created     
 207:..\..\..\..\..\..\uCOS-III\Source/os_mutex.c ****        *p_err = OS_ERR_OBJ_TYPE;
 208:..\..\..\..\..\..\uCOS-III\Source/os_mutex.c ****         return ((OS_OBJ_QTY)0);
 209:..\..\..\..\..\..\uCOS-III\Source/os_mutex.c ****     }
 210:..\..\..\..\..\..\uCOS-III\Source/os_mutex.c **** #endif
 211:..\..\..\..\..\..\uCOS-III\Source/os_mutex.c **** 
 212:..\..\..\..\..\..\uCOS-III\Source/os_mutex.c ****     OS_CRITICAL_ENTER();
 202              		.loc 1 212 0
 203 004e FFF7FEFF 		bl	CPU_SR_Save
 204 0052 B862     		str	r0, [r7, #40]
 213:..\..\..\..\..\..\uCOS-III\Source/os_mutex.c ****     p_pend_list = &p_mutex->PendList;
 205              		.loc 1 213 0
 206 0054 FB68     		ldr	r3, [r7, #12]
 207 0056 0833     		adds	r3, r3, #8
 208 0058 7B62     		str	r3, [r7, #36]
 214:..\..\..\..\..\..\uCOS-III\Source/os_mutex.c ****     cnt         = p_pend_list->NbrEntries;
 209              		.loc 1 214 0
 210 005a 7B6A     		ldr	r3, [r7, #36]
 211 005c 1B89     		ldrh	r3, [r3, #8]	@ movhi
 212 005e FB85     		strh	r3, [r7, #46]	@ movhi
 215:..\..\..\..\..\..\uCOS-III\Source/os_mutex.c ****     nbr_tasks   = cnt;
 213              		.loc 1 215 0
 214 0060 FB8D     		ldrh	r3, [r7, #46]	@ movhi
 215 0062 7B84     		strh	r3, [r7, #34]	@ movhi
 216:..\..\..\..\..\..\uCOS-III\Source/os_mutex.c ****     switch (opt) {
 216              		.loc 1 216 0
 217 0064 7B89     		ldrh	r3, [r7, #10]
 218 0066 002B     		cmp	r3, #0
 219 0068 02D0     		beq	.L15
 220 006a 012B     		cmp	r3, #1
 221 006c 1ED0     		beq	.L16
 222 006e 98E0     		b	.L29
 223              	.L15:
 217:..\..\..\..\..\..\uCOS-III\Source/os_mutex.c ****         case OS_OPT_DEL_NO_PEND:                                /* Delete mutex only if no task wai
 218:..\..\..\..\..\..\uCOS-III\Source/os_mutex.c ****              if (nbr_tasks == (OS_OBJ_QTY)0) {
 224              		.loc 1 218 0
 225 0070 7B8C     		ldrh	r3, [r7, #34]
 226 0072 002B     		cmp	r3, #0
 227 0074 12D1     		bne	.L17
 219:..\..\..\..\..\..\uCOS-III\Source/os_mutex.c **** #if OS_CFG_DBG_EN > 0u
 220:..\..\..\..\..\..\uCOS-III\Source/os_mutex.c ****                  OS_MutexDbgListRemove(p_mutex);
 228              		.loc 1 220 0
 229 0076 F868     		ldr	r0, [r7, #12]
 230 0078 FFF7FEFF 		bl	OS_MutexDbgListRemove
 221:..\..\..\..\..\..\uCOS-III\Source/os_mutex.c **** #endif
 222:..\..\..\..\..\..\uCOS-III\Source/os_mutex.c ****                  OSMutexQty--;
 231              		.loc 1 222 0
 232 007c 504B     		ldr	r3, .L31+4
 233 007e 1B88     		ldrh	r3, [r3]
ARM GAS  C:\Users\Aluno\AppData\Local\Temp\cccS7k0x.s 			page 9


 234 0080 013B     		subs	r3, r3, #1
 235 0082 9AB2     		uxth	r2, r3
 236 0084 4E4B     		ldr	r3, .L31+4
 237 0086 1A80     		strh	r2, [r3]	@ movhi
 223:..\..\..\..\..\..\uCOS-III\Source/os_mutex.c ****                  OS_MutexClr(p_mutex);
 238              		.loc 1 223 0
 239 0088 F868     		ldr	r0, [r7, #12]
 240 008a FFF7FEFF 		bl	OS_MutexClr
 224:..\..\..\..\..\..\uCOS-III\Source/os_mutex.c ****                  OS_CRITICAL_EXIT();
 241              		.loc 1 224 0
 242 008e B86A     		ldr	r0, [r7, #40]
 243 0090 FFF7FEFF 		bl	CPU_SR_Restore
 225:..\..\..\..\..\..\uCOS-III\Source/os_mutex.c ****                 *p_err = OS_ERR_NONE;
 244              		.loc 1 225 0
 245 0094 7B68     		ldr	r3, [r7, #4]
 246 0096 0022     		movs	r2, #0
 247 0098 1A80     		strh	r2, [r3]	@ movhi
 226:..\..\..\..\..\..\uCOS-III\Source/os_mutex.c ****              } else {
 227:..\..\..\..\..\..\uCOS-III\Source/os_mutex.c ****                  OS_CRITICAL_EXIT();
 228:..\..\..\..\..\..\uCOS-III\Source/os_mutex.c ****                 *p_err = OS_ERR_TASK_WAITING;
 229:..\..\..\..\..\..\uCOS-III\Source/os_mutex.c ****              }
 230:..\..\..\..\..\..\uCOS-III\Source/os_mutex.c ****              break;
 248              		.loc 1 230 0
 249 009a 8AE0     		b	.L19
 250              	.L17:
 227:..\..\..\..\..\..\uCOS-III\Source/os_mutex.c ****                 *p_err = OS_ERR_TASK_WAITING;
 251              		.loc 1 227 0
 252 009c B86A     		ldr	r0, [r7, #40]
 253 009e FFF7FEFF 		bl	CPU_SR_Restore
 228:..\..\..\..\..\..\uCOS-III\Source/os_mutex.c ****              }
 254              		.loc 1 228 0
 255 00a2 7B68     		ldr	r3, [r7, #4]
 256 00a4 47F25F12 		movw	r2, #29023
 257 00a8 1A80     		strh	r2, [r3]	@ movhi
 258              		.loc 1 230 0
 259 00aa 82E0     		b	.L19
 260              	.L16:
 231:..\..\..\..\..\..\uCOS-III\Source/os_mutex.c **** 
 232:..\..\..\..\..\..\uCOS-III\Source/os_mutex.c ****         case OS_OPT_DEL_ALWAYS:                                            /* Always delete the mut
 233:..\..\..\..\..\..\uCOS-III\Source/os_mutex.c ****              p_tcb_owner = p_mutex->OwnerTCBPtr;                           /* Did we had to change 
 261              		.loc 1 233 0
 262 00ac FB68     		ldr	r3, [r7, #12]
 263 00ae 1B6A     		ldr	r3, [r3, #32]
 264 00b0 FB61     		str	r3, [r7, #28]
 234:..\..\..\..\..\..\uCOS-III\Source/os_mutex.c ****              if ((p_tcb_owner       != (OS_TCB *)0) &&
 265              		.loc 1 234 0
 266 00b2 FB69     		ldr	r3, [r7, #28]
 267 00b4 002B     		cmp	r3, #0
 268 00b6 4AD0     		beq	.L20
 235:..\..\..\..\..\..\uCOS-III\Source/os_mutex.c ****                  (p_tcb_owner->Prio !=  p_mutex->OwnerOriginalPrio)) {
 269              		.loc 1 235 0 discriminator 1
 270 00b8 FB69     		ldr	r3, [r7, #28]
 271 00ba 93F83720 		ldrb	r2, [r3, #55]	@ zero_extendqisi2
 272 00be FB68     		ldr	r3, [r7, #12]
 273 00c0 93F82430 		ldrb	r3, [r3, #36]	@ zero_extendqisi2
 234:..\..\..\..\..\..\uCOS-III\Source/os_mutex.c ****              if ((p_tcb_owner       != (OS_TCB *)0) &&
 274              		.loc 1 234 0 discriminator 1
ARM GAS  C:\Users\Aluno\AppData\Local\Temp\cccS7k0x.s 			page 10


 275 00c4 9A42     		cmp	r2, r3
 276 00c6 42D0     		beq	.L20
 236:..\..\..\..\..\..\uCOS-III\Source/os_mutex.c ****                  switch (p_tcb_owner->TaskState) {                         /* yes                  
 277              		.loc 1 236 0
 278 00c8 FB69     		ldr	r3, [r7, #28]
 279 00ca 93F83630 		ldrb	r3, [r3, #54]	@ zero_extendqisi2
 280 00ce 072B     		cmp	r3, #7
 281 00d0 34D8     		bhi	.L21
 282 00d2 01A2     		adr	r2, .L23
 283 00d4 52F823F0 		ldr	pc, [r2, r3, lsl #2]
 284              		.p2align 2
 285              	.L23:
 286 00d8 F9000000 		.word	.L22+1
 287 00dc 1F010000 		.word	.L24+1
 288 00e0 2D010000 		.word	.L25+1
 289 00e4 2D010000 		.word	.L25+1
 290 00e8 1F010000 		.word	.L24+1
 291 00ec 1F010000 		.word	.L24+1
 292 00f0 2D010000 		.word	.L25+1
 293 00f4 2D010000 		.word	.L25+1
 294              		.p2align 1
 295              	.L22:
 237:..\..\..\..\..\..\uCOS-III\Source/os_mutex.c ****                      case OS_TASK_STATE_RDY:
 238:..\..\..\..\..\..\uCOS-III\Source/os_mutex.c ****                           OS_RdyListRemove(p_tcb_owner);
 296              		.loc 1 238 0
 297 00f8 F869     		ldr	r0, [r7, #28]
 298 00fa FFF7FEFF 		bl	OS_RdyListRemove
 239:..\..\..\..\..\..\uCOS-III\Source/os_mutex.c ****                           p_tcb_owner->Prio = p_mutex->OwnerOriginalPrio;  /* Lower owner's prio ba
 299              		.loc 1 239 0
 300 00fe FB68     		ldr	r3, [r7, #12]
 301 0100 93F82420 		ldrb	r2, [r3, #36]	@ zero_extendqisi2
 302 0104 FB69     		ldr	r3, [r7, #28]
 303 0106 83F83720 		strb	r2, [r3, #55]
 240:..\..\..\..\..\..\uCOS-III\Source/os_mutex.c ****                           OS_PrioInsert(p_tcb_owner->Prio);
 304              		.loc 1 240 0
 305 010a FB69     		ldr	r3, [r7, #28]
 306 010c 93F83730 		ldrb	r3, [r3, #55]	@ zero_extendqisi2
 307 0110 1846     		mov	r0, r3
 308 0112 FFF7FEFF 		bl	OS_PrioInsert
 241:..\..\..\..\..\..\uCOS-III\Source/os_mutex.c ****                           OS_RdyListInsertTail(p_tcb_owner);               /* Insert owner in ready
 309              		.loc 1 241 0
 310 0116 F869     		ldr	r0, [r7, #28]
 311 0118 FFF7FEFF 		bl	OS_RdyListInsertTail
 242:..\..\..\..\..\..\uCOS-III\Source/os_mutex.c ****                           break;
 312              		.loc 1 242 0
 313 011c 17E0     		b	.L20
 314              	.L24:
 243:..\..\..\..\..\..\uCOS-III\Source/os_mutex.c **** 
 244:..\..\..\..\..\..\uCOS-III\Source/os_mutex.c ****                      case OS_TASK_STATE_DLY:
 245:..\..\..\..\..\..\uCOS-III\Source/os_mutex.c ****                      case OS_TASK_STATE_SUSPENDED:
 246:..\..\..\..\..\..\uCOS-III\Source/os_mutex.c ****                      case OS_TASK_STATE_DLY_SUSPENDED:
 247:..\..\..\..\..\..\uCOS-III\Source/os_mutex.c ****                           p_tcb_owner->Prio = p_mutex->OwnerOriginalPrio;  /* Not in any pend list,
 315              		.loc 1 247 0
 316 011e FB68     		ldr	r3, [r7, #12]
 317 0120 93F82420 		ldrb	r2, [r3, #36]	@ zero_extendqisi2
 318 0124 FB69     		ldr	r3, [r7, #28]
 319 0126 83F83720 		strb	r2, [r3, #55]
ARM GAS  C:\Users\Aluno\AppData\Local\Temp\cccS7k0x.s 			page 11


 248:..\..\..\..\..\..\uCOS-III\Source/os_mutex.c ****                           break;
 320              		.loc 1 248 0
 321 012a 10E0     		b	.L20
 322              	.L25:
 249:..\..\..\..\..\..\uCOS-III\Source/os_mutex.c **** 
 250:..\..\..\..\..\..\uCOS-III\Source/os_mutex.c ****                      case OS_TASK_STATE_PEND:
 251:..\..\..\..\..\..\uCOS-III\Source/os_mutex.c ****                      case OS_TASK_STATE_PEND_TIMEOUT:
 252:..\..\..\..\..\..\uCOS-III\Source/os_mutex.c ****                      case OS_TASK_STATE_PEND_SUSPENDED:
 253:..\..\..\..\..\..\uCOS-III\Source/os_mutex.c ****                      case OS_TASK_STATE_PEND_TIMEOUT_SUSPENDED:
 254:..\..\..\..\..\..\uCOS-III\Source/os_mutex.c ****                           OS_PendListChangePrio(p_tcb_owner,               /* Owner is pending on a
 323              		.loc 1 254 0
 324 012c FB68     		ldr	r3, [r7, #12]
 325 012e 93F82430 		ldrb	r3, [r3, #36]	@ zero_extendqisi2
 326 0132 1946     		mov	r1, r3
 327 0134 F869     		ldr	r0, [r7, #28]
 328 0136 FFF7FEFF 		bl	OS_PendListChangePrio
 255:..\..\..\..\..\..\uCOS-III\Source/os_mutex.c ****                                                 p_mutex->OwnerOriginalPrio);
 256:..\..\..\..\..\..\uCOS-III\Source/os_mutex.c ****                           break;
 329              		.loc 1 256 0
 330 013a 08E0     		b	.L20
 331              	.L21:
 257:..\..\..\..\..\..\uCOS-III\Source/os_mutex.c **** 
 258:..\..\..\..\..\..\uCOS-III\Source/os_mutex.c ****                      default:
 259:..\..\..\..\..\..\uCOS-III\Source/os_mutex.c ****                           OS_CRITICAL_EXIT();
 332              		.loc 1 259 0
 333 013c B86A     		ldr	r0, [r7, #40]
 334 013e FFF7FEFF 		bl	CPU_SR_Restore
 260:..\..\..\..\..\..\uCOS-III\Source/os_mutex.c ****                          *p_err = OS_ERR_STATE_INVALID;
 335              		.loc 1 260 0
 336 0142 7B68     		ldr	r3, [r7, #4]
 337 0144 46F62D62 		movw	r2, #28205
 338 0148 1A80     		strh	r2, [r3]	@ movhi
 261:..\..\..\..\..\..\uCOS-III\Source/os_mutex.c ****                           return ((OS_OBJ_QTY)0);
 339              		.loc 1 261 0
 340 014a 0023     		movs	r3, #0
 341 014c 32E0     		b	.L9
 342              	.L20:
 262:..\..\..\..\..\..\uCOS-III\Source/os_mutex.c ****                  }
 263:..\..\..\..\..\..\uCOS-III\Source/os_mutex.c ****              }
 264:..\..\..\..\..\..\uCOS-III\Source/os_mutex.c **** 
 265:..\..\..\..\..\..\uCOS-III\Source/os_mutex.c ****              ts = OS_TS_GET();                                             /* Get timestamp        
 343              		.loc 1 265 0
 344 014e FFF7FEFF 		bl	CPU_TS_TmrRd
 345 0152 B861     		str	r0, [r7, #24]
 266:..\..\..\..\..\..\uCOS-III\Source/os_mutex.c ****              while (cnt > 0u) {                                            /* Remove all tasks from
 346              		.loc 1 266 0
 347 0154 0DE0     		b	.L26
 348              	.L27:
 267:..\..\..\..\..\..\uCOS-III\Source/os_mutex.c ****                  p_pend_data = p_pend_list->HeadPtr;
 349              		.loc 1 267 0
 350 0156 7B6A     		ldr	r3, [r7, #36]
 351 0158 1B68     		ldr	r3, [r3]
 352 015a 7B61     		str	r3, [r7, #20]
 268:..\..\..\..\..\..\uCOS-III\Source/os_mutex.c ****                  p_tcb       = p_pend_data->TCBPtr;
 353              		.loc 1 268 0
 354 015c 7B69     		ldr	r3, [r7, #20]
 355 015e 9B68     		ldr	r3, [r3, #8]
ARM GAS  C:\Users\Aluno\AppData\Local\Temp\cccS7k0x.s 			page 12


 356 0160 3B61     		str	r3, [r7, #16]
 269:..\..\..\..\..\..\uCOS-III\Source/os_mutex.c ****                  OS_PendObjDel((OS_PEND_OBJ *)((void *)p_mutex),
 357              		.loc 1 269 0
 358 0162 BA69     		ldr	r2, [r7, #24]
 359 0164 3969     		ldr	r1, [r7, #16]
 360 0166 F868     		ldr	r0, [r7, #12]
 361 0168 FFF7FEFF 		bl	OS_PendObjDel
 270:..\..\..\..\..\..\uCOS-III\Source/os_mutex.c ****                                p_tcb,
 271:..\..\..\..\..\..\uCOS-III\Source/os_mutex.c ****                                ts);
 272:..\..\..\..\..\..\uCOS-III\Source/os_mutex.c ****                  cnt--;
 362              		.loc 1 272 0
 363 016c FB8D     		ldrh	r3, [r7, #46]
 364 016e 013B     		subs	r3, r3, #1
 365 0170 FB85     		strh	r3, [r7, #46]	@ movhi
 366              	.L26:
 266:..\..\..\..\..\..\uCOS-III\Source/os_mutex.c ****                  p_pend_data = p_pend_list->HeadPtr;
 367              		.loc 1 266 0
 368 0172 FB8D     		ldrh	r3, [r7, #46]
 369 0174 002B     		cmp	r3, #0
 370 0176 EED1     		bne	.L27
 273:..\..\..\..\..\..\uCOS-III\Source/os_mutex.c ****              }
 274:..\..\..\..\..\..\uCOS-III\Source/os_mutex.c **** #if OS_CFG_DBG_EN > 0u
 275:..\..\..\..\..\..\uCOS-III\Source/os_mutex.c ****              OS_MutexDbgListRemove(p_mutex);
 371              		.loc 1 275 0
 372 0178 F868     		ldr	r0, [r7, #12]
 373 017a FFF7FEFF 		bl	OS_MutexDbgListRemove
 276:..\..\..\..\..\..\uCOS-III\Source/os_mutex.c **** #endif
 277:..\..\..\..\..\..\uCOS-III\Source/os_mutex.c ****              OSMutexQty--;
 374              		.loc 1 277 0
 375 017e 104B     		ldr	r3, .L31+4
 376 0180 1B88     		ldrh	r3, [r3]
 377 0182 013B     		subs	r3, r3, #1
 378 0184 9AB2     		uxth	r2, r3
 379 0186 0E4B     		ldr	r3, .L31+4
 380 0188 1A80     		strh	r2, [r3]	@ movhi
 278:..\..\..\..\..\..\uCOS-III\Source/os_mutex.c ****              OS_MutexClr(p_mutex);
 381              		.loc 1 278 0
 382 018a F868     		ldr	r0, [r7, #12]
 383 018c FFF7FEFF 		bl	OS_MutexClr
 279:..\..\..\..\..\..\uCOS-III\Source/os_mutex.c ****              OS_CRITICAL_EXIT_NO_SCHED();
 384              		.loc 1 279 0
 385 0190 B86A     		ldr	r0, [r7, #40]
 386 0192 FFF7FEFF 		bl	CPU_SR_Restore
 280:..\..\..\..\..\..\uCOS-III\Source/os_mutex.c ****              OSSched();                                                    /* Find highest priority
 387              		.loc 1 280 0
 388 0196 FFF7FEFF 		bl	OSSched
 281:..\..\..\..\..\..\uCOS-III\Source/os_mutex.c ****             *p_err = OS_ERR_NONE;
 389              		.loc 1 281 0
 390 019a 7B68     		ldr	r3, [r7, #4]
 391 019c 0022     		movs	r2, #0
 392 019e 1A80     		strh	r2, [r3]	@ movhi
 282:..\..\..\..\..\..\uCOS-III\Source/os_mutex.c ****              break;
 393              		.loc 1 282 0
 394 01a0 07E0     		b	.L19
 395              	.L29:
 283:..\..\..\..\..\..\uCOS-III\Source/os_mutex.c **** 
 284:..\..\..\..\..\..\uCOS-III\Source/os_mutex.c ****         default:
ARM GAS  C:\Users\Aluno\AppData\Local\Temp\cccS7k0x.s 			page 13


 285:..\..\..\..\..\..\uCOS-III\Source/os_mutex.c ****              OS_CRITICAL_EXIT();
 396              		.loc 1 285 0
 397 01a2 B86A     		ldr	r0, [r7, #40]
 398 01a4 FFF7FEFF 		bl	CPU_SR_Restore
 286:..\..\..\..\..\..\uCOS-III\Source/os_mutex.c ****             *p_err = OS_ERR_OPT_INVALID;
 399              		.loc 1 286 0
 400 01a8 7B68     		ldr	r3, [r7, #4]
 401 01aa 45F62562 		movw	r2, #24101
 402 01ae 1A80     		strh	r2, [r3]	@ movhi
 287:..\..\..\..\..\..\uCOS-III\Source/os_mutex.c ****              break;
 403              		.loc 1 287 0
 404 01b0 00BF     		nop
 405              	.L19:
 288:..\..\..\..\..\..\uCOS-III\Source/os_mutex.c ****     }
 289:..\..\..\..\..\..\uCOS-III\Source/os_mutex.c ****     return (nbr_tasks);
 406              		.loc 1 289 0
 407 01b2 7B8C     		ldrh	r3, [r7, #34]
 408              	.L9:
 290:..\..\..\..\..\..\uCOS-III\Source/os_mutex.c **** }
 409              		.loc 1 290 0
 410 01b4 1846     		mov	r0, r3
 411 01b6 3037     		adds	r7, r7, #48
 412              		.cfi_def_cfa_offset 8
 413 01b8 BD46     		mov	sp, r7
 414              		.cfi_def_cfa_register 13
 415              		@ sp needed
 416 01ba 80BD     		pop	{r7, pc}
 417              	.L32:
 418              		.align	2
 419              	.L31:
 420 01bc 00000000 		.word	OSIntNestingCtr
 421 01c0 00000000 		.word	OSMutexQty
 422              		.cfi_endproc
 423              	.LFE1:
 424              		.size	OSMutexDel, .-OSMutexDel
 425              		.section	.text.OSMutexPend,"ax",%progbits
 426              		.align	2
 427              		.global	OSMutexPend
 428              		.thumb
 429              		.thumb_func
 430              		.type	OSMutexPend, %function
 431              	OSMutexPend:
 432              	.LFB2:
 291:..\..\..\..\..\..\uCOS-III\Source/os_mutex.c **** #endif
 292:..\..\..\..\..\..\uCOS-III\Source/os_mutex.c **** 
 293:..\..\..\..\..\..\uCOS-III\Source/os_mutex.c **** /*$PAGE*/
 294:..\..\..\..\..\..\uCOS-III\Source/os_mutex.c **** /*
 295:..\..\..\..\..\..\uCOS-III\Source/os_mutex.c **** ***************************************************************************************************
 296:..\..\..\..\..\..\uCOS-III\Source/os_mutex.c **** *                                                    PEND ON MUTEX
 297:..\..\..\..\..\..\uCOS-III\Source/os_mutex.c **** *
 298:..\..\..\..\..\..\uCOS-III\Source/os_mutex.c **** * Description: This function waits for a mutex.
 299:..\..\..\..\..\..\uCOS-III\Source/os_mutex.c **** *
 300:..\..\..\..\..\..\uCOS-III\Source/os_mutex.c **** * Arguments  : p_mutex       is a pointer to the mutex
 301:..\..\..\..\..\..\uCOS-III\Source/os_mutex.c **** *
 302:..\..\..\..\..\..\uCOS-III\Source/os_mutex.c **** *              timeout       is an optional timeout period (in clock ticks).  If non-zero, your tas
 303:..\..\..\..\..\..\uCOS-III\Source/os_mutex.c **** *                            resource up to the amount of time (in 'ticks') specified by this argum
 304:..\..\..\..\..\..\uCOS-III\Source/os_mutex.c **** *                            0, however, your task will wait forever at the specified mutex or, unt
ARM GAS  C:\Users\Aluno\AppData\Local\Temp\cccS7k0x.s 			page 14


 305:..\..\..\..\..\..\uCOS-III\Source/os_mutex.c **** *                            becomes available.
 306:..\..\..\..\..\..\uCOS-III\Source/os_mutex.c **** *
 307:..\..\..\..\..\..\uCOS-III\Source/os_mutex.c **** *              opt           determines whether the user wants to block if the mutex is not availab
 308:..\..\..\..\..\..\uCOS-III\Source/os_mutex.c **** *
 309:..\..\..\..\..\..\uCOS-III\Source/os_mutex.c **** *                                OS_OPT_PEND_BLOCKING
 310:..\..\..\..\..\..\uCOS-III\Source/os_mutex.c **** *                                OS_OPT_PEND_NON_BLOCKING
 311:..\..\..\..\..\..\uCOS-III\Source/os_mutex.c **** *
 312:..\..\..\..\..\..\uCOS-III\Source/os_mutex.c **** *              p_ts          is a pointer to a variable that will receive the timestamp of when the
 313:..\..\..\..\..\..\uCOS-III\Source/os_mutex.c **** *                            pend aborted or the mutex deleted.  If you pass a NULL pointer (i.e. (
 314:..\..\..\..\..\..\uCOS-III\Source/os_mutex.c **** *                            will not get the timestamp.  In other words, passing a NULL pointer is
 315:..\..\..\..\..\..\uCOS-III\Source/os_mutex.c **** *                            that you don't need the timestamp.
 316:..\..\..\..\..\..\uCOS-III\Source/os_mutex.c **** *
 317:..\..\..\..\..\..\uCOS-III\Source/os_mutex.c **** *              p_err         is a pointer to a variable that will contain an error code returned by
 318:..\..\..\..\..\..\uCOS-III\Source/os_mutex.c **** *
 319:..\..\..\..\..\..\uCOS-III\Source/os_mutex.c **** *                                OS_ERR_NONE               The call was successful and your task ow
 320:..\..\..\..\..\..\uCOS-III\Source/os_mutex.c **** *                                OS_ERR_MUTEX_OWNER        If calling task already owns the mutex
 321:..\..\..\..\..\..\uCOS-III\Source/os_mutex.c **** *                                OS_ERR_OBJ_DEL            If 'p_mutex' was deleted
 322:..\..\..\..\..\..\uCOS-III\Source/os_mutex.c **** *                                OS_ERR_OBJ_PTR_NULL       If 'p_mutex' is a NULL pointer.
 323:..\..\..\..\..\..\uCOS-III\Source/os_mutex.c **** *                                OS_ERR_OBJ_TYPE           If 'p_mutex' is not pointing at a mutex
 324:..\..\..\..\..\..\uCOS-III\Source/os_mutex.c **** *                                OS_ERR_OPT_INVALID        If you didn't specify a valid option
 325:..\..\..\..\..\..\uCOS-III\Source/os_mutex.c **** *                                OS_ERR_PEND_ABORT         If the pend was aborted by another task
 326:..\..\..\..\..\..\uCOS-III\Source/os_mutex.c **** *                                OS_ERR_PEND_ISR           If you called this function from an ISR 
 327:..\..\..\..\..\..\uCOS-III\Source/os_mutex.c **** *                                                          would lead to a suspension.
 328:..\..\..\..\..\..\uCOS-III\Source/os_mutex.c **** *                                OS_ERR_PEND_WOULD_BLOCK   If you specified non-blocking but the mu
 329:..\..\..\..\..\..\uCOS-III\Source/os_mutex.c **** *                                                          available.
 330:..\..\..\..\..\..\uCOS-III\Source/os_mutex.c **** *                                OS_ERR_SCHED_LOCKED       If you called this function when the sch
 331:..\..\..\..\..\..\uCOS-III\Source/os_mutex.c **** *                                OS_ERR_STATE_INVALID      If the task is in an invalid state
 332:..\..\..\..\..\..\uCOS-III\Source/os_mutex.c **** *                                OS_ERR_STATUS_INVALID     If the pend status has an invalid value
 333:..\..\..\..\..\..\uCOS-III\Source/os_mutex.c **** *                                OS_ERR_TIMEOUT            The mutex was not received within the sp
 334:..\..\..\..\..\..\uCOS-III\Source/os_mutex.c **** *
 335:..\..\..\..\..\..\uCOS-III\Source/os_mutex.c **** * Returns    : none
 336:..\..\..\..\..\..\uCOS-III\Source/os_mutex.c **** ***************************************************************************************************
 337:..\..\..\..\..\..\uCOS-III\Source/os_mutex.c **** */
 338:..\..\..\..\..\..\uCOS-III\Source/os_mutex.c **** 
 339:..\..\..\..\..\..\uCOS-III\Source/os_mutex.c **** void  OSMutexPend (OS_MUTEX  *p_mutex,
 340:..\..\..\..\..\..\uCOS-III\Source/os_mutex.c ****                    OS_TICK    timeout,
 341:..\..\..\..\..\..\uCOS-III\Source/os_mutex.c ****                    OS_OPT     opt,
 342:..\..\..\..\..\..\uCOS-III\Source/os_mutex.c ****                    CPU_TS    *p_ts,
 343:..\..\..\..\..\..\uCOS-III\Source/os_mutex.c ****                    OS_ERR    *p_err)
 344:..\..\..\..\..\..\uCOS-III\Source/os_mutex.c **** {
 433              		.loc 1 344 0
 434              		.cfi_startproc
 435              		@ args = 4, pretend = 0, frame = 56
 436              		@ frame_needed = 1, uses_anonymous_args = 0
 437 0000 80B5     		push	{r7, lr}
 438              		.cfi_def_cfa_offset 8
 439              		.cfi_offset 7, -8
 440              		.cfi_offset 14, -4
 441 0002 8EB0     		sub	sp, sp, #56
 442              		.cfi_def_cfa_offset 64
 443 0004 00AF     		add	r7, sp, #0
 444              		.cfi_def_cfa_register 7
 445 0006 F860     		str	r0, [r7, #12]
 446 0008 B960     		str	r1, [r7, #8]
 447 000a 3B60     		str	r3, [r7]
 448 000c 1346     		mov	r3, r2	@ movhi
 449 000e FB80     		strh	r3, [r7, #6]	@ movhi
ARM GAS  C:\Users\Aluno\AppData\Local\Temp\cccS7k0x.s 			page 15


 345:..\..\..\..\..\..\uCOS-III\Source/os_mutex.c ****     OS_PEND_DATA  pend_data;
 346:..\..\..\..\..\..\uCOS-III\Source/os_mutex.c ****     OS_TCB       *p_tcb;
 347:..\..\..\..\..\..\uCOS-III\Source/os_mutex.c ****     CPU_SR_ALLOC();
 450              		.loc 1 347 0
 451 0010 0023     		movs	r3, #0
 452 0012 7B63     		str	r3, [r7, #52]
 348:..\..\..\..\..\..\uCOS-III\Source/os_mutex.c **** 
 349:..\..\..\..\..\..\uCOS-III\Source/os_mutex.c **** 
 350:..\..\..\..\..\..\uCOS-III\Source/os_mutex.c **** 
 351:..\..\..\..\..\..\uCOS-III\Source/os_mutex.c **** #ifdef OS_SAFETY_CRITICAL
 352:..\..\..\..\..\..\uCOS-III\Source/os_mutex.c ****     if (p_err == (OS_ERR *)0) {
 353:..\..\..\..\..\..\uCOS-III\Source/os_mutex.c ****         OS_SAFETY_CRITICAL_EXCEPTION();
 354:..\..\..\..\..\..\uCOS-III\Source/os_mutex.c ****         return;
 355:..\..\..\..\..\..\uCOS-III\Source/os_mutex.c ****     }
 356:..\..\..\..\..\..\uCOS-III\Source/os_mutex.c **** #endif
 357:..\..\..\..\..\..\uCOS-III\Source/os_mutex.c **** 
 358:..\..\..\..\..\..\uCOS-III\Source/os_mutex.c **** #if OS_CFG_CALLED_FROM_ISR_CHK_EN > 0u
 359:..\..\..\..\..\..\uCOS-III\Source/os_mutex.c ****     if (OSIntNestingCtr > (OS_NESTING_CTR)0) {              /* Not allowed to call from an ISR     
 453              		.loc 1 359 0
 454 0014 954B     		ldr	r3, .L66
 455 0016 1B78     		ldrb	r3, [r3]	@ zero_extendqisi2
 456 0018 002B     		cmp	r3, #0
 457 001a 04D0     		beq	.L34
 360:..\..\..\..\..\..\uCOS-III\Source/os_mutex.c ****        *p_err = OS_ERR_PEND_ISR;
 458              		.loc 1 360 0
 459 001c 3B6C     		ldr	r3, [r7, #64]
 460 001e 46F2AE12 		movw	r2, #25006
 461 0022 1A80     		strh	r2, [r3]	@ movhi
 361:..\..\..\..\..\..\uCOS-III\Source/os_mutex.c ****         return;
 462              		.loc 1 361 0
 463 0024 1FE1     		b	.L33
 464              	.L34:
 362:..\..\..\..\..\..\uCOS-III\Source/os_mutex.c ****     }
 363:..\..\..\..\..\..\uCOS-III\Source/os_mutex.c **** #endif
 364:..\..\..\..\..\..\uCOS-III\Source/os_mutex.c **** 
 365:..\..\..\..\..\..\uCOS-III\Source/os_mutex.c **** #if OS_CFG_ARG_CHK_EN > 0u
 366:..\..\..\..\..\..\uCOS-III\Source/os_mutex.c ****     if (p_mutex == (OS_MUTEX *)0) {                         /* Validate arguments                  
 465              		.loc 1 366 0
 466 0026 FB68     		ldr	r3, [r7, #12]
 467 0028 002B     		cmp	r3, #0
 468 002a 04D1     		bne	.L36
 367:..\..\..\..\..\..\uCOS-III\Source/os_mutex.c ****        *p_err = OS_ERR_OBJ_PTR_NULL;
 469              		.loc 1 367 0
 470 002c 3B6C     		ldr	r3, [r7, #64]
 471 002e 45F6C352 		movw	r2, #24003
 472 0032 1A80     		strh	r2, [r3]	@ movhi
 368:..\..\..\..\..\..\uCOS-III\Source/os_mutex.c ****         return;
 473              		.loc 1 368 0
 474 0034 17E1     		b	.L33
 475              	.L36:
 369:..\..\..\..\..\..\uCOS-III\Source/os_mutex.c ****     }
 370:..\..\..\..\..\..\uCOS-III\Source/os_mutex.c ****     switch (opt) {                                          /* Validate 'opt'                      
 476              		.loc 1 370 0
 477 0036 FB88     		ldrh	r3, [r7, #6]
 478 0038 002B     		cmp	r3, #0
 479 003a 07D0     		beq	.L65
 480 003c B3F5004F 		cmp	r3, #32768
ARM GAS  C:\Users\Aluno\AppData\Local\Temp\cccS7k0x.s 			page 16


 481 0040 04D0     		beq	.L65
 371:..\..\..\..\..\..\uCOS-III\Source/os_mutex.c ****         case OS_OPT_PEND_BLOCKING:
 372:..\..\..\..\..\..\uCOS-III\Source/os_mutex.c ****         case OS_OPT_PEND_NON_BLOCKING:
 373:..\..\..\..\..\..\uCOS-III\Source/os_mutex.c ****              break;
 374:..\..\..\..\..\..\uCOS-III\Source/os_mutex.c **** 
 375:..\..\..\..\..\..\uCOS-III\Source/os_mutex.c ****         default:
 376:..\..\..\..\..\..\uCOS-III\Source/os_mutex.c ****             *p_err = OS_ERR_OPT_INVALID;
 482              		.loc 1 376 0
 483 0042 3B6C     		ldr	r3, [r7, #64]
 484 0044 45F62562 		movw	r2, #24101
 485 0048 1A80     		strh	r2, [r3]	@ movhi
 377:..\..\..\..\..\..\uCOS-III\Source/os_mutex.c ****              return;
 486              		.loc 1 377 0
 487 004a 0CE1     		b	.L33
 488              	.L65:
 373:..\..\..\..\..\..\uCOS-III\Source/os_mutex.c **** 
 489              		.loc 1 373 0
 490 004c 00BF     		nop
 378:..\..\..\..\..\..\uCOS-III\Source/os_mutex.c ****     }
 379:..\..\..\..\..\..\uCOS-III\Source/os_mutex.c **** #endif
 380:..\..\..\..\..\..\uCOS-III\Source/os_mutex.c **** 
 381:..\..\..\..\..\..\uCOS-III\Source/os_mutex.c **** #if OS_CFG_OBJ_TYPE_CHK_EN > 0u
 382:..\..\..\..\..\..\uCOS-III\Source/os_mutex.c ****     if (p_mutex->Type != OS_OBJ_TYPE_MUTEX) {               /* Make sure mutex was created         
 383:..\..\..\..\..\..\uCOS-III\Source/os_mutex.c ****        *p_err = OS_ERR_OBJ_TYPE;
 384:..\..\..\..\..\..\uCOS-III\Source/os_mutex.c ****         return;
 385:..\..\..\..\..\..\uCOS-III\Source/os_mutex.c ****     }
 386:..\..\..\..\..\..\uCOS-III\Source/os_mutex.c **** #endif
 387:..\..\..\..\..\..\uCOS-III\Source/os_mutex.c **** 
 388:..\..\..\..\..\..\uCOS-III\Source/os_mutex.c ****     if (p_ts != (CPU_TS *)0) {
 491              		.loc 1 388 0
 492 004e 3B68     		ldr	r3, [r7]
 493 0050 002B     		cmp	r3, #0
 494 0052 02D0     		beq	.L40
 389:..\..\..\..\..\..\uCOS-III\Source/os_mutex.c ****        *p_ts  = (CPU_TS  )0;                                /* Initialize the returned timestamp   
 495              		.loc 1 389 0
 496 0054 3B68     		ldr	r3, [r7]
 497 0056 0022     		movs	r2, #0
 498 0058 1A60     		str	r2, [r3]
 499              	.L40:
 390:..\..\..\..\..\..\uCOS-III\Source/os_mutex.c ****     }
 391:..\..\..\..\..\..\uCOS-III\Source/os_mutex.c **** 
 392:..\..\..\..\..\..\uCOS-III\Source/os_mutex.c ****     CPU_CRITICAL_ENTER();
 500              		.loc 1 392 0
 501 005a FFF7FEFF 		bl	CPU_SR_Save
 502 005e 7863     		str	r0, [r7, #52]
 393:..\..\..\..\..\..\uCOS-III\Source/os_mutex.c ****     if (p_mutex->OwnerNestingCtr == (OS_NESTING_CTR)0) {    /* Resource available?                 
 503              		.loc 1 393 0
 504 0060 FB68     		ldr	r3, [r7, #12]
 505 0062 93F82530 		ldrb	r3, [r3, #37]	@ zero_extendqisi2
 506 0066 002B     		cmp	r3, #0
 507 0068 1CD1     		bne	.L41
 394:..\..\..\..\..\..\uCOS-III\Source/os_mutex.c ****         p_mutex->OwnerTCBPtr       =  OSTCBCurPtr;          /* Yes, caller may proceed             
 508              		.loc 1 394 0
 509 006a 814B     		ldr	r3, .L66+4
 510 006c 1A68     		ldr	r2, [r3]
 511 006e FB68     		ldr	r3, [r7, #12]
 512 0070 1A62     		str	r2, [r3, #32]
ARM GAS  C:\Users\Aluno\AppData\Local\Temp\cccS7k0x.s 			page 17


 395:..\..\..\..\..\..\uCOS-III\Source/os_mutex.c ****         p_mutex->OwnerOriginalPrio =  OSTCBCurPtr->Prio;
 513              		.loc 1 395 0
 514 0072 7F4B     		ldr	r3, .L66+4
 515 0074 1B68     		ldr	r3, [r3]
 516 0076 93F83720 		ldrb	r2, [r3, #55]	@ zero_extendqisi2
 517 007a FB68     		ldr	r3, [r7, #12]
 518 007c 83F82420 		strb	r2, [r3, #36]
 396:..\..\..\..\..\..\uCOS-III\Source/os_mutex.c ****         p_mutex->OwnerNestingCtr   = (OS_NESTING_CTR)1;
 519              		.loc 1 396 0
 520 0080 FB68     		ldr	r3, [r7, #12]
 521 0082 0122     		movs	r2, #1
 522 0084 83F82520 		strb	r2, [r3, #37]
 397:..\..\..\..\..\..\uCOS-III\Source/os_mutex.c ****         if (p_ts != (CPU_TS *)0) {
 523              		.loc 1 397 0
 524 0088 3B68     		ldr	r3, [r7]
 525 008a 002B     		cmp	r3, #0
 526 008c 03D0     		beq	.L42
 398:..\..\..\..\..\..\uCOS-III\Source/os_mutex.c ****            *p_ts  = p_mutex->TS;
 527              		.loc 1 398 0
 528 008e FB68     		ldr	r3, [r7, #12]
 529 0090 9A6A     		ldr	r2, [r3, #40]
 530 0092 3B68     		ldr	r3, [r7]
 531 0094 1A60     		str	r2, [r3]
 532              	.L42:
 399:..\..\..\..\..\..\uCOS-III\Source/os_mutex.c ****         }
 400:..\..\..\..\..\..\uCOS-III\Source/os_mutex.c ****         CPU_CRITICAL_EXIT();
 533              		.loc 1 400 0
 534 0096 786B     		ldr	r0, [r7, #52]
 535 0098 FFF7FEFF 		bl	CPU_SR_Restore
 401:..\..\..\..\..\..\uCOS-III\Source/os_mutex.c ****        *p_err = OS_ERR_NONE;
 536              		.loc 1 401 0
 537 009c 3B6C     		ldr	r3, [r7, #64]
 538 009e 0022     		movs	r2, #0
 539 00a0 1A80     		strh	r2, [r3]	@ movhi
 402:..\..\..\..\..\..\uCOS-III\Source/os_mutex.c ****         return;
 540              		.loc 1 402 0
 541 00a2 E0E0     		b	.L33
 542              	.L41:
 403:..\..\..\..\..\..\uCOS-III\Source/os_mutex.c ****     }
 404:..\..\..\..\..\..\uCOS-III\Source/os_mutex.c **** 
 405:..\..\..\..\..\..\uCOS-III\Source/os_mutex.c ****     if (OSTCBCurPtr == p_mutex->OwnerTCBPtr) {              /* See if current task is already the o
 543              		.loc 1 405 0
 544 00a4 FB68     		ldr	r3, [r7, #12]
 545 00a6 1A6A     		ldr	r2, [r3, #32]
 546 00a8 714B     		ldr	r3, .L66+4
 547 00aa 1B68     		ldr	r3, [r3]
 548 00ac 9A42     		cmp	r2, r3
 549 00ae 16D1     		bne	.L43
 406:..\..\..\..\..\..\uCOS-III\Source/os_mutex.c ****         p_mutex->OwnerNestingCtr++;
 550              		.loc 1 406 0
 551 00b0 FB68     		ldr	r3, [r7, #12]
 552 00b2 93F82530 		ldrb	r3, [r3, #37]	@ zero_extendqisi2
 553 00b6 0133     		adds	r3, r3, #1
 554 00b8 DAB2     		uxtb	r2, r3
 555 00ba FB68     		ldr	r3, [r7, #12]
 556 00bc 83F82520 		strb	r2, [r3, #37]
 407:..\..\..\..\..\..\uCOS-III\Source/os_mutex.c ****         if (p_ts != (CPU_TS *)0) {
ARM GAS  C:\Users\Aluno\AppData\Local\Temp\cccS7k0x.s 			page 18


 557              		.loc 1 407 0
 558 00c0 3B68     		ldr	r3, [r7]
 559 00c2 002B     		cmp	r3, #0
 560 00c4 03D0     		beq	.L44
 408:..\..\..\..\..\..\uCOS-III\Source/os_mutex.c ****            *p_ts  = p_mutex->TS;
 561              		.loc 1 408 0
 562 00c6 FB68     		ldr	r3, [r7, #12]
 563 00c8 9A6A     		ldr	r2, [r3, #40]
 564 00ca 3B68     		ldr	r3, [r7]
 565 00cc 1A60     		str	r2, [r3]
 566              	.L44:
 409:..\..\..\..\..\..\uCOS-III\Source/os_mutex.c ****         }
 410:..\..\..\..\..\..\uCOS-III\Source/os_mutex.c ****         CPU_CRITICAL_EXIT();
 567              		.loc 1 410 0
 568 00ce 786B     		ldr	r0, [r7, #52]
 569 00d0 FFF7FEFF 		bl	CPU_SR_Restore
 411:..\..\..\..\..\..\uCOS-III\Source/os_mutex.c ****        *p_err = OS_ERR_MUTEX_OWNER;                         /* Indicate that current task already o
 570              		.loc 1 411 0
 571 00d4 3B6C     		ldr	r3, [r7, #64]
 572 00d6 45F28272 		movw	r2, #22402
 573 00da 1A80     		strh	r2, [r3]	@ movhi
 412:..\..\..\..\..\..\uCOS-III\Source/os_mutex.c ****         return;
 574              		.loc 1 412 0
 575 00dc C3E0     		b	.L33
 576              	.L43:
 413:..\..\..\..\..\..\uCOS-III\Source/os_mutex.c ****     }
 414:..\..\..\..\..\..\uCOS-III\Source/os_mutex.c **** 
 415:..\..\..\..\..\..\uCOS-III\Source/os_mutex.c ****     if ((opt & OS_OPT_PEND_NON_BLOCKING) != (OS_OPT)0) {    /* Caller wants to block if not availab
 577              		.loc 1 415 0
 578 00de B7F90630 		ldrsh	r3, [r7, #6]
 579 00e2 002B     		cmp	r3, #0
 580 00e4 07DA     		bge	.L45
 416:..\..\..\..\..\..\uCOS-III\Source/os_mutex.c ****         CPU_CRITICAL_EXIT();
 581              		.loc 1 416 0
 582 00e6 786B     		ldr	r0, [r7, #52]
 583 00e8 FFF7FEFF 		bl	CPU_SR_Restore
 417:..\..\..\..\..\..\uCOS-III\Source/os_mutex.c ****        *p_err = OS_ERR_PEND_WOULD_BLOCK;                    /* No                                  
 584              		.loc 1 417 0
 585 00ec 3B6C     		ldr	r3, [r7, #64]
 586 00ee 46F2B012 		movw	r2, #25008
 587 00f2 1A80     		strh	r2, [r3]	@ movhi
 418:..\..\..\..\..\..\uCOS-III\Source/os_mutex.c ****         return;
 588              		.loc 1 418 0
 589 00f4 B7E0     		b	.L33
 590              	.L45:
 419:..\..\..\..\..\..\uCOS-III\Source/os_mutex.c ****     } else {
 420:..\..\..\..\..\..\uCOS-III\Source/os_mutex.c ****         if (OSSchedLockNestingCtr > (OS_NESTING_CTR)0) {    /* Can't pend when the scheduler is loc
 591              		.loc 1 420 0
 592 00f6 5F4B     		ldr	r3, .L66+8
 593 00f8 1B78     		ldrb	r3, [r3]	@ zero_extendqisi2
 594 00fa 002B     		cmp	r3, #0
 595 00fc 07D0     		beq	.L46
 421:..\..\..\..\..\..\uCOS-III\Source/os_mutex.c ****             CPU_CRITICAL_EXIT();
 596              		.loc 1 421 0
 597 00fe 786B     		ldr	r0, [r7, #52]
 598 0100 FFF7FEFF 		bl	CPU_SR_Restore
 422:..\..\..\..\..\..\uCOS-III\Source/os_mutex.c ****            *p_err = OS_ERR_SCHED_LOCKED;
ARM GAS  C:\Users\Aluno\AppData\Local\Temp\cccS7k0x.s 			page 19


 599              		.loc 1 422 0
 600 0104 3B6C     		ldr	r3, [r7, #64]
 601 0106 46F66352 		movw	r2, #28003
 602 010a 1A80     		strh	r2, [r3]	@ movhi
 423:..\..\..\..\..\..\uCOS-III\Source/os_mutex.c ****             return;
 603              		.loc 1 423 0
 604 010c ABE0     		b	.L33
 605              	.L46:
 424:..\..\..\..\..\..\uCOS-III\Source/os_mutex.c ****         }
 425:..\..\..\..\..\..\uCOS-III\Source/os_mutex.c ****     }
 426:..\..\..\..\..\..\uCOS-III\Source/os_mutex.c ****                                                             /* Lock the scheduler/re-enable interru
 427:..\..\..\..\..\..\uCOS-III\Source/os_mutex.c ****     OS_CRITICAL_ENTER_CPU_EXIT();
 428:..\..\..\..\..\..\uCOS-III\Source/os_mutex.c ****     p_tcb = p_mutex->OwnerTCBPtr;                           /* Point to the TCB of the Mutex owner 
 606              		.loc 1 428 0
 607 010e FB68     		ldr	r3, [r7, #12]
 608 0110 1B6A     		ldr	r3, [r3, #32]
 609 0112 3B63     		str	r3, [r7, #48]
 429:..\..\..\..\..\..\uCOS-III\Source/os_mutex.c ****     if (p_tcb->Prio > OSTCBCurPtr->Prio) {                  /* See if mutex owner has a lower prior
 610              		.loc 1 429 0
 611 0114 3B6B     		ldr	r3, [r7, #48]
 612 0116 93F83720 		ldrb	r2, [r3, #55]	@ zero_extendqisi2
 613 011a 554B     		ldr	r3, .L66+4
 614 011c 1B68     		ldr	r3, [r3]
 615 011e 93F83730 		ldrb	r3, [r3, #55]	@ zero_extendqisi2
 616 0122 9A42     		cmp	r2, r3
 617 0124 45D9     		bls	.L47
 430:..\..\..\..\..\..\uCOS-III\Source/os_mutex.c ****         switch (p_tcb->TaskState) {
 618              		.loc 1 430 0
 619 0126 3B6B     		ldr	r3, [r7, #48]
 620 0128 93F83630 		ldrb	r3, [r3, #54]	@ zero_extendqisi2
 621 012c 072B     		cmp	r3, #7
 622 012e 38D8     		bhi	.L48
 623 0130 01A2     		adr	r2, .L50
 624 0132 52F823F0 		ldr	pc, [r2, r3, lsl #2]
 625 0136 00BF     		.p2align 2
 626              	.L50:
 627 0138 59010000 		.word	.L49+1
 628 013c 81010000 		.word	.L51+1
 629 0140 91010000 		.word	.L52+1
 630 0144 91010000 		.word	.L52+1
 631 0148 81010000 		.word	.L51+1
 632 014c 81010000 		.word	.L51+1
 633 0150 91010000 		.word	.L52+1
 634 0154 91010000 		.word	.L52+1
 635              		.p2align 1
 636              	.L49:
 431:..\..\..\..\..\..\uCOS-III\Source/os_mutex.c ****             case OS_TASK_STATE_RDY:
 432:..\..\..\..\..\..\uCOS-III\Source/os_mutex.c ****                  OS_RdyListRemove(p_tcb);                   /* Remove from ready list at current pr
 637              		.loc 1 432 0
 638 0158 386B     		ldr	r0, [r7, #48]
 639 015a FFF7FEFF 		bl	OS_RdyListRemove
 433:..\..\..\..\..\..\uCOS-III\Source/os_mutex.c ****                  p_tcb->Prio = OSTCBCurPtr->Prio;           /* Raise owner's priority              
 640              		.loc 1 433 0
 641 015e 444B     		ldr	r3, .L66+4
 642 0160 1B68     		ldr	r3, [r3]
 643 0162 93F83720 		ldrb	r2, [r3, #55]	@ zero_extendqisi2
 644 0166 3B6B     		ldr	r3, [r7, #48]
ARM GAS  C:\Users\Aluno\AppData\Local\Temp\cccS7k0x.s 			page 20


 645 0168 83F83720 		strb	r2, [r3, #55]
 434:..\..\..\..\..\..\uCOS-III\Source/os_mutex.c ****                  OS_PrioInsert(p_tcb->Prio);
 646              		.loc 1 434 0
 647 016c 3B6B     		ldr	r3, [r7, #48]
 648 016e 93F83730 		ldrb	r3, [r3, #55]	@ zero_extendqisi2
 649 0172 1846     		mov	r0, r3
 650 0174 FFF7FEFF 		bl	OS_PrioInsert
 435:..\..\..\..\..\..\uCOS-III\Source/os_mutex.c ****                  OS_RdyListInsertHead(p_tcb);               /* Insert in ready list at new priority
 651              		.loc 1 435 0
 652 0178 386B     		ldr	r0, [r7, #48]
 653 017a FFF7FEFF 		bl	OS_RdyListInsertHead
 436:..\..\..\..\..\..\uCOS-III\Source/os_mutex.c ****                  break;
 654              		.loc 1 436 0
 655 017e 18E0     		b	.L47
 656              	.L51:
 437:..\..\..\..\..\..\uCOS-III\Source/os_mutex.c **** 
 438:..\..\..\..\..\..\uCOS-III\Source/os_mutex.c ****             case OS_TASK_STATE_DLY:
 439:..\..\..\..\..\..\uCOS-III\Source/os_mutex.c ****             case OS_TASK_STATE_DLY_SUSPENDED:
 440:..\..\..\..\..\..\uCOS-III\Source/os_mutex.c ****             case OS_TASK_STATE_SUSPENDED:
 441:..\..\..\..\..\..\uCOS-III\Source/os_mutex.c ****                  p_tcb->Prio = OSTCBCurPtr->Prio;           /* Only need to raise the owner's prior
 657              		.loc 1 441 0
 658 0180 3B4B     		ldr	r3, .L66+4
 659 0182 1B68     		ldr	r3, [r3]
 660 0184 93F83720 		ldrb	r2, [r3, #55]	@ zero_extendqisi2
 661 0188 3B6B     		ldr	r3, [r7, #48]
 662 018a 83F83720 		strb	r2, [r3, #55]
 442:..\..\..\..\..\..\uCOS-III\Source/os_mutex.c ****                  break;
 663              		.loc 1 442 0
 664 018e 10E0     		b	.L47
 665              	.L52:
 443:..\..\..\..\..\..\uCOS-III\Source/os_mutex.c **** 
 444:..\..\..\..\..\..\uCOS-III\Source/os_mutex.c ****             case OS_TASK_STATE_PEND:                        /* Change the position of the task in t
 445:..\..\..\..\..\..\uCOS-III\Source/os_mutex.c ****             case OS_TASK_STATE_PEND_TIMEOUT:
 446:..\..\..\..\..\..\uCOS-III\Source/os_mutex.c ****             case OS_TASK_STATE_PEND_SUSPENDED:
 447:..\..\..\..\..\..\uCOS-III\Source/os_mutex.c ****             case OS_TASK_STATE_PEND_TIMEOUT_SUSPENDED:
 448:..\..\..\..\..\..\uCOS-III\Source/os_mutex.c ****                  OS_PendListChangePrio(p_tcb,
 449:..\..\..\..\..\..\uCOS-III\Source/os_mutex.c ****                                        OSTCBCurPtr->Prio);
 666              		.loc 1 449 0
 667 0190 374B     		ldr	r3, .L66+4
 668 0192 1B68     		ldr	r3, [r3]
 448:..\..\..\..\..\..\uCOS-III\Source/os_mutex.c ****                                        OSTCBCurPtr->Prio);
 669              		.loc 1 448 0
 670 0194 93F83730 		ldrb	r3, [r3, #55]	@ zero_extendqisi2
 671 0198 1946     		mov	r1, r3
 672 019a 386B     		ldr	r0, [r7, #48]
 673 019c FFF7FEFF 		bl	OS_PendListChangePrio
 450:..\..\..\..\..\..\uCOS-III\Source/os_mutex.c ****                  break;
 674              		.loc 1 450 0
 675 01a0 07E0     		b	.L47
 676              	.L48:
 451:..\..\..\..\..\..\uCOS-III\Source/os_mutex.c **** 
 452:..\..\..\..\..\..\uCOS-III\Source/os_mutex.c ****             default:
 453:..\..\..\..\..\..\uCOS-III\Source/os_mutex.c ****                  OS_CRITICAL_EXIT();
 677              		.loc 1 453 0
 678 01a2 786B     		ldr	r0, [r7, #52]
 679 01a4 FFF7FEFF 		bl	CPU_SR_Restore
 454:..\..\..\..\..\..\uCOS-III\Source/os_mutex.c ****                 *p_err = OS_ERR_STATE_INVALID;
ARM GAS  C:\Users\Aluno\AppData\Local\Temp\cccS7k0x.s 			page 21


 680              		.loc 1 454 0
 681 01a8 3B6C     		ldr	r3, [r7, #64]
 682 01aa 46F62D62 		movw	r2, #28205
 683 01ae 1A80     		strh	r2, [r3]	@ movhi
 455:..\..\..\..\..\..\uCOS-III\Source/os_mutex.c ****                  return;
 684              		.loc 1 455 0
 685 01b0 59E0     		b	.L33
 686              	.L47:
 456:..\..\..\..\..\..\uCOS-III\Source/os_mutex.c ****         }
 457:..\..\..\..\..\..\uCOS-III\Source/os_mutex.c ****     }
 458:..\..\..\..\..\..\uCOS-III\Source/os_mutex.c **** 
 459:..\..\..\..\..\..\uCOS-III\Source/os_mutex.c ****     OS_Pend(&pend_data,                                     /* Block task pending on Mutex         
 687              		.loc 1 459 0
 688 01b2 07F11000 		add	r0, r7, #16
 689 01b6 BB68     		ldr	r3, [r7, #8]
 690 01b8 0422     		movs	r2, #4
 691 01ba F968     		ldr	r1, [r7, #12]
 692 01bc FFF7FEFF 		bl	OS_Pend
 460:..\..\..\..\..\..\uCOS-III\Source/os_mutex.c ****             (OS_PEND_OBJ *)((void *)p_mutex),
 461:..\..\..\..\..\..\uCOS-III\Source/os_mutex.c ****              OS_TASK_PEND_ON_MUTEX,
 462:..\..\..\..\..\..\uCOS-III\Source/os_mutex.c ****              timeout);
 463:..\..\..\..\..\..\uCOS-III\Source/os_mutex.c **** 
 464:..\..\..\..\..\..\uCOS-III\Source/os_mutex.c ****     OS_CRITICAL_EXIT_NO_SCHED();
 693              		.loc 1 464 0
 694 01c0 786B     		ldr	r0, [r7, #52]
 695 01c2 FFF7FEFF 		bl	CPU_SR_Restore
 465:..\..\..\..\..\..\uCOS-III\Source/os_mutex.c **** 
 466:..\..\..\..\..\..\uCOS-III\Source/os_mutex.c ****     OSSched();                                              /* Find the next highest priority task 
 696              		.loc 1 466 0
 697 01c6 FFF7FEFF 		bl	OSSched
 467:..\..\..\..\..\..\uCOS-III\Source/os_mutex.c **** 
 468:..\..\..\..\..\..\uCOS-III\Source/os_mutex.c ****     CPU_CRITICAL_ENTER();
 698              		.loc 1 468 0
 699 01ca FFF7FEFF 		bl	CPU_SR_Save
 700 01ce 7863     		str	r0, [r7, #52]
 469:..\..\..\..\..\..\uCOS-III\Source/os_mutex.c ****     switch (OSTCBCurPtr->PendStatus) {
 701              		.loc 1 469 0
 702 01d0 274B     		ldr	r3, .L66+4
 703 01d2 1B68     		ldr	r3, [r3]
 704 01d4 93F83530 		ldrb	r3, [r3, #53]	@ zero_extendqisi2
 705 01d8 032B     		cmp	r3, #3
 706 01da 3CD8     		bhi	.L53
 707 01dc 01A2     		adr	r2, .L55
 708 01de 52F823F0 		ldr	pc, [r2, r3, lsl #2]
 709 01e2 00BF     		.p2align 2
 710              	.L55:
 711 01e4 F5010000 		.word	.L54+1
 712 01e8 0D020000 		.word	.L56+1
 713 01ec 3D020000 		.word	.L57+1
 714 01f0 27020000 		.word	.L58+1
 715              		.p2align 1
 716              	.L54:
 470:..\..\..\..\..\..\uCOS-III\Source/os_mutex.c ****         case OS_STATUS_PEND_OK:                             /* We got the mutex                    
 471:..\..\..\..\..\..\uCOS-III\Source/os_mutex.c ****              if (p_ts != (CPU_TS *)0) {
 717              		.loc 1 471 0
 718 01f4 3B68     		ldr	r3, [r7]
 719 01f6 002B     		cmp	r3, #0
ARM GAS  C:\Users\Aluno\AppData\Local\Temp\cccS7k0x.s 			page 22


 720 01f8 04D0     		beq	.L59
 472:..\..\..\..\..\..\uCOS-III\Source/os_mutex.c ****                 *p_ts  = OSTCBCurPtr->TS;
 721              		.loc 1 472 0
 722 01fa 1D4B     		ldr	r3, .L66+4
 723 01fc 1B68     		ldr	r3, [r3]
 724 01fe 1A6C     		ldr	r2, [r3, #64]
 725 0200 3B68     		ldr	r3, [r7]
 726 0202 1A60     		str	r2, [r3]
 727              	.L59:
 473:..\..\..\..\..\..\uCOS-III\Source/os_mutex.c ****              }
 474:..\..\..\..\..\..\uCOS-III\Source/os_mutex.c ****             *p_err = OS_ERR_NONE;
 728              		.loc 1 474 0
 729 0204 3B6C     		ldr	r3, [r7, #64]
 730 0206 0022     		movs	r2, #0
 731 0208 1A80     		strh	r2, [r3]	@ movhi
 475:..\..\..\..\..\..\uCOS-III\Source/os_mutex.c ****              break;
 732              		.loc 1 475 0
 733 020a 29E0     		b	.L60
 734              	.L56:
 476:..\..\..\..\..\..\uCOS-III\Source/os_mutex.c **** 
 477:..\..\..\..\..\..\uCOS-III\Source/os_mutex.c ****         case OS_STATUS_PEND_ABORT:                          /* Indicate that we aborted            
 478:..\..\..\..\..\..\uCOS-III\Source/os_mutex.c ****              if (p_ts != (CPU_TS *)0) {
 735              		.loc 1 478 0
 736 020c 3B68     		ldr	r3, [r7]
 737 020e 002B     		cmp	r3, #0
 738 0210 04D0     		beq	.L61
 479:..\..\..\..\..\..\uCOS-III\Source/os_mutex.c ****                 *p_ts  = OSTCBCurPtr->TS;
 739              		.loc 1 479 0
 740 0212 174B     		ldr	r3, .L66+4
 741 0214 1B68     		ldr	r3, [r3]
 742 0216 1A6C     		ldr	r2, [r3, #64]
 743 0218 3B68     		ldr	r3, [r7]
 744 021a 1A60     		str	r2, [r3]
 745              	.L61:
 480:..\..\..\..\..\..\uCOS-III\Source/os_mutex.c ****              }
 481:..\..\..\..\..\..\uCOS-III\Source/os_mutex.c ****             *p_err = OS_ERR_PEND_ABORT;
 746              		.loc 1 481 0
 747 021c 3B6C     		ldr	r3, [r7, #64]
 748 021e 46F2A912 		movw	r2, #25001
 749 0222 1A80     		strh	r2, [r3]	@ movhi
 482:..\..\..\..\..\..\uCOS-III\Source/os_mutex.c ****              break;
 750              		.loc 1 482 0
 751 0224 1CE0     		b	.L60
 752              	.L58:
 483:..\..\..\..\..\..\uCOS-III\Source/os_mutex.c **** 
 484:..\..\..\..\..\..\uCOS-III\Source/os_mutex.c ****         case OS_STATUS_PEND_TIMEOUT:                        /* Indicate that we didn't get mutex wi
 485:..\..\..\..\..\..\uCOS-III\Source/os_mutex.c ****              if (p_ts != (CPU_TS *)0) {
 753              		.loc 1 485 0
 754 0226 3B68     		ldr	r3, [r7]
 755 0228 002B     		cmp	r3, #0
 756 022a 02D0     		beq	.L62
 486:..\..\..\..\..\..\uCOS-III\Source/os_mutex.c ****                 *p_ts  = (CPU_TS  )0;
 757              		.loc 1 486 0
 758 022c 3B68     		ldr	r3, [r7]
 759 022e 0022     		movs	r2, #0
 760 0230 1A60     		str	r2, [r3]
 761              	.L62:
ARM GAS  C:\Users\Aluno\AppData\Local\Temp\cccS7k0x.s 			page 23


 487:..\..\..\..\..\..\uCOS-III\Source/os_mutex.c ****              }
 488:..\..\..\..\..\..\uCOS-III\Source/os_mutex.c ****             *p_err = OS_ERR_TIMEOUT;
 762              		.loc 1 488 0
 763 0232 3B6C     		ldr	r3, [r7, #64]
 764 0234 47F2D922 		movw	r2, #29401
 765 0238 1A80     		strh	r2, [r3]	@ movhi
 489:..\..\..\..\..\..\uCOS-III\Source/os_mutex.c ****              break;
 766              		.loc 1 489 0
 767 023a 11E0     		b	.L60
 768              	.L57:
 490:..\..\..\..\..\..\uCOS-III\Source/os_mutex.c **** 
 491:..\..\..\..\..\..\uCOS-III\Source/os_mutex.c ****         case OS_STATUS_PEND_DEL:                            /* Indicate that object pended on has b
 492:..\..\..\..\..\..\uCOS-III\Source/os_mutex.c ****              if (p_ts != (CPU_TS *)0) {
 769              		.loc 1 492 0
 770 023c 3B68     		ldr	r3, [r7]
 771 023e 002B     		cmp	r3, #0
 772 0240 04D0     		beq	.L63
 493:..\..\..\..\..\..\uCOS-III\Source/os_mutex.c ****                 *p_ts  = OSTCBCurPtr->TS;
 773              		.loc 1 493 0
 774 0242 0B4B     		ldr	r3, .L66+4
 775 0244 1B68     		ldr	r3, [r3]
 776 0246 1A6C     		ldr	r2, [r3, #64]
 777 0248 3B68     		ldr	r3, [r7]
 778 024a 1A60     		str	r2, [r3]
 779              	.L63:
 494:..\..\..\..\..\..\uCOS-III\Source/os_mutex.c ****              }
 495:..\..\..\..\..\..\uCOS-III\Source/os_mutex.c ****             *p_err = OS_ERR_OBJ_DEL;
 780              		.loc 1 495 0
 781 024c 3B6C     		ldr	r3, [r7, #64]
 782 024e 45F6C252 		movw	r2, #24002
 783 0252 1A80     		strh	r2, [r3]	@ movhi
 496:..\..\..\..\..\..\uCOS-III\Source/os_mutex.c ****              break;
 784              		.loc 1 496 0
 785 0254 04E0     		b	.L60
 786              	.L53:
 497:..\..\..\..\..\..\uCOS-III\Source/os_mutex.c **** 
 498:..\..\..\..\..\..\uCOS-III\Source/os_mutex.c ****         default:
 499:..\..\..\..\..\..\uCOS-III\Source/os_mutex.c ****             *p_err = OS_ERR_STATUS_INVALID;
 787              		.loc 1 499 0
 788 0256 3B6C     		ldr	r3, [r7, #64]
 789 0258 46F62E62 		movw	r2, #28206
 790 025c 1A80     		strh	r2, [r3]	@ movhi
 500:..\..\..\..\..\..\uCOS-III\Source/os_mutex.c ****              break;
 791              		.loc 1 500 0
 792 025e 00BF     		nop
 793              	.L60:
 501:..\..\..\..\..\..\uCOS-III\Source/os_mutex.c ****     }
 502:..\..\..\..\..\..\uCOS-III\Source/os_mutex.c ****     CPU_CRITICAL_EXIT();
 794              		.loc 1 502 0
 795 0260 786B     		ldr	r0, [r7, #52]
 796 0262 FFF7FEFF 		bl	CPU_SR_Restore
 797              	.L33:
 503:..\..\..\..\..\..\uCOS-III\Source/os_mutex.c **** }
 798              		.loc 1 503 0
 799 0266 3837     		adds	r7, r7, #56
 800              		.cfi_def_cfa_offset 8
 801 0268 BD46     		mov	sp, r7
ARM GAS  C:\Users\Aluno\AppData\Local\Temp\cccS7k0x.s 			page 24


 802              		.cfi_def_cfa_register 13
 803              		@ sp needed
 804 026a 80BD     		pop	{r7, pc}
 805              	.L67:
 806              		.align	2
 807              	.L66:
 808 026c 00000000 		.word	OSIntNestingCtr
 809 0270 00000000 		.word	OSTCBCurPtr
 810 0274 00000000 		.word	OSSchedLockNestingCtr
 811              		.cfi_endproc
 812              	.LFE2:
 813              		.size	OSMutexPend, .-OSMutexPend
 814              		.section	.text.OSMutexPendAbort,"ax",%progbits
 815              		.align	2
 816              		.global	OSMutexPendAbort
 817              		.thumb
 818              		.thumb_func
 819              		.type	OSMutexPendAbort, %function
 820              	OSMutexPendAbort:
 821              	.LFB3:
 504:..\..\..\..\..\..\uCOS-III\Source/os_mutex.c **** 
 505:..\..\..\..\..\..\uCOS-III\Source/os_mutex.c **** /*$PAGE*/
 506:..\..\..\..\..\..\uCOS-III\Source/os_mutex.c **** /*
 507:..\..\..\..\..\..\uCOS-III\Source/os_mutex.c **** ***************************************************************************************************
 508:..\..\..\..\..\..\uCOS-III\Source/os_mutex.c **** *                                               ABORT WAITING ON A MUTEX
 509:..\..\..\..\..\..\uCOS-III\Source/os_mutex.c **** *
 510:..\..\..\..\..\..\uCOS-III\Source/os_mutex.c **** * Description: This function aborts & readies any tasks currently waiting on a mutex.  This functio
 511:..\..\..\..\..\..\uCOS-III\Source/os_mutex.c **** *              to fault-abort the wait on the mutex, rather than to normally signal the mutex via O
 512:..\..\..\..\..\..\uCOS-III\Source/os_mutex.c **** *
 513:..\..\..\..\..\..\uCOS-III\Source/os_mutex.c **** * Arguments  : p_mutex   is a pointer to the mutex
 514:..\..\..\..\..\..\uCOS-III\Source/os_mutex.c **** *
 515:..\..\..\..\..\..\uCOS-III\Source/os_mutex.c **** *              opt       determines the type of ABORT performed:
 516:..\..\..\..\..\..\uCOS-III\Source/os_mutex.c **** *
 517:..\..\..\..\..\..\uCOS-III\Source/os_mutex.c **** *                            OS_OPT_PEND_ABORT_1          ABORT wait for a single task (HPT) waitin
 518:..\..\..\..\..\..\uCOS-III\Source/os_mutex.c **** *                            OS_OPT_PEND_ABORT_ALL        ABORT wait for ALL tasks that are  waitin
 519:..\..\..\..\..\..\uCOS-III\Source/os_mutex.c **** *                            OS_OPT_POST_NO_SCHED         Do not call the scheduler
 520:..\..\..\..\..\..\uCOS-III\Source/os_mutex.c **** *
 521:..\..\..\..\..\..\uCOS-III\Source/os_mutex.c **** *              p_err     is a pointer to a variable that will contain an error code returned by thi
 522:..\..\..\..\..\..\uCOS-III\Source/os_mutex.c **** *
 523:..\..\..\..\..\..\uCOS-III\Source/os_mutex.c **** *                            OS_ERR_NONE                  At least one task waiting on the mutex wa
 524:..\..\..\..\..\..\uCOS-III\Source/os_mutex.c **** *                                                         informed of the aborted wait; check retur
 525:..\..\..\..\..\..\uCOS-III\Source/os_mutex.c **** *                                                         number of tasks whose wait on the mutex w
 526:..\..\..\..\..\..\uCOS-III\Source/os_mutex.c **** *                            OS_ERR_OBJ_PTR_NULL          If 'p_mutex' is a NULL pointer.
 527:..\..\..\..\..\..\uCOS-III\Source/os_mutex.c **** *                            OS_ERR_OBJ_TYPE              If 'p_mutex' is not pointing at a mutex
 528:..\..\..\..\..\..\uCOS-III\Source/os_mutex.c **** *                            OS_ERR_OPT_INVALID           If you specified an invalid option
 529:..\..\..\..\..\..\uCOS-III\Source/os_mutex.c **** *                            OS_ERR_PEND_ABORT_ISR        If you attempted to call this function fr
 530:..\..\..\..\..\..\uCOS-III\Source/os_mutex.c **** *                            OS_ERR_PEND_ABORT_NONE       No task were pending
 531:..\..\..\..\..\..\uCOS-III\Source/os_mutex.c **** *
 532:..\..\..\..\..\..\uCOS-III\Source/os_mutex.c **** * Returns    : == 0          if no tasks were waiting on the mutex, or upon error.
 533:..\..\..\..\..\..\uCOS-III\Source/os_mutex.c **** *              >  0          if one or more tasks waiting on the mutex are now readied and informed
 534:..\..\..\..\..\..\uCOS-III\Source/os_mutex.c **** ***************************************************************************************************
 535:..\..\..\..\..\..\uCOS-III\Source/os_mutex.c **** */
 536:..\..\..\..\..\..\uCOS-III\Source/os_mutex.c **** 
 537:..\..\..\..\..\..\uCOS-III\Source/os_mutex.c **** #if OS_CFG_MUTEX_PEND_ABORT_EN > 0u
 538:..\..\..\..\..\..\uCOS-III\Source/os_mutex.c **** OS_OBJ_QTY  OSMutexPendAbort (OS_MUTEX  *p_mutex,
 539:..\..\..\..\..\..\uCOS-III\Source/os_mutex.c ****                               OS_OPT     opt,
 540:..\..\..\..\..\..\uCOS-III\Source/os_mutex.c ****                               OS_ERR    *p_err)
ARM GAS  C:\Users\Aluno\AppData\Local\Temp\cccS7k0x.s 			page 25


 541:..\..\..\..\..\..\uCOS-III\Source/os_mutex.c **** {
 822              		.loc 1 541 0
 823              		.cfi_startproc
 824              		@ args = 0, pretend = 0, frame = 40
 825              		@ frame_needed = 1, uses_anonymous_args = 0
 826 0000 80B5     		push	{r7, lr}
 827              		.cfi_def_cfa_offset 8
 828              		.cfi_offset 7, -8
 829              		.cfi_offset 14, -4
 830 0002 8AB0     		sub	sp, sp, #40
 831              		.cfi_def_cfa_offset 48
 832 0004 00AF     		add	r7, sp, #0
 833              		.cfi_def_cfa_register 7
 834 0006 F860     		str	r0, [r7, #12]
 835 0008 0B46     		mov	r3, r1
 836 000a 7A60     		str	r2, [r7, #4]
 837 000c 7B81     		strh	r3, [r7, #10]	@ movhi
 542:..\..\..\..\..\..\uCOS-III\Source/os_mutex.c ****     OS_PEND_LIST  *p_pend_list;
 543:..\..\..\..\..\..\uCOS-III\Source/os_mutex.c ****     OS_TCB        *p_tcb;
 544:..\..\..\..\..\..\uCOS-III\Source/os_mutex.c ****     CPU_TS         ts;
 545:..\..\..\..\..\..\uCOS-III\Source/os_mutex.c ****     OS_OBJ_QTY     nbr_tasks;
 546:..\..\..\..\..\..\uCOS-III\Source/os_mutex.c ****     CPU_SR_ALLOC();
 838              		.loc 1 546 0
 839 000e 0023     		movs	r3, #0
 840 0010 3B62     		str	r3, [r7, #32]
 547:..\..\..\..\..\..\uCOS-III\Source/os_mutex.c **** 
 548:..\..\..\..\..\..\uCOS-III\Source/os_mutex.c **** 
 549:..\..\..\..\..\..\uCOS-III\Source/os_mutex.c **** 
 550:..\..\..\..\..\..\uCOS-III\Source/os_mutex.c **** #ifdef OS_SAFETY_CRITICAL
 551:..\..\..\..\..\..\uCOS-III\Source/os_mutex.c ****     if (p_err == (OS_ERR *)0) {
 552:..\..\..\..\..\..\uCOS-III\Source/os_mutex.c ****         OS_SAFETY_CRITICAL_EXCEPTION();
 553:..\..\..\..\..\..\uCOS-III\Source/os_mutex.c ****         return ((OS_OBJ_QTY)0u);
 554:..\..\..\..\..\..\uCOS-III\Source/os_mutex.c ****     }
 555:..\..\..\..\..\..\uCOS-III\Source/os_mutex.c **** #endif
 556:..\..\..\..\..\..\uCOS-III\Source/os_mutex.c **** 
 557:..\..\..\..\..\..\uCOS-III\Source/os_mutex.c **** #if OS_CFG_CALLED_FROM_ISR_CHK_EN > 0u
 558:..\..\..\..\..\..\uCOS-III\Source/os_mutex.c ****     if (OSIntNestingCtr > (OS_NESTING_CTR)0u) {             /* Not allowed to Pend Abort from an IS
 841              		.loc 1 558 0
 842 0012 354B     		ldr	r3, .L83
 843 0014 1B78     		ldrb	r3, [r3]	@ zero_extendqisi2
 844 0016 002B     		cmp	r3, #0
 845 0018 05D0     		beq	.L69
 559:..\..\..\..\..\..\uCOS-III\Source/os_mutex.c ****        *p_err =  OS_ERR_PEND_ABORT_ISR;
 846              		.loc 1 559 0
 847 001a 7B68     		ldr	r3, [r7, #4]
 848 001c 46F2AA12 		movw	r2, #25002
 849 0020 1A80     		strh	r2, [r3]	@ movhi
 560:..\..\..\..\..\..\uCOS-III\Source/os_mutex.c ****         return ((OS_OBJ_QTY)0u);
 850              		.loc 1 560 0
 851 0022 0023     		movs	r3, #0
 852 0024 5BE0     		b	.L70
 853              	.L69:
 561:..\..\..\..\..\..\uCOS-III\Source/os_mutex.c ****     }
 562:..\..\..\..\..\..\uCOS-III\Source/os_mutex.c **** #endif
 563:..\..\..\..\..\..\uCOS-III\Source/os_mutex.c **** 
 564:..\..\..\..\..\..\uCOS-III\Source/os_mutex.c **** #if OS_CFG_ARG_CHK_EN > 0u
 565:..\..\..\..\..\..\uCOS-III\Source/os_mutex.c ****     if (p_mutex == (OS_MUTEX *)0) {                         /* Validate 'p_mutex'                  
ARM GAS  C:\Users\Aluno\AppData\Local\Temp\cccS7k0x.s 			page 26


 854              		.loc 1 565 0
 855 0026 FB68     		ldr	r3, [r7, #12]
 856 0028 002B     		cmp	r3, #0
 857 002a 05D1     		bne	.L71
 566:..\..\..\..\..\..\uCOS-III\Source/os_mutex.c ****        *p_err =  OS_ERR_OBJ_PTR_NULL;
 858              		.loc 1 566 0
 859 002c 7B68     		ldr	r3, [r7, #4]
 860 002e 45F6C352 		movw	r2, #24003
 861 0032 1A80     		strh	r2, [r3]	@ movhi
 567:..\..\..\..\..\..\uCOS-III\Source/os_mutex.c ****         return ((OS_OBJ_QTY)0u);
 862              		.loc 1 567 0
 863 0034 0023     		movs	r3, #0
 864 0036 52E0     		b	.L70
 865              	.L71:
 568:..\..\..\..\..\..\uCOS-III\Source/os_mutex.c ****     }
 569:..\..\..\..\..\..\uCOS-III\Source/os_mutex.c ****     switch (opt) {                                          /* Validate 'opt'                      
 866              		.loc 1 569 0
 867 0038 7B89     		ldrh	r3, [r7, #10]
 868 003a B3F5807F 		cmp	r3, #256
 869 003e 11D0     		beq	.L81
 870 0040 B3F5807F 		cmp	r3, #256
 871 0044 02DC     		bgt	.L74
 872 0046 002B     		cmp	r3, #0
 873 0048 0CD0     		beq	.L81
 874 004a 05E0     		b	.L72
 875              	.L74:
 876 004c B3F5004F 		cmp	r3, #32768
 877 0050 08D0     		beq	.L81
 878 0052 B3F5014F 		cmp	r3, #33024
 879 0056 05D0     		beq	.L81
 880              	.L72:
 570:..\..\..\..\..\..\uCOS-III\Source/os_mutex.c ****         case OS_OPT_PEND_ABORT_1:
 571:..\..\..\..\..\..\uCOS-III\Source/os_mutex.c ****         case OS_OPT_PEND_ABORT_ALL:
 572:..\..\..\..\..\..\uCOS-III\Source/os_mutex.c ****         case OS_OPT_PEND_ABORT_1   | OS_OPT_POST_NO_SCHED:
 573:..\..\..\..\..\..\uCOS-III\Source/os_mutex.c ****         case OS_OPT_PEND_ABORT_ALL | OS_OPT_POST_NO_SCHED:
 574:..\..\..\..\..\..\uCOS-III\Source/os_mutex.c ****              break;
 575:..\..\..\..\..\..\uCOS-III\Source/os_mutex.c **** 
 576:..\..\..\..\..\..\uCOS-III\Source/os_mutex.c ****         default:
 577:..\..\..\..\..\..\uCOS-III\Source/os_mutex.c ****             *p_err =  OS_ERR_OPT_INVALID;
 881              		.loc 1 577 0
 882 0058 7B68     		ldr	r3, [r7, #4]
 883 005a 45F62562 		movw	r2, #24101
 884 005e 1A80     		strh	r2, [r3]	@ movhi
 578:..\..\..\..\..\..\uCOS-III\Source/os_mutex.c ****              return ((OS_OBJ_QTY)0u);
 885              		.loc 1 578 0
 886 0060 0023     		movs	r3, #0
 887 0062 3CE0     		b	.L70
 888              	.L81:
 574:..\..\..\..\..\..\uCOS-III\Source/os_mutex.c **** 
 889              		.loc 1 574 0
 890 0064 00BF     		nop
 579:..\..\..\..\..\..\uCOS-III\Source/os_mutex.c ****     }
 580:..\..\..\..\..\..\uCOS-III\Source/os_mutex.c **** #endif
 581:..\..\..\..\..\..\uCOS-III\Source/os_mutex.c **** 
 582:..\..\..\..\..\..\uCOS-III\Source/os_mutex.c **** #if OS_CFG_OBJ_TYPE_CHK_EN > 0u
 583:..\..\..\..\..\..\uCOS-III\Source/os_mutex.c ****     if (p_mutex->Type != OS_OBJ_TYPE_MUTEX) {               /* Make sure mutex was created         
 584:..\..\..\..\..\..\uCOS-III\Source/os_mutex.c ****        *p_err =  OS_ERR_OBJ_TYPE;
ARM GAS  C:\Users\Aluno\AppData\Local\Temp\cccS7k0x.s 			page 27


 585:..\..\..\..\..\..\uCOS-III\Source/os_mutex.c ****         return ((OS_OBJ_QTY)0u);
 586:..\..\..\..\..\..\uCOS-III\Source/os_mutex.c ****     }
 587:..\..\..\..\..\..\uCOS-III\Source/os_mutex.c **** #endif
 588:..\..\..\..\..\..\uCOS-III\Source/os_mutex.c **** 
 589:..\..\..\..\..\..\uCOS-III\Source/os_mutex.c ****     CPU_CRITICAL_ENTER();
 891              		.loc 1 589 0
 892 0066 FFF7FEFF 		bl	CPU_SR_Save
 893 006a 3862     		str	r0, [r7, #32]
 590:..\..\..\..\..\..\uCOS-III\Source/os_mutex.c ****     p_pend_list = &p_mutex->PendList;
 894              		.loc 1 590 0
 895 006c FB68     		ldr	r3, [r7, #12]
 896 006e 0833     		adds	r3, r3, #8
 897 0070 FB61     		str	r3, [r7, #28]
 591:..\..\..\..\..\..\uCOS-III\Source/os_mutex.c ****     if (p_pend_list->NbrEntries == (OS_OBJ_QTY)0u) {        /* Any task waiting on mutex?          
 898              		.loc 1 591 0
 899 0072 FB69     		ldr	r3, [r7, #28]
 900 0074 1B89     		ldrh	r3, [r3, #8]
 901 0076 002B     		cmp	r3, #0
 902 0078 08D1     		bne	.L76
 592:..\..\..\..\..\..\uCOS-III\Source/os_mutex.c ****         CPU_CRITICAL_EXIT();                                /* No                                  
 903              		.loc 1 592 0
 904 007a 386A     		ldr	r0, [r7, #32]
 905 007c FFF7FEFF 		bl	CPU_SR_Restore
 593:..\..\..\..\..\..\uCOS-III\Source/os_mutex.c ****        *p_err =  OS_ERR_PEND_ABORT_NONE;
 906              		.loc 1 593 0
 907 0080 7B68     		ldr	r3, [r7, #4]
 908 0082 46F2AB12 		movw	r2, #25003
 909 0086 1A80     		strh	r2, [r3]	@ movhi
 594:..\..\..\..\..\..\uCOS-III\Source/os_mutex.c ****         return ((OS_OBJ_QTY)0u);
 910              		.loc 1 594 0
 911 0088 0023     		movs	r3, #0
 912 008a 28E0     		b	.L70
 913              	.L76:
 595:..\..\..\..\..\..\uCOS-III\Source/os_mutex.c ****     }
 596:..\..\..\..\..\..\uCOS-III\Source/os_mutex.c **** 
 597:..\..\..\..\..\..\uCOS-III\Source/os_mutex.c ****     OS_CRITICAL_ENTER_CPU_EXIT();
 598:..\..\..\..\..\..\uCOS-III\Source/os_mutex.c ****     nbr_tasks = 0u;
 914              		.loc 1 598 0
 915 008c 0023     		movs	r3, #0
 916 008e FB84     		strh	r3, [r7, #38]	@ movhi
 599:..\..\..\..\..\..\uCOS-III\Source/os_mutex.c ****     ts        = OS_TS_GET();                                /* Get local time stamp so all tasks ge
 917              		.loc 1 599 0
 918 0090 FFF7FEFF 		bl	CPU_TS_TmrRd
 919 0094 B861     		str	r0, [r7, #24]
 600:..\..\..\..\..\..\uCOS-III\Source/os_mutex.c ****     while (p_pend_list->NbrEntries > (OS_OBJ_QTY)0u) {
 920              		.loc 1 600 0
 921 0096 0FE0     		b	.L77
 922              	.L79:
 601:..\..\..\..\..\..\uCOS-III\Source/os_mutex.c ****         p_tcb = p_pend_list->HeadPtr->TCBPtr;
 923              		.loc 1 601 0
 924 0098 FB69     		ldr	r3, [r7, #28]
 925 009a 1B68     		ldr	r3, [r3]
 926 009c 9B68     		ldr	r3, [r3, #8]
 927 009e 7B61     		str	r3, [r7, #20]
 602:..\..\..\..\..\..\uCOS-III\Source/os_mutex.c ****         OS_PendAbort((OS_PEND_OBJ *)((void *)p_mutex),
 928              		.loc 1 602 0
 929 00a0 BA69     		ldr	r2, [r7, #24]
ARM GAS  C:\Users\Aluno\AppData\Local\Temp\cccS7k0x.s 			page 28


 930 00a2 7969     		ldr	r1, [r7, #20]
 931 00a4 F868     		ldr	r0, [r7, #12]
 932 00a6 FFF7FEFF 		bl	OS_PendAbort
 603:..\..\..\..\..\..\uCOS-III\Source/os_mutex.c ****                      p_tcb,
 604:..\..\..\..\..\..\uCOS-III\Source/os_mutex.c ****                      ts);
 605:..\..\..\..\..\..\uCOS-III\Source/os_mutex.c ****         nbr_tasks++;
 933              		.loc 1 605 0
 934 00aa FB8C     		ldrh	r3, [r7, #38]
 935 00ac 0133     		adds	r3, r3, #1
 936 00ae FB84     		strh	r3, [r7, #38]	@ movhi
 606:..\..\..\..\..\..\uCOS-III\Source/os_mutex.c ****         if (opt != OS_OPT_PEND_ABORT_ALL) {                 /* Pend abort all tasks waiting?       
 937              		.loc 1 606 0
 938 00b0 7B89     		ldrh	r3, [r7, #10]
 939 00b2 B3F5807F 		cmp	r3, #256
 940 00b6 04D1     		bne	.L82
 941              	.L77:
 600:..\..\..\..\..\..\uCOS-III\Source/os_mutex.c ****         p_tcb = p_pend_list->HeadPtr->TCBPtr;
 942              		.loc 1 600 0
 943 00b8 FB69     		ldr	r3, [r7, #28]
 944 00ba 1B89     		ldrh	r3, [r3, #8]
 945 00bc 002B     		cmp	r3, #0
 946 00be EBD1     		bne	.L79
 947 00c0 00E0     		b	.L78
 948              	.L82:
 607:..\..\..\..\..\..\uCOS-III\Source/os_mutex.c ****             break;                                          /* No                                  
 949              		.loc 1 607 0
 950 00c2 00BF     		nop
 951              	.L78:
 608:..\..\..\..\..\..\uCOS-III\Source/os_mutex.c ****         }
 609:..\..\..\..\..\..\uCOS-III\Source/os_mutex.c ****     }
 610:..\..\..\..\..\..\uCOS-III\Source/os_mutex.c ****     OS_CRITICAL_EXIT_NO_SCHED();
 952              		.loc 1 610 0
 953 00c4 386A     		ldr	r0, [r7, #32]
 954 00c6 FFF7FEFF 		bl	CPU_SR_Restore
 611:..\..\..\..\..\..\uCOS-III\Source/os_mutex.c **** 
 612:..\..\..\..\..\..\uCOS-III\Source/os_mutex.c ****     if ((opt & OS_OPT_POST_NO_SCHED) == (OS_OPT)0u) {
 955              		.loc 1 612 0
 956 00ca B7F90A30 		ldrsh	r3, [r7, #10]
 957 00ce 002B     		cmp	r3, #0
 958 00d0 01DB     		blt	.L80
 613:..\..\..\..\..\..\uCOS-III\Source/os_mutex.c ****         OSSched();                                          /* Run the scheduler                   
 959              		.loc 1 613 0
 960 00d2 FFF7FEFF 		bl	OSSched
 961              	.L80:
 614:..\..\..\..\..\..\uCOS-III\Source/os_mutex.c ****     }
 615:..\..\..\..\..\..\uCOS-III\Source/os_mutex.c **** 
 616:..\..\..\..\..\..\uCOS-III\Source/os_mutex.c ****    *p_err = OS_ERR_NONE;
 962              		.loc 1 616 0
 963 00d6 7B68     		ldr	r3, [r7, #4]
 964 00d8 0022     		movs	r2, #0
 965 00da 1A80     		strh	r2, [r3]	@ movhi
 617:..\..\..\..\..\..\uCOS-III\Source/os_mutex.c ****     return (nbr_tasks);
 966              		.loc 1 617 0
 967 00dc FB8C     		ldrh	r3, [r7, #38]
 968              	.L70:
 618:..\..\..\..\..\..\uCOS-III\Source/os_mutex.c **** }
 969              		.loc 1 618 0
ARM GAS  C:\Users\Aluno\AppData\Local\Temp\cccS7k0x.s 			page 29


 970 00de 1846     		mov	r0, r3
 971 00e0 2837     		adds	r7, r7, #40
 972              		.cfi_def_cfa_offset 8
 973 00e2 BD46     		mov	sp, r7
 974              		.cfi_def_cfa_register 13
 975              		@ sp needed
 976 00e4 80BD     		pop	{r7, pc}
 977              	.L84:
 978 00e6 00BF     		.align	2
 979              	.L83:
 980 00e8 00000000 		.word	OSIntNestingCtr
 981              		.cfi_endproc
 982              	.LFE3:
 983              		.size	OSMutexPendAbort, .-OSMutexPendAbort
 984              		.section	.text.OSMutexPost,"ax",%progbits
 985              		.align	2
 986              		.global	OSMutexPost
 987              		.thumb
 988              		.thumb_func
 989              		.type	OSMutexPost, %function
 990              	OSMutexPost:
 991              	.LFB4:
 619:..\..\..\..\..\..\uCOS-III\Source/os_mutex.c **** #endif
 620:..\..\..\..\..\..\uCOS-III\Source/os_mutex.c **** 
 621:..\..\..\..\..\..\uCOS-III\Source/os_mutex.c **** /*$PAGE*/
 622:..\..\..\..\..\..\uCOS-III\Source/os_mutex.c **** /*
 623:..\..\..\..\..\..\uCOS-III\Source/os_mutex.c **** ***************************************************************************************************
 624:..\..\..\..\..\..\uCOS-III\Source/os_mutex.c **** *                                                   POST TO A MUTEX
 625:..\..\..\..\..\..\uCOS-III\Source/os_mutex.c **** *
 626:..\..\..\..\..\..\uCOS-III\Source/os_mutex.c **** * Description: This function signals a mutex
 627:..\..\..\..\..\..\uCOS-III\Source/os_mutex.c **** *
 628:..\..\..\..\..\..\uCOS-III\Source/os_mutex.c **** * Arguments  : p_mutex  is a pointer to the mutex
 629:..\..\..\..\..\..\uCOS-III\Source/os_mutex.c **** *
 630:..\..\..\..\..\..\uCOS-III\Source/os_mutex.c **** *              opt      is an option you can specify to alter the behavior of the post.  The choice
 631:..\..\..\..\..\..\uCOS-III\Source/os_mutex.c **** *
 632:..\..\..\..\..\..\uCOS-III\Source/os_mutex.c **** *                           OS_OPT_POST_NONE        No special option selected
 633:..\..\..\..\..\..\uCOS-III\Source/os_mutex.c **** *                           OS_OPT_POST_NO_SCHED    If you don't want the scheduler to be called af
 634:..\..\..\..\..\..\uCOS-III\Source/os_mutex.c **** *
 635:..\..\..\..\..\..\uCOS-III\Source/os_mutex.c **** *              p_err    is a pointer to a variable that will contain an error code returned by this
 636:..\..\..\..\..\..\uCOS-III\Source/os_mutex.c **** *
 637:..\..\..\..\..\..\uCOS-III\Source/os_mutex.c **** *                           OS_ERR_NONE             The call was successful and the mutex was signa
 638:..\..\..\..\..\..\uCOS-III\Source/os_mutex.c **** *                           OS_ERR_MUTEX_NESTING    Mutex owner nested its use of the mutex
 639:..\..\..\..\..\..\uCOS-III\Source/os_mutex.c **** *                           OS_ERR_MUTEX_NOT_OWNER  If the task posting is not the Mutex owner
 640:..\..\..\..\..\..\uCOS-III\Source/os_mutex.c **** *                           OS_ERR_OBJ_PTR_NULL     If 'p_mutex' is a NULL pointer.
 641:..\..\..\..\..\..\uCOS-III\Source/os_mutex.c **** *                           OS_ERR_OBJ_TYPE         If 'p_mutex' is not pointing at a mutex
 642:..\..\..\..\..\..\uCOS-III\Source/os_mutex.c **** *                           OS_ERR_POST_ISR         If you attempted to post from an ISR
 643:..\..\..\..\..\..\uCOS-III\Source/os_mutex.c **** *
 644:..\..\..\..\..\..\uCOS-III\Source/os_mutex.c **** * Returns    : none
 645:..\..\..\..\..\..\uCOS-III\Source/os_mutex.c **** ***************************************************************************************************
 646:..\..\..\..\..\..\uCOS-III\Source/os_mutex.c **** */
 647:..\..\..\..\..\..\uCOS-III\Source/os_mutex.c **** 
 648:..\..\..\..\..\..\uCOS-III\Source/os_mutex.c **** void  OSMutexPost (OS_MUTEX  *p_mutex,
 649:..\..\..\..\..\..\uCOS-III\Source/os_mutex.c ****                    OS_OPT     opt,
 650:..\..\..\..\..\..\uCOS-III\Source/os_mutex.c ****                    OS_ERR    *p_err)
 651:..\..\..\..\..\..\uCOS-III\Source/os_mutex.c **** {
 992              		.loc 1 651 0
 993              		.cfi_startproc
ARM GAS  C:\Users\Aluno\AppData\Local\Temp\cccS7k0x.s 			page 30


 994              		@ args = 0, pretend = 0, frame = 32
 995              		@ frame_needed = 1, uses_anonymous_args = 0
 996 0000 80B5     		push	{r7, lr}
 997              		.cfi_def_cfa_offset 8
 998              		.cfi_offset 7, -8
 999              		.cfi_offset 14, -4
 1000 0002 8AB0     		sub	sp, sp, #40
 1001              		.cfi_def_cfa_offset 48
 1002 0004 02AF     		add	r7, sp, #8
 1003              		.cfi_def_cfa 7, 40
 1004 0006 F860     		str	r0, [r7, #12]
 1005 0008 0B46     		mov	r3, r1
 1006 000a 7A60     		str	r2, [r7, #4]
 1007 000c 7B81     		strh	r3, [r7, #10]	@ movhi
 652:..\..\..\..\..\..\uCOS-III\Source/os_mutex.c ****     OS_PEND_LIST  *p_pend_list;
 653:..\..\..\..\..\..\uCOS-III\Source/os_mutex.c ****     OS_TCB        *p_tcb;
 654:..\..\..\..\..\..\uCOS-III\Source/os_mutex.c ****     CPU_TS         ts;
 655:..\..\..\..\..\..\uCOS-III\Source/os_mutex.c ****     CPU_SR_ALLOC();
 1008              		.loc 1 655 0
 1009 000e 0023     		movs	r3, #0
 1010 0010 FB61     		str	r3, [r7, #28]
 656:..\..\..\..\..\..\uCOS-III\Source/os_mutex.c **** 
 657:..\..\..\..\..\..\uCOS-III\Source/os_mutex.c **** 
 658:..\..\..\..\..\..\uCOS-III\Source/os_mutex.c **** 
 659:..\..\..\..\..\..\uCOS-III\Source/os_mutex.c **** #ifdef OS_SAFETY_CRITICAL
 660:..\..\..\..\..\..\uCOS-III\Source/os_mutex.c ****     if (p_err == (OS_ERR *)0) {
 661:..\..\..\..\..\..\uCOS-III\Source/os_mutex.c ****         OS_SAFETY_CRITICAL_EXCEPTION();
 662:..\..\..\..\..\..\uCOS-III\Source/os_mutex.c ****         return;
 663:..\..\..\..\..\..\uCOS-III\Source/os_mutex.c ****     }
 664:..\..\..\..\..\..\uCOS-III\Source/os_mutex.c **** #endif
 665:..\..\..\..\..\..\uCOS-III\Source/os_mutex.c **** 
 666:..\..\..\..\..\..\uCOS-III\Source/os_mutex.c **** #if OS_CFG_CALLED_FROM_ISR_CHK_EN > 0u
 667:..\..\..\..\..\..\uCOS-III\Source/os_mutex.c ****     if (OSIntNestingCtr > (OS_NESTING_CTR)0) {              /* Not allowed to call from an ISR     
 1011              		.loc 1 667 0
 1012 0012 564B     		ldr	r3, .L98
 1013 0014 1B78     		ldrb	r3, [r3]	@ zero_extendqisi2
 1014 0016 002B     		cmp	r3, #0
 1015 0018 04D0     		beq	.L86
 668:..\..\..\..\..\..\uCOS-III\Source/os_mutex.c ****        *p_err = OS_ERR_POST_ISR;
 1016              		.loc 1 668 0
 1017 001a 7B68     		ldr	r3, [r7, #4]
 1018 001c 46F20E22 		movw	r2, #25102
 1019 0020 1A80     		strh	r2, [r3]	@ movhi
 669:..\..\..\..\..\..\uCOS-III\Source/os_mutex.c ****         return;
 1020              		.loc 1 669 0
 1021 0022 A0E0     		b	.L85
 1022              	.L86:
 670:..\..\..\..\..\..\uCOS-III\Source/os_mutex.c ****     }
 671:..\..\..\..\..\..\uCOS-III\Source/os_mutex.c **** #endif
 672:..\..\..\..\..\..\uCOS-III\Source/os_mutex.c **** 
 673:..\..\..\..\..\..\uCOS-III\Source/os_mutex.c **** #if OS_CFG_ARG_CHK_EN > 0u
 674:..\..\..\..\..\..\uCOS-III\Source/os_mutex.c ****     if (p_mutex == (OS_MUTEX *)0) {                         /* Validate 'p_mutex'                  
 1023              		.loc 1 674 0
 1024 0024 FB68     		ldr	r3, [r7, #12]
 1025 0026 002B     		cmp	r3, #0
 1026 0028 04D1     		bne	.L88
 675:..\..\..\..\..\..\uCOS-III\Source/os_mutex.c ****        *p_err = OS_ERR_OBJ_PTR_NULL;
ARM GAS  C:\Users\Aluno\AppData\Local\Temp\cccS7k0x.s 			page 31


 1027              		.loc 1 675 0
 1028 002a 7B68     		ldr	r3, [r7, #4]
 1029 002c 45F6C352 		movw	r2, #24003
 1030 0030 1A80     		strh	r2, [r3]	@ movhi
 676:..\..\..\..\..\..\uCOS-III\Source/os_mutex.c ****         return;
 1031              		.loc 1 676 0
 1032 0032 98E0     		b	.L85
 1033              	.L88:
 677:..\..\..\..\..\..\uCOS-III\Source/os_mutex.c ****     }
 678:..\..\..\..\..\..\uCOS-III\Source/os_mutex.c ****     switch (opt) {                                          /* Validate 'opt'                      
 1034              		.loc 1 678 0
 1035 0034 7B89     		ldrh	r3, [r7, #10]
 1036 0036 002B     		cmp	r3, #0
 1037 0038 07D0     		beq	.L97
 1038 003a B3F5004F 		cmp	r3, #32768
 1039 003e 04D0     		beq	.L97
 679:..\..\..\..\..\..\uCOS-III\Source/os_mutex.c ****         case OS_OPT_POST_NONE:
 680:..\..\..\..\..\..\uCOS-III\Source/os_mutex.c ****         case OS_OPT_POST_NO_SCHED:
 681:..\..\..\..\..\..\uCOS-III\Source/os_mutex.c ****              break;
 682:..\..\..\..\..\..\uCOS-III\Source/os_mutex.c **** 
 683:..\..\..\..\..\..\uCOS-III\Source/os_mutex.c ****         default:
 684:..\..\..\..\..\..\uCOS-III\Source/os_mutex.c ****             *p_err =  OS_ERR_OPT_INVALID;
 1040              		.loc 1 684 0
 1041 0040 7B68     		ldr	r3, [r7, #4]
 1042 0042 45F62562 		movw	r2, #24101
 1043 0046 1A80     		strh	r2, [r3]	@ movhi
 685:..\..\..\..\..\..\uCOS-III\Source/os_mutex.c ****              return;
 1044              		.loc 1 685 0
 1045 0048 8DE0     		b	.L85
 1046              	.L97:
 681:..\..\..\..\..\..\uCOS-III\Source/os_mutex.c **** 
 1047              		.loc 1 681 0
 1048 004a 00BF     		nop
 686:..\..\..\..\..\..\uCOS-III\Source/os_mutex.c ****     }
 687:..\..\..\..\..\..\uCOS-III\Source/os_mutex.c **** #endif
 688:..\..\..\..\..\..\uCOS-III\Source/os_mutex.c **** 
 689:..\..\..\..\..\..\uCOS-III\Source/os_mutex.c **** #if OS_CFG_OBJ_TYPE_CHK_EN > 0u
 690:..\..\..\..\..\..\uCOS-III\Source/os_mutex.c ****     if (p_mutex->Type != OS_OBJ_TYPE_MUTEX) {               /* Make sure mutex was created         
 691:..\..\..\..\..\..\uCOS-III\Source/os_mutex.c ****        *p_err = OS_ERR_OBJ_TYPE;
 692:..\..\..\..\..\..\uCOS-III\Source/os_mutex.c ****         return;
 693:..\..\..\..\..\..\uCOS-III\Source/os_mutex.c ****     }
 694:..\..\..\..\..\..\uCOS-III\Source/os_mutex.c **** #endif
 695:..\..\..\..\..\..\uCOS-III\Source/os_mutex.c **** 
 696:..\..\..\..\..\..\uCOS-III\Source/os_mutex.c ****     CPU_CRITICAL_ENTER();
 1049              		.loc 1 696 0
 1050 004c FFF7FEFF 		bl	CPU_SR_Save
 1051 0050 F861     		str	r0, [r7, #28]
 697:..\..\..\..\..\..\uCOS-III\Source/os_mutex.c ****     if (OSTCBCurPtr != p_mutex->OwnerTCBPtr) {              /* Make sure the mutex owner is releasi
 1052              		.loc 1 697 0
 1053 0052 FB68     		ldr	r3, [r7, #12]
 1054 0054 1A6A     		ldr	r2, [r3, #32]
 1055 0056 464B     		ldr	r3, .L98+4
 1056 0058 1B68     		ldr	r3, [r3]
 1057 005a 9A42     		cmp	r2, r3
 1058 005c 07D0     		beq	.L92
 698:..\..\..\..\..\..\uCOS-III\Source/os_mutex.c ****         CPU_CRITICAL_EXIT();
 1059              		.loc 1 698 0
ARM GAS  C:\Users\Aluno\AppData\Local\Temp\cccS7k0x.s 			page 32


 1060 005e F869     		ldr	r0, [r7, #28]
 1061 0060 FFF7FEFF 		bl	CPU_SR_Restore
 699:..\..\..\..\..\..\uCOS-III\Source/os_mutex.c ****        *p_err = OS_ERR_MUTEX_NOT_OWNER;
 1062              		.loc 1 699 0
 1063 0064 7B68     		ldr	r3, [r7, #4]
 1064 0066 45F28172 		movw	r2, #22401
 1065 006a 1A80     		strh	r2, [r3]	@ movhi
 700:..\..\..\..\..\..\uCOS-III\Source/os_mutex.c ****         return;
 1066              		.loc 1 700 0
 1067 006c 7BE0     		b	.L85
 1068              	.L92:
 701:..\..\..\..\..\..\uCOS-III\Source/os_mutex.c ****     }
 702:..\..\..\..\..\..\uCOS-III\Source/os_mutex.c **** 
 703:..\..\..\..\..\..\uCOS-III\Source/os_mutex.c ****     OS_CRITICAL_ENTER_CPU_EXIT();
 704:..\..\..\..\..\..\uCOS-III\Source/os_mutex.c ****     ts          = OS_TS_GET();                              /* Get timestamp                       
 1069              		.loc 1 704 0
 1070 006e FFF7FEFF 		bl	CPU_TS_TmrRd
 1071 0072 B861     		str	r0, [r7, #24]
 705:..\..\..\..\..\..\uCOS-III\Source/os_mutex.c ****     p_mutex->TS = ts;
 1072              		.loc 1 705 0
 1073 0074 FB68     		ldr	r3, [r7, #12]
 1074 0076 BA69     		ldr	r2, [r7, #24]
 1075 0078 9A62     		str	r2, [r3, #40]
 706:..\..\..\..\..\..\uCOS-III\Source/os_mutex.c ****     p_mutex->OwnerNestingCtr--;                             /* Decrement owner's nesting counter   
 1076              		.loc 1 706 0
 1077 007a FB68     		ldr	r3, [r7, #12]
 1078 007c 93F82530 		ldrb	r3, [r3, #37]	@ zero_extendqisi2
 1079 0080 013B     		subs	r3, r3, #1
 1080 0082 DAB2     		uxtb	r2, r3
 1081 0084 FB68     		ldr	r3, [r7, #12]
 1082 0086 83F82520 		strb	r2, [r3, #37]
 707:..\..\..\..\..\..\uCOS-III\Source/os_mutex.c ****     if (p_mutex->OwnerNestingCtr > (OS_NESTING_CTR)0) {     /* Are we done with all nestings?      
 1083              		.loc 1 707 0
 1084 008a FB68     		ldr	r3, [r7, #12]
 1085 008c 93F82530 		ldrb	r3, [r3, #37]	@ zero_extendqisi2
 1086 0090 002B     		cmp	r3, #0
 1087 0092 07D0     		beq	.L93
 708:..\..\..\..\..\..\uCOS-III\Source/os_mutex.c ****         OS_CRITICAL_EXIT();                                 /* No                                  
 1088              		.loc 1 708 0
 1089 0094 F869     		ldr	r0, [r7, #28]
 1090 0096 FFF7FEFF 		bl	CPU_SR_Restore
 709:..\..\..\..\..\..\uCOS-III\Source/os_mutex.c ****        *p_err = OS_ERR_MUTEX_NESTING;
 1091              		.loc 1 709 0
 1092 009a 7B68     		ldr	r3, [r7, #4]
 1093 009c 45F28372 		movw	r2, #22403
 1094 00a0 1A80     		strh	r2, [r3]	@ movhi
 710:..\..\..\..\..\..\uCOS-III\Source/os_mutex.c ****         return;
 1095              		.loc 1 710 0
 1096 00a2 60E0     		b	.L85
 1097              	.L93:
 711:..\..\..\..\..\..\uCOS-III\Source/os_mutex.c ****     }
 712:..\..\..\..\..\..\uCOS-III\Source/os_mutex.c **** 
 713:..\..\..\..\..\..\uCOS-III\Source/os_mutex.c ****     p_pend_list = &p_mutex->PendList;
 1098              		.loc 1 713 0
 1099 00a4 FB68     		ldr	r3, [r7, #12]
 1100 00a6 0833     		adds	r3, r3, #8
 1101 00a8 7B61     		str	r3, [r7, #20]
ARM GAS  C:\Users\Aluno\AppData\Local\Temp\cccS7k0x.s 			page 33


 714:..\..\..\..\..\..\uCOS-III\Source/os_mutex.c ****     if (p_pend_list->NbrEntries == (OS_OBJ_QTY)0) {         /* Any task waiting on mutex?          
 1102              		.loc 1 714 0
 1103 00aa 7B69     		ldr	r3, [r7, #20]
 1104 00ac 1B89     		ldrh	r3, [r3, #8]
 1105 00ae 002B     		cmp	r3, #0
 1106 00b0 0DD1     		bne	.L94
 715:..\..\..\..\..\..\uCOS-III\Source/os_mutex.c ****         p_mutex->OwnerTCBPtr     = (OS_TCB       *)0;       /* No                                  
 1107              		.loc 1 715 0
 1108 00b2 FB68     		ldr	r3, [r7, #12]
 1109 00b4 0022     		movs	r2, #0
 1110 00b6 1A62     		str	r2, [r3, #32]
 716:..\..\..\..\..\..\uCOS-III\Source/os_mutex.c ****         p_mutex->OwnerNestingCtr = (OS_NESTING_CTR)0;
 1111              		.loc 1 716 0
 1112 00b8 FB68     		ldr	r3, [r7, #12]
 1113 00ba 0022     		movs	r2, #0
 1114 00bc 83F82520 		strb	r2, [r3, #37]
 717:..\..\..\..\..\..\uCOS-III\Source/os_mutex.c ****         OS_CRITICAL_EXIT();
 1115              		.loc 1 717 0
 1116 00c0 F869     		ldr	r0, [r7, #28]
 1117 00c2 FFF7FEFF 		bl	CPU_SR_Restore
 718:..\..\..\..\..\..\uCOS-III\Source/os_mutex.c ****        *p_err = OS_ERR_NONE;
 1118              		.loc 1 718 0
 1119 00c6 7B68     		ldr	r3, [r7, #4]
 1120 00c8 0022     		movs	r2, #0
 1121 00ca 1A80     		strh	r2, [r3]	@ movhi
 719:..\..\..\..\..\..\uCOS-III\Source/os_mutex.c ****         return;
 1122              		.loc 1 719 0
 1123 00cc 4BE0     		b	.L85
 1124              	.L94:
 720:..\..\..\..\..\..\uCOS-III\Source/os_mutex.c ****     }
 721:..\..\..\..\..\..\uCOS-III\Source/os_mutex.c ****                                                             /* Yes                                 
 722:..\..\..\..\..\..\uCOS-III\Source/os_mutex.c ****     if (OSTCBCurPtr->Prio != p_mutex->OwnerOriginalPrio) {
 1125              		.loc 1 722 0
 1126 00ce 284B     		ldr	r3, .L98+4
 1127 00d0 1B68     		ldr	r3, [r3]
 1128 00d2 93F83720 		ldrb	r2, [r3, #55]	@ zero_extendqisi2
 1129 00d6 FB68     		ldr	r3, [r7, #12]
 1130 00d8 93F82430 		ldrb	r3, [r3, #36]	@ zero_extendqisi2
 1131 00dc 9A42     		cmp	r2, r3
 1132 00de 1DD0     		beq	.L95
 723:..\..\..\..\..\..\uCOS-III\Source/os_mutex.c ****         OS_RdyListRemove(OSTCBCurPtr);
 1133              		.loc 1 723 0
 1134 00e0 234B     		ldr	r3, .L98+4
 1135 00e2 1B68     		ldr	r3, [r3]
 1136 00e4 1846     		mov	r0, r3
 1137 00e6 FFF7FEFF 		bl	OS_RdyListRemove
 724:..\..\..\..\..\..\uCOS-III\Source/os_mutex.c ****         OSTCBCurPtr->Prio = p_mutex->OwnerOriginalPrio;     /* Lower owner's priority back to its o
 1138              		.loc 1 724 0
 1139 00ea 214B     		ldr	r3, .L98+4
 1140 00ec 1B68     		ldr	r3, [r3]
 1141 00ee FA68     		ldr	r2, [r7, #12]
 1142 00f0 92F82420 		ldrb	r2, [r2, #36]	@ zero_extendqisi2
 1143 00f4 83F83720 		strb	r2, [r3, #55]
 725:..\..\..\..\..\..\uCOS-III\Source/os_mutex.c ****         OS_PrioInsert(OSTCBCurPtr->Prio);
 1144              		.loc 1 725 0
 1145 00f8 1D4B     		ldr	r3, .L98+4
 1146 00fa 1B68     		ldr	r3, [r3]
ARM GAS  C:\Users\Aluno\AppData\Local\Temp\cccS7k0x.s 			page 34


 1147 00fc 93F83730 		ldrb	r3, [r3, #55]	@ zero_extendqisi2
 1148 0100 1846     		mov	r0, r3
 1149 0102 FFF7FEFF 		bl	OS_PrioInsert
 726:..\..\..\..\..\..\uCOS-III\Source/os_mutex.c ****         OS_RdyListInsertTail(OSTCBCurPtr);                  /* Insert owner in ready list at new pr
 1150              		.loc 1 726 0
 1151 0106 1A4B     		ldr	r3, .L98+4
 1152 0108 1B68     		ldr	r3, [r3]
 1153 010a 1846     		mov	r0, r3
 1154 010c FFF7FEFF 		bl	OS_RdyListInsertTail
 727:..\..\..\..\..\..\uCOS-III\Source/os_mutex.c ****         OSPrioCur         = OSTCBCurPtr->Prio;
 1155              		.loc 1 727 0
 1156 0110 174B     		ldr	r3, .L98+4
 1157 0112 1B68     		ldr	r3, [r3]
 1158 0114 93F83720 		ldrb	r2, [r3, #55]	@ zero_extendqisi2
 1159 0118 164B     		ldr	r3, .L98+8
 1160 011a 1A70     		strb	r2, [r3]
 1161              	.L95:
 728:..\..\..\..\..\..\uCOS-III\Source/os_mutex.c ****     }
 729:..\..\..\..\..\..\uCOS-III\Source/os_mutex.c ****                                                             /* Get TCB from head of pend list      
 730:..\..\..\..\..\..\uCOS-III\Source/os_mutex.c ****     p_tcb                      = p_pend_list->HeadPtr->TCBPtr;
 1162              		.loc 1 730 0
 1163 011c 7B69     		ldr	r3, [r7, #20]
 1164 011e 1B68     		ldr	r3, [r3]
 1165 0120 9B68     		ldr	r3, [r3, #8]
 1166 0122 3B61     		str	r3, [r7, #16]
 731:..\..\..\..\..\..\uCOS-III\Source/os_mutex.c ****     p_mutex->OwnerTCBPtr       = p_tcb;                     /* Give mutex to new owner             
 1167              		.loc 1 731 0
 1168 0124 FB68     		ldr	r3, [r7, #12]
 1169 0126 3A69     		ldr	r2, [r7, #16]
 1170 0128 1A62     		str	r2, [r3, #32]
 732:..\..\..\..\..\..\uCOS-III\Source/os_mutex.c ****     p_mutex->OwnerOriginalPrio = p_tcb->Prio;
 1171              		.loc 1 732 0
 1172 012a 3B69     		ldr	r3, [r7, #16]
 1173 012c 93F83720 		ldrb	r2, [r3, #55]	@ zero_extendqisi2
 1174 0130 FB68     		ldr	r3, [r7, #12]
 1175 0132 83F82420 		strb	r2, [r3, #36]
 733:..\..\..\..\..\..\uCOS-III\Source/os_mutex.c ****     p_mutex->OwnerNestingCtr   = (OS_NESTING_CTR)1;
 1176              		.loc 1 733 0
 1177 0136 FB68     		ldr	r3, [r7, #12]
 1178 0138 0122     		movs	r2, #1
 1179 013a 83F82520 		strb	r2, [r3, #37]
 734:..\..\..\..\..\..\uCOS-III\Source/os_mutex.c ****                                                             /* Post to mutex                       
 735:..\..\..\..\..\..\uCOS-III\Source/os_mutex.c ****     OS_Post((OS_PEND_OBJ *)((void *)p_mutex),
 1180              		.loc 1 735 0
 1181 013e BB69     		ldr	r3, [r7, #24]
 1182 0140 0093     		str	r3, [sp]
 1183 0142 0023     		movs	r3, #0
 1184 0144 0022     		movs	r2, #0
 1185 0146 3969     		ldr	r1, [r7, #16]
 1186 0148 F868     		ldr	r0, [r7, #12]
 1187 014a FFF7FEFF 		bl	OS_Post
 736:..\..\..\..\..\..\uCOS-III\Source/os_mutex.c ****             (OS_TCB      *)p_tcb,
 737:..\..\..\..\..\..\uCOS-III\Source/os_mutex.c ****             (void        *)0,
 738:..\..\..\..\..\..\uCOS-III\Source/os_mutex.c ****             (OS_MSG_SIZE  )0,
 739:..\..\..\..\..\..\uCOS-III\Source/os_mutex.c ****             (CPU_TS       )ts);
 740:..\..\..\..\..\..\uCOS-III\Source/os_mutex.c **** 
 741:..\..\..\..\..\..\uCOS-III\Source/os_mutex.c ****     OS_CRITICAL_EXIT_NO_SCHED();
ARM GAS  C:\Users\Aluno\AppData\Local\Temp\cccS7k0x.s 			page 35


 1188              		.loc 1 741 0
 1189 014e F869     		ldr	r0, [r7, #28]
 1190 0150 FFF7FEFF 		bl	CPU_SR_Restore
 742:..\..\..\..\..\..\uCOS-III\Source/os_mutex.c **** 
 743:..\..\..\..\..\..\uCOS-III\Source/os_mutex.c ****     if ((opt & OS_OPT_POST_NO_SCHED) == (OS_OPT)0) {
 1191              		.loc 1 743 0
 1192 0154 B7F90A30 		ldrsh	r3, [r7, #10]
 1193 0158 002B     		cmp	r3, #0
 1194 015a 01DB     		blt	.L96
 744:..\..\..\..\..\..\uCOS-III\Source/os_mutex.c ****         OSSched();                                          /* Run the scheduler                   
 1195              		.loc 1 744 0
 1196 015c FFF7FEFF 		bl	OSSched
 1197              	.L96:
 745:..\..\..\..\..\..\uCOS-III\Source/os_mutex.c ****     }
 746:..\..\..\..\..\..\uCOS-III\Source/os_mutex.c **** 
 747:..\..\..\..\..\..\uCOS-III\Source/os_mutex.c ****    *p_err = OS_ERR_NONE;
 1198              		.loc 1 747 0
 1199 0160 7B68     		ldr	r3, [r7, #4]
 1200 0162 0022     		movs	r2, #0
 1201 0164 1A80     		strh	r2, [r3]	@ movhi
 1202              	.L85:
 748:..\..\..\..\..\..\uCOS-III\Source/os_mutex.c **** }
 1203              		.loc 1 748 0
 1204 0166 2037     		adds	r7, r7, #32
 1205              		.cfi_def_cfa_offset 8
 1206 0168 BD46     		mov	sp, r7
 1207              		.cfi_def_cfa_register 13
 1208              		@ sp needed
 1209 016a 80BD     		pop	{r7, pc}
 1210              	.L99:
 1211              		.align	2
 1212              	.L98:
 1213 016c 00000000 		.word	OSIntNestingCtr
 1214 0170 00000000 		.word	OSTCBCurPtr
 1215 0174 00000000 		.word	OSPrioCur
 1216              		.cfi_endproc
 1217              	.LFE4:
 1218              		.size	OSMutexPost, .-OSMutexPost
 1219              		.section	.rodata
 1220              		.align	2
 1221              	.LC0:
 1222 0000 3F4D5554 		.ascii	"?MUTEX\000"
 1222      455800
 1223              		.section	.text.OS_MutexClr,"ax",%progbits
 1224              		.align	2
 1225              		.global	OS_MutexClr
 1226              		.thumb
 1227              		.thumb_func
 1228              		.type	OS_MutexClr, %function
 1229              	OS_MutexClr:
 1230              	.LFB5:
 749:..\..\..\..\..\..\uCOS-III\Source/os_mutex.c **** 
 750:..\..\..\..\..\..\uCOS-III\Source/os_mutex.c **** /*$PAGE*/
 751:..\..\..\..\..\..\uCOS-III\Source/os_mutex.c **** /*
 752:..\..\..\..\..\..\uCOS-III\Source/os_mutex.c **** ***************************************************************************************************
 753:..\..\..\..\..\..\uCOS-III\Source/os_mutex.c **** *                                            CLEAR THE CONTENTS OF A MUTEX
 754:..\..\..\..\..\..\uCOS-III\Source/os_mutex.c **** *
ARM GAS  C:\Users\Aluno\AppData\Local\Temp\cccS7k0x.s 			page 36


 755:..\..\..\..\..\..\uCOS-III\Source/os_mutex.c **** * Description: This function is called by OSMutexDel() to clear the contents of a mutex
 756:..\..\..\..\..\..\uCOS-III\Source/os_mutex.c **** *
 757:..\..\..\..\..\..\uCOS-III\Source/os_mutex.c **** 
 758:..\..\..\..\..\..\uCOS-III\Source/os_mutex.c **** * Argument(s): p_mutex      is a pointer to the mutex to clear
 759:..\..\..\..\..\..\uCOS-III\Source/os_mutex.c **** *              -------
 760:..\..\..\..\..\..\uCOS-III\Source/os_mutex.c **** *
 761:..\..\..\..\..\..\uCOS-III\Source/os_mutex.c **** * Returns    : none
 762:..\..\..\..\..\..\uCOS-III\Source/os_mutex.c **** *
 763:..\..\..\..\..\..\uCOS-III\Source/os_mutex.c **** * Note(s)    : This function is INTERNAL to uC/OS-III and your application should not call it.
 764:..\..\..\..\..\..\uCOS-III\Source/os_mutex.c **** ***************************************************************************************************
 765:..\..\..\..\..\..\uCOS-III\Source/os_mutex.c **** */
 766:..\..\..\..\..\..\uCOS-III\Source/os_mutex.c **** 
 767:..\..\..\..\..\..\uCOS-III\Source/os_mutex.c **** void  OS_MutexClr (OS_MUTEX  *p_mutex)
 768:..\..\..\..\..\..\uCOS-III\Source/os_mutex.c **** {
 1231              		.loc 1 768 0
 1232              		.cfi_startproc
 1233              		@ args = 0, pretend = 0, frame = 8
 1234              		@ frame_needed = 1, uses_anonymous_args = 0
 1235 0000 80B5     		push	{r7, lr}
 1236              		.cfi_def_cfa_offset 8
 1237              		.cfi_offset 7, -8
 1238              		.cfi_offset 14, -4
 1239 0002 82B0     		sub	sp, sp, #8
 1240              		.cfi_def_cfa_offset 16
 1241 0004 00AF     		add	r7, sp, #0
 1242              		.cfi_def_cfa_register 7
 1243 0006 7860     		str	r0, [r7, #4]
 769:..\..\..\..\..\..\uCOS-III\Source/os_mutex.c ****     p_mutex->Type              =  OS_OBJ_TYPE_NONE;         /* Mark the data structure as a NONE   
 1244              		.loc 1 769 0
 1245 0008 7B68     		ldr	r3, [r7, #4]
 1246 000a 0E4A     		ldr	r2, .L101
 1247 000c 1A60     		str	r2, [r3]
 770:..\..\..\..\..\..\uCOS-III\Source/os_mutex.c ****     p_mutex->NamePtr           = (CPU_CHAR     *)((void *)"?MUTEX");
 1248              		.loc 1 770 0
 1249 000e 7B68     		ldr	r3, [r7, #4]
 1250 0010 0D4A     		ldr	r2, .L101+4
 1251 0012 5A60     		str	r2, [r3, #4]
 771:..\..\..\..\..\..\uCOS-III\Source/os_mutex.c ****     p_mutex->OwnerTCBPtr       = (OS_TCB       *)0;
 1252              		.loc 1 771 0
 1253 0014 7B68     		ldr	r3, [r7, #4]
 1254 0016 0022     		movs	r2, #0
 1255 0018 1A62     		str	r2, [r3, #32]
 772:..\..\..\..\..\..\uCOS-III\Source/os_mutex.c ****     p_mutex->OwnerNestingCtr   = (OS_NESTING_CTR)0;
 1256              		.loc 1 772 0
 1257 001a 7B68     		ldr	r3, [r7, #4]
 1258 001c 0022     		movs	r2, #0
 1259 001e 83F82520 		strb	r2, [r3, #37]
 773:..\..\..\..\..\..\uCOS-III\Source/os_mutex.c ****     p_mutex->TS                = (CPU_TS        )0;
 1260              		.loc 1 773 0
 1261 0022 7B68     		ldr	r3, [r7, #4]
 1262 0024 0022     		movs	r2, #0
 1263 0026 9A62     		str	r2, [r3, #40]
 774:..\..\..\..\..\..\uCOS-III\Source/os_mutex.c ****     p_mutex->OwnerOriginalPrio =  OS_CFG_PRIO_MAX;
 1264              		.loc 1 774 0
 1265 0028 7B68     		ldr	r3, [r7, #4]
 1266 002a 0822     		movs	r2, #8
 1267 002c 83F82420 		strb	r2, [r3, #36]
ARM GAS  C:\Users\Aluno\AppData\Local\Temp\cccS7k0x.s 			page 37


 775:..\..\..\..\..\..\uCOS-III\Source/os_mutex.c ****     OS_PendListInit(&p_mutex->PendList);                    /* Initialize the waiting list         
 1268              		.loc 1 775 0
 1269 0030 7B68     		ldr	r3, [r7, #4]
 1270 0032 0833     		adds	r3, r3, #8
 1271 0034 1846     		mov	r0, r3
 1272 0036 FFF7FEFF 		bl	OS_PendListInit
 776:..\..\..\..\..\..\uCOS-III\Source/os_mutex.c **** }
 1273              		.loc 1 776 0
 1274 003a 00BF     		nop
 1275 003c 0837     		adds	r7, r7, #8
 1276              		.cfi_def_cfa_offset 8
 1277 003e BD46     		mov	sp, r7
 1278              		.cfi_def_cfa_register 13
 1279              		@ sp needed
 1280 0040 80BD     		pop	{r7, pc}
 1281              	.L102:
 1282 0042 00BF     		.align	2
 1283              	.L101:
 1284 0044 4E4F4E45 		.word	1162760014
 1285 0048 00000000 		.word	.LC0
 1286              		.cfi_endproc
 1287              	.LFE5:
 1288              		.size	OS_MutexClr, .-OS_MutexClr
 1289              		.section	.rodata
 1290 0007 00       		.align	2
 1291              	.LC1:
 1292 0008 2000     		.ascii	" \000"
 1293              		.section	.text.OS_MutexDbgListAdd,"ax",%progbits
 1294              		.align	2
 1295              		.global	OS_MutexDbgListAdd
 1296              		.thumb
 1297              		.thumb_func
 1298              		.type	OS_MutexDbgListAdd, %function
 1299              	OS_MutexDbgListAdd:
 1300              	.LFB6:
 777:..\..\..\..\..\..\uCOS-III\Source/os_mutex.c **** 
 778:..\..\..\..\..\..\uCOS-III\Source/os_mutex.c **** /*$PAGE*/
 779:..\..\..\..\..\..\uCOS-III\Source/os_mutex.c **** /*
 780:..\..\..\..\..\..\uCOS-III\Source/os_mutex.c **** ***************************************************************************************************
 781:..\..\..\..\..\..\uCOS-III\Source/os_mutex.c **** *                                          ADD/REMOVE MUTEX TO/FROM DEBUG LIST
 782:..\..\..\..\..\..\uCOS-III\Source/os_mutex.c **** *
 783:..\..\..\..\..\..\uCOS-III\Source/os_mutex.c **** * Description: These functions are called by uC/OS-III to add or remove a mutex to/from the debug l
 784:..\..\..\..\..\..\uCOS-III\Source/os_mutex.c **** *
 785:..\..\..\..\..\..\uCOS-III\Source/os_mutex.c **** * Arguments  : p_mutex     is a pointer to the mutex to add/remove
 786:..\..\..\..\..\..\uCOS-III\Source/os_mutex.c **** *
 787:..\..\..\..\..\..\uCOS-III\Source/os_mutex.c **** * Returns    : none
 788:..\..\..\..\..\..\uCOS-III\Source/os_mutex.c **** *
 789:..\..\..\..\..\..\uCOS-III\Source/os_mutex.c **** * Note(s)    : These functions are INTERNAL to uC/OS-III and your application should not call it.
 790:..\..\..\..\..\..\uCOS-III\Source/os_mutex.c **** ***************************************************************************************************
 791:..\..\..\..\..\..\uCOS-III\Source/os_mutex.c **** */
 792:..\..\..\..\..\..\uCOS-III\Source/os_mutex.c **** 
 793:..\..\..\..\..\..\uCOS-III\Source/os_mutex.c **** 
 794:..\..\..\..\..\..\uCOS-III\Source/os_mutex.c **** #if OS_CFG_DBG_EN > 0u
 795:..\..\..\..\..\..\uCOS-III\Source/os_mutex.c **** void  OS_MutexDbgListAdd (OS_MUTEX  *p_mutex)
 796:..\..\..\..\..\..\uCOS-III\Source/os_mutex.c **** {
 1301              		.loc 1 796 0
 1302              		.cfi_startproc
ARM GAS  C:\Users\Aluno\AppData\Local\Temp\cccS7k0x.s 			page 38


 1303              		@ args = 0, pretend = 0, frame = 8
 1304              		@ frame_needed = 1, uses_anonymous_args = 0
 1305              		@ link register save eliminated.
 1306 0000 80B4     		push	{r7}
 1307              		.cfi_def_cfa_offset 4
 1308              		.cfi_offset 7, -4
 1309 0002 83B0     		sub	sp, sp, #12
 1310              		.cfi_def_cfa_offset 16
 1311 0004 00AF     		add	r7, sp, #0
 1312              		.cfi_def_cfa_register 7
 1313 0006 7860     		str	r0, [r7, #4]
 797:..\..\..\..\..\..\uCOS-III\Source/os_mutex.c ****     p_mutex->DbgNamePtr               = (CPU_CHAR *)((void *)" ");
 1314              		.loc 1 797 0
 1315 0008 7B68     		ldr	r3, [r7, #4]
 1316 000a 0E4A     		ldr	r2, .L106
 1317 000c DA61     		str	r2, [r3, #28]
 798:..\..\..\..\..\..\uCOS-III\Source/os_mutex.c ****     p_mutex->DbgPrevPtr               = (OS_MUTEX *)0;
 1318              		.loc 1 798 0
 1319 000e 7B68     		ldr	r3, [r7, #4]
 1320 0010 0022     		movs	r2, #0
 1321 0012 5A61     		str	r2, [r3, #20]
 799:..\..\..\..\..\..\uCOS-III\Source/os_mutex.c ****     if (OSMutexDbgListPtr == (OS_MUTEX *)0) {
 1322              		.loc 1 799 0
 1323 0014 0C4B     		ldr	r3, .L106+4
 1324 0016 1B68     		ldr	r3, [r3]
 1325 0018 002B     		cmp	r3, #0
 1326 001a 03D1     		bne	.L104
 800:..\..\..\..\..\..\uCOS-III\Source/os_mutex.c ****         p_mutex->DbgNextPtr           = (OS_MUTEX *)0;
 1327              		.loc 1 800 0
 1328 001c 7B68     		ldr	r3, [r7, #4]
 1329 001e 0022     		movs	r2, #0
 1330 0020 9A61     		str	r2, [r3, #24]
 1331 0022 07E0     		b	.L105
 1332              	.L104:
 801:..\..\..\..\..\..\uCOS-III\Source/os_mutex.c ****     } else {
 802:..\..\..\..\..\..\uCOS-III\Source/os_mutex.c ****         p_mutex->DbgNextPtr           =  OSMutexDbgListPtr;
 1333              		.loc 1 802 0
 1334 0024 084B     		ldr	r3, .L106+4
 1335 0026 1A68     		ldr	r2, [r3]
 1336 0028 7B68     		ldr	r3, [r7, #4]
 1337 002a 9A61     		str	r2, [r3, #24]
 803:..\..\..\..\..\..\uCOS-III\Source/os_mutex.c ****         OSMutexDbgListPtr->DbgPrevPtr =  p_mutex;
 1338              		.loc 1 803 0
 1339 002c 064B     		ldr	r3, .L106+4
 1340 002e 1B68     		ldr	r3, [r3]
 1341 0030 7A68     		ldr	r2, [r7, #4]
 1342 0032 5A61     		str	r2, [r3, #20]
 1343              	.L105:
 804:..\..\..\..\..\..\uCOS-III\Source/os_mutex.c ****     }
 805:..\..\..\..\..\..\uCOS-III\Source/os_mutex.c ****     OSMutexDbgListPtr                 =  p_mutex;
 1344              		.loc 1 805 0
 1345 0034 044A     		ldr	r2, .L106+4
 1346 0036 7B68     		ldr	r3, [r7, #4]
 1347 0038 1360     		str	r3, [r2]
 806:..\..\..\..\..\..\uCOS-III\Source/os_mutex.c **** }
 1348              		.loc 1 806 0
 1349 003a 00BF     		nop
ARM GAS  C:\Users\Aluno\AppData\Local\Temp\cccS7k0x.s 			page 39


 1350 003c 0C37     		adds	r7, r7, #12
 1351              		.cfi_def_cfa_offset 4
 1352 003e BD46     		mov	sp, r7
 1353              		.cfi_def_cfa_register 13
 1354              		@ sp needed
 1355 0040 80BC     		pop	{r7}
 1356              		.cfi_restore 7
 1357              		.cfi_def_cfa_offset 0
 1358 0042 7047     		bx	lr
 1359              	.L107:
 1360              		.align	2
 1361              	.L106:
 1362 0044 08000000 		.word	.LC1
 1363 0048 00000000 		.word	OSMutexDbgListPtr
 1364              		.cfi_endproc
 1365              	.LFE6:
 1366              		.size	OS_MutexDbgListAdd, .-OS_MutexDbgListAdd
 1367              		.section	.text.OS_MutexDbgListRemove,"ax",%progbits
 1368              		.align	2
 1369              		.global	OS_MutexDbgListRemove
 1370              		.thumb
 1371              		.thumb_func
 1372              		.type	OS_MutexDbgListRemove, %function
 1373              	OS_MutexDbgListRemove:
 1374              	.LFB7:
 807:..\..\..\..\..\..\uCOS-III\Source/os_mutex.c **** 
 808:..\..\..\..\..\..\uCOS-III\Source/os_mutex.c **** 
 809:..\..\..\..\..\..\uCOS-III\Source/os_mutex.c **** 
 810:..\..\..\..\..\..\uCOS-III\Source/os_mutex.c **** void  OS_MutexDbgListRemove (OS_MUTEX  *p_mutex)
 811:..\..\..\..\..\..\uCOS-III\Source/os_mutex.c **** {
 1375              		.loc 1 811 0
 1376              		.cfi_startproc
 1377              		@ args = 0, pretend = 0, frame = 16
 1378              		@ frame_needed = 1, uses_anonymous_args = 0
 1379              		@ link register save eliminated.
 1380 0000 80B4     		push	{r7}
 1381              		.cfi_def_cfa_offset 4
 1382              		.cfi_offset 7, -4
 1383 0002 85B0     		sub	sp, sp, #20
 1384              		.cfi_def_cfa_offset 24
 1385 0004 00AF     		add	r7, sp, #0
 1386              		.cfi_def_cfa_register 7
 1387 0006 7860     		str	r0, [r7, #4]
 812:..\..\..\..\..\..\uCOS-III\Source/os_mutex.c ****     OS_MUTEX  *p_mutex_next;
 813:..\..\..\..\..\..\uCOS-III\Source/os_mutex.c ****     OS_MUTEX  *p_mutex_prev;
 814:..\..\..\..\..\..\uCOS-III\Source/os_mutex.c **** 
 815:..\..\..\..\..\..\uCOS-III\Source/os_mutex.c **** 
 816:..\..\..\..\..\..\uCOS-III\Source/os_mutex.c ****     p_mutex_prev = p_mutex->DbgPrevPtr;
 1388              		.loc 1 816 0
 1389 0008 7B68     		ldr	r3, [r7, #4]
 1390 000a 5B69     		ldr	r3, [r3, #20]
 1391 000c FB60     		str	r3, [r7, #12]
 817:..\..\..\..\..\..\uCOS-III\Source/os_mutex.c ****     p_mutex_next = p_mutex->DbgNextPtr;
 1392              		.loc 1 817 0
 1393 000e 7B68     		ldr	r3, [r7, #4]
 1394 0010 9B69     		ldr	r3, [r3, #24]
 1395 0012 BB60     		str	r3, [r7, #8]
ARM GAS  C:\Users\Aluno\AppData\Local\Temp\cccS7k0x.s 			page 40


 818:..\..\..\..\..\..\uCOS-III\Source/os_mutex.c **** 
 819:..\..\..\..\..\..\uCOS-III\Source/os_mutex.c ****     if (p_mutex_prev == (OS_MUTEX *)0) {
 1396              		.loc 1 819 0
 1397 0014 FB68     		ldr	r3, [r7, #12]
 1398 0016 002B     		cmp	r3, #0
 1399 0018 0CD1     		bne	.L109
 820:..\..\..\..\..\..\uCOS-III\Source/os_mutex.c ****         OSMutexDbgListPtr = p_mutex_next;
 1400              		.loc 1 820 0
 1401 001a 144A     		ldr	r2, .L114
 1402 001c BB68     		ldr	r3, [r7, #8]
 1403 001e 1360     		str	r3, [r2]
 821:..\..\..\..\..\..\uCOS-III\Source/os_mutex.c ****         if (p_mutex_next != (OS_MUTEX *)0) {
 1404              		.loc 1 821 0
 1405 0020 BB68     		ldr	r3, [r7, #8]
 1406 0022 002B     		cmp	r3, #0
 1407 0024 02D0     		beq	.L110
 822:..\..\..\..\..\..\uCOS-III\Source/os_mutex.c ****             p_mutex_next->DbgPrevPtr = (OS_MUTEX *)0;
 1408              		.loc 1 822 0
 1409 0026 BB68     		ldr	r3, [r7, #8]
 1410 0028 0022     		movs	r2, #0
 1411 002a 5A61     		str	r2, [r3, #20]
 1412              	.L110:
 823:..\..\..\..\..\..\uCOS-III\Source/os_mutex.c ****         }
 824:..\..\..\..\..\..\uCOS-III\Source/os_mutex.c ****         p_mutex->DbgNextPtr = (OS_MUTEX *)0;
 1413              		.loc 1 824 0
 1414 002c 7B68     		ldr	r3, [r7, #4]
 1415 002e 0022     		movs	r2, #0
 1416 0030 9A61     		str	r2, [r3, #24]
 825:..\..\..\..\..\..\uCOS-III\Source/os_mutex.c **** 
 826:..\..\..\..\..\..\uCOS-III\Source/os_mutex.c ****     } else if (p_mutex_next == (OS_MUTEX *)0) {
 827:..\..\..\..\..\..\uCOS-III\Source/os_mutex.c ****         p_mutex_prev->DbgNextPtr = (OS_MUTEX *)0;
 828:..\..\..\..\..\..\uCOS-III\Source/os_mutex.c ****         p_mutex->DbgPrevPtr      = (OS_MUTEX *)0;
 829:..\..\..\..\..\..\uCOS-III\Source/os_mutex.c **** 
 830:..\..\..\..\..\..\uCOS-III\Source/os_mutex.c ****     } else {
 831:..\..\..\..\..\..\uCOS-III\Source/os_mutex.c ****         p_mutex_prev->DbgNextPtr =  p_mutex_next;
 832:..\..\..\..\..\..\uCOS-III\Source/os_mutex.c ****         p_mutex_next->DbgPrevPtr =  p_mutex_prev;
 833:..\..\..\..\..\..\uCOS-III\Source/os_mutex.c ****         p_mutex->DbgNextPtr      = (OS_MUTEX *)0;
 834:..\..\..\..\..\..\uCOS-III\Source/os_mutex.c ****         p_mutex->DbgPrevPtr      = (OS_MUTEX *)0;
 835:..\..\..\..\..\..\uCOS-III\Source/os_mutex.c ****     }
 836:..\..\..\..\..\..\uCOS-III\Source/os_mutex.c **** }
 1417              		.loc 1 836 0
 1418 0032 15E0     		b	.L113
 1419              	.L109:
 826:..\..\..\..\..\..\uCOS-III\Source/os_mutex.c ****         p_mutex_prev->DbgNextPtr = (OS_MUTEX *)0;
 1420              		.loc 1 826 0
 1421 0034 BB68     		ldr	r3, [r7, #8]
 1422 0036 002B     		cmp	r3, #0
 1423 0038 06D1     		bne	.L112
 827:..\..\..\..\..\..\uCOS-III\Source/os_mutex.c ****         p_mutex->DbgPrevPtr      = (OS_MUTEX *)0;
 1424              		.loc 1 827 0
 1425 003a FB68     		ldr	r3, [r7, #12]
 1426 003c 0022     		movs	r2, #0
 1427 003e 9A61     		str	r2, [r3, #24]
 828:..\..\..\..\..\..\uCOS-III\Source/os_mutex.c **** 
 1428              		.loc 1 828 0
 1429 0040 7B68     		ldr	r3, [r7, #4]
 1430 0042 0022     		movs	r2, #0
ARM GAS  C:\Users\Aluno\AppData\Local\Temp\cccS7k0x.s 			page 41


 1431 0044 5A61     		str	r2, [r3, #20]
 1432              		.loc 1 836 0
 1433 0046 0BE0     		b	.L113
 1434              	.L112:
 831:..\..\..\..\..\..\uCOS-III\Source/os_mutex.c ****         p_mutex_next->DbgPrevPtr =  p_mutex_prev;
 1435              		.loc 1 831 0
 1436 0048 FB68     		ldr	r3, [r7, #12]
 1437 004a BA68     		ldr	r2, [r7, #8]
 1438 004c 9A61     		str	r2, [r3, #24]
 832:..\..\..\..\..\..\uCOS-III\Source/os_mutex.c ****         p_mutex->DbgNextPtr      = (OS_MUTEX *)0;
 1439              		.loc 1 832 0
 1440 004e BB68     		ldr	r3, [r7, #8]
 1441 0050 FA68     		ldr	r2, [r7, #12]
 1442 0052 5A61     		str	r2, [r3, #20]
 833:..\..\..\..\..\..\uCOS-III\Source/os_mutex.c ****         p_mutex->DbgPrevPtr      = (OS_MUTEX *)0;
 1443              		.loc 1 833 0
 1444 0054 7B68     		ldr	r3, [r7, #4]
 1445 0056 0022     		movs	r2, #0
 1446 0058 9A61     		str	r2, [r3, #24]
 834:..\..\..\..\..\..\uCOS-III\Source/os_mutex.c ****     }
 1447              		.loc 1 834 0
 1448 005a 7B68     		ldr	r3, [r7, #4]
 1449 005c 0022     		movs	r2, #0
 1450 005e 5A61     		str	r2, [r3, #20]
 1451              	.L113:
 1452              		.loc 1 836 0
 1453 0060 00BF     		nop
 1454 0062 1437     		adds	r7, r7, #20
 1455              		.cfi_def_cfa_offset 4
 1456 0064 BD46     		mov	sp, r7
 1457              		.cfi_def_cfa_register 13
 1458              		@ sp needed
 1459 0066 80BC     		pop	{r7}
 1460              		.cfi_restore 7
 1461              		.cfi_def_cfa_offset 0
 1462 0068 7047     		bx	lr
 1463              	.L115:
 1464 006a 00BF     		.align	2
 1465              	.L114:
 1466 006c 00000000 		.word	OSMutexDbgListPtr
 1467              		.cfi_endproc
 1468              	.LFE7:
 1469              		.size	OS_MutexDbgListRemove, .-OS_MutexDbgListRemove
 1470              		.section	.text.OS_MutexInit,"ax",%progbits
 1471              		.align	2
 1472              		.global	OS_MutexInit
 1473              		.thumb
 1474              		.thumb_func
 1475              		.type	OS_MutexInit, %function
 1476              	OS_MutexInit:
 1477              	.LFB8:
 837:..\..\..\..\..\..\uCOS-III\Source/os_mutex.c **** #endif
 838:..\..\..\..\..\..\uCOS-III\Source/os_mutex.c **** 
 839:..\..\..\..\..\..\uCOS-III\Source/os_mutex.c **** /*$PAGE*/
 840:..\..\..\..\..\..\uCOS-III\Source/os_mutex.c **** /*
 841:..\..\..\..\..\..\uCOS-III\Source/os_mutex.c **** ***************************************************************************************************
 842:..\..\..\..\..\..\uCOS-III\Source/os_mutex.c **** *                                                MUTEX INITIALIZATION
ARM GAS  C:\Users\Aluno\AppData\Local\Temp\cccS7k0x.s 			page 42


 843:..\..\..\..\..\..\uCOS-III\Source/os_mutex.c **** *
 844:..\..\..\..\..\..\uCOS-III\Source/os_mutex.c **** * Description: This function is called by OSInit() to initialize the mutex management.
 845:..\..\..\..\..\..\uCOS-III\Source/os_mutex.c **** *
 846:..\..\..\..\..\..\uCOS-III\Source/os_mutex.c **** 
 847:..\..\..\..\..\..\uCOS-III\Source/os_mutex.c **** * Argument(s): p_err        is a pointer to a variable that will contain an error code returned by 
 848:..\..\..\..\..\..\uCOS-III\Source/os_mutex.c **** *
 849:..\..\..\..\..\..\uCOS-III\Source/os_mutex.c **** *                                OS_ERR_NONE     the call was successful
 850:..\..\..\..\..\..\uCOS-III\Source/os_mutex.c **** *
 851:..\..\..\..\..\..\uCOS-III\Source/os_mutex.c **** * Returns    : none
 852:..\..\..\..\..\..\uCOS-III\Source/os_mutex.c **** *
 853:..\..\..\..\..\..\uCOS-III\Source/os_mutex.c **** * Note(s)    : 1) This function is INTERNAL to uC/OS-III and your application MUST NOT call it.
 854:..\..\..\..\..\..\uCOS-III\Source/os_mutex.c **** ***************************************************************************************************
 855:..\..\..\..\..\..\uCOS-III\Source/os_mutex.c **** */
 856:..\..\..\..\..\..\uCOS-III\Source/os_mutex.c **** 
 857:..\..\..\..\..\..\uCOS-III\Source/os_mutex.c **** void  OS_MutexInit (OS_ERR  *p_err)
 858:..\..\..\..\..\..\uCOS-III\Source/os_mutex.c **** {
 1478              		.loc 1 858 0
 1479              		.cfi_startproc
 1480              		@ args = 0, pretend = 0, frame = 8
 1481              		@ frame_needed = 1, uses_anonymous_args = 0
 1482              		@ link register save eliminated.
 1483 0000 80B4     		push	{r7}
 1484              		.cfi_def_cfa_offset 4
 1485              		.cfi_offset 7, -4
 1486 0002 83B0     		sub	sp, sp, #12
 1487              		.cfi_def_cfa_offset 16
 1488 0004 00AF     		add	r7, sp, #0
 1489              		.cfi_def_cfa_register 7
 1490 0006 7860     		str	r0, [r7, #4]
 859:..\..\..\..\..\..\uCOS-III\Source/os_mutex.c **** #ifdef OS_SAFETY_CRITICAL
 860:..\..\..\..\..\..\uCOS-III\Source/os_mutex.c ****     if (p_err == (OS_ERR *)0) {
 861:..\..\..\..\..\..\uCOS-III\Source/os_mutex.c ****         OS_SAFETY_CRITICAL_EXCEPTION();
 862:..\..\..\..\..\..\uCOS-III\Source/os_mutex.c ****         return;
 863:..\..\..\..\..\..\uCOS-III\Source/os_mutex.c ****     }
 864:..\..\..\..\..\..\uCOS-III\Source/os_mutex.c **** #endif
 865:..\..\..\..\..\..\uCOS-III\Source/os_mutex.c **** 
 866:..\..\..\..\..\..\uCOS-III\Source/os_mutex.c **** #if OS_CFG_DBG_EN > 0u
 867:..\..\..\..\..\..\uCOS-III\Source/os_mutex.c ****     OSMutexDbgListPtr = (OS_MUTEX *)0;
 1491              		.loc 1 867 0
 1492 0008 064B     		ldr	r3, .L117
 1493 000a 0022     		movs	r2, #0
 1494 000c 1A60     		str	r2, [r3]
 868:..\..\..\..\..\..\uCOS-III\Source/os_mutex.c **** #endif
 869:..\..\..\..\..\..\uCOS-III\Source/os_mutex.c **** 
 870:..\..\..\..\..\..\uCOS-III\Source/os_mutex.c ****     OSMutexQty        = (OS_OBJ_QTY)0;
 1495              		.loc 1 870 0
 1496 000e 064B     		ldr	r3, .L117+4
 1497 0010 0022     		movs	r2, #0
 1498 0012 1A80     		strh	r2, [r3]	@ movhi
 871:..\..\..\..\..\..\uCOS-III\Source/os_mutex.c ****    *p_err             =  OS_ERR_NONE;
 1499              		.loc 1 871 0
 1500 0014 7B68     		ldr	r3, [r7, #4]
 1501 0016 0022     		movs	r2, #0
 1502 0018 1A80     		strh	r2, [r3]	@ movhi
 872:..\..\..\..\..\..\uCOS-III\Source/os_mutex.c **** }
 1503              		.loc 1 872 0
 1504 001a 00BF     		nop
ARM GAS  C:\Users\Aluno\AppData\Local\Temp\cccS7k0x.s 			page 43


 1505 001c 0C37     		adds	r7, r7, #12
 1506              		.cfi_def_cfa_offset 4
 1507 001e BD46     		mov	sp, r7
 1508              		.cfi_def_cfa_register 13
 1509              		@ sp needed
 1510 0020 80BC     		pop	{r7}
 1511              		.cfi_restore 7
 1512              		.cfi_def_cfa_offset 0
 1513 0022 7047     		bx	lr
 1514              	.L118:
 1515              		.align	2
 1516              	.L117:
 1517 0024 00000000 		.word	OSMutexDbgListPtr
 1518 0028 00000000 		.word	OSMutexQty
 1519              		.cfi_endproc
 1520              	.LFE8:
 1521              		.size	OS_MutexInit, .-OS_MutexInit
 1522              		.text
 1523              	.Letext0:
 1524              		.file 2 "..\\..\\..\\..\\..\\..\\uC-CPU\\ARM-Cortex-M3\\GNU/cpu.h"
 1525              		.file 3 "..\\..\\..\\..\\..\\..\\uC-CPU/cpu_core.h"
 1526              		.file 4 "..\\..\\..\\..\\..\\..\\uCOS-III\\Source/os_type.h"
 1527              		.file 5 "..\\..\\..\\..\\..\\..\\uCOS-III\\Source/os.h"