ARM GAS  C:\Users\EDULU~1.DES\AppData\Local\Temp\ccpYHLly.s 			page 1


   1              		.syntax unified
   2              		.cpu cortex-m0
   3              		.fpu softvfp
   4              		.eabi_attribute 20, 1
   5              		.eabi_attribute 21, 1
   6              		.eabi_attribute 23, 3
   7              		.eabi_attribute 24, 1
   8              		.eabi_attribute 25, 1
   9              		.eabi_attribute 26, 1
  10              		.eabi_attribute 30, 6
  11              		.eabi_attribute 34, 0
  12              		.eabi_attribute 18, 4
  13              		.thumb
  14              		.syntax unified
  15              		.file	"ADC.c"
  16              		.text
  17              	.Ltext0:
  18              		.cfi_sections	.debug_frame
  19              		.global	ADC_initVar
  20              		.bss
  21              		.type	ADC_initVar, %object
  22              		.size	ADC_initVar, 1
  23              	ADC_initVar:
  24 0000 00       		.space	1
  25              		.comm	ADC_offset,2,4
  26              		.comm	ADC_countsPer10Volt,4,4
  27              		.section	.rodata
  28              		.align	2
  29              		.type	ADC_channelsConfig, %object
  30              		.size	ADC_channelsConfig, 4
  31              	ADC_channelsConfig:
  32 0000 00010000 		.word	256
  33              		.section	.text.ADC_Start,"ax",%progbits
  34              		.align	2
  35              		.global	ADC_Start
  36              		.code	16
  37              		.thumb_func
  38              		.type	ADC_Start, %function
  39              	ADC_Start:
  40              	.LFB0:
  41              		.file 1 "Generated_Source\\PSoC4\\ADC.c"
   1:Generated_Source\PSoC4/ADC.c **** /*******************************************************************************
   2:Generated_Source\PSoC4/ADC.c **** * File Name: ADC.c
   3:Generated_Source\PSoC4/ADC.c **** * Version 2.50
   4:Generated_Source\PSoC4/ADC.c **** *
   5:Generated_Source\PSoC4/ADC.c **** * Description:
   6:Generated_Source\PSoC4/ADC.c **** *  This file provides the source code to the API for the Sequencing Successive
   7:Generated_Source\PSoC4/ADC.c **** *  Approximation ADC Component Component.
   8:Generated_Source\PSoC4/ADC.c **** *
   9:Generated_Source\PSoC4/ADC.c **** * Note:
  10:Generated_Source\PSoC4/ADC.c **** *
  11:Generated_Source\PSoC4/ADC.c **** ********************************************************************************
  12:Generated_Source\PSoC4/ADC.c **** * Copyright 2008-2017, Cypress Semiconductor Corporation.  All rights reserved.
  13:Generated_Source\PSoC4/ADC.c **** * You may use this file only in accordance with the license, terms, conditions,
  14:Generated_Source\PSoC4/ADC.c **** * disclaimers, and limitations in the end user license agreement accompanying
  15:Generated_Source\PSoC4/ADC.c **** * the software package with which this file was provided.
  16:Generated_Source\PSoC4/ADC.c **** *******************************************************************************/
ARM GAS  C:\Users\EDULU~1.DES\AppData\Local\Temp\ccpYHLly.s 			page 2


  17:Generated_Source\PSoC4/ADC.c **** 
  18:Generated_Source\PSoC4/ADC.c **** #include "ADC.h"
  19:Generated_Source\PSoC4/ADC.c **** 
  20:Generated_Source\PSoC4/ADC.c **** 
  21:Generated_Source\PSoC4/ADC.c **** /***************************************
  22:Generated_Source\PSoC4/ADC.c **** * Global data allocation
  23:Generated_Source\PSoC4/ADC.c **** ***************************************/
  24:Generated_Source\PSoC4/ADC.c **** uint8 ADC_initVar = 0u;
  25:Generated_Source\PSoC4/ADC.c **** volatile int16 ADC_offset[ADC_TOTAL_CHANNELS_NUM];
  26:Generated_Source\PSoC4/ADC.c **** volatile int32 ADC_countsPer10Volt[ADC_TOTAL_CHANNELS_NUM];   /* Gain compensation */
  27:Generated_Source\PSoC4/ADC.c **** 
  28:Generated_Source\PSoC4/ADC.c **** 
  29:Generated_Source\PSoC4/ADC.c **** /***************************************
  30:Generated_Source\PSoC4/ADC.c **** * Local data allocation
  31:Generated_Source\PSoC4/ADC.c **** ***************************************/
  32:Generated_Source\PSoC4/ADC.c **** /* Channels configuration generated by customiser */
  33:Generated_Source\PSoC4/ADC.c **** static const uint32 CYCODE ADC_channelsConfig[] = { 0x00000100u };
  34:Generated_Source\PSoC4/ADC.c **** 
  35:Generated_Source\PSoC4/ADC.c **** 
  36:Generated_Source\PSoC4/ADC.c **** /*******************************************************************************
  37:Generated_Source\PSoC4/ADC.c **** * Function Name: ADC_Start
  38:Generated_Source\PSoC4/ADC.c **** ********************************************************************************
  39:Generated_Source\PSoC4/ADC.c **** *
  40:Generated_Source\PSoC4/ADC.c **** * Summary:
  41:Generated_Source\PSoC4/ADC.c **** *  Performs all required initialization for this component
  42:Generated_Source\PSoC4/ADC.c **** *  and enables the power. The power will be set to the appropriate
  43:Generated_Source\PSoC4/ADC.c **** *  power based on the clock frequency.
  44:Generated_Source\PSoC4/ADC.c **** *
  45:Generated_Source\PSoC4/ADC.c **** * Parameters:
  46:Generated_Source\PSoC4/ADC.c **** *  None.
  47:Generated_Source\PSoC4/ADC.c **** *
  48:Generated_Source\PSoC4/ADC.c **** * Return:
  49:Generated_Source\PSoC4/ADC.c **** *  None.
  50:Generated_Source\PSoC4/ADC.c **** *
  51:Generated_Source\PSoC4/ADC.c **** * Global variables:
  52:Generated_Source\PSoC4/ADC.c **** *  The ADC_initVar variable is used to indicate when/if initial
  53:Generated_Source\PSoC4/ADC.c **** *  configuration of this component has happened. The variable is initialized to
  54:Generated_Source\PSoC4/ADC.c **** *  zero and set to 1 the first time ADC_Start() is called. This allows for
  55:Generated_Source\PSoC4/ADC.c **** *  component Re-Start without re-initialization in all subsequent calls to the
  56:Generated_Source\PSoC4/ADC.c **** *  ADC_Start() routine.
  57:Generated_Source\PSoC4/ADC.c **** *  If re-initialization of the component is required the variable should be set
  58:Generated_Source\PSoC4/ADC.c **** *  to zero before call of ADC_Start() routine, or the user may call
  59:Generated_Source\PSoC4/ADC.c **** *  ADC_Init() and ADC_Enable() as done in the
  60:Generated_Source\PSoC4/ADC.c **** *  ADC_Start() routine.
  61:Generated_Source\PSoC4/ADC.c **** *
  62:Generated_Source\PSoC4/ADC.c **** *******************************************************************************/
  63:Generated_Source\PSoC4/ADC.c **** void ADC_Start(void)
  64:Generated_Source\PSoC4/ADC.c **** {
  42              		.loc 1 64 0
  43              		.cfi_startproc
  44              		@ args = 0, pretend = 0, frame = 0
  45              		@ frame_needed = 1, uses_anonymous_args = 0
  46 0000 80B5     		push	{r7, lr}
  47              		.cfi_def_cfa_offset 8
  48              		.cfi_offset 7, -8
  49              		.cfi_offset 14, -4
  50 0002 00AF     		add	r7, sp, #0
ARM GAS  C:\Users\EDULU~1.DES\AppData\Local\Temp\ccpYHLly.s 			page 3


  51              		.cfi_def_cfa_register 7
  65:Generated_Source\PSoC4/ADC.c ****     /* If not Initialized then initialize all required hardware and software */
  66:Generated_Source\PSoC4/ADC.c ****     if(ADC_initVar == 0u)
  52              		.loc 1 66 0
  53 0004 064B     		ldr	r3, .L3
  54 0006 1B78     		ldrb	r3, [r3]
  55 0008 002B     		cmp	r3, #0
  56 000a 04D1     		bne	.L2
  67:Generated_Source\PSoC4/ADC.c ****     {
  68:Generated_Source\PSoC4/ADC.c ****         ADC_Init();
  57              		.loc 1 68 0
  58 000c FFF7FEFF 		bl	ADC_Init
  69:Generated_Source\PSoC4/ADC.c ****         ADC_initVar = 1u;
  59              		.loc 1 69 0
  60 0010 034B     		ldr	r3, .L3
  61 0012 0122     		movs	r2, #1
  62 0014 1A70     		strb	r2, [r3]
  63              	.L2:
  70:Generated_Source\PSoC4/ADC.c ****     }
  71:Generated_Source\PSoC4/ADC.c ****     ADC_Enable();
  64              		.loc 1 71 0
  65 0016 FFF7FEFF 		bl	ADC_Enable
  72:Generated_Source\PSoC4/ADC.c **** }
  66              		.loc 1 72 0
  67 001a C046     		nop
  68 001c BD46     		mov	sp, r7
  69              		@ sp needed
  70 001e 80BD     		pop	{r7, pc}
  71              	.L4:
  72              		.align	2
  73              	.L3:
  74 0020 00000000 		.word	ADC_initVar
  75              		.cfi_endproc
  76              	.LFE0:
  77              		.size	ADC_Start, .-ADC_Start
  78              		.section	.text.ADC_Init,"ax",%progbits
  79              		.align	2
  80              		.global	ADC_Init
  81              		.code	16
  82              		.thumb_func
  83              		.type	ADC_Init, %function
  84              	ADC_Init:
  85              	.LFB1:
  73:Generated_Source\PSoC4/ADC.c **** 
  74:Generated_Source\PSoC4/ADC.c **** 
  75:Generated_Source\PSoC4/ADC.c **** /*******************************************************************************
  76:Generated_Source\PSoC4/ADC.c **** * Function Name: ADC_Init
  77:Generated_Source\PSoC4/ADC.c **** ********************************************************************************
  78:Generated_Source\PSoC4/ADC.c **** *
  79:Generated_Source\PSoC4/ADC.c **** * Summary:
  80:Generated_Source\PSoC4/ADC.c **** *  Initialize component's parameters to the parameters set by user in the
  81:Generated_Source\PSoC4/ADC.c **** *  customizer of the component placed onto schematic. Usually called in
  82:Generated_Source\PSoC4/ADC.c **** *  ADC_Start().
  83:Generated_Source\PSoC4/ADC.c **** *
  84:Generated_Source\PSoC4/ADC.c **** * Parameters:
  85:Generated_Source\PSoC4/ADC.c **** *  None.
  86:Generated_Source\PSoC4/ADC.c **** *
ARM GAS  C:\Users\EDULU~1.DES\AppData\Local\Temp\ccpYHLly.s 			page 4


  87:Generated_Source\PSoC4/ADC.c **** * Return:
  88:Generated_Source\PSoC4/ADC.c **** *  None.
  89:Generated_Source\PSoC4/ADC.c **** *
  90:Generated_Source\PSoC4/ADC.c **** * Global variables:
  91:Generated_Source\PSoC4/ADC.c **** *  The ADC_offset variable is initialized.
  92:Generated_Source\PSoC4/ADC.c **** *
  93:Generated_Source\PSoC4/ADC.c **** *******************************************************************************/
  94:Generated_Source\PSoC4/ADC.c **** void ADC_Init(void)
  95:Generated_Source\PSoC4/ADC.c **** {
  86              		.loc 1 95 0
  87              		.cfi_startproc
  88              		@ args = 0, pretend = 0, frame = 16
  89              		@ frame_needed = 1, uses_anonymous_args = 0
  90 0000 80B5     		push	{r7, lr}
  91              		.cfi_def_cfa_offset 8
  92              		.cfi_offset 7, -8
  93              		.cfi_offset 14, -4
  94 0002 84B0     		sub	sp, sp, #16
  95              		.cfi_def_cfa_offset 24
  96 0004 00AF     		add	r7, sp, #0
  97              		.cfi_def_cfa_register 7
  96:Generated_Source\PSoC4/ADC.c ****     uint32 chNum;
  97:Generated_Source\PSoC4/ADC.c ****     uint32 tmpRegVal;
  98:Generated_Source\PSoC4/ADC.c ****     int32 counts;
  99:Generated_Source\PSoC4/ADC.c **** 
 100:Generated_Source\PSoC4/ADC.c ****     #if(ADC_TOTAL_CHANNELS_NUM > 1u)
 101:Generated_Source\PSoC4/ADC.c ****         static const uint8 CYCODE ADC_InputsPlacement[] =
 102:Generated_Source\PSoC4/ADC.c ****         {
 103:Generated_Source\PSoC4/ADC.c ****             (uint8)(ADC_cy_psoc4_sarmux_8__CH_0_PORT << 4u) |
 104:Generated_Source\PSoC4/ADC.c ****             (uint8)ADC_cy_psoc4_sarmux_8__CH_0_PIN
 105:Generated_Source\PSoC4/ADC.c ****             ,(uint8)(ADC_cy_psoc4_sarmux_8__CH_1_PORT << 4u) |
 106:Generated_Source\PSoC4/ADC.c ****              (uint8)ADC_cy_psoc4_sarmux_8__CH_1_PIN
 107:Generated_Source\PSoC4/ADC.c ****             #if(ADC_TOTAL_CHANNELS_NUM > 2u)
 108:Generated_Source\PSoC4/ADC.c ****                 ,(uint8)(ADC_cy_psoc4_sarmux_8__CH_2_PORT << 4u) |
 109:Generated_Source\PSoC4/ADC.c ****                  (uint8)ADC_cy_psoc4_sarmux_8__CH_2_PIN
 110:Generated_Source\PSoC4/ADC.c ****             #endif /* End ADC_TOTAL_CHANNELS_NUM > 2u */
 111:Generated_Source\PSoC4/ADC.c ****             #if(ADC_TOTAL_CHANNELS_NUM > 3u)
 112:Generated_Source\PSoC4/ADC.c ****                 ,(uint8)(ADC_cy_psoc4_sarmux_8__CH_3_PORT << 4u) |
 113:Generated_Source\PSoC4/ADC.c ****                  (uint8)ADC_cy_psoc4_sarmux_8__CH_3_PIN
 114:Generated_Source\PSoC4/ADC.c ****             #endif /* End ADC_TOTAL_CHANNELS_NUM > 3u */
 115:Generated_Source\PSoC4/ADC.c ****             #if(ADC_TOTAL_CHANNELS_NUM > 4u)
 116:Generated_Source\PSoC4/ADC.c ****                 ,(uint8)(ADC_cy_psoc4_sarmux_8__CH_4_PORT << 4u) |
 117:Generated_Source\PSoC4/ADC.c ****                  (uint8)ADC_cy_psoc4_sarmux_8__CH_4_PIN
 118:Generated_Source\PSoC4/ADC.c ****             #endif /* End ADC_TOTAL_CHANNELS_NUM > 4u */
 119:Generated_Source\PSoC4/ADC.c ****             #if(ADC_TOTAL_CHANNELS_NUM > 5u)
 120:Generated_Source\PSoC4/ADC.c ****                 ,(uint8)(ADC_cy_psoc4_sarmux_8__CH_5_PORT << 4u) |
 121:Generated_Source\PSoC4/ADC.c ****                  (uint8)ADC_cy_psoc4_sarmux_8__CH_5_PIN
 122:Generated_Source\PSoC4/ADC.c ****             #endif /* End ADC_TOTAL_CHANNELS_NUM > 5u */
 123:Generated_Source\PSoC4/ADC.c ****             #if(ADC_TOTAL_CHANNELS_NUM > 6u)
 124:Generated_Source\PSoC4/ADC.c ****                 ,(uint8)(ADC_cy_psoc4_sarmux_8__CH_6_PORT << 4u) |
 125:Generated_Source\PSoC4/ADC.c ****                  (uint8)ADC_cy_psoc4_sarmux_8__CH_6_PIN
 126:Generated_Source\PSoC4/ADC.c ****             #endif /* End ADC_TOTAL_CHANNELS_NUM > 6u */
 127:Generated_Source\PSoC4/ADC.c ****             #if(ADC_TOTAL_CHANNELS_NUM > 7u)
 128:Generated_Source\PSoC4/ADC.c ****                 ,(uint8)(ADC_cy_psoc4_sarmux_8__CH_7_PORT << 4u) |
 129:Generated_Source\PSoC4/ADC.c ****                  (uint8)ADC_cy_psoc4_sarmux_8__CH_7_PIN
 130:Generated_Source\PSoC4/ADC.c ****             #endif /* End ADC_TOTAL_CHANNELS_NUM > 7u */
 131:Generated_Source\PSoC4/ADC.c ****             #if(ADC_TOTAL_CHANNELS_NUM > 8u)
ARM GAS  C:\Users\EDULU~1.DES\AppData\Local\Temp\ccpYHLly.s 			page 5


 132:Generated_Source\PSoC4/ADC.c ****                 ,(uint8)(ADC_cy_psoc4_sarmux_8__CH_8_PORT << 4u) |
 133:Generated_Source\PSoC4/ADC.c ****                  (uint8)ADC_cy_psoc4_sarmux_8__CH_8_PIN
 134:Generated_Source\PSoC4/ADC.c ****             #endif /* End ADC_TOTAL_CHANNELS_NUM > 8u */
 135:Generated_Source\PSoC4/ADC.c ****             #if(ADC_TOTAL_CHANNELS_NUM > 9u)
 136:Generated_Source\PSoC4/ADC.c ****                 ,(uint8)(ADC_cy_psoc4_sarmux_8__CH_9_PORT << 4u) |
 137:Generated_Source\PSoC4/ADC.c ****                  (uint8)ADC_cy_psoc4_sarmux_8__CH_9_PIN
 138:Generated_Source\PSoC4/ADC.c ****             #endif /* End ADC_TOTAL_CHANNELS_NUM > 9u */
 139:Generated_Source\PSoC4/ADC.c ****             #if(ADC_TOTAL_CHANNELS_NUM > 10u)
 140:Generated_Source\PSoC4/ADC.c ****                 ,(uint8)(ADC_cy_psoc4_sarmux_8__CH_10_PORT << 4u) |
 141:Generated_Source\PSoC4/ADC.c ****                  (uint8)ADC_cy_psoc4_sarmux_8__CH_10_PIN
 142:Generated_Source\PSoC4/ADC.c ****             #endif /* End ADC_TOTAL_CHANNELS_NUM > 10u */
 143:Generated_Source\PSoC4/ADC.c ****             #if(ADC_TOTAL_CHANNELS_NUM > 11u)
 144:Generated_Source\PSoC4/ADC.c ****                 ,(uint8)(ADC_cy_psoc4_sarmux_8__CH_11_PORT << 4u) |
 145:Generated_Source\PSoC4/ADC.c ****                  (uint8)ADC_cy_psoc4_sarmux_8__CH_11_PIN
 146:Generated_Source\PSoC4/ADC.c ****             #endif /* End ADC_TOTAL_CHANNELS_NUM > 11u */
 147:Generated_Source\PSoC4/ADC.c ****             #if(ADC_TOTAL_CHANNELS_NUM > 12u)
 148:Generated_Source\PSoC4/ADC.c ****                 ,(uint8)(ADC_cy_psoc4_sarmux_8__CH_12_PORT << 4u) |
 149:Generated_Source\PSoC4/ADC.c ****                  (uint8)ADC_cy_psoc4_sarmux_8__CH_12_PIN
 150:Generated_Source\PSoC4/ADC.c ****             #endif /* End ADC_TOTAL_CHANNELS_NUM > 12u */
 151:Generated_Source\PSoC4/ADC.c ****             #if(ADC_TOTAL_CHANNELS_NUM > 13u)
 152:Generated_Source\PSoC4/ADC.c ****                 ,(uint8)(ADC_cy_psoc4_sarmux_8__CH_13_PORT << 4u) |
 153:Generated_Source\PSoC4/ADC.c ****                  (uint8)ADC_cy_psoc4_sarmux_8__CH_13_PIN
 154:Generated_Source\PSoC4/ADC.c ****             #endif /* End ADC_TOTAL_CHANNELS_NUM > 13u */
 155:Generated_Source\PSoC4/ADC.c ****             #if(ADC_TOTAL_CHANNELS_NUM > 14u)
 156:Generated_Source\PSoC4/ADC.c ****                 ,(uint8)(ADC_cy_psoc4_sarmux_8__CH_14_PORT << 4u) |
 157:Generated_Source\PSoC4/ADC.c ****                  (uint8)ADC_cy_psoc4_sarmux_8__CH_14_PIN
 158:Generated_Source\PSoC4/ADC.c ****             #endif /* End ADC_TOTAL_CHANNELS_NUM > 14u */
 159:Generated_Source\PSoC4/ADC.c ****             #if(ADC_TOTAL_CHANNELS_NUM > 15u)
 160:Generated_Source\PSoC4/ADC.c ****                 ,(uint8)(ADC_cy_psoc4_sarmux_8__CH_15_PORT << 4u) |
 161:Generated_Source\PSoC4/ADC.c ****                  (uint8)ADC_cy_psoc4_sarmux_8__CH_15_PIN
 162:Generated_Source\PSoC4/ADC.c ****             #endif /* End ADC_TOTAL_CHANNELS_NUM > 15u */
 163:Generated_Source\PSoC4/ADC.c ****             #if(ADC_TOTAL_CHANNELS_NUM > 16u)
 164:Generated_Source\PSoC4/ADC.c ****                 ,(uint8)(ADC_cy_psoc4_sarmux_8__CH_16_PORT << 4u) |
 165:Generated_Source\PSoC4/ADC.c ****                  (uint8)ADC_cy_psoc4_sarmux_8__CH_16_PIN
 166:Generated_Source\PSoC4/ADC.c ****             #endif /* End ADC_TOTAL_CHANNELS_NUM > 16u */
 167:Generated_Source\PSoC4/ADC.c ****         };
 168:Generated_Source\PSoC4/ADC.c ****     #endif /* End ADC_TOTAL_CHANNELS_NUM > 1u */
 169:Generated_Source\PSoC4/ADC.c **** 
 170:Generated_Source\PSoC4/ADC.c ****     #if(ADC_IRQ_REMOVE == 0u)
 171:Generated_Source\PSoC4/ADC.c ****         /* Start and set interrupt vector */
 172:Generated_Source\PSoC4/ADC.c ****         CyIntSetPriority(ADC_INTC_NUMBER, ADC_INTC_PRIOR_NUMBER);
  98              		.loc 1 172 0
  99 0006 0321     		movs	r1, #3
 100 0008 0E20     		movs	r0, #14
 101 000a FFF7FEFF 		bl	CyIntSetPriority
 173:Generated_Source\PSoC4/ADC.c ****         (void)CyIntSetVector(ADC_INTC_NUMBER, &ADC_ISR);
 102              		.loc 1 173 0
 103 000e 544B     		ldr	r3, .L17
 104 0010 1900     		movs	r1, r3
 105 0012 0E20     		movs	r0, #14
 106 0014 FFF7FEFF 		bl	CyIntSetVector
 174:Generated_Source\PSoC4/ADC.c ****     #endif   /* End ADC_IRQ_REMOVE */
 175:Generated_Source\PSoC4/ADC.c **** 
 176:Generated_Source\PSoC4/ADC.c ****     /* Init SAR and MUX registers */
 177:Generated_Source\PSoC4/ADC.c ****     ADC_SAR_CHAN_EN_REG = ADC_DEFAULT_EN_CHANNELS;
 107              		.loc 1 177 0
 108 0018 524B     		ldr	r3, .L17+4
ARM GAS  C:\Users\EDULU~1.DES\AppData\Local\Temp\ccpYHLly.s 			page 6


 109 001a 0122     		movs	r2, #1
 110 001c 1A60     		str	r2, [r3]
 178:Generated_Source\PSoC4/ADC.c ****     ADC_SAR_CTRL_REG |= ADC_DEFAULT_CTRL_REG_CFG | 
 179:Generated_Source\PSoC4/ADC.c ****         /* Enable the SAR internal pump when global pump is enabled */
 180:Generated_Source\PSoC4/ADC.c ****         (((ADC_PUMP_CTRL_REG & ADC_PUMP_CTRL_ENABLED) != 0u) ? 
 111              		.loc 1 180 0
 112 001e 524B     		ldr	r3, .L17+8
 113 0020 1B68     		ldr	r3, [r3]
 178:Generated_Source\PSoC4/ADC.c ****     ADC_SAR_CTRL_REG |= ADC_DEFAULT_CTRL_REG_CFG | 
 114              		.loc 1 178 0
 115 0022 002B     		cmp	r3, #0
 116 0024 01DA     		bge	.L6
 178:Generated_Source\PSoC4/ADC.c ****     ADC_SAR_CTRL_REG |= ADC_DEFAULT_CTRL_REG_CFG | 
 117              		.loc 1 178 0 is_stmt 0 discriminator 1
 118 0026 5149     		ldr	r1, .L17+12
 119 0028 00E0     		b	.L7
 120              	.L6:
 178:Generated_Source\PSoC4/ADC.c ****     ADC_SAR_CTRL_REG |= ADC_DEFAULT_CTRL_REG_CFG | 
 121              		.loc 1 178 0 discriminator 2
 122 002a 5149     		ldr	r1, .L17+16
 123              	.L7:
 178:Generated_Source\PSoC4/ADC.c ****     ADC_SAR_CTRL_REG |= ADC_DEFAULT_CTRL_REG_CFG | 
 124              		.loc 1 178 0 discriminator 4
 125 002c 514B     		ldr	r3, .L17+20
 126 002e 514A     		ldr	r2, .L17+20
 127 0030 1268     		ldr	r2, [r2]
 128 0032 0A43     		orrs	r2, r1
 129 0034 1A60     		str	r2, [r3]
 181:Generated_Source\PSoC4/ADC.c ****         ADC_BOOSTPUMP_EN : 0u);
 182:Generated_Source\PSoC4/ADC.c ****     ADC_SAR_SAMPLE_CTRL_REG = ADC_DEFAULT_SAMPLE_CTRL_REG_CFG;
 130              		.loc 1 182 0 is_stmt 1 discriminator 4
 131 0036 504B     		ldr	r3, .L17+24
 132 0038 504A     		ldr	r2, .L17+28
 133 003a 1A60     		str	r2, [r3]
 183:Generated_Source\PSoC4/ADC.c ****     ADC_SAR_RANGE_THRES_REG = ADC_DEFAULT_RANGE_THRES_REG_CFG;
 134              		.loc 1 183 0 discriminator 4
 135 003c 504B     		ldr	r3, .L17+32
 136 003e 514A     		ldr	r2, .L17+36
 137 0040 1A60     		str	r2, [r3]
 184:Generated_Source\PSoC4/ADC.c ****     ADC_SAR_RANGE_COND_REG  = ADC_COMPARE_MODE;
 138              		.loc 1 184 0 discriminator 4
 139 0042 514B     		ldr	r3, .L17+40
 140 0044 0022     		movs	r2, #0
 141 0046 1A60     		str	r2, [r3]
 185:Generated_Source\PSoC4/ADC.c ****     ADC_SAR_SAMPLE_TIME01_REG = ADC_DEFAULT_SAMPLE_TIME01_REG_CFG;
 142              		.loc 1 185 0 discriminator 4
 143 0048 504B     		ldr	r3, .L17+44
 144 004a 514A     		ldr	r2, .L17+48
 145 004c 1A60     		str	r2, [r3]
 186:Generated_Source\PSoC4/ADC.c ****     ADC_SAR_SAMPLE_TIME23_REG = ADC_DEFAULT_SAMPLE_TIME23_REG_CFG;
 146              		.loc 1 186 0 discriminator 4
 147 004e 514B     		ldr	r3, .L17+52
 148 0050 514A     		ldr	r2, .L17+56
 149 0052 1A60     		str	r2, [r3]
 187:Generated_Source\PSoC4/ADC.c ****     
 188:Generated_Source\PSoC4/ADC.c ****     /* Connect Vm to VSSA when even one channel is single-ended or multiple channels configured */
 189:Generated_Source\PSoC4/ADC.c ****     #if(ADC_DEFAULT_MUX_SWITCH0 != 0u)
ARM GAS  C:\Users\EDULU~1.DES\AppData\Local\Temp\ccpYHLly.s 			page 7


 190:Generated_Source\PSoC4/ADC.c ****         ADC_MUX_SWITCH0_REG |= ADC_DEFAULT_MUX_SWITCH0;
 191:Generated_Source\PSoC4/ADC.c ****         /* Set MUX_HW_CTRL_VSSA in MUX_SWITCH_HW_CTRL when multiple channels enabled */
 192:Generated_Source\PSoC4/ADC.c ****         #if(ADC_TOTAL_CHANNELS_NUM > 1u)
 193:Generated_Source\PSoC4/ADC.c ****             ADC_MUX_SWITCH_HW_CTRL_REG |= ADC_DEFAULT_MUX_SWITCH0;
 194:Generated_Source\PSoC4/ADC.c ****         #endif /* ADC_TOTAL_CHANNELS_NUM > 1u */
 195:Generated_Source\PSoC4/ADC.c ****     #endif /*ADC_CHANNELS_MODE !=0 */
 196:Generated_Source\PSoC4/ADC.c **** 
 197:Generated_Source\PSoC4/ADC.c ****     ADC_SAR_SATURATE_INTR_MASK_REG = 0u;
 150              		.loc 1 197 0 discriminator 4
 151 0054 514B     		ldr	r3, .L17+60
 152 0056 0022     		movs	r2, #0
 153 0058 1A60     		str	r2, [r3]
 198:Generated_Source\PSoC4/ADC.c ****     ADC_SAR_RANGE_INTR_MASK_REG = 0u;
 154              		.loc 1 198 0 discriminator 4
 155 005a 514B     		ldr	r3, .L17+64
 156 005c 0022     		movs	r2, #0
 157 005e 1A60     		str	r2, [r3]
 199:Generated_Source\PSoC4/ADC.c ****     ADC_SAR_INTR_MASK_REG = ADC_SAR_INTR_MASK;
 158              		.loc 1 199 0 discriminator 4
 159 0060 504B     		ldr	r3, .L17+68
 160 0062 0122     		movs	r2, #1
 161 0064 1A60     		str	r2, [r3]
 200:Generated_Source\PSoC4/ADC.c **** 
 201:Generated_Source\PSoC4/ADC.c ****     #if(ADC_CY_SAR_IP_VER == ADC_CY_SAR_IP_VER0)
 202:Generated_Source\PSoC4/ADC.c ****         ADC_ANA_TRIM_REG = ADC_TRIM_COEF;
 162              		.loc 1 202 0 discriminator 4
 163 0066 504B     		ldr	r3, .L17+72
 164 0068 0222     		movs	r2, #2
 165 006a 1A60     		str	r2, [r3]
 203:Generated_Source\PSoC4/ADC.c ****     #endif /* (ADC_CY_SAR_IP_VER == ADC_CY_SAR_IP_VER0) */
 204:Generated_Source\PSoC4/ADC.c **** 
 205:Generated_Source\PSoC4/ADC.c ****     /* Read and modify default configuration based on characterization */
 206:Generated_Source\PSoC4/ADC.c ****     tmpRegVal = ADC_SAR_DFT_CTRL_REG;
 166              		.loc 1 206 0 discriminator 4
 167 006c 4F4B     		ldr	r3, .L17+76
 168 006e 1B68     		ldr	r3, [r3]
 169 0070 7B60     		str	r3, [r7, #4]
 207:Generated_Source\PSoC4/ADC.c ****     tmpRegVal &= (uint32)~ADC_DCEN;
 170              		.loc 1 207 0 discriminator 4
 171 0072 7B68     		ldr	r3, [r7, #4]
 172 0074 4E4A     		ldr	r2, .L17+80
 173 0076 1340     		ands	r3, r2
 174 0078 7B60     		str	r3, [r7, #4]
 208:Generated_Source\PSoC4/ADC.c ****     
 209:Generated_Source\PSoC4/ADC.c ****     #if(ADC_CY_SAR_IP_VER == ADC_CY_SAR_IP_VER0)
 210:Generated_Source\PSoC4/ADC.c ****         #if(ADC_NOMINAL_CLOCK_FREQ > (ADC_MAX_FREQUENCY / 2))
 211:Generated_Source\PSoC4/ADC.c ****             tmpRegVal |= ADC_SEL_CSEL_DFT_CHAR;
 212:Generated_Source\PSoC4/ADC.c ****         #else  /* clock speed < 9 Mhz */
 213:Generated_Source\PSoC4/ADC.c ****             tmpRegVal |= ADC_DLY_INC;
 175              		.loc 1 213 0 discriminator 4
 176 007a 7B68     		ldr	r3, [r7, #4]
 177 007c 0122     		movs	r2, #1
 178 007e 1343     		orrs	r3, r2
 179 0080 7B60     		str	r3, [r7, #4]
 214:Generated_Source\PSoC4/ADC.c ****         #endif /* clock speed > 9 Mhz */
 215:Generated_Source\PSoC4/ADC.c ****     #else
 216:Generated_Source\PSoC4/ADC.c ****         #if ((ADC_DEFAULT_VREF_SEL == ADC__INTERNAL1024) || \
ARM GAS  C:\Users\EDULU~1.DES\AppData\Local\Temp\ccpYHLly.s 			page 8


 217:Generated_Source\PSoC4/ADC.c ****              (ADC_DEFAULT_VREF_SEL == ADC__INTERNALVREF))
 218:Generated_Source\PSoC4/ADC.c ****             tmpRegVal |= ADC_DLY_INC;
 219:Generated_Source\PSoC4/ADC.c ****         #else
 220:Generated_Source\PSoC4/ADC.c ****             tmpRegVal |= ADC_DCEN;
 221:Generated_Source\PSoC4/ADC.c ****             tmpRegVal &= (uint32)~ADC_DLY_INC;
 222:Generated_Source\PSoC4/ADC.c ****         #endif /* ((ADC_DEFAULT_VREF_SEL == ADC__INTERNAL1024) || \
 223:Generated_Source\PSoC4/ADC.c ****                    (ADC_DEFAULT_VREF_SEL == ADC__INTERNALVREF)) */
 224:Generated_Source\PSoC4/ADC.c ****     #endif /* (ADC_CY_SAR_IP_VER == ADC_CY_SAR_IP_VER0) */
 225:Generated_Source\PSoC4/ADC.c ****     
 226:Generated_Source\PSoC4/ADC.c ****     ADC_SAR_DFT_CTRL_REG = tmpRegVal;
 180              		.loc 1 226 0 discriminator 4
 181 0082 4A4B     		ldr	r3, .L17+76
 182 0084 7A68     		ldr	r2, [r7, #4]
 183 0086 1A60     		str	r2, [r3]
 227:Generated_Source\PSoC4/ADC.c **** 
 228:Generated_Source\PSoC4/ADC.c ****     #if(ADC_MAX_RESOLUTION != ADC_RESOLUTION_12)
 229:Generated_Source\PSoC4/ADC.c ****         ADC_WOUNDING_REG = ADC_ALT_WOUNDING;
 230:Generated_Source\PSoC4/ADC.c ****     #endif /* ADC_MAX_RESOLUTION != ADC_RESOLUTION_12 */
 231:Generated_Source\PSoC4/ADC.c **** 
 232:Generated_Source\PSoC4/ADC.c ****     for(chNum = 0u; chNum < ADC_TOTAL_CHANNELS_NUM; chNum++)
 184              		.loc 1 232 0 discriminator 4
 185 0088 0023     		movs	r3, #0
 186 008a FB60     		str	r3, [r7, #12]
 187 008c 60E0     		b	.L8
 188              	.L16:
 233:Generated_Source\PSoC4/ADC.c ****     {
 234:Generated_Source\PSoC4/ADC.c ****         tmpRegVal = (ADC_channelsConfig[chNum] & ADC_CHANNEL_CONFIG_MASK);
 189              		.loc 1 234 0
 190 008e 8023     		movs	r3, #128
 191 0090 5A00     		lsls	r2, r3, #1
 192 0092 DC23     		movs	r3, #220
 193 0094 9B01     		lsls	r3, r3, #6
 194 0096 1340     		ands	r3, r2
 195 0098 7B60     		str	r3, [r7, #4]
 235:Generated_Source\PSoC4/ADC.c ****         #if(ADC_TOTAL_CHANNELS_NUM > 1u)
 236:Generated_Source\PSoC4/ADC.c ****             tmpRegVal |= ADC_InputsPlacement[chNum];
 237:Generated_Source\PSoC4/ADC.c ****         #endif /* End ADC_TOTAL_CHANNELS_NUM > 1u */
 238:Generated_Source\PSoC4/ADC.c ****         
 239:Generated_Source\PSoC4/ADC.c ****         
 240:Generated_Source\PSoC4/ADC.c ****         /* When the part is limited to 10-bit then the SUB_RESOLUTION bit
 241:Generated_Source\PSoC4/ADC.c ****         *  will be ignored and the RESOLUTION bit selects between 10-bit
 242:Generated_Source\PSoC4/ADC.c ****         *  (0) and 8-bit (1) resolution.
 243:Generated_Source\PSoC4/ADC.c ****         */
 244:Generated_Source\PSoC4/ADC.c ****         #if((ADC_MAX_RESOLUTION != ADC_RESOLUTION_12) && \
 245:Generated_Source\PSoC4/ADC.c ****             (ADC_ALT_WOUNDING == ADC_WOUNDING_10BIT))
 246:Generated_Source\PSoC4/ADC.c ****             tmpRegVal &= (uint32)(~ADC_ALT_RESOLUTION_ON);
 247:Generated_Source\PSoC4/ADC.c ****         #endif /* ADC_MAX_RESOLUTION != ADC_RESOLUTION_12 */
 248:Generated_Source\PSoC4/ADC.c **** 
 249:Generated_Source\PSoC4/ADC.c ****         #if(ADC_INJ_CHANNEL_ENABLED)
 250:Generated_Source\PSoC4/ADC.c ****         if(chNum < ADC_SEQUENCED_CHANNELS_NUM)
 251:Generated_Source\PSoC4/ADC.c ****         #endif /* ADC_INJ_CHANNEL_ENABLED */
 252:Generated_Source\PSoC4/ADC.c ****         {
 253:Generated_Source\PSoC4/ADC.c ****             CY_SET_REG32((reg32 *)(ADC_SAR_CHAN_CONFIG_IND + (uint32)(chNum << 2)), tmpRegVal);
 196              		.loc 1 253 0
 197 009a FB68     		ldr	r3, [r7, #12]
 198 009c 9B00     		lsls	r3, r3, #2
 199 009e 454A     		ldr	r2, .L17+84
ARM GAS  C:\Users\EDULU~1.DES\AppData\Local\Temp\ccpYHLly.s 			page 9


 200 00a0 9446     		mov	ip, r2
 201 00a2 6344     		add	r3, r3, ip
 202 00a4 7A68     		ldr	r2, [r7, #4]
 203 00a6 1A60     		str	r2, [r3]
 254:Generated_Source\PSoC4/ADC.c **** 
 255:Generated_Source\PSoC4/ADC.c ****             if((ADC_channelsConfig[chNum] & ADC_IS_SATURATE_EN_MASK) != 0u)
 204              		.loc 1 255 0
 205 00a8 8023     		movs	r3, #128
 206 00aa 5B00     		lsls	r3, r3, #1
 207 00ac 0122     		movs	r2, #1
 208 00ae 1340     		ands	r3, r2
 209 00b0 0AD0     		beq	.L9
 256:Generated_Source\PSoC4/ADC.c ****             {
 257:Generated_Source\PSoC4/ADC.c ****                 ADC_SAR_SATURATE_INTR_MASK_REG |= (uint16)((uint16)1 << chNum);
 210              		.loc 1 257 0
 211 00b2 3A4B     		ldr	r3, .L17+60
 212 00b4 394A     		ldr	r2, .L17+60
 213 00b6 1168     		ldr	r1, [r2]
 214 00b8 0120     		movs	r0, #1
 215 00ba FA68     		ldr	r2, [r7, #12]
 216 00bc 9040     		lsls	r0, r0, r2
 217 00be 0200     		movs	r2, r0
 218 00c0 1204     		lsls	r2, r2, #16
 219 00c2 120C     		lsrs	r2, r2, #16
 220 00c4 0A43     		orrs	r2, r1
 221 00c6 1A60     		str	r2, [r3]
 222              	.L9:
 258:Generated_Source\PSoC4/ADC.c ****             }
 259:Generated_Source\PSoC4/ADC.c **** 
 260:Generated_Source\PSoC4/ADC.c ****             if((ADC_channelsConfig[chNum] & ADC_IS_RANGE_CTRL_EN_MASK) != 0u)
 223              		.loc 1 260 0
 224 00c8 8023     		movs	r3, #128
 225 00ca 5B00     		lsls	r3, r3, #1
 226 00cc 0222     		movs	r2, #2
 227 00ce 1340     		ands	r3, r2
 228 00d0 0AD0     		beq	.L10
 261:Generated_Source\PSoC4/ADC.c ****             {
 262:Generated_Source\PSoC4/ADC.c ****                 ADC_SAR_RANGE_INTR_MASK_REG |= (uint16)((uint16)1 << chNum);
 229              		.loc 1 262 0
 230 00d2 334B     		ldr	r3, .L17+64
 231 00d4 324A     		ldr	r2, .L17+64
 232 00d6 1168     		ldr	r1, [r2]
 233 00d8 0120     		movs	r0, #1
 234 00da FA68     		ldr	r2, [r7, #12]
 235 00dc 9040     		lsls	r0, r0, r2
 236 00de 0200     		movs	r2, r0
 237 00e0 1204     		lsls	r2, r2, #16
 238 00e2 120C     		lsrs	r2, r2, #16
 239 00e4 0A43     		orrs	r2, r1
 240 00e6 1A60     		str	r2, [r3]
 241              	.L10:
 263:Generated_Source\PSoC4/ADC.c ****             }
 264:Generated_Source\PSoC4/ADC.c ****         }
 265:Generated_Source\PSoC4/ADC.c ****         #if(ADC_INJ_CHANNEL_ENABLED)
 266:Generated_Source\PSoC4/ADC.c ****             else
 267:Generated_Source\PSoC4/ADC.c ****             {
 268:Generated_Source\PSoC4/ADC.c ****                 CY_SET_REG32(ADC_SAR_INJ_CHAN_CONFIG_PTR, tmpRegVal | ADC_INJ_TAILGATING);
ARM GAS  C:\Users\EDULU~1.DES\AppData\Local\Temp\ccpYHLly.s 			page 10


 269:Generated_Source\PSoC4/ADC.c **** 
 270:Generated_Source\PSoC4/ADC.c ****                 if((ADC_channelsConfig[chNum] & ADC_IS_SATURATE_EN_MASK) != 0u)
 271:Generated_Source\PSoC4/ADC.c ****                 {
 272:Generated_Source\PSoC4/ADC.c ****                     ADC_SAR_INTR_MASK_REG |= ADC_INJ_SATURATE_MASK;
 273:Generated_Source\PSoC4/ADC.c ****                 }
 274:Generated_Source\PSoC4/ADC.c **** 
 275:Generated_Source\PSoC4/ADC.c ****                 if((ADC_channelsConfig[chNum] & ADC_IS_RANGE_CTRL_EN_MASK) != 0u)
 276:Generated_Source\PSoC4/ADC.c ****                 {
 277:Generated_Source\PSoC4/ADC.c ****                     ADC_SAR_INTR_MASK_REG |= ADC_INJ_RANGE_MASK;
 278:Generated_Source\PSoC4/ADC.c ****                 }
 279:Generated_Source\PSoC4/ADC.c ****             }
 280:Generated_Source\PSoC4/ADC.c ****         #endif /* ADC_INJ_CHANNEL_ENABLED */
 281:Generated_Source\PSoC4/ADC.c **** 
 282:Generated_Source\PSoC4/ADC.c ****         if((ADC_channelsConfig[chNum] & ADC_ALT_RESOLUTION_ON) != 0u)
 242              		.loc 1 282 0
 243 00e8 8023     		movs	r3, #128
 244 00ea 5A00     		lsls	r2, r3, #1
 245 00ec 8023     		movs	r3, #128
 246 00ee 9B00     		lsls	r3, r3, #2
 247 00f0 1340     		ands	r3, r2
 248 00f2 03D0     		beq	.L11
 283:Generated_Source\PSoC4/ADC.c ****         {
 284:Generated_Source\PSoC4/ADC.c ****                counts = (int32)ADC_DEFAULT_MAX_WRK_ALT;
 249              		.loc 1 284 0
 250 00f4 8023     		movs	r3, #128
 251 00f6 5B00     		lsls	r3, r3, #1
 252 00f8 BB60     		str	r3, [r7, #8]
 253 00fa 02E0     		b	.L12
 254              	.L11:
 285:Generated_Source\PSoC4/ADC.c ****         }
 286:Generated_Source\PSoC4/ADC.c ****         else
 287:Generated_Source\PSoC4/ADC.c ****         {
 288:Generated_Source\PSoC4/ADC.c ****                counts = (int32)ADC_SAR_WRK_MAX_12BIT;
 255              		.loc 1 288 0
 256 00fc 8023     		movs	r3, #128
 257 00fe 5B01     		lsls	r3, r3, #5
 258 0100 BB60     		str	r3, [r7, #8]
 259              	.L12:
 289:Generated_Source\PSoC4/ADC.c ****         }
 290:Generated_Source\PSoC4/ADC.c **** 
 291:Generated_Source\PSoC4/ADC.c ****         if((ADC_channelsConfig[chNum] & ADC_DIFFERENTIAL_EN) == 0u)
 260              		.loc 1 291 0
 261 0102 8023     		movs	r3, #128
 262 0104 5A00     		lsls	r2, r3, #1
 263 0106 8023     		movs	r3, #128
 264 0108 5B00     		lsls	r3, r3, #1
 265 010a 1340     		ands	r3, r2
 266 010c 05D1     		bne	.L13
 292:Generated_Source\PSoC4/ADC.c ****         {
 293:Generated_Source\PSoC4/ADC.c ****             #if((ADC_DEFAULT_SE_RESULT_FORMAT_SEL == ADC__FSIGNED) && \
 294:Generated_Source\PSoC4/ADC.c ****                 (ADC_DEFAULT_NEG_INPUT_SEL == ADC__VREF))
 295:Generated_Source\PSoC4/ADC.c ****                 /* Set offset to the minus half scale to convert results to unsigned format */
 296:Generated_Source\PSoC4/ADC.c ****                 ADC_offset[chNum] = (int16)(counts / -2);
 297:Generated_Source\PSoC4/ADC.c ****             #else
 298:Generated_Source\PSoC4/ADC.c ****                 ADC_offset[chNum] = 0;
 267              		.loc 1 298 0
 268 010e 2A4B     		ldr	r3, .L17+88
ARM GAS  C:\Users\EDULU~1.DES\AppData\Local\Temp\ccpYHLly.s 			page 11


 269 0110 FA68     		ldr	r2, [r7, #12]
 270 0112 5200     		lsls	r2, r2, #1
 271 0114 0021     		movs	r1, #0
 272 0116 D152     		strh	r1, [r2, r3]
 273 0118 04E0     		b	.L14
 274              	.L13:
 299:Generated_Source\PSoC4/ADC.c ****             #endif /* end DEFAULT_SE_RESULT_FORMAT_SEL == ADC__FSIGNED */
 300:Generated_Source\PSoC4/ADC.c ****         }
 301:Generated_Source\PSoC4/ADC.c ****         else    /* Differential channel */
 302:Generated_Source\PSoC4/ADC.c ****         {
 303:Generated_Source\PSoC4/ADC.c ****             #if(ADC_DEFAULT_DIFF_RESULT_FORMAT_SEL == ADC__FUNSIGNED)
 304:Generated_Source\PSoC4/ADC.c ****                 /* Set offset to the half scale to convert results to signed format */
 305:Generated_Source\PSoC4/ADC.c ****                 ADC_offset[chNum] = (int16)(counts / 2);
 306:Generated_Source\PSoC4/ADC.c ****             #else
 307:Generated_Source\PSoC4/ADC.c ****                 ADC_offset[chNum] = 0;
 275              		.loc 1 307 0
 276 011a 274B     		ldr	r3, .L17+88
 277 011c FA68     		ldr	r2, [r7, #12]
 278 011e 5200     		lsls	r2, r2, #1
 279 0120 0021     		movs	r1, #0
 280 0122 D152     		strh	r1, [r2, r3]
 281              	.L14:
 308:Generated_Source\PSoC4/ADC.c ****             #endif /* end ADC_DEFAULT_DIFF_RESULT_FORMAT_SEL == ADC__FUNSIGNED */
 309:Generated_Source\PSoC4/ADC.c ****         }
 310:Generated_Source\PSoC4/ADC.c ****         /* Calculate gain in counts per 10 volts with rounding */
 311:Generated_Source\PSoC4/ADC.c ****         ADC_countsPer10Volt[chNum] = (int16)(((counts * ADC_10MV_COUNTS) +
 282              		.loc 1 311 0 discriminator 2
 283 0124 BB68     		ldr	r3, [r7, #8]
 284 0126 254A     		ldr	r2, .L17+92
 285 0128 5343     		muls	r3, r2
 286 012a 8022     		movs	r2, #128
 287 012c D200     		lsls	r2, r2, #3
 288 012e 9446     		mov	ip, r2
 289 0130 6344     		add	r3, r3, ip
 312:Generated_Source\PSoC4/ADC.c ****                             ADC_DEFAULT_VREF_MV_VALUE) / (ADC_DEFAULT_VREF_MV_VALUE * 2));
 290              		.loc 1 312 0 discriminator 2
 291 0132 002B     		cmp	r3, #0
 292 0134 02DA     		bge	.L15
 293 0136 224A     		ldr	r2, .L17+96
 294 0138 9446     		mov	ip, r2
 295 013a 6344     		add	r3, r3, ip
 296              	.L15:
 297 013c DB12     		asrs	r3, r3, #11
 311:Generated_Source\PSoC4/ADC.c ****                             ADC_DEFAULT_VREF_MV_VALUE) / (ADC_DEFAULT_VREF_MV_VALUE * 2));
 298              		.loc 1 311 0 discriminator 2
 299 013e 1BB2     		sxth	r3, r3
 300 0140 1900     		movs	r1, r3
 301 0142 204B     		ldr	r3, .L17+100
 302 0144 FA68     		ldr	r2, [r7, #12]
 303 0146 9200     		lsls	r2, r2, #2
 304 0148 D150     		str	r1, [r2, r3]
 232:Generated_Source\PSoC4/ADC.c ****     {
 305              		.loc 1 232 0 discriminator 2
 306 014a FB68     		ldr	r3, [r7, #12]
 307 014c 0133     		adds	r3, r3, #1
 308 014e FB60     		str	r3, [r7, #12]
 309              	.L8:
ARM GAS  C:\Users\EDULU~1.DES\AppData\Local\Temp\ccpYHLly.s 			page 12


 232:Generated_Source\PSoC4/ADC.c ****     {
 310              		.loc 1 232 0 is_stmt 0 discriminator 1
 311 0150 FB68     		ldr	r3, [r7, #12]
 312 0152 002B     		cmp	r3, #0
 313 0154 9BD0     		beq	.L16
 313:Generated_Source\PSoC4/ADC.c ****     }
 314:Generated_Source\PSoC4/ADC.c **** }
 314              		.loc 1 314 0 is_stmt 1
 315 0156 C046     		nop
 316 0158 BD46     		mov	sp, r7
 317 015a 04B0     		add	sp, sp, #16
 318              		@ sp needed
 319 015c 80BD     		pop	{r7, pc}
 320              	.L18:
 321 015e C046     		.align	2
 322              	.L17:
 323 0160 00000000 		.word	ADC_ISR
 324 0164 20001A40 		.word	1075445792
 325 0168 80031A40 		.word	1075446656
 326 016c 40021053 		.word	1393558080
 327 0170 40020053 		.word	1392509504
 328 0174 00001A40 		.word	1075445760
 329 0178 04001A40 		.word	1075445764
 330 017c 8C000080 		.word	-2147483508
 331 0180 18001A40 		.word	1075445784
 332 0184 0000FF07 		.word	134152192
 333 0188 1C001A40 		.word	1075445788
 334 018c 10001A40 		.word	1075445776
 335 0190 F4010200 		.word	131572
 336 0194 14001A40 		.word	1075445780
 337 0198 02000200 		.word	131074
 338 019c 28021A40 		.word	1075446312
 339 01a0 38021A40 		.word	1075446328
 340 01a4 18021A40 		.word	1075446296
 341 01a8 000F1A40 		.word	1075449600
 342 01ac 30001A40 		.word	1075445808
 343 01b0 FFFFFFDF 		.word	-536870913
 344 01b4 80001A40 		.word	1075445888
 345 01b8 00000000 		.word	ADC_offset
 346 01bc 10270000 		.word	10000
 347 01c0 FF070000 		.word	2047
 348 01c4 00000000 		.word	ADC_countsPer10Volt
 349              		.cfi_endproc
 350              	.LFE1:
 351              		.size	ADC_Init, .-ADC_Init
 352              		.section	.text.ADC_Enable,"ax",%progbits
 353              		.align	2
 354              		.global	ADC_Enable
 355              		.code	16
 356              		.thumb_func
 357              		.type	ADC_Enable, %function
 358              	ADC_Enable:
 359              	.LFB2:
 315:Generated_Source\PSoC4/ADC.c **** 
 316:Generated_Source\PSoC4/ADC.c **** /*******************************************************************************
 317:Generated_Source\PSoC4/ADC.c **** * Function Name: ADC_SAR_1_Enable
 318:Generated_Source\PSoC4/ADC.c **** ********************************************************************************
ARM GAS  C:\Users\EDULU~1.DES\AppData\Local\Temp\ccpYHLly.s 			page 13


 319:Generated_Source\PSoC4/ADC.c **** *
 320:Generated_Source\PSoC4/ADC.c **** * Summary:
 321:Generated_Source\PSoC4/ADC.c **** *  Enables the clock and analog power for SAR ADC.
 322:Generated_Source\PSoC4/ADC.c **** *
 323:Generated_Source\PSoC4/ADC.c **** * Parameters:
 324:Generated_Source\PSoC4/ADC.c **** *  None.
 325:Generated_Source\PSoC4/ADC.c **** *
 326:Generated_Source\PSoC4/ADC.c **** * Return:
 327:Generated_Source\PSoC4/ADC.c **** *  None.
 328:Generated_Source\PSoC4/ADC.c **** *
 329:Generated_Source\PSoC4/ADC.c **** *******************************************************************************/
 330:Generated_Source\PSoC4/ADC.c **** void ADC_Enable(void)
 331:Generated_Source\PSoC4/ADC.c **** {
 360              		.loc 1 331 0
 361              		.cfi_startproc
 362              		@ args = 0, pretend = 0, frame = 0
 363              		@ frame_needed = 1, uses_anonymous_args = 0
 364 0000 80B5     		push	{r7, lr}
 365              		.cfi_def_cfa_offset 8
 366              		.cfi_offset 7, -8
 367              		.cfi_offset 14, -4
 368 0002 00AF     		add	r7, sp, #0
 369              		.cfi_def_cfa_register 7
 332:Generated_Source\PSoC4/ADC.c ****     if (0u == (ADC_SAR_CTRL_REG & ADC_ENABLE))
 370              		.loc 1 332 0
 371 0004 084B     		ldr	r3, .L22
 372 0006 1B68     		ldr	r3, [r3]
 373 0008 002B     		cmp	r3, #0
 374 000a 09DB     		blt	.L21
 333:Generated_Source\PSoC4/ADC.c ****     {
 334:Generated_Source\PSoC4/ADC.c ****         #if(ADC_CY_SAR_IP_VER != ADC_CY_SAR_IP_VER0)
 335:Generated_Source\PSoC4/ADC.c **** 
 336:Generated_Source\PSoC4/ADC.c ****             while (0u != (ADC_SAR_STATUS_REG & ADC_STATUS_BUSY))
 337:Generated_Source\PSoC4/ADC.c ****             {
 338:Generated_Source\PSoC4/ADC.c ****                 /* wait for SAR to go idle to avoid deadlock */
 339:Generated_Source\PSoC4/ADC.c ****             }
 340:Generated_Source\PSoC4/ADC.c ****         #endif /* (ADC_CY_SAR_IP_VER != ADC_CY_SAR_IP_VER0) */
 341:Generated_Source\PSoC4/ADC.c ****         
 342:Generated_Source\PSoC4/ADC.c ****         ADC_SAR_CTRL_REG |= ADC_ENABLE;
 375              		.loc 1 342 0
 376 000c 064B     		ldr	r3, .L22
 377 000e 064A     		ldr	r2, .L22
 378 0010 1268     		ldr	r2, [r2]
 379 0012 8021     		movs	r1, #128
 380 0014 0906     		lsls	r1, r1, #24
 381 0016 0A43     		orrs	r2, r1
 382 0018 1A60     		str	r2, [r3]
 343:Generated_Source\PSoC4/ADC.c ****         
 344:Generated_Source\PSoC4/ADC.c ****         /* The block is ready to use 10 us after the enable signal is set high. */
 345:Generated_Source\PSoC4/ADC.c ****         CyDelayUs(ADC_10US_DELAY);         
 383              		.loc 1 345 0
 384 001a 0A20     		movs	r0, #10
 385 001c FFF7FEFF 		bl	CyDelayUs
 386              	.L21:
 346:Generated_Source\PSoC4/ADC.c ****     }
 347:Generated_Source\PSoC4/ADC.c **** }
 387              		.loc 1 347 0
ARM GAS  C:\Users\EDULU~1.DES\AppData\Local\Temp\ccpYHLly.s 			page 14


 388 0020 C046     		nop
 389 0022 BD46     		mov	sp, r7
 390              		@ sp needed
 391 0024 80BD     		pop	{r7, pc}
 392              	.L23:
 393 0026 C046     		.align	2
 394              	.L22:
 395 0028 00001A40 		.word	1075445760
 396              		.cfi_endproc
 397              	.LFE2:
 398              		.size	ADC_Enable, .-ADC_Enable
 399              		.section	.text.ADC_Stop,"ax",%progbits
 400              		.align	2
 401              		.global	ADC_Stop
 402              		.code	16
 403              		.thumb_func
 404              		.type	ADC_Stop, %function
 405              	ADC_Stop:
 406              	.LFB3:
 348:Generated_Source\PSoC4/ADC.c **** 
 349:Generated_Source\PSoC4/ADC.c **** 
 350:Generated_Source\PSoC4/ADC.c **** /*******************************************************************************
 351:Generated_Source\PSoC4/ADC.c **** * Function Name: ADC_Stop
 352:Generated_Source\PSoC4/ADC.c **** ********************************************************************************
 353:Generated_Source\PSoC4/ADC.c **** *
 354:Generated_Source\PSoC4/ADC.c **** * Summary:
 355:Generated_Source\PSoC4/ADC.c **** *  This function stops ADC conversions and puts the ADC into its lowest power
 356:Generated_Source\PSoC4/ADC.c **** *  mode.
 357:Generated_Source\PSoC4/ADC.c **** *
 358:Generated_Source\PSoC4/ADC.c **** * Parameters:
 359:Generated_Source\PSoC4/ADC.c **** *  None.
 360:Generated_Source\PSoC4/ADC.c **** *
 361:Generated_Source\PSoC4/ADC.c **** * Return:
 362:Generated_Source\PSoC4/ADC.c **** *  None.
 363:Generated_Source\PSoC4/ADC.c **** *
 364:Generated_Source\PSoC4/ADC.c **** *******************************************************************************/
 365:Generated_Source\PSoC4/ADC.c **** void ADC_Stop(void)
 366:Generated_Source\PSoC4/ADC.c **** {
 407              		.loc 1 366 0
 408              		.cfi_startproc
 409              		@ args = 0, pretend = 0, frame = 0
 410              		@ frame_needed = 1, uses_anonymous_args = 0
 411 0000 80B5     		push	{r7, lr}
 412              		.cfi_def_cfa_offset 8
 413              		.cfi_offset 7, -8
 414              		.cfi_offset 14, -4
 415 0002 00AF     		add	r7, sp, #0
 416              		.cfi_def_cfa_register 7
 367:Generated_Source\PSoC4/ADC.c ****     ADC_SAR_CTRL_REG &= (uint32)~ADC_ENABLE;
 417              		.loc 1 367 0
 418 0004 044B     		ldr	r3, .L25
 419 0006 044A     		ldr	r2, .L25
 420 0008 1268     		ldr	r2, [r2]
 421 000a 5200     		lsls	r2, r2, #1
 422 000c 5208     		lsrs	r2, r2, #1
 423 000e 1A60     		str	r2, [r3]
 368:Generated_Source\PSoC4/ADC.c **** }
ARM GAS  C:\Users\EDULU~1.DES\AppData\Local\Temp\ccpYHLly.s 			page 15


 424              		.loc 1 368 0
 425 0010 C046     		nop
 426 0012 BD46     		mov	sp, r7
 427              		@ sp needed
 428 0014 80BD     		pop	{r7, pc}
 429              	.L26:
 430 0016 C046     		.align	2
 431              	.L25:
 432 0018 00001A40 		.word	1075445760
 433              		.cfi_endproc
 434              	.LFE3:
 435              		.size	ADC_Stop, .-ADC_Stop
 436              		.section	.text.ADC_StartConvert,"ax",%progbits
 437              		.align	2
 438              		.global	ADC_StartConvert
 439              		.code	16
 440              		.thumb_func
 441              		.type	ADC_StartConvert, %function
 442              	ADC_StartConvert:
 443              	.LFB4:
 369:Generated_Source\PSoC4/ADC.c **** 
 370:Generated_Source\PSoC4/ADC.c **** 
 371:Generated_Source\PSoC4/ADC.c **** /*******************************************************************************
 372:Generated_Source\PSoC4/ADC.c **** * Function Name: ADC_StartConvert
 373:Generated_Source\PSoC4/ADC.c **** ********************************************************************************
 374:Generated_Source\PSoC4/ADC.c **** *
 375:Generated_Source\PSoC4/ADC.c **** * Summary:
 376:Generated_Source\PSoC4/ADC.c **** *  Description:
 377:Generated_Source\PSoC4/ADC.c **** *  For free running mode, this API starts the conversion process and it
 378:Generated_Source\PSoC4/ADC.c **** *  runs continuously.
 379:Generated_Source\PSoC4/ADC.c **** *
 380:Generated_Source\PSoC4/ADC.c **** *  In a triggered mode, this routine triggers every conversion by
 381:Generated_Source\PSoC4/ADC.c **** *  writing into the FW_TRIGGER bit in SAR_START_CTRL reg. In triggered mode,
 382:Generated_Source\PSoC4/ADC.c **** *  every conversion has to start by this API.
 383:Generated_Source\PSoC4/ADC.c **** *
 384:Generated_Source\PSoC4/ADC.c **** * Parameters:
 385:Generated_Source\PSoC4/ADC.c **** *  None.
 386:Generated_Source\PSoC4/ADC.c **** *
 387:Generated_Source\PSoC4/ADC.c **** * Return:
 388:Generated_Source\PSoC4/ADC.c **** *  None.
 389:Generated_Source\PSoC4/ADC.c **** *
 390:Generated_Source\PSoC4/ADC.c **** *******************************************************************************/
 391:Generated_Source\PSoC4/ADC.c **** void ADC_StartConvert(void)
 392:Generated_Source\PSoC4/ADC.c **** {
 444              		.loc 1 392 0
 445              		.cfi_startproc
 446              		@ args = 0, pretend = 0, frame = 0
 447              		@ frame_needed = 1, uses_anonymous_args = 0
 448 0000 80B5     		push	{r7, lr}
 449              		.cfi_def_cfa_offset 8
 450              		.cfi_offset 7, -8
 451              		.cfi_offset 14, -4
 452 0002 00AF     		add	r7, sp, #0
 453              		.cfi_def_cfa_register 7
 393:Generated_Source\PSoC4/ADC.c ****     #if(ADC_DEFAULT_SAMPLE_MODE_SEL == ADC__FREERUNNING)
 394:Generated_Source\PSoC4/ADC.c ****         ADC_SAR_SAMPLE_CTRL_REG |= ADC_CONTINUOUS_EN;
 454              		.loc 1 394 0
ARM GAS  C:\Users\EDULU~1.DES\AppData\Local\Temp\ccpYHLly.s 			page 16


 455 0004 044B     		ldr	r3, .L28
 456 0006 044A     		ldr	r2, .L28
 457 0008 1268     		ldr	r2, [r2]
 458 000a 8021     		movs	r1, #128
 459 000c 4902     		lsls	r1, r1, #9
 460 000e 0A43     		orrs	r2, r1
 461 0010 1A60     		str	r2, [r3]
 395:Generated_Source\PSoC4/ADC.c ****     #else /* Firmware trigger */
 396:Generated_Source\PSoC4/ADC.c ****         ADC_SAR_START_CTRL_REG = ADC_FW_TRIGGER;
 397:Generated_Source\PSoC4/ADC.c ****     #endif /* End ADC_DEFAULT_SAMPLE_MODE == ADC__FREERUNNING */
 398:Generated_Source\PSoC4/ADC.c **** 
 399:Generated_Source\PSoC4/ADC.c **** }
 462              		.loc 1 399 0
 463 0012 C046     		nop
 464 0014 BD46     		mov	sp, r7
 465              		@ sp needed
 466 0016 80BD     		pop	{r7, pc}
 467              	.L29:
 468              		.align	2
 469              	.L28:
 470 0018 04001A40 		.word	1075445764
 471              		.cfi_endproc
 472              	.LFE4:
 473              		.size	ADC_StartConvert, .-ADC_StartConvert
 474              		.section	.text.ADC_StopConvert,"ax",%progbits
 475              		.align	2
 476              		.global	ADC_StopConvert
 477              		.code	16
 478              		.thumb_func
 479              		.type	ADC_StopConvert, %function
 480              	ADC_StopConvert:
 481              	.LFB5:
 400:Generated_Source\PSoC4/ADC.c **** 
 401:Generated_Source\PSoC4/ADC.c **** 
 402:Generated_Source\PSoC4/ADC.c **** /*******************************************************************************
 403:Generated_Source\PSoC4/ADC.c **** * Function Name: ADC_StopConvert
 404:Generated_Source\PSoC4/ADC.c **** ********************************************************************************
 405:Generated_Source\PSoC4/ADC.c **** *
 406:Generated_Source\PSoC4/ADC.c **** * Summary:
 407:Generated_Source\PSoC4/ADC.c **** *  Forces the ADC to stop all conversions.
 408:Generated_Source\PSoC4/ADC.c **** *
 409:Generated_Source\PSoC4/ADC.c **** * Parameters:
 410:Generated_Source\PSoC4/ADC.c **** *  None.
 411:Generated_Source\PSoC4/ADC.c **** *
 412:Generated_Source\PSoC4/ADC.c **** * Return:
 413:Generated_Source\PSoC4/ADC.c **** *  None.
 414:Generated_Source\PSoC4/ADC.c **** *
 415:Generated_Source\PSoC4/ADC.c **** *******************************************************************************/
 416:Generated_Source\PSoC4/ADC.c **** void ADC_StopConvert(void)
 417:Generated_Source\PSoC4/ADC.c **** {
 482              		.loc 1 417 0
 483              		.cfi_startproc
 484              		@ args = 0, pretend = 0, frame = 0
 485              		@ frame_needed = 1, uses_anonymous_args = 0
 486 0000 80B5     		push	{r7, lr}
 487              		.cfi_def_cfa_offset 8
 488              		.cfi_offset 7, -8
ARM GAS  C:\Users\EDULU~1.DES\AppData\Local\Temp\ccpYHLly.s 			page 17


 489              		.cfi_offset 14, -4
 490 0002 00AF     		add	r7, sp, #0
 491              		.cfi_def_cfa_register 7
 418:Generated_Source\PSoC4/ADC.c ****     #if(ADC_DEFAULT_SAMPLE_MODE_SEL == ADC__FREERUNNING)
 419:Generated_Source\PSoC4/ADC.c ****         ADC_SAR_SAMPLE_CTRL_REG &= (uint32)(~ADC_CONTINUOUS_EN);
 492              		.loc 1 419 0
 493 0004 044B     		ldr	r3, .L31
 494 0006 044A     		ldr	r2, .L31
 495 0008 1268     		ldr	r2, [r2]
 496 000a 0449     		ldr	r1, .L31+4
 497 000c 0A40     		ands	r2, r1
 498 000e 1A60     		str	r2, [r3]
 420:Generated_Source\PSoC4/ADC.c ****     #endif /* ADC_DEFAULT_SAMPLE_MODE == ADC__FREERUNNING */
 421:Generated_Source\PSoC4/ADC.c **** }
 499              		.loc 1 421 0
 500 0010 C046     		nop
 501 0012 BD46     		mov	sp, r7
 502              		@ sp needed
 503 0014 80BD     		pop	{r7, pc}
 504              	.L32:
 505 0016 C046     		.align	2
 506              	.L31:
 507 0018 04001A40 		.word	1075445764
 508 001c FFFFFEFF 		.word	-65537
 509              		.cfi_endproc
 510              	.LFE5:
 511              		.size	ADC_StopConvert, .-ADC_StopConvert
 512              		.section	.text.ADC_IsEndConversion,"ax",%progbits
 513              		.align	2
 514              		.global	ADC_IsEndConversion
 515              		.code	16
 516              		.thumb_func
 517              		.type	ADC_IsEndConversion, %function
 518              	ADC_IsEndConversion:
 519              	.LFB6:
 422:Generated_Source\PSoC4/ADC.c **** 
 423:Generated_Source\PSoC4/ADC.c **** 
 424:Generated_Source\PSoC4/ADC.c **** /*******************************************************************************
 425:Generated_Source\PSoC4/ADC.c **** * Function Name: ADC_IsEndConversion
 426:Generated_Source\PSoC4/ADC.c **** ********************************************************************************
 427:Generated_Source\PSoC4/ADC.c **** *
 428:Generated_Source\PSoC4/ADC.c **** * Summary:
 429:Generated_Source\PSoC4/ADC.c **** *  Description: Checks for ADC end of conversion for the case one
 430:Generated_Source\PSoC4/ADC.c **** *  channel and end of scan for the case of multiple channels. It acts
 431:Generated_Source\PSoC4/ADC.c **** *  as a software version of the EOC. This function provides the
 432:Generated_Source\PSoC4/ADC.c **** *  programmer with two options. In one mode this function
 433:Generated_Source\PSoC4/ADC.c **** *  immediately returns with the conversion status. In the other mode,
 434:Generated_Source\PSoC4/ADC.c **** *  the function does not return (blocking) until the conversion has
 435:Generated_Source\PSoC4/ADC.c **** *  completed.
 436:Generated_Source\PSoC4/ADC.c **** *
 437:Generated_Source\PSoC4/ADC.c **** * Parameters:
 438:Generated_Source\PSoC4/ADC.c **** *  ADC_RETURN_STATUS        -> Immediately returns conversion result status
 439:Generated_Source\PSoC4/ADC.c **** *  ADC_WAIT_FOR_RESULT      -> Does not return until ADC complete
 440:Generated_Source\PSoC4/ADC.c **** *  ADC_RETURN_STATUS_INJ    -> Immediately returns conversion result status
 441:Generated_Source\PSoC4/ADC.c **** *                              for injection channel
 442:Generated_Source\PSoC4/ADC.c **** *  ADC_WAIT_FOR_RESULT_INJ  -> Does not return until ADC completes injection
 443:Generated_Source\PSoC4/ADC.c **** *                              channel conversion
ARM GAS  C:\Users\EDULU~1.DES\AppData\Local\Temp\ccpYHLly.s 			page 18


 444:Generated_Source\PSoC4/ADC.c **** *
 445:Generated_Source\PSoC4/ADC.c **** * Return:
 446:Generated_Source\PSoC4/ADC.c **** *  If a non-zero value is returned, the last conversion or scan has completed.
 447:Generated_Source\PSoC4/ADC.c **** *  If the returned value is zero, the ADC is still in the process of a scan.
 448:Generated_Source\PSoC4/ADC.c **** *
 449:Generated_Source\PSoC4/ADC.c **** *******************************************************************************/
 450:Generated_Source\PSoC4/ADC.c **** uint32 ADC_IsEndConversion(uint32 retMode)
 451:Generated_Source\PSoC4/ADC.c **** {
 520              		.loc 1 451 0
 521              		.cfi_startproc
 522              		@ args = 0, pretend = 0, frame = 16
 523              		@ frame_needed = 1, uses_anonymous_args = 0
 524 0000 80B5     		push	{r7, lr}
 525              		.cfi_def_cfa_offset 8
 526              		.cfi_offset 7, -8
 527              		.cfi_offset 14, -4
 528 0002 84B0     		sub	sp, sp, #16
 529              		.cfi_def_cfa_offset 24
 530 0004 00AF     		add	r7, sp, #0
 531              		.cfi_def_cfa_register 7
 532 0006 7860     		str	r0, [r7, #4]
 452:Generated_Source\PSoC4/ADC.c ****     uint32 status = 0u;
 533              		.loc 1 452 0
 534 0008 0023     		movs	r3, #0
 535 000a FB60     		str	r3, [r7, #12]
 453:Generated_Source\PSoC4/ADC.c **** 
 454:Generated_Source\PSoC4/ADC.c ****     if((retMode & (ADC_RETURN_STATUS | ADC_WAIT_FOR_RESULT)) != 0u)
 536              		.loc 1 454 0
 537 000c 7B68     		ldr	r3, [r7, #4]
 538 000e 0322     		movs	r2, #3
 539 0010 1340     		ands	r3, r2
 540 0012 11D0     		beq	.L34
 541              	.L36:
 455:Generated_Source\PSoC4/ADC.c ****     {
 456:Generated_Source\PSoC4/ADC.c ****         do
 457:Generated_Source\PSoC4/ADC.c ****         {
 458:Generated_Source\PSoC4/ADC.c ****             status = ADC_SAR_INTR_REG & ADC_EOS_MASK;
 542              		.loc 1 458 0 discriminator 2
 543 0014 0B4B     		ldr	r3, .L38
 544 0016 1B68     		ldr	r3, [r3]
 545 0018 0122     		movs	r2, #1
 546 001a 1340     		ands	r3, r2
 547 001c FB60     		str	r3, [r7, #12]
 459:Generated_Source\PSoC4/ADC.c ****         }while((status == 0u) && ((retMode & ADC_WAIT_FOR_RESULT) != 0u));
 548              		.loc 1 459 0 discriminator 2
 549 001e FB68     		ldr	r3, [r7, #12]
 550 0020 002B     		cmp	r3, #0
 551 0022 03D1     		bne	.L35
 552              		.loc 1 459 0 is_stmt 0 discriminator 1
 553 0024 7B68     		ldr	r3, [r7, #4]
 554 0026 0222     		movs	r2, #2
 555 0028 1340     		ands	r3, r2
 556 002a F3D1     		bne	.L36
 557              	.L35:
 460:Generated_Source\PSoC4/ADC.c **** 
 461:Generated_Source\PSoC4/ADC.c ****         if(status != 0u)
 558              		.loc 1 461 0 is_stmt 1
ARM GAS  C:\Users\EDULU~1.DES\AppData\Local\Temp\ccpYHLly.s 			page 19


 559 002c FB68     		ldr	r3, [r7, #12]
 560 002e 002B     		cmp	r3, #0
 561 0030 02D0     		beq	.L34
 462:Generated_Source\PSoC4/ADC.c ****         {
 463:Generated_Source\PSoC4/ADC.c ****             /* Clear EOS bit */
 464:Generated_Source\PSoC4/ADC.c ****             ADC_SAR_INTR_REG = ADC_EOS_MASK;
 562              		.loc 1 464 0
 563 0032 044B     		ldr	r3, .L38
 564 0034 0122     		movs	r2, #1
 565 0036 1A60     		str	r2, [r3]
 566              	.L34:
 465:Generated_Source\PSoC4/ADC.c ****         }
 466:Generated_Source\PSoC4/ADC.c ****     }
 467:Generated_Source\PSoC4/ADC.c **** 
 468:Generated_Source\PSoC4/ADC.c ****     #if(ADC_INJ_CHANNEL_ENABLED)
 469:Generated_Source\PSoC4/ADC.c ****         if((retMode & (ADC_RETURN_STATUS_INJ | ADC_WAIT_FOR_RESULT_INJ)) != 0u)
 470:Generated_Source\PSoC4/ADC.c ****         {
 471:Generated_Source\PSoC4/ADC.c ****             do
 472:Generated_Source\PSoC4/ADC.c ****             {
 473:Generated_Source\PSoC4/ADC.c ****                 status |= ADC_SAR_INTR_REG & ADC_INJ_EOC_MASK;
 474:Generated_Source\PSoC4/ADC.c ****             }while(((status & ADC_INJ_EOC_MASK) == 0u) &&
 475:Generated_Source\PSoC4/ADC.c ****                    ((retMode & ADC_WAIT_FOR_RESULT_INJ) != 0u));
 476:Generated_Source\PSoC4/ADC.c **** 
 477:Generated_Source\PSoC4/ADC.c ****             if((status & ADC_INJ_EOC_MASK) != 0u)
 478:Generated_Source\PSoC4/ADC.c ****             {
 479:Generated_Source\PSoC4/ADC.c ****                 /* Clear Injection EOS bit */
 480:Generated_Source\PSoC4/ADC.c ****                 ADC_SAR_INTR_REG = ADC_INJ_EOC_MASK;
 481:Generated_Source\PSoC4/ADC.c ****             }
 482:Generated_Source\PSoC4/ADC.c ****         }
 483:Generated_Source\PSoC4/ADC.c ****     #endif /* ADC_INJ_CHANNEL_ENABLED */
 484:Generated_Source\PSoC4/ADC.c **** 
 485:Generated_Source\PSoC4/ADC.c ****     return (status);
 567              		.loc 1 485 0
 568 0038 FB68     		ldr	r3, [r7, #12]
 486:Generated_Source\PSoC4/ADC.c **** }
 569              		.loc 1 486 0
 570 003a 1800     		movs	r0, r3
 571 003c BD46     		mov	sp, r7
 572 003e 04B0     		add	sp, sp, #16
 573              		@ sp needed
 574 0040 80BD     		pop	{r7, pc}
 575              	.L39:
 576 0042 C046     		.align	2
 577              	.L38:
 578 0044 10021A40 		.word	1075446288
 579              		.cfi_endproc
 580              	.LFE6:
 581              		.size	ADC_IsEndConversion, .-ADC_IsEndConversion
 582              		.section	.text.ADC_GetResult16,"ax",%progbits
 583              		.align	2
 584              		.global	ADC_GetResult16
 585              		.code	16
 586              		.thumb_func
 587              		.type	ADC_GetResult16, %function
 588              	ADC_GetResult16:
 589              	.LFB7:
 487:Generated_Source\PSoC4/ADC.c **** 
ARM GAS  C:\Users\EDULU~1.DES\AppData\Local\Temp\ccpYHLly.s 			page 20


 488:Generated_Source\PSoC4/ADC.c **** 
 489:Generated_Source\PSoC4/ADC.c **** /*******************************************************************************
 490:Generated_Source\PSoC4/ADC.c **** * Function Name: ADC_GetResult16
 491:Generated_Source\PSoC4/ADC.c **** ********************************************************************************
 492:Generated_Source\PSoC4/ADC.c **** *
 493:Generated_Source\PSoC4/ADC.c **** * Summary:
 494:Generated_Source\PSoC4/ADC.c **** *  Gets the data available in the SAR DATA register.
 495:Generated_Source\PSoC4/ADC.c **** *
 496:Generated_Source\PSoC4/ADC.c **** * Parameters:
 497:Generated_Source\PSoC4/ADC.c **** *  chan: The ADC channel in which to return the result. The first channel
 498:Generated_Source\PSoC4/ADC.c **** *  is 0 and the injection channel if enabled is the number of valid channels.
 499:Generated_Source\PSoC4/ADC.c **** *
 500:Generated_Source\PSoC4/ADC.c **** * Return:
 501:Generated_Source\PSoC4/ADC.c **** *  Returns converted data as a signed 16-bit integer
 502:Generated_Source\PSoC4/ADC.c **** *
 503:Generated_Source\PSoC4/ADC.c **** *******************************************************************************/
 504:Generated_Source\PSoC4/ADC.c **** int16 ADC_GetResult16(uint32 chan)
 505:Generated_Source\PSoC4/ADC.c **** {
 590              		.loc 1 505 0
 591              		.cfi_startproc
 592              		@ args = 0, pretend = 0, frame = 16
 593              		@ frame_needed = 1, uses_anonymous_args = 0
 594 0000 80B5     		push	{r7, lr}
 595              		.cfi_def_cfa_offset 8
 596              		.cfi_offset 7, -8
 597              		.cfi_offset 14, -4
 598 0002 84B0     		sub	sp, sp, #16
 599              		.cfi_def_cfa_offset 24
 600 0004 00AF     		add	r7, sp, #0
 601              		.cfi_def_cfa_register 7
 602 0006 7860     		str	r0, [r7, #4]
 506:Generated_Source\PSoC4/ADC.c ****     uint32 result;
 507:Generated_Source\PSoC4/ADC.c **** 
 508:Generated_Source\PSoC4/ADC.c ****     /* Halt CPU in debug mode if channel is out of valid range */
 509:Generated_Source\PSoC4/ADC.c ****     CYASSERT(chan < ADC_TOTAL_CHANNELS_NUM);
 603              		.loc 1 509 0
 604 0008 7B68     		ldr	r3, [r7, #4]
 605 000a 002B     		cmp	r3, #0
 606 000c 02D0     		beq	.L41
 607              		.loc 1 509 0 is_stmt 0 discriminator 1
 608 000e 0020     		movs	r0, #0
 609 0010 FFF7FEFF 		bl	CyHalt
 610              	.L41:
 510:Generated_Source\PSoC4/ADC.c **** 
 511:Generated_Source\PSoC4/ADC.c ****     if(chan < ADC_SEQUENCED_CHANNELS_NUM)
 611              		.loc 1 511 0 is_stmt 1
 612 0014 7B68     		ldr	r3, [r7, #4]
 613 0016 002B     		cmp	r3, #0
 614 0018 09D1     		bne	.L42
 512:Generated_Source\PSoC4/ADC.c ****     {
 513:Generated_Source\PSoC4/ADC.c ****         result = CY_GET_REG32((reg32 *)(ADC_SAR_CHAN_RESULT_IND + (uint32)(chan << 2u))) &
 615              		.loc 1 513 0
 616 001a 7B68     		ldr	r3, [r7, #4]
 617 001c 9B00     		lsls	r3, r3, #2
 618 001e 084A     		ldr	r2, .L45
 619 0020 9446     		mov	ip, r2
 620 0022 6344     		add	r3, r3, ip
ARM GAS  C:\Users\EDULU~1.DES\AppData\Local\Temp\ccpYHLly.s 			page 21


 621 0024 1B68     		ldr	r3, [r3]
 622 0026 1B04     		lsls	r3, r3, #16
 623 0028 1B0C     		lsrs	r3, r3, #16
 624 002a FB60     		str	r3, [r7, #12]
 625 002c 01E0     		b	.L43
 626              	.L42:
 514:Generated_Source\PSoC4/ADC.c ****                 ADC_RESULT_MASK;
 515:Generated_Source\PSoC4/ADC.c ****     }
 516:Generated_Source\PSoC4/ADC.c ****     else
 517:Generated_Source\PSoC4/ADC.c ****     {
 518:Generated_Source\PSoC4/ADC.c ****         #if(ADC_INJ_CHANNEL_ENABLED)
 519:Generated_Source\PSoC4/ADC.c ****             result = ADC_SAR_INJ_RESULT_REG & ADC_RESULT_MASK;
 520:Generated_Source\PSoC4/ADC.c ****         #else
 521:Generated_Source\PSoC4/ADC.c ****             result = 0u;
 627              		.loc 1 521 0
 628 002e 0023     		movs	r3, #0
 629 0030 FB60     		str	r3, [r7, #12]
 630              	.L43:
 522:Generated_Source\PSoC4/ADC.c ****         #endif /* ADC_INJ_CHANNEL_ENABLED */
 523:Generated_Source\PSoC4/ADC.c ****     }
 524:Generated_Source\PSoC4/ADC.c **** 
 525:Generated_Source\PSoC4/ADC.c ****     return ( (int16)result );
 631              		.loc 1 525 0
 632 0032 FB68     		ldr	r3, [r7, #12]
 633 0034 1BB2     		sxth	r3, r3
 526:Generated_Source\PSoC4/ADC.c **** }
 634              		.loc 1 526 0
 635 0036 1800     		movs	r0, r3
 636 0038 BD46     		mov	sp, r7
 637 003a 04B0     		add	sp, sp, #16
 638              		@ sp needed
 639 003c 80BD     		pop	{r7, pc}
 640              	.L46:
 641 003e C046     		.align	2
 642              	.L45:
 643 0040 80011A40 		.word	1075446144
 644              		.cfi_endproc
 645              	.LFE7:
 646              		.size	ADC_GetResult16, .-ADC_GetResult16
 647              		.section	.text.ADC_SetChanMask,"ax",%progbits
 648              		.align	2
 649              		.global	ADC_SetChanMask
 650              		.code	16
 651              		.thumb_func
 652              		.type	ADC_SetChanMask, %function
 653              	ADC_SetChanMask:
 654              	.LFB8:
 527:Generated_Source\PSoC4/ADC.c **** 
 528:Generated_Source\PSoC4/ADC.c **** 
 529:Generated_Source\PSoC4/ADC.c **** /*******************************************************************************
 530:Generated_Source\PSoC4/ADC.c **** * Function Name: ADC_SetChanMask
 531:Generated_Source\PSoC4/ADC.c **** ********************************************************************************
 532:Generated_Source\PSoC4/ADC.c **** *
 533:Generated_Source\PSoC4/ADC.c **** * Summary:
 534:Generated_Source\PSoC4/ADC.c **** *  Sets the channel enable mask.
 535:Generated_Source\PSoC4/ADC.c **** *
 536:Generated_Source\PSoC4/ADC.c **** * Parameters:
ARM GAS  C:\Users\EDULU~1.DES\AppData\Local\Temp\ccpYHLly.s 			page 22


 537:Generated_Source\PSoC4/ADC.c **** *  mask: Sets which channels that will be
 538:Generated_Source\PSoC4/ADC.c **** *  scanned. Setting bits for channels that do not exist will have no
 539:Generated_Source\PSoC4/ADC.c **** *  effect. For example, if only 6 channels were enabled, setting a
 540:Generated_Source\PSoC4/ADC.c **** *  mask of 0x0103 would only enable the last two channels (0 and 1).
 541:Generated_Source\PSoC4/ADC.c **** *  This API will not enable the injection channel.
 542:Generated_Source\PSoC4/ADC.c **** *  Examples: If the component is setup to sequence through 8
 543:Generated_Source\PSoC4/ADC.c **** *  channels, a mask of 0x000F would enable channels 0, 1, 2, and 3.
 544:Generated_Source\PSoC4/ADC.c **** *
 545:Generated_Source\PSoC4/ADC.c **** * Return:
 546:Generated_Source\PSoC4/ADC.c **** *  None.
 547:Generated_Source\PSoC4/ADC.c **** *
 548:Generated_Source\PSoC4/ADC.c **** *******************************************************************************/
 549:Generated_Source\PSoC4/ADC.c **** void ADC_SetChanMask(uint32 mask)
 550:Generated_Source\PSoC4/ADC.c **** {
 655              		.loc 1 550 0
 656              		.cfi_startproc
 657              		@ args = 0, pretend = 0, frame = 8
 658              		@ frame_needed = 1, uses_anonymous_args = 0
 659 0000 80B5     		push	{r7, lr}
 660              		.cfi_def_cfa_offset 8
 661              		.cfi_offset 7, -8
 662              		.cfi_offset 14, -4
 663 0002 82B0     		sub	sp, sp, #8
 664              		.cfi_def_cfa_offset 16
 665 0004 00AF     		add	r7, sp, #0
 666              		.cfi_def_cfa_register 7
 667 0006 7860     		str	r0, [r7, #4]
 551:Generated_Source\PSoC4/ADC.c ****     ADC_SAR_CHAN_EN_REG = mask & ADC_MAX_CHANNELS_EN_MASK;
 668              		.loc 1 551 0
 669 0008 044B     		ldr	r3, .L48
 670 000a 7A68     		ldr	r2, [r7, #4]
 671 000c 0121     		movs	r1, #1
 672 000e 0A40     		ands	r2, r1
 673 0010 1A60     		str	r2, [r3]
 552:Generated_Source\PSoC4/ADC.c **** }
 674              		.loc 1 552 0
 675 0012 C046     		nop
 676 0014 BD46     		mov	sp, r7
 677 0016 02B0     		add	sp, sp, #8
 678              		@ sp needed
 679 0018 80BD     		pop	{r7, pc}
 680              	.L49:
 681 001a C046     		.align	2
 682              	.L48:
 683 001c 20001A40 		.word	1075445792
 684              		.cfi_endproc
 685              	.LFE8:
 686              		.size	ADC_SetChanMask, .-ADC_SetChanMask
 687              		.section	.text.ADC_SetLowLimit,"ax",%progbits
 688              		.align	2
 689              		.global	ADC_SetLowLimit
 690              		.code	16
 691              		.thumb_func
 692              		.type	ADC_SetLowLimit, %function
 693              	ADC_SetLowLimit:
 694              	.LFB9:
 553:Generated_Source\PSoC4/ADC.c **** 
ARM GAS  C:\Users\EDULU~1.DES\AppData\Local\Temp\ccpYHLly.s 			page 23


 554:Generated_Source\PSoC4/ADC.c **** #if(ADC_INJ_CHANNEL_ENABLED)
 555:Generated_Source\PSoC4/ADC.c **** 
 556:Generated_Source\PSoC4/ADC.c **** 
 557:Generated_Source\PSoC4/ADC.c ****     /*******************************************************************************
 558:Generated_Source\PSoC4/ADC.c ****     * Function Name: ADC_EnableInjection
 559:Generated_Source\PSoC4/ADC.c ****     ********************************************************************************
 560:Generated_Source\PSoC4/ADC.c ****     *
 561:Generated_Source\PSoC4/ADC.c ****     * Summary:
 562:Generated_Source\PSoC4/ADC.c ****     *  Enables the injection channel for the next scan only.
 563:Generated_Source\PSoC4/ADC.c ****     *
 564:Generated_Source\PSoC4/ADC.c ****     * Parameters:
 565:Generated_Source\PSoC4/ADC.c ****     *  None.
 566:Generated_Source\PSoC4/ADC.c ****     *
 567:Generated_Source\PSoC4/ADC.c ****     * Return:
 568:Generated_Source\PSoC4/ADC.c ****     *  None.
 569:Generated_Source\PSoC4/ADC.c ****     *
 570:Generated_Source\PSoC4/ADC.c ****     *******************************************************************************/
 571:Generated_Source\PSoC4/ADC.c ****     void ADC_EnableInjection(void)
 572:Generated_Source\PSoC4/ADC.c ****     {
 573:Generated_Source\PSoC4/ADC.c ****         ADC_SAR_INJ_CHAN_CONFIG_REG |= ADC_INJ_CHAN_EN;
 574:Generated_Source\PSoC4/ADC.c ****     }
 575:Generated_Source\PSoC4/ADC.c **** 
 576:Generated_Source\PSoC4/ADC.c **** #endif /* ADC_INJ_CHANNEL_ENABLED */
 577:Generated_Source\PSoC4/ADC.c **** 
 578:Generated_Source\PSoC4/ADC.c **** 
 579:Generated_Source\PSoC4/ADC.c **** /*******************************************************************************
 580:Generated_Source\PSoC4/ADC.c **** * Function Name: ADC_SetLowLimit
 581:Generated_Source\PSoC4/ADC.c **** ********************************************************************************
 582:Generated_Source\PSoC4/ADC.c **** *
 583:Generated_Source\PSoC4/ADC.c **** * Summary:
 584:Generated_Source\PSoC4/ADC.c **** *  Sets the low limit parameter for a limit condition.
 585:Generated_Source\PSoC4/ADC.c **** *
 586:Generated_Source\PSoC4/ADC.c **** * Parameters:
 587:Generated_Source\PSoC4/ADC.c **** *  lowLimit: The low limit for a limit condition.
 588:Generated_Source\PSoC4/ADC.c **** *
 589:Generated_Source\PSoC4/ADC.c **** * Return:
 590:Generated_Source\PSoC4/ADC.c **** *  None.
 591:Generated_Source\PSoC4/ADC.c **** *
 592:Generated_Source\PSoC4/ADC.c **** *******************************************************************************/
 593:Generated_Source\PSoC4/ADC.c **** void ADC_SetLowLimit(uint32 lowLimit)
 594:Generated_Source\PSoC4/ADC.c **** {
 695              		.loc 1 594 0
 696              		.cfi_startproc
 697              		@ args = 0, pretend = 0, frame = 8
 698              		@ frame_needed = 1, uses_anonymous_args = 0
 699 0000 80B5     		push	{r7, lr}
 700              		.cfi_def_cfa_offset 8
 701              		.cfi_offset 7, -8
 702              		.cfi_offset 14, -4
 703 0002 82B0     		sub	sp, sp, #8
 704              		.cfi_def_cfa_offset 16
 705 0004 00AF     		add	r7, sp, #0
 706              		.cfi_def_cfa_register 7
 707 0006 7860     		str	r0, [r7, #4]
 595:Generated_Source\PSoC4/ADC.c ****     ADC_SAR_RANGE_THRES_REG &= (uint32)(~ADC_RANGE_LOW_MASK);
 708              		.loc 1 595 0
 709 0008 084B     		ldr	r3, .L51
ARM GAS  C:\Users\EDULU~1.DES\AppData\Local\Temp\ccpYHLly.s 			page 24


 710 000a 084A     		ldr	r2, .L51
 711 000c 1268     		ldr	r2, [r2]
 712 000e 120C     		lsrs	r2, r2, #16
 713 0010 1204     		lsls	r2, r2, #16
 714 0012 1A60     		str	r2, [r3]
 596:Generated_Source\PSoC4/ADC.c ****     ADC_SAR_RANGE_THRES_REG |= lowLimit & ADC_RANGE_LOW_MASK;
 715              		.loc 1 596 0
 716 0014 054B     		ldr	r3, .L51
 717 0016 054A     		ldr	r2, .L51
 718 0018 1168     		ldr	r1, [r2]
 719 001a 7A68     		ldr	r2, [r7, #4]
 720 001c 1204     		lsls	r2, r2, #16
 721 001e 120C     		lsrs	r2, r2, #16
 722 0020 0A43     		orrs	r2, r1
 723 0022 1A60     		str	r2, [r3]
 597:Generated_Source\PSoC4/ADC.c **** }
 724              		.loc 1 597 0
 725 0024 C046     		nop
 726 0026 BD46     		mov	sp, r7
 727 0028 02B0     		add	sp, sp, #8
 728              		@ sp needed
 729 002a 80BD     		pop	{r7, pc}
 730              	.L52:
 731              		.align	2
 732              	.L51:
 733 002c 18001A40 		.word	1075445784
 734              		.cfi_endproc
 735              	.LFE9:
 736              		.size	ADC_SetLowLimit, .-ADC_SetLowLimit
 737              		.section	.text.ADC_SetHighLimit,"ax",%progbits
 738              		.align	2
 739              		.global	ADC_SetHighLimit
 740              		.code	16
 741              		.thumb_func
 742              		.type	ADC_SetHighLimit, %function
 743              	ADC_SetHighLimit:
 744              	.LFB10:
 598:Generated_Source\PSoC4/ADC.c **** 
 599:Generated_Source\PSoC4/ADC.c **** 
 600:Generated_Source\PSoC4/ADC.c **** /*******************************************************************************
 601:Generated_Source\PSoC4/ADC.c **** * Function Name: ADC_SetHighLimit
 602:Generated_Source\PSoC4/ADC.c **** ********************************************************************************
 603:Generated_Source\PSoC4/ADC.c **** *
 604:Generated_Source\PSoC4/ADC.c **** * Summary:
 605:Generated_Source\PSoC4/ADC.c **** *  Sets the low limit parameter for a limit condition.
 606:Generated_Source\PSoC4/ADC.c **** *
 607:Generated_Source\PSoC4/ADC.c **** * Parameters:
 608:Generated_Source\PSoC4/ADC.c **** *  highLimit: The high limit for a limit condition.
 609:Generated_Source\PSoC4/ADC.c **** *
 610:Generated_Source\PSoC4/ADC.c **** * Return:
 611:Generated_Source\PSoC4/ADC.c **** *  None.
 612:Generated_Source\PSoC4/ADC.c **** *
 613:Generated_Source\PSoC4/ADC.c **** *******************************************************************************/
 614:Generated_Source\PSoC4/ADC.c **** void ADC_SetHighLimit(uint32 highLimit)
 615:Generated_Source\PSoC4/ADC.c **** {
 745              		.loc 1 615 0
 746              		.cfi_startproc
ARM GAS  C:\Users\EDULU~1.DES\AppData\Local\Temp\ccpYHLly.s 			page 25


 747              		@ args = 0, pretend = 0, frame = 8
 748              		@ frame_needed = 1, uses_anonymous_args = 0
 749 0000 80B5     		push	{r7, lr}
 750              		.cfi_def_cfa_offset 8
 751              		.cfi_offset 7, -8
 752              		.cfi_offset 14, -4
 753 0002 82B0     		sub	sp, sp, #8
 754              		.cfi_def_cfa_offset 16
 755 0004 00AF     		add	r7, sp, #0
 756              		.cfi_def_cfa_register 7
 757 0006 7860     		str	r0, [r7, #4]
 616:Generated_Source\PSoC4/ADC.c ****     ADC_SAR_RANGE_THRES_REG &= (uint32)(~ADC_RANGE_HIGH_MASK);
 758              		.loc 1 616 0
 759 0008 084B     		ldr	r3, .L54
 760 000a 084A     		ldr	r2, .L54
 761 000c 1268     		ldr	r2, [r2]
 762 000e 1204     		lsls	r2, r2, #16
 763 0010 120C     		lsrs	r2, r2, #16
 764 0012 1A60     		str	r2, [r3]
 617:Generated_Source\PSoC4/ADC.c ****     ADC_SAR_RANGE_THRES_REG |= (uint32)(highLimit << ADC_RANGE_HIGH_OFFSET);
 765              		.loc 1 617 0
 766 0014 054B     		ldr	r3, .L54
 767 0016 054A     		ldr	r2, .L54
 768 0018 1168     		ldr	r1, [r2]
 769 001a 7A68     		ldr	r2, [r7, #4]
 770 001c 1204     		lsls	r2, r2, #16
 771 001e 0A43     		orrs	r2, r1
 772 0020 1A60     		str	r2, [r3]
 618:Generated_Source\PSoC4/ADC.c **** }
 773              		.loc 1 618 0
 774 0022 C046     		nop
 775 0024 BD46     		mov	sp, r7
 776 0026 02B0     		add	sp, sp, #8
 777              		@ sp needed
 778 0028 80BD     		pop	{r7, pc}
 779              	.L55:
 780 002a C046     		.align	2
 781              	.L54:
 782 002c 18001A40 		.word	1075445784
 783              		.cfi_endproc
 784              	.LFE10:
 785              		.size	ADC_SetHighLimit, .-ADC_SetHighLimit
 786              		.section	.text.ADC_SetLimitMask,"ax",%progbits
 787              		.align	2
 788              		.global	ADC_SetLimitMask
 789              		.code	16
 790              		.thumb_func
 791              		.type	ADC_SetLimitMask, %function
 792              	ADC_SetLimitMask:
 793              	.LFB11:
 619:Generated_Source\PSoC4/ADC.c **** 
 620:Generated_Source\PSoC4/ADC.c **** 
 621:Generated_Source\PSoC4/ADC.c **** /*******************************************************************************
 622:Generated_Source\PSoC4/ADC.c **** * Function Name: ADC_SetLimitMask
 623:Generated_Source\PSoC4/ADC.c **** ********************************************************************************
 624:Generated_Source\PSoC4/ADC.c **** *
 625:Generated_Source\PSoC4/ADC.c **** * Summary:
ARM GAS  C:\Users\EDULU~1.DES\AppData\Local\Temp\ccpYHLly.s 			page 26


 626:Generated_Source\PSoC4/ADC.c **** *  Sets the channel limit condition mask.
 627:Generated_Source\PSoC4/ADC.c **** *
 628:Generated_Source\PSoC4/ADC.c **** * Parameters:
 629:Generated_Source\PSoC4/ADC.c **** *  mask: Sets which channels that may cause a
 630:Generated_Source\PSoC4/ADC.c **** *  limit condition interrupt. Setting bits for channels that do not exist
 631:Generated_Source\PSoC4/ADC.c **** *  will have no effect. For example, if only 6 channels were enabled,
 632:Generated_Source\PSoC4/ADC.c **** *  setting a mask of 0x0103 would only enable the last two channels (0 and 1).
 633:Generated_Source\PSoC4/ADC.c **** *
 634:Generated_Source\PSoC4/ADC.c **** * Return:
 635:Generated_Source\PSoC4/ADC.c **** *  None.
 636:Generated_Source\PSoC4/ADC.c **** *
 637:Generated_Source\PSoC4/ADC.c **** *******************************************************************************/
 638:Generated_Source\PSoC4/ADC.c **** void ADC_SetLimitMask(uint32 mask)
 639:Generated_Source\PSoC4/ADC.c **** {
 794              		.loc 1 639 0
 795              		.cfi_startproc
 796              		@ args = 0, pretend = 0, frame = 8
 797              		@ frame_needed = 1, uses_anonymous_args = 0
 798 0000 80B5     		push	{r7, lr}
 799              		.cfi_def_cfa_offset 8
 800              		.cfi_offset 7, -8
 801              		.cfi_offset 14, -4
 802 0002 82B0     		sub	sp, sp, #8
 803              		.cfi_def_cfa_offset 16
 804 0004 00AF     		add	r7, sp, #0
 805              		.cfi_def_cfa_register 7
 806 0006 7860     		str	r0, [r7, #4]
 640:Generated_Source\PSoC4/ADC.c ****     ADC_SAR_RANGE_INTR_MASK_REG = mask & ADC_MAX_CHANNELS_EN_MASK;
 807              		.loc 1 640 0
 808 0008 044B     		ldr	r3, .L57
 809 000a 7A68     		ldr	r2, [r7, #4]
 810 000c 0121     		movs	r1, #1
 811 000e 0A40     		ands	r2, r1
 812 0010 1A60     		str	r2, [r3]
 641:Generated_Source\PSoC4/ADC.c **** }
 813              		.loc 1 641 0
 814 0012 C046     		nop
 815 0014 BD46     		mov	sp, r7
 816 0016 02B0     		add	sp, sp, #8
 817              		@ sp needed
 818 0018 80BD     		pop	{r7, pc}
 819              	.L58:
 820 001a C046     		.align	2
 821              	.L57:
 822 001c 38021A40 		.word	1075446328
 823              		.cfi_endproc
 824              	.LFE11:
 825              		.size	ADC_SetLimitMask, .-ADC_SetLimitMask
 826              		.section	.text.ADC_SetSatMask,"ax",%progbits
 827              		.align	2
 828              		.global	ADC_SetSatMask
 829              		.code	16
 830              		.thumb_func
 831              		.type	ADC_SetSatMask, %function
 832              	ADC_SetSatMask:
 833              	.LFB12:
 642:Generated_Source\PSoC4/ADC.c **** 
ARM GAS  C:\Users\EDULU~1.DES\AppData\Local\Temp\ccpYHLly.s 			page 27


 643:Generated_Source\PSoC4/ADC.c **** 
 644:Generated_Source\PSoC4/ADC.c **** /*******************************************************************************
 645:Generated_Source\PSoC4/ADC.c **** * Function Name: ADC_SetSatMask
 646:Generated_Source\PSoC4/ADC.c **** ********************************************************************************
 647:Generated_Source\PSoC4/ADC.c **** *
 648:Generated_Source\PSoC4/ADC.c **** * Summary:
 649:Generated_Source\PSoC4/ADC.c **** *  Sets the channel saturation event mask.
 650:Generated_Source\PSoC4/ADC.c **** *
 651:Generated_Source\PSoC4/ADC.c **** * Parameters:
 652:Generated_Source\PSoC4/ADC.c **** *  mask: Sets which channels that may cause a
 653:Generated_Source\PSoC4/ADC.c **** *  saturation event interrupt. Setting bits for channels that do not exist
 654:Generated_Source\PSoC4/ADC.c **** *  will have no effect. For example, if only 8 channels were enabled,
 655:Generated_Source\PSoC4/ADC.c **** *  setting a mask of 0x01C0 would only enable two channels (6 and 7).
 656:Generated_Source\PSoC4/ADC.c **** *
 657:Generated_Source\PSoC4/ADC.c **** * Return:
 658:Generated_Source\PSoC4/ADC.c **** *  None.
 659:Generated_Source\PSoC4/ADC.c **** *
 660:Generated_Source\PSoC4/ADC.c **** *******************************************************************************/
 661:Generated_Source\PSoC4/ADC.c **** void ADC_SetSatMask(uint32 mask)
 662:Generated_Source\PSoC4/ADC.c **** {
 834              		.loc 1 662 0
 835              		.cfi_startproc
 836              		@ args = 0, pretend = 0, frame = 8
 837              		@ frame_needed = 1, uses_anonymous_args = 0
 838 0000 80B5     		push	{r7, lr}
 839              		.cfi_def_cfa_offset 8
 840              		.cfi_offset 7, -8
 841              		.cfi_offset 14, -4
 842 0002 82B0     		sub	sp, sp, #8
 843              		.cfi_def_cfa_offset 16
 844 0004 00AF     		add	r7, sp, #0
 845              		.cfi_def_cfa_register 7
 846 0006 7860     		str	r0, [r7, #4]
 663:Generated_Source\PSoC4/ADC.c ****     ADC_SAR_SATURATE_INTR_MASK_REG = mask & ADC_MAX_CHANNELS_EN_MASK;
 847              		.loc 1 663 0
 848 0008 044B     		ldr	r3, .L60
 849 000a 7A68     		ldr	r2, [r7, #4]
 850 000c 0121     		movs	r1, #1
 851 000e 0A40     		ands	r2, r1
 852 0010 1A60     		str	r2, [r3]
 664:Generated_Source\PSoC4/ADC.c **** }
 853              		.loc 1 664 0
 854 0012 C046     		nop
 855 0014 BD46     		mov	sp, r7
 856 0016 02B0     		add	sp, sp, #8
 857              		@ sp needed
 858 0018 80BD     		pop	{r7, pc}
 859              	.L61:
 860 001a C046     		.align	2
 861              	.L60:
 862 001c 28021A40 		.word	1075446312
 863              		.cfi_endproc
 864              	.LFE12:
 865              		.size	ADC_SetSatMask, .-ADC_SetSatMask
 866              		.section	.text.ADC_SetOffset,"ax",%progbits
 867              		.align	2
 868              		.global	ADC_SetOffset
ARM GAS  C:\Users\EDULU~1.DES\AppData\Local\Temp\ccpYHLly.s 			page 28


 869              		.code	16
 870              		.thumb_func
 871              		.type	ADC_SetOffset, %function
 872              	ADC_SetOffset:
 873              	.LFB13:
 665:Generated_Source\PSoC4/ADC.c **** 
 666:Generated_Source\PSoC4/ADC.c **** 
 667:Generated_Source\PSoC4/ADC.c **** /*******************************************************************************
 668:Generated_Source\PSoC4/ADC.c **** * Function Name: ADC_SetOffset
 669:Generated_Source\PSoC4/ADC.c **** ********************************************************************************
 670:Generated_Source\PSoC4/ADC.c **** *
 671:Generated_Source\PSoC4/ADC.c **** * Summary:
 672:Generated_Source\PSoC4/ADC.c **** *   Description: Sets the ADC offset which is used by the functions
 673:Generated_Source\PSoC4/ADC.c **** *   ADC_CountsTo_uVolts, ADC_CountsTo_mVolts and ADC_CountsTo_Volts
 674:Generated_Source\PSoC4/ADC.c **** *   to substract the offset from the given reading
 675:Generated_Source\PSoC4/ADC.c **** *   before calculating the voltage conversion.
 676:Generated_Source\PSoC4/ADC.c **** *
 677:Generated_Source\PSoC4/ADC.c **** * Parameters:
 678:Generated_Source\PSoC4/ADC.c **** *  chan: ADC channel number.
 679:Generated_Source\PSoC4/ADC.c **** *  offset: This value is a measured value when the
 680:Generated_Source\PSoC4/ADC.c **** *          inputs are shorted or connected to the same input voltage.
 681:Generated_Source\PSoC4/ADC.c **** *
 682:Generated_Source\PSoC4/ADC.c **** * Return:
 683:Generated_Source\PSoC4/ADC.c **** *  None.
 684:Generated_Source\PSoC4/ADC.c **** *
 685:Generated_Source\PSoC4/ADC.c **** * Global variables:
 686:Generated_Source\PSoC4/ADC.c **** *  ADC_Offset:  Modified to set the user provided offset.
 687:Generated_Source\PSoC4/ADC.c **** *
 688:Generated_Source\PSoC4/ADC.c **** *******************************************************************************/
 689:Generated_Source\PSoC4/ADC.c **** void ADC_SetOffset(uint32 chan, int16 offset)
 690:Generated_Source\PSoC4/ADC.c **** {
 874              		.loc 1 690 0
 875              		.cfi_startproc
 876              		@ args = 0, pretend = 0, frame = 8
 877              		@ frame_needed = 1, uses_anonymous_args = 0
 878 0000 80B5     		push	{r7, lr}
 879              		.cfi_def_cfa_offset 8
 880              		.cfi_offset 7, -8
 881              		.cfi_offset 14, -4
 882 0002 82B0     		sub	sp, sp, #8
 883              		.cfi_def_cfa_offset 16
 884 0004 00AF     		add	r7, sp, #0
 885              		.cfi_def_cfa_register 7
 886 0006 7860     		str	r0, [r7, #4]
 887 0008 0A00     		movs	r2, r1
 888 000a BB1C     		adds	r3, r7, #2
 889 000c 1A80     		strh	r2, [r3]
 691:Generated_Source\PSoC4/ADC.c ****     /* Halt CPU in debug mode if channel is out of valid range */
 692:Generated_Source\PSoC4/ADC.c ****     CYASSERT(chan < ADC_TOTAL_CHANNELS_NUM);
 890              		.loc 1 692 0
 891 000e 7B68     		ldr	r3, [r7, #4]
 892 0010 002B     		cmp	r3, #0
 893 0012 02D0     		beq	.L63
 894              		.loc 1 692 0 is_stmt 0 discriminator 1
 895 0014 0020     		movs	r0, #0
 896 0016 FFF7FEFF 		bl	CyHalt
 897              	.L63:
ARM GAS  C:\Users\EDULU~1.DES\AppData\Local\Temp\ccpYHLly.s 			page 29


 693:Generated_Source\PSoC4/ADC.c **** 
 694:Generated_Source\PSoC4/ADC.c ****     ADC_offset[chan] = offset;
 898              		.loc 1 694 0 is_stmt 1
 899 001a 054B     		ldr	r3, .L64
 900 001c 7A68     		ldr	r2, [r7, #4]
 901 001e 5200     		lsls	r2, r2, #1
 902 0020 B91C     		adds	r1, r7, #2
 903 0022 0988     		ldrh	r1, [r1]
 904 0024 D152     		strh	r1, [r2, r3]
 695:Generated_Source\PSoC4/ADC.c **** }
 905              		.loc 1 695 0
 906 0026 C046     		nop
 907 0028 BD46     		mov	sp, r7
 908 002a 02B0     		add	sp, sp, #8
 909              		@ sp needed
 910 002c 80BD     		pop	{r7, pc}
 911              	.L65:
 912 002e C046     		.align	2
 913              	.L64:
 914 0030 00000000 		.word	ADC_offset
 915              		.cfi_endproc
 916              	.LFE13:
 917              		.size	ADC_SetOffset, .-ADC_SetOffset
 918              		.section	.text.ADC_SetGain,"ax",%progbits
 919              		.align	2
 920              		.global	ADC_SetGain
 921              		.code	16
 922              		.thumb_func
 923              		.type	ADC_SetGain, %function
 924              	ADC_SetGain:
 925              	.LFB14:
 696:Generated_Source\PSoC4/ADC.c **** 
 697:Generated_Source\PSoC4/ADC.c **** 
 698:Generated_Source\PSoC4/ADC.c **** /*******************************************************************************
 699:Generated_Source\PSoC4/ADC.c **** * Function Name: ADC_SetGain
 700:Generated_Source\PSoC4/ADC.c **** ********************************************************************************
 701:Generated_Source\PSoC4/ADC.c **** *
 702:Generated_Source\PSoC4/ADC.c **** * Summary:
 703:Generated_Source\PSoC4/ADC.c **** *  Description: Sets the ADC gain in counts per 10 volt for the voltage
 704:Generated_Source\PSoC4/ADC.c **** *  conversion functions below. This value is set by default by the
 705:Generated_Source\PSoC4/ADC.c **** *  reference and input range settings. It should only be used to further
 706:Generated_Source\PSoC4/ADC.c **** *  calibrate the ADC with a known input or if an external reference is
 707:Generated_Source\PSoC4/ADC.c **** *  used. Affects the ADC_CountsTo_uVolts, ADC_CountsTo_mVolts
 708:Generated_Source\PSoC4/ADC.c **** *  and ADC_CountsTo_Volts functions by supplying the correct
 709:Generated_Source\PSoC4/ADC.c **** *  conversion between ADC counts and voltage.
 710:Generated_Source\PSoC4/ADC.c **** *
 711:Generated_Source\PSoC4/ADC.c **** * Parameters:
 712:Generated_Source\PSoC4/ADC.c **** *  chan: ADC channel number.
 713:Generated_Source\PSoC4/ADC.c **** *  adcGain: ADC gain in counts per 10 volts.
 714:Generated_Source\PSoC4/ADC.c **** *
 715:Generated_Source\PSoC4/ADC.c **** * Return:
 716:Generated_Source\PSoC4/ADC.c **** *  None.
 717:Generated_Source\PSoC4/ADC.c **** *
 718:Generated_Source\PSoC4/ADC.c **** * Global variables:
 719:Generated_Source\PSoC4/ADC.c **** *  ADC_CountsPer10Volt:  modified to set the ADC gain in counts
 720:Generated_Source\PSoC4/ADC.c **** *   per 10 volt.
 721:Generated_Source\PSoC4/ADC.c **** *
ARM GAS  C:\Users\EDULU~1.DES\AppData\Local\Temp\ccpYHLly.s 			page 30


 722:Generated_Source\PSoC4/ADC.c **** *******************************************************************************/
 723:Generated_Source\PSoC4/ADC.c **** void ADC_SetGain(uint32 chan, int32 adcGain)
 724:Generated_Source\PSoC4/ADC.c **** {
 926              		.loc 1 724 0
 927              		.cfi_startproc
 928              		@ args = 0, pretend = 0, frame = 8
 929              		@ frame_needed = 1, uses_anonymous_args = 0
 930 0000 80B5     		push	{r7, lr}
 931              		.cfi_def_cfa_offset 8
 932              		.cfi_offset 7, -8
 933              		.cfi_offset 14, -4
 934 0002 82B0     		sub	sp, sp, #8
 935              		.cfi_def_cfa_offset 16
 936 0004 00AF     		add	r7, sp, #0
 937              		.cfi_def_cfa_register 7
 938 0006 7860     		str	r0, [r7, #4]
 939 0008 3960     		str	r1, [r7]
 725:Generated_Source\PSoC4/ADC.c ****     /* Halt CPU in debug mode if channel is out of valid range */
 726:Generated_Source\PSoC4/ADC.c ****     CYASSERT(chan < ADC_TOTAL_CHANNELS_NUM);
 940              		.loc 1 726 0
 941 000a 7B68     		ldr	r3, [r7, #4]
 942 000c 002B     		cmp	r3, #0
 943 000e 02D0     		beq	.L67
 944              		.loc 1 726 0 is_stmt 0 discriminator 1
 945 0010 0020     		movs	r0, #0
 946 0012 FFF7FEFF 		bl	CyHalt
 947              	.L67:
 727:Generated_Source\PSoC4/ADC.c **** 
 728:Generated_Source\PSoC4/ADC.c ****     ADC_countsPer10Volt[chan] = adcGain;
 948              		.loc 1 728 0 is_stmt 1
 949 0016 044B     		ldr	r3, .L68
 950 0018 7A68     		ldr	r2, [r7, #4]
 951 001a 9200     		lsls	r2, r2, #2
 952 001c 3968     		ldr	r1, [r7]
 953 001e D150     		str	r1, [r2, r3]
 729:Generated_Source\PSoC4/ADC.c **** }
 954              		.loc 1 729 0
 955 0020 C046     		nop
 956 0022 BD46     		mov	sp, r7
 957 0024 02B0     		add	sp, sp, #8
 958              		@ sp needed
 959 0026 80BD     		pop	{r7, pc}
 960              	.L69:
 961              		.align	2
 962              	.L68:
 963 0028 00000000 		.word	ADC_countsPer10Volt
 964              		.cfi_endproc
 965              	.LFE14:
 966              		.size	ADC_SetGain, .-ADC_SetGain
 967              		.global	__aeabi_idiv
 968              		.section	.text.ADC_CountsTo_mVolts,"ax",%progbits
 969              		.align	2
 970              		.global	ADC_CountsTo_mVolts
 971              		.code	16
 972              		.thumb_func
 973              		.type	ADC_CountsTo_mVolts, %function
 974              	ADC_CountsTo_mVolts:
ARM GAS  C:\Users\EDULU~1.DES\AppData\Local\Temp\ccpYHLly.s 			page 31


 975              	.LFB15:
 730:Generated_Source\PSoC4/ADC.c **** 
 731:Generated_Source\PSoC4/ADC.c **** 
 732:Generated_Source\PSoC4/ADC.c **** #if(ADC_DEFAULT_JUSTIFICATION_SEL == ADC__RIGHT)
 733:Generated_Source\PSoC4/ADC.c **** 
 734:Generated_Source\PSoC4/ADC.c **** 
 735:Generated_Source\PSoC4/ADC.c ****     /*******************************************************************************
 736:Generated_Source\PSoC4/ADC.c ****     * Function Name: ADC_CountsTo_mVolts
 737:Generated_Source\PSoC4/ADC.c ****     ********************************************************************************
 738:Generated_Source\PSoC4/ADC.c ****     *
 739:Generated_Source\PSoC4/ADC.c ****     * Summary:
 740:Generated_Source\PSoC4/ADC.c ****     *  This function converts ADC counts to mVolts
 741:Generated_Source\PSoC4/ADC.c ****     *  This function is not available when left data format justification selected.
 742:Generated_Source\PSoC4/ADC.c ****     *
 743:Generated_Source\PSoC4/ADC.c ****     * Parameters:
 744:Generated_Source\PSoC4/ADC.c ****     *  chan: The ADC channel number.
 745:Generated_Source\PSoC4/ADC.c ****     *  adcCounts: Result from the ADC conversion
 746:Generated_Source\PSoC4/ADC.c ****     *
 747:Generated_Source\PSoC4/ADC.c ****     * Return:
 748:Generated_Source\PSoC4/ADC.c ****     *  Results in mVolts
 749:Generated_Source\PSoC4/ADC.c ****     *
 750:Generated_Source\PSoC4/ADC.c ****     * Global variables:
 751:Generated_Source\PSoC4/ADC.c ****     *  ADC_countsPer10Volt:  used to convert ADC counts to mVolts.
 752:Generated_Source\PSoC4/ADC.c ****     *  ADC_Offset:  Used as the offset while converting ADC counts
 753:Generated_Source\PSoC4/ADC.c ****     *   to mVolts.
 754:Generated_Source\PSoC4/ADC.c ****     *
 755:Generated_Source\PSoC4/ADC.c ****     *******************************************************************************/
 756:Generated_Source\PSoC4/ADC.c ****     int16 ADC_CountsTo_mVolts(uint32 chan, int16 adcCounts)
 757:Generated_Source\PSoC4/ADC.c ****     {
 976              		.loc 1 757 0
 977              		.cfi_startproc
 978              		@ args = 0, pretend = 0, frame = 16
 979              		@ frame_needed = 1, uses_anonymous_args = 0
 980 0000 80B5     		push	{r7, lr}
 981              		.cfi_def_cfa_offset 8
 982              		.cfi_offset 7, -8
 983              		.cfi_offset 14, -4
 984 0002 84B0     		sub	sp, sp, #16
 985              		.cfi_def_cfa_offset 24
 986 0004 00AF     		add	r7, sp, #0
 987              		.cfi_def_cfa_register 7
 988 0006 7860     		str	r0, [r7, #4]
 989 0008 0A00     		movs	r2, r1
 990 000a BB1C     		adds	r3, r7, #2
 991 000c 1A80     		strh	r2, [r3]
 758:Generated_Source\PSoC4/ADC.c ****         int16 mVolts;
 759:Generated_Source\PSoC4/ADC.c **** 
 760:Generated_Source\PSoC4/ADC.c ****         /* Halt CPU in debug mode if channel is out of valid range */
 761:Generated_Source\PSoC4/ADC.c ****         CYASSERT(chan < ADC_TOTAL_CHANNELS_NUM);
 992              		.loc 1 761 0
 993 000e 7B68     		ldr	r3, [r7, #4]
 994 0010 002B     		cmp	r3, #0
 995 0012 02D0     		beq	.L71
 996              		.loc 1 761 0 is_stmt 0 discriminator 1
 997 0014 0020     		movs	r0, #0
 998 0016 FFF7FEFF 		bl	CyHalt
 999              	.L71:
ARM GAS  C:\Users\EDULU~1.DES\AppData\Local\Temp\ccpYHLly.s 			page 32


 762:Generated_Source\PSoC4/ADC.c **** 
 763:Generated_Source\PSoC4/ADC.c ****         /* Divide the adcCount when accumulate averaging mode selected */
 764:Generated_Source\PSoC4/ADC.c ****         #if(ADC_DEFAULT_AVG_MODE == ADC__ACCUMULATE)
 765:Generated_Source\PSoC4/ADC.c ****             if((ADC_channelsConfig[chan] & ADC_AVERAGING_EN) != 0u)
 766:Generated_Source\PSoC4/ADC.c ****             {
 767:Generated_Source\PSoC4/ADC.c ****                 adcCounts /= ADC_DEFAULT_AVG_SAMPLES_DIV;
 768:Generated_Source\PSoC4/ADC.c ****             }
 769:Generated_Source\PSoC4/ADC.c ****         #endif /* ADC_DEFAULT_AVG_MODE == ADC__ACCUMULATE */
 770:Generated_Source\PSoC4/ADC.c **** 
 771:Generated_Source\PSoC4/ADC.c ****         /* Subtract ADC offset */
 772:Generated_Source\PSoC4/ADC.c ****         adcCounts -= ADC_offset[chan];
 1000              		.loc 1 772 0 is_stmt 1
 1001 001a 1E4B     		ldr	r3, .L77
 1002 001c 7A68     		ldr	r2, [r7, #4]
 1003 001e 5200     		lsls	r2, r2, #1
 1004 0020 D35A     		ldrh	r3, [r2, r3]
 1005 0022 19B2     		sxth	r1, r3
 1006 0024 BB1C     		adds	r3, r7, #2
 1007 0026 1A88     		ldrh	r2, [r3]
 1008 0028 8BB2     		uxth	r3, r1
 1009 002a D31A     		subs	r3, r2, r3
 1010 002c 9AB2     		uxth	r2, r3
 1011 002e BB1C     		adds	r3, r7, #2
 1012 0030 1A80     		strh	r2, [r3]
 773:Generated_Source\PSoC4/ADC.c **** 
 774:Generated_Source\PSoC4/ADC.c ****         mVolts = (int16)((((int32)adcCounts * ADC_10MV_COUNTS) + ( (adcCounts > 0) ?
 1013              		.loc 1 774 0
 1014 0032 BB1C     		adds	r3, r7, #2
 1015 0034 0022     		movs	r2, #0
 1016 0036 9B5E     		ldrsh	r3, [r3, r2]
 1017 0038 174A     		ldr	r2, .L77+4
 1018 003a 5A43     		muls	r2, r3
 775:Generated_Source\PSoC4/ADC.c ****                  (ADC_countsPer10Volt[chan] / 2) : (-(ADC_countsPer10Volt[chan] / 2)) ))
 1019              		.loc 1 775 0
 1020 003c BB1C     		adds	r3, r7, #2
 1021 003e 0021     		movs	r1, #0
 1022 0040 5B5E     		ldrsh	r3, [r3, r1]
 1023 0042 002B     		cmp	r3, #0
 1024 0044 08DD     		ble	.L72
 1025              		.loc 1 775 0 is_stmt 0 discriminator 1
 1026 0046 154B     		ldr	r3, .L77+8
 1027 0048 7968     		ldr	r1, [r7, #4]
 1028 004a 8900     		lsls	r1, r1, #2
 1029 004c CB58     		ldr	r3, [r1, r3]
 1030 004e 002B     		cmp	r3, #0
 1031 0050 00DA     		bge	.L73
 1032 0052 0133     		adds	r3, r3, #1
 1033              	.L73:
 1034 0054 5B10     		asrs	r3, r3, #1
 1035 0056 08E0     		b	.L74
 1036              	.L72:
 1037              		.loc 1 775 0 discriminator 2
 1038 0058 104B     		ldr	r3, .L77+8
 1039 005a 7968     		ldr	r1, [r7, #4]
 1040 005c 8900     		lsls	r1, r1, #2
 1041 005e CB58     		ldr	r3, [r1, r3]
 1042 0060 002B     		cmp	r3, #0
ARM GAS  C:\Users\EDULU~1.DES\AppData\Local\Temp\ccpYHLly.s 			page 33


 1043 0062 00DA     		bge	.L75
 1044 0064 0133     		adds	r3, r3, #1
 1045              	.L75:
 1046 0066 5B10     		asrs	r3, r3, #1
 1047 0068 5B42     		rsbs	r3, r3, #0
 1048              	.L74:
 774:Generated_Source\PSoC4/ADC.c ****                  (ADC_countsPer10Volt[chan] / 2) : (-(ADC_countsPer10Volt[chan] / 2)) ))
 1049              		.loc 1 774 0 is_stmt 1
 1050 006a D018     		adds	r0, r2, r3
 776:Generated_Source\PSoC4/ADC.c ****                  / ADC_countsPer10Volt[chan]);
 1051              		.loc 1 776 0
 1052 006c 0B4B     		ldr	r3, .L77+8
 1053 006e 7A68     		ldr	r2, [r7, #4]
 1054 0070 9200     		lsls	r2, r2, #2
 1055 0072 D358     		ldr	r3, [r2, r3]
 1056 0074 1900     		movs	r1, r3
 1057 0076 FFF7FEFF 		bl	__aeabi_idiv
 1058 007a 0300     		movs	r3, r0
 1059 007c 1A00     		movs	r2, r3
 774:Generated_Source\PSoC4/ADC.c ****                  (ADC_countsPer10Volt[chan] / 2) : (-(ADC_countsPer10Volt[chan] / 2)) ))
 1060              		.loc 1 774 0
 1061 007e 0E23     		movs	r3, #14
 1062 0080 FB18     		adds	r3, r7, r3
 1063 0082 1A80     		strh	r2, [r3]
 777:Generated_Source\PSoC4/ADC.c **** 
 778:Generated_Source\PSoC4/ADC.c ****         return( mVolts );
 1064              		.loc 1 778 0
 1065 0084 0E23     		movs	r3, #14
 1066 0086 FB18     		adds	r3, r7, r3
 1067 0088 0022     		movs	r2, #0
 1068 008a 9B5E     		ldrsh	r3, [r3, r2]
 779:Generated_Source\PSoC4/ADC.c ****     }
 1069              		.loc 1 779 0
 1070 008c 1800     		movs	r0, r3
 1071 008e BD46     		mov	sp, r7
 1072 0090 04B0     		add	sp, sp, #16
 1073              		@ sp needed
 1074 0092 80BD     		pop	{r7, pc}
 1075              	.L78:
 1076              		.align	2
 1077              	.L77:
 1078 0094 00000000 		.word	ADC_offset
 1079 0098 10270000 		.word	10000
 1080 009c 00000000 		.word	ADC_countsPer10Volt
 1081              		.cfi_endproc
 1082              	.LFE15:
 1083              		.size	ADC_CountsTo_mVolts, .-ADC_CountsTo_mVolts
 1084              		.global	__aeabi_lmul
 1085              		.global	__aeabi_ldivmod
 1086              		.section	.text.ADC_CountsTo_uVolts,"ax",%progbits
 1087              		.align	2
 1088              		.global	ADC_CountsTo_uVolts
 1089              		.code	16
 1090              		.thumb_func
 1091              		.type	ADC_CountsTo_uVolts, %function
 1092              	ADC_CountsTo_uVolts:
 1093              	.LFB16:
ARM GAS  C:\Users\EDULU~1.DES\AppData\Local\Temp\ccpYHLly.s 			page 34


 780:Generated_Source\PSoC4/ADC.c **** 
 781:Generated_Source\PSoC4/ADC.c **** 
 782:Generated_Source\PSoC4/ADC.c ****     /*******************************************************************************
 783:Generated_Source\PSoC4/ADC.c ****     * Function Name: ADC_CountsTo_uVolts
 784:Generated_Source\PSoC4/ADC.c ****     ********************************************************************************
 785:Generated_Source\PSoC4/ADC.c ****     *
 786:Generated_Source\PSoC4/ADC.c ****     * Summary:
 787:Generated_Source\PSoC4/ADC.c ****     *  This function converts ADC counts to micro Volts
 788:Generated_Source\PSoC4/ADC.c ****     *  This function is not available when left data format justification selected.
 789:Generated_Source\PSoC4/ADC.c ****     *
 790:Generated_Source\PSoC4/ADC.c ****     * Parameters:
 791:Generated_Source\PSoC4/ADC.c ****     *  chan: The ADC channel number.
 792:Generated_Source\PSoC4/ADC.c ****     *  adcCounts: Result from the ADC conversion
 793:Generated_Source\PSoC4/ADC.c ****     *
 794:Generated_Source\PSoC4/ADC.c ****     * Return:
 795:Generated_Source\PSoC4/ADC.c ****     *  Results in uVolts
 796:Generated_Source\PSoC4/ADC.c ****     *
 797:Generated_Source\PSoC4/ADC.c ****     * Global variables:
 798:Generated_Source\PSoC4/ADC.c ****     *  ADC_countsPer10Volt:  used to convert ADC counts to uVolts.
 799:Generated_Source\PSoC4/ADC.c ****     *  ADC_Offset:  Used as the offset while converting ADC counts
 800:Generated_Source\PSoC4/ADC.c ****     *   to mVolts.
 801:Generated_Source\PSoC4/ADC.c ****     *
 802:Generated_Source\PSoC4/ADC.c ****     * Theory:
 803:Generated_Source\PSoC4/ADC.c ****     *  Care must be taken to not exceed the maximum value for a 31 bit signed
 804:Generated_Source\PSoC4/ADC.c ****     *  number in the conversion to uVolts and at the same time not loose
 805:Generated_Source\PSoC4/ADC.c ****     *  resolution.
 806:Generated_Source\PSoC4/ADC.c ****     *  To convert adcCounts to microVolts it is required to be multiplied
 807:Generated_Source\PSoC4/ADC.c ****     *  on 10 million and later divide on gain in counts per 10V.
 808:Generated_Source\PSoC4/ADC.c ****     *
 809:Generated_Source\PSoC4/ADC.c ****     *******************************************************************************/
 810:Generated_Source\PSoC4/ADC.c ****     int32 ADC_CountsTo_uVolts(uint32 chan, int16 adcCounts)
 811:Generated_Source\PSoC4/ADC.c ****     {
 1094              		.loc 1 811 0
 1095              		.cfi_startproc
 1096              		@ args = 0, pretend = 0, frame = 24
 1097              		@ frame_needed = 1, uses_anonymous_args = 0
 1098 0000 B0B5     		push	{r4, r5, r7, lr}
 1099              		.cfi_def_cfa_offset 16
 1100              		.cfi_offset 4, -16
 1101              		.cfi_offset 5, -12
 1102              		.cfi_offset 7, -8
 1103              		.cfi_offset 14, -4
 1104 0002 86B0     		sub	sp, sp, #24
 1105              		.cfi_def_cfa_offset 40
 1106 0004 00AF     		add	r7, sp, #0
 1107              		.cfi_def_cfa_register 7
 1108 0006 F860     		str	r0, [r7, #12]
 1109 0008 0A00     		movs	r2, r1
 1110 000a 0A23     		movs	r3, #10
 1111 000c FB18     		adds	r3, r7, r3
 1112 000e 1A80     		strh	r2, [r3]
 812:Generated_Source\PSoC4/ADC.c ****         int64 uVolts;
 813:Generated_Source\PSoC4/ADC.c **** 
 814:Generated_Source\PSoC4/ADC.c ****         /* Halt CPU in debug mode if channel is out of valid range */
 815:Generated_Source\PSoC4/ADC.c ****         CYASSERT(chan < ADC_TOTAL_CHANNELS_NUM);
 1113              		.loc 1 815 0
 1114 0010 FB68     		ldr	r3, [r7, #12]
ARM GAS  C:\Users\EDULU~1.DES\AppData\Local\Temp\ccpYHLly.s 			page 35


 1115 0012 002B     		cmp	r3, #0
 1116 0014 02D0     		beq	.L80
 1117              		.loc 1 815 0 is_stmt 0 discriminator 1
 1118 0016 0020     		movs	r0, #0
 1119 0018 FFF7FEFF 		bl	CyHalt
 1120              	.L80:
 816:Generated_Source\PSoC4/ADC.c **** 
 817:Generated_Source\PSoC4/ADC.c ****         /* Divide the adcCount when accumulate averaging mode selected */
 818:Generated_Source\PSoC4/ADC.c ****         #if(ADC_DEFAULT_AVG_MODE == ADC__ACCUMULATE)
 819:Generated_Source\PSoC4/ADC.c ****             if((ADC_channelsConfig[chan] & ADC_AVERAGING_EN) != 0u)
 820:Generated_Source\PSoC4/ADC.c ****             {
 821:Generated_Source\PSoC4/ADC.c ****                 adcCounts /= ADC_DEFAULT_AVG_SAMPLES_DIV;
 822:Generated_Source\PSoC4/ADC.c ****             }
 823:Generated_Source\PSoC4/ADC.c ****         #endif /* ADC_DEFAULT_AVG_MODE == ADC__ACCUMULATE */
 824:Generated_Source\PSoC4/ADC.c **** 
 825:Generated_Source\PSoC4/ADC.c ****         /* Subtract ADC offset */
 826:Generated_Source\PSoC4/ADC.c ****         adcCounts -= ADC_offset[chan];
 1121              		.loc 1 826 0 is_stmt 1
 1122 001c 194B     		ldr	r3, .L82
 1123 001e FA68     		ldr	r2, [r7, #12]
 1124 0020 5200     		lsls	r2, r2, #1
 1125 0022 D35A     		ldrh	r3, [r2, r3]
 1126 0024 19B2     		sxth	r1, r3
 1127 0026 0A23     		movs	r3, #10
 1128 0028 FB18     		adds	r3, r7, r3
 1129 002a 1A88     		ldrh	r2, [r3]
 1130 002c 8BB2     		uxth	r3, r1
 1131 002e D31A     		subs	r3, r2, r3
 1132 0030 9AB2     		uxth	r2, r3
 1133 0032 0A23     		movs	r3, #10
 1134 0034 FB18     		adds	r3, r7, r3
 1135 0036 1A80     		strh	r2, [r3]
 827:Generated_Source\PSoC4/ADC.c **** 
 828:Generated_Source\PSoC4/ADC.c ****         uVolts = ((int64)adcCounts * ADC_10UV_COUNTS) / ADC_countsPer10Volt[chan];
 1136              		.loc 1 828 0
 1137 0038 0A23     		movs	r3, #10
 1138 003a FB18     		adds	r3, r7, r3
 1139 003c 1B88     		ldrh	r3, [r3]
 1140 003e 1BB2     		sxth	r3, r3
 1141 0040 3B60     		str	r3, [r7]
 1142 0042 DB17     		asrs	r3, r3, #31
 1143 0044 7B60     		str	r3, [r7, #4]
 1144 0046 104A     		ldr	r2, .L82+4
 1145 0048 0023     		movs	r3, #0
 1146 004a 3868     		ldr	r0, [r7]
 1147 004c 7968     		ldr	r1, [r7, #4]
 1148 004e FFF7FEFF 		bl	__aeabi_lmul
 1149 0052 0200     		movs	r2, r0
 1150 0054 0B00     		movs	r3, r1
 1151 0056 1000     		movs	r0, r2
 1152 0058 1900     		movs	r1, r3
 1153 005a 0C4B     		ldr	r3, .L82+8
 1154 005c FA68     		ldr	r2, [r7, #12]
 1155 005e 9200     		lsls	r2, r2, #2
 1156 0060 D358     		ldr	r3, [r2, r3]
 1157 0062 1C00     		movs	r4, r3
 1158 0064 DB17     		asrs	r3, r3, #31
ARM GAS  C:\Users\EDULU~1.DES\AppData\Local\Temp\ccpYHLly.s 			page 36


 1159 0066 1D00     		movs	r5, r3
 1160 0068 2200     		movs	r2, r4
 1161 006a 2B00     		movs	r3, r5
 1162 006c FFF7FEFF 		bl	__aeabi_ldivmod
 1163 0070 0300     		movs	r3, r0
 1164 0072 0C00     		movs	r4, r1
 1165 0074 3B61     		str	r3, [r7, #16]
 1166 0076 7C61     		str	r4, [r7, #20]
 829:Generated_Source\PSoC4/ADC.c **** 
 830:Generated_Source\PSoC4/ADC.c ****         return( (int32)uVolts );
 1167              		.loc 1 830 0
 1168 0078 3B69     		ldr	r3, [r7, #16]
 831:Generated_Source\PSoC4/ADC.c ****     }
 1169              		.loc 1 831 0
 1170 007a 1800     		movs	r0, r3
 1171 007c BD46     		mov	sp, r7
 1172 007e 06B0     		add	sp, sp, #24
 1173              		@ sp needed
 1174 0080 B0BD     		pop	{r4, r5, r7, pc}
 1175              	.L83:
 1176 0082 C046     		.align	2
 1177              	.L82:
 1178 0084 00000000 		.word	ADC_offset
 1179 0088 80969800 		.word	10000000
 1180 008c 00000000 		.word	ADC_countsPer10Volt
 1181              		.cfi_endproc
 1182              	.LFE16:
 1183              		.size	ADC_CountsTo_uVolts, .-ADC_CountsTo_uVolts
 1184              		.global	__aeabi_i2f
 1185              		.global	__aeabi_fmul
 1186              		.global	__aeabi_fdiv
 1187              		.section	.text.ADC_CountsTo_Volts,"ax",%progbits
 1188              		.align	2
 1189              		.global	ADC_CountsTo_Volts
 1190              		.code	16
 1191              		.thumb_func
 1192              		.type	ADC_CountsTo_Volts, %function
 1193              	ADC_CountsTo_Volts:
 1194              	.LFB17:
 832:Generated_Source\PSoC4/ADC.c **** 
 833:Generated_Source\PSoC4/ADC.c **** 
 834:Generated_Source\PSoC4/ADC.c ****     /*******************************************************************************
 835:Generated_Source\PSoC4/ADC.c ****     * Function Name: ADC_CountsTo_Volts
 836:Generated_Source\PSoC4/ADC.c ****     ********************************************************************************
 837:Generated_Source\PSoC4/ADC.c ****     *
 838:Generated_Source\PSoC4/ADC.c ****     * Summary:
 839:Generated_Source\PSoC4/ADC.c ****     *  Converts the ADC output to Volts as a floating point number.
 840:Generated_Source\PSoC4/ADC.c ****     *  This function is not available when left data format justification selected.
 841:Generated_Source\PSoC4/ADC.c ****     *
 842:Generated_Source\PSoC4/ADC.c ****     * Parameters:
 843:Generated_Source\PSoC4/ADC.c ****     *  chan: The ADC channel number.
 844:Generated_Source\PSoC4/ADC.c ****     *  Result from the ADC conversion
 845:Generated_Source\PSoC4/ADC.c ****     *
 846:Generated_Source\PSoC4/ADC.c ****     * Return:
 847:Generated_Source\PSoC4/ADC.c ****     *  Results in Volts
 848:Generated_Source\PSoC4/ADC.c ****     *
 849:Generated_Source\PSoC4/ADC.c ****     * Global variables:
ARM GAS  C:\Users\EDULU~1.DES\AppData\Local\Temp\ccpYHLly.s 			page 37


 850:Generated_Source\PSoC4/ADC.c ****     *  ADC_countsPer10Volt:  used to convert ADC counts to Volts.
 851:Generated_Source\PSoC4/ADC.c ****     *  ADC_Offset:  Used as the offset while converting ADC counts
 852:Generated_Source\PSoC4/ADC.c ****     *   to mVolts.
 853:Generated_Source\PSoC4/ADC.c ****     *
 854:Generated_Source\PSoC4/ADC.c ****     *******************************************************************************/
 855:Generated_Source\PSoC4/ADC.c ****     float32 ADC_CountsTo_Volts(uint32 chan, int16 adcCounts)
 856:Generated_Source\PSoC4/ADC.c ****     {
 1195              		.loc 1 856 0
 1196              		.cfi_startproc
 1197              		@ args = 0, pretend = 0, frame = 16
 1198              		@ frame_needed = 1, uses_anonymous_args = 0
 1199 0000 90B5     		push	{r4, r7, lr}
 1200              		.cfi_def_cfa_offset 12
 1201              		.cfi_offset 4, -12
 1202              		.cfi_offset 7, -8
 1203              		.cfi_offset 14, -4
 1204 0002 85B0     		sub	sp, sp, #20
 1205              		.cfi_def_cfa_offset 32
 1206 0004 00AF     		add	r7, sp, #0
 1207              		.cfi_def_cfa_register 7
 1208 0006 7860     		str	r0, [r7, #4]
 1209 0008 0A00     		movs	r2, r1
 1210 000a BB1C     		adds	r3, r7, #2
 1211 000c 1A80     		strh	r2, [r3]
 857:Generated_Source\PSoC4/ADC.c ****         float32 volts;
 858:Generated_Source\PSoC4/ADC.c **** 
 859:Generated_Source\PSoC4/ADC.c ****         /* Halt CPU in debug mode if channel is out of valid range */
 860:Generated_Source\PSoC4/ADC.c ****         CYASSERT(chan < ADC_TOTAL_CHANNELS_NUM);
 1212              		.loc 1 860 0
 1213 000e 7B68     		ldr	r3, [r7, #4]
 1214 0010 002B     		cmp	r3, #0
 1215 0012 02D0     		beq	.L85
 1216              		.loc 1 860 0 is_stmt 0 discriminator 1
 1217 0014 0020     		movs	r0, #0
 1218 0016 FFF7FEFF 		bl	CyHalt
 1219              	.L85:
 861:Generated_Source\PSoC4/ADC.c **** 
 862:Generated_Source\PSoC4/ADC.c ****         /* Divide the adcCount when accumulate averaging mode selected */
 863:Generated_Source\PSoC4/ADC.c ****         #if(ADC_DEFAULT_AVG_MODE == ADC__ACCUMULATE)
 864:Generated_Source\PSoC4/ADC.c ****             if((ADC_channelsConfig[chan] & ADC_AVERAGING_EN) != 0u)
 865:Generated_Source\PSoC4/ADC.c ****             {
 866:Generated_Source\PSoC4/ADC.c ****                 adcCounts /= ADC_DEFAULT_AVG_SAMPLES_DIV;
 867:Generated_Source\PSoC4/ADC.c ****             }
 868:Generated_Source\PSoC4/ADC.c ****         #endif /* ADC_DEFAULT_AVG_MODE == ADC__ACCUMULATE */
 869:Generated_Source\PSoC4/ADC.c **** 
 870:Generated_Source\PSoC4/ADC.c ****         /* Subtract ADC offset */
 871:Generated_Source\PSoC4/ADC.c ****         adcCounts -= ADC_offset[chan];
 1220              		.loc 1 871 0 is_stmt 1
 1221 001a 164B     		ldr	r3, .L87
 1222 001c 7A68     		ldr	r2, [r7, #4]
 1223 001e 5200     		lsls	r2, r2, #1
 1224 0020 D35A     		ldrh	r3, [r2, r3]
 1225 0022 19B2     		sxth	r1, r3
 1226 0024 BB1C     		adds	r3, r7, #2
 1227 0026 1A88     		ldrh	r2, [r3]
 1228 0028 8BB2     		uxth	r3, r1
 1229 002a D31A     		subs	r3, r2, r3
ARM GAS  C:\Users\EDULU~1.DES\AppData\Local\Temp\ccpYHLly.s 			page 38


 1230 002c 9AB2     		uxth	r2, r3
 1231 002e BB1C     		adds	r3, r7, #2
 1232 0030 1A80     		strh	r2, [r3]
 872:Generated_Source\PSoC4/ADC.c **** 
 873:Generated_Source\PSoC4/ADC.c ****         volts = ((float32)adcCounts * ADC_10V_COUNTS) / (float32)ADC_countsPer10Volt[chan];
 1233              		.loc 1 873 0
 1234 0032 BB1C     		adds	r3, r7, #2
 1235 0034 0022     		movs	r2, #0
 1236 0036 9B5E     		ldrsh	r3, [r3, r2]
 1237 0038 1800     		movs	r0, r3
 1238 003a FFF7FEFF 		bl	__aeabi_i2f
 1239 003e 031C     		adds	r3, r0, #0
 1240 0040 0D49     		ldr	r1, .L87+4
 1241 0042 181C     		adds	r0, r3, #0
 1242 0044 FFF7FEFF 		bl	__aeabi_fmul
 1243 0048 031C     		adds	r3, r0, #0
 1244 004a 1C1C     		adds	r4, r3, #0
 1245 004c 0B4B     		ldr	r3, .L87+8
 1246 004e 7A68     		ldr	r2, [r7, #4]
 1247 0050 9200     		lsls	r2, r2, #2
 1248 0052 D358     		ldr	r3, [r2, r3]
 1249 0054 1800     		movs	r0, r3
 1250 0056 FFF7FEFF 		bl	__aeabi_i2f
 1251 005a 031C     		adds	r3, r0, #0
 1252 005c 191C     		adds	r1, r3, #0
 1253 005e 201C     		adds	r0, r4, #0
 1254 0060 FFF7FEFF 		bl	__aeabi_fdiv
 1255 0064 031C     		adds	r3, r0, #0
 1256 0066 FB60     		str	r3, [r7, #12]
 874:Generated_Source\PSoC4/ADC.c **** 
 875:Generated_Source\PSoC4/ADC.c ****         return( volts );
 1257              		.loc 1 875 0
 1258 0068 FB68     		ldr	r3, [r7, #12]
 876:Generated_Source\PSoC4/ADC.c ****     }
 1259              		.loc 1 876 0
 1260 006a 181C     		adds	r0, r3, #0
 1261 006c BD46     		mov	sp, r7
 1262 006e 05B0     		add	sp, sp, #20
 1263              		@ sp needed
 1264 0070 90BD     		pop	{r4, r7, pc}
 1265              	.L88:
 1266 0072 C046     		.align	2
 1267              	.L87:
 1268 0074 00000000 		.word	ADC_offset
 1269 0078 00002041 		.word	1092616192
 1270 007c 00000000 		.word	ADC_countsPer10Volt
 1271              		.cfi_endproc
 1272              	.LFE17:
 1273              		.size	ADC_CountsTo_Volts, .-ADC_CountsTo_Volts
 1274              		.text
 1275              	.Letext0:
 1276              		.file 2 "Generated_Source\\PSoC4\\cytypes.h"