ARM GAS  C:\Users\EDULU~1.DES\AppData\Local\Temp\cc10QHjd.s 			page 1


   1              		.syntax unified
   2              		.cpu cortex-m0
   3              		.fpu softvfp
   4              		.eabi_attribute 20, 1
   5              		.eabi_attribute 21, 1
   6              		.eabi_attribute 23, 3
   7              		.eabi_attribute 24, 1
   8              		.eabi_attribute 25, 1
   9              		.eabi_attribute 26, 1
  10              		.eabi_attribute 30, 6
  11              		.eabi_attribute 34, 0
  12              		.eabi_attribute 18, 4
  13              		.thumb
  14              		.syntax unified
  15              		.file	"I2C_I2C_MASTER.c"
  16              		.text
  17              	.Ltext0:
  18              		.cfi_sections	.debug_frame
  19              		.comm	I2C_mstrStatus,2,2
  20              		.comm	I2C_mstrControl,1,1
  21              		.comm	I2C_mstrRdBufPtr,4,4
  22              		.comm	I2C_mstrRdBufSize,4,4
  23              		.comm	I2C_mstrRdBufIndex,4,4
  24              		.comm	I2C_mstrWrBufPtr,4,4
  25              		.comm	I2C_mstrWrBufSize,4,4
  26              		.comm	I2C_mstrWrBufIndex,4,4
  27              		.comm	I2C_mstrWrBufIndexTmp,4,4
  28              		.section	.text.I2C_I2CMasterWriteBuf,"ax",%progbits
  29              		.align	2
  30              		.global	I2C_I2CMasterWriteBuf
  31              		.code	16
  32              		.thumb_func
  33              		.type	I2C_I2CMasterWriteBuf, %function
  34              	I2C_I2CMasterWriteBuf:
  35              	.LFB0:
  36              		.file 1 "Generated_Source\\PSoC4\\I2C_I2C_MASTER.c"
   1:Generated_Source\PSoC4/I2C_I2C_MASTER.c **** /***************************************************************************//**
   2:Generated_Source\PSoC4/I2C_I2C_MASTER.c **** * \file I2C_I2C_MASTER.c
   3:Generated_Source\PSoC4/I2C_I2C_MASTER.c **** * \version 4.0
   4:Generated_Source\PSoC4/I2C_I2C_MASTER.c **** *
   5:Generated_Source\PSoC4/I2C_I2C_MASTER.c **** * \brief
   6:Generated_Source\PSoC4/I2C_I2C_MASTER.c **** *  This file provides the source code to the API for the SCB Component in
   7:Generated_Source\PSoC4/I2C_I2C_MASTER.c **** *  I2C Master mode.
   8:Generated_Source\PSoC4/I2C_I2C_MASTER.c **** *
   9:Generated_Source\PSoC4/I2C_I2C_MASTER.c **** * Note:
  10:Generated_Source\PSoC4/I2C_I2C_MASTER.c **** *
  11:Generated_Source\PSoC4/I2C_I2C_MASTER.c **** *******************************************************************************
  12:Generated_Source\PSoC4/I2C_I2C_MASTER.c **** * \copyright
  13:Generated_Source\PSoC4/I2C_I2C_MASTER.c **** * Copyright 2013-2017, Cypress Semiconductor Corporation.  All rights reserved.
  14:Generated_Source\PSoC4/I2C_I2C_MASTER.c **** * You may use this file only in accordance with the license, terms, conditions,
  15:Generated_Source\PSoC4/I2C_I2C_MASTER.c **** * disclaimers, and limitations in the end user license agreement accompanying
  16:Generated_Source\PSoC4/I2C_I2C_MASTER.c **** * the software package with which this file was provided.
  17:Generated_Source\PSoC4/I2C_I2C_MASTER.c **** *******************************************************************************/
  18:Generated_Source\PSoC4/I2C_I2C_MASTER.c **** 
  19:Generated_Source\PSoC4/I2C_I2C_MASTER.c **** #include "I2C_PVT.h"
  20:Generated_Source\PSoC4/I2C_I2C_MASTER.c **** #include "I2C_I2C_PVT.h"
  21:Generated_Source\PSoC4/I2C_I2C_MASTER.c **** 
ARM GAS  C:\Users\EDULU~1.DES\AppData\Local\Temp\cc10QHjd.s 			page 2


  22:Generated_Source\PSoC4/I2C_I2C_MASTER.c **** #if(I2C_I2C_MASTER_CONST)
  23:Generated_Source\PSoC4/I2C_I2C_MASTER.c **** 
  24:Generated_Source\PSoC4/I2C_I2C_MASTER.c **** /***************************************
  25:Generated_Source\PSoC4/I2C_I2C_MASTER.c **** *      I2C Master Private Vars
  26:Generated_Source\PSoC4/I2C_I2C_MASTER.c **** ***************************************/
  27:Generated_Source\PSoC4/I2C_I2C_MASTER.c **** 
  28:Generated_Source\PSoC4/I2C_I2C_MASTER.c **** /* Master variables */
  29:Generated_Source\PSoC4/I2C_I2C_MASTER.c **** volatile uint16 I2C_mstrStatus;      /* Master Status byte  */
  30:Generated_Source\PSoC4/I2C_I2C_MASTER.c **** volatile uint8  I2C_mstrControl;     /* Master Control byte */
  31:Generated_Source\PSoC4/I2C_I2C_MASTER.c **** 
  32:Generated_Source\PSoC4/I2C_I2C_MASTER.c **** /* Receive buffer variables */
  33:Generated_Source\PSoC4/I2C_I2C_MASTER.c **** volatile uint8 * I2C_mstrRdBufPtr;   /* Pointer to Master Read buffer */
  34:Generated_Source\PSoC4/I2C_I2C_MASTER.c **** volatile uint32  I2C_mstrRdBufSize;  /* Master Read buffer size       */
  35:Generated_Source\PSoC4/I2C_I2C_MASTER.c **** volatile uint32  I2C_mstrRdBufIndex; /* Master Read buffer Index      */
  36:Generated_Source\PSoC4/I2C_I2C_MASTER.c **** 
  37:Generated_Source\PSoC4/I2C_I2C_MASTER.c **** /* Transmit buffer variables */
  38:Generated_Source\PSoC4/I2C_I2C_MASTER.c **** volatile uint8 * I2C_mstrWrBufPtr;   /* Pointer to Master Write buffer */
  39:Generated_Source\PSoC4/I2C_I2C_MASTER.c **** volatile uint32  I2C_mstrWrBufSize;  /* Master Write buffer size       */
  40:Generated_Source\PSoC4/I2C_I2C_MASTER.c **** volatile uint32  I2C_mstrWrBufIndex; /* Master Write buffer Index      */
  41:Generated_Source\PSoC4/I2C_I2C_MASTER.c **** volatile uint32  I2C_mstrWrBufIndexTmp; /* Master Write buffer Index Tmp */
  42:Generated_Source\PSoC4/I2C_I2C_MASTER.c **** 
  43:Generated_Source\PSoC4/I2C_I2C_MASTER.c **** #if (!I2C_CY_SCBIP_V0 && \
  44:Generated_Source\PSoC4/I2C_I2C_MASTER.c ****     I2C_I2C_MULTI_MASTER_SLAVE_CONST && I2C_I2C_WAKE_ENABLE_CONST)
  45:Generated_Source\PSoC4/I2C_I2C_MASTER.c ****     static void I2C_I2CMasterDisableEcAm(void);
  46:Generated_Source\PSoC4/I2C_I2C_MASTER.c **** #else
  47:Generated_Source\PSoC4/I2C_I2C_MASTER.c ****     #define I2C_I2CMasterDisableEcAm()     do{ /* Empty */ }while(0)
  48:Generated_Source\PSoC4/I2C_I2C_MASTER.c **** #endif /* (!I2C_CY_SCBIP_V0) */
  49:Generated_Source\PSoC4/I2C_I2C_MASTER.c **** 
  50:Generated_Source\PSoC4/I2C_I2C_MASTER.c **** static uint32 I2C_I2CMasterHandleStatus(uint32 status);
  51:Generated_Source\PSoC4/I2C_I2C_MASTER.c **** static uint32 I2C_I2CMasterWaitOneUnit(uint32 *timeout);
  52:Generated_Source\PSoC4/I2C_I2C_MASTER.c **** 
  53:Generated_Source\PSoC4/I2C_I2C_MASTER.c **** 
  54:Generated_Source\PSoC4/I2C_I2C_MASTER.c **** /*******************************************************************************
  55:Generated_Source\PSoC4/I2C_I2C_MASTER.c **** * Function Name: I2C_I2CMasterWriteBuf
  56:Generated_Source\PSoC4/I2C_I2C_MASTER.c **** ****************************************************************************//**
  57:Generated_Source\PSoC4/I2C_I2C_MASTER.c **** *
  58:Generated_Source\PSoC4/I2C_I2C_MASTER.c **** *  Automatically writes an entire buffer of data to a slave device.
  59:Generated_Source\PSoC4/I2C_I2C_MASTER.c **** *  Once the data transfer is initiated by this function, further data transfer
  60:Generated_Source\PSoC4/I2C_I2C_MASTER.c **** *  is handled by the included ISR.
  61:Generated_Source\PSoC4/I2C_I2C_MASTER.c **** *  Enables the I2C interrupt and clears I2C_I2C_MSTAT_WR_CMPLT
  62:Generated_Source\PSoC4/I2C_I2C_MASTER.c **** *  status.
  63:Generated_Source\PSoC4/I2C_I2C_MASTER.c **** *
  64:Generated_Source\PSoC4/I2C_I2C_MASTER.c **** *  \param slaveAddr: 7-bit slave address.
  65:Generated_Source\PSoC4/I2C_I2C_MASTER.c **** *  \param xferData: Pointer to buffer of data to be sent.
  66:Generated_Source\PSoC4/I2C_I2C_MASTER.c **** *  \param cnt: Size of buffer to send.
  67:Generated_Source\PSoC4/I2C_I2C_MASTER.c **** *  \param mode: Transfer mode defines:
  68:Generated_Source\PSoC4/I2C_I2C_MASTER.c **** *  (1) Whether a start or restart condition is generated at the beginning
  69:Generated_Source\PSoC4/I2C_I2C_MASTER.c **** *  of the transfer, and
  70:Generated_Source\PSoC4/I2C_I2C_MASTER.c **** *  (2) Whether the transfer is completed or halted before the stop
  71:Generated_Source\PSoC4/I2C_I2C_MASTER.c **** *  condition is generated on the bus.Transfer mode, mode constants
  72:Generated_Source\PSoC4/I2C_I2C_MASTER.c **** *  may be ORed together.
  73:Generated_Source\PSoC4/I2C_I2C_MASTER.c **** *  - I2C_I2C_MODE_COMPLETE_XFER - Perform complete transfer
  74:Generated_Source\PSoC4/I2C_I2C_MASTER.c **** *    from Start to Stop.
  75:Generated_Source\PSoC4/I2C_I2C_MASTER.c **** *  - I2C_I2C_MODE_REPEAT_START - Send Repeat Start instead
  76:Generated_Source\PSoC4/I2C_I2C_MASTER.c **** *    of Start. A Stop is generated after transfer is completed unless
  77:Generated_Source\PSoC4/I2C_I2C_MASTER.c **** *    NO_STOP is specified.
  78:Generated_Source\PSoC4/I2C_I2C_MASTER.c **** *  - I2C_I2C_MODE_NO_STOP Execute transfer without a Stop.
ARM GAS  C:\Users\EDULU~1.DES\AppData\Local\Temp\cc10QHjd.s 			page 3


  79:Generated_Source\PSoC4/I2C_I2C_MASTER.c **** *    The following transfer expected to perform ReStart.
  80:Generated_Source\PSoC4/I2C_I2C_MASTER.c **** *
  81:Generated_Source\PSoC4/I2C_I2C_MASTER.c **** * \return
  82:Generated_Source\PSoC4/I2C_I2C_MASTER.c **** *  Error status.
  83:Generated_Source\PSoC4/I2C_I2C_MASTER.c **** *  - I2C_I2C_MSTR_NO_ERROR - Function complete without error.
  84:Generated_Source\PSoC4/I2C_I2C_MASTER.c **** *    The master started the transfer.
  85:Generated_Source\PSoC4/I2C_I2C_MASTER.c **** *  - I2C_I2C_MSTR_BUS_BUSY - Bus is busy. Nothing was sent on
  86:Generated_Source\PSoC4/I2C_I2C_MASTER.c **** *    the bus. The attempt has to be retried.
  87:Generated_Source\PSoC4/I2C_I2C_MASTER.c **** *  - I2C_I2C_MSTR_NOT_READY - Master is not ready for to start
  88:Generated_Source\PSoC4/I2C_I2C_MASTER.c **** *    transfer. A master still has not completed previous transaction or a
  89:Generated_Source\PSoC4/I2C_I2C_MASTER.c **** *    slave operation is in progress (in multi-master-slave configuration).
  90:Generated_Source\PSoC4/I2C_I2C_MASTER.c **** *    Nothing was sent on the bus. The attempt has to be retried.
  91:Generated_Source\PSoC4/I2C_I2C_MASTER.c **** *
  92:Generated_Source\PSoC4/I2C_I2C_MASTER.c **** * \globalvars
  93:Generated_Source\PSoC4/I2C_I2C_MASTER.c **** *  I2C_mstrStatus  - used to store current status of I2C Master.
  94:Generated_Source\PSoC4/I2C_I2C_MASTER.c **** *  I2C_state       - used to store current state of software FSM.
  95:Generated_Source\PSoC4/I2C_I2C_MASTER.c **** *  I2C_mstrControl - used to control master end of transaction with
  96:Generated_Source\PSoC4/I2C_I2C_MASTER.c **** *  or without the Stop generation.
  97:Generated_Source\PSoC4/I2C_I2C_MASTER.c **** *  I2C_mstrWrBufPtr - used to store pointer to master write buffer.
  98:Generated_Source\PSoC4/I2C_I2C_MASTER.c **** *  I2C_mstrWrBufIndex - used to current index within master write
  99:Generated_Source\PSoC4/I2C_I2C_MASTER.c **** *  buffer.
 100:Generated_Source\PSoC4/I2C_I2C_MASTER.c **** *  I2C_mstrWrBufSize - used to store master write buffer size.
 101:Generated_Source\PSoC4/I2C_I2C_MASTER.c **** *
 102:Generated_Source\PSoC4/I2C_I2C_MASTER.c **** *******************************************************************************/
 103:Generated_Source\PSoC4/I2C_I2C_MASTER.c **** uint32 I2C_I2CMasterWriteBuf(uint32 slaveAddress, uint8 * wrData, uint32 cnt, uint32 mode)
 104:Generated_Source\PSoC4/I2C_I2C_MASTER.c **** {
  37              		.loc 1 104 0
  38              		.cfi_startproc
  39              		@ args = 0, pretend = 0, frame = 24
  40              		@ frame_needed = 1, uses_anonymous_args = 0
  41 0000 80B5     		push	{r7, lr}
  42              		.cfi_def_cfa_offset 8
  43              		.cfi_offset 7, -8
  44              		.cfi_offset 14, -4
  45 0002 86B0     		sub	sp, sp, #24
  46              		.cfi_def_cfa_offset 32
  47 0004 00AF     		add	r7, sp, #0
  48              		.cfi_def_cfa_register 7
  49 0006 F860     		str	r0, [r7, #12]
  50 0008 B960     		str	r1, [r7, #8]
  51 000a 7A60     		str	r2, [r7, #4]
  52 000c 3B60     		str	r3, [r7]
 105:Generated_Source\PSoC4/I2C_I2C_MASTER.c ****     uint32 errStatus;
 106:Generated_Source\PSoC4/I2C_I2C_MASTER.c **** 
 107:Generated_Source\PSoC4/I2C_I2C_MASTER.c ****     errStatus = I2C_I2C_MSTR_NOT_READY;
  53              		.loc 1 107 0
  54 000e 0423     		movs	r3, #4
  55 0010 7B61     		str	r3, [r7, #20]
 108:Generated_Source\PSoC4/I2C_I2C_MASTER.c **** 
 109:Generated_Source\PSoC4/I2C_I2C_MASTER.c ****     if(NULL != wrData)  /* Check buffer pointer */
  56              		.loc 1 109 0
  57 0012 BB68     		ldr	r3, [r7, #8]
  58 0014 002B     		cmp	r3, #0
  59 0016 20D0     		beq	.L2
 110:Generated_Source\PSoC4/I2C_I2C_MASTER.c ****     {
 111:Generated_Source\PSoC4/I2C_I2C_MASTER.c ****         /* Check FSM state and bus before generating Start/ReStart condition */
 112:Generated_Source\PSoC4/I2C_I2C_MASTER.c ****         if(I2C_CHECK_I2C_FSM_IDLE)
ARM GAS  C:\Users\EDULU~1.DES\AppData\Local\Temp\cc10QHjd.s 			page 4


  60              		.loc 1 112 0
  61 0018 344B     		ldr	r3, .L9
  62 001a 1B78     		ldrb	r3, [r3]
  63 001c DBB2     		uxtb	r3, r3
  64 001e 102B     		cmp	r3, #16
  65 0020 0CD1     		bne	.L3
 113:Generated_Source\PSoC4/I2C_I2C_MASTER.c ****         {
 114:Generated_Source\PSoC4/I2C_I2C_MASTER.c ****             I2C_DisableInt();  /* Lock from interruption */
  66              		.loc 1 114 0
  67 0022 0A20     		movs	r0, #10
  68 0024 FFF7FEFF 		bl	CyIntDisable
 115:Generated_Source\PSoC4/I2C_I2C_MASTER.c **** 
 116:Generated_Source\PSoC4/I2C_I2C_MASTER.c ****             /* Check bus state */
 117:Generated_Source\PSoC4/I2C_I2C_MASTER.c ****             errStatus = I2C_CHECK_I2C_STATUS(I2C_I2C_STATUS_BUS_BUSY) ?
  69              		.loc 1 117 0
  70 0028 314B     		ldr	r3, .L9+4
  71 002a 1B68     		ldr	r3, [r3]
  72 002c 0122     		movs	r2, #1
  73 002e 1340     		ands	r3, r2
  74 0030 01D0     		beq	.L4
  75              		.loc 1 117 0 is_stmt 0 discriminator 1
  76 0032 0823     		movs	r3, #8
  77 0034 00E0     		b	.L5
  78              	.L4:
  79              		.loc 1 117 0 discriminator 2
  80 0036 0023     		movs	r3, #0
  81              	.L5:
  82              		.loc 1 117 0 discriminator 4
  83 0038 7B61     		str	r3, [r7, #20]
  84 003a 0EE0     		b	.L2
  85              	.L3:
 118:Generated_Source\PSoC4/I2C_I2C_MASTER.c ****                             I2C_I2C_MSTR_BUS_BUSY : I2C_I2C_MSTR_NO_ERROR;
 119:Generated_Source\PSoC4/I2C_I2C_MASTER.c ****         }
 120:Generated_Source\PSoC4/I2C_I2C_MASTER.c ****         else if(I2C_CHECK_I2C_FSM_HALT)
  86              		.loc 1 120 0 is_stmt 1
  87 003c 2B4B     		ldr	r3, .L9
  88 003e 1B78     		ldrb	r3, [r3]
  89 0040 DBB2     		uxtb	r3, r3
  90 0042 602B     		cmp	r3, #96
  91 0044 09D1     		bne	.L2
 121:Generated_Source\PSoC4/I2C_I2C_MASTER.c ****         {
 122:Generated_Source\PSoC4/I2C_I2C_MASTER.c ****             I2C_mstrStatus &= (uint16) ~I2C_I2C_MSTAT_XFER_HALT;
  92              		.loc 1 122 0
  93 0046 2B4B     		ldr	r3, .L9+8
  94 0048 1B88     		ldrh	r3, [r3]
  95 004a 9BB2     		uxth	r3, r3
  96 004c 0822     		movs	r2, #8
  97 004e 9343     		bics	r3, r2
  98 0050 9AB2     		uxth	r2, r3
  99 0052 284B     		ldr	r3, .L9+8
 100 0054 1A80     		strh	r2, [r3]
 123:Generated_Source\PSoC4/I2C_I2C_MASTER.c ****                               errStatus  = I2C_I2C_MSTR_NO_ERROR;
 101              		.loc 1 123 0
 102 0056 0023     		movs	r3, #0
 103 0058 7B61     		str	r3, [r7, #20]
 104              	.L2:
 124:Generated_Source\PSoC4/I2C_I2C_MASTER.c ****         }
ARM GAS  C:\Users\EDULU~1.DES\AppData\Local\Temp\cc10QHjd.s 			page 5


 125:Generated_Source\PSoC4/I2C_I2C_MASTER.c ****         else
 126:Generated_Source\PSoC4/I2C_I2C_MASTER.c ****         {
 127:Generated_Source\PSoC4/I2C_I2C_MASTER.c ****             /* Unexpected FSM state: exit */
 128:Generated_Source\PSoC4/I2C_I2C_MASTER.c ****         }
 129:Generated_Source\PSoC4/I2C_I2C_MASTER.c ****     }
 130:Generated_Source\PSoC4/I2C_I2C_MASTER.c **** 
 131:Generated_Source\PSoC4/I2C_I2C_MASTER.c ****     /* Check if master is ready to start  */
 132:Generated_Source\PSoC4/I2C_I2C_MASTER.c ****     if(I2C_I2C_MSTR_NO_ERROR == errStatus) /* No error proceed */
 105              		.loc 1 132 0
 106 005a 7B69     		ldr	r3, [r7, #20]
 107 005c 002B     		cmp	r3, #0
 108 005e 3CD1     		bne	.L6
 133:Generated_Source\PSoC4/I2C_I2C_MASTER.c ****     {
 134:Generated_Source\PSoC4/I2C_I2C_MASTER.c ****         /* Non-empty for master-slave mode when wakeup enabled */
 135:Generated_Source\PSoC4/I2C_I2C_MASTER.c ****         I2C_I2CMasterDisableEcAm();
 136:Generated_Source\PSoC4/I2C_I2C_MASTER.c **** 
 137:Generated_Source\PSoC4/I2C_I2C_MASTER.c ****         /* Set up write transaction */
 138:Generated_Source\PSoC4/I2C_I2C_MASTER.c ****         I2C_state = I2C_I2C_FSM_MSTR_WR_ADDR;
 109              		.loc 1 138 0
 110 0060 224B     		ldr	r3, .L9
 111 0062 2822     		movs	r2, #40
 112 0064 1A70     		strb	r2, [r3]
 139:Generated_Source\PSoC4/I2C_I2C_MASTER.c ****         I2C_mstrWrBufIndexTmp = 0u;
 113              		.loc 1 139 0
 114 0066 244B     		ldr	r3, .L9+12
 115 0068 0022     		movs	r2, #0
 116 006a 1A60     		str	r2, [r3]
 140:Generated_Source\PSoC4/I2C_I2C_MASTER.c ****         I2C_mstrWrBufIndex    = 0u;
 117              		.loc 1 140 0
 118 006c 234B     		ldr	r3, .L9+16
 119 006e 0022     		movs	r2, #0
 120 0070 1A60     		str	r2, [r3]
 141:Generated_Source\PSoC4/I2C_I2C_MASTER.c ****         I2C_mstrWrBufSize     = cnt;
 121              		.loc 1 141 0
 122 0072 234B     		ldr	r3, .L9+20
 123 0074 7A68     		ldr	r2, [r7, #4]
 124 0076 1A60     		str	r2, [r3]
 142:Generated_Source\PSoC4/I2C_I2C_MASTER.c ****         I2C_mstrWrBufPtr      = (volatile uint8 *) wrData;
 125              		.loc 1 142 0
 126 0078 224B     		ldr	r3, .L9+24
 127 007a BA68     		ldr	r2, [r7, #8]
 128 007c 1A60     		str	r2, [r3]
 143:Generated_Source\PSoC4/I2C_I2C_MASTER.c ****         I2C_mstrControl       = (uint8) mode;
 129              		.loc 1 143 0
 130 007e 3B68     		ldr	r3, [r7]
 131 0080 DAB2     		uxtb	r2, r3
 132 0082 214B     		ldr	r3, .L9+28
 133 0084 1A70     		strb	r2, [r3]
 144:Generated_Source\PSoC4/I2C_I2C_MASTER.c **** 
 145:Generated_Source\PSoC4/I2C_I2C_MASTER.c ****         slaveAddress = I2C_GET_I2C_8BIT_ADDRESS(slaveAddress);
 134              		.loc 1 145 0
 135 0086 FB68     		ldr	r3, [r7, #12]
 136 0088 5B00     		lsls	r3, r3, #1
 137 008a FF22     		movs	r2, #255
 138 008c 1340     		ands	r3, r2
 139 008e FB60     		str	r3, [r7, #12]
 146:Generated_Source\PSoC4/I2C_I2C_MASTER.c **** 
ARM GAS  C:\Users\EDULU~1.DES\AppData\Local\Temp\cc10QHjd.s 			page 6


 147:Generated_Source\PSoC4/I2C_I2C_MASTER.c ****         I2C_mstrStatus &= (uint16) ~I2C_I2C_MSTAT_WR_CMPLT;
 140              		.loc 1 147 0
 141 0090 184B     		ldr	r3, .L9+8
 142 0092 1B88     		ldrh	r3, [r3]
 143 0094 9BB2     		uxth	r3, r3
 144 0096 0222     		movs	r2, #2
 145 0098 9343     		bics	r3, r2
 146 009a 9AB2     		uxth	r2, r3
 147 009c 154B     		ldr	r3, .L9+8
 148 009e 1A80     		strh	r2, [r3]
 148:Generated_Source\PSoC4/I2C_I2C_MASTER.c **** 
 149:Generated_Source\PSoC4/I2C_I2C_MASTER.c ****         I2C_ClearTxInterruptSource    (I2C_INTR_TX_UNDERFLOW);
 149              		.loc 1 149 0
 150 00a0 1A4B     		ldr	r3, .L9+32
 151 00a2 4022     		movs	r2, #64
 152 00a4 1A60     		str	r2, [r3]
 150:Generated_Source\PSoC4/I2C_I2C_MASTER.c ****         I2C_ClearMasterInterruptSource(I2C_INTR_MASTER_ALL);
 153              		.loc 1 150 0
 154 00a6 1A4B     		ldr	r3, .L9+36
 155 00a8 1A4A     		ldr	r2, .L9+40
 156 00aa 1A60     		str	r2, [r3]
 151:Generated_Source\PSoC4/I2C_I2C_MASTER.c ****         I2C_SetMasterInterruptMode    (I2C_I2C_INTR_MASTER_MASK);
 157              		.loc 1 151 0
 158 00ac 1A4B     		ldr	r3, .L9+44
 159 00ae 1422     		movs	r2, #20
 160 00b0 FF32     		adds	r2, r2, #255
 161 00b2 1A60     		str	r2, [r3]
 152:Generated_Source\PSoC4/I2C_I2C_MASTER.c **** 
 153:Generated_Source\PSoC4/I2C_I2C_MASTER.c ****         /* The TX and RX FIFO have to be EMPTY */
 154:Generated_Source\PSoC4/I2C_I2C_MASTER.c **** 
 155:Generated_Source\PSoC4/I2C_I2C_MASTER.c ****         /* Enable interrupt source to catch when address is sent */
 156:Generated_Source\PSoC4/I2C_I2C_MASTER.c ****         I2C_SetTxInterruptMode(I2C_INTR_TX_UNDERFLOW);
 162              		.loc 1 156 0
 163 00b4 194B     		ldr	r3, .L9+48
 164 00b6 4022     		movs	r2, #64
 165 00b8 1A60     		str	r2, [r3]
 157:Generated_Source\PSoC4/I2C_I2C_MASTER.c **** 
 158:Generated_Source\PSoC4/I2C_I2C_MASTER.c ****         /* Generate Start or ReStart */
 159:Generated_Source\PSoC4/I2C_I2C_MASTER.c ****         if(I2C_CHECK_I2C_MODE_RESTART(mode))
 166              		.loc 1 159 0
 167 00ba 3B68     		ldr	r3, [r7]
 168 00bc 0122     		movs	r2, #1
 169 00be 1340     		ands	r3, r2
 170 00c0 05D0     		beq	.L7
 160:Generated_Source\PSoC4/I2C_I2C_MASTER.c ****         {
 161:Generated_Source\PSoC4/I2C_I2C_MASTER.c ****             I2C_I2C_MASTER_GENERATE_RESTART;
 171              		.loc 1 161 0
 172 00c2 FFF7FEFF 		bl	I2C_I2CReStartGeneration
 162:Generated_Source\PSoC4/I2C_I2C_MASTER.c ****             I2C_TX_FIFO_WR_REG = slaveAddress;
 173              		.loc 1 162 0
 174 00c6 164B     		ldr	r3, .L9+52
 175 00c8 FA68     		ldr	r2, [r7, #12]
 176 00ca 1A60     		str	r2, [r3]
 177 00cc 05E0     		b	.L6
 178              	.L7:
 163:Generated_Source\PSoC4/I2C_I2C_MASTER.c ****         }
 164:Generated_Source\PSoC4/I2C_I2C_MASTER.c ****         else
ARM GAS  C:\Users\EDULU~1.DES\AppData\Local\Temp\cc10QHjd.s 			page 7


 165:Generated_Source\PSoC4/I2C_I2C_MASTER.c ****         {
 166:Generated_Source\PSoC4/I2C_I2C_MASTER.c ****             I2C_TX_FIFO_WR_REG = slaveAddress;
 179              		.loc 1 166 0
 180 00ce 144B     		ldr	r3, .L9+52
 181 00d0 FA68     		ldr	r2, [r7, #12]
 182 00d2 1A60     		str	r2, [r3]
 167:Generated_Source\PSoC4/I2C_I2C_MASTER.c ****             I2C_I2C_MASTER_GENERATE_START;
 183              		.loc 1 167 0
 184 00d4 134B     		ldr	r3, .L9+56
 185 00d6 0222     		movs	r2, #2
 186 00d8 1A60     		str	r2, [r3]
 187              	.L6:
 168:Generated_Source\PSoC4/I2C_I2C_MASTER.c ****         }
 169:Generated_Source\PSoC4/I2C_I2C_MASTER.c ****     }
 170:Generated_Source\PSoC4/I2C_I2C_MASTER.c **** 
 171:Generated_Source\PSoC4/I2C_I2C_MASTER.c ****     I2C_EnableInt();   /* Release lock */
 188              		.loc 1 171 0
 189 00da 0A20     		movs	r0, #10
 190 00dc FFF7FEFF 		bl	CyIntEnable
 172:Generated_Source\PSoC4/I2C_I2C_MASTER.c **** 
 173:Generated_Source\PSoC4/I2C_I2C_MASTER.c ****     return(errStatus);
 191              		.loc 1 173 0
 192 00e0 7B69     		ldr	r3, [r7, #20]
 174:Generated_Source\PSoC4/I2C_I2C_MASTER.c **** }
 193              		.loc 1 174 0
 194 00e2 1800     		movs	r0, r3
 195 00e4 BD46     		mov	sp, r7
 196 00e6 06B0     		add	sp, sp, #24
 197              		@ sp needed
 198 00e8 80BD     		pop	{r7, pc}
 199              	.L10:
 200 00ea C046     		.align	2
 201              	.L9:
 202 00ec 00000000 		.word	I2C_state
 203 00f0 64000640 		.word	1074135140
 204 00f4 00000000 		.word	I2C_mstrStatus
 205 00f8 00000000 		.word	I2C_mstrWrBufIndexTmp
 206 00fc 00000000 		.word	I2C_mstrWrBufIndex
 207 0100 00000000 		.word	I2C_mstrWrBufSize
 208 0104 00000000 		.word	I2C_mstrWrBufPtr
 209 0108 00000000 		.word	I2C_mstrControl
 210 010c 800F0640 		.word	1074139008
 211 0110 000F0640 		.word	1074138880
 212 0114 17030000 		.word	791
 213 0118 080F0640 		.word	1074138888
 214 011c 880F0640 		.word	1074139016
 215 0120 40020640 		.word	1074135616
 216 0124 68000640 		.word	1074135144
 217              		.cfi_endproc
 218              	.LFE0:
 219              		.size	I2C_I2CMasterWriteBuf, .-I2C_I2CMasterWriteBuf
 220              		.section	.text.I2C_I2CMasterReadBuf,"ax",%progbits
 221              		.align	2
 222              		.global	I2C_I2CMasterReadBuf
 223              		.code	16
 224              		.thumb_func
 225              		.type	I2C_I2CMasterReadBuf, %function
ARM GAS  C:\Users\EDULU~1.DES\AppData\Local\Temp\cc10QHjd.s 			page 8


 226              	I2C_I2CMasterReadBuf:
 227              	.LFB1:
 175:Generated_Source\PSoC4/I2C_I2C_MASTER.c **** 
 176:Generated_Source\PSoC4/I2C_I2C_MASTER.c **** 
 177:Generated_Source\PSoC4/I2C_I2C_MASTER.c **** /*******************************************************************************
 178:Generated_Source\PSoC4/I2C_I2C_MASTER.c **** * Function Name: I2C_I2CMasterReadBuf
 179:Generated_Source\PSoC4/I2C_I2C_MASTER.c **** ****************************************************************************//**
 180:Generated_Source\PSoC4/I2C_I2C_MASTER.c **** *
 181:Generated_Source\PSoC4/I2C_I2C_MASTER.c **** *  Automatically reads an entire buffer of data from a slave device.
 182:Generated_Source\PSoC4/I2C_I2C_MASTER.c **** *  Once the data transfer is initiated by this function, further data transfer
 183:Generated_Source\PSoC4/I2C_I2C_MASTER.c **** *  is handled by the included ISR.
 184:Generated_Source\PSoC4/I2C_I2C_MASTER.c **** *  Enables the I2C interrupt and clears I2C_I2C_MSTAT_RD_CMPLT
 185:Generated_Source\PSoC4/I2C_I2C_MASTER.c **** *  status.
 186:Generated_Source\PSoC4/I2C_I2C_MASTER.c **** *
 187:Generated_Source\PSoC4/I2C_I2C_MASTER.c **** *  \param slaveAddr: 7-bit slave address.
 188:Generated_Source\PSoC4/I2C_I2C_MASTER.c **** *  \param xferData: Pointer to buffer of data to be sent.
 189:Generated_Source\PSoC4/I2C_I2C_MASTER.c **** *  \param cnt: Size of buffer to send.
 190:Generated_Source\PSoC4/I2C_I2C_MASTER.c **** *  \param mode: Transfer mode defines:
 191:Generated_Source\PSoC4/I2C_I2C_MASTER.c **** *  (1) Whether a start or restart condition is generated at the beginning
 192:Generated_Source\PSoC4/I2C_I2C_MASTER.c **** *  of the transfer, and
 193:Generated_Source\PSoC4/I2C_I2C_MASTER.c **** *  (2) Whether the transfer is completed or halted before the stop
 194:Generated_Source\PSoC4/I2C_I2C_MASTER.c **** *  condition is generated on the bus.Transfer mode, mode constants may
 195:Generated_Source\PSoC4/I2C_I2C_MASTER.c **** *  be ORed together. See I2C_I2CMasterWriteBuf()
 196:Generated_Source\PSoC4/I2C_I2C_MASTER.c **** *  function for constants.
 197:Generated_Source\PSoC4/I2C_I2C_MASTER.c **** *
 198:Generated_Source\PSoC4/I2C_I2C_MASTER.c **** * \return
 199:Generated_Source\PSoC4/I2C_I2C_MASTER.c **** *  Error status.See I2C_I2CMasterWriteBuf()
 200:Generated_Source\PSoC4/I2C_I2C_MASTER.c **** *  function for constants.
 201:Generated_Source\PSoC4/I2C_I2C_MASTER.c **** *
 202:Generated_Source\PSoC4/I2C_I2C_MASTER.c **** * \globalvars
 203:Generated_Source\PSoC4/I2C_I2C_MASTER.c **** *  I2C_mstrStatus  - used to store current status of I2C Master.
 204:Generated_Source\PSoC4/I2C_I2C_MASTER.c **** *  I2C_state       - used to store current state of software FSM.
 205:Generated_Source\PSoC4/I2C_I2C_MASTER.c **** *  I2C_mstrControl - used to control master end of transaction with
 206:Generated_Source\PSoC4/I2C_I2C_MASTER.c **** *  or without the Stop generation.
 207:Generated_Source\PSoC4/I2C_I2C_MASTER.c **** *  I2C_mstrRdBufPtr - used to store pointer to master read buffer.
 208:Generated_Source\PSoC4/I2C_I2C_MASTER.c **** *  I2C_mstrRdBufIndex - used to current index within master read
 209:Generated_Source\PSoC4/I2C_I2C_MASTER.c **** *  buffer.
 210:Generated_Source\PSoC4/I2C_I2C_MASTER.c **** *  I2C_mstrRdBufSize - used to store master read buffer size.
 211:Generated_Source\PSoC4/I2C_I2C_MASTER.c **** *
 212:Generated_Source\PSoC4/I2C_I2C_MASTER.c **** *******************************************************************************/
 213:Generated_Source\PSoC4/I2C_I2C_MASTER.c **** uint32 I2C_I2CMasterReadBuf(uint32 slaveAddress, uint8 * rdData, uint32 cnt, uint32 mode)
 214:Generated_Source\PSoC4/I2C_I2C_MASTER.c **** {
 228              		.loc 1 214 0
 229              		.cfi_startproc
 230              		@ args = 0, pretend = 0, frame = 24
 231              		@ frame_needed = 1, uses_anonymous_args = 0
 232 0000 80B5     		push	{r7, lr}
 233              		.cfi_def_cfa_offset 8
 234              		.cfi_offset 7, -8
 235              		.cfi_offset 14, -4
 236 0002 86B0     		sub	sp, sp, #24
 237              		.cfi_def_cfa_offset 32
 238 0004 00AF     		add	r7, sp, #0
 239              		.cfi_def_cfa_register 7
 240 0006 F860     		str	r0, [r7, #12]
 241 0008 B960     		str	r1, [r7, #8]
 242 000a 7A60     		str	r2, [r7, #4]
ARM GAS  C:\Users\EDULU~1.DES\AppData\Local\Temp\cc10QHjd.s 			page 9


 243 000c 3B60     		str	r3, [r7]
 215:Generated_Source\PSoC4/I2C_I2C_MASTER.c ****     uint32 errStatus;
 216:Generated_Source\PSoC4/I2C_I2C_MASTER.c **** 
 217:Generated_Source\PSoC4/I2C_I2C_MASTER.c ****     errStatus = I2C_I2C_MSTR_NOT_READY;
 244              		.loc 1 217 0
 245 000e 0423     		movs	r3, #4
 246 0010 7B61     		str	r3, [r7, #20]
 218:Generated_Source\PSoC4/I2C_I2C_MASTER.c **** 
 219:Generated_Source\PSoC4/I2C_I2C_MASTER.c ****     if(NULL != rdData)
 247              		.loc 1 219 0
 248 0012 BB68     		ldr	r3, [r7, #8]
 249 0014 002B     		cmp	r3, #0
 250 0016 20D0     		beq	.L12
 220:Generated_Source\PSoC4/I2C_I2C_MASTER.c ****     {
 221:Generated_Source\PSoC4/I2C_I2C_MASTER.c ****         /* Check FSM state and bus before generating Start/ReStart condition */
 222:Generated_Source\PSoC4/I2C_I2C_MASTER.c ****         if(I2C_CHECK_I2C_FSM_IDLE)
 251              		.loc 1 222 0
 252 0018 394B     		ldr	r3, .L21
 253 001a 1B78     		ldrb	r3, [r3]
 254 001c DBB2     		uxtb	r3, r3
 255 001e 102B     		cmp	r3, #16
 256 0020 0CD1     		bne	.L13
 223:Generated_Source\PSoC4/I2C_I2C_MASTER.c ****         {
 224:Generated_Source\PSoC4/I2C_I2C_MASTER.c ****             I2C_DisableInt();  /* Lock from interruption */
 257              		.loc 1 224 0
 258 0022 0A20     		movs	r0, #10
 259 0024 FFF7FEFF 		bl	CyIntDisable
 225:Generated_Source\PSoC4/I2C_I2C_MASTER.c **** 
 226:Generated_Source\PSoC4/I2C_I2C_MASTER.c ****             /* Check bus state */
 227:Generated_Source\PSoC4/I2C_I2C_MASTER.c ****             errStatus = I2C_CHECK_I2C_STATUS(I2C_I2C_STATUS_BUS_BUSY) ?
 260              		.loc 1 227 0
 261 0028 364B     		ldr	r3, .L21+4
 262 002a 1B68     		ldr	r3, [r3]
 263 002c 0122     		movs	r2, #1
 264 002e 1340     		ands	r3, r2
 265 0030 01D0     		beq	.L14
 266              		.loc 1 227 0 is_stmt 0 discriminator 1
 267 0032 0823     		movs	r3, #8
 268 0034 00E0     		b	.L15
 269              	.L14:
 270              		.loc 1 227 0 discriminator 2
 271 0036 0023     		movs	r3, #0
 272              	.L15:
 273              		.loc 1 227 0 discriminator 4
 274 0038 7B61     		str	r3, [r7, #20]
 275 003a 0EE0     		b	.L12
 276              	.L13:
 228:Generated_Source\PSoC4/I2C_I2C_MASTER.c ****                             I2C_I2C_MSTR_BUS_BUSY : I2C_I2C_MSTR_NO_ERROR;
 229:Generated_Source\PSoC4/I2C_I2C_MASTER.c ****         }
 230:Generated_Source\PSoC4/I2C_I2C_MASTER.c ****         else if(I2C_CHECK_I2C_FSM_HALT)
 277              		.loc 1 230 0 is_stmt 1
 278 003c 304B     		ldr	r3, .L21
 279 003e 1B78     		ldrb	r3, [r3]
 280 0040 DBB2     		uxtb	r3, r3
 281 0042 602B     		cmp	r3, #96
 282 0044 09D1     		bne	.L12
 231:Generated_Source\PSoC4/I2C_I2C_MASTER.c ****         {
ARM GAS  C:\Users\EDULU~1.DES\AppData\Local\Temp\cc10QHjd.s 			page 10


 232:Generated_Source\PSoC4/I2C_I2C_MASTER.c ****             I2C_mstrStatus &= (uint16) ~I2C_I2C_MSTAT_XFER_HALT;
 283              		.loc 1 232 0
 284 0046 304B     		ldr	r3, .L21+8
 285 0048 1B88     		ldrh	r3, [r3]
 286 004a 9BB2     		uxth	r3, r3
 287 004c 0822     		movs	r2, #8
 288 004e 9343     		bics	r3, r2
 289 0050 9AB2     		uxth	r2, r3
 290 0052 2D4B     		ldr	r3, .L21+8
 291 0054 1A80     		strh	r2, [r3]
 233:Generated_Source\PSoC4/I2C_I2C_MASTER.c ****                               errStatus  =  I2C_I2C_MSTR_NO_ERROR;
 292              		.loc 1 233 0
 293 0056 0023     		movs	r3, #0
 294 0058 7B61     		str	r3, [r7, #20]
 295              	.L12:
 234:Generated_Source\PSoC4/I2C_I2C_MASTER.c ****         }
 235:Generated_Source\PSoC4/I2C_I2C_MASTER.c ****         else
 236:Generated_Source\PSoC4/I2C_I2C_MASTER.c ****         {
 237:Generated_Source\PSoC4/I2C_I2C_MASTER.c ****             /* Unexpected FSM state: exit */
 238:Generated_Source\PSoC4/I2C_I2C_MASTER.c ****         }
 239:Generated_Source\PSoC4/I2C_I2C_MASTER.c ****     }
 240:Generated_Source\PSoC4/I2C_I2C_MASTER.c **** 
 241:Generated_Source\PSoC4/I2C_I2C_MASTER.c ****     /* Check master ready to proceed */
 242:Generated_Source\PSoC4/I2C_I2C_MASTER.c ****     if(I2C_I2C_MSTR_NO_ERROR == errStatus) /* No error proceed */
 296              		.loc 1 242 0
 297 005a 7B69     		ldr	r3, [r7, #20]
 298 005c 002B     		cmp	r3, #0
 299 005e 47D1     		bne	.L16
 243:Generated_Source\PSoC4/I2C_I2C_MASTER.c ****     {
 244:Generated_Source\PSoC4/I2C_I2C_MASTER.c ****         /* Non-empty for master-slave mode when wakeup enabled */
 245:Generated_Source\PSoC4/I2C_I2C_MASTER.c ****         I2C_I2CMasterDisableEcAm();
 246:Generated_Source\PSoC4/I2C_I2C_MASTER.c **** 
 247:Generated_Source\PSoC4/I2C_I2C_MASTER.c ****         /* Set up read transaction */
 248:Generated_Source\PSoC4/I2C_I2C_MASTER.c ****         I2C_state = I2C_I2C_FSM_MSTR_RD_ADDR;
 300              		.loc 1 248 0
 301 0060 274B     		ldr	r3, .L21
 302 0062 2922     		movs	r2, #41
 303 0064 1A70     		strb	r2, [r3]
 249:Generated_Source\PSoC4/I2C_I2C_MASTER.c ****         I2C_mstrRdBufIndex = 0u;
 304              		.loc 1 249 0
 305 0066 294B     		ldr	r3, .L21+12
 306 0068 0022     		movs	r2, #0
 307 006a 1A60     		str	r2, [r3]
 250:Generated_Source\PSoC4/I2C_I2C_MASTER.c ****         I2C_mstrRdBufSize  = cnt;
 308              		.loc 1 250 0
 309 006c 284B     		ldr	r3, .L21+16
 310 006e 7A68     		ldr	r2, [r7, #4]
 311 0070 1A60     		str	r2, [r3]
 251:Generated_Source\PSoC4/I2C_I2C_MASTER.c ****         I2C_mstrRdBufPtr   = (volatile uint8 *) rdData;
 312              		.loc 1 251 0
 313 0072 284B     		ldr	r3, .L21+20
 314 0074 BA68     		ldr	r2, [r7, #8]
 315 0076 1A60     		str	r2, [r3]
 252:Generated_Source\PSoC4/I2C_I2C_MASTER.c ****         I2C_mstrControl    = (uint8) mode;
 316              		.loc 1 252 0
 317 0078 3B68     		ldr	r3, [r7]
 318 007a DAB2     		uxtb	r2, r3
ARM GAS  C:\Users\EDULU~1.DES\AppData\Local\Temp\cc10QHjd.s 			page 11


 319 007c 264B     		ldr	r3, .L21+24
 320 007e 1A70     		strb	r2, [r3]
 253:Generated_Source\PSoC4/I2C_I2C_MASTER.c **** 
 254:Generated_Source\PSoC4/I2C_I2C_MASTER.c ****         slaveAddress = (I2C_GET_I2C_8BIT_ADDRESS(slaveAddress) | I2C_I2C_READ_FLAG);
 321              		.loc 1 254 0
 322 0080 FB68     		ldr	r3, [r7, #12]
 323 0082 5B00     		lsls	r3, r3, #1
 324 0084 FF22     		movs	r2, #255
 325 0086 1340     		ands	r3, r2
 326 0088 0122     		movs	r2, #1
 327 008a 1343     		orrs	r3, r2
 328 008c FB60     		str	r3, [r7, #12]
 255:Generated_Source\PSoC4/I2C_I2C_MASTER.c **** 
 256:Generated_Source\PSoC4/I2C_I2C_MASTER.c ****         I2C_mstrStatus &= (uint16) ~I2C_I2C_MSTAT_RD_CMPLT;
 329              		.loc 1 256 0
 330 008e 1E4B     		ldr	r3, .L21+8
 331 0090 1B88     		ldrh	r3, [r3]
 332 0092 9BB2     		uxth	r3, r3
 333 0094 0122     		movs	r2, #1
 334 0096 9343     		bics	r3, r2
 335 0098 9AB2     		uxth	r2, r3
 336 009a 1B4B     		ldr	r3, .L21+8
 337 009c 1A80     		strh	r2, [r3]
 257:Generated_Source\PSoC4/I2C_I2C_MASTER.c **** 
 258:Generated_Source\PSoC4/I2C_I2C_MASTER.c ****         I2C_ClearMasterInterruptSource(I2C_INTR_MASTER_ALL);
 338              		.loc 1 258 0
 339 009e 1F4B     		ldr	r3, .L21+28
 340 00a0 1F4A     		ldr	r2, .L21+32
 341 00a2 1A60     		str	r2, [r3]
 259:Generated_Source\PSoC4/I2C_I2C_MASTER.c ****         I2C_SetMasterInterruptMode    (I2C_I2C_INTR_MASTER_MASK);
 342              		.loc 1 259 0
 343 00a4 1F4B     		ldr	r3, .L21+36
 344 00a6 1422     		movs	r2, #20
 345 00a8 FF32     		adds	r2, r2, #255
 346 00aa 1A60     		str	r2, [r3]
 260:Generated_Source\PSoC4/I2C_I2C_MASTER.c **** 
 261:Generated_Source\PSoC4/I2C_I2C_MASTER.c ****         /* TX and RX FIFO have to be EMPTY */
 262:Generated_Source\PSoC4/I2C_I2C_MASTER.c **** 
 263:Generated_Source\PSoC4/I2C_I2C_MASTER.c ****         /* Prepare reading */
 264:Generated_Source\PSoC4/I2C_I2C_MASTER.c ****         if(I2C_mstrRdBufSize < I2C_I2C_FIFO_SIZE)
 347              		.loc 1 264 0
 348 00ac 184B     		ldr	r3, .L21+16
 349 00ae 1B68     		ldr	r3, [r3]
 350 00b0 072B     		cmp	r3, #7
 351 00b2 03D8     		bhi	.L17
 265:Generated_Source\PSoC4/I2C_I2C_MASTER.c ****         {
 266:Generated_Source\PSoC4/I2C_I2C_MASTER.c ****             /* Reading byte-by-byte */
 267:Generated_Source\PSoC4/I2C_I2C_MASTER.c ****             I2C_SetRxInterruptMode(I2C_INTR_RX_NOT_EMPTY);
 352              		.loc 1 267 0
 353 00b4 1C4B     		ldr	r3, .L21+40
 354 00b6 0422     		movs	r2, #4
 355 00b8 1A60     		str	r2, [r3]
 356 00ba 09E0     		b	.L18
 357              	.L17:
 268:Generated_Source\PSoC4/I2C_I2C_MASTER.c ****         }
 269:Generated_Source\PSoC4/I2C_I2C_MASTER.c ****         else
 270:Generated_Source\PSoC4/I2C_I2C_MASTER.c ****         {
ARM GAS  C:\Users\EDULU~1.DES\AppData\Local\Temp\cc10QHjd.s 			page 12


 271:Generated_Source\PSoC4/I2C_I2C_MASTER.c ****             /* Receive RX FIFO chunks */
 272:Generated_Source\PSoC4/I2C_I2C_MASTER.c ****             I2C_ENABLE_MASTER_AUTO_DATA_ACK;
 358              		.loc 1 272 0
 359 00bc 1B4B     		ldr	r3, .L21+44
 360 00be 1B4A     		ldr	r2, .L21+44
 361 00c0 1268     		ldr	r2, [r2]
 362 00c2 8021     		movs	r1, #128
 363 00c4 4900     		lsls	r1, r1, #1
 364 00c6 0A43     		orrs	r2, r1
 365 00c8 1A60     		str	r2, [r3]
 273:Generated_Source\PSoC4/I2C_I2C_MASTER.c ****             I2C_SetRxInterruptMode(I2C_INTR_RX_FULL);
 366              		.loc 1 273 0
 367 00ca 174B     		ldr	r3, .L21+40
 368 00cc 0822     		movs	r2, #8
 369 00ce 1A60     		str	r2, [r3]
 370              	.L18:
 274:Generated_Source\PSoC4/I2C_I2C_MASTER.c ****         }
 275:Generated_Source\PSoC4/I2C_I2C_MASTER.c **** 
 276:Generated_Source\PSoC4/I2C_I2C_MASTER.c ****         /* Generate Start or ReStart */
 277:Generated_Source\PSoC4/I2C_I2C_MASTER.c ****         if(I2C_CHECK_I2C_MODE_RESTART(mode))
 371              		.loc 1 277 0
 372 00d0 3B68     		ldr	r3, [r7]
 373 00d2 0122     		movs	r2, #1
 374 00d4 1340     		ands	r3, r2
 375 00d6 05D0     		beq	.L19
 278:Generated_Source\PSoC4/I2C_I2C_MASTER.c ****         {
 279:Generated_Source\PSoC4/I2C_I2C_MASTER.c ****             I2C_I2C_MASTER_GENERATE_RESTART;
 376              		.loc 1 279 0
 377 00d8 FFF7FEFF 		bl	I2C_I2CReStartGeneration
 280:Generated_Source\PSoC4/I2C_I2C_MASTER.c ****             I2C_TX_FIFO_WR_REG = slaveAddress;
 378              		.loc 1 280 0
 379 00dc 144B     		ldr	r3, .L21+48
 380 00de FA68     		ldr	r2, [r7, #12]
 381 00e0 1A60     		str	r2, [r3]
 382 00e2 05E0     		b	.L16
 383              	.L19:
 281:Generated_Source\PSoC4/I2C_I2C_MASTER.c ****         }
 282:Generated_Source\PSoC4/I2C_I2C_MASTER.c ****         else
 283:Generated_Source\PSoC4/I2C_I2C_MASTER.c ****         {
 284:Generated_Source\PSoC4/I2C_I2C_MASTER.c ****             I2C_TX_FIFO_WR_REG = slaveAddress;
 384              		.loc 1 284 0
 385 00e4 124B     		ldr	r3, .L21+48
 386 00e6 FA68     		ldr	r2, [r7, #12]
 387 00e8 1A60     		str	r2, [r3]
 285:Generated_Source\PSoC4/I2C_I2C_MASTER.c ****             I2C_I2C_MASTER_GENERATE_START;
 388              		.loc 1 285 0
 389 00ea 124B     		ldr	r3, .L21+52
 390 00ec 0222     		movs	r2, #2
 391 00ee 1A60     		str	r2, [r3]
 392              	.L16:
 286:Generated_Source\PSoC4/I2C_I2C_MASTER.c ****         }
 287:Generated_Source\PSoC4/I2C_I2C_MASTER.c ****     }
 288:Generated_Source\PSoC4/I2C_I2C_MASTER.c **** 
 289:Generated_Source\PSoC4/I2C_I2C_MASTER.c ****     I2C_EnableInt();   /* Release lock */
 393              		.loc 1 289 0
 394 00f0 0A20     		movs	r0, #10
 395 00f2 FFF7FEFF 		bl	CyIntEnable
ARM GAS  C:\Users\EDULU~1.DES\AppData\Local\Temp\cc10QHjd.s 			page 13


 290:Generated_Source\PSoC4/I2C_I2C_MASTER.c **** 
 291:Generated_Source\PSoC4/I2C_I2C_MASTER.c ****     return(errStatus);
 396              		.loc 1 291 0
 397 00f6 7B69     		ldr	r3, [r7, #20]
 292:Generated_Source\PSoC4/I2C_I2C_MASTER.c **** }
 398              		.loc 1 292 0
 399 00f8 1800     		movs	r0, r3
 400 00fa BD46     		mov	sp, r7
 401 00fc 06B0     		add	sp, sp, #24
 402              		@ sp needed
 403 00fe 80BD     		pop	{r7, pc}
 404              	.L22:
 405              		.align	2
 406              	.L21:
 407 0100 00000000 		.word	I2C_state
 408 0104 64000640 		.word	1074135140
 409 0108 00000000 		.word	I2C_mstrStatus
 410 010c 00000000 		.word	I2C_mstrRdBufIndex
 411 0110 00000000 		.word	I2C_mstrRdBufSize
 412 0114 00000000 		.word	I2C_mstrRdBufPtr
 413 0118 00000000 		.word	I2C_mstrControl
 414 011c 000F0640 		.word	1074138880
 415 0120 17030000 		.word	791
 416 0124 080F0640 		.word	1074138888
 417 0128 C80F0640 		.word	1074139080
 418 012c 60000640 		.word	1074135136
 419 0130 40020640 		.word	1074135616
 420 0134 68000640 		.word	1074135144
 421              		.cfi_endproc
 422              	.LFE1:
 423              		.size	I2C_I2CMasterReadBuf, .-I2C_I2CMasterReadBuf
 424              		.section	.text.I2C_I2CMasterSendStart,"ax",%progbits
 425              		.align	2
 426              		.global	I2C_I2CMasterSendStart
 427              		.code	16
 428              		.thumb_func
 429              		.type	I2C_I2CMasterSendStart, %function
 430              	I2C_I2CMasterSendStart:
 431              	.LFB2:
 293:Generated_Source\PSoC4/I2C_I2C_MASTER.c **** 
 294:Generated_Source\PSoC4/I2C_I2C_MASTER.c **** 
 295:Generated_Source\PSoC4/I2C_I2C_MASTER.c **** /*******************************************************************************
 296:Generated_Source\PSoC4/I2C_I2C_MASTER.c **** * Function Name: I2C_I2CMasterSendStart
 297:Generated_Source\PSoC4/I2C_I2C_MASTER.c **** ****************************************************************************//**
 298:Generated_Source\PSoC4/I2C_I2C_MASTER.c **** *
 299:Generated_Source\PSoC4/I2C_I2C_MASTER.c **** * Generates Start condition and sends slave address with read/write bit.
 300:Generated_Source\PSoC4/I2C_I2C_MASTER.c **** * Disables the I2C interrupt.
 301:Generated_Source\PSoC4/I2C_I2C_MASTER.c **** * This function is blocking and does not return until start condition and
 302:Generated_Source\PSoC4/I2C_I2C_MASTER.c **** * address byte are sent and ACK/NACK response is received or errors occurred.
 303:Generated_Source\PSoC4/I2C_I2C_MASTER.c **** *
 304:Generated_Source\PSoC4/I2C_I2C_MASTER.c **** * \param slaveAddress
 305:Generated_Source\PSoC4/I2C_I2C_MASTER.c **** * Right justified 7-bit Slave address (valid range 8 to 120).
 306:Generated_Source\PSoC4/I2C_I2C_MASTER.c **** *
 307:Generated_Source\PSoC4/I2C_I2C_MASTER.c **** * \param bitRnW
 308:Generated_Source\PSoC4/I2C_I2C_MASTER.c **** * Direction of the following transfer. It is defined by read/write bit within
 309:Generated_Source\PSoC4/I2C_I2C_MASTER.c **** * address byte.
 310:Generated_Source\PSoC4/I2C_I2C_MASTER.c **** *  - I2C_I2C_WRITE_XFER_MODE - Set write direction for the
ARM GAS  C:\Users\EDULU~1.DES\AppData\Local\Temp\cc10QHjd.s 			page 14


 311:Generated_Source\PSoC4/I2C_I2C_MASTER.c **** *    following transfer.
 312:Generated_Source\PSoC4/I2C_I2C_MASTER.c **** *  - I2C_I2C_READ_XFER_MODE - Set read direction for the
 313:Generated_Source\PSoC4/I2C_I2C_MASTER.c **** *    following transfer.
 314:Generated_Source\PSoC4/I2C_I2C_MASTER.c **** *
 315:Generated_Source\PSoC4/I2C_I2C_MASTER.c **** * \param timeoutMs
 316:Generated_Source\PSoC4/I2C_I2C_MASTER.c **** * Defines in milliseconds the time that this function can block for.
 317:Generated_Source\PSoC4/I2C_I2C_MASTER.c **** * If that time expires, the function returns. If a zero is passed,
 318:Generated_Source\PSoC4/I2C_I2C_MASTER.c **** * the function waits forever for the action to complete. If a timeout occurs,
 319:Generated_Source\PSoC4/I2C_I2C_MASTER.c **** * the SCB block is reset. Note The maximum value is (maximum uint32)/1000.
 320:Generated_Source\PSoC4/I2C_I2C_MASTER.c **** *
 321:Generated_Source\PSoC4/I2C_I2C_MASTER.c **** * \return
 322:Generated_Source\PSoC4/I2C_I2C_MASTER.c **** * Error status.
 323:Generated_Source\PSoC4/I2C_I2C_MASTER.c **** *  - I2C_I2C_MSTR_NO_ERROR - Function complete without error.
 324:Generated_Source\PSoC4/I2C_I2C_MASTER.c **** *  - I2C_I2C_MSTR_BUS_BUSY - Bus is busy.
 325:Generated_Source\PSoC4/I2C_I2C_MASTER.c **** *    Nothing was sent on the bus. The attempt has to be retried.
 326:Generated_Source\PSoC4/I2C_I2C_MASTER.c **** *  - I2C_I2C_MSTR_NOT_READY - Master is not ready for to
 327:Generated_Source\PSoC4/I2C_I2C_MASTER.c **** *    start transfer.
 328:Generated_Source\PSoC4/I2C_I2C_MASTER.c **** *    A master still has not completed previous transaction or a slave
 329:Generated_Source\PSoC4/I2C_I2C_MASTER.c **** *    operation is in progress (in multi-master-slave configuration).
 330:Generated_Source\PSoC4/I2C_I2C_MASTER.c **** *    Nothing was sent on the bus. The attempt has to be retried.
 331:Generated_Source\PSoC4/I2C_I2C_MASTER.c **** *  - I2C_I2C_MSTR_ERR_LB_NAK - Error condition: Last byte was
 332:Generated_Source\PSoC4/I2C_I2C_MASTER.c **** *    NAKed.
 333:Generated_Source\PSoC4/I2C_I2C_MASTER.c **** *  - I2C_I2C_MSTR_ERR_ARB_LOST - Error condition: Master lost
 334:Generated_Source\PSoC4/I2C_I2C_MASTER.c **** *    arbitration.
 335:Generated_Source\PSoC4/I2C_I2C_MASTER.c **** *  - I2C_I2C_MSTR_ERR_BUS_ERR - Error condition: Master
 336:Generated_Source\PSoC4/I2C_I2C_MASTER.c **** *    encountered a bus error. Bus error is misplaced start or stop detection.
 337:Generated_Source\PSoC4/I2C_I2C_MASTER.c **** *  - I2C_I2C_MSTR_ERR_ABORT_START - Error condition: The start
 338:Generated_Source\PSoC4/I2C_I2C_MASTER.c **** *    condition generation was aborted due to beginning of Slave operation.
 339:Generated_Source\PSoC4/I2C_I2C_MASTER.c **** *    This error condition is only applicable for Multi-Master-Slave mode.
 340:Generated_Source\PSoC4/I2C_I2C_MASTER.c **** *
 341:Generated_Source\PSoC4/I2C_I2C_MASTER.c **** * \globalvars
 342:Generated_Source\PSoC4/I2C_I2C_MASTER.c **** * I2C_state - used to store current state of software FSM.
 343:Generated_Source\PSoC4/I2C_I2C_MASTER.c **** *
 344:Generated_Source\PSoC4/I2C_I2C_MASTER.c **** *******************************************************************************/
 345:Generated_Source\PSoC4/I2C_I2C_MASTER.c **** uint32 I2C_I2CMasterSendStart(uint32 slaveAddress, uint32 bitRnW, uint32 timeoutMs)
 346:Generated_Source\PSoC4/I2C_I2C_MASTER.c **** {
 432              		.loc 1 346 0
 433              		.cfi_startproc
 434              		@ args = 0, pretend = 0, frame = 32
 435              		@ frame_needed = 1, uses_anonymous_args = 0
 436 0000 80B5     		push	{r7, lr}
 437              		.cfi_def_cfa_offset 8
 438              		.cfi_offset 7, -8
 439              		.cfi_offset 14, -4
 440 0002 88B0     		sub	sp, sp, #32
 441              		.cfi_def_cfa_offset 40
 442 0004 00AF     		add	r7, sp, #0
 443              		.cfi_def_cfa_register 7
 444 0006 F860     		str	r0, [r7, #12]
 445 0008 B960     		str	r1, [r7, #8]
 446 000a 7A60     		str	r2, [r7, #4]
 347:Generated_Source\PSoC4/I2C_I2C_MASTER.c ****     uint32 errStatus = I2C_I2C_MSTR_NOT_READY;
 447              		.loc 1 347 0
 448 000c 0423     		movs	r3, #4
 449 000e FB61     		str	r3, [r7, #28]
 348:Generated_Source\PSoC4/I2C_I2C_MASTER.c **** 
 349:Generated_Source\PSoC4/I2C_I2C_MASTER.c ****     if(I2C_CHECK_I2C_FSM_IDLE)
ARM GAS  C:\Users\EDULU~1.DES\AppData\Local\Temp\cc10QHjd.s 			page 15


 450              		.loc 1 349 0
 451 0010 2E4B     		ldr	r3, .L31
 452 0012 1B78     		ldrb	r3, [r3]
 453 0014 DBB2     		uxtb	r3, r3
 454 0016 102B     		cmp	r3, #16
 455 0018 53D1     		bne	.L24
 350:Generated_Source\PSoC4/I2C_I2C_MASTER.c ****     {
 351:Generated_Source\PSoC4/I2C_I2C_MASTER.c ****         I2C_DisableInt();  /* Lock from interruption */
 456              		.loc 1 351 0
 457 001a 0A20     		movs	r0, #10
 458 001c FFF7FEFF 		bl	CyIntDisable
 352:Generated_Source\PSoC4/I2C_I2C_MASTER.c **** 
 353:Generated_Source\PSoC4/I2C_I2C_MASTER.c ****         if(I2C_CHECK_I2C_STATUS(I2C_I2C_STATUS_BUS_BUSY))
 459              		.loc 1 353 0
 460 0020 2B4B     		ldr	r3, .L31+4
 461 0022 1B68     		ldr	r3, [r3]
 462 0024 0122     		movs	r2, #1
 463 0026 1340     		ands	r3, r2
 464 0028 02D0     		beq	.L25
 354:Generated_Source\PSoC4/I2C_I2C_MASTER.c ****         {
 355:Generated_Source\PSoC4/I2C_I2C_MASTER.c ****             errStatus = I2C_I2C_MSTR_BUS_BUSY;
 465              		.loc 1 355 0
 466 002a 0823     		movs	r3, #8
 467 002c FB61     		str	r3, [r7, #28]
 468 002e 45E0     		b	.L26
 469              	.L25:
 470              	.LBB2:
 356:Generated_Source\PSoC4/I2C_I2C_MASTER.c ****         }
 357:Generated_Source\PSoC4/I2C_I2C_MASTER.c ****         else
 358:Generated_Source\PSoC4/I2C_I2C_MASTER.c ****         {
 359:Generated_Source\PSoC4/I2C_I2C_MASTER.c ****             uint32 locStatus;
 360:Generated_Source\PSoC4/I2C_I2C_MASTER.c ****             uint32 timeout = I2C_I2C_CONVERT_TIMEOUT_TO_US(timeoutMs);
 471              		.loc 1 360 0
 472 0030 7B68     		ldr	r3, [r7, #4]
 473 0032 FA22     		movs	r2, #250
 474 0034 9200     		lsls	r2, r2, #2
 475 0036 5343     		muls	r3, r2
 476 0038 7B61     		str	r3, [r7, #20]
 361:Generated_Source\PSoC4/I2C_I2C_MASTER.c **** 
 362:Generated_Source\PSoC4/I2C_I2C_MASTER.c ****             /* Non-empty for master-slave mode when wakeup enabled */
 363:Generated_Source\PSoC4/I2C_I2C_MASTER.c ****             I2C_I2CMasterDisableEcAm();
 364:Generated_Source\PSoC4/I2C_I2C_MASTER.c **** 
 365:Generated_Source\PSoC4/I2C_I2C_MASTER.c ****             /* Clean up the hardware before a transaction. */
 366:Generated_Source\PSoC4/I2C_I2C_MASTER.c ****             I2C_SetMasterInterruptMode    (I2C_NO_INTR_SOURCES);
 477              		.loc 1 366 0
 478 003a 264B     		ldr	r3, .L31+8
 479 003c 0022     		movs	r2, #0
 480 003e 1A60     		str	r2, [r3]
 367:Generated_Source\PSoC4/I2C_I2C_MASTER.c ****             I2C_ClearMasterInterruptSource(I2C_INTR_MASTER_ALL);
 481              		.loc 1 367 0
 482 0040 254B     		ldr	r3, .L31+12
 483 0042 264A     		ldr	r2, .L31+16
 484 0044 1A60     		str	r2, [r3]
 368:Generated_Source\PSoC4/I2C_I2C_MASTER.c ****             I2C_ClearRxInterruptSource    (I2C_INTR_RX_ALL);
 485              		.loc 1 368 0
 486 0046 264B     		ldr	r3, .L31+20
 487 0048 264A     		ldr	r2, .L31+24
ARM GAS  C:\Users\EDULU~1.DES\AppData\Local\Temp\cc10QHjd.s 			page 16


 488 004a 1A60     		str	r2, [r3]
 369:Generated_Source\PSoC4/I2C_I2C_MASTER.c **** 
 370:Generated_Source\PSoC4/I2C_I2C_MASTER.c ****             slaveAddress = I2C_GET_I2C_8BIT_ADDRESS(slaveAddress);
 489              		.loc 1 370 0
 490 004c FB68     		ldr	r3, [r7, #12]
 491 004e 5B00     		lsls	r3, r3, #1
 492 0050 FF22     		movs	r2, #255
 493 0052 1340     		ands	r3, r2
 494 0054 FB60     		str	r3, [r7, #12]
 371:Generated_Source\PSoC4/I2C_I2C_MASTER.c **** 
 372:Generated_Source\PSoC4/I2C_I2C_MASTER.c ****             if(0u == bitRnW) /* Write direction */
 495              		.loc 1 372 0
 496 0056 BB68     		ldr	r3, [r7, #8]
 497 0058 002B     		cmp	r3, #0
 498 005a 03D1     		bne	.L27
 373:Generated_Source\PSoC4/I2C_I2C_MASTER.c ****             {
 374:Generated_Source\PSoC4/I2C_I2C_MASTER.c ****                 I2C_state = I2C_I2C_FSM_MSTR_WR_DATA;
 499              		.loc 1 374 0
 500 005c 1B4B     		ldr	r3, .L31
 501 005e 2422     		movs	r2, #36
 502 0060 1A70     		strb	r2, [r3]
 503 0062 06E0     		b	.L28
 504              	.L27:
 375:Generated_Source\PSoC4/I2C_I2C_MASTER.c ****             }
 376:Generated_Source\PSoC4/I2C_I2C_MASTER.c ****             else             /* Read direction */
 377:Generated_Source\PSoC4/I2C_I2C_MASTER.c ****             {
 378:Generated_Source\PSoC4/I2C_I2C_MASTER.c ****                 I2C_state = I2C_I2C_FSM_MSTR_RD_DATA;
 505              		.loc 1 378 0
 506 0064 194B     		ldr	r3, .L31
 507 0066 2522     		movs	r2, #37
 508 0068 1A70     		strb	r2, [r3]
 379:Generated_Source\PSoC4/I2C_I2C_MASTER.c ****                          slaveAddress |= I2C_I2C_READ_FLAG;
 509              		.loc 1 379 0
 510 006a FB68     		ldr	r3, [r7, #12]
 511 006c 0122     		movs	r2, #1
 512 006e 1343     		orrs	r3, r2
 513 0070 FB60     		str	r3, [r7, #12]
 514              	.L28:
 380:Generated_Source\PSoC4/I2C_I2C_MASTER.c ****             }
 381:Generated_Source\PSoC4/I2C_I2C_MASTER.c **** 
 382:Generated_Source\PSoC4/I2C_I2C_MASTER.c ****             /* TX and RX FIFO have to be empty at here */
 383:Generated_Source\PSoC4/I2C_I2C_MASTER.c **** 
 384:Generated_Source\PSoC4/I2C_I2C_MASTER.c ****              /* Generate Start and send address */
 385:Generated_Source\PSoC4/I2C_I2C_MASTER.c ****             I2C_TX_FIFO_WR_REG = slaveAddress;
 515              		.loc 1 385 0
 516 0072 1D4B     		ldr	r3, .L31+28
 517 0074 FA68     		ldr	r2, [r7, #12]
 518 0076 1A60     		str	r2, [r3]
 386:Generated_Source\PSoC4/I2C_I2C_MASTER.c ****             I2C_I2C_MASTER_GENERATE_START;
 519              		.loc 1 386 0
 520 0078 1C4B     		ldr	r3, .L31+32
 521 007a 0222     		movs	r2, #2
 522 007c 1A60     		str	r2, [r3]
 523              	.L29:
 387:Generated_Source\PSoC4/I2C_I2C_MASTER.c **** 
 388:Generated_Source\PSoC4/I2C_I2C_MASTER.c ****             /* Wait until address has been transferred. Note that for master reads at least one byt
 389:Generated_Source\PSoC4/I2C_I2C_MASTER.c ****             do
ARM GAS  C:\Users\EDULU~1.DES\AppData\Local\Temp\cc10QHjd.s 			page 17


 390:Generated_Source\PSoC4/I2C_I2C_MASTER.c ****             {
 391:Generated_Source\PSoC4/I2C_I2C_MASTER.c ****                 locStatus  = I2C_GetMasterInterruptSource() & I2C_INTR_MASTER_SEND_BYTE;
 524              		.loc 1 391 0 discriminator 1
 525 007e 164B     		ldr	r3, .L31+12
 526 0080 1A68     		ldr	r2, [r3]
 527 0082 0823     		movs	r3, #8
 528 0084 FF33     		adds	r3, r3, #255
 529 0086 1340     		ands	r3, r2
 530 0088 BB61     		str	r3, [r7, #24]
 392:Generated_Source\PSoC4/I2C_I2C_MASTER.c ****                 locStatus |= I2C_GetSlaveInterruptSource() & I2C_SLAVE_INTR_I2C_ADDR;
 531              		.loc 1 392 0 discriminator 1
 532 008a 194B     		ldr	r3, .L31+36
 533 008c 1B68     		ldr	r3, [r3]
 534 008e C022     		movs	r2, #192
 535 0090 1340     		ands	r3, r2
 536 0092 BA69     		ldr	r2, [r7, #24]
 537 0094 1343     		orrs	r3, r2
 538 0096 BB61     		str	r3, [r7, #24]
 393:Generated_Source\PSoC4/I2C_I2C_MASTER.c ****                 locStatus |= I2C_I2CMasterWaitOneUnit(&timeout);
 539              		.loc 1 393 0 discriminator 1
 540 0098 1423     		movs	r3, #20
 541 009a FB18     		adds	r3, r7, r3
 542 009c 1800     		movs	r0, r3
 543 009e FFF7FEFF 		bl	I2C_I2CMasterWaitOneUnit
 544 00a2 0200     		movs	r2, r0
 545 00a4 BB69     		ldr	r3, [r7, #24]
 546 00a6 1343     		orrs	r3, r2
 547 00a8 BB61     		str	r3, [r7, #24]
 394:Generated_Source\PSoC4/I2C_I2C_MASTER.c ****             }
 395:Generated_Source\PSoC4/I2C_I2C_MASTER.c ****             while (0u == locStatus);
 548              		.loc 1 395 0 discriminator 1
 549 00aa BB69     		ldr	r3, [r7, #24]
 550 00ac 002B     		cmp	r3, #0
 551 00ae E6D0     		beq	.L29
 396:Generated_Source\PSoC4/I2C_I2C_MASTER.c **** 
 397:Generated_Source\PSoC4/I2C_I2C_MASTER.c ****             /* Handle completion event and convert to status */
 398:Generated_Source\PSoC4/I2C_I2C_MASTER.c ****             errStatus = I2C_I2CMasterHandleStatus(locStatus);
 552              		.loc 1 398 0
 553 00b0 BB69     		ldr	r3, [r7, #24]
 554 00b2 1800     		movs	r0, r3
 555 00b4 FFF7FEFF 		bl	I2C_I2CMasterHandleStatus
 556 00b8 0300     		movs	r3, r0
 557 00ba FB61     		str	r3, [r7, #28]
 558              	.L26:
 559              	.LBE2:
 399:Generated_Source\PSoC4/I2C_I2C_MASTER.c ****         }
 400:Generated_Source\PSoC4/I2C_I2C_MASTER.c **** 
 401:Generated_Source\PSoC4/I2C_I2C_MASTER.c ****         I2C_EnableInt();  /* Release lock */
 560              		.loc 1 401 0
 561 00bc 0A20     		movs	r0, #10
 562 00be FFF7FEFF 		bl	CyIntEnable
 563              	.L24:
 402:Generated_Source\PSoC4/I2C_I2C_MASTER.c ****     }
 403:Generated_Source\PSoC4/I2C_I2C_MASTER.c **** 
 404:Generated_Source\PSoC4/I2C_I2C_MASTER.c ****     return(errStatus);
 564              		.loc 1 404 0
 565 00c2 FB69     		ldr	r3, [r7, #28]
ARM GAS  C:\Users\EDULU~1.DES\AppData\Local\Temp\cc10QHjd.s 			page 18


 405:Generated_Source\PSoC4/I2C_I2C_MASTER.c **** }
 566              		.loc 1 405 0
 567 00c4 1800     		movs	r0, r3
 568 00c6 BD46     		mov	sp, r7
 569 00c8 08B0     		add	sp, sp, #32
 570              		@ sp needed
 571 00ca 80BD     		pop	{r7, pc}
 572              	.L32:
 573              		.align	2
 574              	.L31:
 575 00cc 00000000 		.word	I2C_state
 576 00d0 64000640 		.word	1074135140
 577 00d4 080F0640 		.word	1074138888
 578 00d8 000F0640 		.word	1074138880
 579 00dc 17030000 		.word	791
 580 00e0 C00F0640 		.word	1074139072
 581 00e4 ED0F0000 		.word	4077
 582 00e8 40020640 		.word	1074135616
 583 00ec 68000640 		.word	1074135144
 584 00f0 400F0640 		.word	1074138944
 585              		.cfi_endproc
 586              	.LFE2:
 587              		.size	I2C_I2CMasterSendStart, .-I2C_I2CMasterSendStart
 588              		.section	.text.I2C_I2CMasterSendRestart,"ax",%progbits
 589              		.align	2
 590              		.global	I2C_I2CMasterSendRestart
 591              		.code	16
 592              		.thumb_func
 593              		.type	I2C_I2CMasterSendRestart, %function
 594              	I2C_I2CMasterSendRestart:
 595              	.LFB3:
 406:Generated_Source\PSoC4/I2C_I2C_MASTER.c **** 
 407:Generated_Source\PSoC4/I2C_I2C_MASTER.c **** 
 408:Generated_Source\PSoC4/I2C_I2C_MASTER.c **** /*******************************************************************************
 409:Generated_Source\PSoC4/I2C_I2C_MASTER.c **** * Function Name: I2C_I2CMasterSendRestart
 410:Generated_Source\PSoC4/I2C_I2C_MASTER.c **** ****************************************************************************//**
 411:Generated_Source\PSoC4/I2C_I2C_MASTER.c **** *
 412:Generated_Source\PSoC4/I2C_I2C_MASTER.c **** * Generates Restart condition and sends slave address with read/write bit.
 413:Generated_Source\PSoC4/I2C_I2C_MASTER.c **** * This function is blocking and does not return until start condition and
 414:Generated_Source\PSoC4/I2C_I2C_MASTER.c **** * address are sent and ACK/NACK response is received or errors occurred.
 415:Generated_Source\PSoC4/I2C_I2C_MASTER.c **** *
 416:Generated_Source\PSoC4/I2C_I2C_MASTER.c **** * \param slaveAddress
 417:Generated_Source\PSoC4/I2C_I2C_MASTER.c **** * Right justified 7-bit Slave address (valid range 8 to 120).
 418:Generated_Source\PSoC4/I2C_I2C_MASTER.c **** *
 419:Generated_Source\PSoC4/I2C_I2C_MASTER.c **** * \param bitRnW
 420:Generated_Source\PSoC4/I2C_I2C_MASTER.c **** * Direction of the following transfer. It is defined by read/write bit within
 421:Generated_Source\PSoC4/I2C_I2C_MASTER.c **** * address byte.See I2C_I2CMasterSendStart() function for constants.
 422:Generated_Source\PSoC4/I2C_I2C_MASTER.c **** *
 423:Generated_Source\PSoC4/I2C_I2C_MASTER.c **** * \param timeoutMs
 424:Generated_Source\PSoC4/I2C_I2C_MASTER.c **** * Defines in milliseconds the time that this function can block for.
 425:Generated_Source\PSoC4/I2C_I2C_MASTER.c **** * If that time expires, the function returns. If a zero is passed,
 426:Generated_Source\PSoC4/I2C_I2C_MASTER.c **** * the function waits forever for the action to complete. If a timeout occurs,
 427:Generated_Source\PSoC4/I2C_I2C_MASTER.c **** * the SCB block is reset. Note The maximum value is (maximum uint32)/1000.
 428:Generated_Source\PSoC4/I2C_I2C_MASTER.c **** *
 429:Generated_Source\PSoC4/I2C_I2C_MASTER.c **** * \return
 430:Generated_Source\PSoC4/I2C_I2C_MASTER.c **** * Error status.
 431:Generated_Source\PSoC4/I2C_I2C_MASTER.c **** * See I2C_I2CMasterSendStart() function for constants.
ARM GAS  C:\Users\EDULU~1.DES\AppData\Local\Temp\cc10QHjd.s 			page 19


 432:Generated_Source\PSoC4/I2C_I2C_MASTER.c **** *
 433:Generated_Source\PSoC4/I2C_I2C_MASTER.c **** * \sideeffect
 434:Generated_Source\PSoC4/I2C_I2C_MASTER.c **** * A valid Start or ReStart condition must be generated before calling
 435:Generated_Source\PSoC4/I2C_I2C_MASTER.c **** * this function. This function does nothing if Start or ReStart conditions
 436:Generated_Source\PSoC4/I2C_I2C_MASTER.c **** * failed before this function was called.
 437:Generated_Source\PSoC4/I2C_I2C_MASTER.c **** * For read transaction, at least one byte has to be read before ReStart
 438:Generated_Source\PSoC4/I2C_I2C_MASTER.c **** * generation.
 439:Generated_Source\PSoC4/I2C_I2C_MASTER.c **** *
 440:Generated_Source\PSoC4/I2C_I2C_MASTER.c **** * \globalvars
 441:Generated_Source\PSoC4/I2C_I2C_MASTER.c **** * I2C_state - used to store current state of software FSM.
 442:Generated_Source\PSoC4/I2C_I2C_MASTER.c **** *
 443:Generated_Source\PSoC4/I2C_I2C_MASTER.c **** *******************************************************************************/
 444:Generated_Source\PSoC4/I2C_I2C_MASTER.c **** uint32 I2C_I2CMasterSendRestart(uint32 slaveAddress, uint32 bitRnW, uint32 timeoutMs)
 445:Generated_Source\PSoC4/I2C_I2C_MASTER.c **** {
 596              		.loc 1 445 0
 597              		.cfi_startproc
 598              		@ args = 0, pretend = 0, frame = 32
 599              		@ frame_needed = 1, uses_anonymous_args = 0
 600 0000 80B5     		push	{r7, lr}
 601              		.cfi_def_cfa_offset 8
 602              		.cfi_offset 7, -8
 603              		.cfi_offset 14, -4
 604 0002 88B0     		sub	sp, sp, #32
 605              		.cfi_def_cfa_offset 40
 606 0004 00AF     		add	r7, sp, #0
 607              		.cfi_def_cfa_register 7
 608 0006 F860     		str	r0, [r7, #12]
 609 0008 B960     		str	r1, [r7, #8]
 610 000a 7A60     		str	r2, [r7, #4]
 446:Generated_Source\PSoC4/I2C_I2C_MASTER.c ****     uint32 errStatus = I2C_I2C_MSTR_NOT_READY;
 611              		.loc 1 446 0
 612 000c 0423     		movs	r3, #4
 613 000e FB61     		str	r3, [r7, #28]
 447:Generated_Source\PSoC4/I2C_I2C_MASTER.c **** 
 448:Generated_Source\PSoC4/I2C_I2C_MASTER.c ****     /* Check FSM state before generating ReStart condition */
 449:Generated_Source\PSoC4/I2C_I2C_MASTER.c ****     if(I2C_CHECK_I2C_MASTER_ACTIVE)
 614              		.loc 1 449 0
 615 0010 204B     		ldr	r3, .L39
 616 0012 1B78     		ldrb	r3, [r3]
 617 0014 DBB2     		uxtb	r3, r3
 618 0016 2022     		movs	r2, #32
 619 0018 1340     		ands	r3, r2
 620 001a DBB2     		uxtb	r3, r3
 621 001c 002B     		cmp	r3, #0
 622 001e 34D0     		beq	.L34
 623              	.LBB3:
 450:Generated_Source\PSoC4/I2C_I2C_MASTER.c ****     {
 451:Generated_Source\PSoC4/I2C_I2C_MASTER.c ****         uint32 locStatus;
 452:Generated_Source\PSoC4/I2C_I2C_MASTER.c ****         uint32 timeout = I2C_I2C_CONVERT_TIMEOUT_TO_US(timeoutMs);
 624              		.loc 1 452 0
 625 0020 7B68     		ldr	r3, [r7, #4]
 626 0022 FA22     		movs	r2, #250
 627 0024 9200     		lsls	r2, r2, #2
 628 0026 5343     		muls	r3, r2
 629 0028 7B61     		str	r3, [r7, #20]
 453:Generated_Source\PSoC4/I2C_I2C_MASTER.c **** 
 454:Generated_Source\PSoC4/I2C_I2C_MASTER.c ****         slaveAddress = I2C_GET_I2C_8BIT_ADDRESS(slaveAddress);
ARM GAS  C:\Users\EDULU~1.DES\AppData\Local\Temp\cc10QHjd.s 			page 20


 630              		.loc 1 454 0
 631 002a FB68     		ldr	r3, [r7, #12]
 632 002c 5B00     		lsls	r3, r3, #1
 633 002e FF22     		movs	r2, #255
 634 0030 1340     		ands	r3, r2
 635 0032 FB60     		str	r3, [r7, #12]
 455:Generated_Source\PSoC4/I2C_I2C_MASTER.c **** 
 456:Generated_Source\PSoC4/I2C_I2C_MASTER.c ****         if(0u == bitRnW) /* Write direction */
 636              		.loc 1 456 0
 637 0034 BB68     		ldr	r3, [r7, #8]
 638 0036 002B     		cmp	r3, #0
 639 0038 03D1     		bne	.L35
 457:Generated_Source\PSoC4/I2C_I2C_MASTER.c ****         {
 458:Generated_Source\PSoC4/I2C_I2C_MASTER.c ****             I2C_state = I2C_I2C_FSM_MSTR_WR_DATA;
 640              		.loc 1 458 0
 641 003a 164B     		ldr	r3, .L39
 642 003c 2422     		movs	r2, #36
 643 003e 1A70     		strb	r2, [r3]
 644 0040 06E0     		b	.L36
 645              	.L35:
 459:Generated_Source\PSoC4/I2C_I2C_MASTER.c ****         }
 460:Generated_Source\PSoC4/I2C_I2C_MASTER.c ****         else             /* Read direction */
 461:Generated_Source\PSoC4/I2C_I2C_MASTER.c ****         {
 462:Generated_Source\PSoC4/I2C_I2C_MASTER.c ****             I2C_state  = I2C_I2C_FSM_MSTR_RD_DATA;
 646              		.loc 1 462 0
 647 0042 144B     		ldr	r3, .L39
 648 0044 2522     		movs	r2, #37
 649 0046 1A70     		strb	r2, [r3]
 463:Generated_Source\PSoC4/I2C_I2C_MASTER.c ****                       slaveAddress |= I2C_I2C_READ_FLAG;
 650              		.loc 1 463 0
 651 0048 FB68     		ldr	r3, [r7, #12]
 652 004a 0122     		movs	r2, #1
 653 004c 1343     		orrs	r3, r2
 654 004e FB60     		str	r3, [r7, #12]
 655              	.L36:
 464:Generated_Source\PSoC4/I2C_I2C_MASTER.c ****         }
 465:Generated_Source\PSoC4/I2C_I2C_MASTER.c **** 
 466:Generated_Source\PSoC4/I2C_I2C_MASTER.c ****         /* TX and RX FIFO have to be empty at here */
 467:Generated_Source\PSoC4/I2C_I2C_MASTER.c **** 
 468:Generated_Source\PSoC4/I2C_I2C_MASTER.c ****         /* A proper ReStart sequence is: set command to generate ReStart, then put an address byte 
 469:Generated_Source\PSoC4/I2C_I2C_MASTER.c ****         * Put address into the TX FIFO the 1st makes scb IP think that this data byte for current w
 470:Generated_Source\PSoC4/I2C_I2C_MASTER.c ****         */
 471:Generated_Source\PSoC4/I2C_I2C_MASTER.c ****         I2C_I2C_MASTER_GENERATE_RESTART;
 656              		.loc 1 471 0
 657 0050 FFF7FEFF 		bl	I2C_I2CReStartGeneration
 472:Generated_Source\PSoC4/I2C_I2C_MASTER.c ****         I2C_TX_FIFO_WR_REG = slaveAddress;
 658              		.loc 1 472 0
 659 0054 104B     		ldr	r3, .L39+4
 660 0056 FA68     		ldr	r2, [r7, #12]
 661 0058 1A60     		str	r2, [r3]
 662              	.L37:
 473:Generated_Source\PSoC4/I2C_I2C_MASTER.c **** 
 474:Generated_Source\PSoC4/I2C_I2C_MASTER.c ****         /* Wait until address has been transferred. Note that for master reads at least one byte. *
 475:Generated_Source\PSoC4/I2C_I2C_MASTER.c ****         do
 476:Generated_Source\PSoC4/I2C_I2C_MASTER.c ****         {
 477:Generated_Source\PSoC4/I2C_I2C_MASTER.c ****             locStatus  = I2C_GetMasterInterruptSource() & I2C_INTR_MASTER_SEND_BYTE;
 663              		.loc 1 477 0 discriminator 1
ARM GAS  C:\Users\EDULU~1.DES\AppData\Local\Temp\cc10QHjd.s 			page 21


 664 005a 104B     		ldr	r3, .L39+8
 665 005c 1A68     		ldr	r2, [r3]
 666 005e 0823     		movs	r3, #8
 667 0060 FF33     		adds	r3, r3, #255
 668 0062 1340     		ands	r3, r2
 669 0064 BB61     		str	r3, [r7, #24]
 478:Generated_Source\PSoC4/I2C_I2C_MASTER.c ****             locStatus |= I2C_I2CMasterWaitOneUnit(&timeout);
 670              		.loc 1 478 0 discriminator 1
 671 0066 1423     		movs	r3, #20
 672 0068 FB18     		adds	r3, r7, r3
 673 006a 1800     		movs	r0, r3
 674 006c FFF7FEFF 		bl	I2C_I2CMasterWaitOneUnit
 675 0070 0200     		movs	r2, r0
 676 0072 BB69     		ldr	r3, [r7, #24]
 677 0074 1343     		orrs	r3, r2
 678 0076 BB61     		str	r3, [r7, #24]
 479:Generated_Source\PSoC4/I2C_I2C_MASTER.c ****         }
 480:Generated_Source\PSoC4/I2C_I2C_MASTER.c ****         while (0u == locStatus);
 679              		.loc 1 480 0 discriminator 1
 680 0078 BB69     		ldr	r3, [r7, #24]
 681 007a 002B     		cmp	r3, #0
 682 007c EDD0     		beq	.L37
 481:Generated_Source\PSoC4/I2C_I2C_MASTER.c **** 
 482:Generated_Source\PSoC4/I2C_I2C_MASTER.c **** 
 483:Generated_Source\PSoC4/I2C_I2C_MASTER.c ****         /* Handle completion event and convert to status */
 484:Generated_Source\PSoC4/I2C_I2C_MASTER.c ****         errStatus = I2C_I2CMasterHandleStatus(locStatus);
 683              		.loc 1 484 0
 684 007e BB69     		ldr	r3, [r7, #24]
 685 0080 1800     		movs	r0, r3
 686 0082 FFF7FEFF 		bl	I2C_I2CMasterHandleStatus
 687 0086 0300     		movs	r3, r0
 688 0088 FB61     		str	r3, [r7, #28]
 689              	.L34:
 690              	.LBE3:
 485:Generated_Source\PSoC4/I2C_I2C_MASTER.c ****     }
 486:Generated_Source\PSoC4/I2C_I2C_MASTER.c **** 
 487:Generated_Source\PSoC4/I2C_I2C_MASTER.c ****     return(errStatus);
 691              		.loc 1 487 0
 692 008a FB69     		ldr	r3, [r7, #28]
 488:Generated_Source\PSoC4/I2C_I2C_MASTER.c **** }
 693              		.loc 1 488 0
 694 008c 1800     		movs	r0, r3
 695 008e BD46     		mov	sp, r7
 696 0090 08B0     		add	sp, sp, #32
 697              		@ sp needed
 698 0092 80BD     		pop	{r7, pc}
 699              	.L40:
 700              		.align	2
 701              	.L39:
 702 0094 00000000 		.word	I2C_state
 703 0098 40020640 		.word	1074135616
 704 009c 000F0640 		.word	1074138880
 705              		.cfi_endproc
 706              	.LFE3:
 707              		.size	I2C_I2CMasterSendRestart, .-I2C_I2CMasterSendRestart
 708              		.section	.text.I2C_I2CMasterSendStop,"ax",%progbits
 709              		.align	2
ARM GAS  C:\Users\EDULU~1.DES\AppData\Local\Temp\cc10QHjd.s 			page 22


 710              		.global	I2C_I2CMasterSendStop
 711              		.code	16
 712              		.thumb_func
 713              		.type	I2C_I2CMasterSendStop, %function
 714              	I2C_I2CMasterSendStop:
 715              	.LFB4:
 489:Generated_Source\PSoC4/I2C_I2C_MASTER.c **** 
 490:Generated_Source\PSoC4/I2C_I2C_MASTER.c **** 
 491:Generated_Source\PSoC4/I2C_I2C_MASTER.c **** /*******************************************************************************
 492:Generated_Source\PSoC4/I2C_I2C_MASTER.c **** * Function Name: I2C_I2CMasterSendStop
 493:Generated_Source\PSoC4/I2C_I2C_MASTER.c **** ****************************************************************************//**
 494:Generated_Source\PSoC4/I2C_I2C_MASTER.c **** *
 495:Generated_Source\PSoC4/I2C_I2C_MASTER.c **** * Generates Stop condition on the bus.
 496:Generated_Source\PSoC4/I2C_I2C_MASTER.c **** * The NAK is generated before Stop in case of a read transaction.
 497:Generated_Source\PSoC4/I2C_I2C_MASTER.c **** * At least one byte has to be read if a Start or ReStart condition with read
 498:Generated_Source\PSoC4/I2C_I2C_MASTER.c **** * direction was generated before.
 499:Generated_Source\PSoC4/I2C_I2C_MASTER.c **** * This function is blocking and does not return until a Stop condition is
 500:Generated_Source\PSoC4/I2C_I2C_MASTER.c **** * generated or error occurred.
 501:Generated_Source\PSoC4/I2C_I2C_MASTER.c **** *
 502:Generated_Source\PSoC4/I2C_I2C_MASTER.c **** * \param timeoutMs
 503:Generated_Source\PSoC4/I2C_I2C_MASTER.c **** * Defines in milliseconds the time that this function can block for.
 504:Generated_Source\PSoC4/I2C_I2C_MASTER.c **** * If that time expires, the function returns. If a zero is passed,
 505:Generated_Source\PSoC4/I2C_I2C_MASTER.c **** * the function waits forever for the action to complete. If a timeout occurs,
 506:Generated_Source\PSoC4/I2C_I2C_MASTER.c **** * the SCB block is reset. Note The maximum value is (maximum uint32)/1000.
 507:Generated_Source\PSoC4/I2C_I2C_MASTER.c **** *
 508:Generated_Source\PSoC4/I2C_I2C_MASTER.c **** * \return
 509:Generated_Source\PSoC4/I2C_I2C_MASTER.c **** * Error status.
 510:Generated_Source\PSoC4/I2C_I2C_MASTER.c **** * See I2C_I2CMasterSendStart() function for constants.
 511:Generated_Source\PSoC4/I2C_I2C_MASTER.c **** *
 512:Generated_Source\PSoC4/I2C_I2C_MASTER.c **** * \sideeffect
 513:Generated_Source\PSoC4/I2C_I2C_MASTER.c **** * A valid Start or ReStart condition must be generated before calling
 514:Generated_Source\PSoC4/I2C_I2C_MASTER.c **** * this function. This function does nothing if Start or ReStart conditions
 515:Generated_Source\PSoC4/I2C_I2C_MASTER.c **** * failed before this function was called.
 516:Generated_Source\PSoC4/I2C_I2C_MASTER.c **** * For read transaction, at least one byte has to be read before ReStart
 517:Generated_Source\PSoC4/I2C_I2C_MASTER.c **** * generation.
 518:Generated_Source\PSoC4/I2C_I2C_MASTER.c **** *
 519:Generated_Source\PSoC4/I2C_I2C_MASTER.c **** * \globalvars
 520:Generated_Source\PSoC4/I2C_I2C_MASTER.c **** * I2C_state - used to store current state of software FSM.
 521:Generated_Source\PSoC4/I2C_I2C_MASTER.c **** *
 522:Generated_Source\PSoC4/I2C_I2C_MASTER.c **** *******************************************************************************/
 523:Generated_Source\PSoC4/I2C_I2C_MASTER.c **** uint32 I2C_I2CMasterSendStop(uint32 timeoutMs)
 524:Generated_Source\PSoC4/I2C_I2C_MASTER.c **** {
 716              		.loc 1 524 0
 717              		.cfi_startproc
 718              		@ args = 0, pretend = 0, frame = 24
 719              		@ frame_needed = 1, uses_anonymous_args = 0
 720 0000 80B5     		push	{r7, lr}
 721              		.cfi_def_cfa_offset 8
 722              		.cfi_offset 7, -8
 723              		.cfi_offset 14, -4
 724 0002 86B0     		sub	sp, sp, #24
 725              		.cfi_def_cfa_offset 32
 726 0004 00AF     		add	r7, sp, #0
 727              		.cfi_def_cfa_register 7
 728 0006 7860     		str	r0, [r7, #4]
 525:Generated_Source\PSoC4/I2C_I2C_MASTER.c ****     uint32 errStatus = I2C_I2C_MSTR_NOT_READY;
 729              		.loc 1 525 0
ARM GAS  C:\Users\EDULU~1.DES\AppData\Local\Temp\cc10QHjd.s 			page 23


 730 0008 0423     		movs	r3, #4
 731 000a 7B61     		str	r3, [r7, #20]
 526:Generated_Source\PSoC4/I2C_I2C_MASTER.c **** 
 527:Generated_Source\PSoC4/I2C_I2C_MASTER.c ****     /* Check FSM state before generating Stop condition */
 528:Generated_Source\PSoC4/I2C_I2C_MASTER.c ****     if(I2C_CHECK_I2C_MASTER_ACTIVE)
 732              		.loc 1 528 0
 733 000c 194B     		ldr	r3, .L47
 734 000e 1B78     		ldrb	r3, [r3]
 735 0010 DBB2     		uxtb	r3, r3
 736 0012 2022     		movs	r2, #32
 737 0014 1340     		ands	r3, r2
 738 0016 DBB2     		uxtb	r3, r3
 739 0018 002B     		cmp	r3, #0
 740 001a 26D0     		beq	.L42
 741              	.LBB4:
 529:Generated_Source\PSoC4/I2C_I2C_MASTER.c ****     {
 530:Generated_Source\PSoC4/I2C_I2C_MASTER.c ****         uint32 locStatus;
 531:Generated_Source\PSoC4/I2C_I2C_MASTER.c ****         uint32 timeout = I2C_I2C_CONVERT_TIMEOUT_TO_US(timeoutMs);
 742              		.loc 1 531 0
 743 001c 7B68     		ldr	r3, [r7, #4]
 744 001e FA22     		movs	r2, #250
 745 0020 9200     		lsls	r2, r2, #2
 746 0022 5343     		muls	r3, r2
 747 0024 FB60     		str	r3, [r7, #12]
 532:Generated_Source\PSoC4/I2C_I2C_MASTER.c **** 
 533:Generated_Source\PSoC4/I2C_I2C_MASTER.c ****         /* Write direction: generates Stop; Read  direction: generates NACK and Stop; */
 534:Generated_Source\PSoC4/I2C_I2C_MASTER.c ****         I2C_I2C_MASTER_GENERATE_STOP;
 748              		.loc 1 534 0
 749 0026 144B     		ldr	r3, .L47+4
 750 0028 144A     		ldr	r2, .L47+8
 751 002a 1268     		ldr	r2, [r2]
 752 002c 2021     		movs	r1, #32
 753 002e 0A40     		ands	r2, r1
 754 0030 01D0     		beq	.L43
 755              		.loc 1 534 0 is_stmt 0 discriminator 1
 756 0032 1822     		movs	r2, #24
 757 0034 00E0     		b	.L44
 758              	.L43:
 759              		.loc 1 534 0 discriminator 2
 760 0036 1022     		movs	r2, #16
 761              	.L44:
 762              		.loc 1 534 0 discriminator 4
 763 0038 1A60     		str	r2, [r3]
 764              	.L45:
 535:Generated_Source\PSoC4/I2C_I2C_MASTER.c **** 
 536:Generated_Source\PSoC4/I2C_I2C_MASTER.c ****         /* Wait for a completion event from the master */
 537:Generated_Source\PSoC4/I2C_I2C_MASTER.c ****         do
 538:Generated_Source\PSoC4/I2C_I2C_MASTER.c ****         {
 539:Generated_Source\PSoC4/I2C_I2C_MASTER.c ****             locStatus  = I2C_GetMasterInterruptSource() & I2C_INTR_MASTER_SEND_STOP;
 765              		.loc 1 539 0 is_stmt 1 discriminator 1
 766 003a 114B     		ldr	r3, .L47+12
 767 003c 1A68     		ldr	r2, [r3]
 768 003e 1223     		movs	r3, #18
 769 0040 FF33     		adds	r3, r3, #255
 770 0042 1340     		ands	r3, r2
 771 0044 3B61     		str	r3, [r7, #16]
 540:Generated_Source\PSoC4/I2C_I2C_MASTER.c ****             locStatus |= I2C_I2CMasterWaitOneUnit(&timeout);
ARM GAS  C:\Users\EDULU~1.DES\AppData\Local\Temp\cc10QHjd.s 			page 24


 772              		.loc 1 540 0 discriminator 1
 773 0046 0C23     		movs	r3, #12
 774 0048 FB18     		adds	r3, r7, r3
 775 004a 1800     		movs	r0, r3
 776 004c FFF7FEFF 		bl	I2C_I2CMasterWaitOneUnit
 777 0050 0200     		movs	r2, r0
 778 0052 3B69     		ldr	r3, [r7, #16]
 779 0054 1343     		orrs	r3, r2
 780 0056 3B61     		str	r3, [r7, #16]
 541:Generated_Source\PSoC4/I2C_I2C_MASTER.c ****         }
 542:Generated_Source\PSoC4/I2C_I2C_MASTER.c ****         while (0u == locStatus);
 781              		.loc 1 542 0 discriminator 1
 782 0058 3B69     		ldr	r3, [r7, #16]
 783 005a 002B     		cmp	r3, #0
 784 005c EDD0     		beq	.L45
 543:Generated_Source\PSoC4/I2C_I2C_MASTER.c **** 
 544:Generated_Source\PSoC4/I2C_I2C_MASTER.c ****         /* Handle completion event and convert to status */
 545:Generated_Source\PSoC4/I2C_I2C_MASTER.c ****         errStatus = I2C_I2CMasterHandleStatus(locStatus);
 785              		.loc 1 545 0
 786 005e 3B69     		ldr	r3, [r7, #16]
 787 0060 1800     		movs	r0, r3
 788 0062 FFF7FEFF 		bl	I2C_I2CMasterHandleStatus
 789 0066 0300     		movs	r3, r0
 790 0068 7B61     		str	r3, [r7, #20]
 791              	.L42:
 792              	.LBE4:
 546:Generated_Source\PSoC4/I2C_I2C_MASTER.c ****     }
 547:Generated_Source\PSoC4/I2C_I2C_MASTER.c **** 
 548:Generated_Source\PSoC4/I2C_I2C_MASTER.c ****     return(errStatus);
 793              		.loc 1 548 0
 794 006a 7B69     		ldr	r3, [r7, #20]
 549:Generated_Source\PSoC4/I2C_I2C_MASTER.c **** }
 795              		.loc 1 549 0
 796 006c 1800     		movs	r0, r3
 797 006e BD46     		mov	sp, r7
 798 0070 06B0     		add	sp, sp, #24
 799              		@ sp needed
 800 0072 80BD     		pop	{r7, pc}
 801              	.L48:
 802              		.align	2
 803              	.L47:
 804 0074 00000000 		.word	I2C_state
 805 0078 68000640 		.word	1074135144
 806 007c 64000640 		.word	1074135140
 807 0080 000F0640 		.word	1074138880
 808              		.cfi_endproc
 809              	.LFE4:
 810              		.size	I2C_I2CMasterSendStop, .-I2C_I2CMasterSendStop
 811              		.section	.text.I2C_I2CMasterWriteByte,"ax",%progbits
 812              		.align	2
 813              		.global	I2C_I2CMasterWriteByte
 814              		.code	16
 815              		.thumb_func
 816              		.type	I2C_I2CMasterWriteByte, %function
 817              	I2C_I2CMasterWriteByte:
 818              	.LFB5:
 550:Generated_Source\PSoC4/I2C_I2C_MASTER.c **** 
ARM GAS  C:\Users\EDULU~1.DES\AppData\Local\Temp\cc10QHjd.s 			page 25


 551:Generated_Source\PSoC4/I2C_I2C_MASTER.c **** 
 552:Generated_Source\PSoC4/I2C_I2C_MASTER.c **** /*******************************************************************************
 553:Generated_Source\PSoC4/I2C_I2C_MASTER.c **** * Function Name: I2C_I2CMasterWriteByte
 554:Generated_Source\PSoC4/I2C_I2C_MASTER.c **** ****************************************************************************//**
 555:Generated_Source\PSoC4/I2C_I2C_MASTER.c **** *
 556:Generated_Source\PSoC4/I2C_I2C_MASTER.c **** * Sends one byte to a slave.
 557:Generated_Source\PSoC4/I2C_I2C_MASTER.c **** * This function is blocking and does not return until byte is transmitted
 558:Generated_Source\PSoC4/I2C_I2C_MASTER.c **** * or error occurred.
 559:Generated_Source\PSoC4/I2C_I2C_MASTER.c **** *
 560:Generated_Source\PSoC4/I2C_I2C_MASTER.c **** * \param wrByte
 561:Generated_Source\PSoC4/I2C_I2C_MASTER.c **** * The data byte to send to the slave.
 562:Generated_Source\PSoC4/I2C_I2C_MASTER.c **** *
 563:Generated_Source\PSoC4/I2C_I2C_MASTER.c **** * \param timeoutMs
 564:Generated_Source\PSoC4/I2C_I2C_MASTER.c **** * Defines in milliseconds the time that this function can block for.
 565:Generated_Source\PSoC4/I2C_I2C_MASTER.c **** * If that time expires, the function returns. If a zero is passed,
 566:Generated_Source\PSoC4/I2C_I2C_MASTER.c **** * the function waits forever for the action to complete. If a timeout occurs,
 567:Generated_Source\PSoC4/I2C_I2C_MASTER.c **** * the SCB block is reset. Note The maximum value is (maximum uint32)/1000.
 568:Generated_Source\PSoC4/I2C_I2C_MASTER.c **** *
 569:Generated_Source\PSoC4/I2C_I2C_MASTER.c **** * \return
 570:Generated_Source\PSoC4/I2C_I2C_MASTER.c **** * Error status.
 571:Generated_Source\PSoC4/I2C_I2C_MASTER.c **** * See I2C_I2CMasterSendStart() function for constants.
 572:Generated_Source\PSoC4/I2C_I2C_MASTER.c **** *
 573:Generated_Source\PSoC4/I2C_I2C_MASTER.c **** * \sideeffect
 574:Generated_Source\PSoC4/I2C_I2C_MASTER.c **** * A valid Start or ReStart condition must be generated before calling
 575:Generated_Source\PSoC4/I2C_I2C_MASTER.c **** * this function. This function does nothing if Start or ReStart condition
 576:Generated_Source\PSoC4/I2C_I2C_MASTER.c **** * failed before this function was called.
 577:Generated_Source\PSoC4/I2C_I2C_MASTER.c **** *
 578:Generated_Source\PSoC4/I2C_I2C_MASTER.c **** * \globalvars
 579:Generated_Source\PSoC4/I2C_I2C_MASTER.c **** * I2C_state - used to store current state of software FSM.
 580:Generated_Source\PSoC4/I2C_I2C_MASTER.c **** *
 581:Generated_Source\PSoC4/I2C_I2C_MASTER.c **** *******************************************************************************/
 582:Generated_Source\PSoC4/I2C_I2C_MASTER.c **** uint32 I2C_I2CMasterWriteByte(uint32 wrByte, uint32 timeoutMs)
 583:Generated_Source\PSoC4/I2C_I2C_MASTER.c **** {
 819              		.loc 1 583 0
 820              		.cfi_startproc
 821              		@ args = 0, pretend = 0, frame = 24
 822              		@ frame_needed = 1, uses_anonymous_args = 0
 823 0000 80B5     		push	{r7, lr}
 824              		.cfi_def_cfa_offset 8
 825              		.cfi_offset 7, -8
 826              		.cfi_offset 14, -4
 827 0002 86B0     		sub	sp, sp, #24
 828              		.cfi_def_cfa_offset 32
 829 0004 00AF     		add	r7, sp, #0
 830              		.cfi_def_cfa_register 7
 831 0006 7860     		str	r0, [r7, #4]
 832 0008 3960     		str	r1, [r7]
 584:Generated_Source\PSoC4/I2C_I2C_MASTER.c ****     uint32 errStatus = I2C_I2C_MSTR_NOT_READY;
 833              		.loc 1 584 0
 834 000a 0423     		movs	r3, #4
 835 000c 7B61     		str	r3, [r7, #20]
 585:Generated_Source\PSoC4/I2C_I2C_MASTER.c **** 
 586:Generated_Source\PSoC4/I2C_I2C_MASTER.c ****     /* Check FSM state before write byte */
 587:Generated_Source\PSoC4/I2C_I2C_MASTER.c ****     if(I2C_CHECK_I2C_MASTER_ACTIVE)
 836              		.loc 1 587 0
 837 000e 164B     		ldr	r3, .L53
 838 0010 1B78     		ldrb	r3, [r3]
ARM GAS  C:\Users\EDULU~1.DES\AppData\Local\Temp\cc10QHjd.s 			page 26


 839 0012 DBB2     		uxtb	r3, r3
 840 0014 2022     		movs	r2, #32
 841 0016 1340     		ands	r3, r2
 842 0018 DBB2     		uxtb	r3, r3
 843 001a 002B     		cmp	r3, #0
 844 001c 1FD0     		beq	.L50
 845              	.LBB5:
 588:Generated_Source\PSoC4/I2C_I2C_MASTER.c ****     {
 589:Generated_Source\PSoC4/I2C_I2C_MASTER.c ****         uint32 locStatus;
 590:Generated_Source\PSoC4/I2C_I2C_MASTER.c ****         uint32 timeout = I2C_I2C_CONVERT_TIMEOUT_TO_US(timeoutMs);
 846              		.loc 1 590 0
 847 001e 3B68     		ldr	r3, [r7]
 848 0020 FA22     		movs	r2, #250
 849 0022 9200     		lsls	r2, r2, #2
 850 0024 5343     		muls	r3, r2
 851 0026 FB60     		str	r3, [r7, #12]
 591:Generated_Source\PSoC4/I2C_I2C_MASTER.c **** 
 592:Generated_Source\PSoC4/I2C_I2C_MASTER.c ****         I2C_TX_FIFO_WR_REG = wrByte;
 852              		.loc 1 592 0
 853 0028 104B     		ldr	r3, .L53+4
 854 002a 7A68     		ldr	r2, [r7, #4]
 855 002c 1A60     		str	r2, [r3]
 856              	.L51:
 593:Generated_Source\PSoC4/I2C_I2C_MASTER.c **** 
 594:Generated_Source\PSoC4/I2C_I2C_MASTER.c ****         /* Wait for a completion event from the master */
 595:Generated_Source\PSoC4/I2C_I2C_MASTER.c ****         do
 596:Generated_Source\PSoC4/I2C_I2C_MASTER.c ****         {
 597:Generated_Source\PSoC4/I2C_I2C_MASTER.c ****             locStatus  = I2C_GetMasterInterruptSource() & I2C_INTR_MASTER_SEND_BYTE;
 857              		.loc 1 597 0 discriminator 1
 858 002e 104B     		ldr	r3, .L53+8
 859 0030 1A68     		ldr	r2, [r3]
 860 0032 0823     		movs	r3, #8
 861 0034 FF33     		adds	r3, r3, #255
 862 0036 1340     		ands	r3, r2
 863 0038 3B61     		str	r3, [r7, #16]
 598:Generated_Source\PSoC4/I2C_I2C_MASTER.c ****             locStatus |= I2C_I2CMasterWaitOneUnit(&timeout);
 864              		.loc 1 598 0 discriminator 1
 865 003a 0C23     		movs	r3, #12
 866 003c FB18     		adds	r3, r7, r3
 867 003e 1800     		movs	r0, r3
 868 0040 FFF7FEFF 		bl	I2C_I2CMasterWaitOneUnit
 869 0044 0200     		movs	r2, r0
 870 0046 3B69     		ldr	r3, [r7, #16]
 871 0048 1343     		orrs	r3, r2
 872 004a 3B61     		str	r3, [r7, #16]
 599:Generated_Source\PSoC4/I2C_I2C_MASTER.c ****         }
 600:Generated_Source\PSoC4/I2C_I2C_MASTER.c ****         while (0u == locStatus);
 873              		.loc 1 600 0 discriminator 1
 874 004c 3B69     		ldr	r3, [r7, #16]
 875 004e 002B     		cmp	r3, #0
 876 0050 EDD0     		beq	.L51
 601:Generated_Source\PSoC4/I2C_I2C_MASTER.c **** 
 602:Generated_Source\PSoC4/I2C_I2C_MASTER.c ****         /* Handle completion event and convert to status */
 603:Generated_Source\PSoC4/I2C_I2C_MASTER.c ****         errStatus = I2C_I2CMasterHandleStatus(locStatus);
 877              		.loc 1 603 0
 878 0052 3B69     		ldr	r3, [r7, #16]
 879 0054 1800     		movs	r0, r3
ARM GAS  C:\Users\EDULU~1.DES\AppData\Local\Temp\cc10QHjd.s 			page 27


 880 0056 FFF7FEFF 		bl	I2C_I2CMasterHandleStatus
 881 005a 0300     		movs	r3, r0
 882 005c 7B61     		str	r3, [r7, #20]
 883              	.L50:
 884              	.LBE5:
 604:Generated_Source\PSoC4/I2C_I2C_MASTER.c ****     }
 605:Generated_Source\PSoC4/I2C_I2C_MASTER.c **** 
 606:Generated_Source\PSoC4/I2C_I2C_MASTER.c ****     return(errStatus);
 885              		.loc 1 606 0
 886 005e 7B69     		ldr	r3, [r7, #20]
 607:Generated_Source\PSoC4/I2C_I2C_MASTER.c **** }
 887              		.loc 1 607 0
 888 0060 1800     		movs	r0, r3
 889 0062 BD46     		mov	sp, r7
 890 0064 06B0     		add	sp, sp, #24
 891              		@ sp needed
 892 0066 80BD     		pop	{r7, pc}
 893              	.L54:
 894              		.align	2
 895              	.L53:
 896 0068 00000000 		.word	I2C_state
 897 006c 40020640 		.word	1074135616
 898 0070 000F0640 		.word	1074138880
 899              		.cfi_endproc
 900              	.LFE5:
 901              		.size	I2C_I2CMasterWriteByte, .-I2C_I2CMasterWriteByte
 902              		.section	.text.I2C_I2CMasterReadByte,"ax",%progbits
 903              		.align	2
 904              		.global	I2C_I2CMasterReadByte
 905              		.code	16
 906              		.thumb_func
 907              		.type	I2C_I2CMasterReadByte, %function
 908              	I2C_I2CMasterReadByte:
 909              	.LFB6:
 608:Generated_Source\PSoC4/I2C_I2C_MASTER.c **** 
 609:Generated_Source\PSoC4/I2C_I2C_MASTER.c **** 
 610:Generated_Source\PSoC4/I2C_I2C_MASTER.c **** 
 611:Generated_Source\PSoC4/I2C_I2C_MASTER.c **** /*******************************************************************************
 612:Generated_Source\PSoC4/I2C_I2C_MASTER.c **** * Function Name: I2C_I2CMasterReadByte
 613:Generated_Source\PSoC4/I2C_I2C_MASTER.c **** ****************************************************************************//**
 614:Generated_Source\PSoC4/I2C_I2C_MASTER.c **** *
 615:Generated_Source\PSoC4/I2C_I2C_MASTER.c **** * Reads one byte from a slave and generates ACK or prepares to generate NAK.
 616:Generated_Source\PSoC4/I2C_I2C_MASTER.c **** * The NAK will be generated before Stop or ReStart condition by
 617:Generated_Source\PSoC4/I2C_I2C_MASTER.c **** * I2C_I2CMasterSendStop() or
 618:Generated_Source\PSoC4/I2C_I2C_MASTER.c **** * I2C_I2CMasterSendRestart() function appropriately.
 619:Generated_Source\PSoC4/I2C_I2C_MASTER.c **** * This function is blocking. It does not return until a byte is received or
 620:Generated_Source\PSoC4/I2C_I2C_MASTER.c **** * an error occurs.
 621:Generated_Source\PSoC4/I2C_I2C_MASTER.c **** *
 622:Generated_Source\PSoC4/I2C_I2C_MASTER.c **** * \param ackNack
 623:Generated_Source\PSoC4/I2C_I2C_MASTER.c **** * Response to received byte.
 624:Generated_Source\PSoC4/I2C_I2C_MASTER.c **** *  - I2C_I2C_ACK_DATA - Generates ACK.
 625:Generated_Source\PSoC4/I2C_I2C_MASTER.c **** *     The master notifies slave that transfer continues.
 626:Generated_Source\PSoC4/I2C_I2C_MASTER.c **** *  - I2C_I2C_NAK_DATA - Prepares to generate NAK.
 627:Generated_Source\PSoC4/I2C_I2C_MASTER.c **** *     The master will notify slave that transfer is completed.
 628:Generated_Source\PSoC4/I2C_I2C_MASTER.c **** *
 629:Generated_Source\PSoC4/I2C_I2C_MASTER.c **** * \param rdByte
 630:Generated_Source\PSoC4/I2C_I2C_MASTER.c **** * The pointer to the location to store the data byte that was read from
ARM GAS  C:\Users\EDULU~1.DES\AppData\Local\Temp\cc10QHjd.s 			page 28


 631:Generated_Source\PSoC4/I2C_I2C_MASTER.c **** * the slave.
 632:Generated_Source\PSoC4/I2C_I2C_MASTER.c **** * Note that the byte should be ignored if error status is returned.
 633:Generated_Source\PSoC4/I2C_I2C_MASTER.c **** *
 634:Generated_Source\PSoC4/I2C_I2C_MASTER.c **** * \param timeoutMs
 635:Generated_Source\PSoC4/I2C_I2C_MASTER.c **** * Defines in milliseconds the time that this function can block for.
 636:Generated_Source\PSoC4/I2C_I2C_MASTER.c **** * If that time expires, the function returns. If a zero is passed,
 637:Generated_Source\PSoC4/I2C_I2C_MASTER.c **** * the function waits forever for the action to complete. If a timeout occurs,
 638:Generated_Source\PSoC4/I2C_I2C_MASTER.c **** * the SCB block is reset. Note The maximum value is (maximum uint32)/1000.
 639:Generated_Source\PSoC4/I2C_I2C_MASTER.c **** *
 640:Generated_Source\PSoC4/I2C_I2C_MASTER.c **** * \return
 641:Generated_Source\PSoC4/I2C_I2C_MASTER.c **** * Error status.
 642:Generated_Source\PSoC4/I2C_I2C_MASTER.c **** * See I2C_I2CMasterSendStart() function for constants.
 643:Generated_Source\PSoC4/I2C_I2C_MASTER.c **** *
 644:Generated_Source\PSoC4/I2C_I2C_MASTER.c **** * \sideeffect
 645:Generated_Source\PSoC4/I2C_I2C_MASTER.c **** * A valid Start or ReStart condition must be generated before calling
 646:Generated_Source\PSoC4/I2C_I2C_MASTER.c **** * this function. This function does nothing if Start or ReStart condition
 647:Generated_Source\PSoC4/I2C_I2C_MASTER.c **** * failed before this function was called.
 648:Generated_Source\PSoC4/I2C_I2C_MASTER.c **** *
 649:Generated_Source\PSoC4/I2C_I2C_MASTER.c **** * \globalvars
 650:Generated_Source\PSoC4/I2C_I2C_MASTER.c **** * I2C_state - used to store current state of software FSM.
 651:Generated_Source\PSoC4/I2C_I2C_MASTER.c **** *
 652:Generated_Source\PSoC4/I2C_I2C_MASTER.c **** *******************************************************************************/
 653:Generated_Source\PSoC4/I2C_I2C_MASTER.c **** uint32 I2C_I2CMasterReadByte(uint32 ackNack, uint8 *rdByte, uint32 timeoutMs)
 654:Generated_Source\PSoC4/I2C_I2C_MASTER.c **** {
 910              		.loc 1 654 0
 911              		.cfi_startproc
 912              		@ args = 0, pretend = 0, frame = 32
 913              		@ frame_needed = 1, uses_anonymous_args = 0
 914 0000 80B5     		push	{r7, lr}
 915              		.cfi_def_cfa_offset 8
 916              		.cfi_offset 7, -8
 917              		.cfi_offset 14, -4
 918 0002 88B0     		sub	sp, sp, #32
 919              		.cfi_def_cfa_offset 40
 920 0004 00AF     		add	r7, sp, #0
 921              		.cfi_def_cfa_register 7
 922 0006 F860     		str	r0, [r7, #12]
 923 0008 B960     		str	r1, [r7, #8]
 924 000a 7A60     		str	r2, [r7, #4]
 655:Generated_Source\PSoC4/I2C_I2C_MASTER.c ****     uint32 errStatus = I2C_I2C_MSTR_NOT_READY;
 925              		.loc 1 655 0
 926 000c 0423     		movs	r3, #4
 927 000e FB61     		str	r3, [r7, #28]
 656:Generated_Source\PSoC4/I2C_I2C_MASTER.c **** 
 657:Generated_Source\PSoC4/I2C_I2C_MASTER.c ****     /* Check FSM state before read byte */
 658:Generated_Source\PSoC4/I2C_I2C_MASTER.c ****     if(I2C_CHECK_I2C_MASTER_ACTIVE)
 928              		.loc 1 658 0
 929 0010 224B     		ldr	r3, .L62
 930 0012 1B78     		ldrb	r3, [r3]
 931 0014 DBB2     		uxtb	r3, r3
 932 0016 2022     		movs	r2, #32
 933 0018 1340     		ands	r3, r2
 934 001a DBB2     		uxtb	r3, r3
 935 001c 002B     		cmp	r3, #0
 936 001e 38D0     		beq	.L56
 937              	.LBB6:
 659:Generated_Source\PSoC4/I2C_I2C_MASTER.c ****     {
ARM GAS  C:\Users\EDULU~1.DES\AppData\Local\Temp\cc10QHjd.s 			page 29


 660:Generated_Source\PSoC4/I2C_I2C_MASTER.c ****         uint32 locStatus;
 661:Generated_Source\PSoC4/I2C_I2C_MASTER.c ****         uint32 rxNotEmpty;
 662:Generated_Source\PSoC4/I2C_I2C_MASTER.c ****         uint32 timeout = I2C_I2C_CONVERT_TIMEOUT_TO_US(timeoutMs);
 938              		.loc 1 662 0
 939 0020 7B68     		ldr	r3, [r7, #4]
 940 0022 FA22     		movs	r2, #250
 941 0024 9200     		lsls	r2, r2, #2
 942 0026 5343     		muls	r3, r2
 943 0028 3B61     		str	r3, [r7, #16]
 944              	.L58:
 663:Generated_Source\PSoC4/I2C_I2C_MASTER.c **** 
 664:Generated_Source\PSoC4/I2C_I2C_MASTER.c ****         /* Wait for a completion event from the master */
 665:Generated_Source\PSoC4/I2C_I2C_MASTER.c ****         do
 666:Generated_Source\PSoC4/I2C_I2C_MASTER.c ****         {
 667:Generated_Source\PSoC4/I2C_I2C_MASTER.c ****             locStatus  = I2C_GetMasterInterruptSource() & I2C_INTR_MASTER_RECEIVE_BYTE;
 945              		.loc 1 667 0 discriminator 2
 946 002a 1D4B     		ldr	r3, .L62+4
 947 002c 1A68     		ldr	r2, [r3]
 948 002e 0223     		movs	r3, #2
 949 0030 FF33     		adds	r3, r3, #255
 950 0032 1340     		ands	r3, r2
 951 0034 BB61     		str	r3, [r7, #24]
 668:Generated_Source\PSoC4/I2C_I2C_MASTER.c ****             rxNotEmpty = I2C_GetRxInterruptSource() & I2C_INTR_RX_NOT_EMPTY;
 952              		.loc 1 668 0 discriminator 2
 953 0036 1B4B     		ldr	r3, .L62+8
 954 0038 1B68     		ldr	r3, [r3]
 955 003a 0422     		movs	r2, #4
 956 003c 1340     		ands	r3, r2
 957 003e 7B61     		str	r3, [r7, #20]
 669:Generated_Source\PSoC4/I2C_I2C_MASTER.c ****             locStatus |= I2C_I2CMasterWaitOneUnit(&timeout);
 958              		.loc 1 669 0 discriminator 2
 959 0040 1023     		movs	r3, #16
 960 0042 FB18     		adds	r3, r7, r3
 961 0044 1800     		movs	r0, r3
 962 0046 FFF7FEFF 		bl	I2C_I2CMasterWaitOneUnit
 963 004a 0200     		movs	r2, r0
 964 004c BB69     		ldr	r3, [r7, #24]
 965 004e 1343     		orrs	r3, r2
 966 0050 BB61     		str	r3, [r7, #24]
 670:Generated_Source\PSoC4/I2C_I2C_MASTER.c ****         }
 671:Generated_Source\PSoC4/I2C_I2C_MASTER.c ****         while ((0u == locStatus) && (0u == rxNotEmpty));
 967              		.loc 1 671 0 discriminator 2
 968 0052 BB69     		ldr	r3, [r7, #24]
 969 0054 002B     		cmp	r3, #0
 970 0056 02D1     		bne	.L57
 971              		.loc 1 671 0 is_stmt 0 discriminator 1
 972 0058 7B69     		ldr	r3, [r7, #20]
 973 005a 002B     		cmp	r3, #0
 974 005c E5D0     		beq	.L58
 975              	.L57:
 672:Generated_Source\PSoC4/I2C_I2C_MASTER.c **** 
 673:Generated_Source\PSoC4/I2C_I2C_MASTER.c ****         /* Get byte from RX FIFO */
 674:Generated_Source\PSoC4/I2C_I2C_MASTER.c ****         if (0u != rxNotEmpty)
 976              		.loc 1 674 0 is_stmt 1
 977 005e 7B69     		ldr	r3, [r7, #20]
 978 0060 002B     		cmp	r3, #0
 979 0062 07D0     		beq	.L59
ARM GAS  C:\Users\EDULU~1.DES\AppData\Local\Temp\cc10QHjd.s 			page 30


 675:Generated_Source\PSoC4/I2C_I2C_MASTER.c ****         {
 676:Generated_Source\PSoC4/I2C_I2C_MASTER.c ****             *rdByte = (uint8)I2C_RX_FIFO_RD_REG;
 980              		.loc 1 676 0
 981 0064 104B     		ldr	r3, .L62+12
 982 0066 1B68     		ldr	r3, [r3]
 983 0068 DAB2     		uxtb	r2, r3
 984 006a BB68     		ldr	r3, [r7, #8]
 985 006c 1A70     		strb	r2, [r3]
 677:Generated_Source\PSoC4/I2C_I2C_MASTER.c ****             I2C_ClearRxInterruptSource(I2C_INTR_RX_ALL);
 986              		.loc 1 677 0
 987 006e 0D4B     		ldr	r3, .L62+8
 988 0070 0E4A     		ldr	r2, .L62+16
 989 0072 1A60     		str	r2, [r3]
 990              	.L59:
 678:Generated_Source\PSoC4/I2C_I2C_MASTER.c ****         }
 679:Generated_Source\PSoC4/I2C_I2C_MASTER.c **** 
 680:Generated_Source\PSoC4/I2C_I2C_MASTER.c ****         /* Handle completion event and convert to status */
 681:Generated_Source\PSoC4/I2C_I2C_MASTER.c ****         errStatus = I2C_I2CMasterHandleStatus(locStatus);
 991              		.loc 1 681 0
 992 0074 BB69     		ldr	r3, [r7, #24]
 993 0076 1800     		movs	r0, r3
 994 0078 FFF7FEFF 		bl	I2C_I2CMasterHandleStatus
 995 007c 0300     		movs	r3, r0
 996 007e FB61     		str	r3, [r7, #28]
 682:Generated_Source\PSoC4/I2C_I2C_MASTER.c **** 
 683:Generated_Source\PSoC4/I2C_I2C_MASTER.c ****         if (I2C_I2C_MSTR_NO_ERROR == errStatus)
 997              		.loc 1 683 0
 998 0080 FB69     		ldr	r3, [r7, #28]
 999 0082 002B     		cmp	r3, #0
 1000 0084 05D1     		bne	.L56
 684:Generated_Source\PSoC4/I2C_I2C_MASTER.c ****         {
 685:Generated_Source\PSoC4/I2C_I2C_MASTER.c ****             if(I2C_I2C_ACK_DATA == ackNack)
 1001              		.loc 1 685 0
 1002 0086 FB68     		ldr	r3, [r7, #12]
 1003 0088 002B     		cmp	r3, #0
 1004 008a 02D1     		bne	.L56
 686:Generated_Source\PSoC4/I2C_I2C_MASTER.c ****             {
 687:Generated_Source\PSoC4/I2C_I2C_MASTER.c ****                 I2C_I2C_MASTER_GENERATE_ACK;
 1005              		.loc 1 687 0
 1006 008c 084B     		ldr	r3, .L62+20
 1007 008e 0422     		movs	r2, #4
 1008 0090 1A60     		str	r2, [r3]
 1009              	.L56:
 1010              	.LBE6:
 688:Generated_Source\PSoC4/I2C_I2C_MASTER.c ****             }
 689:Generated_Source\PSoC4/I2C_I2C_MASTER.c ****             else
 690:Generated_Source\PSoC4/I2C_I2C_MASTER.c ****             {
 691:Generated_Source\PSoC4/I2C_I2C_MASTER.c ****                 /* NACK is generated by Stop or ReStart command */
 692:Generated_Source\PSoC4/I2C_I2C_MASTER.c ****             }
 693:Generated_Source\PSoC4/I2C_I2C_MASTER.c ****         }
 694:Generated_Source\PSoC4/I2C_I2C_MASTER.c ****     }
 695:Generated_Source\PSoC4/I2C_I2C_MASTER.c **** 
 696:Generated_Source\PSoC4/I2C_I2C_MASTER.c ****     return(errStatus);
 1011              		.loc 1 696 0
 1012 0092 FB69     		ldr	r3, [r7, #28]
 697:Generated_Source\PSoC4/I2C_I2C_MASTER.c **** }
 1013              		.loc 1 697 0
ARM GAS  C:\Users\EDULU~1.DES\AppData\Local\Temp\cc10QHjd.s 			page 31


 1014 0094 1800     		movs	r0, r3
 1015 0096 BD46     		mov	sp, r7
 1016 0098 08B0     		add	sp, sp, #32
 1017              		@ sp needed
 1018 009a 80BD     		pop	{r7, pc}
 1019              	.L63:
 1020              		.align	2
 1021              	.L62:
 1022 009c 00000000 		.word	I2C_state
 1023 00a0 000F0640 		.word	1074138880
 1024 00a4 C00F0640 		.word	1074139072
 1025 00a8 40030640 		.word	1074135872
 1026 00ac ED0F0000 		.word	4077
 1027 00b0 68000640 		.word	1074135144
 1028              		.cfi_endproc
 1029              	.LFE6:
 1030              		.size	I2C_I2CMasterReadByte, .-I2C_I2CMasterReadByte
 1031              		.section	.text.I2C_I2CMasterGetReadBufSize,"ax",%progbits
 1032              		.align	2
 1033              		.global	I2C_I2CMasterGetReadBufSize
 1034              		.code	16
 1035              		.thumb_func
 1036              		.type	I2C_I2CMasterGetReadBufSize, %function
 1037              	I2C_I2CMasterGetReadBufSize:
 1038              	.LFB7:
 698:Generated_Source\PSoC4/I2C_I2C_MASTER.c **** 
 699:Generated_Source\PSoC4/I2C_I2C_MASTER.c **** 
 700:Generated_Source\PSoC4/I2C_I2C_MASTER.c **** /*******************************************************************************
 701:Generated_Source\PSoC4/I2C_I2C_MASTER.c **** * Function Name: I2C_I2CMasterGetReadBufSize
 702:Generated_Source\PSoC4/I2C_I2C_MASTER.c **** ****************************************************************************//**
 703:Generated_Source\PSoC4/I2C_I2C_MASTER.c **** *
 704:Generated_Source\PSoC4/I2C_I2C_MASTER.c **** *  Returns the number of bytes that has been transferred with an
 705:Generated_Source\PSoC4/I2C_I2C_MASTER.c **** *  I2C_I2CMasterReadBuf() function.
 706:Generated_Source\PSoC4/I2C_I2C_MASTER.c **** *
 707:Generated_Source\PSoC4/I2C_I2C_MASTER.c **** * \return
 708:Generated_Source\PSoC4/I2C_I2C_MASTER.c **** *  Byte count of transfer. If the transfer is not yet complete, it returns
 709:Generated_Source\PSoC4/I2C_I2C_MASTER.c **** *  the byte count transferred so far.
 710:Generated_Source\PSoC4/I2C_I2C_MASTER.c **** *
 711:Generated_Source\PSoC4/I2C_I2C_MASTER.c **** * \sideeffect
 712:Generated_Source\PSoC4/I2C_I2C_MASTER.c **** *  This function returns not valid value if
 713:Generated_Source\PSoC4/I2C_I2C_MASTER.c **** *  I2C_I2C_MSTAT_ERR_ARB_LOST or
 714:Generated_Source\PSoC4/I2C_I2C_MASTER.c **** *  I2C_I2C_MSTAT_ERR_BUS_ERROR occurred while read transfer.
 715:Generated_Source\PSoC4/I2C_I2C_MASTER.c **** *
 716:Generated_Source\PSoC4/I2C_I2C_MASTER.c **** * \globalvars
 717:Generated_Source\PSoC4/I2C_I2C_MASTER.c **** *  I2C_mstrRdBufIndex - used to current index within master read
 718:Generated_Source\PSoC4/I2C_I2C_MASTER.c **** *  buffer.
 719:Generated_Source\PSoC4/I2C_I2C_MASTER.c **** *
 720:Generated_Source\PSoC4/I2C_I2C_MASTER.c **** *******************************************************************************/
 721:Generated_Source\PSoC4/I2C_I2C_MASTER.c **** uint32 I2C_I2CMasterGetReadBufSize(void)
 722:Generated_Source\PSoC4/I2C_I2C_MASTER.c **** {
 1039              		.loc 1 722 0
 1040              		.cfi_startproc
 1041              		@ args = 0, pretend = 0, frame = 0
 1042              		@ frame_needed = 1, uses_anonymous_args = 0
 1043 0000 80B5     		push	{r7, lr}
 1044              		.cfi_def_cfa_offset 8
 1045              		.cfi_offset 7, -8
ARM GAS  C:\Users\EDULU~1.DES\AppData\Local\Temp\cc10QHjd.s 			page 32


 1046              		.cfi_offset 14, -4
 1047 0002 00AF     		add	r7, sp, #0
 1048              		.cfi_def_cfa_register 7
 723:Generated_Source\PSoC4/I2C_I2C_MASTER.c ****     return(I2C_mstrRdBufIndex);
 1049              		.loc 1 723 0
 1050 0004 024B     		ldr	r3, .L66
 1051 0006 1B68     		ldr	r3, [r3]
 724:Generated_Source\PSoC4/I2C_I2C_MASTER.c **** }
 1052              		.loc 1 724 0
 1053 0008 1800     		movs	r0, r3
 1054 000a BD46     		mov	sp, r7
 1055              		@ sp needed
 1056 000c 80BD     		pop	{r7, pc}
 1057              	.L67:
 1058 000e C046     		.align	2
 1059              	.L66:
 1060 0010 00000000 		.word	I2C_mstrRdBufIndex
 1061              		.cfi_endproc
 1062              	.LFE7:
 1063              		.size	I2C_I2CMasterGetReadBufSize, .-I2C_I2CMasterGetReadBufSize
 1064              		.section	.text.I2C_I2CMasterGetWriteBufSize,"ax",%progbits
 1065              		.align	2
 1066              		.global	I2C_I2CMasterGetWriteBufSize
 1067              		.code	16
 1068              		.thumb_func
 1069              		.type	I2C_I2CMasterGetWriteBufSize, %function
 1070              	I2C_I2CMasterGetWriteBufSize:
 1071              	.LFB8:
 725:Generated_Source\PSoC4/I2C_I2C_MASTER.c **** 
 726:Generated_Source\PSoC4/I2C_I2C_MASTER.c **** 
 727:Generated_Source\PSoC4/I2C_I2C_MASTER.c **** /*******************************************************************************
 728:Generated_Source\PSoC4/I2C_I2C_MASTER.c **** * Function Name: I2C_I2CMasterGetWriteBufSize
 729:Generated_Source\PSoC4/I2C_I2C_MASTER.c **** ****************************************************************************//**
 730:Generated_Source\PSoC4/I2C_I2C_MASTER.c **** *
 731:Generated_Source\PSoC4/I2C_I2C_MASTER.c **** *  Returns the number of bytes that have been transferred with an
 732:Generated_Source\PSoC4/I2C_I2C_MASTER.c **** *  SCB_I2CMasterWriteBuf() function.
 733:Generated_Source\PSoC4/I2C_I2C_MASTER.c **** *
 734:Generated_Source\PSoC4/I2C_I2C_MASTER.c **** * \return
 735:Generated_Source\PSoC4/I2C_I2C_MASTER.c **** *   Byte count of transfer. If the transfer is not yet complete, it returns
 736:Generated_Source\PSoC4/I2C_I2C_MASTER.c **** *   zero unit transfer completion.
 737:Generated_Source\PSoC4/I2C_I2C_MASTER.c **** *
 738:Generated_Source\PSoC4/I2C_I2C_MASTER.c **** * \sideeffect
 739:Generated_Source\PSoC4/I2C_I2C_MASTER.c **** *   This function returns not valid value if
 740:Generated_Source\PSoC4/I2C_I2C_MASTER.c **** *   I2C_I2C_MSTAT_ERR_ARB_LOST or
 741:Generated_Source\PSoC4/I2C_I2C_MASTER.c **** *   I2C_I2C_MSTAT_ERR_BUS_ERROR occurred while read transfer.
 742:Generated_Source\PSoC4/I2C_I2C_MASTER.c **** *
 743:Generated_Source\PSoC4/I2C_I2C_MASTER.c **** * \globalvars
 744:Generated_Source\PSoC4/I2C_I2C_MASTER.c **** *  I2C_mstrWrBufIndex - used to current index within master write
 745:Generated_Source\PSoC4/I2C_I2C_MASTER.c **** *  buffer.
 746:Generated_Source\PSoC4/I2C_I2C_MASTER.c **** *
 747:Generated_Source\PSoC4/I2C_I2C_MASTER.c **** *******************************************************************************/
 748:Generated_Source\PSoC4/I2C_I2C_MASTER.c **** uint32 I2C_I2CMasterGetWriteBufSize(void)
 749:Generated_Source\PSoC4/I2C_I2C_MASTER.c **** {
 1072              		.loc 1 749 0
 1073              		.cfi_startproc
 1074              		@ args = 0, pretend = 0, frame = 0
 1075              		@ frame_needed = 1, uses_anonymous_args = 0
ARM GAS  C:\Users\EDULU~1.DES\AppData\Local\Temp\cc10QHjd.s 			page 33


 1076 0000 80B5     		push	{r7, lr}
 1077              		.cfi_def_cfa_offset 8
 1078              		.cfi_offset 7, -8
 1079              		.cfi_offset 14, -4
 1080 0002 00AF     		add	r7, sp, #0
 1081              		.cfi_def_cfa_register 7
 750:Generated_Source\PSoC4/I2C_I2C_MASTER.c ****     return(I2C_mstrWrBufIndex);
 1082              		.loc 1 750 0
 1083 0004 024B     		ldr	r3, .L70
 1084 0006 1B68     		ldr	r3, [r3]
 751:Generated_Source\PSoC4/I2C_I2C_MASTER.c **** }
 1085              		.loc 1 751 0
 1086 0008 1800     		movs	r0, r3
 1087 000a BD46     		mov	sp, r7
 1088              		@ sp needed
 1089 000c 80BD     		pop	{r7, pc}
 1090              	.L71:
 1091 000e C046     		.align	2
 1092              	.L70:
 1093 0010 00000000 		.word	I2C_mstrWrBufIndex
 1094              		.cfi_endproc
 1095              	.LFE8:
 1096              		.size	I2C_I2CMasterGetWriteBufSize, .-I2C_I2CMasterGetWriteBufSize
 1097              		.section	.text.I2C_I2CMasterClearReadBuf,"ax",%progbits
 1098              		.align	2
 1099              		.global	I2C_I2CMasterClearReadBuf
 1100              		.code	16
 1101              		.thumb_func
 1102              		.type	I2C_I2CMasterClearReadBuf, %function
 1103              	I2C_I2CMasterClearReadBuf:
 1104              	.LFB9:
 752:Generated_Source\PSoC4/I2C_I2C_MASTER.c **** 
 753:Generated_Source\PSoC4/I2C_I2C_MASTER.c **** 
 754:Generated_Source\PSoC4/I2C_I2C_MASTER.c **** /*******************************************************************************
 755:Generated_Source\PSoC4/I2C_I2C_MASTER.c **** * Function Name: I2C_I2CMasterClearReadBuf
 756:Generated_Source\PSoC4/I2C_I2C_MASTER.c **** ****************************************************************************//**
 757:Generated_Source\PSoC4/I2C_I2C_MASTER.c **** *
 758:Generated_Source\PSoC4/I2C_I2C_MASTER.c **** *  Resets the read buffer pointer back to the first byte in the buffer.
 759:Generated_Source\PSoC4/I2C_I2C_MASTER.c **** *
 760:Generated_Source\PSoC4/I2C_I2C_MASTER.c **** * \globalvars
 761:Generated_Source\PSoC4/I2C_I2C_MASTER.c **** *  I2C_mstrRdBufIndex - used to current index within master read
 762:Generated_Source\PSoC4/I2C_I2C_MASTER.c **** *   buffer.
 763:Generated_Source\PSoC4/I2C_I2C_MASTER.c **** *  I2C_mstrStatus - used to store current status of I2C Master.
 764:Generated_Source\PSoC4/I2C_I2C_MASTER.c **** *
 765:Generated_Source\PSoC4/I2C_I2C_MASTER.c **** *******************************************************************************/
 766:Generated_Source\PSoC4/I2C_I2C_MASTER.c **** void I2C_I2CMasterClearReadBuf(void)
 767:Generated_Source\PSoC4/I2C_I2C_MASTER.c **** {
 1105              		.loc 1 767 0
 1106              		.cfi_startproc
 1107              		@ args = 0, pretend = 0, frame = 0
 1108              		@ frame_needed = 1, uses_anonymous_args = 0
 1109 0000 80B5     		push	{r7, lr}
 1110              		.cfi_def_cfa_offset 8
 1111              		.cfi_offset 7, -8
 1112              		.cfi_offset 14, -4
 1113 0002 00AF     		add	r7, sp, #0
 1114              		.cfi_def_cfa_register 7
ARM GAS  C:\Users\EDULU~1.DES\AppData\Local\Temp\cc10QHjd.s 			page 34


 768:Generated_Source\PSoC4/I2C_I2C_MASTER.c ****     I2C_DisableInt();  /* Lock from interruption */
 1115              		.loc 1 768 0
 1116 0004 0A20     		movs	r0, #10
 1117 0006 FFF7FEFF 		bl	CyIntDisable
 769:Generated_Source\PSoC4/I2C_I2C_MASTER.c **** 
 770:Generated_Source\PSoC4/I2C_I2C_MASTER.c ****     I2C_mstrRdBufIndex = 0u;
 1118              		.loc 1 770 0
 1119 000a 084B     		ldr	r3, .L73
 1120 000c 0022     		movs	r2, #0
 1121 000e 1A60     		str	r2, [r3]
 771:Generated_Source\PSoC4/I2C_I2C_MASTER.c ****     I2C_mstrStatus    &= (uint16) ~I2C_I2C_MSTAT_RD_CMPLT;
 1122              		.loc 1 771 0
 1123 0010 074B     		ldr	r3, .L73+4
 1124 0012 1B88     		ldrh	r3, [r3]
 1125 0014 9BB2     		uxth	r3, r3
 1126 0016 0122     		movs	r2, #1
 1127 0018 9343     		bics	r3, r2
 1128 001a 9AB2     		uxth	r2, r3
 1129 001c 044B     		ldr	r3, .L73+4
 1130 001e 1A80     		strh	r2, [r3]
 772:Generated_Source\PSoC4/I2C_I2C_MASTER.c **** 
 773:Generated_Source\PSoC4/I2C_I2C_MASTER.c ****     I2C_EnableInt();   /* Release lock */
 1131              		.loc 1 773 0
 1132 0020 0A20     		movs	r0, #10
 1133 0022 FFF7FEFF 		bl	CyIntEnable
 774:Generated_Source\PSoC4/I2C_I2C_MASTER.c **** }
 1134              		.loc 1 774 0
 1135 0026 C046     		nop
 1136 0028 BD46     		mov	sp, r7
 1137              		@ sp needed
 1138 002a 80BD     		pop	{r7, pc}
 1139              	.L74:
 1140              		.align	2
 1141              	.L73:
 1142 002c 00000000 		.word	I2C_mstrRdBufIndex
 1143 0030 00000000 		.word	I2C_mstrStatus
 1144              		.cfi_endproc
 1145              	.LFE9:
 1146              		.size	I2C_I2CMasterClearReadBuf, .-I2C_I2CMasterClearReadBuf
 1147              		.section	.text.I2C_I2CMasterClearWriteBuf,"ax",%progbits
 1148              		.align	2
 1149              		.global	I2C_I2CMasterClearWriteBuf
 1150              		.code	16
 1151              		.thumb_func
 1152              		.type	I2C_I2CMasterClearWriteBuf, %function
 1153              	I2C_I2CMasterClearWriteBuf:
 1154              	.LFB10:
 775:Generated_Source\PSoC4/I2C_I2C_MASTER.c **** 
 776:Generated_Source\PSoC4/I2C_I2C_MASTER.c **** 
 777:Generated_Source\PSoC4/I2C_I2C_MASTER.c **** /*******************************************************************************
 778:Generated_Source\PSoC4/I2C_I2C_MASTER.c **** * Function Name: I2C_I2CMasterClearWriteBuf
 779:Generated_Source\PSoC4/I2C_I2C_MASTER.c **** ****************************************************************************//**
 780:Generated_Source\PSoC4/I2C_I2C_MASTER.c **** *
 781:Generated_Source\PSoC4/I2C_I2C_MASTER.c **** *  Resets the write buffer pointer back to the first byte in the buffer.
 782:Generated_Source\PSoC4/I2C_I2C_MASTER.c **** *
 783:Generated_Source\PSoC4/I2C_I2C_MASTER.c **** * \globalvars
 784:Generated_Source\PSoC4/I2C_I2C_MASTER.c **** *  I2C_mstrRdBufIndex - used to current index within master read
ARM GAS  C:\Users\EDULU~1.DES\AppData\Local\Temp\cc10QHjd.s 			page 35


 785:Generated_Source\PSoC4/I2C_I2C_MASTER.c **** *   buffer.
 786:Generated_Source\PSoC4/I2C_I2C_MASTER.c **** *  I2C_mstrStatus - used to store current status of I2C Master.
 787:Generated_Source\PSoC4/I2C_I2C_MASTER.c **** *
 788:Generated_Source\PSoC4/I2C_I2C_MASTER.c **** *******************************************************************************/
 789:Generated_Source\PSoC4/I2C_I2C_MASTER.c **** void I2C_I2CMasterClearWriteBuf(void)
 790:Generated_Source\PSoC4/I2C_I2C_MASTER.c **** {
 1155              		.loc 1 790 0
 1156              		.cfi_startproc
 1157              		@ args = 0, pretend = 0, frame = 0
 1158              		@ frame_needed = 1, uses_anonymous_args = 0
 1159 0000 80B5     		push	{r7, lr}
 1160              		.cfi_def_cfa_offset 8
 1161              		.cfi_offset 7, -8
 1162              		.cfi_offset 14, -4
 1163 0002 00AF     		add	r7, sp, #0
 1164              		.cfi_def_cfa_register 7
 791:Generated_Source\PSoC4/I2C_I2C_MASTER.c ****     I2C_DisableInt();  /* Lock from interruption */
 1165              		.loc 1 791 0
 1166 0004 0A20     		movs	r0, #10
 1167 0006 FFF7FEFF 		bl	CyIntDisable
 792:Generated_Source\PSoC4/I2C_I2C_MASTER.c **** 
 793:Generated_Source\PSoC4/I2C_I2C_MASTER.c ****     I2C_mstrWrBufIndex = 0u;
 1168              		.loc 1 793 0
 1169 000a 084B     		ldr	r3, .L76
 1170 000c 0022     		movs	r2, #0
 1171 000e 1A60     		str	r2, [r3]
 794:Generated_Source\PSoC4/I2C_I2C_MASTER.c ****     I2C_mstrStatus    &= (uint16) ~I2C_I2C_MSTAT_WR_CMPLT;
 1172              		.loc 1 794 0
 1173 0010 074B     		ldr	r3, .L76+4
 1174 0012 1B88     		ldrh	r3, [r3]
 1175 0014 9BB2     		uxth	r3, r3
 1176 0016 0222     		movs	r2, #2
 1177 0018 9343     		bics	r3, r2
 1178 001a 9AB2     		uxth	r2, r3
 1179 001c 044B     		ldr	r3, .L76+4
 1180 001e 1A80     		strh	r2, [r3]
 795:Generated_Source\PSoC4/I2C_I2C_MASTER.c **** 
 796:Generated_Source\PSoC4/I2C_I2C_MASTER.c ****     I2C_EnableInt();   /* Release lock */
 1181              		.loc 1 796 0
 1182 0020 0A20     		movs	r0, #10
 1183 0022 FFF7FEFF 		bl	CyIntEnable
 797:Generated_Source\PSoC4/I2C_I2C_MASTER.c **** }
 1184              		.loc 1 797 0
 1185 0026 C046     		nop
 1186 0028 BD46     		mov	sp, r7
 1187              		@ sp needed
 1188 002a 80BD     		pop	{r7, pc}
 1189              	.L77:
 1190              		.align	2
 1191              	.L76:
 1192 002c 00000000 		.word	I2C_mstrWrBufIndex
 1193 0030 00000000 		.word	I2C_mstrStatus
 1194              		.cfi_endproc
 1195              	.LFE10:
 1196              		.size	I2C_I2CMasterClearWriteBuf, .-I2C_I2CMasterClearWriteBuf
 1197              		.section	.text.I2C_I2CMasterStatus,"ax",%progbits
 1198              		.align	2
ARM GAS  C:\Users\EDULU~1.DES\AppData\Local\Temp\cc10QHjd.s 			page 36


 1199              		.global	I2C_I2CMasterStatus
 1200              		.code	16
 1201              		.thumb_func
 1202              		.type	I2C_I2CMasterStatus, %function
 1203              	I2C_I2CMasterStatus:
 1204              	.LFB11:
 798:Generated_Source\PSoC4/I2C_I2C_MASTER.c **** 
 799:Generated_Source\PSoC4/I2C_I2C_MASTER.c **** 
 800:Generated_Source\PSoC4/I2C_I2C_MASTER.c **** /*******************************************************************************
 801:Generated_Source\PSoC4/I2C_I2C_MASTER.c **** * Function Name: I2C_I2CMasterStatus
 802:Generated_Source\PSoC4/I2C_I2C_MASTER.c **** ****************************************************************************//**
 803:Generated_Source\PSoC4/I2C_I2C_MASTER.c **** *
 804:Generated_Source\PSoC4/I2C_I2C_MASTER.c **** *  Returns the master's communication status.
 805:Generated_Source\PSoC4/I2C_I2C_MASTER.c **** *
 806:Generated_Source\PSoC4/I2C_I2C_MASTER.c **** * \return
 807:Generated_Source\PSoC4/I2C_I2C_MASTER.c **** *  Current status of I2C master. This status incorporates status constants.
 808:Generated_Source\PSoC4/I2C_I2C_MASTER.c **** *  Each constant is a bit field value. The value returned may have multiple
 809:Generated_Source\PSoC4/I2C_I2C_MASTER.c **** *  bits set to indicate the status of the read or write transfer.
 810:Generated_Source\PSoC4/I2C_I2C_MASTER.c **** *  - I2C_I2C_MSTAT_RD_CMPLT - Read transfer complete.
 811:Generated_Source\PSoC4/I2C_I2C_MASTER.c **** *    The error condition status bits must be checked to ensure that
 812:Generated_Source\PSoC4/I2C_I2C_MASTER.c **** *    read transfer was completed successfully.
 813:Generated_Source\PSoC4/I2C_I2C_MASTER.c **** *  - I2C_I2C_MSTAT_WR_CMPLT - Write transfer complete.
 814:Generated_Source\PSoC4/I2C_I2C_MASTER.c **** *    The error condition status bits must be checked to ensure that write
 815:Generated_Source\PSoC4/I2C_I2C_MASTER.c **** *    transfer was completed successfully.
 816:Generated_Source\PSoC4/I2C_I2C_MASTER.c **** *  - I2C_I2C_MSTAT_XFER_INP - Transfer in progress.
 817:Generated_Source\PSoC4/I2C_I2C_MASTER.c **** *  - I2C_I2C_MSTAT_XFER_HALT - Transfer has been halted.
 818:Generated_Source\PSoC4/I2C_I2C_MASTER.c **** *    The I2C bus is waiting for ReStart or Stop condition generation.
 819:Generated_Source\PSoC4/I2C_I2C_MASTER.c **** *  - I2C_I2C_MSTAT_ERR_SHORT_XFER - Error condition: Write
 820:Generated_Source\PSoC4/I2C_I2C_MASTER.c **** *    transfer completed before all bytes were transferred. The slave NAKed
 821:Generated_Source\PSoC4/I2C_I2C_MASTER.c **** *    the byte which was expected to be ACKed.
 822:Generated_Source\PSoC4/I2C_I2C_MASTER.c **** *  - I2C_I2C_MSTAT_ERR_ADDR_NAK - Error condition: Slave did
 823:Generated_Source\PSoC4/I2C_I2C_MASTER.c **** *    not acknowledge address.
 824:Generated_Source\PSoC4/I2C_I2C_MASTER.c **** *  - I2C_I2C_MSTAT_ERR_ARB_LOST - Error condition: Master lost
 825:Generated_Source\PSoC4/I2C_I2C_MASTER.c **** *    arbitration during communications with slave.
 826:Generated_Source\PSoC4/I2C_I2C_MASTER.c **** *  - I2C_I2C_MSTAT_ERR_BUS_ERROR - Error condition: bus error
 827:Generated_Source\PSoC4/I2C_I2C_MASTER.c **** *    occurred during master transfer due to misplaced Start or Stop
 828:Generated_Source\PSoC4/I2C_I2C_MASTER.c **** *    condition on the bus.
 829:Generated_Source\PSoC4/I2C_I2C_MASTER.c **** *  - I2C_I2C_MSTAT_ERR_ABORT_XFER - Error condition: Slave was
 830:Generated_Source\PSoC4/I2C_I2C_MASTER.c **** *    addressed by another master while master performed the start condition
 831:Generated_Source\PSoC4/I2C_I2C_MASTER.c **** *    generation. As a result, master has automatically switched to slave
 832:Generated_Source\PSoC4/I2C_I2C_MASTER.c **** *    mode and is responding. The master transaction has not taken place
 833:Generated_Source\PSoC4/I2C_I2C_MASTER.c **** *    This error condition only applicable for Multi-Master-Slave mode.
 834:Generated_Source\PSoC4/I2C_I2C_MASTER.c **** *  - I2C_I2C_MSTAT_ERR_XFER - Error condition: This is the
 835:Generated_Source\PSoC4/I2C_I2C_MASTER.c **** *    ORed value of all error conditions provided above.
 836:Generated_Source\PSoC4/I2C_I2C_MASTER.c **** *
 837:Generated_Source\PSoC4/I2C_I2C_MASTER.c **** * \globalvars
 838:Generated_Source\PSoC4/I2C_I2C_MASTER.c **** *  I2C_mstrStatus - used to store current status of I2C Master.
 839:Generated_Source\PSoC4/I2C_I2C_MASTER.c **** *
 840:Generated_Source\PSoC4/I2C_I2C_MASTER.c **** *******************************************************************************/
 841:Generated_Source\PSoC4/I2C_I2C_MASTER.c **** uint32 I2C_I2CMasterStatus(void)
 842:Generated_Source\PSoC4/I2C_I2C_MASTER.c **** {
 1205              		.loc 1 842 0
 1206              		.cfi_startproc
 1207              		@ args = 0, pretend = 0, frame = 8
 1208              		@ frame_needed = 1, uses_anonymous_args = 0
 1209 0000 80B5     		push	{r7, lr}
 1210              		.cfi_def_cfa_offset 8
ARM GAS  C:\Users\EDULU~1.DES\AppData\Local\Temp\cc10QHjd.s 			page 37


 1211              		.cfi_offset 7, -8
 1212              		.cfi_offset 14, -4
 1213 0002 82B0     		sub	sp, sp, #8
 1214              		.cfi_def_cfa_offset 16
 1215 0004 00AF     		add	r7, sp, #0
 1216              		.cfi_def_cfa_register 7
 843:Generated_Source\PSoC4/I2C_I2C_MASTER.c ****     uint32 status;
 844:Generated_Source\PSoC4/I2C_I2C_MASTER.c **** 
 845:Generated_Source\PSoC4/I2C_I2C_MASTER.c ****     I2C_DisableInt();  /* Lock from interruption */
 1217              		.loc 1 845 0
 1218 0006 0A20     		movs	r0, #10
 1219 0008 FFF7FEFF 		bl	CyIntDisable
 846:Generated_Source\PSoC4/I2C_I2C_MASTER.c **** 
 847:Generated_Source\PSoC4/I2C_I2C_MASTER.c ****     status = (uint32) I2C_mstrStatus;
 1220              		.loc 1 847 0
 1221 000c 0B4B     		ldr	r3, .L81
 1222 000e 1B88     		ldrh	r3, [r3]
 1223 0010 9BB2     		uxth	r3, r3
 1224 0012 7B60     		str	r3, [r7, #4]
 848:Generated_Source\PSoC4/I2C_I2C_MASTER.c **** 
 849:Generated_Source\PSoC4/I2C_I2C_MASTER.c ****     if (I2C_CHECK_I2C_MASTER_ACTIVE)
 1225              		.loc 1 849 0
 1226 0014 0A4B     		ldr	r3, .L81+4
 1227 0016 1B78     		ldrb	r3, [r3]
 1228 0018 DBB2     		uxtb	r3, r3
 1229 001a 2022     		movs	r2, #32
 1230 001c 1340     		ands	r3, r2
 1231 001e DBB2     		uxtb	r3, r3
 1232 0020 002B     		cmp	r3, #0
 1233 0022 03D0     		beq	.L79
 850:Generated_Source\PSoC4/I2C_I2C_MASTER.c ****     {
 851:Generated_Source\PSoC4/I2C_I2C_MASTER.c ****         /* Add status of master pending transaction: MSTAT_XFER_INP */
 852:Generated_Source\PSoC4/I2C_I2C_MASTER.c ****         status |= (uint32) I2C_I2C_MSTAT_XFER_INP;
 1234              		.loc 1 852 0
 1235 0024 7B68     		ldr	r3, [r7, #4]
 1236 0026 0422     		movs	r2, #4
 1237 0028 1343     		orrs	r3, r2
 1238 002a 7B60     		str	r3, [r7, #4]
 1239              	.L79:
 853:Generated_Source\PSoC4/I2C_I2C_MASTER.c ****     }
 854:Generated_Source\PSoC4/I2C_I2C_MASTER.c **** 
 855:Generated_Source\PSoC4/I2C_I2C_MASTER.c ****     I2C_EnableInt();   /* Release lock */
 1240              		.loc 1 855 0
 1241 002c 0A20     		movs	r0, #10
 1242 002e FFF7FEFF 		bl	CyIntEnable
 856:Generated_Source\PSoC4/I2C_I2C_MASTER.c **** 
 857:Generated_Source\PSoC4/I2C_I2C_MASTER.c ****     return(status);
 1243              		.loc 1 857 0
 1244 0032 7B68     		ldr	r3, [r7, #4]
 858:Generated_Source\PSoC4/I2C_I2C_MASTER.c **** }
 1245              		.loc 1 858 0
 1246 0034 1800     		movs	r0, r3
 1247 0036 BD46     		mov	sp, r7
 1248 0038 02B0     		add	sp, sp, #8
 1249              		@ sp needed
 1250 003a 80BD     		pop	{r7, pc}
 1251              	.L82:
ARM GAS  C:\Users\EDULU~1.DES\AppData\Local\Temp\cc10QHjd.s 			page 38


 1252              		.align	2
 1253              	.L81:
 1254 003c 00000000 		.word	I2C_mstrStatus
 1255 0040 00000000 		.word	I2C_state
 1256              		.cfi_endproc
 1257              	.LFE11:
 1258              		.size	I2C_I2CMasterStatus, .-I2C_I2CMasterStatus
 1259              		.section	.text.I2C_I2CMasterClearStatus,"ax",%progbits
 1260              		.align	2
 1261              		.global	I2C_I2CMasterClearStatus
 1262              		.code	16
 1263              		.thumb_func
 1264              		.type	I2C_I2CMasterClearStatus, %function
 1265              	I2C_I2CMasterClearStatus:
 1266              	.LFB12:
 859:Generated_Source\PSoC4/I2C_I2C_MASTER.c **** 
 860:Generated_Source\PSoC4/I2C_I2C_MASTER.c **** 
 861:Generated_Source\PSoC4/I2C_I2C_MASTER.c **** /*******************************************************************************
 862:Generated_Source\PSoC4/I2C_I2C_MASTER.c **** * Function Name: I2C_I2CMasterClearStatus
 863:Generated_Source\PSoC4/I2C_I2C_MASTER.c **** ****************************************************************************//**
 864:Generated_Source\PSoC4/I2C_I2C_MASTER.c **** *
 865:Generated_Source\PSoC4/I2C_I2C_MASTER.c **** *  Clears all status flags and returns the master status.
 866:Generated_Source\PSoC4/I2C_I2C_MASTER.c **** *
 867:Generated_Source\PSoC4/I2C_I2C_MASTER.c **** * \return
 868:Generated_Source\PSoC4/I2C_I2C_MASTER.c **** *  Current status of master. See the I2C_I2CMasterStatus()
 869:Generated_Source\PSoC4/I2C_I2C_MASTER.c **** *  function for constants.
 870:Generated_Source\PSoC4/I2C_I2C_MASTER.c **** *
 871:Generated_Source\PSoC4/I2C_I2C_MASTER.c **** * \globalvars
 872:Generated_Source\PSoC4/I2C_I2C_MASTER.c **** *  I2C_mstrStatus - used to store current status of I2C Master.
 873:Generated_Source\PSoC4/I2C_I2C_MASTER.c **** *
 874:Generated_Source\PSoC4/I2C_I2C_MASTER.c **** *******************************************************************************/
 875:Generated_Source\PSoC4/I2C_I2C_MASTER.c **** uint32 I2C_I2CMasterClearStatus(void)
 876:Generated_Source\PSoC4/I2C_I2C_MASTER.c **** {
 1267              		.loc 1 876 0
 1268              		.cfi_startproc
 1269              		@ args = 0, pretend = 0, frame = 8
 1270              		@ frame_needed = 1, uses_anonymous_args = 0
 1271 0000 80B5     		push	{r7, lr}
 1272              		.cfi_def_cfa_offset 8
 1273              		.cfi_offset 7, -8
 1274              		.cfi_offset 14, -4
 1275 0002 82B0     		sub	sp, sp, #8
 1276              		.cfi_def_cfa_offset 16
 1277 0004 00AF     		add	r7, sp, #0
 1278              		.cfi_def_cfa_register 7
 877:Generated_Source\PSoC4/I2C_I2C_MASTER.c ****     uint32 status;
 878:Generated_Source\PSoC4/I2C_I2C_MASTER.c **** 
 879:Generated_Source\PSoC4/I2C_I2C_MASTER.c ****     I2C_DisableInt();  /* Lock from interruption */
 1279              		.loc 1 879 0
 1280 0006 0A20     		movs	r0, #10
 1281 0008 FFF7FEFF 		bl	CyIntDisable
 880:Generated_Source\PSoC4/I2C_I2C_MASTER.c **** 
 881:Generated_Source\PSoC4/I2C_I2C_MASTER.c ****     /* Read and clear master status */
 882:Generated_Source\PSoC4/I2C_I2C_MASTER.c ****     status = (uint32) I2C_mstrStatus;
 1282              		.loc 1 882 0
 1283 000c 074B     		ldr	r3, .L85
 1284 000e 1B88     		ldrh	r3, [r3]
ARM GAS  C:\Users\EDULU~1.DES\AppData\Local\Temp\cc10QHjd.s 			page 39


 1285 0010 9BB2     		uxth	r3, r3
 1286 0012 7B60     		str	r3, [r7, #4]
 883:Generated_Source\PSoC4/I2C_I2C_MASTER.c ****     I2C_mstrStatus = I2C_I2C_MSTAT_CLEAR;
 1287              		.loc 1 883 0
 1288 0014 054B     		ldr	r3, .L85
 1289 0016 0022     		movs	r2, #0
 1290 0018 1A80     		strh	r2, [r3]
 884:Generated_Source\PSoC4/I2C_I2C_MASTER.c **** 
 885:Generated_Source\PSoC4/I2C_I2C_MASTER.c ****     I2C_EnableInt();   /* Release lock */
 1291              		.loc 1 885 0
 1292 001a 0A20     		movs	r0, #10
 1293 001c FFF7FEFF 		bl	CyIntEnable
 886:Generated_Source\PSoC4/I2C_I2C_MASTER.c **** 
 887:Generated_Source\PSoC4/I2C_I2C_MASTER.c ****     return(status);
 1294              		.loc 1 887 0
 1295 0020 7B68     		ldr	r3, [r7, #4]
 888:Generated_Source\PSoC4/I2C_I2C_MASTER.c **** }
 1296              		.loc 1 888 0
 1297 0022 1800     		movs	r0, r3
 1298 0024 BD46     		mov	sp, r7
 1299 0026 02B0     		add	sp, sp, #8
 1300              		@ sp needed
 1301 0028 80BD     		pop	{r7, pc}
 1302              	.L86:
 1303 002a C046     		.align	2
 1304              	.L85:
 1305 002c 00000000 		.word	I2C_mstrStatus
 1306              		.cfi_endproc
 1307              	.LFE12:
 1308              		.size	I2C_I2CMasterClearStatus, .-I2C_I2CMasterClearStatus
 1309              		.section	.text.I2C_I2CReStartGeneration,"ax",%progbits
 1310              		.align	2
 1311              		.global	I2C_I2CReStartGeneration
 1312              		.code	16
 1313              		.thumb_func
 1314              		.type	I2C_I2CReStartGeneration, %function
 1315              	I2C_I2CReStartGeneration:
 1316              	.LFB13:
 889:Generated_Source\PSoC4/I2C_I2C_MASTER.c **** 
 890:Generated_Source\PSoC4/I2C_I2C_MASTER.c **** 
 891:Generated_Source\PSoC4/I2C_I2C_MASTER.c **** /*******************************************************************************
 892:Generated_Source\PSoC4/I2C_I2C_MASTER.c **** * Function Name: I2C_I2CReStartGeneration
 893:Generated_Source\PSoC4/I2C_I2C_MASTER.c **** ****************************************************************************//**
 894:Generated_Source\PSoC4/I2C_I2C_MASTER.c **** *
 895:Generated_Source\PSoC4/I2C_I2C_MASTER.c **** *  Generates a ReStart condition:
 896:Generated_Source\PSoC4/I2C_I2C_MASTER.c **** *  - SCB IP V1 and later: Generates ReStart using the scb IP functionality
 897:Generated_Source\PSoC4/I2C_I2C_MASTER.c **** *    Sets the I2C_MASTER_CMD_M_START and I2C_MASTER_CMD_M_NACK (if the previous
 898:Generated_Source\PSoC4/I2C_I2C_MASTER.c **** *    transaction was read) bits in the SCB.I2C_MASTER_CMD register.
 899:Generated_Source\PSoC4/I2C_I2C_MASTER.c **** *    This combination forces the master to generate ReStart.
 900:Generated_Source\PSoC4/I2C_I2C_MASTER.c **** *
 901:Generated_Source\PSoC4/I2C_I2C_MASTER.c **** *  - SCB IP V0: Generates Restart using the GPIO and scb IP functionality.
 902:Generated_Source\PSoC4/I2C_I2C_MASTER.c **** *    After the master completes write or read, the SCL is stretched.
 903:Generated_Source\PSoC4/I2C_I2C_MASTER.c **** *    The master waits until SDA line is released by the slave. Then the GPIO
 904:Generated_Source\PSoC4/I2C_I2C_MASTER.c **** *    function is enabled and the scb IP disabled as it already does not drive
 905:Generated_Source\PSoC4/I2C_I2C_MASTER.c **** *    the bus. In case of the previous transfer was read, the NACK is generated
 906:Generated_Source\PSoC4/I2C_I2C_MASTER.c **** *    by the GPIO. The delay of tLOW is added to manage the hold time.
 907:Generated_Source\PSoC4/I2C_I2C_MASTER.c **** *    Set I2C_M_CMD.START and enable the scb IP. The ReStart generation
ARM GAS  C:\Users\EDULU~1.DES\AppData\Local\Temp\cc10QHjd.s 			page 40


 908:Generated_Source\PSoC4/I2C_I2C_MASTER.c **** *    is started after the I2C function is enabled for the SCL.
 909:Generated_Source\PSoC4/I2C_I2C_MASTER.c **** *    Note1: the scb IP due re-enable generates Start but on the I2C bus it
 910:Generated_Source\PSoC4/I2C_I2C_MASTER.c **** *           appears as ReStart.
 911:Generated_Source\PSoC4/I2C_I2C_MASTER.c **** *    Note2: the I2C_M_CMD.START is queued if scb IP is disabled.
 912:Generated_Source\PSoC4/I2C_I2C_MASTER.c **** *    Note3: the I2C_STATUS_M_READ is cleared is address was NACKed before.
 913:Generated_Source\PSoC4/I2C_I2C_MASTER.c **** *
 914:Generated_Source\PSoC4/I2C_I2C_MASTER.c **** * \sideeffect
 915:Generated_Source\PSoC4/I2C_I2C_MASTER.c **** *  SCB IP V0: The NACK generation by the GPIO may cause a greater SCL period
 916:Generated_Source\PSoC4/I2C_I2C_MASTER.c **** *             than expected for the selected master data rate.
 917:Generated_Source\PSoC4/I2C_I2C_MASTER.c **** *
 918:Generated_Source\PSoC4/I2C_I2C_MASTER.c **** *******************************************************************************/
 919:Generated_Source\PSoC4/I2C_I2C_MASTER.c **** void I2C_I2CReStartGeneration(void)
 920:Generated_Source\PSoC4/I2C_I2C_MASTER.c **** {
 1317              		.loc 1 920 0
 1318              		.cfi_startproc
 1319              		@ args = 0, pretend = 0, frame = 16
 1320              		@ frame_needed = 1, uses_anonymous_args = 0
 1321 0000 80B5     		push	{r7, lr}
 1322              		.cfi_def_cfa_offset 8
 1323              		.cfi_offset 7, -8
 1324              		.cfi_offset 14, -4
 1325 0002 84B0     		sub	sp, sp, #16
 1326              		.cfi_def_cfa_offset 24
 1327 0004 00AF     		add	r7, sp, #0
 1328              		.cfi_def_cfa_register 7
 921:Generated_Source\PSoC4/I2C_I2C_MASTER.c **** #if(I2C_CY_SCBIP_V0)
 922:Generated_Source\PSoC4/I2C_I2C_MASTER.c ****     /* Generates Restart use GPIO and scb IP functionality. Ticket ID#143715,
 923:Generated_Source\PSoC4/I2C_I2C_MASTER.c ****     * ID#145238 and ID#173656.
 924:Generated_Source\PSoC4/I2C_I2C_MASTER.c ****     * In case of timeout the I2C_I2CMasterSendRestart handles this
 925:Generated_Source\PSoC4/I2C_I2C_MASTER.c ****     * case using own timeout and execute appropriate recovery.
 926:Generated_Source\PSoC4/I2C_I2C_MASTER.c ****     */
 927:Generated_Source\PSoC4/I2C_I2C_MASTER.c **** 
 928:Generated_Source\PSoC4/I2C_I2C_MASTER.c ****     const uint16 oneUnit = 1u;
 1329              		.loc 1 928 0
 1330 0006 0A23     		movs	r3, #10
 1331 0008 FB18     		adds	r3, r7, r3
 1332 000a 0122     		movs	r2, #1
 1333 000c 1A80     		strh	r2, [r3]
 929:Generated_Source\PSoC4/I2C_I2C_MASTER.c ****     uint32 timeout = I2C_I2C_PHASE_GEN_TIMEOUT;
 1334              		.loc 1 929 0
 1335 000e 374B     		ldr	r3, .L97
 1336 0010 FB60     		str	r3, [r7, #12]
 930:Generated_Source\PSoC4/I2C_I2C_MASTER.c **** 
 931:Generated_Source\PSoC4/I2C_I2C_MASTER.c ****     /* Store direction of transfer */
 932:Generated_Source\PSoC4/I2C_I2C_MASTER.c ****     uint32 readDirection = I2C_I2C_STATUS_REG & I2C_I2C_STATUS_M_READ;
 1337              		.loc 1 932 0
 1338 0012 374B     		ldr	r3, .L97+4
 1339 0014 1B68     		ldr	r3, [r3]
 1340 0016 2022     		movs	r2, #32
 1341 0018 1340     		ands	r3, r2
 1342 001a 7B60     		str	r3, [r7, #4]
 933:Generated_Source\PSoC4/I2C_I2C_MASTER.c **** 
 934:Generated_Source\PSoC4/I2C_I2C_MASTER.c ****     /* Wait until slave releases SDA line: SCL tHIGH is complete */
 935:Generated_Source\PSoC4/I2C_I2C_MASTER.c ****     while ((I2C_WAIT_SDA_SET_HIGH) && (timeout > 0u))
 1343              		.loc 1 935 0
 1344 001c 08E0     		b	.L88
 1345              	.L90:
ARM GAS  C:\Users\EDULU~1.DES\AppData\Local\Temp\cc10QHjd.s 			page 41


 936:Generated_Source\PSoC4/I2C_I2C_MASTER.c ****     {
 937:Generated_Source\PSoC4/I2C_I2C_MASTER.c ****         CyDelayUs(oneUnit);
 1346              		.loc 1 937 0
 1347 001e 0A23     		movs	r3, #10
 1348 0020 FB18     		adds	r3, r7, r3
 1349 0022 1B88     		ldrh	r3, [r3]
 1350 0024 1800     		movs	r0, r3
 1351 0026 FFF7FEFF 		bl	CyDelayUs
 938:Generated_Source\PSoC4/I2C_I2C_MASTER.c ****         --timeout;
 1352              		.loc 1 938 0
 1353 002a FB68     		ldr	r3, [r7, #12]
 1354 002c 013B     		subs	r3, r3, #1
 1355 002e FB60     		str	r3, [r7, #12]
 1356              	.L88:
 935:Generated_Source\PSoC4/I2C_I2C_MASTER.c ****     {
 1357              		.loc 1 935 0
 1358 0030 FFF7FEFF 		bl	I2C_sda_Read
 1359 0034 031E     		subs	r3, r0, #0
 1360 0036 02D1     		bne	.L89
 935:Generated_Source\PSoC4/I2C_I2C_MASTER.c ****     {
 1361              		.loc 1 935 0 is_stmt 0 discriminator 1
 1362 0038 FB68     		ldr	r3, [r7, #12]
 1363 003a 002B     		cmp	r3, #0
 1364 003c EFD1     		bne	.L90
 1365              	.L89:
 939:Generated_Source\PSoC4/I2C_I2C_MASTER.c ****     }
 940:Generated_Source\PSoC4/I2C_I2C_MASTER.c **** 
 941:Generated_Source\PSoC4/I2C_I2C_MASTER.c ****     if (timeout > 0u)
 1366              		.loc 1 941 0 is_stmt 1
 1367 003e FB68     		ldr	r3, [r7, #12]
 1368 0040 002B     		cmp	r3, #0
 1369 0042 4ED0     		beq	.L96
 942:Generated_Source\PSoC4/I2C_I2C_MASTER.c ****     {
 943:Generated_Source\PSoC4/I2C_I2C_MASTER.c ****         /* Refill timeout */
 944:Generated_Source\PSoC4/I2C_I2C_MASTER.c ****         timeout = I2C_I2C_PHASE_GEN_TIMEOUT;
 1370              		.loc 1 944 0
 1371 0044 294B     		ldr	r3, .L97
 1372 0046 FB60     		str	r3, [r7, #12]
 945:Generated_Source\PSoC4/I2C_I2C_MASTER.c **** 
 946:Generated_Source\PSoC4/I2C_I2C_MASTER.c ****         /* Drive SCL line use GPIO */
 947:Generated_Source\PSoC4/I2C_I2C_MASTER.c ****         I2C_SET_I2C_SCL_DR       (I2C_I2C_SCL_LOW);
 1373              		.loc 1 947 0
 1374 0048 0020     		movs	r0, #0
 1375 004a FFF7FEFF 		bl	I2C_scl_Write
 948:Generated_Source\PSoC4/I2C_I2C_MASTER.c ****         I2C_SET_I2C_SCL_HSIOM_SEL(I2C_HSIOM_GPIO_SEL);
 1376              		.loc 1 948 0
 1377 004e 294B     		ldr	r3, .L97+8
 1378 0050 284A     		ldr	r2, .L97+8
 1379 0052 1268     		ldr	r2, [r2]
 1380 0054 0F21     		movs	r1, #15
 1381 0056 8A43     		bics	r2, r1
 1382 0058 1A60     		str	r2, [r3]
 949:Generated_Source\PSoC4/I2C_I2C_MASTER.c **** 
 950:Generated_Source\PSoC4/I2C_I2C_MASTER.c ****         /* Disable SCB block */
 951:Generated_Source\PSoC4/I2C_I2C_MASTER.c ****         I2C_CTRL_REG &= (uint32) ~I2C_CTRL_ENABLED;
 1383              		.loc 1 951 0
 1384 005a 274B     		ldr	r3, .L97+12
ARM GAS  C:\Users\EDULU~1.DES\AppData\Local\Temp\cc10QHjd.s 			page 42


 1385 005c 264A     		ldr	r2, .L97+12
 1386 005e 1268     		ldr	r2, [r2]
 1387 0060 5200     		lsls	r2, r2, #1
 1388 0062 5208     		lsrs	r2, r2, #1
 1389 0064 1A60     		str	r2, [r3]
 952:Generated_Source\PSoC4/I2C_I2C_MASTER.c **** 
 953:Generated_Source\PSoC4/I2C_I2C_MASTER.c ****         if (0u != readDirection)
 1390              		.loc 1 953 0
 1391 0066 7B68     		ldr	r3, [r7, #4]
 1392 0068 002B     		cmp	r3, #0
 1393 006a 1CD0     		beq	.L92
 954:Generated_Source\PSoC4/I2C_I2C_MASTER.c ****         {
 955:Generated_Source\PSoC4/I2C_I2C_MASTER.c ****             /* Generate NACK for read transactions use GPIO functionality */
 956:Generated_Source\PSoC4/I2C_I2C_MASTER.c **** 
 957:Generated_Source\PSoC4/I2C_I2C_MASTER.c ****             /* Drive tLOW: SCL low phase */
 958:Generated_Source\PSoC4/I2C_I2C_MASTER.c ****             I2C_SET_I2C_SCL_DR(I2C_I2C_SCL_LOW);
 1394              		.loc 1 958 0
 1395 006c 0020     		movs	r0, #0
 1396 006e FFF7FEFF 		bl	I2C_scl_Write
 959:Generated_Source\PSoC4/I2C_I2C_MASTER.c ****             CyDelayUs(I2C_I2C_TLOW_TIME);
 1397              		.loc 1 959 0
 1398 0072 0A20     		movs	r0, #10
 1399 0074 FFF7FEFF 		bl	CyDelayUs
 960:Generated_Source\PSoC4/I2C_I2C_MASTER.c **** 
 961:Generated_Source\PSoC4/I2C_I2C_MASTER.c ****             /* Drive tHIGH: SCL high phase */
 962:Generated_Source\PSoC4/I2C_I2C_MASTER.c ****             I2C_SET_I2C_SCL_DR(I2C_I2C_SCL_HIGH);
 1400              		.loc 1 962 0
 1401 0078 0120     		movs	r0, #1
 1402 007a FFF7FEFF 		bl	I2C_scl_Write
 963:Generated_Source\PSoC4/I2C_I2C_MASTER.c ****             CyDelayUs(I2C_I2C_THIGH_TIME);
 1403              		.loc 1 963 0
 1404 007e 0A20     		movs	r0, #10
 1405 0080 FFF7FEFF 		bl	CyDelayUs
 964:Generated_Source\PSoC4/I2C_I2C_MASTER.c **** 
 965:Generated_Source\PSoC4/I2C_I2C_MASTER.c ****             /* Wait until slave releases SDA line: SCL tHIGH is complete */
 966:Generated_Source\PSoC4/I2C_I2C_MASTER.c ****             while ((I2C_WAIT_SCL_SET_HIGH) && (timeout > 0u))
 1406              		.loc 1 966 0
 1407 0084 08E0     		b	.L93
 1408              	.L94:
 967:Generated_Source\PSoC4/I2C_I2C_MASTER.c ****             {
 968:Generated_Source\PSoC4/I2C_I2C_MASTER.c ****                 CyDelayUs(oneUnit);
 1409              		.loc 1 968 0
 1410 0086 0A23     		movs	r3, #10
 1411 0088 FB18     		adds	r3, r7, r3
 1412 008a 1B88     		ldrh	r3, [r3]
 1413 008c 1800     		movs	r0, r3
 1414 008e FFF7FEFF 		bl	CyDelayUs
 969:Generated_Source\PSoC4/I2C_I2C_MASTER.c ****                 --timeout;
 1415              		.loc 1 969 0
 1416 0092 FB68     		ldr	r3, [r7, #12]
 1417 0094 013B     		subs	r3, r3, #1
 1418 0096 FB60     		str	r3, [r7, #12]
 1419              	.L93:
 966:Generated_Source\PSoC4/I2C_I2C_MASTER.c ****             {
 1420              		.loc 1 966 0
 1421 0098 FFF7FEFF 		bl	I2C_scl_Read
 1422 009c 031E     		subs	r3, r0, #0
ARM GAS  C:\Users\EDULU~1.DES\AppData\Local\Temp\cc10QHjd.s 			page 43


 1423 009e 02D1     		bne	.L92
 966:Generated_Source\PSoC4/I2C_I2C_MASTER.c ****             {
 1424              		.loc 1 966 0 is_stmt 0 discriminator 1
 1425 00a0 FB68     		ldr	r3, [r7, #12]
 1426 00a2 002B     		cmp	r3, #0
 1427 00a4 EFD1     		bne	.L94
 1428              	.L92:
 970:Generated_Source\PSoC4/I2C_I2C_MASTER.c ****             }
 971:Generated_Source\PSoC4/I2C_I2C_MASTER.c ****         }
 972:Generated_Source\PSoC4/I2C_I2C_MASTER.c **** 
 973:Generated_Source\PSoC4/I2C_I2C_MASTER.c ****         if (timeout > 0u)
 1429              		.loc 1 973 0 is_stmt 1
 1430 00a6 FB68     		ldr	r3, [r7, #12]
 1431 00a8 002B     		cmp	r3, #0
 1432 00aa 08D0     		beq	.L95
 974:Generated_Source\PSoC4/I2C_I2C_MASTER.c ****         {
 975:Generated_Source\PSoC4/I2C_I2C_MASTER.c ****             /* Drive tLOW: hold time for write and read */
 976:Generated_Source\PSoC4/I2C_I2C_MASTER.c ****             I2C_SET_I2C_SCL_DR(I2C_I2C_SCL_LOW);
 1433              		.loc 1 976 0
 1434 00ac 0020     		movs	r0, #0
 1435 00ae FFF7FEFF 		bl	I2C_scl_Write
 977:Generated_Source\PSoC4/I2C_I2C_MASTER.c ****             CyDelayUs(I2C_I2C_TLOW_TIME);
 1436              		.loc 1 977 0
 1437 00b2 0A20     		movs	r0, #10
 1438 00b4 FFF7FEFF 		bl	CyDelayUs
 978:Generated_Source\PSoC4/I2C_I2C_MASTER.c **** 
 979:Generated_Source\PSoC4/I2C_I2C_MASTER.c ****             /* Set Start command, it will appear as ReStart on the bus */
 980:Generated_Source\PSoC4/I2C_I2C_MASTER.c ****             I2C_I2C_MASTER_CMD_REG  = I2C_I2C_MASTER_CMD_M_START;
 1439              		.loc 1 980 0
 1440 00b8 104B     		ldr	r3, .L97+16
 1441 00ba 0122     		movs	r2, #1
 1442 00bc 1A60     		str	r2, [r3]
 1443              	.L95:
 981:Generated_Source\PSoC4/I2C_I2C_MASTER.c ****         }
 982:Generated_Source\PSoC4/I2C_I2C_MASTER.c **** 
 983:Generated_Source\PSoC4/I2C_I2C_MASTER.c ****         /* Enable SCB block: ReStart will appear on the bus as soon as SCL
 984:Generated_Source\PSoC4/I2C_I2C_MASTER.c ****         * configuration is restored and bus busy cleared.
 985:Generated_Source\PSoC4/I2C_I2C_MASTER.c ****         */
 986:Generated_Source\PSoC4/I2C_I2C_MASTER.c ****         I2C_CTRL_REG |= I2C_CTRL_ENABLED;
 1444              		.loc 1 986 0
 1445 00be 0E4B     		ldr	r3, .L97+12
 1446 00c0 0D4A     		ldr	r2, .L97+12
 1447 00c2 1268     		ldr	r2, [r2]
 1448 00c4 8021     		movs	r1, #128
 1449 00c6 0906     		lsls	r1, r1, #24
 1450 00c8 0A43     		orrs	r2, r1
 1451 00ca 1A60     		str	r2, [r3]
 987:Generated_Source\PSoC4/I2C_I2C_MASTER.c **** 
 988:Generated_Source\PSoC4/I2C_I2C_MASTER.c ****         /* Restore SCL configuration */
 989:Generated_Source\PSoC4/I2C_I2C_MASTER.c ****         I2C_SET_I2C_SCL_HSIOM_SEL(I2C_HSIOM_I2C_SEL);
 1452              		.loc 1 989 0
 1453 00cc 094B     		ldr	r3, .L97+8
 1454 00ce 094A     		ldr	r2, .L97+8
 1455 00d0 1268     		ldr	r2, [r2]
 1456 00d2 0F21     		movs	r1, #15
 1457 00d4 8A43     		bics	r2, r1
 1458 00d6 0E21     		movs	r1, #14
ARM GAS  C:\Users\EDULU~1.DES\AppData\Local\Temp\cc10QHjd.s 			page 44


 1459 00d8 0A43     		orrs	r2, r1
 1460 00da 1A60     		str	r2, [r3]
 990:Generated_Source\PSoC4/I2C_I2C_MASTER.c ****         I2C_SET_I2C_SCL_DR       (I2C_I2C_SCL_HIGH);
 1461              		.loc 1 990 0
 1462 00dc 0120     		movs	r0, #1
 1463 00de FFF7FEFF 		bl	I2C_scl_Write
 1464              	.L96:
 991:Generated_Source\PSoC4/I2C_I2C_MASTER.c ****     }
 992:Generated_Source\PSoC4/I2C_I2C_MASTER.c **** #else
 993:Generated_Source\PSoC4/I2C_I2C_MASTER.c ****     uint32 cmd;
 994:Generated_Source\PSoC4/I2C_I2C_MASTER.c **** 
 995:Generated_Source\PSoC4/I2C_I2C_MASTER.c ****     /* Generates ReStart use scb IP functionality */
 996:Generated_Source\PSoC4/I2C_I2C_MASTER.c ****     cmd  = I2C_I2C_MASTER_CMD_M_START;
 997:Generated_Source\PSoC4/I2C_I2C_MASTER.c ****     cmd |= I2C_CHECK_I2C_STATUS(I2C_I2C_STATUS_M_READ) ?
 998:Generated_Source\PSoC4/I2C_I2C_MASTER.c ****                 (I2C_I2C_MASTER_CMD_M_NACK) : (0u);
 999:Generated_Source\PSoC4/I2C_I2C_MASTER.c **** 
1000:Generated_Source\PSoC4/I2C_I2C_MASTER.c ****     I2C_I2C_MASTER_CMD_REG = cmd;
1001:Generated_Source\PSoC4/I2C_I2C_MASTER.c **** #endif /* (I2C_CY_SCBIP_V1) */
1002:Generated_Source\PSoC4/I2C_I2C_MASTER.c **** }
 1465              		.loc 1 1002 0
 1466 00e2 C046     		nop
 1467 00e4 BD46     		mov	sp, r7
 1468 00e6 04B0     		add	sp, sp, #16
 1469              		@ sp needed
 1470 00e8 80BD     		pop	{r7, pc}
 1471              	.L98:
 1472 00ea C046     		.align	2
 1473              	.L97:
 1474 00ec 204E0000 		.word	20000
 1475 00f0 64000640 		.word	1074135140
 1476 00f4 10000140 		.word	1073807376
 1477 00f8 00000640 		.word	1074135040
 1478 00fc 68000640 		.word	1074135144
 1479              		.cfi_endproc
 1480              	.LFE13:
 1481              		.size	I2C_I2CReStartGeneration, .-I2C_I2CReStartGeneration
 1482              		.section	.text.I2C_I2CMasterHandleStatus,"ax",%progbits
 1483              		.align	2
 1484              		.code	16
 1485              		.thumb_func
 1486              		.type	I2C_I2CMasterHandleStatus, %function
 1487              	I2C_I2CMasterHandleStatus:
 1488              	.LFB14:
1003:Generated_Source\PSoC4/I2C_I2C_MASTER.c **** 
1004:Generated_Source\PSoC4/I2C_I2C_MASTER.c **** #endif /* (I2C_I2C_MASTER_CONST) */
1005:Generated_Source\PSoC4/I2C_I2C_MASTER.c **** 
1006:Generated_Source\PSoC4/I2C_I2C_MASTER.c **** 
1007:Generated_Source\PSoC4/I2C_I2C_MASTER.c **** #if (!I2C_CY_SCBIP_V0 && \
1008:Generated_Source\PSoC4/I2C_I2C_MASTER.c ****     I2C_I2C_MULTI_MASTER_SLAVE_CONST && I2C_I2C_WAKE_ENABLE_CONST)
1009:Generated_Source\PSoC4/I2C_I2C_MASTER.c ****     /*******************************************************************************
1010:Generated_Source\PSoC4/I2C_I2C_MASTER.c ****     * Function Name: I2C_I2CMasterDisableEcAm
1011:Generated_Source\PSoC4/I2C_I2C_MASTER.c ****     ****************************************************************************//**
1012:Generated_Source\PSoC4/I2C_I2C_MASTER.c ****     *
1013:Generated_Source\PSoC4/I2C_I2C_MASTER.c ****     *  Disables externally clocked address match logic to enable master operation
1014:Generated_Source\PSoC4/I2C_I2C_MASTER.c ****     *  in active mode.
1015:Generated_Source\PSoC4/I2C_I2C_MASTER.c ****     *
1016:Generated_Source\PSoC4/I2C_I2C_MASTER.c ****     *******************************************************************************/
ARM GAS  C:\Users\EDULU~1.DES\AppData\Local\Temp\cc10QHjd.s 			page 45


1017:Generated_Source\PSoC4/I2C_I2C_MASTER.c ****     static void I2C_I2CMasterDisableEcAm(void)
1018:Generated_Source\PSoC4/I2C_I2C_MASTER.c ****     {
1019:Generated_Source\PSoC4/I2C_I2C_MASTER.c ****         /* Disables externally clocked address match logic to enable master operation
1020:Generated_Source\PSoC4/I2C_I2C_MASTER.c ****         * in active mode. This applicable only for Multi-Master-Slave when wakeup is
1021:Generated_Source\PSoC4/I2C_I2C_MASTER.c ****         * enabled. Ticket ID#192742.
1022:Generated_Source\PSoC4/I2C_I2C_MASTER.c ****         */
1023:Generated_Source\PSoC4/I2C_I2C_MASTER.c ****         if (0u != (I2C_CTRL_REG & I2C_CTRL_EC_AM_MODE))
1024:Generated_Source\PSoC4/I2C_I2C_MASTER.c ****         {
1025:Generated_Source\PSoC4/I2C_I2C_MASTER.c ****             /* Enable external address match logic */
1026:Generated_Source\PSoC4/I2C_I2C_MASTER.c ****             I2C_Stop();
1027:Generated_Source\PSoC4/I2C_I2C_MASTER.c ****             I2C_CTRL_REG &= (uint32) ~I2C_CTRL_EC_AM_MODE;
1028:Generated_Source\PSoC4/I2C_I2C_MASTER.c ****             I2C_Enable();
1029:Generated_Source\PSoC4/I2C_I2C_MASTER.c ****         }
1030:Generated_Source\PSoC4/I2C_I2C_MASTER.c ****     }
1031:Generated_Source\PSoC4/I2C_I2C_MASTER.c **** #endif /* (!I2C_CY_SCBIP_V0) */
1032:Generated_Source\PSoC4/I2C_I2C_MASTER.c **** 
1033:Generated_Source\PSoC4/I2C_I2C_MASTER.c **** 
1034:Generated_Source\PSoC4/I2C_I2C_MASTER.c **** /*******************************************************************************
1035:Generated_Source\PSoC4/I2C_I2C_MASTER.c **** * Function Name: I2C_I2CMasterHandleStatus
1036:Generated_Source\PSoC4/I2C_I2C_MASTER.c **** ****************************************************************************//**
1037:Generated_Source\PSoC4/I2C_I2C_MASTER.c **** *
1038:Generated_Source\PSoC4/I2C_I2C_MASTER.c **** * Converts hardware status to firmware status and executes required processing.
1039:Generated_Source\PSoC4/I2C_I2C_MASTER.c **** *
1040:Generated_Source\PSoC4/I2C_I2C_MASTER.c **** * \param status
1041:Generated_Source\PSoC4/I2C_I2C_MASTER.c **** * Hardware I2C master status to handle. It also includes
1042:Generated_Source\PSoC4/I2C_I2C_MASTER.c **** * I2C_I2C_MASTER_TIMEOUT and I2C_SLAVE_INTR_I2C_ADDR.
1043:Generated_Source\PSoC4/I2C_I2C_MASTER.c **** *
1044:Generated_Source\PSoC4/I2C_I2C_MASTER.c **** * \return
1045:Generated_Source\PSoC4/I2C_I2C_MASTER.c **** * Error status.
1046:Generated_Source\PSoC4/I2C_I2C_MASTER.c **** * See I2C_I2CMasterSendStart() function for constants.
1047:Generated_Source\PSoC4/I2C_I2C_MASTER.c **** *
1048:Generated_Source\PSoC4/I2C_I2C_MASTER.c **** *******************************************************************************/
1049:Generated_Source\PSoC4/I2C_I2C_MASTER.c **** static uint32 I2C_I2CMasterHandleStatus(uint32 status)
1050:Generated_Source\PSoC4/I2C_I2C_MASTER.c **** {
 1489              		.loc 1 1050 0
 1490              		.cfi_startproc
 1491              		@ args = 0, pretend = 0, frame = 16
 1492              		@ frame_needed = 1, uses_anonymous_args = 0
 1493 0000 80B5     		push	{r7, lr}
 1494              		.cfi_def_cfa_offset 8
 1495              		.cfi_offset 7, -8
 1496              		.cfi_offset 14, -4
 1497 0002 84B0     		sub	sp, sp, #16
 1498              		.cfi_def_cfa_offset 24
 1499 0004 00AF     		add	r7, sp, #0
 1500              		.cfi_def_cfa_register 7
 1501 0006 7860     		str	r0, [r7, #4]
1051:Generated_Source\PSoC4/I2C_I2C_MASTER.c ****     uint32 retStatus;
1052:Generated_Source\PSoC4/I2C_I2C_MASTER.c ****     uint32 resetBlock = 0u;
 1502              		.loc 1 1052 0
 1503 0008 0023     		movs	r3, #0
 1504 000a BB60     		str	r3, [r7, #8]
1053:Generated_Source\PSoC4/I2C_I2C_MASTER.c **** 
1054:Generated_Source\PSoC4/I2C_I2C_MASTER.c ****     if (0u != (status & I2C_I2C_MASTER_TIMEOUT))
 1505              		.loc 1 1054 0
 1506 000c 7B68     		ldr	r3, [r7, #4]
 1507 000e 002B     		cmp	r3, #0
ARM GAS  C:\Users\EDULU~1.DES\AppData\Local\Temp\cc10QHjd.s 			page 46


 1508 0010 05DA     		bge	.L100
1055:Generated_Source\PSoC4/I2C_I2C_MASTER.c ****     {
1056:Generated_Source\PSoC4/I2C_I2C_MASTER.c ****         retStatus  = I2C_I2C_MASTER_TIMEOUT;
 1509              		.loc 1 1056 0
 1510 0012 8023     		movs	r3, #128
 1511 0014 1B06     		lsls	r3, r3, #24
 1512 0016 FB60     		str	r3, [r7, #12]
1057:Generated_Source\PSoC4/I2C_I2C_MASTER.c ****         resetBlock = I2C_I2C_RESET_ERROR;
 1513              		.loc 1 1057 0
 1514 0018 0123     		movs	r3, #1
 1515 001a BB60     		str	r3, [r7, #8]
 1516 001c 5AE0     		b	.L101
 1517              	.L100:
1058:Generated_Source\PSoC4/I2C_I2C_MASTER.c ****     }
1059:Generated_Source\PSoC4/I2C_I2C_MASTER.c ****     else if (0u != (I2C_SLAVE_INTR_I2C_ADDR & status))
 1518              		.loc 1 1059 0
 1519 001e 7B68     		ldr	r3, [r7, #4]
 1520 0020 C022     		movs	r2, #192
 1521 0022 1340     		ands	r3, r2
 1522 0024 08D0     		beq	.L102
1060:Generated_Source\PSoC4/I2C_I2C_MASTER.c ****     {
1061:Generated_Source\PSoC4/I2C_I2C_MASTER.c ****         /* Abort the master operation, the slave was addressed first */
1062:Generated_Source\PSoC4/I2C_I2C_MASTER.c ****         retStatus = I2C_I2C_MSTR_ERR_ABORT_START;
 1523              		.loc 1 1062 0
 1524 0026 1023     		movs	r3, #16
 1525 0028 FB60     		str	r3, [r7, #12]
1063:Generated_Source\PSoC4/I2C_I2C_MASTER.c **** 
1064:Generated_Source\PSoC4/I2C_I2C_MASTER.c ****         I2C_I2C_MASTER_CMD_REG = 0u;
 1526              		.loc 1 1064 0
 1527 002a 314B     		ldr	r3, .L115
 1528 002c 0022     		movs	r2, #0
 1529 002e 1A60     		str	r2, [r3]
1065:Generated_Source\PSoC4/I2C_I2C_MASTER.c **** 
1066:Generated_Source\PSoC4/I2C_I2C_MASTER.c ****         I2C_state = I2C_I2C_FSM_IDLE;
 1530              		.loc 1 1066 0
 1531 0030 304B     		ldr	r3, .L115+4
 1532 0032 1022     		movs	r2, #16
 1533 0034 1A70     		strb	r2, [r3]
 1534 0036 4DE0     		b	.L101
 1535              	.L102:
1067:Generated_Source\PSoC4/I2C_I2C_MASTER.c ****     }
1068:Generated_Source\PSoC4/I2C_I2C_MASTER.c ****     else if (0u != (status & I2C_INTR_MASTER_I2C_ARB_LOST))
 1536              		.loc 1 1068 0
 1537 0038 7B68     		ldr	r3, [r7, #4]
 1538 003a 0122     		movs	r2, #1
 1539 003c 1340     		ands	r3, r2
 1540 003e 18D0     		beq	.L103
1069:Generated_Source\PSoC4/I2C_I2C_MASTER.c ****     {
1070:Generated_Source\PSoC4/I2C_I2C_MASTER.c ****         retStatus  = I2C_I2C_MSTR_ERR_ARB_LOST;
 1541              		.loc 1 1070 0
 1542 0040 0123     		movs	r3, #1
 1543 0042 FB60     		str	r3, [r7, #12]
1071:Generated_Source\PSoC4/I2C_I2C_MASTER.c **** 
1072:Generated_Source\PSoC4/I2C_I2C_MASTER.c ****         if (I2C_CHECK_I2C_FSM_ADDR)
 1544              		.loc 1 1072 0
 1545 0044 2B4B     		ldr	r3, .L115+4
 1546 0046 1B78     		ldrb	r3, [r3]
ARM GAS  C:\Users\EDULU~1.DES\AppData\Local\Temp\cc10QHjd.s 			page 47


 1547 0048 DBB2     		uxtb	r3, r3
 1548 004a 0822     		movs	r2, #8
 1549 004c 1340     		ands	r3, r2
 1550 004e DBB2     		uxtb	r3, r3
 1551 0050 002B     		cmp	r3, #0
 1552 0052 0BD0     		beq	.L104
1073:Generated_Source\PSoC4/I2C_I2C_MASTER.c ****         {
1074:Generated_Source\PSoC4/I2C_I2C_MASTER.c ****             /* If slave is not enabled reset IP, otherwise give it a chance to match address */
1075:Generated_Source\PSoC4/I2C_I2C_MASTER.c ****             if (0u == (I2C_I2C_CTRL_REG & I2C_I2C_CTRL_SLAVE_MODE))
 1553              		.loc 1 1075 0
 1554 0054 284B     		ldr	r3, .L115+8
 1555 0056 1A68     		ldr	r2, [r3]
 1556 0058 8023     		movs	r3, #128
 1557 005a DB05     		lsls	r3, r3, #23
 1558 005c 1340     		ands	r3, r2
 1559 005e 01D1     		bne	.L105
1076:Generated_Source\PSoC4/I2C_I2C_MASTER.c ****             {
1077:Generated_Source\PSoC4/I2C_I2C_MASTER.c ****                 resetBlock = I2C_I2C_RESET_ERROR;
 1560              		.loc 1 1077 0
 1561 0060 0123     		movs	r3, #1
 1562 0062 BB60     		str	r3, [r7, #8]
 1563              	.L105:
1078:Generated_Source\PSoC4/I2C_I2C_MASTER.c ****             }
1079:Generated_Source\PSoC4/I2C_I2C_MASTER.c **** 
1080:Generated_Source\PSoC4/I2C_I2C_MASTER.c ****             I2C_state = I2C_I2C_FSM_IDLE;
 1564              		.loc 1 1080 0
 1565 0064 234B     		ldr	r3, .L115+4
 1566 0066 1022     		movs	r2, #16
 1567 0068 1A70     		strb	r2, [r3]
 1568 006a 33E0     		b	.L101
 1569              	.L104:
1081:Generated_Source\PSoC4/I2C_I2C_MASTER.c ****         }
1082:Generated_Source\PSoC4/I2C_I2C_MASTER.c ****         else
1083:Generated_Source\PSoC4/I2C_I2C_MASTER.c ****         {
1084:Generated_Source\PSoC4/I2C_I2C_MASTER.c ****             /* Reset IP block when on address stage */
1085:Generated_Source\PSoC4/I2C_I2C_MASTER.c ****             resetBlock = I2C_I2C_RESET_ERROR;
 1570              		.loc 1 1085 0
 1571 006c 0123     		movs	r3, #1
 1572 006e BB60     		str	r3, [r7, #8]
 1573 0070 30E0     		b	.L101
 1574              	.L103:
1086:Generated_Source\PSoC4/I2C_I2C_MASTER.c ****         }
1087:Generated_Source\PSoC4/I2C_I2C_MASTER.c ****     }
1088:Generated_Source\PSoC4/I2C_I2C_MASTER.c ****     else if (0u != (status & I2C_INTR_MASTER_I2C_BUS_ERROR))
 1575              		.loc 1 1088 0
 1576 0072 7A68     		ldr	r2, [r7, #4]
 1577 0074 8023     		movs	r3, #128
 1578 0076 5B00     		lsls	r3, r3, #1
 1579 0078 1340     		ands	r3, r2
 1580 007a 05D0     		beq	.L107
1089:Generated_Source\PSoC4/I2C_I2C_MASTER.c ****     {
1090:Generated_Source\PSoC4/I2C_I2C_MASTER.c ****         retStatus  = I2C_I2C_MSTR_ERR_BUS_ERR;
 1581              		.loc 1 1090 0
 1582 007c 8023     		movs	r3, #128
 1583 007e 5B00     		lsls	r3, r3, #1
 1584 0080 FB60     		str	r3, [r7, #12]
1091:Generated_Source\PSoC4/I2C_I2C_MASTER.c ****         resetBlock = I2C_I2C_RESET_ERROR;
ARM GAS  C:\Users\EDULU~1.DES\AppData\Local\Temp\cc10QHjd.s 			page 48


 1585              		.loc 1 1091 0
 1586 0082 0123     		movs	r3, #1
 1587 0084 BB60     		str	r3, [r7, #8]
 1588 0086 25E0     		b	.L101
 1589              	.L107:
1092:Generated_Source\PSoC4/I2C_I2C_MASTER.c ****     }
1093:Generated_Source\PSoC4/I2C_I2C_MASTER.c ****     else if (0u != (status & I2C_INTR_MASTER_I2C_NACK))
 1590              		.loc 1 1093 0
 1591 0088 7B68     		ldr	r3, [r7, #4]
 1592 008a 0222     		movs	r2, #2
 1593 008c 1340     		ands	r3, r2
 1594 008e 02D0     		beq	.L108
1094:Generated_Source\PSoC4/I2C_I2C_MASTER.c ****     {
1095:Generated_Source\PSoC4/I2C_I2C_MASTER.c ****         retStatus = I2C_I2C_MSTR_ERR_LB_NAK;
 1595              		.loc 1 1095 0
 1596 0090 0223     		movs	r3, #2
 1597 0092 FB60     		str	r3, [r7, #12]
 1598 0094 1EE0     		b	.L101
 1599              	.L108:
1096:Generated_Source\PSoC4/I2C_I2C_MASTER.c ****     }
1097:Generated_Source\PSoC4/I2C_I2C_MASTER.c ****     else /* Includes: INTR_MASTER_I2C_STOP and INTR_MASTER_I2C_ACK */
1098:Generated_Source\PSoC4/I2C_I2C_MASTER.c ****     {
1099:Generated_Source\PSoC4/I2C_I2C_MASTER.c ****         retStatus = I2C_I2C_MSTR_NO_ERROR;
 1600              		.loc 1 1099 0
 1601 0096 0023     		movs	r3, #0
 1602 0098 FB60     		str	r3, [r7, #12]
1100:Generated_Source\PSoC4/I2C_I2C_MASTER.c **** 
1101:Generated_Source\PSoC4/I2C_I2C_MASTER.c ****         if (0u != (status & I2C_INTR_MASTER_I2C_STOP))
 1603              		.loc 1 1101 0
 1604 009a 7B68     		ldr	r3, [r7, #4]
 1605 009c 1022     		movs	r2, #16
 1606 009e 1340     		ands	r3, r2
 1607 00a0 03D0     		beq	.L109
1102:Generated_Source\PSoC4/I2C_I2C_MASTER.c ****         {
1103:Generated_Source\PSoC4/I2C_I2C_MASTER.c ****             /* Stop: end of transaction, go to idle state */
1104:Generated_Source\PSoC4/I2C_I2C_MASTER.c ****             I2C_state = I2C_I2C_FSM_IDLE;
 1608              		.loc 1 1104 0
 1609 00a2 144B     		ldr	r3, .L115+4
 1610 00a4 1022     		movs	r2, #16
 1611 00a6 1A70     		strb	r2, [r3]
 1612 00a8 14E0     		b	.L101
 1613              	.L109:
1105:Generated_Source\PSoC4/I2C_I2C_MASTER.c ****         }
1106:Generated_Source\PSoC4/I2C_I2C_MASTER.c ****         else
1107:Generated_Source\PSoC4/I2C_I2C_MASTER.c ****         {
1108:Generated_Source\PSoC4/I2C_I2C_MASTER.c ****             /* ACK: continue transaction */
1109:Generated_Source\PSoC4/I2C_I2C_MASTER.c ****             if (I2C_CHECK_I2C_FSM_ADDR)
 1614              		.loc 1 1109 0
 1615 00aa 124B     		ldr	r3, .L115+4
 1616 00ac 1B78     		ldrb	r3, [r3]
 1617 00ae DBB2     		uxtb	r3, r3
 1618 00b0 0822     		movs	r2, #8
 1619 00b2 1340     		ands	r3, r2
 1620 00b4 DBB2     		uxtb	r3, r3
 1621 00b6 002B     		cmp	r3, #0
 1622 00b8 0CD0     		beq	.L101
1110:Generated_Source\PSoC4/I2C_I2C_MASTER.c ****             {
ARM GAS  C:\Users\EDULU~1.DES\AppData\Local\Temp\cc10QHjd.s 			page 49


1111:Generated_Source\PSoC4/I2C_I2C_MASTER.c ****                 /* Move from address state to data */
1112:Generated_Source\PSoC4/I2C_I2C_MASTER.c ****                 I2C_state = (I2C_CHECK_I2C_FSM_RD) ?
 1623              		.loc 1 1112 0
 1624 00ba 0E4B     		ldr	r3, .L115+4
 1625 00bc 1B78     		ldrb	r3, [r3]
 1626 00be DBB2     		uxtb	r3, r3
 1627 00c0 0122     		movs	r2, #1
 1628 00c2 1340     		ands	r3, r2
 1629 00c4 DBB2     		uxtb	r3, r3
 1630 00c6 002B     		cmp	r3, #0
 1631 00c8 01D0     		beq	.L110
 1632              		.loc 1 1112 0 is_stmt 0 discriminator 1
 1633 00ca 2522     		movs	r2, #37
 1634 00cc 00E0     		b	.L111
 1635              	.L110:
 1636              		.loc 1 1112 0 discriminator 2
 1637 00ce 2422     		movs	r2, #36
 1638              	.L111:
 1639              		.loc 1 1112 0 discriminator 4
 1640 00d0 084B     		ldr	r3, .L115+4
 1641 00d2 1A70     		strb	r2, [r3]
 1642              	.L101:
1113:Generated_Source\PSoC4/I2C_I2C_MASTER.c ****                                           I2C_I2C_FSM_MSTR_RD_DATA : I2C_I2C_FSM_MSTR_WR_DATA;
1114:Generated_Source\PSoC4/I2C_I2C_MASTER.c ****             }
1115:Generated_Source\PSoC4/I2C_I2C_MASTER.c ****         }
1116:Generated_Source\PSoC4/I2C_I2C_MASTER.c ****     }
1117:Generated_Source\PSoC4/I2C_I2C_MASTER.c **** 
1118:Generated_Source\PSoC4/I2C_I2C_MASTER.c ****     if (I2C_I2C_RESET_ERROR == resetBlock)
 1643              		.loc 1 1118 0 is_stmt 1
 1644 00d4 BB68     		ldr	r3, [r7, #8]
 1645 00d6 012B     		cmp	r3, #1
 1646 00d8 02D1     		bne	.L112
1119:Generated_Source\PSoC4/I2C_I2C_MASTER.c ****     {
1120:Generated_Source\PSoC4/I2C_I2C_MASTER.c ****         I2C_I2CFwBlockReset();
 1647              		.loc 1 1120 0
 1648 00da FFF7FEFF 		bl	I2C_I2CFwBlockReset
 1649 00de 02E0     		b	.L113
 1650              	.L112:
1121:Generated_Source\PSoC4/I2C_I2C_MASTER.c ****     }
1122:Generated_Source\PSoC4/I2C_I2C_MASTER.c ****     else
1123:Generated_Source\PSoC4/I2C_I2C_MASTER.c ****     {
1124:Generated_Source\PSoC4/I2C_I2C_MASTER.c ****         I2C_ClearMasterInterruptSource(I2C_INTR_MASTER_ALL);
 1651              		.loc 1 1124 0
 1652 00e0 064B     		ldr	r3, .L115+12
 1653 00e2 074A     		ldr	r2, .L115+16
 1654 00e4 1A60     		str	r2, [r3]
 1655              	.L113:
1125:Generated_Source\PSoC4/I2C_I2C_MASTER.c ****     }
1126:Generated_Source\PSoC4/I2C_I2C_MASTER.c **** 
1127:Generated_Source\PSoC4/I2C_I2C_MASTER.c ****     return (retStatus);
 1656              		.loc 1 1127 0
 1657 00e6 FB68     		ldr	r3, [r7, #12]
1128:Generated_Source\PSoC4/I2C_I2C_MASTER.c **** }
 1658              		.loc 1 1128 0
 1659 00e8 1800     		movs	r0, r3
 1660 00ea BD46     		mov	sp, r7
 1661 00ec 04B0     		add	sp, sp, #16
ARM GAS  C:\Users\EDULU~1.DES\AppData\Local\Temp\cc10QHjd.s 			page 50


 1662              		@ sp needed
 1663 00ee 80BD     		pop	{r7, pc}
 1664              	.L116:
 1665              		.align	2
 1666              	.L115:
 1667 00f0 68000640 		.word	1074135144
 1668 00f4 00000000 		.word	I2C_state
 1669 00f8 60000640 		.word	1074135136
 1670 00fc 000F0640 		.word	1074138880
 1671 0100 17030000 		.word	791
 1672              		.cfi_endproc
 1673              	.LFE14:
 1674              		.size	I2C_I2CMasterHandleStatus, .-I2C_I2CMasterHandleStatus
 1675              		.section	.text.I2C_I2CMasterWaitOneUnit,"ax",%progbits
 1676              		.align	2
 1677              		.code	16
 1678              		.thumb_func
 1679              		.type	I2C_I2CMasterWaitOneUnit, %function
 1680              	I2C_I2CMasterWaitOneUnit:
 1681              	.LFB15:
1129:Generated_Source\PSoC4/I2C_I2C_MASTER.c **** 
1130:Generated_Source\PSoC4/I2C_I2C_MASTER.c **** 
1131:Generated_Source\PSoC4/I2C_I2C_MASTER.c **** /******************************************************************************
1132:Generated_Source\PSoC4/I2C_I2C_MASTER.c **** * Function Name: I2CMasterWaitOneUnit
1133:Generated_Source\PSoC4/I2C_I2C_MASTER.c **** ****************************************************************************//**
1134:Generated_Source\PSoC4/I2C_I2C_MASTER.c **** *
1135:Generated_Source\PSoC4/I2C_I2C_MASTER.c **** * Waits for one unit before unblock code execution.
1136:Generated_Source\PSoC4/I2C_I2C_MASTER.c **** * Note If a timeout value is 0, this function does nothing and returns 0.
1137:Generated_Source\PSoC4/I2C_I2C_MASTER.c **** *
1138:Generated_Source\PSoC4/I2C_I2C_MASTER.c **** * \param timeout
1139:Generated_Source\PSoC4/I2C_I2C_MASTER.c **** * The pointer to a timeout value.
1140:Generated_Source\PSoC4/I2C_I2C_MASTER.c **** *
1141:Generated_Source\PSoC4/I2C_I2C_MASTER.c **** * \return
1142:Generated_Source\PSoC4/I2C_I2C_MASTER.c **** * Returns 0 if a timeout does not expire or the timeout mask.
1143:Generated_Source\PSoC4/I2C_I2C_MASTER.c **** *
1144:Generated_Source\PSoC4/I2C_I2C_MASTER.c **** *******************************************************************************/
1145:Generated_Source\PSoC4/I2C_I2C_MASTER.c **** static uint32 I2C_I2CMasterWaitOneUnit(uint32 *timeout)
1146:Generated_Source\PSoC4/I2C_I2C_MASTER.c **** {
 1682              		.loc 1 1146 0
 1683              		.cfi_startproc
 1684              		@ args = 0, pretend = 0, frame = 16
 1685              		@ frame_needed = 1, uses_anonymous_args = 0
 1686 0000 80B5     		push	{r7, lr}
 1687              		.cfi_def_cfa_offset 8
 1688              		.cfi_offset 7, -8
 1689              		.cfi_offset 14, -4
 1690 0002 84B0     		sub	sp, sp, #16
 1691              		.cfi_def_cfa_offset 24
 1692 0004 00AF     		add	r7, sp, #0
 1693              		.cfi_def_cfa_register 7
 1694 0006 7860     		str	r0, [r7, #4]
1147:Generated_Source\PSoC4/I2C_I2C_MASTER.c ****     const uint16 oneUnit = 1u;
 1695              		.loc 1 1147 0
 1696 0008 0A23     		movs	r3, #10
 1697 000a FB18     		adds	r3, r7, r3
 1698 000c 0122     		movs	r2, #1
 1699 000e 1A80     		strh	r2, [r3]
ARM GAS  C:\Users\EDULU~1.DES\AppData\Local\Temp\cc10QHjd.s 			page 51


1148:Generated_Source\PSoC4/I2C_I2C_MASTER.c ****     uint32 status = 0u;
 1700              		.loc 1 1148 0
 1701 0010 0023     		movs	r3, #0
 1702 0012 FB60     		str	r3, [r7, #12]
1149:Generated_Source\PSoC4/I2C_I2C_MASTER.c **** 
1150:Generated_Source\PSoC4/I2C_I2C_MASTER.c ****     /* If the timeout equal to 0. Ignore the timeout */
1151:Generated_Source\PSoC4/I2C_I2C_MASTER.c ****     if (*timeout > 0u)
 1703              		.loc 1 1151 0
 1704 0014 7B68     		ldr	r3, [r7, #4]
 1705 0016 1B68     		ldr	r3, [r3]
 1706 0018 002B     		cmp	r3, #0
 1707 001a 11D0     		beq	.L118
1152:Generated_Source\PSoC4/I2C_I2C_MASTER.c ****     {
1153:Generated_Source\PSoC4/I2C_I2C_MASTER.c ****         CyDelayUs(oneUnit);
 1708              		.loc 1 1153 0
 1709 001c 0A23     		movs	r3, #10
 1710 001e FB18     		adds	r3, r7, r3
 1711 0020 1B88     		ldrh	r3, [r3]
 1712 0022 1800     		movs	r0, r3
 1713 0024 FFF7FEFF 		bl	CyDelayUs
1154:Generated_Source\PSoC4/I2C_I2C_MASTER.c ****         --(*timeout);
 1714              		.loc 1 1154 0
 1715 0028 7B68     		ldr	r3, [r7, #4]
 1716 002a 1B68     		ldr	r3, [r3]
 1717 002c 5A1E     		subs	r2, r3, #1
 1718 002e 7B68     		ldr	r3, [r7, #4]
 1719 0030 1A60     		str	r2, [r3]
1155:Generated_Source\PSoC4/I2C_I2C_MASTER.c **** 
1156:Generated_Source\PSoC4/I2C_I2C_MASTER.c ****         if (0u == *timeout)
 1720              		.loc 1 1156 0
 1721 0032 7B68     		ldr	r3, [r7, #4]
 1722 0034 1B68     		ldr	r3, [r3]
 1723 0036 002B     		cmp	r3, #0
 1724 0038 02D1     		bne	.L118
1157:Generated_Source\PSoC4/I2C_I2C_MASTER.c ****         {
1158:Generated_Source\PSoC4/I2C_I2C_MASTER.c ****             status = I2C_I2C_MASTER_TIMEOUT;
 1725              		.loc 1 1158 0
 1726 003a 8023     		movs	r3, #128
 1727 003c 1B06     		lsls	r3, r3, #24
 1728 003e FB60     		str	r3, [r7, #12]
 1729              	.L118:
1159:Generated_Source\PSoC4/I2C_I2C_MASTER.c ****         }
1160:Generated_Source\PSoC4/I2C_I2C_MASTER.c ****     }
1161:Generated_Source\PSoC4/I2C_I2C_MASTER.c **** 
1162:Generated_Source\PSoC4/I2C_I2C_MASTER.c ****     return (status);
 1730              		.loc 1 1162 0
 1731 0040 FB68     		ldr	r3, [r7, #12]
1163:Generated_Source\PSoC4/I2C_I2C_MASTER.c **** }
 1732              		.loc 1 1163 0
 1733 0042 1800     		movs	r0, r3
 1734 0044 BD46     		mov	sp, r7
 1735 0046 04B0     		add	sp, sp, #16
 1736              		@ sp needed
 1737 0048 80BD     		pop	{r7, pc}
 1738              		.cfi_endproc
 1739              	.LFE15:
 1740              		.size	I2C_I2CMasterWaitOneUnit, .-I2C_I2CMasterWaitOneUnit
ARM GAS  C:\Users\EDULU~1.DES\AppData\Local\Temp\cc10QHjd.s 			page 52


 1741 004a C046     		.text
 1742              	.Letext0:
 1743              		.file 2 "Generated_Source\\PSoC4/cytypes.h"
 1744              		.file 3 "Generated_Source\\PSoC4\\I2C_I2C_PVT.h"
 1745              		.section	.debug_info,"",%progbits
 1746              	.Ldebug_info0:
 1747 0000 1A060000 		.4byte	0x61a
 1748 0004 0400     		.2byte	0x4
 1749 0006 00000000 		.4byte	.Ldebug_abbrev0
 1750 000a 04       		.byte	0x4
 1751 000b 01       		.uleb128 0x1
 1752 000c 19020000 		.4byte	.LASF61
 1753 0010 0C       		.byte	0xc
 1754 0011 0D010000 		.4byte	.LASF62
 1755 0015 23040000 		.4byte	.LASF63
 1756 0019 00000000 		.4byte	.Ldebug_ranges0+0
 1757 001d 00000000 		.4byte	0
 1758 0021 00000000 		.4byte	.Ldebug_line0
 1759 0025 02       		.uleb128 0x2
 1760 0026 01       		.byte	0x1
 1761 0027 06       		.byte	0x6
 1762 0028 DB000000 		.4byte	.LASF0
 1763 002c 02       		.uleb128 0x2
 1764 002d 01       		.byte	0x1
 1765 002e 08       		.byte	0x8
 1766 002f 35030000 		.4byte	.LASF1
 1767 0033 02       		.uleb128 0x2
 1768 0034 02       		.byte	0x2
 1769 0035 05       		.byte	0x5
 1770 0036 5C030000 		.4byte	.LASF2
 1771 003a 02       		.uleb128 0x2
 1772 003b 02       		.byte	0x2
 1773 003c 07       		.byte	0x7
 1774 003d F0010000 		.4byte	.LASF3
 1775 0041 02       		.uleb128 0x2
 1776 0042 04       		.byte	0x4
 1777 0043 05       		.byte	0x5
 1778 0044 04010000 		.4byte	.LASF4
 1779 0048 02       		.uleb128 0x2
 1780 0049 04       		.byte	0x4
 1781 004a 07       		.byte	0x7
 1782 004b C4010000 		.4byte	.LASF5
 1783 004f 02       		.uleb128 0x2
 1784 0050 08       		.byte	0x8
 1785 0051 05       		.byte	0x5
 1786 0052 CD000000 		.4byte	.LASF6
 1787 0056 02       		.uleb128 0x2
 1788 0057 08       		.byte	0x8
 1789 0058 07       		.byte	0x7
 1790 0059 5B000000 		.4byte	.LASF7
 1791 005d 03       		.uleb128 0x3
 1792 005e 04       		.byte	0x4
 1793 005f 05       		.byte	0x5
 1794 0060 696E7400 		.ascii	"int\000"
 1795 0064 02       		.uleb128 0x2
 1796 0065 04       		.byte	0x4
 1797 0066 07       		.byte	0x7
ARM GAS  C:\Users\EDULU~1.DES\AppData\Local\Temp\cc10QHjd.s 			page 53


 1798 0067 8E010000 		.4byte	.LASF8
 1799 006b 04       		.uleb128 0x4
 1800 006c 46010000 		.4byte	.LASF9
 1801 0070 02       		.byte	0x2
 1802 0071 E401     		.2byte	0x1e4
 1803 0073 2C000000 		.4byte	0x2c
 1804 0077 04       		.uleb128 0x4
 1805 0078 00000000 		.4byte	.LASF10
 1806 007c 02       		.byte	0x2
 1807 007d E501     		.2byte	0x1e5
 1808 007f 3A000000 		.4byte	0x3a
 1809 0083 04       		.uleb128 0x4
 1810 0084 69010000 		.4byte	.LASF11
 1811 0088 02       		.byte	0x2
 1812 0089 E601     		.2byte	0x1e6
 1813 008b 48000000 		.4byte	0x48
 1814 008f 02       		.uleb128 0x2
 1815 0090 04       		.byte	0x4
 1816 0091 04       		.byte	0x4
 1817 0092 14030000 		.4byte	.LASF12
 1818 0096 02       		.uleb128 0x2
 1819 0097 08       		.byte	0x8
 1820 0098 04       		.byte	0x4
 1821 0099 4C010000 		.4byte	.LASF13
 1822 009d 02       		.uleb128 0x2
 1823 009e 01       		.byte	0x1
 1824 009f 08       		.byte	0x8
 1825 00a0 6D030000 		.4byte	.LASF14
 1826 00a4 05       		.uleb128 0x5
 1827 00a5 6B000000 		.4byte	0x6b
 1828 00a9 05       		.uleb128 0x5
 1829 00aa 77000000 		.4byte	0x77
 1830 00ae 04       		.uleb128 0x4
 1831 00af C7020000 		.4byte	.LASF15
 1832 00b3 02       		.byte	0x2
 1833 00b4 9002     		.2byte	0x290
 1834 00b6 BA000000 		.4byte	0xba
 1835 00ba 05       		.uleb128 0x5
 1836 00bb 83000000 		.4byte	0x83
 1837 00bf 02       		.uleb128 0x2
 1838 00c0 08       		.byte	0x8
 1839 00c1 04       		.byte	0x4
 1840 00c2 FE020000 		.4byte	.LASF16
 1841 00c6 02       		.uleb128 0x2
 1842 00c7 04       		.byte	0x4
 1843 00c8 07       		.byte	0x7
 1844 00c9 F5020000 		.4byte	.LASF17
 1845 00cd 06       		.uleb128 0x6
 1846 00ce D5030000 		.4byte	.LASF21
 1847 00d2 01       		.byte	0x1
 1848 00d3 67       		.byte	0x67
 1849 00d4 83000000 		.4byte	0x83
 1850 00d8 00000000 		.4byte	.LFB0
 1851 00dc 28010000 		.4byte	.LFE0-.LFB0
 1852 00e0 01       		.uleb128 0x1
 1853 00e1 9C       		.byte	0x9c
 1854 00e2 2D010000 		.4byte	0x12d
ARM GAS  C:\Users\EDULU~1.DES\AppData\Local\Temp\cc10QHjd.s 			page 54


 1855 00e6 07       		.uleb128 0x7
 1856 00e7 28030000 		.4byte	.LASF18
 1857 00eb 01       		.byte	0x1
 1858 00ec 67       		.byte	0x67
 1859 00ed 83000000 		.4byte	0x83
 1860 00f1 02       		.uleb128 0x2
 1861 00f2 91       		.byte	0x91
 1862 00f3 6C       		.sleb128 -20
 1863 00f4 07       		.uleb128 0x7
 1864 00f5 B5030000 		.4byte	.LASF19
 1865 00f9 01       		.byte	0x1
 1866 00fa 67       		.byte	0x67
 1867 00fb 2D010000 		.4byte	0x12d
 1868 00ff 02       		.uleb128 0x2
 1869 0100 91       		.byte	0x91
 1870 0101 68       		.sleb128 -24
 1871 0102 08       		.uleb128 0x8
 1872 0103 636E7400 		.ascii	"cnt\000"
 1873 0107 01       		.byte	0x1
 1874 0108 67       		.byte	0x67
 1875 0109 83000000 		.4byte	0x83
 1876 010d 02       		.uleb128 0x2
 1877 010e 91       		.byte	0x91
 1878 010f 64       		.sleb128 -28
 1879 0110 07       		.uleb128 0x7
 1880 0111 72030000 		.4byte	.LASF20
 1881 0115 01       		.byte	0x1
 1882 0116 67       		.byte	0x67
 1883 0117 83000000 		.4byte	0x83
 1884 011b 02       		.uleb128 0x2
 1885 011c 91       		.byte	0x91
 1886 011d 60       		.sleb128 -32
 1887 011e 09       		.uleb128 0x9
 1888 011f E6010000 		.4byte	.LASF24
 1889 0123 01       		.byte	0x1
 1890 0124 69       		.byte	0x69
 1891 0125 83000000 		.4byte	0x83
 1892 0129 02       		.uleb128 0x2
 1893 012a 91       		.byte	0x91
 1894 012b 74       		.sleb128 -12
 1895 012c 00       		.byte	0
 1896 012d 0A       		.uleb128 0xa
 1897 012e 04       		.byte	0x4
 1898 012f 6B000000 		.4byte	0x6b
 1899 0133 06       		.uleb128 0x6
 1900 0134 16000000 		.4byte	.LASF22
 1901 0138 01       		.byte	0x1
 1902 0139 D5       		.byte	0xd5
 1903 013a 83000000 		.4byte	0x83
 1904 013e 00000000 		.4byte	.LFB1
 1905 0142 38010000 		.4byte	.LFE1-.LFB1
 1906 0146 01       		.uleb128 0x1
 1907 0147 9C       		.byte	0x9c
 1908 0148 93010000 		.4byte	0x193
 1909 014c 07       		.uleb128 0x7
 1910 014d 28030000 		.4byte	.LASF18
 1911 0151 01       		.byte	0x1
ARM GAS  C:\Users\EDULU~1.DES\AppData\Local\Temp\cc10QHjd.s 			page 55


 1912 0152 D5       		.byte	0xd5
 1913 0153 83000000 		.4byte	0x83
 1914 0157 02       		.uleb128 0x2
 1915 0158 91       		.byte	0x91
 1916 0159 6C       		.sleb128 -20
 1917 015a 07       		.uleb128 0x7
 1918 015b E7000000 		.4byte	.LASF23
 1919 015f 01       		.byte	0x1
 1920 0160 D5       		.byte	0xd5
 1921 0161 2D010000 		.4byte	0x12d
 1922 0165 02       		.uleb128 0x2
 1923 0166 91       		.byte	0x91
 1924 0167 68       		.sleb128 -24
 1925 0168 08       		.uleb128 0x8
 1926 0169 636E7400 		.ascii	"cnt\000"
 1927 016d 01       		.byte	0x1
 1928 016e D5       		.byte	0xd5
 1929 016f 83000000 		.4byte	0x83
 1930 0173 02       		.uleb128 0x2
 1931 0174 91       		.byte	0x91
 1932 0175 64       		.sleb128 -28
 1933 0176 07       		.uleb128 0x7
 1934 0177 72030000 		.4byte	.LASF20
 1935 017b 01       		.byte	0x1
 1936 017c D5       		.byte	0xd5
 1937 017d 83000000 		.4byte	0x83
 1938 0181 02       		.uleb128 0x2
 1939 0182 91       		.byte	0x91
 1940 0183 60       		.sleb128 -32
 1941 0184 09       		.uleb128 0x9
 1942 0185 E6010000 		.4byte	.LASF24
 1943 0189 01       		.byte	0x1
 1944 018a D7       		.byte	0xd7
 1945 018b 83000000 		.4byte	0x83
 1946 018f 02       		.uleb128 0x2
 1947 0190 91       		.byte	0x91
 1948 0191 74       		.sleb128 -12
 1949 0192 00       		.byte	0
 1950 0193 0B       		.uleb128 0xb
 1951 0194 AD010000 		.4byte	.LASF25
 1952 0198 01       		.byte	0x1
 1953 0199 5901     		.2byte	0x159
 1954 019b 83000000 		.4byte	0x83
 1955 019f 00000000 		.4byte	.LFB2
 1956 01a3 F4000000 		.4byte	.LFE2-.LFB2
 1957 01a7 01       		.uleb128 0x1
 1958 01a8 9C       		.byte	0x9c
 1959 01a9 12020000 		.4byte	0x212
 1960 01ad 0C       		.uleb128 0xc
 1961 01ae 28030000 		.4byte	.LASF18
 1962 01b2 01       		.byte	0x1
 1963 01b3 5901     		.2byte	0x159
 1964 01b5 83000000 		.4byte	0x83
 1965 01b9 02       		.uleb128 0x2
 1966 01ba 91       		.byte	0x91
 1967 01bb 64       		.sleb128 -28
 1968 01bc 0C       		.uleb128 0xc
ARM GAS  C:\Users\EDULU~1.DES\AppData\Local\Temp\cc10QHjd.s 			page 56


 1969 01bd C0020000 		.4byte	.LASF26
 1970 01c1 01       		.byte	0x1
 1971 01c2 5901     		.2byte	0x159
 1972 01c4 83000000 		.4byte	0x83
 1973 01c8 02       		.uleb128 0x2
 1974 01c9 91       		.byte	0x91
 1975 01ca 60       		.sleb128 -32
 1976 01cb 0C       		.uleb128 0xc
 1977 01cc AB030000 		.4byte	.LASF27
 1978 01d0 01       		.byte	0x1
 1979 01d1 5901     		.2byte	0x159
 1980 01d3 83000000 		.4byte	0x83
 1981 01d7 02       		.uleb128 0x2
 1982 01d8 91       		.byte	0x91
 1983 01d9 5C       		.sleb128 -36
 1984 01da 0D       		.uleb128 0xd
 1985 01db E6010000 		.4byte	.LASF24
 1986 01df 01       		.byte	0x1
 1987 01e0 5B01     		.2byte	0x15b
 1988 01e2 83000000 		.4byte	0x83
 1989 01e6 02       		.uleb128 0x2
 1990 01e7 91       		.byte	0x91
 1991 01e8 74       		.sleb128 -12
 1992 01e9 0E       		.uleb128 0xe
 1993 01ea 30000000 		.4byte	.LBB2
 1994 01ee 8C000000 		.4byte	.LBE2-.LBB2
 1995 01f2 0D       		.uleb128 0xd
 1996 01f3 84010000 		.4byte	.LASF28
 1997 01f7 01       		.byte	0x1
 1998 01f8 6701     		.2byte	0x167
 1999 01fa 83000000 		.4byte	0x83
 2000 01fe 02       		.uleb128 0x2
 2001 01ff 91       		.byte	0x91
 2002 0200 70       		.sleb128 -16
 2003 0201 0D       		.uleb128 0xd
 2004 0202 DE010000 		.4byte	.LASF29
 2005 0206 01       		.byte	0x1
 2006 0207 6801     		.2byte	0x168
 2007 0209 83000000 		.4byte	0x83
 2008 020d 02       		.uleb128 0x2
 2009 020e 91       		.byte	0x91
 2010 020f 6C       		.sleb128 -20
 2011 0210 00       		.byte	0
 2012 0211 00       		.byte	0
 2013 0212 0B       		.uleb128 0xb
 2014 0213 92030000 		.4byte	.LASF30
 2015 0217 01       		.byte	0x1
 2016 0218 BC01     		.2byte	0x1bc
 2017 021a 83000000 		.4byte	0x83
 2018 021e 00000000 		.4byte	.LFB3
 2019 0222 A0000000 		.4byte	.LFE3-.LFB3
 2020 0226 01       		.uleb128 0x1
 2021 0227 9C       		.byte	0x9c
 2022 0228 91020000 		.4byte	0x291
 2023 022c 0C       		.uleb128 0xc
 2024 022d 28030000 		.4byte	.LASF18
 2025 0231 01       		.byte	0x1
ARM GAS  C:\Users\EDULU~1.DES\AppData\Local\Temp\cc10QHjd.s 			page 57


 2026 0232 BC01     		.2byte	0x1bc
 2027 0234 83000000 		.4byte	0x83
 2028 0238 02       		.uleb128 0x2
 2029 0239 91       		.byte	0x91
 2030 023a 64       		.sleb128 -28
 2031 023b 0C       		.uleb128 0xc
 2032 023c C0020000 		.4byte	.LASF26
 2033 0240 01       		.byte	0x1
 2034 0241 BC01     		.2byte	0x1bc
 2035 0243 83000000 		.4byte	0x83
 2036 0247 02       		.uleb128 0x2
 2037 0248 91       		.byte	0x91
 2038 0249 60       		.sleb128 -32
 2039 024a 0C       		.uleb128 0xc
 2040 024b AB030000 		.4byte	.LASF27
 2041 024f 01       		.byte	0x1
 2042 0250 BC01     		.2byte	0x1bc
 2043 0252 83000000 		.4byte	0x83
 2044 0256 02       		.uleb128 0x2
 2045 0257 91       		.byte	0x91
 2046 0258 5C       		.sleb128 -36
 2047 0259 0D       		.uleb128 0xd
 2048 025a E6010000 		.4byte	.LASF24
 2049 025e 01       		.byte	0x1
 2050 025f BE01     		.2byte	0x1be
 2051 0261 83000000 		.4byte	0x83
 2052 0265 02       		.uleb128 0x2
 2053 0266 91       		.byte	0x91
 2054 0267 74       		.sleb128 -12
 2055 0268 0E       		.uleb128 0xe
 2056 0269 20000000 		.4byte	.LBB3
 2057 026d 6A000000 		.4byte	.LBE3-.LBB3
 2058 0271 0D       		.uleb128 0xd
 2059 0272 84010000 		.4byte	.LASF28
 2060 0276 01       		.byte	0x1
 2061 0277 C301     		.2byte	0x1c3
 2062 0279 83000000 		.4byte	0x83
 2063 027d 02       		.uleb128 0x2
 2064 027e 91       		.byte	0x91
 2065 027f 70       		.sleb128 -16
 2066 0280 0D       		.uleb128 0xd
 2067 0281 DE010000 		.4byte	.LASF29
 2068 0285 01       		.byte	0x1
 2069 0286 C401     		.2byte	0x1c4
 2070 0288 83000000 		.4byte	0x83
 2071 028c 02       		.uleb128 0x2
 2072 028d 91       		.byte	0x91
 2073 028e 6C       		.sleb128 -20
 2074 028f 00       		.byte	0
 2075 0290 00       		.byte	0
 2076 0291 0B       		.uleb128 0xb
 2077 0292 03020000 		.4byte	.LASF31
 2078 0296 01       		.byte	0x1
 2079 0297 0B02     		.2byte	0x20b
 2080 0299 83000000 		.4byte	0x83
 2081 029d 00000000 		.4byte	.LFB4
 2082 02a1 84000000 		.4byte	.LFE4-.LFB4
ARM GAS  C:\Users\EDULU~1.DES\AppData\Local\Temp\cc10QHjd.s 			page 58


 2083 02a5 01       		.uleb128 0x1
 2084 02a6 9C       		.byte	0x9c
 2085 02a7 F2020000 		.4byte	0x2f2
 2086 02ab 0C       		.uleb128 0xc
 2087 02ac AB030000 		.4byte	.LASF27
 2088 02b0 01       		.byte	0x1
 2089 02b1 0B02     		.2byte	0x20b
 2090 02b3 83000000 		.4byte	0x83
 2091 02b7 02       		.uleb128 0x2
 2092 02b8 91       		.byte	0x91
 2093 02b9 64       		.sleb128 -28
 2094 02ba 0D       		.uleb128 0xd
 2095 02bb E6010000 		.4byte	.LASF24
 2096 02bf 01       		.byte	0x1
 2097 02c0 0D02     		.2byte	0x20d
 2098 02c2 83000000 		.4byte	0x83
 2099 02c6 02       		.uleb128 0x2
 2100 02c7 91       		.byte	0x91
 2101 02c8 74       		.sleb128 -12
 2102 02c9 0E       		.uleb128 0xe
 2103 02ca 1C000000 		.4byte	.LBB4
 2104 02ce 4E000000 		.4byte	.LBE4-.LBB4
 2105 02d2 0D       		.uleb128 0xd
 2106 02d3 84010000 		.4byte	.LASF28
 2107 02d7 01       		.byte	0x1
 2108 02d8 1202     		.2byte	0x212
 2109 02da 83000000 		.4byte	0x83
 2110 02de 02       		.uleb128 0x2
 2111 02df 91       		.byte	0x91
 2112 02e0 70       		.sleb128 -16
 2113 02e1 0D       		.uleb128 0xd
 2114 02e2 DE010000 		.4byte	.LASF29
 2115 02e6 01       		.byte	0x1
 2116 02e7 1302     		.2byte	0x213
 2117 02e9 83000000 		.4byte	0x83
 2118 02ed 02       		.uleb128 0x2
 2119 02ee 91       		.byte	0x91
 2120 02ef 6C       		.sleb128 -20
 2121 02f0 00       		.byte	0
 2122 02f1 00       		.byte	0
 2123 02f2 0B       		.uleb128 0xb
 2124 02f3 FC030000 		.4byte	.LASF32
 2125 02f7 01       		.byte	0x1
 2126 02f8 4602     		.2byte	0x246
 2127 02fa 83000000 		.4byte	0x83
 2128 02fe 00000000 		.4byte	.LFB5
 2129 0302 74000000 		.4byte	.LFE5-.LFB5
 2130 0306 01       		.uleb128 0x1
 2131 0307 9C       		.byte	0x9c
 2132 0308 62030000 		.4byte	0x362
 2133 030c 0C       		.uleb128 0xc
 2134 030d 66030000 		.4byte	.LASF33
 2135 0311 01       		.byte	0x1
 2136 0312 4602     		.2byte	0x246
 2137 0314 83000000 		.4byte	0x83
 2138 0318 02       		.uleb128 0x2
 2139 0319 91       		.byte	0x91
ARM GAS  C:\Users\EDULU~1.DES\AppData\Local\Temp\cc10QHjd.s 			page 59


 2140 031a 64       		.sleb128 -28
 2141 031b 0C       		.uleb128 0xc
 2142 031c AB030000 		.4byte	.LASF27
 2143 0320 01       		.byte	0x1
 2144 0321 4602     		.2byte	0x246
 2145 0323 83000000 		.4byte	0x83
 2146 0327 02       		.uleb128 0x2
 2147 0328 91       		.byte	0x91
 2148 0329 60       		.sleb128 -32
 2149 032a 0D       		.uleb128 0xd
 2150 032b E6010000 		.4byte	.LASF24
 2151 032f 01       		.byte	0x1
 2152 0330 4802     		.2byte	0x248
 2153 0332 83000000 		.4byte	0x83
 2154 0336 02       		.uleb128 0x2
 2155 0337 91       		.byte	0x91
 2156 0338 74       		.sleb128 -12
 2157 0339 0E       		.uleb128 0xe
 2158 033a 1E000000 		.4byte	.LBB5
 2159 033e 40000000 		.4byte	.LBE5-.LBB5
 2160 0342 0D       		.uleb128 0xd
 2161 0343 84010000 		.4byte	.LASF28
 2162 0347 01       		.byte	0x1
 2163 0348 4D02     		.2byte	0x24d
 2164 034a 83000000 		.4byte	0x83
 2165 034e 02       		.uleb128 0x2
 2166 034f 91       		.byte	0x91
 2167 0350 70       		.sleb128 -16
 2168 0351 0D       		.uleb128 0xd
 2169 0352 DE010000 		.4byte	.LASF29
 2170 0356 01       		.byte	0x1
 2171 0357 4E02     		.2byte	0x24e
 2172 0359 83000000 		.4byte	0x83
 2173 035d 02       		.uleb128 0x2
 2174 035e 91       		.byte	0x91
 2175 035f 6C       		.sleb128 -20
 2176 0360 00       		.byte	0
 2177 0361 00       		.byte	0
 2178 0362 0B       		.uleb128 0xb
 2179 0363 53010000 		.4byte	.LASF34
 2180 0367 01       		.byte	0x1
 2181 0368 8D02     		.2byte	0x28d
 2182 036a 83000000 		.4byte	0x83
 2183 036e 00000000 		.4byte	.LFB6
 2184 0372 B4000000 		.4byte	.LFE6-.LFB6
 2185 0376 01       		.uleb128 0x1
 2186 0377 9C       		.byte	0x9c
 2187 0378 F0030000 		.4byte	0x3f0
 2188 037c 0C       		.uleb128 0xc
 2189 037d D6010000 		.4byte	.LASF35
 2190 0381 01       		.byte	0x1
 2191 0382 8D02     		.2byte	0x28d
 2192 0384 83000000 		.4byte	0x83
 2193 0388 02       		.uleb128 0x2
 2194 0389 91       		.byte	0x91
 2195 038a 64       		.sleb128 -28
 2196 038b 0C       		.uleb128 0xc
ARM GAS  C:\Users\EDULU~1.DES\AppData\Local\Temp\cc10QHjd.s 			page 60


 2197 038c 0F000000 		.4byte	.LASF36
 2198 0390 01       		.byte	0x1
 2199 0391 8D02     		.2byte	0x28d
 2200 0393 2D010000 		.4byte	0x12d
 2201 0397 02       		.uleb128 0x2
 2202 0398 91       		.byte	0x91
 2203 0399 60       		.sleb128 -32
 2204 039a 0C       		.uleb128 0xc
 2205 039b AB030000 		.4byte	.LASF27
 2206 039f 01       		.byte	0x1
 2207 03a0 8D02     		.2byte	0x28d
 2208 03a2 83000000 		.4byte	0x83
 2209 03a6 02       		.uleb128 0x2
 2210 03a7 91       		.byte	0x91
 2211 03a8 5C       		.sleb128 -36
 2212 03a9 0D       		.uleb128 0xd
 2213 03aa E6010000 		.4byte	.LASF24
 2214 03ae 01       		.byte	0x1
 2215 03af 8F02     		.2byte	0x28f
 2216 03b1 83000000 		.4byte	0x83
 2217 03b5 02       		.uleb128 0x2
 2218 03b6 91       		.byte	0x91
 2219 03b7 74       		.sleb128 -12
 2220 03b8 0E       		.uleb128 0xe
 2221 03b9 20000000 		.4byte	.LBB6
 2222 03bd 72000000 		.4byte	.LBE6-.LBB6
 2223 03c1 0D       		.uleb128 0xd
 2224 03c2 84010000 		.4byte	.LASF28
 2225 03c6 01       		.byte	0x1
 2226 03c7 9402     		.2byte	0x294
 2227 03c9 83000000 		.4byte	0x83
 2228 03cd 02       		.uleb128 0x2
 2229 03ce 91       		.byte	0x91
 2230 03cf 70       		.sleb128 -16
 2231 03d0 0D       		.uleb128 0xd
 2232 03d1 C2000000 		.4byte	.LASF37
 2233 03d5 01       		.byte	0x1
 2234 03d6 9502     		.2byte	0x295
 2235 03d8 83000000 		.4byte	0x83
 2236 03dc 02       		.uleb128 0x2
 2237 03dd 91       		.byte	0x91
 2238 03de 6C       		.sleb128 -20
 2239 03df 0D       		.uleb128 0xd
 2240 03e0 DE010000 		.4byte	.LASF29
 2241 03e4 01       		.byte	0x1
 2242 03e5 9602     		.2byte	0x296
 2243 03e7 83000000 		.4byte	0x83
 2244 03eb 02       		.uleb128 0x2
 2245 03ec 91       		.byte	0x91
 2246 03ed 68       		.sleb128 -24
 2247 03ee 00       		.byte	0
 2248 03ef 00       		.byte	0
 2249 03f0 0F       		.uleb128 0xf
 2250 03f1 8C000000 		.4byte	.LASF38
 2251 03f5 01       		.byte	0x1
 2252 03f6 D102     		.2byte	0x2d1
 2253 03f8 83000000 		.4byte	0x83
ARM GAS  C:\Users\EDULU~1.DES\AppData\Local\Temp\cc10QHjd.s 			page 61


 2254 03fc 00000000 		.4byte	.LFB7
 2255 0400 14000000 		.4byte	.LFE7-.LFB7
 2256 0404 01       		.uleb128 0x1
 2257 0405 9C       		.byte	0x9c
 2258 0406 0F       		.uleb128 0xf
 2259 0407 3E000000 		.4byte	.LASF39
 2260 040b 01       		.byte	0x1
 2261 040c EC02     		.2byte	0x2ec
 2262 040e 83000000 		.4byte	0x83
 2263 0412 00000000 		.4byte	.LFB8
 2264 0416 14000000 		.4byte	.LFE8-.LFB8
 2265 041a 01       		.uleb128 0x1
 2266 041b 9C       		.byte	0x9c
 2267 041c 10       		.uleb128 0x10
 2268 041d 72000000 		.4byte	.LASF40
 2269 0421 01       		.byte	0x1
 2270 0422 FE02     		.2byte	0x2fe
 2271 0424 00000000 		.4byte	.LFB9
 2272 0428 34000000 		.4byte	.LFE9-.LFB9
 2273 042c 01       		.uleb128 0x1
 2274 042d 9C       		.byte	0x9c
 2275 042e 10       		.uleb128 0x10
 2276 042f 77030000 		.4byte	.LASF41
 2277 0433 01       		.byte	0x1
 2278 0434 1503     		.2byte	0x315
 2279 0436 00000000 		.4byte	.LFB10
 2280 043a 34000000 		.4byte	.LFE10-.LFB10
 2281 043e 01       		.uleb128 0x1
 2282 043f 9C       		.byte	0x9c
 2283 0440 0B       		.uleb128 0xb
 2284 0441 70010000 		.4byte	.LASF42
 2285 0445 01       		.byte	0x1
 2286 0446 4903     		.2byte	0x349
 2287 0448 83000000 		.4byte	0x83
 2288 044c 00000000 		.4byte	.LFB11
 2289 0450 44000000 		.4byte	.LFE11-.LFB11
 2290 0454 01       		.uleb128 0x1
 2291 0455 9C       		.byte	0x9c
 2292 0456 6A040000 		.4byte	0x46a
 2293 045a 0D       		.uleb128 0xd
 2294 045b CE030000 		.4byte	.LASF43
 2295 045f 01       		.byte	0x1
 2296 0460 4B03     		.2byte	0x34b
 2297 0462 83000000 		.4byte	0x83
 2298 0466 02       		.uleb128 0x2
 2299 0467 91       		.byte	0x91
 2300 0468 74       		.sleb128 -12
 2301 0469 00       		.byte	0
 2302 046a 0B       		.uleb128 0xb
 2303 046b CD020000 		.4byte	.LASF44
 2304 046f 01       		.byte	0x1
 2305 0470 6B03     		.2byte	0x36b
 2306 0472 83000000 		.4byte	0x83
 2307 0476 00000000 		.4byte	.LFB12
 2308 047a 30000000 		.4byte	.LFE12-.LFB12
 2309 047e 01       		.uleb128 0x1
 2310 047f 9C       		.byte	0x9c
ARM GAS  C:\Users\EDULU~1.DES\AppData\Local\Temp\cc10QHjd.s 			page 62


 2311 0480 94040000 		.4byte	0x494
 2312 0484 0D       		.uleb128 0xd
 2313 0485 CE030000 		.4byte	.LASF43
 2314 0489 01       		.byte	0x1
 2315 048a 6D03     		.2byte	0x36d
 2316 048c 83000000 		.4byte	0x83
 2317 0490 02       		.uleb128 0x2
 2318 0491 91       		.byte	0x91
 2319 0492 74       		.sleb128 -12
 2320 0493 00       		.byte	0
 2321 0494 11       		.uleb128 0x11
 2322 0495 43030000 		.4byte	.LASF64
 2323 0499 01       		.byte	0x1
 2324 049a 9703     		.2byte	0x397
 2325 049c 00000000 		.4byte	.LFB13
 2326 04a0 00010000 		.4byte	.LFE13-.LFB13
 2327 04a4 01       		.uleb128 0x1
 2328 04a5 9C       		.byte	0x9c
 2329 04a6 D8040000 		.4byte	0x4d8
 2330 04aa 0D       		.uleb128 0xd
 2331 04ab 07000000 		.4byte	.LASF45
 2332 04af 01       		.byte	0x1
 2333 04b0 A003     		.2byte	0x3a0
 2334 04b2 D8040000 		.4byte	0x4d8
 2335 04b6 02       		.uleb128 0x2
 2336 04b7 91       		.byte	0x91
 2337 04b8 72       		.sleb128 -14
 2338 04b9 0D       		.uleb128 0xd
 2339 04ba DE010000 		.4byte	.LASF29
 2340 04be 01       		.byte	0x1
 2341 04bf A103     		.2byte	0x3a1
 2342 04c1 83000000 		.4byte	0x83
 2343 04c5 02       		.uleb128 0x2
 2344 04c6 91       		.byte	0x91
 2345 04c7 74       		.sleb128 -12
 2346 04c8 0D       		.uleb128 0xd
 2347 04c9 1A030000 		.4byte	.LASF46
 2348 04cd 01       		.byte	0x1
 2349 04ce A403     		.2byte	0x3a4
 2350 04d0 83000000 		.4byte	0x83
 2351 04d4 02       		.uleb128 0x2
 2352 04d5 91       		.byte	0x91
 2353 04d6 6C       		.sleb128 -20
 2354 04d7 00       		.byte	0
 2355 04d8 12       		.uleb128 0x12
 2356 04d9 77000000 		.4byte	0x77
 2357 04dd 13       		.uleb128 0x13
 2358 04de A8000000 		.4byte	.LASF49
 2359 04e2 01       		.byte	0x1
 2360 04e3 1904     		.2byte	0x419
 2361 04e5 83000000 		.4byte	0x83
 2362 04e9 00000000 		.4byte	.LFB14
 2363 04ed 04010000 		.4byte	.LFE14-.LFB14
 2364 04f1 01       		.uleb128 0x1
 2365 04f2 9C       		.byte	0x9c
 2366 04f3 25050000 		.4byte	0x525
 2367 04f7 0C       		.uleb128 0xc
ARM GAS  C:\Users\EDULU~1.DES\AppData\Local\Temp\cc10QHjd.s 			page 63


 2368 04f8 CE030000 		.4byte	.LASF43
 2369 04fc 01       		.byte	0x1
 2370 04fd 1904     		.2byte	0x419
 2371 04ff 83000000 		.4byte	0x83
 2372 0503 02       		.uleb128 0x2
 2373 0504 91       		.byte	0x91
 2374 0505 6C       		.sleb128 -20
 2375 0506 0D       		.uleb128 0xd
 2376 0507 AF040000 		.4byte	.LASF47
 2377 050b 01       		.byte	0x1
 2378 050c 1B04     		.2byte	0x41b
 2379 050e 83000000 		.4byte	0x83
 2380 0512 02       		.uleb128 0x2
 2381 0513 91       		.byte	0x91
 2382 0514 74       		.sleb128 -12
 2383 0515 0D       		.uleb128 0xd
 2384 0516 91040000 		.4byte	.LASF48
 2385 051a 01       		.byte	0x1
 2386 051b 1C04     		.2byte	0x41c
 2387 051d 83000000 		.4byte	0x83
 2388 0521 02       		.uleb128 0x2
 2389 0522 91       		.byte	0x91
 2390 0523 70       		.sleb128 -16
 2391 0524 00       		.byte	0
 2392 0525 13       		.uleb128 0x13
 2393 0526 A7020000 		.4byte	.LASF50
 2394 052a 01       		.byte	0x1
 2395 052b 7904     		.2byte	0x479
 2396 052d 83000000 		.4byte	0x83
 2397 0531 00000000 		.4byte	.LFB15
 2398 0535 4A000000 		.4byte	.LFE15-.LFB15
 2399 0539 01       		.uleb128 0x1
 2400 053a 9C       		.byte	0x9c
 2401 053b 6D050000 		.4byte	0x56d
 2402 053f 0C       		.uleb128 0xc
 2403 0540 DE010000 		.4byte	.LASF29
 2404 0544 01       		.byte	0x1
 2405 0545 7904     		.2byte	0x479
 2406 0547 6D050000 		.4byte	0x56d
 2407 054b 02       		.uleb128 0x2
 2408 054c 91       		.byte	0x91
 2409 054d 6C       		.sleb128 -20
 2410 054e 0D       		.uleb128 0xd
 2411 054f 07000000 		.4byte	.LASF45
 2412 0553 01       		.byte	0x1
 2413 0554 7B04     		.2byte	0x47b
 2414 0556 D8040000 		.4byte	0x4d8
 2415 055a 02       		.uleb128 0x2
 2416 055b 91       		.byte	0x91
 2417 055c 72       		.sleb128 -14
 2418 055d 0D       		.uleb128 0xd
 2419 055e CE030000 		.4byte	.LASF43
 2420 0562 01       		.byte	0x1
 2421 0563 7C04     		.2byte	0x47c
 2422 0565 83000000 		.4byte	0x83
 2423 0569 02       		.uleb128 0x2
 2424 056a 91       		.byte	0x91
ARM GAS  C:\Users\EDULU~1.DES\AppData\Local\Temp\cc10QHjd.s 			page 64


 2425 056b 74       		.sleb128 -12
 2426 056c 00       		.byte	0
 2427 056d 0A       		.uleb128 0xa
 2428 056e 04       		.byte	0x4
 2429 056f 83000000 		.4byte	0x83
 2430 0573 14       		.uleb128 0x14
 2431 0574 0A030000 		.4byte	.LASF51
 2432 0578 03       		.byte	0x3
 2433 0579 1E       		.byte	0x1e
 2434 057a A4000000 		.4byte	0xa4
 2435 057e 15       		.uleb128 0x15
 2436 057f E6020000 		.4byte	.LASF52
 2437 0583 01       		.byte	0x1
 2438 0584 1D       		.byte	0x1d
 2439 0585 A9000000 		.4byte	0xa9
 2440 0589 05       		.uleb128 0x5
 2441 058a 03       		.byte	0x3
 2442 058b 00000000 		.4byte	I2C_mstrStatus
 2443 058f 15       		.uleb128 0x15
 2444 0590 13040000 		.4byte	.LASF53
 2445 0594 01       		.byte	0x1
 2446 0595 1E       		.byte	0x1e
 2447 0596 A4000000 		.4byte	0xa4
 2448 059a 05       		.uleb128 0x5
 2449 059b 03       		.byte	0x3
 2450 059c 00000000 		.4byte	I2C_mstrControl
 2451 05a0 15       		.uleb128 0x15
 2452 05a1 EB030000 		.4byte	.LASF54
 2453 05a5 01       		.byte	0x1
 2454 05a6 21       		.byte	0x21
 2455 05a7 B1050000 		.4byte	0x5b1
 2456 05ab 05       		.uleb128 0x5
 2457 05ac 03       		.byte	0x3
 2458 05ad 00000000 		.4byte	I2C_mstrRdBufPtr
 2459 05b1 0A       		.uleb128 0xa
 2460 05b2 04       		.byte	0x4
 2461 05b3 A4000000 		.4byte	0xa4
 2462 05b7 15       		.uleb128 0x15
 2463 05b8 9B010000 		.4byte	.LASF55
 2464 05bc 01       		.byte	0x1
 2465 05bd 22       		.byte	0x22
 2466 05be BA000000 		.4byte	0xba
 2467 05c2 05       		.uleb128 0x5
 2468 05c3 03       		.byte	0x3
 2469 05c4 00000000 		.4byte	I2C_mstrRdBufSize
 2470 05c8 15       		.uleb128 0x15
 2471 05c9 9C040000 		.4byte	.LASF56
 2472 05cd 01       		.byte	0x1
 2473 05ce 23       		.byte	0x23
 2474 05cf BA000000 		.4byte	0xba
 2475 05d3 05       		.uleb128 0x5
 2476 05d4 03       		.byte	0x3
 2477 05d5 00000000 		.4byte	I2C_mstrRdBufIndex
 2478 05d9 15       		.uleb128 0x15
 2479 05da 35010000 		.4byte	.LASF57
 2480 05de 01       		.byte	0x1
 2481 05df 26       		.byte	0x26
ARM GAS  C:\Users\EDULU~1.DES\AppData\Local\Temp\cc10QHjd.s 			page 65


 2482 05e0 B1050000 		.4byte	0x5b1
 2483 05e4 05       		.uleb128 0x5
 2484 05e5 03       		.byte	0x3
 2485 05e6 00000000 		.4byte	I2C_mstrWrBufPtr
 2486 05ea 15       		.uleb128 0x15
 2487 05eb BC030000 		.4byte	.LASF58
 2488 05ef 01       		.byte	0x1
 2489 05f0 27       		.byte	0x27
 2490 05f1 BA000000 		.4byte	0xba
 2491 05f5 05       		.uleb128 0x5
 2492 05f6 03       		.byte	0x3
 2493 05f7 00000000 		.4byte	I2C_mstrWrBufSize
 2494 05fb 15       		.uleb128 0x15
 2495 05fc 2B000000 		.4byte	.LASF59
 2496 0600 01       		.byte	0x1
 2497 0601 28       		.byte	0x28
 2498 0602 BA000000 		.4byte	0xba
 2499 0606 05       		.uleb128 0x5
 2500 0607 03       		.byte	0x3
 2501 0608 00000000 		.4byte	I2C_mstrWrBufIndex
 2502 060c 15       		.uleb128 0x15
 2503 060d EE000000 		.4byte	.LASF60
 2504 0611 01       		.byte	0x1
 2505 0612 29       		.byte	0x29
 2506 0613 BA000000 		.4byte	0xba
 2507 0617 05       		.uleb128 0x5
 2508 0618 03       		.byte	0x3
 2509 0619 00000000 		.4byte	I2C_mstrWrBufIndexTmp
 2510 061d 00       		.byte	0
 2511              		.section	.debug_abbrev,"",%progbits
 2512              	.Ldebug_abbrev0:
 2513 0000 01       		.uleb128 0x1
 2514 0001 11       		.uleb128 0x11
 2515 0002 01       		.byte	0x1
 2516 0003 25       		.uleb128 0x25
 2517 0004 0E       		.uleb128 0xe
 2518 0005 13       		.uleb128 0x13
 2519 0006 0B       		.uleb128 0xb
 2520 0007 03       		.uleb128 0x3
 2521 0008 0E       		.uleb128 0xe
 2522 0009 1B       		.uleb128 0x1b
 2523 000a 0E       		.uleb128 0xe
 2524 000b 55       		.uleb128 0x55
 2525 000c 17       		.uleb128 0x17
 2526 000d 11       		.uleb128 0x11
 2527 000e 01       		.uleb128 0x1
 2528 000f 10       		.uleb128 0x10
 2529 0010 17       		.uleb128 0x17
 2530 0011 00       		.byte	0
 2531 0012 00       		.byte	0
 2532 0013 02       		.uleb128 0x2
 2533 0014 24       		.uleb128 0x24
 2534 0015 00       		.byte	0
 2535 0016 0B       		.uleb128 0xb
 2536 0017 0B       		.uleb128 0xb
 2537 0018 3E       		.uleb128 0x3e
 2538 0019 0B       		.uleb128 0xb
ARM GAS  C:\Users\EDULU~1.DES\AppData\Local\Temp\cc10QHjd.s 			page 66


 2539 001a 03       		.uleb128 0x3
 2540 001b 0E       		.uleb128 0xe
 2541 001c 00       		.byte	0
 2542 001d 00       		.byte	0
 2543 001e 03       		.uleb128 0x3
 2544 001f 24       		.uleb128 0x24
 2545 0020 00       		.byte	0
 2546 0021 0B       		.uleb128 0xb
 2547 0022 0B       		.uleb128 0xb
 2548 0023 3E       		.uleb128 0x3e
 2549 0024 0B       		.uleb128 0xb
 2550 0025 03       		.uleb128 0x3
 2551 0026 08       		.uleb128 0x8
 2552 0027 00       		.byte	0
 2553 0028 00       		.byte	0
 2554 0029 04       		.uleb128 0x4
 2555 002a 16       		.uleb128 0x16
 2556 002b 00       		.byte	0
 2557 002c 03       		.uleb128 0x3
 2558 002d 0E       		.uleb128 0xe
 2559 002e 3A       		.uleb128 0x3a
 2560 002f 0B       		.uleb128 0xb
 2561 0030 3B       		.uleb128 0x3b
 2562 0031 05       		.uleb128 0x5
 2563 0032 49       		.uleb128 0x49
 2564 0033 13       		.uleb128 0x13
 2565 0034 00       		.byte	0
 2566 0035 00       		.byte	0
 2567 0036 05       		.uleb128 0x5
 2568 0037 35       		.uleb128 0x35
 2569 0038 00       		.byte	0
 2570 0039 49       		.uleb128 0x49
 2571 003a 13       		.uleb128 0x13
 2572 003b 00       		.byte	0
 2573 003c 00       		.byte	0
 2574 003d 06       		.uleb128 0x6
 2575 003e 2E       		.uleb128 0x2e
 2576 003f 01       		.byte	0x1
 2577 0040 3F       		.uleb128 0x3f
 2578 0041 19       		.uleb128 0x19
 2579 0042 03       		.uleb128 0x3
 2580 0043 0E       		.uleb128 0xe
 2581 0044 3A       		.uleb128 0x3a
 2582 0045 0B       		.uleb128 0xb
 2583 0046 3B       		.uleb128 0x3b
 2584 0047 0B       		.uleb128 0xb
 2585 0048 27       		.uleb128 0x27
 2586 0049 19       		.uleb128 0x19
 2587 004a 49       		.uleb128 0x49
 2588 004b 13       		.uleb128 0x13
 2589 004c 11       		.uleb128 0x11
 2590 004d 01       		.uleb128 0x1
 2591 004e 12       		.uleb128 0x12
 2592 004f 06       		.uleb128 0x6
 2593 0050 40       		.uleb128 0x40
 2594 0051 18       		.uleb128 0x18
 2595 0052 9642     		.uleb128 0x2116
ARM GAS  C:\Users\EDULU~1.DES\AppData\Local\Temp\cc10QHjd.s 			page 67


 2596 0054 19       		.uleb128 0x19
 2597 0055 01       		.uleb128 0x1
 2598 0056 13       		.uleb128 0x13
 2599 0057 00       		.byte	0
 2600 0058 00       		.byte	0
 2601 0059 07       		.uleb128 0x7
 2602 005a 05       		.uleb128 0x5
 2603 005b 00       		.byte	0
 2604 005c 03       		.uleb128 0x3
 2605 005d 0E       		.uleb128 0xe
 2606 005e 3A       		.uleb128 0x3a
 2607 005f 0B       		.uleb128 0xb
 2608 0060 3B       		.uleb128 0x3b
 2609 0061 0B       		.uleb128 0xb
 2610 0062 49       		.uleb128 0x49
 2611 0063 13       		.uleb128 0x13
 2612 0064 02       		.uleb128 0x2
 2613 0065 18       		.uleb128 0x18
 2614 0066 00       		.byte	0
 2615 0067 00       		.byte	0
 2616 0068 08       		.uleb128 0x8
 2617 0069 05       		.uleb128 0x5
 2618 006a 00       		.byte	0
 2619 006b 03       		.uleb128 0x3
 2620 006c 08       		.uleb128 0x8
 2621 006d 3A       		.uleb128 0x3a
 2622 006e 0B       		.uleb128 0xb
 2623 006f 3B       		.uleb128 0x3b
 2624 0070 0B       		.uleb128 0xb
 2625 0071 49       		.uleb128 0x49
 2626 0072 13       		.uleb128 0x13
 2627 0073 02       		.uleb128 0x2
 2628 0074 18       		.uleb128 0x18
 2629 0075 00       		.byte	0
 2630 0076 00       		.byte	0
 2631 0077 09       		.uleb128 0x9
 2632 0078 34       		.uleb128 0x34
 2633 0079 00       		.byte	0
 2634 007a 03       		.uleb128 0x3
 2635 007b 0E       		.uleb128 0xe
 2636 007c 3A       		.uleb128 0x3a
 2637 007d 0B       		.uleb128 0xb
 2638 007e 3B       		.uleb128 0x3b
 2639 007f 0B       		.uleb128 0xb
 2640 0080 49       		.uleb128 0x49
 2641 0081 13       		.uleb128 0x13
 2642 0082 02       		.uleb128 0x2
 2643 0083 18       		.uleb128 0x18
 2644 0084 00       		.byte	0
 2645 0085 00       		.byte	0
 2646 0086 0A       		.uleb128 0xa
 2647 0087 0F       		.uleb128 0xf
 2648 0088 00       		.byte	0
 2649 0089 0B       		.uleb128 0xb
 2650 008a 0B       		.uleb128 0xb
 2651 008b 49       		.uleb128 0x49
 2652 008c 13       		.uleb128 0x13
ARM GAS  C:\Users\EDULU~1.DES\AppData\Local\Temp\cc10QHjd.s 			page 68


 2653 008d 00       		.byte	0
 2654 008e 00       		.byte	0
 2655 008f 0B       		.uleb128 0xb
 2656 0090 2E       		.uleb128 0x2e
 2657 0091 01       		.byte	0x1
 2658 0092 3F       		.uleb128 0x3f
 2659 0093 19       		.uleb128 0x19
 2660 0094 03       		.uleb128 0x3
 2661 0095 0E       		.uleb128 0xe
 2662 0096 3A       		.uleb128 0x3a
 2663 0097 0B       		.uleb128 0xb
 2664 0098 3B       		.uleb128 0x3b
 2665 0099 05       		.uleb128 0x5
 2666 009a 27       		.uleb128 0x27
 2667 009b 19       		.uleb128 0x19
 2668 009c 49       		.uleb128 0x49
 2669 009d 13       		.uleb128 0x13
 2670 009e 11       		.uleb128 0x11
 2671 009f 01       		.uleb128 0x1
 2672 00a0 12       		.uleb128 0x12
 2673 00a1 06       		.uleb128 0x6
 2674 00a2 40       		.uleb128 0x40
 2675 00a3 18       		.uleb128 0x18
 2676 00a4 9642     		.uleb128 0x2116
 2677 00a6 19       		.uleb128 0x19
 2678 00a7 01       		.uleb128 0x1
 2679 00a8 13       		.uleb128 0x13
 2680 00a9 00       		.byte	0
 2681 00aa 00       		.byte	0
 2682 00ab 0C       		.uleb128 0xc
 2683 00ac 05       		.uleb128 0x5
 2684 00ad 00       		.byte	0
 2685 00ae 03       		.uleb128 0x3
 2686 00af 0E       		.uleb128 0xe
 2687 00b0 3A       		.uleb128 0x3a
 2688 00b1 0B       		.uleb128 0xb
 2689 00b2 3B       		.uleb128 0x3b
 2690 00b3 05       		.uleb128 0x5
 2691 00b4 49       		.uleb128 0x49
 2692 00b5 13       		.uleb128 0x13
 2693 00b6 02       		.uleb128 0x2
 2694 00b7 18       		.uleb128 0x18
 2695 00b8 00       		.byte	0
 2696 00b9 00       		.byte	0
 2697 00ba 0D       		.uleb128 0xd
 2698 00bb 34       		.uleb128 0x34
 2699 00bc 00       		.byte	0
 2700 00bd 03       		.uleb128 0x3
 2701 00be 0E       		.uleb128 0xe
 2702 00bf 3A       		.uleb128 0x3a
 2703 00c0 0B       		.uleb128 0xb
 2704 00c1 3B       		.uleb128 0x3b
 2705 00c2 05       		.uleb128 0x5
 2706 00c3 49       		.uleb128 0x49
 2707 00c4 13       		.uleb128 0x13
 2708 00c5 02       		.uleb128 0x2
 2709 00c6 18       		.uleb128 0x18
ARM GAS  C:\Users\EDULU~1.DES\AppData\Local\Temp\cc10QHjd.s 			page 69


 2710 00c7 00       		.byte	0
 2711 00c8 00       		.byte	0
 2712 00c9 0E       		.uleb128 0xe
 2713 00ca 0B       		.uleb128 0xb
 2714 00cb 01       		.byte	0x1
 2715 00cc 11       		.uleb128 0x11
 2716 00cd 01       		.uleb128 0x1
 2717 00ce 12       		.uleb128 0x12
 2718 00cf 06       		.uleb128 0x6
 2719 00d0 00       		.byte	0
 2720 00d1 00       		.byte	0
 2721 00d2 0F       		.uleb128 0xf
 2722 00d3 2E       		.uleb128 0x2e
 2723 00d4 00       		.byte	0
 2724 00d5 3F       		.uleb128 0x3f
 2725 00d6 19       		.uleb128 0x19
 2726 00d7 03       		.uleb128 0x3
 2727 00d8 0E       		.uleb128 0xe
 2728 00d9 3A       		.uleb128 0x3a
 2729 00da 0B       		.uleb128 0xb
 2730 00db 3B       		.uleb128 0x3b
 2731 00dc 05       		.uleb128 0x5
 2732 00dd 27       		.uleb128 0x27
 2733 00de 19       		.uleb128 0x19
 2734 00df 49       		.uleb128 0x49
 2735 00e0 13       		.uleb128 0x13
 2736 00e1 11       		.uleb128 0x11
 2737 00e2 01       		.uleb128 0x1
 2738 00e3 12       		.uleb128 0x12
 2739 00e4 06       		.uleb128 0x6
 2740 00e5 40       		.uleb128 0x40
 2741 00e6 18       		.uleb128 0x18
 2742 00e7 9742     		.uleb128 0x2117
 2743 00e9 19       		.uleb128 0x19
 2744 00ea 00       		.byte	0
 2745 00eb 00       		.byte	0
 2746 00ec 10       		.uleb128 0x10
 2747 00ed 2E       		.uleb128 0x2e
 2748 00ee 00       		.byte	0
 2749 00ef 3F       		.uleb128 0x3f
 2750 00f0 19       		.uleb128 0x19
 2751 00f1 03       		.uleb128 0x3
 2752 00f2 0E       		.uleb128 0xe
 2753 00f3 3A       		.uleb128 0x3a
 2754 00f4 0B       		.uleb128 0xb
 2755 00f5 3B       		.uleb128 0x3b
 2756 00f6 05       		.uleb128 0x5
 2757 00f7 27       		.uleb128 0x27
 2758 00f8 19       		.uleb128 0x19
 2759 00f9 11       		.uleb128 0x11
 2760 00fa 01       		.uleb128 0x1
 2761 00fb 12       		.uleb128 0x12
 2762 00fc 06       		.uleb128 0x6
 2763 00fd 40       		.uleb128 0x40
 2764 00fe 18       		.uleb128 0x18
 2765 00ff 9642     		.uleb128 0x2116
 2766 0101 19       		.uleb128 0x19
ARM GAS  C:\Users\EDULU~1.DES\AppData\Local\Temp\cc10QHjd.s 			page 70


 2767 0102 00       		.byte	0
 2768 0103 00       		.byte	0
 2769 0104 11       		.uleb128 0x11
 2770 0105 2E       		.uleb128 0x2e
 2771 0106 01       		.byte	0x1
 2772 0107 3F       		.uleb128 0x3f
 2773 0108 19       		.uleb128 0x19
 2774 0109 03       		.uleb128 0x3
 2775 010a 0E       		.uleb128 0xe
 2776 010b 3A       		.uleb128 0x3a
 2777 010c 0B       		.uleb128 0xb
 2778 010d 3B       		.uleb128 0x3b
 2779 010e 05       		.uleb128 0x5
 2780 010f 27       		.uleb128 0x27
 2781 0110 19       		.uleb128 0x19
 2782 0111 11       		.uleb128 0x11
 2783 0112 01       		.uleb128 0x1
 2784 0113 12       		.uleb128 0x12
 2785 0114 06       		.uleb128 0x6
 2786 0115 40       		.uleb128 0x40
 2787 0116 18       		.uleb128 0x18
 2788 0117 9642     		.uleb128 0x2116
 2789 0119 19       		.uleb128 0x19
 2790 011a 01       		.uleb128 0x1
 2791 011b 13       		.uleb128 0x13
 2792 011c 00       		.byte	0
 2793 011d 00       		.byte	0
 2794 011e 12       		.uleb128 0x12
 2795 011f 26       		.uleb128 0x26
 2796 0120 00       		.byte	0
 2797 0121 49       		.uleb128 0x49
 2798 0122 13       		.uleb128 0x13
 2799 0123 00       		.byte	0
 2800 0124 00       		.byte	0
 2801 0125 13       		.uleb128 0x13
 2802 0126 2E       		.uleb128 0x2e
 2803 0127 01       		.byte	0x1
 2804 0128 03       		.uleb128 0x3
 2805 0129 0E       		.uleb128 0xe
 2806 012a 3A       		.uleb128 0x3a
 2807 012b 0B       		.uleb128 0xb
 2808 012c 3B       		.uleb128 0x3b
 2809 012d 05       		.uleb128 0x5
 2810 012e 27       		.uleb128 0x27
 2811 012f 19       		.uleb128 0x19
 2812 0130 49       		.uleb128 0x49
 2813 0131 13       		.uleb128 0x13
 2814 0132 11       		.uleb128 0x11
 2815 0133 01       		.uleb128 0x1
 2816 0134 12       		.uleb128 0x12
 2817 0135 06       		.uleb128 0x6
 2818 0136 40       		.uleb128 0x40
 2819 0137 18       		.uleb128 0x18
 2820 0138 9642     		.uleb128 0x2116
 2821 013a 19       		.uleb128 0x19
 2822 013b 01       		.uleb128 0x1
 2823 013c 13       		.uleb128 0x13
ARM GAS  C:\Users\EDULU~1.DES\AppData\Local\Temp\cc10QHjd.s 			page 71


 2824 013d 00       		.byte	0
 2825 013e 00       		.byte	0
 2826 013f 14       		.uleb128 0x14
 2827 0140 34       		.uleb128 0x34
 2828 0141 00       		.byte	0
 2829 0142 03       		.uleb128 0x3
 2830 0143 0E       		.uleb128 0xe
 2831 0144 3A       		.uleb128 0x3a
 2832 0145 0B       		.uleb128 0xb
 2833 0146 3B       		.uleb128 0x3b
 2834 0147 0B       		.uleb128 0xb
 2835 0148 49       		.uleb128 0x49
 2836 0149 13       		.uleb128 0x13
 2837 014a 3F       		.uleb128 0x3f
 2838 014b 19       		.uleb128 0x19
 2839 014c 3C       		.uleb128 0x3c
 2840 014d 19       		.uleb128 0x19
 2841 014e 00       		.byte	0
 2842 014f 00       		.byte	0
 2843 0150 15       		.uleb128 0x15
 2844 0151 34       		.uleb128 0x34
 2845 0152 00       		.byte	0
 2846 0153 03       		.uleb128 0x3
 2847 0154 0E       		.uleb128 0xe
 2848 0155 3A       		.uleb128 0x3a
 2849 0156 0B       		.uleb128 0xb
 2850 0157 3B       		.uleb128 0x3b
 2851 0158 0B       		.uleb128 0xb
 2852 0159 49       		.uleb128 0x49
 2853 015a 13       		.uleb128 0x13
 2854 015b 3F       		.uleb128 0x3f
 2855 015c 19       		.uleb128 0x19
 2856 015d 02       		.uleb128 0x2
 2857 015e 18       		.uleb128 0x18
 2858 015f 00       		.byte	0
 2859 0160 00       		.byte	0
 2860 0161 00       		.byte	0
 2861              		.section	.debug_aranges,"",%progbits
 2862 0000 94000000 		.4byte	0x94
 2863 0004 0200     		.2byte	0x2
 2864 0006 00000000 		.4byte	.Ldebug_info0
 2865 000a 04       		.byte	0x4
 2866 000b 00       		.byte	0
 2867 000c 0000     		.2byte	0
 2868 000e 0000     		.2byte	0
 2869 0010 00000000 		.4byte	.LFB0
 2870 0014 28010000 		.4byte	.LFE0-.LFB0
 2871 0018 00000000 		.4byte	.LFB1
 2872 001c 38010000 		.4byte	.LFE1-.LFB1
 2873 0020 00000000 		.4byte	.LFB2
 2874 0024 F4000000 		.4byte	.LFE2-.LFB2
 2875 0028 00000000 		.4byte	.LFB3
 2876 002c A0000000 		.4byte	.LFE3-.LFB3
 2877 0030 00000000 		.4byte	.LFB4
 2878 0034 84000000 		.4byte	.LFE4-.LFB4
 2879 0038 00000000 		.4byte	.LFB5
 2880 003c 74000000 		.4byte	.LFE5-.LFB5
ARM GAS  C:\Users\EDULU~1.DES\AppData\Local\Temp\cc10QHjd.s 			page 72


 2881 0040 00000000 		.4byte	.LFB6
 2882 0044 B4000000 		.4byte	.LFE6-.LFB6
 2883 0048 00000000 		.4byte	.LFB7
 2884 004c 14000000 		.4byte	.LFE7-.LFB7
 2885 0050 00000000 		.4byte	.LFB8
 2886 0054 14000000 		.4byte	.LFE8-.LFB8
 2887 0058 00000000 		.4byte	.LFB9
 2888 005c 34000000 		.4byte	.LFE9-.LFB9
 2889 0060 00000000 		.4byte	.LFB10
 2890 0064 34000000 		.4byte	.LFE10-.LFB10
 2891 0068 00000000 		.4byte	.LFB11
 2892 006c 44000000 		.4byte	.LFE11-.LFB11
 2893 0070 00000000 		.4byte	.LFB12
 2894 0074 30000000 		.4byte	.LFE12-.LFB12
 2895 0078 00000000 		.4byte	.LFB13
 2896 007c 00010000 		.4byte	.LFE13-.LFB13
 2897 0080 00000000 		.4byte	.LFB14
 2898 0084 04010000 		.4byte	.LFE14-.LFB14
 2899 0088 00000000 		.4byte	.LFB15
 2900 008c 4A000000 		.4byte	.LFE15-.LFB15
 2901 0090 00000000 		.4byte	0
 2902 0094 00000000 		.4byte	0
 2903              		.section	.debug_ranges,"",%progbits
 2904              	.Ldebug_ranges0:
 2905 0000 00000000 		.4byte	.LFB0
 2906 0004 28010000 		.4byte	.LFE0
 2907 0008 00000000 		.4byte	.LFB1
 2908 000c 38010000 		.4byte	.LFE1
 2909 0010 00000000 		.4byte	.LFB2
 2910 0014 F4000000 		.4byte	.LFE2
 2911 0018 00000000 		.4byte	.LFB3
 2912 001c A0000000 		.4byte	.LFE3
 2913 0020 00000000 		.4byte	.LFB4
 2914 0024 84000000 		.4byte	.LFE4
 2915 0028 00000000 		.4byte	.LFB5
 2916 002c 74000000 		.4byte	.LFE5
 2917 0030 00000000 		.4byte	.LFB6
 2918 0034 B4000000 		.4byte	.LFE6
 2919 0038 00000000 		.4byte	.LFB7
 2920 003c 14000000 		.4byte	.LFE7
 2921 0040 00000000 		.4byte	.LFB8
 2922 0044 14000000 		.4byte	.LFE8
 2923 0048 00000000 		.4byte	.LFB9
 2924 004c 34000000 		.4byte	.LFE9
 2925 0050 00000000 		.4byte	.LFB10
 2926 0054 34000000 		.4byte	.LFE10
 2927 0058 00000000 		.4byte	.LFB11
 2928 005c 44000000 		.4byte	.LFE11
 2929 0060 00000000 		.4byte	.LFB12
 2930 0064 30000000 		.4byte	.LFE12
 2931 0068 00000000 		.4byte	.LFB13
 2932 006c 00010000 		.4byte	.LFE13
 2933 0070 00000000 		.4byte	.LFB14
 2934 0074 04010000 		.4byte	.LFE14
 2935 0078 00000000 		.4byte	.LFB15
 2936 007c 4A000000 		.4byte	.LFE15
 2937 0080 00000000 		.4byte	0
ARM GAS  C:\Users\EDULU~1.DES\AppData\Local\Temp\cc10QHjd.s 			page 73


 2938 0084 00000000 		.4byte	0
 2939              		.section	.debug_line,"",%progbits
 2940              	.Ldebug_line0:
 2941 0000 ED020000 		.section	.debug_str,"MS",%progbits,1
 2941      02005C00 
 2941      00000201 
 2941      FB0E0D00 
 2941      01010101 
 2942              	.LASF10:
 2943 0000 75696E74 		.ascii	"uint16\000"
 2943      313600
 2944              	.LASF45:
 2945 0007 6F6E6555 		.ascii	"oneUnit\000"
 2945      6E697400 
 2946              	.LASF36:
 2947 000f 72644279 		.ascii	"rdByte\000"
 2947      746500
 2948              	.LASF22:
 2949 0016 4932435F 		.ascii	"I2C_I2CMasterReadBuf\000"
 2949      4932434D 
 2949      61737465 
 2949      72526561 
 2949      64427566 
 2950              	.LASF59:
 2951 002b 4932435F 		.ascii	"I2C_mstrWrBufIndex\000"
 2951      6D737472 
 2951      57724275 
 2951      66496E64 
 2951      657800
 2952              	.LASF39:
 2953 003e 4932435F 		.ascii	"I2C_I2CMasterGetWriteBufSize\000"
 2953      4932434D 
 2953      61737465 
 2953      72476574 
 2953      57726974 
 2954              	.LASF7:
 2955 005b 6C6F6E67 		.ascii	"long long unsigned int\000"
 2955      206C6F6E 
 2955      6720756E 
 2955      7369676E 
 2955      65642069 
 2956              	.LASF40:
 2957 0072 4932435F 		.ascii	"I2C_I2CMasterClearReadBuf\000"
 2957      4932434D 
 2957      61737465 
 2957      72436C65 
 2957      61725265 
 2958              	.LASF38:
 2959 008c 4932435F 		.ascii	"I2C_I2CMasterGetReadBufSize\000"
 2959      4932434D 
 2959      61737465 
 2959      72476574 
 2959      52656164 
 2960              	.LASF49:
 2961 00a8 4932435F 		.ascii	"I2C_I2CMasterHandleStatus\000"
 2961      4932434D 
 2961      61737465 
ARM GAS  C:\Users\EDULU~1.DES\AppData\Local\Temp\cc10QHjd.s 			page 74


 2961      7248616E 
 2961      646C6553 
 2962              	.LASF37:
 2963 00c2 72784E6F 		.ascii	"rxNotEmpty\000"
 2963      74456D70 
 2963      747900
 2964              	.LASF6:
 2965 00cd 6C6F6E67 		.ascii	"long long int\000"
 2965      206C6F6E 
 2965      6720696E 
 2965      7400
 2966              	.LASF0:
 2967 00db 7369676E 		.ascii	"signed char\000"
 2967      65642063 
 2967      68617200 
 2968              	.LASF23:
 2969 00e7 72644461 		.ascii	"rdData\000"
 2969      746100
 2970              	.LASF60:
 2971 00ee 4932435F 		.ascii	"I2C_mstrWrBufIndexTmp\000"
 2971      6D737472 
 2971      57724275 
 2971      66496E64 
 2971      6578546D 
 2972              	.LASF4:
 2973 0104 6C6F6E67 		.ascii	"long int\000"
 2973      20696E74 
 2973      00
 2974              	.LASF62:
 2975 010d 47656E65 		.ascii	"Generated_Source\\PSoC4\\I2C_I2C_MASTER.c\000"
 2975      72617465 
 2975      645F536F 
 2975      75726365 
 2975      5C50536F 
 2976              	.LASF57:
 2977 0135 4932435F 		.ascii	"I2C_mstrWrBufPtr\000"
 2977      6D737472 
 2977      57724275 
 2977      66507472 
 2977      00
 2978              	.LASF9:
 2979 0146 75696E74 		.ascii	"uint8\000"
 2979      3800
 2980              	.LASF13:
 2981 014c 646F7562 		.ascii	"double\000"
 2981      6C6500
 2982              	.LASF34:
 2983 0153 4932435F 		.ascii	"I2C_I2CMasterReadByte\000"
 2983      4932434D 
 2983      61737465 
 2983      72526561 
 2983      64427974 
 2984              	.LASF11:
 2985 0169 75696E74 		.ascii	"uint32\000"
 2985      333200
 2986              	.LASF42:
 2987 0170 4932435F 		.ascii	"I2C_I2CMasterStatus\000"
ARM GAS  C:\Users\EDULU~1.DES\AppData\Local\Temp\cc10QHjd.s 			page 75


 2987      4932434D 
 2987      61737465 
 2987      72537461 
 2987      74757300 
 2988              	.LASF28:
 2989 0184 6C6F6353 		.ascii	"locStatus\000"
 2989      74617475 
 2989      7300
 2990              	.LASF8:
 2991 018e 756E7369 		.ascii	"unsigned int\000"
 2991      676E6564 
 2991      20696E74 
 2991      00
 2992              	.LASF55:
 2993 019b 4932435F 		.ascii	"I2C_mstrRdBufSize\000"
 2993      6D737472 
 2993      52644275 
 2993      6653697A 
 2993      6500
 2994              	.LASF25:
 2995 01ad 4932435F 		.ascii	"I2C_I2CMasterSendStart\000"
 2995      4932434D 
 2995      61737465 
 2995      7253656E 
 2995      64537461 
 2996              	.LASF5:
 2997 01c4 6C6F6E67 		.ascii	"long unsigned int\000"
 2997      20756E73 
 2997      69676E65 
 2997      6420696E 
 2997      7400
 2998              	.LASF35:
 2999 01d6 61636B4E 		.ascii	"ackNack\000"
 2999      61636B00 
 3000              	.LASF29:
 3001 01de 74696D65 		.ascii	"timeout\000"
 3001      6F757400 
 3002              	.LASF24:
 3003 01e6 65727253 		.ascii	"errStatus\000"
 3003      74617475 
 3003      7300
 3004              	.LASF3:
 3005 01f0 73686F72 		.ascii	"short unsigned int\000"
 3005      7420756E 
 3005      7369676E 
 3005      65642069 
 3005      6E7400
 3006              	.LASF31:
 3007 0203 4932435F 		.ascii	"I2C_I2CMasterSendStop\000"
 3007      4932434D 
 3007      61737465 
 3007      7253656E 
 3007      6453746F 
 3008              	.LASF61:
 3009 0219 474E5520 		.ascii	"GNU C11 5.4.1 20160609 (release) [ARM/embedded-5-br"
 3009      43313120 
 3009      352E342E 
ARM GAS  C:\Users\EDULU~1.DES\AppData\Local\Temp\cc10QHjd.s 			page 76


 3009      31203230 
 3009      31363036 
 3010 024c 616E6368 		.ascii	"anch revision 237715] -mcpu=cortex-m0 -mthumb -g -O"
 3010      20726576 
 3010      6973696F 
 3010      6E203233 
 3010      37373135 
 3011 027f 30202D66 		.ascii	"0 -ffunction-sections -ffat-lto-objects\000"
 3011      66756E63 
 3011      74696F6E 
 3011      2D736563 
 3011      74696F6E 
 3012              	.LASF50:
 3013 02a7 4932435F 		.ascii	"I2C_I2CMasterWaitOneUnit\000"
 3013      4932434D 
 3013      61737465 
 3013      72576169 
 3013      744F6E65 
 3014              	.LASF26:
 3015 02c0 62697452 		.ascii	"bitRnW\000"
 3015      6E5700
 3016              	.LASF15:
 3017 02c7 72656733 		.ascii	"reg32\000"
 3017      3200
 3018              	.LASF44:
 3019 02cd 4932435F 		.ascii	"I2C_I2CMasterClearStatus\000"
 3019      4932434D 
 3019      61737465 
 3019      72436C65 
 3019      61725374 
 3020              	.LASF52:
 3021 02e6 4932435F 		.ascii	"I2C_mstrStatus\000"
 3021      6D737472 
 3021      53746174 
 3021      757300
 3022              	.LASF17:
 3023 02f5 73697A65 		.ascii	"sizetype\000"
 3023      74797065 
 3023      00
 3024              	.LASF16:
 3025 02fe 6C6F6E67 		.ascii	"long double\000"
 3025      20646F75 
 3025      626C6500 
 3026              	.LASF51:
 3027 030a 4932435F 		.ascii	"I2C_state\000"
 3027      73746174 
 3027      6500
 3028              	.LASF12:
 3029 0314 666C6F61 		.ascii	"float\000"
 3029      7400
 3030              	.LASF46:
 3031 031a 72656164 		.ascii	"readDirection\000"
 3031      44697265 
 3031      6374696F 
 3031      6E00
 3032              	.LASF18:
 3033 0328 736C6176 		.ascii	"slaveAddress\000"
ARM GAS  C:\Users\EDULU~1.DES\AppData\Local\Temp\cc10QHjd.s 			page 77


 3033      65416464 
 3033      72657373 
 3033      00
 3034              	.LASF1:
 3035 0335 756E7369 		.ascii	"unsigned char\000"
 3035      676E6564 
 3035      20636861 
 3035      7200
 3036              	.LASF64:
 3037 0343 4932435F 		.ascii	"I2C_I2CReStartGeneration\000"
 3037      49324352 
 3037      65537461 
 3037      72744765 
 3037      6E657261 
 3038              	.LASF2:
 3039 035c 73686F72 		.ascii	"short int\000"
 3039      7420696E 
 3039      7400
 3040              	.LASF33:
 3041 0366 77724279 		.ascii	"wrByte\000"
 3041      746500
 3042              	.LASF14:
 3043 036d 63686172 		.ascii	"char\000"
 3043      00
 3044              	.LASF20:
 3045 0372 6D6F6465 		.ascii	"mode\000"
 3045      00
 3046              	.LASF41:
 3047 0377 4932435F 		.ascii	"I2C_I2CMasterClearWriteBuf\000"
 3047      4932434D 
 3047      61737465 
 3047      72436C65 
 3047      61725772 
 3048              	.LASF30:
 3049 0392 4932435F 		.ascii	"I2C_I2CMasterSendRestart\000"
 3049      4932434D 
 3049      61737465 
 3049      7253656E 
 3049      64526573 
 3050              	.LASF27:
 3051 03ab 74696D65 		.ascii	"timeoutMs\000"
 3051      6F75744D 
 3051      7300
 3052              	.LASF19:
 3053 03b5 77724461 		.ascii	"wrData\000"
 3053      746100
 3054              	.LASF58:
 3055 03bc 4932435F 		.ascii	"I2C_mstrWrBufSize\000"
 3055      6D737472 
 3055      57724275 
 3055      6653697A 
 3055      6500
 3056              	.LASF43:
 3057 03ce 73746174 		.ascii	"status\000"
 3057      757300
 3058              	.LASF21:
 3059 03d5 4932435F 		.ascii	"I2C_I2CMasterWriteBuf\000"
ARM GAS  C:\Users\EDULU~1.DES\AppData\Local\Temp\cc10QHjd.s 			page 78


 3059      4932434D 
 3059      61737465 
 3059      72577269 
 3059      74654275 
 3060              	.LASF54:
 3061 03eb 4932435F 		.ascii	"I2C_mstrRdBufPtr\000"
 3061      6D737472 
 3061      52644275 
 3061      66507472 
 3061      00
 3062              	.LASF32:
 3063 03fc 4932435F 		.ascii	"I2C_I2CMasterWriteByte\000"
 3063      4932434D 
 3063      61737465 
 3063      72577269 
 3063      74654279 
 3064              	.LASF53:
 3065 0413 4932435F 		.ascii	"I2C_mstrControl\000"
 3065      6D737472 
 3065      436F6E74 
 3065      726F6C00 
 3066              	.LASF63:
 3067 0423 433A5C55 		.ascii	"C:\\Users\\edulu.DESKTOP-961TG4K\\Documents\\PSoC C"
 3067      73657273 
 3067      5C656475 
 3067      6C752E44 
 3067      45534B54 
 3068 0452 72656174 		.ascii	"reator\\Micrium\\Examples\\Cypress\\CY8CKIT-044\\OS"
 3068      6F725C4D 
 3068      69637269 
 3068      756D5C45 
 3068      78616D70 
 3069 0480 325C5053 		.ascii	"2\\PSoC\\OS2.cydsn\000"
 3069      6F435C4F 
 3069      53322E63 
 3069      7964736E 
 3069      00
 3070              	.LASF48:
 3071 0491 72657365 		.ascii	"resetBlock\000"
 3071      74426C6F 
 3071      636B00
 3072              	.LASF56:
 3073 049c 4932435F 		.ascii	"I2C_mstrRdBufIndex\000"
 3073      6D737472 
 3073      52644275 
 3073      66496E64 
 3073      657800
 3074              	.LASF47:
 3075 04af 72657453 		.ascii	"retStatus\000"
 3075      74617475 
 3075      7300
 3076              		.ident	"GCC: (GNU Tools for ARM Embedded Processors) 5.4.1 20160609 (release) [ARM/embedded-5-bran
