ARM GAS  C:\Users\EDULU~1.DES\AppData\Local\Temp\ccKclfbr.s 			page 1


   1              		.syntax unified
   2              		.cpu cortex-m0
   3              		.fpu softvfp
   4              		.eabi_attribute 20, 1
   5              		.eabi_attribute 21, 1
   6              		.eabi_attribute 23, 3
   7              		.eabi_attribute 24, 1
   8              		.eabi_attribute 25, 1
   9              		.eabi_attribute 26, 1
  10              		.eabi_attribute 30, 6
  11              		.eabi_attribute 34, 0
  12              		.eabi_attribute 18, 4
  13              		.thumb
  14              		.syntax unified
  15              		.file	"os_core.c"
  16              		.text
  17              	.Ltext0:
  18              		.cfi_sections	.debug_frame
  19              		.comm	OSCtxSwCtr,4,4
  20              		.comm	OSEventFreeList,4,4
  21              		.comm	OSEventTbl,80,4
  22              		.comm	OSCPUUsage,1,1
  23              		.comm	OSIdleCtrMax,4,4
  24              		.comm	OSIdleCtrRun,4,4
  25              		.comm	OSStatRdy,1,1
  26              		.comm	OSTaskStatStk,512,4
  27              		.comm	OSIntNesting,1,1
  28              		.comm	OSLockNesting,1,1
  29              		.comm	OSPrioCur,1,1
  30              		.comm	OSPrioHighRdy,1,1
  31              		.comm	OSRdyGrp,1,1
  32              		.comm	OSRdyTbl,4,4
  33              		.comm	OSRunning,1,1
  34              		.comm	OSTaskCtr,1,1
  35              		.comm	OSIdleCtr,4,4
  36              		.comm	OSTaskIdleStk,512,4
  37              		.comm	OSTCBCur,4,4
  38              		.comm	OSTCBFreeList,4,4
  39              		.comm	OSTCBHighRdy,4,4
  40              		.comm	OSTCBList,4,4
  41              		.comm	OSTCBPrioTbl,128,4
  42              		.comm	OSTCBTbl,384,4
  43              		.comm	OSTickStepState,1,1
  44              		.comm	OSTaskRegNextAvailID,1,1
  45              		.comm	OSTime,4,4
  46              		.comm	OSTmrFree,2,2
  47              		.comm	OSTmrUsed,2,2
  48              		.comm	OSTmrTime,4,4
  49              		.comm	OSTmrSem,4,4
  50              		.comm	OSTmrSemSignal,4,4
  51              		.comm	OSTmrTbl,640,4
  52              		.comm	OSTmrFreeList,4,4
  53              		.comm	OSTmrTaskStk,512,4
  54              		.comm	OSTmrWheelTbl,56,4
  55              		.global	OSUnMapTbl
  56              		.section	.rodata
  57              		.align	2
ARM GAS  C:\Users\EDULU~1.DES\AppData\Local\Temp\ccKclfbr.s 			page 2


  58              		.type	OSUnMapTbl, %object
  59              		.size	OSUnMapTbl, 256
  60              	OSUnMapTbl:
  61 0000 00       		.byte	0
  62 0001 00       		.byte	0
  63 0002 01       		.byte	1
  64 0003 00       		.byte	0
  65 0004 02       		.byte	2
  66 0005 00       		.byte	0
  67 0006 01       		.byte	1
  68 0007 00       		.byte	0
  69 0008 03       		.byte	3
  70 0009 00       		.byte	0
  71 000a 01       		.byte	1
  72 000b 00       		.byte	0
  73 000c 02       		.byte	2
  74 000d 00       		.byte	0
  75 000e 01       		.byte	1
  76 000f 00       		.byte	0
  77 0010 04       		.byte	4
  78 0011 00       		.byte	0
  79 0012 01       		.byte	1
  80 0013 00       		.byte	0
  81 0014 02       		.byte	2
  82 0015 00       		.byte	0
  83 0016 01       		.byte	1
  84 0017 00       		.byte	0
  85 0018 03       		.byte	3
  86 0019 00       		.byte	0
  87 001a 01       		.byte	1
  88 001b 00       		.byte	0
  89 001c 02       		.byte	2
  90 001d 00       		.byte	0
  91 001e 01       		.byte	1
  92 001f 00       		.byte	0
  93 0020 05       		.byte	5
  94 0021 00       		.byte	0
  95 0022 01       		.byte	1
  96 0023 00       		.byte	0
  97 0024 02       		.byte	2
  98 0025 00       		.byte	0
  99 0026 01       		.byte	1
 100 0027 00       		.byte	0
 101 0028 03       		.byte	3
 102 0029 00       		.byte	0
 103 002a 01       		.byte	1
 104 002b 00       		.byte	0
 105 002c 02       		.byte	2
 106 002d 00       		.byte	0
 107 002e 01       		.byte	1
 108 002f 00       		.byte	0
 109 0030 04       		.byte	4
 110 0031 00       		.byte	0
 111 0032 01       		.byte	1
 112 0033 00       		.byte	0
 113 0034 02       		.byte	2
 114 0035 00       		.byte	0
ARM GAS  C:\Users\EDULU~1.DES\AppData\Local\Temp\ccKclfbr.s 			page 3


 115 0036 01       		.byte	1
 116 0037 00       		.byte	0
 117 0038 03       		.byte	3
 118 0039 00       		.byte	0
 119 003a 01       		.byte	1
 120 003b 00       		.byte	0
 121 003c 02       		.byte	2
 122 003d 00       		.byte	0
 123 003e 01       		.byte	1
 124 003f 00       		.byte	0
 125 0040 06       		.byte	6
 126 0041 00       		.byte	0
 127 0042 01       		.byte	1
 128 0043 00       		.byte	0
 129 0044 02       		.byte	2
 130 0045 00       		.byte	0
 131 0046 01       		.byte	1
 132 0047 00       		.byte	0
 133 0048 03       		.byte	3
 134 0049 00       		.byte	0
 135 004a 01       		.byte	1
 136 004b 00       		.byte	0
 137 004c 02       		.byte	2
 138 004d 00       		.byte	0
 139 004e 01       		.byte	1
 140 004f 00       		.byte	0
 141 0050 04       		.byte	4
 142 0051 00       		.byte	0
 143 0052 01       		.byte	1
 144 0053 00       		.byte	0
 145 0054 02       		.byte	2
 146 0055 00       		.byte	0
 147 0056 01       		.byte	1
 148 0057 00       		.byte	0
 149 0058 03       		.byte	3
 150 0059 00       		.byte	0
 151 005a 01       		.byte	1
 152 005b 00       		.byte	0
 153 005c 02       		.byte	2
 154 005d 00       		.byte	0
 155 005e 01       		.byte	1
 156 005f 00       		.byte	0
 157 0060 05       		.byte	5
 158 0061 00       		.byte	0
 159 0062 01       		.byte	1
 160 0063 00       		.byte	0
 161 0064 02       		.byte	2
 162 0065 00       		.byte	0
 163 0066 01       		.byte	1
 164 0067 00       		.byte	0
 165 0068 03       		.byte	3
 166 0069 00       		.byte	0
 167 006a 01       		.byte	1
 168 006b 00       		.byte	0
 169 006c 02       		.byte	2
 170 006d 00       		.byte	0
 171 006e 01       		.byte	1
ARM GAS  C:\Users\EDULU~1.DES\AppData\Local\Temp\ccKclfbr.s 			page 4


 172 006f 00       		.byte	0
 173 0070 04       		.byte	4
 174 0071 00       		.byte	0
 175 0072 01       		.byte	1
 176 0073 00       		.byte	0
 177 0074 02       		.byte	2
 178 0075 00       		.byte	0
 179 0076 01       		.byte	1
 180 0077 00       		.byte	0
 181 0078 03       		.byte	3
 182 0079 00       		.byte	0
 183 007a 01       		.byte	1
 184 007b 00       		.byte	0
 185 007c 02       		.byte	2
 186 007d 00       		.byte	0
 187 007e 01       		.byte	1
 188 007f 00       		.byte	0
 189 0080 07       		.byte	7
 190 0081 00       		.byte	0
 191 0082 01       		.byte	1
 192 0083 00       		.byte	0
 193 0084 02       		.byte	2
 194 0085 00       		.byte	0
 195 0086 01       		.byte	1
 196 0087 00       		.byte	0
 197 0088 03       		.byte	3
 198 0089 00       		.byte	0
 199 008a 01       		.byte	1
 200 008b 00       		.byte	0
 201 008c 02       		.byte	2
 202 008d 00       		.byte	0
 203 008e 01       		.byte	1
 204 008f 00       		.byte	0
 205 0090 04       		.byte	4
 206 0091 00       		.byte	0
 207 0092 01       		.byte	1
 208 0093 00       		.byte	0
 209 0094 02       		.byte	2
 210 0095 00       		.byte	0
 211 0096 01       		.byte	1
 212 0097 00       		.byte	0
 213 0098 03       		.byte	3
 214 0099 00       		.byte	0
 215 009a 01       		.byte	1
 216 009b 00       		.byte	0
 217 009c 02       		.byte	2
 218 009d 00       		.byte	0
 219 009e 01       		.byte	1
 220 009f 00       		.byte	0
 221 00a0 05       		.byte	5
 222 00a1 00       		.byte	0
 223 00a2 01       		.byte	1
 224 00a3 00       		.byte	0
 225 00a4 02       		.byte	2
 226 00a5 00       		.byte	0
 227 00a6 01       		.byte	1
 228 00a7 00       		.byte	0
ARM GAS  C:\Users\EDULU~1.DES\AppData\Local\Temp\ccKclfbr.s 			page 5


 229 00a8 03       		.byte	3
 230 00a9 00       		.byte	0
 231 00aa 01       		.byte	1
 232 00ab 00       		.byte	0
 233 00ac 02       		.byte	2
 234 00ad 00       		.byte	0
 235 00ae 01       		.byte	1
 236 00af 00       		.byte	0
 237 00b0 04       		.byte	4
 238 00b1 00       		.byte	0
 239 00b2 01       		.byte	1
 240 00b3 00       		.byte	0
 241 00b4 02       		.byte	2
 242 00b5 00       		.byte	0
 243 00b6 01       		.byte	1
 244 00b7 00       		.byte	0
 245 00b8 03       		.byte	3
 246 00b9 00       		.byte	0
 247 00ba 01       		.byte	1
 248 00bb 00       		.byte	0
 249 00bc 02       		.byte	2
 250 00bd 00       		.byte	0
 251 00be 01       		.byte	1
 252 00bf 00       		.byte	0
 253 00c0 06       		.byte	6
 254 00c1 00       		.byte	0
 255 00c2 01       		.byte	1
 256 00c3 00       		.byte	0
 257 00c4 02       		.byte	2
 258 00c5 00       		.byte	0
 259 00c6 01       		.byte	1
 260 00c7 00       		.byte	0
 261 00c8 03       		.byte	3
 262 00c9 00       		.byte	0
 263 00ca 01       		.byte	1
 264 00cb 00       		.byte	0
 265 00cc 02       		.byte	2
 266 00cd 00       		.byte	0
 267 00ce 01       		.byte	1
 268 00cf 00       		.byte	0
 269 00d0 04       		.byte	4
 270 00d1 00       		.byte	0
 271 00d2 01       		.byte	1
 272 00d3 00       		.byte	0
 273 00d4 02       		.byte	2
 274 00d5 00       		.byte	0
 275 00d6 01       		.byte	1
 276 00d7 00       		.byte	0
 277 00d8 03       		.byte	3
 278 00d9 00       		.byte	0
 279 00da 01       		.byte	1
 280 00db 00       		.byte	0
 281 00dc 02       		.byte	2
 282 00dd 00       		.byte	0
 283 00de 01       		.byte	1
 284 00df 00       		.byte	0
 285 00e0 05       		.byte	5
ARM GAS  C:\Users\EDULU~1.DES\AppData\Local\Temp\ccKclfbr.s 			page 6


 286 00e1 00       		.byte	0
 287 00e2 01       		.byte	1
 288 00e3 00       		.byte	0
 289 00e4 02       		.byte	2
 290 00e5 00       		.byte	0
 291 00e6 01       		.byte	1
 292 00e7 00       		.byte	0
 293 00e8 03       		.byte	3
 294 00e9 00       		.byte	0
 295 00ea 01       		.byte	1
 296 00eb 00       		.byte	0
 297 00ec 02       		.byte	2
 298 00ed 00       		.byte	0
 299 00ee 01       		.byte	1
 300 00ef 00       		.byte	0
 301 00f0 04       		.byte	4
 302 00f1 00       		.byte	0
 303 00f2 01       		.byte	1
 304 00f3 00       		.byte	0
 305 00f4 02       		.byte	2
 306 00f5 00       		.byte	0
 307 00f6 01       		.byte	1
 308 00f7 00       		.byte	0
 309 00f8 03       		.byte	3
 310 00f9 00       		.byte	0
 311 00fa 01       		.byte	1
 312 00fb 00       		.byte	0
 313 00fc 02       		.byte	2
 314 00fd 00       		.byte	0
 315 00fe 01       		.byte	1
 316 00ff 00       		.byte	0
 317              		.section	.text.OSInit,"ax",%progbits
 318              		.align	2
 319              		.global	OSInit
 320              		.code	16
 321              		.thumb_func
 322              		.type	OSInit, %function
 323              	OSInit:
 324              	.LFB1:
 325              		.file 1 "..\\..\\..\\..\\..\\..\\Software\\uCOS-II\\Source\\os_core.c"
   1:..\..\..\..\..\..\Software\uCOS-II\Source/os_core.c **** /*
   2:..\..\..\..\..\..\Software\uCOS-II\Source/os_core.c **** ***************************************************************************************************
   3:..\..\..\..\..\..\Software\uCOS-II\Source/os_core.c **** *                                                uC/OS-II
   4:..\..\..\..\..\..\Software\uCOS-II\Source/os_core.c **** *                                          The Real-Time Kernel
   5:..\..\..\..\..\..\Software\uCOS-II\Source/os_core.c **** *                                             CORE FUNCTIONS
   6:..\..\..\..\..\..\Software\uCOS-II\Source/os_core.c **** *
   7:..\..\..\..\..\..\Software\uCOS-II\Source/os_core.c **** *                              (c) Copyright 1992-2013, Micrium, Weston, FL
   8:..\..\..\..\..\..\Software\uCOS-II\Source/os_core.c **** *                                           All Rights Reserved
   9:..\..\..\..\..\..\Software\uCOS-II\Source/os_core.c **** *
  10:..\..\..\..\..\..\Software\uCOS-II\Source/os_core.c **** * File    : OS_CORE.C
  11:..\..\..\..\..\..\Software\uCOS-II\Source/os_core.c **** * By      : Jean J. Labrosse
  12:..\..\..\..\..\..\Software\uCOS-II\Source/os_core.c **** * Version : V2.92.10
  13:..\..\..\..\..\..\Software\uCOS-II\Source/os_core.c **** *
  14:..\..\..\..\..\..\Software\uCOS-II\Source/os_core.c **** * LICENSING TERMS:
  15:..\..\..\..\..\..\Software\uCOS-II\Source/os_core.c **** * ---------------
  16:..\..\..\..\..\..\Software\uCOS-II\Source/os_core.c **** *   uC/OS-II is provided in source form for FREE evaluation, for educational use or for peaceful re
  17:..\..\..\..\..\..\Software\uCOS-II\Source/os_core.c **** * If you plan on using  uC/OS-II  in a commercial product you need to contact Micrium to properly l
ARM GAS  C:\Users\EDULU~1.DES\AppData\Local\Temp\ccKclfbr.s 			page 7


  18:..\..\..\..\..\..\Software\uCOS-II\Source/os_core.c **** * its use in your product. We provide ALL the source code for your convenience and to help you expe
  19:..\..\..\..\..\..\Software\uCOS-II\Source/os_core.c **** * uC/OS-II.   The fact that the  source is provided does  NOT  mean that you can use it without  pa
  20:..\..\..\..\..\..\Software\uCOS-II\Source/os_core.c **** * licensing fee.
  21:..\..\..\..\..\..\Software\uCOS-II\Source/os_core.c **** ***************************************************************************************************
  22:..\..\..\..\..\..\Software\uCOS-II\Source/os_core.c **** */
  23:..\..\..\..\..\..\Software\uCOS-II\Source/os_core.c **** 
  24:..\..\..\..\..\..\Software\uCOS-II\Source/os_core.c **** #define  MICRIUM_SOURCE
  25:..\..\..\..\..\..\Software\uCOS-II\Source/os_core.c **** 
  26:..\..\..\..\..\..\Software\uCOS-II\Source/os_core.c **** #ifndef  OS_MASTER_FILE
  27:..\..\..\..\..\..\Software\uCOS-II\Source/os_core.c **** #define  OS_GLOBALS
  28:..\..\..\..\..\..\Software\uCOS-II\Source/os_core.c **** #include <ucos_ii.h>
  29:..\..\..\..\..\..\Software\uCOS-II\Source/os_core.c **** #endif
  30:..\..\..\..\..\..\Software\uCOS-II\Source/os_core.c **** 
  31:..\..\..\..\..\..\Software\uCOS-II\Source/os_core.c **** /*
  32:..\..\..\..\..\..\Software\uCOS-II\Source/os_core.c **** ***************************************************************************************************
  33:..\..\..\..\..\..\Software\uCOS-II\Source/os_core.c **** *                                      PRIORITY RESOLUTION TABLE
  34:..\..\..\..\..\..\Software\uCOS-II\Source/os_core.c **** *
  35:..\..\..\..\..\..\Software\uCOS-II\Source/os_core.c **** * Note: Index into table is bit pattern to resolve highest priority
  36:..\..\..\..\..\..\Software\uCOS-II\Source/os_core.c **** *       Indexed value corresponds to highest priority bit position (i.e. 0..7)
  37:..\..\..\..\..\..\Software\uCOS-II\Source/os_core.c **** ***************************************************************************************************
  38:..\..\..\..\..\..\Software\uCOS-II\Source/os_core.c **** */
  39:..\..\..\..\..\..\Software\uCOS-II\Source/os_core.c **** 
  40:..\..\..\..\..\..\Software\uCOS-II\Source/os_core.c **** INT8U  const  OSUnMapTbl[256] = {
  41:..\..\..\..\..\..\Software\uCOS-II\Source/os_core.c ****     0u, 0u, 1u, 0u, 2u, 0u, 1u, 0u, 3u, 0u, 1u, 0u, 2u, 0u, 1u, 0u, /* 0x00 to 0x0F                
  42:..\..\..\..\..\..\Software\uCOS-II\Source/os_core.c ****     4u, 0u, 1u, 0u, 2u, 0u, 1u, 0u, 3u, 0u, 1u, 0u, 2u, 0u, 1u, 0u, /* 0x10 to 0x1F                
  43:..\..\..\..\..\..\Software\uCOS-II\Source/os_core.c ****     5u, 0u, 1u, 0u, 2u, 0u, 1u, 0u, 3u, 0u, 1u, 0u, 2u, 0u, 1u, 0u, /* 0x20 to 0x2F                
  44:..\..\..\..\..\..\Software\uCOS-II\Source/os_core.c ****     4u, 0u, 1u, 0u, 2u, 0u, 1u, 0u, 3u, 0u, 1u, 0u, 2u, 0u, 1u, 0u, /* 0x30 to 0x3F                
  45:..\..\..\..\..\..\Software\uCOS-II\Source/os_core.c ****     6u, 0u, 1u, 0u, 2u, 0u, 1u, 0u, 3u, 0u, 1u, 0u, 2u, 0u, 1u, 0u, /* 0x40 to 0x4F                
  46:..\..\..\..\..\..\Software\uCOS-II\Source/os_core.c ****     4u, 0u, 1u, 0u, 2u, 0u, 1u, 0u, 3u, 0u, 1u, 0u, 2u, 0u, 1u, 0u, /* 0x50 to 0x5F                
  47:..\..\..\..\..\..\Software\uCOS-II\Source/os_core.c ****     5u, 0u, 1u, 0u, 2u, 0u, 1u, 0u, 3u, 0u, 1u, 0u, 2u, 0u, 1u, 0u, /* 0x60 to 0x6F                
  48:..\..\..\..\..\..\Software\uCOS-II\Source/os_core.c ****     4u, 0u, 1u, 0u, 2u, 0u, 1u, 0u, 3u, 0u, 1u, 0u, 2u, 0u, 1u, 0u, /* 0x70 to 0x7F                
  49:..\..\..\..\..\..\Software\uCOS-II\Source/os_core.c ****     7u, 0u, 1u, 0u, 2u, 0u, 1u, 0u, 3u, 0u, 1u, 0u, 2u, 0u, 1u, 0u, /* 0x80 to 0x8F                
  50:..\..\..\..\..\..\Software\uCOS-II\Source/os_core.c ****     4u, 0u, 1u, 0u, 2u, 0u, 1u, 0u, 3u, 0u, 1u, 0u, 2u, 0u, 1u, 0u, /* 0x90 to 0x9F                
  51:..\..\..\..\..\..\Software\uCOS-II\Source/os_core.c ****     5u, 0u, 1u, 0u, 2u, 0u, 1u, 0u, 3u, 0u, 1u, 0u, 2u, 0u, 1u, 0u, /* 0xA0 to 0xAF                
  52:..\..\..\..\..\..\Software\uCOS-II\Source/os_core.c ****     4u, 0u, 1u, 0u, 2u, 0u, 1u, 0u, 3u, 0u, 1u, 0u, 2u, 0u, 1u, 0u, /* 0xB0 to 0xBF                
  53:..\..\..\..\..\..\Software\uCOS-II\Source/os_core.c ****     6u, 0u, 1u, 0u, 2u, 0u, 1u, 0u, 3u, 0u, 1u, 0u, 2u, 0u, 1u, 0u, /* 0xC0 to 0xCF                
  54:..\..\..\..\..\..\Software\uCOS-II\Source/os_core.c ****     4u, 0u, 1u, 0u, 2u, 0u, 1u, 0u, 3u, 0u, 1u, 0u, 2u, 0u, 1u, 0u, /* 0xD0 to 0xDF                
  55:..\..\..\..\..\..\Software\uCOS-II\Source/os_core.c ****     5u, 0u, 1u, 0u, 2u, 0u, 1u, 0u, 3u, 0u, 1u, 0u, 2u, 0u, 1u, 0u, /* 0xE0 to 0xEF                
  56:..\..\..\..\..\..\Software\uCOS-II\Source/os_core.c ****     4u, 0u, 1u, 0u, 2u, 0u, 1u, 0u, 3u, 0u, 1u, 0u, 2u, 0u, 1u, 0u  /* 0xF0 to 0xFF                
  57:..\..\..\..\..\..\Software\uCOS-II\Source/os_core.c **** };
  58:..\..\..\..\..\..\Software\uCOS-II\Source/os_core.c **** 
  59:..\..\..\..\..\..\Software\uCOS-II\Source/os_core.c **** /*$PAGE*/
  60:..\..\..\..\..\..\Software\uCOS-II\Source/os_core.c **** /*
  61:..\..\..\..\..\..\Software\uCOS-II\Source/os_core.c **** ***************************************************************************************************
  62:..\..\..\..\..\..\Software\uCOS-II\Source/os_core.c **** *                                         FUNCTION PROTOTYPES
  63:..\..\..\..\..\..\Software\uCOS-II\Source/os_core.c **** ***************************************************************************************************
  64:..\..\..\..\..\..\Software\uCOS-II\Source/os_core.c **** */
  65:..\..\..\..\..\..\Software\uCOS-II\Source/os_core.c **** 
  66:..\..\..\..\..\..\Software\uCOS-II\Source/os_core.c **** static  void  OS_InitEventList(void);
  67:..\..\..\..\..\..\Software\uCOS-II\Source/os_core.c **** 
  68:..\..\..\..\..\..\Software\uCOS-II\Source/os_core.c **** static  void  OS_InitMisc(void);
  69:..\..\..\..\..\..\Software\uCOS-II\Source/os_core.c **** 
  70:..\..\..\..\..\..\Software\uCOS-II\Source/os_core.c **** static  void  OS_InitRdyList(void);
  71:..\..\..\..\..\..\Software\uCOS-II\Source/os_core.c **** 
  72:..\..\..\..\..\..\Software\uCOS-II\Source/os_core.c **** static  void  OS_InitTaskIdle(void);
  73:..\..\..\..\..\..\Software\uCOS-II\Source/os_core.c **** 
  74:..\..\..\..\..\..\Software\uCOS-II\Source/os_core.c **** #if OS_TASK_STAT_EN > 0u
ARM GAS  C:\Users\EDULU~1.DES\AppData\Local\Temp\ccKclfbr.s 			page 8


  75:..\..\..\..\..\..\Software\uCOS-II\Source/os_core.c **** static  void  OS_InitTaskStat(void);
  76:..\..\..\..\..\..\Software\uCOS-II\Source/os_core.c **** #endif
  77:..\..\..\..\..\..\Software\uCOS-II\Source/os_core.c **** 
  78:..\..\..\..\..\..\Software\uCOS-II\Source/os_core.c **** static  void  OS_InitTCBList(void);
  79:..\..\..\..\..\..\Software\uCOS-II\Source/os_core.c **** 
  80:..\..\..\..\..\..\Software\uCOS-II\Source/os_core.c **** static  void  OS_SchedNew(void);
  81:..\..\..\..\..\..\Software\uCOS-II\Source/os_core.c **** 
  82:..\..\..\..\..\..\Software\uCOS-II\Source/os_core.c **** /*$PAGE*/
  83:..\..\..\..\..\..\Software\uCOS-II\Source/os_core.c **** /*
  84:..\..\..\..\..\..\Software\uCOS-II\Source/os_core.c **** ***************************************************************************************************
  85:..\..\..\..\..\..\Software\uCOS-II\Source/os_core.c **** *                        GET THE NAME OF A SEMAPHORE, MUTEX, MAILBOX or QUEUE
  86:..\..\..\..\..\..\Software\uCOS-II\Source/os_core.c **** *
  87:..\..\..\..\..\..\Software\uCOS-II\Source/os_core.c **** * Description: This function is used to obtain the name assigned to a semaphore, mutex, mailbox or 
  88:..\..\..\..\..\..\Software\uCOS-II\Source/os_core.c **** *
  89:..\..\..\..\..\..\Software\uCOS-II\Source/os_core.c **** * Arguments  : pevent    is a pointer to the event group.  'pevent' can point either to a semaphore
  90:..\..\..\..\..\..\Software\uCOS-II\Source/os_core.c **** *                        a mutex, a mailbox or a queue.  Where this function is concerned, the actu
  91:..\..\..\..\..\..\Software\uCOS-II\Source/os_core.c **** *                        type is irrelevant.
  92:..\..\..\..\..\..\Software\uCOS-II\Source/os_core.c **** *
  93:..\..\..\..\..\..\Software\uCOS-II\Source/os_core.c **** *              pname     is a pointer to a pointer to an ASCII string that will receive the name of
  94:..\..\..\..\..\..\Software\uCOS-II\Source/os_core.c **** *                        mutex, mailbox or queue.
  95:..\..\..\..\..\..\Software\uCOS-II\Source/os_core.c **** *
  96:..\..\..\..\..\..\Software\uCOS-II\Source/os_core.c **** *              perr      is a pointer to an error code that can contain one of the following values
  97:..\..\..\..\..\..\Software\uCOS-II\Source/os_core.c **** *
  98:..\..\..\..\..\..\Software\uCOS-II\Source/os_core.c **** *                        OS_ERR_NONE                if the name was copied to 'pname'
  99:..\..\..\..\..\..\Software\uCOS-II\Source/os_core.c **** *                        OS_ERR_EVENT_TYPE          if 'pevent' is not pointing to the proper event
 100:..\..\..\..\..\..\Software\uCOS-II\Source/os_core.c **** *                                                   control block type.
 101:..\..\..\..\..\..\Software\uCOS-II\Source/os_core.c **** *                        OS_ERR_PNAME_NULL          You passed a NULL pointer for 'pname'
 102:..\..\..\..\..\..\Software\uCOS-II\Source/os_core.c **** *                        OS_ERR_PEVENT_NULL         if you passed a NULL pointer for 'pevent'
 103:..\..\..\..\..\..\Software\uCOS-II\Source/os_core.c **** *                        OS_ERR_NAME_GET_ISR        if you are trying to call this function from an
 104:..\..\..\..\..\..\Software\uCOS-II\Source/os_core.c **** *
 105:..\..\..\..\..\..\Software\uCOS-II\Source/os_core.c **** * Returns    : The length of the string or 0 if the 'pevent' is a NULL pointer.
 106:..\..\..\..\..\..\Software\uCOS-II\Source/os_core.c **** ***************************************************************************************************
 107:..\..\..\..\..\..\Software\uCOS-II\Source/os_core.c **** */
 108:..\..\..\..\..\..\Software\uCOS-II\Source/os_core.c **** 
 109:..\..\..\..\..\..\Software\uCOS-II\Source/os_core.c **** #if (OS_EVENT_EN) && (OS_EVENT_NAME_EN > 0u)
 110:..\..\..\..\..\..\Software\uCOS-II\Source/os_core.c **** INT8U  OSEventNameGet (OS_EVENT   *pevent,
 111:..\..\..\..\..\..\Software\uCOS-II\Source/os_core.c ****                        INT8U     **pname,
 112:..\..\..\..\..\..\Software\uCOS-II\Source/os_core.c ****                        INT8U      *perr)
 113:..\..\..\..\..\..\Software\uCOS-II\Source/os_core.c **** {
 114:..\..\..\..\..\..\Software\uCOS-II\Source/os_core.c ****     INT8U      len;
 115:..\..\..\..\..\..\Software\uCOS-II\Source/os_core.c **** #if OS_CRITICAL_METHOD == 3u                     /* Allocate storage for CPU status register       
 116:..\..\..\..\..\..\Software\uCOS-II\Source/os_core.c ****     OS_CPU_SR  cpu_sr = 0u;
 117:..\..\..\..\..\..\Software\uCOS-II\Source/os_core.c **** #endif
 118:..\..\..\..\..\..\Software\uCOS-II\Source/os_core.c **** 
 119:..\..\..\..\..\..\Software\uCOS-II\Source/os_core.c **** 
 120:..\..\..\..\..\..\Software\uCOS-II\Source/os_core.c **** 
 121:..\..\..\..\..\..\Software\uCOS-II\Source/os_core.c **** #ifdef OS_SAFETY_CRITICAL
 122:..\..\..\..\..\..\Software\uCOS-II\Source/os_core.c ****     if (perr == (INT8U *)0) {
 123:..\..\..\..\..\..\Software\uCOS-II\Source/os_core.c ****         OS_SAFETY_CRITICAL_EXCEPTION();
 124:..\..\..\..\..\..\Software\uCOS-II\Source/os_core.c ****         return (0u);
 125:..\..\..\..\..\..\Software\uCOS-II\Source/os_core.c ****     }
 126:..\..\..\..\..\..\Software\uCOS-II\Source/os_core.c **** #endif
 127:..\..\..\..\..\..\Software\uCOS-II\Source/os_core.c **** 
 128:..\..\..\..\..\..\Software\uCOS-II\Source/os_core.c **** #if OS_ARG_CHK_EN > 0u
 129:..\..\..\..\..\..\Software\uCOS-II\Source/os_core.c ****     if (pevent == (OS_EVENT *)0) {               /* Is 'pevent' a NULL pointer?                    
 130:..\..\..\..\..\..\Software\uCOS-II\Source/os_core.c ****         *perr = OS_ERR_PEVENT_NULL;
 131:..\..\..\..\..\..\Software\uCOS-II\Source/os_core.c ****         return (0u);
ARM GAS  C:\Users\EDULU~1.DES\AppData\Local\Temp\ccKclfbr.s 			page 9


 132:..\..\..\..\..\..\Software\uCOS-II\Source/os_core.c ****     }
 133:..\..\..\..\..\..\Software\uCOS-II\Source/os_core.c ****     if (pname == (INT8U **)0) {                   /* Is 'pname' a NULL pointer?                    
 134:..\..\..\..\..\..\Software\uCOS-II\Source/os_core.c ****         *perr = OS_ERR_PNAME_NULL;
 135:..\..\..\..\..\..\Software\uCOS-II\Source/os_core.c ****         return (0u);
 136:..\..\..\..\..\..\Software\uCOS-II\Source/os_core.c ****     }
 137:..\..\..\..\..\..\Software\uCOS-II\Source/os_core.c **** #endif
 138:..\..\..\..\..\..\Software\uCOS-II\Source/os_core.c ****     if (OSIntNesting > 0u) {                     /* See if trying to call from an ISR              
 139:..\..\..\..\..\..\Software\uCOS-II\Source/os_core.c ****         *perr  = OS_ERR_NAME_GET_ISR;
 140:..\..\..\..\..\..\Software\uCOS-II\Source/os_core.c ****         return (0u);
 141:..\..\..\..\..\..\Software\uCOS-II\Source/os_core.c ****     }
 142:..\..\..\..\..\..\Software\uCOS-II\Source/os_core.c ****     switch (pevent->OSEventType) {
 143:..\..\..\..\..\..\Software\uCOS-II\Source/os_core.c ****         case OS_EVENT_TYPE_SEM:
 144:..\..\..\..\..\..\Software\uCOS-II\Source/os_core.c ****         case OS_EVENT_TYPE_MUTEX:
 145:..\..\..\..\..\..\Software\uCOS-II\Source/os_core.c ****         case OS_EVENT_TYPE_MBOX:
 146:..\..\..\..\..\..\Software\uCOS-II\Source/os_core.c ****         case OS_EVENT_TYPE_Q:
 147:..\..\..\..\..\..\Software\uCOS-II\Source/os_core.c ****              break;
 148:..\..\..\..\..\..\Software\uCOS-II\Source/os_core.c **** 
 149:..\..\..\..\..\..\Software\uCOS-II\Source/os_core.c ****         default:
 150:..\..\..\..\..\..\Software\uCOS-II\Source/os_core.c ****              *perr = OS_ERR_EVENT_TYPE;
 151:..\..\..\..\..\..\Software\uCOS-II\Source/os_core.c ****              return (0u);
 152:..\..\..\..\..\..\Software\uCOS-II\Source/os_core.c ****     }
 153:..\..\..\..\..\..\Software\uCOS-II\Source/os_core.c ****     OS_ENTER_CRITICAL();
 154:..\..\..\..\..\..\Software\uCOS-II\Source/os_core.c ****     *pname = pevent->OSEventName;
 155:..\..\..\..\..\..\Software\uCOS-II\Source/os_core.c ****     len    = OS_StrLen(*pname);
 156:..\..\..\..\..\..\Software\uCOS-II\Source/os_core.c ****     OS_EXIT_CRITICAL();
 157:..\..\..\..\..\..\Software\uCOS-II\Source/os_core.c ****     *perr  = OS_ERR_NONE;
 158:..\..\..\..\..\..\Software\uCOS-II\Source/os_core.c ****     return (len);
 159:..\..\..\..\..\..\Software\uCOS-II\Source/os_core.c **** }
 160:..\..\..\..\..\..\Software\uCOS-II\Source/os_core.c **** #endif
 161:..\..\..\..\..\..\Software\uCOS-II\Source/os_core.c **** 
 162:..\..\..\..\..\..\Software\uCOS-II\Source/os_core.c **** /*$PAGE*/
 163:..\..\..\..\..\..\Software\uCOS-II\Source/os_core.c **** /*
 164:..\..\..\..\..\..\Software\uCOS-II\Source/os_core.c **** ***************************************************************************************************
 165:..\..\..\..\..\..\Software\uCOS-II\Source/os_core.c **** *                        ASSIGN A NAME TO A SEMAPHORE, MUTEX, MAILBOX or QUEUE
 166:..\..\..\..\..\..\Software\uCOS-II\Source/os_core.c **** *
 167:..\..\..\..\..\..\Software\uCOS-II\Source/os_core.c **** * Description: This function assigns a name to a semaphore, mutex, mailbox or queue.
 168:..\..\..\..\..\..\Software\uCOS-II\Source/os_core.c **** *
 169:..\..\..\..\..\..\Software\uCOS-II\Source/os_core.c **** * Arguments  : pevent    is a pointer to the event group.  'pevent' can point either to a semaphore
 170:..\..\..\..\..\..\Software\uCOS-II\Source/os_core.c **** *                        a mutex, a mailbox or a queue.  Where this function is concerned, it doesn
 171:..\..\..\..\..\..\Software\uCOS-II\Source/os_core.c **** *                        matter the actual type.
 172:..\..\..\..\..\..\Software\uCOS-II\Source/os_core.c **** *
 173:..\..\..\..\..\..\Software\uCOS-II\Source/os_core.c **** *              pname     is a pointer to an ASCII string that will be used as the name of the semap
 174:..\..\..\..\..\..\Software\uCOS-II\Source/os_core.c **** *                        mutex, mailbox or queue.
 175:..\..\..\..\..\..\Software\uCOS-II\Source/os_core.c **** *
 176:..\..\..\..\..\..\Software\uCOS-II\Source/os_core.c **** *              perr      is a pointer to an error code that can contain one of the following values
 177:..\..\..\..\..\..\Software\uCOS-II\Source/os_core.c **** *
 178:..\..\..\..\..\..\Software\uCOS-II\Source/os_core.c **** *                        OS_ERR_NONE                if the requested task is resumed
 179:..\..\..\..\..\..\Software\uCOS-II\Source/os_core.c **** *                        OS_ERR_EVENT_TYPE          if 'pevent' is not pointing to the proper event
 180:..\..\..\..\..\..\Software\uCOS-II\Source/os_core.c **** *                                                   control block type.
 181:..\..\..\..\..\..\Software\uCOS-II\Source/os_core.c **** *                        OS_ERR_PNAME_NULL          You passed a NULL pointer for 'pname'
 182:..\..\..\..\..\..\Software\uCOS-II\Source/os_core.c **** *                        OS_ERR_PEVENT_NULL         if you passed a NULL pointer for 'pevent'
 183:..\..\..\..\..\..\Software\uCOS-II\Source/os_core.c **** *                        OS_ERR_NAME_SET_ISR        if you called this function from an ISR
 184:..\..\..\..\..\..\Software\uCOS-II\Source/os_core.c **** *
 185:..\..\..\..\..\..\Software\uCOS-II\Source/os_core.c **** * Returns    : None
 186:..\..\..\..\..\..\Software\uCOS-II\Source/os_core.c **** ***************************************************************************************************
 187:..\..\..\..\..\..\Software\uCOS-II\Source/os_core.c **** */
 188:..\..\..\..\..\..\Software\uCOS-II\Source/os_core.c **** 
ARM GAS  C:\Users\EDULU~1.DES\AppData\Local\Temp\ccKclfbr.s 			page 10


 189:..\..\..\..\..\..\Software\uCOS-II\Source/os_core.c **** #if (OS_EVENT_EN) && (OS_EVENT_NAME_EN > 0u)
 190:..\..\..\..\..\..\Software\uCOS-II\Source/os_core.c **** void  OSEventNameSet (OS_EVENT  *pevent,
 191:..\..\..\..\..\..\Software\uCOS-II\Source/os_core.c ****                       INT8U     *pname,
 192:..\..\..\..\..\..\Software\uCOS-II\Source/os_core.c ****                       INT8U     *perr)
 193:..\..\..\..\..\..\Software\uCOS-II\Source/os_core.c **** {
 194:..\..\..\..\..\..\Software\uCOS-II\Source/os_core.c **** #if OS_CRITICAL_METHOD == 3u                     /* Allocate storage for CPU status register       
 195:..\..\..\..\..\..\Software\uCOS-II\Source/os_core.c ****     OS_CPU_SR  cpu_sr = 0u;
 196:..\..\..\..\..\..\Software\uCOS-II\Source/os_core.c **** #endif
 197:..\..\..\..\..\..\Software\uCOS-II\Source/os_core.c **** 
 198:..\..\..\..\..\..\Software\uCOS-II\Source/os_core.c **** 
 199:..\..\..\..\..\..\Software\uCOS-II\Source/os_core.c **** 
 200:..\..\..\..\..\..\Software\uCOS-II\Source/os_core.c **** #ifdef OS_SAFETY_CRITICAL
 201:..\..\..\..\..\..\Software\uCOS-II\Source/os_core.c ****     if (perr == (INT8U *)0) {
 202:..\..\..\..\..\..\Software\uCOS-II\Source/os_core.c ****         OS_SAFETY_CRITICAL_EXCEPTION();
 203:..\..\..\..\..\..\Software\uCOS-II\Source/os_core.c ****         return;
 204:..\..\..\..\..\..\Software\uCOS-II\Source/os_core.c ****     }
 205:..\..\..\..\..\..\Software\uCOS-II\Source/os_core.c **** #endif
 206:..\..\..\..\..\..\Software\uCOS-II\Source/os_core.c **** 
 207:..\..\..\..\..\..\Software\uCOS-II\Source/os_core.c **** #if OS_ARG_CHK_EN > 0u
 208:..\..\..\..\..\..\Software\uCOS-II\Source/os_core.c ****     if (pevent == (OS_EVENT *)0) {               /* Is 'pevent' a NULL pointer?                    
 209:..\..\..\..\..\..\Software\uCOS-II\Source/os_core.c ****         *perr = OS_ERR_PEVENT_NULL;
 210:..\..\..\..\..\..\Software\uCOS-II\Source/os_core.c ****         return;
 211:..\..\..\..\..\..\Software\uCOS-II\Source/os_core.c ****     }
 212:..\..\..\..\..\..\Software\uCOS-II\Source/os_core.c ****     if (pname == (INT8U *)0) {                   /* Is 'pname' a NULL pointer?                     
 213:..\..\..\..\..\..\Software\uCOS-II\Source/os_core.c ****         *perr = OS_ERR_PNAME_NULL;
 214:..\..\..\..\..\..\Software\uCOS-II\Source/os_core.c ****         return;
 215:..\..\..\..\..\..\Software\uCOS-II\Source/os_core.c ****     }
 216:..\..\..\..\..\..\Software\uCOS-II\Source/os_core.c **** #endif
 217:..\..\..\..\..\..\Software\uCOS-II\Source/os_core.c ****     if (OSIntNesting > 0u) {                     /* See if trying to call from an ISR              
 218:..\..\..\..\..\..\Software\uCOS-II\Source/os_core.c ****         *perr = OS_ERR_NAME_SET_ISR;
 219:..\..\..\..\..\..\Software\uCOS-II\Source/os_core.c ****         return;
 220:..\..\..\..\..\..\Software\uCOS-II\Source/os_core.c ****     }
 221:..\..\..\..\..\..\Software\uCOS-II\Source/os_core.c ****     switch (pevent->OSEventType) {
 222:..\..\..\..\..\..\Software\uCOS-II\Source/os_core.c ****         case OS_EVENT_TYPE_SEM:
 223:..\..\..\..\..\..\Software\uCOS-II\Source/os_core.c ****         case OS_EVENT_TYPE_MUTEX:
 224:..\..\..\..\..\..\Software\uCOS-II\Source/os_core.c ****         case OS_EVENT_TYPE_MBOX:
 225:..\..\..\..\..\..\Software\uCOS-II\Source/os_core.c ****         case OS_EVENT_TYPE_Q:
 226:..\..\..\..\..\..\Software\uCOS-II\Source/os_core.c ****              break;
 227:..\..\..\..\..\..\Software\uCOS-II\Source/os_core.c **** 
 228:..\..\..\..\..\..\Software\uCOS-II\Source/os_core.c ****         default:
 229:..\..\..\..\..\..\Software\uCOS-II\Source/os_core.c ****              *perr = OS_ERR_EVENT_TYPE;
 230:..\..\..\..\..\..\Software\uCOS-II\Source/os_core.c ****              return;
 231:..\..\..\..\..\..\Software\uCOS-II\Source/os_core.c ****     }
 232:..\..\..\..\..\..\Software\uCOS-II\Source/os_core.c ****     OS_ENTER_CRITICAL();
 233:..\..\..\..\..\..\Software\uCOS-II\Source/os_core.c ****     pevent->OSEventName = pname;
 234:..\..\..\..\..\..\Software\uCOS-II\Source/os_core.c ****     OS_EXIT_CRITICAL();
 235:..\..\..\..\..\..\Software\uCOS-II\Source/os_core.c ****     *perr = OS_ERR_NONE;
 236:..\..\..\..\..\..\Software\uCOS-II\Source/os_core.c **** }
 237:..\..\..\..\..\..\Software\uCOS-II\Source/os_core.c **** #endif
 238:..\..\..\..\..\..\Software\uCOS-II\Source/os_core.c **** 
 239:..\..\..\..\..\..\Software\uCOS-II\Source/os_core.c **** /*$PAGE*/
 240:..\..\..\..\..\..\Software\uCOS-II\Source/os_core.c **** /*
 241:..\..\..\..\..\..\Software\uCOS-II\Source/os_core.c **** ***************************************************************************************************
 242:..\..\..\..\..\..\Software\uCOS-II\Source/os_core.c **** *                                       PEND ON MULTIPLE EVENTS
 243:..\..\..\..\..\..\Software\uCOS-II\Source/os_core.c **** *
 244:..\..\..\..\..\..\Software\uCOS-II\Source/os_core.c **** * Description: This function waits for multiple events.  If multiple events are ready at the start 
 245:..\..\..\..\..\..\Software\uCOS-II\Source/os_core.c **** *              pend call, then all available events are returned as ready.  If the task must pend o
ARM GAS  C:\Users\EDULU~1.DES\AppData\Local\Temp\ccKclfbr.s 			page 11


 246:..\..\..\..\..\..\Software\uCOS-II\Source/os_core.c **** *              multiple events, then only the first posted or aborted event is returned as ready.
 247:..\..\..\..\..\..\Software\uCOS-II\Source/os_core.c **** *
 248:..\..\..\..\..\..\Software\uCOS-II\Source/os_core.c **** * Arguments  : pevents_pend  is a pointer to a NULL-terminated array of event control blocks to wai
 249:..\..\..\..\..\..\Software\uCOS-II\Source/os_core.c **** *
 250:..\..\..\..\..\..\Software\uCOS-II\Source/os_core.c **** *              pevents_rdy   is a pointer to an array to return which event control blocks are avai
 251:..\..\..\..\..\..\Software\uCOS-II\Source/os_core.c **** *                            or ready.  The size of the array MUST be greater than or equal to the 
 252:..\..\..\..\..\..\Software\uCOS-II\Source/os_core.c **** *                            of the 'pevents_pend' array, including terminating NULL.
 253:..\..\..\..\..\..\Software\uCOS-II\Source/os_core.c **** *
 254:..\..\..\..\..\..\Software\uCOS-II\Source/os_core.c **** *              pmsgs_rdy     is a pointer to an array to return messages from any available message
 255:..\..\..\..\..\..\Software\uCOS-II\Source/os_core.c **** *                            events.  The size of the array MUST be greater than or equal to the si
 256:..\..\..\..\..\..\Software\uCOS-II\Source/os_core.c **** *                            the 'pevents_pend' array, excluding the terminating NULL.  Since NULL
 257:..\..\..\..\..\..\Software\uCOS-II\Source/os_core.c **** *                            messages are valid messages, this array cannot be NULL-terminated.  In
 258:..\..\..\..\..\..\Software\uCOS-II\Source/os_core.c **** *                            every available message-type event returns its messages in the 'pmsgs_
 259:..\..\..\..\..\..\Software\uCOS-II\Source/os_core.c **** *                            array at the same index as the event is returned in the 'pevents_rdy' 
 260:..\..\..\..\..\..\Software\uCOS-II\Source/os_core.c **** *                            All other 'pmsgs_rdy' array indices are filled with NULL messages.
 261:..\..\..\..\..\..\Software\uCOS-II\Source/os_core.c **** *
 262:..\..\..\..\..\..\Software\uCOS-II\Source/os_core.c **** *              timeout       is an optional timeout period (in clock ticks).  If non-zero, your tas
 263:..\..\..\..\..\..\Software\uCOS-II\Source/os_core.c **** *                            wait for the resources up to the amount of time specified by this argu
 264:..\..\..\..\..\..\Software\uCOS-II\Source/os_core.c **** *                            If you specify 0, however, your task will wait forever for the specifi
 265:..\..\..\..\..\..\Software\uCOS-II\Source/os_core.c **** *                            events or, until the resources becomes available (or the events occur)
 266:..\..\..\..\..\..\Software\uCOS-II\Source/os_core.c **** *
 267:..\..\..\..\..\..\Software\uCOS-II\Source/os_core.c **** *              perr          is a pointer to where an error message will be deposited.  Possible er
 268:..\..\..\..\..\..\Software\uCOS-II\Source/os_core.c **** *                            messages are:
 269:..\..\..\..\..\..\Software\uCOS-II\Source/os_core.c **** *
 270:..\..\..\..\..\..\Software\uCOS-II\Source/os_core.c **** *                            OS_ERR_NONE         The call was successful and your task owns the res
 271:..\..\..\..\..\..\Software\uCOS-II\Source/os_core.c **** *                                                or, the events you are waiting for occurred; check
 272:..\..\..\..\..\..\Software\uCOS-II\Source/os_core.c **** *                                                'pevents_rdy' array for which events are available
 273:..\..\..\..\..\..\Software\uCOS-II\Source/os_core.c **** *                            OS_ERR_PEND_ABORT   The wait on the events was aborted; check the
 274:..\..\..\..\..\..\Software\uCOS-II\Source/os_core.c **** *                                                'pevents_rdy' array for which events were aborted.
 275:..\..\..\..\..\..\Software\uCOS-II\Source/os_core.c **** *                            OS_ERR_TIMEOUT      The events were not received within the specified
 276:..\..\..\..\..\..\Software\uCOS-II\Source/os_core.c **** *                                                'timeout'.
 277:..\..\..\..\..\..\Software\uCOS-II\Source/os_core.c **** *                            OS_ERR_PEVENT_NULL  If 'pevents_pend', 'pevents_rdy', or 'pmsgs_rdy' i
 278:..\..\..\..\..\..\Software\uCOS-II\Source/os_core.c **** *                                                NULL pointer.
 279:..\..\..\..\..\..\Software\uCOS-II\Source/os_core.c **** *                            OS_ERR_EVENT_TYPE   If you didn't pass a pointer to an array of semaph
 280:..\..\..\..\..\..\Software\uCOS-II\Source/os_core.c **** *                                                mailboxes, and/or queues.
 281:..\..\..\..\..\..\Software\uCOS-II\Source/os_core.c **** *                            OS_ERR_PEND_ISR     If you called this function from an ISR and the re
 282:..\..\..\..\..\..\Software\uCOS-II\Source/os_core.c **** *                                                would lead to a suspension.
 283:..\..\..\..\..\..\Software\uCOS-II\Source/os_core.c **** *                            OS_ERR_PEND_LOCKED  If you called this function when the scheduler is 
 284:..\..\..\..\..\..\Software\uCOS-II\Source/os_core.c **** *
 285:..\..\..\..\..\..\Software\uCOS-II\Source/os_core.c **** * Returns    : >  0          the number of events returned as ready or aborted.
 286:..\..\..\..\..\..\Software\uCOS-II\Source/os_core.c **** *              == 0          if no events are returned as ready because of timeout or upon error.
 287:..\..\..\..\..\..\Software\uCOS-II\Source/os_core.c **** *
 288:..\..\..\..\..\..\Software\uCOS-II\Source/os_core.c **** * Notes      : 1) a. Validate 'pevents_pend' array as valid OS_EVENTs :
 289:..\..\..\..\..\..\Software\uCOS-II\Source/os_core.c **** *
 290:..\..\..\..\..\..\Software\uCOS-II\Source/os_core.c **** *                        semaphores, mailboxes, queues
 291:..\..\..\..\..\..\Software\uCOS-II\Source/os_core.c **** *
 292:..\..\..\..\..\..\Software\uCOS-II\Source/os_core.c **** *                 b. Return ALL available events and messages, if any
 293:..\..\..\..\..\..\Software\uCOS-II\Source/os_core.c **** *
 294:..\..\..\..\..\..\Software\uCOS-II\Source/os_core.c **** *                 c. Add    current task priority as pending to   each events's wait list
 295:..\..\..\..\..\..\Software\uCOS-II\Source/os_core.c **** *                      Performed in OS_EventTaskWaitMulti()
 296:..\..\..\..\..\..\Software\uCOS-II\Source/os_core.c **** *
 297:..\..\..\..\..\..\Software\uCOS-II\Source/os_core.c **** *                 d. Wait on any of multiple events
 298:..\..\..\..\..\..\Software\uCOS-II\Source/os_core.c **** *
 299:..\..\..\..\..\..\Software\uCOS-II\Source/os_core.c **** *                 e. Remove current task priority as pending from each events's wait list
 300:..\..\..\..\..\..\Software\uCOS-II\Source/os_core.c **** *                      Performed in OS_EventTaskRdy(), if events posted or aborted
 301:..\..\..\..\..\..\Software\uCOS-II\Source/os_core.c **** *
 302:..\..\..\..\..\..\Software\uCOS-II\Source/os_core.c **** *                 f. Return any event posted or aborted, if any
ARM GAS  C:\Users\EDULU~1.DES\AppData\Local\Temp\ccKclfbr.s 			page 12


 303:..\..\..\..\..\..\Software\uCOS-II\Source/os_core.c **** *                      else
 304:..\..\..\..\..\..\Software\uCOS-II\Source/os_core.c **** *                    Return timeout
 305:..\..\..\..\..\..\Software\uCOS-II\Source/os_core.c **** *
 306:..\..\..\..\..\..\Software\uCOS-II\Source/os_core.c **** *              2) 'pevents_rdy' initialized to NULL PRIOR to all other validation or function handl
 307:..\..\..\..\..\..\Software\uCOS-II\Source/os_core.c **** *                 case of any error(s).
 308:..\..\..\..\..\..\Software\uCOS-II\Source/os_core.c **** ***************************************************************************************************
 309:..\..\..\..\..\..\Software\uCOS-II\Source/os_core.c **** */
 310:..\..\..\..\..\..\Software\uCOS-II\Source/os_core.c **** /*$PAGE*/
 311:..\..\..\..\..\..\Software\uCOS-II\Source/os_core.c **** #if ((OS_EVENT_EN) && (OS_EVENT_MULTI_EN > 0u))
 312:..\..\..\..\..\..\Software\uCOS-II\Source/os_core.c **** INT16U  OSEventPendMulti (OS_EVENT  **pevents_pend,
 313:..\..\..\..\..\..\Software\uCOS-II\Source/os_core.c ****                           OS_EVENT  **pevents_rdy,
 314:..\..\..\..\..\..\Software\uCOS-II\Source/os_core.c ****                           void      **pmsgs_rdy,
 315:..\..\..\..\..\..\Software\uCOS-II\Source/os_core.c ****                           INT32U      timeout,
 316:..\..\..\..\..\..\Software\uCOS-II\Source/os_core.c ****                           INT8U      *perr)
 317:..\..\..\..\..\..\Software\uCOS-II\Source/os_core.c **** {
 318:..\..\..\..\..\..\Software\uCOS-II\Source/os_core.c ****     OS_EVENT  **pevents;
 319:..\..\..\..\..\..\Software\uCOS-II\Source/os_core.c ****     OS_EVENT   *pevent;
 320:..\..\..\..\..\..\Software\uCOS-II\Source/os_core.c **** #if ((OS_Q_EN > 0u) && (OS_MAX_QS > 0u))
 321:..\..\..\..\..\..\Software\uCOS-II\Source/os_core.c ****     OS_Q       *pq;
 322:..\..\..\..\..\..\Software\uCOS-II\Source/os_core.c **** #endif
 323:..\..\..\..\..\..\Software\uCOS-II\Source/os_core.c ****     BOOLEAN     events_rdy;
 324:..\..\..\..\..\..\Software\uCOS-II\Source/os_core.c ****     INT16U      events_rdy_nbr;
 325:..\..\..\..\..\..\Software\uCOS-II\Source/os_core.c ****     INT8U       events_stat;
 326:..\..\..\..\..\..\Software\uCOS-II\Source/os_core.c **** #if (OS_CRITICAL_METHOD == 3u)                          /* Allocate storage for CPU status register
 327:..\..\..\..\..\..\Software\uCOS-II\Source/os_core.c ****     OS_CPU_SR   cpu_sr = 0u;
 328:..\..\..\..\..\..\Software\uCOS-II\Source/os_core.c **** #endif
 329:..\..\..\..\..\..\Software\uCOS-II\Source/os_core.c **** 
 330:..\..\..\..\..\..\Software\uCOS-II\Source/os_core.c **** 
 331:..\..\..\..\..\..\Software\uCOS-II\Source/os_core.c **** 
 332:..\..\..\..\..\..\Software\uCOS-II\Source/os_core.c **** #ifdef OS_SAFETY_CRITICAL
 333:..\..\..\..\..\..\Software\uCOS-II\Source/os_core.c ****     if (perr == (INT8U *)0) {
 334:..\..\..\..\..\..\Software\uCOS-II\Source/os_core.c ****         OS_SAFETY_CRITICAL_EXCEPTION();
 335:..\..\..\..\..\..\Software\uCOS-II\Source/os_core.c ****         return (0u);
 336:..\..\..\..\..\..\Software\uCOS-II\Source/os_core.c ****     }
 337:..\..\..\..\..\..\Software\uCOS-II\Source/os_core.c **** #endif
 338:..\..\..\..\..\..\Software\uCOS-II\Source/os_core.c **** 
 339:..\..\..\..\..\..\Software\uCOS-II\Source/os_core.c **** #if (OS_ARG_CHK_EN > 0u)
 340:..\..\..\..\..\..\Software\uCOS-II\Source/os_core.c ****     if (pevents_pend == (OS_EVENT **)0) {               /* Validate 'pevents_pend'                 
 341:..\..\..\..\..\..\Software\uCOS-II\Source/os_core.c ****        *perr =  OS_ERR_PEVENT_NULL;
 342:..\..\..\..\..\..\Software\uCOS-II\Source/os_core.c ****         return (0u);
 343:..\..\..\..\..\..\Software\uCOS-II\Source/os_core.c ****     }
 344:..\..\..\..\..\..\Software\uCOS-II\Source/os_core.c ****     if (*pevents_pend  == (OS_EVENT *)0) {              /* Validate 'pevents_pend'                 
 345:..\..\..\..\..\..\Software\uCOS-II\Source/os_core.c ****        *perr =  OS_ERR_PEVENT_NULL;
 346:..\..\..\..\..\..\Software\uCOS-II\Source/os_core.c ****         return (0u);
 347:..\..\..\..\..\..\Software\uCOS-II\Source/os_core.c ****     }
 348:..\..\..\..\..\..\Software\uCOS-II\Source/os_core.c ****     if (pevents_rdy  == (OS_EVENT **)0) {               /* Validate 'pevents_rdy'                  
 349:..\..\..\..\..\..\Software\uCOS-II\Source/os_core.c ****        *perr =  OS_ERR_PEVENT_NULL;
 350:..\..\..\..\..\..\Software\uCOS-II\Source/os_core.c ****         return (0u);
 351:..\..\..\..\..\..\Software\uCOS-II\Source/os_core.c ****     }
 352:..\..\..\..\..\..\Software\uCOS-II\Source/os_core.c ****     if (pmsgs_rdy == (void **)0) {                      /* Validate 'pmsgs_rdy'                    
 353:..\..\..\..\..\..\Software\uCOS-II\Source/os_core.c ****        *perr =  OS_ERR_PEVENT_NULL;
 354:..\..\..\..\..\..\Software\uCOS-II\Source/os_core.c ****         return (0u);
 355:..\..\..\..\..\..\Software\uCOS-II\Source/os_core.c ****     }
 356:..\..\..\..\..\..\Software\uCOS-II\Source/os_core.c **** #endif
 357:..\..\..\..\..\..\Software\uCOS-II\Source/os_core.c **** 
 358:..\..\..\..\..\..\Software\uCOS-II\Source/os_core.c ****    *pevents_rdy = (OS_EVENT *)0;                        /* Init array to NULL in case of errors    
 359:..\..\..\..\..\..\Software\uCOS-II\Source/os_core.c **** 
ARM GAS  C:\Users\EDULU~1.DES\AppData\Local\Temp\ccKclfbr.s 			page 13


 360:..\..\..\..\..\..\Software\uCOS-II\Source/os_core.c ****     pevents     =  pevents_pend;
 361:..\..\..\..\..\..\Software\uCOS-II\Source/os_core.c ****     pevent      = *pevents;
 362:..\..\..\..\..\..\Software\uCOS-II\Source/os_core.c ****     while  (pevent != (OS_EVENT *)0) {
 363:..\..\..\..\..\..\Software\uCOS-II\Source/os_core.c ****         switch (pevent->OSEventType) {                  /* Validate event block types              
 364:..\..\..\..\..\..\Software\uCOS-II\Source/os_core.c **** #if (OS_SEM_EN  > 0u)
 365:..\..\..\..\..\..\Software\uCOS-II\Source/os_core.c ****             case OS_EVENT_TYPE_SEM:
 366:..\..\..\..\..\..\Software\uCOS-II\Source/os_core.c ****                  break;
 367:..\..\..\..\..\..\Software\uCOS-II\Source/os_core.c **** #endif
 368:..\..\..\..\..\..\Software\uCOS-II\Source/os_core.c **** #if (OS_MBOX_EN > 0u)
 369:..\..\..\..\..\..\Software\uCOS-II\Source/os_core.c ****             case OS_EVENT_TYPE_MBOX:
 370:..\..\..\..\..\..\Software\uCOS-II\Source/os_core.c ****                  break;
 371:..\..\..\..\..\..\Software\uCOS-II\Source/os_core.c **** #endif
 372:..\..\..\..\..\..\Software\uCOS-II\Source/os_core.c **** #if ((OS_Q_EN   > 0u) && (OS_MAX_QS > 0u))
 373:..\..\..\..\..\..\Software\uCOS-II\Source/os_core.c ****             case OS_EVENT_TYPE_Q:
 374:..\..\..\..\..\..\Software\uCOS-II\Source/os_core.c ****                  break;
 375:..\..\..\..\..\..\Software\uCOS-II\Source/os_core.c **** #endif
 376:..\..\..\..\..\..\Software\uCOS-II\Source/os_core.c **** 
 377:..\..\..\..\..\..\Software\uCOS-II\Source/os_core.c ****             case OS_EVENT_TYPE_MUTEX:
 378:..\..\..\..\..\..\Software\uCOS-II\Source/os_core.c ****             case OS_EVENT_TYPE_FLAG:
 379:..\..\..\..\..\..\Software\uCOS-II\Source/os_core.c ****             default:
 380:..\..\..\..\..\..\Software\uCOS-II\Source/os_core.c ****                 *perr = OS_ERR_EVENT_TYPE;
 381:..\..\..\..\..\..\Software\uCOS-II\Source/os_core.c ****                  return (0u);
 382:..\..\..\..\..\..\Software\uCOS-II\Source/os_core.c ****         }
 383:..\..\..\..\..\..\Software\uCOS-II\Source/os_core.c ****         pevents++;
 384:..\..\..\..\..\..\Software\uCOS-II\Source/os_core.c ****         pevent = *pevents;
 385:..\..\..\..\..\..\Software\uCOS-II\Source/os_core.c ****     }
 386:..\..\..\..\..\..\Software\uCOS-II\Source/os_core.c **** 
 387:..\..\..\..\..\..\Software\uCOS-II\Source/os_core.c ****     if (OSIntNesting  > 0u) {                           /* See if called from ISR ...              
 388:..\..\..\..\..\..\Software\uCOS-II\Source/os_core.c ****        *perr =  OS_ERR_PEND_ISR;                        /* ... can't PEND from an ISR              
 389:..\..\..\..\..\..\Software\uCOS-II\Source/os_core.c ****         return (0u);
 390:..\..\..\..\..\..\Software\uCOS-II\Source/os_core.c ****     }
 391:..\..\..\..\..\..\Software\uCOS-II\Source/os_core.c ****     if (OSLockNesting > 0u) {                           /* See if called with scheduler locked ... 
 392:..\..\..\..\..\..\Software\uCOS-II\Source/os_core.c ****        *perr =  OS_ERR_PEND_LOCKED;                     /* ... can't PEND when locked              
 393:..\..\..\..\..\..\Software\uCOS-II\Source/os_core.c ****         return (0u);
 394:..\..\..\..\..\..\Software\uCOS-II\Source/os_core.c ****     }
 395:..\..\..\..\..\..\Software\uCOS-II\Source/os_core.c **** 
 396:..\..\..\..\..\..\Software\uCOS-II\Source/os_core.c **** /*$PAGE*/
 397:..\..\..\..\..\..\Software\uCOS-II\Source/os_core.c ****     events_rdy     =  OS_FALSE;
 398:..\..\..\..\..\..\Software\uCOS-II\Source/os_core.c ****     events_rdy_nbr =  0u;
 399:..\..\..\..\..\..\Software\uCOS-II\Source/os_core.c ****     events_stat    =  OS_STAT_RDY;
 400:..\..\..\..\..\..\Software\uCOS-II\Source/os_core.c ****     pevents        =  pevents_pend;
 401:..\..\..\..\..\..\Software\uCOS-II\Source/os_core.c ****     pevent         = *pevents;
 402:..\..\..\..\..\..\Software\uCOS-II\Source/os_core.c ****     OS_ENTER_CRITICAL();
 403:..\..\..\..\..\..\Software\uCOS-II\Source/os_core.c ****     while (pevent != (OS_EVENT *)0) {                   /* See if any events already available     
 404:..\..\..\..\..\..\Software\uCOS-II\Source/os_core.c ****         switch (pevent->OSEventType) {
 405:..\..\..\..\..\..\Software\uCOS-II\Source/os_core.c **** #if (OS_SEM_EN > 0u)
 406:..\..\..\..\..\..\Software\uCOS-II\Source/os_core.c ****             case OS_EVENT_TYPE_SEM:
 407:..\..\..\..\..\..\Software\uCOS-II\Source/os_core.c ****                  if (pevent->OSEventCnt > 0u) {         /* If semaphore count > 0, resource availab
 408:..\..\..\..\..\..\Software\uCOS-II\Source/os_core.c ****                      pevent->OSEventCnt--;              /* ... decrement semaphore,                
 409:..\..\..\..\..\..\Software\uCOS-II\Source/os_core.c ****                     *pevents_rdy++ =  pevent;           /* ... and return available semaphore event
 410:..\..\..\..\..\..\Software\uCOS-II\Source/os_core.c ****                       events_rdy   =  OS_TRUE;
 411:..\..\..\..\..\..\Software\uCOS-II\Source/os_core.c ****                     *pmsgs_rdy++   = (void *)0;         /* NO message returned  for semaphores     
 412:..\..\..\..\..\..\Software\uCOS-II\Source/os_core.c ****                       events_rdy_nbr++;
 413:..\..\..\..\..\..\Software\uCOS-II\Source/os_core.c **** 
 414:..\..\..\..\..\..\Software\uCOS-II\Source/os_core.c ****                  } else {
 415:..\..\..\..\..\..\Software\uCOS-II\Source/os_core.c ****                       events_stat |=  OS_STAT_SEM;      /* Configure multi-pend for semaphore event
 416:..\..\..\..\..\..\Software\uCOS-II\Source/os_core.c ****                  }
ARM GAS  C:\Users\EDULU~1.DES\AppData\Local\Temp\ccKclfbr.s 			page 14


 417:..\..\..\..\..\..\Software\uCOS-II\Source/os_core.c ****                  break;
 418:..\..\..\..\..\..\Software\uCOS-II\Source/os_core.c **** #endif
 419:..\..\..\..\..\..\Software\uCOS-II\Source/os_core.c **** 
 420:..\..\..\..\..\..\Software\uCOS-II\Source/os_core.c **** #if (OS_MBOX_EN > 0u)
 421:..\..\..\..\..\..\Software\uCOS-II\Source/os_core.c ****             case OS_EVENT_TYPE_MBOX:
 422:..\..\..\..\..\..\Software\uCOS-II\Source/os_core.c ****                  if (pevent->OSEventPtr != (void *)0) { /* If mailbox NOT empty;                   
 423:..\..\..\..\..\..\Software\uCOS-II\Source/os_core.c ****                                                         /* ... return available message,           
 424:..\..\..\..\..\..\Software\uCOS-II\Source/os_core.c ****                     *pmsgs_rdy++         = (void *)pevent->OSEventPtr;
 425:..\..\..\..\..\..\Software\uCOS-II\Source/os_core.c ****                      pevent->OSEventPtr  = (void *)0;
 426:..\..\..\..\..\..\Software\uCOS-II\Source/os_core.c ****                     *pevents_rdy++       =  pevent;     /* ... and return available mailbox event  
 427:..\..\..\..\..\..\Software\uCOS-II\Source/os_core.c ****                       events_rdy         =  OS_TRUE;
 428:..\..\..\..\..\..\Software\uCOS-II\Source/os_core.c ****                       events_rdy_nbr++;
 429:..\..\..\..\..\..\Software\uCOS-II\Source/os_core.c **** 
 430:..\..\..\..\..\..\Software\uCOS-II\Source/os_core.c ****                  } else {
 431:..\..\..\..\..\..\Software\uCOS-II\Source/os_core.c ****                       events_stat |= OS_STAT_MBOX;      /* Configure multi-pend for mailbox events 
 432:..\..\..\..\..\..\Software\uCOS-II\Source/os_core.c ****                  }
 433:..\..\..\..\..\..\Software\uCOS-II\Source/os_core.c ****                  break;
 434:..\..\..\..\..\..\Software\uCOS-II\Source/os_core.c **** #endif
 435:..\..\..\..\..\..\Software\uCOS-II\Source/os_core.c **** 
 436:..\..\..\..\..\..\Software\uCOS-II\Source/os_core.c **** #if ((OS_Q_EN > 0u) && (OS_MAX_QS > 0u))
 437:..\..\..\..\..\..\Software\uCOS-II\Source/os_core.c ****             case OS_EVENT_TYPE_Q:
 438:..\..\..\..\..\..\Software\uCOS-II\Source/os_core.c ****                  pq = (OS_Q *)pevent->OSEventPtr;
 439:..\..\..\..\..\..\Software\uCOS-II\Source/os_core.c ****                  if (pq->OSQEntries > 0u) {             /* If queue NOT empty;                     
 440:..\..\..\..\..\..\Software\uCOS-II\Source/os_core.c ****                                                         /* ... return available message,           
 441:..\..\..\..\..\..\Software\uCOS-II\Source/os_core.c ****                     *pmsgs_rdy++ = (void *)*pq->OSQOut++;
 442:..\..\..\..\..\..\Software\uCOS-II\Source/os_core.c ****                      if (pq->OSQOut == pq->OSQEnd) {    /* If OUT ptr at queue end, ...            
 443:..\..\..\..\..\..\Software\uCOS-II\Source/os_core.c ****                          pq->OSQOut  = pq->OSQStart;    /* ... wrap   to queue start               
 444:..\..\..\..\..\..\Software\uCOS-II\Source/os_core.c ****                      }
 445:..\..\..\..\..\..\Software\uCOS-II\Source/os_core.c ****                      pq->OSQEntries--;                  /* Update number of queue entries          
 446:..\..\..\..\..\..\Software\uCOS-II\Source/os_core.c ****                     *pevents_rdy++ = pevent;            /* ... and return available queue event    
 447:..\..\..\..\..\..\Software\uCOS-II\Source/os_core.c ****                       events_rdy   = OS_TRUE;
 448:..\..\..\..\..\..\Software\uCOS-II\Source/os_core.c ****                       events_rdy_nbr++;
 449:..\..\..\..\..\..\Software\uCOS-II\Source/os_core.c **** 
 450:..\..\..\..\..\..\Software\uCOS-II\Source/os_core.c ****                  } else {
 451:..\..\..\..\..\..\Software\uCOS-II\Source/os_core.c ****                       events_stat |= OS_STAT_Q;         /* Configure multi-pend for queue events   
 452:..\..\..\..\..\..\Software\uCOS-II\Source/os_core.c ****                  }
 453:..\..\..\..\..\..\Software\uCOS-II\Source/os_core.c ****                  break;
 454:..\..\..\..\..\..\Software\uCOS-II\Source/os_core.c **** #endif
 455:..\..\..\..\..\..\Software\uCOS-II\Source/os_core.c **** 
 456:..\..\..\..\..\..\Software\uCOS-II\Source/os_core.c ****             case OS_EVENT_TYPE_MUTEX:
 457:..\..\..\..\..\..\Software\uCOS-II\Source/os_core.c ****             case OS_EVENT_TYPE_FLAG:
 458:..\..\..\..\..\..\Software\uCOS-II\Source/os_core.c ****             default:
 459:..\..\..\..\..\..\Software\uCOS-II\Source/os_core.c ****                  OS_EXIT_CRITICAL();
 460:..\..\..\..\..\..\Software\uCOS-II\Source/os_core.c ****                 *pevents_rdy = (OS_EVENT *)0;           /* NULL terminate return event array       
 461:..\..\..\..\..\..\Software\uCOS-II\Source/os_core.c ****                 *perr        =  OS_ERR_EVENT_TYPE;
 462:..\..\..\..\..\..\Software\uCOS-II\Source/os_core.c ****                  return (events_rdy_nbr);
 463:..\..\..\..\..\..\Software\uCOS-II\Source/os_core.c ****         }
 464:..\..\..\..\..\..\Software\uCOS-II\Source/os_core.c ****         pevents++;
 465:..\..\..\..\..\..\Software\uCOS-II\Source/os_core.c ****         pevent = *pevents;
 466:..\..\..\..\..\..\Software\uCOS-II\Source/os_core.c ****     }
 467:..\..\..\..\..\..\Software\uCOS-II\Source/os_core.c **** 
 468:..\..\..\..\..\..\Software\uCOS-II\Source/os_core.c ****     if ( events_rdy == OS_TRUE) {                       /* Return any events already available     
 469:..\..\..\..\..\..\Software\uCOS-II\Source/os_core.c ****        *pevents_rdy = (OS_EVENT *)0;                    /* NULL terminate return event array       
 470:..\..\..\..\..\..\Software\uCOS-II\Source/os_core.c ****         OS_EXIT_CRITICAL();
 471:..\..\..\..\..\..\Software\uCOS-II\Source/os_core.c ****        *perr        =  OS_ERR_NONE;
 472:..\..\..\..\..\..\Software\uCOS-II\Source/os_core.c ****         return (events_rdy_nbr);
 473:..\..\..\..\..\..\Software\uCOS-II\Source/os_core.c ****     }
ARM GAS  C:\Users\EDULU~1.DES\AppData\Local\Temp\ccKclfbr.s 			page 15


 474:..\..\..\..\..\..\Software\uCOS-II\Source/os_core.c **** /*$PAGE*/
 475:..\..\..\..\..\..\Software\uCOS-II\Source/os_core.c ****                                                         /* Otherwise, must wait until any event occ
 476:..\..\..\..\..\..\Software\uCOS-II\Source/os_core.c ****     OSTCBCur->OSTCBStat     |= events_stat  |           /* Resource not available, ...             
 477:..\..\..\..\..\..\Software\uCOS-II\Source/os_core.c ****                                OS_STAT_MULTI;           /* ... pend on multiple events             
 478:..\..\..\..\..\..\Software\uCOS-II\Source/os_core.c ****     OSTCBCur->OSTCBStatPend  = OS_STAT_PEND_OK;
 479:..\..\..\..\..\..\Software\uCOS-II\Source/os_core.c ****     OSTCBCur->OSTCBDly       = timeout;                 /* Store pend timeout in TCB               
 480:..\..\..\..\..\..\Software\uCOS-II\Source/os_core.c ****     OS_EventTaskWaitMulti(pevents_pend);                /* Suspend task until events or timeout occ
 481:..\..\..\..\..\..\Software\uCOS-II\Source/os_core.c **** 
 482:..\..\..\..\..\..\Software\uCOS-II\Source/os_core.c ****     OS_EXIT_CRITICAL();
 483:..\..\..\..\..\..\Software\uCOS-II\Source/os_core.c ****     OS_Sched();                                         /* Find next highest priority task ready   
 484:..\..\..\..\..\..\Software\uCOS-II\Source/os_core.c ****     OS_ENTER_CRITICAL();
 485:..\..\..\..\..\..\Software\uCOS-II\Source/os_core.c **** 
 486:..\..\..\..\..\..\Software\uCOS-II\Source/os_core.c ****     switch (OSTCBCur->OSTCBStatPend) {                  /* Handle event posted, aborted, or timed-o
 487:..\..\..\..\..\..\Software\uCOS-II\Source/os_core.c ****         case OS_STAT_PEND_OK:
 488:..\..\..\..\..\..\Software\uCOS-II\Source/os_core.c ****         case OS_STAT_PEND_ABORT:
 489:..\..\..\..\..\..\Software\uCOS-II\Source/os_core.c ****              pevent = OSTCBCur->OSTCBEventPtr;
 490:..\..\..\..\..\..\Software\uCOS-II\Source/os_core.c ****              if (pevent != (OS_EVENT *)0) {             /* If task event ptr != NULL, ...          
 491:..\..\..\..\..\..\Software\uCOS-II\Source/os_core.c ****                 *pevents_rdy++   =  pevent;             /* ... return available event ...          
 492:..\..\..\..\..\..\Software\uCOS-II\Source/os_core.c ****                 *pevents_rdy     = (OS_EVENT *)0;       /* ... & NULL terminate return event array 
 493:..\..\..\..\..\..\Software\uCOS-II\Source/os_core.c ****                   events_rdy_nbr =  1;
 494:..\..\..\..\..\..\Software\uCOS-II\Source/os_core.c **** 
 495:..\..\..\..\..\..\Software\uCOS-II\Source/os_core.c ****              } else {                                   /* Else NO event available, handle as timeo
 496:..\..\..\..\..\..\Software\uCOS-II\Source/os_core.c ****                  OSTCBCur->OSTCBStatPend = OS_STAT_PEND_TO;
 497:..\..\..\..\..\..\Software\uCOS-II\Source/os_core.c ****                  OS_EventTaskRemoveMulti(OSTCBCur, pevents_pend);
 498:..\..\..\..\..\..\Software\uCOS-II\Source/os_core.c ****              }
 499:..\..\..\..\..\..\Software\uCOS-II\Source/os_core.c ****              break;
 500:..\..\..\..\..\..\Software\uCOS-II\Source/os_core.c **** 
 501:..\..\..\..\..\..\Software\uCOS-II\Source/os_core.c ****         case OS_STAT_PEND_TO:                           /* If events timed out, ...                
 502:..\..\..\..\..\..\Software\uCOS-II\Source/os_core.c ****         default:                                        /* ... remove task from events' wait lists 
 503:..\..\..\..\..\..\Software\uCOS-II\Source/os_core.c ****              OS_EventTaskRemoveMulti(OSTCBCur, pevents_pend);
 504:..\..\..\..\..\..\Software\uCOS-II\Source/os_core.c ****              break;
 505:..\..\..\..\..\..\Software\uCOS-II\Source/os_core.c ****     }
 506:..\..\..\..\..\..\Software\uCOS-II\Source/os_core.c **** 
 507:..\..\..\..\..\..\Software\uCOS-II\Source/os_core.c ****     switch (OSTCBCur->OSTCBStatPend) {
 508:..\..\..\..\..\..\Software\uCOS-II\Source/os_core.c ****         case OS_STAT_PEND_OK:
 509:..\..\..\..\..\..\Software\uCOS-II\Source/os_core.c ****              switch (pevent->OSEventType) {             /* Return event's message                  
 510:..\..\..\..\..\..\Software\uCOS-II\Source/os_core.c **** #if (OS_SEM_EN > 0u)
 511:..\..\..\..\..\..\Software\uCOS-II\Source/os_core.c ****                  case OS_EVENT_TYPE_SEM:
 512:..\..\..\..\..\..\Software\uCOS-II\Source/os_core.c ****                      *pmsgs_rdy++ = (void *)0;          /* NO message returned for semaphores      
 513:..\..\..\..\..\..\Software\uCOS-II\Source/os_core.c ****                       break;
 514:..\..\..\..\..\..\Software\uCOS-II\Source/os_core.c **** #endif
 515:..\..\..\..\..\..\Software\uCOS-II\Source/os_core.c **** 
 516:..\..\..\..\..\..\Software\uCOS-II\Source/os_core.c **** #if ((OS_MBOX_EN > 0u) ||                 \
 517:..\..\..\..\..\..\Software\uCOS-II\Source/os_core.c ****     ((OS_Q_EN    > 0u) && (OS_MAX_QS > 0u)))
 518:..\..\..\..\..\..\Software\uCOS-II\Source/os_core.c ****                  case OS_EVENT_TYPE_MBOX:
 519:..\..\..\..\..\..\Software\uCOS-II\Source/os_core.c ****                  case OS_EVENT_TYPE_Q:
 520:..\..\..\..\..\..\Software\uCOS-II\Source/os_core.c ****                      *pmsgs_rdy++ = (void *)OSTCBCur->OSTCBMsg;     /* Return received message     
 521:..\..\..\..\..\..\Software\uCOS-II\Source/os_core.c ****                       break;
 522:..\..\..\..\..\..\Software\uCOS-II\Source/os_core.c **** #endif
 523:..\..\..\..\..\..\Software\uCOS-II\Source/os_core.c **** 
 524:..\..\..\..\..\..\Software\uCOS-II\Source/os_core.c ****                  case OS_EVENT_TYPE_MUTEX:
 525:..\..\..\..\..\..\Software\uCOS-II\Source/os_core.c ****                  case OS_EVENT_TYPE_FLAG:
 526:..\..\..\..\..\..\Software\uCOS-II\Source/os_core.c ****                  default:
 527:..\..\..\..\..\..\Software\uCOS-II\Source/os_core.c ****                       OS_EXIT_CRITICAL();
 528:..\..\..\..\..\..\Software\uCOS-II\Source/os_core.c ****                      *pevents_rdy = (OS_EVENT *)0;      /* NULL terminate return event array       
 529:..\..\..\..\..\..\Software\uCOS-II\Source/os_core.c ****                      *perr        =  OS_ERR_EVENT_TYPE;
 530:..\..\..\..\..\..\Software\uCOS-II\Source/os_core.c ****                       return (events_rdy_nbr);
ARM GAS  C:\Users\EDULU~1.DES\AppData\Local\Temp\ccKclfbr.s 			page 16


 531:..\..\..\..\..\..\Software\uCOS-II\Source/os_core.c ****              }
 532:..\..\..\..\..\..\Software\uCOS-II\Source/os_core.c ****             *perr = OS_ERR_NONE;
 533:..\..\..\..\..\..\Software\uCOS-II\Source/os_core.c ****              break;
 534:..\..\..\..\..\..\Software\uCOS-II\Source/os_core.c **** 
 535:..\..\..\..\..\..\Software\uCOS-II\Source/os_core.c ****         case OS_STAT_PEND_ABORT:
 536:..\..\..\..\..\..\Software\uCOS-II\Source/os_core.c ****             *pmsgs_rdy++ = (void *)0;                   /* NO message returned for abort           
 537:..\..\..\..\..\..\Software\uCOS-II\Source/os_core.c ****             *perr        =  OS_ERR_PEND_ABORT;          /* Indicate that event  aborted            
 538:..\..\..\..\..\..\Software\uCOS-II\Source/os_core.c ****              break;
 539:..\..\..\..\..\..\Software\uCOS-II\Source/os_core.c **** 
 540:..\..\..\..\..\..\Software\uCOS-II\Source/os_core.c ****         case OS_STAT_PEND_TO:
 541:..\..\..\..\..\..\Software\uCOS-II\Source/os_core.c ****         default:
 542:..\..\..\..\..\..\Software\uCOS-II\Source/os_core.c ****             *pmsgs_rdy++ = (void *)0;                   /* NO message returned for timeout         
 543:..\..\..\..\..\..\Software\uCOS-II\Source/os_core.c ****             *perr        =  OS_ERR_TIMEOUT;             /* Indicate that events timed out          
 544:..\..\..\..\..\..\Software\uCOS-II\Source/os_core.c ****              break;
 545:..\..\..\..\..\..\Software\uCOS-II\Source/os_core.c ****     }
 546:..\..\..\..\..\..\Software\uCOS-II\Source/os_core.c **** 
 547:..\..\..\..\..\..\Software\uCOS-II\Source/os_core.c ****     OSTCBCur->OSTCBStat          =  OS_STAT_RDY;        /* Set   task  status to ready             
 548:..\..\..\..\..\..\Software\uCOS-II\Source/os_core.c ****     OSTCBCur->OSTCBStatPend      =  OS_STAT_PEND_OK;    /* Clear pend  status                      
 549:..\..\..\..\..\..\Software\uCOS-II\Source/os_core.c ****     OSTCBCur->OSTCBEventPtr      = (OS_EVENT  *)0;      /* Clear event pointers                    
 550:..\..\..\..\..\..\Software\uCOS-II\Source/os_core.c ****     OSTCBCur->OSTCBEventMultiPtr = (OS_EVENT **)0;
 551:..\..\..\..\..\..\Software\uCOS-II\Source/os_core.c **** #if ((OS_MBOX_EN > 0u) ||                 \
 552:..\..\..\..\..\..\Software\uCOS-II\Source/os_core.c ****     ((OS_Q_EN    > 0u) && (OS_MAX_QS > 0u)))
 553:..\..\..\..\..\..\Software\uCOS-II\Source/os_core.c ****     OSTCBCur->OSTCBMsg           = (void      *)0;      /* Clear task  message                     
 554:..\..\..\..\..\..\Software\uCOS-II\Source/os_core.c **** #endif
 555:..\..\..\..\..\..\Software\uCOS-II\Source/os_core.c ****     OS_EXIT_CRITICAL();
 556:..\..\..\..\..\..\Software\uCOS-II\Source/os_core.c **** 
 557:..\..\..\..\..\..\Software\uCOS-II\Source/os_core.c ****     return (events_rdy_nbr);
 558:..\..\..\..\..\..\Software\uCOS-II\Source/os_core.c **** }
 559:..\..\..\..\..\..\Software\uCOS-II\Source/os_core.c **** #endif
 560:..\..\..\..\..\..\Software\uCOS-II\Source/os_core.c **** 
 561:..\..\..\..\..\..\Software\uCOS-II\Source/os_core.c **** /*$PAGE*/
 562:..\..\..\..\..\..\Software\uCOS-II\Source/os_core.c **** /*
 563:..\..\..\..\..\..\Software\uCOS-II\Source/os_core.c **** ***************************************************************************************************
 564:..\..\..\..\..\..\Software\uCOS-II\Source/os_core.c **** *                                           INITIALIZATION
 565:..\..\..\..\..\..\Software\uCOS-II\Source/os_core.c **** *
 566:..\..\..\..\..\..\Software\uCOS-II\Source/os_core.c **** * Description: This function is used to initialize the internals of uC/OS-II and MUST be called pri
 567:..\..\..\..\..\..\Software\uCOS-II\Source/os_core.c **** *              creating any uC/OS-II object and, prior to calling OSStart().
 568:..\..\..\..\..\..\Software\uCOS-II\Source/os_core.c **** *
 569:..\..\..\..\..\..\Software\uCOS-II\Source/os_core.c **** * Arguments  : none
 570:..\..\..\..\..\..\Software\uCOS-II\Source/os_core.c **** *
 571:..\..\..\..\..\..\Software\uCOS-II\Source/os_core.c **** * Returns    : none
 572:..\..\..\..\..\..\Software\uCOS-II\Source/os_core.c **** ***************************************************************************************************
 573:..\..\..\..\..\..\Software\uCOS-II\Source/os_core.c **** */
 574:..\..\..\..\..\..\Software\uCOS-II\Source/os_core.c **** 
 575:..\..\..\..\..\..\Software\uCOS-II\Source/os_core.c **** void  OSInit (void)
 576:..\..\..\..\..\..\Software\uCOS-II\Source/os_core.c **** {
 326              		.loc 1 576 0
 327              		.cfi_startproc
 328              		@ args = 0, pretend = 0, frame = 0
 329              		@ frame_needed = 1, uses_anonymous_args = 0
 330 0000 80B5     		push	{r7, lr}
 331              		.cfi_def_cfa_offset 8
 332              		.cfi_offset 7, -8
 333              		.cfi_offset 14, -4
 334 0002 00AF     		add	r7, sp, #0
 335              		.cfi_def_cfa_register 7
 577:..\..\..\..\..\..\Software\uCOS-II\Source/os_core.c **** #if OS_TASK_CREATE_EXT_EN > 0u
ARM GAS  C:\Users\EDULU~1.DES\AppData\Local\Temp\ccKclfbr.s 			page 17


 578:..\..\..\..\..\..\Software\uCOS-II\Source/os_core.c **** #if defined(OS_TLS_TBL_SIZE) && (OS_TLS_TBL_SIZE > 0u)
 579:..\..\..\..\..\..\Software\uCOS-II\Source/os_core.c ****     INT8U  err;
 580:..\..\..\..\..\..\Software\uCOS-II\Source/os_core.c **** #endif
 581:..\..\..\..\..\..\Software\uCOS-II\Source/os_core.c **** #endif
 582:..\..\..\..\..\..\Software\uCOS-II\Source/os_core.c **** 
 583:..\..\..\..\..\..\Software\uCOS-II\Source/os_core.c ****     OSInitHookBegin();                                           /* Call port specific initializati
 336              		.loc 1 583 0
 337 0004 FFF7FEFF 		bl	OSInitHookBegin
 584:..\..\..\..\..\..\Software\uCOS-II\Source/os_core.c **** 
 585:..\..\..\..\..\..\Software\uCOS-II\Source/os_core.c ****     OS_InitMisc();                                               /* Initialize miscellaneous variab
 338              		.loc 1 585 0
 339 0008 FFF7FEFF 		bl	OS_InitMisc
 586:..\..\..\..\..\..\Software\uCOS-II\Source/os_core.c **** 
 587:..\..\..\..\..\..\Software\uCOS-II\Source/os_core.c ****     OS_InitRdyList();                                            /* Initialize the Ready List      
 340              		.loc 1 587 0
 341 000c FFF7FEFF 		bl	OS_InitRdyList
 588:..\..\..\..\..\..\Software\uCOS-II\Source/os_core.c **** 
 589:..\..\..\..\..\..\Software\uCOS-II\Source/os_core.c ****     OS_InitTCBList();                                            /* Initialize the free list of OS_
 342              		.loc 1 589 0
 343 0010 FFF7FEFF 		bl	OS_InitTCBList
 590:..\..\..\..\..\..\Software\uCOS-II\Source/os_core.c **** 
 591:..\..\..\..\..\..\Software\uCOS-II\Source/os_core.c ****     OS_InitEventList();                                          /* Initialize the free list of OS_
 344              		.loc 1 591 0
 345 0014 FFF7FEFF 		bl	OS_InitEventList
 592:..\..\..\..\..\..\Software\uCOS-II\Source/os_core.c **** 
 593:..\..\..\..\..\..\Software\uCOS-II\Source/os_core.c **** #if (OS_FLAG_EN > 0u) && (OS_MAX_FLAGS > 0u)
 594:..\..\..\..\..\..\Software\uCOS-II\Source/os_core.c ****     OS_FlagInit();                                               /* Initialize the event flag struc
 595:..\..\..\..\..\..\Software\uCOS-II\Source/os_core.c **** #endif
 596:..\..\..\..\..\..\Software\uCOS-II\Source/os_core.c **** 
 597:..\..\..\..\..\..\Software\uCOS-II\Source/os_core.c **** #if (OS_MEM_EN > 0u) && (OS_MAX_MEM_PART > 0u)
 598:..\..\..\..\..\..\Software\uCOS-II\Source/os_core.c ****     OS_MemInit();                                                /* Initialize the memory manager  
 599:..\..\..\..\..\..\Software\uCOS-II\Source/os_core.c **** #endif
 600:..\..\..\..\..\..\Software\uCOS-II\Source/os_core.c **** 
 601:..\..\..\..\..\..\Software\uCOS-II\Source/os_core.c **** #if (OS_Q_EN > 0u) && (OS_MAX_QS > 0u)
 602:..\..\..\..\..\..\Software\uCOS-II\Source/os_core.c ****     OS_QInit();                                                  /* Initialize the message queue st
 603:..\..\..\..\..\..\Software\uCOS-II\Source/os_core.c **** #endif
 604:..\..\..\..\..\..\Software\uCOS-II\Source/os_core.c **** 
 605:..\..\..\..\..\..\Software\uCOS-II\Source/os_core.c **** #if OS_TASK_CREATE_EXT_EN > 0u
 606:..\..\..\..\..\..\Software\uCOS-II\Source/os_core.c **** #if defined(OS_TLS_TBL_SIZE) && (OS_TLS_TBL_SIZE > 0u)
 607:..\..\..\..\..\..\Software\uCOS-II\Source/os_core.c ****     OS_TLS_Init(&err);                                           /* Initialize TLS, before creating
 608:..\..\..\..\..\..\Software\uCOS-II\Source/os_core.c ****     if (err != OS_ERR_NONE) {
 609:..\..\..\..\..\..\Software\uCOS-II\Source/os_core.c ****         return;
 610:..\..\..\..\..\..\Software\uCOS-II\Source/os_core.c ****     }
 611:..\..\..\..\..\..\Software\uCOS-II\Source/os_core.c **** #endif
 612:..\..\..\..\..\..\Software\uCOS-II\Source/os_core.c **** #endif
 613:..\..\..\..\..\..\Software\uCOS-II\Source/os_core.c **** 
 614:..\..\..\..\..\..\Software\uCOS-II\Source/os_core.c ****     OS_InitTaskIdle();                                           /* Create the Idle Task           
 346              		.loc 1 614 0
 347 0018 FFF7FEFF 		bl	OS_InitTaskIdle
 615:..\..\..\..\..\..\Software\uCOS-II\Source/os_core.c **** #if OS_TASK_STAT_EN > 0u
 616:..\..\..\..\..\..\Software\uCOS-II\Source/os_core.c ****     OS_InitTaskStat();                                           /* Create the Statistic Task      
 348              		.loc 1 616 0
 349 001c FFF7FEFF 		bl	OS_InitTaskStat
 617:..\..\..\..\..\..\Software\uCOS-II\Source/os_core.c **** #endif
 618:..\..\..\..\..\..\Software\uCOS-II\Source/os_core.c **** 
 619:..\..\..\..\..\..\Software\uCOS-II\Source/os_core.c **** #if OS_TMR_EN > 0u
 620:..\..\..\..\..\..\Software\uCOS-II\Source/os_core.c ****     OSTmr_Init();                                                /* Initialize the Timer Manager   
ARM GAS  C:\Users\EDULU~1.DES\AppData\Local\Temp\ccKclfbr.s 			page 18


 350              		.loc 1 620 0
 351 0020 FFF7FEFF 		bl	OSTmr_Init
 621:..\..\..\..\..\..\Software\uCOS-II\Source/os_core.c **** #endif
 622:..\..\..\..\..\..\Software\uCOS-II\Source/os_core.c **** 
 623:..\..\..\..\..\..\Software\uCOS-II\Source/os_core.c ****     OSInitHookEnd();                                             /* Call port specific init. code  
 352              		.loc 1 623 0
 353 0024 FFF7FEFF 		bl	OSInitHookEnd
 624:..\..\..\..\..\..\Software\uCOS-II\Source/os_core.c **** 
 625:..\..\..\..\..\..\Software\uCOS-II\Source/os_core.c **** #if OS_DEBUG_EN > 0u
 626:..\..\..\..\..\..\Software\uCOS-II\Source/os_core.c ****     OSDebugInit();
 627:..\..\..\..\..\..\Software\uCOS-II\Source/os_core.c **** #endif
 628:..\..\..\..\..\..\Software\uCOS-II\Source/os_core.c **** }
 354              		.loc 1 628 0
 355 0028 C046     		nop
 356 002a BD46     		mov	sp, r7
 357              		@ sp needed
 358 002c 80BD     		pop	{r7, pc}
 359              		.cfi_endproc
 360              	.LFE1:
 361              		.size	OSInit, .-OSInit
 362 002e C046     		.section	.text.OSIntEnter,"ax",%progbits
 363              		.align	2
 364              		.global	OSIntEnter
 365              		.code	16
 366              		.thumb_func
 367              		.type	OSIntEnter, %function
 368              	OSIntEnter:
 369              	.LFB2:
 629:..\..\..\..\..\..\Software\uCOS-II\Source/os_core.c **** /*$PAGE*/
 630:..\..\..\..\..\..\Software\uCOS-II\Source/os_core.c **** /*
 631:..\..\..\..\..\..\Software\uCOS-II\Source/os_core.c **** ***************************************************************************************************
 632:..\..\..\..\..\..\Software\uCOS-II\Source/os_core.c **** *                                              ENTER ISR
 633:..\..\..\..\..\..\Software\uCOS-II\Source/os_core.c **** *
 634:..\..\..\..\..\..\Software\uCOS-II\Source/os_core.c **** * Description: This function is used to notify uC/OS-II that you are about to service an interrupt
 635:..\..\..\..\..\..\Software\uCOS-II\Source/os_core.c **** *              service routine (ISR).  This allows uC/OS-II to keep track of interrupt nesting and 
 636:..\..\..\..\..\..\Software\uCOS-II\Source/os_core.c **** *              only perform rescheduling at the last nested ISR.
 637:..\..\..\..\..\..\Software\uCOS-II\Source/os_core.c **** *
 638:..\..\..\..\..\..\Software\uCOS-II\Source/os_core.c **** * Arguments  : none
 639:..\..\..\..\..\..\Software\uCOS-II\Source/os_core.c **** *
 640:..\..\..\..\..\..\Software\uCOS-II\Source/os_core.c **** * Returns    : none
 641:..\..\..\..\..\..\Software\uCOS-II\Source/os_core.c **** *
 642:..\..\..\..\..\..\Software\uCOS-II\Source/os_core.c **** * Notes      : 1) This function should be called with interrupts already disabled
 643:..\..\..\..\..\..\Software\uCOS-II\Source/os_core.c **** *              2) Your ISR can directly increment OSIntNesting without calling this function becaus
 644:..\..\..\..\..\..\Software\uCOS-II\Source/os_core.c **** *                 OSIntNesting has been declared 'global'.
 645:..\..\..\..\..\..\Software\uCOS-II\Source/os_core.c **** *              3) You MUST still call OSIntExit() even though you increment OSIntNesting directly.
 646:..\..\..\..\..\..\Software\uCOS-II\Source/os_core.c **** *              4) You MUST invoke OSIntEnter() and OSIntExit() in pair.  In other words, for every 
 647:..\..\..\..\..\..\Software\uCOS-II\Source/os_core.c **** *                 to OSIntEnter() at the beginning of the ISR you MUST have a call to OSIntExit() a
 648:..\..\..\..\..\..\Software\uCOS-II\Source/os_core.c **** *                 end of the ISR.
 649:..\..\..\..\..\..\Software\uCOS-II\Source/os_core.c **** *              5) You are allowed to nest interrupts up to 255 levels deep.
 650:..\..\..\..\..\..\Software\uCOS-II\Source/os_core.c **** *              6) I removed the OS_ENTER_CRITICAL() and OS_EXIT_CRITICAL() around the increment bec
 651:..\..\..\..\..\..\Software\uCOS-II\Source/os_core.c **** *                 OSIntEnter() is always called with interrupts disabled.
 652:..\..\..\..\..\..\Software\uCOS-II\Source/os_core.c **** ***************************************************************************************************
 653:..\..\..\..\..\..\Software\uCOS-II\Source/os_core.c **** */
 654:..\..\..\..\..\..\Software\uCOS-II\Source/os_core.c **** 
 655:..\..\..\..\..\..\Software\uCOS-II\Source/os_core.c **** void  OSIntEnter (void)
 656:..\..\..\..\..\..\Software\uCOS-II\Source/os_core.c **** {
 370              		.loc 1 656 0
ARM GAS  C:\Users\EDULU~1.DES\AppData\Local\Temp\ccKclfbr.s 			page 19


 371              		.cfi_startproc
 372              		@ args = 0, pretend = 0, frame = 0
 373              		@ frame_needed = 1, uses_anonymous_args = 0
 374 0000 80B5     		push	{r7, lr}
 375              		.cfi_def_cfa_offset 8
 376              		.cfi_offset 7, -8
 377              		.cfi_offset 14, -4
 378 0002 00AF     		add	r7, sp, #0
 379              		.cfi_def_cfa_register 7
 657:..\..\..\..\..\..\Software\uCOS-II\Source/os_core.c ****     if (OSRunning == OS_TRUE) {
 380              		.loc 1 657 0
 381 0004 084B     		ldr	r3, .L5
 382 0006 1B78     		ldrb	r3, [r3]
 383 0008 012B     		cmp	r3, #1
 384 000a 09D1     		bne	.L4
 658:..\..\..\..\..\..\Software\uCOS-II\Source/os_core.c ****         if (OSIntNesting < 255u) {
 385              		.loc 1 658 0
 386 000c 074B     		ldr	r3, .L5+4
 387 000e 1B78     		ldrb	r3, [r3]
 388 0010 FF2B     		cmp	r3, #255
 389 0012 05D0     		beq	.L4
 659:..\..\..\..\..\..\Software\uCOS-II\Source/os_core.c ****             OSIntNesting++;                      /* Increment ISR nesting level                    
 390              		.loc 1 659 0
 391 0014 054B     		ldr	r3, .L5+4
 392 0016 1B78     		ldrb	r3, [r3]
 393 0018 0133     		adds	r3, r3, #1
 394 001a DAB2     		uxtb	r2, r3
 395 001c 034B     		ldr	r3, .L5+4
 396 001e 1A70     		strb	r2, [r3]
 397              	.L4:
 660:..\..\..\..\..\..\Software\uCOS-II\Source/os_core.c ****         }
 661:..\..\..\..\..\..\Software\uCOS-II\Source/os_core.c ****     }
 662:..\..\..\..\..\..\Software\uCOS-II\Source/os_core.c **** }
 398              		.loc 1 662 0
 399 0020 C046     		nop
 400 0022 BD46     		mov	sp, r7
 401              		@ sp needed
 402 0024 80BD     		pop	{r7, pc}
 403              	.L6:
 404 0026 C046     		.align	2
 405              	.L5:
 406 0028 00000000 		.word	OSRunning
 407 002c 00000000 		.word	OSIntNesting
 408              		.cfi_endproc
 409              	.LFE2:
 410              		.size	OSIntEnter, .-OSIntEnter
 411              		.section	.text.OSIntExit,"ax",%progbits
 412              		.align	2
 413              		.global	OSIntExit
 414              		.code	16
 415              		.thumb_func
 416              		.type	OSIntExit, %function
 417              	OSIntExit:
 418              	.LFB3:
 663:..\..\..\..\..\..\Software\uCOS-II\Source/os_core.c **** /*$PAGE*/
 664:..\..\..\..\..\..\Software\uCOS-II\Source/os_core.c **** /*
 665:..\..\..\..\..\..\Software\uCOS-II\Source/os_core.c **** ***************************************************************************************************
ARM GAS  C:\Users\EDULU~1.DES\AppData\Local\Temp\ccKclfbr.s 			page 20


 666:..\..\..\..\..\..\Software\uCOS-II\Source/os_core.c **** *                                              EXIT ISR
 667:..\..\..\..\..\..\Software\uCOS-II\Source/os_core.c **** *
 668:..\..\..\..\..\..\Software\uCOS-II\Source/os_core.c **** * Description: This function is used to notify uC/OS-II that you have completed servicing an ISR.  
 669:..\..\..\..\..\..\Software\uCOS-II\Source/os_core.c **** *              the last nested ISR has completed, uC/OS-II will call the scheduler to determine whe
 670:..\..\..\..\..\..\Software\uCOS-II\Source/os_core.c **** *              a new, high-priority task, is ready to run.
 671:..\..\..\..\..\..\Software\uCOS-II\Source/os_core.c **** *
 672:..\..\..\..\..\..\Software\uCOS-II\Source/os_core.c **** * Arguments  : none
 673:..\..\..\..\..\..\Software\uCOS-II\Source/os_core.c **** *
 674:..\..\..\..\..\..\Software\uCOS-II\Source/os_core.c **** * Returns    : none
 675:..\..\..\..\..\..\Software\uCOS-II\Source/os_core.c **** *
 676:..\..\..\..\..\..\Software\uCOS-II\Source/os_core.c **** * Notes      : 1) You MUST invoke OSIntEnter() and OSIntExit() in pair.  In other words, for every 
 677:..\..\..\..\..\..\Software\uCOS-II\Source/os_core.c **** *                 to OSIntEnter() at the beginning of the ISR you MUST have a call to OSIntExit() a
 678:..\..\..\..\..\..\Software\uCOS-II\Source/os_core.c **** *                 end of the ISR.
 679:..\..\..\..\..\..\Software\uCOS-II\Source/os_core.c **** *              2) Rescheduling is prevented when the scheduler is locked (see OS_SchedLock())
 680:..\..\..\..\..\..\Software\uCOS-II\Source/os_core.c **** ***************************************************************************************************
 681:..\..\..\..\..\..\Software\uCOS-II\Source/os_core.c **** */
 682:..\..\..\..\..\..\Software\uCOS-II\Source/os_core.c **** 
 683:..\..\..\..\..\..\Software\uCOS-II\Source/os_core.c **** void  OSIntExit (void)
 684:..\..\..\..\..\..\Software\uCOS-II\Source/os_core.c **** {
 419              		.loc 1 684 0
 420              		.cfi_startproc
 421              		@ args = 0, pretend = 0, frame = 8
 422              		@ frame_needed = 1, uses_anonymous_args = 0
 423 0000 80B5     		push	{r7, lr}
 424              		.cfi_def_cfa_offset 8
 425              		.cfi_offset 7, -8
 426              		.cfi_offset 14, -4
 427 0002 82B0     		sub	sp, sp, #8
 428              		.cfi_def_cfa_offset 16
 429 0004 00AF     		add	r7, sp, #0
 430              		.cfi_def_cfa_register 7
 685:..\..\..\..\..\..\Software\uCOS-II\Source/os_core.c **** #if OS_CRITICAL_METHOD == 3u                               /* Allocate storage for CPU status regis
 686:..\..\..\..\..\..\Software\uCOS-II\Source/os_core.c ****     OS_CPU_SR  cpu_sr = 0u;
 431              		.loc 1 686 0
 432 0006 0023     		movs	r3, #0
 433 0008 7B60     		str	r3, [r7, #4]
 687:..\..\..\..\..\..\Software\uCOS-II\Source/os_core.c **** #endif
 688:..\..\..\..\..\..\Software\uCOS-II\Source/os_core.c **** 
 689:..\..\..\..\..\..\Software\uCOS-II\Source/os_core.c **** 
 690:..\..\..\..\..\..\Software\uCOS-II\Source/os_core.c **** 
 691:..\..\..\..\..\..\Software\uCOS-II\Source/os_core.c ****     if (OSRunning == OS_TRUE) {
 434              		.loc 1 691 0
 435 000a 1C4B     		ldr	r3, .L12
 436 000c 1B78     		ldrb	r3, [r3]
 437 000e 012B     		cmp	r3, #1
 438 0010 30D1     		bne	.L11
 692:..\..\..\..\..\..\Software\uCOS-II\Source/os_core.c ****         OS_ENTER_CRITICAL();
 439              		.loc 1 692 0
 440 0012 FFF7FEFF 		bl	OS_CPU_SR_Save
 441 0016 0300     		movs	r3, r0
 442 0018 7B60     		str	r3, [r7, #4]
 693:..\..\..\..\..\..\Software\uCOS-II\Source/os_core.c ****         if (OSIntNesting > 0u) {                           /* Prevent OSIntNesting from wrapping   
 443              		.loc 1 693 0
 444 001a 194B     		ldr	r3, .L12+4
 445 001c 1B78     		ldrb	r3, [r3]
 446 001e 002B     		cmp	r3, #0
 447 0020 05D0     		beq	.L9
ARM GAS  C:\Users\EDULU~1.DES\AppData\Local\Temp\ccKclfbr.s 			page 21


 694:..\..\..\..\..\..\Software\uCOS-II\Source/os_core.c ****             OSIntNesting--;
 448              		.loc 1 694 0
 449 0022 174B     		ldr	r3, .L12+4
 450 0024 1B78     		ldrb	r3, [r3]
 451 0026 013B     		subs	r3, r3, #1
 452 0028 DAB2     		uxtb	r2, r3
 453 002a 154B     		ldr	r3, .L12+4
 454 002c 1A70     		strb	r2, [r3]
 455              	.L9:
 695:..\..\..\..\..\..\Software\uCOS-II\Source/os_core.c ****         }
 696:..\..\..\..\..\..\Software\uCOS-II\Source/os_core.c ****         if (OSIntNesting == 0u) {                          /* Reschedule only if all ISRs complete 
 456              		.loc 1 696 0
 457 002e 144B     		ldr	r3, .L12+4
 458 0030 1B78     		ldrb	r3, [r3]
 459 0032 002B     		cmp	r3, #0
 460 0034 1AD1     		bne	.L10
 697:..\..\..\..\..\..\Software\uCOS-II\Source/os_core.c ****             if (OSLockNesting == 0u) {                     /* ... and not locked.                  
 461              		.loc 1 697 0
 462 0036 134B     		ldr	r3, .L12+8
 463 0038 1B78     		ldrb	r3, [r3]
 464 003a 002B     		cmp	r3, #0
 465 003c 16D1     		bne	.L10
 698:..\..\..\..\..\..\Software\uCOS-II\Source/os_core.c ****                 OS_SchedNew();
 466              		.loc 1 698 0
 467 003e FFF7FEFF 		bl	OS_SchedNew
 699:..\..\..\..\..\..\Software\uCOS-II\Source/os_core.c ****                 OSTCBHighRdy = OSTCBPrioTbl[OSPrioHighRdy];
 468              		.loc 1 699 0
 469 0042 114B     		ldr	r3, .L12+12
 470 0044 1B78     		ldrb	r3, [r3]
 471 0046 1A00     		movs	r2, r3
 472 0048 104B     		ldr	r3, .L12+16
 473 004a 9200     		lsls	r2, r2, #2
 474 004c D258     		ldr	r2, [r2, r3]
 475 004e 104B     		ldr	r3, .L12+20
 476 0050 1A60     		str	r2, [r3]
 700:..\..\..\..\..\..\Software\uCOS-II\Source/os_core.c ****                 if (OSPrioHighRdy != OSPrioCur) {          /* No Ctx Sw if current task is highest 
 477              		.loc 1 700 0
 478 0052 0D4B     		ldr	r3, .L12+12
 479 0054 1A78     		ldrb	r2, [r3]
 480 0056 0F4B     		ldr	r3, .L12+24
 481 0058 1B78     		ldrb	r3, [r3]
 482 005a 9A42     		cmp	r2, r3
 483 005c 06D0     		beq	.L10
 701:..\..\..\..\..\..\Software\uCOS-II\Source/os_core.c **** #if OS_TASK_PROFILE_EN > 0u
 702:..\..\..\..\..\..\Software\uCOS-II\Source/os_core.c ****                     OSTCBHighRdy->OSTCBCtxSwCtr++;         /* Inc. # of context switches to this ta
 703:..\..\..\..\..\..\Software\uCOS-II\Source/os_core.c **** #endif
 704:..\..\..\..\..\..\Software\uCOS-II\Source/os_core.c ****                     OSCtxSwCtr++;                          /* Keep track of the number of ctx switc
 484              		.loc 1 704 0
 485 005e 0E4B     		ldr	r3, .L12+28
 486 0060 1B68     		ldr	r3, [r3]
 487 0062 5A1C     		adds	r2, r3, #1
 488 0064 0C4B     		ldr	r3, .L12+28
 489 0066 1A60     		str	r2, [r3]
 705:..\..\..\..\..\..\Software\uCOS-II\Source/os_core.c **** 
 706:..\..\..\..\..\..\Software\uCOS-II\Source/os_core.c **** #if OS_TASK_CREATE_EXT_EN > 0u
 707:..\..\..\..\..\..\Software\uCOS-II\Source/os_core.c **** #if defined(OS_TLS_TBL_SIZE) && (OS_TLS_TBL_SIZE > 0u)
 708:..\..\..\..\..\..\Software\uCOS-II\Source/os_core.c ****                     OS_TLS_TaskSw();
ARM GAS  C:\Users\EDULU~1.DES\AppData\Local\Temp\ccKclfbr.s 			page 22


 709:..\..\..\..\..\..\Software\uCOS-II\Source/os_core.c **** #endif
 710:..\..\..\..\..\..\Software\uCOS-II\Source/os_core.c **** #endif
 711:..\..\..\..\..\..\Software\uCOS-II\Source/os_core.c **** 
 712:..\..\..\..\..\..\Software\uCOS-II\Source/os_core.c ****                     OSIntCtxSw();                          /* Perform interrupt level ctx switch   
 490              		.loc 1 712 0
 491 0068 FFF7FEFF 		bl	OSIntCtxSw
 492              	.L10:
 713:..\..\..\..\..\..\Software\uCOS-II\Source/os_core.c ****                 }
 714:..\..\..\..\..\..\Software\uCOS-II\Source/os_core.c ****             }
 715:..\..\..\..\..\..\Software\uCOS-II\Source/os_core.c ****         }
 716:..\..\..\..\..\..\Software\uCOS-II\Source/os_core.c ****         OS_EXIT_CRITICAL();
 493              		.loc 1 716 0
 494 006c 7B68     		ldr	r3, [r7, #4]
 495 006e 1800     		movs	r0, r3
 496 0070 FFF7FEFF 		bl	OS_CPU_SR_Restore
 497              	.L11:
 717:..\..\..\..\..\..\Software\uCOS-II\Source/os_core.c ****     }
 718:..\..\..\..\..\..\Software\uCOS-II\Source/os_core.c **** }
 498              		.loc 1 718 0
 499 0074 C046     		nop
 500 0076 BD46     		mov	sp, r7
 501 0078 02B0     		add	sp, sp, #8
 502              		@ sp needed
 503 007a 80BD     		pop	{r7, pc}
 504              	.L13:
 505              		.align	2
 506              	.L12:
 507 007c 00000000 		.word	OSRunning
 508 0080 00000000 		.word	OSIntNesting
 509 0084 00000000 		.word	OSLockNesting
 510 0088 00000000 		.word	OSPrioHighRdy
 511 008c 00000000 		.word	OSTCBPrioTbl
 512 0090 00000000 		.word	OSTCBHighRdy
 513 0094 00000000 		.word	OSPrioCur
 514 0098 00000000 		.word	OSCtxSwCtr
 515              		.cfi_endproc
 516              	.LFE3:
 517              		.size	OSIntExit, .-OSIntExit
 518              		.section	.text.OSSchedLock,"ax",%progbits
 519              		.align	2
 520              		.global	OSSchedLock
 521              		.code	16
 522              		.thumb_func
 523              		.type	OSSchedLock, %function
 524              	OSSchedLock:
 525              	.LFB4:
 719:..\..\..\..\..\..\Software\uCOS-II\Source/os_core.c **** /*$PAGE*/
 720:..\..\..\..\..\..\Software\uCOS-II\Source/os_core.c **** /*
 721:..\..\..\..\..\..\Software\uCOS-II\Source/os_core.c **** ***************************************************************************************************
 722:..\..\..\..\..\..\Software\uCOS-II\Source/os_core.c **** *                         INDICATE THAT IT'S NO LONGER SAFE TO CREATE OBJECTS
 723:..\..\..\..\..\..\Software\uCOS-II\Source/os_core.c **** *
 724:..\..\..\..\..\..\Software\uCOS-II\Source/os_core.c **** * Description: This function is called by the application code to indicate that all initialization 
 725:..\..\..\..\..\..\Software\uCOS-II\Source/os_core.c **** *              been completed and that kernel objects are no longer allowed to be created.
 726:..\..\..\..\..\..\Software\uCOS-II\Source/os_core.c **** *
 727:..\..\..\..\..\..\Software\uCOS-II\Source/os_core.c **** * Arguments  : none
 728:..\..\..\..\..\..\Software\uCOS-II\Source/os_core.c **** *
 729:..\..\..\..\..\..\Software\uCOS-II\Source/os_core.c **** * Returns    : none
ARM GAS  C:\Users\EDULU~1.DES\AppData\Local\Temp\ccKclfbr.s 			page 23


 730:..\..\..\..\..\..\Software\uCOS-II\Source/os_core.c **** *
 731:..\..\..\..\..\..\Software\uCOS-II\Source/os_core.c **** * Note(s)    : 1) You should call this function when you no longer want to allow application code t
 732:..\..\..\..\..\..\Software\uCOS-II\Source/os_core.c **** *                 create kernel objects.
 733:..\..\..\..\..\..\Software\uCOS-II\Source/os_core.c **** *              2) You need to define the macro 'OS_SAFETY_CRITICAL_IEC61508'
 734:..\..\..\..\..\..\Software\uCOS-II\Source/os_core.c **** ***************************************************************************************************
 735:..\..\..\..\..\..\Software\uCOS-II\Source/os_core.c **** */
 736:..\..\..\..\..\..\Software\uCOS-II\Source/os_core.c **** 
 737:..\..\..\..\..\..\Software\uCOS-II\Source/os_core.c **** #ifdef OS_SAFETY_CRITICAL_IEC61508
 738:..\..\..\..\..\..\Software\uCOS-II\Source/os_core.c **** void  OSSafetyCriticalStart (void)
 739:..\..\..\..\..\..\Software\uCOS-II\Source/os_core.c **** {
 740:..\..\..\..\..\..\Software\uCOS-II\Source/os_core.c ****     OSSafetyCriticalStartFlag = OS_TRUE;
 741:..\..\..\..\..\..\Software\uCOS-II\Source/os_core.c **** }
 742:..\..\..\..\..\..\Software\uCOS-II\Source/os_core.c **** 
 743:..\..\..\..\..\..\Software\uCOS-II\Source/os_core.c **** #endif
 744:..\..\..\..\..\..\Software\uCOS-II\Source/os_core.c **** 
 745:..\..\..\..\..\..\Software\uCOS-II\Source/os_core.c **** /*$PAGE*/
 746:..\..\..\..\..\..\Software\uCOS-II\Source/os_core.c **** /*
 747:..\..\..\..\..\..\Software\uCOS-II\Source/os_core.c **** ***************************************************************************************************
 748:..\..\..\..\..\..\Software\uCOS-II\Source/os_core.c **** *                                         PREVENT SCHEDULING
 749:..\..\..\..\..\..\Software\uCOS-II\Source/os_core.c **** *
 750:..\..\..\..\..\..\Software\uCOS-II\Source/os_core.c **** * Description: This function is used to prevent rescheduling to take place.  This allows your appli
 751:..\..\..\..\..\..\Software\uCOS-II\Source/os_core.c **** *              to prevent context switches until you are ready to permit context switching.
 752:..\..\..\..\..\..\Software\uCOS-II\Source/os_core.c **** *
 753:..\..\..\..\..\..\Software\uCOS-II\Source/os_core.c **** * Arguments  : none
 754:..\..\..\..\..\..\Software\uCOS-II\Source/os_core.c **** *
 755:..\..\..\..\..\..\Software\uCOS-II\Source/os_core.c **** * Returns    : none
 756:..\..\..\..\..\..\Software\uCOS-II\Source/os_core.c **** *
 757:..\..\..\..\..\..\Software\uCOS-II\Source/os_core.c **** * Notes      : 1) You MUST invoke OSSchedLock() and OSSchedUnlock() in pair.  In other words, for e
 758:..\..\..\..\..\..\Software\uCOS-II\Source/os_core.c **** *                 call to OSSchedLock() you MUST have a call to OSSchedUnlock().
 759:..\..\..\..\..\..\Software\uCOS-II\Source/os_core.c **** ***************************************************************************************************
 760:..\..\..\..\..\..\Software\uCOS-II\Source/os_core.c **** */
 761:..\..\..\..\..\..\Software\uCOS-II\Source/os_core.c **** 
 762:..\..\..\..\..\..\Software\uCOS-II\Source/os_core.c **** #if OS_SCHED_LOCK_EN > 0u
 763:..\..\..\..\..\..\Software\uCOS-II\Source/os_core.c **** void  OSSchedLock (void)
 764:..\..\..\..\..\..\Software\uCOS-II\Source/os_core.c **** {
 526              		.loc 1 764 0
 527              		.cfi_startproc
 528              		@ args = 0, pretend = 0, frame = 8
 529              		@ frame_needed = 1, uses_anonymous_args = 0
 530 0000 80B5     		push	{r7, lr}
 531              		.cfi_def_cfa_offset 8
 532              		.cfi_offset 7, -8
 533              		.cfi_offset 14, -4
 534 0002 82B0     		sub	sp, sp, #8
 535              		.cfi_def_cfa_offset 16
 536 0004 00AF     		add	r7, sp, #0
 537              		.cfi_def_cfa_register 7
 765:..\..\..\..\..\..\Software\uCOS-II\Source/os_core.c **** #if OS_CRITICAL_METHOD == 3u                     /* Allocate storage for CPU status register       
 766:..\..\..\..\..\..\Software\uCOS-II\Source/os_core.c ****     OS_CPU_SR  cpu_sr = 0u;
 538              		.loc 1 766 0
 539 0006 0023     		movs	r3, #0
 540 0008 7B60     		str	r3, [r7, #4]
 767:..\..\..\..\..\..\Software\uCOS-II\Source/os_core.c **** #endif
 768:..\..\..\..\..\..\Software\uCOS-II\Source/os_core.c **** 
 769:..\..\..\..\..\..\Software\uCOS-II\Source/os_core.c **** 
 770:..\..\..\..\..\..\Software\uCOS-II\Source/os_core.c **** 
 771:..\..\..\..\..\..\Software\uCOS-II\Source/os_core.c ****     if (OSRunning == OS_TRUE) {                  /* Make sure multitasking is running              
ARM GAS  C:\Users\EDULU~1.DES\AppData\Local\Temp\ccKclfbr.s 			page 24


 541              		.loc 1 771 0
 542 000a 0F4B     		ldr	r3, .L18
 543 000c 1B78     		ldrb	r3, [r3]
 544 000e 012B     		cmp	r3, #1
 545 0010 15D1     		bne	.L17
 772:..\..\..\..\..\..\Software\uCOS-II\Source/os_core.c ****         OS_ENTER_CRITICAL();
 546              		.loc 1 772 0
 547 0012 FFF7FEFF 		bl	OS_CPU_SR_Save
 548 0016 0300     		movs	r3, r0
 549 0018 7B60     		str	r3, [r7, #4]
 773:..\..\..\..\..\..\Software\uCOS-II\Source/os_core.c ****         if (OSIntNesting == 0u) {                /* Can't call from an ISR                         
 550              		.loc 1 773 0
 551 001a 0C4B     		ldr	r3, .L18+4
 552 001c 1B78     		ldrb	r3, [r3]
 553 001e 002B     		cmp	r3, #0
 554 0020 09D1     		bne	.L16
 774:..\..\..\..\..\..\Software\uCOS-II\Source/os_core.c ****             if (OSLockNesting < 255u) {          /* Prevent OSLockNesting from wrapping back to 0  
 555              		.loc 1 774 0
 556 0022 0B4B     		ldr	r3, .L18+8
 557 0024 1B78     		ldrb	r3, [r3]
 558 0026 FF2B     		cmp	r3, #255
 559 0028 05D0     		beq	.L16
 775:..\..\..\..\..\..\Software\uCOS-II\Source/os_core.c ****                 OSLockNesting++;                 /* Increment lock nesting level                   
 560              		.loc 1 775 0
 561 002a 094B     		ldr	r3, .L18+8
 562 002c 1B78     		ldrb	r3, [r3]
 563 002e 0133     		adds	r3, r3, #1
 564 0030 DAB2     		uxtb	r2, r3
 565 0032 074B     		ldr	r3, .L18+8
 566 0034 1A70     		strb	r2, [r3]
 567              	.L16:
 776:..\..\..\..\..\..\Software\uCOS-II\Source/os_core.c ****             }
 777:..\..\..\..\..\..\Software\uCOS-II\Source/os_core.c ****         }
 778:..\..\..\..\..\..\Software\uCOS-II\Source/os_core.c ****         OS_EXIT_CRITICAL();
 568              		.loc 1 778 0
 569 0036 7B68     		ldr	r3, [r7, #4]
 570 0038 1800     		movs	r0, r3
 571 003a FFF7FEFF 		bl	OS_CPU_SR_Restore
 572              	.L17:
 779:..\..\..\..\..\..\Software\uCOS-II\Source/os_core.c ****     }
 780:..\..\..\..\..\..\Software\uCOS-II\Source/os_core.c **** }
 573              		.loc 1 780 0
 574 003e C046     		nop
 575 0040 BD46     		mov	sp, r7
 576 0042 02B0     		add	sp, sp, #8
 577              		@ sp needed
 578 0044 80BD     		pop	{r7, pc}
 579              	.L19:
 580 0046 C046     		.align	2
 581              	.L18:
 582 0048 00000000 		.word	OSRunning
 583 004c 00000000 		.word	OSIntNesting
 584 0050 00000000 		.word	OSLockNesting
 585              		.cfi_endproc
 586              	.LFE4:
 587              		.size	OSSchedLock, .-OSSchedLock
 588              		.section	.text.OSSchedUnlock,"ax",%progbits
ARM GAS  C:\Users\EDULU~1.DES\AppData\Local\Temp\ccKclfbr.s 			page 25


 589              		.align	2
 590              		.global	OSSchedUnlock
 591              		.code	16
 592              		.thumb_func
 593              		.type	OSSchedUnlock, %function
 594              	OSSchedUnlock:
 595              	.LFB5:
 781:..\..\..\..\..\..\Software\uCOS-II\Source/os_core.c **** #endif
 782:..\..\..\..\..\..\Software\uCOS-II\Source/os_core.c **** 
 783:..\..\..\..\..\..\Software\uCOS-II\Source/os_core.c **** /*$PAGE*/
 784:..\..\..\..\..\..\Software\uCOS-II\Source/os_core.c **** /*
 785:..\..\..\..\..\..\Software\uCOS-II\Source/os_core.c **** ***************************************************************************************************
 786:..\..\..\..\..\..\Software\uCOS-II\Source/os_core.c **** *                                          ENABLE SCHEDULING
 787:..\..\..\..\..\..\Software\uCOS-II\Source/os_core.c **** *
 788:..\..\..\..\..\..\Software\uCOS-II\Source/os_core.c **** * Description: This function is used to re-allow rescheduling.
 789:..\..\..\..\..\..\Software\uCOS-II\Source/os_core.c **** *
 790:..\..\..\..\..\..\Software\uCOS-II\Source/os_core.c **** * Arguments  : none
 791:..\..\..\..\..\..\Software\uCOS-II\Source/os_core.c **** *
 792:..\..\..\..\..\..\Software\uCOS-II\Source/os_core.c **** * Returns    : none
 793:..\..\..\..\..\..\Software\uCOS-II\Source/os_core.c **** *
 794:..\..\..\..\..\..\Software\uCOS-II\Source/os_core.c **** * Notes      : 1) You MUST invoke OSSchedLock() and OSSchedUnlock() in pair.  In other words, for e
 795:..\..\..\..\..\..\Software\uCOS-II\Source/os_core.c **** *                 call to OSSchedLock() you MUST have a call to OSSchedUnlock().
 796:..\..\..\..\..\..\Software\uCOS-II\Source/os_core.c **** ***************************************************************************************************
 797:..\..\..\..\..\..\Software\uCOS-II\Source/os_core.c **** */
 798:..\..\..\..\..\..\Software\uCOS-II\Source/os_core.c **** 
 799:..\..\..\..\..\..\Software\uCOS-II\Source/os_core.c **** #if OS_SCHED_LOCK_EN > 0u
 800:..\..\..\..\..\..\Software\uCOS-II\Source/os_core.c **** void  OSSchedUnlock (void)
 801:..\..\..\..\..\..\Software\uCOS-II\Source/os_core.c **** {
 596              		.loc 1 801 0
 597              		.cfi_startproc
 598              		@ args = 0, pretend = 0, frame = 8
 599              		@ frame_needed = 1, uses_anonymous_args = 0
 600 0000 80B5     		push	{r7, lr}
 601              		.cfi_def_cfa_offset 8
 602              		.cfi_offset 7, -8
 603              		.cfi_offset 14, -4
 604 0002 82B0     		sub	sp, sp, #8
 605              		.cfi_def_cfa_offset 16
 606 0004 00AF     		add	r7, sp, #0
 607              		.cfi_def_cfa_register 7
 802:..\..\..\..\..\..\Software\uCOS-II\Source/os_core.c **** #if OS_CRITICAL_METHOD == 3u                               /* Allocate storage for CPU status regis
 803:..\..\..\..\..\..\Software\uCOS-II\Source/os_core.c ****     OS_CPU_SR  cpu_sr = 0u;
 608              		.loc 1 803 0
 609 0006 0023     		movs	r3, #0
 610 0008 7B60     		str	r3, [r7, #4]
 804:..\..\..\..\..\..\Software\uCOS-II\Source/os_core.c **** #endif
 805:..\..\..\..\..\..\Software\uCOS-II\Source/os_core.c **** 
 806:..\..\..\..\..\..\Software\uCOS-II\Source/os_core.c **** 
 807:..\..\..\..\..\..\Software\uCOS-II\Source/os_core.c **** 
 808:..\..\..\..\..\..\Software\uCOS-II\Source/os_core.c ****     if (OSRunning == OS_TRUE) {                            /* Make sure multitasking is running    
 611              		.loc 1 808 0
 612 000a 194B     		ldr	r3, .L28
 613 000c 1B78     		ldrb	r3, [r3]
 614 000e 012B     		cmp	r3, #1
 615 0010 2AD1     		bne	.L27
 809:..\..\..\..\..\..\Software\uCOS-II\Source/os_core.c ****         OS_ENTER_CRITICAL();
 616              		.loc 1 809 0
ARM GAS  C:\Users\EDULU~1.DES\AppData\Local\Temp\ccKclfbr.s 			page 26


 617 0012 FFF7FEFF 		bl	OS_CPU_SR_Save
 618 0016 0300     		movs	r3, r0
 619 0018 7B60     		str	r3, [r7, #4]
 810:..\..\..\..\..\..\Software\uCOS-II\Source/os_core.c ****         if (OSIntNesting == 0u) {                          /* Can't call from an ISR               
 620              		.loc 1 810 0
 621 001a 164B     		ldr	r3, .L28+4
 622 001c 1B78     		ldrb	r3, [r3]
 623 001e 002B     		cmp	r3, #0
 624 0020 1ED1     		bne	.L22
 811:..\..\..\..\..\..\Software\uCOS-II\Source/os_core.c ****             if (OSLockNesting > 0u) {                      /* Do not decrement if already 0        
 625              		.loc 1 811 0
 626 0022 154B     		ldr	r3, .L28+8
 627 0024 1B78     		ldrb	r3, [r3]
 628 0026 002B     		cmp	r3, #0
 629 0028 15D0     		beq	.L23
 812:..\..\..\..\..\..\Software\uCOS-II\Source/os_core.c ****                 OSLockNesting--;                           /* Decrement lock nesting level         
 630              		.loc 1 812 0
 631 002a 134B     		ldr	r3, .L28+8
 632 002c 1B78     		ldrb	r3, [r3]
 633 002e 013B     		subs	r3, r3, #1
 634 0030 DAB2     		uxtb	r2, r3
 635 0032 114B     		ldr	r3, .L28+8
 636 0034 1A70     		strb	r2, [r3]
 813:..\..\..\..\..\..\Software\uCOS-II\Source/os_core.c ****                 if (OSLockNesting == 0u) {                 /* See if scheduler is enabled          
 637              		.loc 1 813 0
 638 0036 104B     		ldr	r3, .L28+8
 639 0038 1B78     		ldrb	r3, [r3]
 640 003a 002B     		cmp	r3, #0
 641 003c 06D1     		bne	.L24
 814:..\..\..\..\..\..\Software\uCOS-II\Source/os_core.c ****                     OS_EXIT_CRITICAL();
 642              		.loc 1 814 0
 643 003e 7B68     		ldr	r3, [r7, #4]
 644 0040 1800     		movs	r0, r3
 645 0042 FFF7FEFF 		bl	OS_CPU_SR_Restore
 815:..\..\..\..\..\..\Software\uCOS-II\Source/os_core.c ****                     OS_Sched();                            /* See if a HPT is ready                
 646              		.loc 1 815 0
 647 0046 FFF7FEFF 		bl	OS_Sched
 816:..\..\..\..\..\..\Software\uCOS-II\Source/os_core.c ****                 } else {
 817:..\..\..\..\..\..\Software\uCOS-II\Source/os_core.c ****                     OS_EXIT_CRITICAL();
 818:..\..\..\..\..\..\Software\uCOS-II\Source/os_core.c ****                 }
 819:..\..\..\..\..\..\Software\uCOS-II\Source/os_core.c ****             } else {
 820:..\..\..\..\..\..\Software\uCOS-II\Source/os_core.c ****                 OS_EXIT_CRITICAL();
 821:..\..\..\..\..\..\Software\uCOS-II\Source/os_core.c ****             }
 822:..\..\..\..\..\..\Software\uCOS-II\Source/os_core.c ****         } else {
 823:..\..\..\..\..\..\Software\uCOS-II\Source/os_core.c ****             OS_EXIT_CRITICAL();
 824:..\..\..\..\..\..\Software\uCOS-II\Source/os_core.c ****         }
 825:..\..\..\..\..\..\Software\uCOS-II\Source/os_core.c ****     }
 826:..\..\..\..\..\..\Software\uCOS-II\Source/os_core.c **** }
 648              		.loc 1 826 0
 649 004a 0DE0     		b	.L27
 650              	.L24:
 817:..\..\..\..\..\..\Software\uCOS-II\Source/os_core.c ****                 }
 651              		.loc 1 817 0
 652 004c 7B68     		ldr	r3, [r7, #4]
 653 004e 1800     		movs	r0, r3
 654 0050 FFF7FEFF 		bl	OS_CPU_SR_Restore
 655              		.loc 1 826 0
ARM GAS  C:\Users\EDULU~1.DES\AppData\Local\Temp\ccKclfbr.s 			page 27


 656 0054 08E0     		b	.L27
 657              	.L23:
 820:..\..\..\..\..\..\Software\uCOS-II\Source/os_core.c ****             }
 658              		.loc 1 820 0
 659 0056 7B68     		ldr	r3, [r7, #4]
 660 0058 1800     		movs	r0, r3
 661 005a FFF7FEFF 		bl	OS_CPU_SR_Restore
 662              		.loc 1 826 0
 663 005e 03E0     		b	.L27
 664              	.L22:
 823:..\..\..\..\..\..\Software\uCOS-II\Source/os_core.c ****         }
 665              		.loc 1 823 0
 666 0060 7B68     		ldr	r3, [r7, #4]
 667 0062 1800     		movs	r0, r3
 668 0064 FFF7FEFF 		bl	OS_CPU_SR_Restore
 669              	.L27:
 670              		.loc 1 826 0
 671 0068 C046     		nop
 672 006a BD46     		mov	sp, r7
 673 006c 02B0     		add	sp, sp, #8
 674              		@ sp needed
 675 006e 80BD     		pop	{r7, pc}
 676              	.L29:
 677              		.align	2
 678              	.L28:
 679 0070 00000000 		.word	OSRunning
 680 0074 00000000 		.word	OSIntNesting
 681 0078 00000000 		.word	OSLockNesting
 682              		.cfi_endproc
 683              	.LFE5:
 684              		.size	OSSchedUnlock, .-OSSchedUnlock
 685              		.section	.text.OSStart,"ax",%progbits
 686              		.align	2
 687              		.global	OSStart
 688              		.code	16
 689              		.thumb_func
 690              		.type	OSStart, %function
 691              	OSStart:
 692              	.LFB6:
 827:..\..\..\..\..\..\Software\uCOS-II\Source/os_core.c **** #endif
 828:..\..\..\..\..\..\Software\uCOS-II\Source/os_core.c **** 
 829:..\..\..\..\..\..\Software\uCOS-II\Source/os_core.c **** /*$PAGE*/
 830:..\..\..\..\..\..\Software\uCOS-II\Source/os_core.c **** /*
 831:..\..\..\..\..\..\Software\uCOS-II\Source/os_core.c **** ***************************************************************************************************
 832:..\..\..\..\..\..\Software\uCOS-II\Source/os_core.c **** *                                         START MULTITASKING
 833:..\..\..\..\..\..\Software\uCOS-II\Source/os_core.c **** *
 834:..\..\..\..\..\..\Software\uCOS-II\Source/os_core.c **** * Description: This function is used to start the multitasking process which lets uC/OS-II manages 
 835:..\..\..\..\..\..\Software\uCOS-II\Source/os_core.c **** *              task that you have created.  Before you can call OSStart(), you MUST have called OSI
 836:..\..\..\..\..\..\Software\uCOS-II\Source/os_core.c **** *              and you MUST have created at least one task.
 837:..\..\..\..\..\..\Software\uCOS-II\Source/os_core.c **** *
 838:..\..\..\..\..\..\Software\uCOS-II\Source/os_core.c **** * Arguments  : none
 839:..\..\..\..\..\..\Software\uCOS-II\Source/os_core.c **** *
 840:..\..\..\..\..\..\Software\uCOS-II\Source/os_core.c **** * Returns    : none
 841:..\..\..\..\..\..\Software\uCOS-II\Source/os_core.c **** *
 842:..\..\..\..\..\..\Software\uCOS-II\Source/os_core.c **** * Note       : OSStartHighRdy() MUST:
 843:..\..\..\..\..\..\Software\uCOS-II\Source/os_core.c **** *                 a) Call OSTaskSwHook() then,
 844:..\..\..\..\..\..\Software\uCOS-II\Source/os_core.c **** *                 b) Set OSRunning to OS_TRUE.
ARM GAS  C:\Users\EDULU~1.DES\AppData\Local\Temp\ccKclfbr.s 			page 28


 845:..\..\..\..\..\..\Software\uCOS-II\Source/os_core.c **** *                 c) Load the context of the task pointed to by OSTCBHighRdy.
 846:..\..\..\..\..\..\Software\uCOS-II\Source/os_core.c **** *                 d_ Execute the task.
 847:..\..\..\..\..\..\Software\uCOS-II\Source/os_core.c **** ***************************************************************************************************
 848:..\..\..\..\..\..\Software\uCOS-II\Source/os_core.c **** */
 849:..\..\..\..\..\..\Software\uCOS-II\Source/os_core.c **** 
 850:..\..\..\..\..\..\Software\uCOS-II\Source/os_core.c **** void  OSStart (void)
 851:..\..\..\..\..\..\Software\uCOS-II\Source/os_core.c **** {
 693              		.loc 1 851 0
 694              		.cfi_startproc
 695              		@ args = 0, pretend = 0, frame = 0
 696              		@ frame_needed = 1, uses_anonymous_args = 0
 697 0000 80B5     		push	{r7, lr}
 698              		.cfi_def_cfa_offset 8
 699              		.cfi_offset 7, -8
 700              		.cfi_offset 14, -4
 701 0002 00AF     		add	r7, sp, #0
 702              		.cfi_def_cfa_register 7
 852:..\..\..\..\..\..\Software\uCOS-II\Source/os_core.c ****     if (OSRunning == OS_FALSE) {
 703              		.loc 1 852 0
 704 0004 0D4B     		ldr	r3, .L33
 705 0006 1B78     		ldrb	r3, [r3]
 706 0008 002B     		cmp	r3, #0
 707 000a 13D1     		bne	.L32
 853:..\..\..\..\..\..\Software\uCOS-II\Source/os_core.c ****         OS_SchedNew();                               /* Find highest priority's task priority numbe
 708              		.loc 1 853 0
 709 000c FFF7FEFF 		bl	OS_SchedNew
 854:..\..\..\..\..\..\Software\uCOS-II\Source/os_core.c ****         OSPrioCur     = OSPrioHighRdy;
 710              		.loc 1 854 0
 711 0010 0B4B     		ldr	r3, .L33+4
 712 0012 1A78     		ldrb	r2, [r3]
 713 0014 0B4B     		ldr	r3, .L33+8
 714 0016 1A70     		strb	r2, [r3]
 855:..\..\..\..\..\..\Software\uCOS-II\Source/os_core.c ****         OSTCBHighRdy  = OSTCBPrioTbl[OSPrioHighRdy]; /* Point to highest priority task ready to run
 715              		.loc 1 855 0
 716 0018 094B     		ldr	r3, .L33+4
 717 001a 1B78     		ldrb	r3, [r3]
 718 001c 1A00     		movs	r2, r3
 719 001e 0A4B     		ldr	r3, .L33+12
 720 0020 9200     		lsls	r2, r2, #2
 721 0022 D258     		ldr	r2, [r2, r3]
 722 0024 094B     		ldr	r3, .L33+16
 723 0026 1A60     		str	r2, [r3]
 856:..\..\..\..\..\..\Software\uCOS-II\Source/os_core.c ****         OSTCBCur      = OSTCBHighRdy;
 724              		.loc 1 856 0
 725 0028 084B     		ldr	r3, .L33+16
 726 002a 1A68     		ldr	r2, [r3]
 727 002c 084B     		ldr	r3, .L33+20
 728 002e 1A60     		str	r2, [r3]
 857:..\..\..\..\..\..\Software\uCOS-II\Source/os_core.c ****         OSStartHighRdy();                            /* Execute target specific code to start task 
 729              		.loc 1 857 0
 730 0030 FFF7FEFF 		bl	OSStartHighRdy
 731              	.L32:
 858:..\..\..\..\..\..\Software\uCOS-II\Source/os_core.c ****     }
 859:..\..\..\..\..\..\Software\uCOS-II\Source/os_core.c **** }
 732              		.loc 1 859 0
 733 0034 C046     		nop
 734 0036 BD46     		mov	sp, r7
ARM GAS  C:\Users\EDULU~1.DES\AppData\Local\Temp\ccKclfbr.s 			page 29


 735              		@ sp needed
 736 0038 80BD     		pop	{r7, pc}
 737              	.L34:
 738 003a C046     		.align	2
 739              	.L33:
 740 003c 00000000 		.word	OSRunning
 741 0040 00000000 		.word	OSPrioHighRdy
 742 0044 00000000 		.word	OSPrioCur
 743 0048 00000000 		.word	OSTCBPrioTbl
 744 004c 00000000 		.word	OSTCBHighRdy
 745 0050 00000000 		.word	OSTCBCur
 746              		.cfi_endproc
 747              	.LFE6:
 748              		.size	OSStart, .-OSStart
 749              		.section	.text.OSStatInit,"ax",%progbits
 750              		.align	2
 751              		.global	OSStatInit
 752              		.code	16
 753              		.thumb_func
 754              		.type	OSStatInit, %function
 755              	OSStatInit:
 756              	.LFB7:
 860:..\..\..\..\..\..\Software\uCOS-II\Source/os_core.c **** /*$PAGE*/
 861:..\..\..\..\..\..\Software\uCOS-II\Source/os_core.c **** /*
 862:..\..\..\..\..\..\Software\uCOS-II\Source/os_core.c **** ***************************************************************************************************
 863:..\..\..\..\..\..\Software\uCOS-II\Source/os_core.c **** *                                      STATISTICS INITIALIZATION
 864:..\..\..\..\..\..\Software\uCOS-II\Source/os_core.c **** *
 865:..\..\..\..\..\..\Software\uCOS-II\Source/os_core.c **** * Description: This function is called by your application to establish CPU usage by first determin
 866:..\..\..\..\..\..\Software\uCOS-II\Source/os_core.c **** *              how high a 32-bit counter would count to in 1 second if no other tasks were to execu
 867:..\..\..\..\..\..\Software\uCOS-II\Source/os_core.c **** *              during that time.  CPU usage is then determined by a low priority task which keeps t
 868:..\..\..\..\..\..\Software\uCOS-II\Source/os_core.c **** *              of this 32-bit counter every second but this time, with other tasks running.  CPU us
 869:..\..\..\..\..\..\Software\uCOS-II\Source/os_core.c **** *              determined by:
 870:..\..\..\..\..\..\Software\uCOS-II\Source/os_core.c **** *
 871:..\..\..\..\..\..\Software\uCOS-II\Source/os_core.c **** *                                             OSIdleCtr
 872:..\..\..\..\..\..\Software\uCOS-II\Source/os_core.c **** *                 CPU Usage (%) = 100 * (1 - ------------)
 873:..\..\..\..\..\..\Software\uCOS-II\Source/os_core.c **** *                                            OSIdleCtrMax
 874:..\..\..\..\..\..\Software\uCOS-II\Source/os_core.c **** *
 875:..\..\..\..\..\..\Software\uCOS-II\Source/os_core.c **** * Arguments  : none
 876:..\..\..\..\..\..\Software\uCOS-II\Source/os_core.c **** *
 877:..\..\..\..\..\..\Software\uCOS-II\Source/os_core.c **** * Returns    : none
 878:..\..\..\..\..\..\Software\uCOS-II\Source/os_core.c **** ***************************************************************************************************
 879:..\..\..\..\..\..\Software\uCOS-II\Source/os_core.c **** */
 880:..\..\..\..\..\..\Software\uCOS-II\Source/os_core.c **** 
 881:..\..\..\..\..\..\Software\uCOS-II\Source/os_core.c **** #if OS_TASK_STAT_EN > 0u
 882:..\..\..\..\..\..\Software\uCOS-II\Source/os_core.c **** void  OSStatInit (void)
 883:..\..\..\..\..\..\Software\uCOS-II\Source/os_core.c **** {
 757              		.loc 1 883 0
 758              		.cfi_startproc
 759              		@ args = 0, pretend = 0, frame = 8
 760              		@ frame_needed = 1, uses_anonymous_args = 0
 761 0000 80B5     		push	{r7, lr}
 762              		.cfi_def_cfa_offset 8
 763              		.cfi_offset 7, -8
 764              		.cfi_offset 14, -4
 765 0002 82B0     		sub	sp, sp, #8
 766              		.cfi_def_cfa_offset 16
 767 0004 00AF     		add	r7, sp, #0
ARM GAS  C:\Users\EDULU~1.DES\AppData\Local\Temp\ccKclfbr.s 			page 30


 768              		.cfi_def_cfa_register 7
 884:..\..\..\..\..\..\Software\uCOS-II\Source/os_core.c **** #if OS_CRITICAL_METHOD == 3u                     /* Allocate storage for CPU status register       
 885:..\..\..\..\..\..\Software\uCOS-II\Source/os_core.c ****     OS_CPU_SR  cpu_sr = 0u;
 769              		.loc 1 885 0
 770 0006 0023     		movs	r3, #0
 771 0008 7B60     		str	r3, [r7, #4]
 886:..\..\..\..\..\..\Software\uCOS-II\Source/os_core.c **** #endif
 887:..\..\..\..\..\..\Software\uCOS-II\Source/os_core.c **** 
 888:..\..\..\..\..\..\Software\uCOS-II\Source/os_core.c **** 
 889:..\..\..\..\..\..\Software\uCOS-II\Source/os_core.c **** 
 890:..\..\..\..\..\..\Software\uCOS-II\Source/os_core.c ****     OSTimeDly(2u);                               /* Synchronize with clock tick                    
 772              		.loc 1 890 0
 773 000a 0220     		movs	r0, #2
 774 000c FFF7FEFF 		bl	OSTimeDly
 891:..\..\..\..\..\..\Software\uCOS-II\Source/os_core.c ****     OS_ENTER_CRITICAL();
 775              		.loc 1 891 0
 776 0010 FFF7FEFF 		bl	OS_CPU_SR_Save
 777 0014 0300     		movs	r3, r0
 778 0016 7B60     		str	r3, [r7, #4]
 892:..\..\..\..\..\..\Software\uCOS-II\Source/os_core.c ****     OSIdleCtr    = 0uL;                          /* Clear idle counter                             
 779              		.loc 1 892 0
 780 0018 0E4B     		ldr	r3, .L36
 781 001a 0022     		movs	r2, #0
 782 001c 1A60     		str	r2, [r3]
 893:..\..\..\..\..\..\Software\uCOS-II\Source/os_core.c ****     OS_EXIT_CRITICAL();
 783              		.loc 1 893 0
 784 001e 7B68     		ldr	r3, [r7, #4]
 785 0020 1800     		movs	r0, r3
 786 0022 FFF7FEFF 		bl	OS_CPU_SR_Restore
 894:..\..\..\..\..\..\Software\uCOS-II\Source/os_core.c ****     OSTimeDly(OS_TICKS_PER_SEC / 10u);           /* Determine MAX. idle counter value for 1/10 seco
 787              		.loc 1 894 0
 788 0026 6420     		movs	r0, #100
 789 0028 FFF7FEFF 		bl	OSTimeDly
 895:..\..\..\..\..\..\Software\uCOS-II\Source/os_core.c ****     OS_ENTER_CRITICAL();
 790              		.loc 1 895 0
 791 002c FFF7FEFF 		bl	OS_CPU_SR_Save
 792 0030 0300     		movs	r3, r0
 793 0032 7B60     		str	r3, [r7, #4]
 896:..\..\..\..\..\..\Software\uCOS-II\Source/os_core.c ****     OSIdleCtrMax = OSIdleCtr;                    /* Store maximum idle counter count in 1/10 second
 794              		.loc 1 896 0
 795 0034 074B     		ldr	r3, .L36
 796 0036 1A68     		ldr	r2, [r3]
 797 0038 074B     		ldr	r3, .L36+4
 798 003a 1A60     		str	r2, [r3]
 897:..\..\..\..\..\..\Software\uCOS-II\Source/os_core.c ****     OSStatRdy    = OS_TRUE;
 799              		.loc 1 897 0
 800 003c 074B     		ldr	r3, .L36+8
 801 003e 0122     		movs	r2, #1
 802 0040 1A70     		strb	r2, [r3]
 898:..\..\..\..\..\..\Software\uCOS-II\Source/os_core.c ****     OS_EXIT_CRITICAL();
 803              		.loc 1 898 0
 804 0042 7B68     		ldr	r3, [r7, #4]
 805 0044 1800     		movs	r0, r3
 806 0046 FFF7FEFF 		bl	OS_CPU_SR_Restore
 899:..\..\..\..\..\..\Software\uCOS-II\Source/os_core.c **** }
 807              		.loc 1 899 0
 808 004a C046     		nop
ARM GAS  C:\Users\EDULU~1.DES\AppData\Local\Temp\ccKclfbr.s 			page 31


 809 004c BD46     		mov	sp, r7
 810 004e 02B0     		add	sp, sp, #8
 811              		@ sp needed
 812 0050 80BD     		pop	{r7, pc}
 813              	.L37:
 814 0052 C046     		.align	2
 815              	.L36:
 816 0054 00000000 		.word	OSIdleCtr
 817 0058 00000000 		.word	OSIdleCtrMax
 818 005c 00000000 		.word	OSStatRdy
 819              		.cfi_endproc
 820              	.LFE7:
 821              		.size	OSStatInit, .-OSStatInit
 822              		.section	.text.OSTimeTick,"ax",%progbits
 823              		.align	2
 824              		.global	OSTimeTick
 825              		.code	16
 826              		.thumb_func
 827              		.type	OSTimeTick, %function
 828              	OSTimeTick:
 829              	.LFB8:
 900:..\..\..\..\..\..\Software\uCOS-II\Source/os_core.c **** #endif
 901:..\..\..\..\..\..\Software\uCOS-II\Source/os_core.c **** /*$PAGE*/
 902:..\..\..\..\..\..\Software\uCOS-II\Source/os_core.c **** /*
 903:..\..\..\..\..\..\Software\uCOS-II\Source/os_core.c **** ***************************************************************************************************
 904:..\..\..\..\..\..\Software\uCOS-II\Source/os_core.c **** *                                         PROCESS SYSTEM TICK
 905:..\..\..\..\..\..\Software\uCOS-II\Source/os_core.c **** *
 906:..\..\..\..\..\..\Software\uCOS-II\Source/os_core.c **** * Description: This function is used to signal to uC/OS-II the occurrence of a 'system tick' (also 
 907:..\..\..\..\..\..\Software\uCOS-II\Source/os_core.c **** *              as a 'clock tick').  This function should be called by the ticker ISR but, can also 
 908:..\..\..\..\..\..\Software\uCOS-II\Source/os_core.c **** *              called by a high priority task.
 909:..\..\..\..\..\..\Software\uCOS-II\Source/os_core.c **** *
 910:..\..\..\..\..\..\Software\uCOS-II\Source/os_core.c **** * Arguments  : none
 911:..\..\..\..\..\..\Software\uCOS-II\Source/os_core.c **** *
 912:..\..\..\..\..\..\Software\uCOS-II\Source/os_core.c **** * Returns    : none
 913:..\..\..\..\..\..\Software\uCOS-II\Source/os_core.c **** ***************************************************************************************************
 914:..\..\..\..\..\..\Software\uCOS-II\Source/os_core.c **** */
 915:..\..\..\..\..\..\Software\uCOS-II\Source/os_core.c **** 
 916:..\..\..\..\..\..\Software\uCOS-II\Source/os_core.c **** void  OSTimeTick (void)
 917:..\..\..\..\..\..\Software\uCOS-II\Source/os_core.c **** {
 830              		.loc 1 917 0
 831              		.cfi_startproc
 832              		@ args = 0, pretend = 0, frame = 16
 833              		@ frame_needed = 1, uses_anonymous_args = 0
 834 0000 80B5     		push	{r7, lr}
 835              		.cfi_def_cfa_offset 8
 836              		.cfi_offset 7, -8
 837              		.cfi_offset 14, -4
 838 0002 84B0     		sub	sp, sp, #16
 839              		.cfi_def_cfa_offset 24
 840 0004 00AF     		add	r7, sp, #0
 841              		.cfi_def_cfa_register 7
 918:..\..\..\..\..\..\Software\uCOS-II\Source/os_core.c ****     OS_TCB    *ptcb;
 919:..\..\..\..\..\..\Software\uCOS-II\Source/os_core.c **** #if OS_TICK_STEP_EN > 0u
 920:..\..\..\..\..\..\Software\uCOS-II\Source/os_core.c ****     BOOLEAN    step;
 921:..\..\..\..\..\..\Software\uCOS-II\Source/os_core.c **** #endif
 922:..\..\..\..\..\..\Software\uCOS-II\Source/os_core.c **** #if OS_CRITICAL_METHOD == 3u                               /* Allocate storage for CPU status regis
 923:..\..\..\..\..\..\Software\uCOS-II\Source/os_core.c ****     OS_CPU_SR  cpu_sr = 0u;
ARM GAS  C:\Users\EDULU~1.DES\AppData\Local\Temp\ccKclfbr.s 			page 32


 842              		.loc 1 923 0
 843 0006 0023     		movs	r3, #0
 844 0008 7B60     		str	r3, [r7, #4]
 924:..\..\..\..\..\..\Software\uCOS-II\Source/os_core.c **** #endif
 925:..\..\..\..\..\..\Software\uCOS-II\Source/os_core.c **** 
 926:..\..\..\..\..\..\Software\uCOS-II\Source/os_core.c **** 
 927:..\..\..\..\..\..\Software\uCOS-II\Source/os_core.c **** 
 928:..\..\..\..\..\..\Software\uCOS-II\Source/os_core.c **** #if OS_TIME_TICK_HOOK_EN > 0u
 929:..\..\..\..\..\..\Software\uCOS-II\Source/os_core.c ****     OSTimeTickHook();                                      /* Call user definable hook             
 845              		.loc 1 929 0
 846 000a FFF7FEFF 		bl	OSTimeTickHook
 930:..\..\..\..\..\..\Software\uCOS-II\Source/os_core.c **** #endif
 931:..\..\..\..\..\..\Software\uCOS-II\Source/os_core.c **** #if OS_TIME_GET_SET_EN > 0u
 932:..\..\..\..\..\..\Software\uCOS-II\Source/os_core.c ****     OS_ENTER_CRITICAL();                                   /* Update the 32-bit tick counter       
 847              		.loc 1 932 0
 848 000e FFF7FEFF 		bl	OS_CPU_SR_Save
 849 0012 0300     		movs	r3, r0
 850 0014 7B60     		str	r3, [r7, #4]
 933:..\..\..\..\..\..\Software\uCOS-II\Source/os_core.c ****     OSTime++;
 851              		.loc 1 933 0
 852 0016 4A4B     		ldr	r3, .L53
 853 0018 1B68     		ldr	r3, [r3]
 854 001a 5A1C     		adds	r2, r3, #1
 855 001c 484B     		ldr	r3, .L53
 856 001e 1A60     		str	r2, [r3]
 934:..\..\..\..\..\..\Software\uCOS-II\Source/os_core.c ****     OS_EXIT_CRITICAL();
 857              		.loc 1 934 0
 858 0020 7B68     		ldr	r3, [r7, #4]
 859 0022 1800     		movs	r0, r3
 860 0024 FFF7FEFF 		bl	OS_CPU_SR_Restore
 935:..\..\..\..\..\..\Software\uCOS-II\Source/os_core.c **** #endif
 936:..\..\..\..\..\..\Software\uCOS-II\Source/os_core.c ****     if (OSRunning == OS_TRUE) {
 861              		.loc 1 936 0
 862 0028 464B     		ldr	r3, .L53+4
 863 002a 1B78     		ldrb	r3, [r3]
 864 002c 012B     		cmp	r3, #1
 865 002e 00D0     		beq	.LCB445
 866 0030 83E0     		b	.L38	@long jump
 867              	.LCB445:
 937:..\..\..\..\..\..\Software\uCOS-II\Source/os_core.c **** #if OS_TICK_STEP_EN > 0u
 938:..\..\..\..\..\..\Software\uCOS-II\Source/os_core.c ****         switch (OSTickStepState) {                         /* Determine whether we need to process 
 868              		.loc 1 938 0
 869 0032 454B     		ldr	r3, .L53+8
 870 0034 1B78     		ldrb	r3, [r3]
 871 0036 012B     		cmp	r3, #1
 872 0038 08D0     		beq	.L41
 873 003a 022B     		cmp	r3, #2
 874 003c 0BD0     		beq	.L42
 875 003e 002B     		cmp	r3, #0
 876 0040 11D1     		bne	.L51
 939:..\..\..\..\..\..\Software\uCOS-II\Source/os_core.c ****             case OS_TICK_STEP_DIS:                         /* Yes, stepping is disabled            
 940:..\..\..\..\..\..\Software\uCOS-II\Source/os_core.c ****                  step = OS_TRUE;
 877              		.loc 1 940 0
 878 0042 0B23     		movs	r3, #11
 879 0044 FB18     		adds	r3, r7, r3
 880 0046 0122     		movs	r2, #1
 881 0048 1A70     		strb	r2, [r3]
ARM GAS  C:\Users\EDULU~1.DES\AppData\Local\Temp\ccKclfbr.s 			page 33


 941:..\..\..\..\..\..\Software\uCOS-II\Source/os_core.c ****                  break;
 882              		.loc 1 941 0
 883 004a 14E0     		b	.L44
 884              	.L41:
 942:..\..\..\..\..\..\Software\uCOS-II\Source/os_core.c **** 
 943:..\..\..\..\..\..\Software\uCOS-II\Source/os_core.c ****             case OS_TICK_STEP_WAIT:                        /* No,  waiting for uC/OS-View to set ..
 944:..\..\..\..\..\..\Software\uCOS-II\Source/os_core.c ****                  step = OS_FALSE;                          /*      .. OSTickStepState to OS_TICK_ST
 885              		.loc 1 944 0
 886 004c 0B23     		movs	r3, #11
 887 004e FB18     		adds	r3, r7, r3
 888 0050 0022     		movs	r2, #0
 889 0052 1A70     		strb	r2, [r3]
 945:..\..\..\..\..\..\Software\uCOS-II\Source/os_core.c ****                  break;
 890              		.loc 1 945 0
 891 0054 0FE0     		b	.L44
 892              	.L42:
 946:..\..\..\..\..\..\Software\uCOS-II\Source/os_core.c **** 
 947:..\..\..\..\..\..\Software\uCOS-II\Source/os_core.c ****             case OS_TICK_STEP_ONCE:                        /* Yes, process tick once and wait for n
 948:..\..\..\..\..\..\Software\uCOS-II\Source/os_core.c ****                  step            = OS_TRUE;                /*      ... step command from uC/OS-View
 893              		.loc 1 948 0
 894 0056 0B23     		movs	r3, #11
 895 0058 FB18     		adds	r3, r7, r3
 896 005a 0122     		movs	r2, #1
 897 005c 1A70     		strb	r2, [r3]
 949:..\..\..\..\..\..\Software\uCOS-II\Source/os_core.c ****                  OSTickStepState = OS_TICK_STEP_WAIT;
 898              		.loc 1 949 0
 899 005e 3A4B     		ldr	r3, .L53+8
 900 0060 0122     		movs	r2, #1
 901 0062 1A70     		strb	r2, [r3]
 950:..\..\..\..\..\..\Software\uCOS-II\Source/os_core.c ****                  break;
 902              		.loc 1 950 0
 903 0064 07E0     		b	.L44
 904              	.L51:
 951:..\..\..\..\..\..\Software\uCOS-II\Source/os_core.c **** 
 952:..\..\..\..\..\..\Software\uCOS-II\Source/os_core.c ****             default:                                       /* Invalid case, correct situation      
 953:..\..\..\..\..\..\Software\uCOS-II\Source/os_core.c ****                  step            = OS_TRUE;
 905              		.loc 1 953 0
 906 0066 0B23     		movs	r3, #11
 907 0068 FB18     		adds	r3, r7, r3
 908 006a 0122     		movs	r2, #1
 909 006c 1A70     		strb	r2, [r3]
 954:..\..\..\..\..\..\Software\uCOS-II\Source/os_core.c ****                  OSTickStepState = OS_TICK_STEP_DIS;
 910              		.loc 1 954 0
 911 006e 364B     		ldr	r3, .L53+8
 912 0070 0022     		movs	r2, #0
 913 0072 1A70     		strb	r2, [r3]
 955:..\..\..\..\..\..\Software\uCOS-II\Source/os_core.c ****                  break;
 914              		.loc 1 955 0
 915 0074 C046     		nop
 916              	.L44:
 956:..\..\..\..\..\..\Software\uCOS-II\Source/os_core.c ****         }
 957:..\..\..\..\..\..\Software\uCOS-II\Source/os_core.c ****         if (step == OS_FALSE) {                            /* Return if waiting for step command   
 917              		.loc 1 957 0
 918 0076 0B23     		movs	r3, #11
 919 0078 FB18     		adds	r3, r7, r3
 920 007a 1B78     		ldrb	r3, [r3]
 921 007c 002B     		cmp	r3, #0
ARM GAS  C:\Users\EDULU~1.DES\AppData\Local\Temp\ccKclfbr.s 			page 34


 922 007e 5BD0     		beq	.L52
 958:..\..\..\..\..\..\Software\uCOS-II\Source/os_core.c ****             return;
 959:..\..\..\..\..\..\Software\uCOS-II\Source/os_core.c ****         }
 960:..\..\..\..\..\..\Software\uCOS-II\Source/os_core.c **** #endif
 961:..\..\..\..\..\..\Software\uCOS-II\Source/os_core.c ****         ptcb = OSTCBList;                                  /* Point at first TCB in TCB list       
 923              		.loc 1 961 0
 924 0080 324B     		ldr	r3, .L53+12
 925 0082 1B68     		ldr	r3, [r3]
 926 0084 FB60     		str	r3, [r7, #12]
 962:..\..\..\..\..\..\Software\uCOS-II\Source/os_core.c ****         while (ptcb->OSTCBPrio != OS_TASK_IDLE_PRIO) {     /* Go through all TCBs in TCB list      
 927              		.loc 1 962 0
 928 0086 51E0     		b	.L46
 929              	.L50:
 963:..\..\..\..\..\..\Software\uCOS-II\Source/os_core.c ****             OS_ENTER_CRITICAL();
 930              		.loc 1 963 0
 931 0088 FFF7FEFF 		bl	OS_CPU_SR_Save
 932 008c 0300     		movs	r3, r0
 933 008e 7B60     		str	r3, [r7, #4]
 964:..\..\..\..\..\..\Software\uCOS-II\Source/os_core.c ****             if (ptcb->OSTCBDly != 0u) {                    /* No, Delayed or waiting for event with
 934              		.loc 1 964 0
 935 0090 FB68     		ldr	r3, [r7, #12]
 936 0092 1B6A     		ldr	r3, [r3, #32]
 937 0094 002B     		cmp	r3, #0
 938 0096 42D0     		beq	.L47
 965:..\..\..\..\..\..\Software\uCOS-II\Source/os_core.c ****                 ptcb->OSTCBDly--;                          /* Decrement nbr of ticks to end of dela
 939              		.loc 1 965 0
 940 0098 FB68     		ldr	r3, [r7, #12]
 941 009a 1B6A     		ldr	r3, [r3, #32]
 942 009c 5A1E     		subs	r2, r3, #1
 943 009e FB68     		ldr	r3, [r7, #12]
 944 00a0 1A62     		str	r2, [r3, #32]
 966:..\..\..\..\..\..\Software\uCOS-II\Source/os_core.c ****                 if (ptcb->OSTCBDly == 0u) {                /* Check for timeout                    
 945              		.loc 1 966 0
 946 00a2 FB68     		ldr	r3, [r7, #12]
 947 00a4 1B6A     		ldr	r3, [r3, #32]
 948 00a6 002B     		cmp	r3, #0
 949 00a8 39D1     		bne	.L47
 967:..\..\..\..\..\..\Software\uCOS-II\Source/os_core.c **** 
 968:..\..\..\..\..\..\Software\uCOS-II\Source/os_core.c ****                     if ((ptcb->OSTCBStat & OS_STAT_PEND_ANY) != OS_STAT_RDY) {
 950              		.loc 1 968 0
 951 00aa FB68     		ldr	r3, [r7, #12]
 952 00ac 2422     		movs	r2, #36
 953 00ae 9B5C     		ldrb	r3, [r3, r2]
 954 00b0 1A00     		movs	r2, r3
 955 00b2 3723     		movs	r3, #55
 956 00b4 1340     		ands	r3, r2
 957 00b6 0DD0     		beq	.L48
 969:..\..\..\..\..\..\Software\uCOS-II\Source/os_core.c ****                         ptcb->OSTCBStat  &= (INT8U)~(INT8U)OS_STAT_PEND_ANY;          /* Yes, Clear
 958              		.loc 1 969 0
 959 00b8 FB68     		ldr	r3, [r7, #12]
 960 00ba 2422     		movs	r2, #36
 961 00bc 9B5C     		ldrb	r3, [r3, r2]
 962 00be 3722     		movs	r2, #55
 963 00c0 9343     		bics	r3, r2
 964 00c2 D9B2     		uxtb	r1, r3
 965 00c4 FB68     		ldr	r3, [r7, #12]
 966 00c6 2422     		movs	r2, #36
ARM GAS  C:\Users\EDULU~1.DES\AppData\Local\Temp\ccKclfbr.s 			page 35


 967 00c8 9954     		strb	r1, [r3, r2]
 970:..\..\..\..\..\..\Software\uCOS-II\Source/os_core.c ****                         ptcb->OSTCBStatPend = OS_STAT_PEND_TO;                 /* Indicate PEND tim
 968              		.loc 1 970 0
 969 00ca FB68     		ldr	r3, [r7, #12]
 970 00cc 2522     		movs	r2, #37
 971 00ce 0121     		movs	r1, #1
 972 00d0 9954     		strb	r1, [r3, r2]
 973 00d2 03E0     		b	.L49
 974              	.L48:
 971:..\..\..\..\..\..\Software\uCOS-II\Source/os_core.c ****                     } else {
 972:..\..\..\..\..\..\Software\uCOS-II\Source/os_core.c ****                         ptcb->OSTCBStatPend = OS_STAT_PEND_OK;
 975              		.loc 1 972 0
 976 00d4 FB68     		ldr	r3, [r7, #12]
 977 00d6 2522     		movs	r2, #37
 978 00d8 0021     		movs	r1, #0
 979 00da 9954     		strb	r1, [r3, r2]
 980              	.L49:
 973:..\..\..\..\..\..\Software\uCOS-II\Source/os_core.c ****                     }
 974:..\..\..\..\..\..\Software\uCOS-II\Source/os_core.c **** 
 975:..\..\..\..\..\..\Software\uCOS-II\Source/os_core.c ****                     if ((ptcb->OSTCBStat & OS_STAT_SUSPEND) == OS_STAT_RDY) {  /* Is task suspended
 981              		.loc 1 975 0
 982 00dc FB68     		ldr	r3, [r7, #12]
 983 00de 2422     		movs	r2, #36
 984 00e0 9B5C     		ldrb	r3, [r3, r2]
 985 00e2 1A00     		movs	r2, r3
 986 00e4 0823     		movs	r3, #8
 987 00e6 1340     		ands	r3, r2
 988 00e8 19D1     		bne	.L47
 976:..\..\..\..\..\..\Software\uCOS-II\Source/os_core.c ****                         OSRdyGrp               |= ptcb->OSTCBBitY;             /* No,  Make ready  
 989              		.loc 1 976 0
 990 00ea FB68     		ldr	r3, [r7, #12]
 991 00ec 2A22     		movs	r2, #42
 992 00ee 9A5C     		ldrb	r2, [r3, r2]
 993 00f0 174B     		ldr	r3, .L53+16
 994 00f2 1B78     		ldrb	r3, [r3]
 995 00f4 1343     		orrs	r3, r2
 996 00f6 DAB2     		uxtb	r2, r3
 997 00f8 154B     		ldr	r3, .L53+16
 998 00fa 1A70     		strb	r2, [r3]
 977:..\..\..\..\..\..\Software\uCOS-II\Source/os_core.c ****                         OSRdyTbl[ptcb->OSTCBY] |= ptcb->OSTCBBitX;
 999              		.loc 1 977 0
 1000 00fc FB68     		ldr	r3, [r7, #12]
 1001 00fe 2822     		movs	r2, #40
 1002 0100 9B5C     		ldrb	r3, [r3, r2]
 1003 0102 1800     		movs	r0, r3
 1004 0104 FB68     		ldr	r3, [r7, #12]
 1005 0106 2822     		movs	r2, #40
 1006 0108 9B5C     		ldrb	r3, [r3, r2]
 1007 010a 1A00     		movs	r2, r3
 1008 010c 114B     		ldr	r3, .L53+20
 1009 010e 9A5C     		ldrb	r2, [r3, r2]
 1010 0110 FB68     		ldr	r3, [r7, #12]
 1011 0112 2921     		movs	r1, #41
 1012 0114 5B5C     		ldrb	r3, [r3, r1]
 1013 0116 1343     		orrs	r3, r2
 1014 0118 DAB2     		uxtb	r2, r3
 1015 011a 0E4B     		ldr	r3, .L53+20
ARM GAS  C:\Users\EDULU~1.DES\AppData\Local\Temp\ccKclfbr.s 			page 36


 1016 011c 1A54     		strb	r2, [r3, r0]
 1017              	.L47:
 978:..\..\..\..\..\..\Software\uCOS-II\Source/os_core.c ****                     }
 979:..\..\..\..\..\..\Software\uCOS-II\Source/os_core.c ****                 }
 980:..\..\..\..\..\..\Software\uCOS-II\Source/os_core.c ****             }
 981:..\..\..\..\..\..\Software\uCOS-II\Source/os_core.c ****             ptcb = ptcb->OSTCBNext;                        /* Point at next TCB in TCB list        
 1018              		.loc 1 981 0
 1019 011e FB68     		ldr	r3, [r7, #12]
 1020 0120 5B69     		ldr	r3, [r3, #20]
 1021 0122 FB60     		str	r3, [r7, #12]
 982:..\..\..\..\..\..\Software\uCOS-II\Source/os_core.c ****             OS_EXIT_CRITICAL();
 1022              		.loc 1 982 0
 1023 0124 7B68     		ldr	r3, [r7, #4]
 1024 0126 1800     		movs	r0, r3
 1025 0128 FFF7FEFF 		bl	OS_CPU_SR_Restore
 1026              	.L46:
 962:..\..\..\..\..\..\Software\uCOS-II\Source/os_core.c ****             OS_ENTER_CRITICAL();
 1027              		.loc 1 962 0
 1028 012c FB68     		ldr	r3, [r7, #12]
 1029 012e 2622     		movs	r2, #38
 1030 0130 9B5C     		ldrb	r3, [r3, r2]
 1031 0132 1F2B     		cmp	r3, #31
 1032 0134 A8D1     		bne	.L50
 1033 0136 00E0     		b	.L38
 1034              	.L52:
 958:..\..\..\..\..\..\Software\uCOS-II\Source/os_core.c ****         }
 1035              		.loc 1 958 0
 1036 0138 C046     		nop
 1037              	.L38:
 983:..\..\..\..\..\..\Software\uCOS-II\Source/os_core.c ****         }
 984:..\..\..\..\..\..\Software\uCOS-II\Source/os_core.c ****     }
 985:..\..\..\..\..\..\Software\uCOS-II\Source/os_core.c **** }
 1038              		.loc 1 985 0
 1039 013a BD46     		mov	sp, r7
 1040 013c 04B0     		add	sp, sp, #16
 1041              		@ sp needed
 1042 013e 80BD     		pop	{r7, pc}
 1043              	.L54:
 1044              		.align	2
 1045              	.L53:
 1046 0140 00000000 		.word	OSTime
 1047 0144 00000000 		.word	OSRunning
 1048 0148 00000000 		.word	OSTickStepState
 1049 014c 00000000 		.word	OSTCBList
 1050 0150 00000000 		.word	OSRdyGrp
 1051 0154 00000000 		.word	OSRdyTbl
 1052              		.cfi_endproc
 1053              	.LFE8:
 1054              		.size	OSTimeTick, .-OSTimeTick
 1055              		.section	.text.OSVersion,"ax",%progbits
 1056              		.align	2
 1057              		.global	OSVersion
 1058              		.code	16
 1059              		.thumb_func
 1060              		.type	OSVersion, %function
 1061              	OSVersion:
 1062              	.LFB9:
ARM GAS  C:\Users\EDULU~1.DES\AppData\Local\Temp\ccKclfbr.s 			page 37


 986:..\..\..\..\..\..\Software\uCOS-II\Source/os_core.c **** 
 987:..\..\..\..\..\..\Software\uCOS-II\Source/os_core.c **** /*$PAGE*/
 988:..\..\..\..\..\..\Software\uCOS-II\Source/os_core.c **** /*
 989:..\..\..\..\..\..\Software\uCOS-II\Source/os_core.c **** ***************************************************************************************************
 990:..\..\..\..\..\..\Software\uCOS-II\Source/os_core.c **** *                                             GET VERSION
 991:..\..\..\..\..\..\Software\uCOS-II\Source/os_core.c **** *
 992:..\..\..\..\..\..\Software\uCOS-II\Source/os_core.c **** * Description: This function is used to return the version number of uC/OS-II.  The returned value 
 993:..\..\..\..\..\..\Software\uCOS-II\Source/os_core.c **** *              corresponds to uC/OS-II's version number multiplied by 10000.  In other words, versi
 994:..\..\..\..\..\..\Software\uCOS-II\Source/os_core.c **** *              2.01.00 would be returned as 20100.
 995:..\..\..\..\..\..\Software\uCOS-II\Source/os_core.c **** *
 996:..\..\..\..\..\..\Software\uCOS-II\Source/os_core.c **** * Arguments  : none
 997:..\..\..\..\..\..\Software\uCOS-II\Source/os_core.c **** *
 998:..\..\..\..\..\..\Software\uCOS-II\Source/os_core.c **** * Returns    : The version number of uC/OS-II multiplied by 10000.
 999:..\..\..\..\..\..\Software\uCOS-II\Source/os_core.c **** ***************************************************************************************************
1000:..\..\..\..\..\..\Software\uCOS-II\Source/os_core.c **** */
1001:..\..\..\..\..\..\Software\uCOS-II\Source/os_core.c **** 
1002:..\..\..\..\..\..\Software\uCOS-II\Source/os_core.c **** INT16U  OSVersion (void)
1003:..\..\..\..\..\..\Software\uCOS-II\Source/os_core.c **** {
 1063              		.loc 1 1003 0
 1064              		.cfi_startproc
 1065              		@ args = 0, pretend = 0, frame = 0
 1066              		@ frame_needed = 1, uses_anonymous_args = 0
 1067 0000 80B5     		push	{r7, lr}
 1068              		.cfi_def_cfa_offset 8
 1069              		.cfi_offset 7, -8
 1070              		.cfi_offset 14, -4
 1071 0002 00AF     		add	r7, sp, #0
 1072              		.cfi_def_cfa_register 7
1004:..\..\..\..\..\..\Software\uCOS-II\Source/os_core.c ****     return (OS_VERSION);
 1073              		.loc 1 1004 0
 1074 0004 014B     		ldr	r3, .L57
1005:..\..\..\..\..\..\Software\uCOS-II\Source/os_core.c **** }
 1075              		.loc 1 1005 0
 1076 0006 1800     		movs	r0, r3
 1077 0008 BD46     		mov	sp, r7
 1078              		@ sp needed
 1079 000a 80BD     		pop	{r7, pc}
 1080              	.L58:
 1081              		.align	2
 1082              	.L57:
 1083 000c 1B720000 		.word	29211
 1084              		.cfi_endproc
 1085              	.LFE9:
 1086              		.size	OSVersion, .-OSVersion
 1087              		.section	.text.OS_EventTaskRdy,"ax",%progbits
 1088              		.align	2
 1089              		.global	OS_EventTaskRdy
 1090              		.code	16
 1091              		.thumb_func
 1092              		.type	OS_EventTaskRdy, %function
 1093              	OS_EventTaskRdy:
 1094              	.LFB10:
1006:..\..\..\..\..\..\Software\uCOS-II\Source/os_core.c **** 
1007:..\..\..\..\..\..\Software\uCOS-II\Source/os_core.c **** /*$PAGE*/
1008:..\..\..\..\..\..\Software\uCOS-II\Source/os_core.c **** /*
1009:..\..\..\..\..\..\Software\uCOS-II\Source/os_core.c **** ***************************************************************************************************
1010:..\..\..\..\..\..\Software\uCOS-II\Source/os_core.c **** *                                           DUMMY FUNCTION
ARM GAS  C:\Users\EDULU~1.DES\AppData\Local\Temp\ccKclfbr.s 			page 38


1011:..\..\..\..\..\..\Software\uCOS-II\Source/os_core.c **** *
1012:..\..\..\..\..\..\Software\uCOS-II\Source/os_core.c **** * Description: This function doesn't do anything.  It is called by OSTaskDel().
1013:..\..\..\..\..\..\Software\uCOS-II\Source/os_core.c **** *
1014:..\..\..\..\..\..\Software\uCOS-II\Source/os_core.c **** * Arguments  : none
1015:..\..\..\..\..\..\Software\uCOS-II\Source/os_core.c **** *
1016:..\..\..\..\..\..\Software\uCOS-II\Source/os_core.c **** * Returns    : none
1017:..\..\..\..\..\..\Software\uCOS-II\Source/os_core.c **** ***************************************************************************************************
1018:..\..\..\..\..\..\Software\uCOS-II\Source/os_core.c **** */
1019:..\..\..\..\..\..\Software\uCOS-II\Source/os_core.c **** 
1020:..\..\..\..\..\..\Software\uCOS-II\Source/os_core.c **** #if OS_TASK_DEL_EN > 0u
1021:..\..\..\..\..\..\Software\uCOS-II\Source/os_core.c **** void  OS_Dummy (void)
1022:..\..\..\..\..\..\Software\uCOS-II\Source/os_core.c **** {
1023:..\..\..\..\..\..\Software\uCOS-II\Source/os_core.c **** }
1024:..\..\..\..\..\..\Software\uCOS-II\Source/os_core.c **** #endif
1025:..\..\..\..\..\..\Software\uCOS-II\Source/os_core.c **** 
1026:..\..\..\..\..\..\Software\uCOS-II\Source/os_core.c **** /*$PAGE*/
1027:..\..\..\..\..\..\Software\uCOS-II\Source/os_core.c **** /*
1028:..\..\..\..\..\..\Software\uCOS-II\Source/os_core.c **** ***************************************************************************************************
1029:..\..\..\..\..\..\Software\uCOS-II\Source/os_core.c **** *                           MAKE TASK READY TO RUN BASED ON EVENT OCCURING
1030:..\..\..\..\..\..\Software\uCOS-II\Source/os_core.c **** *
1031:..\..\..\..\..\..\Software\uCOS-II\Source/os_core.c **** * Description: This function is called by other uC/OS-II services and is used to ready a task that 
1032:..\..\..\..\..\..\Software\uCOS-II\Source/os_core.c **** *              waiting for an event to occur.
1033:..\..\..\..\..\..\Software\uCOS-II\Source/os_core.c **** *
1034:..\..\..\..\..\..\Software\uCOS-II\Source/os_core.c **** * Arguments  : pevent      is a pointer to the event control block corresponding to the event.
1035:..\..\..\..\..\..\Software\uCOS-II\Source/os_core.c **** *
1036:..\..\..\..\..\..\Software\uCOS-II\Source/os_core.c **** *              pmsg        is a pointer to a message.  This pointer is used by message oriented ser
1037:..\..\..\..\..\..\Software\uCOS-II\Source/os_core.c **** *                          such as MAILBOXEs and QUEUEs.  The pointer is not used when called by ot
1038:..\..\..\..\..\..\Software\uCOS-II\Source/os_core.c **** *                          service functions.
1039:..\..\..\..\..\..\Software\uCOS-II\Source/os_core.c **** *
1040:..\..\..\..\..\..\Software\uCOS-II\Source/os_core.c **** *              msk         is a mask that is used to clear the status byte of the TCB.  For example
1041:..\..\..\..\..\..\Software\uCOS-II\Source/os_core.c **** *                          OSSemPost() will pass OS_STAT_SEM, OSMboxPost() will pass OS_STAT_MBOX e
1042:..\..\..\..\..\..\Software\uCOS-II\Source/os_core.c **** *
1043:..\..\..\..\..\..\Software\uCOS-II\Source/os_core.c **** *              pend_stat   is used to indicate the readied task's pending status:
1044:..\..\..\..\..\..\Software\uCOS-II\Source/os_core.c **** *
1045:..\..\..\..\..\..\Software\uCOS-II\Source/os_core.c **** *                          OS_STAT_PEND_OK      Task ready due to a post (or delete), not a timeout
1046:..\..\..\..\..\..\Software\uCOS-II\Source/os_core.c **** *                                               an abort.
1047:..\..\..\..\..\..\Software\uCOS-II\Source/os_core.c **** *                          OS_STAT_PEND_ABORT   Task ready due to an abort.
1048:..\..\..\..\..\..\Software\uCOS-II\Source/os_core.c **** *
1049:..\..\..\..\..\..\Software\uCOS-II\Source/os_core.c **** * Returns    : none
1050:..\..\..\..\..\..\Software\uCOS-II\Source/os_core.c **** *
1051:..\..\..\..\..\..\Software\uCOS-II\Source/os_core.c **** * Note       : This function is INTERNAL to uC/OS-II and your application should not call it.
1052:..\..\..\..\..\..\Software\uCOS-II\Source/os_core.c **** ***************************************************************************************************
1053:..\..\..\..\..\..\Software\uCOS-II\Source/os_core.c **** */
1054:..\..\..\..\..\..\Software\uCOS-II\Source/os_core.c **** #if (OS_EVENT_EN)
1055:..\..\..\..\..\..\Software\uCOS-II\Source/os_core.c **** INT8U  OS_EventTaskRdy (OS_EVENT  *pevent,
1056:..\..\..\..\..\..\Software\uCOS-II\Source/os_core.c ****                         void      *pmsg,
1057:..\..\..\..\..\..\Software\uCOS-II\Source/os_core.c ****                         INT8U      msk,
1058:..\..\..\..\..\..\Software\uCOS-II\Source/os_core.c ****                         INT8U      pend_stat)
1059:..\..\..\..\..\..\Software\uCOS-II\Source/os_core.c **** {
 1095              		.loc 1 1059 0
 1096              		.cfi_startproc
 1097              		@ args = 0, pretend = 0, frame = 24
 1098              		@ frame_needed = 1, uses_anonymous_args = 0
 1099 0000 80B5     		push	{r7, lr}
 1100              		.cfi_def_cfa_offset 8
 1101              		.cfi_offset 7, -8
 1102              		.cfi_offset 14, -4
ARM GAS  C:\Users\EDULU~1.DES\AppData\Local\Temp\ccKclfbr.s 			page 39


 1103 0002 86B0     		sub	sp, sp, #24
 1104              		.cfi_def_cfa_offset 32
 1105 0004 00AF     		add	r7, sp, #0
 1106              		.cfi_def_cfa_register 7
 1107 0006 F860     		str	r0, [r7, #12]
 1108 0008 B960     		str	r1, [r7, #8]
 1109 000a 1900     		movs	r1, r3
 1110 000c FB1D     		adds	r3, r7, #7
 1111 000e 1A70     		strb	r2, [r3]
 1112 0010 BB1D     		adds	r3, r7, #6
 1113 0012 0A1C     		adds	r2, r1, #0
 1114 0014 1A70     		strb	r2, [r3]
1060:..\..\..\..\..\..\Software\uCOS-II\Source/os_core.c ****     OS_TCB   *ptcb;
1061:..\..\..\..\..\..\Software\uCOS-II\Source/os_core.c ****     INT8U     y;
1062:..\..\..\..\..\..\Software\uCOS-II\Source/os_core.c ****     INT8U     x;
1063:..\..\..\..\..\..\Software\uCOS-II\Source/os_core.c ****     INT8U     prio;
1064:..\..\..\..\..\..\Software\uCOS-II\Source/os_core.c **** #if OS_LOWEST_PRIO > 63u
1065:..\..\..\..\..\..\Software\uCOS-II\Source/os_core.c ****     OS_PRIO  *ptbl;
1066:..\..\..\..\..\..\Software\uCOS-II\Source/os_core.c **** #endif
1067:..\..\..\..\..\..\Software\uCOS-II\Source/os_core.c **** 
1068:..\..\..\..\..\..\Software\uCOS-II\Source/os_core.c **** 
1069:..\..\..\..\..\..\Software\uCOS-II\Source/os_core.c **** #if OS_LOWEST_PRIO <= 63u
1070:..\..\..\..\..\..\Software\uCOS-II\Source/os_core.c ****     y    = OSUnMapTbl[pevent->OSEventGrp];              /* Find HPT waiting for message            
 1115              		.loc 1 1070 0
 1116 0016 FB68     		ldr	r3, [r7, #12]
 1117 0018 9B7A     		ldrb	r3, [r3, #10]
 1118 001a 1900     		movs	r1, r3
 1119 001c 1723     		movs	r3, #23
 1120 001e FB18     		adds	r3, r7, r3
 1121 0020 304A     		ldr	r2, .L62
 1122 0022 525C     		ldrb	r2, [r2, r1]
 1123 0024 1A70     		strb	r2, [r3]
1071:..\..\..\..\..\..\Software\uCOS-II\Source/os_core.c ****     x    = OSUnMapTbl[pevent->OSEventTbl[y]];
 1124              		.loc 1 1071 0
 1125 0026 1723     		movs	r3, #23
 1126 0028 FB18     		adds	r3, r7, r3
 1127 002a 1B78     		ldrb	r3, [r3]
 1128 002c FA68     		ldr	r2, [r7, #12]
 1129 002e D318     		adds	r3, r2, r3
 1130 0030 DB7A     		ldrb	r3, [r3, #11]
 1131 0032 1900     		movs	r1, r3
 1132 0034 1623     		movs	r3, #22
 1133 0036 FB18     		adds	r3, r7, r3
 1134 0038 2A4A     		ldr	r2, .L62
 1135 003a 525C     		ldrb	r2, [r2, r1]
 1136 003c 1A70     		strb	r2, [r3]
1072:..\..\..\..\..\..\Software\uCOS-II\Source/os_core.c ****     prio = (INT8U)((y << 3u) + x);                      /* Find priority of task getting the msg   
 1137              		.loc 1 1072 0
 1138 003e 1723     		movs	r3, #23
 1139 0040 FB18     		adds	r3, r7, r3
 1140 0042 1B78     		ldrb	r3, [r3]
 1141 0044 DB00     		lsls	r3, r3, #3
 1142 0046 D9B2     		uxtb	r1, r3
 1143 0048 1523     		movs	r3, #21
 1144 004a FB18     		adds	r3, r7, r3
 1145 004c 1622     		movs	r2, #22
 1146 004e BA18     		adds	r2, r7, r2
ARM GAS  C:\Users\EDULU~1.DES\AppData\Local\Temp\ccKclfbr.s 			page 40


 1147 0050 1278     		ldrb	r2, [r2]
 1148 0052 8A18     		adds	r2, r1, r2
 1149 0054 1A70     		strb	r2, [r3]
1073:..\..\..\..\..\..\Software\uCOS-II\Source/os_core.c **** #else
1074:..\..\..\..\..\..\Software\uCOS-II\Source/os_core.c ****     if ((pevent->OSEventGrp & 0xFFu) != 0u) {           /* Find HPT waiting for message            
1075:..\..\..\..\..\..\Software\uCOS-II\Source/os_core.c ****         y = OSUnMapTbl[ pevent->OSEventGrp & 0xFFu];
1076:..\..\..\..\..\..\Software\uCOS-II\Source/os_core.c ****     } else {
1077:..\..\..\..\..\..\Software\uCOS-II\Source/os_core.c ****         y = OSUnMapTbl[(OS_PRIO)(pevent->OSEventGrp >> 8u) & 0xFFu] + 8u;
1078:..\..\..\..\..\..\Software\uCOS-II\Source/os_core.c ****     }
1079:..\..\..\..\..\..\Software\uCOS-II\Source/os_core.c ****     ptbl = &pevent->OSEventTbl[y];
1080:..\..\..\..\..\..\Software\uCOS-II\Source/os_core.c ****     if ((*ptbl & 0xFFu) != 0u) {
1081:..\..\..\..\..\..\Software\uCOS-II\Source/os_core.c ****         x = OSUnMapTbl[*ptbl & 0xFFu];
1082:..\..\..\..\..\..\Software\uCOS-II\Source/os_core.c ****     } else {
1083:..\..\..\..\..\..\Software\uCOS-II\Source/os_core.c ****         x = OSUnMapTbl[(OS_PRIO)(*ptbl >> 8u) & 0xFFu] + 8u;
1084:..\..\..\..\..\..\Software\uCOS-II\Source/os_core.c ****     }
1085:..\..\..\..\..\..\Software\uCOS-II\Source/os_core.c ****     prio = (INT8U)((y << 4u) + x);                      /* Find priority of task getting the msg   
1086:..\..\..\..\..\..\Software\uCOS-II\Source/os_core.c **** #endif
1087:..\..\..\..\..\..\Software\uCOS-II\Source/os_core.c **** 
1088:..\..\..\..\..\..\Software\uCOS-II\Source/os_core.c ****     ptcb                  =  OSTCBPrioTbl[prio];        /* Point to this task's OS_TCB             
 1150              		.loc 1 1088 0
 1151 0056 1523     		movs	r3, #21
 1152 0058 FB18     		adds	r3, r7, r3
 1153 005a 1A78     		ldrb	r2, [r3]
 1154 005c 224B     		ldr	r3, .L62+4
 1155 005e 9200     		lsls	r2, r2, #2
 1156 0060 D358     		ldr	r3, [r2, r3]
 1157 0062 3B61     		str	r3, [r7, #16]
1089:..\..\..\..\..\..\Software\uCOS-II\Source/os_core.c ****     ptcb->OSTCBDly        =  0u;                        /* Prevent OSTimeTick() from readying task 
 1158              		.loc 1 1089 0
 1159 0064 3B69     		ldr	r3, [r7, #16]
 1160 0066 0022     		movs	r2, #0
 1161 0068 1A62     		str	r2, [r3, #32]
1090:..\..\..\..\..\..\Software\uCOS-II\Source/os_core.c **** #if ((OS_Q_EN > 0u) && (OS_MAX_QS > 0u)) || (OS_MBOX_EN > 0u)
1091:..\..\..\..\..\..\Software\uCOS-II\Source/os_core.c ****     ptcb->OSTCBMsg        =  pmsg;                      /* Send message directly to waiting task   
1092:..\..\..\..\..\..\Software\uCOS-II\Source/os_core.c **** #else
1093:..\..\..\..\..\..\Software\uCOS-II\Source/os_core.c ****     pmsg                  =  pmsg;                      /* Prevent compiler warning if not used    
1094:..\..\..\..\..\..\Software\uCOS-II\Source/os_core.c **** #endif
1095:..\..\..\..\..\..\Software\uCOS-II\Source/os_core.c ****     ptcb->OSTCBStat      &= (INT8U)~msk;                /* Clear bit associated with event type    
 1162              		.loc 1 1095 0
 1163 006a 3B69     		ldr	r3, [r7, #16]
 1164 006c 2422     		movs	r2, #36
 1165 006e 9B5C     		ldrb	r3, [r3, r2]
 1166 0070 FA1D     		adds	r2, r7, #7
 1167 0072 1278     		ldrb	r2, [r2]
 1168 0074 D243     		mvns	r2, r2
 1169 0076 D2B2     		uxtb	r2, r2
 1170 0078 1340     		ands	r3, r2
 1171 007a D9B2     		uxtb	r1, r3
 1172 007c 3B69     		ldr	r3, [r7, #16]
 1173 007e 2422     		movs	r2, #36
 1174 0080 9954     		strb	r1, [r3, r2]
1096:..\..\..\..\..\..\Software\uCOS-II\Source/os_core.c ****     ptcb->OSTCBStatPend   =  pend_stat;                 /* Set pend status of post or abort        
 1175              		.loc 1 1096 0
 1176 0082 3B69     		ldr	r3, [r7, #16]
 1177 0084 BA1D     		adds	r2, r7, #6
 1178 0086 2521     		movs	r1, #37
 1179 0088 1278     		ldrb	r2, [r2]
ARM GAS  C:\Users\EDULU~1.DES\AppData\Local\Temp\ccKclfbr.s 			page 41


 1180 008a 5A54     		strb	r2, [r3, r1]
1097:..\..\..\..\..\..\Software\uCOS-II\Source/os_core.c ****                                                         /* See if task is ready (could be susp'd)  
1098:..\..\..\..\..\..\Software\uCOS-II\Source/os_core.c ****     if ((ptcb->OSTCBStat &   OS_STAT_SUSPEND) == OS_STAT_RDY) {
 1181              		.loc 1 1098 0
 1182 008c 3B69     		ldr	r3, [r7, #16]
 1183 008e 2422     		movs	r2, #36
 1184 0090 9B5C     		ldrb	r3, [r3, r2]
 1185 0092 1A00     		movs	r2, r3
 1186 0094 0823     		movs	r3, #8
 1187 0096 1340     		ands	r3, r2
 1188 0098 17D1     		bne	.L60
1099:..\..\..\..\..\..\Software\uCOS-II\Source/os_core.c ****         OSRdyGrp         |=  ptcb->OSTCBBitY;           /* Put task in the ready to run list       
 1189              		.loc 1 1099 0
 1190 009a 3B69     		ldr	r3, [r7, #16]
 1191 009c 2A22     		movs	r2, #42
 1192 009e 9A5C     		ldrb	r2, [r3, r2]
 1193 00a0 124B     		ldr	r3, .L62+8
 1194 00a2 1B78     		ldrb	r3, [r3]
 1195 00a4 1343     		orrs	r3, r2
 1196 00a6 DAB2     		uxtb	r2, r3
 1197 00a8 104B     		ldr	r3, .L62+8
 1198 00aa 1A70     		strb	r2, [r3]
1100:..\..\..\..\..\..\Software\uCOS-II\Source/os_core.c ****         OSRdyTbl[y]      |=  ptcb->OSTCBBitX;
 1199              		.loc 1 1100 0
 1200 00ac 1723     		movs	r3, #23
 1201 00ae FB18     		adds	r3, r7, r3
 1202 00b0 1B78     		ldrb	r3, [r3]
 1203 00b2 1722     		movs	r2, #23
 1204 00b4 BA18     		adds	r2, r7, r2
 1205 00b6 1278     		ldrb	r2, [r2]
 1206 00b8 0D49     		ldr	r1, .L62+12
 1207 00ba 895C     		ldrb	r1, [r1, r2]
 1208 00bc 3A69     		ldr	r2, [r7, #16]
 1209 00be 2920     		movs	r0, #41
 1210 00c0 125C     		ldrb	r2, [r2, r0]
 1211 00c2 0A43     		orrs	r2, r1
 1212 00c4 D1B2     		uxtb	r1, r2
 1213 00c6 0A4A     		ldr	r2, .L62+12
 1214 00c8 D154     		strb	r1, [r2, r3]
 1215              	.L60:
1101:..\..\..\..\..\..\Software\uCOS-II\Source/os_core.c ****     }
1102:..\..\..\..\..\..\Software\uCOS-II\Source/os_core.c **** 
1103:..\..\..\..\..\..\Software\uCOS-II\Source/os_core.c ****     OS_EventTaskRemove(ptcb, pevent);                   /* Remove this task from event   wait list 
 1216              		.loc 1 1103 0
 1217 00ca FA68     		ldr	r2, [r7, #12]
 1218 00cc 3B69     		ldr	r3, [r7, #16]
 1219 00ce 1100     		movs	r1, r2
 1220 00d0 1800     		movs	r0, r3
 1221 00d2 FFF7FEFF 		bl	OS_EventTaskRemove
1104:..\..\..\..\..\..\Software\uCOS-II\Source/os_core.c **** #if (OS_EVENT_MULTI_EN > 0u)
1105:..\..\..\..\..\..\Software\uCOS-II\Source/os_core.c ****     if (ptcb->OSTCBEventMultiPtr != (OS_EVENT **)0) {   /* Remove this task from events' wait lists
1106:..\..\..\..\..\..\Software\uCOS-II\Source/os_core.c ****         OS_EventTaskRemoveMulti(ptcb, ptcb->OSTCBEventMultiPtr);
1107:..\..\..\..\..\..\Software\uCOS-II\Source/os_core.c ****         ptcb->OSTCBEventPtr       = (OS_EVENT  *)pevent;/* Return event as first multi-pend event r
1108:..\..\..\..\..\..\Software\uCOS-II\Source/os_core.c ****     }
1109:..\..\..\..\..\..\Software\uCOS-II\Source/os_core.c **** #endif
1110:..\..\..\..\..\..\Software\uCOS-II\Source/os_core.c **** 
1111:..\..\..\..\..\..\Software\uCOS-II\Source/os_core.c ****     return (prio);
ARM GAS  C:\Users\EDULU~1.DES\AppData\Local\Temp\ccKclfbr.s 			page 42


 1222              		.loc 1 1111 0
 1223 00d6 1523     		movs	r3, #21
 1224 00d8 FB18     		adds	r3, r7, r3
 1225 00da 1B78     		ldrb	r3, [r3]
1112:..\..\..\..\..\..\Software\uCOS-II\Source/os_core.c **** }
 1226              		.loc 1 1112 0
 1227 00dc 1800     		movs	r0, r3
 1228 00de BD46     		mov	sp, r7
 1229 00e0 06B0     		add	sp, sp, #24
 1230              		@ sp needed
 1231 00e2 80BD     		pop	{r7, pc}
 1232              	.L63:
 1233              		.align	2
 1234              	.L62:
 1235 00e4 00000000 		.word	OSUnMapTbl
 1236 00e8 00000000 		.word	OSTCBPrioTbl
 1237 00ec 00000000 		.word	OSRdyGrp
 1238 00f0 00000000 		.word	OSRdyTbl
 1239              		.cfi_endproc
 1240              	.LFE10:
 1241              		.size	OS_EventTaskRdy, .-OS_EventTaskRdy
 1242              		.section	.text.OS_EventTaskWait,"ax",%progbits
 1243              		.align	2
 1244              		.global	OS_EventTaskWait
 1245              		.code	16
 1246              		.thumb_func
 1247              		.type	OS_EventTaskWait, %function
 1248              	OS_EventTaskWait:
 1249              	.LFB11:
1113:..\..\..\..\..\..\Software\uCOS-II\Source/os_core.c **** #endif
1114:..\..\..\..\..\..\Software\uCOS-II\Source/os_core.c **** /*$PAGE*/
1115:..\..\..\..\..\..\Software\uCOS-II\Source/os_core.c **** /*
1116:..\..\..\..\..\..\Software\uCOS-II\Source/os_core.c **** ***************************************************************************************************
1117:..\..\..\..\..\..\Software\uCOS-II\Source/os_core.c **** *                                  MAKE TASK WAIT FOR EVENT TO OCCUR
1118:..\..\..\..\..\..\Software\uCOS-II\Source/os_core.c **** *
1119:..\..\..\..\..\..\Software\uCOS-II\Source/os_core.c **** * Description: This function is called by other uC/OS-II services to suspend a task because an even
1120:..\..\..\..\..\..\Software\uCOS-II\Source/os_core.c **** *              not occurred.
1121:..\..\..\..\..\..\Software\uCOS-II\Source/os_core.c **** *
1122:..\..\..\..\..\..\Software\uCOS-II\Source/os_core.c **** * Arguments  : pevent   is a pointer to the event control block for which the task will be waiting 
1123:..\..\..\..\..\..\Software\uCOS-II\Source/os_core.c **** *
1124:..\..\..\..\..\..\Software\uCOS-II\Source/os_core.c **** * Returns    : none
1125:..\..\..\..\..\..\Software\uCOS-II\Source/os_core.c **** *
1126:..\..\..\..\..\..\Software\uCOS-II\Source/os_core.c **** * Note       : This function is INTERNAL to uC/OS-II and your application should not call it.
1127:..\..\..\..\..\..\Software\uCOS-II\Source/os_core.c **** ***************************************************************************************************
1128:..\..\..\..\..\..\Software\uCOS-II\Source/os_core.c **** */
1129:..\..\..\..\..\..\Software\uCOS-II\Source/os_core.c **** #if (OS_EVENT_EN)
1130:..\..\..\..\..\..\Software\uCOS-II\Source/os_core.c **** void  OS_EventTaskWait (OS_EVENT *pevent)
1131:..\..\..\..\..\..\Software\uCOS-II\Source/os_core.c **** {
 1250              		.loc 1 1131 0
 1251              		.cfi_startproc
 1252              		@ args = 0, pretend = 0, frame = 16
 1253              		@ frame_needed = 1, uses_anonymous_args = 0
 1254 0000 80B5     		push	{r7, lr}
 1255              		.cfi_def_cfa_offset 8
 1256              		.cfi_offset 7, -8
 1257              		.cfi_offset 14, -4
 1258 0002 84B0     		sub	sp, sp, #16
ARM GAS  C:\Users\EDULU~1.DES\AppData\Local\Temp\ccKclfbr.s 			page 43


 1259              		.cfi_def_cfa_offset 24
 1260 0004 00AF     		add	r7, sp, #0
 1261              		.cfi_def_cfa_register 7
 1262 0006 7860     		str	r0, [r7, #4]
1132:..\..\..\..\..\..\Software\uCOS-II\Source/os_core.c ****     INT8U  y;
1133:..\..\..\..\..\..\Software\uCOS-II\Source/os_core.c **** 
1134:..\..\..\..\..\..\Software\uCOS-II\Source/os_core.c **** 
1135:..\..\..\..\..\..\Software\uCOS-II\Source/os_core.c ****     OSTCBCur->OSTCBEventPtr               = pevent;                 /* Store ptr to ECB in TCB     
 1263              		.loc 1 1135 0
 1264 0008 294B     		ldr	r3, .L67
 1265 000a 1B68     		ldr	r3, [r3]
 1266 000c 7A68     		ldr	r2, [r7, #4]
 1267 000e DA61     		str	r2, [r3, #28]
1136:..\..\..\..\..\..\Software\uCOS-II\Source/os_core.c **** 
1137:..\..\..\..\..\..\Software\uCOS-II\Source/os_core.c ****     pevent->OSEventTbl[OSTCBCur->OSTCBY] |= OSTCBCur->OSTCBBitX;    /* Put task in waiting list    
 1268              		.loc 1 1137 0
 1269 0010 274B     		ldr	r3, .L67
 1270 0012 1B68     		ldr	r3, [r3]
 1271 0014 2822     		movs	r2, #40
 1272 0016 9B5C     		ldrb	r3, [r3, r2]
 1273 0018 1800     		movs	r0, r3
 1274 001a 254B     		ldr	r3, .L67
 1275 001c 1B68     		ldr	r3, [r3]
 1276 001e 2822     		movs	r2, #40
 1277 0020 9B5C     		ldrb	r3, [r3, r2]
 1278 0022 1A00     		movs	r2, r3
 1279 0024 7B68     		ldr	r3, [r7, #4]
 1280 0026 9B18     		adds	r3, r3, r2
 1281 0028 DA7A     		ldrb	r2, [r3, #11]
 1282 002a 214B     		ldr	r3, .L67
 1283 002c 1B68     		ldr	r3, [r3]
 1284 002e 2921     		movs	r1, #41
 1285 0030 5B5C     		ldrb	r3, [r3, r1]
 1286 0032 1343     		orrs	r3, r2
 1287 0034 DAB2     		uxtb	r2, r3
 1288 0036 7B68     		ldr	r3, [r7, #4]
 1289 0038 1B18     		adds	r3, r3, r0
 1290 003a DA72     		strb	r2, [r3, #11]
1138:..\..\..\..\..\..\Software\uCOS-II\Source/os_core.c ****     pevent->OSEventGrp                   |= OSTCBCur->OSTCBBitY;
 1291              		.loc 1 1138 0
 1292 003c 7B68     		ldr	r3, [r7, #4]
 1293 003e 9A7A     		ldrb	r2, [r3, #10]
 1294 0040 1B4B     		ldr	r3, .L67
 1295 0042 1B68     		ldr	r3, [r3]
 1296 0044 2A21     		movs	r1, #42
 1297 0046 5B5C     		ldrb	r3, [r3, r1]
 1298 0048 1343     		orrs	r3, r2
 1299 004a DAB2     		uxtb	r2, r3
 1300 004c 7B68     		ldr	r3, [r7, #4]
 1301 004e 9A72     		strb	r2, [r3, #10]
1139:..\..\..\..\..\..\Software\uCOS-II\Source/os_core.c **** 
1140:..\..\..\..\..\..\Software\uCOS-II\Source/os_core.c ****     y             =  OSTCBCur->OSTCBY;            /* Task no longer ready                          
 1302              		.loc 1 1140 0
 1303 0050 174B     		ldr	r3, .L67
 1304 0052 1A68     		ldr	r2, [r3]
 1305 0054 0F23     		movs	r3, #15
 1306 0056 FB18     		adds	r3, r7, r3
ARM GAS  C:\Users\EDULU~1.DES\AppData\Local\Temp\ccKclfbr.s 			page 44


 1307 0058 2821     		movs	r1, #40
 1308 005a 525C     		ldrb	r2, [r2, r1]
 1309 005c 1A70     		strb	r2, [r3]
1141:..\..\..\..\..\..\Software\uCOS-II\Source/os_core.c ****     OSRdyTbl[y]  &= (OS_PRIO)~OSTCBCur->OSTCBBitX;
 1310              		.loc 1 1141 0
 1311 005e 0F23     		movs	r3, #15
 1312 0060 FB18     		adds	r3, r7, r3
 1313 0062 1A78     		ldrb	r2, [r3]
 1314 0064 0F23     		movs	r3, #15
 1315 0066 FB18     		adds	r3, r7, r3
 1316 0068 1B78     		ldrb	r3, [r3]
 1317 006a 1249     		ldr	r1, .L67+4
 1318 006c C95C     		ldrb	r1, [r1, r3]
 1319 006e 104B     		ldr	r3, .L67
 1320 0070 1B68     		ldr	r3, [r3]
 1321 0072 2920     		movs	r0, #41
 1322 0074 1B5C     		ldrb	r3, [r3, r0]
 1323 0076 DB43     		mvns	r3, r3
 1324 0078 DBB2     		uxtb	r3, r3
 1325 007a 0B40     		ands	r3, r1
 1326 007c D9B2     		uxtb	r1, r3
 1327 007e 0D4B     		ldr	r3, .L67+4
 1328 0080 9954     		strb	r1, [r3, r2]
1142:..\..\..\..\..\..\Software\uCOS-II\Source/os_core.c ****     if (OSRdyTbl[y] == 0u) {                      /* Clear event grp bit if this was only task pend
 1329              		.loc 1 1142 0
 1330 0082 0F23     		movs	r3, #15
 1331 0084 FB18     		adds	r3, r7, r3
 1332 0086 1B78     		ldrb	r3, [r3]
 1333 0088 0A4A     		ldr	r2, .L67+4
 1334 008a D35C     		ldrb	r3, [r2, r3]
 1335 008c 002B     		cmp	r3, #0
 1336 008e 0BD1     		bne	.L66
1143:..\..\..\..\..\..\Software\uCOS-II\Source/os_core.c ****         OSRdyGrp &= (OS_PRIO)~OSTCBCur->OSTCBBitY;
 1337              		.loc 1 1143 0
 1338 0090 074B     		ldr	r3, .L67
 1339 0092 1B68     		ldr	r3, [r3]
 1340 0094 2A22     		movs	r2, #42
 1341 0096 9B5C     		ldrb	r3, [r3, r2]
 1342 0098 DB43     		mvns	r3, r3
 1343 009a DBB2     		uxtb	r3, r3
 1344 009c 064A     		ldr	r2, .L67+8
 1345 009e 1278     		ldrb	r2, [r2]
 1346 00a0 1340     		ands	r3, r2
 1347 00a2 DAB2     		uxtb	r2, r3
 1348 00a4 044B     		ldr	r3, .L67+8
 1349 00a6 1A70     		strb	r2, [r3]
 1350              	.L66:
1144:..\..\..\..\..\..\Software\uCOS-II\Source/os_core.c ****     }
1145:..\..\..\..\..\..\Software\uCOS-II\Source/os_core.c **** }
 1351              		.loc 1 1145 0
 1352 00a8 C046     		nop
 1353 00aa BD46     		mov	sp, r7
 1354 00ac 04B0     		add	sp, sp, #16
 1355              		@ sp needed
 1356 00ae 80BD     		pop	{r7, pc}
 1357              	.L68:
 1358              		.align	2
ARM GAS  C:\Users\EDULU~1.DES\AppData\Local\Temp\ccKclfbr.s 			page 45


 1359              	.L67:
 1360 00b0 00000000 		.word	OSTCBCur
 1361 00b4 00000000 		.word	OSRdyTbl
 1362 00b8 00000000 		.word	OSRdyGrp
 1363              		.cfi_endproc
 1364              	.LFE11:
 1365              		.size	OS_EventTaskWait, .-OS_EventTaskWait
 1366              		.section	.text.OS_EventTaskRemove,"ax",%progbits
 1367              		.align	2
 1368              		.global	OS_EventTaskRemove
 1369              		.code	16
 1370              		.thumb_func
 1371              		.type	OS_EventTaskRemove, %function
 1372              	OS_EventTaskRemove:
 1373              	.LFB12:
1146:..\..\..\..\..\..\Software\uCOS-II\Source/os_core.c **** #endif
1147:..\..\..\..\..\..\Software\uCOS-II\Source/os_core.c **** /*$PAGE*/
1148:..\..\..\..\..\..\Software\uCOS-II\Source/os_core.c **** /*
1149:..\..\..\..\..\..\Software\uCOS-II\Source/os_core.c **** ***************************************************************************************************
1150:..\..\..\..\..\..\Software\uCOS-II\Source/os_core.c **** *                         MAKE TASK WAIT FOR ANY OF MULTIPLE EVENTS TO OCCUR
1151:..\..\..\..\..\..\Software\uCOS-II\Source/os_core.c **** *
1152:..\..\..\..\..\..\Software\uCOS-II\Source/os_core.c **** * Description: This function is called by other uC/OS-II services to suspend a task because any one
1153:..\..\..\..\..\..\Software\uCOS-II\Source/os_core.c **** *              multiple events has not occurred.
1154:..\..\..\..\..\..\Software\uCOS-II\Source/os_core.c **** *
1155:..\..\..\..\..\..\Software\uCOS-II\Source/os_core.c **** * Arguments  : pevents_wait     is a pointer to an array of event control blocks, NULL-terminated, 
1156:..\..\..\..\..\..\Software\uCOS-II\Source/os_core.c **** *                               which the task will be waiting for.
1157:..\..\..\..\..\..\Software\uCOS-II\Source/os_core.c **** *
1158:..\..\..\..\..\..\Software\uCOS-II\Source/os_core.c **** * Returns    : none.
1159:..\..\..\..\..\..\Software\uCOS-II\Source/os_core.c **** *
1160:..\..\..\..\..\..\Software\uCOS-II\Source/os_core.c **** * Note       : This function is INTERNAL to uC/OS-II and your application should not call it.
1161:..\..\..\..\..\..\Software\uCOS-II\Source/os_core.c **** ***************************************************************************************************
1162:..\..\..\..\..\..\Software\uCOS-II\Source/os_core.c **** */
1163:..\..\..\..\..\..\Software\uCOS-II\Source/os_core.c **** #if ((OS_EVENT_EN) && (OS_EVENT_MULTI_EN > 0u))
1164:..\..\..\..\..\..\Software\uCOS-II\Source/os_core.c **** void  OS_EventTaskWaitMulti (OS_EVENT **pevents_wait)
1165:..\..\..\..\..\..\Software\uCOS-II\Source/os_core.c **** {
1166:..\..\..\..\..\..\Software\uCOS-II\Source/os_core.c ****     OS_EVENT **pevents;
1167:..\..\..\..\..\..\Software\uCOS-II\Source/os_core.c ****     OS_EVENT  *pevent;
1168:..\..\..\..\..\..\Software\uCOS-II\Source/os_core.c ****     INT8U      y;
1169:..\..\..\..\..\..\Software\uCOS-II\Source/os_core.c **** 
1170:..\..\..\..\..\..\Software\uCOS-II\Source/os_core.c **** 
1171:..\..\..\..\..\..\Software\uCOS-II\Source/os_core.c ****     OSTCBCur->OSTCBEventPtr      = (OS_EVENT  *)0;
1172:..\..\..\..\..\..\Software\uCOS-II\Source/os_core.c ****     OSTCBCur->OSTCBEventMultiPtr = (OS_EVENT **)pevents_wait;       /* Store ptr to ECBs in TCB    
1173:..\..\..\..\..\..\Software\uCOS-II\Source/os_core.c **** 
1174:..\..\..\..\..\..\Software\uCOS-II\Source/os_core.c ****     pevents =  pevents_wait;
1175:..\..\..\..\..\..\Software\uCOS-II\Source/os_core.c ****     pevent  = *pevents;
1176:..\..\..\..\..\..\Software\uCOS-II\Source/os_core.c ****     while (pevent != (OS_EVENT *)0) {                               /* Put task in waiting lists   
1177:..\..\..\..\..\..\Software\uCOS-II\Source/os_core.c ****         pevent->OSEventTbl[OSTCBCur->OSTCBY] |= OSTCBCur->OSTCBBitX;
1178:..\..\..\..\..\..\Software\uCOS-II\Source/os_core.c ****         pevent->OSEventGrp                   |= OSTCBCur->OSTCBBitY;
1179:..\..\..\..\..\..\Software\uCOS-II\Source/os_core.c ****         pevents++;
1180:..\..\..\..\..\..\Software\uCOS-II\Source/os_core.c ****         pevent = *pevents;
1181:..\..\..\..\..\..\Software\uCOS-II\Source/os_core.c ****     }
1182:..\..\..\..\..\..\Software\uCOS-II\Source/os_core.c **** 
1183:..\..\..\..\..\..\Software\uCOS-II\Source/os_core.c ****     y             =  OSTCBCur->OSTCBY;            /* Task no longer ready                          
1184:..\..\..\..\..\..\Software\uCOS-II\Source/os_core.c ****     OSRdyTbl[y]  &= (OS_PRIO)~OSTCBCur->OSTCBBitX;
1185:..\..\..\..\..\..\Software\uCOS-II\Source/os_core.c ****     if (OSRdyTbl[y] == 0u) {                      /* Clear event grp bit if this was only task pend
1186:..\..\..\..\..\..\Software\uCOS-II\Source/os_core.c ****         OSRdyGrp &= (OS_PRIO)~OSTCBCur->OSTCBBitY;
1187:..\..\..\..\..\..\Software\uCOS-II\Source/os_core.c ****     }
ARM GAS  C:\Users\EDULU~1.DES\AppData\Local\Temp\ccKclfbr.s 			page 46


1188:..\..\..\..\..\..\Software\uCOS-II\Source/os_core.c **** }
1189:..\..\..\..\..\..\Software\uCOS-II\Source/os_core.c **** #endif
1190:..\..\..\..\..\..\Software\uCOS-II\Source/os_core.c **** /*$PAGE*/
1191:..\..\..\..\..\..\Software\uCOS-II\Source/os_core.c **** /*
1192:..\..\..\..\..\..\Software\uCOS-II\Source/os_core.c **** ***************************************************************************************************
1193:..\..\..\..\..\..\Software\uCOS-II\Source/os_core.c **** *                                  REMOVE TASK FROM EVENT WAIT LIST
1194:..\..\..\..\..\..\Software\uCOS-II\Source/os_core.c **** *
1195:..\..\..\..\..\..\Software\uCOS-II\Source/os_core.c **** * Description: Remove a task from an event's wait list.
1196:..\..\..\..\..\..\Software\uCOS-II\Source/os_core.c **** *
1197:..\..\..\..\..\..\Software\uCOS-II\Source/os_core.c **** * Arguments  : ptcb     is a pointer to the task to remove.
1198:..\..\..\..\..\..\Software\uCOS-II\Source/os_core.c **** *
1199:..\..\..\..\..\..\Software\uCOS-II\Source/os_core.c **** *              pevent   is a pointer to the event control block.
1200:..\..\..\..\..\..\Software\uCOS-II\Source/os_core.c **** *
1201:..\..\..\..\..\..\Software\uCOS-II\Source/os_core.c **** * Returns    : none
1202:..\..\..\..\..\..\Software\uCOS-II\Source/os_core.c **** *
1203:..\..\..\..\..\..\Software\uCOS-II\Source/os_core.c **** * Note       : This function is INTERNAL to uC/OS-II and your application should not call it.
1204:..\..\..\..\..\..\Software\uCOS-II\Source/os_core.c **** ***************************************************************************************************
1205:..\..\..\..\..\..\Software\uCOS-II\Source/os_core.c **** */
1206:..\..\..\..\..\..\Software\uCOS-II\Source/os_core.c **** #if (OS_EVENT_EN)
1207:..\..\..\..\..\..\Software\uCOS-II\Source/os_core.c **** void  OS_EventTaskRemove (OS_TCB   *ptcb,
1208:..\..\..\..\..\..\Software\uCOS-II\Source/os_core.c ****                           OS_EVENT *pevent)
1209:..\..\..\..\..\..\Software\uCOS-II\Source/os_core.c **** {
 1374              		.loc 1 1209 0
 1375              		.cfi_startproc
 1376              		@ args = 0, pretend = 0, frame = 16
 1377              		@ frame_needed = 1, uses_anonymous_args = 0
 1378 0000 80B5     		push	{r7, lr}
 1379              		.cfi_def_cfa_offset 8
 1380              		.cfi_offset 7, -8
 1381              		.cfi_offset 14, -4
 1382 0002 84B0     		sub	sp, sp, #16
 1383              		.cfi_def_cfa_offset 24
 1384 0004 00AF     		add	r7, sp, #0
 1385              		.cfi_def_cfa_register 7
 1386 0006 7860     		str	r0, [r7, #4]
 1387 0008 3960     		str	r1, [r7]
1210:..\..\..\..\..\..\Software\uCOS-II\Source/os_core.c ****     INT8U  y;
1211:..\..\..\..\..\..\Software\uCOS-II\Source/os_core.c **** 
1212:..\..\..\..\..\..\Software\uCOS-II\Source/os_core.c **** 
1213:..\..\..\..\..\..\Software\uCOS-II\Source/os_core.c ****     y                       =  ptcb->OSTCBY;
 1388              		.loc 1 1213 0
 1389 000a 0F23     		movs	r3, #15
 1390 000c FB18     		adds	r3, r7, r3
 1391 000e 7A68     		ldr	r2, [r7, #4]
 1392 0010 2821     		movs	r1, #40
 1393 0012 525C     		ldrb	r2, [r2, r1]
 1394 0014 1A70     		strb	r2, [r3]
1214:..\..\..\..\..\..\Software\uCOS-II\Source/os_core.c ****     pevent->OSEventTbl[y]  &= (OS_PRIO)~ptcb->OSTCBBitX;    /* Remove task from wait list          
 1395              		.loc 1 1214 0
 1396 0016 0F23     		movs	r3, #15
 1397 0018 FB18     		adds	r3, r7, r3
 1398 001a 1B78     		ldrb	r3, [r3]
 1399 001c 0F22     		movs	r2, #15
 1400 001e BA18     		adds	r2, r7, r2
 1401 0020 1278     		ldrb	r2, [r2]
 1402 0022 3968     		ldr	r1, [r7]
 1403 0024 8A18     		adds	r2, r1, r2
ARM GAS  C:\Users\EDULU~1.DES\AppData\Local\Temp\ccKclfbr.s 			page 47


 1404 0026 D27A     		ldrb	r2, [r2, #11]
 1405 0028 7968     		ldr	r1, [r7, #4]
 1406 002a 2920     		movs	r0, #41
 1407 002c 095C     		ldrb	r1, [r1, r0]
 1408 002e C943     		mvns	r1, r1
 1409 0030 C9B2     		uxtb	r1, r1
 1410 0032 0A40     		ands	r2, r1
 1411 0034 D1B2     		uxtb	r1, r2
 1412 0036 3A68     		ldr	r2, [r7]
 1413 0038 D318     		adds	r3, r2, r3
 1414 003a 0A1C     		adds	r2, r1, #0
 1415 003c DA72     		strb	r2, [r3, #11]
1215:..\..\..\..\..\..\Software\uCOS-II\Source/os_core.c ****     if (pevent->OSEventTbl[y] == 0u) {
 1416              		.loc 1 1215 0
 1417 003e 0F23     		movs	r3, #15
 1418 0040 FB18     		adds	r3, r7, r3
 1419 0042 1B78     		ldrb	r3, [r3]
 1420 0044 3A68     		ldr	r2, [r7]
 1421 0046 D318     		adds	r3, r2, r3
 1422 0048 DB7A     		ldrb	r3, [r3, #11]
 1423 004a 002B     		cmp	r3, #0
 1424 004c 0AD1     		bne	.L70
1216:..\..\..\..\..\..\Software\uCOS-II\Source/os_core.c ****         pevent->OSEventGrp &= (OS_PRIO)~ptcb->OSTCBBitY;
 1425              		.loc 1 1216 0
 1426 004e 3B68     		ldr	r3, [r7]
 1427 0050 9B7A     		ldrb	r3, [r3, #10]
 1428 0052 7A68     		ldr	r2, [r7, #4]
 1429 0054 2A21     		movs	r1, #42
 1430 0056 525C     		ldrb	r2, [r2, r1]
 1431 0058 D243     		mvns	r2, r2
 1432 005a D2B2     		uxtb	r2, r2
 1433 005c 1340     		ands	r3, r2
 1434 005e DAB2     		uxtb	r2, r3
 1435 0060 3B68     		ldr	r3, [r7]
 1436 0062 9A72     		strb	r2, [r3, #10]
 1437              	.L70:
1217:..\..\..\..\..\..\Software\uCOS-II\Source/os_core.c ****     }
1218:..\..\..\..\..\..\Software\uCOS-II\Source/os_core.c ****     ptcb->OSTCBEventPtr     = (OS_EVENT  *)0;               /* Unlink OS_EVENT from OS_TCB         
 1438              		.loc 1 1218 0
 1439 0064 7B68     		ldr	r3, [r7, #4]
 1440 0066 0022     		movs	r2, #0
 1441 0068 DA61     		str	r2, [r3, #28]
1219:..\..\..\..\..\..\Software\uCOS-II\Source/os_core.c **** }
 1442              		.loc 1 1219 0
 1443 006a C046     		nop
 1444 006c BD46     		mov	sp, r7
 1445 006e 04B0     		add	sp, sp, #16
 1446              		@ sp needed
 1447 0070 80BD     		pop	{r7, pc}
 1448              		.cfi_endproc
 1449              	.LFE12:
 1450              		.size	OS_EventTaskRemove, .-OS_EventTaskRemove
 1451 0072 C046     		.section	.text.OS_EventWaitListInit,"ax",%progbits
 1452              		.align	2
 1453              		.global	OS_EventWaitListInit
 1454              		.code	16
 1455              		.thumb_func
ARM GAS  C:\Users\EDULU~1.DES\AppData\Local\Temp\ccKclfbr.s 			page 48


 1456              		.type	OS_EventWaitListInit, %function
 1457              	OS_EventWaitListInit:
 1458              	.LFB13:
1220:..\..\..\..\..\..\Software\uCOS-II\Source/os_core.c **** #endif
1221:..\..\..\..\..\..\Software\uCOS-II\Source/os_core.c **** /*$PAGE*/
1222:..\..\..\..\..\..\Software\uCOS-II\Source/os_core.c **** /*
1223:..\..\..\..\..\..\Software\uCOS-II\Source/os_core.c **** ***************************************************************************************************
1224:..\..\..\..\..\..\Software\uCOS-II\Source/os_core.c **** *                             REMOVE TASK FROM MULTIPLE EVENTS WAIT LISTS
1225:..\..\..\..\..\..\Software\uCOS-II\Source/os_core.c **** *
1226:..\..\..\..\..\..\Software\uCOS-II\Source/os_core.c **** * Description: Remove a task from multiple events' wait lists.
1227:..\..\..\..\..\..\Software\uCOS-II\Source/os_core.c **** *
1228:..\..\..\..\..\..\Software\uCOS-II\Source/os_core.c **** * Arguments  : ptcb             is a pointer to the task to remove.
1229:..\..\..\..\..\..\Software\uCOS-II\Source/os_core.c **** *
1230:..\..\..\..\..\..\Software\uCOS-II\Source/os_core.c **** *              pevents_multi    is a pointer to the array of event control blocks, NULL-terminated.
1231:..\..\..\..\..\..\Software\uCOS-II\Source/os_core.c **** *
1232:..\..\..\..\..\..\Software\uCOS-II\Source/os_core.c **** * Returns    : none
1233:..\..\..\..\..\..\Software\uCOS-II\Source/os_core.c **** *
1234:..\..\..\..\..\..\Software\uCOS-II\Source/os_core.c **** * Note       : This function is INTERNAL to uC/OS-II and your application should not call it.
1235:..\..\..\..\..\..\Software\uCOS-II\Source/os_core.c **** ***************************************************************************************************
1236:..\..\..\..\..\..\Software\uCOS-II\Source/os_core.c **** */
1237:..\..\..\..\..\..\Software\uCOS-II\Source/os_core.c **** #if ((OS_EVENT_EN) && (OS_EVENT_MULTI_EN > 0u))
1238:..\..\..\..\..\..\Software\uCOS-II\Source/os_core.c **** void  OS_EventTaskRemoveMulti (OS_TCB    *ptcb,
1239:..\..\..\..\..\..\Software\uCOS-II\Source/os_core.c ****                                OS_EVENT **pevents_multi)
1240:..\..\..\..\..\..\Software\uCOS-II\Source/os_core.c **** {
1241:..\..\..\..\..\..\Software\uCOS-II\Source/os_core.c ****     OS_EVENT **pevents;
1242:..\..\..\..\..\..\Software\uCOS-II\Source/os_core.c ****     OS_EVENT  *pevent;
1243:..\..\..\..\..\..\Software\uCOS-II\Source/os_core.c ****     INT8U      y;
1244:..\..\..\..\..\..\Software\uCOS-II\Source/os_core.c ****     OS_PRIO    bity;
1245:..\..\..\..\..\..\Software\uCOS-II\Source/os_core.c ****     OS_PRIO    bitx;
1246:..\..\..\..\..\..\Software\uCOS-II\Source/os_core.c **** 
1247:..\..\..\..\..\..\Software\uCOS-II\Source/os_core.c **** 
1248:..\..\..\..\..\..\Software\uCOS-II\Source/os_core.c ****     y       =  ptcb->OSTCBY;
1249:..\..\..\..\..\..\Software\uCOS-II\Source/os_core.c ****     bity    =  ptcb->OSTCBBitY;
1250:..\..\..\..\..\..\Software\uCOS-II\Source/os_core.c ****     bitx    =  ptcb->OSTCBBitX;
1251:..\..\..\..\..\..\Software\uCOS-II\Source/os_core.c ****     pevents =  pevents_multi;
1252:..\..\..\..\..\..\Software\uCOS-II\Source/os_core.c ****     pevent  = *pevents;
1253:..\..\..\..\..\..\Software\uCOS-II\Source/os_core.c ****     while (pevent != (OS_EVENT *)0) {                   /* Remove task from all events' wait lists 
1254:..\..\..\..\..\..\Software\uCOS-II\Source/os_core.c ****         pevent->OSEventTbl[y]  &= (OS_PRIO)~bitx;
1255:..\..\..\..\..\..\Software\uCOS-II\Source/os_core.c ****         if (pevent->OSEventTbl[y] == 0u) {
1256:..\..\..\..\..\..\Software\uCOS-II\Source/os_core.c ****             pevent->OSEventGrp &= (OS_PRIO)~bity;
1257:..\..\..\..\..\..\Software\uCOS-II\Source/os_core.c ****         }
1258:..\..\..\..\..\..\Software\uCOS-II\Source/os_core.c ****         pevents++;
1259:..\..\..\..\..\..\Software\uCOS-II\Source/os_core.c ****         pevent = *pevents;
1260:..\..\..\..\..\..\Software\uCOS-II\Source/os_core.c ****     }
1261:..\..\..\..\..\..\Software\uCOS-II\Source/os_core.c **** }
1262:..\..\..\..\..\..\Software\uCOS-II\Source/os_core.c **** #endif
1263:..\..\..\..\..\..\Software\uCOS-II\Source/os_core.c **** /*$PAGE*/
1264:..\..\..\..\..\..\Software\uCOS-II\Source/os_core.c **** /*
1265:..\..\..\..\..\..\Software\uCOS-II\Source/os_core.c **** ***************************************************************************************************
1266:..\..\..\..\..\..\Software\uCOS-II\Source/os_core.c **** *                             INITIALIZE EVENT CONTROL BLOCK'S WAIT LIST
1267:..\..\..\..\..\..\Software\uCOS-II\Source/os_core.c **** *
1268:..\..\..\..\..\..\Software\uCOS-II\Source/os_core.c **** * Description: This function is called by other uC/OS-II services to initialize the event wait list
1269:..\..\..\..\..\..\Software\uCOS-II\Source/os_core.c **** *
1270:..\..\..\..\..\..\Software\uCOS-II\Source/os_core.c **** * Arguments  : pevent    is a pointer to the event control block allocated to the event.
1271:..\..\..\..\..\..\Software\uCOS-II\Source/os_core.c **** *
1272:..\..\..\..\..\..\Software\uCOS-II\Source/os_core.c **** * Returns    : none
1273:..\..\..\..\..\..\Software\uCOS-II\Source/os_core.c **** *
ARM GAS  C:\Users\EDULU~1.DES\AppData\Local\Temp\ccKclfbr.s 			page 49


1274:..\..\..\..\..\..\Software\uCOS-II\Source/os_core.c **** * Note       : This function is INTERNAL to uC/OS-II and your application should not call it.
1275:..\..\..\..\..\..\Software\uCOS-II\Source/os_core.c **** ***************************************************************************************************
1276:..\..\..\..\..\..\Software\uCOS-II\Source/os_core.c **** */
1277:..\..\..\..\..\..\Software\uCOS-II\Source/os_core.c **** #if (OS_EVENT_EN)
1278:..\..\..\..\..\..\Software\uCOS-II\Source/os_core.c **** void  OS_EventWaitListInit (OS_EVENT *pevent)
1279:..\..\..\..\..\..\Software\uCOS-II\Source/os_core.c **** {
 1459              		.loc 1 1279 0
 1460              		.cfi_startproc
 1461              		@ args = 0, pretend = 0, frame = 16
 1462              		@ frame_needed = 1, uses_anonymous_args = 0
 1463 0000 80B5     		push	{r7, lr}
 1464              		.cfi_def_cfa_offset 8
 1465              		.cfi_offset 7, -8
 1466              		.cfi_offset 14, -4
 1467 0002 84B0     		sub	sp, sp, #16
 1468              		.cfi_def_cfa_offset 24
 1469 0004 00AF     		add	r7, sp, #0
 1470              		.cfi_def_cfa_register 7
 1471 0006 7860     		str	r0, [r7, #4]
1280:..\..\..\..\..\..\Software\uCOS-II\Source/os_core.c ****     INT8U  i;
1281:..\..\..\..\..\..\Software\uCOS-II\Source/os_core.c **** 
1282:..\..\..\..\..\..\Software\uCOS-II\Source/os_core.c **** 
1283:..\..\..\..\..\..\Software\uCOS-II\Source/os_core.c ****     pevent->OSEventGrp = 0u;                     /* No task waiting on event                       
 1472              		.loc 1 1283 0
 1473 0008 7B68     		ldr	r3, [r7, #4]
 1474 000a 0022     		movs	r2, #0
 1475 000c 9A72     		strb	r2, [r3, #10]
1284:..\..\..\..\..\..\Software\uCOS-II\Source/os_core.c ****     for (i = 0u; i < OS_EVENT_TBL_SIZE; i++) {
 1476              		.loc 1 1284 0
 1477 000e 0F23     		movs	r3, #15
 1478 0010 FB18     		adds	r3, r7, r3
 1479 0012 0022     		movs	r2, #0
 1480 0014 1A70     		strb	r2, [r3]
 1481 0016 0DE0     		b	.L72
 1482              	.L73:
1285:..\..\..\..\..\..\Software\uCOS-II\Source/os_core.c ****         pevent->OSEventTbl[i] = 0u;
 1483              		.loc 1 1285 0 discriminator 3
 1484 0018 0F23     		movs	r3, #15
 1485 001a FB18     		adds	r3, r7, r3
 1486 001c 1B78     		ldrb	r3, [r3]
 1487 001e 7A68     		ldr	r2, [r7, #4]
 1488 0020 D318     		adds	r3, r2, r3
 1489 0022 0022     		movs	r2, #0
 1490 0024 DA72     		strb	r2, [r3, #11]
1284:..\..\..\..\..\..\Software\uCOS-II\Source/os_core.c ****     for (i = 0u; i < OS_EVENT_TBL_SIZE; i++) {
 1491              		.loc 1 1284 0 discriminator 3
 1492 0026 0F23     		movs	r3, #15
 1493 0028 FB18     		adds	r3, r7, r3
 1494 002a 1A78     		ldrb	r2, [r3]
 1495 002c 0F23     		movs	r3, #15
 1496 002e FB18     		adds	r3, r7, r3
 1497 0030 0132     		adds	r2, r2, #1
 1498 0032 1A70     		strb	r2, [r3]
 1499              	.L72:
1284:..\..\..\..\..\..\Software\uCOS-II\Source/os_core.c ****     for (i = 0u; i < OS_EVENT_TBL_SIZE; i++) {
 1500              		.loc 1 1284 0 is_stmt 0 discriminator 1
 1501 0034 0F23     		movs	r3, #15
ARM GAS  C:\Users\EDULU~1.DES\AppData\Local\Temp\ccKclfbr.s 			page 50


 1502 0036 FB18     		adds	r3, r7, r3
 1503 0038 1B78     		ldrb	r3, [r3]
 1504 003a 032B     		cmp	r3, #3
 1505 003c ECD9     		bls	.L73
1286:..\..\..\..\..\..\Software\uCOS-II\Source/os_core.c ****     }
1287:..\..\..\..\..\..\Software\uCOS-II\Source/os_core.c **** }
 1506              		.loc 1 1287 0 is_stmt 1
 1507 003e C046     		nop
 1508 0040 BD46     		mov	sp, r7
 1509 0042 04B0     		add	sp, sp, #16
 1510              		@ sp needed
 1511 0044 80BD     		pop	{r7, pc}
 1512              		.cfi_endproc
 1513              	.LFE13:
 1514              		.size	OS_EventWaitListInit, .-OS_EventWaitListInit
 1515 0046 C046     		.section	.text.OS_InitEventList,"ax",%progbits
 1516              		.align	2
 1517              		.code	16
 1518              		.thumb_func
 1519              		.type	OS_InitEventList, %function
 1520              	OS_InitEventList:
 1521              	.LFB14:
1288:..\..\..\..\..\..\Software\uCOS-II\Source/os_core.c **** #endif
1289:..\..\..\..\..\..\Software\uCOS-II\Source/os_core.c **** /*$PAGE*/
1290:..\..\..\..\..\..\Software\uCOS-II\Source/os_core.c **** /*
1291:..\..\..\..\..\..\Software\uCOS-II\Source/os_core.c **** ***************************************************************************************************
1292:..\..\..\..\..\..\Software\uCOS-II\Source/os_core.c **** *                                             INITIALIZATION
1293:..\..\..\..\..\..\Software\uCOS-II\Source/os_core.c **** *                           INITIALIZE THE FREE LIST OF EVENT CONTROL BLOCKS
1294:..\..\..\..\..\..\Software\uCOS-II\Source/os_core.c **** *
1295:..\..\..\..\..\..\Software\uCOS-II\Source/os_core.c **** * Description: This function is called by OSInit() to initialize the free list of event control blo
1296:..\..\..\..\..\..\Software\uCOS-II\Source/os_core.c **** *
1297:..\..\..\..\..\..\Software\uCOS-II\Source/os_core.c **** * Arguments  : none
1298:..\..\..\..\..\..\Software\uCOS-II\Source/os_core.c **** *
1299:..\..\..\..\..\..\Software\uCOS-II\Source/os_core.c **** * Returns    : none
1300:..\..\..\..\..\..\Software\uCOS-II\Source/os_core.c **** ***************************************************************************************************
1301:..\..\..\..\..\..\Software\uCOS-II\Source/os_core.c **** */
1302:..\..\..\..\..\..\Software\uCOS-II\Source/os_core.c **** 
1303:..\..\..\..\..\..\Software\uCOS-II\Source/os_core.c **** static  void  OS_InitEventList (void)
1304:..\..\..\..\..\..\Software\uCOS-II\Source/os_core.c **** {
 1522              		.loc 1 1304 0
 1523              		.cfi_startproc
 1524              		@ args = 0, pretend = 0, frame = 16
 1525              		@ frame_needed = 1, uses_anonymous_args = 0
 1526 0000 80B5     		push	{r7, lr}
 1527              		.cfi_def_cfa_offset 8
 1528              		.cfi_offset 7, -8
 1529              		.cfi_offset 14, -4
 1530 0002 84B0     		sub	sp, sp, #16
 1531              		.cfi_def_cfa_offset 24
 1532 0004 00AF     		add	r7, sp, #0
 1533              		.cfi_def_cfa_register 7
1305:..\..\..\..\..\..\Software\uCOS-II\Source/os_core.c **** #if (OS_EVENT_EN) && (OS_MAX_EVENTS > 0u)
1306:..\..\..\..\..\..\Software\uCOS-II\Source/os_core.c **** #if (OS_MAX_EVENTS > 1u)
1307:..\..\..\..\..\..\Software\uCOS-II\Source/os_core.c ****     INT16U     ix;
1308:..\..\..\..\..\..\Software\uCOS-II\Source/os_core.c ****     INT16U     ix_next;
1309:..\..\..\..\..\..\Software\uCOS-II\Source/os_core.c ****     OS_EVENT  *pevent1;
1310:..\..\..\..\..\..\Software\uCOS-II\Source/os_core.c ****     OS_EVENT  *pevent2;
ARM GAS  C:\Users\EDULU~1.DES\AppData\Local\Temp\ccKclfbr.s 			page 51


1311:..\..\..\..\..\..\Software\uCOS-II\Source/os_core.c **** 
1312:..\..\..\..\..\..\Software\uCOS-II\Source/os_core.c **** 
1313:..\..\..\..\..\..\Software\uCOS-II\Source/os_core.c ****     OS_MemClr((INT8U *)&OSEventTbl[0], sizeof(OSEventTbl)); /* Clear the event table               
 1534              		.loc 1 1313 0
 1535 0006 224B     		ldr	r3, .L77
 1536 0008 5021     		movs	r1, #80
 1537 000a 1800     		movs	r0, r3
 1538 000c FFF7FEFF 		bl	OS_MemClr
1314:..\..\..\..\..\..\Software\uCOS-II\Source/os_core.c ****     for (ix = 0u; ix < (OS_MAX_EVENTS - 1u); ix++) {        /* Init. list of free EVENT control blo
 1539              		.loc 1 1314 0
 1540 0010 0E23     		movs	r3, #14
 1541 0012 FB18     		adds	r3, r7, r3
 1542 0014 0022     		movs	r2, #0
 1543 0016 1A80     		strh	r2, [r3]
 1544 0018 21E0     		b	.L75
 1545              	.L76:
1315:..\..\..\..\..\..\Software\uCOS-II\Source/os_core.c ****         ix_next = ix + 1u;
 1546              		.loc 1 1315 0 discriminator 3
 1547 001a 0C23     		movs	r3, #12
 1548 001c FB18     		adds	r3, r7, r3
 1549 001e 0E22     		movs	r2, #14
 1550 0020 BA18     		adds	r2, r7, r2
 1551 0022 1288     		ldrh	r2, [r2]
 1552 0024 0132     		adds	r2, r2, #1
 1553 0026 1A80     		strh	r2, [r3]
1316:..\..\..\..\..\..\Software\uCOS-II\Source/os_core.c ****         pevent1 = &OSEventTbl[ix];
 1554              		.loc 1 1316 0 discriminator 3
 1555 0028 0E23     		movs	r3, #14
 1556 002a FB18     		adds	r3, r7, r3
 1557 002c 1B88     		ldrh	r3, [r3]
 1558 002e 1A01     		lsls	r2, r3, #4
 1559 0030 174B     		ldr	r3, .L77
 1560 0032 D318     		adds	r3, r2, r3
 1561 0034 BB60     		str	r3, [r7, #8]
1317:..\..\..\..\..\..\Software\uCOS-II\Source/os_core.c ****         pevent2 = &OSEventTbl[ix_next];
 1562              		.loc 1 1317 0 discriminator 3
 1563 0036 0C23     		movs	r3, #12
 1564 0038 FB18     		adds	r3, r7, r3
 1565 003a 1B88     		ldrh	r3, [r3]
 1566 003c 1A01     		lsls	r2, r3, #4
 1567 003e 144B     		ldr	r3, .L77
 1568 0040 D318     		adds	r3, r2, r3
 1569 0042 7B60     		str	r3, [r7, #4]
1318:..\..\..\..\..\..\Software\uCOS-II\Source/os_core.c ****         pevent1->OSEventType    = OS_EVENT_TYPE_UNUSED;
 1570              		.loc 1 1318 0 discriminator 3
 1571 0044 BB68     		ldr	r3, [r7, #8]
 1572 0046 0022     		movs	r2, #0
 1573 0048 1A70     		strb	r2, [r3]
1319:..\..\..\..\..\..\Software\uCOS-II\Source/os_core.c ****         pevent1->OSEventPtr     = pevent2;
 1574              		.loc 1 1319 0 discriminator 3
 1575 004a BB68     		ldr	r3, [r7, #8]
 1576 004c 7A68     		ldr	r2, [r7, #4]
 1577 004e 5A60     		str	r2, [r3, #4]
1314:..\..\..\..\..\..\Software\uCOS-II\Source/os_core.c ****         ix_next = ix + 1u;
 1578              		.loc 1 1314 0 discriminator 3
 1579 0050 0E23     		movs	r3, #14
 1580 0052 FB18     		adds	r3, r7, r3
ARM GAS  C:\Users\EDULU~1.DES\AppData\Local\Temp\ccKclfbr.s 			page 52


 1581 0054 1A88     		ldrh	r2, [r3]
 1582 0056 0E23     		movs	r3, #14
 1583 0058 FB18     		adds	r3, r7, r3
 1584 005a 0132     		adds	r2, r2, #1
 1585 005c 1A80     		strh	r2, [r3]
 1586              	.L75:
1314:..\..\..\..\..\..\Software\uCOS-II\Source/os_core.c ****         ix_next = ix + 1u;
 1587              		.loc 1 1314 0 is_stmt 0 discriminator 1
 1588 005e 0E23     		movs	r3, #14
 1589 0060 FB18     		adds	r3, r7, r3
 1590 0062 1B88     		ldrh	r3, [r3]
 1591 0064 032B     		cmp	r3, #3
 1592 0066 D8D9     		bls	.L76
1320:..\..\..\..\..\..\Software\uCOS-II\Source/os_core.c **** #if OS_EVENT_NAME_EN > 0u
1321:..\..\..\..\..\..\Software\uCOS-II\Source/os_core.c ****         pevent1->OSEventName    = (INT8U *)(void *)"?";     /* Unknown name                        
1322:..\..\..\..\..\..\Software\uCOS-II\Source/os_core.c **** #endif
1323:..\..\..\..\..\..\Software\uCOS-II\Source/os_core.c ****     }
1324:..\..\..\..\..\..\Software\uCOS-II\Source/os_core.c ****     pevent1                         = &OSEventTbl[ix];
 1593              		.loc 1 1324 0 is_stmt 1
 1594 0068 0E23     		movs	r3, #14
 1595 006a FB18     		adds	r3, r7, r3
 1596 006c 1B88     		ldrh	r3, [r3]
 1597 006e 1A01     		lsls	r2, r3, #4
 1598 0070 074B     		ldr	r3, .L77
 1599 0072 D318     		adds	r3, r2, r3
 1600 0074 BB60     		str	r3, [r7, #8]
1325:..\..\..\..\..\..\Software\uCOS-II\Source/os_core.c ****     pevent1->OSEventType            = OS_EVENT_TYPE_UNUSED;
 1601              		.loc 1 1325 0
 1602 0076 BB68     		ldr	r3, [r7, #8]
 1603 0078 0022     		movs	r2, #0
 1604 007a 1A70     		strb	r2, [r3]
1326:..\..\..\..\..\..\Software\uCOS-II\Source/os_core.c ****     pevent1->OSEventPtr             = (OS_EVENT *)0;
 1605              		.loc 1 1326 0
 1606 007c BB68     		ldr	r3, [r7, #8]
 1607 007e 0022     		movs	r2, #0
 1608 0080 5A60     		str	r2, [r3, #4]
1327:..\..\..\..\..\..\Software\uCOS-II\Source/os_core.c **** #if OS_EVENT_NAME_EN > 0u
1328:..\..\..\..\..\..\Software\uCOS-II\Source/os_core.c ****     pevent1->OSEventName            = (INT8U *)(void *)"?"; /* Unknown name                        
1329:..\..\..\..\..\..\Software\uCOS-II\Source/os_core.c **** #endif
1330:..\..\..\..\..\..\Software\uCOS-II\Source/os_core.c ****     OSEventFreeList                 = &OSEventTbl[0];
 1609              		.loc 1 1330 0
 1610 0082 044B     		ldr	r3, .L77+4
 1611 0084 024A     		ldr	r2, .L77
 1612 0086 1A60     		str	r2, [r3]
1331:..\..\..\..\..\..\Software\uCOS-II\Source/os_core.c **** #else
1332:..\..\..\..\..\..\Software\uCOS-II\Source/os_core.c ****     OSEventFreeList                 = &OSEventTbl[0];       /* Only have ONE event control block   
1333:..\..\..\..\..\..\Software\uCOS-II\Source/os_core.c ****     OSEventFreeList->OSEventType    = OS_EVENT_TYPE_UNUSED;
1334:..\..\..\..\..\..\Software\uCOS-II\Source/os_core.c ****     OSEventFreeList->OSEventPtr     = (OS_EVENT *)0;
1335:..\..\..\..\..\..\Software\uCOS-II\Source/os_core.c **** #if OS_EVENT_NAME_EN > 0u
1336:..\..\..\..\..\..\Software\uCOS-II\Source/os_core.c ****     OSEventFreeList->OSEventName    = (INT8U *)"?";         /* Unknown name                        
1337:..\..\..\..\..\..\Software\uCOS-II\Source/os_core.c **** #endif
1338:..\..\..\..\..\..\Software\uCOS-II\Source/os_core.c **** #endif
1339:..\..\..\..\..\..\Software\uCOS-II\Source/os_core.c **** #endif
1340:..\..\..\..\..\..\Software\uCOS-II\Source/os_core.c **** }
 1613              		.loc 1 1340 0
 1614 0088 C046     		nop
 1615 008a BD46     		mov	sp, r7
ARM GAS  C:\Users\EDULU~1.DES\AppData\Local\Temp\ccKclfbr.s 			page 53


 1616 008c 04B0     		add	sp, sp, #16
 1617              		@ sp needed
 1618 008e 80BD     		pop	{r7, pc}
 1619              	.L78:
 1620              		.align	2
 1621              	.L77:
 1622 0090 00000000 		.word	OSEventTbl
 1623 0094 00000000 		.word	OSEventFreeList
 1624              		.cfi_endproc
 1625              	.LFE14:
 1626              		.size	OS_InitEventList, .-OS_InitEventList
 1627              		.section	.text.OS_InitMisc,"ax",%progbits
 1628              		.align	2
 1629              		.code	16
 1630              		.thumb_func
 1631              		.type	OS_InitMisc, %function
 1632              	OS_InitMisc:
 1633              	.LFB15:
1341:..\..\..\..\..\..\Software\uCOS-II\Source/os_core.c **** /*$PAGE*/
1342:..\..\..\..\..\..\Software\uCOS-II\Source/os_core.c **** /*
1343:..\..\..\..\..\..\Software\uCOS-II\Source/os_core.c **** ***************************************************************************************************
1344:..\..\..\..\..\..\Software\uCOS-II\Source/os_core.c **** *                                             INITIALIZATION
1345:..\..\..\..\..\..\Software\uCOS-II\Source/os_core.c **** *                                    INITIALIZE MISCELLANEOUS VARIABLES
1346:..\..\..\..\..\..\Software\uCOS-II\Source/os_core.c **** *
1347:..\..\..\..\..\..\Software\uCOS-II\Source/os_core.c **** * Description: This function is called by OSInit() to initialize miscellaneous variables.
1348:..\..\..\..\..\..\Software\uCOS-II\Source/os_core.c **** *
1349:..\..\..\..\..\..\Software\uCOS-II\Source/os_core.c **** * Arguments  : none
1350:..\..\..\..\..\..\Software\uCOS-II\Source/os_core.c **** *
1351:..\..\..\..\..\..\Software\uCOS-II\Source/os_core.c **** * Returns    : none
1352:..\..\..\..\..\..\Software\uCOS-II\Source/os_core.c **** ***************************************************************************************************
1353:..\..\..\..\..\..\Software\uCOS-II\Source/os_core.c **** */
1354:..\..\..\..\..\..\Software\uCOS-II\Source/os_core.c **** 
1355:..\..\..\..\..\..\Software\uCOS-II\Source/os_core.c **** static  void  OS_InitMisc (void)
1356:..\..\..\..\..\..\Software\uCOS-II\Source/os_core.c **** {
 1634              		.loc 1 1356 0
 1635              		.cfi_startproc
 1636              		@ args = 0, pretend = 0, frame = 0
 1637              		@ frame_needed = 1, uses_anonymous_args = 0
 1638 0000 80B5     		push	{r7, lr}
 1639              		.cfi_def_cfa_offset 8
 1640              		.cfi_offset 7, -8
 1641              		.cfi_offset 14, -4
 1642 0002 00AF     		add	r7, sp, #0
 1643              		.cfi_def_cfa_register 7
1357:..\..\..\..\..\..\Software\uCOS-II\Source/os_core.c **** #if OS_TIME_GET_SET_EN > 0u
1358:..\..\..\..\..\..\Software\uCOS-II\Source/os_core.c ****     OSTime                    = 0uL;                       /* Clear the 32-bit system clock        
 1644              		.loc 1 1358 0
 1645 0004 114B     		ldr	r3, .L80
 1646 0006 0022     		movs	r2, #0
 1647 0008 1A60     		str	r2, [r3]
1359:..\..\..\..\..\..\Software\uCOS-II\Source/os_core.c **** #endif
1360:..\..\..\..\..\..\Software\uCOS-II\Source/os_core.c **** 
1361:..\..\..\..\..\..\Software\uCOS-II\Source/os_core.c ****     OSIntNesting              = 0u;                        /* Clear the interrupt nesting counter  
 1648              		.loc 1 1361 0
 1649 000a 114B     		ldr	r3, .L80+4
 1650 000c 0022     		movs	r2, #0
 1651 000e 1A70     		strb	r2, [r3]
ARM GAS  C:\Users\EDULU~1.DES\AppData\Local\Temp\ccKclfbr.s 			page 54


1362:..\..\..\..\..\..\Software\uCOS-II\Source/os_core.c ****     OSLockNesting             = 0u;                        /* Clear the scheduling lock counter    
 1652              		.loc 1 1362 0
 1653 0010 104B     		ldr	r3, .L80+8
 1654 0012 0022     		movs	r2, #0
 1655 0014 1A70     		strb	r2, [r3]
1363:..\..\..\..\..\..\Software\uCOS-II\Source/os_core.c **** 
1364:..\..\..\..\..\..\Software\uCOS-II\Source/os_core.c ****     OSTaskCtr                 = 0u;                        /* Clear the number of tasks            
 1656              		.loc 1 1364 0
 1657 0016 104B     		ldr	r3, .L80+12
 1658 0018 0022     		movs	r2, #0
 1659 001a 1A70     		strb	r2, [r3]
1365:..\..\..\..\..\..\Software\uCOS-II\Source/os_core.c **** 
1366:..\..\..\..\..\..\Software\uCOS-II\Source/os_core.c ****     OSRunning                 = OS_FALSE;                  /* Indicate that multitasking not starte
 1660              		.loc 1 1366 0
 1661 001c 0F4B     		ldr	r3, .L80+16
 1662 001e 0022     		movs	r2, #0
 1663 0020 1A70     		strb	r2, [r3]
1367:..\..\..\..\..\..\Software\uCOS-II\Source/os_core.c **** 
1368:..\..\..\..\..\..\Software\uCOS-II\Source/os_core.c ****     OSCtxSwCtr                = 0u;                        /* Clear the context switch counter     
 1664              		.loc 1 1368 0
 1665 0022 0F4B     		ldr	r3, .L80+20
 1666 0024 0022     		movs	r2, #0
 1667 0026 1A60     		str	r2, [r3]
1369:..\..\..\..\..\..\Software\uCOS-II\Source/os_core.c ****     OSIdleCtr                 = 0uL;                       /* Clear the 32-bit idle counter        
 1668              		.loc 1 1369 0
 1669 0028 0E4B     		ldr	r3, .L80+24
 1670 002a 0022     		movs	r2, #0
 1671 002c 1A60     		str	r2, [r3]
1370:..\..\..\..\..\..\Software\uCOS-II\Source/os_core.c **** 
1371:..\..\..\..\..\..\Software\uCOS-II\Source/os_core.c **** #if OS_TASK_STAT_EN > 0u
1372:..\..\..\..\..\..\Software\uCOS-II\Source/os_core.c ****     OSIdleCtrRun              = 0uL;
 1672              		.loc 1 1372 0
 1673 002e 0E4B     		ldr	r3, .L80+28
 1674 0030 0022     		movs	r2, #0
 1675 0032 1A60     		str	r2, [r3]
1373:..\..\..\..\..\..\Software\uCOS-II\Source/os_core.c ****     OSIdleCtrMax              = 0uL;
 1676              		.loc 1 1373 0
 1677 0034 0D4B     		ldr	r3, .L80+32
 1678 0036 0022     		movs	r2, #0
 1679 0038 1A60     		str	r2, [r3]
1374:..\..\..\..\..\..\Software\uCOS-II\Source/os_core.c ****     OSStatRdy                 = OS_FALSE;                  /* Statistic task is not ready          
 1680              		.loc 1 1374 0
 1681 003a 0D4B     		ldr	r3, .L80+36
 1682 003c 0022     		movs	r2, #0
 1683 003e 1A70     		strb	r2, [r3]
1375:..\..\..\..\..\..\Software\uCOS-II\Source/os_core.c **** #endif
1376:..\..\..\..\..\..\Software\uCOS-II\Source/os_core.c **** 
1377:..\..\..\..\..\..\Software\uCOS-II\Source/os_core.c **** #ifdef OS_SAFETY_CRITICAL_IEC61508
1378:..\..\..\..\..\..\Software\uCOS-II\Source/os_core.c ****     OSSafetyCriticalStartFlag = OS_FALSE;                  /* Still allow creation of objects      
1379:..\..\..\..\..\..\Software\uCOS-II\Source/os_core.c **** #endif
1380:..\..\..\..\..\..\Software\uCOS-II\Source/os_core.c **** 
1381:..\..\..\..\..\..\Software\uCOS-II\Source/os_core.c **** #if OS_TASK_REG_TBL_SIZE > 0u
1382:..\..\..\..\..\..\Software\uCOS-II\Source/os_core.c ****     OSTaskRegNextAvailID      = 0u;                        /* Initialize the task register ID      
 1684              		.loc 1 1382 0
 1685 0040 0C4B     		ldr	r3, .L80+40
 1686 0042 0022     		movs	r2, #0
 1687 0044 1A70     		strb	r2, [r3]
ARM GAS  C:\Users\EDULU~1.DES\AppData\Local\Temp\ccKclfbr.s 			page 55


1383:..\..\..\..\..\..\Software\uCOS-II\Source/os_core.c **** #endif
1384:..\..\..\..\..\..\Software\uCOS-II\Source/os_core.c **** }
 1688              		.loc 1 1384 0
 1689 0046 C046     		nop
 1690 0048 BD46     		mov	sp, r7
 1691              		@ sp needed
 1692 004a 80BD     		pop	{r7, pc}
 1693              	.L81:
 1694              		.align	2
 1695              	.L80:
 1696 004c 00000000 		.word	OSTime
 1697 0050 00000000 		.word	OSIntNesting
 1698 0054 00000000 		.word	OSLockNesting
 1699 0058 00000000 		.word	OSTaskCtr
 1700 005c 00000000 		.word	OSRunning
 1701 0060 00000000 		.word	OSCtxSwCtr
 1702 0064 00000000 		.word	OSIdleCtr
 1703 0068 00000000 		.word	OSIdleCtrRun
 1704 006c 00000000 		.word	OSIdleCtrMax
 1705 0070 00000000 		.word	OSStatRdy
 1706 0074 00000000 		.word	OSTaskRegNextAvailID
 1707              		.cfi_endproc
 1708              	.LFE15:
 1709              		.size	OS_InitMisc, .-OS_InitMisc
 1710              		.section	.text.OS_InitRdyList,"ax",%progbits
 1711              		.align	2
 1712              		.code	16
 1713              		.thumb_func
 1714              		.type	OS_InitRdyList, %function
 1715              	OS_InitRdyList:
 1716              	.LFB16:
1385:..\..\..\..\..\..\Software\uCOS-II\Source/os_core.c **** /*$PAGE*/
1386:..\..\..\..\..\..\Software\uCOS-II\Source/os_core.c **** /*
1387:..\..\..\..\..\..\Software\uCOS-II\Source/os_core.c **** ***************************************************************************************************
1388:..\..\..\..\..\..\Software\uCOS-II\Source/os_core.c **** *                                             INITIALIZATION
1389:..\..\..\..\..\..\Software\uCOS-II\Source/os_core.c **** *                                       INITIALIZE THE READY LIST
1390:..\..\..\..\..\..\Software\uCOS-II\Source/os_core.c **** *
1391:..\..\..\..\..\..\Software\uCOS-II\Source/os_core.c **** * Description: This function is called by OSInit() to initialize the Ready List.
1392:..\..\..\..\..\..\Software\uCOS-II\Source/os_core.c **** *
1393:..\..\..\..\..\..\Software\uCOS-II\Source/os_core.c **** * Arguments  : none
1394:..\..\..\..\..\..\Software\uCOS-II\Source/os_core.c **** *
1395:..\..\..\..\..\..\Software\uCOS-II\Source/os_core.c **** * Returns    : none
1396:..\..\..\..\..\..\Software\uCOS-II\Source/os_core.c **** ***************************************************************************************************
1397:..\..\..\..\..\..\Software\uCOS-II\Source/os_core.c **** */
1398:..\..\..\..\..\..\Software\uCOS-II\Source/os_core.c **** 
1399:..\..\..\..\..\..\Software\uCOS-II\Source/os_core.c **** static  void  OS_InitRdyList (void)
1400:..\..\..\..\..\..\Software\uCOS-II\Source/os_core.c **** {
 1717              		.loc 1 1400 0
 1718              		.cfi_startproc
 1719              		@ args = 0, pretend = 0, frame = 8
 1720              		@ frame_needed = 1, uses_anonymous_args = 0
 1721 0000 80B5     		push	{r7, lr}
 1722              		.cfi_def_cfa_offset 8
 1723              		.cfi_offset 7, -8
 1724              		.cfi_offset 14, -4
 1725 0002 82B0     		sub	sp, sp, #8
 1726              		.cfi_def_cfa_offset 16
ARM GAS  C:\Users\EDULU~1.DES\AppData\Local\Temp\ccKclfbr.s 			page 56


 1727 0004 00AF     		add	r7, sp, #0
 1728              		.cfi_def_cfa_register 7
1401:..\..\..\..\..\..\Software\uCOS-II\Source/os_core.c ****     INT8U  i;
1402:..\..\..\..\..\..\Software\uCOS-II\Source/os_core.c **** 
1403:..\..\..\..\..\..\Software\uCOS-II\Source/os_core.c **** 
1404:..\..\..\..\..\..\Software\uCOS-II\Source/os_core.c ****     OSRdyGrp      = 0u;                                    /* Clear the ready list                 
 1729              		.loc 1 1404 0
 1730 0006 124B     		ldr	r3, .L85
 1731 0008 0022     		movs	r2, #0
 1732 000a 1A70     		strb	r2, [r3]
1405:..\..\..\..\..\..\Software\uCOS-II\Source/os_core.c ****     for (i = 0u; i < OS_RDY_TBL_SIZE; i++) {
 1733              		.loc 1 1405 0
 1734 000c FB1D     		adds	r3, r7, #7
 1735 000e 0022     		movs	r2, #0
 1736 0010 1A70     		strb	r2, [r3]
 1737 0012 09E0     		b	.L83
 1738              	.L84:
1406:..\..\..\..\..\..\Software\uCOS-II\Source/os_core.c ****         OSRdyTbl[i] = 0u;
 1739              		.loc 1 1406 0 discriminator 3
 1740 0014 FB1D     		adds	r3, r7, #7
 1741 0016 1B78     		ldrb	r3, [r3]
 1742 0018 0E4A     		ldr	r2, .L85+4
 1743 001a 0021     		movs	r1, #0
 1744 001c D154     		strb	r1, [r2, r3]
1405:..\..\..\..\..\..\Software\uCOS-II\Source/os_core.c ****     for (i = 0u; i < OS_RDY_TBL_SIZE; i++) {
 1745              		.loc 1 1405 0 discriminator 3
 1746 001e FB1D     		adds	r3, r7, #7
 1747 0020 1A78     		ldrb	r2, [r3]
 1748 0022 FB1D     		adds	r3, r7, #7
 1749 0024 0132     		adds	r2, r2, #1
 1750 0026 1A70     		strb	r2, [r3]
 1751              	.L83:
1405:..\..\..\..\..\..\Software\uCOS-II\Source/os_core.c ****     for (i = 0u; i < OS_RDY_TBL_SIZE; i++) {
 1752              		.loc 1 1405 0 is_stmt 0 discriminator 1
 1753 0028 FB1D     		adds	r3, r7, #7
 1754 002a 1B78     		ldrb	r3, [r3]
 1755 002c 032B     		cmp	r3, #3
 1756 002e F1D9     		bls	.L84
1407:..\..\..\..\..\..\Software\uCOS-II\Source/os_core.c ****     }
1408:..\..\..\..\..\..\Software\uCOS-II\Source/os_core.c **** 
1409:..\..\..\..\..\..\Software\uCOS-II\Source/os_core.c ****     OSPrioCur     = 0u;
 1757              		.loc 1 1409 0 is_stmt 1
 1758 0030 094B     		ldr	r3, .L85+8
 1759 0032 0022     		movs	r2, #0
 1760 0034 1A70     		strb	r2, [r3]
1410:..\..\..\..\..\..\Software\uCOS-II\Source/os_core.c ****     OSPrioHighRdy = 0u;
 1761              		.loc 1 1410 0
 1762 0036 094B     		ldr	r3, .L85+12
 1763 0038 0022     		movs	r2, #0
 1764 003a 1A70     		strb	r2, [r3]
1411:..\..\..\..\..\..\Software\uCOS-II\Source/os_core.c **** 
1412:..\..\..\..\..\..\Software\uCOS-II\Source/os_core.c ****     OSTCBHighRdy  = (OS_TCB *)0;
 1765              		.loc 1 1412 0
 1766 003c 084B     		ldr	r3, .L85+16
 1767 003e 0022     		movs	r2, #0
 1768 0040 1A60     		str	r2, [r3]
1413:..\..\..\..\..\..\Software\uCOS-II\Source/os_core.c ****     OSTCBCur      = (OS_TCB *)0;
ARM GAS  C:\Users\EDULU~1.DES\AppData\Local\Temp\ccKclfbr.s 			page 57


 1769              		.loc 1 1413 0
 1770 0042 084B     		ldr	r3, .L85+20
 1771 0044 0022     		movs	r2, #0
 1772 0046 1A60     		str	r2, [r3]
1414:..\..\..\..\..\..\Software\uCOS-II\Source/os_core.c **** }
 1773              		.loc 1 1414 0
 1774 0048 C046     		nop
 1775 004a BD46     		mov	sp, r7
 1776 004c 02B0     		add	sp, sp, #8
 1777              		@ sp needed
 1778 004e 80BD     		pop	{r7, pc}
 1779              	.L86:
 1780              		.align	2
 1781              	.L85:
 1782 0050 00000000 		.word	OSRdyGrp
 1783 0054 00000000 		.word	OSRdyTbl
 1784 0058 00000000 		.word	OSPrioCur
 1785 005c 00000000 		.word	OSPrioHighRdy
 1786 0060 00000000 		.word	OSTCBHighRdy
 1787 0064 00000000 		.word	OSTCBCur
 1788              		.cfi_endproc
 1789              	.LFE16:
 1790              		.size	OS_InitRdyList, .-OS_InitRdyList
 1791              		.section	.text.OS_InitTaskIdle,"ax",%progbits
 1792              		.align	2
 1793              		.code	16
 1794              		.thumb_func
 1795              		.type	OS_InitTaskIdle, %function
 1796              	OS_InitTaskIdle:
 1797              	.LFB17:
1415:..\..\..\..\..\..\Software\uCOS-II\Source/os_core.c **** 
1416:..\..\..\..\..\..\Software\uCOS-II\Source/os_core.c **** /*$PAGE*/
1417:..\..\..\..\..\..\Software\uCOS-II\Source/os_core.c **** /*
1418:..\..\..\..\..\..\Software\uCOS-II\Source/os_core.c **** ***************************************************************************************************
1419:..\..\..\..\..\..\Software\uCOS-II\Source/os_core.c **** *                                             INITIALIZATION
1420:..\..\..\..\..\..\Software\uCOS-II\Source/os_core.c **** *                                         CREATING THE IDLE TASK
1421:..\..\..\..\..\..\Software\uCOS-II\Source/os_core.c **** *
1422:..\..\..\..\..\..\Software\uCOS-II\Source/os_core.c **** * Description: This function creates the Idle Task.
1423:..\..\..\..\..\..\Software\uCOS-II\Source/os_core.c **** *
1424:..\..\..\..\..\..\Software\uCOS-II\Source/os_core.c **** * Arguments  : none
1425:..\..\..\..\..\..\Software\uCOS-II\Source/os_core.c **** *
1426:..\..\..\..\..\..\Software\uCOS-II\Source/os_core.c **** * Returns    : none
1427:..\..\..\..\..\..\Software\uCOS-II\Source/os_core.c **** ***************************************************************************************************
1428:..\..\..\..\..\..\Software\uCOS-II\Source/os_core.c **** */
1429:..\..\..\..\..\..\Software\uCOS-II\Source/os_core.c **** 
1430:..\..\..\..\..\..\Software\uCOS-II\Source/os_core.c **** static  void  OS_InitTaskIdle (void)
1431:..\..\..\..\..\..\Software\uCOS-II\Source/os_core.c **** {
 1798              		.loc 1 1431 0
 1799              		.cfi_startproc
 1800              		@ args = 0, pretend = 0, frame = 0
 1801              		@ frame_needed = 1, uses_anonymous_args = 0
 1802 0000 80B5     		push	{r7, lr}
 1803              		.cfi_def_cfa_offset 8
 1804              		.cfi_offset 7, -8
 1805              		.cfi_offset 14, -4
 1806 0002 86B0     		sub	sp, sp, #24
 1807              		.cfi_def_cfa_offset 32
ARM GAS  C:\Users\EDULU~1.DES\AppData\Local\Temp\ccKclfbr.s 			page 58


 1808 0004 06AF     		add	r7, sp, #24
 1809              		.cfi_def_cfa 7, 8
1432:..\..\..\..\..\..\Software\uCOS-II\Source/os_core.c **** #if OS_TASK_NAME_EN > 0u
1433:..\..\..\..\..\..\Software\uCOS-II\Source/os_core.c ****     INT8U  err;
1434:..\..\..\..\..\..\Software\uCOS-II\Source/os_core.c **** #endif
1435:..\..\..\..\..\..\Software\uCOS-II\Source/os_core.c **** 
1436:..\..\..\..\..\..\Software\uCOS-II\Source/os_core.c **** 
1437:..\..\..\..\..\..\Software\uCOS-II\Source/os_core.c **** #if OS_TASK_CREATE_EXT_EN > 0u
1438:..\..\..\..\..\..\Software\uCOS-II\Source/os_core.c ****     #if OS_STK_GROWTH == 1u
1439:..\..\..\..\..\..\Software\uCOS-II\Source/os_core.c ****     (void)OSTaskCreateExt(OS_TaskIdle,
 1810              		.loc 1 1439 0
 1811 0006 094A     		ldr	r2, .L88
 1812 0008 0948     		ldr	r0, .L88+4
 1813 000a 0323     		movs	r3, #3
 1814 000c 0493     		str	r3, [sp, #16]
 1815 000e 0023     		movs	r3, #0
 1816 0010 0393     		str	r3, [sp, #12]
 1817 0012 8023     		movs	r3, #128
 1818 0014 0293     		str	r3, [sp, #8]
 1819 0016 074B     		ldr	r3, .L88+8
 1820 0018 0193     		str	r3, [sp, #4]
 1821 001a 074B     		ldr	r3, .L88+12
 1822 001c 0093     		str	r3, [sp]
 1823 001e 1F23     		movs	r3, #31
 1824 0020 0021     		movs	r1, #0
 1825 0022 FFF7FEFF 		bl	OSTaskCreateExt
1440:..\..\..\..\..\..\Software\uCOS-II\Source/os_core.c ****                           (void *)0,                                 /* No arguments passed to OS_T
1441:..\..\..\..\..\..\Software\uCOS-II\Source/os_core.c ****                           &OSTaskIdleStk[OS_TASK_IDLE_STK_SIZE - 1u],/* Set Top-Of-Stack           
1442:..\..\..\..\..\..\Software\uCOS-II\Source/os_core.c ****                           OS_TASK_IDLE_PRIO,                         /* Lowest priority level      
1443:..\..\..\..\..\..\Software\uCOS-II\Source/os_core.c ****                           OS_TASK_IDLE_ID,
1444:..\..\..\..\..\..\Software\uCOS-II\Source/os_core.c ****                           &OSTaskIdleStk[0],                         /* Set Bottom-Of-Stack        
1445:..\..\..\..\..\..\Software\uCOS-II\Source/os_core.c ****                           OS_TASK_IDLE_STK_SIZE,
1446:..\..\..\..\..\..\Software\uCOS-II\Source/os_core.c ****                           (void *)0,                                 /* No TCB extension           
1447:..\..\..\..\..\..\Software\uCOS-II\Source/os_core.c ****                           OS_TASK_OPT_STK_CHK | OS_TASK_OPT_STK_CLR);/* Enable stack checking + cle
1448:..\..\..\..\..\..\Software\uCOS-II\Source/os_core.c ****     #else
1449:..\..\..\..\..\..\Software\uCOS-II\Source/os_core.c ****     (void)OSTaskCreateExt(OS_TaskIdle,
1450:..\..\..\..\..\..\Software\uCOS-II\Source/os_core.c ****                           (void *)0,                                 /* No arguments passed to OS_T
1451:..\..\..\..\..\..\Software\uCOS-II\Source/os_core.c ****                           &OSTaskIdleStk[0],                         /* Set Top-Of-Stack           
1452:..\..\..\..\..\..\Software\uCOS-II\Source/os_core.c ****                           OS_TASK_IDLE_PRIO,                         /* Lowest priority level      
1453:..\..\..\..\..\..\Software\uCOS-II\Source/os_core.c ****                           OS_TASK_IDLE_ID,
1454:..\..\..\..\..\..\Software\uCOS-II\Source/os_core.c ****                           &OSTaskIdleStk[OS_TASK_IDLE_STK_SIZE - 1u],/* Set Bottom-Of-Stack        
1455:..\..\..\..\..\..\Software\uCOS-II\Source/os_core.c ****                           OS_TASK_IDLE_STK_SIZE,
1456:..\..\..\..\..\..\Software\uCOS-II\Source/os_core.c ****                           (void *)0,                                 /* No TCB extension           
1457:..\..\..\..\..\..\Software\uCOS-II\Source/os_core.c ****                           OS_TASK_OPT_STK_CHK | OS_TASK_OPT_STK_CLR);/* Enable stack checking + cle
1458:..\..\..\..\..\..\Software\uCOS-II\Source/os_core.c ****     #endif
1459:..\..\..\..\..\..\Software\uCOS-II\Source/os_core.c **** #else
1460:..\..\..\..\..\..\Software\uCOS-II\Source/os_core.c ****     #if OS_STK_GROWTH == 1u
1461:..\..\..\..\..\..\Software\uCOS-II\Source/os_core.c ****     (void)OSTaskCreate(OS_TaskIdle,
1462:..\..\..\..\..\..\Software\uCOS-II\Source/os_core.c ****                        (void *)0,
1463:..\..\..\..\..\..\Software\uCOS-II\Source/os_core.c ****                        &OSTaskIdleStk[OS_TASK_IDLE_STK_SIZE - 1u],
1464:..\..\..\..\..\..\Software\uCOS-II\Source/os_core.c ****                        OS_TASK_IDLE_PRIO);
1465:..\..\..\..\..\..\Software\uCOS-II\Source/os_core.c ****     #else
1466:..\..\..\..\..\..\Software\uCOS-II\Source/os_core.c ****     (void)OSTaskCreate(OS_TaskIdle,
1467:..\..\..\..\..\..\Software\uCOS-II\Source/os_core.c ****                        (void *)0,
1468:..\..\..\..\..\..\Software\uCOS-II\Source/os_core.c ****                        &OSTaskIdleStk[0],
1469:..\..\..\..\..\..\Software\uCOS-II\Source/os_core.c ****                        OS_TASK_IDLE_PRIO);
1470:..\..\..\..\..\..\Software\uCOS-II\Source/os_core.c ****     #endif
ARM GAS  C:\Users\EDULU~1.DES\AppData\Local\Temp\ccKclfbr.s 			page 59


1471:..\..\..\..\..\..\Software\uCOS-II\Source/os_core.c **** #endif
1472:..\..\..\..\..\..\Software\uCOS-II\Source/os_core.c **** 
1473:..\..\..\..\..\..\Software\uCOS-II\Source/os_core.c **** #if OS_TASK_NAME_EN > 0u
1474:..\..\..\..\..\..\Software\uCOS-II\Source/os_core.c ****     OSTaskNameSet(OS_TASK_IDLE_PRIO, (INT8U *)(void *)"uC/OS-II Idle", &err);
1475:..\..\..\..\..\..\Software\uCOS-II\Source/os_core.c **** #endif
1476:..\..\..\..\..\..\Software\uCOS-II\Source/os_core.c **** }
 1826              		.loc 1 1476 0
 1827 0026 C046     		nop
 1828 0028 BD46     		mov	sp, r7
 1829              		@ sp needed
 1830 002a 80BD     		pop	{r7, pc}
 1831              	.L89:
 1832              		.align	2
 1833              	.L88:
 1834 002c FC010000 		.word	OSTaskIdleStk+508
 1835 0030 00000000 		.word	OS_TaskIdle
 1836 0034 00000000 		.word	OSTaskIdleStk
 1837 0038 FFFF0000 		.word	65535
 1838              		.cfi_endproc
 1839              	.LFE17:
 1840              		.size	OS_InitTaskIdle, .-OS_InitTaskIdle
 1841              		.section	.text.OS_InitTaskStat,"ax",%progbits
 1842              		.align	2
 1843              		.code	16
 1844              		.thumb_func
 1845              		.type	OS_InitTaskStat, %function
 1846              	OS_InitTaskStat:
 1847              	.LFB18:
1477:..\..\..\..\..\..\Software\uCOS-II\Source/os_core.c **** /*$PAGE*/
1478:..\..\..\..\..\..\Software\uCOS-II\Source/os_core.c **** /*
1479:..\..\..\..\..\..\Software\uCOS-II\Source/os_core.c **** ***************************************************************************************************
1480:..\..\..\..\..\..\Software\uCOS-II\Source/os_core.c **** *                                             INITIALIZATION
1481:..\..\..\..\..\..\Software\uCOS-II\Source/os_core.c **** *                                      CREATING THE STATISTIC TASK
1482:..\..\..\..\..\..\Software\uCOS-II\Source/os_core.c **** *
1483:..\..\..\..\..\..\Software\uCOS-II\Source/os_core.c **** * Description: This function creates the Statistic Task.
1484:..\..\..\..\..\..\Software\uCOS-II\Source/os_core.c **** *
1485:..\..\..\..\..\..\Software\uCOS-II\Source/os_core.c **** * Arguments  : none
1486:..\..\..\..\..\..\Software\uCOS-II\Source/os_core.c **** *
1487:..\..\..\..\..\..\Software\uCOS-II\Source/os_core.c **** * Returns    : none
1488:..\..\..\..\..\..\Software\uCOS-II\Source/os_core.c **** ***************************************************************************************************
1489:..\..\..\..\..\..\Software\uCOS-II\Source/os_core.c **** */
1490:..\..\..\..\..\..\Software\uCOS-II\Source/os_core.c **** 
1491:..\..\..\..\..\..\Software\uCOS-II\Source/os_core.c **** #if OS_TASK_STAT_EN > 0u
1492:..\..\..\..\..\..\Software\uCOS-II\Source/os_core.c **** static  void  OS_InitTaskStat (void)
1493:..\..\..\..\..\..\Software\uCOS-II\Source/os_core.c **** {
 1848              		.loc 1 1493 0
 1849              		.cfi_startproc
 1850              		@ args = 0, pretend = 0, frame = 0
 1851              		@ frame_needed = 1, uses_anonymous_args = 0
 1852 0000 80B5     		push	{r7, lr}
 1853              		.cfi_def_cfa_offset 8
 1854              		.cfi_offset 7, -8
 1855              		.cfi_offset 14, -4
 1856 0002 86B0     		sub	sp, sp, #24
 1857              		.cfi_def_cfa_offset 32
 1858 0004 06AF     		add	r7, sp, #24
 1859              		.cfi_def_cfa 7, 8
ARM GAS  C:\Users\EDULU~1.DES\AppData\Local\Temp\ccKclfbr.s 			page 60


1494:..\..\..\..\..\..\Software\uCOS-II\Source/os_core.c **** #if OS_TASK_NAME_EN > 0u
1495:..\..\..\..\..\..\Software\uCOS-II\Source/os_core.c ****     INT8U  err;
1496:..\..\..\..\..\..\Software\uCOS-II\Source/os_core.c **** #endif
1497:..\..\..\..\..\..\Software\uCOS-II\Source/os_core.c **** 
1498:..\..\..\..\..\..\Software\uCOS-II\Source/os_core.c **** 
1499:..\..\..\..\..\..\Software\uCOS-II\Source/os_core.c **** #if OS_TASK_CREATE_EXT_EN > 0u
1500:..\..\..\..\..\..\Software\uCOS-II\Source/os_core.c ****     #if OS_STK_GROWTH == 1u
1501:..\..\..\..\..\..\Software\uCOS-II\Source/os_core.c ****     (void)OSTaskCreateExt(OS_TaskStat,
 1860              		.loc 1 1501 0
 1861 0006 094A     		ldr	r2, .L91
 1862 0008 0948     		ldr	r0, .L91+4
 1863 000a 0323     		movs	r3, #3
 1864 000c 0493     		str	r3, [sp, #16]
 1865 000e 0023     		movs	r3, #0
 1866 0010 0393     		str	r3, [sp, #12]
 1867 0012 8023     		movs	r3, #128
 1868 0014 0293     		str	r3, [sp, #8]
 1869 0016 074B     		ldr	r3, .L91+8
 1870 0018 0193     		str	r3, [sp, #4]
 1871 001a 074B     		ldr	r3, .L91+12
 1872 001c 0093     		str	r3, [sp]
 1873 001e 1E23     		movs	r3, #30
 1874 0020 0021     		movs	r1, #0
 1875 0022 FFF7FEFF 		bl	OSTaskCreateExt
1502:..\..\..\..\..\..\Software\uCOS-II\Source/os_core.c ****                           (void *)0,                                   /* No args passed to OS_Task
1503:..\..\..\..\..\..\Software\uCOS-II\Source/os_core.c ****                           &OSTaskStatStk[OS_TASK_STAT_STK_SIZE - 1u],  /* Set Top-Of-Stack         
1504:..\..\..\..\..\..\Software\uCOS-II\Source/os_core.c ****                           OS_TASK_STAT_PRIO,                           /* One higher than the idle 
1505:..\..\..\..\..\..\Software\uCOS-II\Source/os_core.c ****                           OS_TASK_STAT_ID,
1506:..\..\..\..\..\..\Software\uCOS-II\Source/os_core.c ****                           &OSTaskStatStk[0],                           /* Set Bottom-Of-Stack      
1507:..\..\..\..\..\..\Software\uCOS-II\Source/os_core.c ****                           OS_TASK_STAT_STK_SIZE,
1508:..\..\..\..\..\..\Software\uCOS-II\Source/os_core.c ****                           (void *)0,                                   /* No TCB extension         
1509:..\..\..\..\..\..\Software\uCOS-II\Source/os_core.c ****                           OS_TASK_OPT_STK_CHK | OS_TASK_OPT_STK_CLR);  /* Enable stack checking + c
1510:..\..\..\..\..\..\Software\uCOS-II\Source/os_core.c ****     #else
1511:..\..\..\..\..\..\Software\uCOS-II\Source/os_core.c ****     (void)OSTaskCreateExt(OS_TaskStat,
1512:..\..\..\..\..\..\Software\uCOS-II\Source/os_core.c ****                           (void *)0,                                   /* No args passed to OS_Task
1513:..\..\..\..\..\..\Software\uCOS-II\Source/os_core.c ****                           &OSTaskStatStk[0],                           /* Set Top-Of-Stack         
1514:..\..\..\..\..\..\Software\uCOS-II\Source/os_core.c ****                           OS_TASK_STAT_PRIO,                           /* One higher than the idle 
1515:..\..\..\..\..\..\Software\uCOS-II\Source/os_core.c ****                           OS_TASK_STAT_ID,
1516:..\..\..\..\..\..\Software\uCOS-II\Source/os_core.c ****                           &OSTaskStatStk[OS_TASK_STAT_STK_SIZE - 1u],  /* Set Bottom-Of-Stack      
1517:..\..\..\..\..\..\Software\uCOS-II\Source/os_core.c ****                           OS_TASK_STAT_STK_SIZE,
1518:..\..\..\..\..\..\Software\uCOS-II\Source/os_core.c ****                           (void *)0,                                   /* No TCB extension         
1519:..\..\..\..\..\..\Software\uCOS-II\Source/os_core.c ****                           OS_TASK_OPT_STK_CHK | OS_TASK_OPT_STK_CLR);  /* Enable stack checking + c
1520:..\..\..\..\..\..\Software\uCOS-II\Source/os_core.c ****     #endif
1521:..\..\..\..\..\..\Software\uCOS-II\Source/os_core.c **** #else
1522:..\..\..\..\..\..\Software\uCOS-II\Source/os_core.c ****     #if OS_STK_GROWTH == 1u
1523:..\..\..\..\..\..\Software\uCOS-II\Source/os_core.c ****     (void)OSTaskCreate(OS_TaskStat,
1524:..\..\..\..\..\..\Software\uCOS-II\Source/os_core.c ****                        (void *)0,                                      /* No args passed to OS_Task
1525:..\..\..\..\..\..\Software\uCOS-II\Source/os_core.c ****                        &OSTaskStatStk[OS_TASK_STAT_STK_SIZE - 1u],     /* Set Top-Of-Stack         
1526:..\..\..\..\..\..\Software\uCOS-II\Source/os_core.c ****                        OS_TASK_STAT_PRIO);                             /* One higher than the idle 
1527:..\..\..\..\..\..\Software\uCOS-II\Source/os_core.c ****     #else
1528:..\..\..\..\..\..\Software\uCOS-II\Source/os_core.c ****     (void)OSTaskCreate(OS_TaskStat,
1529:..\..\..\..\..\..\Software\uCOS-II\Source/os_core.c ****                        (void *)0,                                      /* No args passed to OS_Task
1530:..\..\..\..\..\..\Software\uCOS-II\Source/os_core.c ****                        &OSTaskStatStk[0],                              /* Set Top-Of-Stack         
1531:..\..\..\..\..\..\Software\uCOS-II\Source/os_core.c ****                        OS_TASK_STAT_PRIO);                             /* One higher than the idle 
1532:..\..\..\..\..\..\Software\uCOS-II\Source/os_core.c ****     #endif
1533:..\..\..\..\..\..\Software\uCOS-II\Source/os_core.c **** #endif
1534:..\..\..\..\..\..\Software\uCOS-II\Source/os_core.c **** 
ARM GAS  C:\Users\EDULU~1.DES\AppData\Local\Temp\ccKclfbr.s 			page 61


1535:..\..\..\..\..\..\Software\uCOS-II\Source/os_core.c **** #if OS_TASK_NAME_EN > 0u
1536:..\..\..\..\..\..\Software\uCOS-II\Source/os_core.c ****     OSTaskNameSet(OS_TASK_STAT_PRIO, (INT8U *)(void *)"uC/OS-II Stat", &err);
1537:..\..\..\..\..\..\Software\uCOS-II\Source/os_core.c **** #endif
1538:..\..\..\..\..\..\Software\uCOS-II\Source/os_core.c **** }
 1876              		.loc 1 1538 0
 1877 0026 C046     		nop
 1878 0028 BD46     		mov	sp, r7
 1879              		@ sp needed
 1880 002a 80BD     		pop	{r7, pc}
 1881              	.L92:
 1882              		.align	2
 1883              	.L91:
 1884 002c FC010000 		.word	OSTaskStatStk+508
 1885 0030 00000000 		.word	OS_TaskStat
 1886 0034 00000000 		.word	OSTaskStatStk
 1887 0038 FEFF0000 		.word	65534
 1888              		.cfi_endproc
 1889              	.LFE18:
 1890              		.size	OS_InitTaskStat, .-OS_InitTaskStat
 1891              		.section	.text.OS_InitTCBList,"ax",%progbits
 1892              		.align	2
 1893              		.code	16
 1894              		.thumb_func
 1895              		.type	OS_InitTCBList, %function
 1896              	OS_InitTCBList:
 1897              	.LFB19:
1539:..\..\..\..\..\..\Software\uCOS-II\Source/os_core.c **** #endif
1540:..\..\..\..\..\..\Software\uCOS-II\Source/os_core.c **** /*$PAGE*/
1541:..\..\..\..\..\..\Software\uCOS-II\Source/os_core.c **** /*
1542:..\..\..\..\..\..\Software\uCOS-II\Source/os_core.c **** ***************************************************************************************************
1543:..\..\..\..\..\..\Software\uCOS-II\Source/os_core.c **** *                                             INITIALIZATION
1544:..\..\..\..\..\..\Software\uCOS-II\Source/os_core.c **** *                            INITIALIZE THE FREE LIST OF TASK CONTROL BLOCKS
1545:..\..\..\..\..\..\Software\uCOS-II\Source/os_core.c **** *
1546:..\..\..\..\..\..\Software\uCOS-II\Source/os_core.c **** * Description: This function is called by OSInit() to initialize the free list of OS_TCBs.
1547:..\..\..\..\..\..\Software\uCOS-II\Source/os_core.c **** *
1548:..\..\..\..\..\..\Software\uCOS-II\Source/os_core.c **** * Arguments  : none
1549:..\..\..\..\..\..\Software\uCOS-II\Source/os_core.c **** *
1550:..\..\..\..\..\..\Software\uCOS-II\Source/os_core.c **** * Returns    : none
1551:..\..\..\..\..\..\Software\uCOS-II\Source/os_core.c **** ***************************************************************************************************
1552:..\..\..\..\..\..\Software\uCOS-II\Source/os_core.c **** */
1553:..\..\..\..\..\..\Software\uCOS-II\Source/os_core.c **** 
1554:..\..\..\..\..\..\Software\uCOS-II\Source/os_core.c **** static  void  OS_InitTCBList (void)
1555:..\..\..\..\..\..\Software\uCOS-II\Source/os_core.c **** {
 1898              		.loc 1 1555 0
 1899              		.cfi_startproc
 1900              		@ args = 0, pretend = 0, frame = 16
 1901              		@ frame_needed = 1, uses_anonymous_args = 0
 1902 0000 80B5     		push	{r7, lr}
 1903              		.cfi_def_cfa_offset 8
 1904              		.cfi_offset 7, -8
 1905              		.cfi_offset 14, -4
 1906 0002 84B0     		sub	sp, sp, #16
 1907              		.cfi_def_cfa_offset 24
 1908 0004 00AF     		add	r7, sp, #0
 1909              		.cfi_def_cfa_register 7
1556:..\..\..\..\..\..\Software\uCOS-II\Source/os_core.c ****     INT8U    ix;
1557:..\..\..\..\..\..\Software\uCOS-II\Source/os_core.c ****     INT8U    ix_next;
ARM GAS  C:\Users\EDULU~1.DES\AppData\Local\Temp\ccKclfbr.s 			page 62


1558:..\..\..\..\..\..\Software\uCOS-II\Source/os_core.c ****     OS_TCB  *ptcb1;
1559:..\..\..\..\..\..\Software\uCOS-II\Source/os_core.c ****     OS_TCB  *ptcb2;
1560:..\..\..\..\..\..\Software\uCOS-II\Source/os_core.c **** 
1561:..\..\..\..\..\..\Software\uCOS-II\Source/os_core.c **** 
1562:..\..\..\..\..\..\Software\uCOS-II\Source/os_core.c ****     OS_MemClr((INT8U *)&OSTCBTbl[0],     sizeof(OSTCBTbl));      /* Clear all the TCBs             
 1910              		.loc 1 1562 0
 1911 0006 C023     		movs	r3, #192
 1912 0008 5A00     		lsls	r2, r3, #1
 1913 000a 284B     		ldr	r3, .L96
 1914 000c 1100     		movs	r1, r2
 1915 000e 1800     		movs	r0, r3
 1916 0010 FFF7FEFF 		bl	OS_MemClr
1563:..\..\..\..\..\..\Software\uCOS-II\Source/os_core.c ****     OS_MemClr((INT8U *)&OSTCBPrioTbl[0], sizeof(OSTCBPrioTbl));  /* Clear the priority table       
 1917              		.loc 1 1563 0
 1918 0014 264B     		ldr	r3, .L96+4
 1919 0016 8021     		movs	r1, #128
 1920 0018 1800     		movs	r0, r3
 1921 001a FFF7FEFF 		bl	OS_MemClr
1564:..\..\..\..\..\..\Software\uCOS-II\Source/os_core.c ****     for (ix = 0u; ix < (OS_MAX_TASKS + OS_N_SYS_TASKS - 1u); ix++) {    /* Init. list of free TCBs 
 1922              		.loc 1 1564 0
 1923 001e 0F23     		movs	r3, #15
 1924 0020 FB18     		adds	r3, r7, r3
 1925 0022 0022     		movs	r2, #0
 1926 0024 1A70     		strb	r2, [r3]
 1927 0026 24E0     		b	.L94
 1928              	.L95:
1565:..\..\..\..\..\..\Software\uCOS-II\Source/os_core.c ****         ix_next =  ix + 1u;
 1929              		.loc 1 1565 0 discriminator 3
 1930 0028 0E23     		movs	r3, #14
 1931 002a FB18     		adds	r3, r7, r3
 1932 002c 0F22     		movs	r2, #15
 1933 002e BA18     		adds	r2, r7, r2
 1934 0030 1278     		ldrb	r2, [r2]
 1935 0032 0132     		adds	r2, r2, #1
 1936 0034 1A70     		strb	r2, [r3]
1566:..\..\..\..\..\..\Software\uCOS-II\Source/os_core.c ****         ptcb1   = &OSTCBTbl[ix];
 1937              		.loc 1 1566 0 discriminator 3
 1938 0036 0F23     		movs	r3, #15
 1939 0038 FB18     		adds	r3, r7, r3
 1940 003a 1A78     		ldrb	r2, [r3]
 1941 003c 1300     		movs	r3, r2
 1942 003e 5B00     		lsls	r3, r3, #1
 1943 0040 9B18     		adds	r3, r3, r2
 1944 0042 1B01     		lsls	r3, r3, #4
 1945 0044 194A     		ldr	r2, .L96
 1946 0046 9B18     		adds	r3, r3, r2
 1947 0048 BB60     		str	r3, [r7, #8]
1567:..\..\..\..\..\..\Software\uCOS-II\Source/os_core.c ****         ptcb2   = &OSTCBTbl[ix_next];
 1948              		.loc 1 1567 0 discriminator 3
 1949 004a 0E23     		movs	r3, #14
 1950 004c FB18     		adds	r3, r7, r3
 1951 004e 1A78     		ldrb	r2, [r3]
 1952 0050 1300     		movs	r3, r2
 1953 0052 5B00     		lsls	r3, r3, #1
 1954 0054 9B18     		adds	r3, r3, r2
 1955 0056 1B01     		lsls	r3, r3, #4
 1956 0058 144A     		ldr	r2, .L96
ARM GAS  C:\Users\EDULU~1.DES\AppData\Local\Temp\ccKclfbr.s 			page 63


 1957 005a 9B18     		adds	r3, r3, r2
 1958 005c 7B60     		str	r3, [r7, #4]
1568:..\..\..\..\..\..\Software\uCOS-II\Source/os_core.c ****         ptcb1->OSTCBNext = ptcb2;
 1959              		.loc 1 1568 0 discriminator 3
 1960 005e BB68     		ldr	r3, [r7, #8]
 1961 0060 7A68     		ldr	r2, [r7, #4]
 1962 0062 5A61     		str	r2, [r3, #20]
1564:..\..\..\..\..\..\Software\uCOS-II\Source/os_core.c ****         ix_next =  ix + 1u;
 1963              		.loc 1 1564 0 discriminator 3
 1964 0064 0F23     		movs	r3, #15
 1965 0066 FB18     		adds	r3, r7, r3
 1966 0068 1A78     		ldrb	r2, [r3]
 1967 006a 0F23     		movs	r3, #15
 1968 006c FB18     		adds	r3, r7, r3
 1969 006e 0132     		adds	r2, r2, #1
 1970 0070 1A70     		strb	r2, [r3]
 1971              	.L94:
1564:..\..\..\..\..\..\Software\uCOS-II\Source/os_core.c ****         ix_next =  ix + 1u;
 1972              		.loc 1 1564 0 is_stmt 0 discriminator 1
 1973 0072 0F23     		movs	r3, #15
 1974 0074 FB18     		adds	r3, r7, r3
 1975 0076 1B78     		ldrb	r3, [r3]
 1976 0078 062B     		cmp	r3, #6
 1977 007a D5D9     		bls	.L95
1569:..\..\..\..\..\..\Software\uCOS-II\Source/os_core.c **** #if OS_TASK_NAME_EN > 0u
1570:..\..\..\..\..\..\Software\uCOS-II\Source/os_core.c ****         ptcb1->OSTCBTaskName = (INT8U *)(void *)"?";             /* Unknown name                   
1571:..\..\..\..\..\..\Software\uCOS-II\Source/os_core.c **** #endif
1572:..\..\..\..\..\..\Software\uCOS-II\Source/os_core.c ****     }
1573:..\..\..\..\..\..\Software\uCOS-II\Source/os_core.c ****     ptcb1                   = &OSTCBTbl[ix];
 1978              		.loc 1 1573 0 is_stmt 1
 1979 007c 0F23     		movs	r3, #15
 1980 007e FB18     		adds	r3, r7, r3
 1981 0080 1A78     		ldrb	r2, [r3]
 1982 0082 1300     		movs	r3, r2
 1983 0084 5B00     		lsls	r3, r3, #1
 1984 0086 9B18     		adds	r3, r3, r2
 1985 0088 1B01     		lsls	r3, r3, #4
 1986 008a 084A     		ldr	r2, .L96
 1987 008c 9B18     		adds	r3, r3, r2
 1988 008e BB60     		str	r3, [r7, #8]
1574:..\..\..\..\..\..\Software\uCOS-II\Source/os_core.c ****     ptcb1->OSTCBNext        = (OS_TCB *)0;                       /* Last OS_TCB                    
 1989              		.loc 1 1574 0
 1990 0090 BB68     		ldr	r3, [r7, #8]
 1991 0092 0022     		movs	r2, #0
 1992 0094 5A61     		str	r2, [r3, #20]
1575:..\..\..\..\..\..\Software\uCOS-II\Source/os_core.c **** #if OS_TASK_NAME_EN > 0u
1576:..\..\..\..\..\..\Software\uCOS-II\Source/os_core.c ****     ptcb1->OSTCBTaskName    = (INT8U *)(void *)"?";              /* Unknown name                   
1577:..\..\..\..\..\..\Software\uCOS-II\Source/os_core.c **** #endif
1578:..\..\..\..\..\..\Software\uCOS-II\Source/os_core.c ****     OSTCBList               = (OS_TCB *)0;                       /* TCB lists initializations      
 1993              		.loc 1 1578 0
 1994 0096 074B     		ldr	r3, .L96+8
 1995 0098 0022     		movs	r2, #0
 1996 009a 1A60     		str	r2, [r3]
1579:..\..\..\..\..\..\Software\uCOS-II\Source/os_core.c ****     OSTCBFreeList           = &OSTCBTbl[0];
 1997              		.loc 1 1579 0
 1998 009c 064B     		ldr	r3, .L96+12
 1999 009e 034A     		ldr	r2, .L96
ARM GAS  C:\Users\EDULU~1.DES\AppData\Local\Temp\ccKclfbr.s 			page 64


 2000 00a0 1A60     		str	r2, [r3]
1580:..\..\..\..\..\..\Software\uCOS-II\Source/os_core.c **** }
 2001              		.loc 1 1580 0
 2002 00a2 C046     		nop
 2003 00a4 BD46     		mov	sp, r7
 2004 00a6 04B0     		add	sp, sp, #16
 2005              		@ sp needed
 2006 00a8 80BD     		pop	{r7, pc}
 2007              	.L97:
 2008 00aa C046     		.align	2
 2009              	.L96:
 2010 00ac 00000000 		.word	OSTCBTbl
 2011 00b0 00000000 		.word	OSTCBPrioTbl
 2012 00b4 00000000 		.word	OSTCBList
 2013 00b8 00000000 		.word	OSTCBFreeList
 2014              		.cfi_endproc
 2015              	.LFE19:
 2016              		.size	OS_InitTCBList, .-OS_InitTCBList
 2017              		.section	.text.OS_MemClr,"ax",%progbits
 2018              		.align	2
 2019              		.global	OS_MemClr
 2020              		.code	16
 2021              		.thumb_func
 2022              		.type	OS_MemClr, %function
 2023              	OS_MemClr:
 2024              	.LFB20:
1581:..\..\..\..\..\..\Software\uCOS-II\Source/os_core.c **** /*$PAGE*/
1582:..\..\..\..\..\..\Software\uCOS-II\Source/os_core.c **** /*
1583:..\..\..\..\..\..\Software\uCOS-II\Source/os_core.c **** ***************************************************************************************************
1584:..\..\..\..\..\..\Software\uCOS-II\Source/os_core.c **** *                                      CLEAR A SECTION OF MEMORY
1585:..\..\..\..\..\..\Software\uCOS-II\Source/os_core.c **** *
1586:..\..\..\..\..\..\Software\uCOS-II\Source/os_core.c **** * Description: This function is called by other uC/OS-II services to clear a contiguous block of RA
1587:..\..\..\..\..\..\Software\uCOS-II\Source/os_core.c **** *
1588:..\..\..\..\..\..\Software\uCOS-II\Source/os_core.c **** * Arguments  : pdest    is the start of the RAM to clear (i.e. write 0x00 to)
1589:..\..\..\..\..\..\Software\uCOS-II\Source/os_core.c **** *
1590:..\..\..\..\..\..\Software\uCOS-II\Source/os_core.c **** *              size     is the number of bytes to clear.
1591:..\..\..\..\..\..\Software\uCOS-II\Source/os_core.c **** *
1592:..\..\..\..\..\..\Software\uCOS-II\Source/os_core.c **** * Returns    : none
1593:..\..\..\..\..\..\Software\uCOS-II\Source/os_core.c **** *
1594:..\..\..\..\..\..\Software\uCOS-II\Source/os_core.c **** * Notes      : 1) This function is INTERNAL to uC/OS-II and your application should not call it.
1595:..\..\..\..\..\..\Software\uCOS-II\Source/os_core.c **** *              2) Note that we can only clear up to 64K bytes of RAM.  This is not an issue because
1596:..\..\..\..\..\..\Software\uCOS-II\Source/os_core.c **** *                 of the uses of this function gets close to this limit.
1597:..\..\..\..\..\..\Software\uCOS-II\Source/os_core.c **** *              3) The clear is done one byte at a time since this will work on any processor irresp
1598:..\..\..\..\..\..\Software\uCOS-II\Source/os_core.c **** *                 of the alignment of the destination.
1599:..\..\..\..\..\..\Software\uCOS-II\Source/os_core.c **** ***************************************************************************************************
1600:..\..\..\..\..\..\Software\uCOS-II\Source/os_core.c **** */
1601:..\..\..\..\..\..\Software\uCOS-II\Source/os_core.c **** 
1602:..\..\..\..\..\..\Software\uCOS-II\Source/os_core.c **** void  OS_MemClr (INT8U  *pdest,
1603:..\..\..\..\..\..\Software\uCOS-II\Source/os_core.c ****                  INT16U  size)
1604:..\..\..\..\..\..\Software\uCOS-II\Source/os_core.c **** {
 2025              		.loc 1 1604 0
 2026              		.cfi_startproc
 2027              		@ args = 0, pretend = 0, frame = 8
 2028              		@ frame_needed = 1, uses_anonymous_args = 0
 2029 0000 80B5     		push	{r7, lr}
 2030              		.cfi_def_cfa_offset 8
 2031              		.cfi_offset 7, -8
ARM GAS  C:\Users\EDULU~1.DES\AppData\Local\Temp\ccKclfbr.s 			page 65


 2032              		.cfi_offset 14, -4
 2033 0002 82B0     		sub	sp, sp, #8
 2034              		.cfi_def_cfa_offset 16
 2035 0004 00AF     		add	r7, sp, #0
 2036              		.cfi_def_cfa_register 7
 2037 0006 7860     		str	r0, [r7, #4]
 2038 0008 0A00     		movs	r2, r1
 2039 000a BB1C     		adds	r3, r7, #2
 2040 000c 1A80     		strh	r2, [r3]
1605:..\..\..\..\..\..\Software\uCOS-II\Source/os_core.c ****     while (size > 0u) {
 2041              		.loc 1 1605 0
 2042 000e 09E0     		b	.L99
 2043              	.L100:
1606:..\..\..\..\..\..\Software\uCOS-II\Source/os_core.c ****         *pdest++ = (INT8U)0;
 2044              		.loc 1 1606 0
 2045 0010 7B68     		ldr	r3, [r7, #4]
 2046 0012 5A1C     		adds	r2, r3, #1
 2047 0014 7A60     		str	r2, [r7, #4]
 2048 0016 0022     		movs	r2, #0
 2049 0018 1A70     		strb	r2, [r3]
1607:..\..\..\..\..\..\Software\uCOS-II\Source/os_core.c ****         size--;
 2050              		.loc 1 1607 0
 2051 001a BB1C     		adds	r3, r7, #2
 2052 001c 1A88     		ldrh	r2, [r3]
 2053 001e BB1C     		adds	r3, r7, #2
 2054 0020 013A     		subs	r2, r2, #1
 2055 0022 1A80     		strh	r2, [r3]
 2056              	.L99:
1605:..\..\..\..\..\..\Software\uCOS-II\Source/os_core.c ****     while (size > 0u) {
 2057              		.loc 1 1605 0
 2058 0024 BB1C     		adds	r3, r7, #2
 2059 0026 1B88     		ldrh	r3, [r3]
 2060 0028 002B     		cmp	r3, #0
 2061 002a F1D1     		bne	.L100
1608:..\..\..\..\..\..\Software\uCOS-II\Source/os_core.c ****     }
1609:..\..\..\..\..\..\Software\uCOS-II\Source/os_core.c **** }
 2062              		.loc 1 1609 0
 2063 002c C046     		nop
 2064 002e BD46     		mov	sp, r7
 2065 0030 02B0     		add	sp, sp, #8
 2066              		@ sp needed
 2067 0032 80BD     		pop	{r7, pc}
 2068              		.cfi_endproc
 2069              	.LFE20:
 2070              		.size	OS_MemClr, .-OS_MemClr
 2071              		.section	.text.OS_MemCopy,"ax",%progbits
 2072              		.align	2
 2073              		.global	OS_MemCopy
 2074              		.code	16
 2075              		.thumb_func
 2076              		.type	OS_MemCopy, %function
 2077              	OS_MemCopy:
 2078              	.LFB21:
1610:..\..\..\..\..\..\Software\uCOS-II\Source/os_core.c **** /*$PAGE*/
1611:..\..\..\..\..\..\Software\uCOS-II\Source/os_core.c **** /*
1612:..\..\..\..\..\..\Software\uCOS-II\Source/os_core.c **** ***************************************************************************************************
1613:..\..\..\..\..\..\Software\uCOS-II\Source/os_core.c **** *                                       COPY A BLOCK OF MEMORY
ARM GAS  C:\Users\EDULU~1.DES\AppData\Local\Temp\ccKclfbr.s 			page 66


1614:..\..\..\..\..\..\Software\uCOS-II\Source/os_core.c **** *
1615:..\..\..\..\..\..\Software\uCOS-II\Source/os_core.c **** * Description: This function is called by other uC/OS-II services to copy a block of memory from on
1616:..\..\..\..\..\..\Software\uCOS-II\Source/os_core.c **** *              location to another.
1617:..\..\..\..\..\..\Software\uCOS-II\Source/os_core.c **** *
1618:..\..\..\..\..\..\Software\uCOS-II\Source/os_core.c **** * Arguments  : pdest    is a pointer to the 'destination' memory block
1619:..\..\..\..\..\..\Software\uCOS-II\Source/os_core.c **** *
1620:..\..\..\..\..\..\Software\uCOS-II\Source/os_core.c **** *              psrc     is a pointer to the 'source'      memory block
1621:..\..\..\..\..\..\Software\uCOS-II\Source/os_core.c **** *
1622:..\..\..\..\..\..\Software\uCOS-II\Source/os_core.c **** *              size     is the number of bytes to copy.
1623:..\..\..\..\..\..\Software\uCOS-II\Source/os_core.c **** *
1624:..\..\..\..\..\..\Software\uCOS-II\Source/os_core.c **** * Returns    : none
1625:..\..\..\..\..\..\Software\uCOS-II\Source/os_core.c **** *
1626:..\..\..\..\..\..\Software\uCOS-II\Source/os_core.c **** * Notes      : 1) This function is INTERNAL to uC/OS-II and your application should not call it.  T
1627:..\..\..\..\..\..\Software\uCOS-II\Source/os_core.c **** *                 no provision to handle overlapping memory copy.  However, that's not a problem si
1628:..\..\..\..\..\..\Software\uCOS-II\Source/os_core.c **** *                 is not a situation that will happen.
1629:..\..\..\..\..\..\Software\uCOS-II\Source/os_core.c **** *              2) Note that we can only copy up to 64K bytes of RAM
1630:..\..\..\..\..\..\Software\uCOS-II\Source/os_core.c **** *              3) The copy is done one byte at a time since this will work on any processor irrespe
1631:..\..\..\..\..\..\Software\uCOS-II\Source/os_core.c **** *                 of the alignment of the source and destination.
1632:..\..\..\..\..\..\Software\uCOS-II\Source/os_core.c **** ***************************************************************************************************
1633:..\..\..\..\..\..\Software\uCOS-II\Source/os_core.c **** */
1634:..\..\..\..\..\..\Software\uCOS-II\Source/os_core.c **** 
1635:..\..\..\..\..\..\Software\uCOS-II\Source/os_core.c **** void  OS_MemCopy (INT8U  *pdest,
1636:..\..\..\..\..\..\Software\uCOS-II\Source/os_core.c ****                   INT8U  *psrc,
1637:..\..\..\..\..\..\Software\uCOS-II\Source/os_core.c ****                   INT16U  size)
1638:..\..\..\..\..\..\Software\uCOS-II\Source/os_core.c **** {
 2079              		.loc 1 1638 0
 2080              		.cfi_startproc
 2081              		@ args = 0, pretend = 0, frame = 16
 2082              		@ frame_needed = 1, uses_anonymous_args = 0
 2083 0000 80B5     		push	{r7, lr}
 2084              		.cfi_def_cfa_offset 8
 2085              		.cfi_offset 7, -8
 2086              		.cfi_offset 14, -4
 2087 0002 84B0     		sub	sp, sp, #16
 2088              		.cfi_def_cfa_offset 24
 2089 0004 00AF     		add	r7, sp, #0
 2090              		.cfi_def_cfa_register 7
 2091 0006 F860     		str	r0, [r7, #12]
 2092 0008 B960     		str	r1, [r7, #8]
 2093 000a BB1D     		adds	r3, r7, #6
 2094 000c 1A80     		strh	r2, [r3]
1639:..\..\..\..\..\..\Software\uCOS-II\Source/os_core.c ****     while (size > 0u) {
 2095              		.loc 1 1639 0
 2096 000e 0CE0     		b	.L102
 2097              	.L103:
1640:..\..\..\..\..\..\Software\uCOS-II\Source/os_core.c ****         *pdest++ = *psrc++;
 2098              		.loc 1 1640 0
 2099 0010 FB68     		ldr	r3, [r7, #12]
 2100 0012 5A1C     		adds	r2, r3, #1
 2101 0014 FA60     		str	r2, [r7, #12]
 2102 0016 BA68     		ldr	r2, [r7, #8]
 2103 0018 511C     		adds	r1, r2, #1
 2104 001a B960     		str	r1, [r7, #8]
 2105 001c 1278     		ldrb	r2, [r2]
 2106 001e 1A70     		strb	r2, [r3]
1641:..\..\..\..\..\..\Software\uCOS-II\Source/os_core.c ****         size--;
 2107              		.loc 1 1641 0
ARM GAS  C:\Users\EDULU~1.DES\AppData\Local\Temp\ccKclfbr.s 			page 67


 2108 0020 BB1D     		adds	r3, r7, #6
 2109 0022 1A88     		ldrh	r2, [r3]
 2110 0024 BB1D     		adds	r3, r7, #6
 2111 0026 013A     		subs	r2, r2, #1
 2112 0028 1A80     		strh	r2, [r3]
 2113              	.L102:
1639:..\..\..\..\..\..\Software\uCOS-II\Source/os_core.c ****     while (size > 0u) {
 2114              		.loc 1 1639 0
 2115 002a BB1D     		adds	r3, r7, #6
 2116 002c 1B88     		ldrh	r3, [r3]
 2117 002e 002B     		cmp	r3, #0
 2118 0030 EED1     		bne	.L103
1642:..\..\..\..\..\..\Software\uCOS-II\Source/os_core.c ****     }
1643:..\..\..\..\..\..\Software\uCOS-II\Source/os_core.c **** }
 2119              		.loc 1 1643 0
 2120 0032 C046     		nop
 2121 0034 BD46     		mov	sp, r7
 2122 0036 04B0     		add	sp, sp, #16
 2123              		@ sp needed
 2124 0038 80BD     		pop	{r7, pc}
 2125              		.cfi_endproc
 2126              	.LFE21:
 2127              		.size	OS_MemCopy, .-OS_MemCopy
 2128 003a C046     		.section	.text.OS_Sched,"ax",%progbits
 2129              		.align	2
 2130              		.global	OS_Sched
 2131              		.code	16
 2132              		.thumb_func
 2133              		.type	OS_Sched, %function
 2134              	OS_Sched:
 2135              	.LFB22:
1644:..\..\..\..\..\..\Software\uCOS-II\Source/os_core.c **** /*$PAGE*/
1645:..\..\..\..\..\..\Software\uCOS-II\Source/os_core.c **** /*
1646:..\..\..\..\..\..\Software\uCOS-II\Source/os_core.c **** ***************************************************************************************************
1647:..\..\..\..\..\..\Software\uCOS-II\Source/os_core.c **** *                                              SCHEDULER
1648:..\..\..\..\..\..\Software\uCOS-II\Source/os_core.c **** *
1649:..\..\..\..\..\..\Software\uCOS-II\Source/os_core.c **** * Description: This function is called by other uC/OS-II services to determine whether a new, high
1650:..\..\..\..\..\..\Software\uCOS-II\Source/os_core.c **** *              priority task has been made ready to run.  This function is invoked by TASK level co
1651:..\..\..\..\..\..\Software\uCOS-II\Source/os_core.c **** *              and is not used to reschedule tasks from ISRs (see OSIntExit() for ISR rescheduling)
1652:..\..\..\..\..\..\Software\uCOS-II\Source/os_core.c **** *
1653:..\..\..\..\..\..\Software\uCOS-II\Source/os_core.c **** * Arguments  : none
1654:..\..\..\..\..\..\Software\uCOS-II\Source/os_core.c **** *
1655:..\..\..\..\..\..\Software\uCOS-II\Source/os_core.c **** * Returns    : none
1656:..\..\..\..\..\..\Software\uCOS-II\Source/os_core.c **** *
1657:..\..\..\..\..\..\Software\uCOS-II\Source/os_core.c **** * Notes      : 1) This function is INTERNAL to uC/OS-II and your application should not call it.
1658:..\..\..\..\..\..\Software\uCOS-II\Source/os_core.c **** *              2) Rescheduling is prevented when the scheduler is locked (see OS_SchedLock())
1659:..\..\..\..\..\..\Software\uCOS-II\Source/os_core.c **** ***************************************************************************************************
1660:..\..\..\..\..\..\Software\uCOS-II\Source/os_core.c **** */
1661:..\..\..\..\..\..\Software\uCOS-II\Source/os_core.c **** 
1662:..\..\..\..\..\..\Software\uCOS-II\Source/os_core.c **** void  OS_Sched (void)
1663:..\..\..\..\..\..\Software\uCOS-II\Source/os_core.c **** {
 2136              		.loc 1 1663 0
 2137              		.cfi_startproc
 2138              		@ args = 0, pretend = 0, frame = 8
 2139              		@ frame_needed = 1, uses_anonymous_args = 0
 2140 0000 80B5     		push	{r7, lr}
 2141              		.cfi_def_cfa_offset 8
ARM GAS  C:\Users\EDULU~1.DES\AppData\Local\Temp\ccKclfbr.s 			page 68


 2142              		.cfi_offset 7, -8
 2143              		.cfi_offset 14, -4
 2144 0002 82B0     		sub	sp, sp, #8
 2145              		.cfi_def_cfa_offset 16
 2146 0004 00AF     		add	r7, sp, #0
 2147              		.cfi_def_cfa_register 7
1664:..\..\..\..\..\..\Software\uCOS-II\Source/os_core.c **** #if OS_CRITICAL_METHOD == 3u                           /* Allocate storage for CPU status register 
1665:..\..\..\..\..\..\Software\uCOS-II\Source/os_core.c ****     OS_CPU_SR  cpu_sr = 0u;
 2148              		.loc 1 1665 0
 2149 0006 0023     		movs	r3, #0
 2150 0008 7B60     		str	r3, [r7, #4]
1666:..\..\..\..\..\..\Software\uCOS-II\Source/os_core.c **** #endif
1667:..\..\..\..\..\..\Software\uCOS-II\Source/os_core.c **** 
1668:..\..\..\..\..\..\Software\uCOS-II\Source/os_core.c **** 
1669:..\..\..\..\..\..\Software\uCOS-II\Source/os_core.c **** 
1670:..\..\..\..\..\..\Software\uCOS-II\Source/os_core.c ****     OS_ENTER_CRITICAL();
 2151              		.loc 1 1670 0
 2152 000a FFF7FEFF 		bl	OS_CPU_SR_Save
 2153 000e 0300     		movs	r3, r0
 2154 0010 7B60     		str	r3, [r7, #4]
1671:..\..\..\..\..\..\Software\uCOS-II\Source/os_core.c ****     if (OSIntNesting == 0u) {                          /* Schedule only if all ISRs done and ...   
 2155              		.loc 1 1671 0
 2156 0012 134B     		ldr	r3, .L106
 2157 0014 1B78     		ldrb	r3, [r3]
 2158 0016 002B     		cmp	r3, #0
 2159 0018 1AD1     		bne	.L105
1672:..\..\..\..\..\..\Software\uCOS-II\Source/os_core.c ****         if (OSLockNesting == 0u) {                     /* ... scheduler is not locked              
 2160              		.loc 1 1672 0
 2161 001a 124B     		ldr	r3, .L106+4
 2162 001c 1B78     		ldrb	r3, [r3]
 2163 001e 002B     		cmp	r3, #0
 2164 0020 16D1     		bne	.L105
1673:..\..\..\..\..\..\Software\uCOS-II\Source/os_core.c ****             OS_SchedNew();
 2165              		.loc 1 1673 0
 2166 0022 FFF7FEFF 		bl	OS_SchedNew
1674:..\..\..\..\..\..\Software\uCOS-II\Source/os_core.c ****             OSTCBHighRdy = OSTCBPrioTbl[OSPrioHighRdy];
 2167              		.loc 1 1674 0
 2168 0026 104B     		ldr	r3, .L106+8
 2169 0028 1B78     		ldrb	r3, [r3]
 2170 002a 1A00     		movs	r2, r3
 2171 002c 0F4B     		ldr	r3, .L106+12
 2172 002e 9200     		lsls	r2, r2, #2
 2173 0030 D258     		ldr	r2, [r2, r3]
 2174 0032 0F4B     		ldr	r3, .L106+16
 2175 0034 1A60     		str	r2, [r3]
1675:..\..\..\..\..\..\Software\uCOS-II\Source/os_core.c ****             if (OSPrioHighRdy != OSPrioCur) {          /* No Ctx Sw if current task is highest rdy 
 2176              		.loc 1 1675 0
 2177 0036 0C4B     		ldr	r3, .L106+8
 2178 0038 1A78     		ldrb	r2, [r3]
 2179 003a 0E4B     		ldr	r3, .L106+20
 2180 003c 1B78     		ldrb	r3, [r3]
 2181 003e 9A42     		cmp	r2, r3
 2182 0040 06D0     		beq	.L105
1676:..\..\..\..\..\..\Software\uCOS-II\Source/os_core.c **** #if OS_TASK_PROFILE_EN > 0u
1677:..\..\..\..\..\..\Software\uCOS-II\Source/os_core.c ****                 OSTCBHighRdy->OSTCBCtxSwCtr++;         /* Inc. # of context switches to this task  
1678:..\..\..\..\..\..\Software\uCOS-II\Source/os_core.c **** #endif
1679:..\..\..\..\..\..\Software\uCOS-II\Source/os_core.c ****                 OSCtxSwCtr++;                          /* Increment context switch counter         
ARM GAS  C:\Users\EDULU~1.DES\AppData\Local\Temp\ccKclfbr.s 			page 69


 2183              		.loc 1 1679 0
 2184 0042 0D4B     		ldr	r3, .L106+24
 2185 0044 1B68     		ldr	r3, [r3]
 2186 0046 5A1C     		adds	r2, r3, #1
 2187 0048 0B4B     		ldr	r3, .L106+24
 2188 004a 1A60     		str	r2, [r3]
1680:..\..\..\..\..\..\Software\uCOS-II\Source/os_core.c **** 
1681:..\..\..\..\..\..\Software\uCOS-II\Source/os_core.c **** #if OS_TASK_CREATE_EXT_EN > 0u
1682:..\..\..\..\..\..\Software\uCOS-II\Source/os_core.c **** #if defined(OS_TLS_TBL_SIZE) && (OS_TLS_TBL_SIZE > 0u)
1683:..\..\..\..\..\..\Software\uCOS-II\Source/os_core.c ****                 OS_TLS_TaskSw();
1684:..\..\..\..\..\..\Software\uCOS-II\Source/os_core.c **** #endif
1685:..\..\..\..\..\..\Software\uCOS-II\Source/os_core.c **** #endif
1686:..\..\..\..\..\..\Software\uCOS-II\Source/os_core.c **** 
1687:..\..\..\..\..\..\Software\uCOS-II\Source/os_core.c ****                 OS_TASK_SW();                          /* Perform a context switch                 
 2189              		.loc 1 1687 0
 2190 004c FFF7FEFF 		bl	OSCtxSw
 2191              	.L105:
1688:..\..\..\..\..\..\Software\uCOS-II\Source/os_core.c ****             }
1689:..\..\..\..\..\..\Software\uCOS-II\Source/os_core.c ****         }
1690:..\..\..\..\..\..\Software\uCOS-II\Source/os_core.c ****     }
1691:..\..\..\..\..\..\Software\uCOS-II\Source/os_core.c ****     OS_EXIT_CRITICAL();
 2192              		.loc 1 1691 0
 2193 0050 7B68     		ldr	r3, [r7, #4]
 2194 0052 1800     		movs	r0, r3
 2195 0054 FFF7FEFF 		bl	OS_CPU_SR_Restore
1692:..\..\..\..\..\..\Software\uCOS-II\Source/os_core.c **** }
 2196              		.loc 1 1692 0
 2197 0058 C046     		nop
 2198 005a BD46     		mov	sp, r7
 2199 005c 02B0     		add	sp, sp, #8
 2200              		@ sp needed
 2201 005e 80BD     		pop	{r7, pc}
 2202              	.L107:
 2203              		.align	2
 2204              	.L106:
 2205 0060 00000000 		.word	OSIntNesting
 2206 0064 00000000 		.word	OSLockNesting
 2207 0068 00000000 		.word	OSPrioHighRdy
 2208 006c 00000000 		.word	OSTCBPrioTbl
 2209 0070 00000000 		.word	OSTCBHighRdy
 2210 0074 00000000 		.word	OSPrioCur
 2211 0078 00000000 		.word	OSCtxSwCtr
 2212              		.cfi_endproc
 2213              	.LFE22:
 2214              		.size	OS_Sched, .-OS_Sched
 2215              		.section	.text.OS_SchedNew,"ax",%progbits
 2216              		.align	2
 2217              		.code	16
 2218              		.thumb_func
 2219              		.type	OS_SchedNew, %function
 2220              	OS_SchedNew:
 2221              	.LFB23:
1693:..\..\..\..\..\..\Software\uCOS-II\Source/os_core.c **** 
1694:..\..\..\..\..\..\Software\uCOS-II\Source/os_core.c **** 
1695:..\..\..\..\..\..\Software\uCOS-II\Source/os_core.c **** /*
1696:..\..\..\..\..\..\Software\uCOS-II\Source/os_core.c **** ***************************************************************************************************
1697:..\..\..\..\..\..\Software\uCOS-II\Source/os_core.c **** *                               FIND HIGHEST PRIORITY TASK READY TO RUN
ARM GAS  C:\Users\EDULU~1.DES\AppData\Local\Temp\ccKclfbr.s 			page 70


1698:..\..\..\..\..\..\Software\uCOS-II\Source/os_core.c **** *
1699:..\..\..\..\..\..\Software\uCOS-II\Source/os_core.c **** * Description: This function is called by other uC/OS-II services to determine the highest priority
1700:..\..\..\..\..\..\Software\uCOS-II\Source/os_core.c **** *              that is ready to run.  The global variable 'OSPrioHighRdy' is changed accordingly.
1701:..\..\..\..\..\..\Software\uCOS-II\Source/os_core.c **** *
1702:..\..\..\..\..\..\Software\uCOS-II\Source/os_core.c **** * Arguments  : none
1703:..\..\..\..\..\..\Software\uCOS-II\Source/os_core.c **** *
1704:..\..\..\..\..\..\Software\uCOS-II\Source/os_core.c **** * Returns    : none
1705:..\..\..\..\..\..\Software\uCOS-II\Source/os_core.c **** *
1706:..\..\..\..\..\..\Software\uCOS-II\Source/os_core.c **** * Notes      : 1) This function is INTERNAL to uC/OS-II and your application should not call it.
1707:..\..\..\..\..\..\Software\uCOS-II\Source/os_core.c **** *              2) Interrupts are assumed to be disabled when this function is called.
1708:..\..\..\..\..\..\Software\uCOS-II\Source/os_core.c **** ***************************************************************************************************
1709:..\..\..\..\..\..\Software\uCOS-II\Source/os_core.c **** */
1710:..\..\..\..\..\..\Software\uCOS-II\Source/os_core.c **** 
1711:..\..\..\..\..\..\Software\uCOS-II\Source/os_core.c **** static  void  OS_SchedNew (void)
1712:..\..\..\..\..\..\Software\uCOS-II\Source/os_core.c **** {
 2222              		.loc 1 1712 0
 2223              		.cfi_startproc
 2224              		@ args = 0, pretend = 0, frame = 8
 2225              		@ frame_needed = 1, uses_anonymous_args = 0
 2226 0000 80B5     		push	{r7, lr}
 2227              		.cfi_def_cfa_offset 8
 2228              		.cfi_offset 7, -8
 2229              		.cfi_offset 14, -4
 2230 0002 82B0     		sub	sp, sp, #8
 2231              		.cfi_def_cfa_offset 16
 2232 0004 00AF     		add	r7, sp, #0
 2233              		.cfi_def_cfa_register 7
1713:..\..\..\..\..\..\Software\uCOS-II\Source/os_core.c **** #if OS_LOWEST_PRIO <= 63u                        /* See if we support up to 64 tasks               
1714:..\..\..\..\..\..\Software\uCOS-II\Source/os_core.c ****     INT8U   y;
1715:..\..\..\..\..\..\Software\uCOS-II\Source/os_core.c **** 
1716:..\..\..\..\..\..\Software\uCOS-II\Source/os_core.c **** 
1717:..\..\..\..\..\..\Software\uCOS-II\Source/os_core.c ****     y             = OSUnMapTbl[OSRdyGrp];
 2234              		.loc 1 1717 0
 2235 0006 0D4B     		ldr	r3, .L109
 2236 0008 1B78     		ldrb	r3, [r3]
 2237 000a 1900     		movs	r1, r3
 2238 000c FB1D     		adds	r3, r7, #7
 2239 000e 0C4A     		ldr	r2, .L109+4
 2240 0010 525C     		ldrb	r2, [r2, r1]
 2241 0012 1A70     		strb	r2, [r3]
1718:..\..\..\..\..\..\Software\uCOS-II\Source/os_core.c ****     OSPrioHighRdy = (INT8U)((y << 3u) + OSUnMapTbl[OSRdyTbl[y]]);
 2242              		.loc 1 1718 0
 2243 0014 FB1D     		adds	r3, r7, #7
 2244 0016 1B78     		ldrb	r3, [r3]
 2245 0018 DB00     		lsls	r3, r3, #3
 2246 001a DAB2     		uxtb	r2, r3
 2247 001c FB1D     		adds	r3, r7, #7
 2248 001e 1B78     		ldrb	r3, [r3]
 2249 0020 0849     		ldr	r1, .L109+8
 2250 0022 CB5C     		ldrb	r3, [r1, r3]
 2251 0024 1900     		movs	r1, r3
 2252 0026 064B     		ldr	r3, .L109+4
 2253 0028 5B5C     		ldrb	r3, [r3, r1]
 2254 002a D318     		adds	r3, r2, r3
 2255 002c DAB2     		uxtb	r2, r3
 2256 002e 064B     		ldr	r3, .L109+12
 2257 0030 1A70     		strb	r2, [r3]
ARM GAS  C:\Users\EDULU~1.DES\AppData\Local\Temp\ccKclfbr.s 			page 71


1719:..\..\..\..\..\..\Software\uCOS-II\Source/os_core.c **** #else                                            /* We support up to 256 tasks                     
1720:..\..\..\..\..\..\Software\uCOS-II\Source/os_core.c ****     INT8U     y;
1721:..\..\..\..\..\..\Software\uCOS-II\Source/os_core.c ****     OS_PRIO  *ptbl;
1722:..\..\..\..\..\..\Software\uCOS-II\Source/os_core.c **** 
1723:..\..\..\..\..\..\Software\uCOS-II\Source/os_core.c **** 
1724:..\..\..\..\..\..\Software\uCOS-II\Source/os_core.c ****     if ((OSRdyGrp & 0xFFu) != 0u) {
1725:..\..\..\..\..\..\Software\uCOS-II\Source/os_core.c ****         y = OSUnMapTbl[OSRdyGrp & 0xFFu];
1726:..\..\..\..\..\..\Software\uCOS-II\Source/os_core.c ****     } else {
1727:..\..\..\..\..\..\Software\uCOS-II\Source/os_core.c ****         y = OSUnMapTbl[(OS_PRIO)(OSRdyGrp >> 8u) & 0xFFu] + 8u;
1728:..\..\..\..\..\..\Software\uCOS-II\Source/os_core.c ****     }
1729:..\..\..\..\..\..\Software\uCOS-II\Source/os_core.c ****     ptbl = &OSRdyTbl[y];
1730:..\..\..\..\..\..\Software\uCOS-II\Source/os_core.c ****     if ((*ptbl & 0xFFu) != 0u) {
1731:..\..\..\..\..\..\Software\uCOS-II\Source/os_core.c ****         OSPrioHighRdy = (INT8U)((y << 4u) + OSUnMapTbl[(*ptbl & 0xFFu)]);
1732:..\..\..\..\..\..\Software\uCOS-II\Source/os_core.c ****     } else {
1733:..\..\..\..\..\..\Software\uCOS-II\Source/os_core.c ****         OSPrioHighRdy = (INT8U)((y << 4u) + OSUnMapTbl[(OS_PRIO)(*ptbl >> 8u) & 0xFFu] + 8u);
1734:..\..\..\..\..\..\Software\uCOS-II\Source/os_core.c ****     }
1735:..\..\..\..\..\..\Software\uCOS-II\Source/os_core.c **** #endif
1736:..\..\..\..\..\..\Software\uCOS-II\Source/os_core.c **** }
 2258              		.loc 1 1736 0
 2259 0032 C046     		nop
 2260 0034 BD46     		mov	sp, r7
 2261 0036 02B0     		add	sp, sp, #8
 2262              		@ sp needed
 2263 0038 80BD     		pop	{r7, pc}
 2264              	.L110:
 2265 003a C046     		.align	2
 2266              	.L109:
 2267 003c 00000000 		.word	OSRdyGrp
 2268 0040 00000000 		.word	OSUnMapTbl
 2269 0044 00000000 		.word	OSRdyTbl
 2270 0048 00000000 		.word	OSPrioHighRdy
 2271              		.cfi_endproc
 2272              	.LFE23:
 2273              		.size	OS_SchedNew, .-OS_SchedNew
 2274              		.section	.text.OS_StrLen,"ax",%progbits
 2275              		.align	2
 2276              		.global	OS_StrLen
 2277              		.code	16
 2278              		.thumb_func
 2279              		.type	OS_StrLen, %function
 2280              	OS_StrLen:
 2281              	.LFB24:
1737:..\..\..\..\..\..\Software\uCOS-II\Source/os_core.c **** 
1738:..\..\..\..\..\..\Software\uCOS-II\Source/os_core.c **** /*$PAGE*/
1739:..\..\..\..\..\..\Software\uCOS-II\Source/os_core.c **** /*
1740:..\..\..\..\..\..\Software\uCOS-II\Source/os_core.c **** ***************************************************************************************************
1741:..\..\..\..\..\..\Software\uCOS-II\Source/os_core.c **** *                               DETERMINE THE LENGTH OF AN ASCII STRING
1742:..\..\..\..\..\..\Software\uCOS-II\Source/os_core.c **** *
1743:..\..\..\..\..\..\Software\uCOS-II\Source/os_core.c **** * Description: This function is called by other uC/OS-II services to determine the size of an ASCII
1744:..\..\..\..\..\..\Software\uCOS-II\Source/os_core.c **** *              (excluding the NUL character).
1745:..\..\..\..\..\..\Software\uCOS-II\Source/os_core.c **** *
1746:..\..\..\..\..\..\Software\uCOS-II\Source/os_core.c **** * Arguments  : psrc     is a pointer to the string for which we need to know the size.
1747:..\..\..\..\..\..\Software\uCOS-II\Source/os_core.c **** *
1748:..\..\..\..\..\..\Software\uCOS-II\Source/os_core.c **** * Returns    : The size of the string (excluding the NUL terminating character)
1749:..\..\..\..\..\..\Software\uCOS-II\Source/os_core.c **** *
1750:..\..\..\..\..\..\Software\uCOS-II\Source/os_core.c **** * Notes      : 1) This function is INTERNAL to uC/OS-II and your application should not call it.
1751:..\..\..\..\..\..\Software\uCOS-II\Source/os_core.c **** *              2) The string to check must be less than 255 characters long.
ARM GAS  C:\Users\EDULU~1.DES\AppData\Local\Temp\ccKclfbr.s 			page 72


1752:..\..\..\..\..\..\Software\uCOS-II\Source/os_core.c **** ***************************************************************************************************
1753:..\..\..\..\..\..\Software\uCOS-II\Source/os_core.c **** */
1754:..\..\..\..\..\..\Software\uCOS-II\Source/os_core.c **** 
1755:..\..\..\..\..\..\Software\uCOS-II\Source/os_core.c **** #if (OS_EVENT_NAME_EN > 0u) || (OS_FLAG_NAME_EN > 0u) || (OS_MEM_NAME_EN > 0u) || (OS_TASK_NAME_EN 
1756:..\..\..\..\..\..\Software\uCOS-II\Source/os_core.c **** INT8U  OS_StrLen (INT8U *psrc)
1757:..\..\..\..\..\..\Software\uCOS-II\Source/os_core.c **** {
 2282              		.loc 1 1757 0
 2283              		.cfi_startproc
 2284              		@ args = 0, pretend = 0, frame = 16
 2285              		@ frame_needed = 1, uses_anonymous_args = 0
 2286 0000 80B5     		push	{r7, lr}
 2287              		.cfi_def_cfa_offset 8
 2288              		.cfi_offset 7, -8
 2289              		.cfi_offset 14, -4
 2290 0002 84B0     		sub	sp, sp, #16
 2291              		.cfi_def_cfa_offset 24
 2292 0004 00AF     		add	r7, sp, #0
 2293              		.cfi_def_cfa_register 7
 2294 0006 7860     		str	r0, [r7, #4]
1758:..\..\..\..\..\..\Software\uCOS-II\Source/os_core.c ****     INT8U  len;
1759:..\..\..\..\..\..\Software\uCOS-II\Source/os_core.c **** 
1760:..\..\..\..\..\..\Software\uCOS-II\Source/os_core.c **** 
1761:..\..\..\..\..\..\Software\uCOS-II\Source/os_core.c **** #if OS_ARG_CHK_EN > 0u
1762:..\..\..\..\..\..\Software\uCOS-II\Source/os_core.c ****     if (psrc == (INT8U *)0) {
 2295              		.loc 1 1762 0
 2296 0008 7B68     		ldr	r3, [r7, #4]
 2297 000a 002B     		cmp	r3, #0
 2298 000c 01D1     		bne	.L112
1763:..\..\..\..\..\..\Software\uCOS-II\Source/os_core.c ****         return (0u);
 2299              		.loc 1 1763 0
 2300 000e 0023     		movs	r3, #0
 2301 0010 15E0     		b	.L113
 2302              	.L112:
1764:..\..\..\..\..\..\Software\uCOS-II\Source/os_core.c ****     }
1765:..\..\..\..\..\..\Software\uCOS-II\Source/os_core.c **** #endif
1766:..\..\..\..\..\..\Software\uCOS-II\Source/os_core.c **** 
1767:..\..\..\..\..\..\Software\uCOS-II\Source/os_core.c ****     len = 0u;
 2303              		.loc 1 1767 0
 2304 0012 0F23     		movs	r3, #15
 2305 0014 FB18     		adds	r3, r7, r3
 2306 0016 0022     		movs	r2, #0
 2307 0018 1A70     		strb	r2, [r3]
1768:..\..\..\..\..\..\Software\uCOS-II\Source/os_core.c ****     while (*psrc != OS_ASCII_NUL) {
 2308              		.loc 1 1768 0
 2309 001a 09E0     		b	.L114
 2310              	.L115:
1769:..\..\..\..\..\..\Software\uCOS-II\Source/os_core.c ****         psrc++;
 2311              		.loc 1 1769 0
 2312 001c 7B68     		ldr	r3, [r7, #4]
 2313 001e 0133     		adds	r3, r3, #1
 2314 0020 7B60     		str	r3, [r7, #4]
1770:..\..\..\..\..\..\Software\uCOS-II\Source/os_core.c ****         len++;
 2315              		.loc 1 1770 0
 2316 0022 0F23     		movs	r3, #15
 2317 0024 FB18     		adds	r3, r7, r3
 2318 0026 1A78     		ldrb	r2, [r3]
 2319 0028 0F23     		movs	r3, #15
ARM GAS  C:\Users\EDULU~1.DES\AppData\Local\Temp\ccKclfbr.s 			page 73


 2320 002a FB18     		adds	r3, r7, r3
 2321 002c 0132     		adds	r2, r2, #1
 2322 002e 1A70     		strb	r2, [r3]
 2323              	.L114:
1768:..\..\..\..\..\..\Software\uCOS-II\Source/os_core.c ****     while (*psrc != OS_ASCII_NUL) {
 2324              		.loc 1 1768 0
 2325 0030 7B68     		ldr	r3, [r7, #4]
 2326 0032 1B78     		ldrb	r3, [r3]
 2327 0034 002B     		cmp	r3, #0
 2328 0036 F1D1     		bne	.L115
1771:..\..\..\..\..\..\Software\uCOS-II\Source/os_core.c ****     }
1772:..\..\..\..\..\..\Software\uCOS-II\Source/os_core.c ****     return (len);
 2329              		.loc 1 1772 0
 2330 0038 0F23     		movs	r3, #15
 2331 003a FB18     		adds	r3, r7, r3
 2332 003c 1B78     		ldrb	r3, [r3]
 2333              	.L113:
1773:..\..\..\..\..\..\Software\uCOS-II\Source/os_core.c **** }
 2334              		.loc 1 1773 0
 2335 003e 1800     		movs	r0, r3
 2336 0040 BD46     		mov	sp, r7
 2337 0042 04B0     		add	sp, sp, #16
 2338              		@ sp needed
 2339 0044 80BD     		pop	{r7, pc}
 2340              		.cfi_endproc
 2341              	.LFE24:
 2342              		.size	OS_StrLen, .-OS_StrLen
 2343 0046 C046     		.section	.text.OS_TaskIdle,"ax",%progbits
 2344              		.align	2
 2345              		.global	OS_TaskIdle
 2346              		.code	16
 2347              		.thumb_func
 2348              		.type	OS_TaskIdle, %function
 2349              	OS_TaskIdle:
 2350              	.LFB25:
1774:..\..\..\..\..\..\Software\uCOS-II\Source/os_core.c **** #endif
1775:..\..\..\..\..\..\Software\uCOS-II\Source/os_core.c **** /*$PAGE*/
1776:..\..\..\..\..\..\Software\uCOS-II\Source/os_core.c **** /*
1777:..\..\..\..\..\..\Software\uCOS-II\Source/os_core.c **** ***************************************************************************************************
1778:..\..\..\..\..\..\Software\uCOS-II\Source/os_core.c **** *                                              IDLE TASK
1779:..\..\..\..\..\..\Software\uCOS-II\Source/os_core.c **** *
1780:..\..\..\..\..\..\Software\uCOS-II\Source/os_core.c **** * Description: This task is internal to uC/OS-II and executes whenever no other higher priority tas
1781:..\..\..\..\..\..\Software\uCOS-II\Source/os_core.c **** *              executes because they are ALL waiting for event(s) to occur.
1782:..\..\..\..\..\..\Software\uCOS-II\Source/os_core.c **** *
1783:..\..\..\..\..\..\Software\uCOS-II\Source/os_core.c **** * Arguments  : none
1784:..\..\..\..\..\..\Software\uCOS-II\Source/os_core.c **** *
1785:..\..\..\..\..\..\Software\uCOS-II\Source/os_core.c **** * Returns    : none
1786:..\..\..\..\..\..\Software\uCOS-II\Source/os_core.c **** *
1787:..\..\..\..\..\..\Software\uCOS-II\Source/os_core.c **** * Note(s)    : 1) OSTaskIdleHook() is called after the critical section to ensure that interrupts w
1788:..\..\..\..\..\..\Software\uCOS-II\Source/os_core.c **** *                 enabled for at least a few instructions.  On some processors (ex. Philips XA), en
1789:..\..\..\..\..\..\Software\uCOS-II\Source/os_core.c **** *                 and then disabling interrupts didn't allow the processor enough time to have inte
1790:..\..\..\..\..\..\Software\uCOS-II\Source/os_core.c **** *                 enabled before they were disabled again.  uC/OS-II would thus never recognize
1791:..\..\..\..\..\..\Software\uCOS-II\Source/os_core.c **** *                 interrupts.
1792:..\..\..\..\..\..\Software\uCOS-II\Source/os_core.c **** *              2) This hook has been added to allow you to do such things as STOP the CPU to conser
1793:..\..\..\..\..\..\Software\uCOS-II\Source/os_core.c **** *                 power.
1794:..\..\..\..\..\..\Software\uCOS-II\Source/os_core.c **** ***************************************************************************************************
1795:..\..\..\..\..\..\Software\uCOS-II\Source/os_core.c **** */
ARM GAS  C:\Users\EDULU~1.DES\AppData\Local\Temp\ccKclfbr.s 			page 74


1796:..\..\..\..\..\..\Software\uCOS-II\Source/os_core.c **** 
1797:..\..\..\..\..\..\Software\uCOS-II\Source/os_core.c **** void  OS_TaskIdle (void *p_arg)
1798:..\..\..\..\..\..\Software\uCOS-II\Source/os_core.c **** {
 2351              		.loc 1 1798 0
 2352              		.cfi_startproc
 2353              		@ args = 0, pretend = 0, frame = 16
 2354              		@ frame_needed = 1, uses_anonymous_args = 0
 2355 0000 80B5     		push	{r7, lr}
 2356              		.cfi_def_cfa_offset 8
 2357              		.cfi_offset 7, -8
 2358              		.cfi_offset 14, -4
 2359 0002 84B0     		sub	sp, sp, #16
 2360              		.cfi_def_cfa_offset 24
 2361 0004 00AF     		add	r7, sp, #0
 2362              		.cfi_def_cfa_register 7
 2363 0006 7860     		str	r0, [r7, #4]
1799:..\..\..\..\..\..\Software\uCOS-II\Source/os_core.c **** #if OS_CRITICAL_METHOD == 3u                     /* Allocate storage for CPU status register       
1800:..\..\..\..\..\..\Software\uCOS-II\Source/os_core.c ****     OS_CPU_SR  cpu_sr = 0u;
 2364              		.loc 1 1800 0
 2365 0008 0023     		movs	r3, #0
 2366 000a FB60     		str	r3, [r7, #12]
 2367              	.L117:
1801:..\..\..\..\..\..\Software\uCOS-II\Source/os_core.c **** #endif
1802:..\..\..\..\..\..\Software\uCOS-II\Source/os_core.c **** 
1803:..\..\..\..\..\..\Software\uCOS-II\Source/os_core.c **** 
1804:..\..\..\..\..\..\Software\uCOS-II\Source/os_core.c **** 
1805:..\..\..\..\..\..\Software\uCOS-II\Source/os_core.c ****     p_arg = p_arg;                               /* Prevent compiler warning for not using 'p_arg' 
1806:..\..\..\..\..\..\Software\uCOS-II\Source/os_core.c ****     for (;;) {
1807:..\..\..\..\..\..\Software\uCOS-II\Source/os_core.c ****         OS_ENTER_CRITICAL();
 2368              		.loc 1 1807 0 discriminator 1
 2369 000c FFF7FEFF 		bl	OS_CPU_SR_Save
 2370 0010 0300     		movs	r3, r0
 2371 0012 FB60     		str	r3, [r7, #12]
1808:..\..\..\..\..\..\Software\uCOS-II\Source/os_core.c ****         OSIdleCtr++;
 2372              		.loc 1 1808 0 discriminator 1
 2373 0014 054B     		ldr	r3, .L118
 2374 0016 1B68     		ldr	r3, [r3]
 2375 0018 5A1C     		adds	r2, r3, #1
 2376 001a 044B     		ldr	r3, .L118
 2377 001c 1A60     		str	r2, [r3]
1809:..\..\..\..\..\..\Software\uCOS-II\Source/os_core.c ****         OS_EXIT_CRITICAL();
 2378              		.loc 1 1809 0 discriminator 1
 2379 001e FB68     		ldr	r3, [r7, #12]
 2380 0020 1800     		movs	r0, r3
 2381 0022 FFF7FEFF 		bl	OS_CPU_SR_Restore
1810:..\..\..\..\..\..\Software\uCOS-II\Source/os_core.c ****         OSTaskIdleHook();                        /* Call user definable HOOK                       
 2382              		.loc 1 1810 0 discriminator 1
 2383 0026 FFF7FEFF 		bl	OSTaskIdleHook
1811:..\..\..\..\..\..\Software\uCOS-II\Source/os_core.c ****     }
 2384              		.loc 1 1811 0 discriminator 1
 2385 002a EFE7     		b	.L117
 2386              	.L119:
 2387              		.align	2
 2388              	.L118:
 2389 002c 00000000 		.word	OSIdleCtr
 2390              		.cfi_endproc
 2391              	.LFE25:
ARM GAS  C:\Users\EDULU~1.DES\AppData\Local\Temp\ccKclfbr.s 			page 75


 2392              		.size	OS_TaskIdle, .-OS_TaskIdle
 2393              		.global	__aeabi_uidiv
 2394              		.section	.text.OS_TaskStat,"ax",%progbits
 2395              		.align	2
 2396              		.global	OS_TaskStat
 2397              		.code	16
 2398              		.thumb_func
 2399              		.type	OS_TaskStat, %function
 2400              	OS_TaskStat:
 2401              	.LFB26:
1812:..\..\..\..\..\..\Software\uCOS-II\Source/os_core.c **** }
1813:..\..\..\..\..\..\Software\uCOS-II\Source/os_core.c **** /*$PAGE*/
1814:..\..\..\..\..\..\Software\uCOS-II\Source/os_core.c **** /*
1815:..\..\..\..\..\..\Software\uCOS-II\Source/os_core.c **** ***************************************************************************************************
1816:..\..\..\..\..\..\Software\uCOS-II\Source/os_core.c **** *                                           STATISTICS TASK
1817:..\..\..\..\..\..\Software\uCOS-II\Source/os_core.c **** *
1818:..\..\..\..\..\..\Software\uCOS-II\Source/os_core.c **** * Description: This task is internal to uC/OS-II and is used to compute some statistics about the
1819:..\..\..\..\..\..\Software\uCOS-II\Source/os_core.c **** *              multitasking environment.  Specifically, OS_TaskStat() computes the CPU usage.
1820:..\..\..\..\..\..\Software\uCOS-II\Source/os_core.c **** *              CPU usage is determined by:
1821:..\..\..\..\..\..\Software\uCOS-II\Source/os_core.c **** *
1822:..\..\..\..\..\..\Software\uCOS-II\Source/os_core.c **** *                                          OSIdleCtr
1823:..\..\..\..\..\..\Software\uCOS-II\Source/os_core.c **** *                 OSCPUUsage = 100 * (1 - ------------)     (units are in %)
1824:..\..\..\..\..\..\Software\uCOS-II\Source/os_core.c **** *                                         OSIdleCtrMax
1825:..\..\..\..\..\..\Software\uCOS-II\Source/os_core.c **** *
1826:..\..\..\..\..\..\Software\uCOS-II\Source/os_core.c **** * Arguments  : parg     this pointer is not used at this time.
1827:..\..\..\..\..\..\Software\uCOS-II\Source/os_core.c **** *
1828:..\..\..\..\..\..\Software\uCOS-II\Source/os_core.c **** * Returns    : none
1829:..\..\..\..\..\..\Software\uCOS-II\Source/os_core.c **** *
1830:..\..\..\..\..\..\Software\uCOS-II\Source/os_core.c **** * Notes      : 1) This task runs at a priority level higher than the idle task.  In fact, it runs a
1831:..\..\..\..\..\..\Software\uCOS-II\Source/os_core.c **** *                 next higher priority, OS_TASK_IDLE_PRIO-1.
1832:..\..\..\..\..\..\Software\uCOS-II\Source/os_core.c **** *              2) You can disable this task by setting the configuration #define OS_TASK_STAT_EN to
1833:..\..\..\..\..\..\Software\uCOS-II\Source/os_core.c **** *              3) You MUST have at least a delay of 2/10 seconds to allow for the system to establi
1834:..\..\..\..\..\..\Software\uCOS-II\Source/os_core.c **** *                 maximum value for the idle counter.
1835:..\..\..\..\..\..\Software\uCOS-II\Source/os_core.c **** ***************************************************************************************************
1836:..\..\..\..\..\..\Software\uCOS-II\Source/os_core.c **** */
1837:..\..\..\..\..\..\Software\uCOS-II\Source/os_core.c **** 
1838:..\..\..\..\..\..\Software\uCOS-II\Source/os_core.c **** #if OS_TASK_STAT_EN > 0u
1839:..\..\..\..\..\..\Software\uCOS-II\Source/os_core.c **** void  OS_TaskStat (void *p_arg)
1840:..\..\..\..\..\..\Software\uCOS-II\Source/os_core.c **** {
 2402              		.loc 1 1840 0
 2403              		.cfi_startproc
 2404              		@ args = 0, pretend = 0, frame = 16
 2405              		@ frame_needed = 1, uses_anonymous_args = 0
 2406 0000 80B5     		push	{r7, lr}
 2407              		.cfi_def_cfa_offset 8
 2408              		.cfi_offset 7, -8
 2409              		.cfi_offset 14, -4
 2410 0002 84B0     		sub	sp, sp, #16
 2411              		.cfi_def_cfa_offset 24
 2412 0004 00AF     		add	r7, sp, #0
 2413              		.cfi_def_cfa_register 7
 2414 0006 7860     		str	r0, [r7, #4]
1841:..\..\..\..\..\..\Software\uCOS-II\Source/os_core.c **** #if OS_CRITICAL_METHOD == 3u                     /* Allocate storage for CPU status register       
1842:..\..\..\..\..\..\Software\uCOS-II\Source/os_core.c ****     OS_CPU_SR  cpu_sr = 0u;
 2415              		.loc 1 1842 0
 2416 0008 0023     		movs	r3, #0
 2417 000a FB60     		str	r3, [r7, #12]
ARM GAS  C:\Users\EDULU~1.DES\AppData\Local\Temp\ccKclfbr.s 			page 76


1843:..\..\..\..\..\..\Software\uCOS-II\Source/os_core.c **** #endif
1844:..\..\..\..\..\..\Software\uCOS-II\Source/os_core.c **** 
1845:..\..\..\..\..\..\Software\uCOS-II\Source/os_core.c **** 
1846:..\..\..\..\..\..\Software\uCOS-II\Source/os_core.c **** 
1847:..\..\..\..\..\..\Software\uCOS-II\Source/os_core.c ****     p_arg = p_arg;                               /* Prevent compiler warning for not using 'p_arg' 
1848:..\..\..\..\..\..\Software\uCOS-II\Source/os_core.c ****     while (OSStatRdy == OS_FALSE) {
 2418              		.loc 1 1848 0
 2419 000c 02E0     		b	.L121
 2420              	.L122:
1849:..\..\..\..\..\..\Software\uCOS-II\Source/os_core.c ****         OSTimeDly(2u * OS_TICKS_PER_SEC / 10u);  /* Wait until statistic task is ready             
 2421              		.loc 1 1849 0
 2422 000e C820     		movs	r0, #200
 2423 0010 FFF7FEFF 		bl	OSTimeDly
 2424              	.L121:
1848:..\..\..\..\..\..\Software\uCOS-II\Source/os_core.c ****         OSTimeDly(2u * OS_TICKS_PER_SEC / 10u);  /* Wait until statistic task is ready             
 2425              		.loc 1 1848 0
 2426 0014 254B     		ldr	r3, .L125
 2427 0016 1B78     		ldrb	r3, [r3]
 2428 0018 002B     		cmp	r3, #0
 2429 001a F8D0     		beq	.L122
1850:..\..\..\..\..\..\Software\uCOS-II\Source/os_core.c ****     }
1851:..\..\..\..\..\..\Software\uCOS-II\Source/os_core.c ****     OSIdleCtrMax /= 100uL;
 2430              		.loc 1 1851 0
 2431 001c 244B     		ldr	r3, .L125+4
 2432 001e 1B68     		ldr	r3, [r3]
 2433 0020 6421     		movs	r1, #100
 2434 0022 1800     		movs	r0, r3
 2435 0024 FFF7FEFF 		bl	__aeabi_uidiv
 2436 0028 0300     		movs	r3, r0
 2437 002a 1A00     		movs	r2, r3
 2438 002c 204B     		ldr	r3, .L125+4
 2439 002e 1A60     		str	r2, [r3]
1852:..\..\..\..\..\..\Software\uCOS-II\Source/os_core.c ****     if (OSIdleCtrMax == 0uL) {
 2440              		.loc 1 1852 0
 2441 0030 1F4B     		ldr	r3, .L125+4
 2442 0032 1B68     		ldr	r3, [r3]
 2443 0034 002B     		cmp	r3, #0
 2444 0036 05D1     		bne	.L123
1853:..\..\..\..\..\..\Software\uCOS-II\Source/os_core.c ****         OSCPUUsage = 0u;
 2445              		.loc 1 1853 0
 2446 0038 1E4B     		ldr	r3, .L125+8
 2447 003a 0022     		movs	r2, #0
 2448 003c 1A70     		strb	r2, [r3]
1854:..\..\..\..\..\..\Software\uCOS-II\Source/os_core.c **** #if OS_TASK_SUSPEND_EN > 0u
1855:..\..\..\..\..\..\Software\uCOS-II\Source/os_core.c ****         (void)OSTaskSuspend(OS_PRIO_SELF);
 2449              		.loc 1 1855 0
 2450 003e FF20     		movs	r0, #255
 2451 0040 FFF7FEFF 		bl	OSTaskSuspend
 2452              	.L123:
1856:..\..\..\..\..\..\Software\uCOS-II\Source/os_core.c **** #else
1857:..\..\..\..\..\..\Software\uCOS-II\Source/os_core.c ****         for (;;) {
1858:..\..\..\..\..\..\Software\uCOS-II\Source/os_core.c ****             OSTimeDly(OS_TICKS_PER_SEC);
1859:..\..\..\..\..\..\Software\uCOS-II\Source/os_core.c ****         }
1860:..\..\..\..\..\..\Software\uCOS-II\Source/os_core.c **** #endif
1861:..\..\..\..\..\..\Software\uCOS-II\Source/os_core.c ****     }
1862:..\..\..\..\..\..\Software\uCOS-II\Source/os_core.c ****     OS_ENTER_CRITICAL();
 2453              		.loc 1 1862 0
ARM GAS  C:\Users\EDULU~1.DES\AppData\Local\Temp\ccKclfbr.s 			page 77


 2454 0044 FFF7FEFF 		bl	OS_CPU_SR_Save
 2455 0048 0300     		movs	r3, r0
 2456 004a FB60     		str	r3, [r7, #12]
1863:..\..\..\..\..\..\Software\uCOS-II\Source/os_core.c ****     OSIdleCtr = OSIdleCtrMax * 100uL;            /* Set initial CPU usage as 0%                    
 2457              		.loc 1 1863 0
 2458 004c 184B     		ldr	r3, .L125+4
 2459 004e 1B68     		ldr	r3, [r3]
 2460 0050 6422     		movs	r2, #100
 2461 0052 5A43     		muls	r2, r3
 2462 0054 184B     		ldr	r3, .L125+12
 2463 0056 1A60     		str	r2, [r3]
1864:..\..\..\..\..\..\Software\uCOS-II\Source/os_core.c ****     OS_EXIT_CRITICAL();
 2464              		.loc 1 1864 0
 2465 0058 FB68     		ldr	r3, [r7, #12]
 2466 005a 1800     		movs	r0, r3
 2467 005c FFF7FEFF 		bl	OS_CPU_SR_Restore
 2468              	.L124:
1865:..\..\..\..\..\..\Software\uCOS-II\Source/os_core.c ****     for (;;) {
1866:..\..\..\..\..\..\Software\uCOS-II\Source/os_core.c ****         OS_ENTER_CRITICAL();
 2469              		.loc 1 1866 0 discriminator 1
 2470 0060 FFF7FEFF 		bl	OS_CPU_SR_Save
 2471 0064 0300     		movs	r3, r0
 2472 0066 FB60     		str	r3, [r7, #12]
1867:..\..\..\..\..\..\Software\uCOS-II\Source/os_core.c ****         OSIdleCtrRun = OSIdleCtr;                /* Obtain the of the idle counter for the past sec
 2473              		.loc 1 1867 0 discriminator 1
 2474 0068 134B     		ldr	r3, .L125+12
 2475 006a 1A68     		ldr	r2, [r3]
 2476 006c 134B     		ldr	r3, .L125+16
 2477 006e 1A60     		str	r2, [r3]
1868:..\..\..\..\..\..\Software\uCOS-II\Source/os_core.c ****         OSIdleCtr    = 0uL;                      /* Reset the idle counter for the next second     
 2478              		.loc 1 1868 0 discriminator 1
 2479 0070 114B     		ldr	r3, .L125+12
 2480 0072 0022     		movs	r2, #0
 2481 0074 1A60     		str	r2, [r3]
1869:..\..\..\..\..\..\Software\uCOS-II\Source/os_core.c ****         OS_EXIT_CRITICAL();
 2482              		.loc 1 1869 0 discriminator 1
 2483 0076 FB68     		ldr	r3, [r7, #12]
 2484 0078 1800     		movs	r0, r3
 2485 007a FFF7FEFF 		bl	OS_CPU_SR_Restore
1870:..\..\..\..\..\..\Software\uCOS-II\Source/os_core.c ****         OSCPUUsage   = (INT8U)(100uL - OSIdleCtrRun / OSIdleCtrMax);
 2486              		.loc 1 1870 0 discriminator 1
 2487 007e 0F4B     		ldr	r3, .L125+16
 2488 0080 1A68     		ldr	r2, [r3]
 2489 0082 0B4B     		ldr	r3, .L125+4
 2490 0084 1B68     		ldr	r3, [r3]
 2491 0086 1900     		movs	r1, r3
 2492 0088 1000     		movs	r0, r2
 2493 008a FFF7FEFF 		bl	__aeabi_uidiv
 2494 008e 0300     		movs	r3, r0
 2495 0090 DBB2     		uxtb	r3, r3
 2496 0092 6422     		movs	r2, #100
 2497 0094 D31A     		subs	r3, r2, r3
 2498 0096 DAB2     		uxtb	r2, r3
 2499 0098 064B     		ldr	r3, .L125+8
 2500 009a 1A70     		strb	r2, [r3]
1871:..\..\..\..\..\..\Software\uCOS-II\Source/os_core.c ****         OSTaskStatHook();                        /* Invoke user definable hook                     
 2501              		.loc 1 1871 0 discriminator 1
ARM GAS  C:\Users\EDULU~1.DES\AppData\Local\Temp\ccKclfbr.s 			page 78


 2502 009c FFF7FEFF 		bl	OSTaskStatHook
1872:..\..\..\..\..\..\Software\uCOS-II\Source/os_core.c **** #if (OS_TASK_STAT_STK_CHK_EN > 0u) && (OS_TASK_CREATE_EXT_EN > 0u)
1873:..\..\..\..\..\..\Software\uCOS-II\Source/os_core.c ****         OS_TaskStatStkChk();                     /* Check the stacks for each task                 
 2503              		.loc 1 1873 0 discriminator 1
 2504 00a0 FFF7FEFF 		bl	OS_TaskStatStkChk
1874:..\..\..\..\..\..\Software\uCOS-II\Source/os_core.c **** #endif
1875:..\..\..\..\..\..\Software\uCOS-II\Source/os_core.c ****         OSTimeDly(OS_TICKS_PER_SEC / 10u);       /* Accumulate OSIdleCtr for the next 1/10 second  
 2505              		.loc 1 1875 0 discriminator 1
 2506 00a4 6420     		movs	r0, #100
 2507 00a6 FFF7FEFF 		bl	OSTimeDly
1876:..\..\..\..\..\..\Software\uCOS-II\Source/os_core.c ****     }
 2508              		.loc 1 1876 0 discriminator 1
 2509 00aa D9E7     		b	.L124
 2510              	.L126:
 2511              		.align	2
 2512              	.L125:
 2513 00ac 00000000 		.word	OSStatRdy
 2514 00b0 00000000 		.word	OSIdleCtrMax
 2515 00b4 00000000 		.word	OSCPUUsage
 2516 00b8 00000000 		.word	OSIdleCtr
 2517 00bc 00000000 		.word	OSIdleCtrRun
 2518              		.cfi_endproc
 2519              	.LFE26:
 2520              		.size	OS_TaskStat, .-OS_TaskStat
 2521              		.section	.text.OS_TaskStatStkChk,"ax",%progbits
 2522              		.align	2
 2523              		.global	OS_TaskStatStkChk
 2524              		.code	16
 2525              		.thumb_func
 2526              		.type	OS_TaskStatStkChk, %function
 2527              	OS_TaskStatStkChk:
 2528              	.LFB27:
1877:..\..\..\..\..\..\Software\uCOS-II\Source/os_core.c **** }
1878:..\..\..\..\..\..\Software\uCOS-II\Source/os_core.c **** #endif
1879:..\..\..\..\..\..\Software\uCOS-II\Source/os_core.c **** /*$PAGE*/
1880:..\..\..\..\..\..\Software\uCOS-II\Source/os_core.c **** /*
1881:..\..\..\..\..\..\Software\uCOS-II\Source/os_core.c **** ***************************************************************************************************
1882:..\..\..\..\..\..\Software\uCOS-II\Source/os_core.c **** *                                        CHECK ALL TASK STACKS
1883:..\..\..\..\..\..\Software\uCOS-II\Source/os_core.c **** *
1884:..\..\..\..\..\..\Software\uCOS-II\Source/os_core.c **** * Description: This function is called by OS_TaskStat() to check the stacks of each active task.
1885:..\..\..\..\..\..\Software\uCOS-II\Source/os_core.c **** *
1886:..\..\..\..\..\..\Software\uCOS-II\Source/os_core.c **** * Arguments  : none
1887:..\..\..\..\..\..\Software\uCOS-II\Source/os_core.c **** *
1888:..\..\..\..\..\..\Software\uCOS-II\Source/os_core.c **** * Returns    : none
1889:..\..\..\..\..\..\Software\uCOS-II\Source/os_core.c **** ***************************************************************************************************
1890:..\..\..\..\..\..\Software\uCOS-II\Source/os_core.c **** */
1891:..\..\..\..\..\..\Software\uCOS-II\Source/os_core.c **** 
1892:..\..\..\..\..\..\Software\uCOS-II\Source/os_core.c **** #if (OS_TASK_STAT_STK_CHK_EN > 0u) && (OS_TASK_CREATE_EXT_EN > 0u)
1893:..\..\..\..\..\..\Software\uCOS-II\Source/os_core.c **** void  OS_TaskStatStkChk (void)
1894:..\..\..\..\..\..\Software\uCOS-II\Source/os_core.c **** {
 2529              		.loc 1 1894 0
 2530              		.cfi_startproc
 2531              		@ args = 0, pretend = 0, frame = 16
 2532              		@ frame_needed = 1, uses_anonymous_args = 0
 2533 0000 90B5     		push	{r4, r7, lr}
 2534              		.cfi_def_cfa_offset 12
 2535              		.cfi_offset 4, -12
ARM GAS  C:\Users\EDULU~1.DES\AppData\Local\Temp\ccKclfbr.s 			page 79


 2536              		.cfi_offset 7, -8
 2537              		.cfi_offset 14, -4
 2538 0002 85B0     		sub	sp, sp, #20
 2539              		.cfi_def_cfa_offset 32
 2540 0004 00AF     		add	r7, sp, #0
 2541              		.cfi_def_cfa_register 7
1895:..\..\..\..\..\..\Software\uCOS-II\Source/os_core.c ****     OS_TCB      *ptcb;
1896:..\..\..\..\..\..\Software\uCOS-II\Source/os_core.c ****     OS_STK_DATA  stk_data;
1897:..\..\..\..\..\..\Software\uCOS-II\Source/os_core.c ****     INT8U        err;
1898:..\..\..\..\..\..\Software\uCOS-II\Source/os_core.c ****     INT8U        prio;
1899:..\..\..\..\..\..\Software\uCOS-II\Source/os_core.c **** 
1900:..\..\..\..\..\..\Software\uCOS-II\Source/os_core.c **** 
1901:..\..\..\..\..\..\Software\uCOS-II\Source/os_core.c ****     for (prio = 0u; prio <= OS_TASK_IDLE_PRIO; prio++) {
 2542              		.loc 1 1901 0
 2543 0006 0F23     		movs	r3, #15
 2544 0008 FB18     		adds	r3, r7, r3
 2545 000a 0022     		movs	r2, #0
 2546 000c 1A70     		strb	r2, [r3]
 2547 000e 1EE0     		b	.L128
 2548              	.L130:
1902:..\..\..\..\..\..\Software\uCOS-II\Source/os_core.c ****         err = OSTaskStkChk(prio, &stk_data);
 2549              		.loc 1 1902 0
 2550 0010 0E23     		movs	r3, #14
 2551 0012 FC18     		adds	r4, r7, r3
 2552 0014 3A00     		movs	r2, r7
 2553 0016 0F23     		movs	r3, #15
 2554 0018 FB18     		adds	r3, r7, r3
 2555 001a 1B78     		ldrb	r3, [r3]
 2556 001c 1100     		movs	r1, r2
 2557 001e 1800     		movs	r0, r3
 2558 0020 FFF7FEFF 		bl	OSTaskStkChk
 2559 0024 0300     		movs	r3, r0
 2560 0026 2370     		strb	r3, [r4]
1903:..\..\..\..\..\..\Software\uCOS-II\Source/os_core.c ****         if (err == OS_ERR_NONE) {
 2561              		.loc 1 1903 0
 2562 0028 0E23     		movs	r3, #14
 2563 002a FB18     		adds	r3, r7, r3
 2564 002c 1B78     		ldrb	r3, [r3]
 2565 002e 002B     		cmp	r3, #0
 2566 0030 06D1     		bne	.L129
1904:..\..\..\..\..\..\Software\uCOS-II\Source/os_core.c ****             ptcb = OSTCBPrioTbl[prio];
 2567              		.loc 1 1904 0
 2568 0032 0F23     		movs	r3, #15
 2569 0034 FB18     		adds	r3, r7, r3
 2570 0036 1A78     		ldrb	r2, [r3]
 2571 0038 094B     		ldr	r3, .L131
 2572 003a 9200     		lsls	r2, r2, #2
 2573 003c D358     		ldr	r3, [r2, r3]
 2574 003e BB60     		str	r3, [r7, #8]
 2575              	.L129:
1901:..\..\..\..\..\..\Software\uCOS-II\Source/os_core.c ****         err = OSTaskStkChk(prio, &stk_data);
 2576              		.loc 1 1901 0 discriminator 2
 2577 0040 0F23     		movs	r3, #15
 2578 0042 FB18     		adds	r3, r7, r3
 2579 0044 1A78     		ldrb	r2, [r3]
 2580 0046 0F23     		movs	r3, #15
 2581 0048 FB18     		adds	r3, r7, r3
ARM GAS  C:\Users\EDULU~1.DES\AppData\Local\Temp\ccKclfbr.s 			page 80


 2582 004a 0132     		adds	r2, r2, #1
 2583 004c 1A70     		strb	r2, [r3]
 2584              	.L128:
1901:..\..\..\..\..\..\Software\uCOS-II\Source/os_core.c ****         err = OSTaskStkChk(prio, &stk_data);
 2585              		.loc 1 1901 0 is_stmt 0 discriminator 1
 2586 004e 0F23     		movs	r3, #15
 2587 0050 FB18     		adds	r3, r7, r3
 2588 0052 1B78     		ldrb	r3, [r3]
 2589 0054 1F2B     		cmp	r3, #31
 2590 0056 DBD9     		bls	.L130
1905:..\..\..\..\..\..\Software\uCOS-II\Source/os_core.c ****             if (ptcb != (OS_TCB *)0) {                               /* Make sure task 'ptcb' is ..
1906:..\..\..\..\..\..\Software\uCOS-II\Source/os_core.c ****                 if (ptcb != OS_TCB_RESERVED) {                       /* ... still valid.           
1907:..\..\..\..\..\..\Software\uCOS-II\Source/os_core.c **** #if OS_TASK_PROFILE_EN > 0u
1908:..\..\..\..\..\..\Software\uCOS-II\Source/os_core.c ****                     #if OS_STK_GROWTH == 1u
1909:..\..\..\..\..\..\Software\uCOS-II\Source/os_core.c ****                     ptcb->OSTCBStkBase = ptcb->OSTCBStkBottom + ptcb->OSTCBStkSize;
1910:..\..\..\..\..\..\Software\uCOS-II\Source/os_core.c ****                     #else
1911:..\..\..\..\..\..\Software\uCOS-II\Source/os_core.c ****                     ptcb->OSTCBStkBase = ptcb->OSTCBStkBottom - ptcb->OSTCBStkSize;
1912:..\..\..\..\..\..\Software\uCOS-II\Source/os_core.c ****                     #endif
1913:..\..\..\..\..\..\Software\uCOS-II\Source/os_core.c ****                     ptcb->OSTCBStkUsed = stk_data.OSUsed;            /* Store number of entries use
1914:..\..\..\..\..\..\Software\uCOS-II\Source/os_core.c **** #endif
1915:..\..\..\..\..\..\Software\uCOS-II\Source/os_core.c ****                 }
1916:..\..\..\..\..\..\Software\uCOS-II\Source/os_core.c ****             }
1917:..\..\..\..\..\..\Software\uCOS-II\Source/os_core.c ****         }
1918:..\..\..\..\..\..\Software\uCOS-II\Source/os_core.c ****     }
1919:..\..\..\..\..\..\Software\uCOS-II\Source/os_core.c **** }
 2591              		.loc 1 1919 0 is_stmt 1
 2592 0058 C046     		nop
 2593 005a BD46     		mov	sp, r7
 2594 005c 05B0     		add	sp, sp, #20
 2595              		@ sp needed
 2596 005e 90BD     		pop	{r4, r7, pc}
 2597              	.L132:
 2598              		.align	2
 2599              	.L131:
 2600 0060 00000000 		.word	OSTCBPrioTbl
 2601              		.cfi_endproc
 2602              	.LFE27:
 2603              		.size	OS_TaskStatStkChk, .-OS_TaskStatStkChk
 2604              		.section	.text.OS_TCBInit,"ax",%progbits
 2605              		.align	2
 2606              		.global	OS_TCBInit
 2607              		.code	16
 2608              		.thumb_func
 2609              		.type	OS_TCBInit, %function
 2610              	OS_TCBInit:
 2611              	.LFB28:
1920:..\..\..\..\..\..\Software\uCOS-II\Source/os_core.c **** #endif
1921:..\..\..\..\..\..\Software\uCOS-II\Source/os_core.c **** /*$PAGE*/
1922:..\..\..\..\..\..\Software\uCOS-II\Source/os_core.c **** /*
1923:..\..\..\..\..\..\Software\uCOS-II\Source/os_core.c **** ***************************************************************************************************
1924:..\..\..\..\..\..\Software\uCOS-II\Source/os_core.c **** *                                           INITIALIZE TCB
1925:..\..\..\..\..\..\Software\uCOS-II\Source/os_core.c **** *
1926:..\..\..\..\..\..\Software\uCOS-II\Source/os_core.c **** * Description: This function is internal to uC/OS-II and is used to initialize a Task Control Block
1927:..\..\..\..\..\..\Software\uCOS-II\Source/os_core.c **** *              a task is created (see OSTaskCreate() and OSTaskCreateExt()).
1928:..\..\..\..\..\..\Software\uCOS-II\Source/os_core.c **** *
1929:..\..\..\..\..\..\Software\uCOS-II\Source/os_core.c **** * Arguments  : prio          is the priority of the task being created
1930:..\..\..\..\..\..\Software\uCOS-II\Source/os_core.c **** *
ARM GAS  C:\Users\EDULU~1.DES\AppData\Local\Temp\ccKclfbr.s 			page 81


1931:..\..\..\..\..\..\Software\uCOS-II\Source/os_core.c **** *              ptos          is a pointer to the task's top-of-stack assuming that the CPU register
1932:..\..\..\..\..\..\Software\uCOS-II\Source/os_core.c **** *                            have been placed on the stack.  Note that the top-of-stack corresponds
1933:..\..\..\..\..\..\Software\uCOS-II\Source/os_core.c **** *                            'high' memory location is OS_STK_GROWTH is set to 1 and a 'low' memory
1934:..\..\..\..\..\..\Software\uCOS-II\Source/os_core.c **** *                            location if OS_STK_GROWTH is set to 0.  Note that stack growth is CPU
1935:..\..\..\..\..\..\Software\uCOS-II\Source/os_core.c **** *                            specific.
1936:..\..\..\..\..\..\Software\uCOS-II\Source/os_core.c **** *
1937:..\..\..\..\..\..\Software\uCOS-II\Source/os_core.c **** *              pbos          is a pointer to the bottom of stack.  A NULL pointer is passed if call
1938:..\..\..\..\..\..\Software\uCOS-II\Source/os_core.c **** *                            'OSTaskCreate()'.
1939:..\..\..\..\..\..\Software\uCOS-II\Source/os_core.c **** *
1940:..\..\..\..\..\..\Software\uCOS-II\Source/os_core.c **** *              id            is the task's ID (0..65535)
1941:..\..\..\..\..\..\Software\uCOS-II\Source/os_core.c **** *
1942:..\..\..\..\..\..\Software\uCOS-II\Source/os_core.c **** *              stk_size      is the size of the stack (in 'stack units').  If the stack units are I
1943:..\..\..\..\..\..\Software\uCOS-II\Source/os_core.c **** *                            then, 'stk_size' contains the number of bytes for the stack.  If the s
1944:..\..\..\..\..\..\Software\uCOS-II\Source/os_core.c **** *                            units are INT32Us then, the stack contains '4 * stk_size' bytes.  The 
1945:..\..\..\..\..\..\Software\uCOS-II\Source/os_core.c **** *                            units are established by the #define constant OS_STK which is CPU
1946:..\..\..\..\..\..\Software\uCOS-II\Source/os_core.c **** *                            specific.  'stk_size' is 0 if called by 'OSTaskCreate()'.
1947:..\..\..\..\..\..\Software\uCOS-II\Source/os_core.c **** *
1948:..\..\..\..\..\..\Software\uCOS-II\Source/os_core.c **** *              pext          is a pointer to a user supplied memory area that is used to extend the
1949:..\..\..\..\..\..\Software\uCOS-II\Source/os_core.c **** *                            control block.  This allows you to store the contents of floating-poin
1950:..\..\..\..\..\..\Software\uCOS-II\Source/os_core.c **** *                            registers, MMU registers or anything else you could find useful during
1951:..\..\..\..\..\..\Software\uCOS-II\Source/os_core.c **** *                            context switch.  You can even assign a name to each task and store thi
1952:..\..\..\..\..\..\Software\uCOS-II\Source/os_core.c **** *                            in this TCB extension.  A NULL pointer is passed if called by OSTaskCr
1953:..\..\..\..\..\..\Software\uCOS-II\Source/os_core.c **** *
1954:..\..\..\..\..\..\Software\uCOS-II\Source/os_core.c **** *              opt           options as passed to 'OSTaskCreateExt()' or,
1955:..\..\..\..\..\..\Software\uCOS-II\Source/os_core.c **** *                            0 if called from 'OSTaskCreate()'.
1956:..\..\..\..\..\..\Software\uCOS-II\Source/os_core.c **** *
1957:..\..\..\..\..\..\Software\uCOS-II\Source/os_core.c **** * Returns    : OS_ERR_NONE              if the call was successful
1958:..\..\..\..\..\..\Software\uCOS-II\Source/os_core.c **** *              OS_ERR_TASK_NO_MORE_TCB  if there are no more free TCBs to be allocated and thus, th
1959:..\..\..\..\..\..\Software\uCOS-II\Source/os_core.c **** *                                       cannot be created.
1960:..\..\..\..\..\..\Software\uCOS-II\Source/os_core.c **** *
1961:..\..\..\..\..\..\Software\uCOS-II\Source/os_core.c **** * Note       : This function is INTERNAL to uC/OS-II and your application should not call it.
1962:..\..\..\..\..\..\Software\uCOS-II\Source/os_core.c **** ***************************************************************************************************
1963:..\..\..\..\..\..\Software\uCOS-II\Source/os_core.c **** */
1964:..\..\..\..\..\..\Software\uCOS-II\Source/os_core.c **** 
1965:..\..\..\..\..\..\Software\uCOS-II\Source/os_core.c **** INT8U  OS_TCBInit (INT8U    prio,
1966:..\..\..\..\..\..\Software\uCOS-II\Source/os_core.c ****                    OS_STK  *ptos,
1967:..\..\..\..\..\..\Software\uCOS-II\Source/os_core.c ****                    OS_STK  *pbos,
1968:..\..\..\..\..\..\Software\uCOS-II\Source/os_core.c ****                    INT16U   id,
1969:..\..\..\..\..\..\Software\uCOS-II\Source/os_core.c ****                    INT32U   stk_size,
1970:..\..\..\..\..\..\Software\uCOS-II\Source/os_core.c ****                    void    *pext,
1971:..\..\..\..\..\..\Software\uCOS-II\Source/os_core.c ****                    INT16U   opt)
1972:..\..\..\..\..\..\Software\uCOS-II\Source/os_core.c **** {
 2612              		.loc 1 1972 0
 2613              		.cfi_startproc
 2614              		@ args = 12, pretend = 0, frame = 32
 2615              		@ frame_needed = 1, uses_anonymous_args = 0
 2616 0000 80B5     		push	{r7, lr}
 2617              		.cfi_def_cfa_offset 8
 2618              		.cfi_offset 7, -8
 2619              		.cfi_offset 14, -4
 2620 0002 88B0     		sub	sp, sp, #32
 2621              		.cfi_def_cfa_offset 40
 2622 0004 00AF     		add	r7, sp, #0
 2623              		.cfi_def_cfa_register 7
 2624 0006 B960     		str	r1, [r7, #8]
 2625 0008 7A60     		str	r2, [r7, #4]
 2626 000a 1900     		movs	r1, r3
ARM GAS  C:\Users\EDULU~1.DES\AppData\Local\Temp\ccKclfbr.s 			page 82


 2627 000c 0F23     		movs	r3, #15
 2628 000e FB18     		adds	r3, r7, r3
 2629 0010 021C     		adds	r2, r0, #0
 2630 0012 1A70     		strb	r2, [r3]
 2631 0014 0C23     		movs	r3, #12
 2632 0016 FB18     		adds	r3, r7, r3
 2633 0018 0A1C     		adds	r2, r1, #0
 2634 001a 1A80     		strh	r2, [r3]
1973:..\..\..\..\..\..\Software\uCOS-II\Source/os_core.c ****     OS_TCB    *ptcb;
1974:..\..\..\..\..\..\Software\uCOS-II\Source/os_core.c **** #if OS_CRITICAL_METHOD == 3u                               /* Allocate storage for CPU status regis
1975:..\..\..\..\..\..\Software\uCOS-II\Source/os_core.c ****     OS_CPU_SR  cpu_sr = 0u;
 2635              		.loc 1 1975 0
 2636 001c 0023     		movs	r3, #0
 2637 001e BB61     		str	r3, [r7, #24]
1976:..\..\..\..\..\..\Software\uCOS-II\Source/os_core.c **** #endif
1977:..\..\..\..\..\..\Software\uCOS-II\Source/os_core.c **** #if OS_TASK_REG_TBL_SIZE > 0u
1978:..\..\..\..\..\..\Software\uCOS-II\Source/os_core.c ****     INT8U      i;
1979:..\..\..\..\..\..\Software\uCOS-II\Source/os_core.c **** #endif
1980:..\..\..\..\..\..\Software\uCOS-II\Source/os_core.c **** #if OS_TASK_CREATE_EXT_EN > 0u
1981:..\..\..\..\..\..\Software\uCOS-II\Source/os_core.c **** #if defined(OS_TLS_TBL_SIZE) && (OS_TLS_TBL_SIZE > 0u)
1982:..\..\..\..\..\..\Software\uCOS-II\Source/os_core.c ****     INT8U      j;
1983:..\..\..\..\..\..\Software\uCOS-II\Source/os_core.c **** #endif
1984:..\..\..\..\..\..\Software\uCOS-II\Source/os_core.c **** #endif
1985:..\..\..\..\..\..\Software\uCOS-II\Source/os_core.c **** 
1986:..\..\..\..\..\..\Software\uCOS-II\Source/os_core.c **** 
1987:..\..\..\..\..\..\Software\uCOS-II\Source/os_core.c ****     OS_ENTER_CRITICAL();
 2638              		.loc 1 1987 0
 2639 0020 FFF7FEFF 		bl	OS_CPU_SR_Save
 2640 0024 0300     		movs	r3, r0
 2641 0026 BB61     		str	r3, [r7, #24]
1988:..\..\..\..\..\..\Software\uCOS-II\Source/os_core.c ****     ptcb = OSTCBFreeList;                                  /* Get a free TCB from the free TCB list
 2642              		.loc 1 1988 0
 2643 0028 6A4B     		ldr	r3, .L139
 2644 002a 1B68     		ldr	r3, [r3]
 2645 002c 7B61     		str	r3, [r7, #20]
1989:..\..\..\..\..\..\Software\uCOS-II\Source/os_core.c ****     if (ptcb != (OS_TCB *)0) {
 2646              		.loc 1 1989 0
 2647 002e 7B69     		ldr	r3, [r7, #20]
 2648 0030 002B     		cmp	r3, #0
 2649 0032 00D1     		bne	.LCB2016
 2650 0034 C4E0     		b	.L134	@long jump
 2651              	.LCB2016:
1990:..\..\..\..\..\..\Software\uCOS-II\Source/os_core.c ****         OSTCBFreeList            = ptcb->OSTCBNext;        /* Update pointer to free TCB list      
 2652              		.loc 1 1990 0
 2653 0036 7B69     		ldr	r3, [r7, #20]
 2654 0038 5A69     		ldr	r2, [r3, #20]
 2655 003a 664B     		ldr	r3, .L139
 2656 003c 1A60     		str	r2, [r3]
1991:..\..\..\..\..\..\Software\uCOS-II\Source/os_core.c ****         OS_EXIT_CRITICAL();
 2657              		.loc 1 1991 0
 2658 003e BB69     		ldr	r3, [r7, #24]
 2659 0040 1800     		movs	r0, r3
 2660 0042 FFF7FEFF 		bl	OS_CPU_SR_Restore
1992:..\..\..\..\..\..\Software\uCOS-II\Source/os_core.c ****         ptcb->OSTCBStkPtr        = ptos;                   /* Load Stack pointer in TCB            
 2661              		.loc 1 1992 0
 2662 0046 7B69     		ldr	r3, [r7, #20]
 2663 0048 BA68     		ldr	r2, [r7, #8]
ARM GAS  C:\Users\EDULU~1.DES\AppData\Local\Temp\ccKclfbr.s 			page 83


 2664 004a 1A60     		str	r2, [r3]
1993:..\..\..\..\..\..\Software\uCOS-II\Source/os_core.c ****         ptcb->OSTCBPrio          = prio;                   /* Load task priority into TCB          
 2665              		.loc 1 1993 0
 2666 004c 7B69     		ldr	r3, [r7, #20]
 2667 004e 0F22     		movs	r2, #15
 2668 0050 BA18     		adds	r2, r7, r2
 2669 0052 2621     		movs	r1, #38
 2670 0054 1278     		ldrb	r2, [r2]
 2671 0056 5A54     		strb	r2, [r3, r1]
1994:..\..\..\..\..\..\Software\uCOS-II\Source/os_core.c ****         ptcb->OSTCBStat          = OS_STAT_RDY;            /* Task is ready to run                 
 2672              		.loc 1 1994 0
 2673 0058 7B69     		ldr	r3, [r7, #20]
 2674 005a 2422     		movs	r2, #36
 2675 005c 0021     		movs	r1, #0
 2676 005e 9954     		strb	r1, [r3, r2]
1995:..\..\..\..\..\..\Software\uCOS-II\Source/os_core.c ****         ptcb->OSTCBStatPend      = OS_STAT_PEND_OK;        /* Clear pend status                    
 2677              		.loc 1 1995 0
 2678 0060 7B69     		ldr	r3, [r7, #20]
 2679 0062 2522     		movs	r2, #37
 2680 0064 0021     		movs	r1, #0
 2681 0066 9954     		strb	r1, [r3, r2]
1996:..\..\..\..\..\..\Software\uCOS-II\Source/os_core.c ****         ptcb->OSTCBDly           = 0u;                     /* Task is not delayed                  
 2682              		.loc 1 1996 0
 2683 0068 7B69     		ldr	r3, [r7, #20]
 2684 006a 0022     		movs	r2, #0
 2685 006c 1A62     		str	r2, [r3, #32]
1997:..\..\..\..\..\..\Software\uCOS-II\Source/os_core.c **** 
1998:..\..\..\..\..\..\Software\uCOS-II\Source/os_core.c **** #if OS_TASK_CREATE_EXT_EN > 0u
1999:..\..\..\..\..\..\Software\uCOS-II\Source/os_core.c ****         ptcb->OSTCBExtPtr        = pext;                   /* Store pointer to TCB extension       
 2686              		.loc 1 1999 0
 2687 006e 7B69     		ldr	r3, [r7, #20]
 2688 0070 FA6A     		ldr	r2, [r7, #44]
 2689 0072 5A60     		str	r2, [r3, #4]
2000:..\..\..\..\..\..\Software\uCOS-II\Source/os_core.c ****         ptcb->OSTCBStkSize       = stk_size;               /* Store stack size                     
 2690              		.loc 1 2000 0
 2691 0074 7B69     		ldr	r3, [r7, #20]
 2692 0076 BA6A     		ldr	r2, [r7, #40]
 2693 0078 DA60     		str	r2, [r3, #12]
2001:..\..\..\..\..\..\Software\uCOS-II\Source/os_core.c ****         ptcb->OSTCBStkBottom     = pbos;                   /* Store pointer to bottom of stack     
 2694              		.loc 1 2001 0
 2695 007a 7B69     		ldr	r3, [r7, #20]
 2696 007c 7A68     		ldr	r2, [r7, #4]
 2697 007e 9A60     		str	r2, [r3, #8]
2002:..\..\..\..\..\..\Software\uCOS-II\Source/os_core.c ****         ptcb->OSTCBOpt           = opt;                    /* Store task options                   
 2698              		.loc 1 2002 0
 2699 0080 7B69     		ldr	r3, [r7, #20]
 2700 0082 3022     		movs	r2, #48
 2701 0084 BA18     		adds	r2, r7, r2
 2702 0086 1288     		ldrh	r2, [r2]
 2703 0088 1A82     		strh	r2, [r3, #16]
2003:..\..\..\..\..\..\Software\uCOS-II\Source/os_core.c ****         ptcb->OSTCBId            = id;                     /* Store task ID                        
 2704              		.loc 1 2003 0
 2705 008a 7B69     		ldr	r3, [r7, #20]
 2706 008c 0C22     		movs	r2, #12
 2707 008e BA18     		adds	r2, r7, r2
 2708 0090 1288     		ldrh	r2, [r2]
 2709 0092 5A82     		strh	r2, [r3, #18]
ARM GAS  C:\Users\EDULU~1.DES\AppData\Local\Temp\ccKclfbr.s 			page 84


2004:..\..\..\..\..\..\Software\uCOS-II\Source/os_core.c **** #else
2005:..\..\..\..\..\..\Software\uCOS-II\Source/os_core.c ****         pext                     = pext;                   /* Prevent compiler warning if not used 
2006:..\..\..\..\..\..\Software\uCOS-II\Source/os_core.c ****         stk_size                 = stk_size;
2007:..\..\..\..\..\..\Software\uCOS-II\Source/os_core.c ****         pbos                     = pbos;
2008:..\..\..\..\..\..\Software\uCOS-II\Source/os_core.c ****         opt                      = opt;
2009:..\..\..\..\..\..\Software\uCOS-II\Source/os_core.c ****         id                       = id;
2010:..\..\..\..\..\..\Software\uCOS-II\Source/os_core.c **** #endif
2011:..\..\..\..\..\..\Software\uCOS-II\Source/os_core.c **** 
2012:..\..\..\..\..\..\Software\uCOS-II\Source/os_core.c **** #if OS_TASK_DEL_EN > 0u
2013:..\..\..\..\..\..\Software\uCOS-II\Source/os_core.c ****         ptcb->OSTCBDelReq        = OS_ERR_NONE;
2014:..\..\..\..\..\..\Software\uCOS-II\Source/os_core.c **** #endif
2015:..\..\..\..\..\..\Software\uCOS-II\Source/os_core.c **** 
2016:..\..\..\..\..\..\Software\uCOS-II\Source/os_core.c **** #if OS_LOWEST_PRIO <= 63u                                         /* Pre-compute X, Y              
2017:..\..\..\..\..\..\Software\uCOS-II\Source/os_core.c ****         ptcb->OSTCBY             = (INT8U)(prio >> 3u);
 2710              		.loc 1 2017 0
 2711 0094 0F23     		movs	r3, #15
 2712 0096 FB18     		adds	r3, r7, r3
 2713 0098 1B78     		ldrb	r3, [r3]
 2714 009a DB08     		lsrs	r3, r3, #3
 2715 009c D9B2     		uxtb	r1, r3
 2716 009e 7B69     		ldr	r3, [r7, #20]
 2717 00a0 2822     		movs	r2, #40
 2718 00a2 9954     		strb	r1, [r3, r2]
2018:..\..\..\..\..\..\Software\uCOS-II\Source/os_core.c ****         ptcb->OSTCBX             = (INT8U)(prio & 0x07u);
 2719              		.loc 1 2018 0
 2720 00a4 0F23     		movs	r3, #15
 2721 00a6 FB18     		adds	r3, r7, r3
 2722 00a8 1B78     		ldrb	r3, [r3]
 2723 00aa 0722     		movs	r2, #7
 2724 00ac 1340     		ands	r3, r2
 2725 00ae D9B2     		uxtb	r1, r3
 2726 00b0 7B69     		ldr	r3, [r7, #20]
 2727 00b2 2722     		movs	r2, #39
 2728 00b4 9954     		strb	r1, [r3, r2]
2019:..\..\..\..\..\..\Software\uCOS-II\Source/os_core.c **** #else                                                             /* Pre-compute X, Y              
2020:..\..\..\..\..\..\Software\uCOS-II\Source/os_core.c ****         ptcb->OSTCBY             = (INT8U)((INT8U)(prio >> 4u) & 0xFFu);
2021:..\..\..\..\..\..\Software\uCOS-II\Source/os_core.c ****         ptcb->OSTCBX             = (INT8U) (prio & 0x0Fu);
2022:..\..\..\..\..\..\Software\uCOS-II\Source/os_core.c **** #endif
2023:..\..\..\..\..\..\Software\uCOS-II\Source/os_core.c ****                                                                   /* Pre-compute BitX and BitY     
2024:..\..\..\..\..\..\Software\uCOS-II\Source/os_core.c ****         ptcb->OSTCBBitY          = (OS_PRIO)(1uL << ptcb->OSTCBY);
 2729              		.loc 1 2024 0
 2730 00b6 7B69     		ldr	r3, [r7, #20]
 2731 00b8 2822     		movs	r2, #40
 2732 00ba 9B5C     		ldrb	r3, [r3, r2]
 2733 00bc 1A00     		movs	r2, r3
 2734 00be 0123     		movs	r3, #1
 2735 00c0 9340     		lsls	r3, r3, r2
 2736 00c2 D9B2     		uxtb	r1, r3
 2737 00c4 7B69     		ldr	r3, [r7, #20]
 2738 00c6 2A22     		movs	r2, #42
 2739 00c8 9954     		strb	r1, [r3, r2]
2025:..\..\..\..\..\..\Software\uCOS-II\Source/os_core.c ****         ptcb->OSTCBBitX          = (OS_PRIO)(1uL << ptcb->OSTCBX);
 2740              		.loc 1 2025 0
 2741 00ca 7B69     		ldr	r3, [r7, #20]
 2742 00cc 2722     		movs	r2, #39
 2743 00ce 9B5C     		ldrb	r3, [r3, r2]
 2744 00d0 1A00     		movs	r2, r3
ARM GAS  C:\Users\EDULU~1.DES\AppData\Local\Temp\ccKclfbr.s 			page 85


 2745 00d2 0123     		movs	r3, #1
 2746 00d4 9340     		lsls	r3, r3, r2
 2747 00d6 D9B2     		uxtb	r1, r3
 2748 00d8 7B69     		ldr	r3, [r7, #20]
 2749 00da 2922     		movs	r2, #41
 2750 00dc 9954     		strb	r1, [r3, r2]
2026:..\..\..\..\..\..\Software\uCOS-II\Source/os_core.c **** 
2027:..\..\..\..\..\..\Software\uCOS-II\Source/os_core.c **** #if (OS_EVENT_EN)
2028:..\..\..\..\..\..\Software\uCOS-II\Source/os_core.c ****         ptcb->OSTCBEventPtr      = (OS_EVENT  *)0;         /* Task is not pending on an  event     
 2751              		.loc 1 2028 0
 2752 00de 7B69     		ldr	r3, [r7, #20]
 2753 00e0 0022     		movs	r2, #0
 2754 00e2 DA61     		str	r2, [r3, #28]
2029:..\..\..\..\..\..\Software\uCOS-II\Source/os_core.c **** #if (OS_EVENT_MULTI_EN > 0u)
2030:..\..\..\..\..\..\Software\uCOS-II\Source/os_core.c ****         ptcb->OSTCBEventMultiPtr = (OS_EVENT **)0;         /* Task is not pending on any events    
2031:..\..\..\..\..\..\Software\uCOS-II\Source/os_core.c **** #endif
2032:..\..\..\..\..\..\Software\uCOS-II\Source/os_core.c **** #endif
2033:..\..\..\..\..\..\Software\uCOS-II\Source/os_core.c **** 
2034:..\..\..\..\..\..\Software\uCOS-II\Source/os_core.c **** #if (OS_FLAG_EN > 0u) && (OS_MAX_FLAGS > 0u) && (OS_TASK_DEL_EN > 0u)
2035:..\..\..\..\..\..\Software\uCOS-II\Source/os_core.c ****         ptcb->OSTCBFlagNode      = (OS_FLAG_NODE *)0;      /* Task is not pending on an event flag 
2036:..\..\..\..\..\..\Software\uCOS-II\Source/os_core.c **** #endif
2037:..\..\..\..\..\..\Software\uCOS-II\Source/os_core.c **** 
2038:..\..\..\..\..\..\Software\uCOS-II\Source/os_core.c **** #if (OS_MBOX_EN > 0u) || ((OS_Q_EN > 0u) && (OS_MAX_QS > 0u))
2039:..\..\..\..\..\..\Software\uCOS-II\Source/os_core.c ****         ptcb->OSTCBMsg           = (void *)0;              /* No message received                  
2040:..\..\..\..\..\..\Software\uCOS-II\Source/os_core.c **** #endif
2041:..\..\..\..\..\..\Software\uCOS-II\Source/os_core.c **** 
2042:..\..\..\..\..\..\Software\uCOS-II\Source/os_core.c **** #if OS_TASK_PROFILE_EN > 0u
2043:..\..\..\..\..\..\Software\uCOS-II\Source/os_core.c ****         ptcb->OSTCBCtxSwCtr      = 0uL;                    /* Initialize profiling variables       
2044:..\..\..\..\..\..\Software\uCOS-II\Source/os_core.c ****         ptcb->OSTCBCyclesStart   = 0uL;
2045:..\..\..\..\..\..\Software\uCOS-II\Source/os_core.c ****         ptcb->OSTCBCyclesTot     = 0uL;
2046:..\..\..\..\..\..\Software\uCOS-II\Source/os_core.c ****         ptcb->OSTCBStkBase       = (OS_STK *)0;
2047:..\..\..\..\..\..\Software\uCOS-II\Source/os_core.c ****         ptcb->OSTCBStkUsed       = 0uL;
2048:..\..\..\..\..\..\Software\uCOS-II\Source/os_core.c **** #endif
2049:..\..\..\..\..\..\Software\uCOS-II\Source/os_core.c **** 
2050:..\..\..\..\..\..\Software\uCOS-II\Source/os_core.c **** #if OS_TASK_NAME_EN > 0u
2051:..\..\..\..\..\..\Software\uCOS-II\Source/os_core.c ****         ptcb->OSTCBTaskName      = (INT8U *)(void *)"?";
2052:..\..\..\..\..\..\Software\uCOS-II\Source/os_core.c **** #endif
2053:..\..\..\..\..\..\Software\uCOS-II\Source/os_core.c **** 
2054:..\..\..\..\..\..\Software\uCOS-II\Source/os_core.c **** #if OS_TASK_REG_TBL_SIZE > 0u                              /* Initialize the task variables        
2055:..\..\..\..\..\..\Software\uCOS-II\Source/os_core.c ****         for (i = 0u; i < OS_TASK_REG_TBL_SIZE; i++) {
 2755              		.loc 1 2055 0
 2756 00e4 1F23     		movs	r3, #31
 2757 00e6 FB18     		adds	r3, r7, r3
 2758 00e8 0022     		movs	r2, #0
 2759 00ea 1A70     		strb	r2, [r3]
 2760 00ec 10E0     		b	.L135
 2761              	.L136:
2056:..\..\..\..\..\..\Software\uCOS-II\Source/os_core.c ****             ptcb->OSTCBRegTbl[i] = 0u;
 2762              		.loc 1 2056 0 discriminator 3
 2763 00ee 1F23     		movs	r3, #31
 2764 00f0 FB18     		adds	r3, r7, r3
 2765 00f2 1B78     		ldrb	r3, [r3]
 2766 00f4 7A69     		ldr	r2, [r7, #20]
 2767 00f6 0A33     		adds	r3, r3, #10
 2768 00f8 9B00     		lsls	r3, r3, #2
 2769 00fa D318     		adds	r3, r2, r3
 2770 00fc 0433     		adds	r3, r3, #4
ARM GAS  C:\Users\EDULU~1.DES\AppData\Local\Temp\ccKclfbr.s 			page 86


 2771 00fe 0022     		movs	r2, #0
 2772 0100 1A60     		str	r2, [r3]
2055:..\..\..\..\..\..\Software\uCOS-II\Source/os_core.c ****             ptcb->OSTCBRegTbl[i] = 0u;
 2773              		.loc 1 2055 0 discriminator 3
 2774 0102 1F23     		movs	r3, #31
 2775 0104 FB18     		adds	r3, r7, r3
 2776 0106 1A78     		ldrb	r2, [r3]
 2777 0108 1F23     		movs	r3, #31
 2778 010a FB18     		adds	r3, r7, r3
 2779 010c 0132     		adds	r2, r2, #1
 2780 010e 1A70     		strb	r2, [r3]
 2781              	.L135:
2055:..\..\..\..\..\..\Software\uCOS-II\Source/os_core.c ****             ptcb->OSTCBRegTbl[i] = 0u;
 2782              		.loc 1 2055 0 is_stmt 0 discriminator 1
 2783 0110 1F23     		movs	r3, #31
 2784 0112 FB18     		adds	r3, r7, r3
 2785 0114 1B78     		ldrb	r3, [r3]
 2786 0116 002B     		cmp	r3, #0
 2787 0118 E9D0     		beq	.L136
2057:..\..\..\..\..\..\Software\uCOS-II\Source/os_core.c ****         }
2058:..\..\..\..\..\..\Software\uCOS-II\Source/os_core.c **** #endif
2059:..\..\..\..\..\..\Software\uCOS-II\Source/os_core.c **** 
2060:..\..\..\..\..\..\Software\uCOS-II\Source/os_core.c ****         OSTCBInitHook(ptcb);
 2788              		.loc 1 2060 0 is_stmt 1
 2789 011a 7B69     		ldr	r3, [r7, #20]
 2790 011c 1800     		movs	r0, r3
 2791 011e FFF7FEFF 		bl	OSTCBInitHook
2061:..\..\..\..\..\..\Software\uCOS-II\Source/os_core.c **** 
2062:..\..\..\..\..\..\Software\uCOS-II\Source/os_core.c ****         OS_ENTER_CRITICAL();
 2792              		.loc 1 2062 0
 2793 0122 FFF7FEFF 		bl	OS_CPU_SR_Save
 2794 0126 0300     		movs	r3, r0
 2795 0128 BB61     		str	r3, [r7, #24]
2063:..\..\..\..\..\..\Software\uCOS-II\Source/os_core.c ****         OSTCBPrioTbl[prio] = ptcb;
 2796              		.loc 1 2063 0
 2797 012a 0F23     		movs	r3, #15
 2798 012c FB18     		adds	r3, r7, r3
 2799 012e 1A78     		ldrb	r2, [r3]
 2800 0130 294B     		ldr	r3, .L139+4
 2801 0132 9200     		lsls	r2, r2, #2
 2802 0134 7969     		ldr	r1, [r7, #20]
 2803 0136 D150     		str	r1, [r2, r3]
2064:..\..\..\..\..\..\Software\uCOS-II\Source/os_core.c ****         OS_EXIT_CRITICAL();
 2804              		.loc 1 2064 0
 2805 0138 BB69     		ldr	r3, [r7, #24]
 2806 013a 1800     		movs	r0, r3
 2807 013c FFF7FEFF 		bl	OS_CPU_SR_Restore
2065:..\..\..\..\..\..\Software\uCOS-II\Source/os_core.c **** 
2066:..\..\..\..\..\..\Software\uCOS-II\Source/os_core.c ****         OSTaskCreateHook(ptcb);                            /* Call user defined hook               
 2808              		.loc 1 2066 0
 2809 0140 7B69     		ldr	r3, [r7, #20]
 2810 0142 1800     		movs	r0, r3
 2811 0144 FFF7FEFF 		bl	OSTaskCreateHook
2067:..\..\..\..\..\..\Software\uCOS-II\Source/os_core.c **** 
2068:..\..\..\..\..\..\Software\uCOS-II\Source/os_core.c **** #if OS_TASK_CREATE_EXT_EN > 0u
2069:..\..\..\..\..\..\Software\uCOS-II\Source/os_core.c **** #if defined(OS_TLS_TBL_SIZE) && (OS_TLS_TBL_SIZE > 0u)
2070:..\..\..\..\..\..\Software\uCOS-II\Source/os_core.c ****         for (j = 0u; j < OS_TLS_TBL_SIZE; j++) {
ARM GAS  C:\Users\EDULU~1.DES\AppData\Local\Temp\ccKclfbr.s 			page 87


2071:..\..\..\..\..\..\Software\uCOS-II\Source/os_core.c ****             ptcb->OSTCBTLSTbl[j] = (OS_TLS)0;
2072:..\..\..\..\..\..\Software\uCOS-II\Source/os_core.c ****         }
2073:..\..\..\..\..\..\Software\uCOS-II\Source/os_core.c ****         OS_TLS_TaskCreate(ptcb);                           /* Call TLS hook                        
2074:..\..\..\..\..\..\Software\uCOS-II\Source/os_core.c **** #endif
2075:..\..\..\..\..\..\Software\uCOS-II\Source/os_core.c **** #endif
2076:..\..\..\..\..\..\Software\uCOS-II\Source/os_core.c **** 
2077:..\..\..\..\..\..\Software\uCOS-II\Source/os_core.c ****         OS_ENTER_CRITICAL();
 2812              		.loc 1 2077 0
 2813 0148 FFF7FEFF 		bl	OS_CPU_SR_Save
 2814 014c 0300     		movs	r3, r0
 2815 014e BB61     		str	r3, [r7, #24]
2078:..\..\..\..\..\..\Software\uCOS-II\Source/os_core.c ****         ptcb->OSTCBNext = OSTCBList;                       /* Link into TCB chain                  
 2816              		.loc 1 2078 0
 2817 0150 224B     		ldr	r3, .L139+8
 2818 0152 1A68     		ldr	r2, [r3]
 2819 0154 7B69     		ldr	r3, [r7, #20]
 2820 0156 5A61     		str	r2, [r3, #20]
2079:..\..\..\..\..\..\Software\uCOS-II\Source/os_core.c ****         ptcb->OSTCBPrev = (OS_TCB *)0;         
 2821              		.loc 1 2079 0
 2822 0158 7B69     		ldr	r3, [r7, #20]
 2823 015a 0022     		movs	r2, #0
 2824 015c 9A61     		str	r2, [r3, #24]
2080:..\..\..\..\..\..\Software\uCOS-II\Source/os_core.c ****         if (OSTCBList != (OS_TCB *)0) {
 2825              		.loc 1 2080 0
 2826 015e 1F4B     		ldr	r3, .L139+8
 2827 0160 1B68     		ldr	r3, [r3]
 2828 0162 002B     		cmp	r3, #0
 2829 0164 03D0     		beq	.L137
2081:..\..\..\..\..\..\Software\uCOS-II\Source/os_core.c ****             OSTCBList->OSTCBPrev = ptcb;
 2830              		.loc 1 2081 0
 2831 0166 1D4B     		ldr	r3, .L139+8
 2832 0168 1B68     		ldr	r3, [r3]
 2833 016a 7A69     		ldr	r2, [r7, #20]
 2834 016c 9A61     		str	r2, [r3, #24]
 2835              	.L137:
2082:..\..\..\..\..\..\Software\uCOS-II\Source/os_core.c ****         }
2083:..\..\..\..\..\..\Software\uCOS-II\Source/os_core.c ****         OSTCBList               = ptcb;
 2836              		.loc 1 2083 0
 2837 016e 1B4B     		ldr	r3, .L139+8
 2838 0170 7A69     		ldr	r2, [r7, #20]
 2839 0172 1A60     		str	r2, [r3]
2084:..\..\..\..\..\..\Software\uCOS-II\Source/os_core.c ****         OSRdyGrp               |= ptcb->OSTCBBitY;         /* Make task ready to run               
 2840              		.loc 1 2084 0
 2841 0174 7B69     		ldr	r3, [r7, #20]
 2842 0176 2A22     		movs	r2, #42
 2843 0178 9A5C     		ldrb	r2, [r3, r2]
 2844 017a 194B     		ldr	r3, .L139+12
 2845 017c 1B78     		ldrb	r3, [r3]
 2846 017e 1343     		orrs	r3, r2
 2847 0180 DAB2     		uxtb	r2, r3
 2848 0182 174B     		ldr	r3, .L139+12
 2849 0184 1A70     		strb	r2, [r3]
2085:..\..\..\..\..\..\Software\uCOS-II\Source/os_core.c ****         OSRdyTbl[ptcb->OSTCBY] |= ptcb->OSTCBBitX;
 2850              		.loc 1 2085 0
 2851 0186 7B69     		ldr	r3, [r7, #20]
 2852 0188 2822     		movs	r2, #40
 2853 018a 9B5C     		ldrb	r3, [r3, r2]
ARM GAS  C:\Users\EDULU~1.DES\AppData\Local\Temp\ccKclfbr.s 			page 88


 2854 018c 1800     		movs	r0, r3
 2855 018e 7B69     		ldr	r3, [r7, #20]
 2856 0190 2822     		movs	r2, #40
 2857 0192 9B5C     		ldrb	r3, [r3, r2]
 2858 0194 1A00     		movs	r2, r3
 2859 0196 134B     		ldr	r3, .L139+16
 2860 0198 9A5C     		ldrb	r2, [r3, r2]
 2861 019a 7B69     		ldr	r3, [r7, #20]
 2862 019c 2921     		movs	r1, #41
 2863 019e 5B5C     		ldrb	r3, [r3, r1]
 2864 01a0 1343     		orrs	r3, r2
 2865 01a2 DAB2     		uxtb	r2, r3
 2866 01a4 0F4B     		ldr	r3, .L139+16
 2867 01a6 1A54     		strb	r2, [r3, r0]
2086:..\..\..\..\..\..\Software\uCOS-II\Source/os_core.c ****         OSTaskCtr++;                                       /* Increment the #tasks counter         
 2868              		.loc 1 2086 0
 2869 01a8 0F4B     		ldr	r3, .L139+20
 2870 01aa 1B78     		ldrb	r3, [r3]
 2871 01ac 0133     		adds	r3, r3, #1
 2872 01ae DAB2     		uxtb	r2, r3
 2873 01b0 0D4B     		ldr	r3, .L139+20
 2874 01b2 1A70     		strb	r2, [r3]
2087:..\..\..\..\..\..\Software\uCOS-II\Source/os_core.c ****         OS_EXIT_CRITICAL();
 2875              		.loc 1 2087 0
 2876 01b4 BB69     		ldr	r3, [r7, #24]
 2877 01b6 1800     		movs	r0, r3
 2878 01b8 FFF7FEFF 		bl	OS_CPU_SR_Restore
2088:..\..\..\..\..\..\Software\uCOS-II\Source/os_core.c ****         return (OS_ERR_NONE);
 2879              		.loc 1 2088 0
 2880 01bc 0023     		movs	r3, #0
 2881 01be 04E0     		b	.L138
 2882              	.L134:
2089:..\..\..\..\..\..\Software\uCOS-II\Source/os_core.c ****     }
2090:..\..\..\..\..\..\Software\uCOS-II\Source/os_core.c ****     OS_EXIT_CRITICAL();
 2883              		.loc 1 2090 0
 2884 01c0 BB69     		ldr	r3, [r7, #24]
 2885 01c2 1800     		movs	r0, r3
 2886 01c4 FFF7FEFF 		bl	OS_CPU_SR_Restore
2091:..\..\..\..\..\..\Software\uCOS-II\Source/os_core.c ****     return (OS_ERR_TASK_NO_MORE_TCB);
 2887              		.loc 1 2091 0
 2888 01c8 4223     		movs	r3, #66
 2889              	.L138:
2092:..\..\..\..\..\..\Software\uCOS-II\Source/os_core.c **** }
 2890              		.loc 1 2092 0
 2891 01ca 1800     		movs	r0, r3
 2892 01cc BD46     		mov	sp, r7
 2893 01ce 08B0     		add	sp, sp, #32
 2894              		@ sp needed
 2895 01d0 80BD     		pop	{r7, pc}
 2896              	.L140:
 2897 01d2 C046     		.align	2
 2898              	.L139:
 2899 01d4 00000000 		.word	OSTCBFreeList
 2900 01d8 00000000 		.word	OSTCBPrioTbl
 2901 01dc 00000000 		.word	OSTCBList
 2902 01e0 00000000 		.word	OSRdyGrp
 2903 01e4 00000000 		.word	OSRdyTbl
ARM GAS  C:\Users\EDULU~1.DES\AppData\Local\Temp\ccKclfbr.s 			page 89


 2904 01e8 00000000 		.word	OSTaskCtr
 2905              		.cfi_endproc
 2906              	.LFE28:
 2907              		.size	OS_TCBInit, .-OS_TCBInit
 2908              		.text
 2909              	.Letext0:
 2910              		.file 2 "..\\..\\..\\..\\..\\..\\Software\\uCOS-II\\Ports\\ARM-Cortex-M0\\Generic\\GNU/os_cpu.h"
 2911              		.file 3 "..\\..\\..\\..\\..\\..\\Software\\uCOS-II\\Source/ucos_ii.h"
 2912              		.section	.debug_info,"",%progbits
 2913              	.Ldebug_info0:
 2914 0000 8D0C0000 		.4byte	0xc8d
 2915 0004 0400     		.2byte	0x4
 2916 0006 00000000 		.4byte	.Ldebug_abbrev0
 2917 000a 04       		.byte	0x4
 2918 000b 01       		.uleb128 0x1
 2919 000c C3000000 		.4byte	.LASF154
 2920 0010 0C       		.byte	0xc
 2921 0011 5E050000 		.4byte	.LASF155
 2922 0015 C2050000 		.4byte	.LASF156
 2923 0019 00000000 		.4byte	.Ldebug_ranges0+0
 2924 001d 00000000 		.4byte	0
 2925 0021 00000000 		.4byte	.Ldebug_line0
 2926 0025 02       		.uleb128 0x2
 2927 0026 01       		.byte	0x1
 2928 0027 06       		.byte	0x6
 2929 0028 E6060000 		.4byte	.LASF0
 2930 002c 02       		.uleb128 0x2
 2931 002d 01       		.byte	0x1
 2932 002e 08       		.byte	0x8
 2933 002f 5A060000 		.4byte	.LASF1
 2934 0033 02       		.uleb128 0x2
 2935 0034 02       		.byte	0x2
 2936 0035 05       		.byte	0x5
 2937 0036 9D040000 		.4byte	.LASF2
 2938 003a 02       		.uleb128 0x2
 2939 003b 02       		.byte	0x2
 2940 003c 07       		.byte	0x7
 2941 003d 00070000 		.4byte	.LASF3
 2942 0041 02       		.uleb128 0x2
 2943 0042 04       		.byte	0x4
 2944 0043 05       		.byte	0x5
 2945 0044 B8040000 		.4byte	.LASF4
 2946 0048 02       		.uleb128 0x2
 2947 0049 04       		.byte	0x4
 2948 004a 07       		.byte	0x7
 2949 004b A6050000 		.4byte	.LASF5
 2950 004f 02       		.uleb128 0x2
 2951 0050 08       		.byte	0x8
 2952 0051 05       		.byte	0x5
 2953 0052 D0030000 		.4byte	.LASF6
 2954 0056 02       		.uleb128 0x2
 2955 0057 08       		.byte	0x8
 2956 0058 07       		.byte	0x7
 2957 0059 FA010000 		.4byte	.LASF7
 2958 005d 03       		.uleb128 0x3
 2959 005e 04       		.byte	0x4
 2960 005f 05       		.byte	0x5
ARM GAS  C:\Users\EDULU~1.DES\AppData\Local\Temp\ccKclfbr.s 			page 90


 2961 0060 696E7400 		.ascii	"int\000"
 2962 0064 02       		.uleb128 0x2
 2963 0065 04       		.byte	0x4
 2964 0066 07       		.byte	0x7
 2965 0067 67000000 		.4byte	.LASF8
 2966 006b 02       		.uleb128 0x2
 2967 006c 08       		.byte	0x8
 2968 006d 04       		.byte	0x4
 2969 006e 53040000 		.4byte	.LASF9
 2970 0072 04       		.uleb128 0x4
 2971 0073 04       		.byte	0x4
 2972 0074 02       		.uleb128 0x2
 2973 0075 04       		.byte	0x4
 2974 0076 07       		.byte	0x7
 2975 0077 98050000 		.4byte	.LASF10
 2976 007b 02       		.uleb128 0x2
 2977 007c 01       		.byte	0x1
 2978 007d 08       		.byte	0x8
 2979 007e 56030000 		.4byte	.LASF11
 2980 0082 05       		.uleb128 0x5
 2981 0083 63010000 		.4byte	.LASF12
 2982 0087 02       		.byte	0x2
 2983 0088 72       		.byte	0x72
 2984 0089 2C000000 		.4byte	0x2c
 2985 008d 05       		.uleb128 0x5
 2986 008e 4D040000 		.4byte	.LASF13
 2987 0092 02       		.byte	0x2
 2988 0093 73       		.byte	0x73
 2989 0094 2C000000 		.4byte	0x2c
 2990 0098 05       		.uleb128 0x5
 2991 0099 13000000 		.4byte	.LASF14
 2992 009d 02       		.byte	0x2
 2993 009e 75       		.byte	0x75
 2994 009f 3A000000 		.4byte	0x3a
 2995 00a3 05       		.uleb128 0x5
 2996 00a4 03040000 		.4byte	.LASF15
 2997 00a8 02       		.byte	0x2
 2998 00a9 77       		.byte	0x77
 2999 00aa 64000000 		.4byte	0x64
 3000 00ae 02       		.uleb128 0x2
 3001 00af 04       		.byte	0x4
 3002 00b0 04       		.byte	0x4
 3003 00b1 D5010000 		.4byte	.LASF16
 3004 00b5 02       		.uleb128 0x2
 3005 00b6 08       		.byte	0x8
 3006 00b7 04       		.byte	0x4
 3007 00b8 35070000 		.4byte	.LASF17
 3008 00bc 05       		.uleb128 0x5
 3009 00bd D3040000 		.4byte	.LASF18
 3010 00c1 02       		.byte	0x2
 3011 00c2 7C       		.byte	0x7c
 3012 00c3 64000000 		.4byte	0x64
 3013 00c7 05       		.uleb128 0x5
 3014 00c8 B8050000 		.4byte	.LASF19
 3015 00cc 02       		.byte	0x2
 3016 00cd 7D       		.byte	0x7d
 3017 00ce 64000000 		.4byte	0x64
ARM GAS  C:\Users\EDULU~1.DES\AppData\Local\Temp\ccKclfbr.s 			page 91


 3018 00d2 06       		.uleb128 0x6
 3019 00d3 CD010000 		.4byte	.LASF20
 3020 00d7 03       		.byte	0x3
 3021 00d8 7201     		.2byte	0x172
 3022 00da 8D000000 		.4byte	0x8d
 3023 00de 07       		.uleb128 0x7
 3024 00df 72040000 		.4byte	.LASF27
 3025 00e3 10       		.byte	0x10
 3026 00e4 03       		.byte	0x3
 3027 00e5 7801     		.2byte	0x178
 3028 00e7 2D010000 		.4byte	0x12d
 3029 00eb 08       		.uleb128 0x8
 3030 00ec 13070000 		.4byte	.LASF21
 3031 00f0 03       		.byte	0x3
 3032 00f1 7901     		.2byte	0x179
 3033 00f3 8D000000 		.4byte	0x8d
 3034 00f7 00       		.byte	0
 3035 00f8 08       		.uleb128 0x8
 3036 00f9 72060000 		.4byte	.LASF22
 3037 00fd 03       		.byte	0x3
 3038 00fe 7A01     		.2byte	0x17a
 3039 0100 72000000 		.4byte	0x72
 3040 0104 04       		.byte	0x4
 3041 0105 08       		.uleb128 0x8
 3042 0106 3C020000 		.4byte	.LASF23
 3043 010a 03       		.byte	0x3
 3044 010b 7B01     		.2byte	0x17b
 3045 010d 98000000 		.4byte	0x98
 3046 0111 08       		.byte	0x8
 3047 0112 08       		.uleb128 0x8
 3048 0113 6B010000 		.4byte	.LASF24
 3049 0117 03       		.byte	0x3
 3050 0118 7C01     		.2byte	0x17c
 3051 011a D2000000 		.4byte	0xd2
 3052 011e 0A       		.byte	0xa
 3053 011f 08       		.uleb128 0x8
 3054 0120 E8010000 		.4byte	.LASF25
 3055 0124 03       		.byte	0x3
 3056 0125 7D01     		.2byte	0x17d
 3057 0127 2D010000 		.4byte	0x12d
 3058 012b 0B       		.byte	0xb
 3059 012c 00       		.byte	0
 3060 012d 09       		.uleb128 0x9
 3061 012e D2000000 		.4byte	0xd2
 3062 0132 3D010000 		.4byte	0x13d
 3063 0136 0A       		.uleb128 0xa
 3064 0137 74000000 		.4byte	0x74
 3065 013b 03       		.byte	0x3
 3066 013c 00       		.byte	0
 3067 013d 06       		.uleb128 0x6
 3068 013e 80000000 		.4byte	.LASF26
 3069 0142 03       		.byte	0x3
 3070 0143 8201     		.2byte	0x182
 3071 0145 DE000000 		.4byte	0xde
 3072 0149 07       		.uleb128 0x7
 3073 014a 65070000 		.4byte	.LASF28
 3074 014e 08       		.byte	0x8
ARM GAS  C:\Users\EDULU~1.DES\AppData\Local\Temp\ccKclfbr.s 			page 92


 3075 014f 03       		.byte	0x3
 3076 0150 2102     		.2byte	0x221
 3077 0152 71010000 		.4byte	0x171
 3078 0156 08       		.uleb128 0x8
 3079 0157 09050000 		.4byte	.LASF29
 3080 015b 03       		.byte	0x3
 3081 015c 2202     		.2byte	0x222
 3082 015e A3000000 		.4byte	0xa3
 3083 0162 00       		.byte	0
 3084 0163 08       		.uleb128 0x8
 3085 0164 45050000 		.4byte	.LASF30
 3086 0168 03       		.byte	0x3
 3087 0169 2302     		.2byte	0x223
 3088 016b A3000000 		.4byte	0xa3
 3089 016f 04       		.byte	0x4
 3090 0170 00       		.byte	0
 3091 0171 06       		.uleb128 0x6
 3092 0172 07000000 		.4byte	.LASF31
 3093 0176 03       		.byte	0x3
 3094 0177 2402     		.2byte	0x224
 3095 0179 49010000 		.4byte	0x149
 3096 017d 07       		.uleb128 0x7
 3097 017e 00000000 		.4byte	.LASF32
 3098 0182 30       		.byte	0x30
 3099 0183 03       		.byte	0x3
 3100 0184 2E02     		.2byte	0x22e
 3101 0186 75020000 		.4byte	0x275
 3102 018a 08       		.uleb128 0x8
 3103 018b 74000000 		.4byte	.LASF33
 3104 018f 03       		.byte	0x3
 3105 0190 2F02     		.2byte	0x22f
 3106 0192 75020000 		.4byte	0x275
 3107 0196 00       		.byte	0
 3108 0197 08       		.uleb128 0x8
 3109 0198 9E030000 		.4byte	.LASF34
 3110 019c 03       		.byte	0x3
 3111 019d 3202     		.2byte	0x232
 3112 019f 72000000 		.4byte	0x72
 3113 01a3 04       		.byte	0x4
 3114 01a4 08       		.uleb128 0x8
 3115 01a5 8E040000 		.4byte	.LASF35
 3116 01a9 03       		.byte	0x3
 3117 01aa 3302     		.2byte	0x233
 3118 01ac 75020000 		.4byte	0x275
 3119 01b0 08       		.byte	0x8
 3120 01b1 08       		.uleb128 0x8
 3121 01b2 E8030000 		.4byte	.LASF36
 3122 01b6 03       		.byte	0x3
 3123 01b7 3402     		.2byte	0x234
 3124 01b9 A3000000 		.4byte	0xa3
 3125 01bd 0C       		.byte	0xc
 3126 01be 08       		.uleb128 0x8
 3127 01bf BA060000 		.4byte	.LASF37
 3128 01c3 03       		.byte	0x3
 3129 01c4 3502     		.2byte	0x235
 3130 01c6 98000000 		.4byte	0x98
 3131 01ca 10       		.byte	0x10
ARM GAS  C:\Users\EDULU~1.DES\AppData\Local\Temp\ccKclfbr.s 			page 93


 3132 01cb 08       		.uleb128 0x8
 3133 01cc DB010000 		.4byte	.LASF38
 3134 01d0 03       		.byte	0x3
 3135 01d1 3602     		.2byte	0x236
 3136 01d3 98000000 		.4byte	0x98
 3137 01d7 12       		.byte	0x12
 3138 01d8 08       		.uleb128 0x8
 3139 01d9 22030000 		.4byte	.LASF39
 3140 01dd 03       		.byte	0x3
 3141 01de 3902     		.2byte	0x239
 3142 01e0 7B020000 		.4byte	0x27b
 3143 01e4 14       		.byte	0x14
 3144 01e5 08       		.uleb128 0x8
 3145 01e6 7A030000 		.4byte	.LASF40
 3146 01ea 03       		.byte	0x3
 3147 01eb 3A02     		.2byte	0x23a
 3148 01ed 7B020000 		.4byte	0x27b
 3149 01f1 18       		.byte	0x18
 3150 01f2 08       		.uleb128 0x8
 3151 01f3 F2060000 		.4byte	.LASF41
 3152 01f7 03       		.byte	0x3
 3153 01f8 4302     		.2byte	0x243
 3154 01fa 81020000 		.4byte	0x281
 3155 01fe 1C       		.byte	0x1c
 3156 01ff 08       		.uleb128 0x8
 3157 0200 11020000 		.4byte	.LASF42
 3158 0204 03       		.byte	0x3
 3159 0205 5502     		.2byte	0x255
 3160 0207 A3000000 		.4byte	0xa3
 3161 020b 20       		.byte	0x20
 3162 020c 08       		.uleb128 0x8
 3163 020d FF040000 		.4byte	.LASF43
 3164 0211 03       		.byte	0x3
 3165 0212 5602     		.2byte	0x256
 3166 0214 8D000000 		.4byte	0x8d
 3167 0218 24       		.byte	0x24
 3168 0219 08       		.uleb128 0x8
 3169 021a F5030000 		.4byte	.LASF44
 3170 021e 03       		.byte	0x3
 3171 021f 5702     		.2byte	0x257
 3172 0221 8D000000 		.4byte	0x8d
 3173 0225 25       		.byte	0x25
 3174 0226 08       		.uleb128 0x8
 3175 0227 E8040000 		.4byte	.LASF45
 3176 022b 03       		.byte	0x3
 3177 022c 5802     		.2byte	0x258
 3178 022e 8D000000 		.4byte	0x8d
 3179 0232 26       		.byte	0x26
 3180 0233 08       		.uleb128 0x8
 3181 0234 40060000 		.4byte	.LASF46
 3182 0238 03       		.byte	0x3
 3183 0239 5A02     		.2byte	0x25a
 3184 023b 8D000000 		.4byte	0x8d
 3185 023f 27       		.byte	0x27
 3186 0240 08       		.uleb128 0x8
 3187 0241 47060000 		.4byte	.LASF47
 3188 0245 03       		.byte	0x3
ARM GAS  C:\Users\EDULU~1.DES\AppData\Local\Temp\ccKclfbr.s 			page 94


 3189 0246 5B02     		.2byte	0x25b
 3190 0248 8D000000 		.4byte	0x8d
 3191 024c 28       		.byte	0x28
 3192 024d 08       		.uleb128 0x8
 3193 024e 31050000 		.4byte	.LASF48
 3194 0252 03       		.byte	0x3
 3195 0253 5C02     		.2byte	0x25c
 3196 0255 D2000000 		.4byte	0xd2
 3197 0259 29       		.byte	0x29
 3198 025a 08       		.uleb128 0x8
 3199 025b 3B050000 		.4byte	.LASF49
 3200 025f 03       		.byte	0x3
 3201 0260 5D02     		.2byte	0x25d
 3202 0262 D2000000 		.4byte	0xd2
 3203 0266 2A       		.byte	0x2a
 3204 0267 08       		.uleb128 0x8
 3205 0268 AE060000 		.4byte	.LASF50
 3206 026c 03       		.byte	0x3
 3207 026d 7002     		.2byte	0x270
 3208 026f 87020000 		.4byte	0x287
 3209 0273 2C       		.byte	0x2c
 3210 0274 00       		.byte	0
 3211 0275 0B       		.uleb128 0xb
 3212 0276 04       		.byte	0x4
 3213 0277 BC000000 		.4byte	0xbc
 3214 027b 0B       		.uleb128 0xb
 3215 027c 04       		.byte	0x4
 3216 027d 7D010000 		.4byte	0x17d
 3217 0281 0B       		.uleb128 0xb
 3218 0282 04       		.byte	0x4
 3219 0283 3D010000 		.4byte	0x13d
 3220 0287 09       		.uleb128 0x9
 3221 0288 A3000000 		.4byte	0xa3
 3222 028c 97020000 		.4byte	0x297
 3223 0290 0A       		.uleb128 0xa
 3224 0291 74000000 		.4byte	0x74
 3225 0295 00       		.byte	0
 3226 0296 00       		.byte	0
 3227 0297 06       		.uleb128 0x6
 3228 0298 5E070000 		.4byte	.LASF51
 3229 029c 03       		.byte	0x3
 3230 029d 7202     		.2byte	0x272
 3231 029f 7D010000 		.4byte	0x17d
 3232 02a3 06       		.uleb128 0x6
 3233 02a4 89000000 		.4byte	.LASF52
 3234 02a8 03       		.byte	0x3
 3235 02a9 7C02     		.2byte	0x27c
 3236 02ab AF020000 		.4byte	0x2af
 3237 02af 0B       		.uleb128 0xb
 3238 02b0 04       		.byte	0x4
 3239 02b1 B5020000 		.4byte	0x2b5
 3240 02b5 0C       		.uleb128 0xc
 3241 02b6 C5020000 		.4byte	0x2c5
 3242 02ba 0D       		.uleb128 0xd
 3243 02bb 72000000 		.4byte	0x72
 3244 02bf 0D       		.uleb128 0xd
 3245 02c0 72000000 		.4byte	0x72
ARM GAS  C:\Users\EDULU~1.DES\AppData\Local\Temp\ccKclfbr.s 			page 95


 3246 02c4 00       		.byte	0
 3247 02c5 07       		.uleb128 0x7
 3248 02c6 A7040000 		.4byte	.LASF53
 3249 02ca 28       		.byte	0x28
 3250 02cb 03       		.byte	0x3
 3251 02cc 8002     		.2byte	0x280
 3252 02ce 62030000 		.4byte	0x362
 3253 02d2 08       		.uleb128 0x8
 3254 02d3 68060000 		.4byte	.LASF54
 3255 02d7 03       		.byte	0x3
 3256 02d8 8102     		.2byte	0x281
 3257 02da 8D000000 		.4byte	0x8d
 3258 02de 00       		.byte	0
 3259 02df 08       		.uleb128 0x8
 3260 02e0 DC020000 		.4byte	.LASF55
 3261 02e4 03       		.byte	0x3
 3262 02e5 8202     		.2byte	0x282
 3263 02e7 A3020000 		.4byte	0x2a3
 3264 02eb 04       		.byte	0x4
 3265 02ec 08       		.uleb128 0x8
 3266 02ed 19050000 		.4byte	.LASF56
 3267 02f1 03       		.byte	0x3
 3268 02f2 8302     		.2byte	0x283
 3269 02f4 72000000 		.4byte	0x72
 3270 02f8 08       		.byte	0x8
 3271 02f9 08       		.uleb128 0x8
 3272 02fa 86070000 		.4byte	.LASF57
 3273 02fe 03       		.byte	0x3
 3274 02ff 8402     		.2byte	0x284
 3275 0301 72000000 		.4byte	0x72
 3276 0305 0C       		.byte	0xc
 3277 0306 08       		.uleb128 0x8
 3278 0307 29000000 		.4byte	.LASF58
 3279 030b 03       		.byte	0x3
 3280 030c 8502     		.2byte	0x285
 3281 030e 72000000 		.4byte	0x72
 3282 0312 10       		.byte	0x10
 3283 0313 08       		.uleb128 0x8
 3284 0314 A3060000 		.4byte	.LASF59
 3285 0318 03       		.byte	0x3
 3286 0319 8602     		.2byte	0x286
 3287 031b A3000000 		.4byte	0xa3
 3288 031f 14       		.byte	0x14
 3289 0320 08       		.uleb128 0x8
 3290 0321 65020000 		.4byte	.LASF60
 3291 0325 03       		.byte	0x3
 3292 0326 8702     		.2byte	0x287
 3293 0328 A3000000 		.4byte	0xa3
 3294 032c 18       		.byte	0x18
 3295 032d 08       		.uleb128 0x8
 3296 032e AC000000 		.4byte	.LASF61
 3297 0332 03       		.byte	0x3
 3298 0333 8802     		.2byte	0x288
 3299 0335 A3000000 		.4byte	0xa3
 3300 0339 1C       		.byte	0x1c
 3301 033a 08       		.uleb128 0x8
 3302 033b 7B040000 		.4byte	.LASF62
ARM GAS  C:\Users\EDULU~1.DES\AppData\Local\Temp\ccKclfbr.s 			page 96


 3303 033f 03       		.byte	0x3
 3304 0340 8A02     		.2byte	0x28a
 3305 0342 62030000 		.4byte	0x362
 3306 0346 20       		.byte	0x20
 3307 0347 08       		.uleb128 0x8
 3308 0348 10050000 		.4byte	.LASF63
 3309 034c 03       		.byte	0x3
 3310 034d 8C02     		.2byte	0x28c
 3311 034f 8D000000 		.4byte	0x8d
 3312 0353 24       		.byte	0x24
 3313 0354 08       		.uleb128 0x8
 3314 0355 88020000 		.4byte	.LASF64
 3315 0359 03       		.byte	0x3
 3316 035a 8D02     		.2byte	0x28d
 3317 035c 8D000000 		.4byte	0x8d
 3318 0360 25       		.byte	0x25
 3319 0361 00       		.byte	0
 3320 0362 0B       		.uleb128 0xb
 3321 0363 04       		.byte	0x4
 3322 0364 8D000000 		.4byte	0x8d
 3323 0368 06       		.uleb128 0x6
 3324 0369 6B040000 		.4byte	.LASF65
 3325 036d 03       		.byte	0x3
 3326 036e 9102     		.2byte	0x291
 3327 0370 C5020000 		.4byte	0x2c5
 3328 0374 07       		.uleb128 0x7
 3329 0375 90070000 		.4byte	.LASF66
 3330 0379 08       		.byte	0x8
 3331 037a 03       		.byte	0x3
 3332 037b 9502     		.2byte	0x295
 3333 037d 9C030000 		.4byte	0x39c
 3334 0381 08       		.uleb128 0x8
 3335 0382 A4010000 		.4byte	.LASF67
 3336 0386 03       		.byte	0x3
 3337 0387 9602     		.2byte	0x296
 3338 0389 9C030000 		.4byte	0x39c
 3339 038d 00       		.byte	0
 3340 038e 08       		.uleb128 0x8
 3341 038f 28070000 		.4byte	.LASF68
 3342 0393 03       		.byte	0x3
 3343 0394 9702     		.2byte	0x297
 3344 0396 98000000 		.4byte	0x98
 3345 039a 04       		.byte	0x4
 3346 039b 00       		.byte	0
 3347 039c 0B       		.uleb128 0xb
 3348 039d 04       		.byte	0x4
 3349 039e 68030000 		.4byte	0x368
 3350 03a2 06       		.uleb128 0x6
 3351 03a3 0A040000 		.4byte	.LASF69
 3352 03a7 03       		.byte	0x3
 3353 03a8 9802     		.2byte	0x298
 3354 03aa 74030000 		.4byte	0x374
 3355 03ae 0E       		.uleb128 0xe
 3356 03af 5C010000 		.4byte	.LASF70
 3357 03b3 01       		.byte	0x1
 3358 03b4 3F02     		.2byte	0x23f
 3359 03b6 00000000 		.4byte	.LFB1
ARM GAS  C:\Users\EDULU~1.DES\AppData\Local\Temp\ccKclfbr.s 			page 97


 3360 03ba 2E000000 		.4byte	.LFE1-.LFB1
 3361 03be 01       		.uleb128 0x1
 3362 03bf 9C       		.byte	0x9c
 3363 03c0 0F       		.uleb128 0xf
 3364 03c1 B8000000 		.4byte	.LASF71
 3365 03c5 01       		.byte	0x1
 3366 03c6 8F02     		.2byte	0x28f
 3367 03c8 00000000 		.4byte	.LFB2
 3368 03cc 30000000 		.4byte	.LFE2-.LFB2
 3369 03d0 01       		.uleb128 0x1
 3370 03d1 9C       		.byte	0x9c
 3371 03d2 10       		.uleb128 0x10
 3372 03d3 5D000000 		.4byte	.LASF72
 3373 03d7 01       		.byte	0x1
 3374 03d8 AB02     		.2byte	0x2ab
 3375 03da 00000000 		.4byte	.LFB3
 3376 03de 9C000000 		.4byte	.LFE3-.LFB3
 3377 03e2 01       		.uleb128 0x1
 3378 03e3 9C       		.byte	0x9c
 3379 03e4 F8030000 		.4byte	0x3f8
 3380 03e8 11       		.uleb128 0x11
 3381 03e9 F3010000 		.4byte	.LASF74
 3382 03ed 01       		.byte	0x1
 3383 03ee AE02     		.2byte	0x2ae
 3384 03f0 C7000000 		.4byte	0xc7
 3385 03f4 02       		.uleb128 0x2
 3386 03f5 91       		.byte	0x91
 3387 03f6 74       		.sleb128 -12
 3388 03f7 00       		.byte	0
 3389 03f8 10       		.uleb128 0x10
 3390 03f9 65030000 		.4byte	.LASF73
 3391 03fd 01       		.byte	0x1
 3392 03fe FB02     		.2byte	0x2fb
 3393 0400 00000000 		.4byte	.LFB4
 3394 0404 54000000 		.4byte	.LFE4-.LFB4
 3395 0408 01       		.uleb128 0x1
 3396 0409 9C       		.byte	0x9c
 3397 040a 1E040000 		.4byte	0x41e
 3398 040e 11       		.uleb128 0x11
 3399 040f F3010000 		.4byte	.LASF74
 3400 0413 01       		.byte	0x1
 3401 0414 FE02     		.2byte	0x2fe
 3402 0416 C7000000 		.4byte	0xc7
 3403 041a 02       		.uleb128 0x2
 3404 041b 91       		.byte	0x91
 3405 041c 74       		.sleb128 -12
 3406 041d 00       		.byte	0
 3407 041e 10       		.uleb128 0x10
 3408 041f 33000000 		.4byte	.LASF75
 3409 0423 01       		.byte	0x1
 3410 0424 2003     		.2byte	0x320
 3411 0426 00000000 		.4byte	.LFB5
 3412 042a 7C000000 		.4byte	.LFE5-.LFB5
 3413 042e 01       		.uleb128 0x1
 3414 042f 9C       		.byte	0x9c
 3415 0430 44040000 		.4byte	0x444
 3416 0434 11       		.uleb128 0x11
ARM GAS  C:\Users\EDULU~1.DES\AppData\Local\Temp\ccKclfbr.s 			page 98


 3417 0435 F3010000 		.4byte	.LASF74
 3418 0439 01       		.byte	0x1
 3419 043a 2303     		.2byte	0x323
 3420 043c C7000000 		.4byte	0xc7
 3421 0440 02       		.uleb128 0x2
 3422 0441 91       		.byte	0x91
 3423 0442 74       		.sleb128 -12
 3424 0443 00       		.byte	0
 3425 0444 0E       		.uleb128 0xe
 3426 0445 7D060000 		.4byte	.LASF76
 3427 0449 01       		.byte	0x1
 3428 044a 5203     		.2byte	0x352
 3429 044c 00000000 		.4byte	.LFB6
 3430 0450 54000000 		.4byte	.LFE6-.LFB6
 3431 0454 01       		.uleb128 0x1
 3432 0455 9C       		.byte	0x9c
 3433 0456 10       		.uleb128 0x10
 3434 0457 51010000 		.4byte	.LASF77
 3435 045b 01       		.byte	0x1
 3436 045c 7203     		.2byte	0x372
 3437 045e 00000000 		.4byte	.LFB7
 3438 0462 60000000 		.4byte	.LFE7-.LFB7
 3439 0466 01       		.uleb128 0x1
 3440 0467 9C       		.byte	0x9c
 3441 0468 7C040000 		.4byte	0x47c
 3442 046c 11       		.uleb128 0x11
 3443 046d F3010000 		.4byte	.LASF74
 3444 0471 01       		.byte	0x1
 3445 0472 7503     		.2byte	0x375
 3446 0474 C7000000 		.4byte	0xc7
 3447 0478 02       		.uleb128 0x2
 3448 0479 91       		.byte	0x91
 3449 047a 74       		.sleb128 -12
 3450 047b 00       		.byte	0
 3451 047c 10       		.uleb128 0x10
 3452 047d 46030000 		.4byte	.LASF78
 3453 0481 01       		.byte	0x1
 3454 0482 9403     		.2byte	0x394
 3455 0484 00000000 		.4byte	.LFB8
 3456 0488 58010000 		.4byte	.LFE8-.LFB8
 3457 048c 01       		.uleb128 0x1
 3458 048d 9C       		.byte	0x9c
 3459 048e C0040000 		.4byte	0x4c0
 3460 0492 11       		.uleb128 0x11
 3461 0493 A1050000 		.4byte	.LASF79
 3462 0497 01       		.byte	0x1
 3463 0498 9603     		.2byte	0x396
 3464 049a C0040000 		.4byte	0x4c0
 3465 049e 02       		.uleb128 0x2
 3466 049f 91       		.byte	0x91
 3467 04a0 74       		.sleb128 -12
 3468 04a1 11       		.uleb128 0x11
 3469 04a2 17040000 		.4byte	.LASF80
 3470 04a6 01       		.byte	0x1
 3471 04a7 9803     		.2byte	0x398
 3472 04a9 82000000 		.4byte	0x82
 3473 04ad 02       		.uleb128 0x2
ARM GAS  C:\Users\EDULU~1.DES\AppData\Local\Temp\ccKclfbr.s 			page 99


 3474 04ae 91       		.byte	0x91
 3475 04af 73       		.sleb128 -13
 3476 04b0 11       		.uleb128 0x11
 3477 04b1 F3010000 		.4byte	.LASF74
 3478 04b5 01       		.byte	0x1
 3479 04b6 9B03     		.2byte	0x39b
 3480 04b8 C7000000 		.4byte	0xc7
 3481 04bc 02       		.uleb128 0x2
 3482 04bd 91       		.byte	0x91
 3483 04be 6C       		.sleb128 -20
 3484 04bf 00       		.byte	0
 3485 04c0 0B       		.uleb128 0xb
 3486 04c1 04       		.byte	0x4
 3487 04c2 97020000 		.4byte	0x297
 3488 04c6 12       		.uleb128 0x12
 3489 04c7 54070000 		.4byte	.LASF157
 3490 04cb 01       		.byte	0x1
 3491 04cc EA03     		.2byte	0x3ea
 3492 04ce 98000000 		.4byte	0x98
 3493 04d2 00000000 		.4byte	.LFB9
 3494 04d6 10000000 		.4byte	.LFE9-.LFB9
 3495 04da 01       		.uleb128 0x1
 3496 04db 9C       		.byte	0x9c
 3497 04dc 13       		.uleb128 0x13
 3498 04dd 30060000 		.4byte	.LASF106
 3499 04e1 01       		.byte	0x1
 3500 04e2 1F04     		.2byte	0x41f
 3501 04e4 8D000000 		.4byte	0x8d
 3502 04e8 00000000 		.4byte	.LFB10
 3503 04ec F4000000 		.4byte	.LFE10-.LFB10
 3504 04f0 01       		.uleb128 0x1
 3505 04f1 9C       		.byte	0x9c
 3506 04f2 6B050000 		.4byte	0x56b
 3507 04f6 14       		.uleb128 0x14
 3508 04f7 35040000 		.4byte	.LASF81
 3509 04fb 01       		.byte	0x1
 3510 04fc 1F04     		.2byte	0x41f
 3511 04fe 81020000 		.4byte	0x281
 3512 0502 02       		.uleb128 0x2
 3513 0503 91       		.byte	0x91
 3514 0504 6C       		.sleb128 -20
 3515 0505 14       		.uleb128 0x14
 3516 0506 4B000000 		.4byte	.LASF82
 3517 050a 01       		.byte	0x1
 3518 050b 2004     		.2byte	0x420
 3519 050d 72000000 		.4byte	0x72
 3520 0511 02       		.uleb128 0x2
 3521 0512 91       		.byte	0x91
 3522 0513 68       		.sleb128 -24
 3523 0514 15       		.uleb128 0x15
 3524 0515 6D736B00 		.ascii	"msk\000"
 3525 0519 01       		.byte	0x1
 3526 051a 2104     		.2byte	0x421
 3527 051c 8D000000 		.4byte	0x8d
 3528 0520 02       		.uleb128 0x2
 3529 0521 91       		.byte	0x91
 3530 0522 67       		.sleb128 -25
ARM GAS  C:\Users\EDULU~1.DES\AppData\Local\Temp\ccKclfbr.s 			page 100


 3531 0523 14       		.uleb128 0x14
 3532 0524 5B030000 		.4byte	.LASF83
 3533 0528 01       		.byte	0x1
 3534 0529 2204     		.2byte	0x422
 3535 052b 8D000000 		.4byte	0x8d
 3536 052f 02       		.uleb128 0x2
 3537 0530 91       		.byte	0x91
 3538 0531 66       		.sleb128 -26
 3539 0532 11       		.uleb128 0x11
 3540 0533 A1050000 		.4byte	.LASF79
 3541 0537 01       		.byte	0x1
 3542 0538 2404     		.2byte	0x424
 3543 053a C0040000 		.4byte	0x4c0
 3544 053e 02       		.uleb128 0x2
 3545 053f 91       		.byte	0x91
 3546 0540 70       		.sleb128 -16
 3547 0541 16       		.uleb128 0x16
 3548 0542 7900     		.ascii	"y\000"
 3549 0544 01       		.byte	0x1
 3550 0545 2504     		.2byte	0x425
 3551 0547 8D000000 		.4byte	0x8d
 3552 054b 02       		.uleb128 0x2
 3553 054c 91       		.byte	0x91
 3554 054d 77       		.sleb128 -9
 3555 054e 16       		.uleb128 0x16
 3556 054f 7800     		.ascii	"x\000"
 3557 0551 01       		.byte	0x1
 3558 0552 2604     		.2byte	0x426
 3559 0554 8D000000 		.4byte	0x8d
 3560 0558 02       		.uleb128 0x2
 3561 0559 91       		.byte	0x91
 3562 055a 76       		.sleb128 -10
 3563 055b 11       		.uleb128 0x11
 3564 055c 51030000 		.4byte	.LASF84
 3565 0560 01       		.byte	0x1
 3566 0561 2704     		.2byte	0x427
 3567 0563 8D000000 		.4byte	0x8d
 3568 0567 02       		.uleb128 0x2
 3569 0568 91       		.byte	0x91
 3570 0569 75       		.sleb128 -11
 3571 056a 00       		.byte	0
 3572 056b 17       		.uleb128 0x17
 3573 056c 76010000 		.4byte	.LASF85
 3574 0570 01       		.byte	0x1
 3575 0571 6A04     		.2byte	0x46a
 3576 0573 00000000 		.4byte	.LFB11
 3577 0577 BC000000 		.4byte	.LFE11-.LFB11
 3578 057b 01       		.uleb128 0x1
 3579 057c 9C       		.byte	0x9c
 3580 057d 9E050000 		.4byte	0x59e
 3581 0581 14       		.uleb128 0x14
 3582 0582 35040000 		.4byte	.LASF81
 3583 0586 01       		.byte	0x1
 3584 0587 6A04     		.2byte	0x46a
 3585 0589 81020000 		.4byte	0x281
 3586 058d 02       		.uleb128 0x2
 3587 058e 91       		.byte	0x91
ARM GAS  C:\Users\EDULU~1.DES\AppData\Local\Temp\ccKclfbr.s 			page 101


 3588 058f 6C       		.sleb128 -20
 3589 0590 16       		.uleb128 0x16
 3590 0591 7900     		.ascii	"y\000"
 3591 0593 01       		.byte	0x1
 3592 0594 6C04     		.2byte	0x46c
 3593 0596 8D000000 		.4byte	0x8d
 3594 059a 02       		.uleb128 0x2
 3595 059b 91       		.byte	0x91
 3596 059c 77       		.sleb128 -9
 3597 059d 00       		.byte	0
 3598 059e 17       		.uleb128 0x17
 3599 059f 47020000 		.4byte	.LASF86
 3600 05a3 01       		.byte	0x1
 3601 05a4 B704     		.2byte	0x4b7
 3602 05a6 00000000 		.4byte	.LFB12
 3603 05aa 72000000 		.4byte	.LFE12-.LFB12
 3604 05ae 01       		.uleb128 0x1
 3605 05af 9C       		.byte	0x9c
 3606 05b0 E0050000 		.4byte	0x5e0
 3607 05b4 14       		.uleb128 0x14
 3608 05b5 A1050000 		.4byte	.LASF79
 3609 05b9 01       		.byte	0x1
 3610 05ba B704     		.2byte	0x4b7
 3611 05bc C0040000 		.4byte	0x4c0
 3612 05c0 02       		.uleb128 0x2
 3613 05c1 91       		.byte	0x91
 3614 05c2 6C       		.sleb128 -20
 3615 05c3 14       		.uleb128 0x14
 3616 05c4 35040000 		.4byte	.LASF81
 3617 05c8 01       		.byte	0x1
 3618 05c9 B804     		.2byte	0x4b8
 3619 05cb 81020000 		.4byte	0x281
 3620 05cf 02       		.uleb128 0x2
 3621 05d0 91       		.byte	0x91
 3622 05d1 68       		.sleb128 -24
 3623 05d2 16       		.uleb128 0x16
 3624 05d3 7900     		.ascii	"y\000"
 3625 05d5 01       		.byte	0x1
 3626 05d6 BA04     		.2byte	0x4ba
 3627 05d8 8D000000 		.4byte	0x8d
 3628 05dc 02       		.uleb128 0x2
 3629 05dd 91       		.byte	0x91
 3630 05de 77       		.sleb128 -9
 3631 05df 00       		.byte	0
 3632 05e0 17       		.uleb128 0x17
 3633 05e1 89030000 		.4byte	.LASF87
 3634 05e5 01       		.byte	0x1
 3635 05e6 FE04     		.2byte	0x4fe
 3636 05e8 00000000 		.4byte	.LFB13
 3637 05ec 46000000 		.4byte	.LFE13-.LFB13
 3638 05f0 01       		.uleb128 0x1
 3639 05f1 9C       		.byte	0x9c
 3640 05f2 13060000 		.4byte	0x613
 3641 05f6 14       		.uleb128 0x14
 3642 05f7 35040000 		.4byte	.LASF81
 3643 05fb 01       		.byte	0x1
 3644 05fc FE04     		.2byte	0x4fe
ARM GAS  C:\Users\EDULU~1.DES\AppData\Local\Temp\ccKclfbr.s 			page 102


 3645 05fe 81020000 		.4byte	0x281
 3646 0602 02       		.uleb128 0x2
 3647 0603 91       		.byte	0x91
 3648 0604 6C       		.sleb128 -20
 3649 0605 16       		.uleb128 0x16
 3650 0606 6900     		.ascii	"i\000"
 3651 0608 01       		.byte	0x1
 3652 0609 0005     		.2byte	0x500
 3653 060b 8D000000 		.4byte	0x8d
 3654 060f 02       		.uleb128 0x2
 3655 0610 91       		.byte	0x91
 3656 0611 77       		.sleb128 -9
 3657 0612 00       		.byte	0
 3658 0613 18       		.uleb128 0x18
 3659 0614 EA020000 		.4byte	.LASF91
 3660 0618 01       		.byte	0x1
 3661 0619 1705     		.2byte	0x517
 3662 061b 00000000 		.4byte	.LFB14
 3663 061f 98000000 		.4byte	.LFE14-.LFB14
 3664 0623 01       		.uleb128 0x1
 3665 0624 9C       		.byte	0x9c
 3666 0625 65060000 		.4byte	0x665
 3667 0629 16       		.uleb128 0x16
 3668 062a 697800   		.ascii	"ix\000"
 3669 062d 01       		.byte	0x1
 3670 062e 1B05     		.2byte	0x51b
 3671 0630 98000000 		.4byte	0x98
 3672 0634 02       		.uleb128 0x2
 3673 0635 91       		.byte	0x91
 3674 0636 76       		.sleb128 -10
 3675 0637 11       		.uleb128 0x11
 3676 0638 A4000000 		.4byte	.LASF88
 3677 063c 01       		.byte	0x1
 3678 063d 1C05     		.2byte	0x51c
 3679 063f 98000000 		.4byte	0x98
 3680 0643 02       		.uleb128 0x2
 3681 0644 91       		.byte	0x91
 3682 0645 74       		.sleb128 -12
 3683 0646 11       		.uleb128 0x11
 3684 0647 B5030000 		.4byte	.LASF89
 3685 064b 01       		.byte	0x1
 3686 064c 1D05     		.2byte	0x51d
 3687 064e 81020000 		.4byte	0x281
 3688 0652 02       		.uleb128 0x2
 3689 0653 91       		.byte	0x91
 3690 0654 70       		.sleb128 -16
 3691 0655 11       		.uleb128 0x11
 3692 0656 BD030000 		.4byte	.LASF90
 3693 065a 01       		.byte	0x1
 3694 065b 1E05     		.2byte	0x51e
 3695 065d 81020000 		.4byte	0x281
 3696 0661 02       		.uleb128 0x2
 3697 0662 91       		.byte	0x91
 3698 0663 6C       		.sleb128 -20
 3699 0664 00       		.byte	0
 3700 0665 19       		.uleb128 0x19
 3701 0666 4E060000 		.4byte	.LASF93
ARM GAS  C:\Users\EDULU~1.DES\AppData\Local\Temp\ccKclfbr.s 			page 103


 3702 066a 01       		.byte	0x1
 3703 066b 4B05     		.2byte	0x54b
 3704 066d 00000000 		.4byte	.LFB15
 3705 0671 78000000 		.4byte	.LFE15-.LFB15
 3706 0675 01       		.uleb128 0x1
 3707 0676 9C       		.byte	0x9c
 3708 0677 1A       		.uleb128 0x1a
 3709 0678 95010000 		.4byte	.LASF92
 3710 067c 01       		.byte	0x1
 3711 067d 7705     		.2byte	0x577
 3712 067f 00000000 		.4byte	.LFB16
 3713 0683 68000000 		.4byte	.LFE16-.LFB16
 3714 0687 01       		.uleb128 0x1
 3715 0688 9C       		.byte	0x9c
 3716 0689 9B060000 		.4byte	0x69b
 3717 068d 16       		.uleb128 0x16
 3718 068e 6900     		.ascii	"i\000"
 3719 0690 01       		.byte	0x1
 3720 0691 7905     		.2byte	0x579
 3721 0693 8D000000 		.4byte	0x8d
 3722 0697 02       		.uleb128 0x2
 3723 0698 91       		.byte	0x91
 3724 0699 77       		.sleb128 -9
 3725 069a 00       		.byte	0
 3726 069b 1B       		.uleb128 0x1b
 3727 069c 05030000 		.4byte	.LASF94
 3728 06a0 01       		.byte	0x1
 3729 06a1 9605     		.2byte	0x596
 3730 06a3 00000000 		.4byte	.LFB17
 3731 06a7 3C000000 		.4byte	.LFE17-.LFB17
 3732 06ab 01       		.uleb128 0x1
 3733 06ac 9C       		.byte	0x9c
 3734 06ad 1B       		.uleb128 0x1b
 3735 06ae CC060000 		.4byte	.LASF95
 3736 06b2 01       		.byte	0x1
 3737 06b3 D405     		.2byte	0x5d4
 3738 06b5 00000000 		.4byte	.LFB18
 3739 06b9 3C000000 		.4byte	.LFE18-.LFB18
 3740 06bd 01       		.uleb128 0x1
 3741 06be 9C       		.byte	0x9c
 3742 06bf 18       		.uleb128 0x18
 3743 06c0 21040000 		.4byte	.LASF96
 3744 06c4 01       		.byte	0x1
 3745 06c5 1206     		.2byte	0x612
 3746 06c7 00000000 		.4byte	.LFB19
 3747 06cb BC000000 		.4byte	.LFE19-.LFB19
 3748 06cf 01       		.uleb128 0x1
 3749 06d0 9C       		.byte	0x9c
 3750 06d1 11070000 		.4byte	0x711
 3751 06d5 16       		.uleb128 0x16
 3752 06d6 697800   		.ascii	"ix\000"
 3753 06d9 01       		.byte	0x1
 3754 06da 1406     		.2byte	0x614
 3755 06dc 8D000000 		.4byte	0x8d
 3756 06e0 02       		.uleb128 0x2
 3757 06e1 91       		.byte	0x91
 3758 06e2 77       		.sleb128 -9
ARM GAS  C:\Users\EDULU~1.DES\AppData\Local\Temp\ccKclfbr.s 			page 104


 3759 06e3 11       		.uleb128 0x11
 3760 06e4 A4000000 		.4byte	.LASF88
 3761 06e8 01       		.byte	0x1
 3762 06e9 1506     		.2byte	0x615
 3763 06eb 8D000000 		.4byte	0x8d
 3764 06ef 02       		.uleb128 0x2
 3765 06f0 91       		.byte	0x91
 3766 06f1 76       		.sleb128 -10
 3767 06f2 11       		.uleb128 0x11
 3768 06f3 3C040000 		.4byte	.LASF97
 3769 06f7 01       		.byte	0x1
 3770 06f8 1606     		.2byte	0x616
 3771 06fa C0040000 		.4byte	0x4c0
 3772 06fe 02       		.uleb128 0x2
 3773 06ff 91       		.byte	0x91
 3774 0700 70       		.sleb128 -16
 3775 0701 11       		.uleb128 0x11
 3776 0702 42040000 		.4byte	.LASF98
 3777 0706 01       		.byte	0x1
 3778 0707 1706     		.2byte	0x617
 3779 0709 C0040000 		.4byte	0x4c0
 3780 070d 02       		.uleb128 0x2
 3781 070e 91       		.byte	0x91
 3782 070f 6C       		.sleb128 -20
 3783 0710 00       		.byte	0
 3784 0711 17       		.uleb128 0x17
 3785 0712 3C070000 		.4byte	.LASF99
 3786 0716 01       		.byte	0x1
 3787 0717 4206     		.2byte	0x642
 3788 0719 00000000 		.4byte	.LFB20
 3789 071d 34000000 		.4byte	.LFE20-.LFB20
 3790 0721 01       		.uleb128 0x1
 3791 0722 9C       		.byte	0x9c
 3792 0723 46070000 		.4byte	0x746
 3793 0727 14       		.uleb128 0x14
 3794 0728 C8020000 		.4byte	.LASF100
 3795 072c 01       		.byte	0x1
 3796 072d 4206     		.2byte	0x642
 3797 072f 62030000 		.4byte	0x362
 3798 0733 02       		.uleb128 0x2
 3799 0734 91       		.byte	0x91
 3800 0735 74       		.sleb128 -12
 3801 0736 14       		.uleb128 0x14
 3802 0737 1C040000 		.4byte	.LASF101
 3803 073b 01       		.byte	0x1
 3804 073c 4306     		.2byte	0x643
 3805 073e 98000000 		.4byte	0x98
 3806 0742 02       		.uleb128 0x2
 3807 0743 91       		.byte	0x91
 3808 0744 72       		.sleb128 -14
 3809 0745 00       		.byte	0
 3810 0746 17       		.uleb128 0x17
 3811 0747 C5030000 		.4byte	.LASF102
 3812 074b 01       		.byte	0x1
 3813 074c 6306     		.2byte	0x663
 3814 074e 00000000 		.4byte	.LFB21
 3815 0752 3A000000 		.4byte	.LFE21-.LFB21
ARM GAS  C:\Users\EDULU~1.DES\AppData\Local\Temp\ccKclfbr.s 			page 105


 3816 0756 01       		.uleb128 0x1
 3817 0757 9C       		.byte	0x9c
 3818 0758 8A070000 		.4byte	0x78a
 3819 075c 14       		.uleb128 0x14
 3820 075d C8020000 		.4byte	.LASF100
 3821 0761 01       		.byte	0x1
 3822 0762 6306     		.2byte	0x663
 3823 0764 62030000 		.4byte	0x362
 3824 0768 02       		.uleb128 0x2
 3825 0769 91       		.byte	0x91
 3826 076a 74       		.sleb128 -12
 3827 076b 14       		.uleb128 0x14
 3828 076c 30040000 		.4byte	.LASF103
 3829 0770 01       		.byte	0x1
 3830 0771 6406     		.2byte	0x664
 3831 0773 62030000 		.4byte	0x362
 3832 0777 02       		.uleb128 0x2
 3833 0778 91       		.byte	0x91
 3834 0779 70       		.sleb128 -16
 3835 077a 14       		.uleb128 0x14
 3836 077b 1C040000 		.4byte	.LASF101
 3837 077f 01       		.byte	0x1
 3838 0780 6506     		.2byte	0x665
 3839 0782 98000000 		.4byte	0x98
 3840 0786 02       		.uleb128 0x2
 3841 0787 91       		.byte	0x91
 3842 0788 6E       		.sleb128 -18
 3843 0789 00       		.byte	0
 3844 078a 10       		.uleb128 0x10
 3845 078b A7020000 		.4byte	.LASF104
 3846 078f 01       		.byte	0x1
 3847 0790 7E06     		.2byte	0x67e
 3848 0792 00000000 		.4byte	.LFB22
 3849 0796 7C000000 		.4byte	.LFE22-.LFB22
 3850 079a 01       		.uleb128 0x1
 3851 079b 9C       		.byte	0x9c
 3852 079c B0070000 		.4byte	0x7b0
 3853 07a0 11       		.uleb128 0x11
 3854 07a1 F3010000 		.4byte	.LASF74
 3855 07a5 01       		.byte	0x1
 3856 07a6 8106     		.2byte	0x681
 3857 07a8 C7000000 		.4byte	0xc7
 3858 07ac 02       		.uleb128 0x2
 3859 07ad 91       		.byte	0x91
 3860 07ae 74       		.sleb128 -12
 3861 07af 00       		.byte	0
 3862 07b0 1A       		.uleb128 0x1a
 3863 07b1 5F040000 		.4byte	.LASF105
 3864 07b5 01       		.byte	0x1
 3865 07b6 AF06     		.2byte	0x6af
 3866 07b8 00000000 		.4byte	.LFB23
 3867 07bc 4C000000 		.4byte	.LFE23-.LFB23
 3868 07c0 01       		.uleb128 0x1
 3869 07c1 9C       		.byte	0x9c
 3870 07c2 D4070000 		.4byte	0x7d4
 3871 07c6 16       		.uleb128 0x16
 3872 07c7 7900     		.ascii	"y\000"
ARM GAS  C:\Users\EDULU~1.DES\AppData\Local\Temp\ccKclfbr.s 			page 106


 3873 07c9 01       		.byte	0x1
 3874 07ca B206     		.2byte	0x6b2
 3875 07cc 8D000000 		.4byte	0x8d
 3876 07d0 02       		.uleb128 0x2
 3877 07d1 91       		.byte	0x91
 3878 07d2 77       		.sleb128 -9
 3879 07d3 00       		.byte	0
 3880 07d4 1C       		.uleb128 0x1c
 3881 07d5 BE020000 		.4byte	.LASF107
 3882 07d9 01       		.byte	0x1
 3883 07da DC06     		.2byte	0x6dc
 3884 07dc 8D000000 		.4byte	0x8d
 3885 07e0 00000000 		.4byte	.LFB24
 3886 07e4 46000000 		.4byte	.LFE24-.LFB24
 3887 07e8 01       		.uleb128 0x1
 3888 07e9 9C       		.byte	0x9c
 3889 07ea 0D080000 		.4byte	0x80d
 3890 07ee 14       		.uleb128 0x14
 3891 07ef 30040000 		.4byte	.LASF103
 3892 07f3 01       		.byte	0x1
 3893 07f4 DC06     		.2byte	0x6dc
 3894 07f6 62030000 		.4byte	0x362
 3895 07fa 02       		.uleb128 0x2
 3896 07fb 91       		.byte	0x91
 3897 07fc 6C       		.sleb128 -20
 3898 07fd 16       		.uleb128 0x16
 3899 07fe 6C656E00 		.ascii	"len\000"
 3900 0802 01       		.byte	0x1
 3901 0803 DE06     		.2byte	0x6de
 3902 0805 8D000000 		.4byte	0x8d
 3903 0809 02       		.uleb128 0x2
 3904 080a 91       		.byte	0x91
 3905 080b 77       		.sleb128 -9
 3906 080c 00       		.byte	0
 3907 080d 10       		.uleb128 0x10
 3908 080e 7A070000 		.4byte	.LASF108
 3909 0812 01       		.byte	0x1
 3910 0813 0507     		.2byte	0x705
 3911 0815 00000000 		.4byte	.LFB25
 3912 0819 30000000 		.4byte	.LFE25-.LFB25
 3913 081d 01       		.uleb128 0x1
 3914 081e 9C       		.byte	0x9c
 3915 081f 42080000 		.4byte	0x842
 3916 0823 14       		.uleb128 0x14
 3917 0824 92050000 		.4byte	.LASF109
 3918 0828 01       		.byte	0x1
 3919 0829 0507     		.2byte	0x705
 3920 082b 72000000 		.4byte	0x72
 3921 082f 02       		.uleb128 0x2
 3922 0830 91       		.byte	0x91
 3923 0831 6C       		.sleb128 -20
 3924 0832 11       		.uleb128 0x11
 3925 0833 F3010000 		.4byte	.LASF74
 3926 0837 01       		.byte	0x1
 3927 0838 0807     		.2byte	0x708
 3928 083a C7000000 		.4byte	0xc7
 3929 083e 02       		.uleb128 0x2
ARM GAS  C:\Users\EDULU~1.DES\AppData\Local\Temp\ccKclfbr.s 			page 107


 3930 083f 91       		.byte	0x91
 3931 0840 74       		.sleb128 -12
 3932 0841 00       		.byte	0
 3933 0842 10       		.uleb128 0x10
 3934 0843 2C030000 		.4byte	.LASF110
 3935 0847 01       		.byte	0x1
 3936 0848 2F07     		.2byte	0x72f
 3937 084a 00000000 		.4byte	.LFB26
 3938 084e C0000000 		.4byte	.LFE26-.LFB26
 3939 0852 01       		.uleb128 0x1
 3940 0853 9C       		.byte	0x9c
 3941 0854 77080000 		.4byte	0x877
 3942 0858 14       		.uleb128 0x14
 3943 0859 92050000 		.4byte	.LASF109
 3944 085d 01       		.byte	0x1
 3945 085e 2F07     		.2byte	0x72f
 3946 0860 72000000 		.4byte	0x72
 3947 0864 02       		.uleb128 0x2
 3948 0865 91       		.byte	0x91
 3949 0866 6C       		.sleb128 -20
 3950 0867 11       		.uleb128 0x11
 3951 0868 F3010000 		.4byte	.LASF74
 3952 086c 01       		.byte	0x1
 3953 086d 3207     		.2byte	0x732
 3954 086f C7000000 		.4byte	0xc7
 3955 0873 02       		.uleb128 0x2
 3956 0874 91       		.byte	0x91
 3957 0875 74       		.sleb128 -12
 3958 0876 00       		.byte	0
 3959 0877 10       		.uleb128 0x10
 3960 0878 C1040000 		.4byte	.LASF111
 3961 087c 01       		.byte	0x1
 3962 087d 6507     		.2byte	0x765
 3963 087f 00000000 		.4byte	.LFB27
 3964 0883 64000000 		.4byte	.LFE27-.LFB27
 3965 0887 01       		.uleb128 0x1
 3966 0888 9C       		.byte	0x9c
 3967 0889 CA080000 		.4byte	0x8ca
 3968 088d 11       		.uleb128 0x11
 3969 088e A1050000 		.4byte	.LASF79
 3970 0892 01       		.byte	0x1
 3971 0893 6707     		.2byte	0x767
 3972 0895 C0040000 		.4byte	0x4c0
 3973 0899 02       		.uleb128 0x2
 3974 089a 91       		.byte	0x91
 3975 089b 68       		.sleb128 -24
 3976 089c 11       		.uleb128 0x11
 3977 089d 9A060000 		.4byte	.LASF112
 3978 08a1 01       		.byte	0x1
 3979 08a2 6807     		.2byte	0x768
 3980 08a4 71010000 		.4byte	0x171
 3981 08a8 02       		.uleb128 0x2
 3982 08a9 91       		.byte	0x91
 3983 08aa 60       		.sleb128 -32
 3984 08ab 16       		.uleb128 0x16
 3985 08ac 65727200 		.ascii	"err\000"
 3986 08b0 01       		.byte	0x1
ARM GAS  C:\Users\EDULU~1.DES\AppData\Local\Temp\ccKclfbr.s 			page 108


 3987 08b1 6907     		.2byte	0x769
 3988 08b3 8D000000 		.4byte	0x8d
 3989 08b7 02       		.uleb128 0x2
 3990 08b8 91       		.byte	0x91
 3991 08b9 6E       		.sleb128 -18
 3992 08ba 11       		.uleb128 0x11
 3993 08bb 51030000 		.4byte	.LASF84
 3994 08bf 01       		.byte	0x1
 3995 08c0 6A07     		.2byte	0x76a
 3996 08c2 8D000000 		.4byte	0x8d
 3997 08c6 02       		.uleb128 0x2
 3998 08c7 91       		.byte	0x91
 3999 08c8 6F       		.sleb128 -17
 4000 08c9 00       		.byte	0
 4001 08ca 13       		.uleb128 0x13
 4002 08cb AA030000 		.4byte	.LASF113
 4003 08cf 01       		.byte	0x1
 4004 08d0 AD07     		.2byte	0x7ad
 4005 08d2 8D000000 		.4byte	0x8d
 4006 08d6 00000000 		.4byte	.LFB28
 4007 08da EC010000 		.4byte	.LFE28-.LFB28
 4008 08de 01       		.uleb128 0x1
 4009 08df 9C       		.byte	0x9c
 4010 08e0 78090000 		.4byte	0x978
 4011 08e4 14       		.uleb128 0x14
 4012 08e5 51030000 		.4byte	.LASF84
 4013 08e9 01       		.byte	0x1
 4014 08ea AD07     		.2byte	0x7ad
 4015 08ec 8D000000 		.4byte	0x8d
 4016 08f0 02       		.uleb128 0x2
 4017 08f1 91       		.byte	0x91
 4018 08f2 67       		.sleb128 -25
 4019 08f3 14       		.uleb128 0x14
 4020 08f4 48040000 		.4byte	.LASF114
 4021 08f8 01       		.byte	0x1
 4022 08f9 AE07     		.2byte	0x7ae
 4023 08fb 75020000 		.4byte	0x275
 4024 08ff 02       		.uleb128 0x2
 4025 0900 91       		.byte	0x91
 4026 0901 60       		.sleb128 -32
 4027 0902 14       		.uleb128 0x14
 4028 0903 84030000 		.4byte	.LASF115
 4029 0907 01       		.byte	0x1
 4030 0908 AF07     		.2byte	0x7af
 4031 090a 75020000 		.4byte	0x275
 4032 090e 02       		.uleb128 0x2
 4033 090f 91       		.byte	0x91
 4034 0910 5C       		.sleb128 -36
 4035 0911 15       		.uleb128 0x15
 4036 0912 696400   		.ascii	"id\000"
 4037 0915 01       		.byte	0x1
 4038 0916 B007     		.2byte	0x7b0
 4039 0918 98000000 		.4byte	0x98
 4040 091c 02       		.uleb128 0x2
 4041 091d 91       		.byte	0x91
 4042 091e 64       		.sleb128 -28
 4043 091f 14       		.uleb128 0x14
ARM GAS  C:\Users\EDULU~1.DES\AppData\Local\Temp\ccKclfbr.s 			page 109


 4044 0920 85040000 		.4byte	.LASF116
 4045 0924 01       		.byte	0x1
 4046 0925 B107     		.2byte	0x7b1
 4047 0927 A3000000 		.4byte	0xa3
 4048 092b 02       		.uleb128 0x2
 4049 092c 91       		.byte	0x91
 4050 092d 00       		.sleb128 0
 4051 092e 14       		.uleb128 0x14
 4052 092f E3010000 		.4byte	.LASF117
 4053 0933 01       		.byte	0x1
 4054 0934 B207     		.2byte	0x7b2
 4055 0936 72000000 		.4byte	0x72
 4056 093a 02       		.uleb128 0x2
 4057 093b 91       		.byte	0x91
 4058 093c 04       		.sleb128 4
 4059 093d 15       		.uleb128 0x15
 4060 093e 6F707400 		.ascii	"opt\000"
 4061 0942 01       		.byte	0x1
 4062 0943 B307     		.2byte	0x7b3
 4063 0945 98000000 		.4byte	0x98
 4064 0949 02       		.uleb128 0x2
 4065 094a 91       		.byte	0x91
 4066 094b 08       		.sleb128 8
 4067 094c 11       		.uleb128 0x11
 4068 094d A1050000 		.4byte	.LASF79
 4069 0951 01       		.byte	0x1
 4070 0952 B507     		.2byte	0x7b5
 4071 0954 C0040000 		.4byte	0x4c0
 4072 0958 02       		.uleb128 0x2
 4073 0959 91       		.byte	0x91
 4074 095a 6C       		.sleb128 -20
 4075 095b 11       		.uleb128 0x11
 4076 095c F3010000 		.4byte	.LASF74
 4077 0960 01       		.byte	0x1
 4078 0961 B707     		.2byte	0x7b7
 4079 0963 C7000000 		.4byte	0xc7
 4080 0967 02       		.uleb128 0x2
 4081 0968 91       		.byte	0x91
 4082 0969 70       		.sleb128 -16
 4083 096a 16       		.uleb128 0x16
 4084 096b 6900     		.ascii	"i\000"
 4085 096d 01       		.byte	0x1
 4086 096e BA07     		.2byte	0x7ba
 4087 0970 8D000000 		.4byte	0x8d
 4088 0974 02       		.uleb128 0x2
 4089 0975 91       		.byte	0x91
 4090 0976 77       		.sleb128 -9
 4091 0977 00       		.byte	0
 4092 0978 1D       		.uleb128 0x1d
 4093 0979 99000000 		.4byte	.LASF118
 4094 097d 03       		.byte	0x3
 4095 097e B002     		.2byte	0x2b0
 4096 0980 A3000000 		.4byte	0xa3
 4097 0984 05       		.uleb128 0x5
 4098 0985 03       		.byte	0x3
 4099 0986 00000000 		.4byte	OSCtxSwCtr
 4100 098a 1D       		.uleb128 0x1d
ARM GAS  C:\Users\EDULU~1.DES\AppData\Local\Temp\ccKclfbr.s 			page 110


 4101 098b BD010000 		.4byte	.LASF119
 4102 098f 03       		.byte	0x3
 4103 0990 B302     		.2byte	0x2b3
 4104 0992 81020000 		.4byte	0x281
 4105 0996 05       		.uleb128 0x5
 4106 0997 03       		.byte	0x3
 4107 0998 00000000 		.4byte	OSEventFreeList
 4108 099c 09       		.uleb128 0x9
 4109 099d 3D010000 		.4byte	0x13d
 4110 09a1 AC090000 		.4byte	0x9ac
 4111 09a5 0A       		.uleb128 0xa
 4112 09a6 74000000 		.4byte	0x74
 4113 09aa 04       		.byte	0x4
 4114 09ab 00       		.byte	0
 4115 09ac 1D       		.uleb128 0x1d
 4116 09ad E8010000 		.4byte	.LASF25
 4117 09b1 03       		.byte	0x3
 4118 09b2 B402     		.2byte	0x2b4
 4119 09b4 9C090000 		.4byte	0x99c
 4120 09b8 05       		.uleb128 0x5
 4121 09b9 03       		.byte	0x3
 4122 09ba 00000000 		.4byte	OSEventTbl
 4123 09be 1D       		.uleb128 0x1d
 4124 09bf 5A020000 		.4byte	.LASF120
 4125 09c3 03       		.byte	0x3
 4126 09c4 BD02     		.2byte	0x2bd
 4127 09c6 8D000000 		.4byte	0x8d
 4128 09ca 05       		.uleb128 0x5
 4129 09cb 03       		.byte	0x3
 4130 09cc 00000000 		.4byte	OSCPUUsage
 4131 09d0 1D       		.uleb128 0x1d
 4132 09d1 AA070000 		.4byte	.LASF121
 4133 09d5 03       		.byte	0x3
 4134 09d6 BE02     		.2byte	0x2be
 4135 09d8 A3000000 		.4byte	0xa3
 4136 09dc 05       		.uleb128 0x5
 4137 09dd 03       		.byte	0x3
 4138 09de 00000000 		.4byte	OSIdleCtrMax
 4139 09e2 1D       		.uleb128 0x1d
 4140 09e3 2F020000 		.4byte	.LASF122
 4141 09e7 03       		.byte	0x3
 4142 09e8 BF02     		.2byte	0x2bf
 4143 09ea A3000000 		.4byte	0xa3
 4144 09ee 05       		.uleb128 0x5
 4145 09ef 03       		.byte	0x3
 4146 09f0 00000000 		.4byte	OSIdleCtrRun
 4147 09f4 1D       		.uleb128 0x1d
 4148 09f5 AE040000 		.4byte	.LASF123
 4149 09f9 03       		.byte	0x3
 4150 09fa C002     		.2byte	0x2c0
 4151 09fc 82000000 		.4byte	0x82
 4152 0a00 05       		.uleb128 0x5
 4153 0a01 03       		.byte	0x3
 4154 0a02 00000000 		.4byte	OSStatRdy
 4155 0a06 09       		.uleb128 0x9
 4156 0a07 BC000000 		.4byte	0xbc
 4157 0a0b 160A0000 		.4byte	0xa16
ARM GAS  C:\Users\EDULU~1.DES\AppData\Local\Temp\ccKclfbr.s 			page 111


 4158 0a0f 0A       		.uleb128 0xa
 4159 0a10 74000000 		.4byte	0x74
 4160 0a14 7F       		.byte	0x7f
 4161 0a15 00       		.byte	0
 4162 0a16 1D       		.uleb128 0x1d
 4163 0a17 87010000 		.4byte	.LASF124
 4164 0a1b 03       		.byte	0x3
 4165 0a1c C102     		.2byte	0x2c1
 4166 0a1e 060A0000 		.4byte	0xa06
 4167 0a22 05       		.uleb128 0x5
 4168 0a23 03       		.byte	0x3
 4169 0a24 00000000 		.4byte	OSTaskStatStk
 4170 0a28 1D       		.uleb128 0x1d
 4171 0a29 9D070000 		.4byte	.LASF125
 4172 0a2d 03       		.byte	0x3
 4173 0a2e C402     		.2byte	0x2c4
 4174 0a30 8D000000 		.4byte	0x8d
 4175 0a34 05       		.uleb128 0x5
 4176 0a35 03       		.byte	0x3
 4177 0a36 00000000 		.4byte	OSIntNesting
 4178 0a3a 1D       		.uleb128 0x1d
 4179 0a3b 38030000 		.4byte	.LASF126
 4180 0a3f 03       		.byte	0x3
 4181 0a40 C602     		.2byte	0x2c6
 4182 0a42 8D000000 		.4byte	0x8d
 4183 0a46 05       		.uleb128 0x5
 4184 0a47 03       		.byte	0x3
 4185 0a48 00000000 		.4byte	OSLockNesting
 4186 0a4c 1D       		.uleb128 0x1d
 4187 0a4d 6E020000 		.4byte	.LASF127
 4188 0a51 03       		.byte	0x3
 4189 0a52 C802     		.2byte	0x2c8
 4190 0a54 8D000000 		.4byte	0x8d
 4191 0a58 05       		.uleb128 0x5
 4192 0a59 03       		.byte	0x3
 4193 0a5a 00000000 		.4byte	OSPrioCur
 4194 0a5e 1D       		.uleb128 0x1d
 4195 0a5f AF010000 		.4byte	.LASF128
 4196 0a63 03       		.byte	0x3
 4197 0a64 C902     		.2byte	0x2c9
 4198 0a66 8D000000 		.4byte	0x8d
 4199 0a6a 05       		.uleb128 0x5
 4200 0a6b 03       		.byte	0x3
 4201 0a6c 00000000 		.4byte	OSPrioHighRdy
 4202 0a70 1D       		.uleb128 0x1d
 4203 0a71 4C050000 		.4byte	.LASF129
 4204 0a75 03       		.byte	0x3
 4205 0a76 CB02     		.2byte	0x2cb
 4206 0a78 D2000000 		.4byte	0xd2
 4207 0a7c 05       		.uleb128 0x5
 4208 0a7d 03       		.byte	0x3
 4209 0a7e 00000000 		.4byte	OSRdyGrp
 4210 0a82 1D       		.uleb128 0x1d
 4211 0a83 C3060000 		.4byte	.LASF130
 4212 0a87 03       		.byte	0x3
 4213 0a88 CC02     		.2byte	0x2cc
 4214 0a8a 2D010000 		.4byte	0x12d
ARM GAS  C:\Users\EDULU~1.DES\AppData\Local\Temp\ccKclfbr.s 			page 112


 4215 0a8e 05       		.uleb128 0x5
 4216 0a8f 03       		.byte	0x3
 4217 0a90 00000000 		.4byte	OSRdyTbl
 4218 0a94 1D       		.uleb128 0x1d
 4219 0a95 DE030000 		.4byte	.LASF131
 4220 0a99 03       		.byte	0x3
 4221 0a9a CE02     		.2byte	0x2ce
 4222 0a9c 82000000 		.4byte	0x82
 4223 0aa0 05       		.uleb128 0x5
 4224 0aa1 03       		.byte	0x3
 4225 0aa2 00000000 		.4byte	OSRunning
 4226 0aa6 1D       		.uleb128 0x1d
 4227 0aa7 FB020000 		.4byte	.LASF132
 4228 0aab 03       		.byte	0x3
 4229 0aac D002     		.2byte	0x2d0
 4230 0aae 8D000000 		.4byte	0x8d
 4231 0ab2 05       		.uleb128 0x5
 4232 0ab3 03       		.byte	0x3
 4233 0ab4 00000000 		.4byte	OSTaskCtr
 4234 0ab8 1D       		.uleb128 0x1d
 4235 0ab9 9D020000 		.4byte	.LASF133
 4236 0abd 03       		.byte	0x3
 4237 0abe D202     		.2byte	0x2d2
 4238 0ac0 CA0A0000 		.4byte	0xaca
 4239 0ac4 05       		.uleb128 0x5
 4240 0ac5 03       		.byte	0x3
 4241 0ac6 00000000 		.4byte	OSIdleCtr
 4242 0aca 1E       		.uleb128 0x1e
 4243 0acb A3000000 		.4byte	0xa3
 4244 0acf 1D       		.uleb128 0x1d
 4245 0ad0 CE020000 		.4byte	.LASF134
 4246 0ad4 03       		.byte	0x3
 4247 0ad5 D802     		.2byte	0x2d8
 4248 0ad7 060A0000 		.4byte	0xa06
 4249 0adb 05       		.uleb128 0x5
 4250 0adc 03       		.byte	0x3
 4251 0add 00000000 		.4byte	OSTaskIdleStk
 4252 0ae1 1D       		.uleb128 0x1d
 4253 0ae2 71030000 		.4byte	.LASF135
 4254 0ae6 03       		.byte	0x3
 4255 0ae7 DB02     		.2byte	0x2db
 4256 0ae9 C0040000 		.4byte	0x4c0
 4257 0aed 05       		.uleb128 0x5
 4258 0aee 03       		.byte	0x3
 4259 0aef 00000000 		.4byte	OSTCBCur
 4260 0af3 1D       		.uleb128 0x1d
 4261 0af4 46070000 		.4byte	.LASF136
 4262 0af8 03       		.byte	0x3
 4263 0af9 DC02     		.2byte	0x2dc
 4264 0afb C0040000 		.4byte	0x4c0
 4265 0aff 05       		.uleb128 0x5
 4266 0b00 03       		.byte	0x3
 4267 0b01 00000000 		.4byte	OSTCBFreeList
 4268 0b05 1D       		.uleb128 0x1d
 4269 0b06 F2040000 		.4byte	.LASF137
 4270 0b0a 03       		.byte	0x3
 4271 0b0b DD02     		.2byte	0x2dd
ARM GAS  C:\Users\EDULU~1.DES\AppData\Local\Temp\ccKclfbr.s 			page 113


 4272 0b0d C0040000 		.4byte	0x4c0
 4273 0b11 05       		.uleb128 0x5
 4274 0b12 03       		.byte	0x3
 4275 0b13 00000000 		.4byte	OSTCBHighRdy
 4276 0b17 1D       		.uleb128 0x1d
 4277 0b18 DC060000 		.4byte	.LASF138
 4278 0b1c 03       		.byte	0x3
 4279 0b1d DE02     		.2byte	0x2de
 4280 0b1f C0040000 		.4byte	0x4c0
 4281 0b23 05       		.uleb128 0x5
 4282 0b24 03       		.byte	0x3
 4283 0b25 00000000 		.4byte	OSTCBList
 4284 0b29 09       		.uleb128 0x9
 4285 0b2a C0040000 		.4byte	0x4c0
 4286 0b2e 390B0000 		.4byte	0xb39
 4287 0b32 0A       		.uleb128 0xa
 4288 0b33 74000000 		.4byte	0x74
 4289 0b37 1F       		.byte	0x1f
 4290 0b38 00       		.byte	0
 4291 0b39 1D       		.uleb128 0x1d
 4292 0b3a 50000000 		.4byte	.LASF139
 4293 0b3e 03       		.byte	0x3
 4294 0b3f DF02     		.2byte	0x2df
 4295 0b41 290B0000 		.4byte	0xb29
 4296 0b45 05       		.uleb128 0x5
 4297 0b46 03       		.byte	0x3
 4298 0b47 00000000 		.4byte	OSTCBPrioTbl
 4299 0b4b 09       		.uleb128 0x9
 4300 0b4c 97020000 		.4byte	0x297
 4301 0b50 5B0B0000 		.4byte	0xb5b
 4302 0b54 0A       		.uleb128 0xa
 4303 0b55 74000000 		.4byte	0x74
 4304 0b59 07       		.byte	0x7
 4305 0b5a 00       		.byte	0
 4306 0b5b 1D       		.uleb128 0x1d
 4307 0b5c 1F070000 		.4byte	.LASF140
 4308 0b60 03       		.byte	0x3
 4309 0b61 E002     		.2byte	0x2e0
 4310 0b63 4B0B0000 		.4byte	0xb4b
 4311 0b67 05       		.uleb128 0x5
 4312 0b68 03       		.byte	0x3
 4313 0b69 00000000 		.4byte	OSTCBTbl
 4314 0b6d 1D       		.uleb128 0x1d
 4315 0b6e 78020000 		.4byte	.LASF141
 4316 0b72 03       		.byte	0x3
 4317 0b73 E302     		.2byte	0x2e3
 4318 0b75 8D000000 		.4byte	0x8d
 4319 0b79 05       		.uleb128 0x5
 4320 0b7a 03       		.byte	0x3
 4321 0b7b 00000000 		.4byte	OSTickStepState
 4322 0b7f 1D       		.uleb128 0x1d
 4323 0b80 85060000 		.4byte	.LASF142
 4324 0b84 03       		.byte	0x3
 4325 0b85 F102     		.2byte	0x2f1
 4326 0b87 8D000000 		.4byte	0x8d
 4327 0b8b 05       		.uleb128 0x5
 4328 0b8c 03       		.byte	0x3
ARM GAS  C:\Users\EDULU~1.DES\AppData\Local\Temp\ccKclfbr.s 			page 114


 4329 0b8d 00000000 		.4byte	OSTaskRegNextAvailID
 4330 0b91 1D       		.uleb128 0x1d
 4331 0b92 2A050000 		.4byte	.LASF143
 4332 0b96 03       		.byte	0x3
 4333 0b97 F502     		.2byte	0x2f5
 4334 0b99 CA0A0000 		.4byte	0xaca
 4335 0b9d 05       		.uleb128 0x5
 4336 0b9e 03       		.byte	0x3
 4337 0b9f 00000000 		.4byte	OSTime
 4338 0ba3 1D       		.uleb128 0x1d
 4339 0ba4 1A020000 		.4byte	.LASF144
 4340 0ba8 03       		.byte	0x3
 4341 0ba9 F902     		.2byte	0x2f9
 4342 0bab 98000000 		.4byte	0x98
 4343 0baf 05       		.uleb128 0x5
 4344 0bb0 03       		.byte	0x3
 4345 0bb1 00000000 		.4byte	OSTmrFree
 4346 0bb5 1D       		.uleb128 0x1d
 4347 0bb6 93020000 		.4byte	.LASF145
 4348 0bba 03       		.byte	0x3
 4349 0bbb FA02     		.2byte	0x2fa
 4350 0bbd 98000000 		.4byte	0x98
 4351 0bc1 05       		.uleb128 0x5
 4352 0bc2 03       		.byte	0x3
 4353 0bc3 00000000 		.4byte	OSTmrUsed
 4354 0bc7 1D       		.uleb128 0x1d
 4355 0bc8 41000000 		.4byte	.LASF146
 4356 0bcc 03       		.byte	0x3
 4357 0bcd FB02     		.2byte	0x2fb
 4358 0bcf A3000000 		.4byte	0xa3
 4359 0bd3 05       		.uleb128 0x5
 4360 0bd4 03       		.byte	0x3
 4361 0bd5 00000000 		.4byte	OSTmrTime
 4362 0bd9 1D       		.uleb128 0x1d
 4363 0bda 55050000 		.4byte	.LASF147
 4364 0bde 03       		.byte	0x3
 4365 0bdf FD02     		.2byte	0x2fd
 4366 0be1 81020000 		.4byte	0x281
 4367 0be5 05       		.uleb128 0x5
 4368 0be6 03       		.byte	0x3
 4369 0be7 00000000 		.4byte	OSTmrSem
 4370 0beb 1D       		.uleb128 0x1d
 4371 0bec 1A000000 		.4byte	.LASF148
 4372 0bf0 03       		.byte	0x3
 4373 0bf1 FE02     		.2byte	0x2fe
 4374 0bf3 81020000 		.4byte	0x281
 4375 0bf7 05       		.uleb128 0x5
 4376 0bf8 03       		.byte	0x3
 4377 0bf9 00000000 		.4byte	OSTmrSemSignal
 4378 0bfd 09       		.uleb128 0x9
 4379 0bfe 68030000 		.4byte	0x368
 4380 0c02 0D0C0000 		.4byte	0xc0d
 4381 0c06 0A       		.uleb128 0xa
 4382 0c07 74000000 		.4byte	0x74
 4383 0c0b 0F       		.byte	0xf
 4384 0c0c 00       		.byte	0
 4385 0c0d 1D       		.uleb128 0x1d
ARM GAS  C:\Users\EDULU~1.DES\AppData\Local\Temp\ccKclfbr.s 			page 115


 4386 0c0e 71070000 		.4byte	.LASF149
 4387 0c12 03       		.byte	0x3
 4388 0c13 0003     		.2byte	0x300
 4389 0c15 FD0B0000 		.4byte	0xbfd
 4390 0c19 05       		.uleb128 0x5
 4391 0c1a 03       		.byte	0x3
 4392 0c1b 00000000 		.4byte	OSTmrTbl
 4393 0c1f 1D       		.uleb128 0x1d
 4394 0c20 DA040000 		.4byte	.LASF150
 4395 0c24 03       		.byte	0x3
 4396 0c25 0103     		.2byte	0x301
 4397 0c27 9C030000 		.4byte	0x39c
 4398 0c2b 05       		.uleb128 0x5
 4399 0c2c 03       		.byte	0x3
 4400 0c2d 00000000 		.4byte	OSTmrFreeList
 4401 0c31 1D       		.uleb128 0x1d
 4402 0c32 15030000 		.4byte	.LASF151
 4403 0c36 03       		.byte	0x3
 4404 0c37 0203     		.2byte	0x302
 4405 0c39 060A0000 		.4byte	0xa06
 4406 0c3d 05       		.uleb128 0x5
 4407 0c3e 03       		.byte	0x3
 4408 0c3f 00000000 		.4byte	OSTmrTaskStk
 4409 0c43 09       		.uleb128 0x9
 4410 0c44 A2030000 		.4byte	0x3a2
 4411 0c48 530C0000 		.4byte	0xc53
 4412 0c4c 0A       		.uleb128 0xa
 4413 0c4d 74000000 		.4byte	0x74
 4414 0c51 06       		.byte	0x6
 4415 0c52 00       		.byte	0
 4416 0c53 1D       		.uleb128 0x1d
 4417 0c54 B0020000 		.4byte	.LASF152
 4418 0c58 03       		.byte	0x3
 4419 0c59 0403     		.2byte	0x304
 4420 0c5b 430C0000 		.4byte	0xc43
 4421 0c5f 05       		.uleb128 0x5
 4422 0c60 03       		.byte	0x3
 4423 0c61 00000000 		.4byte	OSTmrWheelTbl
 4424 0c65 09       		.uleb128 0x9
 4425 0c66 750C0000 		.4byte	0xc75
 4426 0c6a 750C0000 		.4byte	0xc75
 4427 0c6e 0A       		.uleb128 0xa
 4428 0c6f 74000000 		.4byte	0x74
 4429 0c73 FF       		.byte	0xff
 4430 0c74 00       		.byte	0
 4431 0c75 1F       		.uleb128 0x1f
 4432 0c76 8D000000 		.4byte	0x8d
 4433 0c7a 20       		.uleb128 0x20
 4434 0c7b 24020000 		.4byte	.LASF153
 4435 0c7f 01       		.byte	0x1
 4436 0c80 28       		.byte	0x28
 4437 0c81 8B0C0000 		.4byte	0xc8b
 4438 0c85 05       		.uleb128 0x5
 4439 0c86 03       		.byte	0x3
 4440 0c87 00000000 		.4byte	OSUnMapTbl
 4441 0c8b 1F       		.uleb128 0x1f
 4442 0c8c 650C0000 		.4byte	0xc65
ARM GAS  C:\Users\EDULU~1.DES\AppData\Local\Temp\ccKclfbr.s 			page 116


 4443 0c90 00       		.byte	0
 4444              		.section	.debug_abbrev,"",%progbits
 4445              	.Ldebug_abbrev0:
 4446 0000 01       		.uleb128 0x1
 4447 0001 11       		.uleb128 0x11
 4448 0002 01       		.byte	0x1
 4449 0003 25       		.uleb128 0x25
 4450 0004 0E       		.uleb128 0xe
 4451 0005 13       		.uleb128 0x13
 4452 0006 0B       		.uleb128 0xb
 4453 0007 03       		.uleb128 0x3
 4454 0008 0E       		.uleb128 0xe
 4455 0009 1B       		.uleb128 0x1b
 4456 000a 0E       		.uleb128 0xe
 4457 000b 55       		.uleb128 0x55
 4458 000c 17       		.uleb128 0x17
 4459 000d 11       		.uleb128 0x11
 4460 000e 01       		.uleb128 0x1
 4461 000f 10       		.uleb128 0x10
 4462 0010 17       		.uleb128 0x17
 4463 0011 00       		.byte	0
 4464 0012 00       		.byte	0
 4465 0013 02       		.uleb128 0x2
 4466 0014 24       		.uleb128 0x24
 4467 0015 00       		.byte	0
 4468 0016 0B       		.uleb128 0xb
 4469 0017 0B       		.uleb128 0xb
 4470 0018 3E       		.uleb128 0x3e
 4471 0019 0B       		.uleb128 0xb
 4472 001a 03       		.uleb128 0x3
 4473 001b 0E       		.uleb128 0xe
 4474 001c 00       		.byte	0
 4475 001d 00       		.byte	0
 4476 001e 03       		.uleb128 0x3
 4477 001f 24       		.uleb128 0x24
 4478 0020 00       		.byte	0
 4479 0021 0B       		.uleb128 0xb
 4480 0022 0B       		.uleb128 0xb
 4481 0023 3E       		.uleb128 0x3e
 4482 0024 0B       		.uleb128 0xb
 4483 0025 03       		.uleb128 0x3
 4484 0026 08       		.uleb128 0x8
 4485 0027 00       		.byte	0
 4486 0028 00       		.byte	0
 4487 0029 04       		.uleb128 0x4
 4488 002a 0F       		.uleb128 0xf
 4489 002b 00       		.byte	0
 4490 002c 0B       		.uleb128 0xb
 4491 002d 0B       		.uleb128 0xb
 4492 002e 00       		.byte	0
 4493 002f 00       		.byte	0
 4494 0030 05       		.uleb128 0x5
 4495 0031 16       		.uleb128 0x16
 4496 0032 00       		.byte	0
 4497 0033 03       		.uleb128 0x3
 4498 0034 0E       		.uleb128 0xe
 4499 0035 3A       		.uleb128 0x3a
ARM GAS  C:\Users\EDULU~1.DES\AppData\Local\Temp\ccKclfbr.s 			page 117


 4500 0036 0B       		.uleb128 0xb
 4501 0037 3B       		.uleb128 0x3b
 4502 0038 0B       		.uleb128 0xb
 4503 0039 49       		.uleb128 0x49
 4504 003a 13       		.uleb128 0x13
 4505 003b 00       		.byte	0
 4506 003c 00       		.byte	0
 4507 003d 06       		.uleb128 0x6
 4508 003e 16       		.uleb128 0x16
 4509 003f 00       		.byte	0
 4510 0040 03       		.uleb128 0x3
 4511 0041 0E       		.uleb128 0xe
 4512 0042 3A       		.uleb128 0x3a
 4513 0043 0B       		.uleb128 0xb
 4514 0044 3B       		.uleb128 0x3b
 4515 0045 05       		.uleb128 0x5
 4516 0046 49       		.uleb128 0x49
 4517 0047 13       		.uleb128 0x13
 4518 0048 00       		.byte	0
 4519 0049 00       		.byte	0
 4520 004a 07       		.uleb128 0x7
 4521 004b 13       		.uleb128 0x13
 4522 004c 01       		.byte	0x1
 4523 004d 03       		.uleb128 0x3
 4524 004e 0E       		.uleb128 0xe
 4525 004f 0B       		.uleb128 0xb
 4526 0050 0B       		.uleb128 0xb
 4527 0051 3A       		.uleb128 0x3a
 4528 0052 0B       		.uleb128 0xb
 4529 0053 3B       		.uleb128 0x3b
 4530 0054 05       		.uleb128 0x5
 4531 0055 01       		.uleb128 0x1
 4532 0056 13       		.uleb128 0x13
 4533 0057 00       		.byte	0
 4534 0058 00       		.byte	0
 4535 0059 08       		.uleb128 0x8
 4536 005a 0D       		.uleb128 0xd
 4537 005b 00       		.byte	0
 4538 005c 03       		.uleb128 0x3
 4539 005d 0E       		.uleb128 0xe
 4540 005e 3A       		.uleb128 0x3a
 4541 005f 0B       		.uleb128 0xb
 4542 0060 3B       		.uleb128 0x3b
 4543 0061 05       		.uleb128 0x5
 4544 0062 49       		.uleb128 0x49
 4545 0063 13       		.uleb128 0x13
 4546 0064 38       		.uleb128 0x38
 4547 0065 0B       		.uleb128 0xb
 4548 0066 00       		.byte	0
 4549 0067 00       		.byte	0
 4550 0068 09       		.uleb128 0x9
 4551 0069 01       		.uleb128 0x1
 4552 006a 01       		.byte	0x1
 4553 006b 49       		.uleb128 0x49
 4554 006c 13       		.uleb128 0x13
 4555 006d 01       		.uleb128 0x1
 4556 006e 13       		.uleb128 0x13
ARM GAS  C:\Users\EDULU~1.DES\AppData\Local\Temp\ccKclfbr.s 			page 118


 4557 006f 00       		.byte	0
 4558 0070 00       		.byte	0
 4559 0071 0A       		.uleb128 0xa
 4560 0072 21       		.uleb128 0x21
 4561 0073 00       		.byte	0
 4562 0074 49       		.uleb128 0x49
 4563 0075 13       		.uleb128 0x13
 4564 0076 2F       		.uleb128 0x2f
 4565 0077 0B       		.uleb128 0xb
 4566 0078 00       		.byte	0
 4567 0079 00       		.byte	0
 4568 007a 0B       		.uleb128 0xb
 4569 007b 0F       		.uleb128 0xf
 4570 007c 00       		.byte	0
 4571 007d 0B       		.uleb128 0xb
 4572 007e 0B       		.uleb128 0xb
 4573 007f 49       		.uleb128 0x49
 4574 0080 13       		.uleb128 0x13
 4575 0081 00       		.byte	0
 4576 0082 00       		.byte	0
 4577 0083 0C       		.uleb128 0xc
 4578 0084 15       		.uleb128 0x15
 4579 0085 01       		.byte	0x1
 4580 0086 27       		.uleb128 0x27
 4581 0087 19       		.uleb128 0x19
 4582 0088 01       		.uleb128 0x1
 4583 0089 13       		.uleb128 0x13
 4584 008a 00       		.byte	0
 4585 008b 00       		.byte	0
 4586 008c 0D       		.uleb128 0xd
 4587 008d 05       		.uleb128 0x5
 4588 008e 00       		.byte	0
 4589 008f 49       		.uleb128 0x49
 4590 0090 13       		.uleb128 0x13
 4591 0091 00       		.byte	0
 4592 0092 00       		.byte	0
 4593 0093 0E       		.uleb128 0xe
 4594 0094 2E       		.uleb128 0x2e
 4595 0095 00       		.byte	0
 4596 0096 3F       		.uleb128 0x3f
 4597 0097 19       		.uleb128 0x19
 4598 0098 03       		.uleb128 0x3
 4599 0099 0E       		.uleb128 0xe
 4600 009a 3A       		.uleb128 0x3a
 4601 009b 0B       		.uleb128 0xb
 4602 009c 3B       		.uleb128 0x3b
 4603 009d 05       		.uleb128 0x5
 4604 009e 27       		.uleb128 0x27
 4605 009f 19       		.uleb128 0x19
 4606 00a0 11       		.uleb128 0x11
 4607 00a1 01       		.uleb128 0x1
 4608 00a2 12       		.uleb128 0x12
 4609 00a3 06       		.uleb128 0x6
 4610 00a4 40       		.uleb128 0x40
 4611 00a5 18       		.uleb128 0x18
 4612 00a6 9642     		.uleb128 0x2116
 4613 00a8 19       		.uleb128 0x19
ARM GAS  C:\Users\EDULU~1.DES\AppData\Local\Temp\ccKclfbr.s 			page 119


 4614 00a9 00       		.byte	0
 4615 00aa 00       		.byte	0
 4616 00ab 0F       		.uleb128 0xf
 4617 00ac 2E       		.uleb128 0x2e
 4618 00ad 00       		.byte	0
 4619 00ae 3F       		.uleb128 0x3f
 4620 00af 19       		.uleb128 0x19
 4621 00b0 03       		.uleb128 0x3
 4622 00b1 0E       		.uleb128 0xe
 4623 00b2 3A       		.uleb128 0x3a
 4624 00b3 0B       		.uleb128 0xb
 4625 00b4 3B       		.uleb128 0x3b
 4626 00b5 05       		.uleb128 0x5
 4627 00b6 27       		.uleb128 0x27
 4628 00b7 19       		.uleb128 0x19
 4629 00b8 11       		.uleb128 0x11
 4630 00b9 01       		.uleb128 0x1
 4631 00ba 12       		.uleb128 0x12
 4632 00bb 06       		.uleb128 0x6
 4633 00bc 40       		.uleb128 0x40
 4634 00bd 18       		.uleb128 0x18
 4635 00be 9742     		.uleb128 0x2117
 4636 00c0 19       		.uleb128 0x19
 4637 00c1 00       		.byte	0
 4638 00c2 00       		.byte	0
 4639 00c3 10       		.uleb128 0x10
 4640 00c4 2E       		.uleb128 0x2e
 4641 00c5 01       		.byte	0x1
 4642 00c6 3F       		.uleb128 0x3f
 4643 00c7 19       		.uleb128 0x19
 4644 00c8 03       		.uleb128 0x3
 4645 00c9 0E       		.uleb128 0xe
 4646 00ca 3A       		.uleb128 0x3a
 4647 00cb 0B       		.uleb128 0xb
 4648 00cc 3B       		.uleb128 0x3b
 4649 00cd 05       		.uleb128 0x5
 4650 00ce 27       		.uleb128 0x27
 4651 00cf 19       		.uleb128 0x19
 4652 00d0 11       		.uleb128 0x11
 4653 00d1 01       		.uleb128 0x1
 4654 00d2 12       		.uleb128 0x12
 4655 00d3 06       		.uleb128 0x6
 4656 00d4 40       		.uleb128 0x40
 4657 00d5 18       		.uleb128 0x18
 4658 00d6 9642     		.uleb128 0x2116
 4659 00d8 19       		.uleb128 0x19
 4660 00d9 01       		.uleb128 0x1
 4661 00da 13       		.uleb128 0x13
 4662 00db 00       		.byte	0
 4663 00dc 00       		.byte	0
 4664 00dd 11       		.uleb128 0x11
 4665 00de 34       		.uleb128 0x34
 4666 00df 00       		.byte	0
 4667 00e0 03       		.uleb128 0x3
 4668 00e1 0E       		.uleb128 0xe
 4669 00e2 3A       		.uleb128 0x3a
 4670 00e3 0B       		.uleb128 0xb
ARM GAS  C:\Users\EDULU~1.DES\AppData\Local\Temp\ccKclfbr.s 			page 120


 4671 00e4 3B       		.uleb128 0x3b
 4672 00e5 05       		.uleb128 0x5
 4673 00e6 49       		.uleb128 0x49
 4674 00e7 13       		.uleb128 0x13
 4675 00e8 02       		.uleb128 0x2
 4676 00e9 18       		.uleb128 0x18
 4677 00ea 00       		.byte	0
 4678 00eb 00       		.byte	0
 4679 00ec 12       		.uleb128 0x12
 4680 00ed 2E       		.uleb128 0x2e
 4681 00ee 00       		.byte	0
 4682 00ef 3F       		.uleb128 0x3f
 4683 00f0 19       		.uleb128 0x19
 4684 00f1 03       		.uleb128 0x3
 4685 00f2 0E       		.uleb128 0xe
 4686 00f3 3A       		.uleb128 0x3a
 4687 00f4 0B       		.uleb128 0xb
 4688 00f5 3B       		.uleb128 0x3b
 4689 00f6 05       		.uleb128 0x5
 4690 00f7 27       		.uleb128 0x27
 4691 00f8 19       		.uleb128 0x19
 4692 00f9 49       		.uleb128 0x49
 4693 00fa 13       		.uleb128 0x13
 4694 00fb 11       		.uleb128 0x11
 4695 00fc 01       		.uleb128 0x1
 4696 00fd 12       		.uleb128 0x12
 4697 00fe 06       		.uleb128 0x6
 4698 00ff 40       		.uleb128 0x40
 4699 0100 18       		.uleb128 0x18
 4700 0101 9742     		.uleb128 0x2117
 4701 0103 19       		.uleb128 0x19
 4702 0104 00       		.byte	0
 4703 0105 00       		.byte	0
 4704 0106 13       		.uleb128 0x13
 4705 0107 2E       		.uleb128 0x2e
 4706 0108 01       		.byte	0x1
 4707 0109 3F       		.uleb128 0x3f
 4708 010a 19       		.uleb128 0x19
 4709 010b 03       		.uleb128 0x3
 4710 010c 0E       		.uleb128 0xe
 4711 010d 3A       		.uleb128 0x3a
 4712 010e 0B       		.uleb128 0xb
 4713 010f 3B       		.uleb128 0x3b
 4714 0110 05       		.uleb128 0x5
 4715 0111 27       		.uleb128 0x27
 4716 0112 19       		.uleb128 0x19
 4717 0113 49       		.uleb128 0x49
 4718 0114 13       		.uleb128 0x13
 4719 0115 11       		.uleb128 0x11
 4720 0116 01       		.uleb128 0x1
 4721 0117 12       		.uleb128 0x12
 4722 0118 06       		.uleb128 0x6
 4723 0119 40       		.uleb128 0x40
 4724 011a 18       		.uleb128 0x18
 4725 011b 9642     		.uleb128 0x2116
 4726 011d 19       		.uleb128 0x19
 4727 011e 01       		.uleb128 0x1
ARM GAS  C:\Users\EDULU~1.DES\AppData\Local\Temp\ccKclfbr.s 			page 121


 4728 011f 13       		.uleb128 0x13
 4729 0120 00       		.byte	0
 4730 0121 00       		.byte	0
 4731 0122 14       		.uleb128 0x14
 4732 0123 05       		.uleb128 0x5
 4733 0124 00       		.byte	0
 4734 0125 03       		.uleb128 0x3
 4735 0126 0E       		.uleb128 0xe
 4736 0127 3A       		.uleb128 0x3a
 4737 0128 0B       		.uleb128 0xb
 4738 0129 3B       		.uleb128 0x3b
 4739 012a 05       		.uleb128 0x5
 4740 012b 49       		.uleb128 0x49
 4741 012c 13       		.uleb128 0x13
 4742 012d 02       		.uleb128 0x2
 4743 012e 18       		.uleb128 0x18
 4744 012f 00       		.byte	0
 4745 0130 00       		.byte	0
 4746 0131 15       		.uleb128 0x15
 4747 0132 05       		.uleb128 0x5
 4748 0133 00       		.byte	0
 4749 0134 03       		.uleb128 0x3
 4750 0135 08       		.uleb128 0x8
 4751 0136 3A       		.uleb128 0x3a
 4752 0137 0B       		.uleb128 0xb
 4753 0138 3B       		.uleb128 0x3b
 4754 0139 05       		.uleb128 0x5
 4755 013a 49       		.uleb128 0x49
 4756 013b 13       		.uleb128 0x13
 4757 013c 02       		.uleb128 0x2
 4758 013d 18       		.uleb128 0x18
 4759 013e 00       		.byte	0
 4760 013f 00       		.byte	0
 4761 0140 16       		.uleb128 0x16
 4762 0141 34       		.uleb128 0x34
 4763 0142 00       		.byte	0
 4764 0143 03       		.uleb128 0x3
 4765 0144 08       		.uleb128 0x8
 4766 0145 3A       		.uleb128 0x3a
 4767 0146 0B       		.uleb128 0xb
 4768 0147 3B       		.uleb128 0x3b
 4769 0148 05       		.uleb128 0x5
 4770 0149 49       		.uleb128 0x49
 4771 014a 13       		.uleb128 0x13
 4772 014b 02       		.uleb128 0x2
 4773 014c 18       		.uleb128 0x18
 4774 014d 00       		.byte	0
 4775 014e 00       		.byte	0
 4776 014f 17       		.uleb128 0x17
 4777 0150 2E       		.uleb128 0x2e
 4778 0151 01       		.byte	0x1
 4779 0152 3F       		.uleb128 0x3f
 4780 0153 19       		.uleb128 0x19
 4781 0154 03       		.uleb128 0x3
 4782 0155 0E       		.uleb128 0xe
 4783 0156 3A       		.uleb128 0x3a
 4784 0157 0B       		.uleb128 0xb
ARM GAS  C:\Users\EDULU~1.DES\AppData\Local\Temp\ccKclfbr.s 			page 122


 4785 0158 3B       		.uleb128 0x3b
 4786 0159 05       		.uleb128 0x5
 4787 015a 27       		.uleb128 0x27
 4788 015b 19       		.uleb128 0x19
 4789 015c 11       		.uleb128 0x11
 4790 015d 01       		.uleb128 0x1
 4791 015e 12       		.uleb128 0x12
 4792 015f 06       		.uleb128 0x6
 4793 0160 40       		.uleb128 0x40
 4794 0161 18       		.uleb128 0x18
 4795 0162 9742     		.uleb128 0x2117
 4796 0164 19       		.uleb128 0x19
 4797 0165 01       		.uleb128 0x1
 4798 0166 13       		.uleb128 0x13
 4799 0167 00       		.byte	0
 4800 0168 00       		.byte	0
 4801 0169 18       		.uleb128 0x18
 4802 016a 2E       		.uleb128 0x2e
 4803 016b 01       		.byte	0x1
 4804 016c 03       		.uleb128 0x3
 4805 016d 0E       		.uleb128 0xe
 4806 016e 3A       		.uleb128 0x3a
 4807 016f 0B       		.uleb128 0xb
 4808 0170 3B       		.uleb128 0x3b
 4809 0171 05       		.uleb128 0x5
 4810 0172 27       		.uleb128 0x27
 4811 0173 19       		.uleb128 0x19
 4812 0174 11       		.uleb128 0x11
 4813 0175 01       		.uleb128 0x1
 4814 0176 12       		.uleb128 0x12
 4815 0177 06       		.uleb128 0x6
 4816 0178 40       		.uleb128 0x40
 4817 0179 18       		.uleb128 0x18
 4818 017a 9642     		.uleb128 0x2116
 4819 017c 19       		.uleb128 0x19
 4820 017d 01       		.uleb128 0x1
 4821 017e 13       		.uleb128 0x13
 4822 017f 00       		.byte	0
 4823 0180 00       		.byte	0
 4824 0181 19       		.uleb128 0x19
 4825 0182 2E       		.uleb128 0x2e
 4826 0183 00       		.byte	0
 4827 0184 03       		.uleb128 0x3
 4828 0185 0E       		.uleb128 0xe
 4829 0186 3A       		.uleb128 0x3a
 4830 0187 0B       		.uleb128 0xb
 4831 0188 3B       		.uleb128 0x3b
 4832 0189 05       		.uleb128 0x5
 4833 018a 27       		.uleb128 0x27
 4834 018b 19       		.uleb128 0x19
 4835 018c 11       		.uleb128 0x11
 4836 018d 01       		.uleb128 0x1
 4837 018e 12       		.uleb128 0x12
 4838 018f 06       		.uleb128 0x6
 4839 0190 40       		.uleb128 0x40
 4840 0191 18       		.uleb128 0x18
 4841 0192 9742     		.uleb128 0x2117
ARM GAS  C:\Users\EDULU~1.DES\AppData\Local\Temp\ccKclfbr.s 			page 123


 4842 0194 19       		.uleb128 0x19
 4843 0195 00       		.byte	0
 4844 0196 00       		.byte	0
 4845 0197 1A       		.uleb128 0x1a
 4846 0198 2E       		.uleb128 0x2e
 4847 0199 01       		.byte	0x1
 4848 019a 03       		.uleb128 0x3
 4849 019b 0E       		.uleb128 0xe
 4850 019c 3A       		.uleb128 0x3a
 4851 019d 0B       		.uleb128 0xb
 4852 019e 3B       		.uleb128 0x3b
 4853 019f 05       		.uleb128 0x5
 4854 01a0 27       		.uleb128 0x27
 4855 01a1 19       		.uleb128 0x19
 4856 01a2 11       		.uleb128 0x11
 4857 01a3 01       		.uleb128 0x1
 4858 01a4 12       		.uleb128 0x12
 4859 01a5 06       		.uleb128 0x6
 4860 01a6 40       		.uleb128 0x40
 4861 01a7 18       		.uleb128 0x18
 4862 01a8 9742     		.uleb128 0x2117
 4863 01aa 19       		.uleb128 0x19
 4864 01ab 01       		.uleb128 0x1
 4865 01ac 13       		.uleb128 0x13
 4866 01ad 00       		.byte	0
 4867 01ae 00       		.byte	0
 4868 01af 1B       		.uleb128 0x1b
 4869 01b0 2E       		.uleb128 0x2e
 4870 01b1 00       		.byte	0
 4871 01b2 03       		.uleb128 0x3
 4872 01b3 0E       		.uleb128 0xe
 4873 01b4 3A       		.uleb128 0x3a
 4874 01b5 0B       		.uleb128 0xb
 4875 01b6 3B       		.uleb128 0x3b
 4876 01b7 05       		.uleb128 0x5
 4877 01b8 27       		.uleb128 0x27
 4878 01b9 19       		.uleb128 0x19
 4879 01ba 11       		.uleb128 0x11
 4880 01bb 01       		.uleb128 0x1
 4881 01bc 12       		.uleb128 0x12
 4882 01bd 06       		.uleb128 0x6
 4883 01be 40       		.uleb128 0x40
 4884 01bf 18       		.uleb128 0x18
 4885 01c0 9642     		.uleb128 0x2116
 4886 01c2 19       		.uleb128 0x19
 4887 01c3 00       		.byte	0
 4888 01c4 00       		.byte	0
 4889 01c5 1C       		.uleb128 0x1c
 4890 01c6 2E       		.uleb128 0x2e
 4891 01c7 01       		.byte	0x1
 4892 01c8 3F       		.uleb128 0x3f
 4893 01c9 19       		.uleb128 0x19
 4894 01ca 03       		.uleb128 0x3
 4895 01cb 0E       		.uleb128 0xe
 4896 01cc 3A       		.uleb128 0x3a
 4897 01cd 0B       		.uleb128 0xb
 4898 01ce 3B       		.uleb128 0x3b
ARM GAS  C:\Users\EDULU~1.DES\AppData\Local\Temp\ccKclfbr.s 			page 124


 4899 01cf 05       		.uleb128 0x5
 4900 01d0 27       		.uleb128 0x27
 4901 01d1 19       		.uleb128 0x19
 4902 01d2 49       		.uleb128 0x49
 4903 01d3 13       		.uleb128 0x13
 4904 01d4 11       		.uleb128 0x11
 4905 01d5 01       		.uleb128 0x1
 4906 01d6 12       		.uleb128 0x12
 4907 01d7 06       		.uleb128 0x6
 4908 01d8 40       		.uleb128 0x40
 4909 01d9 18       		.uleb128 0x18
 4910 01da 9742     		.uleb128 0x2117
 4911 01dc 19       		.uleb128 0x19
 4912 01dd 01       		.uleb128 0x1
 4913 01de 13       		.uleb128 0x13
 4914 01df 00       		.byte	0
 4915 01e0 00       		.byte	0
 4916 01e1 1D       		.uleb128 0x1d
 4917 01e2 34       		.uleb128 0x34
 4918 01e3 00       		.byte	0
 4919 01e4 03       		.uleb128 0x3
 4920 01e5 0E       		.uleb128 0xe
 4921 01e6 3A       		.uleb128 0x3a
 4922 01e7 0B       		.uleb128 0xb
 4923 01e8 3B       		.uleb128 0x3b
 4924 01e9 05       		.uleb128 0x5
 4925 01ea 49       		.uleb128 0x49
 4926 01eb 13       		.uleb128 0x13
 4927 01ec 3F       		.uleb128 0x3f
 4928 01ed 19       		.uleb128 0x19
 4929 01ee 02       		.uleb128 0x2
 4930 01ef 18       		.uleb128 0x18
 4931 01f0 00       		.byte	0
 4932 01f1 00       		.byte	0
 4933 01f2 1E       		.uleb128 0x1e
 4934 01f3 35       		.uleb128 0x35
 4935 01f4 00       		.byte	0
 4936 01f5 49       		.uleb128 0x49
 4937 01f6 13       		.uleb128 0x13
 4938 01f7 00       		.byte	0
 4939 01f8 00       		.byte	0
 4940 01f9 1F       		.uleb128 0x1f
 4941 01fa 26       		.uleb128 0x26
 4942 01fb 00       		.byte	0
 4943 01fc 49       		.uleb128 0x49
 4944 01fd 13       		.uleb128 0x13
 4945 01fe 00       		.byte	0
 4946 01ff 00       		.byte	0
 4947 0200 20       		.uleb128 0x20
 4948 0201 34       		.uleb128 0x34
 4949 0202 00       		.byte	0
 4950 0203 03       		.uleb128 0x3
 4951 0204 0E       		.uleb128 0xe
 4952 0205 3A       		.uleb128 0x3a
 4953 0206 0B       		.uleb128 0xb
 4954 0207 3B       		.uleb128 0x3b
 4955 0208 0B       		.uleb128 0xb
ARM GAS  C:\Users\EDULU~1.DES\AppData\Local\Temp\ccKclfbr.s 			page 125


 4956 0209 49       		.uleb128 0x49
 4957 020a 13       		.uleb128 0x13
 4958 020b 3F       		.uleb128 0x3f
 4959 020c 19       		.uleb128 0x19
 4960 020d 02       		.uleb128 0x2
 4961 020e 18       		.uleb128 0x18
 4962 020f 00       		.byte	0
 4963 0210 00       		.byte	0
 4964 0211 00       		.byte	0
 4965              		.section	.debug_aranges,"",%progbits
 4966 0000 F4000000 		.4byte	0xf4
 4967 0004 0200     		.2byte	0x2
 4968 0006 00000000 		.4byte	.Ldebug_info0
 4969 000a 04       		.byte	0x4
 4970 000b 00       		.byte	0
 4971 000c 0000     		.2byte	0
 4972 000e 0000     		.2byte	0
 4973 0010 00000000 		.4byte	.LFB1
 4974 0014 2E000000 		.4byte	.LFE1-.LFB1
 4975 0018 00000000 		.4byte	.LFB2
 4976 001c 30000000 		.4byte	.LFE2-.LFB2
 4977 0020 00000000 		.4byte	.LFB3
 4978 0024 9C000000 		.4byte	.LFE3-.LFB3
 4979 0028 00000000 		.4byte	.LFB4
 4980 002c 54000000 		.4byte	.LFE4-.LFB4
 4981 0030 00000000 		.4byte	.LFB5
 4982 0034 7C000000 		.4byte	.LFE5-.LFB5
 4983 0038 00000000 		.4byte	.LFB6
 4984 003c 54000000 		.4byte	.LFE6-.LFB6
 4985 0040 00000000 		.4byte	.LFB7
 4986 0044 60000000 		.4byte	.LFE7-.LFB7
 4987 0048 00000000 		.4byte	.LFB8
 4988 004c 58010000 		.4byte	.LFE8-.LFB8
 4989 0050 00000000 		.4byte	.LFB9
 4990 0054 10000000 		.4byte	.LFE9-.LFB9
 4991 0058 00000000 		.4byte	.LFB10
 4992 005c F4000000 		.4byte	.LFE10-.LFB10
 4993 0060 00000000 		.4byte	.LFB11
 4994 0064 BC000000 		.4byte	.LFE11-.LFB11
 4995 0068 00000000 		.4byte	.LFB12
 4996 006c 72000000 		.4byte	.LFE12-.LFB12
 4997 0070 00000000 		.4byte	.LFB13
 4998 0074 46000000 		.4byte	.LFE13-.LFB13
 4999 0078 00000000 		.4byte	.LFB14
 5000 007c 98000000 		.4byte	.LFE14-.LFB14
 5001 0080 00000000 		.4byte	.LFB15
 5002 0084 78000000 		.4byte	.LFE15-.LFB15
 5003 0088 00000000 		.4byte	.LFB16
 5004 008c 68000000 		.4byte	.LFE16-.LFB16
 5005 0090 00000000 		.4byte	.LFB17
 5006 0094 3C000000 		.4byte	.LFE17-.LFB17
 5007 0098 00000000 		.4byte	.LFB18
 5008 009c 3C000000 		.4byte	.LFE18-.LFB18
 5009 00a0 00000000 		.4byte	.LFB19
 5010 00a4 BC000000 		.4byte	.LFE19-.LFB19
 5011 00a8 00000000 		.4byte	.LFB20
 5012 00ac 34000000 		.4byte	.LFE20-.LFB20
ARM GAS  C:\Users\EDULU~1.DES\AppData\Local\Temp\ccKclfbr.s 			page 126


 5013 00b0 00000000 		.4byte	.LFB21
 5014 00b4 3A000000 		.4byte	.LFE21-.LFB21
 5015 00b8 00000000 		.4byte	.LFB22
 5016 00bc 7C000000 		.4byte	.LFE22-.LFB22
 5017 00c0 00000000 		.4byte	.LFB23
 5018 00c4 4C000000 		.4byte	.LFE23-.LFB23
 5019 00c8 00000000 		.4byte	.LFB24
 5020 00cc 46000000 		.4byte	.LFE24-.LFB24
 5021 00d0 00000000 		.4byte	.LFB25
 5022 00d4 30000000 		.4byte	.LFE25-.LFB25
 5023 00d8 00000000 		.4byte	.LFB26
 5024 00dc C0000000 		.4byte	.LFE26-.LFB26
 5025 00e0 00000000 		.4byte	.LFB27
 5026 00e4 64000000 		.4byte	.LFE27-.LFB27
 5027 00e8 00000000 		.4byte	.LFB28
 5028 00ec EC010000 		.4byte	.LFE28-.LFB28
 5029 00f0 00000000 		.4byte	0
 5030 00f4 00000000 		.4byte	0
 5031              		.section	.debug_ranges,"",%progbits
 5032              	.Ldebug_ranges0:
 5033 0000 00000000 		.4byte	.LFB1
 5034 0004 2E000000 		.4byte	.LFE1
 5035 0008 00000000 		.4byte	.LFB2
 5036 000c 30000000 		.4byte	.LFE2
 5037 0010 00000000 		.4byte	.LFB3
 5038 0014 9C000000 		.4byte	.LFE3
 5039 0018 00000000 		.4byte	.LFB4
 5040 001c 54000000 		.4byte	.LFE4
 5041 0020 00000000 		.4byte	.LFB5
 5042 0024 7C000000 		.4byte	.LFE5
 5043 0028 00000000 		.4byte	.LFB6
 5044 002c 54000000 		.4byte	.LFE6
 5045 0030 00000000 		.4byte	.LFB7
 5046 0034 60000000 		.4byte	.LFE7
 5047 0038 00000000 		.4byte	.LFB8
 5048 003c 58010000 		.4byte	.LFE8
 5049 0040 00000000 		.4byte	.LFB9
 5050 0044 10000000 		.4byte	.LFE9
 5051 0048 00000000 		.4byte	.LFB10
 5052 004c F4000000 		.4byte	.LFE10
 5053 0050 00000000 		.4byte	.LFB11
 5054 0054 BC000000 		.4byte	.LFE11
 5055 0058 00000000 		.4byte	.LFB12
 5056 005c 72000000 		.4byte	.LFE12
 5057 0060 00000000 		.4byte	.LFB13
 5058 0064 46000000 		.4byte	.LFE13
 5059 0068 00000000 		.4byte	.LFB14
 5060 006c 98000000 		.4byte	.LFE14
 5061 0070 00000000 		.4byte	.LFB15
 5062 0074 78000000 		.4byte	.LFE15
 5063 0078 00000000 		.4byte	.LFB16
 5064 007c 68000000 		.4byte	.LFE16
 5065 0080 00000000 		.4byte	.LFB17
 5066 0084 3C000000 		.4byte	.LFE17
 5067 0088 00000000 		.4byte	.LFB18
 5068 008c 3C000000 		.4byte	.LFE18
 5069 0090 00000000 		.4byte	.LFB19
ARM GAS  C:\Users\EDULU~1.DES\AppData\Local\Temp\ccKclfbr.s 			page 127


 5070 0094 BC000000 		.4byte	.LFE19
 5071 0098 00000000 		.4byte	.LFB20
 5072 009c 34000000 		.4byte	.LFE20
 5073 00a0 00000000 		.4byte	.LFB21
 5074 00a4 3A000000 		.4byte	.LFE21
 5075 00a8 00000000 		.4byte	.LFB22
 5076 00ac 7C000000 		.4byte	.LFE22
 5077 00b0 00000000 		.4byte	.LFB23
 5078 00b4 4C000000 		.4byte	.LFE23
 5079 00b8 00000000 		.4byte	.LFB24
 5080 00bc 46000000 		.4byte	.LFE24
 5081 00c0 00000000 		.4byte	.LFB25
 5082 00c4 30000000 		.4byte	.LFE25
 5083 00c8 00000000 		.4byte	.LFB26
 5084 00cc C0000000 		.4byte	.LFE26
 5085 00d0 00000000 		.4byte	.LFB27
 5086 00d4 64000000 		.4byte	.LFE27
 5087 00d8 00000000 		.4byte	.LFB28
 5088 00dc EC010000 		.4byte	.LFE28
 5089 00e0 00000000 		.4byte	0
 5090 00e4 00000000 		.4byte	0
 5091              		.section	.debug_line,"",%progbits
 5092              	.Ldebug_line0:
 5093 0000 6F040000 		.section	.debug_str,"MS",%progbits,1
 5093      0200A600 
 5093      00000201 
 5093      FB0E0D00 
 5093      01010101 
 5094              	.LASF32:
 5095 0000 6F735F74 		.ascii	"os_tcb\000"
 5095      636200
 5096              	.LASF31:
 5097 0007 4F535F53 		.ascii	"OS_STK_DATA\000"
 5097      544B5F44 
 5097      41544100 
 5098              	.LASF14:
 5099 0013 494E5431 		.ascii	"INT16U\000"
 5099      365500
 5100              	.LASF148:
 5101 001a 4F53546D 		.ascii	"OSTmrSemSignal\000"
 5101      7253656D 
 5101      5369676E 
 5101      616C00
 5102              	.LASF58:
 5103 0029 4F53546D 		.ascii	"OSTmrPrev\000"
 5103      72507265 
 5103      7600
 5104              	.LASF75:
 5105 0033 4F535363 		.ascii	"OSSchedUnlock\000"
 5105      68656455 
 5105      6E6C6F63 
 5105      6B00
 5106              	.LASF146:
 5107 0041 4F53546D 		.ascii	"OSTmrTime\000"
 5107      7254696D 
 5107      6500
 5108              	.LASF82:
ARM GAS  C:\Users\EDULU~1.DES\AppData\Local\Temp\ccKclfbr.s 			page 128


 5109 004b 706D7367 		.ascii	"pmsg\000"
 5109      00
 5110              	.LASF139:
 5111 0050 4F535443 		.ascii	"OSTCBPrioTbl\000"
 5111      42507269 
 5111      6F54626C 
 5111      00
 5112              	.LASF72:
 5113 005d 4F53496E 		.ascii	"OSIntExit\000"
 5113      74457869 
 5113      7400
 5114              	.LASF8:
 5115 0067 756E7369 		.ascii	"unsigned int\000"
 5115      676E6564 
 5115      20696E74 
 5115      00
 5116              	.LASF33:
 5117 0074 4F535443 		.ascii	"OSTCBStkPtr\000"
 5117      4253746B 
 5117      50747200 
 5118              	.LASF26:
 5119 0080 4F535F45 		.ascii	"OS_EVENT\000"
 5119      56454E54 
 5119      00
 5120              	.LASF52:
 5121 0089 4F535F54 		.ascii	"OS_TMR_CALLBACK\000"
 5121      4D525F43 
 5121      414C4C42 
 5121      41434B00 
 5122              	.LASF118:
 5123 0099 4F534374 		.ascii	"OSCtxSwCtr\000"
 5123      78537743 
 5123      747200
 5124              	.LASF88:
 5125 00a4 69785F6E 		.ascii	"ix_next\000"
 5125      65787400 
 5126              	.LASF61:
 5127 00ac 4F53546D 		.ascii	"OSTmrPeriod\000"
 5127      72506572 
 5127      696F6400 
 5128              	.LASF71:
 5129 00b8 4F53496E 		.ascii	"OSIntEnter\000"
 5129      74456E74 
 5129      657200
 5130              	.LASF154:
 5131 00c3 474E5520 		.ascii	"GNU C11 5.4.1 20160609 (release) [ARM/embedded-5-br"
 5131      43313120 
 5131      352E342E 
 5131      31203230 
 5131      31363036 
 5132 00f6 616E6368 		.ascii	"anch revision 237715] -mcpu=cortex-m0 -mthumb -g -O"
 5132      20726576 
 5132      6973696F 
 5132      6E203233 
 5132      37373135 
 5133 0129 30202D66 		.ascii	"0 -ffunction-sections -ffat-lto-objects\000"
 5133      66756E63 
ARM GAS  C:\Users\EDULU~1.DES\AppData\Local\Temp\ccKclfbr.s 			page 129


 5133      74696F6E 
 5133      2D736563 
 5133      74696F6E 
 5134              	.LASF77:
 5135 0151 4F535374 		.ascii	"OSStatInit\000"
 5135      6174496E 
 5135      697400
 5136              	.LASF70:
 5137 015c 4F53496E 		.ascii	"OSInit\000"
 5137      697400
 5138              	.LASF12:
 5139 0163 424F4F4C 		.ascii	"BOOLEAN\000"
 5139      45414E00 
 5140              	.LASF24:
 5141 016b 4F534576 		.ascii	"OSEventGrp\000"
 5141      656E7447 
 5141      727000
 5142              	.LASF85:
 5143 0176 4F535F45 		.ascii	"OS_EventTaskWait\000"
 5143      76656E74 
 5143      5461736B 
 5143      57616974 
 5143      00
 5144              	.LASF124:
 5145 0187 4F535461 		.ascii	"OSTaskStatStk\000"
 5145      736B5374 
 5145      61745374 
 5145      6B00
 5146              	.LASF92:
 5147 0195 4F535F49 		.ascii	"OS_InitRdyList\000"
 5147      6E697452 
 5147      64794C69 
 5147      737400
 5148              	.LASF67:
 5149 01a4 4F53546D 		.ascii	"OSTmrFirst\000"
 5149      72466972 
 5149      737400
 5150              	.LASF128:
 5151 01af 4F535072 		.ascii	"OSPrioHighRdy\000"
 5151      696F4869 
 5151      67685264 
 5151      7900
 5152              	.LASF119:
 5153 01bd 4F534576 		.ascii	"OSEventFreeList\000"
 5153      656E7446 
 5153      7265654C 
 5153      69737400 
 5154              	.LASF20:
 5155 01cd 4F535F50 		.ascii	"OS_PRIO\000"
 5155      52494F00 
 5156              	.LASF16:
 5157 01d5 666C6F61 		.ascii	"float\000"
 5157      7400
 5158              	.LASF38:
 5159 01db 4F535443 		.ascii	"OSTCBId\000"
 5159      42496400 
 5160              	.LASF117:
ARM GAS  C:\Users\EDULU~1.DES\AppData\Local\Temp\ccKclfbr.s 			page 130


 5161 01e3 70657874 		.ascii	"pext\000"
 5161      00
 5162              	.LASF25:
 5163 01e8 4F534576 		.ascii	"OSEventTbl\000"
 5163      656E7454 
 5163      626C00
 5164              	.LASF74:
 5165 01f3 6370755F 		.ascii	"cpu_sr\000"
 5165      737200
 5166              	.LASF7:
 5167 01fa 6C6F6E67 		.ascii	"long long unsigned int\000"
 5167      206C6F6E 
 5167      6720756E 
 5167      7369676E 
 5167      65642069 
 5168              	.LASF42:
 5169 0211 4F535443 		.ascii	"OSTCBDly\000"
 5169      42446C79 
 5169      00
 5170              	.LASF144:
 5171 021a 4F53546D 		.ascii	"OSTmrFree\000"
 5171      72467265 
 5171      6500
 5172              	.LASF153:
 5173 0224 4F53556E 		.ascii	"OSUnMapTbl\000"
 5173      4D617054 
 5173      626C00
 5174              	.LASF122:
 5175 022f 4F534964 		.ascii	"OSIdleCtrRun\000"
 5175      6C654374 
 5175      7252756E 
 5175      00
 5176              	.LASF23:
 5177 023c 4F534576 		.ascii	"OSEventCnt\000"
 5177      656E7443 
 5177      6E7400
 5178              	.LASF86:
 5179 0247 4F535F45 		.ascii	"OS_EventTaskRemove\000"
 5179      76656E74 
 5179      5461736B 
 5179      52656D6F 
 5179      766500
 5180              	.LASF120:
 5181 025a 4F534350 		.ascii	"OSCPUUsage\000"
 5181      55557361 
 5181      676500
 5182              	.LASF60:
 5183 0265 4F53546D 		.ascii	"OSTmrDly\000"
 5183      72446C79 
 5183      00
 5184              	.LASF127:
 5185 026e 4F535072 		.ascii	"OSPrioCur\000"
 5185      696F4375 
 5185      7200
 5186              	.LASF141:
 5187 0278 4F535469 		.ascii	"OSTickStepState\000"
 5187      636B5374 
ARM GAS  C:\Users\EDULU~1.DES\AppData\Local\Temp\ccKclfbr.s 			page 131


 5187      65705374 
 5187      61746500 
 5188              	.LASF64:
 5189 0288 4F53546D 		.ascii	"OSTmrState\000"
 5189      72537461 
 5189      746500
 5190              	.LASF145:
 5191 0293 4F53546D 		.ascii	"OSTmrUsed\000"
 5191      72557365 
 5191      6400
 5192              	.LASF133:
 5193 029d 4F534964 		.ascii	"OSIdleCtr\000"
 5193      6C654374 
 5193      7200
 5194              	.LASF104:
 5195 02a7 4F535F53 		.ascii	"OS_Sched\000"
 5195      63686564 
 5195      00
 5196              	.LASF152:
 5197 02b0 4F53546D 		.ascii	"OSTmrWheelTbl\000"
 5197      72576865 
 5197      656C5462 
 5197      6C00
 5198              	.LASF107:
 5199 02be 4F535F53 		.ascii	"OS_StrLen\000"
 5199      74724C65 
 5199      6E00
 5200              	.LASF100:
 5201 02c8 70646573 		.ascii	"pdest\000"
 5201      7400
 5202              	.LASF134:
 5203 02ce 4F535461 		.ascii	"OSTaskIdleStk\000"
 5203      736B4964 
 5203      6C655374 
 5203      6B00
 5204              	.LASF55:
 5205 02dc 4F53546D 		.ascii	"OSTmrCallback\000"
 5205      7243616C 
 5205      6C626163 
 5205      6B00
 5206              	.LASF91:
 5207 02ea 4F535F49 		.ascii	"OS_InitEventList\000"
 5207      6E697445 
 5207      76656E74 
 5207      4C697374 
 5207      00
 5208              	.LASF132:
 5209 02fb 4F535461 		.ascii	"OSTaskCtr\000"
 5209      736B4374 
 5209      7200
 5210              	.LASF94:
 5211 0305 4F535F49 		.ascii	"OS_InitTaskIdle\000"
 5211      6E697454 
 5211      61736B49 
 5211      646C6500 
 5212              	.LASF151:
 5213 0315 4F53546D 		.ascii	"OSTmrTaskStk\000"
ARM GAS  C:\Users\EDULU~1.DES\AppData\Local\Temp\ccKclfbr.s 			page 132


 5213      72546173 
 5213      6B53746B 
 5213      00
 5214              	.LASF39:
 5215 0322 4F535443 		.ascii	"OSTCBNext\000"
 5215      424E6578 
 5215      7400
 5216              	.LASF110:
 5217 032c 4F535F54 		.ascii	"OS_TaskStat\000"
 5217      61736B53 
 5217      74617400 
 5218              	.LASF126:
 5219 0338 4F534C6F 		.ascii	"OSLockNesting\000"
 5219      636B4E65 
 5219      7374696E 
 5219      6700
 5220              	.LASF78:
 5221 0346 4F535469 		.ascii	"OSTimeTick\000"
 5221      6D655469 
 5221      636B00
 5222              	.LASF84:
 5223 0351 7072696F 		.ascii	"prio\000"
 5223      00
 5224              	.LASF11:
 5225 0356 63686172 		.ascii	"char\000"
 5225      00
 5226              	.LASF83:
 5227 035b 70656E64 		.ascii	"pend_stat\000"
 5227      5F737461 
 5227      7400
 5228              	.LASF73:
 5229 0365 4F535363 		.ascii	"OSSchedLock\000"
 5229      6865644C 
 5229      6F636B00 
 5230              	.LASF135:
 5231 0371 4F535443 		.ascii	"OSTCBCur\000"
 5231      42437572 
 5231      00
 5232              	.LASF40:
 5233 037a 4F535443 		.ascii	"OSTCBPrev\000"
 5233      42507265 
 5233      7600
 5234              	.LASF115:
 5235 0384 70626F73 		.ascii	"pbos\000"
 5235      00
 5236              	.LASF87:
 5237 0389 4F535F45 		.ascii	"OS_EventWaitListInit\000"
 5237      76656E74 
 5237      57616974 
 5237      4C697374 
 5237      496E6974 
 5238              	.LASF34:
 5239 039e 4F535443 		.ascii	"OSTCBExtPtr\000"
 5239      42457874 
 5239      50747200 
 5240              	.LASF113:
 5241 03aa 4F535F54 		.ascii	"OS_TCBInit\000"
ARM GAS  C:\Users\EDULU~1.DES\AppData\Local\Temp\ccKclfbr.s 			page 133


 5241      4342496E 
 5241      697400
 5242              	.LASF89:
 5243 03b5 70657665 		.ascii	"pevent1\000"
 5243      6E743100 
 5244              	.LASF90:
 5245 03bd 70657665 		.ascii	"pevent2\000"
 5245      6E743200 
 5246              	.LASF102:
 5247 03c5 4F535F4D 		.ascii	"OS_MemCopy\000"
 5247      656D436F 
 5247      707900
 5248              	.LASF6:
 5249 03d0 6C6F6E67 		.ascii	"long long int\000"
 5249      206C6F6E 
 5249      6720696E 
 5249      7400
 5250              	.LASF131:
 5251 03de 4F535275 		.ascii	"OSRunning\000"
 5251      6E6E696E 
 5251      6700
 5252              	.LASF36:
 5253 03e8 4F535443 		.ascii	"OSTCBStkSize\000"
 5253      4253746B 
 5253      53697A65 
 5253      00
 5254              	.LASF44:
 5255 03f5 4F535443 		.ascii	"OSTCBStatPend\000"
 5255      42537461 
 5255      7450656E 
 5255      6400
 5256              	.LASF15:
 5257 0403 494E5433 		.ascii	"INT32U\000"
 5257      325500
 5258              	.LASF69:
 5259 040a 4F535F54 		.ascii	"OS_TMR_WHEEL\000"
 5259      4D525F57 
 5259      4845454C 
 5259      00
 5260              	.LASF80:
 5261 0417 73746570 		.ascii	"step\000"
 5261      00
 5262              	.LASF101:
 5263 041c 73697A65 		.ascii	"size\000"
 5263      00
 5264              	.LASF96:
 5265 0421 4F535F49 		.ascii	"OS_InitTCBList\000"
 5265      6E697454 
 5265      43424C69 
 5265      737400
 5266              	.LASF103:
 5267 0430 70737263 		.ascii	"psrc\000"
 5267      00
 5268              	.LASF81:
 5269 0435 70657665 		.ascii	"pevent\000"
 5269      6E7400
 5270              	.LASF97:
ARM GAS  C:\Users\EDULU~1.DES\AppData\Local\Temp\ccKclfbr.s 			page 134


 5271 043c 70746362 		.ascii	"ptcb1\000"
 5271      3100
 5272              	.LASF98:
 5273 0442 70746362 		.ascii	"ptcb2\000"
 5273      3200
 5274              	.LASF114:
 5275 0448 70746F73 		.ascii	"ptos\000"
 5275      00
 5276              	.LASF13:
 5277 044d 494E5438 		.ascii	"INT8U\000"
 5277      5500
 5278              	.LASF9:
 5279 0453 6C6F6E67 		.ascii	"long double\000"
 5279      20646F75 
 5279      626C6500 
 5280              	.LASF105:
 5281 045f 4F535F53 		.ascii	"OS_SchedNew\000"
 5281      63686564 
 5281      4E657700 
 5282              	.LASF65:
 5283 046b 4F535F54 		.ascii	"OS_TMR\000"
 5283      4D5200
 5284              	.LASF27:
 5285 0472 6F735F65 		.ascii	"os_event\000"
 5285      76656E74 
 5285      00
 5286              	.LASF62:
 5287 047b 4F53546D 		.ascii	"OSTmrName\000"
 5287      724E616D 
 5287      6500
 5288              	.LASF116:
 5289 0485 73746B5F 		.ascii	"stk_size\000"
 5289      73697A65 
 5289      00
 5290              	.LASF35:
 5291 048e 4F535443 		.ascii	"OSTCBStkBottom\000"
 5291      4253746B 
 5291      426F7474 
 5291      6F6D00
 5292              	.LASF2:
 5293 049d 73686F72 		.ascii	"short int\000"
 5293      7420696E 
 5293      7400
 5294              	.LASF53:
 5295 04a7 6F735F74 		.ascii	"os_tmr\000"
 5295      6D7200
 5296              	.LASF123:
 5297 04ae 4F535374 		.ascii	"OSStatRdy\000"
 5297      61745264 
 5297      7900
 5298              	.LASF4:
 5299 04b8 6C6F6E67 		.ascii	"long int\000"
 5299      20696E74 
 5299      00
 5300              	.LASF111:
 5301 04c1 4F535F54 		.ascii	"OS_TaskStatStkChk\000"
 5301      61736B53 
ARM GAS  C:\Users\EDULU~1.DES\AppData\Local\Temp\ccKclfbr.s 			page 135


 5301      74617453 
 5301      746B4368 
 5301      6B00
 5302              	.LASF18:
 5303 04d3 4F535F53 		.ascii	"OS_STK\000"
 5303      544B00
 5304              	.LASF150:
 5305 04da 4F53546D 		.ascii	"OSTmrFreeList\000"
 5305      72467265 
 5305      654C6973 
 5305      7400
 5306              	.LASF45:
 5307 04e8 4F535443 		.ascii	"OSTCBPrio\000"
 5307      42507269 
 5307      6F00
 5308              	.LASF137:
 5309 04f2 4F535443 		.ascii	"OSTCBHighRdy\000"
 5309      42486967 
 5309      68526479 
 5309      00
 5310              	.LASF43:
 5311 04ff 4F535443 		.ascii	"OSTCBStat\000"
 5311      42537461 
 5311      7400
 5312              	.LASF29:
 5313 0509 4F534672 		.ascii	"OSFree\000"
 5313      656500
 5314              	.LASF63:
 5315 0510 4F53546D 		.ascii	"OSTmrOpt\000"
 5315      724F7074 
 5315      00
 5316              	.LASF56:
 5317 0519 4F53546D 		.ascii	"OSTmrCallbackArg\000"
 5317      7243616C 
 5317      6C626163 
 5317      6B417267 
 5317      00
 5318              	.LASF143:
 5319 052a 4F535469 		.ascii	"OSTime\000"
 5319      6D6500
 5320              	.LASF48:
 5321 0531 4F535443 		.ascii	"OSTCBBitX\000"
 5321      42426974 
 5321      5800
 5322              	.LASF49:
 5323 053b 4F535443 		.ascii	"OSTCBBitY\000"
 5323      42426974 
 5323      5900
 5324              	.LASF30:
 5325 0545 4F535573 		.ascii	"OSUsed\000"
 5325      656400
 5326              	.LASF129:
 5327 054c 4F535264 		.ascii	"OSRdyGrp\000"
 5327      79477270 
 5327      00
 5328              	.LASF147:
 5329 0555 4F53546D 		.ascii	"OSTmrSem\000"
ARM GAS  C:\Users\EDULU~1.DES\AppData\Local\Temp\ccKclfbr.s 			page 136


 5329      7253656D 
 5329      00
 5330              	.LASF155:
 5331 055e 2E2E5C2E 		.ascii	"..\\..\\..\\..\\..\\..\\Software\\uCOS-II\\Source\\"
 5331      2E5C2E2E 
 5331      5C2E2E5C 
 5331      2E2E5C2E 
 5331      2E5C536F 
 5332 0588 6F735F63 		.ascii	"os_core.c\000"
 5332      6F72652E 
 5332      6300
 5333              	.LASF109:
 5334 0592 705F6172 		.ascii	"p_arg\000"
 5334      6700
 5335              	.LASF10:
 5336 0598 73697A65 		.ascii	"sizetype\000"
 5336      74797065 
 5336      00
 5337              	.LASF79:
 5338 05a1 70746362 		.ascii	"ptcb\000"
 5338      00
 5339              	.LASF5:
 5340 05a6 6C6F6E67 		.ascii	"long unsigned int\000"
 5340      20756E73 
 5340      69676E65 
 5340      6420696E 
 5340      7400
 5341              	.LASF19:
 5342 05b8 4F535F43 		.ascii	"OS_CPU_SR\000"
 5342      50555F53 
 5342      5200
 5343              	.LASF156:
 5344 05c2 433A5C55 		.ascii	"C:\\Users\\edulu.DESKTOP-961TG4K\\Documents\\PSoC C"
 5344      73657273 
 5344      5C656475 
 5344      6C752E44 
 5344      45534B54 
 5345 05f1 72656174 		.ascii	"reator\\Micrium\\Examples\\Cypress\\CY8CKIT-044\\OS"
 5345      6F725C4D 
 5345      69637269 
 5345      756D5C45 
 5345      78616D70 
 5346 061f 325C5053 		.ascii	"2\\PSoC\\OS2.cydsn\000"
 5346      6F435C4F 
 5346      53322E63 
 5346      7964736E 
 5346      00
 5347              	.LASF106:
 5348 0630 4F535F45 		.ascii	"OS_EventTaskRdy\000"
 5348      76656E74 
 5348      5461736B 
 5348      52647900 
 5349              	.LASF46:
 5350 0640 4F535443 		.ascii	"OSTCBX\000"
 5350      425800
 5351              	.LASF47:
 5352 0647 4F535443 		.ascii	"OSTCBY\000"
ARM GAS  C:\Users\EDULU~1.DES\AppData\Local\Temp\ccKclfbr.s 			page 137


 5352      425900
 5353              	.LASF93:
 5354 064e 4F535F49 		.ascii	"OS_InitMisc\000"
 5354      6E69744D 
 5354      69736300 
 5355              	.LASF1:
 5356 065a 756E7369 		.ascii	"unsigned char\000"
 5356      676E6564 
 5356      20636861 
 5356      7200
 5357              	.LASF54:
 5358 0668 4F53546D 		.ascii	"OSTmrType\000"
 5358      72547970 
 5358      6500
 5359              	.LASF22:
 5360 0672 4F534576 		.ascii	"OSEventPtr\000"
 5360      656E7450 
 5360      747200
 5361              	.LASF76:
 5362 067d 4F535374 		.ascii	"OSStart\000"
 5362      61727400 
 5363              	.LASF142:
 5364 0685 4F535461 		.ascii	"OSTaskRegNextAvailID\000"
 5364      736B5265 
 5364      674E6578 
 5364      74417661 
 5364      696C4944 
 5365              	.LASF112:
 5366 069a 73746B5F 		.ascii	"stk_data\000"
 5366      64617461 
 5366      00
 5367              	.LASF59:
 5368 06a3 4F53546D 		.ascii	"OSTmrMatch\000"
 5368      724D6174 
 5368      636800
 5369              	.LASF50:
 5370 06ae 4F535443 		.ascii	"OSTCBRegTbl\000"
 5370      42526567 
 5370      54626C00 
 5371              	.LASF37:
 5372 06ba 4F535443 		.ascii	"OSTCBOpt\000"
 5372      424F7074 
 5372      00
 5373              	.LASF130:
 5374 06c3 4F535264 		.ascii	"OSRdyTbl\000"
 5374      7954626C 
 5374      00
 5375              	.LASF95:
 5376 06cc 4F535F49 		.ascii	"OS_InitTaskStat\000"
 5376      6E697454 
 5376      61736B53 
 5376      74617400 
 5377              	.LASF138:
 5378 06dc 4F535443 		.ascii	"OSTCBList\000"
 5378      424C6973 
 5378      7400
 5379              	.LASF0:
ARM GAS  C:\Users\EDULU~1.DES\AppData\Local\Temp\ccKclfbr.s 			page 138


 5380 06e6 7369676E 		.ascii	"signed char\000"
 5380      65642063 
 5380      68617200 
 5381              	.LASF41:
 5382 06f2 4F535443 		.ascii	"OSTCBEventPtr\000"
 5382      42457665 
 5382      6E745074 
 5382      7200
 5383              	.LASF3:
 5384 0700 73686F72 		.ascii	"short unsigned int\000"
 5384      7420756E 
 5384      7369676E 
 5384      65642069 
 5384      6E7400
 5385              	.LASF21:
 5386 0713 4F534576 		.ascii	"OSEventType\000"
 5386      656E7454 
 5386      79706500 
 5387              	.LASF140:
 5388 071f 4F535443 		.ascii	"OSTCBTbl\000"
 5388      4254626C 
 5388      00
 5389              	.LASF68:
 5390 0728 4F53546D 		.ascii	"OSTmrEntries\000"
 5390      72456E74 
 5390      72696573 
 5390      00
 5391              	.LASF17:
 5392 0735 646F7562 		.ascii	"double\000"
 5392      6C6500
 5393              	.LASF99:
 5394 073c 4F535F4D 		.ascii	"OS_MemClr\000"
 5394      656D436C 
 5394      7200
 5395              	.LASF136:
 5396 0746 4F535443 		.ascii	"OSTCBFreeList\000"
 5396      42467265 
 5396      654C6973 
 5396      7400
 5397              	.LASF157:
 5398 0754 4F535665 		.ascii	"OSVersion\000"
 5398      7273696F 
 5398      6E00
 5399              	.LASF51:
 5400 075e 4F535F54 		.ascii	"OS_TCB\000"
 5400      434200
 5401              	.LASF28:
 5402 0765 6F735F73 		.ascii	"os_stk_data\000"
 5402      746B5F64 
 5402      61746100 
 5403              	.LASF149:
 5404 0771 4F53546D 		.ascii	"OSTmrTbl\000"
 5404      7254626C 
 5404      00
 5405              	.LASF108:
 5406 077a 4F535F54 		.ascii	"OS_TaskIdle\000"
 5406      61736B49 
ARM GAS  C:\Users\EDULU~1.DES\AppData\Local\Temp\ccKclfbr.s 			page 139


 5406      646C6500 
 5407              	.LASF57:
 5408 0786 4F53546D 		.ascii	"OSTmrNext\000"
 5408      724E6578 
 5408      7400
 5409              	.LASF66:
 5410 0790 6F735F74 		.ascii	"os_tmr_wheel\000"
 5410      6D725F77 
 5410      6865656C 
 5410      00
 5411              	.LASF125:
 5412 079d 4F53496E 		.ascii	"OSIntNesting\000"
 5412      744E6573 
 5412      74696E67 
 5412      00
 5413              	.LASF121:
 5414 07aa 4F534964 		.ascii	"OSIdleCtrMax\000"
 5414      6C654374 
 5414      724D6178 
 5414      00
 5415              		.ident	"GCC: (GNU Tools for ARM Embedded Processors) 5.4.1 20160609 (release) [ARM/embedded-5-bran
