ARM GAS  C:\Users\EDULU~1.DES\AppData\Local\Temp\ccKclfbr.s 			page 1


   1              		.syntax unified
   2              		.cpu cortex-m0
   3              		.fpu softvfp
   4              		.eabi_attribute 20, 1
   5              		.eabi_attribute 21, 1
   6              		.eabi_attribute 23, 3
   7              		.eabi_attribute 24, 1
   8              		.eabi_attribute 25, 1
   9              		.eabi_attribute 26, 1
  10              		.eabi_attribute 30, 6
  11              		.eabi_attribute 34, 0
  12              		.eabi_attribute 18, 4
  13              		.thumb
  14              		.syntax unified
  15              		.file	"os_core.c"
  16              		.text
  17              	.Ltext0:
  18              		.cfi_sections	.debug_frame
  19              		.comm	OSCtxSwCtr,4,4
  20              		.comm	OSEventFreeList,4,4
  21              		.comm	OSEventTbl,80,4
  22              		.comm	OSCPUUsage,1,1
  23              		.comm	OSIdleCtrMax,4,4
  24              		.comm	OSIdleCtrRun,4,4
  25              		.comm	OSStatRdy,1,1
  26              		.comm	OSTaskStatStk,512,4
  27              		.comm	OSIntNesting,1,1
  28              		.comm	OSLockNesting,1,1
  29              		.comm	OSPrioCur,1,1
  30              		.comm	OSPrioHighRdy,1,1
  31              		.comm	OSRdyGrp,1,1
  32              		.comm	OSRdyTbl,4,4
  33              		.comm	OSRunning,1,1
  34              		.comm	OSTaskCtr,1,1
  35              		.comm	OSIdleCtr,4,4
  36              		.comm	OSTaskIdleStk,512,4
  37              		.comm	OSTCBCur,4,4
  38              		.comm	OSTCBFreeList,4,4
  39              		.comm	OSTCBHighRdy,4,4
  40              		.comm	OSTCBList,4,4
  41              		.comm	OSTCBPrioTbl,128,4
  42              		.comm	OSTCBTbl,384,4
  43              		.comm	OSTickStepState,1,1
  44              		.comm	OSTaskRegNextAvailID,1,1
  45              		.comm	OSTime,4,4
  46              		.comm	OSTmrFree,2,2
  47              		.comm	OSTmrUsed,2,2
  48              		.comm	OSTmrTime,4,4
  49              		.comm	OSTmrSem,4,4
  50              		.comm	OSTmrSemSignal,4,4
  51              		.comm	OSTmrTbl,640,4
  52              		.comm	OSTmrFreeList,4,4
  53              		.comm	OSTmrTaskStk,512,4
  54              		.comm	OSTmrWheelTbl,56,4
  55              		.global	OSUnMapTbl
  56              		.section	.rodata
  57              		.align	2
ARM GAS  C:\Users\EDULU~1.DES\AppData\Local\Temp\ccKclfbr.s 			page 2


  58              		.type	OSUnMapTbl, %object
  59              		.size	OSUnMapTbl, 256
  60              	OSUnMapTbl:
  61 0000 00       		.byte	0
  62 0001 00       		.byte	0
  63 0002 01       		.byte	1
  64 0003 00       		.byte	0
  65 0004 02       		.byte	2
  66 0005 00       		.byte	0
  67 0006 01       		.byte	1
  68 0007 00       		.byte	0
  69 0008 03       		.byte	3
  70 0009 00       		.byte	0
  71 000a 01       		.byte	1
  72 000b 00       		.byte	0
  73 000c 02       		.byte	2
  74 000d 00       		.byte	0
  75 000e 01       		.byte	1
  76 000f 00       		.byte	0
  77 0010 04       		.byte	4
  78 0011 00       		.byte	0
  79 0012 01       		.byte	1
  80 0013 00       		.byte	0
  81 0014 02       		.byte	2
  82 0015 00       		.byte	0
  83 0016 01       		.byte	1
  84 0017 00       		.byte	0
  85 0018 03       		.byte	3
  86 0019 00       		.byte	0
  87 001a 01       		.byte	1
  88 001b 00       		.byte	0
  89 001c 02       		.byte	2
  90 001d 00       		.byte	0
  91 001e 01       		.byte	1
  92 001f 00       		.byte	0
  93 0020 05       		.byte	5
  94 0021 00       		.byte	0
  95 0022 01       		.byte	1
  96 0023 00       		.byte	0
  97 0024 02       		.byte	2
  98 0025 00       		.byte	0
  99 0026 01       		.byte	1
 100 0027 00       		.byte	0
 101 0028 03       		.byte	3
 102 0029 00       		.byte	0
 103 002a 01       		.byte	1
 104 002b 00       		.byte	0
 105 002c 02       		.byte	2
 106 002d 00       		.byte	0
 107 002e 01       		.byte	1
 108 002f 00       		.byte	0
 109 0030 04       		.byte	4
 110 0031 00       		.byte	0
 111 0032 01       		.byte	1
 112 0033 00       		.byte	0
 113 0034 02       		.byte	2
 114 0035 00       		.byte	0
ARM GAS  C:\Users\EDULU~1.DES\AppData\Local\Temp\ccKclfbr.s 			page 3


 115 0036 01       		.byte	1
 116 0037 00       		.byte	0
 117 0038 03       		.byte	3
 118 0039 00       		.byte	0
 119 003a 01       		.byte	1
 120 003b 00       		.byte	0
 121 003c 02       		.byte	2
 122 003d 00       		.byte	0
 123 003e 01       		.byte	1
 124 003f 00       		.byte	0
 125 0040 06       		.byte	6
 126 0041 00       		.byte	0
 127 0042 01       		.byte	1
 128 0043 00       		.byte	0
 129 0044 02       		.byte	2
 130 0045 00       		.byte	0
 131 0046 01       		.byte	1
 132 0047 00       		.byte	0
 133 0048 03       		.byte	3
 134 0049 00       		.byte	0
 135 004a 01       		.byte	1
 136 004b 00       		.byte	0
 137 004c 02       		.byte	2
 138 004d 00       		.byte	0
 139 004e 01       		.byte	1
 140 004f 00       		.byte	0
 141 0050 04       		.byte	4
 142 0051 00       		.byte	0
 143 0052 01       		.byte	1
 144 0053 00       		.byte	0
 145 0054 02       		.byte	2
 146 0055 00       		.byte	0
 147 0056 01       		.byte	1
 148 0057 00       		.byte	0
 149 0058 03       		.byte	3
 150 0059 00       		.byte	0
 151 005a 01       		.byte	1
 152 005b 00       		.byte	0
 153 005c 02       		.byte	2
 154 005d 00       		.byte	0
 155 005e 01       		.byte	1
 156 005f 00       		.byte	0
 157 0060 05       		.byte	5
 158 0061 00       		.byte	0
 159 0062 01       		.byte	1
 160 0063 00       		.byte	0
 161 0064 02       		.byte	2
 162 0065 00       		.byte	0
 163 0066 01       		.byte	1
 164 0067 00       		.byte	0
 165 0068 03       		.byte	3
 166 0069 00       		.byte	0
 167 006a 01       		.byte	1
 168 006b 00       		.byte	0
 169 006c 02       		.byte	2
 170 006d 00       		.byte	0
 171 006e 01       		.byte	1
ARM GAS  C:\Users\EDULU~1.DES\AppData\Local\Temp\ccKclfbr.s 			page 4


 172 006f 00       		.byte	0
 173 0070 04       		.byte	4
 174 0071 00       		.byte	0
 175 0072 01       		.byte	1
 176 0073 00       		.byte	0
 177 0074 02       		.byte	2
 178 0075 00       		.byte	0
 179 0076 01       		.byte	1
 180 0077 00       		.byte	0
 181 0078 03       		.byte	3
 182 0079 00       		.byte	0
 183 007a 01       		.byte	1
 184 007b 00       		.byte	0
 185 007c 02       		.byte	2
 186 007d 00       		.byte	0
 187 007e 01       		.byte	1
 188 007f 00       		.byte	0
 189 0080 07       		.byte	7
 190 0081 00       		.byte	0
 191 0082 01       		.byte	1
 192 0083 00       		.byte	0
 193 0084 02       		.byte	2
 194 0085 00       		.byte	0
 195 0086 01       		.byte	1
 196 0087 00       		.byte	0
 197 0088 03       		.byte	3
 198 0089 00       		.byte	0
 199 008a 01       		.byte	1
 200 008b 00       		.byte	0
 201 008c 02       		.byte	2
 202 008d 00       		.byte	0
 203 008e 01       		.byte	1
 204 008f 00       		.byte	0
 205 0090 04       		.byte	4
 206 0091 00       		.byte	0
 207 0092 01       		.byte	1
 208 0093 00       		.byte	0
 209 0094 02       		.byte	2
 210 0095 00       		.byte	0
 211 0096 01       		.byte	1
 212 0097 00       		.byte	0
 213 0098 03       		.byte	3
 214 0099 00       		.byte	0
 215 009a 01       		.byte	1
 216 009b 00       		.byte	0
 217 009c 02       		.byte	2
 218 009d 00       		.byte	0
 219 009e 01       		.byte	1
 220 009f 00       		.byte	0
 221 00a0 05       		.byte	5
 222 00a1 00       		.byte	0
 223 00a2 01       		.byte	1
 224 00a3 00       		.byte	0
 225 00a4 02       		.byte	2
 226 00a5 00       		.byte	0
 227 00a6 01       		.byte	1
 228 00a7 00       		.byte	0
ARM GAS  C:\Users\EDULU~1.DES\AppData\Local\Temp\ccKclfbr.s 			page 5


 229 00a8 03       		.byte	3
 230 00a9 00       		.byte	0
 231 00aa 01       		.byte	1
 232 00ab 00       		.byte	0
 233 00ac 02       		.byte	2
 234 00ad 00       		.byte	0
 235 00ae 01       		.byte	1
 236 00af 00       		.byte	0
 237 00b0 04       		.byte	4
 238 00b1 00       		.byte	0
 239 00b2 01       		.byte	1
 240 00b3 00       		.byte	0
 241 00b4 02       		.byte	2
 242 00b5 00       		.byte	0
 243 00b6 01       		.byte	1
 244 00b7 00       		.byte	0
 245 00b8 03       		.byte	3
 246 00b9 00       		.byte	0
 247 00ba 01       		.byte	1
 248 00bb 00       		.byte	0
 249 00bc 02       		.byte	2
 250 00bd 00       		.byte	0
 251 00be 01       		.byte	1
 252 00bf 00       		.byte	0
 253 00c0 06       		.byte	6
 254 00c1 00       		.byte	0
 255 00c2 01       		.byte	1
 256 00c3 00       		.byte	0
 257 00c4 02       		.byte	2
 258 00c5 00       		.byte	0
 259 00c6 01       		.byte	1
 260 00c7 00       		.byte	0
 261 00c8 03       		.byte	3
 262 00c9 00       		.byte	0
 263 00ca 01       		.byte	1
 264 00cb 00       		.byte	0
 265 00cc 02       		.byte	2
 266 00cd 00       		.byte	0
 267 00ce 01       		.byte	1
 268 00cf 00       		.byte	0
 269 00d0 04       		.byte	4
 270 00d1 00       		.byte	0
 271 00d2 01       		.byte	1
 272 00d3 00       		.byte	0
 273 00d4 02       		.byte	2
 274 00d5 00       		.byte	0
 275 00d6 01       		.byte	1
 276 00d7 00       		.byte	0
 277 00d8 03       		.byte	3
 278 00d9 00       		.byte	0
 279 00da 01       		.byte	1
 280 00db 00       		.byte	0
 281 00dc 02       		.byte	2
 282 00dd 00       		.byte	0
 283 00de 01       		.byte	1
 284 00df 00       		.byte	0
 285 00e0 05       		.byte	5
ARM GAS  C:\Users\EDULU~1.DES\AppData\Local\Temp\ccKclfbr.s 			page 6


 286 00e1 00       		.byte	0
 287 00e2 01       		.byte	1
 288 00e3 00       		.byte	0
 289 00e4 02       		.byte	2
 290 00e5 00       		.byte	0
 291 00e6 01       		.byte	1
 292 00e7 00       		.byte	0
 293 00e8 03       		.byte	3
 294 00e9 00       		.byte	0
 295 00ea 01       		.byte	1
 296 00eb 00       		.byte	0
 297 00ec 02       		.byte	2
 298 00ed 00       		.byte	0
 299 00ee 01       		.byte	1
 300 00ef 00       		.byte	0
 301 00f0 04       		.byte	4
 302 00f1 00       		.byte	0
 303 00f2 01       		.byte	1
 304 00f3 00       		.byte	0
 305 00f4 02       		.byte	2
 306 00f5 00       		.byte	0
 307 00f6 01       		.byte	1
 308 00f7 00       		.byte	0
 309 00f8 03       		.byte	3
 310 00f9 00       		.byte	0
 311 00fa 01       		.byte	1
 312 00fb 00       		.byte	0
 313 00fc 02       		.byte	2
 314 00fd 00       		.byte	0
 315 00fe 01       		.byte	1
 316 00ff 00       		.byte	0
 317              		.section	.text.OSInit,"ax",%progbits
 318              		.align	2
 319              		.global	OSInit
 320              		.code	16
 321              		.thumb_func
 322              		.type	OSInit, %function
 323              	OSInit:
 324              	.LFB1:
 325              		.file 1 "..\\..\\..\\..\\..\\..\\Software\\uCOS-II\\Source\\os_core.c"
   1:..\..\..\..\..\..\Software\uCOS-II\Source/os_core.c **** /*
   2:..\..\..\..\..\..\Software\uCOS-II\Source/os_core.c **** ***************************************************************************************************
   3:..\..\..\..\..\..\Software\uCOS-II\Source/os_core.c **** *                                                uC/OS-II
   4:..\..\..\..\..\..\Software\uCOS-II\Source/os_core.c **** *                                          The Real-Time Kernel
   5:..\..\..\..\..\..\Software\uCOS-II\Source/os_core.c **** *                                             CORE FUNCTIONS
   6:..\..\..\..\..\..\Software\uCOS-II\Source/os_core.c **** *
   7:..\..\..\..\..\..\Software\uCOS-II\Source/os_core.c **** *                              (c) Copyright 1992-2013, Micrium, Weston, FL
   8:..\..\..\..\..\..\Software\uCOS-II\Source/os_core.c **** *                                           All Rights Reserved
   9:..\..\..\..\..\..\Software\uCOS-II\Source/os_core.c **** *
  10:..\..\..\..\..\..\Software\uCOS-II\Source/os_core.c **** * File    : OS_CORE.C
  11:..\..\..\..\..\..\Software\uCOS-II\Source/os_core.c **** * By      : Jean J. Labrosse
  12:..\..\..\..\..\..\Software\uCOS-II\Source/os_core.c **** * Version : V2.92.10
  13:..\..\..\..\..\..\Software\uCOS-II\Source/os_core.c **** *
  14:..\..\..\..\..\..\Software\uCOS-II\Source/os_core.c **** * LICENSING TERMS:
  15:..\..\..\..\..\..\Software\uCOS-II\Source/os_core.c **** * ---------------
  16:..\..\..\..\..\..\Software\uCOS-II\Source/os_core.c **** *   uC/OS-II is provided in source form for FREE evaluation, for educational use or for peaceful re
  17:..\..\..\..\..\..\Software\uCOS-II\Source/os_core.c **** * If you plan on using  uC/OS-II  in a commercial product you need to contact Micrium to properly l
ARM GAS  C:\Users\EDULU~1.DES\AppData\Local\Temp\ccKclfbr.s 			page 7


  18:..\..\..\..\..\..\Software\uCOS-II\Source/os_core.c **** * its use in your product. We provide ALL the source code for your convenience and to help you expe
  19:..\..\..\..\..\..\Software\uCOS-II\Source/os_core.c **** * uC/OS-II.   The fact that the  source is provided does  NOT  mean that you can use it without  pa
  20:..\..\..\..\..\..\Software\uCOS-II\Source/os_core.c **** * licensing fee.
  21:..\..\..\..\..\..\Software\uCOS-II\Source/os_core.c **** ***************************************************************************************************
  22:..\..\..\..\..\..\Software\uCOS-II\Source/os_core.c **** */
  23:..\..\..\..\..\..\Software\uCOS-II\Source/os_core.c **** 
  24:..\..\..\..\..\..\Software\uCOS-II\Source/os_core.c **** #define  MICRIUM_SOURCE
  25:..\..\..\..\..\..\Software\uCOS-II\Source/os_core.c **** 
  26:..\..\..\..\..\..\Software\uCOS-II\Source/os_core.c **** #ifndef  OS_MASTER_FILE
  27:..\..\..\..\..\..\Software\uCOS-II\Source/os_core.c **** #define  OS_GLOBALS
  28:..\..\..\..\..\..\Software\uCOS-II\Source/os_core.c **** #include <ucos_ii.h>
  29:..\..\..\..\..\..\Software\uCOS-II\Source/os_core.c **** #endif
  30:..\..\..\..\..\..\Software\uCOS-II\Source/os_core.c **** 
  31:..\..\..\..\..\..\Software\uCOS-II\Source/os_core.c **** /*
  32:..\..\..\..\..\..\Software\uCOS-II\Source/os_core.c **** ***************************************************************************************************
  33:..\..\..\..\..\..\Software\uCOS-II\Source/os_core.c **** *                                      PRIORITY RESOLUTION TABLE
  34:..\..\..\..\..\..\Software\uCOS-II\Source/os_core.c **** *
  35:..\..\..\..\..\..\Software\uCOS-II\Source/os_core.c **** * Note: Index into table is bit pattern to resolve highest priority
  36:..\..\..\..\..\..\Software\uCOS-II\Source/os_core.c **** *       Indexed value corresponds to highest priority bit position (i.e. 0..7)
  37:..\..\..\..\..\..\Software\uCOS-II\Source/os_core.c **** ***************************************************************************************************
  38:..\..\..\..\..\..\Software\uCOS-II\Source/os_core.c **** */
  39:..\..\..\..\..\..\Software\uCOS-II\Source/os_core.c **** 
  40:..\..\..\..\..\..\Software\uCOS-II\Source/os_core.c **** INT8U  const  OSUnMapTbl[256] = {
  41:..\..\..\..\..\..\Software\uCOS-II\Source/os_core.c ****     0u, 0u, 1u, 0u, 2u, 0u, 1u, 0u, 3u, 0u, 1u, 0u, 2u, 0u, 1u, 0u, /* 0x00 to 0x0F                
  42:..\..\..\..\..\..\Software\uCOS-II\Source/os_core.c ****     4u, 0u, 1u, 0u, 2u, 0u, 1u, 0u, 3u, 0u, 1u, 0u, 2u, 0u, 1u, 0u, /* 0x10 to 0x1F                
  43:..\..\..\..\..\..\Software\uCOS-II\Source/os_core.c ****     5u, 0u, 1u, 0u, 2u, 0u, 1u, 0u, 3u, 0u, 1u, 0u, 2u, 0u, 1u, 0u, /* 0x20 to 0x2F                
  44:..\..\..\..\..\..\Software\uCOS-II\Source/os_core.c ****     4u, 0u, 1u, 0u, 2u, 0u, 1u, 0u, 3u, 0u, 1u, 0u, 2u, 0u, 1u, 0u, /* 0x30 to 0x3F                
  45:..\..\..\..\..\..\Software\uCOS-II\Source/os_core.c ****     6u, 0u, 1u, 0u, 2u, 0u, 1u, 0u, 3u, 0u, 1u, 0u, 2u, 0u, 1u, 0u, /* 0x40 to 0x4F                
  46:..\..\..\..\..\..\Software\uCOS-II\Source/os_core.c ****     4u, 0u, 1u, 0u, 2u, 0u, 1u, 0u, 3u, 0u, 1u, 0u, 2u, 0u, 1u, 0u, /* 0x50 to 0x5F                
  47:..\..\..\..\..\..\Software\uCOS-II\Source/os_core.c ****     5u, 0u, 1u, 0u, 2u, 0u, 1u, 0u, 3u, 0u, 1u, 0u, 2u, 0u, 1u, 0u, /* 0x60 to 0x6F                
  48:..\..\..\..\..\..\Software\uCOS-II\Source/os_core.c ****     4u, 0u, 1u, 0u, 2u, 0u, 1u, 0u, 3u, 0u, 1u, 0u, 2u, 0u, 1u, 0u, /* 0x70 to 0x7F                
  49:..\..\..\..\..\..\Software\uCOS-II\Source/os_core.c ****     7u, 0u, 1u, 0u, 2u, 0u, 1u, 0u, 3u, 0u, 1u, 0u, 2u, 0u, 1u, 0u, /* 0x80 to 0x8F                
  50:..\..\..\..\..\..\Software\uCOS-II\Source/os_core.c ****     4u, 0u, 1u, 0u, 2u, 0u, 1u, 0u, 3u, 0u, 1u, 0u, 2u, 0u, 1u, 0u, /* 0x90 to 0x9F                
  51:..\..\..\..\..\..\Software\uCOS-II\Source/os_core.c ****     5u, 0u, 1u, 0u, 2u, 0u, 1u, 0u, 3u, 0u, 1u, 0u, 2u, 0u, 1u, 0u, /* 0xA0 to 0xAF                
  52:..\..\..\..\..\..\Software\uCOS-II\Source/os_core.c ****     4u, 0u, 1u, 0u, 2u, 0u, 1u, 0u, 3u, 0u, 1u, 0u, 2u, 0u, 1u, 0u, /* 0xB0 to 0xBF                
  53:..\..\..\..\..\..\Software\uCOS-II\Source/os_core.c ****     6u, 0u, 1u, 0u, 2u, 0u, 1u, 0u, 3u, 0u, 1u, 0u, 2u, 0u, 1u, 0u, /* 0xC0 to 0xCF                
  54:..\..\..\..\..\..\Software\uCOS-II\Source/os_core.c ****     4u, 0u, 1u, 0u, 2u, 0u, 1u, 0u, 3u, 0u, 1u, 0u, 2u, 0u, 1u, 0u, /* 0xD0 to 0xDF                
  55:..\..\..\..\..\..\Software\uCOS-II\Source/os_core.c ****     5u, 0u, 1u, 0u, 2u, 0u, 1u, 0u, 3u, 0u, 1u, 0u, 2u, 0u, 1u, 0u, /* 0xE0 to 0xEF                
  56:..\..\..\..\..\..\Software\uCOS-II\Source/os_core.c ****     4u, 0u, 1u, 0u, 2u, 0u, 1u, 0u, 3u, 0u, 1u, 0u, 2u, 0u, 1u, 0u  /* 0xF0 to 0xFF                
  57:..\..\..\..\..\..\Software\uCOS-II\Source/os_core.c **** };
  58:..\..\..\..\..\..\Software\uCOS-II\Source/os_core.c **** 
  59:..\..\..\..\..\..\Software\uCOS-II\Source/os_core.c **** /*$PAGE*/
  60:..\..\..\..\..\..\Software\uCOS-II\Source/os_core.c **** /*
  61:..\..\..\..\..\..\Software\uCOS-II\Source/os_core.c **** ***************************************************************************************************
  62:..\..\..\..\..\..\Software\uCOS-II\Source/os_core.c **** *                                         FUNCTION PROTOTYPES
  63:..\..\..\..\..\..\Software\uCOS-II\Source/os_core.c **** ***************************************************************************************************
  64:..\..\..\..\..\..\Software\uCOS-II\Source/os_core.c **** */
  65:..\..\..\..\..\..\Software\uCOS-II\Source/os_core.c **** 
  66:..\..\..\..\..\..\Software\uCOS-II\Source/os_core.c **** static  void  OS_InitEventList(void);
  67:..\..\..\..\..\..\Software\uCOS-II\Source/os_core.c **** 
  68:..\..\..\..\..\..\Software\uCOS-II\Source/os_core.c **** static  void  OS_InitMisc(void);
  69:..\..\..\..\..\..\Software\uCOS-II\Source/os_core.c **** 
  70:..\..\..\..\..\..\Software\uCOS-II\Source/os_core.c **** static  void  OS_InitRdyList(void);
  71:..\..\..\..\..\..\Software\uCOS-II\Source/os_core.c **** 
  72:..\..\..\..\..\..\Software\uCOS-II\Source/os_core.c **** static  void  OS_InitTaskIdle(void);
  73:..\..\..\..\..\..\Software\uCOS-II\Source/os_core.c **** 
  74:..\..\..\..\..\..\Software\uCOS-II\Source/os_core.c **** #if OS_TASK_STAT_EN > 0u
ARM GAS  C:\Users\EDULU~1.DES\AppData\Local\Temp\ccKclfbr.s 			page 8


  75:..\..\..\..\..\..\Software\uCOS-II\Source/os_core.c **** static  void  OS_InitTaskStat(void);
  76:..\..\..\..\..\..\Software\uCOS-II\Source/os_core.c **** #endif
  77:..\..\..\..\..\..\Software\uCOS-II\Source/os_core.c **** 
  78:..\..\..\..\..\..\Software\uCOS-II\Source/os_core.c **** static  void  OS_InitTCBList(void);
  79:..\..\..\..\..\..\Software\uCOS-II\Source/os_core.c **** 
  80:..\..\..\..\..\..\Software\uCOS-II\Source/os_core.c **** static  void  OS_SchedNew(void);
  81:..\..\..\..\..\..\Software\uCOS-II\Source/os_core.c **** 
  82:..\..\..\..\..\..\Software\uCOS-II\Source/os_core.c **** /*$PAGE*/
  83:..\..\..\..\..\..\Software\uCOS-II\Source/os_core.c **** /*
  84:..\..\..\..\..\..\Software\uCOS-II\Source/os_core.c **** ***************************************************************************************************
  85:..\..\..\..\..\..\Software\uCOS-II\Source/os_core.c **** *                        GET THE NAME OF A SEMAPHORE, MUTEX, MAILBOX or QUEUE
  86:..\..\..\..\..\..\Software\uCOS-II\Source/os_core.c **** *
  87:..\..\..\..\..\..\Software\uCOS-II\Source/os_core.c **** * Description: This function is used to obtain the name assigned to a semaphore, mutex, mailbox or 
  88:..\..\..\..\..\..\Software\uCOS-II\Source/os_core.c **** *
  89:..\..\..\..\..\..\Software\uCOS-II\Source/os_core.c **** * Arguments  : pevent    is a pointer to the event group.  'pevent' can point either to a semaphore
  90:..\..\..\..\..\..\Software\uCOS-II\Source/os_core.c **** *                        a mutex, a mailbox or a queue.  Where this function is concerned, the actu
  91:..\..\..\..\..\..\Software\uCOS-II\Source/os_core.c **** *                        type is irrelevant.
  92:..\..\..\..\..\..\Software\uCOS-II\Source/os_core.c **** *
  93:..\..\..\..\..\..\Software\uCOS-II\Source/os_core.c **** *              pname     is a pointer to a pointer to an ASCII string that will receive the name of
  94:..\..\..\..\..\..\Software\uCOS-II\Source/os_core.c **** *                        mutex, mailbox or queue.
  95:..\..\..\..\..\..\Software\uCOS-II\Source/os_core.c **** *
  96:..\..\..\..\..\..\Software\uCOS-II\Source/os_core.c **** *              perr      is a pointer to an error code that can contain one of the following values
  97:..\..\..\..\..\..\Software\uCOS-II\Source/os_core.c **** *
  98:..\..\..\..\..\..\Software\uCOS-II\Source/os_core.c **** *                        OS_ERR_NONE                if the name was copied to 'pname'
  99:..\..\..\..\..\..\Software\uCOS-II\Source/os_core.c **** *                        OS_ERR_EVENT_TYPE          if 'pevent' is not pointing to the proper event
 100:..\..\..\..\..\..\Software\uCOS-II\Source/os_core.c **** *                                                   control block type.
 101:..\..\..\..\..\..\Software\uCOS-II\Source/os_core.c **** *                        OS_ERR_PNAME_NULL          You passed a NULL pointer for 'pname'
 102:..\..\..\..\..\..\Software\uCOS-II\Source/os_core.c **** *                        OS_ERR_PEVENT_NULL         if you passed a NULL pointer for 'pevent'
 103:..\..\..\..\..\..\Software\uCOS-II\Source/os_core.c **** *                        OS_ERR_NAME_GET_ISR        if you are trying to call this function from an
 104:..\..\..\..\..\..\Software\uCOS-II\Source/os_core.c **** *
 105:..\..\..\..\..\..\Software\uCOS-II\Source/os_core.c **** * Returns    : The length of the string or 0 if the 'pevent' is a NULL pointer.
 106:..\..\..\..\..\..\Software\uCOS-II\Source/os_core.c **** ***************************************************************************************************
 107:..\..\..\..\..\..\Software\uCOS-II\Source/os_core.c **** */
 108:..\..\..\..\..\..\Software\uCOS-II\Source/os_core.c **** 
 109:..\..\..\..\..\..\Software\uCOS-II\Source/os_core.c **** #if (OS_EVENT_EN) && (OS_EVENT_NAME_EN > 0u)
 110:..\..\..\..\..\..\Software\uCOS-II\Source/os_core.c **** INT8U  OSEventNameGet (OS_EVENT   *pevent,
 111:..\..\..\..\..\..\Software\uCOS-II\Source/os_core.c ****                        INT8U     **pname,
 112:..\..\..\..\..\..\Software\uCOS-II\Source/os_core.c ****                        INT8U      *perr)
 113:..\..\..\..\..\..\Software\uCOS-II\Source/os_core.c **** {
 114:..\..\..\..\..\..\Software\uCOS-II\Source/os_core.c ****     INT8U      len;
 115:..\..\..\..\..\..\Software\uCOS-II\Source/os_core.c **** #if OS_CRITICAL_METHOD == 3u                     /* Allocate storage for CPU status register       
 116:..\..\..\..\..\..\Software\uCOS-II\Source/os_core.c ****     OS_CPU_SR  cpu_sr = 0u;
 117:..\..\..\..\..\..\Software\uCOS-II\Source/os_core.c **** #endif
 118:..\..\..\..\..\..\Software\uCOS-II\Source/os_core.c **** 
 119:..\..\..\..\..\..\Software\uCOS-II\Source/os_core.c **** 
 120:..\..\..\..\..\..\Software\uCOS-II\Source/os_core.c **** 
 121:..\..\..\..\..\..\Software\uCOS-II\Source/os_core.c **** #ifdef OS_SAFETY_CRITICAL
 122:..\..\..\..\..\..\Software\uCOS-II\Source/os_core.c ****     if (perr == (INT8U *)0) {
 123:..\..\..\..\..\..\Software\uCOS-II\Source/os_core.c ****         OS_SAFETY_CRITICAL_EXCEPTION();
 124:..\..\..\..\..\..\Software\uCOS-II\Source/os_core.c ****         return (0u);
 125:..\..\..\..\..\..\Software\uCOS-II\Source/os_core.c ****     }
 126:..\..\..\..\..\..\Software\uCOS-II\Source/os_core.c **** #endif
 127:..\..\..\..\..\..\Software\uCOS-II\Source/os_core.c **** 
 128:..\..\..\..\..\..\Software\uCOS-II\Source/os_core.c **** #if OS_ARG_CHK_EN > 0u
 129:..\..\..\..\..\..\Software\uCOS-II\Source/os_core.c ****     if (pevent == (OS_EVENT *)0) {               /* Is 'pevent' a NULL pointer?                    
 130:..\..\..\..\..\..\Software\uCOS-II\Source/os_core.c ****         *perr = OS_ERR_PEVENT_NULL;
 131:..\..\..\..\..\..\Software\uCOS-II\Source/os_core.c ****         return (0u);
ARM GAS  C:\Users\EDULU~1.DES\AppData\Local\Temp\ccKclfbr.s 			page 9


 132:..\..\..\..\..\..\Software\uCOS-II\Source/os_core.c ****     }
 133:..\..\..\..\..\..\Software\uCOS-II\Source/os_core.c ****     if (pname == (INT8U **)0) {                   /* Is 'pname' a NULL pointer?                    
 134:..\..\..\..\..\..\Software\uCOS-II\Source/os_core.c ****         *perr = OS_ERR_PNAME_NULL;
 135:..\..\..\..\..\..\Software\uCOS-II\Source/os_core.c ****         return (0u);
 136:..\..\..\..\..\..\Software\uCOS-II\Source/os_core.c ****     }
 137:..\..\..\..\..\..\Software\uCOS-II\Source/os_core.c **** #endif
 138:..\..\..\..\..\..\Software\uCOS-II\Source/os_core.c ****     if (OSIntNesting > 0u) {                     /* See if trying to call from an ISR              
 139:..\..\..\..\..\..\Software\uCOS-II\Source/os_core.c ****         *perr  = OS_ERR_NAME_GET_ISR;
 140:..\..\..\..\..\..\Software\uCOS-II\Source/os_core.c ****         return (0u);
 141:..\..\..\..\..\..\Software\uCOS-II\Source/os_core.c ****     }
 142:..\..\..\..\..\..\Software\uCOS-II\Source/os_core.c ****     switch (pevent->OSEventType) {
 143:..\..\..\..\..\..\Software\uCOS-II\Source/os_core.c ****         case OS_EVENT_TYPE_SEM:
 144:..\..\..\..\..\..\Software\uCOS-II\Source/os_core.c ****         case OS_EVENT_TYPE_MUTEX:
 145:..\..\..\..\..\..\Software\uCOS-II\Source/os_core.c ****         case OS_EVENT_TYPE_MBOX:
 146:..\..\..\..\..\..\Software\uCOS-II\Source/os_core.c ****         case OS_EVENT_TYPE_Q:
 147:..\..\..\..\..\..\Software\uCOS-II\Source/os_core.c ****              break;
 148:..\..\..\..\..\..\Software\uCOS-II\Source/os_core.c **** 
 149:..\..\..\..\..\..\Software\uCOS-II\Source/os_core.c ****         default:
 150:..\..\..\..\..\..\Software\uCOS-II\Source/os_core.c ****              *perr = OS_ERR_EVENT_TYPE;
 151:..\..\..\..\..\..\Software\uCOS-II\Source/os_core.c ****              return (0u);
 152:..\..\..\..\..\..\Software\uCOS-II\Source/os_core.c ****     }
 153:..\..\..\..\..\..\Software\uCOS-II\Source/os_core.c ****     OS_ENTER_CRITICAL();
 154:..\..\..\..\..\..\Software\uCOS-II\Source/os_core.c ****     *pname = pevent->OSEventName;
 155:..\..\..\..\..\..\Software\uCOS-II\Source/os_core.c ****     len    = OS_StrLen(*pname);
 156:..\..\..\..\..\..\Software\uCOS-II\Source/os_core.c ****     OS_EXIT_CRITICAL();
 157:..\..\..\..\..\..\Software\uCOS-II\Source/os_core.c ****     *perr  = OS_ERR_NONE;
 158:..\..\..\..\..\..\Software\uCOS-II\Source/os_core.c ****     return (len);
 159:..\..\..\..\..\..\Software\uCOS-II\Source/os_core.c **** }
 160:..\..\..\..\..\..\Software\uCOS-II\Source/os_core.c **** #endif
 161:..\..\..\..\..\..\Software\uCOS-II\Source/os_core.c **** 
 162:..\..\..\..\..\..\Software\uCOS-II\Source/os_core.c **** /*$PAGE*/
 163:..\..\..\..\..\..\Software\uCOS-II\Source/os_core.c **** /*
 164:..\..\..\..\..\..\Software\uCOS-II\Source/os_core.c **** ***************************************************************************************************
 165:..\..\..\..\..\..\Software\uCOS-II\Source/os_core.c **** *                        ASSIGN A NAME TO A SEMAPHORE, MUTEX, MAILBOX or QUEUE
 166:..\..\..\..\..\..\Software\uCOS-II\Source/os_core.c **** *
 167:..\..\..\..\..\..\Software\uCOS-II\Source/os_core.c **** * Description: This function assigns a name to a semaphore, mutex, mailbox or queue.
 168:..\..\..\..\..\..\Software\uCOS-II\Source/os_core.c **** *
 169:..\..\..\..\..\..\Software\uCOS-II\Source/os_core.c **** * Arguments  : pevent    is a pointer to the event group.  'pevent' can point either to a semaphore
 170:..\..\..\..\..\..\Software\uCOS-II\Source/os_core.c **** *                        a mutex, a mailbox or a queue.  Where this function is concerned, it doesn
 171:..\..\..\..\..\..\Software\uCOS-II\Source/os_core.c **** *                        matter the actual type.
 172:..\..\..\..\..\..\Software\uCOS-II\Source/os_core.c **** *
 173:..\..\..\..\..\..\Software\uCOS-II\Source/os_core.c **** *              pname     is a pointer to an ASCII string that will be used as the name of the semap
 174:..\..\..\..\..\..\Software\uCOS-II\Source/os_core.c **** *                        mutex, mailbox or queue.
 175:..\..\..\..\..\..\Software\uCOS-II\Source/os_core.c **** *
 176:..\..\..\..\..\..\Software\uCOS-II\Source/os_core.c **** *              perr      is a pointer to an error code that can contain one of the following values
 177:..\..\..\..\..\..\Software\uCOS-II\Source/os_core.c **** *
 178:..\..\..\..\..\..\Software\uCOS-II\Source/os_core.c **** *                        OS_ERR_NONE                if the requested task is resumed
 179:..\..\..\..\..\..\Software\uCOS-II\Source/os_core.c **** *                        OS_ERR_EVENT_TYPE          if 'pevent' is not pointing to the proper event
 180:..\..\..\..\..\..\Software\uCOS-II\Source/os_core.c **** *                                                   control block type.
 181:..\..\..\..\..\..\Software\uCOS-II\Source/os_core.c **** *                        OS_ERR_PNAME_NULL          You passed a NULL pointer for 'pname'
 182:..\..\..\..\..\..\Software\uCOS-II\Source/os_core.c **** *                        OS_ERR_PEVENT_NULL         if you passed a NULL pointer for 'pevent'
 183:..\..\..\..\..\..\Software\uCOS-II\Source/os_core.c **** *                        OS_ERR_NAME_SET_ISR        if you called this function from an ISR
 184:..\..\..\..\..\..\Software\uCOS-II\Source/os_core.c **** *
 185:..\..\..\..\..\..\Software\uCOS-II\Source/os_core.c **** * Returns    : None
 186:..\..\..\..\..\..\Software\uCOS-II\Source/os_core.c **** ***************************************************************************************************
 187:..\..\..\..\..\..\Software\uCOS-II\Source/os_core.c **** */
 188:..\..\..\..\..\..\Software\uCOS-II\Source/os_core.c **** 
ARM GAS  C:\Users\EDULU~1.DES\AppData\Local\Temp\ccKclfbr.s 			page 10


 189:..\..\..\..\..\..\Software\uCOS-II\Source/os_core.c **** #if (OS_EVENT_EN) && (OS_EVENT_NAME_EN > 0u)
 190:..\..\..\..\..\..\Software\uCOS-II\Source/os_core.c **** void  OSEventNameSet (OS_EVENT  *pevent,
 191:..\..\..\..\..\..\Software\uCOS-II\Source/os_core.c ****                       INT8U     *pname,
 192:..\..\..\..\..\..\Software\uCOS-II\Source/os_core.c ****                       INT8U     *perr)
 193:..\..\..\..\..\..\Software\uCOS-II\Source/os_core.c **** {
 194:..\..\..\..\..\..\Software\uCOS-II\Source/os_core.c **** #if OS_CRITICAL_METHOD == 3u                     /* Allocate storage for CPU status register       
 195:..\..\..\..\..\..\Software\uCOS-II\Source/os_core.c ****     OS_CPU_SR  cpu_sr = 0u;
 196:..\..\..\..\..\..\Software\uCOS-II\Source/os_core.c **** #endif
 197:..\..\..\..\..\..\Software\uCOS-II\Source/os_core.c **** 
 198:..\..\..\..\..\..\Software\uCOS-II\Source/os_core.c **** 
 199:..\..\..\..\..\..\Software\uCOS-II\Source/os_core.c **** 
 200:..\..\..\..\..\..\Software\uCOS-II\Source/os_core.c **** #ifdef OS_SAFETY_CRITICAL
 201:..\..\..\..\..\..\Software\uCOS-II\Source/os_core.c ****     if (perr == (INT8U *)0) {
 202:..\..\..\..\..\..\Software\uCOS-II\Source/os_core.c ****         OS_SAFETY_CRITICAL_EXCEPTION();
 203:..\..\..\..\..\..\Software\uCOS-II\Source/os_core.c ****         return;
 204:..\..\..\..\..\..\Software\uCOS-II\Source/os_core.c ****     }
 205:..\..\..\..\..\..\Software\uCOS-II\Source/os_core.c **** #endif
 206:..\..\..\..\..\..\Software\uCOS-II\Source/os_core.c **** 
 207:..\..\..\..\..\..\Software\uCOS-II\Source/os_core.c **** #if OS_ARG_CHK_EN > 0u
 208:..\..\..\..\..\..\Software\uCOS-II\Source/os_core.c ****     if (pevent == (OS_EVENT *)0) {               /* Is 'pevent' a NULL pointer?                    
 209:..\..\..\..\..\..\Software\uCOS-II\Source/os_core.c ****         *perr = OS_ERR_PEVENT_NULL;
 210:..\..\..\..\..\..\Software\uCOS-II\Source/os_core.c ****         return;
 211:..\..\..\..\..\..\Software\uCOS-II\Source/os_core.c ****     }
 212:..\..\..\..\..\..\Software\uCOS-II\Source/os_core.c ****     if (pname == (INT8U *)0) {                   /* Is 'pname' a NULL pointer?                     
 213:..\..\..\..\..\..\Software\uCOS-II\Source/os_core.c ****         *perr = OS_ERR_PNAME_NULL;
 214:..\..\..\..\..\..\Software\uCOS-II\Source/os_core.c ****         return;
 215:..\..\..\..\..\..\Software\uCOS-II\Source/os_core.c ****     }
 216:..\..\..\..\..\..\Software\uCOS-II\Source/os_core.c **** #endif
 217:..\..\..\..\..\..\Software\uCOS-II\Source/os_core.c ****     if (OSIntNesting > 0u) {                     /* See if trying to call from an ISR              
 218:..\..\..\..\..\..\Software\uCOS-II\Source/os_core.c ****         *perr = OS_ERR_NAME_SET_ISR;
 219:..\..\..\..\..\..\Software\uCOS-II\Source/os_core.c ****         return;
 220:..\..\..\..\..\..\Software\uCOS-II\Source/os_core.c ****     }
 221:..\..\..\..\..\..\Software\uCOS-II\Source/os_core.c ****     switch (pevent->OSEventType) {
 222:..\..\..\..\..\..\Software\uCOS-II\Source/os_core.c ****         case OS_EVENT_TYPE_SEM:
 223:..\..\..\..\..\..\Software\uCOS-II\Source/os_core.c ****         case OS_EVENT_TYPE_MUTEX:
 224:..\..\..\..\..\..\Software\uCOS-II\Source/os_core.c ****         case OS_EVENT_TYPE_MBOX:
 225:..\..\..\..\..\..\Software\uCOS-II\Source/os_core.c ****         case OS_EVENT_TYPE_Q:
 226:..\..\..\..\..\..\Software\uCOS-II\Source/os_core.c ****              break;
 227:..\..\..\..\..\..\Software\uCOS-II\Source/os_core.c **** 
 228:..\..\..\..\..\..\Software\uCOS-II\Source/os_core.c ****         default:
 229:..\..\..\..\..\..\Software\uCOS-II\Source/os_core.c ****              *perr = OS_ERR_EVENT_TYPE;
 230:..\..\..\..\..\..\Software\uCOS-II\Source/os_core.c ****              return;
 231:..\..\..\..\..\..\Software\uCOS-II\Source/os_core.c ****     }
 232:..\..\..\..\..\..\Software\uCOS-II\Source/os_core.c ****     OS_ENTER_CRITICAL();
 233:..\..\..\..\..\..\Software\uCOS-II\Source/os_core.c ****     pevent->OSEventName = pname;
 234:..\..\..\..\..\..\Software\uCOS-II\Source/os_core.c ****     OS_EXIT_CRITICAL();
 235:..\..\..\..\..\..\Software\uCOS-II\Source/os_core.c ****     *perr = OS_ERR_NONE;
 236:..\..\..\..\..\..\Software\uCOS-II\Source/os_core.c **** }
 237:..\..\..\..\..\..\Software\uCOS-II\Source/os_core.c **** #endif
 238:..\..\..\..\..\..\Software\uCOS-II\Source/os_core.c **** 
 239:..\..\..\..\..\..\Software\uCOS-II\Source/os_core.c **** /*$PAGE*/
 240:..\..\..\..\..\..\Software\uCOS-II\Source/os_core.c **** /*
 241:..\..\..\..\..\..\Software\uCOS-II\Source/os_core.c **** ***************************************************************************************************
 242:..\..\..\..\..\..\Software\uCOS-II\Source/os_core.c **** *                                       PEND ON MULTIPLE EVENTS
 243:..\..\..\..\..\..\Software\uCOS-II\Source/os_core.c **** *
 244:..\..\..\..\..\..\Software\uCOS-II\Source/os_core.c **** * Description: This function waits for multiple events.  If multiple events are ready at the start 
 245:..\..\..\..\..\..\Software\uCOS-II\Source/os_core.c **** *              pend call, then all available events are returned as ready.  If the task must pend o
ARM GAS  C:\Users\EDULU~1.DES\AppData\Local\Temp\ccKclfbr.s 			page 11


 246:..\..\..\..\..\..\Software\uCOS-II\Source/os_core.c **** *              multiple events, then only the first posted or aborted event is returned as ready.
 247:..\..\..\..\..\..\Software\uCOS-II\Source/os_core.c **** *
 248:..\..\..\..\..\..\Software\uCOS-II\Source/os_core.c **** * Arguments  : pevents_pend  is a pointer to a NULL-terminated array of event control blocks to wai
 249:..\..\..\..\..\..\Software\uCOS-II\Source/os_core.c **** *
 250:..\..\..\..\..\..\Software\uCOS-II\Source/os_core.c **** *              pevents_rdy   is a pointer to an array to return which event control blocks are avai
 251:..\..\..\..\..\..\Software\uCOS-II\Source/os_core.c **** *                            or ready.  The size of the array MUST be greater than or equal to the 
 252:..\..\..\..\..\..\Software\uCOS-II\Source/os_core.c **** *                            of the 'pevents_pend' array, including terminating NULL.
 253:..\..\..\..\..\..\Software\uCOS-II\Source/os_core.c **** *
 254:..\..\..\..\..\..\Software\uCOS-II\Source/os_core.c **** *              pmsgs_rdy     is a pointer to an array to return messages from any available message
 255:..\..\..\..\..\..\Software\uCOS-II\Source/os_core.c **** *                            events.  The size of the array MUST be greater than or equal to the si
 256:..\..\..\..\..\..\Software\uCOS-II\Source/os_core.c **** *                            the 'pevents_pend' array, excluding the terminating NULL.  Since NULL
 257:..\..\..\..\..\..\Software\uCOS-II\Source/os_core.c **** *                            messages are valid messages, this array cannot be NULL-terminated.  In
 258:..\..\..\..\..\..\Software\uCOS-II\Source/os_core.c **** *                            every available message-type event returns its messages in the 'pmsgs_
 259:..\..\..\..\..\..\Software\uCOS-II\Source/os_core.c **** *                            array at the same index as the event is returned in the 'pevents_rdy' 
 260:..\..\..\..\..\..\Software\uCOS-II\Source/os_core.c **** *                            All other 'pmsgs_rdy' array indices are filled with NULL messages.
 261:..\..\..\..\..\..\Software\uCOS-II\Source/os_core.c **** *
 262:..\..\..\..\..\..\Software\uCOS-II\Source/os_core.c **** *              timeout       is an optional timeout period (in clock ticks).  If non-zero, your tas
 263:..\..\..\..\..\..\Software\uCOS-II\Source/os_core.c **** *                            wait for the resources up to the amount of time specified by this argu
 264:..\..\..\..\..\..\Software\uCOS-II\Source/os_core.c **** *                            If you specify 0, however, your task will wait forever for the specifi
 265:..\..\..\..\..\..\Software\uCOS-II\Source/os_core.c **** *                            events or, until the resources becomes available (or the events occur)
 266:..\..\..\..\..\..\Software\uCOS-II\Source/os_core.c **** *
 267:..\..\..\..\..\..\Software\uCOS-II\Source/os_core.c **** *              perr          is a pointer to where an error message will be deposited.  Possible er
 268:..\..\..\..\..\..\Software\uCOS-II\Source/os_core.c **** *                            messages are:
 269:..\..\..\..\..\..\Software\uCOS-II\Source/os_core.c **** *
 270:..\..\..\..\..\..\Software\uCOS-II\Source/os_core.c **** *                            OS_ERR_NONE         The call was successful and your task owns the res
 271:..\..\..\..\..\..\Software\uCOS-II\Source/os_core.c **** *                                                or, the events you are waiting for occurred; check
 272:..\..\..\..\..\..\Software\uCOS-II\Source/os_core.c **** *                                                'pevents_rdy' array for which events are available
 273:..\..\..\..\..\..\Software\uCOS-II\Source/os_core.c **** *                            OS_ERR_PEND_ABORT   The wait on the events was aborted; check the
 274:..\..\..\..\..\..\Software\uCOS-II\Source/os_core.c **** *                                                'pevents_rdy' array for which events were aborted.
 275:..\..\..\..\..\..\Software\uCOS-II\Source/os_core.c **** *                            OS_ERR_TIMEOUT      The events were not received within the specified
 276:..\..\..\..\..\..\Software\uCOS-II\Source/os_core.c **** *                                                'timeout'.
 277:..\..\..\..\..\..\Software\uCOS-II\Source/os_core.c **** *                            OS_ERR_PEVENT_NULL  If 'pevents_pend', 'pevents_rdy', or 'pmsgs_rdy' i
 278:..\..\..\..\..\..\Software\uCOS-II\Source/os_core.c **** *                                                NULL pointer.
 279:..\..\..\..\..\..\Software\uCOS-II\Source/os_core.c **** *                            OS_ERR_EVENT_TYPE   If you didn't pass a pointer to an array of semaph
 280:..\..\..\..\..\..\Software\uCOS-II\Source/os_core.c **** *                                                mailboxes, and/or queues.
 281:..\..\..\..\..\..\Software\uCOS-II\Source/os_core.c **** *                            OS_ERR_PEND_ISR     If you called this function from an ISR and the re
 282:..\..\..\..\..\..\Software\uCOS-II\Source/os_core.c **** *                                                would lead to a suspension.
 283:..\..\..\..\..\..\Software\uCOS-II\Source/os_core.c **** *                            OS_ERR_PEND_LOCKED  If you called this function when the scheduler is 
 284:..\..\..\..\..\..\Software\uCOS-II\Source/os_core.c **** *
 285:..\..\..\..\..\..\Software\uCOS-II\Source/os_core.c **** * Returns    : >  0          the number of events returned as ready or aborted.
 286:..\..\..\..\..\..\Software\uCOS-II\Source/os_core.c **** *              == 0          if no events are returned as ready because of timeout or upon error.
 287:..\..\..\..\..\..\Software\uCOS-II\Source/os_core.c **** *
 288:..\..\..\..\..\..\Software\uCOS-II\Source/os_core.c **** * Notes      : 1) a. Validate 'pevents_pend' array as valid OS_EVENTs :
 289:..\..\..\..\..\..\Software\uCOS-II\Source/os_core.c **** *
 290:..\..\..\..\..\..\Software\uCOS-II\Source/os_core.c **** *                        semaphores, mailboxes, queues
 291:..\..\..\..\..\..\Software\uCOS-II\Source/os_core.c **** *
 292:..\..\..\..\..\..\Software\uCOS-II\Source/os_core.c **** *                 b. Return ALL available events and messages, if any
 293:..\..\..\..\..\..\Software\uCOS-II\Source/os_core.c **** *
 294:..\..\..\..\..\..\Software\uCOS-II\Source/os_core.c **** *                 c. Add    current task priority as pending to   each events's wait list
 295:..\..\..\..\..\..\Software\uCOS-II\Source/os_core.c **** *                      Performed in OS_EventTaskWaitMulti()
 296:..\..\..\..\..\..\Software\uCOS-II\Source/os_core.c **** *
 297:..\..\..\..\..\..\Software\uCOS-II\Source/os_core.c **** *                 d. Wait on any of multiple events
 298:..\..\..\..\..\..\Software\uCOS-II\Source/os_core.c **** *
 299:..\..\..\..\..\..\Software\uCOS-II\Source/os_core.c **** *                 e. Remove current task priority as pending from each events's wait list
 300:..\..\..\..\..\..\Software\uCOS-II\Source/os_core.c **** *                      Performed in OS_EventTaskRdy(), if events posted or aborted
 301:..\..\..\..\..\..\Software\uCOS-II\Source/os_core.c **** *
 302:..\..\..\..\..\..\Software\uCOS-II\Source/os_core.c **** *                 f. Return any event posted or aborted, if any
ARM GAS  C:\Users\EDULU~1.DES\AppData\Local\Temp\ccKclfbr.s 			page 12


 303:..\..\..\..\..\..\Software\uCOS-II\Source/os_core.c **** *                      else
 304:..\..\..\..\..\..\Software\uCOS-II\Source/os_core.c **** *                    Return timeout
 305:..\..\..\..\..\..\Software\uCOS-II\Source/os_core.c **** *
 306:..\..\..\..\..\..\Software\uCOS-II\Source/os_core.c **** *              2) 'pevents_rdy' initialized to NULL PRIOR to all other validation or function handl
 307:..\..\..\..\..\..\Software\uCOS-II\Source/os_core.c **** *                 case of any error(s).
 308:..\..\..\..\..\..\Software\uCOS-II\Source/os_core.c **** ***************************************************************************************************
 309:..\..\..\..\..\..\Software\uCOS-II\Source/os_core.c **** */
 310:..\..\..\..\..\..\Software\uCOS-II\Source/os_core.c **** /*$PAGE*/
 311:..\..\..\..\..\..\Software\uCOS-II\Source/os_core.c **** #if ((OS_EVENT_EN) && (OS_EVENT_MULTI_EN > 0u))
 312:..\..\..\..\..\..\Software\uCOS-II\Source/os_core.c **** INT16U  OSEventPendMulti (OS_EVENT  **pevents_pend,
 313:..\..\..\..\..\..\Software\uCOS-II\Source/os_core.c ****                           OS_EVENT  **pevents_rdy,
 314:..\..\..\..\..\..\Software\uCOS-II\Source/os_core.c ****                           void      **pmsgs_rdy,
 315:..\..\..\..\..\..\Software\uCOS-II\Source/os_core.c ****                           INT32U      timeout,
 316:..\..\..\..\..\..\Software\uCOS-II\Source/os_core.c ****                           INT8U      *perr)
 317:..\..\..\..\..\..\Software\uCOS-II\Source/os_core.c **** {
 318:..\..\..\..\..\..\Software\uCOS-II\Source/os_core.c ****     OS_EVENT  **pevents;
 319:..\..\..\..\..\..\Software\uCOS-II\Source/os_core.c ****     OS_EVENT   *pevent;
 320:..\..\..\..\..\..\Software\uCOS-II\Source/os_core.c **** #if ((OS_Q_EN > 0u) && (OS_MAX_QS > 0u))
 321:..\..\..\..\..\..\Software\uCOS-II\Source/os_core.c ****     OS_Q       *pq;
 322:..\..\..\..\..\..\Software\uCOS-II\Source/os_core.c **** #endif
 323:..\..\..\..\..\..\Software\uCOS-II\Source/os_core.c ****     BOOLEAN     events_rdy;
 324:..\..\..\..\..\..\Software\uCOS-II\Source/os_core.c ****     INT16U      events_rdy_nbr;
 325:..\..\..\..\..\..\Software\uCOS-II\Source/os_core.c ****     INT8U       events_stat;
 326:..\..\..\..\..\..\Software\uCOS-II\Source/os_core.c **** #if (OS_CRITICAL_METHOD == 3u)                          /* Allocate storage for CPU status register
 327:..\..\..\..\..\..\Software\uCOS-II\Source/os_core.c ****     OS_CPU_SR   cpu_sr = 0u;
 328:..\..\..\..\..\..\Software\uCOS-II\Source/os_core.c **** #endif
 329:..\..\..\..\..\..\Software\uCOS-II\Source/os_core.c **** 
 330:..\..\..\..\..\..\Software\uCOS-II\Source/os_core.c **** 
 331:..\..\..\..\..\..\Software\uCOS-II\Source/os_core.c **** 
 332:..\..\..\..\..\..\Software\uCOS-II\Source/os_core.c **** #ifdef OS_SAFETY_CRITICAL
 333:..\..\..\..\..\..\Software\uCOS-II\Source/os_core.c ****     if (perr == (INT8U *)0) {
 334:..\..\..\..\..\..\Software\uCOS-II\Source/os_core.c ****         OS_SAFETY_CRITICAL_EXCEPTION();
 335:..\..\..\..\..\..\Software\uCOS-II\Source/os_core.c ****         return (0u);
 336:..\..\..\..\..\..\Software\uCOS-II\Source/os_core.c ****     }
 337:..\..\..\..\..\..\Software\uCOS-II\Source/os_core.c **** #endif
 338:..\..\..\..\..\..\Software\uCOS-II\Source/os_core.c **** 
 339:..\..\..\..\..\..\Software\uCOS-II\Source/os_core.c **** #if (OS_ARG_CHK_EN > 0u)
 340:..\..\..\..\..\..\Software\uCOS-II\Source/os_core.c ****     if (pevents_pend == (OS_EVENT **)0) {               /* Validate 'pevents_pend'                 
 341:..\..\..\..\..\..\Software\uCOS-II\Source/os_core.c ****        *perr =  OS_ERR_PEVENT_NULL;
 342:..\..\..\..\..\..\Software\uCOS-II\Source/os_core.c ****         return (0u);
 343:..\..\..\..\..\..\Software\uCOS-II\Source/os_core.c ****     }
 344:..\..\..\..\..\..\Software\uCOS-II\Source/os_core.c ****     if (*pevents_pend  == (OS_EVENT *)0) {              /* Validate 'pevents_pend'                 
 345:..\..\..\..\..\..\Software\uCOS-II\Source/os_core.c ****        *perr =  OS_ERR_PEVENT_NULL;
 346:..\..\..\..\..\..\Software\uCOS-II\Source/os_core.c ****         return (0u);
 347:..\..\..\..\..\..\Software\uCOS-II\Source/os_core.c ****     }
 348:..\..\..\..\..\..\Software\uCOS-II\Source/os_core.c ****     if (pevents_rdy  == (OS_EVENT **)0) {               /* Validate 'pevents_rdy'                  
 349:..\..\..\..\..\..\Software\uCOS-II\Source/os_core.c ****        *perr =  OS_ERR_PEVENT_NULL;
 350:..\..\..\..\..\..\Software\uCOS-II\Source/os_core.c ****         return (0u);
 351:..\..\..\..\..\..\Software\uCOS-II\Source/os_core.c ****     }
 352:..\..\..\..\..\..\Software\uCOS-II\Source/os_core.c ****     if (pmsgs_rdy == (void **)0) {                      /* Validate 'pmsgs_rdy'                    
 353:..\..\..\..\..\..\Software\uCOS-II\Source/os_core.c ****        *perr =  OS_ERR_PEVENT_NULL;
 354:..\..\..\..\..\..\Software\uCOS-II\Source/os_core.c ****         return (0u);
 355:..\..\..\..\..\..\Software\uCOS-II\Source/os_core.c ****     }
 356:..\..\..\..\..\..\Software\uCOS-II\Source/os_core.c **** #endif
 357:..\..\..\..\..\..\Software\uCOS-II\Source/os_core.c **** 
 358:..\..\..\..\..\..\Software\uCOS-II\Source/os_core.c ****    *pevents_rdy = (OS_EVENT *)0;                        /* Init array to NULL in case of errors    
 359:..\..\..\..\..\..\Software\uCOS-II\Source/os_core.c **** 
ARM GAS  C:\Users\EDULU~1.DES\AppData\Local\Temp\ccKclfbr.s 			page 13


 360:..\..\..\..\..\..\Software\uCOS-II\Source/os_core.c ****     pevents     =  pevents_pend;
 361:..\..\..\..\..\..\Software\uCOS-II\Source/os_core.c ****     pevent      = *pevents;
 362:..\..\..\..\..\..\Software\uCOS-II\Source/os_core.c ****     while  (pevent != (OS_EVENT *)0) {
 363:..\..\..\..\..\..\Software\uCOS-II\Source/os_core.c ****         switch (pevent->OSEventType) {                  /* Validate event block types              
 364:..\..\..\..\..\..\Software\uCOS-II\Source/os_core.c **** #if (OS_SEM_EN  > 0u)
 365:..\..\..\..\..\..\Software\uCOS-II\Source/os_core.c ****             case OS_EVENT_TYPE_SEM:
 366:..\..\..\..\..\..\Software\uCOS-II\Source/os_core.c ****                  break;
 367:..\..\..\..\..\..\Software\uCOS-II\Source/os_core.c **** #endif
 368:..\..\..\..\..\..\Software\uCOS-II\Source/os_core.c **** #if (OS_MBOX_EN > 0u)
 369:..\..\..\..\..\..\Software\uCOS-II\Source/os_core.c ****             case OS_EVENT_TYPE_MBOX:
 370:..\..\..\..\..\..\Software\uCOS-II\Source/os_core.c ****                  break;
 371:..\..\..\..\..\..\Software\uCOS-II\Source/os_core.c **** #endif
 372:..\..\..\..\..\..\Software\uCOS-II\Source/os_core.c **** #if ((OS_Q_EN   > 0u) && (OS_MAX_QS > 0u))
 373:..\..\..\..\..\..\Software\uCOS-II\Source/os_core.c ****             case OS_EVENT_TYPE_Q:
 374:..\..\..\..\..\..\Software\uCOS-II\Source/os_core.c ****                  break;
 375:..\..\..\..\..\..\Software\uCOS-II\Source/os_core.c **** #endif
 376:..\..\..\..\..\..\Software\uCOS-II\Source/os_core.c **** 
 377:..\..\..\..\..\..\Software\uCOS-II\Source/os_core.c ****             case OS_EVENT_TYPE_MUTEX:
 378:..\..\..\..\..\..\Software\uCOS-II\Source/os_core.c ****             case OS_EVENT_TYPE_FLAG:
 379:..\..\..\..\..\..\Software\uCOS-II\Source/os_core.c ****             default:
 380:..\..\..\..\..\..\Software\uCOS-II\Source/os_core.c ****                 *perr = OS_ERR_EVENT_TYPE;
 381:..\..\..\..\..\..\Software\uCOS-II\Source/os_core.c ****                  return (0u);
 382:..\..\..\..\..\..\Software\uCOS-II\Source/os_core.c ****         }
 383:..\..\..\..\..\..\Software\uCOS-II\Source/os_core.c ****         pevents++;
 384:..\..\..\..\..\..\Software\uCOS-II\Source/os_core.c ****         pevent = *pevents;
 385:..\..\..\..\..\..\Software\uCOS-II\Source/os_core.c ****     }
 386:..\..\..\..\..\..\Software\uCOS-II\Source/os_core.c **** 
 387:..\..\..\..\..\..\Software\uCOS-II\Source/os_core.c ****     if (OSIntNesting  > 0u) {                           /* See if called from ISR ...              
 388:..\..\..\..\..\..\Software\uCOS-II\Source/os_core.c ****        *perr =  OS_ERR_PEND_ISR;                        /* ... can't PEND from an ISR              
 389:..\..\..\..\..\..\Software\uCOS-II\Source/os_core.c ****         return (0u);
 390:..\..\..\..\..\..\Software\uCOS-II\Source/os_core.c ****     }
 391:..\..\..\..\..\..\Software\uCOS-II\Source/os_core.c ****     if (OSLockNesting > 0u) {                           /* See if called with scheduler locked ... 
 392:..\..\..\..\..\..\Software\uCOS-II\Source/os_core.c ****        *perr =  OS_ERR_PEND_LOCKED;                     /* ... can't PEND when locked              
 393:..\..\..\..\..\..\Software\uCOS-II\Source/os_core.c ****         return (0u);
 394:..\..\..\..\..\..\Software\uCOS-II\Source/os_core.c ****     }
 395:..\..\..\..\..\..\Software\uCOS-II\Source/os_core.c **** 
 396:..\..\..\..\..\..\Software\uCOS-II\Source/os_core.c **** /*$PAGE*/
 397:..\..\..\..\..\..\Software\uCOS-II\Source/os_core.c ****     events_rdy     =  OS_FALSE;
 398:..\..\..\..\..\..\Software\uCOS-II\Source/os_core.c ****     events_rdy_nbr =  0u;
 399:..\..\..\..\..\..\Software\uCOS-II\Source/os_core.c ****     events_stat    =  OS_STAT_RDY;
 400:..\..\..\..\..\..\Software\uCOS-II\Source/os_core.c ****     pevents        =  pevents_pend;
 401:..\..\..\..\..\..\Software\uCOS-II\Source/os_core.c ****     pevent         = *pevents;
 402:..\..\..\..\..\..\Software\uCOS-II\Source/os_core.c ****     OS_ENTER_CRITICAL();
 403:..\..\..\..\..\..\Software\uCOS-II\Source/os_core.c ****     while (pevent != (OS_EVENT *)0) {                   /* See if any events already available     
 404:..\..\..\..\..\..\Software\uCOS-II\Source/os_core.c ****         switch (pevent->OSEventType) {
 405:..\..\..\..\..\..\Software\uCOS-II\Source/os_core.c **** #if (OS_SEM_EN > 0u)
 406:..\..\..\..\..\..\Software\uCOS-II\Source/os_core.c ****             case OS_EVENT_TYPE_SEM:
 407:..\..\..\..\..\..\Software\uCOS-II\Source/os_core.c ****                  if (pevent->OSEventCnt > 0u) {         /* If semaphore count > 0, resource availab
 408:..\..\..\..\..\..\Software\uCOS-II\Source/os_core.c ****                      pevent->OSEventCnt--;              /* ... decrement semaphore,                
 409:..\..\..\..\..\..\Software\uCOS-II\Source/os_core.c ****                     *pevents_rdy++ =  pevent;           /* ... and return available semaphore event
 410:..\..\..\..\..\..\Software\uCOS-II\Source/os_core.c ****                       events_rdy   =  OS_TRUE;
 411:..\..\..\..\..\..\Software\uCOS-II\Source/os_core.c ****                     *pmsgs_rdy++   = (void *)0;         /* NO message returned  for semaphores     
 412:..\..\..\..\..\..\Software\uCOS-II\Source/os_core.c ****                       events_rdy_nbr++;
 413:..\..\..\..\..\..\Software\uCOS-II\Source/os_core.c **** 
 414:..\..\..\..\..\..\Software\uCOS-II\Source/os_core.c ****                  } else {
 415:..\..\..\..\..\..\Software\uCOS-II\Source/os_core.c ****                       events_stat |=  OS_STAT_SEM;      /* Configure multi-pend for semaphore event
 416:..\..\..\..\..\..\Software\uCOS-II\Source/os_core.c ****                  }
ARM GAS  C:\Users\EDULU~1.DES\AppData\Local\Temp\ccKclfbr.s 			page 14


 417:..\..\..\..\..\..\Software\uCOS-II\Source/os_core.c ****                  break;
 418:..\..\..\..\..\..\Software\uCOS-II\Source/os_core.c **** #endif
 419:..\..\..\..\..\..\Software\uCOS-II\Source/os_core.c **** 
 420:..\..\..\..\..\..\Software\uCOS-II\Source/os_core.c **** #if (OS_MBOX_EN > 0u)
 421:..\..\..\..\..\..\Software\uCOS-II\Source/os_core.c ****             case OS_EVENT_TYPE_MBOX:
 422:..\..\..\..\..\..\Software\uCOS-II\Source/os_core.c ****                  if (pevent->OSEventPtr != (void *)0) { /* If mailbox NOT empty;                   
 423:..\..\..\..\..\..\Software\uCOS-II\Source/os_core.c ****                                                         /* ... return available message,           
 424:..\..\..\..\..\..\Software\uCOS-II\Source/os_core.c ****                     *pmsgs_rdy++         = (void *)pevent->OSEventPtr;
 425:..\..\..\..\..\..\Software\uCOS-II\Source/os_core.c ****                      pevent->OSEventPtr  = (void *)0;
 426:..\..\..\..\..\..\Software\uCOS-II\Source/os_core.c ****                     *pevents_rdy++       =  pevent;     /* ... and return available mailbox event  
 427:..\..\..\..\..\..\Software\uCOS-II\Source/os_core.c ****                       events_rdy         =  OS_TRUE;
 428:..\..\..\..\..\..\Software\uCOS-II\Source/os_core.c ****                       events_rdy_nbr++;
 429:..\..\..\..\..\..\Software\uCOS-II\Source/os_core.c **** 
 430:..\..\..\..\..\..\Software\uCOS-II\Source/os_core.c ****                  } else {
 431:..\..\..\..\..\..\Software\uCOS-II\Source/os_core.c ****                       events_stat |= OS_STAT_MBOX;      /* Configure multi-pend for mailbox events 
 432:..\..\..\..\..\..\Software\uCOS-II\Source/os_core.c ****                  }
 433:..\..\..\..\..\..\Software\uCOS-II\Source/os_core.c ****                  break;
 434:..\..\..\..\..\..\Software\uCOS-II\Source/os_core.c **** #endif
 435:..\..\..\..\..\..\Software\uCOS-II\Source/os_core.c **** 
 436:..\..\..\..\..\..\Software\uCOS-II\Source/os_core.c **** #if ((OS_Q_EN > 0u) && (OS_MAX_QS > 0u))
 437:..\..\..\..\..\..\Software\uCOS-II\Source/os_core.c ****             case OS_EVENT_TYPE_Q:
 438:..\..\..\..\..\..\Software\uCOS-II\Source/os_core.c ****                  pq = (OS_Q *)pevent->OSEventPtr;
 439:..\..\..\..\..\..\Software\uCOS-II\Source/os_core.c ****                  if (pq->OSQEntries > 0u) {             /* If queue NOT empty;                     
 440:..\..\..\..\..\..\Software\uCOS-II\Source/os_core.c ****                                                         /* ... return available message,           
 441:..\..\..\..\..\..\Software\uCOS-II\Source/os_core.c ****                     *pmsgs_rdy++ = (void *)*pq->OSQOut++;
 442:..\..\..\..\..\..\Software\uCOS-II\Source/os_core.c ****                      if (pq->OSQOut == pq->OSQEnd) {    /* If OUT ptr at queue end, ...            
 443:..\..\..\..\..\..\Software\uCOS-II\Source/os_core.c ****                          pq->OSQOut  = pq->OSQStart;    /* ... wrap   to queue start               
 444:..\..\..\..\..\..\Software\uCOS-II\Source/os_core.c ****                      }
 445:..\..\..\..\..\..\Software\uCOS-II\Source/os_core.c ****                      pq->OSQEntries--;                  /* Update number of queue entries          
 446:..\..\..\..\..\..\Software\uCOS-II\Source/os_core.c ****                     *pevents_rdy++ = pevent;            /* ... and return available queue event    
 447:..\..\..\..\..\..\Software\uCOS-II\Source/os_core.c ****                       events_rdy   = OS_TRUE;
 448:..\..\..\..\..\..\Software\uCOS-II\Source/os_core.c ****                       events_rdy_nbr++;
 449:..\..\..\..\..\..\Software\uCOS-II\Source/os_core.c **** 
 450:..\..\..\..\..\..\Software\uCOS-II\Source/os_core.c ****                  } else {
 451:..\..\..\..\..\..\Software\uCOS-II\Source/os_core.c ****                       events_stat |= OS_STAT_Q;         /* Configure multi-pend for queue events   
 452:..\..\..\..\..\..\Software\uCOS-II\Source/os_core.c ****                  }
 453:..\..\..\..\..\..\Software\uCOS-II\Source/os_core.c ****                  break;
 454:..\..\..\..\..\..\Software\uCOS-II\Source/os_core.c **** #endif
 455:..\..\..\..\..\..\Software\uCOS-II\Source/os_core.c **** 
 456:..\..\..\..\..\..\Software\uCOS-II\Source/os_core.c ****             case OS_EVENT_TYPE_MUTEX:
 457:..\..\..\..\..\..\Software\uCOS-II\Source/os_core.c ****             case OS_EVENT_TYPE_FLAG:
 458:..\..\..\..\..\..\Software\uCOS-II\Source/os_core.c ****             default:
 459:..\..\..\..\..\..\Software\uCOS-II\Source/os_core.c ****                  OS_EXIT_CRITICAL();
 460:..\..\..\..\..\..\Software\uCOS-II\Source/os_core.c ****                 *pevents_rdy = (OS_EVENT *)0;           /* NULL terminate return event array       
 461:..\..\..\..\..\..\Software\uCOS-II\Source/os_core.c ****                 *perr        =  OS_ERR_EVENT_TYPE;
 462:..\..\..\..\..\..\Software\uCOS-II\Source/os_core.c ****                  return (events_rdy_nbr);
 463:..\..\..\..\..\..\Software\uCOS-II\Source/os_core.c ****         }
 464:..\..\..\..\..\..\Software\uCOS-II\Source/os_core.c ****         pevents++;
 465:..\..\..\..\..\..\Software\uCOS-II\Source/os_core.c ****         pevent = *pevents;
 466:..\..\..\..\..\..\Software\uCOS-II\Source/os_core.c ****     }
 467:..\..\..\..\..\..\Software\uCOS-II\Source/os_core.c **** 
 468:..\..\..\..\..\..\Software\uCOS-II\Source/os_core.c ****     if ( events_rdy == OS_TRUE) {                       /* Return any events already available     
 469:..\..\..\..\..\..\Software\uCOS-II\Source/os_core.c ****        *pevents_rdy = (OS_EVENT *)0;                    /* NULL terminate return event array       
 470:..\..\..\..\..\..\Software\uCOS-II\Source/os_core.c ****         OS_EXIT_CRITICAL();
 471:..\..\..\..\..\..\Software\uCOS-II\Source/os_core.c ****        *perr        =  OS_ERR_NONE;
 472:..\..\..\..\..\..\Software\uCOS-II\Source/os_core.c ****         return (events_rdy_nbr);
 473:..\..\..\..\..\..\Software\uCOS-II\Source/os_core.c ****     }
ARM GAS  C:\Users\EDULU~1.DES\AppData\Local\Temp\ccKclfbr.s 			page 15


 474:..\..\..\..\..\..\Software\uCOS-II\Source/os_core.c **** /*$PAGE*/
 475:..\..\..\..\..\..\Software\uCOS-II\Source/os_core.c ****                                                         /* Otherwise, must wait until any event occ
 476:..\..\..\..\..\..\Software\uCOS-II\Source/os_core.c ****     OSTCBCur->OSTCBStat     |= events_stat  |           /* Resource not available, ...             
 477:..\..\..\..\..\..\Software\uCOS-II\Source/os_core.c ****                                OS_STAT_MULTI;           /* ... pend on multiple events             
 478:..\..\..\..\..\..\Software\uCOS-II\Source/os_core.c ****     OSTCBCur->OSTCBStatPend  = OS_STAT_PEND_OK;
 479:..\..\..\..\..\..\Software\uCOS-II\Source/os_core.c ****     OSTCBCur->OSTCBDly       = timeout;                 /* Store pend timeout in TCB               
 480:..\..\..\..\..\..\Software\uCOS-II\Source/os_core.c ****     OS_EventTaskWaitMulti(pevents_pend);                /* Suspend task until events or timeout occ
 481:..\..\..\..\..\..\Software\uCOS-II\Source/os_core.c **** 
 482:..\..\..\..\..\..\Software\uCOS-II\Source/os_core.c ****     OS_EXIT_CRITICAL();
 483:..\..\..\..\..\..\Software\uCOS-II\Source/os_core.c ****     OS_Sched();                                         /* Find next highest priority task ready   
 484:..\..\..\..\..\..\Software\uCOS-II\Source/os_core.c ****     OS_ENTER_CRITICAL();
 485:..\..\..\..\..\..\Software\uCOS-II\Source/os_core.c **** 
 486:..\..\..\..\..\..\Software\uCOS-II\Source/os_core.c ****     switch (OSTCBCur->OSTCBStatPend) {                  /* Handle event posted, aborted, or timed-o
 487:..\..\..\..\..\..\Software\uCOS-II\Source/os_core.c ****         case OS_STAT_PEND_OK:
 488:..\..\..\..\..\..\Software\uCOS-II\Source/os_core.c ****         case OS_STAT_PEND_ABORT:
 489:..\..\..\..\..\..\Software\uCOS-II\Source/os_core.c ****              pevent = OSTCBCur->OSTCBEventPtr;
 490:..\..\..\..\..\..\Software\uCOS-II\Source/os_core.c ****              if (pevent != (OS_EVENT *)0) {             /* If task event ptr != NULL, ...          
 491:..\..\..\..\..\..\Software\uCOS-II\Source/os_core.c ****                 *pevents_rdy++   =  pevent;             /* ... return available event ...          
 492:..\..\..\..\..\..\Software\uCOS-II\Source/os_core.c ****                 *pevents_rdy     = (OS_EVENT *)0;       /* ... & NULL terminate return event array 
 493:..\..\..\..\..\..\Software\uCOS-II\Source/os_core.c ****                   events_rdy_nbr =  1;
 494:..\..\..\..\..\..\Software\uCOS-II\Source/os_core.c **** 
 495:..\..\..\..\..\..\Software\uCOS-II\Source/os_core.c ****              } else {                                   /* Else NO event available, handle as timeo
 496:..\..\..\..\..\..\Software\uCOS-II\Source/os_core.c ****                  OSTCBCur->OSTCBStatPend = OS_STAT_PEND_TO;
 497:..\..\..\..\..\..\Software\uCOS-II\Source/os_core.c ****                  OS_EventTaskRemoveMulti(OSTCBCur, pevents_pend);
 498:..\..\..\..\..\..\Software\uCOS-II\Source/os_core.c ****              }
 499:..\..\..\..\..\..\Software\uCOS-II\Source/os_core.c ****              break;
 500:..\..\..\..\..\..\Software\uCOS-II\Source/os_core.c **** 
 501:..\..\..\..\..\..\Software\uCOS-II\Source/os_core.c ****         case OS_STAT_PEND_TO:                           /* If events timed out, ...                
 502:..\..\..\..\..\..\Software\uCOS-II\Source/os_core.c ****         default:                                        /* ... remove task from events' wait lists 
 503:..\..\..\..\..\..\Software\uCOS-II\Source/os_core.c ****              OS_EventTaskRemoveMulti(OSTCBCur, pevents_pend);
 504:..\..\..\..\..\..\Software\uCOS-II\Source/os_core.c ****              break;
 505:..\..\..\..\..\..\Software\uCOS-II\Source/os_core.c ****     }
 506:..\..\..\..\..\..\Software\uCOS-II\Source/os_core.c **** 
 507:..\..\..\..\..\..\Software\uCOS-II\Source/os_core.c ****     switch (OSTCBCur->OSTCBStatPend) {
 508:..\..\..\..\..\..\Software\uCOS-II\Source/os_core.c ****         case OS_STAT_PEND_OK:
 509:..\..\..\..\..\..\Software\uCOS-II\Source/os_core.c ****              switch (pevent->OSEventType) {             /* Return event's message                  
 510:..\..\..\..\..\..\Software\uCOS-II\Source/os_core.c **** #if (OS_SEM_EN > 0u)
 511:..\..\..\..\..\..\Software\uCOS-II\Source/os_core.c ****                  case OS_EVENT_TYPE_SEM:
 512:..\..\..\..\..\..\Software\uCOS-II\Source/os_core.c ****                      *pmsgs_rdy++ = (void *)0;          /* NO message returned for semaphores      
 513:..\..\..\..\..\..\Software\uCOS-II\Source/os_core.c ****                       break;
 514:..\..\..\..\..\..\Software\uCOS-II\Source/os_core.c **** #endif
 515:..\..\..\..\..\..\Software\uCOS-II\Source/os_core.c **** 
 516:..\..\..\..\..\..\Software\uCOS-II\Source/os_core.c **** #if ((OS_MBOX_EN > 0u) ||                 \
 517:..\..\..\..\..\..\Software\uCOS-II\Source/os_core.c ****     ((OS_Q_EN    > 0u) && (OS_MAX_QS > 0u)))
 518:..\..\..\..\..\..\Software\uCOS-II\Source/os_core.c ****                  case OS_EVENT_TYPE_MBOX:
 519:..\..\..\..\..\..\Software\uCOS-II\Source/os_core.c ****                  case OS_EVENT_TYPE_Q:
 520:..\..\..\..\..\..\Software\uCOS-II\Source/os_core.c ****                      *pmsgs_rdy++ = (void *)OSTCBCur->OSTCBMsg;     /* Return received message     
 521:..\..\..\..\..\..\Software\uCOS-II\Source/os_core.c ****                       break;
 522:..\..\..\..\..\..\Software\uCOS-II\Source/os_core.c **** #endif
 523:..\..\..\..\..\..\Software\uCOS-II\Source/os_core.c **** 
 524:..\..\..\..\..\..\Software\uCOS-II\Source/os_core.c ****                  case OS_EVENT_TYPE_MUTEX:
 525:..\..\..\..\..\..\Software\uCOS-II\Source/os_core.c ****                  case OS_EVENT_TYPE_FLAG:
 526:..\..\..\..\..\..\Software\uCOS-II\Source/os_core.c ****                  default:
 527:..\..\..\..\..\..\Software\uCOS-II\Source/os_core.c ****                       OS_EXIT_CRITICAL();
 528:..\..\..\..\..\..\Software\uCOS-II\Source/os_core.c ****                      *pevents_rdy = (OS_EVENT *)0;      /* NULL terminate return event array       
 529:..\..\..\..\..\..\Software\uCOS-II\Source/os_core.c ****                      *perr        =  OS_ERR_EVENT_TYPE;
 530:..\..\..\..\..\..\Software\uCOS-II\Source/os_core.c ****                       return (events_rdy_nbr);
ARM GAS  C:\Users\EDULU~1.DES\AppData\Local\Temp\ccKclfbr.s 			page 16


 531:..\..\..\..\..\..\Software\uCOS-II\Source/os_core.c ****              }
 532:..\..\..\..\..\..\Software\uCOS-II\Source/os_core.c ****             *perr = OS_ERR_NONE;
 533:..\..\..\..\..\..\Software\uCOS-II\Source/os_core.c ****              break;
 534:..\..\..\..\..\..\Software\uCOS-II\Source/os_core.c **** 
 535:..\..\..\..\..\..\Software\uCOS-II\Source/os_core.c ****         case OS_STAT_PEND_ABORT:
 536:..\..\..\..\..\..\Software\uCOS-II\Source/os_core.c ****             *pmsgs_rdy++ = (void *)0;                   /* NO message returned for abort           
 537:..\..\..\..\..\..\Software\uCOS-II\Source/os_core.c ****             *perr        =  OS_ERR_PEND_ABORT;          /* Indicate that event  aborted            
 538:..\..\..\..\..\..\Software\uCOS-II\Source/os_core.c ****              break;
 539:..\..\..\..\..\..\Software\uCOS-II\Source/os_core.c **** 
 540:..\..\..\..\..\..\Software\uCOS-II\Source/os_core.c ****         case OS_STAT_PEND_TO:
 541:..\..\..\..\..\..\Software\uCOS-II\Source/os_core.c ****         default:
 542:..\..\..\..\..\..\Software\uCOS-II\Source/os_core.c ****             *pmsgs_rdy++ = (void *)0;                   /* NO message returned for timeout         
 543:..\..\..\..\..\..\Software\uCOS-II\Source/os_core.c ****             *perr        =  OS_ERR_TIMEOUT;             /* Indicate that events timed out          
 544:..\..\..\..\..\..\Software\uCOS-II\Source/os_core.c ****              break;
 545:..\..\..\..\..\..\Software\uCOS-II\Source/os_core.c ****     }
 546:..\..\..\..\..\..\Software\uCOS-II\Source/os_core.c **** 
 547:..\..\..\..\..\..\Software\uCOS-II\Source/os_core.c ****     OSTCBCur->OSTCBStat          =  OS_STAT_RDY;        /* Set   task  status to ready             
 548:..\..\..\..\..\..\Software\uCOS-II\Source/os_core.c ****     OSTCBCur->OSTCBStatPend      =  OS_STAT_PEND_OK;    /* Clear pend  status                      
 549:..\..\..\..\..\..\Software\uCOS-II\Source/os_core.c ****     OSTCBCur->OSTCBEventPtr      = (OS_EVENT  *)0;      /* Clear event pointers                    
 550:..\..\..\..\..\..\Software\uCOS-II\Source/os_core.c ****     OSTCBCur->OSTCBEventMultiPtr = (OS_EVENT **)0;
 551:..\..\..\..\..\..\Software\uCOS-II\Source/os_core.c **** #if ((OS_MBOX_EN > 0u) ||                 \
 552:..\..\..\..\..\..\Software\uCOS-II\Source/os_core.c ****     ((OS_Q_EN    > 0u) && (OS_MAX_QS > 0u)))
 553:..\..\..\..\..\..\Software\uCOS-II\Source/os_core.c ****     OSTCBCur->OSTCBMsg           = (void      *)0;      /* Clear task  message                     
 554:..\..\..\..\..\..\Software\uCOS-II\Source/os_core.c **** #endif
 555:..\..\..\..\..\..\Software\uCOS-II\Source/os_core.c ****     OS_EXIT_CRITICAL();
 556:..\..\..\..\..\..\Software\uCOS-II\Source/os_core.c **** 
 557:..\..\..\..\..\..\Software\uCOS-II\Source/os_core.c ****     return (events_rdy_nbr);
 558:..\..\..\..\..\..\Software\uCOS-II\Source/os_core.c **** }
 559:..\..\..\..\..\..\Software\uCOS-II\Source/os_core.c **** #endif
 560:..\..\..\..\..\..\Software\uCOS-II\Source/os_core.c **** 
 561:..\..\..\..\..\..\Software\uCOS-II\Source/os_core.c **** /*$PAGE*/
 562:..\..\..\..\..\..\Software\uCOS-II\Source/os_core.c **** /*
 563:..\..\..\..\..\..\Software\uCOS-II\Source/os_core.c **** ***************************************************************************************************
 564:..\..\..\..\..\..\Software\uCOS-II\Source/os_core.c **** *                                           INITIALIZATION
 565:..\..\..\..\..\..\Software\uCOS-II\Source/os_core.c **** *
 566:..\..\..\..\..\..\Software\uCOS-II\Source/os_core.c **** * Description: This function is used to initialize the internals of uC/OS-II and MUST be called pri
 567:..\..\..\..\..\..\Software\uCOS-II\Source/os_core.c **** *              creating any uC/OS-II object and, prior to calling OSStart().
 568:..\..\..\..\..\..\Software\uCOS-II\Source/os_core.c **** *
 569:..\..\..\..\..\..\Software\uCOS-II\Source/os_core.c **** * Arguments  : none
 570:..\..\..\..\..\..\Software\uCOS-II\Source/os_core.c **** *
 571:..\..\..\..\..\..\Software\uCOS-II\Source/os_core.c **** * Returns    : none
 572:..\..\..\..\..\..\Software\uCOS-II\Source/os_core.c **** ***************************************************************************************************
 573:..\..\..\..\..\..\Software\uCOS-II\Source/os_core.c **** */
 574:..\..\..\..\..\..\Software\uCOS-II\Source/os_core.c **** 
 575:..\..\..\..\..\..\Software\uCOS-II\Source/os_core.c **** void  OSInit (void)
 576:..\..\..\..\..\..\Software\uCOS-II\Source/os_core.c **** {
 326              		.loc 1 576 0
 327              		.cfi_startproc
 328              		@ args = 0, pretend = 0, frame = 0
 329              		@ frame_needed = 1, uses_anonymous_args = 0
 330 0000 80B5     		push	{r7, lr}
 331              		.cfi_def_cfa_offset 8
 332              		.cfi_offset 7, -8
 333              		.cfi_offset 14, -4
 334 0002 00AF     		add	r7, sp, #0
 335              		.cfi_def_cfa_register 7
 577:..\..\..\..\..\..\Software\uCOS-II\Source/os_core.c **** #if OS_TASK_CREATE_EXT_EN > 0u
ARM GAS  C:\Users\EDULU~1.DES\AppData\Local\Temp\ccKclfbr.s 			page 17


 578:..\..\..\..\..\..\Software\uCOS-II\Source/os_core.c **** #if defined(OS_TLS_TBL_SIZE) && (OS_TLS_TBL_SIZE > 0u)
 579:..\..\..\..\..\..\Software\uCOS-II\Source/os_core.c ****     INT8U  err;
 580:..\..\..\..\..\..\Software\uCOS-II\Source/os_core.c **** #endif
 581:..\..\..\..\..\..\Software\uCOS-II\Source/os_core.c **** #endif
 582:..\..\..\..\..\..\Software\uCOS-II\Source/os_core.c **** 
 583:..\..\..\..\..\..\Software\uCOS-II\Source/os_core.c ****     OSInitHookBegin();                                           /* Call port specific initializati
 336              		.loc 1 583 0
 337 0004 FFF7FEFF 		bl	OSInitHookBegin
 584:..\..\..\..\..\..\Software\uCOS-II\Source/os_core.c **** 
 585:..\..\..\..\..\..\Software\uCOS-II\Source/os_core.c ****     OS_InitMisc();                                               /* Initialize miscellaneous variab
 338              		.loc 1 585 0
 339 0008 FFF7FEFF 		bl	OS_InitMisc
 586:..\..\..\..\..\..\Software\uCOS-II\Source/os_core.c **** 
 587:..\..\..\..\..\..\Software\uCOS-II\Source/os_core.c ****     OS_InitRdyList();                                            /* Initialize the Ready List      
 340              		.loc 1 587 0
 341 000c FFF7FEFF 		bl	OS_InitRdyList
 588:..\..\..\..\..\..\Software\uCOS-II\Source/os_core.c **** 
 589:..\..\..\..\..\..\Software\uCOS-II\Source/os_core.c ****     OS_InitTCBList();                                            /* Initialize the free list of OS_
 342              		.loc 1 589 0
 343 0010 FFF7FEFF 		bl	OS_InitTCBList
 590:..\..\..\..\..\..\Software\uCOS-II\Source/os_core.c **** 
 591:..\..\..\..\..\..\Software\uCOS-II\Source/os_core.c ****     OS_InitEventList();                                          /* Initialize the free list of OS_
 344              		.loc 1 591 0
 345 0014 FFF7FEFF 		bl	OS_InitEventList
 592:..\..\..\..\..\..\Software\uCOS-II\Source/os_core.c **** 
 593:..\..\..\..\..\..\Software\uCOS-II\Source/os_core.c **** #if (OS_FLAG_EN > 0u) && (OS_MAX_FLAGS > 0u)
 594:..\..\..\..\..\..\Software\uCOS-II\Source/os_core.c ****     OS_FlagInit();                                               /* Initialize the event flag struc
 595:..\..\..\..\..\..\Software\uCOS-II\Source/os_core.c **** #endif
 596:..\..\..\..\..\..\Software\uCOS-II\Source/os_core.c **** 
 597:..\..\..\..\..\..\Software\uCOS-II\Source/os_core.c **** #if (OS_MEM_EN > 0u) && (OS_MAX_MEM_PART > 0u)
 598:..\..\..\..\..\..\Software\uCOS-II\Source/os_core.c ****     OS_MemInit();                                                /* Initialize the memory manager  
 599:..\..\..\..\..\..\Software\uCOS-II\Source/os_core.c **** #endif
 600:..\..\..\..\..\..\Software\uCOS-II\Source/os_core.c **** 
 601:..\..\..\..\..\..\Software\uCOS-II\Source/os_core.c **** #if (OS_Q_EN > 0u) && (OS_MAX_QS > 0u)
 602:..\..\..\..\..\..\Software\uCOS-II\Source/os_core.c ****     OS_QInit();                                                  /* Initialize the message queue st
 603:..\..\..\..\..\..\Software\uCOS-II\Source/os_core.c **** #endif
 604:..\..\..\..\..\..\Software\uCOS-II\Source/os_core.c **** 
 605:..\..\..\..\..\..\Software\uCOS-II\Source/os_core.c **** #if OS_TASK_CREATE_EXT_EN > 0u
 606:..\..\..\..\..\..\Software\uCOS-II\Source/os_core.c **** #if defined(OS_TLS_TBL_SIZE) && (OS_TLS_TBL_SIZE > 0u)
 607:..\..\..\..\..\..\Software\uCOS-II\Source/os_core.c ****     OS_TLS_Init(&err);                                           /* Initialize TLS, before creating
 608:..\..\..\..\..\..\Software\uCOS-II\Source/os_core.c ****     if (err != OS_ERR_NONE) {
 609:..\..\..\..\..\..\Software\uCOS-II\Source/os_core.c ****         return;
 610:..\..\..\..\..\..\Software\uCOS-II\Source/os_core.c ****     }
 611:..\..\..\..\..\..\Software\uCOS-II\Source/os_core.c **** #endif
 612:..\..\..\..\..\..\Software\uCOS-II\Source/os_core.c **** #endif
 613:..\..\..\..\..\..\Software\uCOS-II\Source/os_core.c **** 
 614:..\..\..\..\..\..\Software\uCOS-II\Source/os_core.c ****     OS_InitTaskIdle();                                           /* Create the Idle Task           
 346              		.loc 1 614 0
 347 0018 FFF7FEFF 		bl	OS_InitTaskIdle
 615:..\..\..\..\..\..\Software\uCOS-II\Source/os_core.c **** #if OS_TASK_STAT_EN > 0u
 616:..\..\..\..\..\..\Software\uCOS-II\Source/os_core.c ****     OS_InitTaskStat();                                           /* Create the Statistic Task      
 348              		.loc 1 616 0
 349 001c FFF7FEFF 		bl	OS_InitTaskStat
 617:..\..\..\..\..\..\Software\uCOS-II\Source/os_core.c **** #endif
 618:..\..\..\..\..\..\Software\uCOS-II\Source/os_core.c **** 
 619:..\..\..\..\..\..\Software\uCOS-II\Source/os_core.c **** #if OS_TMR_EN > 0u
 620:..\..\..\..\..\..\Software\uCOS-II\Source/os_core.c ****     OSTmr_Init();                                                /* Initialize the Timer Manager   
ARM GAS  C:\Users\EDULU~1.DES\AppData\Local\Temp\ccKclfbr.s 			page 18


 350              		.loc 1 620 0
 351 0020 FFF7FEFF 		bl	OSTmr_Init
 621:..\..\..\..\..\..\Software\uCOS-II\Source/os_core.c **** #endif
 622:..\..\..\..\..\..\Software\uCOS-II\Source/os_core.c **** 
 623:..\..\..\..\..\..\Software\uCOS-II\Source/os_core.c ****     OSInitHookEnd();                                             /* Call port specific init. code  
 352              		.loc 1 623 0
 353 0024 FFF7FEFF 		bl	OSInitHookEnd
 624:..\..\..\..\..\..\Software\uCOS-II\Source/os_core.c **** 
 625:..\..\..\..\..\..\Software\uCOS-II\Source/os_core.c **** #if OS_DEBUG_EN > 0u
 626:..\..\..\..\..\..\Software\uCOS-II\Source/os_core.c ****     OSDebugInit();
 627:..\..\..\..\..\..\Software\uCOS-II\Source/os_core.c **** #endif
 628:..\..\..\..\..\..\Software\uCOS-II\Source/os_core.c **** }
 354              		.loc 1 628 0
 355 0028 C046     		nop
 356 002a BD46     		mov	sp, r7
 357              		@ sp needed
 358 002c 80BD     		pop	{r7, pc}
 359              		.cfi_endproc
 360              	.LFE1:
 361              		.size	OSInit, .-OSInit
 362 002e C046     		.section	.text.OSIntEnter,"ax",%progbits
 363              		.align	2
 364              		.global	OSIntEnter
 365              		.code	16
 366              		.thumb_func
 367              		.type	OSIntEnter, %function
 368              	OSIntEnter:
 369              	.LFB2:
 629:..\..\..\..\..\..\Software\uCOS-II\Source/os_core.c **** /*$PAGE*/
 630:..\..\..\..\..\..\Software\uCOS-II\Source/os_core.c **** /*
 631:..\..\..\..\..\..\Software\uCOS-II\Source/os_core.c **** ***************************************************************************************************
 632:..\..\..\..\..\..\Software\uCOS-II\Source/os_core.c **** *                                              ENTER ISR
 633:..\..\..\..\..\..\Software\uCOS-II\Source/os_core.c **** *
 634:..\..\..\..\..\..\Software\uCOS-II\Source/os_core.c **** * Description: This function is used to notify uC/OS-II that you are about to service an interrupt
 635:..\..\..\..\..\..\Software\uCOS-II\Source/os_core.c **** *              service routine (ISR).  This allows uC/OS-II to keep track of interrupt nesting and 
 636:..\..\..\..\..\..\Software\uCOS-II\Source/os_core.c **** *              only perform rescheduling at the last nested ISR.
 637:..\..\..\..\..\..\Software\uCOS-II\Source/os_core.c **** *
 638:..\..\..\..\..\..\Software\uCOS-II\Source/os_core.c **** * Arguments  : none
 639:..\..\..\..\..\..\Software\uCOS-II\Source/os_core.c **** *
 640:..\..\..\..\..\..\Software\uCOS-II\Source/os_core.c **** * Returns    : none
 641:..\..\..\..\..\..\Software\uCOS-II\Source/os_core.c **** *
 642:..\..\..\..\..\..\Software\uCOS-II\Source/os_core.c **** * Notes      : 1) This function should be called with interrupts already disabled
 643:..\..\..\..\..\..\Software\uCOS-II\Source/os_core.c **** *              2) Your ISR can directly increment OSIntNesting without calling this function becaus
 644:..\..\..\..\..\..\Software\uCOS-II\Source/os_core.c **** *                 OSIntNesting has been declared 'global'.
 645:..\..\..\..\..\..\Software\uCOS-II\Source/os_core.c **** *              3) You MUST still call OSIntExit() even though you increment OSIntNesting directly.
 646:..\..\..\..\..\..\Software\uCOS-II\Source/os_core.c **** *              4) You MUST invoke OSIntEnter() and OSIntExit() in pair.  In other words, for every 
 647:..\..\..\..\..\..\Software\uCOS-II\Source/os_core.c **** *                 to OSIntEnter() at the beginning of the ISR you MUST have a call to OSIntExit() a
 648:..\..\..\..\..\..\Software\uCOS-II\Source/os_core.c **** *                 end of the ISR.
 649:..\..\..\..\..\..\Software\uCOS-II\Source/os_core.c **** *              5) You are allowed to nest interrupts up to 255 levels deep.
 650:..\..\..\..\..\..\Software\uCOS-II\Source/os_core.c **** *              6) I removed the OS_ENTER_CRITICAL() and OS_EXIT_CRITICAL() around the increment bec
 651:..\..\..\..\..\..\Software\uCOS-II\Source/os_core.c **** *                 OSIntEnter() is always called with interrupts disabled.
 652:..\..\..\..\..\..\Software\uCOS-II\Source/os_core.c **** ***************************************************************************************************
 653:..\..\..\..\..\..\Software\uCOS-II\Source/os_core.c **** */
 654:..\..\..\..\..\..\Software\uCOS-II\Source/os_core.c **** 
 655:..\..\..\..\..\..\Software\uCOS-II\Source/os_core.c **** void  OSIntEnter (void)
 656:..\..\..\..\..\..\Software\uCOS-II\Source/os_core.c **** {
 370              		.loc 1 656 0
ARM GAS  C:\Users\EDULU~1.DES\AppData\Local\Temp\ccKclfbr.s 			page 19


 371              		.cfi_startproc
 372              		@ args = 0, pretend = 0, frame = 0
 373              		@ frame_needed = 1, uses_anonymous_args = 0
 374 0000 80B5     		push	{r7, lr}
 375              		.cfi_def_cfa_offset 8
 376              		.cfi_offset 7, -8
 377              		.cfi_offset 14, -4
 378 0002 00AF     		add	r7, sp, #0
 379              		.cfi_def_cfa_register 7
 657:..\..\..\..\..\..\Software\uCOS-II\Source/os_core.c ****     if (OSRunning == OS_TRUE) {
 380              		.loc 1 657 0
 381 0004 084B     		ldr	r3, .L5
 382 0006 1B78     		ldrb	r3, [r3]
 383 0008 012B     		cmp	r3, #1
 384 000a 09D1     		bne	.L4
 658:..\..\..\..\..\..\Software\uCOS-II\Source/os_core.c ****         if (OSIntNesting < 255u) {
 385              		.loc 1 658 0
 386 000c 074B     		ldr	r3, .L5+4
 387 000e 1B78     		ldrb	r3, [r3]
 388 0010 FF2B     		cmp	r3, #255
 389 0012 05D0     		beq	.L4
 659:..\..\..\..\..\..\Software\uCOS-II\Source/os_core.c ****             OSIntNesting++;                      /* Increment ISR nesting level                    
 390              		.loc 1 659 0
 391 0014 054B     		ldr	r3, .L5+4
 392 0016 1B78     		ldrb	r3, [r3]
 393 0018 0133     		adds	r3, r3, #1
 394 001a DAB2     		uxtb	r2, r3
 395 001c 034B     		ldr	r3, .L5+4
 396 001e 1A70     		strb	r2, [r3]
 397              	.L4:
 660:..\..\..\..\..\..\Software\uCOS-II\Source/os_core.c ****         }
 661:..\..\..\..\..\..\Software\uCOS-II\Source/os_core.c ****     }
 662:..\..\..\..\..\..\Software\uCOS-II\Source/os_core.c **** }
 398              		.loc 1 662 0
 399 0020 C046     		nop
 400 0022 BD46     		mov	sp, r7
 401              		@ sp needed
 402 0024 80BD     		pop	{r7, pc}
 403              	.L6:
 404 0026 C046     		.align	2
 405              	.L5:
 406 0028 00000000 		.word	OSRunning
 407 002c 00000000 		.word	OSIntNesting
 408              		.cfi_endproc
 409              	.LFE2:
 410              		.size	OSIntEnter, .-OSIntEnter
 411              		.section	.text.OSIntExit,"ax",%progbits
 412              		.align	2
 413              		.global	OSIntExit
 414              		.code	16
 415              		.thumb_func
 416              		.type	OSIntExit, %function
 417              	OSIntExit:
 418              	.LFB3:
 663:..\..\..\..\..\..\Software\uCOS-II\Source/os_core.c **** /*$PAGE*/
 664:..\..\..\..\..\..\Software\uCOS-II\Source/os_core.c **** /*
 665:..\..\..\..\..\..\Software\uCOS-II\Source/os_core.c **** ***************************************************************************************************
ARM GAS  C:\Users\EDULU~1.DES\AppData\Local\Temp\ccKclfbr.s 			page 20


 666:..\..\..\..\..\..\Software\uCOS-II\Source/os_core.c **** *                                              EXIT ISR
 667:..\..\..\..\..\..\Software\uCOS-II\Source/os_core.c **** *
 668:..\..\..\..\..\..\Software\uCOS-II\Source/os_core.c **** * Description: This function is used to notify uC/OS-II that you have completed servicing an ISR.  
 669:..\..\..\..\..\..\Software\uCOS-II\Source/os_core.c **** *              the last nested ISR has completed, uC/OS-II will call the scheduler to determine whe
 670:..\..\..\..\..\..\Software\uCOS-II\Source/os_core.c **** *              a new, high-priority task, is ready to run.
 671:..\..\..\..\..\..\Software\uCOS-II\Source/os_core.c **** *
 672:..\..\..\..\..\..\Software\uCOS-II\Source/os_core.c **** * Arguments  : none
 673:..\..\..\..\..\..\Software\uCOS-II\Source/os_core.c **** *
 674:..\..\..\..\..\..\Software\uCOS-II\Source/os_core.c **** * Returns    : none
 675:..\..\..\..\..\..\Software\uCOS-II\Source/os_core.c **** *
 676:..\..\..\..\..\..\Software\uCOS-II\Source/os_core.c **** * Notes      : 1) You MUST invoke OSIntEnter() and OSIntExit() in pair.  In other words, for every 
 677:..\..\..\..\..\..\Software\uCOS-II\Source/os_core.c **** *                 to OSIntEnter() at the beginning of the ISR you MUST have a call to OSIntExit() a
 678:..\..\..\..\..\..\Software\uCOS-II\Source/os_core.c **** *                 end of the ISR.
 679:..\..\..\..\..\..\Software\uCOS-II\Source/os_core.c **** *              2) Rescheduling is prevented when the scheduler is locked (see OS_SchedLock())
 680:..\..\..\..\..\..\Software\uCOS-II\Source/os_core.c **** ***************************************************************************************************
 681:..\..\..\..\..\..\Software\uCOS-II\Source/os_core.c **** */
 682:..\..\..\..\..\..\Software\uCOS-II\Source/os_core.c **** 
 683:..\..\..\..\..\..\Software\uCOS-II\Source/os_core.c **** void  OSIntExit (void)
 684:..\..\..\..\..\..\Software\uCOS-II\Source/os_core.c **** {
 419              		.loc 1 684 0
 420              		.cfi_startproc
 421              		@ args = 0, pretend = 0, frame = 8
 422              		@ frame_needed = 1, uses_anonymous_args = 0
 423 0000 80B5     		push	{r7, lr}
 424              		.cfi_def_cfa_offset 8
 425              		.cfi_offset 7, -8
 426              		.cfi_offset 14, -4
 427 0002 82B0     		sub	sp, sp, #8
 428              		.cfi_def_cfa_offset 16
 429 0004 00AF     		add	r7, sp, #0
 430              		.cfi_def_cfa_register 7
 685:..\..\..\..\..\..\Software\uCOS-II\Source/os_core.c **** #if OS_CRITICAL_METHOD == 3u                               /* Allocate storage for CPU status regis
 686:..\..\..\..\..\..\Software\uCOS-II\Source/os_core.c ****     OS_CPU_SR  cpu_sr = 0u;
 431              		.loc 1 686 0
 432 0006 0023     		movs	r3, #0
 433 0008 7B60     		str	r3, [r7, #4]
 687:..\..\..\..\..\..\Software\uCOS-II\Source/os_core.c **** #endif
 688:..\..\..\..\..\..\Software\uCOS-II\Source/os_core.c **** 
 689:..\..\..\..\..\..\Software\uCOS-II\Source/os_core.c **** 
 690:..\..\..\..\..\..\Software\uCOS-II\Source/os_core.c **** 
 691:..\..\..\..\..\..\Software\uCOS-II\Source/os_core.c ****     if (OSRunning == OS_TRUE) {
 434              		.loc 1 691 0
 435 000a 1C4B     		ldr	r3, .L12
 436 000c 1B78     		ldrb	r3, [r3]
 437 000e 012B     		cmp	r3, #1
 438 0010 30D1     		bne	.L11
 692:..\..\..\..\..\..\Software\uCOS-II\Source/os_core.c ****         OS_ENTER_CRITICAL();
 439              		.loc 1 692 0
 440 0012 FFF7FEFF 		bl	OS_CPU_SR_Save
 441 0016 0300     		movs	r3, r0
 442 0018 7B60     		str	r3, [r7, #4]
 693:..\..\..\..\..\..\Software\uCOS-II\Source/os_core.c ****         if (OSIntNesting > 0u) {                           /* Prevent OSIntNesting from wrapping   
 443              		.loc 1 693 0
 444 001a 194B     		ldr	r3, .L12+4
 445 001c 1B78     		ldrb	r3, [r3]
 446 001e 002B     		cmp	r3, #0
 447 0020 05D0     		beq	.L9
ARM GAS  C:\Users\EDULU~1.DES\AppData\Local\Temp\ccKclfbr.s 			page 21


 694:..\..\..\..\..\..\Software\uCOS-II\Source/os_core.c ****             OSIntNesting--;
 448              		.loc 1 694 0
 449 0022 174B     		ldr	r3, .L12+4
 450 0024 1B78     		ldrb	r3, [r3]
 451 0026 013B     		subs	r3, r3, #1
 452 0028 DAB2     		uxtb	r2, r3
 453 002a 154B     		ldr	r3, .L12+4
 454 002c 1A70     		strb	r2, [r3]
 455              	.L9:
 695:..\..\..\..\..\..\Software\uCOS-II\Source/os_core.c ****         }
 696:..\..\..\..\..\..\Software\uCOS-II\Source/os_core.c ****         if (OSIntNesting == 0u) {                          /* Reschedule only if all ISRs complete 
 456              		.loc 1 696 0
 457 002e 144B     		ldr	r3, .L12+4
 458 0030 1B78     		ldrb	r3, [r3]
 459 0032 002B     		cmp	r3, #0
 460 0034 1AD1     		bne	.L10
 697:..\..\..\..\..\..\Software\uCOS-II\Source/os_core.c ****             if (OSLockNesting == 0u) {                     /* ... and not locked.                  
 461              		.loc 1 697 0
 462 0036 134B     		ldr	r3, .L12+8
 463 0038 1B78     		ldrb	r3, [r3]
 464 003a 002B     		cmp	r3, #0
 465 003c 16D1     		bne	.L10
 698:..\..\..\..\..\..\Software\uCOS-II\Source/os_core.c ****                 OS_SchedNew();
 466              		.loc 1 698 0
 467 003e FFF7FEFF 		bl	OS_SchedNew
 699:..\..\..\..\..\..\Software\uCOS-II\Source/os_core.c ****                 OSTCBHighRdy = OSTCBPrioTbl[OSPrioHighRdy];
 468              		.loc 1 699 0
 469 0042 114B     		ldr	r3, .L12+12
 470 0044 1B78     		ldrb	r3, [r3]
 471 0046 1A00     		movs	r2, r3
 472 0048 104B     		ldr	r3, .L12+16
 473 004a 9200     		lsls	r2, r2, #2
 474 004c D258     		ldr	r2, [r2, r3]
 475 004e 104B     		ldr	r3, .L12+20
 476 0050 1A60     		str	r2, [r3]
 700:..\..\..\..\..\..\Software\uCOS-II\Source/os_core.c ****                 if (OSPrioHighRdy != OSPrioCur) {          /* No Ctx Sw if current task is highest 
 477              		.loc 1 700 0
 478 0052 0D4B     		ldr	r3, .L12+12
 479 0054 1A78     		ldrb	r2, [r3]
 480 0056 0F4B     		ldr	r3, .L12+24
 481 0058 1B78     		ldrb	r3, [r3]
 482 005a 9A42     		cmp	r2, r3
 483 005c 06D0     		beq	.L10
 701:..\..\..\..\..\..\Software\uCOS-II\Source/os_core.c **** #if OS_TASK_PROFILE_EN > 0u
 702:..\..\..\..\..\..\Software\uCOS-II\Source/os_core.c ****                     OSTCBHighRdy->OSTCBCtxSwCtr++;         /* Inc. # of context switches to this ta
 703:..\..\..\..\..\..\Software\uCOS-II\Source/os_core.c **** #endif
 704:..\..\..\..\..\..\Software\uCOS-II\Source/os_core.c ****                     OSCtxSwCtr++;                          /* Keep track of the number of ctx switc
 484              		.loc 1 704 0
 485 005e 0E4B     		ldr	r3, .L12+28
 486 0060 1B68     		ldr	r3, [r3]
 487 0062 5A1C     		adds	r2, r3, #1
 488 0064 0C4B     		ldr	r3, .L12+28
 489 0066 1A60     		str	r2, [r3]
 705:..\..\..\..\..\..\Software\uCOS-II\Source/os_core.c **** 
 706:..\..\..\..\..\..\Software\uCOS-II\Source/os_core.c **** #if OS_TASK_CREATE_EXT_EN > 0u
 707:..\..\..\..\..\..\Software\uCOS-II\Source/os_core.c **** #if defined(OS_TLS_TBL_SIZE) && (OS_TLS_TBL_SIZE > 0u)
 708:..\..\..\..\..\..\Software\uCOS-II\Source/os_core.c ****                     OS_TLS_TaskSw();
ARM GAS  C:\Users\EDULU~1.DES\AppData\Local\Temp\ccKclfbr.s 			page 22


 709:..\..\..\..\..\..\Software\uCOS-II\Source/os_core.c **** #endif
 710:..\..\..\..\..\..\Software\uCOS-II\Source/os_core.c **** #endif
 711:..\..\..\..\..\..\Software\uCOS-II\Source/os_core.c **** 
 712:..\..\..\..\..\..\Software\uCOS-II\Source/os_core.c ****                     OSIntCtxSw();                          /* Perform interrupt level ctx switch   
 490              		.loc 1 712 0
 491 0068 FFF7FEFF 		bl	OSIntCtxSw
 492              	.L10:
 713:..\..\..\..\..\..\Software\uCOS-II\Source/os_core.c ****                 }
 714:..\..\..\..\..\..\Software\uCOS-II\Source/os_core.c ****             }
 715:..\..\..\..\..\..\Software\uCOS-II\Source/os_core.c ****         }
 716:..\..\..\..\..\..\Software\uCOS-II\Source/os_core.c ****         OS_EXIT_CRITICAL();
 493              		.loc 1 716 0
 494 006c 7B68     		ldr	r3, [r7, #4]
 495 006e 1800     		movs	r0, r3
 496 0070 FFF7FEFF 		bl	OS_CPU_SR_Restore
 497              	.L11:
 717:..\..\..\..\..\..\Software\uCOS-II\Source/os_core.c ****     }
 718:..\..\..\..\..\..\Software\uCOS-II\Source/os_core.c **** }
 498              		.loc 1 718 0
 499 0074 C046     		nop
 500 0076 BD46     		mov	sp, r7
 501 0078 02B0     		add	sp, sp, #8
 502              		@ sp needed
 503 007a 80BD     		pop	{r7, pc}
 504              	.L13:
 505              		.align	2
 506              	.L12:
 507 007c 00000000 		.word	OSRunning
 508 0080 00000000 		.word	OSIntNesting
 509 0084 00000000 		.word	OSLockNesting
 510 0088 00000000 		.word	OSPrioHighRdy
 511 008c 00000000 		.word	OSTCBPrioTbl
 512 0090 00000000 		.word	OSTCBHighRdy
 513 0094 00000000 		.word	OSPrioCur
 514 0098 00000000 		.word	OSCtxSwCtr
 515              		.cfi_endproc
 516              	.LFE3:
 517              		.size	OSIntExit, .-OSIntExit
 518              		.section	.text.OSSchedLock,"ax",%progbits
 519              		.align	2
 520              		.global	OSSchedLock
 521              		.code	16
 522              		.thumb_func
 523              		.type	OSSchedLock, %function
 524              	OSSchedLock:
 525              	.LFB4:
 719:..\..\..\..\..\..\Software\uCOS-II\Source/os_core.c **** /*$PAGE*/
 720:..\..\..\..\..\..\Software\uCOS-II\Source/os_core.c **** /*
 721:..\..\..\..\..\..\Software\uCOS-II\Source/os_core.c **** ***************************************************************************************************
 722:..\..\..\..\..\..\Software\uCOS-II\Source/os_core.c **** *                         INDICATE THAT IT'S NO LONGER SAFE TO CREATE OBJECTS
 723:..\..\..\..\..\..\Software\uCOS-II\Source/os_core.c **** *
 724:..\..\..\..\..\..\Software\uCOS-II\Source/os_core.c **** * Description: This function is called by the application code to indicate that all initialization 
 725:..\..\..\..\..\..\Software\uCOS-II\Source/os_core.c **** *              been completed and that kernel objects are no longer allowed to be created.
 726:..\..\..\..\..\..\Software\uCOS-II\Source/os_core.c **** *
 727:..\..\..\..\..\..\Software\uCOS-II\Source/os_core.c **** * Arguments  : none
 728:..\..\..\..\..\..\Software\uCOS-II\Source/os_core.c **** *
 729:..\..\..\..\..\..\Software\uCOS-II\Source/os_core.c **** * Returns    : none
ARM GAS  C:\Users\EDULU~1.DES\AppData\Local\Temp\ccKclfbr.s 			page 23


 730:..\..\..\..\..\..\Software\uCOS-II\Source/os_core.c **** *
 731:..\..\..\..\..\..\Software\uCOS-II\Source/os_core.c **** * Note(s)    : 1) You should call this function when you no longer want to allow application code t
 732:..\..\..\..\..\..\Software\uCOS-II\Source/os_core.c **** *                 create kernel objects.
 733:..\..\..\..\..\..\Software\uCOS-II\Source/os_core.c **** *              2) You need to define the macro 'OS_SAFETY_CRITICAL_IEC61508'
 734:..\..\..\..\..\..\Software\uCOS-II\Source/os_core.c **** ***************************************************************************************************
 735:..\..\..\..\..\..\Software\uCOS-II\Source/os_core.c **** */
 736:..\..\..\..\..\..\Software\uCOS-II\Source/os_core.c **** 
 737:..\..\..\..\..\..\Software\uCOS-II\Source/os_core.c **** #ifdef OS_SAFETY_CRITICAL_IEC61508
 738:..\..\..\..\..\..\Software\uCOS-II\Source/os_core.c **** void  OSSafetyCriticalStart (void)
 739:..\..\..\..\..\..\Software\uCOS-II\Source/os_core.c **** {
 740:..\..\..\..\..\..\Software\uCOS-II\Source/os_core.c ****     OSSafetyCriticalStartFlag = OS_TRUE;
 741:..\..\..\..\..\..\Software\uCOS-II\Source/os_core.c **** }
 742:..\..\..\..\..\..\Software\uCOS-II\Source/os_core.c **** 
 743:..\..\..\..\..\..\Software\uCOS-II\Source/os_core.c **** #endif
 744:..\..\..\..\..\..\Software\uCOS-II\Source/os_core.c **** 
 745:..\..\..\..\..\..\Software\uCOS-II\Source/os_core.c **** /*$PAGE*/
 746:..\..\..\..\..\..\Software\uCOS-II\Source/os_core.c **** /*
 747:..\..\..\..\..\..\Software\uCOS-II\Source/os_core.c **** ***************************************************************************************************
 748:..\..\..\..\..\..\Software\uCOS-II\Source/os_core.c **** *                                         PREVENT SCHEDULING
 749:..\..\..\..\..\..\Software\uCOS-II\Source/os_core.c **** *
 750:..\..\..\..\..\..\Software\uCOS-II\Source/os_core.c **** * Description: This function is used to prevent rescheduling to take place.  This allows your appli
 751:..\..\..\..\..\..\Software\uCOS-II\Source/os_core.c **** *              to prevent context switches until you are ready to permit context switching.
 752:..\..\..\..\..\..\Software\uCOS-II\Source/os_core.c **** *
 753:..\..\..\..\..\..\Software\uCOS-II\Source/os_core.c **** * Arguments  : none
 754:..\..\..\..\..\..\Software\uCOS-II\Source/os_core.c **** *
 755:..\..\..\..\..\..\Software\uCOS-II\Source/os_core.c **** * Returns    : none
 756:..\..\..\..\..\..\Software\uCOS-II\Source/os_core.c **** *
 757:..\..\..\..\..\..\Software\uCOS-II\Source/os_core.c **** * Notes      : 1) You MUST invoke OSSchedLock() and OSSchedUnlock() in pair.  In other words, for e
 758:..\..\..\..\..\..\Software\uCOS-II\Source/os_core.c **** *                 call to OSSchedLock() you MUST have a call to OSSchedUnlock().
 759:..\..\..\..\..\..\Software\uCOS-II\Source/os_core.c **** ***************************************************************************************************
 760:..\..\..\..\..\..\Software\uCOS-II\Source/os_core.c **** */
 761:..\..\..\..\..\..\Software\uCOS-II\Source/os_core.c **** 
 762:..\..\..\..\..\..\Software\uCOS-II\Source/os_core.c **** #if OS_SCHED_LOCK_EN > 0u
 763:..\..\..\..\..\..\Software\uCOS-II\Source/os_core.c **** void  OSSchedLock (void)
 764:..\..\..\..\..\..\Software\uCOS-II\Source/os_core.c **** {
 526              		.loc 1 764 0
 527              		.cfi_startproc
 528              		@ args = 0, pretend = 0, frame = 8
 529              		@ frame_needed = 1, uses_anonymous_args = 0
 530 0000 80B5     		push	{r7, lr}
 531              		.cfi_def_cfa_offset 8
 532              		.cfi_offset 7, -8
 533              		.cfi_offset 14, -4
 534 0002 82B0     		sub	sp, sp, #8
 535              		.cfi_def_cfa_offset 16
 536 0004 00AF     		add	r7, sp, #0
 537              		.cfi_def_cfa_register 7
 765:..\..\..\..\..\..\Software\uCOS-II\Source/os_core.c **** #if OS_CRITICAL_METHOD == 3u                     /* Allocate storage for CPU status register       
 766:..\..\..\..\..\..\Software\uCOS-II\Source/os_core.c ****     OS_CPU_SR  cpu_sr = 0u;
 538              		.loc 1 766 0
 539 0006 0023     		movs	r3, #0
 540 0008 7B60     		str	r3, [r7, #4]
 767:..\..\..\..\..\..\Software\uCOS-II\Source/os_core.c **** #endif
 768:..\..\..\..\..\..\Software\uCOS-II\Source/os_core.c **** 
 769:..\..\..\..\..\..\Software\uCOS-II\Source/os_core.c **** 
 770:..\..\..\..\..\..\Software\uCOS-II\Source/os_core.c **** 
 771:..\..\..\..\..\..\Software\uCOS-II\Source/os_core.c ****     if (OSRunning == OS_TRUE) {                  /* Make sure multitasking is running              
ARM GAS  C:\Users\EDULU~1.DES\AppData\Local\Temp\ccKclfbr.s 			page 24


 541              		.loc 1 771 0
 542 000a 0F4B     		ldr	r3, .L18
 543 000c 1B78     		ldrb	r3, [r3]
 544 000e 012B     		cmp	r3, #1
 545 0010 15D1     		bne	.L17
 772:..\..\..\..\..\..\Software\uCOS-II\Source/os_core.c ****         OS_ENTER_CRITICAL();
 546              		.loc 1 772 0
 547 0012 FFF7FEFF 		bl	OS_CPU_SR_Save
 548 0016 0300     		movs	r3, r0
 549 0018 7B60     		str	r3, [r7, #4]
 773:..\..\..\..\..\..\Software\uCOS-II\Source/os_core.c ****         if (OSIntNesting == 0u) {                /* Can't call from an ISR                         
 550              		.loc 1 773 0
 551 001a 0C4B     		ldr	r3, .L18+4
 552 001c 1B78     		ldrb	r3, [r3]
 553 001e 002B     		cmp	r3, #0
 554 0020 09D1     		bne	.L16
 774:..\..\..\..\..\..\Software\uCOS-II\Source/os_core.c ****             if (OSLockNesting < 255u) {          /* Prevent OSLockNesting from wrapping back to 0  
 555              		.loc 1 774 0
 556 0022 0B4B     		ldr	r3, .L18+8
 557 0024 1B78     		ldrb	r3, [r3]
 558 0026 FF2B     		cmp	r3, #255
 559 0028 05D0     		beq	.L16
 775:..\..\..\..\..\..\Software\uCOS-II\Source/os_core.c ****                 OSLockNesting++;                 /* Increment lock nesting level                   
 560              		.loc 1 775 0
 561 002a 094B     		ldr	r3, .L18+8
 562 002c 1B78     		ldrb	r3, [r3]
 563 002e 0133     		adds	r3, r3, #1
 564 0030 DAB2     		uxtb	r2, r3
 565 0032 074B     		ldr	r3, .L18+8
 566 0034 1A70     		strb	r2, [r3]
 567              	.L16:
 776:..\..\..\..\..\..\Software\uCOS-II\Source/os_core.c ****             }
 777:..\..\..\..\..\..\Software\uCOS-II\Source/os_core.c ****         }
 778:..\..\..\..\..\..\Software\uCOS-II\Source/os_core.c ****         OS_EXIT_CRITICAL();
 568              		.loc 1 778 0
 569 0036 7B68     		ldr	r3, [r7, #4]
 570 0038 1800     		movs	r0, r3
 571 003a FFF7FEFF 		bl	OS_CPU_SR_Restore
 572              	.L17:
 779:..\..\..\..\..\..\Software\uCOS-II\Source/os_core.c ****     }
 780:..\..\..\..\..\..\Software\uCOS-II\Source/os_core.c **** }
 573              		.loc 1 780 0
 574 003e C046     		nop
 575 0040 BD46     		mov	sp, r7
 576 0042 02B0     		add	sp, sp, #8
 577              		@ sp needed
 578 0044 80BD     		pop	{r7, pc}
 579              	.L19:
 580 0046 C046     		.align	2
 581              	.L18:
 582 0048 00000000 		.word	OSRunning
 583 004c 00000000 		.word	OSIntNesting
 584 0050 00000000 		.word	OSLockNesting
 585              		.cfi_endproc
 586              	.LFE4:
 587              		.size	OSSchedLock, .-OSSchedLock
 588              		.section	.text.OSSchedUnlock,"ax",%progbits
ARM GAS  C:\Users\EDULU~1.DES\AppData\Local\Temp\ccKclfbr.s 			page 25


 589              		.align	2
 590              		.global	OSSchedUnlock
 591              		.code	16
 592              		.thumb_func
 593              		.type	OSSchedUnlock, %function
 594              	OSSchedUnlock:
 595              	.LFB5:
 781:..\..\..\..\..\..\Software\uCOS-II\Source/os_core.c **** #endif
 782:..\..\..\..\..\..\Software\uCOS-II\Source/os_core.c **** 
 783:..\..\..\..\..\..\Software\uCOS-II\Source/os_core.c **** /*$PAGE*/
 784:..\..\..\..\..\..\Software\uCOS-II\Source/os_core.c **** /*
 785:..\..\..\..\..\..\Software\uCOS-II\Source/os_core.c **** ***************************************************************************************************
 786:..\..\..\..\..\..\Software\uCOS-II\Source/os_core.c **** *                                          ENABLE SCHEDULING
 787:..\..\..\..\..\..\Software\uCOS-II\Source/os_core.c **** *
 788:..\..\..\..\..\..\Software\uCOS-II\Source/os_core.c **** * Description: This function is used to re-allow rescheduling.
 789:..\..\..\..\..\..\Software\uCOS-II\Source/os_core.c **** *
 790:..\..\..\..\..\..\Software\uCOS-II\Source/os_core.c **** * Arguments  : none
 791:..\..\..\..\..\..\Software\uCOS-II\Source/os_core.c **** *
 792:..\..\..\..\..\..\Software\uCOS-II\Source/os_core.c **** * Returns    : none
 793:..\..\..\..\..\..\Software\uCOS-II\Source/os_core.c **** *
 794:..\..\..\..\..\..\Software\uCOS-II\Source/os_core.c **** * Notes      : 1) You MUST invoke OSSchedLock() and OSSchedUnlock() in pair.  In other words, for e
 795:..\..\..\..\..\..\Software\uCOS-II\Source/os_core.c **** *                 call to OSSchedLock() you MUST have a call to OSSchedUnlock().
 796:..\..\..\..\..\..\Software\uCOS-II\Source/os_core.c **** ***************************************************************************************************
 797:..\..\..\..\..\..\Software\uCOS-II\Source/os_core.c **** */
 798:..\..\..\..\..\..\Software\uCOS-II\Source/os_core.c **** 
 799:..\..\..\..\..\..\Software\uCOS-II\Source/os_core.c **** #if OS_SCHED_LOCK_EN > 0u
 800:..\..\..\..\..\..\Software\uCOS-II\Source/os_core.c **** void  OSSchedUnlock (void)
 801:..\..\..\..\..\..\Software\uCOS-II\Source/os_core.c **** {
 596              		.loc 1 801 0
 597              		.cfi_startproc
 598              		@ args = 0, pretend = 0, frame = 8
 599              		@ frame_needed = 1, uses_anonymous_args = 0
 600 0000 80B5     		push	{r7, lr}
 601              		.cfi_def_cfa_offset 8
 602              		.cfi_offset 7, -8
 603              		.cfi_offset 14, -4
 604 0002 82B0     		sub	sp, sp, #8
 605              		.cfi_def_cfa_offset 16
 606 0004 00AF     		add	r7, sp, #0
 607              		.cfi_def_cfa_register 7
 802:..\..\..\..\..\..\Software\uCOS-II\Source/os_core.c **** #if OS_CRITICAL_METHOD == 3u                               /* Allocate storage for CPU status regis
 803:..\..\..\..\..\..\Software\uCOS-II\Source/os_core.c ****     OS_CPU_SR  cpu_sr = 0u;
 608              		.loc 1 803 0
 609 0006 0023     		movs	r3, #0
 610 0008 7B60     		str	r3, [r7, #4]
 804:..\..\..\..\..\..\Software\uCOS-II\Source/os_core.c **** #endif
 805:..\..\..\..\..\..\Software\uCOS-II\Source/os_core.c **** 
 806:..\..\..\..\..\..\Software\uCOS-II\Source/os_core.c **** 
 807:..\..\..\..\..\..\Software\uCOS-II\Source/os_core.c **** 
 808:..\..\..\..\..\..\Software\uCOS-II\Source/os_core.c ****     if (OSRunning == OS_TRUE) {                            /* Make sure multitasking is running    
 611              		.loc 1 808 0
 612 000a 194B     		ldr	r3, .L28
 613 000c 1B78     		ldrb	r3, [r3]
 614 000e 012B     		cmp	r3, #1
 615 0010 2AD1     		bne	.L27
 809:..\..\..\..\..\..\Software\uCOS-II\Source/os_core.c ****         OS_ENTER_CRITICAL();
 616              		.loc 1 809 0
ARM GAS  C:\Users\EDULU~1.DES\AppData\Local\Temp\ccKclfbr.s 			page 26


 617 0012 FFF7FEFF 		bl	OS_CPU_SR_Save
 618 0016 0300     		movs	r3, r0
 619 0018 7B60     		str	r3, [r7, #4]
 810:..\..\..\..\..\..\Software\uCOS-II\Source/os_core.c ****         if (OSIntNesting == 0u) {                          /* Can't call from an ISR               
 620              		.loc 1 810 0
 621 001a 164B     		ldr	r3, .L28+4
 622 001c 1B78     		ldrb	r3, [r3]
 623 001e 002B     		cmp	r3, #0
 624 0020 1ED1     		bne	.L22
 811:..\..\..\..\..\..\Software\uCOS-II\Source/os_core.c ****             if (OSLockNesting > 0u) {                      /* Do not decrement if already 0        
 625              		.loc 1 811 0
 626 0022 154B     		ldr	r3, .L28+8
 627 0024 1B78     		ldrb	r3, [r3]
 628 0026 002B     		cmp	r3, #0
 629 0028 15D0     		beq	.L23
 812:..\..\..\..\..\..\Software\uCOS-II\Source/os_core.c ****                 OSLockNesting--;                           /* Decrement lock nesting level         
 630              		.loc 1 812 0
 631 002a 134B     		ldr	r3, .L28+8
 632 002c 1B78     		ldrb	r3, [r3]
 633 002e 013B     		subs	r3, r3, #1
 634 0030 DAB2     		uxtb	r2, r3
 635 0032 114B     		ldr	r3, .L28+8
 636 0034 1A70     		strb	r2, [r3]
 813:..\..\..\..\..\..\Software\uCOS-II\Source/os_core.c ****                 if (OSLockNesting == 0u) {                 /* See if scheduler is enabled          
 637              		.loc 1 813 0
 638 0036 104B     		ldr	r3, .L28+8
 639 0038 1B78     		ldrb	r3, [r3]
 640 003a 002B     		cmp	r3, #0
 641 003c 06D1     		bne	.L24
 814:..\..\..\..\..\..\Software\uCOS-II\Source/os_core.c ****                     OS_EXIT_CRITICAL();
 642              		.loc 1 814 0
 643 003e 7B68     		ldr	r3, [r7, #4]
 644 0040 1800     		movs	r0, r3
 645 0042 FFF7FEFF 		bl	OS_CPU_SR_Restore
 815:..\..\..\..\..\..\Software\uCOS-II\Source/os_core.c ****                     OS_Sched();                            /* See if a HPT is ready                
 646              		.loc 1 815 0
 647 0046 FFF7FEFF 		bl	OS_Sched
 816:..\..\..\..\..\..\Software\uCOS-II\Source/os_core.c ****                 } else {
 817:..\..\..\..\..\..\Software\uCOS-II\Source/os_core.c ****                     OS_EXIT_CRITICAL();
 818:..\..\..\..\..\..\Software\uCOS-II\Source/os_core.c ****                 }
 819:..\..\..\..\..\..\Software\uCOS-II\Source/os_core.c ****             } else {
 820:..\..\..\..\..\..\Software\uCOS-II\Source/os_core.c ****                 OS_EXIT_CRITICAL();
 821:..\..\..\..\..\..\Software\uCOS-II\Source/os_core.c ****             }
 822:..\..\..\..\..\..\Software\uCOS-II\Source/os_core.c ****         } else {
 823:..\..\..\..\..\..\Software\uCOS-II\Source/os_core.c ****             OS_EXIT_CRITICAL();
 824:..\..\..\..\..\..\Software\uCOS-II\Source/os_core.c ****         }
 825:..\..\..\..\..\..\Software\uCOS-II\Source/os_core.c ****     }
 826:..\..\..\..\..\..\Software\uCOS-II\Source/os_core.c **** }
 648              		.loc 1 826 0
 649 004a 0DE0     		b	.L27
 650              	.L24:
 817:..\..\..\..\..\..\Software\uCOS-II\Source/os_core.c ****                 }
 651              		.loc 1 817 0
 652 004c 7B68     		ldr	r3, [r7, #4]
 653 004e 1800     		movs	r0, r3
 654 0050 FFF7FEFF 		bl	OS_CPU_SR_Restore
 655              		.loc 1 826 0
ARM GAS  C:\Users\EDULU~1.DES\AppData\Local\Temp\ccKclfbr.s 			page 27


 656 0054 08E0     		b	.L27
 657              	.L23:
 820:..\..\..\..\..\..\Software\uCOS-II\Source/os_core.c ****             }
 658              		.loc 1 820 0
 659 0056 7B68     		ldr	r3, [r7, #4]
 660 0058 1800     		movs	r0, r3
 661 005a FFF7FEFF 		bl	OS_CPU_SR_Restore
 662              		.loc 1 826 0
 663 005e 03E0     		b	.L27
 664              	.L22:
 823:..\..\..\..\..\..\Software\uCOS-II\Source/os_core.c ****         }
 665              		.loc 1 823 0
 666 0060 7B68     		ldr	r3, [r7, #4]
 667 0062 1800     		movs	r0, r3
 668 0064 FFF7FEFF 		bl	OS_CPU_SR_Restore
 669              	.L27:
 670              		.loc 1 826 0
 671 0068 C046     		nop
 672 006a BD46     		mov	sp, r7
 673 006c 02B0     		add	sp, sp, #8
 674              		@ sp needed
 675 006e 80BD     		pop	{r7, pc}
 676              	.L29:
 677              		.align	2
 678              	.L28:
 679 0070 00000000 		.word	OSRunning
 680 0074 00000000 		.word	OSIntNesting
 681 0078 00000000 		.word	OSLockNesting
 682              		.cfi_endproc
 683              	.LFE5:
 684              		.size	OSSchedUnlock, .-OSSchedUnlock
 685              		.section	.text.OSStart,"ax",%progbits
 686              		.align	2
 687              		.global	OSStart
 688              		.code	16
 689              		.thumb_func
 690              		.type	OSStart, %function
 691              	OSStart:
 692              	.LFB6:
 827:..\..\..\..\..\..\Software\uCOS-II\Source/os_core.c **** #endif
 828:..\..\..\..\..\..\Software\uCOS-II\Source/os_core.c **** 
 829:..\..\..\..\..\..\Software\uCOS-II\Source/os_core.c **** /*$PAGE*/
 830:..\..\..\..\..\..\Software\uCOS-II\Source/os_core.c **** /*
 831:..\..\..\..\..\..\Software\uCOS-II\Source/os_core.c **** ***************************************************************************************************
 832:..\..\..\..\..\..\Software\uCOS-II\Source/os_core.c **** *                                         START MULTITASKING
 833:..\..\..\..\..\..\Software\uCOS-II\Source/os_core.c **** *
 834:..\..\..\..\..\..\Software\uCOS-II\Source/os_core.c **** * Description: This function is used to start the multitasking process which lets uC/OS-II manages 
 835:..\..\..\..\..\..\Software\uCOS-II\Source/os_core.c **** *              task that you have created.  Before you can call OSStart(), you MUST have called OSI
 836:..\..\..\..\..\..\Software\uCOS-II\Source/os_core.c **** *              and you MUST have created at least one task.
 837:..\..\..\..\..\..\Software\uCOS-II\Source/os_core.c **** *
 838:..\..\..\..\..\..\Software\uCOS-II\Source/os_core.c **** * Arguments  : none
 839:..\..\..\..\..\..\Software\uCOS-II\Source/os_core.c **** *
 840:..\..\..\..\..\..\Software\uCOS-II\Source/os_core.c **** * Returns    : none
 841:..\..\..\..\..\..\Software\uCOS-II\Source/os_core.c **** *
 842:..\..\..\..\..\..\Software\uCOS-II\Source/os_core.c **** * Note       : OSStartHighRdy() MUST:
 843:..\..\..\..\..\..\Software\uCOS-II\Source/os_core.c **** *                 a) Call OSTaskSwHook() then,
 844:..\..\..\..\..\..\Software\uCOS-II\Source/os_core.c **** *                 b) Set OSRunning to OS_TRUE.
ARM GAS  C:\Users\EDULU~1.DES\AppData\Local\Temp\ccKclfbr.s 			page 28


 845:..\..\..\..\..\..\Software\uCOS-II\Source/os_core.c **** *                 c) Load the context of the task pointed to by OSTCBHighRdy.
 846:..\..\..\..\..\..\Software\uCOS-II\Source/os_core.c **** *                 d_ Execute the task.
 847:..\..\..\..\..\..\Software\uCOS-II\Source/os_core.c **** ***************************************************************************************************
 848:..\..\..\..\..\..\Software\uCOS-II\Source/os_core.c **** */
 849:..\..\..\..\..\..\Software\uCOS-II\Source/os_core.c **** 
 850:..\..\..\..\..\..\Software\uCOS-II\Source/os_core.c **** void  OSStart (void)
 851:..\..\..\..\..\..\Software\uCOS-II\Source/os_core.c **** {
 693              		.loc 1 851 0
 694              		.cfi_startproc
 695              		@ args = 0, pretend = 0, frame = 0
 696              		@ frame_needed = 1, uses_anonymous_args = 0
 697 0000 80B5     		push	{r7, lr}
 698              		.cfi_def_cfa_offset 8
 699              		.cfi_offset 7, -8
 700              		.cfi_offset 14, -4
 701 0002 00AF     		add	r7, sp, #0
 702              		.cfi_def_cfa_register 7
 852:..\..\..\..\..\..\Software\uCOS-II\Source/os_core.c ****     if (OSRunning == OS_FALSE) {
 703              		.loc 1 852 0
 704 0004 0D4B     		ldr	r3, .L33
 705 0006 1B78     		ldrb	r3, [r3]
 706 0008 002B     		cmp	r3, #0
 707 000a 13D1     		bne	.L32
 853:..\..\..\..\..\..\Software\uCOS-II\Source/os_core.c ****         OS_SchedNew();                               /* Find highest priority's task priority numbe
 708              		.loc 1 853 0
 709 000c FFF7FEFF 		bl	OS_SchedNew
 854:..\..\..\..\..\..\Software\uCOS-II\Source/os_core.c ****         OSPrioCur     = OSPrioHighRdy;
 710              		.loc 1 854 0
 711 0010 0B4B     		ldr	r3, .L33+4
 712 0012 1A78     		ldrb	r2, [r3]
 713 0014 0B4B     		ldr	r3, .L33+8
 714 0016 1A70     		strb	r2, [r3]
 855:..\..\..\..\..\..\Software\uCOS-II\Source/os_core.c ****         OSTCBHighRdy  = OSTCBPrioTbl[OSPrioHighRdy]; /* Point to highest priority task ready to run
 715              		.loc 1 855 0
 716 0018 094B     		ldr	r3, .L33+4
 717 001a 1B78     		ldrb	r3, [r3]
 718 001c 1A00     		movs	r2, r3
 719 001e 0A4B     		ldr	r3, .L33+12
 720 0020 9200     		lsls	r2, r2, #2
 721 0022 D258     		ldr	r2, [r2, r3]
 722 0024 094B     		ldr	r3, .L33+16
 723 0026 1A60     		str	r2, [r3]
 856:..\..\..\..\..\..\Software\uCOS-II\Source/os_core.c ****         OSTCBCur      = OSTCBHighRdy;
 724              		.loc 1 856 0
 725 0028 084B     		ldr	r3, .L33+16
 726 002a 1A68     		ldr	r2, [r3]
 727 002c 084B     		ldr	r3, .L33+20
 728 002e 1A60     		str	r2, [r3]
 857:..\..\..\..\..\..\Software\uCOS-II\Source/os_core.c ****         OSStartHighRdy();                            /* Execute target specific code to start task 
 729              		.loc 1 857 0
 730 0030 FFF7FEFF 		bl	OSStartHighRdy
 731              	.L32:
 858:..\..\..\..\..\..\Software\uCOS-II\Source/os_core.c ****     }
 859:..\..\..\..\..\..\Software\uCOS-II\Source/os_core.c **** }
 732              		.loc 1 859 0
 733 0034 C046     		nop
 734 0036 BD46     		mov	sp, r7
ARM GAS  C:\Users\EDULU~1.DES\AppData\Local\Temp\ccKclfbr.s 			page 29


 735              		@ sp needed
 736 0038 80BD     		pop	{r7, pc}
 737              	.L34:
 738 003a C046     		.align	2
 739              	.L33:
 740 003c 00000000 		.word	OSRunning
 741 0040 00000000 		.word	OSPrioHighRdy
 742 0044 00000000 		.word	OSPrioCur
 743 0048 00000000 		.word	OSTCBPrioTbl
 744 004c 00000000 		.word	OSTCBHighRdy
 745 0050 00000000 		.word	OSTCBCur
 746              		.cfi_endproc
 747              	.LFE6:
 748              		.size	OSStart, .-OSStart
 749              		.section	.text.OSStatInit,"ax",%progbits
 750              		.align	2
 751              		.global	OSStatInit
 752              		.code	16
 753              		.thumb_func
 754              		.type	OSStatInit, %function
 755              	OSStatInit:
 756              	.LFB7:
 860:..\..\..\..\..\..\Software\uCOS-II\Source/os_core.c **** /*$PAGE*/
 861:..\..\..\..\..\..\Software\uCOS-II\Source/os_core.c **** /*
 862:..\..\..\..\..\..\Software\uCOS-II\Source/os_core.c **** ***************************************************************************************************
 863:..\..\..\..\..\..\Software\uCOS-II\Source/os_core.c **** *                                      STATISTICS INITIALIZATION
 864:..\..\..\..\..\..\Software\uCOS-II\Source/os_core.c **** *
 865:..\..\..\..\..\..\Software\uCOS-II\Source/os_core.c **** * Description: This function is called by your application to establish CPU usage by first determin
 866:..\..\..\..\..\..\Software\uCOS-II\Source/os_core.c **** *              how high a 32-bit counter would count to in 1 second if no other tasks were to execu
 867:..\..\..\..\..\..\Software\uCOS-II\Source/os_core.c **** *              during that time.  CPU usage is then determined by a low priority task which keeps t
 868:..\..\..\..\..\..\Software\uCOS-II\Source/os_core.c **** *              of this 32-bit counter every second but this time, with other tasks running.  CPU us
 869:..\..\..\..\..\..\Software\uCOS-II\Source/os_core.c **** *              determined by:
 870:..\..\..\..\..\..\Software\uCOS-II\Source/os_core.c **** *
 871:..\..\..\..\..\..\Software\uCOS-II\Source/os_core.c **** *                                             OSIdleCtr
 872:..\..\..\..\..\..\Software\uCOS-II\Source/os_core.c **** *                 CPU Usage (%) = 100 * (1 - ------------)
 873:..\..\..\..\..\..\Software\uCOS-II\Source/os_core.c **** *                                            OSIdleCtrMax
 874:..\..\..\..\..\..\Software\uCOS-II\Source/os_core.c **** *
 875:..\..\..\..\..\..\Software\uCOS-II\Source/os_core.c **** * Arguments  : none
 876:..\..\..\..\..\..\Software\uCOS-II\Source/os_core.c **** *
 877:..\..\..\..\..\..\Software\uCOS-II\Source/os_core.c **** * Returns    : none
 878:..\..\..\..\..\..\Software\uCOS-II\Source/os_core.c **** ***************************************************************************************************
 879:..\..\..\..\..\..\Software\uCOS-II\Source/os_core.c **** */
 880:..\..\..\..\..\..\Software\uCOS-II\Source/os_core.c **** 
 881:..\..\..\..\..\..\Software\uCOS-II\Source/os_core.c **** #if OS_TASK_STAT_EN > 0u
 882:..\..\..\..\..\..\Software\uCOS-II\Source/os_core.c **** void  OSStatInit (void)
 883:..\..\..\..\..\..\Software\uCOS-II\Source/os_core.c **** {
 757              		.loc 1 883 0
 758              		.cfi_startproc
 759              		@ args = 0, pretend = 0, frame = 8
 760              		@ frame_needed = 1, uses_anonymous_args = 0
 761 0000 80B5     		push	{r7, lr}
 762              		.cfi_def_cfa_offset 8
 763              		.cfi_offset 7, -8
 764              		.cfi_offset 14, -4
 765 0002 82B0     		sub	sp, sp, #8
 766              		.cfi_def_cfa_offset 16
 767 0004 00AF     		add	r7, sp, #0
ARM GAS  C:\Users\EDULU~1.DES\AppData\Local\Temp\ccKclfbr.s 			page 30


 768              		.cfi_def_cfa_register 7
 884:..\..\..\..\..\..\Software\uCOS-II\Source/os_core.c **** #if OS_CRITICAL_METHOD == 3u                     /* Allocate storage for CPU status register       
 885:..\..\..\..\..\..\Software\uCOS-II\Source/os_core.c ****     OS_CPU_SR  cpu_sr = 0u;
 769              		.loc 1 885 0
 770 0006 0023     		movs	r3, #0
 771 0008 7B60     		str	r3, [r7, #4]
 886:..\..\..\..\..\..\Software\uCOS-II\Source/os_core.c **** #endif
 887:..\..\..\..\..\..\Software\uCOS-II\Source/os_core.c **** 
 888:..\..\..\..\..\..\Software\uCOS-II\Source/os_core.c **** 
 889:..\..\..\..\..\..\Software\uCOS-II\Source/os_core.c **** 
 890:..\..\..\..\..\..\Software\uCOS-II\Source/os_core.c ****     OSTimeDly(2u);                               /* Synchronize with clock tick                    
 772              		.loc 1 890 0
 773 000a 0220     		movs	r0, #2
 774 000c FFF7FEFF 		bl	OSTimeDly
 891:..\..\..\..\..\..\Software\uCOS-II\Source/os_core.c ****     OS_ENTER_CRITICAL();
 775              		.loc 1 891 0
 776 0010 FFF7FEFF 		bl	OS_CPU_SR_Save
 777 0014 0300     		movs	r3, r0
 778 0016 7B60     		str	r3, [r7, #4]
 892:..\..\..\..\..\..\Software\uCOS-II\Source/os_core.c ****     OSIdleCtr    = 0uL;                          /* Clear idle counter                             
 779              		.loc 1 892 0
 780 0018 0E4B     		ldr	r3, .L36
 781 001a 0022     		movs	r2, #0
 782 001c 1A60     		str	r2, [r3]
 893:..\..\..\..\..\..\Software\uCOS-II\Source/os_core.c ****     OS_EXIT_CRITICAL();
 783              		.loc 1 893 0
 784 001e 7B68     		ldr	r3, [r7, #4]
 785 0020 1800     		movs	r0, r3
 786 0022 FFF7FEFF 		bl	OS_CPU_SR_Restore
 894:..\..\..\..\..\..\Software\uCOS-II\Source/os_core.c ****     OSTimeDly(OS_TICKS_PER_SEC / 10u);           /* Determine MAX. idle counter value for 1/10 seco
 787              		.loc 1 894 0
 788 0026 6420     		movs	r0, #100
 789 0028 FFF7FEFF 		bl	OSTimeDly
 895:..\..\..\..\..\..\Software\uCOS-II\Source/os_core.c ****     OS_ENTER_CRITICAL();
 790              		.loc 1 895 0
 791 002c FFF7FEFF 		bl	OS_CPU_SR_Save
 792 0030 0300     		movs	r3, r0
 793 0032 7B60     		str	r3, [r7, #4]
 896:..\..\..\..\..\..\Software\uCOS-II\Source/os_core.c ****     OSIdleCtrMax = OSIdleCtr;                    /* Store maximum idle counter count in 1/10 second
 794              		.loc 1 896 0
 795 0034 074B     		ldr	r3, .L36
 796 0036 1A68     		ldr	r2, [r3]
 797 0038 074B     		ldr	r3, .L36+4
 798 003a 1A60     		str	r2, [r3]
 897:..\..\..\..\..\..\Software\uCOS-II\Source/os_core.c ****     OSStatRdy    = OS_TRUE;
 799              		.loc 1 897 0
 800 003c 074B     		ldr	r3, .L36+8
 801 003e 0122     		movs	r2, #1
 802 0040 1A70     		strb	r2, [r3]
 898:..\..\..\..\..\..\Software\uCOS-II\Source/os_core.c ****     OS_EXIT_CRITICAL();
 803              		.loc 1 898 0
 804 0042 7B68     		ldr	r3, [r7, #4]
 805 0044 1800     		movs	r0, r3
 806 0046 FFF7FEFF 		bl	OS_CPU_SR_Restore
 899:..\..\..\..\..\..\Software\uCOS-II\Source/os_core.c **** }
 807              		.loc 1 899 0
 808 004a C046     		nop
ARM GAS  C:\Users\EDULU~1.DES\AppData\Local\Temp\ccKclfbr.s 			page 31


 809 004c BD46     		mov	sp, r7
 810 004e 02B0     		add	sp, sp, #8
 811              		@ sp needed
 812 0050 80BD     		pop	{r7, pc}
 813              	.L37:
 814 0052 C046     		.align	2
 815              	.L36:
 816 0054 00000000 		.word	OSIdleCtr
 817 0058 00000000 		.word	OSIdleCtrMax
 818 005c 00000000 		.word	OSStatRdy
 819              		.cfi_endproc
 820              	.LFE7:
 821              		.size	OSStatInit, .-OSStatInit
 822              		.section	.text.OSTimeTick,"ax",%progbits
 823              		.align	2
 824              		.global	OSTimeTick
 825              		.code	16
 826              		.thumb_func
 827              		.type	OSTimeTick, %function
 828              	OSTimeTick:
 829              	.LFB8:
 900:..\..\..\..\..\..\Software\uCOS-II\Source/os_core.c **** #endif
 901:..\..\..\..\..\..\Software\uCOS-II\Source/os_core.c **** /*$PAGE*/
 902:..\..\..\..\..\..\Software\uCOS-II\Source/os_core.c **** /*
 903:..\..\..\..\..\..\Software\uCOS-II\Source/os_core.c **** ***************************************************************************************************
 904:..\..\..\..\..\..\Software\uCOS-II\Source/os_core.c **** *                                         PROCESS SYSTEM TICK
 905:..\..\..\..\..\..\Software\uCOS-II\Source/os_core.c **** *
 906:..\..\..\..\..\..\Software\uCOS-II\Source/os_core.c **** * Description: This function is used to signal to uC/OS-II the occurrence of a 'system tick' (also 
 907:..\..\..\..\..\..\Software\uCOS-II\Source/os_core.c **** *              as a 'clock tick').  This function should be called by the ticker ISR but, can also 
 908:..\..\..\..\..\..\Software\uCOS-II\Source/os_core.c **** *              called by a high priority task.
 909:..\..\..\..\..\..\Software\uCOS-II\Source/os_core.c **** *
 910:..\..\..\..\..\..\Software\uCOS-II\Source/os_core.c **** * Arguments  : none
 911:..\..\..\..\..\..\Software\uCOS-II\Source/os_core.c **** *
 912:..\..\..\..\..\..\Software\uCOS-II\Source/os_core.c **** * Returns    : none
 913:..\..\..\..\..\..\Software\uCOS-II\Source/os_core.c **** ***************************************************************************************************
 914:..\..\..\..\..\..\Software\uCOS-II\Source/os_core.c **** */
 915:..\..\..\..\..\..\Software\uCOS-II\Source/os_core.c **** 
 916:..\..\..\..\..\..\Software\uCOS-II\Source/os_core.c **** void  OSTimeTick (void)
 917:..\..\..\..\..\..\Software\uCOS-II\Source/os_core.c **** {
 830              		.loc 1 917 0
 831              		.cfi_startproc
 832              		@ args = 0, pretend = 0, frame = 16
 833              		@ frame_needed = 1, uses_anonymous_args = 0
 834 0000 80B5     		push	{r7, lr}
 835              		.cfi_def_cfa_offset 8
 836              		.cfi_offset 7, -8
 837              		.cfi_offset 14, -4
 838 0002 84B0     		sub	sp, sp, #16
 839              		.cfi_def_cfa_offset 24
 840 0004 00AF     		add	r7, sp, #0
 841              		.cfi_def_cfa_register 7
 918:..\..\..\..\..\..\Software\uCOS-II\Source/os_core.c ****     OS_TCB    *ptcb;
 919:..\..\..\..\..\..\Software\uCOS-II\Source/os_core.c **** #if OS_TICK_STEP_EN > 0u
 920:..\..\..\..\..\..\Software\uCOS-II\Source/os_core.c ****     BOOLEAN    step;
 921:..\..\..\..\..\..\Software\uCOS-II\Source/os_core.c **** #endif
 922:..\..\..\..\..\..\Software\uCOS-II\Source/os_core.c **** #if OS_CRITICAL_METHOD == 3u                               /* Allocate storage for CPU status regis
 923:..\..\..\..\..\..\Software\uCOS-II\Source/os_core.c ****     OS_CPU_SR  cpu_sr = 0u;
ARM GAS  C:\Users\EDULU~1.DES\AppData\Local\Temp\ccKclfbr.s 			page 32


 842              		.loc 1 923 0
 843 0006 0023     		movs	r3, #0
 844 0008 7B60     		str	r3, [r7, #4]
 924:..\..\..\..\..\..\Software\uCOS-II\Source/os_core.c **** #endif
 925:..\..\..\..\..\..\Software\uCOS-II\Source/os_core.c **** 
 926:..\..\..\..\..\..\Software\uCOS-II\Source/os_core.c **** 
 927:..\..\..\..\..\..\Software\uCOS-II\Source/os_core.c **** 
 928:..\..\..\..\..\..\Software\uCOS-II\Source/os_core.c **** #if OS_TIME_TICK_HOOK_EN > 0u
 929:..\..\..\..\..\..\Software\uCOS-II\Source/os_core.c ****     OSTimeTickHook();                                      /* Call user definable hook             
 845              		.loc 1 929 0
 846 000a FFF7FEFF 		bl	OSTimeTickHook
 930:..\..\..\..\..\..\Software\uCOS-II\Source/os_core.c **** #endif
 931:..\..\..\..\..\..\Software\uCOS-II\Source/os_core.c **** #if OS_TIME_GET_SET_EN > 0u
 932:..\..\..\..\..\..\Software\uCOS-II\Source/os_core.c ****     OS_ENTER_CRITICAL();                                   /* Update the 32-bit tick counter       
 847              		.loc 1 932 0
 848 000e FFF7FEFF 		bl	OS_CPU_SR_Save
 849 0012 0300     		movs	r3, r0
 850 0014 7B60     		str	r3, [r7, #4]
 933:..\..\..\..\..\..\Software\uCOS-II\Source/os_core.c ****     OSTime++;
 851              		.loc 1 933 0
 852 0016 4A4B     		ldr	r3, .L53
 853 0018 1B68     		ldr	r3, [r3]
 854 001a 5A1C     		adds	r2, r3, #1
 855 001c 484B     		ldr	r3, .L53
 856 001e 1A60     		str	r2, [r3]
 934:..\..\..\..\..\..\Software\uCOS-II\Source/os_core.c ****     OS_EXIT_CRITICAL();
 857              		.loc 1 934 0
 858 0020 7B68     		ldr	r3, [r7, #4]
 859 0022 1800     		movs	r0, r3
 860 0024 FFF7FEFF 		bl	OS_CPU_SR_Restore
 935:..\..\..\..\..\..\Software\uCOS-II\Source/os_core.c **** #endif
 936:..\..\..\..\..\..\Software\uCOS-II\Source/os_core.c ****     if (OSRunning == OS_TRUE) {
 861              		.loc 1 936 0
 862 0028 464B     		ldr	r3, .L53+4
 863 002a 1B78     		ldrb	r3, [r3]
 864 002c 012B     		cmp	r3, #1
 865 002e 00D0     		beq	.LCB445
 866 0030 83E0     		b	.L38	@long jump
 867              	.LCB445:
 937:..\..\..\..\..\..\Software\uCOS-II\Source/os_core.c **** #if OS_TICK_STEP_EN > 0u
 938:..\..\..\..\..\..\Software\uCOS-II\Source/os_core.c ****         switch (OSTickStepState) {                         /* Determine whether we need to process 
 868              		.loc 1 938 0
 869 0032 454B     		ldr	r3, .L53+8
 870 0034 1B78     		ldrb	r3, [r3]
 871 0036 012B     		cmp	r3, #1
 872 0038 08D0     		beq	.L41
 873 003a 022B     		cmp	r3, #2
 874 003c 0BD0     		beq	.L42
 875 003e 002B     		cmp	r3, #0
 876 0040 11D1     		bne	.L51
 939:..\..\..\..\..\..\Software\uCOS-II\Source/os_core.c ****             case OS_TICK_STEP_DIS:                         /* Yes, stepping is disabled            
 940:..\..\..\..\..\..\Software\uCOS-II\Source/os_core.c ****                  step = OS_TRUE;
 877              		.loc 1 940 0
 878 0042 0B23     		movs	r3, #11
 879 0044 FB18     		adds	r3, r7, r3
 880 0046 0122     		movs	r2, #1
 881 0048 1A70     		strb	r2, [r3]
ARM GAS  C:\Users\EDULU~1.DES\AppData\Local\Temp\ccKclfbr.s 			page 33


 941:..\..\..\..\..\..\Software\uCOS-II\Source/os_core.c ****                  break;
 882              		.loc 1 941 0
 883 004a 14E0     		b	.L44
 884              	.L41:
 942:..\..\..\..\..\..\Software\uCOS-II\Source/os_core.c **** 
 943:..\..\..\..\..\..\Software\uCOS-II\Source/os_core.c ****             case OS_TICK_STEP_WAIT:                        /* No,  waiting for uC/OS-View to set ..
 944:..\..\..\..\..\..\Software\uCOS-II\Source/os_core.c ****                  step = OS_FALSE;                          /*      .. OSTickStepState to OS_TICK_ST
 885              		.loc 1 944 0
 886 004c 0B23     		movs	r3, #11
 887 004e FB18     		adds	r3, r7, r3
 888 0050 0022     		movs	r2, #0
 889 0052 1A70     		strb	r2, [r3]
 945:..\..\..\..\..\..\Software\uCOS-II\Source/os_core.c ****                  break;
 890              		.loc 1 945 0
 891 0054 0FE0     		b	.L44
 892              	.L42:
 946:..\..\..\..\..\..\Software\uCOS-II\Source/os_core.c **** 
 947:..\..\..\..\..\..\Software\uCOS-II\Source/os_core.c ****             case OS_TICK_STEP_ONCE:                        /* Yes, process tick once and wait for n
 948:..\..\..\..\..\..\Software\uCOS-II\Source/os_core.c ****                  step            = OS_TRUE;                /*      ... step command from uC/OS-View
 893              		.loc 1 948 0
 894 0056 0B23     		movs	r3, #11
 895 0058 FB18     		adds	r3, r7, r3
 896 005a 0122     		movs	r2, #1
 897 005c 1A70     		strb	r2, [r3]
 949:..\..\..\..\..\..\Software\uCOS-II\Source/os_core.c ****                  OSTickStepState = OS_TICK_STEP_WAIT;
 898              		.loc 1 949 0
 899 005e 3A4B     		ldr	r3, .L53+8
 900 0060 0122     		movs	r2, #1
 901 0062 1A70     		strb	r2, [r3]
 950:..\..\..\..\..\..\Software\uCOS-II\Source/os_core.c ****                  break;
 902              		.loc 1 950 0
 903 0064 07E0     		b	.L44
 904              	.L51:
 951:..\..\..\..\..\..\Software\uCOS-II\Source/os_core.c **** 
 952:..\..\..\..\..\..\Software\uCOS-II\Source/os_core.c ****             default:                                       /* Invalid case, correct situation      
 953:..\..\..\..\..\..\Software\uCOS-II\Source/os_core.c ****                  step            = OS_TRUE;
 905              		.loc 1 953 0
 906 0066 0B23     		movs	r3, #11
 907 0068 FB18     		adds	r3, r7, r3
 908 006a 0122     		movs	r2, #1
 909 006c 1A70     		strb	r2, [r3]
 954:..\..\..\..\..\..\Software\uCOS-II\Source/os_core.c ****                  OSTickStepState = OS_TICK_STEP_DIS;
 910              		.loc 1 954 0
 911 006e 364B     		ldr	r3, .L53+8
 912 0070 0022     		movs	r2, #0
 913 0072 1A70     		strb	r2, [r3]
 955:..\..\..\..\..\..\Software\uCOS-II\Source/os_core.c ****                  break;
 914              		.loc 1 955 0
 915 0074 C046     		nop
 916              	.L44:
 956:..\..\..\..\..\..\Software\uCOS-II\Source/os_core.c ****         }
 957:..\..\..\..\..\..\Software\uCOS-II\Source/os_core.c ****         if (step == OS_FALSE) {                            /* Return if waiting for step command   
 917              		.loc 1 957 0
 918 0076 0B23     		movs	r3, #11
 919 0078 FB18     		adds	r3, r7, r3
 920 007a 1B78     		ldrb	r3, [r3]
 921 007c 002B     		cmp	r3, #0
ARM GAS  C:\Users\EDULU~1.DES\AppData\Local\Temp\ccKclfbr.s 			page 34


 922 007e 5BD0     		beq	.L52
 958:..\..\..\..\..\..\Software\uCOS-II\Source/os_core.c ****             return;
 959:..\..\..\..\..\..\Software\uCOS-II\Source/os_core.c ****         }
 960:..\..\..\..\..\..\Software\uCOS-II\Source/os_core.c **** #endif
 961:..\..\..\..\..\..\Software\uCOS-II\Source/os_core.c ****         ptcb = OSTCBList;                                  /* Point at first TCB in TCB list       
 923              		.loc 1 961 0
 924 0080 324B     		ldr	r3, .L53+12
 925 0082 1B68     		ldr	r3, [r3]
 926 0084 FB60     		str	r3, [r7, #12]
 962:..\..\..\..\..\..\Software\uCOS-II\Source/os_core.c ****         while (ptcb->OSTCBPrio != OS_TASK_IDLE_PRIO) {     /* Go through all TCBs in TCB list      
 927              		.loc 1 962 0
 928 0086 51E0     		b	.L46
 929              	.L50:
 963:..\..\..\..\..\..\Software\uCOS-II\Source/os_core.c ****             OS_ENTER_CRITICAL();
 930              		.loc 1 963 0
 931 0088 FFF7FEFF 		bl	OS_CPU_SR_Save
 932 008c 0300     		movs	r3, r0
 933 008e 7B60     		str	r3, [r7, #4]
 964:..\..\..\..\..\..\Software\uCOS-II\Source/os_core.c ****             if (ptcb->OSTCBDly != 0u) {                    /* No, Delayed or waiting for event with
 934              		.loc 1 964 0
 935 0090 FB68     		ldr	r3, [r7, #12]
 936 0092 1B6A     		ldr	r3, [r3, #32]
 937 0094 002B     		cmp	r3, #0
 938 0096 42D0     		beq	.L47
 965:..\..\..\..\..\..\Software\uCOS-II\Source/os_core.c ****                 ptcb->OSTCBDly--;                          /* Decrement nbr of ticks to end of dela
 939              		.loc 1 965 0
 940 0098 FB68     		ldr	r3, [r7, #12]
 941 009a 1B6A     		ldr	r3, [r3, #32]
 942 009c 5A1E     		subs	r2, r3, #1
 943 009e FB68     		ldr	r3, [r7, #12]
 944 00a0 1A62     		str	r2, [r3, #32]
 966:..\..\..\..\..\..\Software\uCOS-II\Source/os_core.c ****                 if (ptcb->OSTCBDly == 0u) {                /* Check for timeout                    
 945              		.loc 1 966 0
 946 00a2 FB68     		ldr	r3, [r7, #12]
 947 00a4 1B6A     		ldr	r3, [r3, #32]
 948 00a6 002B     		cmp	r3, #0
 949 00a8 39D1     		bne	.L47
 967:..\..\..\..\..\..\Software\uCOS-II\Source/os_core.c **** 
 968:..\..\..\..\..\..\Software\uCOS-II\Source/os_core.c ****                     if ((ptcb->OSTCBStat & OS_STAT_PEND_ANY) != OS_STAT_RDY) {
 950              		.loc 1 968 0
 951 00aa FB68     		ldr	r3, [r7, #12]
 952 00ac 2422     		movs	r2, #36
 953 00ae 9B5C     		ldrb	r3, [r3, r2]
 954 00b0 1A00     		movs	r2, r3
 955 00b2 3723     		movs	r3, #55
 956 00b4 1340     		ands	r3, r2
 957 00b6 0DD0     		beq	.L48
 969:..\..\..\..\..\..\Software\uCOS-II\Source/os_core.c ****                         ptcb->OSTCBStat  &= (INT8U)~(INT8U)OS_STAT_PEND_ANY;          /* Yes, Clear
 958              		.loc 1 969 0
 959 00b8 FB68     		ldr	r3, [r7, #12]
 960 00ba 2422     		movs	r2, #36
 961 00bc 9B5C     		ldrb	r3, [r3, r2]
 962 00be 3722     		movs	r2, #55
 963 00c0 9343     		bics	r3, r2
 964 00c2 D9B2     		uxtb	r1, r3
 965 00c4 FB68     		ldr	r3, [r7, #12]
 966 00c6 2422     		movs	r2, #36
ARM GAS  C:\Users\EDULU~1.DES\AppData\Local\Temp\ccKclfbr.s 			page 35


 967 00c8 9954     		strb	r1, [r3, r2]
 970:..\..\..\..\..\..\Software\uCOS-II\Source/os_core.c ****                         ptcb->OSTCBStatPend = OS_STAT_PEND_TO;                 /* Indicate PEND tim
 968              		.loc 1 970 0
 969 00ca FB68     		ldr	r3, [r7, #12]
 970 00cc 2522     		movs	r2, #37
 971 00ce 0121     		movs	r1, #1
 972 00d0 9954     		strb	r1, [r3, r2]
 973 00d2 03E0     		b	.L49
 974              	.L48:
 971:..\..\..\..\..\..\Software\uCOS-II\Source/os_core.c ****                     } else {
 972:..\..\..\..\..\..\Software\uCOS-II\Source/os_core.c ****                         ptcb->OSTCBStatPend = OS_STAT_PEND_OK;
 975              		.loc 1 972 0
 976 00d4 FB68     		ldr	r3, [r7, #12]
 977 00d6 2522     		movs	r2, #37
 978 00d8 0021     		movs	r1, #0
 979 00da 9954     		strb	r1, [r3, r2]
 980              	.L49:
 973:..\..\..\..\..\..\Software\uCOS-II\Source/os_core.c ****                     }
 974:..\..\..\..\..\..\Software\uCOS-II\Source/os_core.c **** 
 975:..\..\..\..\..\..\Software\uCOS-II\Source/os_core.c ****                     if ((ptcb->OSTCBStat & OS_STAT_SUSPEND) == OS_STAT_RDY) {  /* Is task suspended
 981              		.loc 1 975 0
 982 00dc FB68     		ldr	r3, [r7, #12]
 983 00de 2422     		movs	r2, #36
 984 00e0 9B5C     		ldrb	r3, [r3, r2]
 985 00e2 1A00     		movs	r2, r3
 986 00e4 0823     		movs	r3, #8
 987 00e6 1340     		ands	r3, r2
 988 00e8 19D1     		bne	.L47
 976:..\..\..\..\..\..\Software\uCOS-II\Source/os_core.c ****                         OSRdyGrp               |= ptcb->OSTCBBitY;             /* No,  Make ready  
 989              		.loc 1 976 0
 990 00ea FB68     		ldr	r3, [r7, #12]
 991 00ec 2A22     		movs	r2, #42
 992 00ee 9A5C     		ldrb	r2, [r3, r2]
 993 00f0 174B     		ldr	r3, .L53+16
 994 00f2 1B78     		ldrb	r3, [r3]
 995 00f4 1343     		orrs	r3, r2
 996 00f6 DAB2     		uxtb	r2, r3
 997 00f8 154B     		ldr	r3, .L53+16
 998 00fa 1A70     		strb	r2, [r3]
 977:..\..\..\..\..\..\Software\uCOS-II\Source/os_core.c ****                         OSRdyTbl[ptcb->OSTCBY] |= ptcb->OSTCBBitX;
 999              		.loc 1 977 0
 1000 00fc FB68     		ldr	r3, [r7, #12]
 1001 00fe 2822     		movs	r2, #40
 1002 0100 9B5C     		ldrb	r3, [r3, r2]
 1003 0102 1800     		movs	r0, r3
 1004 0104 FB68     		ldr	r3, [r7, #12]
 1005 0106 2822     		movs	r2, #40
 1006 0108 9B5C     		ldrb	r3, [r3, r2]
 1007 010a 1A00     		movs	r2, r3
 1008 010c 114B     		ldr	r3, .L53+20
 1009 010e 9A5C     		ldrb	r2, [r3, r2]
 1010 0110 FB68     		ldr	r3, [r7, #12]
 1011 0112 2921     		movs	r1, #41
 1012 0114 5B5C     		ldrb	r3, [r3, r1]
 1013 0116 1343     		orrs	r3, r2
 1014 0118 DAB2     		uxtb	r2, r3
 1015 011a 0E4B     		ldr	r3, .L53+20
ARM GAS  C:\Users\EDULU~1.DES\AppData\Local\Temp\ccKclfbr.s 			page 36


 1016 011c 1A54     		strb	r2, [r3, r0]
 1017              	.L47:
 978:..\..\..\..\..\..\Software\uCOS-II\Source/os_core.c ****                     }
 979:..\..\..\..\..\..\Software\uCOS-II\Source/os_core.c ****                 }
 980:..\..\..\..\..\..\Software\uCOS-II\Source/os_core.c ****             }
 981:..\..\..\..\..\..\Software\uCOS-II\Source/os_core.c ****             ptcb = ptcb->OSTCBNext;                        /* Point at next TCB in TCB list        
 1018              		.loc 1 981 0
 1019 011e FB68     		ldr	r3, [r7, #12]
 1020 0120 5B69     		ldr	r3, [r3, #20]
 1021 0122 FB60     		str	r3, [r7, #12]
 982:..\..\..\..\..\..\Software\uCOS-II\Source/os_core.c ****             OS_EXIT_CRITICAL();
 1022              		.loc 1 982 0
 1023 0124 7B68     		ldr	r3, [r7, #4]
 1024 0126 1800     		movs	r0, r3
 1025 0128 FFF7FEFF 		bl	OS_CPU_SR_Restore
 1026              	.L46:
 962:..\..\..\..\..\..\Software\uCOS-II\Source/os_core.c ****             OS_ENTER_CRITICAL();
 1027              		.loc 1 962 0
 1028 012c FB68     		ldr	r3, [r7, #12]
 1029 012e 2622     		movs	r2, #38
 1030 0130 9B5C     		ldrb	r3, [r3, r2]
 1031 0132 1F2B     		cmp	r3, #31
 1032 0134 A8D1     		bne	.L50
 1033 0136 00E0     		b	.L38
 1034              	.L52:
 958:..\..\..\..\..\..\Software\uCOS-II\Source/os_core.c ****         }
 1035              		.loc 1 958 0
 1036 0138 C046     		nop
 1037              	.L38:
 983:..\..\..\..\..\..\Software\uCOS-II\Source/os_core.c ****         }
 984:..\..\..\..\..\..\Software\uCOS-II\Source/os_core.c ****     }
 985:..\..\..\..\..\..\Software\uCOS-II\Source/os_core.c **** }
 1038              		.loc 1 985 0
 1039 013a BD46     		mov	sp, r7
 1040 013c 04B0     		add	sp, sp, #16
 1041              		@ sp needed
 1042 013e 80BD     		pop	{r7, pc}
 1043              	.L54:
 1044              		.align	2
 1045              	.L53:
 1046 0140 00000000 		.word	OSTime
 1047 0144 00000000 		.word	OSRunning
 1048 0148 00000000 		.word	OSTickStepState
 1049 014c 00000000 		.word	OSTCBList
 1050 0150 00000000 		.word	OSRdyGrp
 1051 0154 00000000 		.word	OSRdyTbl
 1052              		.cfi_endproc
 1053              	.LFE8:
 1054              		.size	OSTimeTick, .-OSTimeTick
 1055              		.section	.text.OSVersion,"ax",%progbits
 1056              		.align	2
 1057              		.global	OSVersion
 1058              		.code	16
 1059              		.thumb_func
 1060              		.type	OSVersion, %function
 1061              	OSVersion:
 1062              	.LFB9:
ARM GAS  C:\Users\EDULU~1.DES\AppData\Local\Temp\ccKclfbr.s 			page 37


 986:..\..\..\..\..\..\Software\uCOS-II\Source/os_core.c **** 
 987:..\..\..\..\..\..\Software\uCOS-II\Source/os_core.c **** /*$PAGE*/
 988:..\..\..\..\..\..\Software\uCOS-II\Source/os_core.c **** /*
 989:..\..\..\..\..\..\Software\uCOS-II\Source/os_core.c **** ***************************************************************************************************
 990:..\..\..\..\..\..\Software\uCOS-II\Source/os_core.c **** *                                             GET VERSION
 991:..\..\..\..\..\..\Software\uCOS-II\Source/os_core.c **** *
 992:..\..\..\..\..\..\Software\uCOS-II\Source/os_core.c **** * Description: This function is used to return the version number of uC/OS-II.  The returned value 
 993:..\..\..\..\..\..\Software\uCOS-II\Source/os_core.c **** *              corresponds to uC/OS-II's version number multiplied by 10000.  In other words, versi
 994:..\..\..\..\..\..\Software\uCOS-II\Source/os_core.c **** *              2.01.00 would be returned as 20100.
 995:..\..\..\..\..\..\Software\uCOS-II\Source/os_core.c **** *
 996:..\..\..\..\..\..\Software\uCOS-II\Source/os_core.c **** * Arguments  : none
 997:..\..\..\..\..\..\Software\uCOS-II\Source/os_core.c **** *
 998:..\..\..\..\..\..\Software\uCOS-II\Source/os_core.c **** * Returns    : The version number of uC/OS-II multiplied by 10000.
 999:..\..\..\..\..\..\Software\uCOS-II\Source/os_core.c **** ***************************************************************************************************
1000:..\..\..\..\..\..\Software\uCOS-II\Source/os_core.c **** */
1001:..\..\..\..\..\..\Software\uCOS-II\Source/os_core.c **** 
1002:..\..\..\..\..\..\Software\uCOS-II\Source/os_core.c **** INT16U  OSVersion (void)
1003:..\..\..\..\..\..\Software\uCOS-II\Source/os_core.c **** {
 1063              		.loc 1 1003 0
 1064              		.cfi_startproc
 1065              		@ args = 0, pretend = 0, frame = 0
 1066              		@ frame_needed = 1, uses_anonymous_args = 0
 1067 0000 80B5     		push	{r7, lr}
 1068              		.cfi_def_cfa_offset 8
 1069              		.cfi_offset 7, -8
 1070              		.cfi_offset 14, -4
 1071 0002 00AF     		add	r7, sp, #0
 1072              		.cfi_def_cfa_register 7
1004:..\..\..\..\..\..\Software\uCOS-II\Source/os_core.c ****     return (OS_VERSION);
 1073              		.loc 1 1004 0
 1074 0004 014B     		ldr	r3, .L57
1005:..\..\..\..\..\..\Software\uCOS-II\Source/os_core.c **** }
 1075              		.loc 1 1005 0
 1076 0006 1800     		movs	r0, r3
 1077 0008 BD46     		mov	sp, r7
 1078              		@ sp needed
 1079 000a 80BD     		pop	{r7, pc}
 1080              	.L58:
 1081              		.align	2
 1082              	.L57:
 1083 000c 1B720000 		.word	29211
 1084              		.cfi_endproc
 1085              	.LFE9:
 1086              		.size	OSVersion, .-OSVersion
 1087              		.section	.text.OS_EventTaskRdy,"ax",%progbits
 1088              		.align	2
 1089              		.global	OS_EventTaskRdy
 1090              		.code	16
 1091              		.thumb_func
 1092              		.type	OS_EventTaskRdy, %function
 1093              	OS_EventTaskRdy:
 1094              	.LFB10:
1006:..\..\..\..\..\..\Software\uCOS-II\Source/os_core.c **** 
1007:..\..\..\..\..\..\Software\uCOS-II\Source/os_core.c **** /*$PAGE*/
1008:..\..\..\..\..\..\Software\uCOS-II\Source/os_core.c **** /*
1009:..\..\..\..\..\..\Software\uCOS-II\Source/os_core.c **** ***************************************************************************************************
1010:..\..\..\..\..\..\Software\uCOS-II\Source/os_core.c **** *                                           DUMMY FUNCTION
ARM GAS  C:\Users\EDULU~1.DES\AppData\Local\Temp\ccKclfbr.s 			page 38


1011:..\..\..\..\..\..\Software\uCOS-II\Source/os_core.c **** *
1012:..\..\..\..\..\..\Software\uCOS-II\Source/os_core.c **** * Description: This function doesn't do anything.  It is called by OSTaskDel().
1013:..\..\..\..\..\..\Software\uCOS-II\Source/os_core.c **** *
1014:..\..\..\..\..\..\Software\uCOS-II\Source/os_core.c **** * Arguments  : none
1015:..\..\..\..\..\..\Software\uCOS-II\Source/os_core.c **** *
1016:..\..\..\..\..\..\Software\uCOS-II\Source/os_core.c **** * Returns    : none
1017:..\..\..\..\..\..\Software\uCOS-II\Source/os_core.c **** ***************************************************************************************************
1018:..\..\..\..\..\..\Software\uCOS-II\Source/os_core.c **** */
1019:..\..\..\..\..\..\Software\uCOS-II\Source/os_core.c **** 
1020:..\..\..\..\..\..\Software\uCOS-II\Source/os_core.c **** #if OS_TASK_DEL_EN > 0u
1021:..\..\..\..\..\..\Software\uCOS-II\Source/os_core.c **** void  OS_Dummy (void)
1022:..\..\..\..\..\..\Software\uCOS-II\Source/os_core.c **** {
1023:..\..\..\..\..\..\Software\uCOS-II\Source/os_core.c **** }
1024:..\..\..\..\..\..\Software\uCOS-II\Source/os_core.c **** #endif
1025:..\..\..\..\..\..\Software\uCOS-II\Source/os_core.c **** 
1026:..\..\..\..\..\..\Software\uCOS-II\Source/os_core.c **** /*$PAGE*/
1027:..\..\..\..\..\..\Software\uCOS-II\Source/os_core.c **** /*
1028:..\..\..\..\..\..\Software\uCOS-II\Source/os_core.c **** ***************************************************************************************************
1029:..\..\..\..\..\..\Software\uCOS-II\Source/os_core.c **** *                           MAKE TASK READY TO RUN BASED ON EVENT OCCURING
1030:..\..\..\..\..\..\Software\uCOS-II\Source/os_core.c **** *
1031:..\..\..\..\..\..\Software\uCOS-II\Source/os_core.c **** * Description: This function is called by other uC/OS-II services and is used to ready a task that 
1032:..\..\..\..\..\..\Software\uCOS-II\Source/os_core.c **** *              waiting for an event to occur.
1033:..\..\..\..\..\..\Software\uCOS-II\Source/os_core.c **** *
1034:..\..\..\..\..\..\Software\uCOS-II\Source/os_core.c **** * Arguments  : pevent      is a pointer to the event control block corresponding to the event.
1035:..\..\..\..\..\..\Software\uCOS-II\Source/os_core.c **** *
1036:..\..\..\..\..\..\Software\uCOS-II\Source/os_core.c **** *              pmsg        is a pointer to a message.  This pointer is used by message oriented ser
1037:..\..\..\..\..\..\Software\uCOS-II\Source/os_core.c **** *                          such as MAILBOXEs and QUEUEs.  The pointer is not used when called by ot
1038:..\..\..\..\..\..\Software\uCOS-II\Source/os_core.c **** *                          service functions.
1039:..\..\..\..\..\..\Software\uCOS-II\Source/os_core.c **** *
1040:..\..\..\..\..\..\Software\uCOS-II\Source/os_core.c **** *              msk         is a mask that is used to clear the status byte of the TCB.  For example
1041:..\..\..\..\..\..\Software\uCOS-II\Source/os_core.c **** *                          OSSemPost() will pass OS_STAT_SEM, OSMboxPost() will pass OS_STAT_MBOX e
1042:..\..\..\..\..\..\Software\uCOS-II\Source/os_core.c **** *
1043:..\..\..\..\..\..\Software\uCOS-II\Source/os_core.c **** *              pend_stat   is used to indicate the readied task's pending status:
1044:..\..\..\..\..\..\Software\uCOS-II\Source/os_core.c **** *
1045:..\..\..\..\..\..\Software\uCOS-II\Source/os_core.c **** *                          OS_STAT_PEND_OK      Task ready due to a post (or delete), not a timeout
1046:..\..\..\..\..\..\Software\uCOS-II\Source/os_core.c **** *                                               an abort.
1047:..\..\..\..\..\..\Software\uCOS-II\Source/os_core.c **** *                          OS_STAT_PEND_ABORT   Task ready due to an abort.
1048:..\..\..\..\..\..\Software\uCOS-II\Source/os_core.c **** *
1049:..\..\..\..\..\..\Software\uCOS-II\Source/os_core.c **** * Returns    : none
1050:..\..\..\..\..\..\Software\uCOS-II\Source/os_core.c **** *
1051:..\..\..\..\..\..\Software\uCOS-II\Source/os_core.c **** * Note       : This function is INTERNAL to uC/OS-II and your application should not call it.
1052:..\..\..\..\..\..\Software\uCOS-II\Source/os_core.c **** ***************************************************************************************************
1053:..\..\..\..\..\..\Software\uCOS-II\Source/os_core.c **** */
1054:..\..\..\..\..\..\Software\uCOS-II\Source/os_core.c **** #if (OS_EVENT_EN)
1055:..\..\..\..\..\..\Software\uCOS-II\Source/os_core.c **** INT8U  OS_EventTaskRdy (OS_EVENT  *pevent,
1056:..\..\..\..\..\..\Software\uCOS-II\Source/os_core.c ****                         void      *pmsg,
1057:..\..\..\..\..\..\Software\uCOS-II\Source/os_core.c ****                         INT8U      msk,
1058:..\..\..\..\..\..\Software\uCOS-II\Source/os_core.c ****                         INT8U      pend_stat)
1059:..\..\..\..\..\..\Software\uCOS-II\Source/os_core.c **** {
 1095              		.loc 1 1059 0
 1096              		.cfi_startproc
 1097              		@ args = 0, pretend = 0, frame = 24
 1098              		@ frame_needed = 1, uses_anonymous_args = 0
 1099 0000 80B5     		push	{r7, lr}
 1100              		.cfi_def_cfa_offset 8
 1101              		.cfi_offset 7, -8
 1102              		.cfi_offset 14, -4
ARM GAS  C:\Users\EDULU~1.DES\AppData\Local\Temp\ccKclfbr.s 			page 39


 1103 0002 86B0     		sub	sp, sp, #24
 1104              		.cfi_def_cfa_offset 32
 1105 0004 00AF     		add	r7, sp, #0
 1106              		.cfi_def_cfa_register 7
 1107 0006 F860     		str	r0, [r7, #12]
 1108 0008 B960     		str	r1, [r7, #8]
 1109 000a 1900     		movs	r1, r3
 1110 000c FB1D     		adds	r3, r7, #7
 1111 000e 1A70     		strb	r2, [r3]
 1112 0010 BB1D     		adds	r3, r7, #6
 1113 0012 0A1C     		adds	r2, r1, #0
 1114 0014 1A70     		strb	r2, [r3]
1060:..\..\..\..\..\..\Software\uCOS-II\Source/os_core.c ****     OS_TCB   *ptcb;
1061:..\..\..\..\..\..\Software\uCOS-II\Source/os_core.c ****     INT8U     y;
1062:..\..\..\..\..\..\Software\uCOS-II\Source/os_core.c ****     INT8U     x;
1063:..\..\..\..\..\..\Software\uCOS-II\Source/os_core.c ****     INT8U     prio;
1064:..\..\..\..\..\..\Software\uCOS-II\Source/os_core.c **** #if OS_LOWEST_PRIO > 63u
1065:..\..\..\..\..\..\Software\uCOS-II\Source/os_core.c ****     OS_PRIO  *ptbl;
1066:..\..\..\..\..\..\Software\uCOS-II\Source/os_core.c **** #endif
1067:..\..\..\..\..\..\Software\uCOS-II\Source/os_core.c **** 
1068:..\..\..\..\..\..\Software\uCOS-II\Source/os_core.c **** 
1069:..\..\..\..\..\..\Software\uCOS-II\Source/os_core.c **** #if OS_LOWEST_PRIO <= 63u
1070:..\..\..\..\..\..\Software\uCOS-II\Source/os_core.c ****     y    = OSUnMapTbl[pevent->OSEventGrp];              /* Find HPT waiting for message            
 1115              		.loc 1 1070 0
 1116 0016 FB68     		ldr	r3, [r7, #12]
 1117 0018 9B7A     		ldrb	r3, [r3, #10]
 1118 001a 1900     		movs	r1, r3
 1119 001c 1723     		movs	r3, #23
 1120 001e FB18     		adds	r3, r7, r3
 1121 0020 304A     		ldr	r2, .L62
 1122 0022 525C     		ldrb	r2, [r2, r1]
 1123 0024 1A70     		strb	r2, [r3]
1071:..\..\..\..\..\..\Software\uCOS-II\Source/os_core.c ****     x    = OSUnMapTbl[pevent->OSEventTbl[y]];
 1124              		.loc 1 1071 0
 1125 0026 1723     		movs	r3, #23
 1126 0028 FB18     		adds	r3, r7, r3
 1127 002a 1B78     		ldrb	r3, [r3]
 1128 002c FA68     		ldr	r2, [r7, #12]
 1129 002e D318     		adds	r3, r2, r3
 1130 0030 DB7A     		ldrb	r3, [r3, #11]
 1131 0032 1900     		movs	r1, r3
 1132 0034 1623     		movs	r3, #22
 1133 0036 FB18     		adds	r3, r7, r3
 1134 0038 2A4A     		ldr	r2, .L62
 1135 003a 525C     		ldrb	r2, [r2, r1]
 1136 003c 1A70     		strb	r2, [r3]
1072:..\..\..\..\..\..\Software\uCOS-II\Source/os_core.c ****     prio = (INT8U)((y << 3u) + x);                      /* Find priority of task getting the msg   
 1137              		.loc 1 1072 0
 1138 003e 1723     		movs	r3, #23
 1139 0040 FB18     		adds	r3, r7, r3
 1140 0042 1B78     		ldrb	r3, [r3]
 1141 0044 DB00     		lsls	r3, r3, #3
 1142 0046 D9B2     		uxtb	r1, r3
 1143 0048 1523     		movs	r3, #21
 1144 004a FB18     		adds	r3, r7, r3
 1145 004c 1622     		movs	r2, #22
 1146 004e BA18     		adds	r2, r7, r2
ARM GAS  C:\Users\EDULU~1.DES\AppData\Local\Temp\ccKclfbr.s 			page 40


 1147 0050 1278     		ldrb	r2, [r2]
 1148 0052 8A18     		adds	r2, r1, r2
 1149 0054 1A70     		strb	r2, [r3]
1073:..\..\..\..\..\..\Software\uCOS-II\Source/os_core.c **** #else
1074:..\..\..\..\..\..\Software\uCOS-II\Source/os_core.c ****     if ((pevent->OSEventGrp & 0xFFu) != 0u) {           /* Find HPT waiting for message            
1075:..\..\..\..\..\..\Software\uCOS-II\Source/os_core.c ****         y = OSUnMapTbl[ pevent->OSEventGrp & 0xFFu];
1076:..\..\..\..\..\..\Software\uCOS-II\Source/os_core.c ****     } else {
1077:..\..\..\..\..\..\Software\uCOS-II\Source/os_core.c ****         y = OSUnMapTbl[(OS_PRIO)(pevent->OSEventGrp >> 8u) & 0xFFu] + 8u;
1078:..\..\..\..\..\..\Software\uCOS-II\Source/os_core.c ****     }
1079:..\..\..\..\..\..\Software\uCOS-II\Source/os_core.c ****     ptbl = &pevent->OSEventTbl[y];
1080:..\..\..\..\..\..\Software\uCOS-II\Source/os_core.c ****     if ((*ptbl & 0xFFu) != 0u) {
1081:..\..\..\..\..\..\Software\uCOS-II\Source/os_core.c ****         x = OSUnMapTbl[*ptbl & 0xFFu];
1082:..\..\..\..\..\..\Software\uCOS-II\Source/os_core.c ****     } else {
1083:..\..\..\..\..\..\Software\uCOS-II\Source/os_core.c ****         x = OSUnMapTbl[(OS_PRIO)(*ptbl >> 8u) & 0xFFu] + 8u;
1084:..\..\..\..\..\..\Software\uCOS-II\Source/os_core.c ****     }
1085:..\..\..\..\..\..\Software\uCOS-II\Source/os_core.c ****     prio = (INT8U)((y << 4u) + x);                      /* Find priority of task getting the msg   
1086:..\..\..\..\..\..\Software\uCOS-II\Source/os_core.c **** #endif
1087:..\..\..\..\..\..\Software\uCOS-II\Source/os_core.c **** 
1088:..\..\..\..\..\..\Software\uCOS-II\Source/os_core.c ****     ptcb                  =  OSTCBPrioTbl[prio];        /* Point to this task's OS_TCB             
 1150              		.loc 1 1088 0
 1151 0056 1523     		movs	r3, #21
 1152 0058 FB18     		adds	r3, r7, r3
 1153 005a 1A78     		ldrb	r2, [r3]
 1154 005c 224B     		ldr	r3, .L62+4
 1155 005e 9200     		lsls	r2, r2, #2
 1156 0060 D358     		ldr	r3, [r2, r3]
 1157 0062 3B61     		str	r3, [r7, #16]
1089:..\..\..\..\..\..\Software\uCOS-II\Source/os_core.c ****     ptcb->OSTCBDly        =  0u;                        /* Prevent OSTimeTick() from readying task 
 1158              		.loc 1 1089 0
 1159 0064 3B69     		ldr	r3, [r7, #16]
 1160 0066 0022     		movs	r2, #0
 1161 0068 1A62     		str	r2, [r3, #32]
1090:..\..\..\..\..\..\Software\uCOS-II\Source/os_core.c **** #if ((OS_Q_EN > 0u) && (OS_MAX_QS > 0u)) || (OS_MBOX_EN > 0u)
1091:..\..\..\..\..\..\Software\uCOS-II\Source/os_core.c ****     ptcb->OSTCBMsg        =  pmsg;                      /* Send message directly to waiting task   
1092:..\..\..\..\..\..\Software\uCOS-II\Source/os_core.c **** #else
1093:..\..\..\..\..\..\Software\uCOS-II\Source/os_core.c ****     pmsg                  =  pmsg;                      /* Prevent compiler warning if not used    
1094:..\..\..\..\..\..\Software\uCOS-II\Source/os_core.c **** #endif
1095:..\..\..\..\..\..\Software\uCOS-II\Source/os_core.c ****     ptcb->OSTCBStat      &= (INT8U)~msk;                /* Clear bit associated with event type    
 1162              		.loc 1 1095 0
 1163 006a 3B69     		ldr	r3, [r7, #16]
 1164 006c 2422     		movs	r2, #36
 1165 006e 9B5C     		ldrb	r3, [r3, r2]
 1166 0070 FA1D     		adds	r2, r7, #7
 1167 0072 1278     		ldrb	r2, [r2]
 1168 0074 D243     		mvns	r2, r2
 1169 0076 D2B2     		uxtb	r2, r2
 1170 0078 1340     		ands	r3, r2
 1171 007a D9B2     		uxtb	r1, r3
 1172 007c 3B69     		ldr	r3, [r7, #16]
 1173 007e 2422     		movs	r2, #36
 1174 0080 9954     		strb	r1, [r3, r2]
1096:..\..\..\..\..\..\Software\uCOS-II\Source/os_core.c ****     ptcb->OSTCBStatPend   =  pend_stat;                 /* Set pend status of post or abort        
 1175              		.loc 1 1096 0
 1176 0082 3B69     		ldr	r3, [r7, #16]
 1177 0084 BA1D     		adds	r2, r7, #6
 1178 0086 2521     		movs	r1, #37
 1179 0088 1278     		ldrb	r2, [r2]
ARM GAS  C:\Users\EDULU~1.DES\AppData\Local\Temp\ccKclfbr.s 			page 41


 1180 008a 5A54     		strb	r2, [r3, r1]
1097:..\..\..\..\..\..\Software\uCOS-II\Source/os_core.c ****                                                         /* See if task is ready (could be susp'd)  
1098:..\..\..\..\..\..\Software\uCOS-II\Source/os_core.c ****     if ((ptcb->OSTCBStat &   OS_STAT_SUSPEND) == OS_STAT_RDY) {
 1181              		.loc 1 1098 0
 1182 008c 3B69     		ldr	r3, [r7, #16]
 1183 008e 2422     		movs	r2, #36
 1184 0090 9B5C     		ldrb	r3, [r3, r2]
 1185 0092 1A00     		movs	r2, r3
 1186 0094 0823     		movs	r3, #8
 1187 0096 1340     		ands	r3, r2
 1188 0098 17D1     		bne	.L60
1099:..\..\..\..\..\..\Software\uCOS-II\Source/os_core.c ****         OSRdyGrp         |=  ptcb->OSTCBBitY;           /* Put task in the ready to run list       
 1189              		.loc 1 1099 0
 1190 009a 3B69     		ldr	r3, [r7, #16]
 1191 009c 2A22     		movs	r2, #42
 1192 009e 9A5C     		ldrb	r2, [r3, r2]
 1193 00a0 124B     		ldr	r3, .L62+8
 1194 00a2 1B78     		ldrb	r3, [r3]
 1195 00a4 1343     		orrs	r3, r2
 1196 00a6 DAB2     		uxtb	r2, r3
 1197 00a8 104B     		ldr	r3, .L62+8
 1198 00aa 1A70     		strb	r2, [r3]
1100:..\..\..\..\..\..\Software\uCOS-II\Source/os_core.c ****         OSRdyTbl[y]      |=  ptcb->OSTCBBitX;
 1199              		.loc 1 1100 0
 1200 00ac 1723     		movs	r3, #23
 1201 00ae FB18     		adds	r3, r7, r3
 1202 00b0 1B78     		ldrb	r3, [r3]
 1203 00b2 1722     		movs	r2, #23
 1204 00b4 BA18     		adds	r2, r7, r2
 1205 00b6 1278     		ldrb	r2, [r2]
 1206 00b8 0D49     		ldr	r1, .L62+12
 1207 00ba 895C     		ldrb	r1, [r1, r2]
 1208 00bc 3A69     		ldr	r2, [r7, #16]
 1209 00be 2920     		movs	r0, #41
 1210 00c0 125C     		ldrb	r2, [r2, r0]
 1211 00c2 0A43     		orrs	r2, r1
 1212 00c4 D1B2     		uxtb	r1, r2
 1213 00c6 0A4A     		ldr	r2, .L62+12
 1214 00c8 D154     		strb	r1, [r2, r3]
 1215              	.L60:
1101:..\..\..\..\..\..\Software\uCOS-II\Source/os_core.c ****     }
1102:..\..\..\..\..\..\Software\uCOS-II\Source/os_core.c **** 
1103:..\..\..\..\..\..\Software\uCOS-II\Source/os_core.c ****     OS_EventTaskRemove(ptcb, pevent);                   /* Remove this task from event   wait list 
 1216              		.loc 1 1103 0
 1217 00ca FA68     		ldr	r2, [r7, #12]
 1218 00cc 3B69     		ldr	r3, [r7, #16]
 1219 00ce 1100     		movs	r1, r2
 1220 00d0 1800     		movs	r0, r3
 1221 00d2 FFF7FEFF 		bl	OS_EventTaskRemove
1104:..\..\..\..\..\..\Software\uCOS-II\Source/os_core.c **** #if (OS_EVENT_MULTI_EN > 0u)
1105:..\..\..\..\..\..\Software\uCOS-II\Source/os_core.c ****     if (ptcb->OSTCBEventMultiPtr != (OS_EVENT **)0) {   /* Remove this task from events' wait lists
1106:..\..\..\..\..\..\Software\uCOS-II\Source/os_core.c ****         OS_EventTaskRemoveMulti(ptcb, ptcb->OSTCBEventMultiPtr);
1107:..\..\..\..\..\..\Software\uCOS-II\Source/os_core.c ****         ptcb->OSTCBEventPtr       = (OS_EVENT  *)pevent;/* Return event as first multi-pend event r
1108:..\..\..\..\..\..\Software\uCOS-II\Source/os_core.c ****     }
1109:..\..\..\..\..\..\Software\uCOS-II\Source/os_core.c **** #endif
1110:..\..\..\..\..\..\Software\uCOS-II\Source/os_core.c **** 
1111:..\..\..\..\..\..\Software\uCOS-II\Source/os_core.c ****     return (prio);
ARM GAS  C:\Users\EDULU~1.DES\AppData\Local\Temp\ccKclfbr.s 			page 42


 1222              		.loc 1 1111 0
 1223 00d6 1523     		movs	r3, #21
 1224 00d8 FB18     		adds	r3, r7, r3
 1225 00da 1B78     		ldrb	r3, [r3]
1112:..\..\..\..\..\..\Software\uCOS-II\Source/os_core.c **** }
 1226              		.loc 1 1112 0
 1227 00dc 1800     		movs	r0, r3
 1228 00de BD46     		mov	sp, r7
 1229 00e0 06B0     		add	sp, sp, #24
 1230              		@ sp needed
 1231 00e2 80BD     		pop	{r7, pc}
 1232              	.L63:
 1233              		.align	2
 1234              	.L62:
 1235 00e4 00000000 		.word	OSUnMapTbl
 1236 00e8 00000000 		.word	OSTCBPrioTbl
 1237 00ec 00000000 		.word	OSRdyGrp
 1238 00f0 00000000 		.word	OSRdyTbl
 1239              		.cfi_endproc
 1240              	.LFE10:
 1241              		.size	OS_EventTaskRdy, .-OS_EventTaskRdy
 1242              		.section	.text.OS_EventTaskWait,"ax",%progbits
 1243              		.align	2
 1244              		.global	OS_EventTaskWait
 1245              		.code	16
 1246              		.thumb_func
 1247              		.type	OS_EventTaskWait, %function
 1248              	OS_EventTaskWait:
 1249              	.LFB11:
1113:..\..\..\..\..\..\Software\uCOS-II\Source/os_core.c **** #endif
1114:..\..\..\..\..\..\Software\uCOS-II\Source/os_core.c **** /*$PAGE*/
1115:..\..\..\..\..\..\Software\uCOS-II\Source/os_core.c **** /*
1116:..\..\..\..\..\..\Software\uCOS-II\Source/os_core.c **** ***************************************************************************************************
1117:..\..\..\..\..\..\Software\uCOS-II\Source/os_core.c **** *                                  MAKE TASK WAIT FOR EVENT TO OCCUR
1118:..\..\..\..\..\..\Software\uCOS-II\Source/os_core.c **** *
1119:..\..\..\..\..\..\Software\uCOS-II\Source/os_core.c **** * Description: This function is called by other uC/OS-II services to suspend a task because an even
1120:..\..\..\..\..\..\Software\uCOS-II\Source/os_core.c **** *              not occurred.
1121:..\..\..\..\..\..\Software\uCOS-II\Source/os_core.c **** *
1122:..\..\..\..\..\..\Software\uCOS-II\Source/os_core.c **** * Arguments  : pevent   is a pointer to the event control block for which the task will be waiting 
1123:..\..\..\..\..\..\Software\uCOS-II\Source/os_core.c **** *
1124:..\..\..\..\..\..\Software\uCOS-II\Source/os_core.c **** * Returns    : none
1125:..\..\..\..\..\..\Software\uCOS-II\Source/os_core.c **** *
1126:..\..\..\..\..\..\Software\uCOS-II\Source/os_core.c **** * Note       : This function is INTERNAL to uC/OS-II and your application should not call it.
1127:..\..\..\..\..\..\Software\uCOS-II\Source/os_core.c **** ***************************************************************************************************
1128:..\..\..\..\..\..\Software\uCOS-II\Source/os_core.c **** */
1129:..\..\..\..\..\..\Software\uCOS-II\Source/os_core.c **** #if (OS_EVENT_EN)
1130:..\..\..\..\..\..\Software\uCOS-II\Source/os_core.c **** void  OS_EventTaskWait (OS_EVENT *pevent)
1131:..\..\..\..\..\..\Software\uCOS-II\Source/os_core.c **** {
 1250              		.loc 1 1131 0
 1251              		.cfi_startproc
 1252              		@ args = 0, pretend = 0, frame = 16
 1253              		@ frame_needed = 1, uses_anonymous_args = 0
 1254 0000 80B5     		push	{r7, lr}
 1255              		.cfi_def_cfa_offset 8
 1256              		.cfi_offset 7, -8
 1257              		.cfi_offset 14, -4
 1258 0002 84B0     		sub	sp, sp, #16
ARM GAS  C:\Users\EDULU~1.DES\AppData\Local\Temp\ccKclfbr.s 			page 43


 1259              		.cfi_def_cfa_offset 24
 1260 0004 00AF     		add	r7, sp, #0
 1261              		.cfi_def_cfa_register 7
 1262 0006 7860     		str	r0, [r7, #4]
1132:..\..\..\..\..\..\Software\uCOS-II\Source/os_core.c ****     INT8U  y;
1133:..\..\..\..\..\..\Software\uCOS-II\Source/os_core.c **** 
1134:..\..\..\..\..\..\Software\uCOS-II\Source/os_core.c **** 
1135:..\..\..\..\..\..\Software\uCOS-II\Source/os_core.c ****     OSTCBCur->OSTCBEventPtr               = pevent;                 /* Store ptr to ECB in TCB     
 1263              		.loc 1 1135 0
 1264 0008 294B     		ldr	r3, .L67
 1265 000a 1B68     		ldr	r3, [r3]
 1266 000c 7A68     		ldr	r2, [r7, #4]
 1267 000e DA61     		str	r2, [r3, #28]
1136:..\..\..\..\..\..\Software\uCOS-II\Source/os_core.c **** 
1137:..\..\..\..\..\..\Software\uCOS-II\Source/os_core.c ****     pevent->OSEventTbl[OSTCBCur->OSTCBY] |= OSTCBCur->OSTCBBitX;    /* Put task in waiting list    
 1268              		.loc 1 1137 0
 1269 0010 274B     		ldr	r3, .L67
 1270 0012 1B68     		ldr	r3, [r3]
 1271 0014 2822     		movs	r2, #40
 1272 0016 9B5C     		ldrb	r3, [r3, r2]
 1273 0018 1800     		movs	r0, r3
 1274 001a 254B     		ldr	r3, .L67
 1275 001c 1B68     		ldr	r3, [r3]
 1276 001e 2822     		movs	r2, #40
 1277 0020 9B5C     		ldrb	r3, [r3, r2]
 1278 0022 1A00     		movs	r2, r3
 1279 0024 7B68     		ldr	r3, [r7, #4]
 1280 0026 9B18     		adds	r3, r3, r2
 1281 0028 DA7A     		ldrb	r2, [r3, #11]
 1282 002a 214B     		ldr	r3, .L67
 1283 002c 1B68     		ldr	r3, [r3]
 1284 002e 2921     		movs	r1, #41
 1285 0030 5B5C     		ldrb	r3, [r3, r1]
 1286 0032 1343     		orrs	r3, r2
 1287 0034 DAB2     		uxtb	r2, r3
 1288 0036 7B68     		ldr	r3, [r7, #4]
 1289 0038 1B18     		adds	r3, r3, r0
 1290 003a DA72     		strb	r2, [r3, #11]
1138:..\..\..\..\..\..\Software\uCOS-II\Source/os_core.c ****     pevent->OSEventGrp                   |= OSTCBCur->OSTCBBitY;
 1291              		.loc 1 1138 0
 1292 003c 7B68     		ldr	r3, [r7, #4]
 1293 003e 9A7A     		ldrb	r2, [r3, #10]
 1294 0040 1B4B     		ldr	r3, .L67
 1295 0042 1B68     		ldr	r3, [r3]
 1296 0044 2A21     		movs	r1, #42
 1297 0046 5B5C     		ldrb	r3, [r3, r1]
 1298 0048 1343     		orrs	r3, r2
 1299 004a DAB2     		uxtb	r2, r3
 1300 004c 7B68     		ldr	r3, [r7, #4]
 1301 004e 9A72     		strb	r2, [r3, #10]
1139:..\..\..\..\..\..\Software\uCOS-II\Source/os_core.c **** 
1140:..\..\..\..\..\..\Software\uCOS-II\Source/os_core.c ****     y             =  OSTCBCur->OSTCBY;            /* Task no longer ready                          
 1302              		.loc 1 1140 0
 1303 0050 174B     		ldr	r3, .L67
 1304 0052 1A68     		ldr	r2, [r3]
 1305 0054 0F23     		movs	r3, #15
 1306 0056 FB18     		adds	r3, r7, r3
ARM GAS  C:\Users\EDULU~1.DES\AppData\Local\Temp\ccKclfbr.s 			page 44


 1307 0058 2821     		movs	r1, #40
 1308 005a 525C     		ldrb	r2, [r2, r1]
 1309 005c 1A70     		strb	r2, [r3]
1141:..\..\..\..\..\..\Software\uCOS-II\Source/os_core.c ****     OSRdyTbl[y]  &= (OS_PRIO)~OSTCBCur->OSTCBBitX;
 1310              		.loc 1 1141 0
 1311 005e 0F23     		movs	r3, #15
 1312 0060 FB18     		adds	r3, r7, r3
 1313 0062 1A78     		ldrb	r2, [r3]
 1314 0064 0F23     		movs	r3, #15
 1315 0066 FB18     		adds	r3, r7, r3
 1316 0068 1B78     		ldrb	r3, [r3]
 1317 006a 1249     		ldr	r1, .L67+4
 1318 006c C95C     		ldrb	r1, [r1, r3]
 1319 006e 104B     		ldr	r3, .L67
 1320 0070 1B68     		ldr	r3, [r3]
 1321 0072 2920     		movs	r0, #41
 1322 0074 1B5C     		ldrb	r3, [r3, r0]
 1323 0076 DB43     		mvns	r3, r3
 1324 0078 DBB2     		uxtb	r3, r3
 1325 007a 0B40     		ands	r3, r1
 1326 007c D9B2     		uxtb	r1, r3
 1327 007e 0D4B     		ldr	r3, .L67+4
 1328 0080 9954     		strb	r1, [r3, r2]
1142:..\..\..\..\..\..\Software\uCOS-II\Source/os_core.c ****     if (OSRdyTbl[y] == 0u) {                      /* Clear event grp bit if this was only task pend
 1329              		.loc 1 1142 0
 1330 0082 0F23     		movs	r3, #15
 1331 0084 FB18     		adds	r3, r7, r3
 1332 0086 1B78     		ldrb	r3, [r3]
 1333 0088 0A4A     		ldr	r2, .L67+4
 1334 008a D35C     		ldrb	r3, [r2, r3]
 1335 008c 002B     		cmp	r3, #0
 1336 008e 0BD1     		bne	.L66
1143:..\..\..\..\..\..\Software\uCOS-II\Source/os_core.c ****         OSRdyGrp &= (OS_PRIO)~OSTCBCur->OSTCBBitY;
 1337              		.loc 1 1143 0
 1338 0090 074B     		ldr	r3, .L67
 1339 0092 1B68     		ldr	r3, [r3]
 1340 0094 2A22     		movs	r2, #42
 1341 0096 9B5C     		ldrb	r3, [r3, r2]
 1342 0098 DB43     		mvns	r3, r3
 1343 009a DBB2     		uxtb	r3, r3
 1344 009c 064A     		ldr	r2, .L67+8
 1345 009e 1278     		ldrb	r2, [r2]
 1346 00a0 1340     		ands	r3, r2
 1347 00a2 DAB2     		uxtb	r2, r3
 1348 00a4 044B     		ldr	r3, .L67+8
 1349 00a6 1A70     		strb	r2, [r3]
 1350              	.L66:
1144:..\..\..\..\..\..\Software\uCOS-II\Source/os_core.c ****     }
1145:..\..\..\..\..\..\Software\uCOS-II\Source/os_core.c **** }
 1351              		.loc 1 1145 0
 1352 00a8 C046     		nop
 1353 00aa BD46     		mov	sp, r7
 1354 00ac 04B0     		add	sp, sp, #16
 1355              		@ sp needed
 1356 00ae 80BD     		pop	{r7, pc}
 1357              	.L68:
 1358              		.align	2
ARM GAS  C:\Users\EDULU~1.DES\AppData\Local\Temp\ccKclfbr.s 			page 45


 1359              	.L67:
 1360 00b0 00000000 		.word	OSTCBCur
 1361 00b4 00000000 		.word	OSRdyTbl
 1362 00b8 00000000 		.word	OSRdyGrp
 1363              		.cfi_endproc
 1364              	.LFE11:
 1365              		.size	OS_EventTaskWait, .-OS_EventTaskWait
 1366              		.section	.text.OS_EventTaskRemove,"ax",%progbits
 1367              		.align	2
 1368              		.global	OS_EventTaskRemove
 1369              		.code	16
 1370              		.thumb_func
 1371              		.type	OS_EventTaskRemove, %function
 1372              	OS_EventTaskRemove:
 1373              	.LFB12:
1146:..\..\..\..\..\..\Software\uCOS-II\Source/os_core.c **** #endif
1147:..\..\..\..\..\..\Software\uCOS-II\Source/os_core.c **** /*$PAGE*/
1148:..\..\..\..\..\..\Software\uCOS-II\Source/os_core.c **** /*
1149:..\..\..\..\..\..\Software\uCOS-II\Source/os_core.c **** ***************************************************************************************************
1150:..\..\..\..\..\..\Software\uCOS-II\Source/os_core.c **** *                         MAKE TASK WAIT FOR ANY OF MULTIPLE EVENTS TO OCCUR
1151:..\..\..\..\..\..\Software\uCOS-II\Source/os_core.c **** *
1152:..\..\..\..\..\..\Software\uCOS-II\Source/os_core.c **** * Description: This function is called by other uC/OS-II services to suspend a task because any one
1153:..\..\..\..\..\..\Software\uCOS-II\Source/os_core.c **** *              multiple events has not occurred.
1154:..\..\..\..\..\..\Software\uCOS-II\Source/os_core.c **** *
1155:..\..\..\..\..\..\Software\uCOS-II\Source/os_core.c **** * Arguments  : pevents_wait     is a pointer to an array of event control blocks, NULL-terminated, 
1156:..\..\..\..\..\..\Software\uCOS-II\Source/os_core.c **** *                               which the task will be waiting for.
1157:..\..\..\..\..\..\Software\uCOS-II\Source/os_core.c **** *
1158:..\..\..\..\..\..\Software\uCOS-II\Source/os_core.c **** * Returns    : none.
1159:..\..\..\..\..\..\Software\uCOS-II\Source/os_core.c **** *
1160:..\..\..\..\..\..\Software\uCOS-II\Source/os_core.c **** * Note       : This function is INTERNAL to uC/OS-II and your application should not call it.
1161:..\..\..\..\..\..\Software\uCOS-II\Source/os_core.c **** ***************************************************************************************************
1162:..\..\..\..\..\..\Software\uCOS-II\Source/os_core.c **** */
1163:..\..\..\..\..\..\Software\uCOS-II\Source/os_core.c **** #if ((OS_EVENT_EN) && (OS_EVENT_MULTI_EN > 0u))
1164:..\..\..\..\..\..\Software\uCOS-II\Source/os_core.c **** void  OS_EventTaskWaitMulti (OS_EVENT **pevents_wait)
1165:..\..\..\..\..\..\Software\uCOS-II\Source/os_core.c **** {
1166:..\..\..\..\..\..\Software\uCOS-II\Source/os_core.c ****     OS_EVENT **pevents;
1167:..\..\..\..\..\..\Software\uCOS-II\Source/os_core.c ****     OS_EVENT  *pevent;
1168:..\..\..\..\..\..\Software\uCOS-II\Source/os_core.c ****     INT8U      y;
1169:..\..\..\..\..\..\Software\uCOS-II\Source/os_core.c **** 
1170:..\..\..\..\..\..\Software\uCOS-II\Source/os_core.c **** 
1171:..\..\..\..\..\..\Software\uCOS-II\Source/os_core.c ****     OSTCBCur->OSTCBEventPtr      = (OS_EVENT  *)0;
1172:..\..\..\..\..\..\Software\uCOS-II\Source/os_core.c ****     OSTCBCur->OSTCBEventMultiPtr = (OS_EVENT **)pevents_wait;       /* Store ptr to ECBs in TCB    
1173:..\..\..\..\..\..\Software\uCOS-II\Source/os_core.c **** 
1174:..\..\..\..\..\..\Software\uCOS-II\Source/os_core.c ****     pevents =  pevents_wait;
1175:..\..\..\..\..\..\Software\uCOS-II\Source/os_core.c ****     pevent  = *pevents;
1176:..\..\..\..\..\..\Software\uCOS-II\Source/os_core.c ****     while (pevent != (OS_EVENT *)0) {                               /* Put task in waiting lists   
1177:..\..\..\..\..\..\Software\uCOS-II\Source/os_core.c ****         pevent->OSEventTbl[OSTCBCur->OSTCBY] |= OSTCBCur->OSTCBBitX;
1178:..\..\..\..\..\..\Software\uCOS-II\Source/os_core.c ****         pevent->OSEventGrp                   |= OSTCBCur->OSTCBBitY;
1179:..\..\..\..\..\..\Software\uCOS-II\Source/os_core.c ****         pevents++;
1180:..\..\..\..\..\..\Software\uCOS-II\Source/os_core.c ****         pevent = *pevents;
1181:..\..\..\..\..\..\Software\uCOS-II\Source/os_core.c ****     }
1182:..\..\..\..\..\..\Software\uCOS-II\Source/os_core.c **** 
1183:..\..\..\..\..\..\Software\uCOS-II\Source/os_core.c ****     y             =  OSTCBCur->OSTCBY;            /* Task no longer ready                          
1184:..\..\..\..\..\..\Software\uCOS-II\Source/os_core.c ****     OSRdyTbl[y]  &= (OS_PRIO)~OSTCBCur->OSTCBBitX;
1185:..\..\..\..\..\..\Software\uCOS-II\Source/os_core.c ****     if (OSRdyTbl[y] == 0u) {                      /* Clear event grp bit if this was only task pend
1186:..\..\..\..\..\..\Software\uCOS-II\Source/os_core.c ****         OSRdyGrp &= (OS_PRIO)~OSTCBCur->OSTCBBitY;
1187:..\..\..\..\..\..\Software\uCOS-II\Source/os_core.c ****     }
ARM GAS  C:\Users\EDULU~1.DES\AppData\Local\Temp\ccKclfbr.s 			page 46


1188:..\..\..\..\..\..\Software\uCOS-II\Source/os_core.c **** }
1189:..\..\..\..\..\..\Software\uCOS-II\Source/os_core.c **** #endif
1190:..\..\..\..\..\..\Software\uCOS-II\Source/os_core.c **** /*$PAGE*/
1191:..\..\..\..\..\..\Software\uCOS-II\Source/os_core.c **** /*
1192:..\..\..\..\..\..\Software\uCOS-II\Source/os_core.c **** ***************************************************************************************************
1193:..\..\..\..\..\..\Software\uCOS-II\Source/os_core.c **** *                                  REMOVE TASK FROM EVENT WAIT LIST
1194:..\..\..\..\..\..\Software\uCOS-II\Source/os_core.c **** *
1195:..\..\..\..\..\..\Software\uCOS-II\Source/os_core.c **** * Description: Remove a task from an event's wait list.
1196:..\..\..\..\..\..\Software\uCOS-II\Source/os_core.c **** *
1197:..\..\..\..\..\..\Software\uCOS-II\Source/os_core.c **** * Arguments  : ptcb     is a pointer to the task to remove.
1198:..\..\..\..\..\..\Software\uCOS-II\Source/os_core.c **** *
1199:..\..\..\..\..\..\Software\uCOS-II\Source/os_core.c **** *              pevent   is a pointer to the event control block.
1200:..\..\..\..\..\..\Software\uCOS-II\Source/os_core.c **** *
1201:..\..\..\..\..\..\Software\uCOS-II\Source/os_core.c **** * Returns    : none
1202:..\..\..\..\..\..\Software\uCOS-II\Source/os_core.c **** *
1203:..\..\..\..\..\..\Software\uCOS-II\Source/os_core.c **** * Note       : This function is INTERNAL to uC/OS-II and your application should not call it.
1204:..\..\..\..\..\..\Software\uCOS-II\Source/os_core.c **** ***************************************************************************************************
1205:..\..\..\..\..\..\Software\uCOS-II\Source/os_core.c **** */
1206:..\..\..\..\..\..\Software\uCOS-II\Source/os_core.c **** #if (OS_EVENT_EN)
1207:..\..\..\..\..\..\Software\uCOS-II\Source/os_core.c **** void  OS_EventTaskRemove (OS_TCB   *ptcb,
1208:..\..\..\..\..\..\Software\uCOS-II\Source/os_core.c ****                           OS_EVENT *pevent)
1209:..\..\..\..\..\..\Software\uCOS-II\Source/os_core.c **** {
 1374              		.loc 1 1209 0
 1375              		.cfi_startproc
 1376              		@ args = 0, pretend = 0, frame = 16
 1377              		@ frame_needed = 1, uses_anonymous_args = 0
 1378 0000 80B5     		push	{r7, lr}
 1379              		.cfi_def_cfa_offset 8
 1380              		.cfi_offset 7, -8
 1381              		.cfi_offset 14, -4
 1382 0002 84B0     		sub	sp, sp, #16
 1383              		.cfi_def_cfa_offset 24
 1384 0004 00AF     		add	r7, sp, #0
 1385              		.cfi_def_cfa_register 7
 1386 0006 7860     		str	r0, [r7, #4]
 1387 0008 3960     		str	r1, [r7]
1210:..\..\..\..\..\..\Software\uCOS-II\Source/os_core.c ****     INT8U  y;
1211:..\..\..\..\..\..\Software\uCOS-II\Source/os_core.c **** 
1212:..\..\..\..\..\..\Software\uCOS-II\Source/os_core.c **** 
1213:..\..\..\..\..\..\Software\uCOS-II\Source/os_core.c ****     y                       =  ptcb->OSTCBY;
 1388              		.loc 1 1213 0
 1389 000a 0F23     		movs	r3, #15
 1390 000c FB18     		adds	r3, r7, r3
 1391 000e 7A68     		ldr	r2, [r7, #4]
 1392 0010 2821     		movs	r1, #40
 1393 0012 525C     		ldrb	r2, [r2, r1]
 1394 0014 1A70     		strb	r2, [r3]
1214:..\..\..\..\..\..\Software\uCOS-II\Source/os_core.c ****     pevent->OSEventTbl[y]  &= (OS_PRIO)~ptcb->OSTCBBitX;    /* Remove task from wait list          
 1395              		.loc 1 1214 0
 1396 0016 0F23     		movs	r3, #15
 1397 0018 FB18     		adds	r3, r7, r3
 1398 001a 1B78     		ldrb	r3, [r3]
 1399 001c 0F22     		movs	r2, #15
 1400 001e BA18     		adds	r2, r7, r2
 1401 0020 1278     		ldrb	r2, [r2]
 1402 0022 3968     		ldr	r1, [r7]
 1403 0024 8A18     		adds	r2, r1, r2
ARM GAS  C:\Users\EDULU~1.DES\AppData\Local\Temp\ccKclfbr.s 			page 47


 1404 0026 D27A     		ldrb	r2, [r2, #11]
 1405 0028 7968     		ldr	r1, [r7, #4]
 1406 002a 2920     		movs	r0, #41
 1407 002c 095C     		ldrb	r1, [r1, r0]
 1408 002e C943     		mvns	r1, r1
 1409 0030 C9B2     		uxtb	r1, r1
 1410 0032 0A40     		ands	r2, r1
 1411 0034 D1B2     		uxtb	r1, r2
 1412 0036 3A68     		ldr	r2, [r7]
 1413 0038 D318     		adds	r3, r2, r3
 1414 003a 0A1C     		adds	r2, r1, #0
 1415 003c DA72     		strb	r2, [r3, #11]
1215:..\..\..\..\..\..\Software\uCOS-II\Source/os_core.c ****     if (pevent->OSEventTbl[y] == 0u) {
 1416              		.loc 1 1215 0
 1417 003e 0F23     		movs	r3, #15
 1418 0040 FB18     		adds	r3, r7, r3
 1419 0042 1B78     		ldrb	r3, [r3]
 1420 0044 3A68     		ldr	r2, [r7]
 1421 0046 D318     		adds	r3, r2, r3
 1422 0048 DB7A     		ldrb	r3, [r3, #11]
 1423 004a 002B     		cmp	r3, #0
 1424 004c 0AD1     		bne	.L70
1216:..\..\..\..\..\..\Software\uCOS-II\Source/os_core.c ****         pevent->OSEventGrp &= (OS_PRIO)~ptcb->OSTCBBitY;
 1425              		.loc 1 1216 0
 1426 004e 3B68     		ldr	r3, [r7]
 1427 0050 9B7A     		ldrb	r3, [r3, #10]
 1428 0052 7A68     		ldr	r2, [r7, #4]
 1429 0054 2A21     		movs	r1, #42
 1430 0056 525C     		ldrb	r2, [r2, r1]
 1431 0058 D243     		mvns	r2, r2
 1432 005a D2B2     		uxtb	r2, r2
 1433 005c 1340     		ands	r3, r2
 1434 005e DAB2     		uxtb	r2, r3
 1435 0060 3B68     		ldr	r3, [r7]
 1436 0062 9A72     		strb	r2, [r3, #10]
 1437              	.L70:
1217:..\..\..\..\..\..\Software\uCOS-II\Source/os_core.c ****     }
1218:..\..\..\..\..\..\Software\uCOS-II\Source/os_core.c ****     ptcb->OSTCBEventPtr     = (OS_EVENT  *)0;               /* Unlink OS_EVENT from OS_TCB         
 1438              		.loc 1 1218 0
 1439 0064 7B68     		ldr	r3, [r7, #4]
 1440 0066 0022     		movs	r2, #0
 1441 0068 DA61     		str	r2, [r3, #28]
1219:..\..\..\..\..\..\Software\uCOS-II\Source/os_core.c **** }
 1442              		.loc 1 1219 0
 1443 006a C046     		nop
 1444 006c BD46     		mov	sp, r7
 1445 006e 04B0     		add	sp, sp, #16
 1446              		@ sp needed
 1447 0070 80BD     		pop	{r7, pc}
 1448              		.cfi_endproc
 1449              	.LFE12:
 1450              		.size	OS_EventTaskRemove, .-OS_EventTaskRemove
 1451 0072 C046     		.section	.text.OS_EventWaitListInit,"ax",%progbits
 1452              		.align	2
 1453              		.global	OS_EventWaitListInit
 1454              		.code	16
 1455              		.thumb_func
ARM GAS  C:\Users\EDULU~1.DES\AppData\Local\Temp\ccKclfbr.s 			page 48


 1456              		.type	OS_EventWaitListInit, %function
 1457              	OS_EventWaitListInit:
 1458              	.LFB13:
1220:..\..\..\..\..\..\Software\uCOS-II\Source/os_core.c **** #endif
1221:..\..\..\..\..\..\Software\uCOS-II\Source/os_core.c **** /*$PAGE*/
1222:..\..\..\..\..\..\Software\uCOS-II\Source/os_core.c **** /*
1223:..\..\..\..\..\..\Software\uCOS-II\Source/os_core.c **** ***************************************************************************************************
1224:..\..\..\..\..\..\Software\uCOS-II\Source/os_core.c **** *                             REMOVE TASK FROM MULTIPLE EVENTS WAIT LISTS
1225:..\..\..\..\..\..\Software\uCOS-II\Source/os_core.c **** *
1226:..\..\..\..\..\..\Software\uCOS-II\Source/os_core.c **** * Description: Remove a task from multiple events' wait lists.
1227:..\..\..\..\..\..\Software\uCOS-II\Source/os_core.c **** *
1228:..\..\..\..\..\..\Software\uCOS-II\Source/os_core.c **** * Arguments  : ptcb             is a pointer to the task to remove.
1229:..\..\..\..\..\..\Software\uCOS-II\Source/os_core.c **** *
1230:..\..\..\..\..\..\Software\uCOS-II\Source/os_core.c **** *              pevents_multi    is a pointer to the array of event control blocks, NULL-terminated.
1231:..\..\..\..\..\..\Software\uCOS-II\Source/os_core.c **** *
1232:..\..\..\..\..\..\Software\uCOS-II\Source/os_core.c **** * Returns    : none
1233:..\..\..\..\..\..\Software\uCOS-II\Source/os_core.c **** *
1234:..\..\..\..\..\..\Software\uCOS-II\Source/os_core.c **** * Note       : This function is INTERNAL to uC/OS-II and your application should not call it.
1235:..\..\..\..\..\..\Software\uCOS-II\Source/os_core.c **** ***************************************************************************************************
1236:..\..\..\..\..\..\Software\uCOS-II\Source/os_core.c **** */
1237:..\..\..\..\..\..\Software\uCOS-II\Source/os_core.c **** #if ((OS_EVENT_EN) && (OS_EVENT_MULTI_EN > 0u))
1238:..\..\..\..\..\..\Software\uCOS-II\Source/os_core.c **** void  OS_EventTaskRemoveMulti (OS_TCB    *ptcb,
1239:..\..\..\..\..\..\Software\uCOS-II\Source/os_core.c ****                                OS_EVENT **pevents_multi)
1240:..\..\..\..\..\..\Software\uCOS-II\Source/os_core.c **** {
1241:..\..\..\..\..\..\Software\uCOS-II\Source/os_core.c ****     OS_EVENT **pevents;
1242:..\..\..\..\..\..\Software\uCOS-II\Source/os_core.c ****     OS_EVENT  *pevent;
1243:..\..\..\..\..\..\Software\uCOS-II\Source/os_core.c ****     INT8U      y;
1244:..\..\..\..\..\..\Software\uCOS-II\Source/os_core.c ****     OS_PRIO    bity;
1245:..\..\..\..\..\..\Software\uCOS-II\Source/os_core.c ****     OS_PRIO    bitx;
1246:..\..\..\..\..\..\Software\uCOS-II\Source/os_core.c **** 
1247:..\..\..\..\..\..\Software\uCOS-II\Source/os_core.c **** 
1248:..\..\..\..\..\..\Software\uCOS-II\Source/os_core.c ****     y       =  ptcb->OSTCBY;
1249:..\..\..\..\..\..\Software\uCOS-II\Source/os_core.c ****     bity    =  ptcb->OSTCBBitY;
1250:..\..\..\..\..\..\Software\uCOS-II\Source/os_core.c ****     bitx    =  ptcb->OSTCBBitX;
1251:..\..\..\..\..\..\Software\uCOS-II\Source/os_core.c ****     pevents =  pevents_multi;
1252:..\..\..\..\..\..\Software\uCOS-II\Source/os_core.c ****     pevent  = *pevents;
1253:..\..\..\..\..\..\Software\uCOS-II\Source/os_core.c ****     while (pevent != (OS_EVENT *)0) {                   /* Remove task from all events' wait lists 
1254:..\..\..\..\..\..\Software\uCOS-II\Source/os_core.c ****         pevent->OSEventTbl[y]  &= (OS_PRIO)~bitx;
1255:..\..\..\..\..\..\Software\uCOS-II\Source/os_core.c ****         if (pevent->OSEventTbl[y] == 0u) {
1256:..\..\..\..\..\..\Software\uCOS-II\Source/os_core.c ****             pevent->OSEventGrp &= (OS_PRIO)~bity;
1257:..\..\..\..\..\..\Software\uCOS-II\Source/os_core.c ****         }
1258:..\..\..\..\..\..\Software\uCOS-II\Source/os_core.c ****         pevents++;
1259:..\..\..\..\..\..\Software\uCOS-II\Source/os_core.c ****         pevent = *pevents;
1260:..\..\..\..\..\..\Software\uCOS-II\Source/os_core.c ****     }
1261:..\..\..\..\..\..\Software\uCOS-II\Source/os_core.c **** }
1262:..\..\..\..\..\..\Software\uCOS-II\Source/os_core.c **** #endif
1263:..\..\..\..\..\..\Software\uCOS-II\Source/os_core.c **** /*$PAGE*/
1264:..\..\..\..\..\..\Software\uCOS-II\Source/os_core.c **** /*
1265:..\..\..\..\..\..\Software\uCOS-II\Source/os_core.c **** ***************************************************************************************************
1266:..\..\..\..\..\..\Software\uCOS-II\Source/os_core.c **** *                             INITIALIZE EVENT CONTROL BLOCK'S WAIT LIST
1267:..\..\..\..\..\..\Software\uCOS-II\Source/os_core.c **** *
1268:..\..\..\..\..\..\Software\uCOS-II\Source/os_core.c **** * Description: This function is called by other uC/OS-II services to initialize the event wait list
1269:..\..\..\..\..\..\Software\uCOS-II\Source/os_core.c **** *
1270:..\..\..\..\..\..\Software\uCOS-II\Source/os_core.c **** * Arguments  : pevent    is a pointer to the event control block allocated to the event.
1271:..\..\..\..\..\..\Software\uCOS-II\Source/os_core.c **** *
1272:..\..\..\..\..\..\Software\uCOS-II\Source/os_core.c **** * Returns    : none
1273:..\..\..\..\..\..\Software\uCOS-II\Source/os_core.c **** *
ARM GAS  C:\Users\EDULU~1.DES\AppData\Local\Temp\ccKclfbr.s 			page 49


1274:..\..\..\..\..\..\Software\uCOS-II\Source/os_core.c **** * Note       : This function is INTERNAL to uC/OS-II and your application should not call it.
1275:..\..\..\..\..\..\Software\uCOS-II\Source/os_core.c **** ***************************************************************************************************
1276:..\..\..\..\..\..\Software\uCOS-II\Source/os_core.c **** */
1277:..\..\..\..\..\..\Software\uCOS-II\Source/os_core.c **** #if (OS_EVENT_EN)
1278:..\..\..\..\..\..\Software\uCOS-II\Source/os_core.c **** void  OS_EventWaitListInit (OS_EVENT *pevent)
1279:..\..\..\..\..\..\Software\uCOS-II\Source/os_core.c **** {
 1459              		.loc 1 1279 0
 1460              		.cfi_startproc
 1461              		@ args = 0, pretend = 0, frame = 16
 1462              		@ frame_needed = 1, uses_anonymous_args = 0
 1463 0000 80B5     		push	{r7, lr}
 1464              		.cfi_def_cfa_offset 8
 1465              		.cfi_offset 7, -8
 1466              		.cfi_offset 14, -4
 1467 0002 84B0     		sub	sp, sp, #16
 1468              		.cfi_def_cfa_offset 24
 1469 0004 00AF     		add	r7, sp, #0
 1470              		.cfi_def_cfa_register 7
 1471 0006 7860     		str	r0, [r7, #4]
1280:..\..\..\..\..\..\Software\uCOS-II\Source/os_core.c ****     INT8U  i;
1281:..\..\..\..\..\..\Software\uCOS-II\Source/os_core.c **** 
1282:..\..\..\..\..\..\Software\uCOS-II\Source/os_core.c **** 
1283:..\..\..\..\..\..\Software\uCOS-II\Source/os_core.c ****     pevent->OSEventGrp = 0u;                     /* No task waiting on event                       
 1472              		.loc 1 1283 0
 1473 0008 7B68     		ldr	r3, [r7, #4]
 1474 000a 0022     		movs	r2, #0
 1475 000c 9A72     		strb	r2, [r3, #10]
1284:..\..\..\..\..\..\Software\uCOS-II\Source/os_core.c ****     for (i = 0u; i < OS_EVENT_TBL_SIZE; i++) {
 1476              		.loc 1 1284 0
 1477 000e 0F23     		movs	r3, #15
 1478 0010 FB18     		adds	r3, r7, r3
 1479 0012 0022     		movs	r2, #0
 1480 0014 1A70     		strb	r2, [r3]
 1481 0016 0DE0     		b	.L72
 1482              	.L73:
1285:..\..\..\..\..\..\Software\uCOS-II\Source/os_core.c ****         pevent->OSEventTbl[i] = 0u;
 1483              		.loc 1 1285 0 discriminator 3
 1484 0018 0F23     		movs	r3, #15
 1485 001a FB18     		adds	r3, r7, r3
 1486 001c 1B78     		ldrb	r3, [r3]
 1487 001e 7A68     		ldr	r2, [r7, #4]
 1488 0020 D318     		adds	r3, r2, r3
 1489 0022 0022     		movs	r2, #0
 1490 0024 DA72     		strb	r2, [r3, #11]
1284:..\..\..\..\..\..\Software\uCOS-II\Source/os_core.c ****     for (i = 0u; i < OS_EVENT_TBL_SIZE; i++) {
 1491              		.loc 1 1284 0 discriminator 3
 1492 0026 0F23     		movs	r3, #15
 1493 0028 FB18     		adds	r3, r7, r3
 1494 002a 1A78     		ldrb	r2, [r3]
 1495 002c 0F23     		movs	r3, #15
 1496 002e FB18     		adds	r3, r7, r3
 1497 0030 0132     		adds	r2, r2, #1
 1498 0032 1A70     		strb	r2, [r3]
 1499              	.L72:
1284:..\..\..\..\..\..\Software\uCOS-II\Source/os_core.c ****     for (i = 0u; i < OS_EVENT_TBL_SIZE; i++) {
 1500              		.loc 1 1284 0 is_stmt 0 discriminator 1
 1501 0034 0F23     		movs	r3, #15
ARM GAS  C:\Users\EDULU~1.DES\AppData\Local\Temp\ccKclfbr.s 			page 50


 1502 0036 FB18     		adds	r3, r7, r3
 1503 0038 1B78     		ldrb	r3, [r3]
 1504 003a 032B     		cmp	r3, #3
 1505 003c ECD9     		bls	.L73
1286:..\..\..\..\..\..\Software\uCOS-II\Source/os_core.c ****     }
1287:..\..\..\..\..\..\Software\uCOS-II\Source/os_core.c **** }
 1506              		.loc 1 1287 0 is_stmt 1
 1507 003e C046     		nop
 1508 0040 BD46     		mov	sp, r7
 1509 0042 04B0     		add	sp, sp, #16
 1510              		@ sp needed
 1511 0044 80BD     		pop	{r7, pc}
 1512              		.cfi_endproc
 1513              	.LFE13:
 1514              		.size	OS_EventWaitListInit, .-OS_EventWaitListInit
 1515 0046 C046     		.section	.text.OS_InitEventList,"ax",%progbits
 1516              		.align	2
 1517              		.code	16
 1518              		.thumb_func
 1519              		.type	OS_InitEventList, %function
 1520              	OS_InitEventList:
 1521              	.LFB14:
1288:..\..\..\..\..\..\Software\uCOS-II\Source/os_core.c **** #endif
1289:..\..\..\..\..\..\Software\uCOS-II\Source/os_core.c **** /*$PAGE*/
1290:..\..\..\..\..\..\Software\uCOS-II\Source/os_core.c **** /*
1291:..\..\..\..\..\..\Software\uCOS-II\Source/os_core.c **** ***************************************************************************************************
1292:..\..\..\..\..\..\Software\uCOS-II\Source/os_core.c **** *                                             INITIALIZATION
1293:..\..\..\..\..\..\Software\uCOS-II\Source/os_core.c **** *                           INITIALIZE THE FREE LIST OF EVENT CONTROL BLOCKS
1294:..\..\..\..\..\..\Software\uCOS-II\Source/os_core.c **** *
1295:..\..\..\..\..\..\Software\uCOS-II\Source/os_core.c **** * Description: This function is called by OSInit() to initialize the free list of event control blo
1296:..\..\..\..\..\..\Software\uCOS-II\Source/os_core.c **** *
1297:..\..\..\..\..\..\Software\uCOS-II\Source/os_core.c **** * Arguments  : none
1298:..\..\..\..\..\..\Software\uCOS-II\Source/os_core.c **** *
1299:..\..\..\..\..\..\Software\uCOS-II\Source/os_core.c **** * Returns    : none
1300:..\..\..\..\..\..\Software\uCOS-II\Source/os_core.c **** ***************************************************************************************************
1301:..\..\..\..\..\..\Software\uCOS-II\Source/os_core.c **** */
1302:..\..\..\..\..\..\Software\uCOS-II\Source/os_core.c **** 
1303:..\..\..\..\..\..\Software\uCOS-II\Source/os_core.c **** static  void  OS_InitEventList (void)
1304:..\..\..\..\..\..\Software\uCOS-II\Source/os_core.c **** {
 1522              		.loc 1 1304 0
 1523              		.cfi_startproc
 1524              		@ args = 0, pretend = 0, frame = 16
 1525              		@ frame_needed = 1, uses_anonymous_args = 0
 1526 0000 80B5     		push	{r7, lr}
 1527              		.cfi_def_cfa_offset 8
 1528              		.cfi_offset 7, -8
 1529              		.cfi_offset 14, -4
 1530 0002 84B0     		sub	sp, sp, #16
 1531              		.cfi_def_cfa_offset 24
 1532 0004 00AF     		add	r7, sp, #0
 1533              		.cfi_def_cfa_register 7
1305:..\..\..\..\..\..\Software\uCOS-II\Source/os_core.c **** #if (OS_EVENT_EN) && (OS_MAX_EVENTS > 0u)
1306:..\..\..\..\..\..\Software\uCOS-II\Source/os_core.c **** #if (OS_MAX_EVENTS > 1u)
1307:..\..\..\..\..\..\Software\uCOS-II\Source/os_core.c ****     INT16U     ix;
1308:..\..\..\..\..\..\Software\uCOS-II\Source/os_core.c ****     INT16U     ix_next;
1309:..\..\..\..\..\..\Software\uCOS-II\Source/os_core.c ****     OS_EVENT  *pevent1;
1310:..\..\..\..\..\..\Software\uCOS-II\Source/os_core.c ****     OS_EVENT  *pevent2;
ARM GAS  C:\Users\EDULU~1.DES\AppData\Local\Temp\ccKclfbr.s 			page 51


1311:..\..\..\..\..\..\Software\uCOS-II\Source/os_core.c **** 
1312:..\..\..\..\..\..\Software\uCOS-II\Source/os_core.c **** 
1313:..\..\..\..\..\..\Software\uCOS-II\Source/os_core.c ****     OS_MemClr((INT8U *)&OSEventTbl[0], sizeof(OSEventTbl)); /* Clear the event table               
 1534              		.loc 1 1313 0
 1535 0006 224B     		ldr	r3, .L77
 1536 0008 5021     		movs	r1, #80
 1537 000a 1800     		movs	r0, r3
 1538 000c FFF7FEFF 		bl	OS_MemClr
1314:..\..\..\..\..\..\Software\uCOS-II\Source/os_core.c ****     for (ix = 0u; ix < (OS_MAX_EVENTS - 1u); ix++) {        /* Init. list of free EVENT control blo
 1539              		.loc 1 1314 0
 1540 0010 0E23     		movs	r3, #14
 1541 0012 FB18     		adds	r3, r7, r3
 1542 0014 0022     		movs	r2, #0
 1543 0016 1A80     		strh	r2, [r3]
 1544 0018 21E0     		b	.L75
 1545              	.L76:
1315:..\..\..\..\..\..\Software\uCOS-II\Source/os_core.c ****         ix_next = ix + 1u;
 1546              		.loc 1 1315 0 discriminator 3
 1547 001a 0C23     		movs	r3, #12
 1548 001c FB18     		adds	r3, r7, r3
 1549 001e 0E22     		movs	r2, #14
 1550 0020 BA18     		adds	r2, r7, r2
 1551 0022 1288     		ldrh	r2, [r2]
 1552 0024 0132     		adds	r2, r2, #1
 1553 0026 1A80     		strh	r2, [r3]
1316:..\..\..\..\..\..\Software\uCOS-II\Source/os_core.c ****         pevent1 = &OSEventTbl[ix];
 1554              		.loc 1 1316 0 discriminator 3
 1555 0028 0E23     		movs	r3, #14
 1556 002a FB18     		adds	r3, r7, r3
 1557 002c 1B88     		ldrh	r3, [r3]
 1558 002e 1A01     		lsls	r2, r3, #4
 1559 0030 174B     		ldr	r3, .L77
 1560 0032 D318     		adds	r3, r2, r3
 1561 0034 BB60     		str	r3, [r7, #8]
1317:..\..\..\..\..\..\Software\uCOS-II\Source/os_core.c ****         pevent2 = &OSEventTbl[ix_next];
 1562              		.loc 1 1317 0 discriminator 3
 1563 0036 0C23     		movs	r3, #12
 1564 0038 FB18     		adds	r3, r7, r3
 1565 003a 1B88     		ldrh	r3, [r3]
 1566 003c 1A01     		lsls	r2, r3, #4
 1567 003e 144B     		ldr	r3, .L77
 1568 0040 D318     		adds	r3, r2, r3
 1569 0042 7B60     		str	r3, [r7, #4]
1318:..\..\..\..\..\..\Software\uCOS-II\Source/os_core.c ****         pevent1->OSEventType    = OS_EVENT_TYPE_UNUSED;
 1570              		.loc 1 1318 0 discriminator 3
 1571 0044 BB68     		ldr	r3, [r7, #8]
 1572 0046 0022     		movs	r2, #0
 1573 0048 1A70     		strb	r2, [r3]
1319:..\..\..\..\..\..\Software\uCOS-II\Source/os_core.c ****         pevent1->OSEventPtr     = pevent2;
 1574              		.loc 1 1319 0 discriminator 3
 1575 004a BB68     		ldr	r3, [r7, #8]
 1576 004c 7A68     		ldr	r2, [r7, #4]
 1577 004e 5A60     		str	r2, [r3, #4]
1314:..\..\..\..\..\..\Software\uCOS-II\Source/os_core.c ****         ix_next = ix + 1u;
 1578              		.loc 1 1314 0 discriminator 3
 1579 0050 0E23     		movs	r3, #14
 1580 0052 FB18     		adds	r3, r7, r3
ARM GAS  C:\Users\EDULU~1.DES\AppData\Local\Temp\ccKclfbr.s 			page 52


 1581 0054 1A88     		ldrh	r2, [r3]
 1582 0056 0E23     		movs	r3, #14
 1583 0058 FB18     		adds	r3, r7, r3
 1584 005a 0132     		adds	r2, r2, #1
 1585 005c 1A80     		strh	r2, [r3]
 1586              	.L75:
1314:..\..\..\..\..\..\Software\uCOS-II\Source/os_core.c ****         ix_next = ix + 1u;
 1587              		.loc 1 1314 0 is_stmt 0 discriminator 1
 1588 005e 0E23     		movs	r3, #14
 1589 0060 FB18     		adds	r3, r7, r3
 1590 0062 1B88     		ldrh	r3, [r3]
 1591 0064 032B     		cmp	r3, #3
 1592 0066 D8D9     		bls	.L76
1320:..\..\..\..\..\..\Software\uCOS-II\Source/os_core.c **** #if OS_EVENT_NAME_EN > 0u
1321:..\..\..\..\..\..\Software\uCOS-II\Source/os_core.c ****         pevent1->OSEventName    = (INT8U *)(void *)"?";     /* Unknown name                        
1322:..\..\..\..\..\..\Software\uCOS-II\Source/os_core.c **** #endif
1323:..\..\..\..\..\..\Software\uCOS-II\Source/os_core.c ****     }
1324:..\..\..\..\..\..\Software\uCOS-II\Source/os_core.c ****     pevent1                         = &OSEventTbl[ix];
 1593              		.loc 1 1324 0 is_stmt 1
 1594 0068 0E23     		movs	r3, #14
 1595 006a FB18     		adds	r3, r7, r3
 1596 006c 1B88     		ldrh	r3, [r3]
 1597 006e 1A01     		lsls	r2, r3, #4
 1598 0070 074B     		ldr	r3, .L77
 1599 0072 D318     		adds	r3, r2, r3
 1600 0074 BB60     		str	r3, [r7, #8]
1325:..\..\..\..\..\..\Software\uCOS-II\Source/os_core.c ****     pevent1->OSEventType            = OS_EVENT_TYPE_UNUSED;
 1601              		.loc 1 1325 0
 1602 0076 BB68     		ldr	r3, [r7, #8]
 1603 0078 0022     		movs	r2, #0
 1604 007a 1A70     		strb	r2, [r3]
1326:..\..\..\..\..\..\Software\uCOS-II\Source/os_core.c ****     pevent1->OSEventPtr             = (OS_EVENT *)0;
 1605              		.loc 1 1326 0
 1606 007c BB68     		ldr	r3, [r7, #8]
 1607 007e 0022     		movs	r2, #0
 1608 0080 5A60     		str	r2, [r3, #4]
1327:..\..\..\..\..\..\Software\uCOS-II\Source/os_core.c **** #if OS_EVENT_NAME_EN > 0u
1328:..\..\..\..\..\..\Software\uCOS-II\Source/os_core.c ****     pevent1->OSEventName            = (INT8U *)(void *)"?"; /* Unknown name                        
1329:..\..\..\..\..\..\Software\uCOS-II\Source/os_core.c **** #endif
1330:..\..\..\..\..\..\Software\uCOS-II\Source/os_core.c ****     OSEventFreeList                 = &OSEventTbl[0];
 1609              		.loc 1 1330 0
 1610 0082 044B     		ldr	r3, .L77+4
 1611 0084 024A     		ldr	r2, .L77
 1612 0086 1A60     		str	r2, [r3]
1331:..\..\..\..\..\..\Software\uCOS-II\Source/os_core.c **** #else
1332:..\..\..\..\..\..\Software\uCOS-II\Source/os_core.c ****     OSEventFreeList                 = &OSEventTbl[0];       /* Only have ONE event control block   
1333:..\..\..\..\..\..\Software\uCOS-II\Source/os_core.c ****     OSEventFreeList->OSEventType    = OS_EVENT_TYPE_UNUSED;
1334:..\..\..\..\..\..\Software\uCOS-II\Source/os_core.c ****     OSEventFreeList->OSEventPtr     = (OS_EVENT *)0;
1335:..\..\..\..\..\..\Software\uCOS-II\Source/os_core.c **** #if OS_EVENT_NAME_EN > 0u
1336:..\..\..\..\..\..\Software\uCOS-II\Source/os_core.c ****     OSEventFreeList->OSEventName    = (INT8U *)"?";         /* Unknown name                        
1337:..\..\..\..\..\..\Software\uCOS-II\Source/os_core.c **** #endif
1338:..\..\..\..\..\..\Software\uCOS-II\Source/os_core.c **** #endif
1339:..\..\..\..\..\..\Software\uCOS-II\Source/os_core.c **** #endif
1340:..\..\..\..\..\..\Software\uCOS-II\Source/os_core.c **** }
 1613              		.loc 1 1340 0
 1614 0088 C046     		nop
 1615 008a BD46     		mov	sp, r7
ARM GAS  C:\Users\EDULU~1.DES\AppData\Local\Temp\ccKclfbr.s 			page 53


 1616 008c 04B0     		add	sp, sp, #16
 1617              		@ sp needed
 1618 008e 80BD     		pop	{r7, pc}
 1619              	.L78:
 1620              		.align	2
 1621              	.L77:
 1622 0090 00000000 		.word	OSEventTbl
 1623 0094 00000000 		.word	OSEventFreeList
 1624              		.cfi_endproc
 1625              	.LFE14:
 1626              		.size	OS_InitEventList, .-OS_InitEventList
 1627              		.section	.text.OS_InitMisc,"ax",%progbits
 1628              		.align	2
 1629              		.code	16
 1630              		.thumb_func
 1631              		.type	OS_InitMisc, %function
 1632              	OS_InitMisc:
 1633              	.LFB15:
1341:..\..\..\..\..\..\Software\uCOS-II\Source/os_core.c **** /*$PAGE*/
1342:..\..\..\..\..\..\Software\uCOS-II\Source/os_core.c **** /*
1343:..\..\..\..\..\..\Software\uCOS-II\Source/os_core.c **** ***************************************************************************************************
1344:..\..\..\..\..\..\Software\uCOS-II\Source/os_core.c **** *                                             INITIALIZATION
1345:..\..\..\..\..\..\Software\uCOS-II\Source/os_core.c **** *                                    INITIALIZE MISCELLANEOUS VARIABLES
1346:..\..\..\..\..\..\Software\uCOS-II\Source/os_core.c **** *
1347:..\..\..\..\..\..\Software\uCOS-II\Source/os_core.c **** * Description: This function is called by OSInit() to initialize miscellaneous variables.
1348:..\..\..\..\..\..\Software\uCOS-II\Source/os_core.c **** *
1349:..\..\..\..\..\..\Software\uCOS-II\Source/os_core.c **** * Arguments  : none
1350:..\..\..\..\..\..\Software\uCOS-II\Source/os_core.c **** *
1351:..\..\..\..\..\..\Software\uCOS-II\Source/os_core.c **** * Returns    : none
1352:..\..\..\..\..\..\Software\uCOS-II\Source/os_core.c **** ***************************************************************************************************
1353:..\..\..\..\..\..\Software\uCOS-II\Source/os_core.c **** */
1354:..\..\..\..\..\..\Software\uCOS-II\Source/os_core.c **** 
1355:..\..\..\..\..\..\Software\uCOS-II\Source/os_core.c **** static  void  OS_InitMisc (void)
1356:..\..\..\..\..\..\Software\uCOS-II\Source/os_core.c **** {
 1634              		.loc 1 1356 0
 1635              		.cfi_startproc
 1636              		@ args = 0, pretend = 0, frame = 0
 1637              		@ frame_needed = 1, uses_anonymous_args = 0
 1638 0000 80B5     		push	{r7, lr}
 1639              		.cfi_def_cfa_offset 8
 1640              		.cfi_offset 7, -8
 1641              		.cfi_offset 14, -4
 1642 0002 00AF     		add	r7, sp, #0
 1643              		.cfi_def_cfa_register 7
1357:..\..\..\..\..\..\Software\uCOS-II\Source/os_core.c **** #if OS_TIME_GET_SET_EN > 0u
1358:..\..\..\..\..\..\Software\uCOS-II\Source/os_core.c ****     OSTime                    = 0uL;                       /* Clear the 32-bit system clock        
 1644              		.loc 1 1358 0
 1645 0004 114B     		ldr	r3, .L80
 1646 0006 0022     		movs	r2, #0
 1647 0008 1A60     		str	r2, [r3]
1359:..\..\..\..\..\..\Software\uCOS-II\Source/os_core.c **** #endif
1360:..\..\..\..\..\..\Software\uCOS-II\Source/os_core.c **** 
1361:..\..\..\..\..\..\Software\uCOS-II\Source/os_core.c ****     OSIntNesting              = 0u;                        /* Clear the interrupt nesting counter  
 1648              		.loc 1 1361 0
 1649 000a 114B     		ldr	r3, .L80+4
 1650 000c 0022     		movs	r2, #0
 1651 000e 1A70     		strb	r2, [r3]
ARM GAS  C:\Users\EDULU~1.DES\AppData\Local\Temp\ccKclfbr.s 			page 54


1362:..\..\..\..\..\..\Software\uCOS-II\Source/os_core.c ****     OSLockNesting             = 0u;                        /* Clear the scheduling lock counter    
 1652              		.loc 1 1362 0
 1653 0010 104B     		ldr	r3, .L80+8
 1654 0012 0022     		movs	r2, #0
 1655 0014 1A70     		strb	r2, [r3]
1363:..\..\..\..\..\..\Software\uCOS-II\Source/os_core.c **** 
1364:..\..\..\..\..\..\Software\uCOS-II\Source/os_core.c ****     OSTaskCtr                 = 0u;                        /* Clear the number of tasks            
 1656              		.loc 1 1364 0
 1657 0016 104B     		ldr	r3, .L80+12
 1658 0018 0022     		movs	r2, #0
 1659 001a 1A70     		strb	r2, [r3]
1365:..\..\..\..\..\..\Software\uCOS-II\Source/os_core.c **** 
1366:..\..\..\..\..\..\Software\uCOS-II\Source/os_core.c ****     OSRunning                 = OS_FALSE;                  /* Indicate that multitasking not starte
 1660              		.loc 1 1366 0
 1661 001c 0F4B     		ldr	r3, .L80+16
 1662 001e 0022     		movs	r2, #0
 1663 0020 1A70     		strb	r2, [r3]
1367:..\..\..\..\..\..\Software\uCOS-II\Source/os_core.c **** 
1368:..\..\..\..\..\..\Software\uCOS-II\Source/os_core.c ****     OSCtxSwCtr                = 0u;                        /* Clear the context switch counter     
 1664              		.loc 1 1368 0
 1665 0022 0F4B     		ldr	r3, .L80+20
 1666 0024 0022     		movs	r2, #0
 1667 0026 1A60     		str	r2, [r3]
1369:..\..\..\..\..\..\Software\uCOS-II\Source/os_core.c ****     OSIdleCtr                 = 0uL;                       /* Clear the 32-bit idle counter        
 1668              		.loc 1 1369 0
 1669 0028 0E4B     		ldr	r3, .L80+24
 1670 002a 0022     		movs	r2, #0
 1671 002c 1A60     		str	r2, [r3]
1370:..\..\..\..\..\..\Software\uCOS-II\Source/os_core.c **** 
1371:..\..\..\..\..\..\Software\uCOS-II\Source/os_core.c **** #if OS_TASK_STAT_EN > 0u
1372:..\..\..\..\..\..\Software\uCOS-II\Source/os_core.c ****     OSIdleCtrRun              = 0uL;
 1672              		.loc 1 1372 0
 1673 002e 0E4B     		ldr	r3, .L80+28
 1674 0030 0022     		movs	r2, #0
 1675 0032 1A60     		str	r2, [r3]
1373:..\..\..\..\..\..\Software\uCOS-II\Source/os_core.c ****     OSIdleCtrMax              = 0uL;
 1676              		.loc 1 1373 0
 1677 0034 0D4B     		ldr	r3, .L80+32
 1678 0036 0022     		movs	r2, #0
 1679 0038 1A60     		str	r2, [r3]
1374:..\..\..\..\..\..\Software\uCOS-II\Source/os_core.c ****     OSStatRdy                 = OS_FALSE;                  /* Statistic task is not ready          
 1680              		.loc 1 1374 0
 1681 003a 0D4B     		ldr	r3, .L80+36
 1682 003c 0022     		movs	r2, #0
 1683 003e 1A70     		strb	r2, [r3]
1375:..\..\..\..\..\..\Software\uCOS-II\Source/os_core.c **** #endif
1376:..\..\..\..\..\..\Software\uCOS-II\Source/os_core.c **** 
1377:..\..\..\..\..\..\Software\uCOS-II\Source/os_core.c **** #ifdef OS_SAFETY_CRITICAL_IEC61508
1378:..\..\..\..\..\..\Software\uCOS-II\Source/os_core.c ****     OSSafetyCriticalStartFlag = OS_FALSE;                  /* Still allow creation of objects      
1379:..\..\..\..\..\..\Software\uCOS-II\Source/os_core.c **** #endif
1380:..\..\..\..\..\..\Software\uCOS-II\Source/os_core.c **** 
1381:..\..\..\..\..\..\Software\uCOS-II\Source/os_core.c **** #if OS_TASK_REG_TBL_SIZE > 0u
1382:..\..\..\..\..\..\Software\uCOS-II\Source/os_core.c ****     OSTaskRegNextAvailID      = 0u;                        /* Initialize the task register ID      
 1684              		.loc 1 1382 0
 1685 0040 0C4B     		ldr	r3, .L80+40
 1686 0042 0022     		movs	r2, #0
 1687 0044 1A70     		strb	r2, [r3]
ARM GAS  C:\Users\EDULU~1.DES\AppData\Local\Temp\ccKclfbr.s 			page 55


1383:..\..\..\..\..\..\Software\uCOS-II\Source/os_core.c **** #endif
1384:..\..\..\..\..\..\Software\uCOS-II\Source/os_core.c **** }
 1688              		.loc 1 1384 0
 1689 0046 C046     		nop
 1690 0048 BD46     		mov	sp, r7
 1691              		@ sp needed
 1692 004a 80BD     		pop	{r7, pc}
 1693              	.L81:
 1694              		.align	2
 1695              	.L80:
 1696 004c 00000000 		.word	OSTime
 1697 0050 00000000 		.word	OSIntNesting
 1698 0054 00000000 		.word	OSLockNesting
 1699 0058 00000000 		.word	OSTaskCtr
 1700 005c 00000000 		.word	OSRunning
 1701 0060 00000000 		.word	OSCtxSwCtr
 1702 0064 00000000 		.word	OSIdleCtr
 1703 0068 00000000 		.word	OSIdleCtrRun
 1704 006c 00000000 		.word	OSIdleCtrMax
 1705 0070 00000000 		.word	OSStatRdy
 1706 0074 00000000 		.word	OSTaskRegNextAvailID
 1707              		.cfi_endproc
 1708              	.LFE15:
 1709              		.size	OS_InitMisc, .-OS_InitMisc
 1710              		.section	.text.OS_InitRdyList,"ax",%progbits
 1711              		.align	2
 1712              		.code	16
 1713              		.thumb_func
 1714              		.type	OS_InitRdyList, %function
 1715              	OS_InitRdyList:
 1716              	.LFB16:
1385:..\..\..\..\..\..\Software\uCOS-II\Source/os_core.c **** /*$PAGE*/
1386:..\..\..\..\..\..\Software\uCOS-II\Source/os_core.c **** /*
1387:..\..\..\..\..\..\Software\uCOS-II\Source/os_core.c **** ***************************************************************************************************
1388:..\..\..\..\..\..\Software\uCOS-II\Source/os_core.c **** *                                             INITIALIZATION
1389:..\..\..\..\..\..\Software\uCOS-II\Source/os_core.c **** *                                       INITIALIZE THE READY LIST
1390:..\..\..\..\..\..\Software\uCOS-II\Source/os_core.c **** *
1391:..\..\..\..\..\..\Software\uCOS-II\Source/os_core.c **** * Description: This function is called by OSInit() to initialize the Ready List.
1392:..\..\..\..\..\..\Software\uCOS-II\Source/os_core.c **** *
1393:..\..\..\..\..\..\Software\uCOS-II\Source/os_core.c **** * Arguments  : none
1394:..\..\..\..\..\..\Software\uCOS-II\Source/os_core.c **** *
1395:..\..\..\..\..\..\Software\uCOS-II\Source/os_core.c **** * Returns    : none
1396:..\..\..\..\..\..\Software\uCOS-II\Source/os_core.c **** ***************************************************************************************************
1397:..\..\..\..\..\..\Software\uCOS-II\Source/os_core.c **** */
1398:..\..\..\..\..\..\Software\uCOS-II\Source/os_core.c **** 
1399:..\..\..\..\..\..\Software\uCOS-II\Source/os_core.c **** static  void  OS_InitRdyList (void)
1400:..\..\..\..\..\..\Software\uCOS-II\Source/os_core.c **** {
 1717              		.loc 1 1400 0
 1718              		.cfi_startproc
 1719              		@ args = 0, pretend = 0, frame = 8
 1720              		@ frame_needed = 1, uses_anonymous_args = 0
 1721 0000 80B5     		push	{r7, lr}
 1722              		.cfi_def_cfa_offset 8
 1723              		.cfi_offset 7, -8
 1724              		.cfi_offset 14, -4
 1725 0002 82B0     		sub	sp, sp, #8
 1726              		.cfi_def_cfa_offset 16
ARM GAS  C:\Users\EDULU~1.DES\AppData\Local\Temp\ccKclfbr.s 			page 56


 1727 0004 00AF     		add	r7, sp, #0
 1728              		.cfi_def_cfa_register 7
1401:..\..\..\..\..\..\Software\uCOS-II\Source/os_core.c ****     INT8U  i;
1402:..\..\..\..\..\..\Software\uCOS-II\Source/os_core.c **** 
1403:..\..\..\..\..\..\Software\uCOS-II\Source/os_core.c **** 
1404:..\..\..\..\..\..\Software\uCOS-II\Source/os_core.c ****     OSRdyGrp      = 0u;                                    /* Clear the ready list                 
 1729              		.loc 1 1404 0
 1730 0006 124B     		ldr	r3, .L85
 1731 0008 0022     		movs	r2, #0
 1732 000a 1A70     		strb	r2, [r3]
1405:..\..\..\..\..\..\Software\uCOS-II\Source/os_core.c ****     for (i = 0u; i < OS_RDY_TBL_SIZE; i++) {
 1733              		.loc 1 1405 0
 1734 000c FB1D     		adds	r3, r7, #7
 1735 000e 0022     		movs	r2, #0
 1736 0010 1A70     		strb	r2, [r3]
 1737 0012 09E0     		b	.L83
 1738              	.L84:
1406:..\..\..\..\..\..\Software\uCOS-II\Source/os_core.c ****         OSRdyTbl[i] = 0u;
 1739              		.loc 1 1406 0 discriminator 3
 1740 0014 FB1D     		adds	r3, r7, #7
 1741 0016 1B78     		ldrb	r3, [r3]
 1742 0018 0E4A     		ldr	r2, .L85+4
 1743 001a 0021     		movs	r1, #0
 1744 001c D154     		strb	r1, [r2, r3]
1405:..\..\..\..\..\..\Software\uCOS-II\Source/os_core.c ****     for (i = 0u; i < OS_RDY_TBL_SIZE; i++) {
 1745              		.loc 1 1405 0 discriminator 3
 1746 001e FB1D     		adds	r3, r7, #7
 1747 0020 1A78     		ldrb	r2, [r3]
 1748 0022 FB1D     		adds	r3, r7, #7
 1749 0024 0132     		adds	r2, r2, #1
 1750 0026 1A70     		strb	r2, [r3]
 1751              	.L83:
1405:..\..\..\..\..\..\Software\uCOS-II\Source/os_core.c ****     for (i = 0u; i < OS_RDY_TBL_SIZE; i++) {
 1752              		.loc 1 1405 0 is_stmt 0 discriminator 1
 1753 0028 FB1D     		adds	r3, r7, #7
 1754 002a 1B78     		ldrb	r3, [r3]
 1755 002c 032B     		cmp	r3, #3
 1756 002e F1D9     		bls	.L84
1407:..\..\..\..\..\..\Software\uCOS-II\Source/os_core.c ****     }
1408:..\..\..\..\..\..\Software\uCOS-II\Source/os_core.c **** 
1409:..\..\..\..\..\..\Software\uCOS-II\Source/os_core.c ****     OSPrioCur     = 0u;
 1757              		.loc 1 1409 0 is_stmt 1
 1758 0030 094B     		ldr	r3, .L85+8
 1759 0032 0022     		movs	r2, #0
 1760 0034 1A70     		strb	r2, [r3]
1410:..\..\..\..\..\..\Software\uCOS-II\Source/os_core.c ****     OSPrioHighRdy = 0u;
 1761              		.loc 1 1410 0
 1762 0036 094B     		ldr	r3, .L85+12
 1763 0038 0022     		movs	r2, #0
 1764 003a 1A70     		strb	r2, [r3]
1411:..\..\..\..\..\..\Software\uCOS-II\Source/os_core.c **** 
1412:..\..\..\..\..\..\Software\uCOS-II\Source/os_core.c ****     OSTCBHighRdy  = (OS_TCB *)0;
 1765              		.loc 1 1412 0
 1766 003c 084B     		ldr	r3, .L85+16
 1767 003e 0022     		movs	r2, #0
 1768 0040 1A60     		str	r2, [r3]
1413:..\..\..\..\..\..\Software\uCOS-II\Source/os_core.c ****     OSTCBCur      = (OS_TCB *)0;
ARM GAS  C:\Users\EDULU~1.DES\AppData\Local\Temp\ccKclfbr.s 			page 57


 1769              		.loc 1 1413 0
 1770 0042 084B     		ldr	r3, .L85+20
 1771 0044 0022     		movs	r2, #0
 1772 0046 1A60     		str	r2, [r3]
1414:..\..\..\..\..\..\Software\uCOS-II\Source/os_core.c **** }
 1773              		.loc 1 1414 0
 1774 0048 C046     		nop
 1775 004a BD46     		mov	sp, r7
 1776 004c 02B0     		add	sp, sp, #8
 1777              		@ sp needed
 1778 004e 80BD     		pop	{r7, pc}
 1779              	.L86:
 1780              		.align	2
 1781              	.L85:
 1782 0050 00000000 		.word	OSRdyGrp
 1783 0054 00000000 		.word	OSRdyTbl
 1784 0058 00000000 		.word	OSPrioCur
 1785 005c 00000000 		.word	OSPrioHighRdy
 1786 0060 00000000 		.word	OSTCBHighRdy
 1787 0064 00000000 		.word	OSTCBCur
 1788              		.cfi_endproc
 1789              	.LFE16:
 1790              		.size	OS_InitRdyList, .-OS_InitRdyList
 1791              		.section	.text.OS_InitTaskIdle,"ax",%progbits
 1792              		.align	2
 1793              		.code	16
 1794              		.thumb_func
 1795              		.type	OS_InitTaskIdle, %function
 1796              	OS_InitTaskIdle:
 1797              	.LFB17:
1415:..\..\..\..\..\..\Software\uCOS-II\Source/os_core.c **** 
1416:..\..\..\..\..\..\Software\uCOS-II\Source/os_core.c **** /*$PAGE*/
1417:..\..\..\..\..\..\Software\uCOS-II\Source/os_core.c **** /*
1418:..\..\..\..\..\..\Software\uCOS-II\Source/os_core.c **** ***************************************************************************************************
1419:..\..\..\..\..\..\Software\uCOS-II\Source/os_core.c **** *                                             INITIALIZATION
1420:..\..\..\..\..\..\Software\uCOS-II\Source/os_core.c **** *                                         CREATING THE IDLE TASK
1421:..\..\..\..\..\..\Software\uCOS-II\Source/os_core.c **** *
1422:..\..\..\..\..\..\Software\uCOS-II\Source/os_core.c **** * Description: This function creates the Idle Task.
1423:..\..\..\..\..\..\Software\uCOS-II\Source/os_core.c **** *
1424:..\..\..\..\..\..\Software\uCOS-II\Source/os_core.c **** * Arguments  : none
1425:..\..\..\..\..\..\Software\uCOS-II\Source/os_core.c **** *
1426:..\..\..\..\..\..\Software\uCOS-II\Source/os_core.c **** * Returns    : none
1427:..\..\..\..\..\..\Software\uCOS-II\Source/os_core.c **** ***************************************************************************************************
1428:..\..\..\..\..\..\Software\uCOS-II\Source/os_core.c **** */
1429:..\..\..\..\..\..\Software\uCOS-II\Source/os_core.c **** 
1430:..\..\..\..\..\..\Software\uCOS-II\Source/os_core.c **** static  void  OS_InitTaskIdle (void)
1431:..\..\..\..\..\..\Software\uCOS-II\Source/os_core.c **** {
 1798              		.loc 1 1431 0
 1799              		.cfi_startproc
 1800              		@ args = 0, pretend = 0, frame = 0
 1801              		@ frame_needed = 1, uses_anonymous_args = 0
 1802 0000 80B5     		push	{r7, lr}
 1803              		.cfi_def_cfa_offset 8
 1804              		.cfi_offset 7, -8
 1805              		.cfi_offset 14, -4
 1806 0002 86B0     		sub	sp, sp, #24
 1807              		.cfi_def_cfa_offset 32
ARM GAS  C:\Users\EDULU~1.DES\AppData\Local\Temp\ccKclfbr.s 			page 58


 1808 0004 06AF     		add	r7, sp, #24
 1809              		.cfi_def_cfa 7, 8
1432:..\..\..\..\..\..\Software\uCOS-II\Source/os_core.c **** #if OS_TASK_NAME_EN > 0u
1433:..\..\..\..\..\..\Software\uCOS-II\Source/os_core.c ****     INT8U  err;
1434:..\..\..\..\..\..\Software\uCOS-II\Source/os_core.c **** #endif
1435:..\..\..\..\..\..\Software\uCOS-II\Source/os_core.c **** 
1436:..\..\..\..\..\..\Software\uCOS-II\Source/os_core.c **** 
1437:..\..\..\..\..\..\Software\uCOS-II\Source/os_core.c **** #if OS_TASK_CREATE_EXT_EN > 0u
1438:..\..\..\..\..\..\Software\uCOS-II\Source/os_core.c ****     #if OS_STK_GROWTH == 1u
1439:..\..\..\..\..\..\Software\uCOS-II\Source/os_core.c ****     (void)OSTaskCreateExt(OS_TaskIdle,
 1810              		.loc 1 1439 0
 1811 0006 094A     		ldr	r2, .L88
 1812 0008 0948     		ldr	r0, .L88+4
 1813 000a 0323     		movs	r3, #3
 1814 000c 0493     		str	r3, [sp, #16]
 1815 000e 0023     		movs	r3, #0
 1816 0010 0393     		str	r3, [sp, #12]
 1817 0012 8023     		movs	r3, #128
 1818 0014 0293     		str	r3, [sp, #8]
 1819 0016 074B     		ldr	r3, .L88+8
 1820 0018 0193     		str	r3, [sp, #4]
 1821 001a 074B     		ldr	r3, .L88+12
 1822 001c 0093     		str	r3, [sp]
 1823 001e 1F23     		movs	r3, #31
 1824 0020 0021     		movs	r1, #0
 1825 0022 FFF7FEFF 		bl	OSTaskCreateExt
1440:..\..\..\..\..\..\Software\uCOS-II\Source/os_core.c ****                           (void *)0,                                 /* No arguments passed to OS_T
1441:..\..\..\..\..\..\Software\uCOS-II\Source/os_core.c ****                           &OSTaskIdleStk[OS_TASK_IDLE_STK_SIZE - 1u],/* Set Top-Of-Stack           
1442:..\..\..\..\..\..\Software\uCOS-II\Source/os_core.c ****                           OS_TASK_IDLE_PRIO,                         /* Lowest priority level      
1443:..\..\..\..\..\..\Software\uCOS-II\Source/os_core.c ****                           OS_TASK_IDLE_ID,
1444:..\..\..\..\..\..\Software\uCOS-II\Source/os_core.c ****                           &OSTaskIdleStk[0],                         /* Set Bottom-Of-Stack        
1445:..\..\..\..\..\..\Software\uCOS-II\Source/os_core.c ****                           OS_TASK_IDLE_STK_SIZE,
1446:..\..\..\..\..\..\Software\uCOS-II\Source/os_core.c ****                           (void *)0,                                 /* No TCB extension           
1447:..\..\..\..\..\..\Software\uCOS-II\Source/os_core.c ****                           OS_TASK_OPT_STK_CHK | OS_TASK_OPT_STK_CLR);/* Enable stack checking + cle
1448:..\..\..\..\..\..\Software\uCOS-II\Source/os_core.c ****     #else
1449:..\..\..\..\..\..\Software\uCOS-II\Source/os_core.c ****     (void)OSTaskCreateExt(OS_TaskIdle,
1450:..\..\..\..\..\..\Software\uCOS-II\Source/os_core.c ****                           (void *)0,                                 /* No arguments passed to OS_T
1451:..\..\..\..\..\..\Software\uCOS-II\Source/os_core.c ****                           &OSTaskIdleStk[0],                         /* Set Top-Of-Stack           
1452:..\..\..\..\..\..\Software\uCOS-II\Source/os_core.c ****                           OS_TASK_IDLE_PRIO,                         /* Lowest priority level      
1453:..\..\..\..\..\..\Software\uCOS-II\Source/os_core.c ****                           OS_TASK_IDLE_ID,
1454:..\..\..\..\..\..\Software\uCOS-II\Source/os_core.c ****                           &OSTaskIdleStk[OS_TASK_IDLE_STK_SIZE - 1u],/* Set Bottom-Of-Stack        
1455:..\..\..\..\..\..\Software\uCOS-II\Source/os_core.c ****                           OS_TASK_IDLE_STK_SIZE,
1456:..\..\..\..\..\..\Software\uCOS-II\Source/os_core.c ****                           (void *)0,                                 /* No TCB extension           
1457:..\..\..\..\..\..\Software\uCOS-II\Source/os_core.c ****                           OS_TASK_OPT_STK_CHK | OS_TASK_OPT_STK_CLR);/* Enable stack checking + cle
1458:..\..\..\..\..\..\Software\uCOS-II\Source/os_core.c ****     #endif
1459:..\..\..\..\..\..\Software\uCOS-II\Source/os_core.c **** #else
1460:..\..\..\..\..\..\Software\uCOS-II\Source/os_core.c ****     #if OS_STK_GROWTH == 1u
1461:..\..\..\..\..\..\Software\uCOS-II\Source/os_core.c ****     (void)OSTaskCreate(OS_TaskIdle,
1462:..\..\..\..\..\..\Software\uCOS-II\Source/os_core.c ****                        (void *)0,
1463:..\..\..\..\..\..\Software\uCOS-II\Source/os_core.c ****                        &OSTaskIdleStk[OS_TASK_IDLE_STK_SIZE - 1u],
1464:..\..\..\..\..\..\Software\uCOS-II\Source/os_core.c ****                        OS_TASK_IDLE_PRIO);
1465:..\..\..\..\..\..\Software\uCOS-II\Source/os_core.c ****     #else
1466:..\..\..\..\..\..\Software\uCOS-II\Source/os_core.c ****     (void)OSTaskCreate(OS_TaskIdle,
1467:..\..\..\..\..\..\Software\uCOS-II\Source/os_core.c ****                        (void *)0,
1468:..\..\..\..\..\..\Software\uCOS-II\Source/os_core.c ****                        &OSTaskIdleStk[0],
1469:..\..\..\..\..\..\Software\uCOS-II\Source/os_core.c ****                        OS_TASK_IDLE_PRIO);
1470:..\..\..\..\..\..\Software\uCOS-II\Source/os_core.c ****     #endif
ARM GAS  C:\Users\EDULU~1.DES\AppData\Local\Temp\ccKclfbr.s 			page 59


1471:..\..\..\..\..\..\Software\uCOS-II\Source/os_core.c **** #endif
1472:..\..\..\..\..\..\Software\uCOS-II\Source/os_core.c **** 
1473:..\..\..\..\..\..\Software\uCOS-II\Source/os_core.c **** #if OS_TASK_NAME_EN > 0u
1474:..\..\..\..\..\..\Software\uCOS-II\Source/os_core.c ****     OSTaskNameSet(OS_TASK_IDLE_PRIO, (INT8U *)(void *)"uC/OS-II Idle", &err);
1475:..\..\..\..\..\..\Software\uCOS-II\Source/os_core.c **** #endif
1476:..\..\..\..\..\..\Software\uCOS-II\Source/os_core.c **** }
 1826              		.loc 1 1476 0
 1827 0026 C046     		nop
 1828 0028 BD46     		mov	sp, r7
 1829              		@ sp needed
 1830 002a 80BD     		pop	{r7, pc}
 1831              	.L89:
 1832              		.align	2
 1833              	.L88:
 1834 002c FC010000 		.word	OSTaskIdleStk+508
 1835 0030 00000000 		.word	OS_TaskIdle
 1836 0034 00000000 		.word	OSTaskIdleStk
 1837 0038 FFFF0000 		.word	65535
 1838              		.cfi_endproc
 1839              	.LFE17:
 1840              		.size	OS_InitTaskIdle, .-OS_InitTaskIdle
 1841              		.section	.text.OS_InitTaskStat,"ax",%progbits
 1842              		.align	2
 1843              		.code	16
 1844              		.thumb_func
 1845              		.type	OS_InitTaskStat, %function
 1846              	OS_InitTaskStat:
 1847              	.LFB18:
1477:..\..\..\..\..\..\Software\uCOS-II\Source/os_core.c **** /*$PAGE*/
1478:..\..\..\..\..\..\Software\uCOS-II\Source/os_core.c **** /*
1479:..\..\..\..\..\..\Software\uCOS-II\Source/os_core.c **** ***************************************************************************************************
1480:..\..\..\..\..\..\Software\uCOS-II\Source/os_core.c **** *                                             INITIALIZATION
1481:..\..\..\..\..\..\Software\uCOS-II\Source/os_core.c **** *                                      CREATING THE STATISTIC TASK
1482:..\..\..\..\..\..\Software\uCOS-II\Source/os_core.c **** *
1483:..\..\..\..\..\..\Software\uCOS-II\Source/os_core.c **** * Description: This function creates the Statistic Task.
1484:..\..\..\..\..\..\Software\uCOS-II\Source/os_core.c **** *
1485:..\..\..\..\..\..\Software\uCOS-II\Source/os_core.c **** * Arguments  : none
1486:..\..\..\..\..\..\Software\uCOS-II\Source/os_core.c **** *
1487:..\..\..\..\..\..\Software\uCOS-II\Source/os_core.c **** * Returns    : none
1488:..\..\..\..\..\..\Software\uCOS-II\Source/os_core.c **** ***************************************************************************************************
1489:..\..\..\..\..\..\Software\uCOS-II\Source/os_core.c **** */
1490:..\..\..\..\..\..\Software\uCOS-II\Source/os_core.c **** 
1491:..\..\..\..\..\..\Software\uCOS-II\Source/os_core.c **** #if OS_TASK_STAT_EN > 0u
1492:..\..\..\..\..\..\Software\uCOS-II\Source/os_core.c **** static  void  OS_InitTaskStat (void)
1493:..\..\..\..\..\..\Software\uCOS-II\Source/os_core.c **** {
 1848              		.loc 1 1493 0
 1849              		.cfi_startproc
 1850              		@ args = 0, pretend = 0, frame = 0
 1851              		@ frame_needed = 1, uses_anonymous_args = 0
 1852 0000 80B5     		push	{r7, lr}
 1853              		.cfi_def_cfa_offset 8
 1854              		.cfi_offset 7, -8
 1855              		.cfi_offset 14, -4
 1856 0002 86B0     		sub	sp, sp, #24
 1857              		.cfi_def_cfa_offset 32
 1858 0004 06AF     		add	r7, sp, #24
 1859              		.cfi_def_cfa 7, 8
ARM GAS  C:\Users\EDULU~1.DES\AppData\Local\Temp\ccKclfbr.s 			page 60


1494:..\..\..\..\..\..\Software\uCOS-II\Source/os_core.c **** #if OS_TASK_NAME_EN > 0u
1495:..\..\..\..\..\..\Software\uCOS-II\Source/os_core.c ****     INT8U  err;
1496:..\..\..\..\..\..\Software\uCOS-II\Source/os_core.c **** #endif
1497:..\..\..\..\..\..\Software\uCOS-II\Source/os_core.c **** 
1498:..\..\..\..\..\..\Software\uCOS-II\Source/os_core.c **** 
1499:..\..\..\..\..\..\Software\uCOS-II\Source/os_core.c **** #if OS_TASK_CREATE_EXT_EN > 0u
1500:..\..\..\..\..\..\Software\uCOS-II\Source/os_core.c ****     #if OS_STK_GROWTH == 1u
1501:..\..\..\..\..\..\Software\uCOS-II\Source/os_core.c ****     (void)OSTaskCreateExt(OS_TaskStat,
 1860              		.loc 1 1501 0
 1861 0006 094A     		ldr	r2, .L91
 1862 0008 0948     		ldr	r0, .L91+4
 1863 000a 0323     		movs	r3, #3
 1864 000c 0493     		str	r3, [sp, #16]
 1865 000e 0023     		movs	r3, #0
 1866 0010 0393     		str	r3, [sp, #12]
 1867 0012 8023     		movs	r3, #128
 1868 0014 0293     		str	r3, [sp, #8]
 1869 0016 074B     		ldr	r3, .L91+8
 1870 0018 0193     		str	r3, [sp, #4]
 1871 001a 074B     		ldr	r3, .L91+12
 1872 001c 0093     		str	r3, [sp]
 1873 001e 1E23     		movs	r3, #30
 1874 0020 0021     		movs	r1, #0
 1875 0022 FFF7FEFF 		bl	OSTaskCreateExt
1502:..\..\..\..\..\..\Software\uCOS-II\Source/os_core.c ****                           (void *)0,                                   /* No args passed to OS_Task
1503:..\..\..\..\..\..\Software\uCOS-II\Source/os_core.c ****                           &OSTaskStatStk[OS_TASK_STAT_STK_SIZE - 1u],  /* Set Top-Of-Stack         
1504:..\..\..\..\..\..\Software\uCOS-II\Source/os_core.c ****                           OS_TASK_STAT_PRIO,                           /* One higher than the idle 
1505:..\..\..\..\..\..\Software\uCOS-II\Source/os_core.c ****                           OS_TASK_STAT_ID,
1506:..\..\..\..\..\..\Software\uCOS-II\Source/os_core.c ****                           &OSTaskStatStk[0],                           /* Set Bottom-Of-Stack      
1507:..\..\..\..\..\..\Software\uCOS-II\Source/os_core.c ****                           OS_TASK_STAT_STK_SIZE,
1508:..\..\..\..\..\..\Software\uCOS-II\Source/os_core.c ****                           (void *)0,                                   /* No TCB extension         
1509:..\..\..\..\..\..\Software\uCOS-II\Source/os_core.c ****                           OS_TASK_OPT_STK_CHK | OS_TASK_OPT_STK_CLR);  /* Enable stack checking + c
1510:..\..\..\..\..\..\Software\uCOS-II\Source/os_core.c ****     #else
1511:..\..\..\..\..\..\Software\uCOS-II\Source/os_core.c ****     (void)OSTaskCreateExt(OS_TaskStat,
1512:..\..\..\..\..\..\Software\uCOS-II\Source/os_core.c ****                           (void *)0,                                   /* No args passed to OS_Task
1513:..\..\..\..\..\..\Software\uCOS-II\Source/os_core.c ****                           &OSTaskStatStk[0],                           /* Set Top-Of-Stack         
1514:..\..\..\..\..\..\Software\uCOS-II\Source/os_core.c ****                           OS_TASK_STAT_PRIO,                           /* One higher than the idle 
1515:..\..\..\..\..\..\Software\uCOS-II\Source/os_core.c ****                           OS_TASK_STAT_ID,
1516:..\..\..\..\..\..\Software\uCOS-II\Source/os_core.c ****                           &OSTaskStatStk[OS_TASK_STAT_STK_SIZE - 1u],  /* Set Bottom-Of-Stack      
1517:..\..\..\..\..\..\Software\uCOS-II\Source/os_core.c ****                           OS_TASK_STAT_STK_SIZE,
1518:..\..\..\..\..\..\Software\uCOS-II\Source/os_core.c ****                           (void *)0,                                   /* No TCB extension         
1519:..\..\..\..\..\..\Software\uCOS-II\Source/os_core.c ****                           OS_TASK_OPT_STK_CHK | OS_TASK_OPT_STK_CLR);  /* Enable stack checking + c
1520:..\..\..\..\..\..\Software\uCOS-II\Source/os_core.c ****     #endif
1521:..\..\..\..\..\..\Software\uCOS-II\Source/os_core.c **** #else
1522:..\..\..\..\..\..\Software\uCOS-II\Source/os_core.c ****     #if OS_STK_GROWTH == 1u
1523:..\..\..\..\..\..\Software\uCOS-II\Source/os_core.c ****     (void)OSTaskCreate(OS_TaskStat,
1524:..\..\..\..\..\..\Software\uCOS-II\Source/os_core.c ****                        (void *)0,                                      /* No args passed to OS_Task
1525:..\..\..\..\..\..\Software\uCOS-II\Source/os_core.c ****                        &OSTaskStatStk[OS_TASK_STAT_STK_SIZE - 1u],     /* Set Top-Of-Stack         
1526:..\..\..\..\..\..\Software\uCOS-II\Source/os_core.c ****                        OS_TASK_STAT_PRIO);                             /* One higher than the idle 
1527:..\..\..\..\..\..\Software\uCOS-II\Source/os_core.c ****     #else
1528:..\..\..\..\..\..\Software\uCOS-II\Source/os_core.c ****     (void)OSTaskCreate(OS_TaskStat,
1529:..\..\..\..\..\..\Software\uCOS-II\Source/os_core.c ****                        (void *)0,                                      /* No args passed to OS_Task
1530:..\..\..\..\..\..\Software\uCOS-II\Source/os_core.c ****                        &OSTaskStatStk[0],                              /* Set Top-Of-Stack         
1531:..\..\..\..\..\..\Software\uCOS-II\Source/os_core.c ****                        OS_TASK_STAT_PRIO);                             /* One higher than the idle 
1532:..\..\..\..\..\..\Software\uCOS-II\Source/os_core.c ****     #endif
1533:..\..\..\..\..\..\Software\uCOS-II\Source/os_core.c **** #endif
1534:..\..\..\..\..\..\Software\uCOS-II\Source/os_core.c **** 
ARM GAS  C:\Users\EDULU~1.DES\AppData\Local\Temp\ccKclfbr.s 			page 61


1535:..\..\..\..\..\..\Software\uCOS-II\Source/os_core.c **** #if OS_TASK_NAME_EN > 0u
1536:..\..\..\..\..\..\Software\uCOS-II\Source/os_core.c ****     OSTaskNameSet(OS_TASK_STAT_PRIO, (INT8U *)(void *)"uC/OS-II Stat", &err);
1537:..\..\..\..\..\..\Software\uCOS-II\Source/os_core.c **** #endif
1538:..\..\..\..\..\..\Software\uCOS-II\Source/os_core.c **** }
 1876              		.loc 1 1538 0
 1877 0026 C046     		nop
 1878 0028 BD46     		mov	sp, r7
 1879              		@ sp needed
 1880 002a 80BD     		pop	{r7, pc}
 1881              	.L92:
 1882              		.align	2
 1883              	.L91:
 1884 002c FC010000 		.word	OSTaskStatStk+508
 1885 0030 00000000 		.word	OS_TaskStat
 1886 0034 00000000 		.word	OSTaskStatStk
 1887 0038 FEFF0000 		.word	65534
 1888              		.cfi_endproc
 1889              	.LFE18:
 1890              		.size	OS_InitTaskStat, .-OS_InitTaskStat
 1891              		.section	.text.OS_InitTCBList,"ax",%progbits
 1892              		.align	2
 1893              		.code	16
 1894              		.thumb_func
 1895              		.type	OS_InitTCBList, %function
 1896              	OS_InitTCBList:
 1897              	.LFB19:
1539:..\..\..\..\..\..\Software\uCOS-II\Source/os_core.c **** #endif
1540:..\..\..\..\..\..\Software\uCOS-II\Source/os_core.c **** /*$PAGE*/
1541:..\..\..\..\..\..\Software\uCOS-II\Source/os_core.c **** /*
1542:..\..\..\..\..\..\Software\uCOS-II\Source/os_core.c **** ***************************************************************************************************
1543:..\..\..\..\..\..\Software\uCOS-II\Source/os_core.c **** *                                             INITIALIZATION
1544:..\..\..\..\..\..\Software\uCOS-II\Source/os_core.c **** *                            INITIALIZE THE FREE LIST OF TASK CONTROL BLOCKS
1545:..\..\..\..\..\..\Software\uCOS-II\Source/os_core.c **** *
1546:..\..\..\..\..\..\Software\uCOS-II\Source/os_core.c **** * Description: This function is called by OSInit() to initialize the free list of OS_TCBs.
1547:..\..\..\..\..\..\Software\uCOS-II\Source/os_core.c **** *
1548:..\..\..\..\..\..\Software\uCOS-II\Source/os_core.c **** * Arguments  : none
1549:..\..\..\..\..\..\Software\uCOS-II\Source/os_core.c **** *
1550:..\..\..\..\..\..\Software\uCOS-II\Source/os_core.c **** * Returns    : none
1551:..\..\..\..\..\..\Software\uCOS-II\Source/os_core.c **** ***************************************************************************************************
1552:..\..\..\..\..\..\Software\uCOS-II\Source/os_core.c **** */
1553:..\..\..\..\..\..\Software\uCOS-II\Source/os_core.c **** 
1554:..\..\..\..\..\..\Software\uCOS-II\Source/os_core.c **** static  void  OS_InitTCBList (void)
1555:..\..\..\..\..\..\Software\uCOS-II\Source/os_core.c **** {
 1898              		.loc 1 1555 0
 1899              		.cfi_startproc
 1900              		@ args = 0, pretend = 0, frame = 16
 1901              		@ frame_needed = 1, uses_anonymous_args = 0
 1902 0000 80B5     		push	{r7, lr}
 1903              		.cfi_def_cfa_offset 8
 1904              		.cfi_offset 7, -8
 1905              		.cfi_offset 14, -4
 1906 0002 84B0     		sub	sp, sp, #16
 1907              		.cfi_def_cfa_offset 24
 1908 0004 00AF     		add	r7, sp, #0
 1909              		.cfi_def_cfa_register 7
1556:..\..\..\..\..\..\Software\uCOS-II\Source/os_core.c ****     INT8U    ix;
1557:..\..\..\..\..\..\Software\uCOS-II\Source/os_core.c ****     INT8U    ix_next;
ARM GAS  C:\Users\EDULU~1.DES\AppData\Local\Temp\ccKclfbr.s 			page 62


1558:..\..\..\..\..\..\Software\uCOS-II\Source/os_core.c ****     OS_TCB  *ptcb1;
1559:..\..\..\..\..\..\Software\uCOS-II\Source/os_core.c ****     OS_TCB  *ptcb2;
1560:..\..\..\..\..\..\Software\uCOS-II\Source/os_core.c **** 
1561:..\..\..\..\..\..\Software\uCOS-II\Source/os_core.c **** 
1562:..\..\..\..\..\..\Software\uCOS-II\Source/os_core.c ****     OS_MemClr((INT8U *)&OSTCBTbl[0],     sizeof(OSTCBTbl));      /* Clear all the TCBs             
 1910              		.loc 1 1562 0
 1911 0006 C023     		movs	r3, #192
 1912 0008 5A00     		lsls	r2, r3, #1
 1913 000a 284B     		ldr	r3, .L96
 1914 000c 1100     		movs	r1, r2
 1915 000e 1800     		movs	r0, r3
 1916 0010 FFF7FEFF 		bl	OS_MemClr
1563:..\..\..\..\..\..\Software\uCOS-II\Source/os_core.c ****     OS_MemClr((INT8U *)&OSTCBPrioTbl[0], sizeof(OSTCBPrioTbl));  /* Clear the priority table       
 1917              		.loc 1 1563 0
 1918 0014 264B     		ldr	r3, .L96+4
 1919 0016 8021     		movs	r1, #128
 1920 0018 1800     		movs	r0, r3
 1921 001a FFF7FEFF 		bl	OS_MemClr
1564:..\..\..\..\..\..\Software\uCOS-II\Source/os_core.c ****     for (ix = 0u; ix < (OS_MAX_TASKS + OS_N_SYS_TASKS - 1u); ix++) {    /* Init. list of free TCBs 
 1922              		.loc 1 1564 0
 1923 001e 0F23     		movs	r3, #15
 1924 0020 FB18     		adds	r3, r7, r3
 1925 0022 0022     		movs	r2, #0
 1926 0024 1A70     		strb	r2, [r3]
 1927 0026 24E0     		b	.L94
 1928              	.L95:
1565:..\..\..\..\..\..\Software\uCOS-II\Source/os_core.c ****         ix_next =  ix + 1u;
 1929              		.loc 1 1565 0 discriminator 3
 1930 0028 0E23     		movs	r3, #14
 1931 002a FB18     		adds	r3, r7, r3
 1932 002c 0F22     		movs	r2, #15
 1933 002e BA18     		adds	r2, r7, r2
 1934 0030 1278     		ldrb	r2, [r2]
 1935 0032 0132     		adds	r2, r2, #1
 1936 0034 1A70     		strb	r2, [r3]
1566:..\..\..\..\..\..\Software\uCOS-II\Source/os_core.c ****         ptcb1   = &OSTCBTbl[ix];
 1937              		.loc 1 1566 0 discriminator 3
 1938 0036 0F23     		movs	r3, #15
 1939 0038 FB18     		adds	r3, r7, r3
 1940 003a 1A78     		ldrb	r2, [r3]
 1941 003c 1300     		movs	r3, r2
 1942 003e 5B00     		lsls	r3, r3, #1
 1943 0040 9B18     		adds	r3, r3, r2
 1944 0042 1B01     		lsls	r3, r3, #4
 1945 0044 194A     		ldr	r2, .L96
 1946 0046 9B18     		adds	r3, r3, r2
 1947 0048 BB60     		str	r3, [r7, #8]
1567:..\..\..\..\..\..\Software\uCOS-II\Source/os_core.c ****         ptcb2   = &OSTCBTbl[ix_next];
 1948              		.loc 1 1567 0 discriminator 3
 1949 004a 0E23     		movs	r3, #14
 1950 004c FB18     		adds	r3, r7, r3
 1951 004e 1A78     		ldrb	r2, [r3]
 1952 0050 1300     		movs	r3, r2
 1953 0052 5B00     		lsls	r3, r3, #1
 1954 0054 9B18     		adds	r3, r3, r2
 1955 0056 1B01     		lsls	r3, r3, #4
 1956 0058 144A     		ldr	r2, .L96
ARM GAS  C:\Users\EDULU~1.DES\AppData\Local\Temp\ccKclfbr.s 			page 63


 1957 005a 9B18     		adds	r3, r3, r2
 1958 005c 7B60     		str	r3, [r7, #4]
1568:..\..\..\..\..\..\Software\uCOS-II\Source/os_core.c ****         ptcb1->OSTCBNext = ptcb2;
 1959              		.loc 1 1568 0 discriminator 3
 1960 005e BB68     		ldr	r3, [r7, #8]
 1961 0060 7A68     		ldr	r2, [r7, #4]
 1962 0062 5A61     		str	r2, [r3, #20]
1564:..\..\..\..\..\..\Software\uCOS-II\Source/os_core.c ****         ix_next =  ix + 1u;
 1963              		.loc 1 1564 0 discriminator 3
 1964 0064 0F23     		movs	r3, #15
 1965 0066 FB18     		adds	r3, r7, r3
 1966 0068 1A78     		ldrb	r2, [r3]
 1967 006a 0F23     		movs	r3, #15
 1968 006c FB18     		adds	r3, r7, r3
 1969 006e 0132     		adds	r2, r2, #1
 1970 0070 1A70     		strb	r2, [r3]
 1971              	.L94:
1564:..\..\..\..\..\..\Software\uCOS-II\Source/os_core.c ****         ix_next =  ix + 1u;
 1972              		.loc 1 1564 0 is_stmt 0 discriminator 1
 1973 0072 0F23     		movs	r3, #15
 1974 0074 FB18     		adds	r3, r7, r3
 1975 0076 1B78     		ldrb	r3, [r3]
 1976 0078 062B     		cmp	r3, #6
 1977 007a D5D9     		bls	.L95
1569:..\..\..\..\..\..\Software\uCOS-II\Source/os_core.c **** #if OS_TASK_NAME_EN > 0u
1570:..\..\..\..\..\..\Software\uCOS-II\Source/os_core.c ****         ptcb1->OSTCBTaskName = (INT8U *)(void *)"?";             /* Unknown name                   
1571:..\..\..\..\..\..\Software\uCOS-II\Source/os_core.c **** #endif
1572:..\..\..\..\..\..\Software\uCOS-II\Source/os_core.c ****     }
1573:..\..\..\..\..\..\Software\uCOS-II\Source/os_core.c ****     ptcb1                   = &OSTCBTbl[ix];
 1978              		.loc 1 1573 0 is_stmt 1
 1979 007c 0F23     		movs	r3, #15
 1980 007e FB18     		adds	r3, r7, r3
 1981 0080 1A78     		ldrb	r2, [r3]
 1982 0082 1300     		movs	r3, r2
 1983 0084 5B00     		lsls	r3, r3, #1
 1984 0086 9B18     		adds	r3, r3, r2
 1985 0088 1B01     		lsls	r3, r3, #4
 1986 008a 084A     		ldr	r2, .L96
 1987 008c 9B18     		adds	r3, r3, r2
 1988 008e BB60     		str	r3, [r7, #8]
1574:..\..\..\..\..\..\Software\uCOS-II\Source/os_core.c ****     ptcb1->OSTCBNext        = (OS_TCB *)0;                       /* Last OS_TCB                    
 1989              		.loc 1 1574 0
 1990 0090 BB68     		ldr	r3, [r7, #8]
 1991 0092 0022     		movs	r2, #0
 1992 0094 5A61     		str	r2, [r3, #20]
1575:..\..\..\..\..\..\Software\uCOS-II\Source/os_core.c **** #if OS_TASK_NAME_EN > 0u
1576:..\..\..\..\..\..\Software\uCOS-II\Source/os_core.c ****     ptcb1->OSTCBTaskName    = (INT8U *)(void *)"?";              /* Unknown name                   
1577:..\..\..\..\..\..\Software\uCOS-II\Source/os_core.c **** #endif
1578:..\..\..\..\..\..\Software\uCOS-II\Source/os_core.c ****     OSTCBList               = (OS_TCB *)0;                       /* TCB lists initializations      
 1993              		.loc 1 1578 0
 1994 0096 074B     		ldr	r3, .L96+8
 1995 0098 0022     		movs	r2, #0
 1996 009a 1A60     		str	r2, [r3]
1579:..\..\..\..\..\..\Software\uCOS-II\Source/os_core.c ****     OSTCBFreeList           = &OSTCBTbl[0];
 1997              		.loc 1 1579 0
 1998 009c 064B     		ldr	r3, .L96+12
 1999 009e 034A     		ldr	r2, .L96
ARM GAS  C:\Users\EDULU~1.DES\AppData\Local\Temp\ccKclfbr.s 			page 64


 2000 00a0 1A60     		str	r2, [r3]
1580:..\..\..\..\..\..\Software\uCOS-II\Source/os_core.c **** }
 2001              		.loc 1 1580 0
 2002 00a2 C046     		nop
 2003 00a4 BD46     		mov	sp, r7
 2004 00a6 04B0     		add	sp, sp, #16
 2005              		@ sp needed
 2006 00a8 80BD     		pop	{r7, pc}
 2007              	.L97:
 2008 00aa C046     		.align	2
 2009              	.L96:
 2010 00ac 00000000 		.word	OSTCBTbl
 2011 00b0 00000000 		.word	OSTCBPrioTbl
 2012 00b4 00000000 		.word	OSTCBList
 2013 00b8 00000000 		.word	OSTCBFreeList
 2014              		.cfi_endproc
 2015              	.LFE19:
 2016              		.size	OS_InitTCBList, .-OS_InitTCBList
 2017              		.section	.text.OS_MemClr,"ax",%progbits
 2018              		.align	2
 2019              		.global	OS_MemClr
 2020              		.code	16
 2021              		.thumb_func
 2022              		.type	OS_MemClr, %function
 2023              	OS_MemClr:
 2024              	.LFB20:
1581:..\..\..\..\..\..\Software\uCOS-II\Source/os_core.c **** /*$PAGE*/
1582:..\..\..\..\..\..\Software\uCOS-II\Source/os_core.c **** /*
1583:..\..\..\..\..\..\Software\uCOS-II\Source/os_core.c **** ***************************************************************************************************
1584:..\..\..\..\..\..\Software\uCOS-II\Source/os_core.c **** *                                      CLEAR A SECTION OF MEMORY
1585:..\..\..\..\..\..\Software\uCOS-II\Source/os_core.c **** *
1586:..\..\..\..\..\..\Software\uCOS-II\Source/os_core.c **** * Description: This function is called by other uC/OS-II services to clear a contiguous block of RA
1587:..\..\..\..\..\..\Software\uCOS-II\Source/os_core.c **** *
1588:..\..\..\..\..\..\Software\uCOS-II\Source/os_core.c **** * Arguments  : pdest    is the start of the RAM to clear (i.e. write 0x00 to)
1589:..\..\..\..\..\..\Software\uCOS-II\Source/os_core.c **** *
1590:..\..\..\..\..\..\Software\uCOS-II\Source/os_core.c **** *              size     is the number of bytes to clear.
1591:..\..\..\..\..\..\Software\uCOS-II\Source/os_core.c **** *
1592:..\..\..\..\..\..\Software\uCOS-II\Source/os_core.c **** * Returns    : none
1593:..\..\..\..\..\..\Software\uCOS-II\Source/os_core.c **** *
1594:..\..\..\..\..\..\Software\uCOS-II\Source/os_core.c **** * Notes      : 1) This function is INTERNAL to uC/OS-II and your application should not call it.
1595:..\..\..\..\..\..\Software\uCOS-II\Source/os_core.c **** *              2) Note that we can only clear up to 64K bytes of RAM.  This is not an issue because
1596:..\..\..\..\..\..\Software\uCOS-II\Source/os_core.c **** *                 of the uses of this function gets close to this limit.
1597:..\..\..\..\..\..\Software\uCOS-II\Source/os_core.c **** *              3) The clear is done one byte at a time since this will work on any processor irresp
1598:..\..\..\..\..\..\Software\uCOS-II\Source/os_core.c **** *                 of the alignment of the destination.
1599:..\..\..\..\..\..\Software\uCOS-II\Source/os_core.c **** ***************************************************************************************************
1600:..\..\..\..\..\..\Software\uCOS-II\Source/os_core.c **** */
1601:..\..\..\..\..\..\Software\uCOS-II\Source/os_core.c **** 
1602:..\..\..\..\..\..\Software\uCOS-II\Source/os_core.c **** void  OS_MemClr (INT8U  *pdest,
1603:..\..\..\..\..\..\Software\uCOS-II\Source/os_core.c ****                  INT16U  size)
1604:..\..\..\..\..\..\Software\uCOS-II\Source/os_core.c **** {
 2025              		.loc 1 1604 0
 2026              		.cfi_startproc
 2027              		@ args = 0, pretend = 0, frame = 8
 2028              		@ frame_needed = 1, uses_anonymous_args = 0
 2029 0000 80B5     		push	{r7, lr}
 2030              		.cfi_def_cfa_offset 8
 2031              		.cfi_offset 7, -8
ARM GAS  C:\Users\EDULU~1.DES\AppData\Local\Temp\ccKclfbr.s 			page 65


 2032              		.cfi_offset 14, -4
 2033 0002 82B0     		sub	sp, sp, #8
 2034              		.cfi_def_cfa_offset 16
 2035 0004 00AF     		add	r7, sp, #0
 2036              		.cfi_def_cfa_register 7
 2037 0006 7860     		str	r0, [r7, #4]
 2038 0008 0A00     		movs	r2, r1
 2039 000a BB1C     		adds	r3, r7, #2
 2040 000c 1A80     		strh	r2, [r3]
1605:..\..\..\..\..\..\Software\uCOS-II\Source/os_core.c ****     while (size > 0u) {
 2041              		.loc 1 1605 0
 2042 000e 09E0     		b	.L99
 2043              	.L100:
1606:..\..\..\..\..\..\Software\uCOS-II\Source/os_core.c ****         *pdest++ = (INT8U)0;
 2044              		.loc 1 1606 0
 2045 0010 7B68     		ldr	r3, [r7, #4]
 2046 0012 5A1C     		adds	r2, r3, #1
 2047 0014 7A60     		str	r2, [r7, #4]
 2048 0016 0022     		movs	r2, #0
 2049 0018 1A70     		strb	r2, [r3]
1607:..\..\..\..\..\..\Software\uCOS-II\Source/os_core.c ****         size--;
 2050              		.loc 1 1607 0
 2051 001a BB1C     		adds	r3, r7, #2
 2052 001c 1A88     		ldrh	r2, [r3]
 2053 001e BB1C     		adds	r3, r7, #2
 2054 0020 013A     		subs	r2, r2, #1
 2055 0022 1A80     		strh	r2, [r3]
 2056              	.L99:
1605:..\..\..\..\..\..\Software\uCOS-II\Source/os_core.c ****     while (size > 0u) {
 2057              		.loc 1 1605 0
 2058 0024 BB1C     		adds	r3, r7, #2
 2059 0026 1B88     		ldrh	r3, [r3]
 2060 0028 002B     		cmp	r3, #0
 2061 002a F1D1     		bne	.L100
1608:..\..\..\..\..\..\Software\uCOS-II\Source/os_core.c ****     }
1609:..\..\..\..\..\..\Software\uCOS-II\Source/os_core.c **** }
 2062              		.loc 1 1609 0
 2063 002c C046     		nop
 2064 002e BD46     		mov	sp, r7
 2065 0030 02B0     		add	sp, sp, #8
 2066              		@ sp needed
 2067 0032 80BD     		pop	{r7, pc}
 2068              		.cfi_endproc
 2069              	.LFE20:
 2070              		.size	OS_MemClr, .-OS_MemClr
 2071              		.section	.text.OS_MemCopy,"ax",%progbits
 2072              		.align	2
 2073              		.global	OS_MemCopy
 2074              		.code	16
 2075              		.thumb_func
 2076              		.type	OS_MemCopy, %function
 2077              	OS_MemCopy:
 2078              	.LFB21:
1610:..\..\..\..\..\..\Software\uCOS-II\Source/os_core.c **** /*$PAGE*/
1611:..\..\..\..\..\..\Software\uCOS-II\Source/os_core.c **** /*
1612:..\..\..\..\..\..\Software\uCOS-II\Source/os_core.c **** ***************************************************************************************************
