ARM GAS  C:\Users\EDULU~1.DES\AppData\Local\Temp\ccuGbGPl.s 			page 1


   1              		.syntax unified
   2              		.cpu cortex-m0
   3              		.fpu softvfp
   4              		.eabi_attribute 20, 1
   5              		.eabi_attribute 21, 1
   6              		.eabi_attribute 23, 3
   7              		.eabi_attribute 24, 1
   8              		.eabi_attribute 25, 1
   9              		.eabi_attribute 26, 1
  10              		.eabi_attribute 30, 6
  11              		.eabi_attribute 34, 0
  12              		.eabi_attribute 18, 4
  13              		.thumb
  14              		.syntax unified
  15              		.file	"os_cpu_c.c"
  16              		.text
  17              	.Ltext0:
  18              		.cfi_sections	.debug_frame
  19              		.comm	OS_CPU_ExceptStk,512,4
  20              		.comm	OS_CPU_ExceptStkBase,4,4
  21              		.bss
  22              		.align	1
  23              	OSTmrCtr:
  24 0000 0000     		.space	2
  25              		.section	.text.OSInitHookBegin,"ax",%progbits
  26              		.align	2
  27              		.global	OSInitHookBegin
  28              		.code	16
  29              		.thumb_func
  30              		.type	OSInitHookBegin, %function
  31              	OSInitHookBegin:
  32              	.LFB1:
  33              		.file 1 "..\\..\\..\\..\\..\\..\\Software\\uCOS-II\\Ports\\ARM-Cortex-M0\\Generic\\GNU\\os_cpu_c.c
   1:..\..\..\..\..\..\Software\uCOS-II\Ports\ARM-Cortex-M0\Generic\GNU/os_cpu_c.c **** /*
   2:..\..\..\..\..\..\Software\uCOS-II\Ports\ARM-Cortex-M0\Generic\GNU/os_cpu_c.c **** ***************************************************************************************************
   3:..\..\..\..\..\..\Software\uCOS-II\Ports\ARM-Cortex-M0\Generic\GNU/os_cpu_c.c **** *                                                uC/OS-II
   4:..\..\..\..\..\..\Software\uCOS-II\Ports\ARM-Cortex-M0\Generic\GNU/os_cpu_c.c **** *                                          The Real-Time Kernel
   5:..\..\..\..\..\..\Software\uCOS-II\Ports\ARM-Cortex-M0\Generic\GNU/os_cpu_c.c **** *
   6:..\..\..\..\..\..\Software\uCOS-II\Ports\ARM-Cortex-M0\Generic\GNU/os_cpu_c.c **** *
   7:..\..\..\..\..\..\Software\uCOS-II\Ports\ARM-Cortex-M0\Generic\GNU/os_cpu_c.c **** *                           (c) Copyright 2009-2015; Micrium, Inc.; Weston, FL
   8:..\..\..\..\..\..\Software\uCOS-II\Ports\ARM-Cortex-M0\Generic\GNU/os_cpu_c.c **** *                    All rights reserved.  Protected by international copyright laws.
   9:..\..\..\..\..\..\Software\uCOS-II\Ports\ARM-Cortex-M0\Generic\GNU/os_cpu_c.c **** *
  10:..\..\..\..\..\..\Software\uCOS-II\Ports\ARM-Cortex-M0\Generic\GNU/os_cpu_c.c **** *                                           ARM Cortex-M0 Port
  11:..\..\..\..\..\..\Software\uCOS-II\Ports\ARM-Cortex-M0\Generic\GNU/os_cpu_c.c **** *
  12:..\..\..\..\..\..\Software\uCOS-II\Ports\ARM-Cortex-M0\Generic\GNU/os_cpu_c.c **** * File      : OS_CPU_C.C
  13:..\..\..\..\..\..\Software\uCOS-II\Ports\ARM-Cortex-M0\Generic\GNU/os_cpu_c.c **** * Version   : V2.92.11
  14:..\..\..\..\..\..\Software\uCOS-II\Ports\ARM-Cortex-M0\Generic\GNU/os_cpu_c.c **** * By        : JJL
  15:..\..\..\..\..\..\Software\uCOS-II\Ports\ARM-Cortex-M0\Generic\GNU/os_cpu_c.c **** *             BN
  16:..\..\..\..\..\..\Software\uCOS-II\Ports\ARM-Cortex-M0\Generic\GNU/os_cpu_c.c **** *
  17:..\..\..\..\..\..\Software\uCOS-II\Ports\ARM-Cortex-M0\Generic\GNU/os_cpu_c.c **** * LICENSING TERMS:
  18:..\..\..\..\..\..\Software\uCOS-II\Ports\ARM-Cortex-M0\Generic\GNU/os_cpu_c.c **** * ---------------
  19:..\..\..\..\..\..\Software\uCOS-II\Ports\ARM-Cortex-M0\Generic\GNU/os_cpu_c.c **** *           uC/OS-II is provided in source form for FREE short-term evaluation, for educational use
  20:..\..\..\..\..\..\Software\uCOS-II\Ports\ARM-Cortex-M0\Generic\GNU/os_cpu_c.c **** *           for peaceful research.  If you plan or intend to use uC/OS-II in a commercial applicati
  21:..\..\..\..\..\..\Software\uCOS-II\Ports\ARM-Cortex-M0\Generic\GNU/os_cpu_c.c **** *           product then, you need to contact Micrium to properly license uC/OS-II for its use in y
  22:..\..\..\..\..\..\Software\uCOS-II\Ports\ARM-Cortex-M0\Generic\GNU/os_cpu_c.c **** *           application/product.   We provide ALL the source code for your convenience and to help 
  23:..\..\..\..\..\..\Software\uCOS-II\Ports\ARM-Cortex-M0\Generic\GNU/os_cpu_c.c **** *           experience uC/OS-II.  The fact that the source is provided does NOT mean that you can u
  24:..\..\..\..\..\..\Software\uCOS-II\Ports\ARM-Cortex-M0\Generic\GNU/os_cpu_c.c **** *           it commercially without paying a licensing fee.
ARM GAS  C:\Users\EDULU~1.DES\AppData\Local\Temp\ccuGbGPl.s 			page 2


  25:..\..\..\..\..\..\Software\uCOS-II\Ports\ARM-Cortex-M0\Generic\GNU/os_cpu_c.c **** *
  26:..\..\..\..\..\..\Software\uCOS-II\Ports\ARM-Cortex-M0\Generic\GNU/os_cpu_c.c **** *           Knowledge of the source code may NOT be used to develop a similar product.
  27:..\..\..\..\..\..\Software\uCOS-II\Ports\ARM-Cortex-M0\Generic\GNU/os_cpu_c.c **** *
  28:..\..\..\..\..\..\Software\uCOS-II\Ports\ARM-Cortex-M0\Generic\GNU/os_cpu_c.c **** *           Please help us continue to provide the embedded community with the finest software avai
  29:..\..\..\..\..\..\Software\uCOS-II\Ports\ARM-Cortex-M0\Generic\GNU/os_cpu_c.c **** *           Your honesty is greatly appreciated.
  30:..\..\..\..\..\..\Software\uCOS-II\Ports\ARM-Cortex-M0\Generic\GNU/os_cpu_c.c **** *
  31:..\..\..\..\..\..\Software\uCOS-II\Ports\ARM-Cortex-M0\Generic\GNU/os_cpu_c.c **** *           You can find our product's user manual, API reference, release notes and
  32:..\..\..\..\..\..\Software\uCOS-II\Ports\ARM-Cortex-M0\Generic\GNU/os_cpu_c.c **** *           more information at https://doc.micrium.com.
  33:..\..\..\..\..\..\Software\uCOS-II\Ports\ARM-Cortex-M0\Generic\GNU/os_cpu_c.c **** *           You can contact us at www.micrium.com, or by phone at +1 (954) 217-2036.
  34:..\..\..\..\..\..\Software\uCOS-II\Ports\ARM-Cortex-M0\Generic\GNU/os_cpu_c.c **** *
  35:..\..\..\..\..\..\Software\uCOS-II\Ports\ARM-Cortex-M0\Generic\GNU/os_cpu_c.c **** * For       : ARMv6M Cortex-M0 or Cortex-M0+
  36:..\..\..\..\..\..\Software\uCOS-II\Ports\ARM-Cortex-M0\Generic\GNU/os_cpu_c.c **** * Mode      : Thumb2
  37:..\..\..\..\..\..\Software\uCOS-II\Ports\ARM-Cortex-M0\Generic\GNU/os_cpu_c.c **** * Toolchain : GNU C Compiler
  38:..\..\..\..\..\..\Software\uCOS-II\Ports\ARM-Cortex-M0\Generic\GNU/os_cpu_c.c **** *
  39:..\..\..\..\..\..\Software\uCOS-II\Ports\ARM-Cortex-M0\Generic\GNU/os_cpu_c.c **** * Note(s)   : (1) This port supports the ARM Cortex-M0 and Cortex-M0+ architectures.
  40:..\..\..\..\..\..\Software\uCOS-II\Ports\ARM-Cortex-M0\Generic\GNU/os_cpu_c.c **** ***************************************************************************************************
  41:..\..\..\..\..\..\Software\uCOS-II\Ports\ARM-Cortex-M0\Generic\GNU/os_cpu_c.c **** */
  42:..\..\..\..\..\..\Software\uCOS-II\Ports\ARM-Cortex-M0\Generic\GNU/os_cpu_c.c **** 
  43:..\..\..\..\..\..\Software\uCOS-II\Ports\ARM-Cortex-M0\Generic\GNU/os_cpu_c.c **** #define   OS_CPU_GLOBALS
  44:..\..\..\..\..\..\Software\uCOS-II\Ports\ARM-Cortex-M0\Generic\GNU/os_cpu_c.c **** 
  45:..\..\..\..\..\..\Software\uCOS-II\Ports\ARM-Cortex-M0\Generic\GNU/os_cpu_c.c **** 
  46:..\..\..\..\..\..\Software\uCOS-II\Ports\ARM-Cortex-M0\Generic\GNU/os_cpu_c.c **** /*
  47:..\..\..\..\..\..\Software\uCOS-II\Ports\ARM-Cortex-M0\Generic\GNU/os_cpu_c.c **** ***************************************************************************************************
  48:..\..\..\..\..\..\Software\uCOS-II\Ports\ARM-Cortex-M0\Generic\GNU/os_cpu_c.c **** *                                             INCLUDE FILES
  49:..\..\..\..\..\..\Software\uCOS-II\Ports\ARM-Cortex-M0\Generic\GNU/os_cpu_c.c **** ***************************************************************************************************
  50:..\..\..\..\..\..\Software\uCOS-II\Ports\ARM-Cortex-M0\Generic\GNU/os_cpu_c.c **** */
  51:..\..\..\..\..\..\Software\uCOS-II\Ports\ARM-Cortex-M0\Generic\GNU/os_cpu_c.c **** 
  52:..\..\..\..\..\..\Software\uCOS-II\Ports\ARM-Cortex-M0\Generic\GNU/os_cpu_c.c **** #include  <ucos_ii.h>
  53:..\..\..\..\..\..\Software\uCOS-II\Ports\ARM-Cortex-M0\Generic\GNU/os_cpu_c.c **** 
  54:..\..\..\..\..\..\Software\uCOS-II\Ports\ARM-Cortex-M0\Generic\GNU/os_cpu_c.c **** 
  55:..\..\..\..\..\..\Software\uCOS-II\Ports\ARM-Cortex-M0\Generic\GNU/os_cpu_c.c **** /*
  56:..\..\..\..\..\..\Software\uCOS-II\Ports\ARM-Cortex-M0\Generic\GNU/os_cpu_c.c **** ***************************************************************************************************
  57:..\..\..\..\..\..\Software\uCOS-II\Ports\ARM-Cortex-M0\Generic\GNU/os_cpu_c.c **** *                                          LOCAL VARIABLES
  58:..\..\..\..\..\..\Software\uCOS-II\Ports\ARM-Cortex-M0\Generic\GNU/os_cpu_c.c **** ***************************************************************************************************
  59:..\..\..\..\..\..\Software\uCOS-II\Ports\ARM-Cortex-M0\Generic\GNU/os_cpu_c.c **** */
  60:..\..\..\..\..\..\Software\uCOS-II\Ports\ARM-Cortex-M0\Generic\GNU/os_cpu_c.c **** 
  61:..\..\..\..\..\..\Software\uCOS-II\Ports\ARM-Cortex-M0\Generic\GNU/os_cpu_c.c **** #if OS_TMR_EN > 0u
  62:..\..\..\..\..\..\Software\uCOS-II\Ports\ARM-Cortex-M0\Generic\GNU/os_cpu_c.c **** static  INT16U  OSTmrCtr;
  63:..\..\..\..\..\..\Software\uCOS-II\Ports\ARM-Cortex-M0\Generic\GNU/os_cpu_c.c **** #endif
  64:..\..\..\..\..\..\Software\uCOS-II\Ports\ARM-Cortex-M0\Generic\GNU/os_cpu_c.c **** 
  65:..\..\..\..\..\..\Software\uCOS-II\Ports\ARM-Cortex-M0\Generic\GNU/os_cpu_c.c **** 
  66:..\..\..\..\..\..\Software\uCOS-II\Ports\ARM-Cortex-M0\Generic\GNU/os_cpu_c.c **** /*
  67:..\..\..\..\..\..\Software\uCOS-II\Ports\ARM-Cortex-M0\Generic\GNU/os_cpu_c.c **** ***************************************************************************************************
  68:..\..\..\..\..\..\Software\uCOS-II\Ports\ARM-Cortex-M0\Generic\GNU/os_cpu_c.c **** *                                          SYS TICK DEFINES
  69:..\..\..\..\..\..\Software\uCOS-II\Ports\ARM-Cortex-M0\Generic\GNU/os_cpu_c.c **** ***************************************************************************************************
  70:..\..\..\..\..\..\Software\uCOS-II\Ports\ARM-Cortex-M0\Generic\GNU/os_cpu_c.c **** */
  71:..\..\..\..\..\..\Software\uCOS-II\Ports\ARM-Cortex-M0\Generic\GNU/os_cpu_c.c **** 
  72:..\..\..\..\..\..\Software\uCOS-II\Ports\ARM-Cortex-M0\Generic\GNU/os_cpu_c.c **** #define  OS_CPU_CM0_NVIC_ST_CTRL    (*((volatile INT32U *)0xE000E010uL)) /* SysTick Ctrl & Status R
  73:..\..\..\..\..\..\Software\uCOS-II\Ports\ARM-Cortex-M0\Generic\GNU/os_cpu_c.c **** #define  OS_CPU_CM0_NVIC_ST_RELOAD  (*((volatile INT32U *)0xE000E014uL)) /* SysTick Reload  Value R
  74:..\..\..\..\..\..\Software\uCOS-II\Ports\ARM-Cortex-M0\Generic\GNU/os_cpu_c.c **** #define  OS_CPU_CM0_NVIC_ST_CURRENT (*((volatile INT32U *)0xE000E018uL)) /* SysTick Current Value R
  75:..\..\..\..\..\..\Software\uCOS-II\Ports\ARM-Cortex-M0\Generic\GNU/os_cpu_c.c **** #define  OS_CPU_CM0_NVIC_ST_CAL     (*((volatile INT32U *)0xE000E01CuL)) /* SysTick Cal     Value R
  76:..\..\..\..\..\..\Software\uCOS-II\Ports\ARM-Cortex-M0\Generic\GNU/os_cpu_c.c **** #define  OS_CPU_CM0_NVIC_PRIO_ST    (*((volatile INT32U *)0xE000ED20uL)) /* SysTick Handler Prio  R
  77:..\..\..\..\..\..\Software\uCOS-II\Ports\ARM-Cortex-M0\Generic\GNU/os_cpu_c.c **** 
  78:..\..\..\..\..\..\Software\uCOS-II\Ports\ARM-Cortex-M0\Generic\GNU/os_cpu_c.c **** #define  OS_CPU_CM0_NVIC_ST_CTRL_COUNT                    0x00010000uL   /* Count flag.            
  79:..\..\..\..\..\..\Software\uCOS-II\Ports\ARM-Cortex-M0\Generic\GNU/os_cpu_c.c **** #define  OS_CPU_CM0_NVIC_ST_CTRL_CLK_SRC                  0x00000004uL   /* Clock Source.          
  80:..\..\..\..\..\..\Software\uCOS-II\Ports\ARM-Cortex-M0\Generic\GNU/os_cpu_c.c **** #define  OS_CPU_CM0_NVIC_ST_CTRL_INTEN                    0x00000002uL   /* Interrupt enable.      
  81:..\..\..\..\..\..\Software\uCOS-II\Ports\ARM-Cortex-M0\Generic\GNU/os_cpu_c.c **** #define  OS_CPU_CM0_NVIC_ST_CTRL_ENABLE                   0x00000001uL   /* Counter mode.          
ARM GAS  C:\Users\EDULU~1.DES\AppData\Local\Temp\ccuGbGPl.s 			page 3


  82:..\..\..\..\..\..\Software\uCOS-II\Ports\ARM-Cortex-M0\Generic\GNU/os_cpu_c.c **** #define  OS_CPU_CM0_NVIC_PRIO_MIN                               0xFFu    /* Min handler prio.      
  83:..\..\..\..\..\..\Software\uCOS-II\Ports\ARM-Cortex-M0\Generic\GNU/os_cpu_c.c **** 
  84:..\..\..\..\..\..\Software\uCOS-II\Ports\ARM-Cortex-M0\Generic\GNU/os_cpu_c.c **** 
  85:..\..\..\..\..\..\Software\uCOS-II\Ports\ARM-Cortex-M0\Generic\GNU/os_cpu_c.c **** /*
  86:..\..\..\..\..\..\Software\uCOS-II\Ports\ARM-Cortex-M0\Generic\GNU/os_cpu_c.c **** ***************************************************************************************************
  87:..\..\..\..\..\..\Software\uCOS-II\Ports\ARM-Cortex-M0\Generic\GNU/os_cpu_c.c **** *                                       OS INITIALIZATION HOOK
  88:..\..\..\..\..\..\Software\uCOS-II\Ports\ARM-Cortex-M0\Generic\GNU/os_cpu_c.c **** *                                            (BEGINNING)
  89:..\..\..\..\..\..\Software\uCOS-II\Ports\ARM-Cortex-M0\Generic\GNU/os_cpu_c.c **** *
  90:..\..\..\..\..\..\Software\uCOS-II\Ports\ARM-Cortex-M0\Generic\GNU/os_cpu_c.c **** * Description: This function is called by OSInit() at the beginning of OSInit().
  91:..\..\..\..\..\..\Software\uCOS-II\Ports\ARM-Cortex-M0\Generic\GNU/os_cpu_c.c **** *
  92:..\..\..\..\..\..\Software\uCOS-II\Ports\ARM-Cortex-M0\Generic\GNU/os_cpu_c.c **** * Arguments  : none
  93:..\..\..\..\..\..\Software\uCOS-II\Ports\ARM-Cortex-M0\Generic\GNU/os_cpu_c.c **** *
  94:..\..\..\..\..\..\Software\uCOS-II\Ports\ARM-Cortex-M0\Generic\GNU/os_cpu_c.c **** * Note(s)    : 1) Interrupts should be disabled during this call.
  95:..\..\..\..\..\..\Software\uCOS-II\Ports\ARM-Cortex-M0\Generic\GNU/os_cpu_c.c **** ***************************************************************************************************
  96:..\..\..\..\..\..\Software\uCOS-II\Ports\ARM-Cortex-M0\Generic\GNU/os_cpu_c.c **** */
  97:..\..\..\..\..\..\Software\uCOS-II\Ports\ARM-Cortex-M0\Generic\GNU/os_cpu_c.c **** #if OS_CPU_HOOKS_EN > 0u
  98:..\..\..\..\..\..\Software\uCOS-II\Ports\ARM-Cortex-M0\Generic\GNU/os_cpu_c.c **** void  OSInitHookBegin (void)
  99:..\..\..\..\..\..\Software\uCOS-II\Ports\ARM-Cortex-M0\Generic\GNU/os_cpu_c.c **** {
  34              		.loc 1 99 0
  35              		.cfi_startproc
  36              		@ args = 0, pretend = 0, frame = 8
  37              		@ frame_needed = 1, uses_anonymous_args = 0
  38 0000 80B5     		push	{r7, lr}
  39              		.cfi_def_cfa_offset 8
  40              		.cfi_offset 7, -8
  41              		.cfi_offset 14, -4
  42 0002 82B0     		sub	sp, sp, #8
  43              		.cfi_def_cfa_offset 16
  44 0004 00AF     		add	r7, sp, #0
  45              		.cfi_def_cfa_register 7
 100:..\..\..\..\..\..\Software\uCOS-II\Ports\ARM-Cortex-M0\Generic\GNU/os_cpu_c.c ****     INT32U   size;
 101:..\..\..\..\..\..\Software\uCOS-II\Ports\ARM-Cortex-M0\Generic\GNU/os_cpu_c.c ****     OS_STK  *pstk;
 102:..\..\..\..\..\..\Software\uCOS-II\Ports\ARM-Cortex-M0\Generic\GNU/os_cpu_c.c **** 
 103:..\..\..\..\..\..\Software\uCOS-II\Ports\ARM-Cortex-M0\Generic\GNU/os_cpu_c.c ****                                                                 /* Clear exception stack for stack 
 104:..\..\..\..\..\..\Software\uCOS-II\Ports\ARM-Cortex-M0\Generic\GNU/os_cpu_c.c ****     pstk = &OS_CPU_ExceptStk[0];
  46              		.loc 1 104 0
  47 0006 114B     		ldr	r3, .L4
  48 0008 3B60     		str	r3, [r7]
 105:..\..\..\..\..\..\Software\uCOS-II\Ports\ARM-Cortex-M0\Generic\GNU/os_cpu_c.c ****     size = OS_CPU_EXCEPT_STK_SIZE;
  49              		.loc 1 105 0
  50 000a 8023     		movs	r3, #128
  51 000c 7B60     		str	r3, [r7, #4]
 106:..\..\..\..\..\..\Software\uCOS-II\Ports\ARM-Cortex-M0\Generic\GNU/os_cpu_c.c ****     while (size > 0u) {
  52              		.loc 1 106 0
  53 000e 07E0     		b	.L2
  54              	.L3:
 107:..\..\..\..\..\..\Software\uCOS-II\Ports\ARM-Cortex-M0\Generic\GNU/os_cpu_c.c ****         size--;
  55              		.loc 1 107 0
  56 0010 7B68     		ldr	r3, [r7, #4]
  57 0012 013B     		subs	r3, r3, #1
  58 0014 7B60     		str	r3, [r7, #4]
 108:..\..\..\..\..\..\Software\uCOS-II\Ports\ARM-Cortex-M0\Generic\GNU/os_cpu_c.c ****        *pstk++ = (OS_STK)0;
  59              		.loc 1 108 0
  60 0016 3B68     		ldr	r3, [r7]
  61 0018 1A1D     		adds	r2, r3, #4
  62 001a 3A60     		str	r2, [r7]
  63 001c 0022     		movs	r2, #0
ARM GAS  C:\Users\EDULU~1.DES\AppData\Local\Temp\ccuGbGPl.s 			page 4


  64 001e 1A60     		str	r2, [r3]
  65              	.L2:
 106:..\..\..\..\..\..\Software\uCOS-II\Ports\ARM-Cortex-M0\Generic\GNU/os_cpu_c.c ****     while (size > 0u) {
  66              		.loc 1 106 0
  67 0020 7B68     		ldr	r3, [r7, #4]
  68 0022 002B     		cmp	r3, #0
  69 0024 F4D1     		bne	.L3
 109:..\..\..\..\..\..\Software\uCOS-II\Ports\ARM-Cortex-M0\Generic\GNU/os_cpu_c.c ****     }
 110:..\..\..\..\..\..\Software\uCOS-II\Ports\ARM-Cortex-M0\Generic\GNU/os_cpu_c.c **** 
 111:..\..\..\..\..\..\Software\uCOS-II\Ports\ARM-Cortex-M0\Generic\GNU/os_cpu_c.c ****                                                                 /* Align the ISR stack to 8-bytes  
 112:..\..\..\..\..\..\Software\uCOS-II\Ports\ARM-Cortex-M0\Generic\GNU/os_cpu_c.c ****     OS_CPU_ExceptStkBase = (OS_STK *)&OS_CPU_ExceptStk[OS_CPU_EXCEPT_STK_SIZE];
  70              		.loc 1 112 0
  71 0026 0A4B     		ldr	r3, .L4+4
  72 0028 0A4A     		ldr	r2, .L4+8
  73 002a 1A60     		str	r2, [r3]
 113:..\..\..\..\..\..\Software\uCOS-II\Ports\ARM-Cortex-M0\Generic\GNU/os_cpu_c.c ****     OS_CPU_ExceptStkBase = (OS_STK *)((OS_STK)(OS_CPU_ExceptStkBase) & 0xFFFFFFF8);
  74              		.loc 1 113 0
  75 002c 084B     		ldr	r3, .L4+4
  76 002e 1B68     		ldr	r3, [r3]
  77 0030 1A00     		movs	r2, r3
  78 0032 0723     		movs	r3, #7
  79 0034 9A43     		bics	r2, r3
  80 0036 1300     		movs	r3, r2
  81 0038 1A00     		movs	r2, r3
  82 003a 054B     		ldr	r3, .L4+4
  83 003c 1A60     		str	r2, [r3]
 114:..\..\..\..\..\..\Software\uCOS-II\Ports\ARM-Cortex-M0\Generic\GNU/os_cpu_c.c **** 
 115:..\..\..\..\..\..\Software\uCOS-II\Ports\ARM-Cortex-M0\Generic\GNU/os_cpu_c.c **** #if OS_TMR_EN > 0u
 116:..\..\..\..\..\..\Software\uCOS-II\Ports\ARM-Cortex-M0\Generic\GNU/os_cpu_c.c ****     OSTmrCtr = 0u;
  84              		.loc 1 116 0
  85 003e 064B     		ldr	r3, .L4+12
  86 0040 0022     		movs	r2, #0
  87 0042 1A80     		strh	r2, [r3]
 117:..\..\..\..\..\..\Software\uCOS-II\Ports\ARM-Cortex-M0\Generic\GNU/os_cpu_c.c **** #endif
 118:..\..\..\..\..\..\Software\uCOS-II\Ports\ARM-Cortex-M0\Generic\GNU/os_cpu_c.c **** }
  88              		.loc 1 118 0
  89 0044 C046     		nop
  90 0046 BD46     		mov	sp, r7
  91 0048 02B0     		add	sp, sp, #8
  92              		@ sp needed
  93 004a 80BD     		pop	{r7, pc}
  94              	.L5:
  95              		.align	2
  96              	.L4:
  97 004c 00000000 		.word	OS_CPU_ExceptStk
  98 0050 00000000 		.word	OS_CPU_ExceptStkBase
  99 0054 00020000 		.word	OS_CPU_ExceptStk+512
 100 0058 00000000 		.word	OSTmrCtr
 101              		.cfi_endproc
 102              	.LFE1:
 103              		.size	OSInitHookBegin, .-OSInitHookBegin
 104              		.section	.text.OSInitHookEnd,"ax",%progbits
 105              		.align	2
 106              		.global	OSInitHookEnd
 107              		.code	16
 108              		.thumb_func
 109              		.type	OSInitHookEnd, %function
ARM GAS  C:\Users\EDULU~1.DES\AppData\Local\Temp\ccuGbGPl.s 			page 5


 110              	OSInitHookEnd:
 111              	.LFB2:
 119:..\..\..\..\..\..\Software\uCOS-II\Ports\ARM-Cortex-M0\Generic\GNU/os_cpu_c.c **** #endif
 120:..\..\..\..\..\..\Software\uCOS-II\Ports\ARM-Cortex-M0\Generic\GNU/os_cpu_c.c **** 
 121:..\..\..\..\..\..\Software\uCOS-II\Ports\ARM-Cortex-M0\Generic\GNU/os_cpu_c.c **** 
 122:..\..\..\..\..\..\Software\uCOS-II\Ports\ARM-Cortex-M0\Generic\GNU/os_cpu_c.c **** /*
 123:..\..\..\..\..\..\Software\uCOS-II\Ports\ARM-Cortex-M0\Generic\GNU/os_cpu_c.c **** ***************************************************************************************************
 124:..\..\..\..\..\..\Software\uCOS-II\Ports\ARM-Cortex-M0\Generic\GNU/os_cpu_c.c **** *                                       OS INITIALIZATION HOOK
 125:..\..\..\..\..\..\Software\uCOS-II\Ports\ARM-Cortex-M0\Generic\GNU/os_cpu_c.c **** *                                               (END)
 126:..\..\..\..\..\..\Software\uCOS-II\Ports\ARM-Cortex-M0\Generic\GNU/os_cpu_c.c **** *
 127:..\..\..\..\..\..\Software\uCOS-II\Ports\ARM-Cortex-M0\Generic\GNU/os_cpu_c.c **** * Description: This function is called by OSInit() at the end of OSInit().
 128:..\..\..\..\..\..\Software\uCOS-II\Ports\ARM-Cortex-M0\Generic\GNU/os_cpu_c.c **** *
 129:..\..\..\..\..\..\Software\uCOS-II\Ports\ARM-Cortex-M0\Generic\GNU/os_cpu_c.c **** * Arguments  : none
 130:..\..\..\..\..\..\Software\uCOS-II\Ports\ARM-Cortex-M0\Generic\GNU/os_cpu_c.c **** *
 131:..\..\..\..\..\..\Software\uCOS-II\Ports\ARM-Cortex-M0\Generic\GNU/os_cpu_c.c **** * Note(s)    : 1) Interrupts should be disabled during this call.
 132:..\..\..\..\..\..\Software\uCOS-II\Ports\ARM-Cortex-M0\Generic\GNU/os_cpu_c.c **** ***************************************************************************************************
 133:..\..\..\..\..\..\Software\uCOS-II\Ports\ARM-Cortex-M0\Generic\GNU/os_cpu_c.c **** */
 134:..\..\..\..\..\..\Software\uCOS-II\Ports\ARM-Cortex-M0\Generic\GNU/os_cpu_c.c **** #if OS_CPU_HOOKS_EN > 0u
 135:..\..\..\..\..\..\Software\uCOS-II\Ports\ARM-Cortex-M0\Generic\GNU/os_cpu_c.c **** void  OSInitHookEnd (void)
 136:..\..\..\..\..\..\Software\uCOS-II\Ports\ARM-Cortex-M0\Generic\GNU/os_cpu_c.c **** {
 112              		.loc 1 136 0
 113              		.cfi_startproc
 114              		@ args = 0, pretend = 0, frame = 0
 115              		@ frame_needed = 1, uses_anonymous_args = 0
 116 0000 80B5     		push	{r7, lr}
 117              		.cfi_def_cfa_offset 8
 118              		.cfi_offset 7, -8
 119              		.cfi_offset 14, -4
 120 0002 00AF     		add	r7, sp, #0
 121              		.cfi_def_cfa_register 7
 137:..\..\..\..\..\..\Software\uCOS-II\Ports\ARM-Cortex-M0\Generic\GNU/os_cpu_c.c **** 
 138:..\..\..\..\..\..\Software\uCOS-II\Ports\ARM-Cortex-M0\Generic\GNU/os_cpu_c.c **** }
 122              		.loc 1 138 0
 123 0004 C046     		nop
 124 0006 BD46     		mov	sp, r7
 125              		@ sp needed
 126 0008 80BD     		pop	{r7, pc}
 127              		.cfi_endproc
 128              	.LFE2:
 129              		.size	OSInitHookEnd, .-OSInitHookEnd
 130              		.section	.text.OSTaskCreateHook,"ax",%progbits
 131              		.align	2
 132              		.global	OSTaskCreateHook
 133              		.code	16
 134              		.thumb_func
 135              		.type	OSTaskCreateHook, %function
 136              	OSTaskCreateHook:
 137              	.LFB3:
 139:..\..\..\..\..\..\Software\uCOS-II\Ports\ARM-Cortex-M0\Generic\GNU/os_cpu_c.c **** #endif
 140:..\..\..\..\..\..\Software\uCOS-II\Ports\ARM-Cortex-M0\Generic\GNU/os_cpu_c.c **** 
 141:..\..\..\..\..\..\Software\uCOS-II\Ports\ARM-Cortex-M0\Generic\GNU/os_cpu_c.c **** 
 142:..\..\..\..\..\..\Software\uCOS-II\Ports\ARM-Cortex-M0\Generic\GNU/os_cpu_c.c **** /*
 143:..\..\..\..\..\..\Software\uCOS-II\Ports\ARM-Cortex-M0\Generic\GNU/os_cpu_c.c **** ***************************************************************************************************
 144:..\..\..\..\..\..\Software\uCOS-II\Ports\ARM-Cortex-M0\Generic\GNU/os_cpu_c.c **** *                                          TASK CREATION HOOK
 145:..\..\..\..\..\..\Software\uCOS-II\Ports\ARM-Cortex-M0\Generic\GNU/os_cpu_c.c **** *
 146:..\..\..\..\..\..\Software\uCOS-II\Ports\ARM-Cortex-M0\Generic\GNU/os_cpu_c.c **** * Description: This function is called when a task is created.
 147:..\..\..\..\..\..\Software\uCOS-II\Ports\ARM-Cortex-M0\Generic\GNU/os_cpu_c.c **** *
ARM GAS  C:\Users\EDULU~1.DES\AppData\Local\Temp\ccuGbGPl.s 			page 6


 148:..\..\..\..\..\..\Software\uCOS-II\Ports\ARM-Cortex-M0\Generic\GNU/os_cpu_c.c **** * Arguments  : ptcb   is a pointer to the task control block of the task being created.
 149:..\..\..\..\..\..\Software\uCOS-II\Ports\ARM-Cortex-M0\Generic\GNU/os_cpu_c.c **** *
 150:..\..\..\..\..\..\Software\uCOS-II\Ports\ARM-Cortex-M0\Generic\GNU/os_cpu_c.c **** * Note(s)    : 1) Interrupts are disabled during this call.
 151:..\..\..\..\..\..\Software\uCOS-II\Ports\ARM-Cortex-M0\Generic\GNU/os_cpu_c.c **** ***************************************************************************************************
 152:..\..\..\..\..\..\Software\uCOS-II\Ports\ARM-Cortex-M0\Generic\GNU/os_cpu_c.c **** */
 153:..\..\..\..\..\..\Software\uCOS-II\Ports\ARM-Cortex-M0\Generic\GNU/os_cpu_c.c **** #if OS_CPU_HOOKS_EN > 0u
 154:..\..\..\..\..\..\Software\uCOS-II\Ports\ARM-Cortex-M0\Generic\GNU/os_cpu_c.c **** void  OSTaskCreateHook (OS_TCB *ptcb)
 155:..\..\..\..\..\..\Software\uCOS-II\Ports\ARM-Cortex-M0\Generic\GNU/os_cpu_c.c **** {
 138              		.loc 1 155 0
 139              		.cfi_startproc
 140              		@ args = 0, pretend = 0, frame = 8
 141              		@ frame_needed = 1, uses_anonymous_args = 0
 142 0000 80B5     		push	{r7, lr}
 143              		.cfi_def_cfa_offset 8
 144              		.cfi_offset 7, -8
 145              		.cfi_offset 14, -4
 146 0002 82B0     		sub	sp, sp, #8
 147              		.cfi_def_cfa_offset 16
 148 0004 00AF     		add	r7, sp, #0
 149              		.cfi_def_cfa_register 7
 150 0006 7860     		str	r0, [r7, #4]
 156:..\..\..\..\..\..\Software\uCOS-II\Ports\ARM-Cortex-M0\Generic\GNU/os_cpu_c.c **** #if OS_APP_HOOKS_EN > 0u
 157:..\..\..\..\..\..\Software\uCOS-II\Ports\ARM-Cortex-M0\Generic\GNU/os_cpu_c.c ****     App_TaskCreateHook(ptcb);
 151              		.loc 1 157 0
 152 0008 7B68     		ldr	r3, [r7, #4]
 153 000a 1800     		movs	r0, r3
 154 000c FFF7FEFF 		bl	App_TaskCreateHook
 158:..\..\..\..\..\..\Software\uCOS-II\Ports\ARM-Cortex-M0\Generic\GNU/os_cpu_c.c **** #else
 159:..\..\..\..\..\..\Software\uCOS-II\Ports\ARM-Cortex-M0\Generic\GNU/os_cpu_c.c ****     (void)ptcb;                                                 /* Prevent compiler warning        
 160:..\..\..\..\..\..\Software\uCOS-II\Ports\ARM-Cortex-M0\Generic\GNU/os_cpu_c.c **** #endif
 161:..\..\..\..\..\..\Software\uCOS-II\Ports\ARM-Cortex-M0\Generic\GNU/os_cpu_c.c **** }
 155              		.loc 1 161 0
 156 0010 C046     		nop
 157 0012 BD46     		mov	sp, r7
 158 0014 02B0     		add	sp, sp, #8
 159              		@ sp needed
 160 0016 80BD     		pop	{r7, pc}
 161              		.cfi_endproc
 162              	.LFE3:
 163              		.size	OSTaskCreateHook, .-OSTaskCreateHook
 164              		.section	.text.OSTaskDelHook,"ax",%progbits
 165              		.align	2
 166              		.global	OSTaskDelHook
 167              		.code	16
 168              		.thumb_func
 169              		.type	OSTaskDelHook, %function
 170              	OSTaskDelHook:
 171              	.LFB4:
 162:..\..\..\..\..\..\Software\uCOS-II\Ports\ARM-Cortex-M0\Generic\GNU/os_cpu_c.c **** #endif
 163:..\..\..\..\..\..\Software\uCOS-II\Ports\ARM-Cortex-M0\Generic\GNU/os_cpu_c.c **** 
 164:..\..\..\..\..\..\Software\uCOS-II\Ports\ARM-Cortex-M0\Generic\GNU/os_cpu_c.c **** 
 165:..\..\..\..\..\..\Software\uCOS-II\Ports\ARM-Cortex-M0\Generic\GNU/os_cpu_c.c **** /*
 166:..\..\..\..\..\..\Software\uCOS-II\Ports\ARM-Cortex-M0\Generic\GNU/os_cpu_c.c **** ***************************************************************************************************
 167:..\..\..\..\..\..\Software\uCOS-II\Ports\ARM-Cortex-M0\Generic\GNU/os_cpu_c.c **** *                                           TASK DELETION HOOK
 168:..\..\..\..\..\..\Software\uCOS-II\Ports\ARM-Cortex-M0\Generic\GNU/os_cpu_c.c **** *
 169:..\..\..\..\..\..\Software\uCOS-II\Ports\ARM-Cortex-M0\Generic\GNU/os_cpu_c.c **** * Description: This function is called when a task is deleted.
 170:..\..\..\..\..\..\Software\uCOS-II\Ports\ARM-Cortex-M0\Generic\GNU/os_cpu_c.c **** *
ARM GAS  C:\Users\EDULU~1.DES\AppData\Local\Temp\ccuGbGPl.s 			page 7


 171:..\..\..\..\..\..\Software\uCOS-II\Ports\ARM-Cortex-M0\Generic\GNU/os_cpu_c.c **** * Arguments  : ptcb   is a pointer to the task control block of the task being deleted.
 172:..\..\..\..\..\..\Software\uCOS-II\Ports\ARM-Cortex-M0\Generic\GNU/os_cpu_c.c **** *
 173:..\..\..\..\..\..\Software\uCOS-II\Ports\ARM-Cortex-M0\Generic\GNU/os_cpu_c.c **** * Note(s)    : 1) Interrupts are disabled during this call.
 174:..\..\..\..\..\..\Software\uCOS-II\Ports\ARM-Cortex-M0\Generic\GNU/os_cpu_c.c **** ***************************************************************************************************
 175:..\..\..\..\..\..\Software\uCOS-II\Ports\ARM-Cortex-M0\Generic\GNU/os_cpu_c.c **** */
 176:..\..\..\..\..\..\Software\uCOS-II\Ports\ARM-Cortex-M0\Generic\GNU/os_cpu_c.c **** #if OS_CPU_HOOKS_EN > 0u
 177:..\..\..\..\..\..\Software\uCOS-II\Ports\ARM-Cortex-M0\Generic\GNU/os_cpu_c.c **** void  OSTaskDelHook (OS_TCB *ptcb)
 178:..\..\..\..\..\..\Software\uCOS-II\Ports\ARM-Cortex-M0\Generic\GNU/os_cpu_c.c **** {
 172              		.loc 1 178 0
 173              		.cfi_startproc
 174              		@ args = 0, pretend = 0, frame = 8
 175              		@ frame_needed = 1, uses_anonymous_args = 0
 176 0000 80B5     		push	{r7, lr}
 177              		.cfi_def_cfa_offset 8
 178              		.cfi_offset 7, -8
 179              		.cfi_offset 14, -4
 180 0002 82B0     		sub	sp, sp, #8
 181              		.cfi_def_cfa_offset 16
 182 0004 00AF     		add	r7, sp, #0
 183              		.cfi_def_cfa_register 7
 184 0006 7860     		str	r0, [r7, #4]
 179:..\..\..\..\..\..\Software\uCOS-II\Ports\ARM-Cortex-M0\Generic\GNU/os_cpu_c.c **** #if OS_APP_HOOKS_EN > 0u
 180:..\..\..\..\..\..\Software\uCOS-II\Ports\ARM-Cortex-M0\Generic\GNU/os_cpu_c.c ****     App_TaskDelHook(ptcb);
 185              		.loc 1 180 0
 186 0008 7B68     		ldr	r3, [r7, #4]
 187 000a 1800     		movs	r0, r3
 188 000c FFF7FEFF 		bl	App_TaskDelHook
 181:..\..\..\..\..\..\Software\uCOS-II\Ports\ARM-Cortex-M0\Generic\GNU/os_cpu_c.c **** #else
 182:..\..\..\..\..\..\Software\uCOS-II\Ports\ARM-Cortex-M0\Generic\GNU/os_cpu_c.c ****     (void)ptcb;                                                 /* Prevent compiler warning        
 183:..\..\..\..\..\..\Software\uCOS-II\Ports\ARM-Cortex-M0\Generic\GNU/os_cpu_c.c **** #endif
 184:..\..\..\..\..\..\Software\uCOS-II\Ports\ARM-Cortex-M0\Generic\GNU/os_cpu_c.c **** }
 189              		.loc 1 184 0
 190 0010 C046     		nop
 191 0012 BD46     		mov	sp, r7
 192 0014 02B0     		add	sp, sp, #8
 193              		@ sp needed
 194 0016 80BD     		pop	{r7, pc}
 195              		.cfi_endproc
 196              	.LFE4:
 197              		.size	OSTaskDelHook, .-OSTaskDelHook
 198              		.section	.text.OSTaskIdleHook,"ax",%progbits
 199              		.align	2
 200              		.global	OSTaskIdleHook
 201              		.code	16
 202              		.thumb_func
 203              		.type	OSTaskIdleHook, %function
 204              	OSTaskIdleHook:
 205              	.LFB5:
 185:..\..\..\..\..\..\Software\uCOS-II\Ports\ARM-Cortex-M0\Generic\GNU/os_cpu_c.c **** #endif
 186:..\..\..\..\..\..\Software\uCOS-II\Ports\ARM-Cortex-M0\Generic\GNU/os_cpu_c.c **** 
 187:..\..\..\..\..\..\Software\uCOS-II\Ports\ARM-Cortex-M0\Generic\GNU/os_cpu_c.c **** 
 188:..\..\..\..\..\..\Software\uCOS-II\Ports\ARM-Cortex-M0\Generic\GNU/os_cpu_c.c **** /*
 189:..\..\..\..\..\..\Software\uCOS-II\Ports\ARM-Cortex-M0\Generic\GNU/os_cpu_c.c **** ***************************************************************************************************
 190:..\..\..\..\..\..\Software\uCOS-II\Ports\ARM-Cortex-M0\Generic\GNU/os_cpu_c.c **** *                                             IDLE TASK HOOK
 191:..\..\..\..\..\..\Software\uCOS-II\Ports\ARM-Cortex-M0\Generic\GNU/os_cpu_c.c **** *
 192:..\..\..\..\..\..\Software\uCOS-II\Ports\ARM-Cortex-M0\Generic\GNU/os_cpu_c.c **** * Description: This function is called by the idle task.  This hook has been added to allow you to 
 193:..\..\..\..\..\..\Software\uCOS-II\Ports\ARM-Cortex-M0\Generic\GNU/os_cpu_c.c **** *              such things as STOP the CPU to conserve power.
ARM GAS  C:\Users\EDULU~1.DES\AppData\Local\Temp\ccuGbGPl.s 			page 8


 194:..\..\..\..\..\..\Software\uCOS-II\Ports\ARM-Cortex-M0\Generic\GNU/os_cpu_c.c **** *
 195:..\..\..\..\..\..\Software\uCOS-II\Ports\ARM-Cortex-M0\Generic\GNU/os_cpu_c.c **** * Arguments  : none
 196:..\..\..\..\..\..\Software\uCOS-II\Ports\ARM-Cortex-M0\Generic\GNU/os_cpu_c.c **** *
 197:..\..\..\..\..\..\Software\uCOS-II\Ports\ARM-Cortex-M0\Generic\GNU/os_cpu_c.c **** * Note(s)    : 1) Interrupts are enabled during this call.
 198:..\..\..\..\..\..\Software\uCOS-II\Ports\ARM-Cortex-M0\Generic\GNU/os_cpu_c.c **** ***************************************************************************************************
 199:..\..\..\..\..\..\Software\uCOS-II\Ports\ARM-Cortex-M0\Generic\GNU/os_cpu_c.c **** */
 200:..\..\..\..\..\..\Software\uCOS-II\Ports\ARM-Cortex-M0\Generic\GNU/os_cpu_c.c **** #if OS_CPU_HOOKS_EN > 0u
 201:..\..\..\..\..\..\Software\uCOS-II\Ports\ARM-Cortex-M0\Generic\GNU/os_cpu_c.c **** void  OSTaskIdleHook (void)
 202:..\..\..\..\..\..\Software\uCOS-II\Ports\ARM-Cortex-M0\Generic\GNU/os_cpu_c.c **** {
 206              		.loc 1 202 0
 207              		.cfi_startproc
 208              		@ args = 0, pretend = 0, frame = 0
 209              		@ frame_needed = 1, uses_anonymous_args = 0
 210 0000 80B5     		push	{r7, lr}
 211              		.cfi_def_cfa_offset 8
 212              		.cfi_offset 7, -8
 213              		.cfi_offset 14, -4
 214 0002 00AF     		add	r7, sp, #0
 215              		.cfi_def_cfa_register 7
 203:..\..\..\..\..\..\Software\uCOS-II\Ports\ARM-Cortex-M0\Generic\GNU/os_cpu_c.c **** #if OS_APP_HOOKS_EN > 0u
 204:..\..\..\..\..\..\Software\uCOS-II\Ports\ARM-Cortex-M0\Generic\GNU/os_cpu_c.c ****     App_TaskIdleHook();
 216              		.loc 1 204 0
 217 0004 FFF7FEFF 		bl	App_TaskIdleHook
 205:..\..\..\..\..\..\Software\uCOS-II\Ports\ARM-Cortex-M0\Generic\GNU/os_cpu_c.c **** #endif
 206:..\..\..\..\..\..\Software\uCOS-II\Ports\ARM-Cortex-M0\Generic\GNU/os_cpu_c.c **** }
 218              		.loc 1 206 0
 219 0008 C046     		nop
 220 000a BD46     		mov	sp, r7
 221              		@ sp needed
 222 000c 80BD     		pop	{r7, pc}
 223              		.cfi_endproc
 224              	.LFE5:
 225              		.size	OSTaskIdleHook, .-OSTaskIdleHook
 226 000e C046     		.section	.text.OSTaskReturnHook,"ax",%progbits
 227              		.align	2
 228              		.global	OSTaskReturnHook
 229              		.code	16
 230              		.thumb_func
 231              		.type	OSTaskReturnHook, %function
 232              	OSTaskReturnHook:
 233              	.LFB6:
 207:..\..\..\..\..\..\Software\uCOS-II\Ports\ARM-Cortex-M0\Generic\GNU/os_cpu_c.c **** #endif
 208:..\..\..\..\..\..\Software\uCOS-II\Ports\ARM-Cortex-M0\Generic\GNU/os_cpu_c.c **** 
 209:..\..\..\..\..\..\Software\uCOS-II\Ports\ARM-Cortex-M0\Generic\GNU/os_cpu_c.c **** 
 210:..\..\..\..\..\..\Software\uCOS-II\Ports\ARM-Cortex-M0\Generic\GNU/os_cpu_c.c **** /*
 211:..\..\..\..\..\..\Software\uCOS-II\Ports\ARM-Cortex-M0\Generic\GNU/os_cpu_c.c **** ***************************************************************************************************
 212:..\..\..\..\..\..\Software\uCOS-II\Ports\ARM-Cortex-M0\Generic\GNU/os_cpu_c.c **** *                                            TASK RETURN HOOK
 213:..\..\..\..\..\..\Software\uCOS-II\Ports\ARM-Cortex-M0\Generic\GNU/os_cpu_c.c **** *
 214:..\..\..\..\..\..\Software\uCOS-II\Ports\ARM-Cortex-M0\Generic\GNU/os_cpu_c.c **** * Description: This function is called if a task accidentally returns.  In other words, a task shou
 215:..\..\..\..\..\..\Software\uCOS-II\Ports\ARM-Cortex-M0\Generic\GNU/os_cpu_c.c **** *              either be an infinite loop or delete itself when done.
 216:..\..\..\..\..\..\Software\uCOS-II\Ports\ARM-Cortex-M0\Generic\GNU/os_cpu_c.c **** *
 217:..\..\..\..\..\..\Software\uCOS-II\Ports\ARM-Cortex-M0\Generic\GNU/os_cpu_c.c **** * Arguments  : ptcb      is a pointer to the task control block of the task that is returning.
 218:..\..\..\..\..\..\Software\uCOS-II\Ports\ARM-Cortex-M0\Generic\GNU/os_cpu_c.c **** *
 219:..\..\..\..\..\..\Software\uCOS-II\Ports\ARM-Cortex-M0\Generic\GNU/os_cpu_c.c **** * Note(s)    : none
 220:..\..\..\..\..\..\Software\uCOS-II\Ports\ARM-Cortex-M0\Generic\GNU/os_cpu_c.c **** ***************************************************************************************************
 221:..\..\..\..\..\..\Software\uCOS-II\Ports\ARM-Cortex-M0\Generic\GNU/os_cpu_c.c **** */
 222:..\..\..\..\..\..\Software\uCOS-II\Ports\ARM-Cortex-M0\Generic\GNU/os_cpu_c.c **** 
ARM GAS  C:\Users\EDULU~1.DES\AppData\Local\Temp\ccuGbGPl.s 			page 9


 223:..\..\..\..\..\..\Software\uCOS-II\Ports\ARM-Cortex-M0\Generic\GNU/os_cpu_c.c **** #if OS_CPU_HOOKS_EN > 0u
 224:..\..\..\..\..\..\Software\uCOS-II\Ports\ARM-Cortex-M0\Generic\GNU/os_cpu_c.c **** void  OSTaskReturnHook (OS_TCB  *ptcb)
 225:..\..\..\..\..\..\Software\uCOS-II\Ports\ARM-Cortex-M0\Generic\GNU/os_cpu_c.c **** {
 234              		.loc 1 225 0
 235              		.cfi_startproc
 236              		@ args = 0, pretend = 0, frame = 8
 237              		@ frame_needed = 1, uses_anonymous_args = 0
 238 0000 80B5     		push	{r7, lr}
 239              		.cfi_def_cfa_offset 8
 240              		.cfi_offset 7, -8
 241              		.cfi_offset 14, -4
 242 0002 82B0     		sub	sp, sp, #8
 243              		.cfi_def_cfa_offset 16
 244 0004 00AF     		add	r7, sp, #0
 245              		.cfi_def_cfa_register 7
 246 0006 7860     		str	r0, [r7, #4]
 226:..\..\..\..\..\..\Software\uCOS-II\Ports\ARM-Cortex-M0\Generic\GNU/os_cpu_c.c **** #if OS_APP_HOOKS_EN > 0u
 227:..\..\..\..\..\..\Software\uCOS-II\Ports\ARM-Cortex-M0\Generic\GNU/os_cpu_c.c ****     App_TaskReturnHook(ptcb);
 247              		.loc 1 227 0
 248 0008 7B68     		ldr	r3, [r7, #4]
 249 000a 1800     		movs	r0, r3
 250 000c FFF7FEFF 		bl	App_TaskReturnHook
 228:..\..\..\..\..\..\Software\uCOS-II\Ports\ARM-Cortex-M0\Generic\GNU/os_cpu_c.c **** #else
 229:..\..\..\..\..\..\Software\uCOS-II\Ports\ARM-Cortex-M0\Generic\GNU/os_cpu_c.c ****     (void)ptcb;
 230:..\..\..\..\..\..\Software\uCOS-II\Ports\ARM-Cortex-M0\Generic\GNU/os_cpu_c.c **** #endif
 231:..\..\..\..\..\..\Software\uCOS-II\Ports\ARM-Cortex-M0\Generic\GNU/os_cpu_c.c **** }
 251              		.loc 1 231 0
 252 0010 C046     		nop
 253 0012 BD46     		mov	sp, r7
 254 0014 02B0     		add	sp, sp, #8
 255              		@ sp needed
 256 0016 80BD     		pop	{r7, pc}
 257              		.cfi_endproc
 258              	.LFE6:
 259              		.size	OSTaskReturnHook, .-OSTaskReturnHook
 260              		.section	.text.OSTaskStatHook,"ax",%progbits
 261              		.align	2
 262              		.global	OSTaskStatHook
 263              		.code	16
 264              		.thumb_func
 265              		.type	OSTaskStatHook, %function
 266              	OSTaskStatHook:
 267              	.LFB7:
 232:..\..\..\..\..\..\Software\uCOS-II\Ports\ARM-Cortex-M0\Generic\GNU/os_cpu_c.c **** #endif
 233:..\..\..\..\..\..\Software\uCOS-II\Ports\ARM-Cortex-M0\Generic\GNU/os_cpu_c.c **** 
 234:..\..\..\..\..\..\Software\uCOS-II\Ports\ARM-Cortex-M0\Generic\GNU/os_cpu_c.c **** 
 235:..\..\..\..\..\..\Software\uCOS-II\Ports\ARM-Cortex-M0\Generic\GNU/os_cpu_c.c **** /*
 236:..\..\..\..\..\..\Software\uCOS-II\Ports\ARM-Cortex-M0\Generic\GNU/os_cpu_c.c **** ***************************************************************************************************
 237:..\..\..\..\..\..\Software\uCOS-II\Ports\ARM-Cortex-M0\Generic\GNU/os_cpu_c.c **** *                                           STATISTIC TASK HOOK
 238:..\..\..\..\..\..\Software\uCOS-II\Ports\ARM-Cortex-M0\Generic\GNU/os_cpu_c.c **** *
 239:..\..\..\..\..\..\Software\uCOS-II\Ports\ARM-Cortex-M0\Generic\GNU/os_cpu_c.c **** * Description: This function is called every second by uC/OS-II's statistics task.  This allows you
 240:..\..\..\..\..\..\Software\uCOS-II\Ports\ARM-Cortex-M0\Generic\GNU/os_cpu_c.c **** *              application to add functionality to the statistics task.
 241:..\..\..\..\..\..\Software\uCOS-II\Ports\ARM-Cortex-M0\Generic\GNU/os_cpu_c.c **** *
 242:..\..\..\..\..\..\Software\uCOS-II\Ports\ARM-Cortex-M0\Generic\GNU/os_cpu_c.c **** * Arguments  : none
 243:..\..\..\..\..\..\Software\uCOS-II\Ports\ARM-Cortex-M0\Generic\GNU/os_cpu_c.c **** ***************************************************************************************************
 244:..\..\..\..\..\..\Software\uCOS-II\Ports\ARM-Cortex-M0\Generic\GNU/os_cpu_c.c **** */
 245:..\..\..\..\..\..\Software\uCOS-II\Ports\ARM-Cortex-M0\Generic\GNU/os_cpu_c.c **** 
ARM GAS  C:\Users\EDULU~1.DES\AppData\Local\Temp\ccuGbGPl.s 			page 10


 246:..\..\..\..\..\..\Software\uCOS-II\Ports\ARM-Cortex-M0\Generic\GNU/os_cpu_c.c **** #if OS_CPU_HOOKS_EN > 0u
 247:..\..\..\..\..\..\Software\uCOS-II\Ports\ARM-Cortex-M0\Generic\GNU/os_cpu_c.c **** void  OSTaskStatHook (void)
 248:..\..\..\..\..\..\Software\uCOS-II\Ports\ARM-Cortex-M0\Generic\GNU/os_cpu_c.c **** {
 268              		.loc 1 248 0
 269              		.cfi_startproc
 270              		@ args = 0, pretend = 0, frame = 0
 271              		@ frame_needed = 1, uses_anonymous_args = 0
 272 0000 80B5     		push	{r7, lr}
 273              		.cfi_def_cfa_offset 8
 274              		.cfi_offset 7, -8
 275              		.cfi_offset 14, -4
 276 0002 00AF     		add	r7, sp, #0
 277              		.cfi_def_cfa_register 7
 249:..\..\..\..\..\..\Software\uCOS-II\Ports\ARM-Cortex-M0\Generic\GNU/os_cpu_c.c **** #if OS_APP_HOOKS_EN > 0u
 250:..\..\..\..\..\..\Software\uCOS-II\Ports\ARM-Cortex-M0\Generic\GNU/os_cpu_c.c ****     App_TaskStatHook();
 278              		.loc 1 250 0
 279 0004 FFF7FEFF 		bl	App_TaskStatHook
 251:..\..\..\..\..\..\Software\uCOS-II\Ports\ARM-Cortex-M0\Generic\GNU/os_cpu_c.c **** #endif
 252:..\..\..\..\..\..\Software\uCOS-II\Ports\ARM-Cortex-M0\Generic\GNU/os_cpu_c.c **** }
 280              		.loc 1 252 0
 281 0008 C046     		nop
 282 000a BD46     		mov	sp, r7
 283              		@ sp needed
 284 000c 80BD     		pop	{r7, pc}
 285              		.cfi_endproc
 286              	.LFE7:
 287              		.size	OSTaskStatHook, .-OSTaskStatHook
 288 000e C046     		.section	.text.OSTaskStkInit,"ax",%progbits
 289              		.align	2
 290              		.global	OSTaskStkInit
 291              		.code	16
 292              		.thumb_func
 293              		.type	OSTaskStkInit, %function
 294              	OSTaskStkInit:
 295              	.LFB8:
 253:..\..\..\..\..\..\Software\uCOS-II\Ports\ARM-Cortex-M0\Generic\GNU/os_cpu_c.c **** #endif
 254:..\..\..\..\..\..\Software\uCOS-II\Ports\ARM-Cortex-M0\Generic\GNU/os_cpu_c.c **** 
 255:..\..\..\..\..\..\Software\uCOS-II\Ports\ARM-Cortex-M0\Generic\GNU/os_cpu_c.c **** 
 256:..\..\..\..\..\..\Software\uCOS-II\Ports\ARM-Cortex-M0\Generic\GNU/os_cpu_c.c **** /*
 257:..\..\..\..\..\..\Software\uCOS-II\Ports\ARM-Cortex-M0\Generic\GNU/os_cpu_c.c **** ***************************************************************************************************
 258:..\..\..\..\..\..\Software\uCOS-II\Ports\ARM-Cortex-M0\Generic\GNU/os_cpu_c.c **** *                                        INITIALIZE A TASK'S STACK
 259:..\..\..\..\..\..\Software\uCOS-II\Ports\ARM-Cortex-M0\Generic\GNU/os_cpu_c.c **** *
 260:..\..\..\..\..\..\Software\uCOS-II\Ports\ARM-Cortex-M0\Generic\GNU/os_cpu_c.c **** * Description: This function is called by either OSTaskCreate() or OSTaskCreateExt() to initialize 
 261:..\..\..\..\..\..\Software\uCOS-II\Ports\ARM-Cortex-M0\Generic\GNU/os_cpu_c.c **** *              stack frame of the task being created.  This function is highly processor specific.
 262:..\..\..\..\..\..\Software\uCOS-II\Ports\ARM-Cortex-M0\Generic\GNU/os_cpu_c.c **** *
 263:..\..\..\..\..\..\Software\uCOS-II\Ports\ARM-Cortex-M0\Generic\GNU/os_cpu_c.c **** * Arguments  : task          is a pointer to the task code
 264:..\..\..\..\..\..\Software\uCOS-II\Ports\ARM-Cortex-M0\Generic\GNU/os_cpu_c.c **** *
 265:..\..\..\..\..\..\Software\uCOS-II\Ports\ARM-Cortex-M0\Generic\GNU/os_cpu_c.c **** *              p_arg         is a pointer to a user supplied data area that will be passed to the t
 266:..\..\..\..\..\..\Software\uCOS-II\Ports\ARM-Cortex-M0\Generic\GNU/os_cpu_c.c **** *                            when the task first executes.
 267:..\..\..\..\..\..\Software\uCOS-II\Ports\ARM-Cortex-M0\Generic\GNU/os_cpu_c.c **** *
 268:..\..\..\..\..\..\Software\uCOS-II\Ports\ARM-Cortex-M0\Generic\GNU/os_cpu_c.c **** *              ptos          is a pointer to the top of stack.  It is assumed that 'ptos' points to
 269:..\..\..\..\..\..\Software\uCOS-II\Ports\ARM-Cortex-M0\Generic\GNU/os_cpu_c.c **** *                            a 'free' entry on the task stack.  If OS_STK_GROWTH is set to 1 then
 270:..\..\..\..\..\..\Software\uCOS-II\Ports\ARM-Cortex-M0\Generic\GNU/os_cpu_c.c **** *                            'ptos' will contain the HIGHEST valid address of the stack.  Similarly
 271:..\..\..\..\..\..\Software\uCOS-II\Ports\ARM-Cortex-M0\Generic\GNU/os_cpu_c.c **** *                            OS_STK_GROWTH is set to 0, the 'ptos' will contains the LOWEST valid a
 272:..\..\..\..\..\..\Software\uCOS-II\Ports\ARM-Cortex-M0\Generic\GNU/os_cpu_c.c **** *                            of the stack.
 273:..\..\..\..\..\..\Software\uCOS-II\Ports\ARM-Cortex-M0\Generic\GNU/os_cpu_c.c **** *
 274:..\..\..\..\..\..\Software\uCOS-II\Ports\ARM-Cortex-M0\Generic\GNU/os_cpu_c.c **** *              opt           specifies options that can be used to alter the behavior of OSTaskStkI
ARM GAS  C:\Users\EDULU~1.DES\AppData\Local\Temp\ccuGbGPl.s 			page 11


 275:..\..\..\..\..\..\Software\uCOS-II\Ports\ARM-Cortex-M0\Generic\GNU/os_cpu_c.c **** *                            (see uCOS_II.H for OS_TASK_OPT_xxx).
 276:..\..\..\..\..\..\Software\uCOS-II\Ports\ARM-Cortex-M0\Generic\GNU/os_cpu_c.c **** *
 277:..\..\..\..\..\..\Software\uCOS-II\Ports\ARM-Cortex-M0\Generic\GNU/os_cpu_c.c **** * Returns    : Always returns the location of the new top-of-stack once the processor registers hav
 278:..\..\..\..\..\..\Software\uCOS-II\Ports\ARM-Cortex-M0\Generic\GNU/os_cpu_c.c **** *              been placed on the stack in the proper order.
 279:..\..\..\..\..\..\Software\uCOS-II\Ports\ARM-Cortex-M0\Generic\GNU/os_cpu_c.c **** *
 280:..\..\..\..\..\..\Software\uCOS-II\Ports\ARM-Cortex-M0\Generic\GNU/os_cpu_c.c **** * Note(s)    : (1) Interrupts are enabled when task starts executing.
 281:..\..\..\..\..\..\Software\uCOS-II\Ports\ARM-Cortex-M0\Generic\GNU/os_cpu_c.c **** *
 282:..\..\..\..\..\..\Software\uCOS-II\Ports\ARM-Cortex-M0\Generic\GNU/os_cpu_c.c **** *              (2) All tasks run in Thread mode, using process stack.
 283:..\..\..\..\..\..\Software\uCOS-II\Ports\ARM-Cortex-M0\Generic\GNU/os_cpu_c.c **** *
 284:..\..\..\..\..\..\Software\uCOS-II\Ports\ARM-Cortex-M0\Generic\GNU/os_cpu_c.c **** *             (3) The SP must be 8-byte aligned in conforming to the Procedure Call Standard for th
 285:..\..\..\..\..\..\Software\uCOS-II\Ports\ARM-Cortex-M0\Generic\GNU/os_cpu_c.c **** *
 286:..\..\..\..\..\..\Software\uCOS-II\Ports\ARM-Cortex-M0\Generic\GNU/os_cpu_c.c **** *                    (a) Section 2.1 of the  ABI for the ARM Architecture Advisory Note. SP must be
 287:..\..\..\..\..\..\Software\uCOS-II\Ports\ARM-Cortex-M0\Generic\GNU/os_cpu_c.c **** *                        on entry to AAPCS-Conforming functions states :
 288:..\..\..\..\..\..\Software\uCOS-II\Ports\ARM-Cortex-M0\Generic\GNU/os_cpu_c.c **** *
 289:..\..\..\..\..\..\Software\uCOS-II\Ports\ARM-Cortex-M0\Generic\GNU/os_cpu_c.c **** *                        The Procedure Call Standard for the ARM Architecture [AAPCS] requires prim
 290:..\..\..\..\..\..\Software\uCOS-II\Ports\ARM-Cortex-M0\Generic\GNU/os_cpu_c.c **** *                        data types to be naturally aligned according to their sizes (for size = 1,
 291:..\..\..\..\..\..\Software\uCOS-II\Ports\ARM-Cortex-M0\Generic\GNU/os_cpu_c.c **** *                        Doing otherwise creates more problems than it solves.
 292:..\..\..\..\..\..\Software\uCOS-II\Ports\ARM-Cortex-M0\Generic\GNU/os_cpu_c.c **** *
 293:..\..\..\..\..\..\Software\uCOS-II\Ports\ARM-Cortex-M0\Generic\GNU/os_cpu_c.c **** *                        In return for preserving the natural alignment of data, conforming code is
 294:..\..\..\..\..\..\Software\uCOS-II\Ports\ARM-Cortex-M0\Generic\GNU/os_cpu_c.c **** *                        to rely on that alignment. To support aligning data allocated on the stack
 295:..\..\..\..\..\..\Software\uCOS-II\Ports\ARM-Cortex-M0\Generic\GNU/os_cpu_c.c **** *                        pointer (SP) is required to be 8-byte aligned on entry to a conforming fun
 296:..\..\..\..\..\..\Software\uCOS-II\Ports\ARM-Cortex-M0\Generic\GNU/os_cpu_c.c **** *                        practice this requirement is met if:
 297:..\..\..\..\..\..\Software\uCOS-II\Ports\ARM-Cortex-M0\Generic\GNU/os_cpu_c.c **** *
 298:..\..\..\..\..\..\Software\uCOS-II\Ports\ARM-Cortex-M0\Generic\GNU/os_cpu_c.c **** *                           (1) At each call site, the current size of the calling functions stack
 299:..\..\..\..\..\..\Software\uCOS-II\Ports\ARM-Cortex-M0\Generic\GNU/os_cpu_c.c **** *                               This places an obligation on compilers and assembly language progra
 300:..\..\..\..\..\..\Software\uCOS-II\Ports\ARM-Cortex-M0\Generic\GNU/os_cpu_c.c **** *
 301:..\..\..\..\..\..\Software\uCOS-II\Ports\ARM-Cortex-M0\Generic\GNU/os_cpu_c.c **** *                           (2) SP is a multiple of 8 when control first enters a program.
 302:..\..\..\..\..\..\Software\uCOS-II\Ports\ARM-Cortex-M0\Generic\GNU/os_cpu_c.c **** *                               This places an obligation on authors of low level OS, RTOS, and run
 303:..\..\..\..\..\..\Software\uCOS-II\Ports\ARM-Cortex-M0\Generic\GNU/os_cpu_c.c **** *                               code to align SP at all points at which control first enters
 304:..\..\..\..\..\..\Software\uCOS-II\Ports\ARM-Cortex-M0\Generic\GNU/os_cpu_c.c **** *                               a body of (AAPCS-conforming) code.
 305:..\..\..\..\..\..\Software\uCOS-II\Ports\ARM-Cortex-M0\Generic\GNU/os_cpu_c.c **** *
 306:..\..\..\..\..\..\Software\uCOS-II\Ports\ARM-Cortex-M0\Generic\GNU/os_cpu_c.c **** *                       In turn, this requires the value of SP to be aligned to 0 modulo 8:
 307:..\..\..\..\..\..\Software\uCOS-II\Ports\ARM-Cortex-M0\Generic\GNU/os_cpu_c.c **** *
 308:..\..\..\..\..\..\Software\uCOS-II\Ports\ARM-Cortex-M0\Generic\GNU/os_cpu_c.c **** *                           (3) By exception handlers, before calling AAPCS-conforming code.
 309:..\..\..\..\..\..\Software\uCOS-II\Ports\ARM-Cortex-M0\Generic\GNU/os_cpu_c.c **** *
 310:..\..\..\..\..\..\Software\uCOS-II\Ports\ARM-Cortex-M0\Generic\GNU/os_cpu_c.c **** *                           (4) By OS/RTOS/run-time system code, before giving control to an applic
 311:..\..\..\..\..\..\Software\uCOS-II\Ports\ARM-Cortex-M0\Generic\GNU/os_cpu_c.c **** *
 312:..\..\..\..\..\..\Software\uCOS-II\Ports\ARM-Cortex-M0\Generic\GNU/os_cpu_c.c **** *                 (b) Section 2.3.1 corrective steps from the the SP must be 8-byte aligned on entr
 313:..\..\..\..\..\..\Software\uCOS-II\Ports\ARM-Cortex-M0\Generic\GNU/os_cpu_c.c **** *                     to AAPCS-conforming functions advisory note also states.
 314:..\..\..\..\..\..\Software\uCOS-II\Ports\ARM-Cortex-M0\Generic\GNU/os_cpu_c.c **** *
 315:..\..\..\..\..\..\Software\uCOS-II\Ports\ARM-Cortex-M0\Generic\GNU/os_cpu_c.c **** *                     " This requirement extends to operating systems and run-time code for all arc
 316:..\..\..\..\..\..\Software\uCOS-II\Ports\ARM-Cortex-M0\Generic\GNU/os_cpu_c.c **** *                       prior to ARMV7 and to the A, R and M architecture profiles thereafter. Spec
 317:..\..\..\..\..\..\Software\uCOS-II\Ports\ARM-Cortex-M0\Generic\GNU/os_cpu_c.c **** *                       associated with ARMV7M are discussed in 2.3.3"
 318:..\..\..\..\..\..\Software\uCOS-II\Ports\ARM-Cortex-M0\Generic\GNU/os_cpu_c.c **** *
 319:..\..\..\..\..\..\Software\uCOS-II\Ports\ARM-Cortex-M0\Generic\GNU/os_cpu_c.c **** *                     (1) Even if the SP 8-byte aligment is not a requirement for the ARMv7M profil
 320:..\..\..\..\..\..\Software\uCOS-II\Ports\ARM-Cortex-M0\Generic\GNU/os_cpu_c.c **** *                         to 8-byte boundaries to support legacy execution enviroments.
 321:..\..\..\..\..\..\Software\uCOS-II\Ports\ARM-Cortex-M0\Generic\GNU/os_cpu_c.c **** *
 322:..\..\..\..\..\..\Software\uCOS-II\Ports\ARM-Cortex-M0\Generic\GNU/os_cpu_c.c **** *                 (c) Section 5.2.1.2 from the Procedure Call Standard for the ARM
 323:..\..\..\..\..\..\Software\uCOS-II\Ports\ARM-Cortex-M0\Generic\GNU/os_cpu_c.c **** *                     architecture states :  "The stack must also conform to the following
 324:..\..\..\..\..\..\Software\uCOS-II\Ports\ARM-Cortex-M0\Generic\GNU/os_cpu_c.c **** *                     constraint at a public interface:
 325:..\..\..\..\..\..\Software\uCOS-II\Ports\ARM-Cortex-M0\Generic\GNU/os_cpu_c.c **** *
 326:..\..\..\..\..\..\Software\uCOS-II\Ports\ARM-Cortex-M0\Generic\GNU/os_cpu_c.c **** *                     (1) SP mod 8 = 0. The stack must be double-word aligned"
 327:..\..\..\..\..\..\Software\uCOS-II\Ports\ARM-Cortex-M0\Generic\GNU/os_cpu_c.c **** *
 328:..\..\..\..\..\..\Software\uCOS-II\Ports\ARM-Cortex-M0\Generic\GNU/os_cpu_c.c **** *                 (d) From the ARM Technical Support Knowledge Base. 8 Byte stack aligment.
 329:..\..\..\..\..\..\Software\uCOS-II\Ports\ARM-Cortex-M0\Generic\GNU/os_cpu_c.c **** *
 330:..\..\..\..\..\..\Software\uCOS-II\Ports\ARM-Cortex-M0\Generic\GNU/os_cpu_c.c **** *                     "8 byte stack alignment is a requirement of the ARM Architecture Procedure
 331:..\..\..\..\..\..\Software\uCOS-II\Ports\ARM-Cortex-M0\Generic\GNU/os_cpu_c.c **** *                      Call Standard [AAPCS]. This specifies that functions must maintain an 8 byte
ARM GAS  C:\Users\EDULU~1.DES\AppData\Local\Temp\ccuGbGPl.s 			page 12


 332:..\..\..\..\..\..\Software\uCOS-II\Ports\ARM-Cortex-M0\Generic\GNU/os_cpu_c.c **** *                      aligned stack address (e.g. 0x00, 0x08, 0x10, 0x18, 0x20) on all external
 333:..\..\..\..\..\..\Software\uCOS-II\Ports\ARM-Cortex-M0\Generic\GNU/os_cpu_c.c **** *                      interfaces. In practice this requirement is met if:
 334:..\..\..\..\..\..\Software\uCOS-II\Ports\ARM-Cortex-M0\Generic\GNU/os_cpu_c.c **** *
 335:..\..\..\..\..\..\Software\uCOS-II\Ports\ARM-Cortex-M0\Generic\GNU/os_cpu_c.c **** *                      (1) At each external interface, the current stack pointer
 336:..\..\..\..\..\..\Software\uCOS-II\Ports\ARM-Cortex-M0\Generic\GNU/os_cpu_c.c **** *                          is a multiple of 8 bytes.
 337:..\..\..\..\..\..\Software\uCOS-II\Ports\ARM-Cortex-M0\Generic\GNU/os_cpu_c.c **** *
 338:..\..\..\..\..\..\Software\uCOS-II\Ports\ARM-Cortex-M0\Generic\GNU/os_cpu_c.c **** *                      (2) Your OS maintains 8 byte stack alignment on its external interfaces
 339:..\..\..\..\..\..\Software\uCOS-II\Ports\ARM-Cortex-M0\Generic\GNU/os_cpu_c.c **** *                          e.g. on task switches"
 340:..\..\..\..\..\..\Software\uCOS-II\Ports\ARM-Cortex-M0\Generic\GNU/os_cpu_c.c **** *
 341:..\..\..\..\..\..\Software\uCOS-II\Ports\ARM-Cortex-M0\Generic\GNU/os_cpu_c.c **** *              (4) Exception Return Behavior(EXEC_RETURN)
 342:..\..\..\..\..\..\Software\uCOS-II\Ports\ARM-Cortex-M0\Generic\GNU/os_cpu_c.c **** *                  0xFFFFFFF1      Return to Thread mode. Exception return gets state from the Main
 343:..\..\..\..\..\..\Software\uCOS-II\Ports\ARM-Cortex-M0\Generic\GNU/os_cpu_c.c **** *                                  On Return execution uses the Main Stack.
 344:..\..\..\..\..\..\Software\uCOS-II\Ports\ARM-Cortex-M0\Generic\GNU/os_cpu_c.c **** *
 345:..\..\..\..\..\..\Software\uCOS-II\Ports\ARM-Cortex-M0\Generic\GNU/os_cpu_c.c **** *                  0xFFFFFFF9      Return to Thread mode. Exception return gets state from the Main
 346:..\..\..\..\..\..\Software\uCOS-II\Ports\ARM-Cortex-M0\Generic\GNU/os_cpu_c.c **** *                                  On Return execution uses the Main Stack.
 347:..\..\..\..\..\..\Software\uCOS-II\Ports\ARM-Cortex-M0\Generic\GNU/os_cpu_c.c **** *
 348:..\..\..\..\..\..\Software\uCOS-II\Ports\ARM-Cortex-M0\Generic\GNU/os_cpu_c.c **** *                  0xFFFFFFFD      Return to Thread mode. Exception return gets state from the Proc
 349:..\..\..\..\..\..\Software\uCOS-II\Ports\ARM-Cortex-M0\Generic\GNU/os_cpu_c.c **** *                                  On Return execution uses the Process Stack.
 350:..\..\..\..\..\..\Software\uCOS-II\Ports\ARM-Cortex-M0\Generic\GNU/os_cpu_c.c **** ***************************************************************************************************
 351:..\..\..\..\..\..\Software\uCOS-II\Ports\ARM-Cortex-M0\Generic\GNU/os_cpu_c.c **** */
 352:..\..\..\..\..\..\Software\uCOS-II\Ports\ARM-Cortex-M0\Generic\GNU/os_cpu_c.c **** 
 353:..\..\..\..\..\..\Software\uCOS-II\Ports\ARM-Cortex-M0\Generic\GNU/os_cpu_c.c **** OS_STK  *OSTaskStkInit (void    (*task)(void *p_arg),
 354:..\..\..\..\..\..\Software\uCOS-II\Ports\ARM-Cortex-M0\Generic\GNU/os_cpu_c.c ****                         void     *p_arg,
 355:..\..\..\..\..\..\Software\uCOS-II\Ports\ARM-Cortex-M0\Generic\GNU/os_cpu_c.c ****                         OS_STK   *ptos,
 356:..\..\..\..\..\..\Software\uCOS-II\Ports\ARM-Cortex-M0\Generic\GNU/os_cpu_c.c ****                         INT16U    opt)
 357:..\..\..\..\..\..\Software\uCOS-II\Ports\ARM-Cortex-M0\Generic\GNU/os_cpu_c.c **** {
 296              		.loc 1 357 0
 297              		.cfi_startproc
 298              		@ args = 0, pretend = 0, frame = 24
 299              		@ frame_needed = 1, uses_anonymous_args = 0
 300 0000 80B5     		push	{r7, lr}
 301              		.cfi_def_cfa_offset 8
 302              		.cfi_offset 7, -8
 303              		.cfi_offset 14, -4
 304 0002 86B0     		sub	sp, sp, #24
 305              		.cfi_def_cfa_offset 32
 306 0004 00AF     		add	r7, sp, #0
 307              		.cfi_def_cfa_register 7
 308 0006 F860     		str	r0, [r7, #12]
 309 0008 B960     		str	r1, [r7, #8]
 310 000a 7A60     		str	r2, [r7, #4]
 311 000c 1A00     		movs	r2, r3
 312 000e BB1C     		adds	r3, r7, #2
 313 0010 1A80     		strh	r2, [r3]
 358:..\..\..\..\..\..\Software\uCOS-II\Ports\ARM-Cortex-M0\Generic\GNU/os_cpu_c.c ****     OS_STK  *p_stk;
 359:..\..\..\..\..\..\Software\uCOS-II\Ports\ARM-Cortex-M0\Generic\GNU/os_cpu_c.c **** 
 360:..\..\..\..\..\..\Software\uCOS-II\Ports\ARM-Cortex-M0\Generic\GNU/os_cpu_c.c **** 
 361:..\..\..\..\..\..\Software\uCOS-II\Ports\ARM-Cortex-M0\Generic\GNU/os_cpu_c.c ****     (void)opt;                                                  /* 'opt' is not used, prevent warni
 362:..\..\..\..\..\..\Software\uCOS-II\Ports\ARM-Cortex-M0\Generic\GNU/os_cpu_c.c ****     p_stk      = ptos + 1u;                                     /* Load stack pointer              
 314              		.loc 1 362 0
 315 0012 7B68     		ldr	r3, [r7, #4]
 316 0014 0433     		adds	r3, r3, #4
 317 0016 7B61     		str	r3, [r7, #20]
 363:..\..\..\..\..\..\Software\uCOS-II\Ports\ARM-Cortex-M0\Generic\GNU/os_cpu_c.c ****                                                                 /* Align the stack to 8-bytes.     
 364:..\..\..\..\..\..\Software\uCOS-II\Ports\ARM-Cortex-M0\Generic\GNU/os_cpu_c.c ****     p_stk      = (OS_STK *)((OS_STK)(p_stk) & 0xFFFFFFF8u);
 318              		.loc 1 364 0
 319 0018 7B69     		ldr	r3, [r7, #20]
ARM GAS  C:\Users\EDULU~1.DES\AppData\Local\Temp\ccuGbGPl.s 			page 13


 320 001a 0722     		movs	r2, #7
 321 001c 9343     		bics	r3, r2
 322 001e 7B61     		str	r3, [r7, #20]
 365:..\..\..\..\..\..\Software\uCOS-II\Ports\ARM-Cortex-M0\Generic\GNU/os_cpu_c.c ****                                                                 /* Registers stacked as if auto-sav
 366:..\..\..\..\..\..\Software\uCOS-II\Ports\ARM-Cortex-M0\Generic\GNU/os_cpu_c.c ****     *(--p_stk) = (OS_STK)0x01000000uL;                          /* xPSR                            
 323              		.loc 1 366 0
 324 0020 7B69     		ldr	r3, [r7, #20]
 325 0022 043B     		subs	r3, r3, #4
 326 0024 7B61     		str	r3, [r7, #20]
 327 0026 7B69     		ldr	r3, [r7, #20]
 328 0028 8022     		movs	r2, #128
 329 002a 5204     		lsls	r2, r2, #17
 330 002c 1A60     		str	r2, [r3]
 367:..\..\..\..\..\..\Software\uCOS-II\Ports\ARM-Cortex-M0\Generic\GNU/os_cpu_c.c ****     *(--p_stk) = (OS_STK)task;                                  /* Entry Point                     
 331              		.loc 1 367 0
 332 002e 7B69     		ldr	r3, [r7, #20]
 333 0030 043B     		subs	r3, r3, #4
 334 0032 7B61     		str	r3, [r7, #20]
 335 0034 FA68     		ldr	r2, [r7, #12]
 336 0036 7B69     		ldr	r3, [r7, #20]
 337 0038 1A60     		str	r2, [r3]
 368:..\..\..\..\..\..\Software\uCOS-II\Ports\ARM-Cortex-M0\Generic\GNU/os_cpu_c.c ****     *(--p_stk) = (OS_STK)OS_TaskReturn;                         /* R14 (LR)                        
 338              		.loc 1 368 0
 339 003a 7B69     		ldr	r3, [r7, #20]
 340 003c 043B     		subs	r3, r3, #4
 341 003e 7B61     		str	r3, [r7, #20]
 342 0040 2E4A     		ldr	r2, .L14
 343 0042 7B69     		ldr	r3, [r7, #20]
 344 0044 1A60     		str	r2, [r3]
 369:..\..\..\..\..\..\Software\uCOS-II\Ports\ARM-Cortex-M0\Generic\GNU/os_cpu_c.c ****     *(--p_stk) = (OS_STK)0x12121212uL;                          /* R12                             
 345              		.loc 1 369 0
 346 0046 7B69     		ldr	r3, [r7, #20]
 347 0048 043B     		subs	r3, r3, #4
 348 004a 7B61     		str	r3, [r7, #20]
 349 004c 7B69     		ldr	r3, [r7, #20]
 350 004e 2C4A     		ldr	r2, .L14+4
 351 0050 1A60     		str	r2, [r3]
 370:..\..\..\..\..\..\Software\uCOS-II\Ports\ARM-Cortex-M0\Generic\GNU/os_cpu_c.c ****     *(--p_stk) = (OS_STK)0x03030303uL;                          /* R3                              
 352              		.loc 1 370 0
 353 0052 7B69     		ldr	r3, [r7, #20]
 354 0054 043B     		subs	r3, r3, #4
 355 0056 7B61     		str	r3, [r7, #20]
 356 0058 7B69     		ldr	r3, [r7, #20]
 357 005a 2A4A     		ldr	r2, .L14+8
 358 005c 1A60     		str	r2, [r3]
 371:..\..\..\..\..\..\Software\uCOS-II\Ports\ARM-Cortex-M0\Generic\GNU/os_cpu_c.c ****     *(--p_stk) = (OS_STK)0x02020202uL;                          /* R2                              
 359              		.loc 1 371 0
 360 005e 7B69     		ldr	r3, [r7, #20]
 361 0060 043B     		subs	r3, r3, #4
 362 0062 7B61     		str	r3, [r7, #20]
 363 0064 7B69     		ldr	r3, [r7, #20]
 364 0066 284A     		ldr	r2, .L14+12
 365 0068 1A60     		str	r2, [r3]
 372:..\..\..\..\..\..\Software\uCOS-II\Ports\ARM-Cortex-M0\Generic\GNU/os_cpu_c.c ****     *(--p_stk) = (OS_STK)0x01010101uL;                          /* R1                              
 366              		.loc 1 372 0
 367 006a 7B69     		ldr	r3, [r7, #20]
 368 006c 043B     		subs	r3, r3, #4
ARM GAS  C:\Users\EDULU~1.DES\AppData\Local\Temp\ccuGbGPl.s 			page 14


 369 006e 7B61     		str	r3, [r7, #20]
 370 0070 7B69     		ldr	r3, [r7, #20]
 371 0072 264A     		ldr	r2, .L14+16
 372 0074 1A60     		str	r2, [r3]
 373:..\..\..\..\..\..\Software\uCOS-II\Ports\ARM-Cortex-M0\Generic\GNU/os_cpu_c.c ****     *(--p_stk) = (OS_STK)p_arg;                                 /* R0 : argument                   
 373              		.loc 1 373 0
 374 0076 7B69     		ldr	r3, [r7, #20]
 375 0078 043B     		subs	r3, r3, #4
 376 007a 7B61     		str	r3, [r7, #20]
 377 007c BA68     		ldr	r2, [r7, #8]
 378 007e 7B69     		ldr	r3, [r7, #20]
 379 0080 1A60     		str	r2, [r3]
 374:..\..\..\..\..\..\Software\uCOS-II\Ports\ARM-Cortex-M0\Generic\GNU/os_cpu_c.c ****                                                                 /* Remaining registers saved on pro
 375:..\..\..\..\..\..\Software\uCOS-II\Ports\ARM-Cortex-M0\Generic\GNU/os_cpu_c.c ****     *(--p_stk) = (OS_STK)0xFFFFFFFDuL;                          /* R14: EXEC_RETURN; See Note 4    
 380              		.loc 1 375 0
 381 0082 7B69     		ldr	r3, [r7, #20]
 382 0084 043B     		subs	r3, r3, #4
 383 0086 7B61     		str	r3, [r7, #20]
 384 0088 7B69     		ldr	r3, [r7, #20]
 385 008a 0322     		movs	r2, #3
 386 008c 5242     		rsbs	r2, r2, #0
 387 008e 1A60     		str	r2, [r3]
 376:..\..\..\..\..\..\Software\uCOS-II\Ports\ARM-Cortex-M0\Generic\GNU/os_cpu_c.c ****     *(--p_stk) = (OS_STK)0x11111111uL;                          /* R11                             
 388              		.loc 1 376 0
 389 0090 7B69     		ldr	r3, [r7, #20]
 390 0092 043B     		subs	r3, r3, #4
 391 0094 7B61     		str	r3, [r7, #20]
 392 0096 7B69     		ldr	r3, [r7, #20]
 393 0098 1D4A     		ldr	r2, .L14+20
 394 009a 1A60     		str	r2, [r3]
 377:..\..\..\..\..\..\Software\uCOS-II\Ports\ARM-Cortex-M0\Generic\GNU/os_cpu_c.c ****     *(--p_stk) = (OS_STK)0x10101010uL;                          /* R10                             
 395              		.loc 1 377 0
 396 009c 7B69     		ldr	r3, [r7, #20]
 397 009e 043B     		subs	r3, r3, #4
 398 00a0 7B61     		str	r3, [r7, #20]
 399 00a2 7B69     		ldr	r3, [r7, #20]
 400 00a4 1B4A     		ldr	r2, .L14+24
 401 00a6 1A60     		str	r2, [r3]
 378:..\..\..\..\..\..\Software\uCOS-II\Ports\ARM-Cortex-M0\Generic\GNU/os_cpu_c.c ****     *(--p_stk) = (OS_STK)0x09090909uL;                          /* R9                              
 402              		.loc 1 378 0
 403 00a8 7B69     		ldr	r3, [r7, #20]
 404 00aa 043B     		subs	r3, r3, #4
 405 00ac 7B61     		str	r3, [r7, #20]
 406 00ae 7B69     		ldr	r3, [r7, #20]
 407 00b0 194A     		ldr	r2, .L14+28
 408 00b2 1A60     		str	r2, [r3]
 379:..\..\..\..\..\..\Software\uCOS-II\Ports\ARM-Cortex-M0\Generic\GNU/os_cpu_c.c ****     *(--p_stk) = (OS_STK)0x08080808uL;                          /* R8                              
 409              		.loc 1 379 0
 410 00b4 7B69     		ldr	r3, [r7, #20]
 411 00b6 043B     		subs	r3, r3, #4
 412 00b8 7B61     		str	r3, [r7, #20]
 413 00ba 7B69     		ldr	r3, [r7, #20]
 414 00bc 174A     		ldr	r2, .L14+32
 415 00be 1A60     		str	r2, [r3]
 380:..\..\..\..\..\..\Software\uCOS-II\Ports\ARM-Cortex-M0\Generic\GNU/os_cpu_c.c ****     *(--p_stk) = (OS_STK)0x07070707uL;                          /* R7                              
 416              		.loc 1 380 0
 417 00c0 7B69     		ldr	r3, [r7, #20]
ARM GAS  C:\Users\EDULU~1.DES\AppData\Local\Temp\ccuGbGPl.s 			page 15


 418 00c2 043B     		subs	r3, r3, #4
 419 00c4 7B61     		str	r3, [r7, #20]
 420 00c6 7B69     		ldr	r3, [r7, #20]
 421 00c8 154A     		ldr	r2, .L14+36
 422 00ca 1A60     		str	r2, [r3]
 381:..\..\..\..\..\..\Software\uCOS-II\Ports\ARM-Cortex-M0\Generic\GNU/os_cpu_c.c ****     *(--p_stk) = (OS_STK)0x06060606uL;                          /* R6                              
 423              		.loc 1 381 0
 424 00cc 7B69     		ldr	r3, [r7, #20]
 425 00ce 043B     		subs	r3, r3, #4
 426 00d0 7B61     		str	r3, [r7, #20]
 427 00d2 7B69     		ldr	r3, [r7, #20]
 428 00d4 134A     		ldr	r2, .L14+40
 429 00d6 1A60     		str	r2, [r3]
 382:..\..\..\..\..\..\Software\uCOS-II\Ports\ARM-Cortex-M0\Generic\GNU/os_cpu_c.c ****     *(--p_stk) = (OS_STK)0x05050505uL;                          /* R5                              
 430              		.loc 1 382 0
 431 00d8 7B69     		ldr	r3, [r7, #20]
 432 00da 043B     		subs	r3, r3, #4
 433 00dc 7B61     		str	r3, [r7, #20]
 434 00de 7B69     		ldr	r3, [r7, #20]
 435 00e0 114A     		ldr	r2, .L14+44
 436 00e2 1A60     		str	r2, [r3]
 383:..\..\..\..\..\..\Software\uCOS-II\Ports\ARM-Cortex-M0\Generic\GNU/os_cpu_c.c ****     *(--p_stk) = (OS_STK)0x04040404uL;                          /* R4                              
 437              		.loc 1 383 0
 438 00e4 7B69     		ldr	r3, [r7, #20]
 439 00e6 043B     		subs	r3, r3, #4
 440 00e8 7B61     		str	r3, [r7, #20]
 441 00ea 7B69     		ldr	r3, [r7, #20]
 442 00ec 0F4A     		ldr	r2, .L14+48
 443 00ee 1A60     		str	r2, [r3]
 384:..\..\..\..\..\..\Software\uCOS-II\Ports\ARM-Cortex-M0\Generic\GNU/os_cpu_c.c **** 
 385:..\..\..\..\..\..\Software\uCOS-II\Ports\ARM-Cortex-M0\Generic\GNU/os_cpu_c.c ****     return (p_stk);
 444              		.loc 1 385 0
 445 00f0 7B69     		ldr	r3, [r7, #20]
 386:..\..\..\..\..\..\Software\uCOS-II\Ports\ARM-Cortex-M0\Generic\GNU/os_cpu_c.c **** }
 446              		.loc 1 386 0
 447 00f2 1800     		movs	r0, r3
 448 00f4 BD46     		mov	sp, r7
 449 00f6 06B0     		add	sp, sp, #24
 450              		@ sp needed
 451 00f8 80BD     		pop	{r7, pc}
 452              	.L15:
 453 00fa C046     		.align	2
 454              	.L14:
 455 00fc 00000000 		.word	OS_TaskReturn
 456 0100 12121212 		.word	303174162
 457 0104 03030303 		.word	50529027
 458 0108 02020202 		.word	33686018
 459 010c 01010101 		.word	16843009
 460 0110 11111111 		.word	286331153
 461 0114 10101010 		.word	269488144
 462 0118 09090909 		.word	151587081
 463 011c 08080808 		.word	134744072
 464 0120 07070707 		.word	117901063
 465 0124 06060606 		.word	101058054
 466 0128 05050505 		.word	84215045
 467 012c 04040404 		.word	67372036
 468              		.cfi_endproc
ARM GAS  C:\Users\EDULU~1.DES\AppData\Local\Temp\ccuGbGPl.s 			page 16


 469              	.LFE8:
 470              		.size	OSTaskStkInit, .-OSTaskStkInit
 471              		.section	.text.OSTaskSwHook,"ax",%progbits
 472              		.align	2
 473              		.global	OSTaskSwHook
 474              		.code	16
 475              		.thumb_func
 476              		.type	OSTaskSwHook, %function
 477              	OSTaskSwHook:
 478              	.LFB9:
 387:..\..\..\..\..\..\Software\uCOS-II\Ports\ARM-Cortex-M0\Generic\GNU/os_cpu_c.c **** 
 388:..\..\..\..\..\..\Software\uCOS-II\Ports\ARM-Cortex-M0\Generic\GNU/os_cpu_c.c **** 
 389:..\..\..\..\..\..\Software\uCOS-II\Ports\ARM-Cortex-M0\Generic\GNU/os_cpu_c.c **** /*
 390:..\..\..\..\..\..\Software\uCOS-II\Ports\ARM-Cortex-M0\Generic\GNU/os_cpu_c.c **** ***************************************************************************************************
 391:..\..\..\..\..\..\Software\uCOS-II\Ports\ARM-Cortex-M0\Generic\GNU/os_cpu_c.c **** *                                           TASK SWITCH HOOK
 392:..\..\..\..\..\..\Software\uCOS-II\Ports\ARM-Cortex-M0\Generic\GNU/os_cpu_c.c **** *
 393:..\..\..\..\..\..\Software\uCOS-II\Ports\ARM-Cortex-M0\Generic\GNU/os_cpu_c.c **** * Description: This function is called when a task switch is performed.  This allows you to perform
 394:..\..\..\..\..\..\Software\uCOS-II\Ports\ARM-Cortex-M0\Generic\GNU/os_cpu_c.c **** *              operations during a context switch.
 395:..\..\..\..\..\..\Software\uCOS-II\Ports\ARM-Cortex-M0\Generic\GNU/os_cpu_c.c **** *
 396:..\..\..\..\..\..\Software\uCOS-II\Ports\ARM-Cortex-M0\Generic\GNU/os_cpu_c.c **** * Arguments  : none
 397:..\..\..\..\..\..\Software\uCOS-II\Ports\ARM-Cortex-M0\Generic\GNU/os_cpu_c.c **** *
 398:..\..\..\..\..\..\Software\uCOS-II\Ports\ARM-Cortex-M0\Generic\GNU/os_cpu_c.c **** * Note(s)    : 1) Interrupts are disabled during this call.
 399:..\..\..\..\..\..\Software\uCOS-II\Ports\ARM-Cortex-M0\Generic\GNU/os_cpu_c.c **** *              2) It is assumed that the global pointer 'OSTCBHighRdy' points to the TCB of the tas
 400:..\..\..\..\..\..\Software\uCOS-II\Ports\ARM-Cortex-M0\Generic\GNU/os_cpu_c.c **** *                 will be 'switched in' (i.e. the highest priority task) and, 'OSTCBCur' points to 
 401:..\..\..\..\..\..\Software\uCOS-II\Ports\ARM-Cortex-M0\Generic\GNU/os_cpu_c.c **** *                 task being switched out (i.e. the preempted task).
 402:..\..\..\..\..\..\Software\uCOS-II\Ports\ARM-Cortex-M0\Generic\GNU/os_cpu_c.c **** ***************************************************************************************************
 403:..\..\..\..\..\..\Software\uCOS-II\Ports\ARM-Cortex-M0\Generic\GNU/os_cpu_c.c **** */
 404:..\..\..\..\..\..\Software\uCOS-II\Ports\ARM-Cortex-M0\Generic\GNU/os_cpu_c.c **** #if (OS_CPU_HOOKS_EN > 0u) && (OS_TASK_SW_HOOK_EN > 0u)
 405:..\..\..\..\..\..\Software\uCOS-II\Ports\ARM-Cortex-M0\Generic\GNU/os_cpu_c.c **** void  OSTaskSwHook (void)
 406:..\..\..\..\..\..\Software\uCOS-II\Ports\ARM-Cortex-M0\Generic\GNU/os_cpu_c.c **** {
 479              		.loc 1 406 0
 480              		.cfi_startproc
 481              		@ args = 0, pretend = 0, frame = 0
 482              		@ frame_needed = 1, uses_anonymous_args = 0
 483 0000 80B5     		push	{r7, lr}
 484              		.cfi_def_cfa_offset 8
 485              		.cfi_offset 7, -8
 486              		.cfi_offset 14, -4
 487 0002 00AF     		add	r7, sp, #0
 488              		.cfi_def_cfa_register 7
 407:..\..\..\..\..\..\Software\uCOS-II\Ports\ARM-Cortex-M0\Generic\GNU/os_cpu_c.c **** #if OS_APP_HOOKS_EN > 0u
 408:..\..\..\..\..\..\Software\uCOS-II\Ports\ARM-Cortex-M0\Generic\GNU/os_cpu_c.c ****     App_TaskSwHook();
 489              		.loc 1 408 0
 490 0004 FFF7FEFF 		bl	App_TaskSwHook
 409:..\..\..\..\..\..\Software\uCOS-II\Ports\ARM-Cortex-M0\Generic\GNU/os_cpu_c.c **** #endif
 410:..\..\..\..\..\..\Software\uCOS-II\Ports\ARM-Cortex-M0\Generic\GNU/os_cpu_c.c **** }
 491              		.loc 1 410 0
 492 0008 C046     		nop
 493 000a BD46     		mov	sp, r7
 494              		@ sp needed
 495 000c 80BD     		pop	{r7, pc}
 496              		.cfi_endproc
 497              	.LFE9:
 498              		.size	OSTaskSwHook, .-OSTaskSwHook
 499 000e C046     		.section	.text.OSTCBInitHook,"ax",%progbits
 500              		.align	2
 501              		.global	OSTCBInitHook
ARM GAS  C:\Users\EDULU~1.DES\AppData\Local\Temp\ccuGbGPl.s 			page 17


 502              		.code	16
 503              		.thumb_func
 504              		.type	OSTCBInitHook, %function
 505              	OSTCBInitHook:
 506              	.LFB10:
 411:..\..\..\..\..\..\Software\uCOS-II\Ports\ARM-Cortex-M0\Generic\GNU/os_cpu_c.c **** #endif
 412:..\..\..\..\..\..\Software\uCOS-II\Ports\ARM-Cortex-M0\Generic\GNU/os_cpu_c.c **** 
 413:..\..\..\..\..\..\Software\uCOS-II\Ports\ARM-Cortex-M0\Generic\GNU/os_cpu_c.c **** 
 414:..\..\..\..\..\..\Software\uCOS-II\Ports\ARM-Cortex-M0\Generic\GNU/os_cpu_c.c **** /*
 415:..\..\..\..\..\..\Software\uCOS-II\Ports\ARM-Cortex-M0\Generic\GNU/os_cpu_c.c **** ***************************************************************************************************
 416:..\..\..\..\..\..\Software\uCOS-II\Ports\ARM-Cortex-M0\Generic\GNU/os_cpu_c.c **** *                                           OS_TCBInit() HOOK
 417:..\..\..\..\..\..\Software\uCOS-II\Ports\ARM-Cortex-M0\Generic\GNU/os_cpu_c.c **** *
 418:..\..\..\..\..\..\Software\uCOS-II\Ports\ARM-Cortex-M0\Generic\GNU/os_cpu_c.c **** * Description: This function is called by OS_TCBInit() after setting up most of the TCB.
 419:..\..\..\..\..\..\Software\uCOS-II\Ports\ARM-Cortex-M0\Generic\GNU/os_cpu_c.c **** *
 420:..\..\..\..\..\..\Software\uCOS-II\Ports\ARM-Cortex-M0\Generic\GNU/os_cpu_c.c **** * Arguments  : ptcb    is a pointer to the TCB of the task being created.
 421:..\..\..\..\..\..\Software\uCOS-II\Ports\ARM-Cortex-M0\Generic\GNU/os_cpu_c.c **** *
 422:..\..\..\..\..\..\Software\uCOS-II\Ports\ARM-Cortex-M0\Generic\GNU/os_cpu_c.c **** * Note(s)    : 1) Interrupts may or may not be ENABLED during this call.
 423:..\..\..\..\..\..\Software\uCOS-II\Ports\ARM-Cortex-M0\Generic\GNU/os_cpu_c.c **** ***************************************************************************************************
 424:..\..\..\..\..\..\Software\uCOS-II\Ports\ARM-Cortex-M0\Generic\GNU/os_cpu_c.c **** */
 425:..\..\..\..\..\..\Software\uCOS-II\Ports\ARM-Cortex-M0\Generic\GNU/os_cpu_c.c **** #if OS_CPU_HOOKS_EN > 0u
 426:..\..\..\..\..\..\Software\uCOS-II\Ports\ARM-Cortex-M0\Generic\GNU/os_cpu_c.c **** void  OSTCBInitHook (OS_TCB *ptcb)
 427:..\..\..\..\..\..\Software\uCOS-II\Ports\ARM-Cortex-M0\Generic\GNU/os_cpu_c.c **** {
 507              		.loc 1 427 0
 508              		.cfi_startproc
 509              		@ args = 0, pretend = 0, frame = 8
 510              		@ frame_needed = 1, uses_anonymous_args = 0
 511 0000 80B5     		push	{r7, lr}
 512              		.cfi_def_cfa_offset 8
 513              		.cfi_offset 7, -8
 514              		.cfi_offset 14, -4
 515 0002 82B0     		sub	sp, sp, #8
 516              		.cfi_def_cfa_offset 16
 517 0004 00AF     		add	r7, sp, #0
 518              		.cfi_def_cfa_register 7
 519 0006 7860     		str	r0, [r7, #4]
 428:..\..\..\..\..\..\Software\uCOS-II\Ports\ARM-Cortex-M0\Generic\GNU/os_cpu_c.c **** #if OS_APP_HOOKS_EN > 0u
 429:..\..\..\..\..\..\Software\uCOS-II\Ports\ARM-Cortex-M0\Generic\GNU/os_cpu_c.c ****     App_TCBInitHook(ptcb);
 520              		.loc 1 429 0
 521 0008 7B68     		ldr	r3, [r7, #4]
 522 000a 1800     		movs	r0, r3
 523 000c FFF7FEFF 		bl	App_TCBInitHook
 430:..\..\..\..\..\..\Software\uCOS-II\Ports\ARM-Cortex-M0\Generic\GNU/os_cpu_c.c **** #else
 431:..\..\..\..\..\..\Software\uCOS-II\Ports\ARM-Cortex-M0\Generic\GNU/os_cpu_c.c ****     (void)ptcb;                                                 /* Prevent compiler warning        
 432:..\..\..\..\..\..\Software\uCOS-II\Ports\ARM-Cortex-M0\Generic\GNU/os_cpu_c.c **** #endif
 433:..\..\..\..\..\..\Software\uCOS-II\Ports\ARM-Cortex-M0\Generic\GNU/os_cpu_c.c **** }
 524              		.loc 1 433 0
 525 0010 C046     		nop
 526 0012 BD46     		mov	sp, r7
 527 0014 02B0     		add	sp, sp, #8
 528              		@ sp needed
 529 0016 80BD     		pop	{r7, pc}
 530              		.cfi_endproc
 531              	.LFE10:
 532              		.size	OSTCBInitHook, .-OSTCBInitHook
 533              		.section	.text.OSTimeTickHook,"ax",%progbits
 534              		.align	2
 535              		.global	OSTimeTickHook
ARM GAS  C:\Users\EDULU~1.DES\AppData\Local\Temp\ccuGbGPl.s 			page 18


 536              		.code	16
 537              		.thumb_func
 538              		.type	OSTimeTickHook, %function
 539              	OSTimeTickHook:
 540              	.LFB11:
 434:..\..\..\..\..\..\Software\uCOS-II\Ports\ARM-Cortex-M0\Generic\GNU/os_cpu_c.c **** #endif
 435:..\..\..\..\..\..\Software\uCOS-II\Ports\ARM-Cortex-M0\Generic\GNU/os_cpu_c.c **** 
 436:..\..\..\..\..\..\Software\uCOS-II\Ports\ARM-Cortex-M0\Generic\GNU/os_cpu_c.c **** 
 437:..\..\..\..\..\..\Software\uCOS-II\Ports\ARM-Cortex-M0\Generic\GNU/os_cpu_c.c **** /*
 438:..\..\..\..\..\..\Software\uCOS-II\Ports\ARM-Cortex-M0\Generic\GNU/os_cpu_c.c **** ***************************************************************************************************
 439:..\..\..\..\..\..\Software\uCOS-II\Ports\ARM-Cortex-M0\Generic\GNU/os_cpu_c.c **** *                                               TICK HOOK
 440:..\..\..\..\..\..\Software\uCOS-II\Ports\ARM-Cortex-M0\Generic\GNU/os_cpu_c.c **** *
 441:..\..\..\..\..\..\Software\uCOS-II\Ports\ARM-Cortex-M0\Generic\GNU/os_cpu_c.c **** * Description: This function is called every tick.
 442:..\..\..\..\..\..\Software\uCOS-II\Ports\ARM-Cortex-M0\Generic\GNU/os_cpu_c.c **** *
 443:..\..\..\..\..\..\Software\uCOS-II\Ports\ARM-Cortex-M0\Generic\GNU/os_cpu_c.c **** * Arguments  : none
 444:..\..\..\..\..\..\Software\uCOS-II\Ports\ARM-Cortex-M0\Generic\GNU/os_cpu_c.c **** *
 445:..\..\..\..\..\..\Software\uCOS-II\Ports\ARM-Cortex-M0\Generic\GNU/os_cpu_c.c **** * Note(s)    : 1) Interrupts may or may not be ENABLED during this call.
 446:..\..\..\..\..\..\Software\uCOS-II\Ports\ARM-Cortex-M0\Generic\GNU/os_cpu_c.c **** ***************************************************************************************************
 447:..\..\..\..\..\..\Software\uCOS-II\Ports\ARM-Cortex-M0\Generic\GNU/os_cpu_c.c **** */
 448:..\..\..\..\..\..\Software\uCOS-II\Ports\ARM-Cortex-M0\Generic\GNU/os_cpu_c.c **** #if (OS_CPU_HOOKS_EN > 0u) && (OS_TIME_TICK_HOOK_EN > 0u)
 449:..\..\..\..\..\..\Software\uCOS-II\Ports\ARM-Cortex-M0\Generic\GNU/os_cpu_c.c **** void  OSTimeTickHook (void)
 450:..\..\..\..\..\..\Software\uCOS-II\Ports\ARM-Cortex-M0\Generic\GNU/os_cpu_c.c **** {
 541              		.loc 1 450 0
 542              		.cfi_startproc
 543              		@ args = 0, pretend = 0, frame = 0
 544              		@ frame_needed = 1, uses_anonymous_args = 0
 545 0000 80B5     		push	{r7, lr}
 546              		.cfi_def_cfa_offset 8
 547              		.cfi_offset 7, -8
 548              		.cfi_offset 14, -4
 549 0002 00AF     		add	r7, sp, #0
 550              		.cfi_def_cfa_register 7
 451:..\..\..\..\..\..\Software\uCOS-II\Ports\ARM-Cortex-M0\Generic\GNU/os_cpu_c.c **** #if OS_APP_HOOKS_EN > 0u
 452:..\..\..\..\..\..\Software\uCOS-II\Ports\ARM-Cortex-M0\Generic\GNU/os_cpu_c.c ****     App_TimeTickHook();
 551              		.loc 1 452 0
 552 0004 FFF7FEFF 		bl	App_TimeTickHook
 453:..\..\..\..\..\..\Software\uCOS-II\Ports\ARM-Cortex-M0\Generic\GNU/os_cpu_c.c **** #endif
 454:..\..\..\..\..\..\Software\uCOS-II\Ports\ARM-Cortex-M0\Generic\GNU/os_cpu_c.c **** 
 455:..\..\..\..\..\..\Software\uCOS-II\Ports\ARM-Cortex-M0\Generic\GNU/os_cpu_c.c **** #if OS_TMR_EN > 0u
 456:..\..\..\..\..\..\Software\uCOS-II\Ports\ARM-Cortex-M0\Generic\GNU/os_cpu_c.c ****     OSTmrCtr++;
 553              		.loc 1 456 0
 554 0008 084B     		ldr	r3, .L21
 555 000a 1B88     		ldrh	r3, [r3]
 556 000c 0133     		adds	r3, r3, #1
 557 000e 9AB2     		uxth	r2, r3
 558 0010 064B     		ldr	r3, .L21
 559 0012 1A80     		strh	r2, [r3]
 457:..\..\..\..\..\..\Software\uCOS-II\Ports\ARM-Cortex-M0\Generic\GNU/os_cpu_c.c ****     if (OSTmrCtr >= (OS_TICKS_PER_SEC / OS_TMR_CFG_TICKS_PER_SEC)) {
 560              		.loc 1 457 0
 561 0014 054B     		ldr	r3, .L21
 562 0016 1B88     		ldrh	r3, [r3]
 563 0018 632B     		cmp	r3, #99
 564 001a 04D9     		bls	.L20
 458:..\..\..\..\..\..\Software\uCOS-II\Ports\ARM-Cortex-M0\Generic\GNU/os_cpu_c.c ****         OSTmrCtr = 0u;
 565              		.loc 1 458 0
 566 001c 034B     		ldr	r3, .L21
 567 001e 0022     		movs	r2, #0
ARM GAS  C:\Users\EDULU~1.DES\AppData\Local\Temp\ccuGbGPl.s 			page 19


 568 0020 1A80     		strh	r2, [r3]
 459:..\..\..\..\..\..\Software\uCOS-II\Ports\ARM-Cortex-M0\Generic\GNU/os_cpu_c.c ****         OSTmrSignal();
 569              		.loc 1 459 0
 570 0022 FFF7FEFF 		bl	OSTmrSignal
 571              	.L20:
 460:..\..\..\..\..\..\Software\uCOS-II\Ports\ARM-Cortex-M0\Generic\GNU/os_cpu_c.c ****     }
 461:..\..\..\..\..\..\Software\uCOS-II\Ports\ARM-Cortex-M0\Generic\GNU/os_cpu_c.c **** #endif
 462:..\..\..\..\..\..\Software\uCOS-II\Ports\ARM-Cortex-M0\Generic\GNU/os_cpu_c.c **** }
 572              		.loc 1 462 0
 573 0026 C046     		nop
 574 0028 BD46     		mov	sp, r7
 575              		@ sp needed
 576 002a 80BD     		pop	{r7, pc}
 577              	.L22:
 578              		.align	2
 579              	.L21:
 580 002c 00000000 		.word	OSTmrCtr
 581              		.cfi_endproc
 582              	.LFE11:
 583              		.size	OSTimeTickHook, .-OSTimeTickHook
 584              		.section	.text.SysTick_Handler,"ax",%progbits
 585              		.align	2
 586              		.global	SysTick_Handler
 587              		.code	16
 588              		.thumb_func
 589              		.type	SysTick_Handler, %function
 590              	SysTick_Handler:
 591              	.LFB12:
 463:..\..\..\..\..\..\Software\uCOS-II\Ports\ARM-Cortex-M0\Generic\GNU/os_cpu_c.c **** #endif
 464:..\..\..\..\..\..\Software\uCOS-II\Ports\ARM-Cortex-M0\Generic\GNU/os_cpu_c.c **** 
 465:..\..\..\..\..\..\Software\uCOS-II\Ports\ARM-Cortex-M0\Generic\GNU/os_cpu_c.c **** 
 466:..\..\..\..\..\..\Software\uCOS-II\Ports\ARM-Cortex-M0\Generic\GNU/os_cpu_c.c **** /*
 467:..\..\..\..\..\..\Software\uCOS-II\Ports\ARM-Cortex-M0\Generic\GNU/os_cpu_c.c **** ***************************************************************************************************
 468:..\..\..\..\..\..\Software\uCOS-II\Ports\ARM-Cortex-M0\Generic\GNU/os_cpu_c.c **** *                                          SYS TICK HANDLER
 469:..\..\..\..\..\..\Software\uCOS-II\Ports\ARM-Cortex-M0\Generic\GNU/os_cpu_c.c **** *
 470:..\..\..\..\..\..\Software\uCOS-II\Ports\ARM-Cortex-M0\Generic\GNU/os_cpu_c.c **** * Description: Handle the system tick (SysTick) interrupt, which is used to generate the uC/OS-II t
 471:..\..\..\..\..\..\Software\uCOS-II\Ports\ARM-Cortex-M0\Generic\GNU/os_cpu_c.c **** *              interrupt.
 472:..\..\..\..\..\..\Software\uCOS-II\Ports\ARM-Cortex-M0\Generic\GNU/os_cpu_c.c **** *
 473:..\..\..\..\..\..\Software\uCOS-II\Ports\ARM-Cortex-M0\Generic\GNU/os_cpu_c.c **** * Arguments  : None.
 474:..\..\..\..\..\..\Software\uCOS-II\Ports\ARM-Cortex-M0\Generic\GNU/os_cpu_c.c **** *
 475:..\..\..\..\..\..\Software\uCOS-II\Ports\ARM-Cortex-M0\Generic\GNU/os_cpu_c.c **** * Note(s)    : 1) This function MUST be placed on entry 15 of the Cortex-M0 vector table.
 476:..\..\..\..\..\..\Software\uCOS-II\Ports\ARM-Cortex-M0\Generic\GNU/os_cpu_c.c **** ***************************************************************************************************
 477:..\..\..\..\..\..\Software\uCOS-II\Ports\ARM-Cortex-M0\Generic\GNU/os_cpu_c.c **** */
 478:..\..\..\..\..\..\Software\uCOS-II\Ports\ARM-Cortex-M0\Generic\GNU/os_cpu_c.c **** 
 479:..\..\..\..\..\..\Software\uCOS-II\Ports\ARM-Cortex-M0\Generic\GNU/os_cpu_c.c **** void  SysTick_Handler (void)
 480:..\..\..\..\..\..\Software\uCOS-II\Ports\ARM-Cortex-M0\Generic\GNU/os_cpu_c.c **** {
 592              		.loc 1 480 0
 593              		.cfi_startproc
 594              		@ args = 0, pretend = 0, frame = 8
 595              		@ frame_needed = 1, uses_anonymous_args = 0
 596 0000 80B5     		push	{r7, lr}
 597              		.cfi_def_cfa_offset 8
 598              		.cfi_offset 7, -8
 599              		.cfi_offset 14, -4
 600 0002 82B0     		sub	sp, sp, #8
 601              		.cfi_def_cfa_offset 16
 602 0004 00AF     		add	r7, sp, #0
ARM GAS  C:\Users\EDULU~1.DES\AppData\Local\Temp\ccuGbGPl.s 			page 20


 603              		.cfi_def_cfa_register 7
 481:..\..\..\..\..\..\Software\uCOS-II\Ports\ARM-Cortex-M0\Generic\GNU/os_cpu_c.c **** #if OS_CRITICAL_METHOD == 3u                                    /* Allocate storage for CPU status 
 482:..\..\..\..\..\..\Software\uCOS-II\Ports\ARM-Cortex-M0\Generic\GNU/os_cpu_c.c ****     OS_CPU_SR  cpu_sr;
 483:..\..\..\..\..\..\Software\uCOS-II\Ports\ARM-Cortex-M0\Generic\GNU/os_cpu_c.c **** #endif
 484:..\..\..\..\..\..\Software\uCOS-II\Ports\ARM-Cortex-M0\Generic\GNU/os_cpu_c.c **** 
 485:..\..\..\..\..\..\Software\uCOS-II\Ports\ARM-Cortex-M0\Generic\GNU/os_cpu_c.c **** 
 486:..\..\..\..\..\..\Software\uCOS-II\Ports\ARM-Cortex-M0\Generic\GNU/os_cpu_c.c ****     OS_ENTER_CRITICAL();
 604              		.loc 1 486 0
 605 0006 FFF7FEFF 		bl	OS_CPU_SR_Save
 606 000a 0300     		movs	r3, r0
 607 000c 7B60     		str	r3, [r7, #4]
 487:..\..\..\..\..\..\Software\uCOS-II\Ports\ARM-Cortex-M0\Generic\GNU/os_cpu_c.c ****     OSIntEnter();                                               /* Tell uC/OS-II that we are starti
 608              		.loc 1 487 0
 609 000e FFF7FEFF 		bl	OSIntEnter
 488:..\..\..\..\..\..\Software\uCOS-II\Ports\ARM-Cortex-M0\Generic\GNU/os_cpu_c.c ****     OS_EXIT_CRITICAL();
 610              		.loc 1 488 0
 611 0012 7B68     		ldr	r3, [r7, #4]
 612 0014 1800     		movs	r0, r3
 613 0016 FFF7FEFF 		bl	OS_CPU_SR_Restore
 489:..\..\..\..\..\..\Software\uCOS-II\Ports\ARM-Cortex-M0\Generic\GNU/os_cpu_c.c **** 
 490:..\..\..\..\..\..\Software\uCOS-II\Ports\ARM-Cortex-M0\Generic\GNU/os_cpu_c.c ****     OSTimeTick();                                               /* Call uC/OS-II's OSTimeTick()    
 614              		.loc 1 490 0
 615 001a FFF7FEFF 		bl	OSTimeTick
 491:..\..\..\..\..\..\Software\uCOS-II\Ports\ARM-Cortex-M0\Generic\GNU/os_cpu_c.c **** 
 492:..\..\..\..\..\..\Software\uCOS-II\Ports\ARM-Cortex-M0\Generic\GNU/os_cpu_c.c ****     OSIntExit();                                                /* Tell uC/OS-II that we are leavin
 616              		.loc 1 492 0
 617 001e FFF7FEFF 		bl	OSIntExit
 493:..\..\..\..\..\..\Software\uCOS-II\Ports\ARM-Cortex-M0\Generic\GNU/os_cpu_c.c **** }
 618              		.loc 1 493 0
 619 0022 C046     		nop
 620 0024 BD46     		mov	sp, r7
 621 0026 02B0     		add	sp, sp, #8
 622              		@ sp needed
 623 0028 80BD     		pop	{r7, pc}
 624              		.cfi_endproc
 625              	.LFE12:
 626              		.size	SysTick_Handler, .-SysTick_Handler
 627              		.global	__aeabi_uidiv
 628 002a C046     		.section	.text.OS_CPU_SysTickInit,"ax",%progbits
 629              		.align	2
 630              		.global	OS_CPU_SysTickInit
 631              		.code	16
 632              		.thumb_func
 633              		.type	OS_CPU_SysTickInit, %function
 634              	OS_CPU_SysTickInit:
 635              	.LFB13:
 494:..\..\..\..\..\..\Software\uCOS-II\Ports\ARM-Cortex-M0\Generic\GNU/os_cpu_c.c **** 
 495:..\..\..\..\..\..\Software\uCOS-II\Ports\ARM-Cortex-M0\Generic\GNU/os_cpu_c.c **** 
 496:..\..\..\..\..\..\Software\uCOS-II\Ports\ARM-Cortex-M0\Generic\GNU/os_cpu_c.c **** /*
 497:..\..\..\..\..\..\Software\uCOS-II\Ports\ARM-Cortex-M0\Generic\GNU/os_cpu_c.c **** ***************************************************************************************************
 498:..\..\..\..\..\..\Software\uCOS-II\Ports\ARM-Cortex-M0\Generic\GNU/os_cpu_c.c **** *                                         INITIALIZE SYS TICK
 499:..\..\..\..\..\..\Software\uCOS-II\Ports\ARM-Cortex-M0\Generic\GNU/os_cpu_c.c **** *
 500:..\..\..\..\..\..\Software\uCOS-II\Ports\ARM-Cortex-M0\Generic\GNU/os_cpu_c.c **** * Description: Initialize the SysTick.
 501:..\..\..\..\..\..\Software\uCOS-II\Ports\ARM-Cortex-M0\Generic\GNU/os_cpu_c.c **** *
 502:..\..\..\..\..\..\Software\uCOS-II\Ports\ARM-Cortex-M0\Generic\GNU/os_cpu_c.c **** * Arguments  : cpu_freq         CPU clock frequency.
 503:..\..\..\..\..\..\Software\uCOS-II\Ports\ARM-Cortex-M0\Generic\GNU/os_cpu_c.c **** *
 504:..\..\..\..\..\..\Software\uCOS-II\Ports\ARM-Cortex-M0\Generic\GNU/os_cpu_c.c **** * Note(s)    : 1) This function MUST be called after OSStart() & after processor initialization.
ARM GAS  C:\Users\EDULU~1.DES\AppData\Local\Temp\ccuGbGPl.s 			page 21


 505:..\..\..\..\..\..\Software\uCOS-II\Ports\ARM-Cortex-M0\Generic\GNU/os_cpu_c.c **** ***************************************************************************************************
 506:..\..\..\..\..\..\Software\uCOS-II\Ports\ARM-Cortex-M0\Generic\GNU/os_cpu_c.c **** */
 507:..\..\..\..\..\..\Software\uCOS-II\Ports\ARM-Cortex-M0\Generic\GNU/os_cpu_c.c **** 
 508:..\..\..\..\..\..\Software\uCOS-II\Ports\ARM-Cortex-M0\Generic\GNU/os_cpu_c.c **** void  OS_CPU_SysTickInit (INT32U  cpu_freq)
 509:..\..\..\..\..\..\Software\uCOS-II\Ports\ARM-Cortex-M0\Generic\GNU/os_cpu_c.c **** {
 636              		.loc 1 509 0
 637              		.cfi_startproc
 638              		@ args = 0, pretend = 0, frame = 16
 639              		@ frame_needed = 1, uses_anonymous_args = 0
 640 0000 80B5     		push	{r7, lr}
 641              		.cfi_def_cfa_offset 8
 642              		.cfi_offset 7, -8
 643              		.cfi_offset 14, -4
 644 0002 84B0     		sub	sp, sp, #16
 645              		.cfi_def_cfa_offset 24
 646 0004 00AF     		add	r7, sp, #0
 647              		.cfi_def_cfa_register 7
 648 0006 7860     		str	r0, [r7, #4]
 510:..\..\..\..\..\..\Software\uCOS-II\Ports\ARM-Cortex-M0\Generic\GNU/os_cpu_c.c ****     INT32U  prio;
 511:..\..\..\..\..\..\Software\uCOS-II\Ports\ARM-Cortex-M0\Generic\GNU/os_cpu_c.c ****     INT32U  cnts;
 512:..\..\..\..\..\..\Software\uCOS-II\Ports\ARM-Cortex-M0\Generic\GNU/os_cpu_c.c **** 
 513:..\..\..\..\..\..\Software\uCOS-II\Ports\ARM-Cortex-M0\Generic\GNU/os_cpu_c.c **** 
 514:..\..\..\..\..\..\Software\uCOS-II\Ports\ARM-Cortex-M0\Generic\GNU/os_cpu_c.c ****     cnts = (cpu_freq / (INT32U)OS_TICKS_PER_SEC);               /* Determine nbr SysTick cnts betwe
 649              		.loc 1 514 0
 650 0008 7A68     		ldr	r2, [r7, #4]
 651 000a FA23     		movs	r3, #250
 652 000c 9900     		lsls	r1, r3, #2
 653 000e 1000     		movs	r0, r2
 654 0010 FFF7FEFF 		bl	__aeabi_uidiv
 655 0014 0300     		movs	r3, r0
 656 0016 FB60     		str	r3, [r7, #12]
 515:..\..\..\..\..\..\Software\uCOS-II\Ports\ARM-Cortex-M0\Generic\GNU/os_cpu_c.c **** 
 516:..\..\..\..\..\..\Software\uCOS-II\Ports\ARM-Cortex-M0\Generic\GNU/os_cpu_c.c ****     OS_CPU_CM0_NVIC_ST_RELOAD = cnts - 1u;
 657              		.loc 1 516 0
 658 0018 0E4B     		ldr	r3, .L25
 659 001a FA68     		ldr	r2, [r7, #12]
 660 001c 013A     		subs	r2, r2, #1
 661 001e 1A60     		str	r2, [r3]
 517:..\..\..\..\..\..\Software\uCOS-II\Ports\ARM-Cortex-M0\Generic\GNU/os_cpu_c.c **** 
 518:..\..\..\..\..\..\Software\uCOS-II\Ports\ARM-Cortex-M0\Generic\GNU/os_cpu_c.c ****                                                                 /* Set SysTick handler prio.       
 519:..\..\..\..\..\..\Software\uCOS-II\Ports\ARM-Cortex-M0\Generic\GNU/os_cpu_c.c ****     prio  =  OS_CPU_CM0_NVIC_PRIO_ST;
 662              		.loc 1 519 0
 663 0020 0D4B     		ldr	r3, .L25+4
 664 0022 1B68     		ldr	r3, [r3]
 665 0024 BB60     		str	r3, [r7, #8]
 520:..\..\..\..\..\..\Software\uCOS-II\Ports\ARM-Cortex-M0\Generic\GNU/os_cpu_c.c ****     prio &=  0x00FFFFFFu;
 666              		.loc 1 520 0
 667 0026 BB68     		ldr	r3, [r7, #8]
 668 0028 1B02     		lsls	r3, r3, #8
 669 002a 1B0A     		lsrs	r3, r3, #8
 670 002c BB60     		str	r3, [r7, #8]
 521:..\..\..\..\..\..\Software\uCOS-II\Ports\ARM-Cortex-M0\Generic\GNU/os_cpu_c.c ****     prio |= (OS_CPU_CFG_SYSTICK_PRIO  << 24u);
 522:..\..\..\..\..\..\Software\uCOS-II\Ports\ARM-Cortex-M0\Generic\GNU/os_cpu_c.c **** 
 523:..\..\..\..\..\..\Software\uCOS-II\Ports\ARM-Cortex-M0\Generic\GNU/os_cpu_c.c ****     OS_CPU_CM0_NVIC_PRIO_ST   = prio;
 671              		.loc 1 523 0
 672 002e 0A4B     		ldr	r3, .L25+4
 673 0030 BA68     		ldr	r2, [r7, #8]
ARM GAS  C:\Users\EDULU~1.DES\AppData\Local\Temp\ccuGbGPl.s 			page 22


 674 0032 1A60     		str	r2, [r3]
 524:..\..\..\..\..\..\Software\uCOS-II\Ports\ARM-Cortex-M0\Generic\GNU/os_cpu_c.c **** 
 525:..\..\..\..\..\..\Software\uCOS-II\Ports\ARM-Cortex-M0\Generic\GNU/os_cpu_c.c ****                                                                 /* Enable timer.                   
 526:..\..\..\..\..\..\Software\uCOS-II\Ports\ARM-Cortex-M0\Generic\GNU/os_cpu_c.c ****     OS_CPU_CM0_NVIC_ST_CTRL  |= OS_CPU_CM0_NVIC_ST_CTRL_CLK_SRC |
 675              		.loc 1 526 0
 676 0034 094B     		ldr	r3, .L25+8
 677 0036 094A     		ldr	r2, .L25+8
 678 0038 1268     		ldr	r2, [r2]
 679 003a 0521     		movs	r1, #5
 680 003c 0A43     		orrs	r2, r1
 681 003e 1A60     		str	r2, [r3]
 527:..\..\..\..\..\..\Software\uCOS-II\Ports\ARM-Cortex-M0\Generic\GNU/os_cpu_c.c **** 	                            OS_CPU_CM0_NVIC_ST_CTRL_ENABLE;
 528:..\..\..\..\..\..\Software\uCOS-II\Ports\ARM-Cortex-M0\Generic\GNU/os_cpu_c.c ****                                                                 /* Enable timer interrupt.         
 529:..\..\..\..\..\..\Software\uCOS-II\Ports\ARM-Cortex-M0\Generic\GNU/os_cpu_c.c ****     OS_CPU_CM0_NVIC_ST_CTRL  |= OS_CPU_CM0_NVIC_ST_CTRL_INTEN;
 682              		.loc 1 529 0
 683 0040 064B     		ldr	r3, .L25+8
 684 0042 064A     		ldr	r2, .L25+8
 685 0044 1268     		ldr	r2, [r2]
 686 0046 0221     		movs	r1, #2
 687 0048 0A43     		orrs	r2, r1
 688 004a 1A60     		str	r2, [r3]
 530:..\..\..\..\..\..\Software\uCOS-II\Ports\ARM-Cortex-M0\Generic\GNU/os_cpu_c.c **** }
 689              		.loc 1 530 0
 690 004c C046     		nop
 691 004e BD46     		mov	sp, r7
 692 0050 04B0     		add	sp, sp, #16
 693              		@ sp needed
 694 0052 80BD     		pop	{r7, pc}
 695              	.L26:
 696              		.align	2
 697              	.L25:
 698 0054 14E000E0 		.word	-536813548
 699 0058 20ED00E0 		.word	-536810208
 700 005c 10E000E0 		.word	-536813552
 701              		.cfi_endproc
 702              	.LFE13:
 703              		.size	OS_CPU_SysTickInit, .-OS_CPU_SysTickInit
 704              		.text
 705              	.Letext0:
 706              		.file 2 "..\\..\\..\\..\\..\\..\\Software\\uCOS-II\\Ports\\ARM-Cortex-M0\\Generic\\GNU/os_cpu.h"
 707              		.file 3 "..\\..\\..\\..\\..\\..\\Software\\uCOS-II\\Source/ucos_ii.h"