ARM GAS  C:\Users\EDULU~1.DES\AppData\Local\Temp\ccZZoZJq.s 			page 1


   1              		.syntax unified
   2              		.cpu cortex-m0
   3              		.fpu softvfp
   4              		.eabi_attribute 20, 1
   5              		.eabi_attribute 21, 1
   6              		.eabi_attribute 23, 3
   7              		.eabi_attribute 24, 1
   8              		.eabi_attribute 25, 1
   9              		.eabi_attribute 26, 1
  10              		.eabi_attribute 30, 6
  11              		.eabi_attribute 34, 0
  12              		.eabi_attribute 18, 4
  13              		.thumb
  14              		.syntax unified
  15              		.file	"os_time.c"
  16              		.text
  17              	.Ltext0:
  18              		.cfi_sections	.debug_frame
  19              		.section	.text.OSTimeDly,"ax",%progbits
  20              		.align	2
  21              		.global	OSTimeDly
  22              		.code	16
  23              		.thumb_func
  24              		.type	OSTimeDly, %function
  25              	OSTimeDly:
  26              	.LFB1:
  27              		.file 1 "..\\..\\..\\..\\..\\..\\Software\\uCOS-II\\Source\\os_time.c"
   1:..\..\..\..\..\..\Software\uCOS-II\Source/os_time.c **** /*
   2:..\..\..\..\..\..\Software\uCOS-II\Source/os_time.c **** ***************************************************************************************************
   3:..\..\..\..\..\..\Software\uCOS-II\Source/os_time.c **** *                                                uC/OS-II
   4:..\..\..\..\..\..\Software\uCOS-II\Source/os_time.c **** *                                          The Real-Time Kernel
   5:..\..\..\..\..\..\Software\uCOS-II\Source/os_time.c **** *                                             TIME MANAGEMENT
   6:..\..\..\..\..\..\Software\uCOS-II\Source/os_time.c **** *
   7:..\..\..\..\..\..\Software\uCOS-II\Source/os_time.c **** *                              (c) Copyright 1992-2013, Micrium, Weston, FL
   8:..\..\..\..\..\..\Software\uCOS-II\Source/os_time.c **** *                                           All Rights Reserved
   9:..\..\..\..\..\..\Software\uCOS-II\Source/os_time.c **** *
  10:..\..\..\..\..\..\Software\uCOS-II\Source/os_time.c **** * File    : OS_TIME.C
  11:..\..\..\..\..\..\Software\uCOS-II\Source/os_time.c **** * By      : Jean J. Labrosse
  12:..\..\..\..\..\..\Software\uCOS-II\Source/os_time.c **** * Version : V2.92.11
  13:..\..\..\..\..\..\Software\uCOS-II\Source/os_time.c **** *
  14:..\..\..\..\..\..\Software\uCOS-II\Source/os_time.c **** * LICENSING TERMS:
  15:..\..\..\..\..\..\Software\uCOS-II\Source/os_time.c **** * ---------------
  16:..\..\..\..\..\..\Software\uCOS-II\Source/os_time.c **** *   uC/OS-II is provided in source form for FREE evaluation, for educational use or for peaceful re
  17:..\..\..\..\..\..\Software\uCOS-II\Source/os_time.c **** * If you plan on using  uC/OS-II  in a commercial product you need to contact Micrium to properly l
  18:..\..\..\..\..\..\Software\uCOS-II\Source/os_time.c **** * its use in your product. We provide ALL the source code for your convenience and to help you expe
  19:..\..\..\..\..\..\Software\uCOS-II\Source/os_time.c **** * uC/OS-II.   The fact that the  source is provided does  NOT  mean that you can use it without  pa
  20:..\..\..\..\..\..\Software\uCOS-II\Source/os_time.c **** * licensing fee.
  21:..\..\..\..\..\..\Software\uCOS-II\Source/os_time.c **** ***************************************************************************************************
  22:..\..\..\..\..\..\Software\uCOS-II\Source/os_time.c **** */
  23:..\..\..\..\..\..\Software\uCOS-II\Source/os_time.c **** 
  24:..\..\..\..\..\..\Software\uCOS-II\Source/os_time.c **** #define  MICRIUM_SOURCE
  25:..\..\..\..\..\..\Software\uCOS-II\Source/os_time.c **** 
  26:..\..\..\..\..\..\Software\uCOS-II\Source/os_time.c **** #ifndef  OS_MASTER_FILE
  27:..\..\..\..\..\..\Software\uCOS-II\Source/os_time.c **** #include <ucos_ii.h>
  28:..\..\..\..\..\..\Software\uCOS-II\Source/os_time.c **** #endif
  29:..\..\..\..\..\..\Software\uCOS-II\Source/os_time.c **** 
  30:..\..\..\..\..\..\Software\uCOS-II\Source/os_time.c **** /*
ARM GAS  C:\Users\EDULU~1.DES\AppData\Local\Temp\ccZZoZJq.s 			page 2


  31:..\..\..\..\..\..\Software\uCOS-II\Source/os_time.c **** ***************************************************************************************************
  32:..\..\..\..\..\..\Software\uCOS-II\Source/os_time.c **** *                                        DELAY TASK 'n' TICKS
  33:..\..\..\..\..\..\Software\uCOS-II\Source/os_time.c **** *
  34:..\..\..\..\..\..\Software\uCOS-II\Source/os_time.c **** * Description: This function is called to delay execution of the currently running task until the
  35:..\..\..\..\..\..\Software\uCOS-II\Source/os_time.c **** *              specified number of system ticks expires.  This, of course, directly equates to dela
  36:..\..\..\..\..\..\Software\uCOS-II\Source/os_time.c **** *              the current task for some time to expire.  No delay will result If the specified del
  37:..\..\..\..\..\..\Software\uCOS-II\Source/os_time.c **** *              0.  If the specified delay is greater than 0 then, a context switch will result.
  38:..\..\..\..\..\..\Software\uCOS-II\Source/os_time.c **** *
  39:..\..\..\..\..\..\Software\uCOS-II\Source/os_time.c **** * Arguments  : ticks     is the time delay that the task will be suspended in number of clock 'tick
  40:..\..\..\..\..\..\Software\uCOS-II\Source/os_time.c **** *                        Note that by specifying 0, the task will not be delayed.
  41:..\..\..\..\..\..\Software\uCOS-II\Source/os_time.c **** *
  42:..\..\..\..\..\..\Software\uCOS-II\Source/os_time.c **** * Returns    : none
  43:..\..\..\..\..\..\Software\uCOS-II\Source/os_time.c **** ***************************************************************************************************
  44:..\..\..\..\..\..\Software\uCOS-II\Source/os_time.c **** */
  45:..\..\..\..\..\..\Software\uCOS-II\Source/os_time.c **** 
  46:..\..\..\..\..\..\Software\uCOS-II\Source/os_time.c **** void  OSTimeDly (INT32U ticks)
  47:..\..\..\..\..\..\Software\uCOS-II\Source/os_time.c **** {
  28              		.loc 1 47 0
  29              		.cfi_startproc
  30              		@ args = 0, pretend = 0, frame = 16
  31              		@ frame_needed = 1, uses_anonymous_args = 0
  32 0000 80B5     		push	{r7, lr}
  33              		.cfi_def_cfa_offset 8
  34              		.cfi_offset 7, -8
  35              		.cfi_offset 14, -4
  36 0002 84B0     		sub	sp, sp, #16
  37              		.cfi_def_cfa_offset 24
  38 0004 00AF     		add	r7, sp, #0
  39              		.cfi_def_cfa_register 7
  40 0006 7860     		str	r0, [r7, #4]
  48:..\..\..\..\..\..\Software\uCOS-II\Source/os_time.c ****     INT8U      y;
  49:..\..\..\..\..\..\Software\uCOS-II\Source/os_time.c **** #if OS_CRITICAL_METHOD == 3u                     /* Allocate storage for CPU status register       
  50:..\..\..\..\..\..\Software\uCOS-II\Source/os_time.c ****     OS_CPU_SR  cpu_sr = 0u;
  41              		.loc 1 50 0
  42 0008 0023     		movs	r3, #0
  43 000a FB60     		str	r3, [r7, #12]
  51:..\..\..\..\..\..\Software\uCOS-II\Source/os_time.c **** #endif
  52:..\..\..\..\..\..\Software\uCOS-II\Source/os_time.c **** 
  53:..\..\..\..\..\..\Software\uCOS-II\Source/os_time.c **** 
  54:..\..\..\..\..\..\Software\uCOS-II\Source/os_time.c **** 
  55:..\..\..\..\..\..\Software\uCOS-II\Source/os_time.c ****     if (OSIntNesting > 0u) {                     /* See if trying to call from an ISR              
  44              		.loc 1 55 0
  45 000c 254B     		ldr	r3, .L8
  46 000e 1B78     		ldrb	r3, [r3]
  47 0010 002B     		cmp	r3, #0
  48 0012 41D1     		bne	.L6
  56:..\..\..\..\..\..\Software\uCOS-II\Source/os_time.c ****         return;
  57:..\..\..\..\..\..\Software\uCOS-II\Source/os_time.c ****     }
  58:..\..\..\..\..\..\Software\uCOS-II\Source/os_time.c ****     if (OSLockNesting > 0u) {                    /* See if called with scheduler locked            
  49              		.loc 1 58 0
  50 0014 244B     		ldr	r3, .L8+4
  51 0016 1B78     		ldrb	r3, [r3]
  52 0018 002B     		cmp	r3, #0
  53 001a 3FD1     		bne	.L7
  59:..\..\..\..\..\..\Software\uCOS-II\Source/os_time.c ****         return;
  60:..\..\..\..\..\..\Software\uCOS-II\Source/os_time.c ****     }
  61:..\..\..\..\..\..\Software\uCOS-II\Source/os_time.c ****     if (ticks > 0u) {                            /* 0 means no delay!                              
ARM GAS  C:\Users\EDULU~1.DES\AppData\Local\Temp\ccZZoZJq.s 			page 3


  54              		.loc 1 61 0
  55 001c 7B68     		ldr	r3, [r7, #4]
  56 001e 002B     		cmp	r3, #0
  57 0020 3DD0     		beq	.L1
  62:..\..\..\..\..\..\Software\uCOS-II\Source/os_time.c ****         OS_ENTER_CRITICAL();
  58              		.loc 1 62 0
  59 0022 FFF7FEFF 		bl	OS_CPU_SR_Save
  60 0026 0300     		movs	r3, r0
  61 0028 FB60     		str	r3, [r7, #12]
  63:..\..\..\..\..\..\Software\uCOS-II\Source/os_time.c ****         y            =  OSTCBCur->OSTCBY;        /* Delay current task                             
  62              		.loc 1 63 0
  63 002a 204B     		ldr	r3, .L8+8
  64 002c 1A68     		ldr	r2, [r3]
  65 002e 0B23     		movs	r3, #11
  66 0030 FB18     		adds	r3, r7, r3
  67 0032 2821     		movs	r1, #40
  68 0034 525C     		ldrb	r2, [r2, r1]
  69 0036 1A70     		strb	r2, [r3]
  64:..\..\..\..\..\..\Software\uCOS-II\Source/os_time.c ****         OSRdyTbl[y] &= (OS_PRIO)~OSTCBCur->OSTCBBitX;
  70              		.loc 1 64 0
  71 0038 0B23     		movs	r3, #11
  72 003a FB18     		adds	r3, r7, r3
  73 003c 1A78     		ldrb	r2, [r3]
  74 003e 0B23     		movs	r3, #11
  75 0040 FB18     		adds	r3, r7, r3
  76 0042 1B78     		ldrb	r3, [r3]
  77 0044 1A49     		ldr	r1, .L8+12
  78 0046 C95C     		ldrb	r1, [r1, r3]
  79 0048 184B     		ldr	r3, .L8+8
  80 004a 1B68     		ldr	r3, [r3]
  81 004c 2920     		movs	r0, #41
  82 004e 1B5C     		ldrb	r3, [r3, r0]
  83 0050 DB43     		mvns	r3, r3
  84 0052 DBB2     		uxtb	r3, r3
  85 0054 0B40     		ands	r3, r1
  86 0056 D9B2     		uxtb	r1, r3
  87 0058 154B     		ldr	r3, .L8+12
  88 005a 9954     		strb	r1, [r3, r2]
  65:..\..\..\..\..\..\Software\uCOS-II\Source/os_time.c ****         if (OSRdyTbl[y] == 0u) {
  89              		.loc 1 65 0
  90 005c 0B23     		movs	r3, #11
  91 005e FB18     		adds	r3, r7, r3
  92 0060 1B78     		ldrb	r3, [r3]
  93 0062 134A     		ldr	r2, .L8+12
  94 0064 D35C     		ldrb	r3, [r2, r3]
  95 0066 002B     		cmp	r3, #0
  96 0068 0BD1     		bne	.L5
  66:..\..\..\..\..\..\Software\uCOS-II\Source/os_time.c ****             OSRdyGrp &= (OS_PRIO)~OSTCBCur->OSTCBBitY;
  97              		.loc 1 66 0
  98 006a 104B     		ldr	r3, .L8+8
  99 006c 1B68     		ldr	r3, [r3]
 100 006e 2A22     		movs	r2, #42
 101 0070 9B5C     		ldrb	r3, [r3, r2]
 102 0072 DB43     		mvns	r3, r3
 103 0074 DBB2     		uxtb	r3, r3
 104 0076 0F4A     		ldr	r2, .L8+16
 105 0078 1278     		ldrb	r2, [r2]
ARM GAS  C:\Users\EDULU~1.DES\AppData\Local\Temp\ccZZoZJq.s 			page 4


 106 007a 1340     		ands	r3, r2
 107 007c DAB2     		uxtb	r2, r3
 108 007e 0D4B     		ldr	r3, .L8+16
 109 0080 1A70     		strb	r2, [r3]
 110              	.L5:
  67:..\..\..\..\..\..\Software\uCOS-II\Source/os_time.c ****         }
  68:..\..\..\..\..\..\Software\uCOS-II\Source/os_time.c ****         OSTCBCur->OSTCBDly = ticks;              /* Load ticks in TCB                              
 111              		.loc 1 68 0
 112 0082 0A4B     		ldr	r3, .L8+8
 113 0084 1B68     		ldr	r3, [r3]
 114 0086 7A68     		ldr	r2, [r7, #4]
 115 0088 1A62     		str	r2, [r3, #32]
  69:..\..\..\..\..\..\Software\uCOS-II\Source/os_time.c ****         OS_EXIT_CRITICAL();
 116              		.loc 1 69 0
 117 008a FB68     		ldr	r3, [r7, #12]
 118 008c 1800     		movs	r0, r3
 119 008e FFF7FEFF 		bl	OS_CPU_SR_Restore
  70:..\..\..\..\..\..\Software\uCOS-II\Source/os_time.c ****         OS_Sched();                              /* Find next task to run!                         
 120              		.loc 1 70 0
 121 0092 FFF7FEFF 		bl	OS_Sched
 122 0096 02E0     		b	.L1
 123              	.L6:
  56:..\..\..\..\..\..\Software\uCOS-II\Source/os_time.c ****     }
 124              		.loc 1 56 0
 125 0098 C046     		nop
 126 009a 00E0     		b	.L1
 127              	.L7:
  59:..\..\..\..\..\..\Software\uCOS-II\Source/os_time.c ****     }
 128              		.loc 1 59 0
 129 009c C046     		nop
 130              	.L1:
  71:..\..\..\..\..\..\Software\uCOS-II\Source/os_time.c ****     }
  72:..\..\..\..\..\..\Software\uCOS-II\Source/os_time.c **** }
 131              		.loc 1 72 0
 132 009e BD46     		mov	sp, r7
 133 00a0 04B0     		add	sp, sp, #16
 134              		@ sp needed
 135 00a2 80BD     		pop	{r7, pc}
 136              	.L9:
 137              		.align	2
 138              	.L8:
 139 00a4 00000000 		.word	OSIntNesting
 140 00a8 00000000 		.word	OSLockNesting
 141 00ac 00000000 		.word	OSTCBCur
 142 00b0 00000000 		.word	OSRdyTbl
 143 00b4 00000000 		.word	OSRdyGrp
 144              		.cfi_endproc
 145              	.LFE1:
 146              		.size	OSTimeDly, .-OSTimeDly
 147              		.global	__aeabi_uidiv
 148              		.section	.text.OSTimeDlyHMSM,"ax",%progbits
 149              		.align	2
 150              		.global	OSTimeDlyHMSM
 151              		.code	16
 152              		.thumb_func
 153              		.type	OSTimeDlyHMSM, %function
 154              	OSTimeDlyHMSM:
ARM GAS  C:\Users\EDULU~1.DES\AppData\Local\Temp\ccZZoZJq.s 			page 5


 155              	.LFB2:
  73:..\..\..\..\..\..\Software\uCOS-II\Source/os_time.c **** /*$PAGE*/
  74:..\..\..\..\..\..\Software\uCOS-II\Source/os_time.c **** /*
  75:..\..\..\..\..\..\Software\uCOS-II\Source/os_time.c **** ***************************************************************************************************
  76:..\..\..\..\..\..\Software\uCOS-II\Source/os_time.c **** *                                    DELAY TASK FOR SPECIFIED TIME
  77:..\..\..\..\..\..\Software\uCOS-II\Source/os_time.c **** *
  78:..\..\..\..\..\..\Software\uCOS-II\Source/os_time.c **** * Description: This function is called to delay execution of the currently running task until some 
  79:..\..\..\..\..\..\Software\uCOS-II\Source/os_time.c **** *              expires.  This call allows you to specify the delay time in HOURS, MINUTES, SECONDS 
  80:..\..\..\..\..\..\Software\uCOS-II\Source/os_time.c **** *              MILLISECONDS instead of ticks.
  81:..\..\..\..\..\..\Software\uCOS-II\Source/os_time.c **** *
  82:..\..\..\..\..\..\Software\uCOS-II\Source/os_time.c **** * Arguments  : hours     specifies the number of hours that the task will be delayed (max. is 255)
  83:..\..\..\..\..\..\Software\uCOS-II\Source/os_time.c **** *              minutes   specifies the number of minutes (max. 59)
  84:..\..\..\..\..\..\Software\uCOS-II\Source/os_time.c **** *              seconds   specifies the number of seconds (max. 59)
  85:..\..\..\..\..\..\Software\uCOS-II\Source/os_time.c **** *              ms        specifies the number of milliseconds (max. 999)
  86:..\..\..\..\..\..\Software\uCOS-II\Source/os_time.c **** *
  87:..\..\..\..\..\..\Software\uCOS-II\Source/os_time.c **** * Returns    : OS_ERR_NONE
  88:..\..\..\..\..\..\Software\uCOS-II\Source/os_time.c **** *              OS_ERR_TIME_INVALID_MINUTES
  89:..\..\..\..\..\..\Software\uCOS-II\Source/os_time.c **** *              OS_ERR_TIME_INVALID_SECONDS
  90:..\..\..\..\..\..\Software\uCOS-II\Source/os_time.c **** *              OS_ERR_TIME_INVALID_MS
  91:..\..\..\..\..\..\Software\uCOS-II\Source/os_time.c **** *              OS_ERR_TIME_ZERO_DLY
  92:..\..\..\..\..\..\Software\uCOS-II\Source/os_time.c **** *              OS_ERR_TIME_DLY_ISR
  93:..\..\..\..\..\..\Software\uCOS-II\Source/os_time.c **** *
  94:..\..\..\..\..\..\Software\uCOS-II\Source/os_time.c **** * Note(s)    : The resolution on the milliseconds depends on the tick rate.  For example, you can't
  95:..\..\..\..\..\..\Software\uCOS-II\Source/os_time.c **** *              a 10 mS delay if the ticker interrupts every 100 mS.  In this case, the delay would 
  96:..\..\..\..\..\..\Software\uCOS-II\Source/os_time.c **** *              set to 0.  The actual delay is rounded to the nearest tick.
  97:..\..\..\..\..\..\Software\uCOS-II\Source/os_time.c **** ***************************************************************************************************
  98:..\..\..\..\..\..\Software\uCOS-II\Source/os_time.c **** */
  99:..\..\..\..\..\..\Software\uCOS-II\Source/os_time.c **** 
 100:..\..\..\..\..\..\Software\uCOS-II\Source/os_time.c **** #if OS_TIME_DLY_HMSM_EN > 0u
 101:..\..\..\..\..\..\Software\uCOS-II\Source/os_time.c **** INT8U  OSTimeDlyHMSM (INT8U   hours,
 102:..\..\..\..\..\..\Software\uCOS-II\Source/os_time.c ****                       INT8U   minutes,
 103:..\..\..\..\..\..\Software\uCOS-II\Source/os_time.c ****                       INT8U   seconds,
 104:..\..\..\..\..\..\Software\uCOS-II\Source/os_time.c ****                       INT16U  ms)
 105:..\..\..\..\..\..\Software\uCOS-II\Source/os_time.c **** {
 156              		.loc 1 105 0
 157              		.cfi_startproc
 158              		@ args = 0, pretend = 0, frame = 16
 159              		@ frame_needed = 1, uses_anonymous_args = 0
 160 0000 B0B5     		push	{r4, r5, r7, lr}
 161              		.cfi_def_cfa_offset 16
 162              		.cfi_offset 4, -16
 163              		.cfi_offset 5, -12
 164              		.cfi_offset 7, -8
 165              		.cfi_offset 14, -4
 166 0002 84B0     		sub	sp, sp, #16
 167              		.cfi_def_cfa_offset 32
 168 0004 00AF     		add	r7, sp, #0
 169              		.cfi_def_cfa_register 7
 170 0006 0500     		movs	r5, r0
 171 0008 0C00     		movs	r4, r1
 172 000a 1000     		movs	r0, r2
 173 000c 1900     		movs	r1, r3
 174 000e FB1D     		adds	r3, r7, #7
 175 0010 2A1C     		adds	r2, r5, #0
 176 0012 1A70     		strb	r2, [r3]
 177 0014 BB1D     		adds	r3, r7, #6
 178 0016 221C     		adds	r2, r4, #0
ARM GAS  C:\Users\EDULU~1.DES\AppData\Local\Temp\ccZZoZJq.s 			page 6


 179 0018 1A70     		strb	r2, [r3]
 180 001a 7B1D     		adds	r3, r7, #5
 181 001c 021C     		adds	r2, r0, #0
 182 001e 1A70     		strb	r2, [r3]
 183 0020 BB1C     		adds	r3, r7, #2
 184 0022 0A1C     		adds	r2, r1, #0
 185 0024 1A80     		strh	r2, [r3]
 106:..\..\..\..\..\..\Software\uCOS-II\Source/os_time.c ****     INT32U ticks;
 107:..\..\..\..\..\..\Software\uCOS-II\Source/os_time.c **** 
 108:..\..\..\..\..\..\Software\uCOS-II\Source/os_time.c **** 
 109:..\..\..\..\..\..\Software\uCOS-II\Source/os_time.c ****     if (OSIntNesting > 0u) {                     /* See if trying to call from an ISR              
 186              		.loc 1 109 0
 187 0026 2D4B     		ldr	r3, .L18
 188 0028 1B78     		ldrb	r3, [r3]
 189 002a 002B     		cmp	r3, #0
 190 002c 01D0     		beq	.L11
 110:..\..\..\..\..\..\Software\uCOS-II\Source/os_time.c ****         return (OS_ERR_TIME_DLY_ISR);
 191              		.loc 1 110 0
 192 002e 5523     		movs	r3, #85
 193 0030 50E0     		b	.L12
 194              	.L11:
 111:..\..\..\..\..\..\Software\uCOS-II\Source/os_time.c ****     }
 112:..\..\..\..\..\..\Software\uCOS-II\Source/os_time.c ****     if (OSLockNesting > 0u) {                    /* See if called with scheduler locked            
 195              		.loc 1 112 0
 196 0032 2B4B     		ldr	r3, .L18+4
 197 0034 1B78     		ldrb	r3, [r3]
 198 0036 002B     		cmp	r3, #0
 199 0038 01D0     		beq	.L13
 113:..\..\..\..\..\..\Software\uCOS-II\Source/os_time.c ****         return (OS_ERR_SCHED_LOCKED);
 200              		.loc 1 113 0
 201 003a 3223     		movs	r3, #50
 202 003c 4AE0     		b	.L12
 203              	.L13:
 114:..\..\..\..\..\..\Software\uCOS-II\Source/os_time.c ****     }
 115:..\..\..\..\..\..\Software\uCOS-II\Source/os_time.c **** #if OS_ARG_CHK_EN > 0u
 116:..\..\..\..\..\..\Software\uCOS-II\Source/os_time.c ****     if (hours == 0u) {
 204              		.loc 1 116 0
 205 003e FB1D     		adds	r3, r7, #7
 206 0040 1B78     		ldrb	r3, [r3]
 207 0042 002B     		cmp	r3, #0
 208 0044 0DD1     		bne	.L14
 117:..\..\..\..\..\..\Software\uCOS-II\Source/os_time.c ****         if (minutes == 0u) {
 209              		.loc 1 117 0
 210 0046 BB1D     		adds	r3, r7, #6
 211 0048 1B78     		ldrb	r3, [r3]
 212 004a 002B     		cmp	r3, #0
 213 004c 09D1     		bne	.L14
 118:..\..\..\..\..\..\Software\uCOS-II\Source/os_time.c ****             if (seconds == 0u) {
 214              		.loc 1 118 0
 215 004e 7B1D     		adds	r3, r7, #5
 216 0050 1B78     		ldrb	r3, [r3]
 217 0052 002B     		cmp	r3, #0
 218 0054 05D1     		bne	.L14
 119:..\..\..\..\..\..\Software\uCOS-II\Source/os_time.c ****                 if (ms == 0u) {
 219              		.loc 1 119 0
 220 0056 BB1C     		adds	r3, r7, #2
 221 0058 1B88     		ldrh	r3, [r3]
ARM GAS  C:\Users\EDULU~1.DES\AppData\Local\Temp\ccZZoZJq.s 			page 7


 222 005a 002B     		cmp	r3, #0
 223 005c 01D1     		bne	.L14
 120:..\..\..\..\..\..\Software\uCOS-II\Source/os_time.c ****                     return (OS_ERR_TIME_ZERO_DLY);
 224              		.loc 1 120 0
 225 005e 5423     		movs	r3, #84
 226 0060 38E0     		b	.L12
 227              	.L14:
 121:..\..\..\..\..\..\Software\uCOS-II\Source/os_time.c ****                 }
 122:..\..\..\..\..\..\Software\uCOS-II\Source/os_time.c ****             }
 123:..\..\..\..\..\..\Software\uCOS-II\Source/os_time.c ****         }
 124:..\..\..\..\..\..\Software\uCOS-II\Source/os_time.c ****     }
 125:..\..\..\..\..\..\Software\uCOS-II\Source/os_time.c ****     if (minutes > 59u) {
 228              		.loc 1 125 0
 229 0062 BB1D     		adds	r3, r7, #6
 230 0064 1B78     		ldrb	r3, [r3]
 231 0066 3B2B     		cmp	r3, #59
 232 0068 01D9     		bls	.L15
 126:..\..\..\..\..\..\Software\uCOS-II\Source/os_time.c ****         return (OS_ERR_TIME_INVALID_MINUTES);    /* Validate arguments to be within range          
 233              		.loc 1 126 0
 234 006a 5123     		movs	r3, #81
 235 006c 32E0     		b	.L12
 236              	.L15:
 127:..\..\..\..\..\..\Software\uCOS-II\Source/os_time.c ****     }
 128:..\..\..\..\..\..\Software\uCOS-II\Source/os_time.c ****     if (seconds > 59u) {
 237              		.loc 1 128 0
 238 006e 7B1D     		adds	r3, r7, #5
 239 0070 1B78     		ldrb	r3, [r3]
 240 0072 3B2B     		cmp	r3, #59
 241 0074 01D9     		bls	.L16
 129:..\..\..\..\..\..\Software\uCOS-II\Source/os_time.c ****         return (OS_ERR_TIME_INVALID_SECONDS);
 242              		.loc 1 129 0
 243 0076 5223     		movs	r3, #82
 244 0078 2CE0     		b	.L12
 245              	.L16:
 130:..\..\..\..\..\..\Software\uCOS-II\Source/os_time.c ****     }
 131:..\..\..\..\..\..\Software\uCOS-II\Source/os_time.c ****     if (ms > 999u) {
 246              		.loc 1 131 0
 247 007a BB1C     		adds	r3, r7, #2
 248 007c 1B88     		ldrh	r3, [r3]
 249 007e 194A     		ldr	r2, .L18+8
 250 0080 9342     		cmp	r3, r2
 251 0082 01D9     		bls	.L17
 132:..\..\..\..\..\..\Software\uCOS-II\Source/os_time.c ****         return (OS_ERR_TIME_INVALID_MS);
 252              		.loc 1 132 0
 253 0084 5323     		movs	r3, #83
 254 0086 25E0     		b	.L12
 255              	.L17:
 133:..\..\..\..\..\..\Software\uCOS-II\Source/os_time.c ****     }
 134:..\..\..\..\..\..\Software\uCOS-II\Source/os_time.c **** #endif
 135:..\..\..\..\..\..\Software\uCOS-II\Source/os_time.c ****                                                  /* Compute the total number of clock ticks require
 136:..\..\..\..\..\..\Software\uCOS-II\Source/os_time.c ****                                                  /* .. (rounded to the nearest tick)               
 137:..\..\..\..\..\..\Software\uCOS-II\Source/os_time.c ****     ticks = ((INT32U)hours * 3600uL + (INT32U)minutes * 60uL + (INT32U)seconds) * OS_TICKS_PER_SEC
 256              		.loc 1 137 0
 257 0088 FB1D     		adds	r3, r7, #7
 258 008a 1B78     		ldrb	r3, [r3]
 259 008c E122     		movs	r2, #225
 260 008e 1201     		lsls	r2, r2, #4
ARM GAS  C:\Users\EDULU~1.DES\AppData\Local\Temp\ccZZoZJq.s 			page 8


 261 0090 5A43     		muls	r2, r3
 262 0092 1100     		movs	r1, r2
 263 0094 BB1D     		adds	r3, r7, #6
 264 0096 1A78     		ldrb	r2, [r3]
 265 0098 1300     		movs	r3, r2
 266 009a 1B01     		lsls	r3, r3, #4
 267 009c 9B1A     		subs	r3, r3, r2
 268 009e 9B00     		lsls	r3, r3, #2
 269 00a0 CA18     		adds	r2, r1, r3
 270 00a2 7B1D     		adds	r3, r7, #5
 271 00a4 1B78     		ldrb	r3, [r3]
 272 00a6 D318     		adds	r3, r2, r3
 273 00a8 FA22     		movs	r2, #250
 274 00aa 9200     		lsls	r2, r2, #2
 275 00ac 5A43     		muls	r2, r3
 276 00ae 1400     		movs	r4, r2
 138:..\..\..\..\..\..\Software\uCOS-II\Source/os_time.c ****           + OS_TICKS_PER_SEC * ((INT32U)ms + 500uL / OS_TICKS_PER_SEC) / 1000uL;
 277              		.loc 1 138 0
 278 00b0 BB1C     		adds	r3, r7, #2
 279 00b2 1B88     		ldrh	r3, [r3]
 280 00b4 FA22     		movs	r2, #250
 281 00b6 9200     		lsls	r2, r2, #2
 282 00b8 5A43     		muls	r2, r3
 283 00ba FA23     		movs	r3, #250
 284 00bc 9900     		lsls	r1, r3, #2
 285 00be 1000     		movs	r0, r2
 286 00c0 FFF7FEFF 		bl	__aeabi_uidiv
 287 00c4 0300     		movs	r3, r0
 137:..\..\..\..\..\..\Software\uCOS-II\Source/os_time.c ****           + OS_TICKS_PER_SEC * ((INT32U)ms + 500uL / OS_TICKS_PER_SEC) / 1000uL;
 288              		.loc 1 137 0
 289 00c6 E318     		adds	r3, r4, r3
 290 00c8 FB60     		str	r3, [r7, #12]
 139:..\..\..\..\..\..\Software\uCOS-II\Source/os_time.c ****     OSTimeDly(ticks);
 291              		.loc 1 139 0
 292 00ca FB68     		ldr	r3, [r7, #12]
 293 00cc 1800     		movs	r0, r3
 294 00ce FFF7FEFF 		bl	OSTimeDly
 140:..\..\..\..\..\..\Software\uCOS-II\Source/os_time.c ****     return (OS_ERR_NONE);
 295              		.loc 1 140 0
 296 00d2 0023     		movs	r3, #0
 297              	.L12:
 141:..\..\..\..\..\..\Software\uCOS-II\Source/os_time.c **** }
 298              		.loc 1 141 0
 299 00d4 1800     		movs	r0, r3
 300 00d6 BD46     		mov	sp, r7
 301 00d8 04B0     		add	sp, sp, #16
 302              		@ sp needed
 303 00da B0BD     		pop	{r4, r5, r7, pc}
 304              	.L19:
 305              		.align	2
 306              	.L18:
 307 00dc 00000000 		.word	OSIntNesting
 308 00e0 00000000 		.word	OSLockNesting
 309 00e4 E7030000 		.word	999
 310              		.cfi_endproc
 311              	.LFE2:
 312              		.size	OSTimeDlyHMSM, .-OSTimeDlyHMSM
ARM GAS  C:\Users\EDULU~1.DES\AppData\Local\Temp\ccZZoZJq.s 			page 9


 313              		.section	.text.OSTimeDlyResume,"ax",%progbits
 314              		.align	2
 315              		.global	OSTimeDlyResume
 316              		.code	16
 317              		.thumb_func
 318              		.type	OSTimeDlyResume, %function
 319              	OSTimeDlyResume:
 320              	.LFB3:
 142:..\..\..\..\..\..\Software\uCOS-II\Source/os_time.c **** #endif
 143:..\..\..\..\..\..\Software\uCOS-II\Source/os_time.c **** /*$PAGE*/
 144:..\..\..\..\..\..\Software\uCOS-II\Source/os_time.c **** /*
 145:..\..\..\..\..\..\Software\uCOS-II\Source/os_time.c **** ***************************************************************************************************
 146:..\..\..\..\..\..\Software\uCOS-II\Source/os_time.c **** *                                        RESUME A DELAYED TASK
 147:..\..\..\..\..\..\Software\uCOS-II\Source/os_time.c **** *
 148:..\..\..\..\..\..\Software\uCOS-II\Source/os_time.c **** * Description: This function is used resume a task that has been delayed through a call to either
 149:..\..\..\..\..\..\Software\uCOS-II\Source/os_time.c **** *              OSTimeDly() or OSTimeDlyHMSM().  Note that you can call this function to resume a
 150:..\..\..\..\..\..\Software\uCOS-II\Source/os_time.c **** *              task that is waiting for an event with timeout.  This would make the task look
 151:..\..\..\..\..\..\Software\uCOS-II\Source/os_time.c **** *              like a timeout occurred.
 152:..\..\..\..\..\..\Software\uCOS-II\Source/os_time.c **** *
 153:..\..\..\..\..\..\Software\uCOS-II\Source/os_time.c **** * Arguments  : prio                      specifies the priority of the task to resume
 154:..\..\..\..\..\..\Software\uCOS-II\Source/os_time.c **** *
 155:..\..\..\..\..\..\Software\uCOS-II\Source/os_time.c **** * Returns    : OS_ERR_NONE               Task has been resumed
 156:..\..\..\..\..\..\Software\uCOS-II\Source/os_time.c **** *              OS_ERR_PRIO_INVALID       if the priority you specify is higher that the maximum all
 157:..\..\..\..\..\..\Software\uCOS-II\Source/os_time.c **** *                                        (i.e. >= OS_LOWEST_PRIO)
 158:..\..\..\..\..\..\Software\uCOS-II\Source/os_time.c **** *              OS_ERR_TIME_NOT_DLY       Task is not waiting for time to expire
 159:..\..\..\..\..\..\Software\uCOS-II\Source/os_time.c **** *              OS_ERR_TASK_NOT_EXIST     The desired task has not been created or has been assigned
 160:..\..\..\..\..\..\Software\uCOS-II\Source/os_time.c **** ***************************************************************************************************
 161:..\..\..\..\..\..\Software\uCOS-II\Source/os_time.c **** */
 162:..\..\..\..\..\..\Software\uCOS-II\Source/os_time.c **** 
 163:..\..\..\..\..\..\Software\uCOS-II\Source/os_time.c **** #if OS_TIME_DLY_RESUME_EN > 0u
 164:..\..\..\..\..\..\Software\uCOS-II\Source/os_time.c **** INT8U  OSTimeDlyResume (INT8U prio)
 165:..\..\..\..\..\..\Software\uCOS-II\Source/os_time.c **** {
 321              		.loc 1 165 0
 322              		.cfi_startproc
 323              		@ args = 0, pretend = 0, frame = 16
 324              		@ frame_needed = 1, uses_anonymous_args = 0
 325 0000 80B5     		push	{r7, lr}
 326              		.cfi_def_cfa_offset 8
 327              		.cfi_offset 7, -8
 328              		.cfi_offset 14, -4
 329 0002 84B0     		sub	sp, sp, #16
 330              		.cfi_def_cfa_offset 24
 331 0004 00AF     		add	r7, sp, #0
 332              		.cfi_def_cfa_register 7
 333 0006 0200     		movs	r2, r0
 334 0008 FB1D     		adds	r3, r7, #7
 335 000a 1A70     		strb	r2, [r3]
 166:..\..\..\..\..\..\Software\uCOS-II\Source/os_time.c ****     OS_TCB    *ptcb;
 167:..\..\..\..\..\..\Software\uCOS-II\Source/os_time.c **** #if OS_CRITICAL_METHOD == 3u                                   /* Storage for CPU status register  
 168:..\..\..\..\..\..\Software\uCOS-II\Source/os_time.c ****     OS_CPU_SR  cpu_sr = 0u;
 336              		.loc 1 168 0
 337 000c 0023     		movs	r3, #0
 338 000e FB60     		str	r3, [r7, #12]
 169:..\..\..\..\..\..\Software\uCOS-II\Source/os_time.c **** #endif
 170:..\..\..\..\..\..\Software\uCOS-II\Source/os_time.c **** 
 171:..\..\..\..\..\..\Software\uCOS-II\Source/os_time.c **** 
 172:..\..\..\..\..\..\Software\uCOS-II\Source/os_time.c **** 
ARM GAS  C:\Users\EDULU~1.DES\AppData\Local\Temp\ccZZoZJq.s 			page 10


 173:..\..\..\..\..\..\Software\uCOS-II\Source/os_time.c ****     if (prio >= OS_LOWEST_PRIO) {
 339              		.loc 1 173 0
 340 0010 FB1D     		adds	r3, r7, #7
 341 0012 1B78     		ldrb	r3, [r3]
 342 0014 1E2B     		cmp	r3, #30
 343 0016 01D9     		bls	.L21
 174:..\..\..\..\..\..\Software\uCOS-II\Source/os_time.c ****         return (OS_ERR_PRIO_INVALID);
 344              		.loc 1 174 0
 345 0018 2A23     		movs	r3, #42
 346 001a 6EE0     		b	.L22
 347              	.L21:
 175:..\..\..\..\..\..\Software\uCOS-II\Source/os_time.c ****     }
 176:..\..\..\..\..\..\Software\uCOS-II\Source/os_time.c ****     OS_ENTER_CRITICAL();
 348              		.loc 1 176 0
 349 001c FFF7FEFF 		bl	OS_CPU_SR_Save
 350 0020 0300     		movs	r3, r0
 351 0022 FB60     		str	r3, [r7, #12]
 177:..\..\..\..\..\..\Software\uCOS-II\Source/os_time.c ****     ptcb = OSTCBPrioTbl[prio];                                 /* Make sure that task exist        
 352              		.loc 1 177 0
 353 0024 FB1D     		adds	r3, r7, #7
 354 0026 1A78     		ldrb	r2, [r3]
 355 0028 364B     		ldr	r3, .L30
 356 002a 9200     		lsls	r2, r2, #2
 357 002c D358     		ldr	r3, [r2, r3]
 358 002e BB60     		str	r3, [r7, #8]
 178:..\..\..\..\..\..\Software\uCOS-II\Source/os_time.c ****     if (ptcb == (OS_TCB *)0) {
 359              		.loc 1 178 0
 360 0030 BB68     		ldr	r3, [r7, #8]
 361 0032 002B     		cmp	r3, #0
 362 0034 05D1     		bne	.L23
 179:..\..\..\..\..\..\Software\uCOS-II\Source/os_time.c ****         OS_EXIT_CRITICAL();
 363              		.loc 1 179 0
 364 0036 FB68     		ldr	r3, [r7, #12]
 365 0038 1800     		movs	r0, r3
 366 003a FFF7FEFF 		bl	OS_CPU_SR_Restore
 180:..\..\..\..\..\..\Software\uCOS-II\Source/os_time.c ****         return (OS_ERR_TASK_NOT_EXIST);                        /* The task does not exist          
 367              		.loc 1 180 0
 368 003e 4323     		movs	r3, #67
 369 0040 5BE0     		b	.L22
 370              	.L23:
 181:..\..\..\..\..\..\Software\uCOS-II\Source/os_time.c ****     }
 182:..\..\..\..\..\..\Software\uCOS-II\Source/os_time.c ****     if (ptcb == OS_TCB_RESERVED) {
 371              		.loc 1 182 0
 372 0042 BB68     		ldr	r3, [r7, #8]
 373 0044 012B     		cmp	r3, #1
 374 0046 05D1     		bne	.L24
 183:..\..\..\..\..\..\Software\uCOS-II\Source/os_time.c ****         OS_EXIT_CRITICAL();
 375              		.loc 1 183 0
 376 0048 FB68     		ldr	r3, [r7, #12]
 377 004a 1800     		movs	r0, r3
 378 004c FFF7FEFF 		bl	OS_CPU_SR_Restore
 184:..\..\..\..\..\..\Software\uCOS-II\Source/os_time.c ****         return (OS_ERR_TASK_NOT_EXIST);                        /* The task does not exist          
 379              		.loc 1 184 0
 380 0050 4323     		movs	r3, #67
 381 0052 52E0     		b	.L22
 382              	.L24:
 185:..\..\..\..\..\..\Software\uCOS-II\Source/os_time.c ****     }
ARM GAS  C:\Users\EDULU~1.DES\AppData\Local\Temp\ccZZoZJq.s 			page 11


 186:..\..\..\..\..\..\Software\uCOS-II\Source/os_time.c ****     if (ptcb->OSTCBDly == 0u) {                                /* See if task is delayed           
 383              		.loc 1 186 0
 384 0054 BB68     		ldr	r3, [r7, #8]
 385 0056 1B6A     		ldr	r3, [r3, #32]
 386 0058 002B     		cmp	r3, #0
 387 005a 05D1     		bne	.L25
 187:..\..\..\..\..\..\Software\uCOS-II\Source/os_time.c ****         OS_EXIT_CRITICAL();
 388              		.loc 1 187 0
 389 005c FB68     		ldr	r3, [r7, #12]
 390 005e 1800     		movs	r0, r3
 391 0060 FFF7FEFF 		bl	OS_CPU_SR_Restore
 188:..\..\..\..\..\..\Software\uCOS-II\Source/os_time.c ****         return (OS_ERR_TIME_NOT_DLY);                          /* Indicate that task was not delaye
 392              		.loc 1 188 0
 393 0064 5023     		movs	r3, #80
 394 0066 48E0     		b	.L22
 395              	.L25:
 189:..\..\..\..\..\..\Software\uCOS-II\Source/os_time.c ****     }
 190:..\..\..\..\..\..\Software\uCOS-II\Source/os_time.c **** 
 191:..\..\..\..\..\..\Software\uCOS-II\Source/os_time.c ****     ptcb->OSTCBDly = 0u;                                       /* Clear the time delay             
 396              		.loc 1 191 0
 397 0068 BB68     		ldr	r3, [r7, #8]
 398 006a 0022     		movs	r2, #0
 399 006c 1A62     		str	r2, [r3, #32]
 192:..\..\..\..\..\..\Software\uCOS-II\Source/os_time.c ****     if ((ptcb->OSTCBStat & OS_STAT_PEND_ANY) != OS_STAT_RDY) {
 400              		.loc 1 192 0
 401 006e BB68     		ldr	r3, [r7, #8]
 402 0070 2422     		movs	r2, #36
 403 0072 9B5C     		ldrb	r3, [r3, r2]
 404 0074 1A00     		movs	r2, r3
 405 0076 3723     		movs	r3, #55
 406 0078 1340     		ands	r3, r2
 407 007a 0DD0     		beq	.L26
 193:..\..\..\..\..\..\Software\uCOS-II\Source/os_time.c ****         ptcb->OSTCBStat     &= ~OS_STAT_PEND_ANY;              /* Yes, Clear status flag           
 408              		.loc 1 193 0
 409 007c BB68     		ldr	r3, [r7, #8]
 410 007e 2422     		movs	r2, #36
 411 0080 9B5C     		ldrb	r3, [r3, r2]
 412 0082 3722     		movs	r2, #55
 413 0084 9343     		bics	r3, r2
 414 0086 D9B2     		uxtb	r1, r3
 415 0088 BB68     		ldr	r3, [r7, #8]
 416 008a 2422     		movs	r2, #36
 417 008c 9954     		strb	r1, [r3, r2]
 194:..\..\..\..\..\..\Software\uCOS-II\Source/os_time.c ****         ptcb->OSTCBStatPend  =  OS_STAT_PEND_TO;               /* Indicate PEND timeout            
 418              		.loc 1 194 0
 419 008e BB68     		ldr	r3, [r7, #8]
 420 0090 2522     		movs	r2, #37
 421 0092 0121     		movs	r1, #1
 422 0094 9954     		strb	r1, [r3, r2]
 423 0096 03E0     		b	.L27
 424              	.L26:
 195:..\..\..\..\..\..\Software\uCOS-II\Source/os_time.c ****     } else {
 196:..\..\..\..\..\..\Software\uCOS-II\Source/os_time.c ****         ptcb->OSTCBStatPend  =  OS_STAT_PEND_OK;
 425              		.loc 1 196 0
 426 0098 BB68     		ldr	r3, [r7, #8]
 427 009a 2522     		movs	r2, #37
 428 009c 0021     		movs	r1, #0
ARM GAS  C:\Users\EDULU~1.DES\AppData\Local\Temp\ccZZoZJq.s 			page 12


 429 009e 9954     		strb	r1, [r3, r2]
 430              	.L27:
 197:..\..\..\..\..\..\Software\uCOS-II\Source/os_time.c ****     }
 198:..\..\..\..\..\..\Software\uCOS-II\Source/os_time.c ****     if ((ptcb->OSTCBStat & OS_STAT_SUSPEND) == OS_STAT_RDY) {  /* Is task suspended?               
 431              		.loc 1 198 0
 432 00a0 BB68     		ldr	r3, [r7, #8]
 433 00a2 2422     		movs	r2, #36
 434 00a4 9B5C     		ldrb	r3, [r3, r2]
 435 00a6 1A00     		movs	r2, r3
 436 00a8 0823     		movs	r3, #8
 437 00aa 1340     		ands	r3, r2
 438 00ac 20D1     		bne	.L28
 199:..\..\..\..\..\..\Software\uCOS-II\Source/os_time.c ****         OSRdyGrp               |= ptcb->OSTCBBitY;             /* No,  Make ready                  
 439              		.loc 1 199 0
 440 00ae BB68     		ldr	r3, [r7, #8]
 441 00b0 2A22     		movs	r2, #42
 442 00b2 9A5C     		ldrb	r2, [r3, r2]
 443 00b4 144B     		ldr	r3, .L30+4
 444 00b6 1B78     		ldrb	r3, [r3]
 445 00b8 1343     		orrs	r3, r2
 446 00ba DAB2     		uxtb	r2, r3
 447 00bc 124B     		ldr	r3, .L30+4
 448 00be 1A70     		strb	r2, [r3]
 200:..\..\..\..\..\..\Software\uCOS-II\Source/os_time.c ****         OSRdyTbl[ptcb->OSTCBY] |= ptcb->OSTCBBitX;
 449              		.loc 1 200 0
 450 00c0 BB68     		ldr	r3, [r7, #8]
 451 00c2 2822     		movs	r2, #40
 452 00c4 9B5C     		ldrb	r3, [r3, r2]
 453 00c6 1800     		movs	r0, r3
 454 00c8 BB68     		ldr	r3, [r7, #8]
 455 00ca 2822     		movs	r2, #40
 456 00cc 9B5C     		ldrb	r3, [r3, r2]
 457 00ce 1A00     		movs	r2, r3
 458 00d0 0E4B     		ldr	r3, .L30+8
 459 00d2 9A5C     		ldrb	r2, [r3, r2]
 460 00d4 BB68     		ldr	r3, [r7, #8]
 461 00d6 2921     		movs	r1, #41
 462 00d8 5B5C     		ldrb	r3, [r3, r1]
 463 00da 1343     		orrs	r3, r2
 464 00dc DAB2     		uxtb	r2, r3
 465 00de 0B4B     		ldr	r3, .L30+8
 466 00e0 1A54     		strb	r2, [r3, r0]
 201:..\..\..\..\..\..\Software\uCOS-II\Source/os_time.c ****         OS_EXIT_CRITICAL();
 467              		.loc 1 201 0
 468 00e2 FB68     		ldr	r3, [r7, #12]
 469 00e4 1800     		movs	r0, r3
 470 00e6 FFF7FEFF 		bl	OS_CPU_SR_Restore
 202:..\..\..\..\..\..\Software\uCOS-II\Source/os_time.c ****         OS_Sched();                                            /* See if this is new highest priori
 471              		.loc 1 202 0
 472 00ea FFF7FEFF 		bl	OS_Sched
 473 00ee 03E0     		b	.L29
 474              	.L28:
 203:..\..\..\..\..\..\Software\uCOS-II\Source/os_time.c ****     } else {
 204:..\..\..\..\..\..\Software\uCOS-II\Source/os_time.c ****         OS_EXIT_CRITICAL();                                    /* Task may be suspended            
 475              		.loc 1 204 0
 476 00f0 FB68     		ldr	r3, [r7, #12]
 477 00f2 1800     		movs	r0, r3
ARM GAS  C:\Users\EDULU~1.DES\AppData\Local\Temp\ccZZoZJq.s 			page 13


 478 00f4 FFF7FEFF 		bl	OS_CPU_SR_Restore
 479              	.L29:
 205:..\..\..\..\..\..\Software\uCOS-II\Source/os_time.c ****     }
 206:..\..\..\..\..\..\Software\uCOS-II\Source/os_time.c ****     return (OS_ERR_NONE);
 480              		.loc 1 206 0
 481 00f8 0023     		movs	r3, #0
 482              	.L22:
 207:..\..\..\..\..\..\Software\uCOS-II\Source/os_time.c **** }
 483              		.loc 1 207 0
 484 00fa 1800     		movs	r0, r3
 485 00fc BD46     		mov	sp, r7
 486 00fe 04B0     		add	sp, sp, #16
 487              		@ sp needed
 488 0100 80BD     		pop	{r7, pc}
 489              	.L31:
 490 0102 C046     		.align	2
 491              	.L30:
 492 0104 00000000 		.word	OSTCBPrioTbl
 493 0108 00000000 		.word	OSRdyGrp
 494 010c 00000000 		.word	OSRdyTbl
 495              		.cfi_endproc
 496              	.LFE3:
 497              		.size	OSTimeDlyResume, .-OSTimeDlyResume
 498              		.section	.text.OSTimeGet,"ax",%progbits
 499              		.align	2
 500              		.global	OSTimeGet
 501              		.code	16
 502              		.thumb_func
 503              		.type	OSTimeGet, %function
 504              	OSTimeGet:
 505              	.LFB4:
 208:..\..\..\..\..\..\Software\uCOS-II\Source/os_time.c **** #endif
 209:..\..\..\..\..\..\Software\uCOS-II\Source/os_time.c **** /*$PAGE*/
 210:..\..\..\..\..\..\Software\uCOS-II\Source/os_time.c **** /*
 211:..\..\..\..\..\..\Software\uCOS-II\Source/os_time.c **** ***************************************************************************************************
 212:..\..\..\..\..\..\Software\uCOS-II\Source/os_time.c **** *                                       GET CURRENT SYSTEM TIME
 213:..\..\..\..\..\..\Software\uCOS-II\Source/os_time.c **** *
 214:..\..\..\..\..\..\Software\uCOS-II\Source/os_time.c **** * Description: This function is used by your application to obtain the current value of the 32-bit
 215:..\..\..\..\..\..\Software\uCOS-II\Source/os_time.c **** *              counter which keeps track of the number of clock ticks.
 216:..\..\..\..\..\..\Software\uCOS-II\Source/os_time.c **** *
 217:..\..\..\..\..\..\Software\uCOS-II\Source/os_time.c **** * Arguments  : none
 218:..\..\..\..\..\..\Software\uCOS-II\Source/os_time.c **** *
 219:..\..\..\..\..\..\Software\uCOS-II\Source/os_time.c **** * Returns    : The current value of OSTime
 220:..\..\..\..\..\..\Software\uCOS-II\Source/os_time.c **** ***************************************************************************************************
 221:..\..\..\..\..\..\Software\uCOS-II\Source/os_time.c **** */
 222:..\..\..\..\..\..\Software\uCOS-II\Source/os_time.c **** 
 223:..\..\..\..\..\..\Software\uCOS-II\Source/os_time.c **** #if OS_TIME_GET_SET_EN > 0u
 224:..\..\..\..\..\..\Software\uCOS-II\Source/os_time.c **** INT32U  OSTimeGet (void)
 225:..\..\..\..\..\..\Software\uCOS-II\Source/os_time.c **** {
 506              		.loc 1 225 0
 507              		.cfi_startproc
 508              		@ args = 0, pretend = 0, frame = 8
 509              		@ frame_needed = 1, uses_anonymous_args = 0
 510 0000 80B5     		push	{r7, lr}
 511              		.cfi_def_cfa_offset 8
 512              		.cfi_offset 7, -8
 513              		.cfi_offset 14, -4
ARM GAS  C:\Users\EDULU~1.DES\AppData\Local\Temp\ccZZoZJq.s 			page 14


 514 0002 82B0     		sub	sp, sp, #8
 515              		.cfi_def_cfa_offset 16
 516 0004 00AF     		add	r7, sp, #0
 517              		.cfi_def_cfa_register 7
 226:..\..\..\..\..\..\Software\uCOS-II\Source/os_time.c ****     INT32U     ticks;
 227:..\..\..\..\..\..\Software\uCOS-II\Source/os_time.c **** #if OS_CRITICAL_METHOD == 3u                     /* Allocate storage for CPU status register       
 228:..\..\..\..\..\..\Software\uCOS-II\Source/os_time.c ****     OS_CPU_SR  cpu_sr = 0u;
 518              		.loc 1 228 0
 519 0006 0023     		movs	r3, #0
 520 0008 7B60     		str	r3, [r7, #4]
 229:..\..\..\..\..\..\Software\uCOS-II\Source/os_time.c **** #endif
 230:..\..\..\..\..\..\Software\uCOS-II\Source/os_time.c **** 
 231:..\..\..\..\..\..\Software\uCOS-II\Source/os_time.c **** 
 232:..\..\..\..\..\..\Software\uCOS-II\Source/os_time.c **** 
 233:..\..\..\..\..\..\Software\uCOS-II\Source/os_time.c ****     OS_ENTER_CRITICAL();
 521              		.loc 1 233 0
 522 000a FFF7FEFF 		bl	OS_CPU_SR_Save
 523 000e 0300     		movs	r3, r0
 524 0010 7B60     		str	r3, [r7, #4]
 234:..\..\..\..\..\..\Software\uCOS-II\Source/os_time.c ****     ticks = OSTime;
 525              		.loc 1 234 0
 526 0012 064B     		ldr	r3, .L34
 527 0014 1B68     		ldr	r3, [r3]
 528 0016 3B60     		str	r3, [r7]
 235:..\..\..\..\..\..\Software\uCOS-II\Source/os_time.c ****     OS_EXIT_CRITICAL();
 529              		.loc 1 235 0
 530 0018 7B68     		ldr	r3, [r7, #4]
 531 001a 1800     		movs	r0, r3
 532 001c FFF7FEFF 		bl	OS_CPU_SR_Restore
 236:..\..\..\..\..\..\Software\uCOS-II\Source/os_time.c ****     return (ticks);
 533              		.loc 1 236 0
 534 0020 3B68     		ldr	r3, [r7]
 237:..\..\..\..\..\..\Software\uCOS-II\Source/os_time.c **** }
 535              		.loc 1 237 0
 536 0022 1800     		movs	r0, r3
 537 0024 BD46     		mov	sp, r7
 538 0026 02B0     		add	sp, sp, #8
 539              		@ sp needed
 540 0028 80BD     		pop	{r7, pc}
 541              	.L35:
 542 002a C046     		.align	2
 543              	.L34:
 544 002c 00000000 		.word	OSTime
 545              		.cfi_endproc
 546              	.LFE4:
 547              		.size	OSTimeGet, .-OSTimeGet
 548              		.section	.text.OSTimeSet,"ax",%progbits
 549              		.align	2
 550              		.global	OSTimeSet
 551              		.code	16
 552              		.thumb_func
 553              		.type	OSTimeSet, %function
 554              	OSTimeSet:
 555              	.LFB5:
 238:..\..\..\..\..\..\Software\uCOS-II\Source/os_time.c **** #endif
 239:..\..\..\..\..\..\Software\uCOS-II\Source/os_time.c **** 
 240:..\..\..\..\..\..\Software\uCOS-II\Source/os_time.c **** /*
ARM GAS  C:\Users\EDULU~1.DES\AppData\Local\Temp\ccZZoZJq.s 			page 15


 241:..\..\..\..\..\..\Software\uCOS-II\Source/os_time.c **** ***************************************************************************************************
 242:..\..\..\..\..\..\Software\uCOS-II\Source/os_time.c **** *                                          SET SYSTEM CLOCK
 243:..\..\..\..\..\..\Software\uCOS-II\Source/os_time.c **** *
 244:..\..\..\..\..\..\Software\uCOS-II\Source/os_time.c **** * Description: This function sets the 32-bit counter which keeps track of the number of clock ticks
 245:..\..\..\..\..\..\Software\uCOS-II\Source/os_time.c **** *
 246:..\..\..\..\..\..\Software\uCOS-II\Source/os_time.c **** * Arguments  : ticks      specifies the new value that OSTime needs to take.
 247:..\..\..\..\..\..\Software\uCOS-II\Source/os_time.c **** *
 248:..\..\..\..\..\..\Software\uCOS-II\Source/os_time.c **** * Returns    : none
 249:..\..\..\..\..\..\Software\uCOS-II\Source/os_time.c **** ***************************************************************************************************
 250:..\..\..\..\..\..\Software\uCOS-II\Source/os_time.c **** */
 251:..\..\..\..\..\..\Software\uCOS-II\Source/os_time.c **** 
 252:..\..\..\..\..\..\Software\uCOS-II\Source/os_time.c **** #if OS_TIME_GET_SET_EN > 0u
 253:..\..\..\..\..\..\Software\uCOS-II\Source/os_time.c **** void  OSTimeSet (INT32U ticks)
 254:..\..\..\..\..\..\Software\uCOS-II\Source/os_time.c **** {
 556              		.loc 1 254 0
 557              		.cfi_startproc
 558              		@ args = 0, pretend = 0, frame = 16
 559              		@ frame_needed = 1, uses_anonymous_args = 0
 560 0000 80B5     		push	{r7, lr}
 561              		.cfi_def_cfa_offset 8
 562              		.cfi_offset 7, -8
 563              		.cfi_offset 14, -4
 564 0002 84B0     		sub	sp, sp, #16
 565              		.cfi_def_cfa_offset 24
 566 0004 00AF     		add	r7, sp, #0
 567              		.cfi_def_cfa_register 7
 568 0006 7860     		str	r0, [r7, #4]
 255:..\..\..\..\..\..\Software\uCOS-II\Source/os_time.c **** #if OS_CRITICAL_METHOD == 3u                     /* Allocate storage for CPU status register       
 256:..\..\..\..\..\..\Software\uCOS-II\Source/os_time.c ****     OS_CPU_SR  cpu_sr = 0u;
 569              		.loc 1 256 0
 570 0008 0023     		movs	r3, #0
 571 000a FB60     		str	r3, [r7, #12]
 257:..\..\..\..\..\..\Software\uCOS-II\Source/os_time.c **** #endif
 258:..\..\..\..\..\..\Software\uCOS-II\Source/os_time.c **** 
 259:..\..\..\..\..\..\Software\uCOS-II\Source/os_time.c **** 
 260:..\..\..\..\..\..\Software\uCOS-II\Source/os_time.c **** 
 261:..\..\..\..\..\..\Software\uCOS-II\Source/os_time.c ****     OS_ENTER_CRITICAL();
 572              		.loc 1 261 0
 573 000c FFF7FEFF 		bl	OS_CPU_SR_Save
 574 0010 0300     		movs	r3, r0
 575 0012 FB60     		str	r3, [r7, #12]
 262:..\..\..\..\..\..\Software\uCOS-II\Source/os_time.c ****     OSTime = ticks;
 576              		.loc 1 262 0
 577 0014 054B     		ldr	r3, .L37
 578 0016 7A68     		ldr	r2, [r7, #4]
 579 0018 1A60     		str	r2, [r3]
 263:..\..\..\..\..\..\Software\uCOS-II\Source/os_time.c ****     OS_EXIT_CRITICAL();
 580              		.loc 1 263 0
 581 001a FB68     		ldr	r3, [r7, #12]
 582 001c 1800     		movs	r0, r3
 583 001e FFF7FEFF 		bl	OS_CPU_SR_Restore
 264:..\..\..\..\..\..\Software\uCOS-II\Source/os_time.c **** }
 584              		.loc 1 264 0
 585 0022 C046     		nop
 586 0024 BD46     		mov	sp, r7
 587 0026 04B0     		add	sp, sp, #16
 588              		@ sp needed
ARM GAS  C:\Users\EDULU~1.DES\AppData\Local\Temp\ccZZoZJq.s 			page 16


 589 0028 80BD     		pop	{r7, pc}
 590              	.L38:
 591 002a C046     		.align	2
 592              	.L37:
 593 002c 00000000 		.word	OSTime
 594              		.cfi_endproc
 595              	.LFE5:
 596              		.size	OSTimeSet, .-OSTimeSet
 597              		.text
 598              	.Letext0:
 599              		.file 2 "..\\..\\..\\..\\..\\..\\Software\\uCOS-II\\Ports\\ARM-Cortex-M0\\Generic\\GNU/os_cpu.h"
 600              		.file 3 "..\\..\\..\\..\\..\\..\\Software\\uCOS-II\\Source/ucos_ii.h"