ARM GAS  C:\Users\Aluno\AppData\Local\Temp\ccSd0bCz.s 			page 1


   1              		.syntax unified
   2              		.cpu cortex-m3
   3              		.fpu softvfp
   4              		.eabi_attribute 20, 1
   5              		.eabi_attribute 21, 1
   6              		.eabi_attribute 23, 3
   7              		.eabi_attribute 24, 1
   8              		.eabi_attribute 25, 1
   9              		.eabi_attribute 26, 1
  10              		.eabi_attribute 30, 6
  11              		.eabi_attribute 34, 1
  12              		.eabi_attribute 18, 4
  13              		.thumb
  14              		.syntax unified
  15              		.file	"bsp_os.c"
  16              		.text
  17              	.Ltext0:
  18              		.cfi_sections	.debug_frame
  19              		.section	.text.BSP_OS_SemCreate,"ax",%progbits
  20              		.align	2
  21              		.global	BSP_OS_SemCreate
  22              		.thumb
  23              		.thumb_func
  24              		.type	BSP_OS_SemCreate, %function
  25              	BSP_OS_SemCreate:
  26              	.LFB0:
  27              		.file 1 "..\\..\\BSP\\OS\\uCOS-III\\bsp_os.c"
   1:..\..\BSP\OS\uCOS-III/bsp_os.c **** /*
   2:..\..\BSP\OS\uCOS-III/bsp_os.c **** ***************************************************************************************************
   3:..\..\BSP\OS\uCOS-III/bsp_os.c **** *                                     MICRIUM BOARD SUPPORT SUPPORT
   4:..\..\BSP\OS\uCOS-III/bsp_os.c **** *
   5:..\..\BSP\OS\uCOS-III/bsp_os.c **** *                          (c) Copyright 2003-2012; Micrium, Inc.; Weston, FL
   6:..\..\BSP\OS\uCOS-III/bsp_os.c **** *
   7:..\..\BSP\OS\uCOS-III/bsp_os.c **** *               All rights reserved.  Protected by international copyright laws.
   8:..\..\BSP\OS\uCOS-III/bsp_os.c **** *               Knowledge of the source code may NOT be used to develop a similar product.
   9:..\..\BSP\OS\uCOS-III/bsp_os.c **** *               Please help us continue to provide the Embedded community with the finest
  10:..\..\BSP\OS\uCOS-III/bsp_os.c **** *               software available.  Your honesty is greatly appreciated.
  11:..\..\BSP\OS\uCOS-III/bsp_os.c **** ***************************************************************************************************
  12:..\..\BSP\OS\uCOS-III/bsp_os.c **** */
  13:..\..\BSP\OS\uCOS-III/bsp_os.c **** 
  14:..\..\BSP\OS\uCOS-III/bsp_os.c **** /*
  15:..\..\BSP\OS\uCOS-III/bsp_os.c **** ***************************************************************************************************
  16:..\..\BSP\OS\uCOS-III/bsp_os.c **** *
  17:..\..\BSP\OS\uCOS-III/bsp_os.c **** *                                       BOARD SUPPORT PACKAGE
  18:..\..\BSP\OS\uCOS-III/bsp_os.c **** *                                          uCOS-III LAYER
  19:..\..\BSP\OS\uCOS-III/bsp_os.c **** *
  20:..\..\BSP\OS\uCOS-III/bsp_os.c **** * Filename      : bsp_os.c
  21:..\..\BSP\OS\uCOS-III/bsp_os.c **** * Version       : V1.00
  22:..\..\BSP\OS\uCOS-III/bsp_os.c **** * Programmer(s) : DC
  23:..\..\BSP\OS\uCOS-III/bsp_os.c **** *
  24:..\..\BSP\OS\uCOS-III/bsp_os.c **** ***************************************************************************************************
  25:..\..\BSP\OS\uCOS-III/bsp_os.c **** */
  26:..\..\BSP\OS\uCOS-III/bsp_os.c **** 
  27:..\..\BSP\OS\uCOS-III/bsp_os.c **** 
  28:..\..\BSP\OS\uCOS-III/bsp_os.c **** /*
  29:..\..\BSP\OS\uCOS-III/bsp_os.c **** ***************************************************************************************************
  30:..\..\BSP\OS\uCOS-III/bsp_os.c **** *                                             INCLUDE FILES
ARM GAS  C:\Users\Aluno\AppData\Local\Temp\ccSd0bCz.s 			page 2


  31:..\..\BSP\OS\uCOS-III/bsp_os.c **** ***************************************************************************************************
  32:..\..\BSP\OS\uCOS-III/bsp_os.c **** */
  33:..\..\BSP\OS\uCOS-III/bsp_os.c **** 
  34:..\..\BSP\OS\uCOS-III/bsp_os.c **** #define  BSP_OS_MODULE
  35:..\..\BSP\OS\uCOS-III/bsp_os.c **** #include <bsp.h>
  36:..\..\BSP\OS\uCOS-III/bsp_os.c **** #include <bsp_os.h>
  37:..\..\BSP\OS\uCOS-III/bsp_os.c **** 
  38:..\..\BSP\OS\uCOS-III/bsp_os.c **** 
  39:..\..\BSP\OS\uCOS-III/bsp_os.c **** /*
  40:..\..\BSP\OS\uCOS-III/bsp_os.c **** ***************************************************************************************************
  41:..\..\BSP\OS\uCOS-III/bsp_os.c **** *                                            LOCAL DEFINES
  42:..\..\BSP\OS\uCOS-III/bsp_os.c **** ***************************************************************************************************
  43:..\..\BSP\OS\uCOS-III/bsp_os.c **** */
  44:..\..\BSP\OS\uCOS-III/bsp_os.c **** 
  45:..\..\BSP\OS\uCOS-III/bsp_os.c **** 
  46:..\..\BSP\OS\uCOS-III/bsp_os.c **** /*
  47:..\..\BSP\OS\uCOS-III/bsp_os.c **** ***************************************************************************************************
  48:..\..\BSP\OS\uCOS-III/bsp_os.c **** *                                           LOCAL CONSTANTS
  49:..\..\BSP\OS\uCOS-III/bsp_os.c **** ***************************************************************************************************
  50:..\..\BSP\OS\uCOS-III/bsp_os.c **** */
  51:..\..\BSP\OS\uCOS-III/bsp_os.c **** 
  52:..\..\BSP\OS\uCOS-III/bsp_os.c **** 
  53:..\..\BSP\OS\uCOS-III/bsp_os.c **** /*
  54:..\..\BSP\OS\uCOS-III/bsp_os.c **** ***************************************************************************************************
  55:..\..\BSP\OS\uCOS-III/bsp_os.c **** *                                          LOCAL DATA TYPES
  56:..\..\BSP\OS\uCOS-III/bsp_os.c **** ***************************************************************************************************
  57:..\..\BSP\OS\uCOS-III/bsp_os.c **** */
  58:..\..\BSP\OS\uCOS-III/bsp_os.c **** 
  59:..\..\BSP\OS\uCOS-III/bsp_os.c **** 
  60:..\..\BSP\OS\uCOS-III/bsp_os.c **** /*
  61:..\..\BSP\OS\uCOS-III/bsp_os.c **** ***************************************************************************************************
  62:..\..\BSP\OS\uCOS-III/bsp_os.c **** *                                            LOCAL TABLES
  63:..\..\BSP\OS\uCOS-III/bsp_os.c **** ***************************************************************************************************
  64:..\..\BSP\OS\uCOS-III/bsp_os.c **** */
  65:..\..\BSP\OS\uCOS-III/bsp_os.c **** 
  66:..\..\BSP\OS\uCOS-III/bsp_os.c **** 
  67:..\..\BSP\OS\uCOS-III/bsp_os.c **** /*
  68:..\..\BSP\OS\uCOS-III/bsp_os.c **** ***************************************************************************************************
  69:..\..\BSP\OS\uCOS-III/bsp_os.c **** *                                       LOCAL GLOBAL VARIABLES
  70:..\..\BSP\OS\uCOS-III/bsp_os.c **** ***************************************************************************************************
  71:..\..\BSP\OS\uCOS-III/bsp_os.c **** */
  72:..\..\BSP\OS\uCOS-III/bsp_os.c **** 
  73:..\..\BSP\OS\uCOS-III/bsp_os.c **** 
  74:..\..\BSP\OS\uCOS-III/bsp_os.c **** /*
  75:..\..\BSP\OS\uCOS-III/bsp_os.c **** ***************************************************************************************************
  76:..\..\BSP\OS\uCOS-III/bsp_os.c **** *                                      LOCAL FUNCTION PROTOTYPES
  77:..\..\BSP\OS\uCOS-III/bsp_os.c **** ***************************************************************************************************
  78:..\..\BSP\OS\uCOS-III/bsp_os.c **** */
  79:..\..\BSP\OS\uCOS-III/bsp_os.c **** 
  80:..\..\BSP\OS\uCOS-III/bsp_os.c **** 
  81:..\..\BSP\OS\uCOS-III/bsp_os.c **** /*
  82:..\..\BSP\OS\uCOS-III/bsp_os.c **** ***************************************************************************************************
  83:..\..\BSP\OS\uCOS-III/bsp_os.c **** *                                     LOCAL CONFIGURATION ERRORS
  84:..\..\BSP\OS\uCOS-III/bsp_os.c **** ***************************************************************************************************
  85:..\..\BSP\OS\uCOS-III/bsp_os.c **** */
  86:..\..\BSP\OS\uCOS-III/bsp_os.c **** 
  87:..\..\BSP\OS\uCOS-III/bsp_os.c **** /*
ARM GAS  C:\Users\Aluno\AppData\Local\Temp\ccSd0bCz.s 			page 3


  88:..\..\BSP\OS\uCOS-III/bsp_os.c **** ***************************************************************************************************
  89:..\..\BSP\OS\uCOS-III/bsp_os.c **** ***************************************************************************************************
  90:..\..\BSP\OS\uCOS-III/bsp_os.c **** **                                         GLOBAL FUNCTIONS
  91:..\..\BSP\OS\uCOS-III/bsp_os.c **** ***************************************************************************************************
  92:..\..\BSP\OS\uCOS-III/bsp_os.c **** ***************************************************************************************************
  93:..\..\BSP\OS\uCOS-III/bsp_os.c **** */
  94:..\..\BSP\OS\uCOS-III/bsp_os.c **** 
  95:..\..\BSP\OS\uCOS-III/bsp_os.c **** 
  96:..\..\BSP\OS\uCOS-III/bsp_os.c **** /*
  97:..\..\BSP\OS\uCOS-III/bsp_os.c **** ***************************************************************************************************
  98:..\..\BSP\OS\uCOS-III/bsp_os.c **** ***************************************************************************************************
  99:..\..\BSP\OS\uCOS-III/bsp_os.c **** **                                     BSP OS LOCKS FUNCTIONS
 100:..\..\BSP\OS\uCOS-III/bsp_os.c **** ***************************************************************************************************
 101:..\..\BSP\OS\uCOS-III/bsp_os.c **** ***************************************************************************************************
 102:..\..\BSP\OS\uCOS-III/bsp_os.c **** */
 103:..\..\BSP\OS\uCOS-III/bsp_os.c **** 
 104:..\..\BSP\OS\uCOS-III/bsp_os.c **** /*
 105:..\..\BSP\OS\uCOS-III/bsp_os.c **** ***************************************************************************************************
 106:..\..\BSP\OS\uCOS-III/bsp_os.c **** ***************************************************************************************************
 107:..\..\BSP\OS\uCOS-III/bsp_os.c **** **                                     BSP OS LOCKS FUNCTIONS
 108:..\..\BSP\OS\uCOS-III/bsp_os.c **** ***************************************************************************************************
 109:..\..\BSP\OS\uCOS-III/bsp_os.c **** ***************************************************************************************************
 110:..\..\BSP\OS\uCOS-III/bsp_os.c **** */
 111:..\..\BSP\OS\uCOS-III/bsp_os.c **** 
 112:..\..\BSP\OS\uCOS-III/bsp_os.c **** /*
 113:..\..\BSP\OS\uCOS-III/bsp_os.c **** ***************************************************************************************************
 114:..\..\BSP\OS\uCOS-III/bsp_os.c **** *                                      BSP_OS_SemCreate()
 115:..\..\BSP\OS\uCOS-III/bsp_os.c **** *
 116:..\..\BSP\OS\uCOS-III/bsp_os.c **** * Description : Creates a sempahore to lock/unlock
 117:..\..\BSP\OS\uCOS-III/bsp_os.c **** *
 118:..\..\BSP\OS\uCOS-III/bsp_os.c **** * Argument(s) : p_sem        Pointer to a BSP_OS_SEM structure
 119:..\..\BSP\OS\uCOS-III/bsp_os.c **** *
 120:..\..\BSP\OS\uCOS-III/bsp_os.c **** *               sem_val      Initial value of the semaphore.
 121:..\..\BSP\OS\uCOS-III/bsp_os.c **** *
 122:..\..\BSP\OS\uCOS-III/bsp_os.c **** *               p_sem_name   Pointer to the semaphore name.
 123:..\..\BSP\OS\uCOS-III/bsp_os.c **** *
 124:..\..\BSP\OS\uCOS-III/bsp_os.c **** * Return(s)   : DEF_OK       if the semaphore was created.
 125:..\..\BSP\OS\uCOS-III/bsp_os.c **** *               DEF_FAIL     if the sempahore could not be created.
 126:..\..\BSP\OS\uCOS-III/bsp_os.c **** *
 127:..\..\BSP\OS\uCOS-III/bsp_os.c **** * Caller(s)   : Application.
 128:..\..\BSP\OS\uCOS-III/bsp_os.c **** *
 129:..\..\BSP\OS\uCOS-III/bsp_os.c **** * Note(s)     : none.
 130:..\..\BSP\OS\uCOS-III/bsp_os.c **** *
 131:..\..\BSP\OS\uCOS-III/bsp_os.c **** ***************************************************************************************************
 132:..\..\BSP\OS\uCOS-III/bsp_os.c **** */
 133:..\..\BSP\OS\uCOS-III/bsp_os.c **** 
 134:..\..\BSP\OS\uCOS-III/bsp_os.c **** CPU_BOOLEAN  BSP_OS_SemCreate (BSP_OS_SEM       *p_sem,
 135:..\..\BSP\OS\uCOS-III/bsp_os.c ****                                BSP_OS_SEM_VAL    sem_val,
 136:..\..\BSP\OS\uCOS-III/bsp_os.c ****                                CPU_CHAR         *p_sem_name)
 137:..\..\BSP\OS\uCOS-III/bsp_os.c **** {
  28              		.loc 1 137 0
  29              		.cfi_startproc
  30              		@ args = 0, pretend = 0, frame = 24
  31              		@ frame_needed = 1, uses_anonymous_args = 0
  32 0000 80B5     		push	{r7, lr}
  33              		.cfi_def_cfa_offset 8
  34              		.cfi_offset 7, -8
ARM GAS  C:\Users\Aluno\AppData\Local\Temp\ccSd0bCz.s 			page 4


  35              		.cfi_offset 14, -4
  36 0002 86B0     		sub	sp, sp, #24
  37              		.cfi_def_cfa_offset 32
  38 0004 00AF     		add	r7, sp, #0
  39              		.cfi_def_cfa_register 7
  40 0006 F860     		str	r0, [r7, #12]
  41 0008 B960     		str	r1, [r7, #8]
  42 000a 7A60     		str	r2, [r7, #4]
 138:..\..\BSP\OS\uCOS-III/bsp_os.c ****     OS_ERR     err;
 139:..\..\BSP\OS\uCOS-III/bsp_os.c **** 
 140:..\..\BSP\OS\uCOS-III/bsp_os.c **** 
 141:..\..\BSP\OS\uCOS-III/bsp_os.c ****     OSSemCreate((OS_SEM    *)p_sem,
  43              		.loc 1 141 0
  44 000c 07F11603 		add	r3, r7, #22
  45 0010 BA68     		ldr	r2, [r7, #8]
  46 0012 7968     		ldr	r1, [r7, #4]
  47 0014 F868     		ldr	r0, [r7, #12]
  48 0016 FFF7FEFF 		bl	OSSemCreate
 142:..\..\BSP\OS\uCOS-III/bsp_os.c ****                 (CPU_CHAR  *)p_sem_name,
 143:..\..\BSP\OS\uCOS-III/bsp_os.c ****                 (OS_SEM_CTR )sem_val,
 144:..\..\BSP\OS\uCOS-III/bsp_os.c ****                 (OS_ERR    *)&err);
 145:..\..\BSP\OS\uCOS-III/bsp_os.c **** 
 146:..\..\BSP\OS\uCOS-III/bsp_os.c ****     if (err != OS_ERR_NONE) {
  49              		.loc 1 146 0
  50 001a FB8A     		ldrh	r3, [r7, #22]
  51 001c 002B     		cmp	r3, #0
  52 001e 01D0     		beq	.L2
 147:..\..\BSP\OS\uCOS-III/bsp_os.c ****         return (DEF_FAIL);
  53              		.loc 1 147 0
  54 0020 0023     		movs	r3, #0
  55 0022 00E0     		b	.L4
  56              	.L2:
 148:..\..\BSP\OS\uCOS-III/bsp_os.c ****     }
 149:..\..\BSP\OS\uCOS-III/bsp_os.c **** 
 150:..\..\BSP\OS\uCOS-III/bsp_os.c ****     return (DEF_OK);
  57              		.loc 1 150 0
  58 0024 0123     		movs	r3, #1
  59              	.L4:
 151:..\..\BSP\OS\uCOS-III/bsp_os.c **** }
  60              		.loc 1 151 0 discriminator 1
  61 0026 1846     		mov	r0, r3
  62 0028 1837     		adds	r7, r7, #24
  63              		.cfi_def_cfa_offset 8
  64 002a BD46     		mov	sp, r7
  65              		.cfi_def_cfa_register 13
  66              		@ sp needed
  67 002c 80BD     		pop	{r7, pc}
  68              		.cfi_endproc
  69              	.LFE0:
  70              		.size	BSP_OS_SemCreate, .-BSP_OS_SemCreate
  71 002e 00BF     		.section	.text.BSP_OS_SemWait,"ax",%progbits
  72              		.align	2
  73              		.global	BSP_OS_SemWait
  74              		.thumb
  75              		.thumb_func
  76              		.type	BSP_OS_SemWait, %function
  77              	BSP_OS_SemWait:
ARM GAS  C:\Users\Aluno\AppData\Local\Temp\ccSd0bCz.s 			page 5


  78              	.LFB1:
 152:..\..\BSP\OS\uCOS-III/bsp_os.c **** 
 153:..\..\BSP\OS\uCOS-III/bsp_os.c **** 
 154:..\..\BSP\OS\uCOS-III/bsp_os.c **** /*
 155:..\..\BSP\OS\uCOS-III/bsp_os.c **** ***************************************************************************************************
 156:..\..\BSP\OS\uCOS-III/bsp_os.c **** *                                     BSP_OS_SemWait()
 157:..\..\BSP\OS\uCOS-III/bsp_os.c **** *
 158:..\..\BSP\OS\uCOS-III/bsp_os.c **** * Description : Wait on a semaphore to become available
 159:..\..\BSP\OS\uCOS-III/bsp_os.c **** *
 160:..\..\BSP\OS\uCOS-III/bsp_os.c **** * Argument(s) : sem          sempahore handler
 161:..\..\BSP\OS\uCOS-III/bsp_os.c **** *
 162:..\..\BSP\OS\uCOS-III/bsp_os.c **** *               dly_ms       delay in miliseconds to wait on the semaphore
 163:..\..\BSP\OS\uCOS-III/bsp_os.c **** *
 164:..\..\BSP\OS\uCOS-III/bsp_os.c **** * Return(s)   : DEF_OK       if the semaphore was acquire
 165:..\..\BSP\OS\uCOS-III/bsp_os.c **** *               DEF_FAIL     if the sempahore could not be acquire
 166:..\..\BSP\OS\uCOS-III/bsp_os.c **** *
 167:..\..\BSP\OS\uCOS-III/bsp_os.c **** * Caller(s)   : Application.
 168:..\..\BSP\OS\uCOS-III/bsp_os.c **** *
 169:..\..\BSP\OS\uCOS-III/bsp_os.c **** * Note(s)     : none.
 170:..\..\BSP\OS\uCOS-III/bsp_os.c **** ***************************************************************************************************
 171:..\..\BSP\OS\uCOS-III/bsp_os.c **** */
 172:..\..\BSP\OS\uCOS-III/bsp_os.c **** 
 173:..\..\BSP\OS\uCOS-III/bsp_os.c **** CPU_BOOLEAN  BSP_OS_SemWait (BSP_OS_SEM  *p_sem,
 174:..\..\BSP\OS\uCOS-III/bsp_os.c ****                              CPU_INT32U   dly_ms)
 175:..\..\BSP\OS\uCOS-III/bsp_os.c **** {
  79              		.loc 1 175 0
  80              		.cfi_startproc
  81              		@ args = 0, pretend = 0, frame = 16
  82              		@ frame_needed = 1, uses_anonymous_args = 0
  83 0000 80B5     		push	{r7, lr}
  84              		.cfi_def_cfa_offset 8
  85              		.cfi_offset 7, -8
  86              		.cfi_offset 14, -4
  87 0002 86B0     		sub	sp, sp, #24
  88              		.cfi_def_cfa_offset 32
  89 0004 02AF     		add	r7, sp, #8
  90              		.cfi_def_cfa 7, 24
  91 0006 7860     		str	r0, [r7, #4]
  92 0008 3960     		str	r1, [r7]
 176:..\..\BSP\OS\uCOS-III/bsp_os.c ****     OS_ERR      err;
 177:..\..\BSP\OS\uCOS-III/bsp_os.c ****     CPU_INT32U  dly_ticks;
 178:..\..\BSP\OS\uCOS-III/bsp_os.c **** 
 179:..\..\BSP\OS\uCOS-III/bsp_os.c **** 
 180:..\..\BSP\OS\uCOS-III/bsp_os.c ****     dly_ticks  = ((dly_ms * DEF_TIME_NBR_mS_PER_SEC) / OSCfg_TickRate_Hz);
  93              		.loc 1 180 0
  94 000a 3B68     		ldr	r3, [r7]
  95 000c 4FF47A72 		mov	r2, #1000
  96 0010 02FB03F2 		mul	r2, r2, r3
  97 0014 0B4B     		ldr	r3, .L9
  98 0016 1B68     		ldr	r3, [r3]
  99 0018 B2FBF3F3 		udiv	r3, r2, r3
 100 001c FB60     		str	r3, [r7, #12]
 181:..\..\BSP\OS\uCOS-III/bsp_os.c **** 
 182:..\..\BSP\OS\uCOS-III/bsp_os.c ****     OSSemPend((OS_SEM *)p_sem,
 101              		.loc 1 182 0
 102 001e 07F10A03 		add	r3, r7, #10
 103 0022 0093     		str	r3, [sp]
ARM GAS  C:\Users\Aluno\AppData\Local\Temp\ccSd0bCz.s 			page 6


 104 0024 0023     		movs	r3, #0
 105 0026 0022     		movs	r2, #0
 106 0028 F968     		ldr	r1, [r7, #12]
 107 002a 7868     		ldr	r0, [r7, #4]
 108 002c FFF7FEFF 		bl	OSSemPend
 183:..\..\BSP\OS\uCOS-III/bsp_os.c ****               (OS_TICK )dly_ticks,
 184:..\..\BSP\OS\uCOS-III/bsp_os.c ****               (OS_OPT  )OS_OPT_PEND_BLOCKING,
 185:..\..\BSP\OS\uCOS-III/bsp_os.c ****               (CPU_TS  )0,
 186:..\..\BSP\OS\uCOS-III/bsp_os.c ****               (OS_ERR *)&err);
 187:..\..\BSP\OS\uCOS-III/bsp_os.c **** 
 188:..\..\BSP\OS\uCOS-III/bsp_os.c ****     if (err != OS_ERR_NONE) {
 109              		.loc 1 188 0
 110 0030 7B89     		ldrh	r3, [r7, #10]
 111 0032 002B     		cmp	r3, #0
 112 0034 01D0     		beq	.L6
 189:..\..\BSP\OS\uCOS-III/bsp_os.c ****        return (DEF_FAIL);
 113              		.loc 1 189 0
 114 0036 0023     		movs	r3, #0
 115 0038 00E0     		b	.L8
 116              	.L6:
 190:..\..\BSP\OS\uCOS-III/bsp_os.c ****     }
 191:..\..\BSP\OS\uCOS-III/bsp_os.c **** 
 192:..\..\BSP\OS\uCOS-III/bsp_os.c ****     return (DEF_OK);
 117              		.loc 1 192 0
 118 003a 0123     		movs	r3, #1
 119              	.L8:
 193:..\..\BSP\OS\uCOS-III/bsp_os.c **** }
 120              		.loc 1 193 0 discriminator 1
 121 003c 1846     		mov	r0, r3
 122 003e 1037     		adds	r7, r7, #16
 123              		.cfi_def_cfa_offset 8
 124 0040 BD46     		mov	sp, r7
 125              		.cfi_def_cfa_register 13
 126              		@ sp needed
 127 0042 80BD     		pop	{r7, pc}
 128              	.L10:
 129              		.align	2
 130              	.L9:
 131 0044 00000000 		.word	OSCfg_TickRate_Hz
 132              		.cfi_endproc
 133              	.LFE1:
 134              		.size	BSP_OS_SemWait, .-BSP_OS_SemWait
 135              		.section	.text.BSP_OS_SemPost,"ax",%progbits
 136              		.align	2
 137              		.global	BSP_OS_SemPost
 138              		.thumb
 139              		.thumb_func
 140              		.type	BSP_OS_SemPost, %function
 141              	BSP_OS_SemPost:
 142              	.LFB2:
 194:..\..\BSP\OS\uCOS-III/bsp_os.c **** 
 195:..\..\BSP\OS\uCOS-III/bsp_os.c **** /*
 196:..\..\BSP\OS\uCOS-III/bsp_os.c **** ***************************************************************************************************
 197:..\..\BSP\OS\uCOS-III/bsp_os.c **** *                                      BSP_OS_SemPost()
 198:..\..\BSP\OS\uCOS-III/bsp_os.c **** *
 199:..\..\BSP\OS\uCOS-III/bsp_os.c **** * Description : Post a semaphore
 200:..\..\BSP\OS\uCOS-III/bsp_os.c **** *
ARM GAS  C:\Users\Aluno\AppData\Local\Temp\ccSd0bCz.s 			page 7


 201:..\..\BSP\OS\uCOS-III/bsp_os.c **** * Argument(s) : sem          Semaphore handler
 202:..\..\BSP\OS\uCOS-III/bsp_os.c **** *
 203:..\..\BSP\OS\uCOS-III/bsp_os.c **** * Return(s)   : DEF_OK     if the semaphore was posted.
 204:..\..\BSP\OS\uCOS-III/bsp_os.c **** *               DEF_FAIL      if the sempahore could not be posted.
 205:..\..\BSP\OS\uCOS-III/bsp_os.c **** *
 206:..\..\BSP\OS\uCOS-III/bsp_os.c **** * Caller(s)   : Application.
 207:..\..\BSP\OS\uCOS-III/bsp_os.c **** *
 208:..\..\BSP\OS\uCOS-III/bsp_os.c **** * Note(s)     : none.
 209:..\..\BSP\OS\uCOS-III/bsp_os.c **** ***************************************************************************************************
 210:..\..\BSP\OS\uCOS-III/bsp_os.c **** */
 211:..\..\BSP\OS\uCOS-III/bsp_os.c **** 
 212:..\..\BSP\OS\uCOS-III/bsp_os.c **** CPU_BOOLEAN  BSP_OS_SemPost (BSP_OS_SEM *p_sem)
 213:..\..\BSP\OS\uCOS-III/bsp_os.c **** {
 143              		.loc 1 213 0
 144              		.cfi_startproc
 145              		@ args = 0, pretend = 0, frame = 16
 146              		@ frame_needed = 1, uses_anonymous_args = 0
 147 0000 80B5     		push	{r7, lr}
 148              		.cfi_def_cfa_offset 8
 149              		.cfi_offset 7, -8
 150              		.cfi_offset 14, -4
 151 0002 84B0     		sub	sp, sp, #16
 152              		.cfi_def_cfa_offset 24
 153 0004 00AF     		add	r7, sp, #0
 154              		.cfi_def_cfa_register 7
 155 0006 7860     		str	r0, [r7, #4]
 214:..\..\BSP\OS\uCOS-III/bsp_os.c ****     OS_ERR  err;
 215:..\..\BSP\OS\uCOS-III/bsp_os.c **** 
 216:..\..\BSP\OS\uCOS-III/bsp_os.c **** 
 217:..\..\BSP\OS\uCOS-III/bsp_os.c ****     OSSemPost((OS_SEM *)p_sem,
 156              		.loc 1 217 0
 157 0008 07F10E03 		add	r3, r7, #14
 158 000c 1A46     		mov	r2, r3
 159 000e 0021     		movs	r1, #0
 160 0010 7868     		ldr	r0, [r7, #4]
 161 0012 FFF7FEFF 		bl	OSSemPost
 218:..\..\BSP\OS\uCOS-III/bsp_os.c ****               (OS_OPT  )OS_OPT_POST_1,
 219:..\..\BSP\OS\uCOS-III/bsp_os.c ****               (OS_ERR *)&err);
 220:..\..\BSP\OS\uCOS-III/bsp_os.c **** 
 221:..\..\BSP\OS\uCOS-III/bsp_os.c ****     if (err != OS_ERR_NONE) {
 162              		.loc 1 221 0
 163 0016 FB89     		ldrh	r3, [r7, #14]
 164 0018 002B     		cmp	r3, #0
 165 001a 01D0     		beq	.L12
 222:..\..\BSP\OS\uCOS-III/bsp_os.c ****         return (DEF_FAIL);
 166              		.loc 1 222 0
 167 001c 0023     		movs	r3, #0
 168 001e 00E0     		b	.L14
 169              	.L12:
 223:..\..\BSP\OS\uCOS-III/bsp_os.c ****     }
 224:..\..\BSP\OS\uCOS-III/bsp_os.c **** 
 225:..\..\BSP\OS\uCOS-III/bsp_os.c ****     return (DEF_OK);
 170              		.loc 1 225 0
 171 0020 0123     		movs	r3, #1
 172              	.L14:
 226:..\..\BSP\OS\uCOS-III/bsp_os.c **** }
 173              		.loc 1 226 0 discriminator 1
ARM GAS  C:\Users\Aluno\AppData\Local\Temp\ccSd0bCz.s 			page 8


 174 0022 1846     		mov	r0, r3
 175 0024 1037     		adds	r7, r7, #16
 176              		.cfi_def_cfa_offset 8
 177 0026 BD46     		mov	sp, r7
 178              		.cfi_def_cfa_register 13
 179              		@ sp needed
 180 0028 80BD     		pop	{r7, pc}
 181              		.cfi_endproc
 182              	.LFE2:
 183              		.size	BSP_OS_SemPost, .-BSP_OS_SemPost
 184 002a 00BF     		.section	.text.BSP_OS_TimeDlyMs,"ax",%progbits
 185              		.align	2
 186              		.global	BSP_OS_TimeDlyMs
 187              		.thumb
 188              		.thumb_func
 189              		.type	BSP_OS_TimeDlyMs, %function
 190              	BSP_OS_TimeDlyMs:
 191              	.LFB3:
 227:..\..\BSP\OS\uCOS-III/bsp_os.c **** 
 228:..\..\BSP\OS\uCOS-III/bsp_os.c **** 
 229:..\..\BSP\OS\uCOS-III/bsp_os.c **** /*
 230:..\..\BSP\OS\uCOS-III/bsp_os.c **** ***************************************************************************************************
 231:..\..\BSP\OS\uCOS-III/bsp_os.c **** ***************************************************************************************************
 232:..\..\BSP\OS\uCOS-III/bsp_os.c **** **                                     uC/OS-III TIMER FUNCTIONS
 233:..\..\BSP\OS\uCOS-III/bsp_os.c **** ***************************************************************************************************
 234:..\..\BSP\OS\uCOS-III/bsp_os.c **** ***************************************************************************************************
 235:..\..\BSP\OS\uCOS-III/bsp_os.c **** */
 236:..\..\BSP\OS\uCOS-III/bsp_os.c **** 
 237:..\..\BSP\OS\uCOS-III/bsp_os.c **** /*
 238:..\..\BSP\OS\uCOS-III/bsp_os.c **** ***************************************************************************************************
 239:..\..\BSP\OS\uCOS-III/bsp_os.c **** *                                    BSP_TimeDlyMs()
 240:..\..\BSP\OS\uCOS-III/bsp_os.c **** *
 241:..\..\BSP\OS\uCOS-III/bsp_os.c **** * Description : This function delay the exceution for specifi amount of miliseconds
 242:..\..\BSP\OS\uCOS-III/bsp_os.c **** *
 243:..\..\BSP\OS\uCOS-III/bsp_os.c **** * Argument(s) : dly_ms       Delay in miliseconds
 244:..\..\BSP\OS\uCOS-III/bsp_os.c **** *
 245:..\..\BSP\OS\uCOS-III/bsp_os.c **** * Return(s)   : none.
 246:..\..\BSP\OS\uCOS-III/bsp_os.c **** *
 247:..\..\BSP\OS\uCOS-III/bsp_os.c **** * Caller(s)   : Application
 248:..\..\BSP\OS\uCOS-III/bsp_os.c **** *
 249:..\..\BSP\OS\uCOS-III/bsp_os.c **** * Note(s)     : none.
 250:..\..\BSP\OS\uCOS-III/bsp_os.c **** *
 251:..\..\BSP\OS\uCOS-III/bsp_os.c **** ***************************************************************************************************
 252:..\..\BSP\OS\uCOS-III/bsp_os.c **** */
 253:..\..\BSP\OS\uCOS-III/bsp_os.c **** 
 254:..\..\BSP\OS\uCOS-III/bsp_os.c **** void   BSP_OS_TimeDlyMs (CPU_INT32U  dly_ms)
 255:..\..\BSP\OS\uCOS-III/bsp_os.c **** {
 192              		.loc 1 255 0
 193              		.cfi_startproc
 194              		@ args = 0, pretend = 0, frame = 16
 195              		@ frame_needed = 1, uses_anonymous_args = 0
 196 0000 80B5     		push	{r7, lr}
 197              		.cfi_def_cfa_offset 8
 198              		.cfi_offset 7, -8
 199              		.cfi_offset 14, -4
 200 0002 86B0     		sub	sp, sp, #24
 201              		.cfi_def_cfa_offset 32
ARM GAS  C:\Users\Aluno\AppData\Local\Temp\ccSd0bCz.s 			page 9


 202 0004 02AF     		add	r7, sp, #8
 203              		.cfi_def_cfa 7, 24
 204 0006 7860     		str	r0, [r7, #4]
 256:..\..\BSP\OS\uCOS-III/bsp_os.c ****     CPU_INT16U  ms;
 257:..\..\BSP\OS\uCOS-III/bsp_os.c ****     CPU_INT16U  sec;
 258:..\..\BSP\OS\uCOS-III/bsp_os.c ****     OS_ERR      err;
 259:..\..\BSP\OS\uCOS-III/bsp_os.c **** 
 260:..\..\BSP\OS\uCOS-III/bsp_os.c **** 
 261:..\..\BSP\OS\uCOS-III/bsp_os.c ****     if (dly_ms > 10000u) {                                       /* Limit delays to 10 seconds.    
 205              		.loc 1 261 0
 206 0008 7B68     		ldr	r3, [r7, #4]
 207 000a 42F21072 		movw	r2, #10000
 208 000e 9342     		cmp	r3, r2
 209 0010 02D9     		bls	.L16
 262:..\..\BSP\OS\uCOS-III/bsp_os.c ****         dly_ms = 10000u;
 210              		.loc 1 262 0
 211 0012 42F21073 		movw	r3, #10000
 212 0016 7B60     		str	r3, [r7, #4]
 213              	.L16:
 263:..\..\BSP\OS\uCOS-III/bsp_os.c ****     }
 264:..\..\BSP\OS\uCOS-III/bsp_os.c **** 
 265:..\..\BSP\OS\uCOS-III/bsp_os.c ****     if (dly_ms >= 1000u) {
 214              		.loc 1 265 0
 215 0018 7B68     		ldr	r3, [r7, #4]
 216 001a B3F57A7F 		cmp	r3, #1000
 217 001e 11D3     		bcc	.L17
 266:..\..\BSP\OS\uCOS-III/bsp_os.c ****         ms  = dly_ms / 1000u;
 218              		.loc 1 266 0
 219 0020 7B68     		ldr	r3, [r7, #4]
 220 0022 124A     		ldr	r2, .L19
 221 0024 A2FB0323 		umull	r2, r3, r2, r3
 222 0028 9B09     		lsrs	r3, r3, #6
 223 002a FB81     		strh	r3, [r7, #14]	@ movhi
 267:..\..\BSP\OS\uCOS-III/bsp_os.c ****         sec = dly_ms % 1000u;
 224              		.loc 1 267 0
 225 002c 7A68     		ldr	r2, [r7, #4]
 226 002e 0F4B     		ldr	r3, .L19
 227 0030 A3FB0213 		umull	r1, r3, r3, r2
 228 0034 9B09     		lsrs	r3, r3, #6
 229 0036 4FF47A71 		mov	r1, #1000
 230 003a 01FB03F3 		mul	r3, r1, r3
 231 003e D31A     		subs	r3, r2, r3
 232 0040 BB81     		strh	r3, [r7, #12]	@ movhi
 233 0042 03E0     		b	.L18
 234              	.L17:
 268:..\..\BSP\OS\uCOS-III/bsp_os.c ****     } else {
 269:..\..\BSP\OS\uCOS-III/bsp_os.c ****         ms  = dly_ms;
 235              		.loc 1 269 0
 236 0044 7B68     		ldr	r3, [r7, #4]
 237 0046 FB81     		strh	r3, [r7, #14]	@ movhi
 270:..\..\BSP\OS\uCOS-III/bsp_os.c ****         sec = 0u;
 238              		.loc 1 270 0
 239 0048 0023     		movs	r3, #0
 240 004a BB81     		strh	r3, [r7, #12]	@ movhi
 241              	.L18:
 271:..\..\BSP\OS\uCOS-III/bsp_os.c ****     }
 272:..\..\BSP\OS\uCOS-III/bsp_os.c **** 
ARM GAS  C:\Users\Aluno\AppData\Local\Temp\ccSd0bCz.s 			page 10


 273:..\..\BSP\OS\uCOS-III/bsp_os.c **** 
 274:..\..\BSP\OS\uCOS-III/bsp_os.c ****     OSTimeDlyHMSM((CPU_INT16U) 0u,
 242              		.loc 1 274 0
 243 004c F989     		ldrh	r1, [r7, #14]
 244 004e BA89     		ldrh	r2, [r7, #12]
 245 0050 07F10A03 		add	r3, r7, #10
 246 0054 0193     		str	r3, [sp, #4]
 247 0056 0023     		movs	r3, #0
 248 0058 0093     		str	r3, [sp]
 249 005a 0B46     		mov	r3, r1
 250 005c 0021     		movs	r1, #0
 251 005e 0020     		movs	r0, #0
 252 0060 FFF7FEFF 		bl	OSTimeDlyHMSM
 275:..\..\BSP\OS\uCOS-III/bsp_os.c ****                   (CPU_INT16U) 0u,
 276:..\..\BSP\OS\uCOS-III/bsp_os.c ****                   (CPU_INT16U) sec,
 277:..\..\BSP\OS\uCOS-III/bsp_os.c ****                   (CPU_INT32U) ms,
 278:..\..\BSP\OS\uCOS-III/bsp_os.c ****                   (OS_OPT    ) OS_OPT_TIME_HMSM_STRICT,
 279:..\..\BSP\OS\uCOS-III/bsp_os.c ****                   (OS_ERR   *)&err);
 280:..\..\BSP\OS\uCOS-III/bsp_os.c **** }
 253              		.loc 1 280 0
 254 0064 00BF     		nop
 255 0066 1037     		adds	r7, r7, #16
 256              		.cfi_def_cfa_offset 8
 257 0068 BD46     		mov	sp, r7
 258              		.cfi_def_cfa_register 13
 259              		@ sp needed
 260 006a 80BD     		pop	{r7, pc}
 261              	.L20:
 262              		.align	2
 263              	.L19:
 264 006c D34D6210 		.word	274877907
 265              		.cfi_endproc
 266              	.LFE3:
 267              		.size	BSP_OS_TimeDlyMs, .-BSP_OS_TimeDlyMs
 268              		.text
 269              	.Letext0:
 270              		.file 2 "..\\..\\..\\..\\..\\..\\uC-CPU\\ARM-Cortex-M3\\GNU/cpu.h"
 271              		.file 3 "..\\..\\..\\..\\..\\..\\uC-CPU/cpu_core.h"
 272              		.file 4 "..\\..\\..\\..\\..\\..\\uCOS-III\\Source/os_type.h"
 273              		.file 5 "..\\..\\..\\..\\..\\..\\uCOS-III\\Source/os.h"
 274              		.file 6 "..\\..\\BSP\\OS\\uCOS-III/bsp_os.h"