ARM GAS  C:\Users\EDULU~1.DES\AppData\Local\Temp\ccsqo3rj.s 			page 1


   1              		.cpu cortex-m0
   2              		.eabi_attribute 20, 1
   3              		.eabi_attribute 21, 1
   4              		.eabi_attribute 23, 3
   5              		.eabi_attribute 24, 1
   6              		.eabi_attribute 25, 1
   7              		.eabi_attribute 26, 1
   8              		.eabi_attribute 30, 1
   9              		.eabi_attribute 34, 0
  10              		.eabi_attribute 18, 4
  11              		.file	"Accel_Pin.c"
  12              		.text
  13              	.Ltext0:
  14              		.cfi_sections	.debug_frame
  15              		.section	.text.Accel_Pin_SetDriveMode,"ax",%progbits
  16              		.align	1
  17              		.global	Accel_Pin_SetDriveMode
  18              		.arch armv6s-m
  19              		.syntax unified
  20              		.code	16
  21              		.thumb_func
  22              		.fpu softvfp
  23              		.type	Accel_Pin_SetDriveMode, %function
  24              	Accel_Pin_SetDriveMode:
  25              	.LVL0:
  26              	.LFB0:
  27              		.file 1 "Generated_Source\\PSoC4\\Accel_Pin.c"
   1:Generated_Source\PSoC4/Accel_Pin.c **** /*******************************************************************************
   2:Generated_Source\PSoC4/Accel_Pin.c **** * File Name: Accel_Pin.c  
   3:Generated_Source\PSoC4/Accel_Pin.c **** * Version 2.20
   4:Generated_Source\PSoC4/Accel_Pin.c **** *
   5:Generated_Source\PSoC4/Accel_Pin.c **** * Description:
   6:Generated_Source\PSoC4/Accel_Pin.c **** *  This file contains API to enable firmware control of a Pins component.
   7:Generated_Source\PSoC4/Accel_Pin.c **** *
   8:Generated_Source\PSoC4/Accel_Pin.c **** ********************************************************************************
   9:Generated_Source\PSoC4/Accel_Pin.c **** * Copyright 2008-2015, Cypress Semiconductor Corporation.  All rights reserved.
  10:Generated_Source\PSoC4/Accel_Pin.c **** * You may use this file only in accordance with the license, terms, conditions, 
  11:Generated_Source\PSoC4/Accel_Pin.c **** * disclaimers, and limitations in the end user license agreement accompanying 
  12:Generated_Source\PSoC4/Accel_Pin.c **** * the software package with which this file was provided.
  13:Generated_Source\PSoC4/Accel_Pin.c **** *******************************************************************************/
  14:Generated_Source\PSoC4/Accel_Pin.c **** 
  15:Generated_Source\PSoC4/Accel_Pin.c **** #include "cytypes.h"
  16:Generated_Source\PSoC4/Accel_Pin.c **** #include "Accel_Pin.h"
  17:Generated_Source\PSoC4/Accel_Pin.c **** 
  18:Generated_Source\PSoC4/Accel_Pin.c **** 
  19:Generated_Source\PSoC4/Accel_Pin.c **** #if defined(Accel_Pin__PC)
  20:Generated_Source\PSoC4/Accel_Pin.c ****     #define Accel_Pin_SetP4PinDriveMode(shift, mode)  \
  21:Generated_Source\PSoC4/Accel_Pin.c ****     do { \
  22:Generated_Source\PSoC4/Accel_Pin.c ****         Accel_Pin_PC =   (Accel_Pin_PC & \
  23:Generated_Source\PSoC4/Accel_Pin.c ****                                 (uint32)(~(uint32)(Accel_Pin_DRIVE_MODE_IND_MASK << \
  24:Generated_Source\PSoC4/Accel_Pin.c ****                                 (Accel_Pin_DRIVE_MODE_BITS * (shift))))) | \
  25:Generated_Source\PSoC4/Accel_Pin.c ****                                 (uint32)((uint32)(mode) << \
  26:Generated_Source\PSoC4/Accel_Pin.c ****                                 (Accel_Pin_DRIVE_MODE_BITS * (shift))); \
  27:Generated_Source\PSoC4/Accel_Pin.c ****     } while (0)
  28:Generated_Source\PSoC4/Accel_Pin.c **** #else
  29:Generated_Source\PSoC4/Accel_Pin.c ****     #if (CY_PSOC4_4200L)
  30:Generated_Source\PSoC4/Accel_Pin.c ****         #define Accel_Pin_SetP4PinDriveMode(shift, mode)  \
ARM GAS  C:\Users\EDULU~1.DES\AppData\Local\Temp\ccsqo3rj.s 			page 2


  31:Generated_Source\PSoC4/Accel_Pin.c ****         do { \
  32:Generated_Source\PSoC4/Accel_Pin.c ****             Accel_Pin_USBIO_CTRL_REG = (Accel_Pin_USBIO_CTRL_REG & \
  33:Generated_Source\PSoC4/Accel_Pin.c ****                                     (uint32)(~(uint32)(Accel_Pin_DRIVE_MODE_IND_MASK << \
  34:Generated_Source\PSoC4/Accel_Pin.c ****                                     (Accel_Pin_DRIVE_MODE_BITS * (shift))))) | \
  35:Generated_Source\PSoC4/Accel_Pin.c ****                                     (uint32)((uint32)(mode) << \
  36:Generated_Source\PSoC4/Accel_Pin.c ****                                     (Accel_Pin_DRIVE_MODE_BITS * (shift))); \
  37:Generated_Source\PSoC4/Accel_Pin.c ****         } while (0)
  38:Generated_Source\PSoC4/Accel_Pin.c ****     #endif
  39:Generated_Source\PSoC4/Accel_Pin.c **** #endif
  40:Generated_Source\PSoC4/Accel_Pin.c ****   
  41:Generated_Source\PSoC4/Accel_Pin.c **** 
  42:Generated_Source\PSoC4/Accel_Pin.c **** #if defined(Accel_Pin__PC) || (CY_PSOC4_4200L) 
  43:Generated_Source\PSoC4/Accel_Pin.c ****     /*******************************************************************************
  44:Generated_Source\PSoC4/Accel_Pin.c ****     * Function Name: Accel_Pin_SetDriveMode
  45:Generated_Source\PSoC4/Accel_Pin.c ****     ****************************************************************************//**
  46:Generated_Source\PSoC4/Accel_Pin.c ****     *
  47:Generated_Source\PSoC4/Accel_Pin.c ****     * \brief Sets the drive mode for each of the Pins component's pins.
  48:Generated_Source\PSoC4/Accel_Pin.c ****     * 
  49:Generated_Source\PSoC4/Accel_Pin.c ****     * <b>Note</b> This affects all pins in the Pins component instance. Use the
  50:Generated_Source\PSoC4/Accel_Pin.c ****     * Per-Pin APIs if you wish to control individual pin's drive modes.
  51:Generated_Source\PSoC4/Accel_Pin.c ****     *
  52:Generated_Source\PSoC4/Accel_Pin.c ****     * <b>Note</b> USBIOs have limited drive functionality. Refer to the Drive Mode
  53:Generated_Source\PSoC4/Accel_Pin.c ****     * parameter for more information.
  54:Generated_Source\PSoC4/Accel_Pin.c ****     *
  55:Generated_Source\PSoC4/Accel_Pin.c ****     * \param mode
  56:Generated_Source\PSoC4/Accel_Pin.c ****     *  Mode for the selected signals. Valid options are documented in 
  57:Generated_Source\PSoC4/Accel_Pin.c ****     *  \ref driveMode.
  58:Generated_Source\PSoC4/Accel_Pin.c ****     *
  59:Generated_Source\PSoC4/Accel_Pin.c ****     * \return
  60:Generated_Source\PSoC4/Accel_Pin.c ****     *  None
  61:Generated_Source\PSoC4/Accel_Pin.c ****     *
  62:Generated_Source\PSoC4/Accel_Pin.c ****     * \sideeffect
  63:Generated_Source\PSoC4/Accel_Pin.c ****     *  If you use read-modify-write operations that are not atomic, the ISR can
  64:Generated_Source\PSoC4/Accel_Pin.c ****     *  cause corruption of this function. An ISR that interrupts this function 
  65:Generated_Source\PSoC4/Accel_Pin.c ****     *  and performs writes to the Pins component Drive Mode registers can cause 
  66:Generated_Source\PSoC4/Accel_Pin.c ****     *  corrupted port data. To avoid this issue, you should either use the Per-Pin
  67:Generated_Source\PSoC4/Accel_Pin.c ****     *  APIs (primary method) or disable interrupts around this function.
  68:Generated_Source\PSoC4/Accel_Pin.c ****     *
  69:Generated_Source\PSoC4/Accel_Pin.c ****     * \funcusage
  70:Generated_Source\PSoC4/Accel_Pin.c ****     *  \snippet Accel_Pin_SUT.c usage_Accel_Pin_SetDriveMode
  71:Generated_Source\PSoC4/Accel_Pin.c ****     *******************************************************************************/
  72:Generated_Source\PSoC4/Accel_Pin.c ****     void Accel_Pin_SetDriveMode(uint8 mode)
  73:Generated_Source\PSoC4/Accel_Pin.c ****     {
  28              		.loc 1 73 5 view -0
  29              		.cfi_startproc
  30              		@ args = 0, pretend = 0, frame = 0
  31              		@ frame_needed = 0, uses_anonymous_args = 0
  32              		@ link register save eliminated.
  74:Generated_Source\PSoC4/Accel_Pin.c **** 		Accel_Pin_SetP4PinDriveMode(Accel_Pin__0__SHIFT, mode);
  33              		.loc 1 74 3 view .LVU1
  34              		.loc 1 74 3 view .LVU2
  35 0000 034A     		ldr	r2, .L2
  36 0002 1368     		ldr	r3, [r2]
  37 0004 0349     		ldr	r1, .L2+4
  38 0006 0B40     		ands	r3, r1
  39 0008 8004     		lsls	r0, r0, #18
  40              	.LVL1:
ARM GAS  C:\Users\EDULU~1.DES\AppData\Local\Temp\ccsqo3rj.s 			page 3


  41              		.loc 1 74 3 is_stmt 0 view .LVU3
  42 000a 0343     		orrs	r3, r0
  43 000c 1360     		str	r3, [r2]
  75:Generated_Source\PSoC4/Accel_Pin.c ****     }
  44              		.loc 1 75 5 view .LVU4
  45              		@ sp needed
  46 000e 7047     		bx	lr
  47              	.L3:
  48              		.align	2
  49              	.L2:
  50 0010 08010440 		.word	1074004232
  51 0014 FFFFE3FF 		.word	-1835009
  52              		.cfi_endproc
  53              	.LFE0:
  54              		.size	Accel_Pin_SetDriveMode, .-Accel_Pin_SetDriveMode
  55              		.section	.text.Accel_Pin_Write,"ax",%progbits
  56              		.align	1
  57              		.global	Accel_Pin_Write
  58              		.syntax unified
  59              		.code	16
  60              		.thumb_func
  61              		.fpu softvfp
  62              		.type	Accel_Pin_Write, %function
  63              	Accel_Pin_Write:
  64              	.LVL2:
  65              	.LFB1:
  76:Generated_Source\PSoC4/Accel_Pin.c **** #endif
  77:Generated_Source\PSoC4/Accel_Pin.c **** 
  78:Generated_Source\PSoC4/Accel_Pin.c **** 
  79:Generated_Source\PSoC4/Accel_Pin.c **** /*******************************************************************************
  80:Generated_Source\PSoC4/Accel_Pin.c **** * Function Name: Accel_Pin_Write
  81:Generated_Source\PSoC4/Accel_Pin.c **** ****************************************************************************//**
  82:Generated_Source\PSoC4/Accel_Pin.c **** *
  83:Generated_Source\PSoC4/Accel_Pin.c **** * \brief Writes the value to the physical port (data output register), masking
  84:Generated_Source\PSoC4/Accel_Pin.c **** *  and shifting the bits appropriately. 
  85:Generated_Source\PSoC4/Accel_Pin.c **** *
  86:Generated_Source\PSoC4/Accel_Pin.c **** * The data output register controls the signal applied to the physical pin in 
  87:Generated_Source\PSoC4/Accel_Pin.c **** * conjunction with the drive mode parameter. This function avoids changing 
  88:Generated_Source\PSoC4/Accel_Pin.c **** * other bits in the port by using the appropriate method (read-modify-write or
  89:Generated_Source\PSoC4/Accel_Pin.c **** * bit banding).
  90:Generated_Source\PSoC4/Accel_Pin.c **** *
  91:Generated_Source\PSoC4/Accel_Pin.c **** * <b>Note</b> This function should not be used on a hardware digital output pin 
  92:Generated_Source\PSoC4/Accel_Pin.c **** * as it is driven by the hardware signal attached to it.
  93:Generated_Source\PSoC4/Accel_Pin.c **** *
  94:Generated_Source\PSoC4/Accel_Pin.c **** * \param value
  95:Generated_Source\PSoC4/Accel_Pin.c **** *  Value to write to the component instance.
  96:Generated_Source\PSoC4/Accel_Pin.c **** *
  97:Generated_Source\PSoC4/Accel_Pin.c **** * \return 
  98:Generated_Source\PSoC4/Accel_Pin.c **** *  None 
  99:Generated_Source\PSoC4/Accel_Pin.c **** *
 100:Generated_Source\PSoC4/Accel_Pin.c **** * \sideeffect
 101:Generated_Source\PSoC4/Accel_Pin.c **** *  If you use read-modify-write operations that are not atomic; the Interrupt 
 102:Generated_Source\PSoC4/Accel_Pin.c **** *  Service Routines (ISR) can cause corruption of this function. An ISR that 
 103:Generated_Source\PSoC4/Accel_Pin.c **** *  interrupts this function and performs writes to the Pins component data 
 104:Generated_Source\PSoC4/Accel_Pin.c **** *  register can cause corrupted port data. To avoid this issue, you should 
 105:Generated_Source\PSoC4/Accel_Pin.c **** *  either use the Per-Pin APIs (primary method) or disable interrupts around 
 106:Generated_Source\PSoC4/Accel_Pin.c **** *  this function.
ARM GAS  C:\Users\EDULU~1.DES\AppData\Local\Temp\ccsqo3rj.s 			page 4


 107:Generated_Source\PSoC4/Accel_Pin.c **** *
 108:Generated_Source\PSoC4/Accel_Pin.c **** * \funcusage
 109:Generated_Source\PSoC4/Accel_Pin.c **** *  \snippet Accel_Pin_SUT.c usage_Accel_Pin_Write
 110:Generated_Source\PSoC4/Accel_Pin.c **** *******************************************************************************/
 111:Generated_Source\PSoC4/Accel_Pin.c **** void Accel_Pin_Write(uint8 value)
 112:Generated_Source\PSoC4/Accel_Pin.c **** {
  66              		.loc 1 112 1 is_stmt 1 view -0
  67              		.cfi_startproc
  68              		@ args = 0, pretend = 0, frame = 0
  69              		@ frame_needed = 0, uses_anonymous_args = 0
  70              		@ link register save eliminated.
 113:Generated_Source\PSoC4/Accel_Pin.c ****     uint8 drVal = (uint8)(Accel_Pin_DR & (uint8)(~Accel_Pin_MASK));
  71              		.loc 1 113 5 view .LVU6
  72              		.loc 1 113 27 is_stmt 0 view .LVU7
  73 0000 044A     		ldr	r2, .L5
  74 0002 1368     		ldr	r3, [r2]
  75              		.loc 1 113 19 view .LVU8
  76 0004 DBB2     		uxtb	r3, r3
  77              		.loc 1 113 11 view .LVU9
  78 0006 4021     		movs	r1, #64
  79 0008 8B43     		bics	r3, r1
  80              	.LVL3:
 114:Generated_Source\PSoC4/Accel_Pin.c ****     drVal = (drVal | ((uint8)(value << Accel_Pin_SHIFT) & Accel_Pin_MASK));
  81              		.loc 1 114 5 is_stmt 1 view .LVU10
  82              		.loc 1 114 23 is_stmt 0 view .LVU11
  83 000a 8001     		lsls	r0, r0, #6
  84              	.LVL4:
  85              		.loc 1 114 57 view .LVU12
  86 000c 0840     		ands	r0, r1
  87              		.loc 1 114 11 view .LVU13
  88 000e 1843     		orrs	r0, r3
  89              	.LVL5:
 115:Generated_Source\PSoC4/Accel_Pin.c ****     Accel_Pin_DR = (uint32)drVal;
  90              		.loc 1 115 5 is_stmt 1 view .LVU14
  91              		.loc 1 115 18 is_stmt 0 view .LVU15
  92 0010 1060     		str	r0, [r2]
 116:Generated_Source\PSoC4/Accel_Pin.c **** }
  93              		.loc 1 116 1 view .LVU16
  94              		@ sp needed
  95 0012 7047     		bx	lr
  96              	.L6:
  97              		.align	2
  98              	.L5:
  99 0014 00010440 		.word	1074004224
 100              		.cfi_endproc
 101              	.LFE1:
 102              		.size	Accel_Pin_Write, .-Accel_Pin_Write
 103              		.section	.text.Accel_Pin_Read,"ax",%progbits
 104              		.align	1
 105              		.global	Accel_Pin_Read
 106              		.syntax unified
 107              		.code	16
 108              		.thumb_func
 109              		.fpu softvfp
 110              		.type	Accel_Pin_Read, %function
 111              	Accel_Pin_Read:
 112              	.LFB2:
ARM GAS  C:\Users\EDULU~1.DES\AppData\Local\Temp\ccsqo3rj.s 			page 5


 117:Generated_Source\PSoC4/Accel_Pin.c **** 
 118:Generated_Source\PSoC4/Accel_Pin.c **** 
 119:Generated_Source\PSoC4/Accel_Pin.c **** /*******************************************************************************
 120:Generated_Source\PSoC4/Accel_Pin.c **** * Function Name: Accel_Pin_Read
 121:Generated_Source\PSoC4/Accel_Pin.c **** ****************************************************************************//**
 122:Generated_Source\PSoC4/Accel_Pin.c **** *
 123:Generated_Source\PSoC4/Accel_Pin.c **** * \brief Reads the associated physical port (pin status register) and masks 
 124:Generated_Source\PSoC4/Accel_Pin.c **** *  the required bits according to the width and bit position of the component
 125:Generated_Source\PSoC4/Accel_Pin.c **** *  instance. 
 126:Generated_Source\PSoC4/Accel_Pin.c **** *
 127:Generated_Source\PSoC4/Accel_Pin.c **** * The pin's status register returns the current logic level present on the 
 128:Generated_Source\PSoC4/Accel_Pin.c **** * physical pin.
 129:Generated_Source\PSoC4/Accel_Pin.c **** *
 130:Generated_Source\PSoC4/Accel_Pin.c **** * \return 
 131:Generated_Source\PSoC4/Accel_Pin.c **** *  The current value for the pins in the component as a right justified number.
 132:Generated_Source\PSoC4/Accel_Pin.c **** *
 133:Generated_Source\PSoC4/Accel_Pin.c **** * \funcusage
 134:Generated_Source\PSoC4/Accel_Pin.c **** *  \snippet Accel_Pin_SUT.c usage_Accel_Pin_Read  
 135:Generated_Source\PSoC4/Accel_Pin.c **** *******************************************************************************/
 136:Generated_Source\PSoC4/Accel_Pin.c **** uint8 Accel_Pin_Read(void)
 137:Generated_Source\PSoC4/Accel_Pin.c **** {
 113              		.loc 1 137 1 is_stmt 1 view -0
 114              		.cfi_startproc
 115              		@ args = 0, pretend = 0, frame = 0
 116              		@ frame_needed = 0, uses_anonymous_args = 0
 117              		@ link register save eliminated.
 138:Generated_Source\PSoC4/Accel_Pin.c ****     return (uint8)((Accel_Pin_PS & Accel_Pin_MASK) >> Accel_Pin_SHIFT);
 118              		.loc 1 138 5 view .LVU18
 119              		.loc 1 138 21 is_stmt 0 view .LVU19
 120 0000 024B     		ldr	r3, .L8
 121 0002 1B68     		ldr	r3, [r3]
 122              		.loc 1 138 52 view .LVU20
 123 0004 9B09     		lsrs	r3, r3, #6
 124              		.loc 1 138 12 view .LVU21
 125 0006 0120     		movs	r0, #1
 126 0008 1840     		ands	r0, r3
 139:Generated_Source\PSoC4/Accel_Pin.c **** }
 127              		.loc 1 139 1 view .LVU22
 128              		@ sp needed
 129 000a 7047     		bx	lr
 130              	.L9:
 131              		.align	2
 132              	.L8:
 133 000c 04010440 		.word	1074004228
 134              		.cfi_endproc
 135              	.LFE2:
 136              		.size	Accel_Pin_Read, .-Accel_Pin_Read
 137              		.section	.text.Accel_Pin_ReadDataReg,"ax",%progbits
 138              		.align	1
 139              		.global	Accel_Pin_ReadDataReg
 140              		.syntax unified
 141              		.code	16
 142              		.thumb_func
 143              		.fpu softvfp
 144              		.type	Accel_Pin_ReadDataReg, %function
 145              	Accel_Pin_ReadDataReg:
 146              	.LFB3:
ARM GAS  C:\Users\EDULU~1.DES\AppData\Local\Temp\ccsqo3rj.s 			page 6


 140:Generated_Source\PSoC4/Accel_Pin.c **** 
 141:Generated_Source\PSoC4/Accel_Pin.c **** 
 142:Generated_Source\PSoC4/Accel_Pin.c **** /*******************************************************************************
 143:Generated_Source\PSoC4/Accel_Pin.c **** * Function Name: Accel_Pin_ReadDataReg
 144:Generated_Source\PSoC4/Accel_Pin.c **** ****************************************************************************//**
 145:Generated_Source\PSoC4/Accel_Pin.c **** *
 146:Generated_Source\PSoC4/Accel_Pin.c **** * \brief Reads the associated physical port's data output register and masks 
 147:Generated_Source\PSoC4/Accel_Pin.c **** *  the correct bits according to the width and bit position of the component 
 148:Generated_Source\PSoC4/Accel_Pin.c **** *  instance. 
 149:Generated_Source\PSoC4/Accel_Pin.c **** *
 150:Generated_Source\PSoC4/Accel_Pin.c **** * The data output register controls the signal applied to the physical pin in 
 151:Generated_Source\PSoC4/Accel_Pin.c **** * conjunction with the drive mode parameter. This is not the same as the 
 152:Generated_Source\PSoC4/Accel_Pin.c **** * preferred Accel_Pin_Read() API because the 
 153:Generated_Source\PSoC4/Accel_Pin.c **** * Accel_Pin_ReadDataReg() reads the data register instead of the status 
 154:Generated_Source\PSoC4/Accel_Pin.c **** * register. For output pins this is a useful function to determine the value 
 155:Generated_Source\PSoC4/Accel_Pin.c **** * just written to the pin.
 156:Generated_Source\PSoC4/Accel_Pin.c **** *
 157:Generated_Source\PSoC4/Accel_Pin.c **** * \return 
 158:Generated_Source\PSoC4/Accel_Pin.c **** *  The current value of the data register masked and shifted into a right 
 159:Generated_Source\PSoC4/Accel_Pin.c **** *  justified number for the component instance.
 160:Generated_Source\PSoC4/Accel_Pin.c **** *
 161:Generated_Source\PSoC4/Accel_Pin.c **** * \funcusage
 162:Generated_Source\PSoC4/Accel_Pin.c **** *  \snippet Accel_Pin_SUT.c usage_Accel_Pin_ReadDataReg 
 163:Generated_Source\PSoC4/Accel_Pin.c **** *******************************************************************************/
 164:Generated_Source\PSoC4/Accel_Pin.c **** uint8 Accel_Pin_ReadDataReg(void)
 165:Generated_Source\PSoC4/Accel_Pin.c **** {
 147              		.loc 1 165 1 is_stmt 1 view -0
 148              		.cfi_startproc
 149              		@ args = 0, pretend = 0, frame = 0
 150              		@ frame_needed = 0, uses_anonymous_args = 0
 151              		@ link register save eliminated.
 166:Generated_Source\PSoC4/Accel_Pin.c ****     return (uint8)((Accel_Pin_DR & Accel_Pin_MASK) >> Accel_Pin_SHIFT);
 152              		.loc 1 166 5 view .LVU24
 153              		.loc 1 166 21 is_stmt 0 view .LVU25
 154 0000 024B     		ldr	r3, .L11
 155 0002 1B68     		ldr	r3, [r3]
 156              		.loc 1 166 52 view .LVU26
 157 0004 9B09     		lsrs	r3, r3, #6
 158              		.loc 1 166 12 view .LVU27
 159 0006 0120     		movs	r0, #1
 160 0008 1840     		ands	r0, r3
 167:Generated_Source\PSoC4/Accel_Pin.c **** }
 161              		.loc 1 167 1 view .LVU28
 162              		@ sp needed
 163 000a 7047     		bx	lr
 164              	.L12:
 165              		.align	2
 166              	.L11:
 167 000c 00010440 		.word	1074004224
 168              		.cfi_endproc
 169              	.LFE3:
 170              		.size	Accel_Pin_ReadDataReg, .-Accel_Pin_ReadDataReg
 171              		.section	.text.Accel_Pin_SetInterruptMode,"ax",%progbits
 172              		.align	1
 173              		.global	Accel_Pin_SetInterruptMode
 174              		.syntax unified
 175              		.code	16
ARM GAS  C:\Users\EDULU~1.DES\AppData\Local\Temp\ccsqo3rj.s 			page 7


 176              		.thumb_func
 177              		.fpu softvfp
 178              		.type	Accel_Pin_SetInterruptMode, %function
 179              	Accel_Pin_SetInterruptMode:
 180              	.LVL6:
 181              	.LFB4:
 168:Generated_Source\PSoC4/Accel_Pin.c **** 
 169:Generated_Source\PSoC4/Accel_Pin.c **** 
 170:Generated_Source\PSoC4/Accel_Pin.c **** /*******************************************************************************
 171:Generated_Source\PSoC4/Accel_Pin.c **** * Function Name: Accel_Pin_SetInterruptMode
 172:Generated_Source\PSoC4/Accel_Pin.c **** ****************************************************************************//**
 173:Generated_Source\PSoC4/Accel_Pin.c **** *
 174:Generated_Source\PSoC4/Accel_Pin.c **** * \brief Configures the interrupt mode for each of the Pins component's
 175:Generated_Source\PSoC4/Accel_Pin.c **** *  pins. Alternatively you may set the interrupt mode for all the pins
 176:Generated_Source\PSoC4/Accel_Pin.c **** *  specified in the Pins component.
 177:Generated_Source\PSoC4/Accel_Pin.c **** *
 178:Generated_Source\PSoC4/Accel_Pin.c **** *  <b>Note</b> The interrupt is port-wide and therefore any enabled pin
 179:Generated_Source\PSoC4/Accel_Pin.c **** *  interrupt may trigger it.
 180:Generated_Source\PSoC4/Accel_Pin.c **** *
 181:Generated_Source\PSoC4/Accel_Pin.c **** * \param position
 182:Generated_Source\PSoC4/Accel_Pin.c **** *  The pin position as listed in the Pins component. You may OR these to be 
 183:Generated_Source\PSoC4/Accel_Pin.c **** *  able to configure the interrupt mode of multiple pins within a Pins 
 184:Generated_Source\PSoC4/Accel_Pin.c **** *  component. Or you may use Accel_Pin_INTR_ALL to configure the
 185:Generated_Source\PSoC4/Accel_Pin.c **** *  interrupt mode of all the pins in the Pins component.       
 186:Generated_Source\PSoC4/Accel_Pin.c **** *  - Accel_Pin_0_INTR       (First pin in the list)
 187:Generated_Source\PSoC4/Accel_Pin.c **** *  - Accel_Pin_1_INTR       (Second pin in the list)
 188:Generated_Source\PSoC4/Accel_Pin.c **** *  - ...
 189:Generated_Source\PSoC4/Accel_Pin.c **** *  - Accel_Pin_INTR_ALL     (All pins in Pins component)
 190:Generated_Source\PSoC4/Accel_Pin.c **** *
 191:Generated_Source\PSoC4/Accel_Pin.c **** * \param mode
 192:Generated_Source\PSoC4/Accel_Pin.c **** *  Interrupt mode for the selected pins. Valid options are documented in
 193:Generated_Source\PSoC4/Accel_Pin.c **** *  \ref intrMode.
 194:Generated_Source\PSoC4/Accel_Pin.c **** *
 195:Generated_Source\PSoC4/Accel_Pin.c **** * \return 
 196:Generated_Source\PSoC4/Accel_Pin.c **** *  None
 197:Generated_Source\PSoC4/Accel_Pin.c **** *  
 198:Generated_Source\PSoC4/Accel_Pin.c **** * \sideeffect
 199:Generated_Source\PSoC4/Accel_Pin.c **** *  It is recommended that the interrupt be disabled before calling this 
 200:Generated_Source\PSoC4/Accel_Pin.c **** *  function to avoid unintended interrupt requests. Note that the interrupt
 201:Generated_Source\PSoC4/Accel_Pin.c **** *  type is port wide, and therefore will trigger for any enabled pin on the 
 202:Generated_Source\PSoC4/Accel_Pin.c **** *  port.
 203:Generated_Source\PSoC4/Accel_Pin.c **** *
 204:Generated_Source\PSoC4/Accel_Pin.c **** * \funcusage
 205:Generated_Source\PSoC4/Accel_Pin.c **** *  \snippet Accel_Pin_SUT.c usage_Accel_Pin_SetInterruptMode
 206:Generated_Source\PSoC4/Accel_Pin.c **** *******************************************************************************/
 207:Generated_Source\PSoC4/Accel_Pin.c **** void Accel_Pin_SetInterruptMode(uint16 position, uint16 mode)
 208:Generated_Source\PSoC4/Accel_Pin.c **** {
 182              		.loc 1 208 1 is_stmt 1 view -0
 183              		.cfi_startproc
 184              		@ args = 0, pretend = 0, frame = 0
 185              		@ frame_needed = 0, uses_anonymous_args = 0
 186              		@ link register save eliminated.
 209:Generated_Source\PSoC4/Accel_Pin.c ****     uint32 intrCfg;
 187              		.loc 1 209 5 view .LVU30
 210:Generated_Source\PSoC4/Accel_Pin.c ****     
 211:Generated_Source\PSoC4/Accel_Pin.c ****     intrCfg =  Accel_Pin_INTCFG & (uint32)(~(uint32)position);
 188              		.loc 1 211 5 view .LVU31
ARM GAS  C:\Users\EDULU~1.DES\AppData\Local\Temp\ccsqo3rj.s 			page 8


 189              		.loc 1 211 16 is_stmt 0 view .LVU32
 190 0000 034A     		ldr	r2, .L14
 191 0002 1368     		ldr	r3, [r2]
 192              		.loc 1 211 13 view .LVU33
 193 0004 8343     		bics	r3, r0
 194              	.LVL7:
 212:Generated_Source\PSoC4/Accel_Pin.c ****     Accel_Pin_INTCFG = intrCfg | ((uint32)position & (uint32)mode);
 195              		.loc 1 212 5 is_stmt 1 view .LVU34
 196              		.loc 1 212 52 is_stmt 0 view .LVU35
 197 0006 0140     		ands	r1, r0
 198              	.LVL8:
 199              		.loc 1 212 32 view .LVU36
 200 0008 1943     		orrs	r1, r3
 201              		.loc 1 212 22 view .LVU37
 202 000a 1160     		str	r1, [r2]
 213:Generated_Source\PSoC4/Accel_Pin.c **** }
 203              		.loc 1 213 1 view .LVU38
 204              		@ sp needed
 205 000c 7047     		bx	lr
 206              	.L15:
 207 000e C046     		.align	2
 208              	.L14:
 209 0010 0C010440 		.word	1074004236
 210              		.cfi_endproc
 211              	.LFE4:
 212              		.size	Accel_Pin_SetInterruptMode, .-Accel_Pin_SetInterruptMode
 213              		.section	.text.Accel_Pin_ClearInterrupt,"ax",%progbits
 214              		.align	1
 215              		.global	Accel_Pin_ClearInterrupt
 216              		.syntax unified
 217              		.code	16
 218              		.thumb_func
 219              		.fpu softvfp
 220              		.type	Accel_Pin_ClearInterrupt, %function
 221              	Accel_Pin_ClearInterrupt:
 222              	.LFB5:
 214:Generated_Source\PSoC4/Accel_Pin.c **** 
 215:Generated_Source\PSoC4/Accel_Pin.c **** 
 216:Generated_Source\PSoC4/Accel_Pin.c **** /*******************************************************************************
 217:Generated_Source\PSoC4/Accel_Pin.c **** * Function Name: Accel_Pin_ClearInterrupt
 218:Generated_Source\PSoC4/Accel_Pin.c **** ****************************************************************************//**
 219:Generated_Source\PSoC4/Accel_Pin.c **** *
 220:Generated_Source\PSoC4/Accel_Pin.c **** * \brief Clears any active interrupts attached with the component and returns 
 221:Generated_Source\PSoC4/Accel_Pin.c **** *  the value of the interrupt status register allowing determination of which
 222:Generated_Source\PSoC4/Accel_Pin.c **** *  pins generated an interrupt event.
 223:Generated_Source\PSoC4/Accel_Pin.c **** *
 224:Generated_Source\PSoC4/Accel_Pin.c **** * \return 
 225:Generated_Source\PSoC4/Accel_Pin.c **** *  The right-shifted current value of the interrupt status register. Each pin 
 226:Generated_Source\PSoC4/Accel_Pin.c **** *  has one bit set if it generated an interrupt event. For example, bit 0 is 
 227:Generated_Source\PSoC4/Accel_Pin.c **** *  for pin 0 and bit 1 is for pin 1 of the Pins component.
 228:Generated_Source\PSoC4/Accel_Pin.c **** *  
 229:Generated_Source\PSoC4/Accel_Pin.c **** * \sideeffect
 230:Generated_Source\PSoC4/Accel_Pin.c **** *  Clears all bits of the physical port's interrupt status register, not just
 231:Generated_Source\PSoC4/Accel_Pin.c **** *  those associated with the Pins component.
 232:Generated_Source\PSoC4/Accel_Pin.c **** *
 233:Generated_Source\PSoC4/Accel_Pin.c **** * \funcusage
 234:Generated_Source\PSoC4/Accel_Pin.c **** *  \snippet Accel_Pin_SUT.c usage_Accel_Pin_ClearInterrupt
ARM GAS  C:\Users\EDULU~1.DES\AppData\Local\Temp\ccsqo3rj.s 			page 9


 235:Generated_Source\PSoC4/Accel_Pin.c **** *******************************************************************************/
 236:Generated_Source\PSoC4/Accel_Pin.c **** uint8 Accel_Pin_ClearInterrupt(void)
 237:Generated_Source\PSoC4/Accel_Pin.c **** {
 223              		.loc 1 237 1 is_stmt 1 view -0
 224              		.cfi_startproc
 225              		@ args = 0, pretend = 0, frame = 0
 226              		@ frame_needed = 0, uses_anonymous_args = 0
 227              		@ link register save eliminated.
 238:Generated_Source\PSoC4/Accel_Pin.c **** 	uint8 maskedStatus = (uint8)(Accel_Pin_INTSTAT & Accel_Pin_MASK);
 228              		.loc 1 238 2 view .LVU40
 229              		.loc 1 238 31 is_stmt 0 view .LVU41
 230 0000 034B     		ldr	r3, .L17
 231 0002 1868     		ldr	r0, [r3]
 232              		.loc 1 238 8 view .LVU42
 233 0004 4022     		movs	r2, #64
 234 0006 1040     		ands	r0, r2
 235              	.LVL9:
 239:Generated_Source\PSoC4/Accel_Pin.c **** 	Accel_Pin_INTSTAT = maskedStatus;
 236              		.loc 1 239 2 is_stmt 1 view .LVU43
 237              		.loc 1 239 20 is_stmt 0 view .LVU44
 238 0008 1860     		str	r0, [r3]
 240:Generated_Source\PSoC4/Accel_Pin.c ****     return maskedStatus >> Accel_Pin_SHIFT;
 239              		.loc 1 240 5 is_stmt 1 view .LVU45
 240              		.loc 1 240 25 is_stmt 0 view .LVU46
 241 000a 8009     		lsrs	r0, r0, #6
 242              	.LVL10:
 241:Generated_Source\PSoC4/Accel_Pin.c **** }
 243              		.loc 1 241 1 view .LVU47
 244              		@ sp needed
 245 000c 7047     		bx	lr
 246              	.L18:
 247 000e C046     		.align	2
 248              	.L17:
 249 0010 10010440 		.word	1074004240
 250              		.cfi_endproc
 251              	.LFE5:
 252              		.size	Accel_Pin_ClearInterrupt, .-Accel_Pin_ClearInterrupt
 253              		.text
 254              	.Letext0:
 255              		.file 2 "Generated_Source\\PSoC4\\cytypes.h"