ARM GAS  C:\Users\EDULU~1.DES\AppData\Local\Temp\cctBIIrR.s 			page 1


   1              		.cpu cortex-m0
   2              		.eabi_attribute 20, 1
   3              		.eabi_attribute 21, 1
   4              		.eabi_attribute 23, 3
   5              		.eabi_attribute 24, 1
   6              		.eabi_attribute 25, 1
   7              		.eabi_attribute 26, 1
   8              		.eabi_attribute 30, 1
   9              		.eabi_attribute 34, 0
  10              		.eabi_attribute 18, 4
  11              		.file	"ADC.c"
  12              		.text
  13              	.Ltext0:
  14              		.cfi_sections	.debug_frame
  15              		.section	.text.ADC_Init,"ax",%progbits
  16              		.align	1
  17              		.global	ADC_Init
  18              		.arch armv6s-m
  19              		.syntax unified
  20              		.code	16
  21              		.thumb_func
  22              		.fpu softvfp
  23              		.type	ADC_Init, %function
  24              	ADC_Init:
  25              	.LFB1:
  26              		.file 1 "Generated_Source\\PSoC4\\ADC.c"
   1:Generated_Source\PSoC4/ADC.c **** /*******************************************************************************
   2:Generated_Source\PSoC4/ADC.c **** * File Name: ADC.c
   3:Generated_Source\PSoC4/ADC.c **** * Version 2.50
   4:Generated_Source\PSoC4/ADC.c **** *
   5:Generated_Source\PSoC4/ADC.c **** * Description:
   6:Generated_Source\PSoC4/ADC.c **** *  This file provides the source code to the API for the Sequencing Successive
   7:Generated_Source\PSoC4/ADC.c **** *  Approximation ADC Component Component.
   8:Generated_Source\PSoC4/ADC.c **** *
   9:Generated_Source\PSoC4/ADC.c **** * Note:
  10:Generated_Source\PSoC4/ADC.c **** *
  11:Generated_Source\PSoC4/ADC.c **** ********************************************************************************
  12:Generated_Source\PSoC4/ADC.c **** * Copyright 2008-2017, Cypress Semiconductor Corporation.  All rights reserved.
  13:Generated_Source\PSoC4/ADC.c **** * You may use this file only in accordance with the license, terms, conditions,
  14:Generated_Source\PSoC4/ADC.c **** * disclaimers, and limitations in the end user license agreement accompanying
  15:Generated_Source\PSoC4/ADC.c **** * the software package with which this file was provided.
  16:Generated_Source\PSoC4/ADC.c **** *******************************************************************************/
  17:Generated_Source\PSoC4/ADC.c **** 
  18:Generated_Source\PSoC4/ADC.c **** #include "ADC.h"
  19:Generated_Source\PSoC4/ADC.c **** 
  20:Generated_Source\PSoC4/ADC.c **** 
  21:Generated_Source\PSoC4/ADC.c **** /***************************************
  22:Generated_Source\PSoC4/ADC.c **** * Global data allocation
  23:Generated_Source\PSoC4/ADC.c **** ***************************************/
  24:Generated_Source\PSoC4/ADC.c **** uint8 ADC_initVar = 0u;
  25:Generated_Source\PSoC4/ADC.c **** volatile int16 ADC_offset[ADC_TOTAL_CHANNELS_NUM];
  26:Generated_Source\PSoC4/ADC.c **** volatile int32 ADC_countsPer10Volt[ADC_TOTAL_CHANNELS_NUM];   /* Gain compensation */
  27:Generated_Source\PSoC4/ADC.c **** 
  28:Generated_Source\PSoC4/ADC.c **** 
  29:Generated_Source\PSoC4/ADC.c **** /***************************************
  30:Generated_Source\PSoC4/ADC.c **** * Local data allocation
  31:Generated_Source\PSoC4/ADC.c **** ***************************************/
ARM GAS  C:\Users\EDULU~1.DES\AppData\Local\Temp\cctBIIrR.s 			page 2


  32:Generated_Source\PSoC4/ADC.c **** /* Channels configuration generated by customiser */
  33:Generated_Source\PSoC4/ADC.c **** static const uint32 CYCODE ADC_channelsConfig[] = { 0x00000100u };
  34:Generated_Source\PSoC4/ADC.c **** 
  35:Generated_Source\PSoC4/ADC.c **** 
  36:Generated_Source\PSoC4/ADC.c **** /*******************************************************************************
  37:Generated_Source\PSoC4/ADC.c **** * Function Name: ADC_Start
  38:Generated_Source\PSoC4/ADC.c **** ********************************************************************************
  39:Generated_Source\PSoC4/ADC.c **** *
  40:Generated_Source\PSoC4/ADC.c **** * Summary:
  41:Generated_Source\PSoC4/ADC.c **** *  Performs all required initialization for this component
  42:Generated_Source\PSoC4/ADC.c **** *  and enables the power. The power will be set to the appropriate
  43:Generated_Source\PSoC4/ADC.c **** *  power based on the clock frequency.
  44:Generated_Source\PSoC4/ADC.c **** *
  45:Generated_Source\PSoC4/ADC.c **** * Parameters:
  46:Generated_Source\PSoC4/ADC.c **** *  None.
  47:Generated_Source\PSoC4/ADC.c **** *
  48:Generated_Source\PSoC4/ADC.c **** * Return:
  49:Generated_Source\PSoC4/ADC.c **** *  None.
  50:Generated_Source\PSoC4/ADC.c **** *
  51:Generated_Source\PSoC4/ADC.c **** * Global variables:
  52:Generated_Source\PSoC4/ADC.c **** *  The ADC_initVar variable is used to indicate when/if initial
  53:Generated_Source\PSoC4/ADC.c **** *  configuration of this component has happened. The variable is initialized to
  54:Generated_Source\PSoC4/ADC.c **** *  zero and set to 1 the first time ADC_Start() is called. This allows for
  55:Generated_Source\PSoC4/ADC.c **** *  component Re-Start without re-initialization in all subsequent calls to the
  56:Generated_Source\PSoC4/ADC.c **** *  ADC_Start() routine.
  57:Generated_Source\PSoC4/ADC.c **** *  If re-initialization of the component is required the variable should be set
  58:Generated_Source\PSoC4/ADC.c **** *  to zero before call of ADC_Start() routine, or the user may call
  59:Generated_Source\PSoC4/ADC.c **** *  ADC_Init() and ADC_Enable() as done in the
  60:Generated_Source\PSoC4/ADC.c **** *  ADC_Start() routine.
  61:Generated_Source\PSoC4/ADC.c **** *
  62:Generated_Source\PSoC4/ADC.c **** *******************************************************************************/
  63:Generated_Source\PSoC4/ADC.c **** void ADC_Start(void)
  64:Generated_Source\PSoC4/ADC.c **** {
  65:Generated_Source\PSoC4/ADC.c ****     /* If not Initialized then initialize all required hardware and software */
  66:Generated_Source\PSoC4/ADC.c ****     if(ADC_initVar == 0u)
  67:Generated_Source\PSoC4/ADC.c ****     {
  68:Generated_Source\PSoC4/ADC.c ****         ADC_Init();
  69:Generated_Source\PSoC4/ADC.c ****         ADC_initVar = 1u;
  70:Generated_Source\PSoC4/ADC.c ****     }
  71:Generated_Source\PSoC4/ADC.c ****     ADC_Enable();
  72:Generated_Source\PSoC4/ADC.c **** }
  73:Generated_Source\PSoC4/ADC.c **** 
  74:Generated_Source\PSoC4/ADC.c **** 
  75:Generated_Source\PSoC4/ADC.c **** /*******************************************************************************
  76:Generated_Source\PSoC4/ADC.c **** * Function Name: ADC_Init
  77:Generated_Source\PSoC4/ADC.c **** ********************************************************************************
  78:Generated_Source\PSoC4/ADC.c **** *
  79:Generated_Source\PSoC4/ADC.c **** * Summary:
  80:Generated_Source\PSoC4/ADC.c **** *  Initialize component's parameters to the parameters set by user in the
  81:Generated_Source\PSoC4/ADC.c **** *  customizer of the component placed onto schematic. Usually called in
  82:Generated_Source\PSoC4/ADC.c **** *  ADC_Start().
  83:Generated_Source\PSoC4/ADC.c **** *
  84:Generated_Source\PSoC4/ADC.c **** * Parameters:
  85:Generated_Source\PSoC4/ADC.c **** *  None.
  86:Generated_Source\PSoC4/ADC.c **** *
  87:Generated_Source\PSoC4/ADC.c **** * Return:
  88:Generated_Source\PSoC4/ADC.c **** *  None.
ARM GAS  C:\Users\EDULU~1.DES\AppData\Local\Temp\cctBIIrR.s 			page 3


  89:Generated_Source\PSoC4/ADC.c **** *
  90:Generated_Source\PSoC4/ADC.c **** * Global variables:
  91:Generated_Source\PSoC4/ADC.c **** *  The ADC_offset variable is initialized.
  92:Generated_Source\PSoC4/ADC.c **** *
  93:Generated_Source\PSoC4/ADC.c **** *******************************************************************************/
  94:Generated_Source\PSoC4/ADC.c **** void ADC_Init(void)
  95:Generated_Source\PSoC4/ADC.c **** {
  27              		.loc 1 95 1 view -0
  28              		.cfi_startproc
  29              		@ args = 0, pretend = 0, frame = 0
  30              		@ frame_needed = 0, uses_anonymous_args = 0
  31 0000 10B5     		push	{r4, lr}
  32              		.cfi_def_cfa_offset 8
  33              		.cfi_offset 4, -8
  34              		.cfi_offset 14, -4
  96:Generated_Source\PSoC4/ADC.c ****     uint32 chNum;
  35              		.loc 1 96 5 view .LVU1
  97:Generated_Source\PSoC4/ADC.c ****     uint32 tmpRegVal;
  36              		.loc 1 97 5 view .LVU2
  98:Generated_Source\PSoC4/ADC.c ****     int32 counts;
  37              		.loc 1 98 5 view .LVU3
  99:Generated_Source\PSoC4/ADC.c **** 
 100:Generated_Source\PSoC4/ADC.c ****     #if(ADC_TOTAL_CHANNELS_NUM > 1u)
 101:Generated_Source\PSoC4/ADC.c ****         static const uint8 CYCODE ADC_InputsPlacement[] =
 102:Generated_Source\PSoC4/ADC.c ****         {
 103:Generated_Source\PSoC4/ADC.c ****             (uint8)(ADC_cy_psoc4_sarmux_8__CH_0_PORT << 4u) |
 104:Generated_Source\PSoC4/ADC.c ****             (uint8)ADC_cy_psoc4_sarmux_8__CH_0_PIN
 105:Generated_Source\PSoC4/ADC.c ****             ,(uint8)(ADC_cy_psoc4_sarmux_8__CH_1_PORT << 4u) |
 106:Generated_Source\PSoC4/ADC.c ****              (uint8)ADC_cy_psoc4_sarmux_8__CH_1_PIN
 107:Generated_Source\PSoC4/ADC.c ****             #if(ADC_TOTAL_CHANNELS_NUM > 2u)
 108:Generated_Source\PSoC4/ADC.c ****                 ,(uint8)(ADC_cy_psoc4_sarmux_8__CH_2_PORT << 4u) |
 109:Generated_Source\PSoC4/ADC.c ****                  (uint8)ADC_cy_psoc4_sarmux_8__CH_2_PIN
 110:Generated_Source\PSoC4/ADC.c ****             #endif /* End ADC_TOTAL_CHANNELS_NUM > 2u */
 111:Generated_Source\PSoC4/ADC.c ****             #if(ADC_TOTAL_CHANNELS_NUM > 3u)
 112:Generated_Source\PSoC4/ADC.c ****                 ,(uint8)(ADC_cy_psoc4_sarmux_8__CH_3_PORT << 4u) |
 113:Generated_Source\PSoC4/ADC.c ****                  (uint8)ADC_cy_psoc4_sarmux_8__CH_3_PIN
 114:Generated_Source\PSoC4/ADC.c ****             #endif /* End ADC_TOTAL_CHANNELS_NUM > 3u */
 115:Generated_Source\PSoC4/ADC.c ****             #if(ADC_TOTAL_CHANNELS_NUM > 4u)
 116:Generated_Source\PSoC4/ADC.c ****                 ,(uint8)(ADC_cy_psoc4_sarmux_8__CH_4_PORT << 4u) |
 117:Generated_Source\PSoC4/ADC.c ****                  (uint8)ADC_cy_psoc4_sarmux_8__CH_4_PIN
 118:Generated_Source\PSoC4/ADC.c ****             #endif /* End ADC_TOTAL_CHANNELS_NUM > 4u */
 119:Generated_Source\PSoC4/ADC.c ****             #if(ADC_TOTAL_CHANNELS_NUM > 5u)
 120:Generated_Source\PSoC4/ADC.c ****                 ,(uint8)(ADC_cy_psoc4_sarmux_8__CH_5_PORT << 4u) |
 121:Generated_Source\PSoC4/ADC.c ****                  (uint8)ADC_cy_psoc4_sarmux_8__CH_5_PIN
 122:Generated_Source\PSoC4/ADC.c ****             #endif /* End ADC_TOTAL_CHANNELS_NUM > 5u */
 123:Generated_Source\PSoC4/ADC.c ****             #if(ADC_TOTAL_CHANNELS_NUM > 6u)
 124:Generated_Source\PSoC4/ADC.c ****                 ,(uint8)(ADC_cy_psoc4_sarmux_8__CH_6_PORT << 4u) |
 125:Generated_Source\PSoC4/ADC.c ****                  (uint8)ADC_cy_psoc4_sarmux_8__CH_6_PIN
 126:Generated_Source\PSoC4/ADC.c ****             #endif /* End ADC_TOTAL_CHANNELS_NUM > 6u */
 127:Generated_Source\PSoC4/ADC.c ****             #if(ADC_TOTAL_CHANNELS_NUM > 7u)
 128:Generated_Source\PSoC4/ADC.c ****                 ,(uint8)(ADC_cy_psoc4_sarmux_8__CH_7_PORT << 4u) |
 129:Generated_Source\PSoC4/ADC.c ****                  (uint8)ADC_cy_psoc4_sarmux_8__CH_7_PIN
 130:Generated_Source\PSoC4/ADC.c ****             #endif /* End ADC_TOTAL_CHANNELS_NUM > 7u */
 131:Generated_Source\PSoC4/ADC.c ****             #if(ADC_TOTAL_CHANNELS_NUM > 8u)
 132:Generated_Source\PSoC4/ADC.c ****                 ,(uint8)(ADC_cy_psoc4_sarmux_8__CH_8_PORT << 4u) |
 133:Generated_Source\PSoC4/ADC.c ****                  (uint8)ADC_cy_psoc4_sarmux_8__CH_8_PIN
 134:Generated_Source\PSoC4/ADC.c ****             #endif /* End ADC_TOTAL_CHANNELS_NUM > 8u */
ARM GAS  C:\Users\EDULU~1.DES\AppData\Local\Temp\cctBIIrR.s 			page 4


 135:Generated_Source\PSoC4/ADC.c ****             #if(ADC_TOTAL_CHANNELS_NUM > 9u)
 136:Generated_Source\PSoC4/ADC.c ****                 ,(uint8)(ADC_cy_psoc4_sarmux_8__CH_9_PORT << 4u) |
 137:Generated_Source\PSoC4/ADC.c ****                  (uint8)ADC_cy_psoc4_sarmux_8__CH_9_PIN
 138:Generated_Source\PSoC4/ADC.c ****             #endif /* End ADC_TOTAL_CHANNELS_NUM > 9u */
 139:Generated_Source\PSoC4/ADC.c ****             #if(ADC_TOTAL_CHANNELS_NUM > 10u)
 140:Generated_Source\PSoC4/ADC.c ****                 ,(uint8)(ADC_cy_psoc4_sarmux_8__CH_10_PORT << 4u) |
 141:Generated_Source\PSoC4/ADC.c ****                  (uint8)ADC_cy_psoc4_sarmux_8__CH_10_PIN
 142:Generated_Source\PSoC4/ADC.c ****             #endif /* End ADC_TOTAL_CHANNELS_NUM > 10u */
 143:Generated_Source\PSoC4/ADC.c ****             #if(ADC_TOTAL_CHANNELS_NUM > 11u)
 144:Generated_Source\PSoC4/ADC.c ****                 ,(uint8)(ADC_cy_psoc4_sarmux_8__CH_11_PORT << 4u) |
 145:Generated_Source\PSoC4/ADC.c ****                  (uint8)ADC_cy_psoc4_sarmux_8__CH_11_PIN
 146:Generated_Source\PSoC4/ADC.c ****             #endif /* End ADC_TOTAL_CHANNELS_NUM > 11u */
 147:Generated_Source\PSoC4/ADC.c ****             #if(ADC_TOTAL_CHANNELS_NUM > 12u)
 148:Generated_Source\PSoC4/ADC.c ****                 ,(uint8)(ADC_cy_psoc4_sarmux_8__CH_12_PORT << 4u) |
 149:Generated_Source\PSoC4/ADC.c ****                  (uint8)ADC_cy_psoc4_sarmux_8__CH_12_PIN
 150:Generated_Source\PSoC4/ADC.c ****             #endif /* End ADC_TOTAL_CHANNELS_NUM > 12u */
 151:Generated_Source\PSoC4/ADC.c ****             #if(ADC_TOTAL_CHANNELS_NUM > 13u)
 152:Generated_Source\PSoC4/ADC.c ****                 ,(uint8)(ADC_cy_psoc4_sarmux_8__CH_13_PORT << 4u) |
 153:Generated_Source\PSoC4/ADC.c ****                  (uint8)ADC_cy_psoc4_sarmux_8__CH_13_PIN
 154:Generated_Source\PSoC4/ADC.c ****             #endif /* End ADC_TOTAL_CHANNELS_NUM > 13u */
 155:Generated_Source\PSoC4/ADC.c ****             #if(ADC_TOTAL_CHANNELS_NUM > 14u)
 156:Generated_Source\PSoC4/ADC.c ****                 ,(uint8)(ADC_cy_psoc4_sarmux_8__CH_14_PORT << 4u) |
 157:Generated_Source\PSoC4/ADC.c ****                  (uint8)ADC_cy_psoc4_sarmux_8__CH_14_PIN
 158:Generated_Source\PSoC4/ADC.c ****             #endif /* End ADC_TOTAL_CHANNELS_NUM > 14u */
 159:Generated_Source\PSoC4/ADC.c ****             #if(ADC_TOTAL_CHANNELS_NUM > 15u)
 160:Generated_Source\PSoC4/ADC.c ****                 ,(uint8)(ADC_cy_psoc4_sarmux_8__CH_15_PORT << 4u) |
 161:Generated_Source\PSoC4/ADC.c ****                  (uint8)ADC_cy_psoc4_sarmux_8__CH_15_PIN
 162:Generated_Source\PSoC4/ADC.c ****             #endif /* End ADC_TOTAL_CHANNELS_NUM > 15u */
 163:Generated_Source\PSoC4/ADC.c ****             #if(ADC_TOTAL_CHANNELS_NUM > 16u)
 164:Generated_Source\PSoC4/ADC.c ****                 ,(uint8)(ADC_cy_psoc4_sarmux_8__CH_16_PORT << 4u) |
 165:Generated_Source\PSoC4/ADC.c ****                  (uint8)ADC_cy_psoc4_sarmux_8__CH_16_PIN
 166:Generated_Source\PSoC4/ADC.c ****             #endif /* End ADC_TOTAL_CHANNELS_NUM > 16u */
 167:Generated_Source\PSoC4/ADC.c ****         };
 168:Generated_Source\PSoC4/ADC.c ****     #endif /* End ADC_TOTAL_CHANNELS_NUM > 1u */
 169:Generated_Source\PSoC4/ADC.c **** 
 170:Generated_Source\PSoC4/ADC.c ****     #if(ADC_IRQ_REMOVE == 0u)
 171:Generated_Source\PSoC4/ADC.c ****         /* Start and set interrupt vector */
 172:Generated_Source\PSoC4/ADC.c ****         CyIntSetPriority(ADC_INTC_NUMBER, ADC_INTC_PRIOR_NUMBER);
  38              		.loc 1 172 9 view .LVU4
  39 0002 0321     		movs	r1, #3
  40 0004 0E20     		movs	r0, #14
  41 0006 FFF7FEFF 		bl	CyIntSetPriority
  42              	.LVL0:
 173:Generated_Source\PSoC4/ADC.c ****         (void)CyIntSetVector(ADC_INTC_NUMBER, &ADC_ISR);
  43              		.loc 1 173 9 view .LVU5
  44              		.loc 1 173 15 is_stmt 0 view .LVU6
  45 000a 2249     		ldr	r1, .L7
  46 000c 0E20     		movs	r0, #14
  47 000e FFF7FEFF 		bl	CyIntSetVector
  48              	.LVL1:
 174:Generated_Source\PSoC4/ADC.c ****     #endif   /* End ADC_IRQ_REMOVE */
 175:Generated_Source\PSoC4/ADC.c **** 
 176:Generated_Source\PSoC4/ADC.c ****     /* Init SAR and MUX registers */
 177:Generated_Source\PSoC4/ADC.c ****     ADC_SAR_CHAN_EN_REG = ADC_DEFAULT_EN_CHANNELS;
  49              		.loc 1 177 5 is_stmt 1 view .LVU7
  50              		.loc 1 177 25 is_stmt 0 view .LVU8
  51 0012 214B     		ldr	r3, .L7+4
ARM GAS  C:\Users\EDULU~1.DES\AppData\Local\Temp\cctBIIrR.s 			page 5


  52 0014 0122     		movs	r2, #1
  53 0016 1A60     		str	r2, [r3]
 178:Generated_Source\PSoC4/ADC.c ****     ADC_SAR_CTRL_REG |= ADC_DEFAULT_CTRL_REG_CFG | 
  54              		.loc 1 178 5 is_stmt 1 view .LVU9
 179:Generated_Source\PSoC4/ADC.c ****         /* Enable the SAR internal pump when global pump is enabled */
 180:Generated_Source\PSoC4/ADC.c ****         (((ADC_PUMP_CTRL_REG & ADC_PUMP_CTRL_ENABLED) != 0u) ? 
  55              		.loc 1 180 12 is_stmt 0 view .LVU10
  56 0018 204B     		ldr	r3, .L7+8
  57 001a 1B68     		ldr	r3, [r3]
 178:Generated_Source\PSoC4/ADC.c ****     ADC_SAR_CTRL_REG |= ADC_DEFAULT_CTRL_REG_CFG | 
  58              		.loc 1 178 50 view .LVU11
  59 001c 002B     		cmp	r3, #0
  60 001e 27DB     		blt	.L6
  61 0020 1F49     		ldr	r1, .L7+12
  62              	.L2:
 178:Generated_Source\PSoC4/ADC.c ****     ADC_SAR_CTRL_REG |= ADC_DEFAULT_CTRL_REG_CFG | 
  63              		.loc 1 178 22 discriminator 4 view .LVU12
  64 0022 204A     		ldr	r2, .L7+16
  65 0024 1368     		ldr	r3, [r2]
  66 0026 0B43     		orrs	r3, r1
  67 0028 1360     		str	r3, [r2]
 181:Generated_Source\PSoC4/ADC.c ****         ADC_BOOSTPUMP_EN : 0u);
 182:Generated_Source\PSoC4/ADC.c ****     ADC_SAR_SAMPLE_CTRL_REG = ADC_DEFAULT_SAMPLE_CTRL_REG_CFG;
  68              		.loc 1 182 5 is_stmt 1 discriminator 4 view .LVU13
  69              		.loc 1 182 29 is_stmt 0 discriminator 4 view .LVU14
  70 002a 1F4B     		ldr	r3, .L7+20
  71 002c 1F4A     		ldr	r2, .L7+24
  72 002e 1A60     		str	r2, [r3]
 183:Generated_Source\PSoC4/ADC.c ****     ADC_SAR_RANGE_THRES_REG = ADC_DEFAULT_RANGE_THRES_REG_CFG;
  73              		.loc 1 183 5 is_stmt 1 discriminator 4 view .LVU15
  74              		.loc 1 183 29 is_stmt 0 discriminator 4 view .LVU16
  75 0030 1F4B     		ldr	r3, .L7+28
  76 0032 204A     		ldr	r2, .L7+32
  77 0034 1A60     		str	r2, [r3]
 184:Generated_Source\PSoC4/ADC.c ****     ADC_SAR_RANGE_COND_REG  = ADC_COMPARE_MODE;
  78              		.loc 1 184 5 is_stmt 1 discriminator 4 view .LVU17
  79              		.loc 1 184 29 is_stmt 0 discriminator 4 view .LVU18
  80 0036 0023     		movs	r3, #0
  81 0038 1F4A     		ldr	r2, .L7+36
  82 003a 1360     		str	r3, [r2]
 185:Generated_Source\PSoC4/ADC.c ****     ADC_SAR_SAMPLE_TIME01_REG = ADC_DEFAULT_SAMPLE_TIME01_REG_CFG;
  83              		.loc 1 185 5 is_stmt 1 discriminator 4 view .LVU19
  84              		.loc 1 185 31 is_stmt 0 discriminator 4 view .LVU20
  85 003c 1F4A     		ldr	r2, .L7+40
  86 003e 2049     		ldr	r1, .L7+44
  87 0040 1160     		str	r1, [r2]
 186:Generated_Source\PSoC4/ADC.c ****     ADC_SAR_SAMPLE_TIME23_REG = ADC_DEFAULT_SAMPLE_TIME23_REG_CFG;
  88              		.loc 1 186 5 is_stmt 1 discriminator 4 view .LVU21
  89              		.loc 1 186 31 is_stmt 0 discriminator 4 view .LVU22
  90 0042 204A     		ldr	r2, .L7+48
  91 0044 2049     		ldr	r1, .L7+52
  92 0046 1160     		str	r1, [r2]
 187:Generated_Source\PSoC4/ADC.c ****     
 188:Generated_Source\PSoC4/ADC.c ****     /* Connect Vm to VSSA when even one channel is single-ended or multiple channels configured */
 189:Generated_Source\PSoC4/ADC.c ****     #if(ADC_DEFAULT_MUX_SWITCH0 != 0u)
 190:Generated_Source\PSoC4/ADC.c ****         ADC_MUX_SWITCH0_REG |= ADC_DEFAULT_MUX_SWITCH0;
 191:Generated_Source\PSoC4/ADC.c ****         /* Set MUX_HW_CTRL_VSSA in MUX_SWITCH_HW_CTRL when multiple channels enabled */
ARM GAS  C:\Users\EDULU~1.DES\AppData\Local\Temp\cctBIIrR.s 			page 6


 192:Generated_Source\PSoC4/ADC.c ****         #if(ADC_TOTAL_CHANNELS_NUM > 1u)
 193:Generated_Source\PSoC4/ADC.c ****             ADC_MUX_SWITCH_HW_CTRL_REG |= ADC_DEFAULT_MUX_SWITCH0;
 194:Generated_Source\PSoC4/ADC.c ****         #endif /* ADC_TOTAL_CHANNELS_NUM > 1u */
 195:Generated_Source\PSoC4/ADC.c ****     #endif /*ADC_CHANNELS_MODE !=0 */
 196:Generated_Source\PSoC4/ADC.c **** 
 197:Generated_Source\PSoC4/ADC.c ****     ADC_SAR_SATURATE_INTR_MASK_REG = 0u;
  93              		.loc 1 197 5 is_stmt 1 discriminator 4 view .LVU23
  94              		.loc 1 197 36 is_stmt 0 discriminator 4 view .LVU24
  95 0048 204A     		ldr	r2, .L7+56
  96 004a 1360     		str	r3, [r2]
 198:Generated_Source\PSoC4/ADC.c ****     ADC_SAR_RANGE_INTR_MASK_REG = 0u;
  97              		.loc 1 198 5 is_stmt 1 discriminator 4 view .LVU25
  98              		.loc 1 198 33 is_stmt 0 discriminator 4 view .LVU26
  99 004c 204A     		ldr	r2, .L7+60
 100 004e 1360     		str	r3, [r2]
 199:Generated_Source\PSoC4/ADC.c ****     ADC_SAR_INTR_MASK_REG = ADC_SAR_INTR_MASK;
 101              		.loc 1 199 5 is_stmt 1 discriminator 4 view .LVU27
 102              		.loc 1 199 27 is_stmt 0 discriminator 4 view .LVU28
 103 0050 0121     		movs	r1, #1
 104 0052 204B     		ldr	r3, .L7+64
 105 0054 1960     		str	r1, [r3]
 200:Generated_Source\PSoC4/ADC.c **** 
 201:Generated_Source\PSoC4/ADC.c ****     #if(ADC_CY_SAR_IP_VER == ADC_CY_SAR_IP_VER0)
 202:Generated_Source\PSoC4/ADC.c ****         ADC_ANA_TRIM_REG = ADC_TRIM_COEF;
 106              		.loc 1 202 9 is_stmt 1 discriminator 4 view .LVU29
 107              		.loc 1 202 26 is_stmt 0 discriminator 4 view .LVU30
 108 0056 204B     		ldr	r3, .L7+68
 109 0058 0222     		movs	r2, #2
 110 005a 1A60     		str	r2, [r3]
 203:Generated_Source\PSoC4/ADC.c ****     #endif /* (ADC_CY_SAR_IP_VER == ADC_CY_SAR_IP_VER0) */
 204:Generated_Source\PSoC4/ADC.c **** 
 205:Generated_Source\PSoC4/ADC.c ****     /* Read and modify default configuration based on characterization */
 206:Generated_Source\PSoC4/ADC.c ****     tmpRegVal = ADC_SAR_DFT_CTRL_REG;
 111              		.loc 1 206 5 is_stmt 1 discriminator 4 view .LVU31
 112              		.loc 1 206 15 is_stmt 0 discriminator 4 view .LVU32
 113 005c 1F4A     		ldr	r2, .L7+72
 114 005e 1368     		ldr	r3, [r2]
 115              	.LVL2:
 207:Generated_Source\PSoC4/ADC.c ****     tmpRegVal &= (uint32)~ADC_DCEN;
 116              		.loc 1 207 5 is_stmt 1 discriminator 4 view .LVU33
 117              		.loc 1 207 15 is_stmt 0 discriminator 4 view .LVU34
 118 0060 1F48     		ldr	r0, .L7+76
 119 0062 0340     		ands	r3, r0
 120              	.LVL3:
 208:Generated_Source\PSoC4/ADC.c ****     
 209:Generated_Source\PSoC4/ADC.c ****     #if(ADC_CY_SAR_IP_VER == ADC_CY_SAR_IP_VER0)
 210:Generated_Source\PSoC4/ADC.c ****         #if(ADC_NOMINAL_CLOCK_FREQ > (ADC_MAX_FREQUENCY / 2))
 211:Generated_Source\PSoC4/ADC.c ****             tmpRegVal |= ADC_SEL_CSEL_DFT_CHAR;
 212:Generated_Source\PSoC4/ADC.c ****         #else  /* clock speed < 9 Mhz */
 213:Generated_Source\PSoC4/ADC.c ****             tmpRegVal |= ADC_DLY_INC;
 121              		.loc 1 213 13 is_stmt 1 discriminator 4 view .LVU35
 122              		.loc 1 213 23 is_stmt 0 discriminator 4 view .LVU36
 123 0064 0B43     		orrs	r3, r1
 124              	.LVL4:
 214:Generated_Source\PSoC4/ADC.c ****         #endif /* clock speed > 9 Mhz */
 215:Generated_Source\PSoC4/ADC.c ****     #else
 216:Generated_Source\PSoC4/ADC.c ****         #if ((ADC_DEFAULT_VREF_SEL == ADC__INTERNAL1024) || \
ARM GAS  C:\Users\EDULU~1.DES\AppData\Local\Temp\cctBIIrR.s 			page 7


 217:Generated_Source\PSoC4/ADC.c ****              (ADC_DEFAULT_VREF_SEL == ADC__INTERNALVREF))
 218:Generated_Source\PSoC4/ADC.c ****             tmpRegVal |= ADC_DLY_INC;
 219:Generated_Source\PSoC4/ADC.c ****         #else
 220:Generated_Source\PSoC4/ADC.c ****             tmpRegVal |= ADC_DCEN;
 221:Generated_Source\PSoC4/ADC.c ****             tmpRegVal &= (uint32)~ADC_DLY_INC;
 222:Generated_Source\PSoC4/ADC.c ****         #endif /* ((ADC_DEFAULT_VREF_SEL == ADC__INTERNAL1024) || \
 223:Generated_Source\PSoC4/ADC.c ****                    (ADC_DEFAULT_VREF_SEL == ADC__INTERNALVREF)) */
 224:Generated_Source\PSoC4/ADC.c ****     #endif /* (ADC_CY_SAR_IP_VER == ADC_CY_SAR_IP_VER0) */
 225:Generated_Source\PSoC4/ADC.c ****     
 226:Generated_Source\PSoC4/ADC.c ****     ADC_SAR_DFT_CTRL_REG = tmpRegVal;
 125              		.loc 1 226 5 is_stmt 1 discriminator 4 view .LVU37
 126              		.loc 1 226 26 is_stmt 0 discriminator 4 view .LVU38
 127 0066 1360     		str	r3, [r2]
 227:Generated_Source\PSoC4/ADC.c **** 
 228:Generated_Source\PSoC4/ADC.c ****     #if(ADC_MAX_RESOLUTION != ADC_RESOLUTION_12)
 229:Generated_Source\PSoC4/ADC.c ****         ADC_WOUNDING_REG = ADC_ALT_WOUNDING;
 230:Generated_Source\PSoC4/ADC.c ****     #endif /* ADC_MAX_RESOLUTION != ADC_RESOLUTION_12 */
 231:Generated_Source\PSoC4/ADC.c **** 
 232:Generated_Source\PSoC4/ADC.c ****     for(chNum = 0u; chNum < ADC_TOTAL_CHANNELS_NUM; chNum++)
 128              		.loc 1 232 5 is_stmt 1 discriminator 4 view .LVU39
 129              	.LVL5:
 130              		.loc 1 232 15 is_stmt 0 discriminator 4 view .LVU40
 131 0068 0023     		movs	r3, #0
 132              	.LVL6:
 133              	.L3:
 134              		.loc 1 232 5 discriminator 1 view .LVU41
 135 006a 002B     		cmp	r3, #0
 136 006c 02D0     		beq	.L4
 233:Generated_Source\PSoC4/ADC.c ****     {
 234:Generated_Source\PSoC4/ADC.c ****         tmpRegVal = (ADC_channelsConfig[chNum] & ADC_CHANNEL_CONFIG_MASK);
 235:Generated_Source\PSoC4/ADC.c ****         #if(ADC_TOTAL_CHANNELS_NUM > 1u)
 236:Generated_Source\PSoC4/ADC.c ****             tmpRegVal |= ADC_InputsPlacement[chNum];
 237:Generated_Source\PSoC4/ADC.c ****         #endif /* End ADC_TOTAL_CHANNELS_NUM > 1u */
 238:Generated_Source\PSoC4/ADC.c ****         
 239:Generated_Source\PSoC4/ADC.c ****         
 240:Generated_Source\PSoC4/ADC.c ****         /* When the part is limited to 10-bit then the SUB_RESOLUTION bit
 241:Generated_Source\PSoC4/ADC.c ****         *  will be ignored and the RESOLUTION bit selects between 10-bit
 242:Generated_Source\PSoC4/ADC.c ****         *  (0) and 8-bit (1) resolution.
 243:Generated_Source\PSoC4/ADC.c ****         */
 244:Generated_Source\PSoC4/ADC.c ****         #if((ADC_MAX_RESOLUTION != ADC_RESOLUTION_12) && \
 245:Generated_Source\PSoC4/ADC.c ****             (ADC_ALT_WOUNDING == ADC_WOUNDING_10BIT))
 246:Generated_Source\PSoC4/ADC.c ****             tmpRegVal &= (uint32)(~ADC_ALT_RESOLUTION_ON);
 247:Generated_Source\PSoC4/ADC.c ****         #endif /* ADC_MAX_RESOLUTION != ADC_RESOLUTION_12 */
 248:Generated_Source\PSoC4/ADC.c **** 
 249:Generated_Source\PSoC4/ADC.c ****         #if(ADC_INJ_CHANNEL_ENABLED)
 250:Generated_Source\PSoC4/ADC.c ****         if(chNum < ADC_SEQUENCED_CHANNELS_NUM)
 251:Generated_Source\PSoC4/ADC.c ****         #endif /* ADC_INJ_CHANNEL_ENABLED */
 252:Generated_Source\PSoC4/ADC.c ****         {
 253:Generated_Source\PSoC4/ADC.c ****             CY_SET_REG32((reg32 *)(ADC_SAR_CHAN_CONFIG_IND + (uint32)(chNum << 2)), tmpRegVal);
 254:Generated_Source\PSoC4/ADC.c **** 
 255:Generated_Source\PSoC4/ADC.c ****             if((ADC_channelsConfig[chNum] & ADC_IS_SATURATE_EN_MASK) != 0u)
 256:Generated_Source\PSoC4/ADC.c ****             {
 257:Generated_Source\PSoC4/ADC.c ****                 ADC_SAR_SATURATE_INTR_MASK_REG |= (uint16)((uint16)1 << chNum);
 258:Generated_Source\PSoC4/ADC.c ****             }
 259:Generated_Source\PSoC4/ADC.c **** 
 260:Generated_Source\PSoC4/ADC.c ****             if((ADC_channelsConfig[chNum] & ADC_IS_RANGE_CTRL_EN_MASK) != 0u)
 261:Generated_Source\PSoC4/ADC.c ****             {
ARM GAS  C:\Users\EDULU~1.DES\AppData\Local\Temp\cctBIIrR.s 			page 8


 262:Generated_Source\PSoC4/ADC.c ****                 ADC_SAR_RANGE_INTR_MASK_REG |= (uint16)((uint16)1 << chNum);
 263:Generated_Source\PSoC4/ADC.c ****             }
 264:Generated_Source\PSoC4/ADC.c ****         }
 265:Generated_Source\PSoC4/ADC.c ****         #if(ADC_INJ_CHANNEL_ENABLED)
 266:Generated_Source\PSoC4/ADC.c ****             else
 267:Generated_Source\PSoC4/ADC.c ****             {
 268:Generated_Source\PSoC4/ADC.c ****                 CY_SET_REG32(ADC_SAR_INJ_CHAN_CONFIG_PTR, tmpRegVal | ADC_INJ_TAILGATING);
 269:Generated_Source\PSoC4/ADC.c **** 
 270:Generated_Source\PSoC4/ADC.c ****                 if((ADC_channelsConfig[chNum] & ADC_IS_SATURATE_EN_MASK) != 0u)
 271:Generated_Source\PSoC4/ADC.c ****                 {
 272:Generated_Source\PSoC4/ADC.c ****                     ADC_SAR_INTR_MASK_REG |= ADC_INJ_SATURATE_MASK;
 273:Generated_Source\PSoC4/ADC.c ****                 }
 274:Generated_Source\PSoC4/ADC.c **** 
 275:Generated_Source\PSoC4/ADC.c ****                 if((ADC_channelsConfig[chNum] & ADC_IS_RANGE_CTRL_EN_MASK) != 0u)
 276:Generated_Source\PSoC4/ADC.c ****                 {
 277:Generated_Source\PSoC4/ADC.c ****                     ADC_SAR_INTR_MASK_REG |= ADC_INJ_RANGE_MASK;
 278:Generated_Source\PSoC4/ADC.c ****                 }
 279:Generated_Source\PSoC4/ADC.c ****             }
 280:Generated_Source\PSoC4/ADC.c ****         #endif /* ADC_INJ_CHANNEL_ENABLED */
 281:Generated_Source\PSoC4/ADC.c **** 
 282:Generated_Source\PSoC4/ADC.c ****         if((ADC_channelsConfig[chNum] & ADC_ALT_RESOLUTION_ON) != 0u)
 283:Generated_Source\PSoC4/ADC.c ****         {
 284:Generated_Source\PSoC4/ADC.c ****                counts = (int32)ADC_DEFAULT_MAX_WRK_ALT;
 285:Generated_Source\PSoC4/ADC.c ****         }
 286:Generated_Source\PSoC4/ADC.c ****         else
 287:Generated_Source\PSoC4/ADC.c ****         {
 288:Generated_Source\PSoC4/ADC.c ****                counts = (int32)ADC_SAR_WRK_MAX_12BIT;
 289:Generated_Source\PSoC4/ADC.c ****         }
 290:Generated_Source\PSoC4/ADC.c **** 
 291:Generated_Source\PSoC4/ADC.c ****         if((ADC_channelsConfig[chNum] & ADC_DIFFERENTIAL_EN) == 0u)
 292:Generated_Source\PSoC4/ADC.c ****         {
 293:Generated_Source\PSoC4/ADC.c ****             #if((ADC_DEFAULT_SE_RESULT_FORMAT_SEL == ADC__FSIGNED) && \
 294:Generated_Source\PSoC4/ADC.c ****                 (ADC_DEFAULT_NEG_INPUT_SEL == ADC__VREF))
 295:Generated_Source\PSoC4/ADC.c ****                 /* Set offset to the minus half scale to convert results to unsigned format */
 296:Generated_Source\PSoC4/ADC.c ****                 ADC_offset[chNum] = (int16)(counts / -2);
 297:Generated_Source\PSoC4/ADC.c ****             #else
 298:Generated_Source\PSoC4/ADC.c ****                 ADC_offset[chNum] = 0;
 299:Generated_Source\PSoC4/ADC.c ****             #endif /* end DEFAULT_SE_RESULT_FORMAT_SEL == ADC__FSIGNED */
 300:Generated_Source\PSoC4/ADC.c ****         }
 301:Generated_Source\PSoC4/ADC.c ****         else    /* Differential channel */
 302:Generated_Source\PSoC4/ADC.c ****         {
 303:Generated_Source\PSoC4/ADC.c ****             #if(ADC_DEFAULT_DIFF_RESULT_FORMAT_SEL == ADC__FUNSIGNED)
 304:Generated_Source\PSoC4/ADC.c ****                 /* Set offset to the half scale to convert results to signed format */
 305:Generated_Source\PSoC4/ADC.c ****                 ADC_offset[chNum] = (int16)(counts / 2);
 306:Generated_Source\PSoC4/ADC.c ****             #else
 307:Generated_Source\PSoC4/ADC.c ****                 ADC_offset[chNum] = 0;
 308:Generated_Source\PSoC4/ADC.c ****             #endif /* end ADC_DEFAULT_DIFF_RESULT_FORMAT_SEL == ADC__FUNSIGNED */
 309:Generated_Source\PSoC4/ADC.c ****         }
 310:Generated_Source\PSoC4/ADC.c ****         /* Calculate gain in counts per 10 volts with rounding */
 311:Generated_Source\PSoC4/ADC.c ****         ADC_countsPer10Volt[chNum] = (int16)(((counts * ADC_10MV_COUNTS) +
 312:Generated_Source\PSoC4/ADC.c ****                             ADC_DEFAULT_VREF_MV_VALUE) / (ADC_DEFAULT_VREF_MV_VALUE * 2));
 313:Generated_Source\PSoC4/ADC.c ****     }
 314:Generated_Source\PSoC4/ADC.c **** }
 137              		.loc 1 314 1 view .LVU42
 138              		@ sp needed
 139 006e 10BD     		pop	{r4, pc}
 140              	.LVL7:
ARM GAS  C:\Users\EDULU~1.DES\AppData\Local\Temp\cctBIIrR.s 			page 9


 141              	.L6:
 178:Generated_Source\PSoC4/ADC.c ****         /* Enable the SAR internal pump when global pump is enabled */
 142              		.loc 1 178 50 view .LVU43
 143 0070 1C49     		ldr	r1, .L7+80
 144 0072 D6E7     		b	.L2
 145              	.LVL8:
 146              	.L4:
 234:Generated_Source\PSoC4/ADC.c ****         #if(ADC_TOTAL_CHANNELS_NUM > 1u)
 147              		.loc 1 234 9 is_stmt 1 view .LVU44
 253:Generated_Source\PSoC4/ADC.c **** 
 148              		.loc 1 253 13 view .LVU45
 149 0074 9A00     		lsls	r2, r3, #2
 150 0076 1C49     		ldr	r1, .L7+84
 151 0078 5118     		adds	r1, r2, r1
 152 007a 8020     		movs	r0, #128
 153 007c 4000     		lsls	r0, r0, #1
 154 007e 0860     		str	r0, [r1]
 255:Generated_Source\PSoC4/ADC.c ****             {
 155              		.loc 1 255 13 view .LVU46
 260:Generated_Source\PSoC4/ADC.c ****             {
 156              		.loc 1 260 13 view .LVU47
 282:Generated_Source\PSoC4/ADC.c ****         {
 157              		.loc 1 282 9 view .LVU48
 288:Generated_Source\PSoC4/ADC.c ****         }
 158              		.loc 1 288 16 view .LVU49
 159              	.LVL9:
 291:Generated_Source\PSoC4/ADC.c ****         {
 160              		.loc 1 291 9 view .LVU50
 307:Generated_Source\PSoC4/ADC.c ****             #endif /* end ADC_DEFAULT_DIFF_RESULT_FORMAT_SEL == ADC__FUNSIGNED */
 161              		.loc 1 307 17 view .LVU51
 307:Generated_Source\PSoC4/ADC.c ****             #endif /* end ADC_DEFAULT_DIFF_RESULT_FORMAT_SEL == ADC__FUNSIGNED */
 162              		.loc 1 307 35 is_stmt 0 view .LVU52
 163 0080 5800     		lsls	r0, r3, #1
 164 0082 1A49     		ldr	r1, .L7+88
 165 0084 0024     		movs	r4, #0
 166 0086 4452     		strh	r4, [r0, r1]
 311:Generated_Source\PSoC4/ADC.c ****                             ADC_DEFAULT_VREF_MV_VALUE) / (ADC_DEFAULT_VREF_MV_VALUE * 2));
 167              		.loc 1 311 9 is_stmt 1 view .LVU53
 311:Generated_Source\PSoC4/ADC.c ****                             ADC_DEFAULT_VREF_MV_VALUE) / (ADC_DEFAULT_VREF_MV_VALUE * 2));
 168              		.loc 1 311 36 is_stmt 0 view .LVU54
 169 0088 1949     		ldr	r1, .L7+92
 170 008a 1A48     		ldr	r0, .L7+96
 171 008c 5050     		str	r0, [r2, r1]
 232:Generated_Source\PSoC4/ADC.c ****     {
 172              		.loc 1 232 58 view .LVU55
 173 008e 0133     		adds	r3, r3, #1
 174              	.LVL10:
 232:Generated_Source\PSoC4/ADC.c ****     {
 175              		.loc 1 232 58 view .LVU56
 176 0090 EBE7     		b	.L3
 177              	.L8:
 178 0092 C046     		.align	2
 179              	.L7:
 180 0094 00000000 		.word	ADC_ISR
 181 0098 20001A40 		.word	1075445792
 182 009c 80031A40 		.word	1075446656
 183 00a0 40020053 		.word	1392509504
ARM GAS  C:\Users\EDULU~1.DES\AppData\Local\Temp\cctBIIrR.s 			page 10


 184 00a4 00001A40 		.word	1075445760
 185 00a8 04001A40 		.word	1075445764
 186 00ac 8C000080 		.word	-2147483508
 187 00b0 18001A40 		.word	1075445784
 188 00b4 0000FF07 		.word	134152192
 189 00b8 1C001A40 		.word	1075445788
 190 00bc 10001A40 		.word	1075445776
 191 00c0 F4010200 		.word	131572
 192 00c4 14001A40 		.word	1075445780
 193 00c8 02000200 		.word	131074
 194 00cc 28021A40 		.word	1075446312
 195 00d0 38021A40 		.word	1075446328
 196 00d4 18021A40 		.word	1075446296
 197 00d8 000F1A40 		.word	1075449600
 198 00dc 30001A40 		.word	1075445808
 199 00e0 FFFFFFDF 		.word	-536870913
 200 00e4 40021053 		.word	1393558080
 201 00e8 80001A40 		.word	1075445888
 202 00ec 00000000 		.word	ADC_offset
 203 00f0 00000000 		.word	ADC_countsPer10Volt
 204 00f4 204E0000 		.word	20000
 205              		.cfi_endproc
 206              	.LFE1:
 207              		.size	ADC_Init, .-ADC_Init
 208              		.section	.text.ADC_Enable,"ax",%progbits
 209              		.align	1
 210              		.global	ADC_Enable
 211              		.syntax unified
 212              		.code	16
 213              		.thumb_func
 214              		.fpu softvfp
 215              		.type	ADC_Enable, %function
 216              	ADC_Enable:
 217              	.LFB2:
 315:Generated_Source\PSoC4/ADC.c **** 
 316:Generated_Source\PSoC4/ADC.c **** /*******************************************************************************
 317:Generated_Source\PSoC4/ADC.c **** * Function Name: ADC_SAR_1_Enable
 318:Generated_Source\PSoC4/ADC.c **** ********************************************************************************
 319:Generated_Source\PSoC4/ADC.c **** *
 320:Generated_Source\PSoC4/ADC.c **** * Summary:
 321:Generated_Source\PSoC4/ADC.c **** *  Enables the clock and analog power for SAR ADC.
 322:Generated_Source\PSoC4/ADC.c **** *
 323:Generated_Source\PSoC4/ADC.c **** * Parameters:
 324:Generated_Source\PSoC4/ADC.c **** *  None.
 325:Generated_Source\PSoC4/ADC.c **** *
 326:Generated_Source\PSoC4/ADC.c **** * Return:
 327:Generated_Source\PSoC4/ADC.c **** *  None.
 328:Generated_Source\PSoC4/ADC.c **** *
 329:Generated_Source\PSoC4/ADC.c **** *******************************************************************************/
 330:Generated_Source\PSoC4/ADC.c **** void ADC_Enable(void)
 331:Generated_Source\PSoC4/ADC.c **** {
 218              		.loc 1 331 1 is_stmt 1 view -0
 219              		.cfi_startproc
 220              		@ args = 0, pretend = 0, frame = 0
 221              		@ frame_needed = 0, uses_anonymous_args = 0
 222 0000 10B5     		push	{r4, lr}
 223              		.cfi_def_cfa_offset 8
ARM GAS  C:\Users\EDULU~1.DES\AppData\Local\Temp\cctBIIrR.s 			page 11


 224              		.cfi_offset 4, -8
 225              		.cfi_offset 14, -4
 332:Generated_Source\PSoC4/ADC.c ****     if (0u == (ADC_SAR_CTRL_REG & ADC_ENABLE))
 226              		.loc 1 332 5 view .LVU58
 227              		.loc 1 332 16 is_stmt 0 view .LVU59
 228 0002 074B     		ldr	r3, .L12
 229 0004 1B68     		ldr	r3, [r3]
 230              		.loc 1 332 8 view .LVU60
 231 0006 002B     		cmp	r3, #0
 232 0008 00DA     		bge	.L11
 233              	.L9:
 333:Generated_Source\PSoC4/ADC.c ****     {
 334:Generated_Source\PSoC4/ADC.c ****         #if(ADC_CY_SAR_IP_VER != ADC_CY_SAR_IP_VER0)
 335:Generated_Source\PSoC4/ADC.c **** 
 336:Generated_Source\PSoC4/ADC.c ****             while (0u != (ADC_SAR_STATUS_REG & ADC_STATUS_BUSY))
 337:Generated_Source\PSoC4/ADC.c ****             {
 338:Generated_Source\PSoC4/ADC.c ****                 /* wait for SAR to go idle to avoid deadlock */
 339:Generated_Source\PSoC4/ADC.c ****             }
 340:Generated_Source\PSoC4/ADC.c ****         #endif /* (ADC_CY_SAR_IP_VER != ADC_CY_SAR_IP_VER0) */
 341:Generated_Source\PSoC4/ADC.c ****         
 342:Generated_Source\PSoC4/ADC.c ****         ADC_SAR_CTRL_REG |= ADC_ENABLE;
 343:Generated_Source\PSoC4/ADC.c ****         
 344:Generated_Source\PSoC4/ADC.c ****         /* The block is ready to use 10 us after the enable signal is set high. */
 345:Generated_Source\PSoC4/ADC.c ****         CyDelayUs(ADC_10US_DELAY);         
 346:Generated_Source\PSoC4/ADC.c ****     }
 347:Generated_Source\PSoC4/ADC.c **** }
 234              		.loc 1 347 1 view .LVU61
 235              		@ sp needed
 236 000a 10BD     		pop	{r4, pc}
 237              	.L11:
 342:Generated_Source\PSoC4/ADC.c ****         
 238              		.loc 1 342 9 is_stmt 1 view .LVU62
 342:Generated_Source\PSoC4/ADC.c ****         
 239              		.loc 1 342 26 is_stmt 0 view .LVU63
 240 000c 044A     		ldr	r2, .L12
 241 000e 1168     		ldr	r1, [r2]
 242 0010 8023     		movs	r3, #128
 243 0012 1B06     		lsls	r3, r3, #24
 244 0014 0B43     		orrs	r3, r1
 245 0016 1360     		str	r3, [r2]
 345:Generated_Source\PSoC4/ADC.c ****     }
 246              		.loc 1 345 9 is_stmt 1 view .LVU64
 247 0018 0A20     		movs	r0, #10
 248 001a FFF7FEFF 		bl	CyDelayUs
 249              	.LVL11:
 250              		.loc 1 347 1 is_stmt 0 view .LVU65
 251 001e F4E7     		b	.L9
 252              	.L13:
 253              		.align	2
 254              	.L12:
 255 0020 00001A40 		.word	1075445760
 256              		.cfi_endproc
 257              	.LFE2:
 258              		.size	ADC_Enable, .-ADC_Enable
 259              		.section	.text.ADC_Start,"ax",%progbits
 260              		.align	1
 261              		.global	ADC_Start
ARM GAS  C:\Users\EDULU~1.DES\AppData\Local\Temp\cctBIIrR.s 			page 12


 262              		.syntax unified
 263              		.code	16
 264              		.thumb_func
 265              		.fpu softvfp
 266              		.type	ADC_Start, %function
 267              	ADC_Start:
 268              	.LFB0:
  64:Generated_Source\PSoC4/ADC.c ****     /* If not Initialized then initialize all required hardware and software */
 269              		.loc 1 64 1 is_stmt 1 view -0
 270              		.cfi_startproc
 271              		@ args = 0, pretend = 0, frame = 0
 272              		@ frame_needed = 0, uses_anonymous_args = 0
 273 0000 10B5     		push	{r4, lr}
 274              		.cfi_def_cfa_offset 8
 275              		.cfi_offset 4, -8
 276              		.cfi_offset 14, -4
  66:Generated_Source\PSoC4/ADC.c ****     {
 277              		.loc 1 66 5 view .LVU67
  66:Generated_Source\PSoC4/ADC.c ****     {
 278              		.loc 1 66 20 is_stmt 0 view .LVU68
 279 0002 064B     		ldr	r3, .L17
 280 0004 1B78     		ldrb	r3, [r3]
  66:Generated_Source\PSoC4/ADC.c ****     {
 281              		.loc 1 66 7 view .LVU69
 282 0006 002B     		cmp	r3, #0
 283 0008 02D0     		beq	.L16
 284              	.L15:
  71:Generated_Source\PSoC4/ADC.c **** }
 285              		.loc 1 71 5 is_stmt 1 view .LVU70
 286 000a FFF7FEFF 		bl	ADC_Enable
 287              	.LVL12:
  72:Generated_Source\PSoC4/ADC.c **** 
 288              		.loc 1 72 1 is_stmt 0 view .LVU71
 289              		@ sp needed
 290 000e 10BD     		pop	{r4, pc}
 291              	.L16:
  68:Generated_Source\PSoC4/ADC.c ****         ADC_initVar = 1u;
 292              		.loc 1 68 9 is_stmt 1 view .LVU72
 293 0010 FFF7FEFF 		bl	ADC_Init
 294              	.LVL13:
  69:Generated_Source\PSoC4/ADC.c ****     }
 295              		.loc 1 69 9 view .LVU73
  69:Generated_Source\PSoC4/ADC.c ****     }
 296              		.loc 1 69 21 is_stmt 0 view .LVU74
 297 0014 014B     		ldr	r3, .L17
 298 0016 0122     		movs	r2, #1
 299 0018 1A70     		strb	r2, [r3]
 300 001a F6E7     		b	.L15
 301              	.L18:
 302              		.align	2
 303              	.L17:
 304 001c 00000000 		.word	.LANCHOR0
 305              		.cfi_endproc
 306              	.LFE0:
 307              		.size	ADC_Start, .-ADC_Start
 308              		.section	.text.ADC_Stop,"ax",%progbits
 309              		.align	1
ARM GAS  C:\Users\EDULU~1.DES\AppData\Local\Temp\cctBIIrR.s 			page 13


 310              		.global	ADC_Stop
 311              		.syntax unified
 312              		.code	16
 313              		.thumb_func
 314              		.fpu softvfp
 315              		.type	ADC_Stop, %function
 316              	ADC_Stop:
 317              	.LFB3:
 348:Generated_Source\PSoC4/ADC.c **** 
 349:Generated_Source\PSoC4/ADC.c **** 
 350:Generated_Source\PSoC4/ADC.c **** /*******************************************************************************
 351:Generated_Source\PSoC4/ADC.c **** * Function Name: ADC_Stop
 352:Generated_Source\PSoC4/ADC.c **** ********************************************************************************
 353:Generated_Source\PSoC4/ADC.c **** *
 354:Generated_Source\PSoC4/ADC.c **** * Summary:
 355:Generated_Source\PSoC4/ADC.c **** *  This function stops ADC conversions and puts the ADC into its lowest power
 356:Generated_Source\PSoC4/ADC.c **** *  mode.
 357:Generated_Source\PSoC4/ADC.c **** *
 358:Generated_Source\PSoC4/ADC.c **** * Parameters:
 359:Generated_Source\PSoC4/ADC.c **** *  None.
 360:Generated_Source\PSoC4/ADC.c **** *
 361:Generated_Source\PSoC4/ADC.c **** * Return:
 362:Generated_Source\PSoC4/ADC.c **** *  None.
 363:Generated_Source\PSoC4/ADC.c **** *
 364:Generated_Source\PSoC4/ADC.c **** *******************************************************************************/
 365:Generated_Source\PSoC4/ADC.c **** void ADC_Stop(void)
 366:Generated_Source\PSoC4/ADC.c **** {
 318              		.loc 1 366 1 is_stmt 1 view -0
 319              		.cfi_startproc
 320              		@ args = 0, pretend = 0, frame = 0
 321              		@ frame_needed = 0, uses_anonymous_args = 0
 322              		@ link register save eliminated.
 367:Generated_Source\PSoC4/ADC.c ****     ADC_SAR_CTRL_REG &= (uint32)~ADC_ENABLE;
 323              		.loc 1 367 5 view .LVU76
 324              		.loc 1 367 22 is_stmt 0 view .LVU77
 325 0000 024A     		ldr	r2, .L20
 326 0002 1368     		ldr	r3, [r2]
 327 0004 5B00     		lsls	r3, r3, #1
 328 0006 5B08     		lsrs	r3, r3, #1
 329 0008 1360     		str	r3, [r2]
 368:Generated_Source\PSoC4/ADC.c **** }
 330              		.loc 1 368 1 view .LVU78
 331              		@ sp needed
 332 000a 7047     		bx	lr
 333              	.L21:
 334              		.align	2
 335              	.L20:
 336 000c 00001A40 		.word	1075445760
 337              		.cfi_endproc
 338              	.LFE3:
 339              		.size	ADC_Stop, .-ADC_Stop
 340              		.section	.text.ADC_StartConvert,"ax",%progbits
 341              		.align	1
 342              		.global	ADC_StartConvert
 343              		.syntax unified
 344              		.code	16
 345              		.thumb_func
ARM GAS  C:\Users\EDULU~1.DES\AppData\Local\Temp\cctBIIrR.s 			page 14


 346              		.fpu softvfp
 347              		.type	ADC_StartConvert, %function
 348              	ADC_StartConvert:
 349              	.LFB4:
 369:Generated_Source\PSoC4/ADC.c **** 
 370:Generated_Source\PSoC4/ADC.c **** 
 371:Generated_Source\PSoC4/ADC.c **** /*******************************************************************************
 372:Generated_Source\PSoC4/ADC.c **** * Function Name: ADC_StartConvert
 373:Generated_Source\PSoC4/ADC.c **** ********************************************************************************
 374:Generated_Source\PSoC4/ADC.c **** *
 375:Generated_Source\PSoC4/ADC.c **** * Summary:
 376:Generated_Source\PSoC4/ADC.c **** *  Description:
 377:Generated_Source\PSoC4/ADC.c **** *  For free running mode, this API starts the conversion process and it
 378:Generated_Source\PSoC4/ADC.c **** *  runs continuously.
 379:Generated_Source\PSoC4/ADC.c **** *
 380:Generated_Source\PSoC4/ADC.c **** *  In a triggered mode, this routine triggers every conversion by
 381:Generated_Source\PSoC4/ADC.c **** *  writing into the FW_TRIGGER bit in SAR_START_CTRL reg. In triggered mode,
 382:Generated_Source\PSoC4/ADC.c **** *  every conversion has to start by this API.
 383:Generated_Source\PSoC4/ADC.c **** *
 384:Generated_Source\PSoC4/ADC.c **** * Parameters:
 385:Generated_Source\PSoC4/ADC.c **** *  None.
 386:Generated_Source\PSoC4/ADC.c **** *
 387:Generated_Source\PSoC4/ADC.c **** * Return:
 388:Generated_Source\PSoC4/ADC.c **** *  None.
 389:Generated_Source\PSoC4/ADC.c **** *
 390:Generated_Source\PSoC4/ADC.c **** *******************************************************************************/
 391:Generated_Source\PSoC4/ADC.c **** void ADC_StartConvert(void)
 392:Generated_Source\PSoC4/ADC.c **** {
 350              		.loc 1 392 1 is_stmt 1 view -0
 351              		.cfi_startproc
 352              		@ args = 0, pretend = 0, frame = 0
 353              		@ frame_needed = 0, uses_anonymous_args = 0
 354              		@ link register save eliminated.
 393:Generated_Source\PSoC4/ADC.c ****     #if(ADC_DEFAULT_SAMPLE_MODE_SEL == ADC__FREERUNNING)
 394:Generated_Source\PSoC4/ADC.c ****         ADC_SAR_SAMPLE_CTRL_REG |= ADC_CONTINUOUS_EN;
 355              		.loc 1 394 9 view .LVU80
 356              		.loc 1 394 33 is_stmt 0 view .LVU81
 357 0000 034A     		ldr	r2, .L23
 358 0002 1168     		ldr	r1, [r2]
 359 0004 8023     		movs	r3, #128
 360 0006 5B02     		lsls	r3, r3, #9
 361 0008 0B43     		orrs	r3, r1
 362 000a 1360     		str	r3, [r2]
 395:Generated_Source\PSoC4/ADC.c ****     #else /* Firmware trigger */
 396:Generated_Source\PSoC4/ADC.c ****         ADC_SAR_START_CTRL_REG = ADC_FW_TRIGGER;
 397:Generated_Source\PSoC4/ADC.c ****     #endif /* End ADC_DEFAULT_SAMPLE_MODE == ADC__FREERUNNING */
 398:Generated_Source\PSoC4/ADC.c **** 
 399:Generated_Source\PSoC4/ADC.c **** }
 363              		.loc 1 399 1 view .LVU82
 364              		@ sp needed
 365 000c 7047     		bx	lr
 366              	.L24:
 367 000e C046     		.align	2
 368              	.L23:
 369 0010 04001A40 		.word	1075445764
 370              		.cfi_endproc
 371              	.LFE4:
ARM GAS  C:\Users\EDULU~1.DES\AppData\Local\Temp\cctBIIrR.s 			page 15


 372              		.size	ADC_StartConvert, .-ADC_StartConvert
 373              		.section	.text.ADC_StopConvert,"ax",%progbits
 374              		.align	1
 375              		.global	ADC_StopConvert
 376              		.syntax unified
 377              		.code	16
 378              		.thumb_func
 379              		.fpu softvfp
 380              		.type	ADC_StopConvert, %function
 381              	ADC_StopConvert:
 382              	.LFB5:
 400:Generated_Source\PSoC4/ADC.c **** 
 401:Generated_Source\PSoC4/ADC.c **** 
 402:Generated_Source\PSoC4/ADC.c **** /*******************************************************************************
 403:Generated_Source\PSoC4/ADC.c **** * Function Name: ADC_StopConvert
 404:Generated_Source\PSoC4/ADC.c **** ********************************************************************************
 405:Generated_Source\PSoC4/ADC.c **** *
 406:Generated_Source\PSoC4/ADC.c **** * Summary:
 407:Generated_Source\PSoC4/ADC.c **** *  Forces the ADC to stop all conversions.
 408:Generated_Source\PSoC4/ADC.c **** *
 409:Generated_Source\PSoC4/ADC.c **** * Parameters:
 410:Generated_Source\PSoC4/ADC.c **** *  None.
 411:Generated_Source\PSoC4/ADC.c **** *
 412:Generated_Source\PSoC4/ADC.c **** * Return:
 413:Generated_Source\PSoC4/ADC.c **** *  None.
 414:Generated_Source\PSoC4/ADC.c **** *
 415:Generated_Source\PSoC4/ADC.c **** *******************************************************************************/
 416:Generated_Source\PSoC4/ADC.c **** void ADC_StopConvert(void)
 417:Generated_Source\PSoC4/ADC.c **** {
 383              		.loc 1 417 1 is_stmt 1 view -0
 384              		.cfi_startproc
 385              		@ args = 0, pretend = 0, frame = 0
 386              		@ frame_needed = 0, uses_anonymous_args = 0
 387              		@ link register save eliminated.
 418:Generated_Source\PSoC4/ADC.c ****     #if(ADC_DEFAULT_SAMPLE_MODE_SEL == ADC__FREERUNNING)
 419:Generated_Source\PSoC4/ADC.c ****         ADC_SAR_SAMPLE_CTRL_REG &= (uint32)(~ADC_CONTINUOUS_EN);
 388              		.loc 1 419 9 view .LVU84
 389              		.loc 1 419 33 is_stmt 0 view .LVU85
 390 0000 024A     		ldr	r2, .L26
 391 0002 1368     		ldr	r3, [r2]
 392 0004 0249     		ldr	r1, .L26+4
 393 0006 0B40     		ands	r3, r1
 394 0008 1360     		str	r3, [r2]
 420:Generated_Source\PSoC4/ADC.c ****     #endif /* ADC_DEFAULT_SAMPLE_MODE == ADC__FREERUNNING */
 421:Generated_Source\PSoC4/ADC.c **** }
 395              		.loc 1 421 1 view .LVU86
 396              		@ sp needed
 397 000a 7047     		bx	lr
 398              	.L27:
 399              		.align	2
 400              	.L26:
 401 000c 04001A40 		.word	1075445764
 402 0010 FFFFFEFF 		.word	-65537
 403              		.cfi_endproc
 404              	.LFE5:
 405              		.size	ADC_StopConvert, .-ADC_StopConvert
 406              		.section	.text.ADC_IsEndConversion,"ax",%progbits
ARM GAS  C:\Users\EDULU~1.DES\AppData\Local\Temp\cctBIIrR.s 			page 16


 407              		.align	1
 408              		.global	ADC_IsEndConversion
 409              		.syntax unified
 410              		.code	16
 411              		.thumb_func
 412              		.fpu softvfp
 413              		.type	ADC_IsEndConversion, %function
 414              	ADC_IsEndConversion:
 415              	.LVL14:
 416              	.LFB6:
 422:Generated_Source\PSoC4/ADC.c **** 
 423:Generated_Source\PSoC4/ADC.c **** 
 424:Generated_Source\PSoC4/ADC.c **** /*******************************************************************************
 425:Generated_Source\PSoC4/ADC.c **** * Function Name: ADC_IsEndConversion
 426:Generated_Source\PSoC4/ADC.c **** ********************************************************************************
 427:Generated_Source\PSoC4/ADC.c **** *
 428:Generated_Source\PSoC4/ADC.c **** * Summary:
 429:Generated_Source\PSoC4/ADC.c **** *  Description: Checks for ADC end of conversion for the case one
 430:Generated_Source\PSoC4/ADC.c **** *  channel and end of scan for the case of multiple channels. It acts
 431:Generated_Source\PSoC4/ADC.c **** *  as a software version of the EOC. This function provides the
 432:Generated_Source\PSoC4/ADC.c **** *  programmer with two options. In one mode this function
 433:Generated_Source\PSoC4/ADC.c **** *  immediately returns with the conversion status. In the other mode,
 434:Generated_Source\PSoC4/ADC.c **** *  the function does not return (blocking) until the conversion has
 435:Generated_Source\PSoC4/ADC.c **** *  completed.
 436:Generated_Source\PSoC4/ADC.c **** *
 437:Generated_Source\PSoC4/ADC.c **** * Parameters:
 438:Generated_Source\PSoC4/ADC.c **** *  ADC_RETURN_STATUS        -> Immediately returns conversion result status
 439:Generated_Source\PSoC4/ADC.c **** *  ADC_WAIT_FOR_RESULT      -> Does not return until ADC complete
 440:Generated_Source\PSoC4/ADC.c **** *  ADC_RETURN_STATUS_INJ    -> Immediately returns conversion result status
 441:Generated_Source\PSoC4/ADC.c **** *                              for injection channel
 442:Generated_Source\PSoC4/ADC.c **** *  ADC_WAIT_FOR_RESULT_INJ  -> Does not return until ADC completes injection
 443:Generated_Source\PSoC4/ADC.c **** *                              channel conversion
 444:Generated_Source\PSoC4/ADC.c **** *
 445:Generated_Source\PSoC4/ADC.c **** * Return:
 446:Generated_Source\PSoC4/ADC.c **** *  If a non-zero value is returned, the last conversion or scan has completed.
 447:Generated_Source\PSoC4/ADC.c **** *  If the returned value is zero, the ADC is still in the process of a scan.
 448:Generated_Source\PSoC4/ADC.c **** *
 449:Generated_Source\PSoC4/ADC.c **** *******************************************************************************/
 450:Generated_Source\PSoC4/ADC.c **** uint32 ADC_IsEndConversion(uint32 retMode)
 451:Generated_Source\PSoC4/ADC.c **** {
 417              		.loc 1 451 1 is_stmt 1 view -0
 418              		.cfi_startproc
 419              		@ args = 0, pretend = 0, frame = 0
 420              		@ frame_needed = 0, uses_anonymous_args = 0
 421              		@ link register save eliminated.
 422              		.loc 1 451 1 is_stmt 0 view .LVU88
 423 0000 0200     		movs	r2, r0
 452:Generated_Source\PSoC4/ADC.c ****     uint32 status = 0u;
 424              		.loc 1 452 5 is_stmt 1 view .LVU89
 425              	.LVL15:
 453:Generated_Source\PSoC4/ADC.c **** 
 454:Generated_Source\PSoC4/ADC.c ****     if((retMode & (ADC_RETURN_STATUS | ADC_WAIT_FOR_RESULT)) != 0u)
 426              		.loc 1 454 5 view .LVU90
 427              		.loc 1 454 7 is_stmt 0 view .LVU91
 428 0002 8307     		lsls	r3, r0, #30
 429 0004 0CD0     		beq	.L32
 430              	.LVL16:
ARM GAS  C:\Users\EDULU~1.DES\AppData\Local\Temp\cctBIIrR.s 			page 17


 431              	.L31:
 455:Generated_Source\PSoC4/ADC.c ****     {
 456:Generated_Source\PSoC4/ADC.c ****         do
 432              		.loc 1 456 9 is_stmt 1 discriminator 2 view .LVU92
 457:Generated_Source\PSoC4/ADC.c ****         {
 458:Generated_Source\PSoC4/ADC.c ****             status = ADC_SAR_INTR_REG & ADC_EOS_MASK;
 433              		.loc 1 458 13 discriminator 2 view .LVU93
 434              		.loc 1 458 22 is_stmt 0 discriminator 2 view .LVU94
 435 0006 074B     		ldr	r3, .L33
 436 0008 1B68     		ldr	r3, [r3]
 437              		.loc 1 458 20 discriminator 2 view .LVU95
 438 000a 0120     		movs	r0, #1
 439 000c 1840     		ands	r0, r3
 440              	.LVL17:
 459:Generated_Source\PSoC4/ADC.c ****         }while((status == 0u) && ((retMode & ADC_WAIT_FOR_RESULT) != 0u));
 441              		.loc 1 459 9 discriminator 2 view .LVU96
 442 000e 01D1     		bne	.L30
 443              		.loc 1 459 31 discriminator 1 view .LVU97
 444 0010 9307     		lsls	r3, r2, #30
 445 0012 F8D4     		bmi	.L31
 446              	.L30:
 460:Generated_Source\PSoC4/ADC.c **** 
 461:Generated_Source\PSoC4/ADC.c ****         if(status != 0u)
 447              		.loc 1 461 9 is_stmt 1 view .LVU98
 448              		.loc 1 461 11 is_stmt 0 view .LVU99
 449 0014 0028     		cmp	r0, #0
 450 0016 04D0     		beq	.L28
 462:Generated_Source\PSoC4/ADC.c ****         {
 463:Generated_Source\PSoC4/ADC.c ****             /* Clear EOS bit */
 464:Generated_Source\PSoC4/ADC.c ****             ADC_SAR_INTR_REG = ADC_EOS_MASK;
 451              		.loc 1 464 13 is_stmt 1 view .LVU100
 452              		.loc 1 464 30 is_stmt 0 view .LVU101
 453 0018 024B     		ldr	r3, .L33
 454 001a 0122     		movs	r2, #1
 455              	.LVL18:
 456              		.loc 1 464 30 view .LVU102
 457 001c 1A60     		str	r2, [r3]
 458 001e 00E0     		b	.L28
 459              	.LVL19:
 460              	.L32:
 452:Generated_Source\PSoC4/ADC.c **** 
 461              		.loc 1 452 12 view .LVU103
 462 0020 0020     		movs	r0, #0
 463              	.LVL20:
 465:Generated_Source\PSoC4/ADC.c ****         }
 466:Generated_Source\PSoC4/ADC.c ****     }
 467:Generated_Source\PSoC4/ADC.c **** 
 468:Generated_Source\PSoC4/ADC.c ****     #if(ADC_INJ_CHANNEL_ENABLED)
 469:Generated_Source\PSoC4/ADC.c ****         if((retMode & (ADC_RETURN_STATUS_INJ | ADC_WAIT_FOR_RESULT_INJ)) != 0u)
 470:Generated_Source\PSoC4/ADC.c ****         {
 471:Generated_Source\PSoC4/ADC.c ****             do
 472:Generated_Source\PSoC4/ADC.c ****             {
 473:Generated_Source\PSoC4/ADC.c ****                 status |= ADC_SAR_INTR_REG & ADC_INJ_EOC_MASK;
 474:Generated_Source\PSoC4/ADC.c ****             }while(((status & ADC_INJ_EOC_MASK) == 0u) &&
 475:Generated_Source\PSoC4/ADC.c ****                    ((retMode & ADC_WAIT_FOR_RESULT_INJ) != 0u));
 476:Generated_Source\PSoC4/ADC.c **** 
 477:Generated_Source\PSoC4/ADC.c ****             if((status & ADC_INJ_EOC_MASK) != 0u)
ARM GAS  C:\Users\EDULU~1.DES\AppData\Local\Temp\cctBIIrR.s 			page 18


 478:Generated_Source\PSoC4/ADC.c ****             {
 479:Generated_Source\PSoC4/ADC.c ****                 /* Clear Injection EOS bit */
 480:Generated_Source\PSoC4/ADC.c ****                 ADC_SAR_INTR_REG = ADC_INJ_EOC_MASK;
 481:Generated_Source\PSoC4/ADC.c ****             }
 482:Generated_Source\PSoC4/ADC.c ****         }
 483:Generated_Source\PSoC4/ADC.c ****     #endif /* ADC_INJ_CHANNEL_ENABLED */
 484:Generated_Source\PSoC4/ADC.c **** 
 485:Generated_Source\PSoC4/ADC.c ****     return (status);
 464              		.loc 1 485 5 is_stmt 1 view .LVU104
 465              	.L28:
 486:Generated_Source\PSoC4/ADC.c **** }
 466              		.loc 1 486 1 is_stmt 0 view .LVU105
 467              		@ sp needed
 468 0022 7047     		bx	lr
 469              	.L34:
 470              		.align	2
 471              	.L33:
 472 0024 10021A40 		.word	1075446288
 473              		.cfi_endproc
 474              	.LFE6:
 475              		.size	ADC_IsEndConversion, .-ADC_IsEndConversion
 476              		.section	.text.ADC_GetResult16,"ax",%progbits
 477              		.align	1
 478              		.global	ADC_GetResult16
 479              		.syntax unified
 480              		.code	16
 481              		.thumb_func
 482              		.fpu softvfp
 483              		.type	ADC_GetResult16, %function
 484              	ADC_GetResult16:
 485              	.LVL21:
 486              	.LFB7:
 487:Generated_Source\PSoC4/ADC.c **** 
 488:Generated_Source\PSoC4/ADC.c **** 
 489:Generated_Source\PSoC4/ADC.c **** /*******************************************************************************
 490:Generated_Source\PSoC4/ADC.c **** * Function Name: ADC_GetResult16
 491:Generated_Source\PSoC4/ADC.c **** ********************************************************************************
 492:Generated_Source\PSoC4/ADC.c **** *
 493:Generated_Source\PSoC4/ADC.c **** * Summary:
 494:Generated_Source\PSoC4/ADC.c **** *  Gets the data available in the SAR DATA register.
 495:Generated_Source\PSoC4/ADC.c **** *
 496:Generated_Source\PSoC4/ADC.c **** * Parameters:
 497:Generated_Source\PSoC4/ADC.c **** *  chan: The ADC channel in which to return the result. The first channel
 498:Generated_Source\PSoC4/ADC.c **** *  is 0 and the injection channel if enabled is the number of valid channels.
 499:Generated_Source\PSoC4/ADC.c **** *
 500:Generated_Source\PSoC4/ADC.c **** * Return:
 501:Generated_Source\PSoC4/ADC.c **** *  Returns converted data as a signed 16-bit integer
 502:Generated_Source\PSoC4/ADC.c **** *
 503:Generated_Source\PSoC4/ADC.c **** *******************************************************************************/
 504:Generated_Source\PSoC4/ADC.c **** int16 ADC_GetResult16(uint32 chan)
 505:Generated_Source\PSoC4/ADC.c **** {
 487              		.loc 1 505 1 is_stmt 1 view -0
 488              		.cfi_startproc
 489              		@ args = 0, pretend = 0, frame = 0
 490              		@ frame_needed = 0, uses_anonymous_args = 0
 491              		.loc 1 505 1 is_stmt 0 view .LVU107
 492 0000 10B5     		push	{r4, lr}
ARM GAS  C:\Users\EDULU~1.DES\AppData\Local\Temp\cctBIIrR.s 			page 19


 493              		.cfi_def_cfa_offset 8
 494              		.cfi_offset 4, -8
 495              		.cfi_offset 14, -4
 496 0002 041E     		subs	r4, r0, #0
 506:Generated_Source\PSoC4/ADC.c ****     uint32 result;
 497              		.loc 1 506 5 is_stmt 1 view .LVU108
 507:Generated_Source\PSoC4/ADC.c **** 
 508:Generated_Source\PSoC4/ADC.c ****     /* Halt CPU in debug mode if channel is out of valid range */
 509:Generated_Source\PSoC4/ADC.c ****     CYASSERT(chan < ADC_TOTAL_CHANNELS_NUM);
 498              		.loc 1 509 5 view .LVU109
 499              		.loc 1 509 5 view .LVU110
 500 0004 09D1     		bne	.L39
 501              	.LVL22:
 502              	.L36:
 510:Generated_Source\PSoC4/ADC.c **** 
 511:Generated_Source\PSoC4/ADC.c ****     if(chan < ADC_SEQUENCED_CHANNELS_NUM)
 503              		.loc 1 511 5 view .LVU111
 504              		.loc 1 511 7 is_stmt 0 view .LVU112
 505 0006 002C     		cmp	r4, #0
 506 0008 0BD1     		bne	.L38
 512:Generated_Source\PSoC4/ADC.c ****     {
 513:Generated_Source\PSoC4/ADC.c ****         result = CY_GET_REG32((reg32 *)(ADC_SAR_CHAN_RESULT_IND + (uint32)(chan << 2u))) &
 507              		.loc 1 513 9 is_stmt 1 view .LVU113
 508              		.loc 1 513 18 is_stmt 0 view .LVU114
 509 000a A400     		lsls	r4, r4, #2
 510              	.LVL23:
 511              		.loc 1 513 18 view .LVU115
 512 000c 064B     		ldr	r3, .L40
 513 000e 9C46     		mov	ip, r3
 514 0010 6444     		add	r4, r4, ip
 515 0012 2068     		ldr	r0, [r4]
 516              		.loc 1 513 16 view .LVU116
 517 0014 0004     		lsls	r0, r0, #16
 518 0016 000C     		lsrs	r0, r0, #16
 519              	.LVL24:
 520              		.loc 1 513 16 view .LVU117
 521 0018 04E0     		b	.L37
 522              	.LVL25:
 523              	.L39:
 509:Generated_Source\PSoC4/ADC.c **** 
 524              		.loc 1 509 5 is_stmt 1 discriminator 1 view .LVU118
 525 001a 0020     		movs	r0, #0
 526              	.LVL26:
 509:Generated_Source\PSoC4/ADC.c **** 
 527              		.loc 1 509 5 is_stmt 0 discriminator 1 view .LVU119
 528 001c FFF7FEFF 		bl	CyHalt
 529              	.LVL27:
 530 0020 F1E7     		b	.L36
 531              	.L38:
 514:Generated_Source\PSoC4/ADC.c ****                 ADC_RESULT_MASK;
 515:Generated_Source\PSoC4/ADC.c ****     }
 516:Generated_Source\PSoC4/ADC.c ****     else
 517:Generated_Source\PSoC4/ADC.c ****     {
 518:Generated_Source\PSoC4/ADC.c ****         #if(ADC_INJ_CHANNEL_ENABLED)
 519:Generated_Source\PSoC4/ADC.c ****             result = ADC_SAR_INJ_RESULT_REG & ADC_RESULT_MASK;
 520:Generated_Source\PSoC4/ADC.c ****         #else
 521:Generated_Source\PSoC4/ADC.c ****             result = 0u;
ARM GAS  C:\Users\EDULU~1.DES\AppData\Local\Temp\cctBIIrR.s 			page 20


 532              		.loc 1 521 20 view .LVU120
 533 0022 0020     		movs	r0, #0
 534              	.LVL28:
 535              	.L37:
 522:Generated_Source\PSoC4/ADC.c ****         #endif /* ADC_INJ_CHANNEL_ENABLED */
 523:Generated_Source\PSoC4/ADC.c ****     }
 524:Generated_Source\PSoC4/ADC.c **** 
 525:Generated_Source\PSoC4/ADC.c ****     return ( (int16)result );
 536              		.loc 1 525 5 is_stmt 1 view .LVU121
 537              		.loc 1 525 14 is_stmt 0 view .LVU122
 538 0024 00B2     		sxth	r0, r0
 539              	.LVL29:
 526:Generated_Source\PSoC4/ADC.c **** }
 540              		.loc 1 526 1 view .LVU123
 541              		@ sp needed
 542 0026 10BD     		pop	{r4, pc}
 543              	.L41:
 544              		.align	2
 545              	.L40:
 546 0028 80011A40 		.word	1075446144
 547              		.cfi_endproc
 548              	.LFE7:
 549              		.size	ADC_GetResult16, .-ADC_GetResult16
 550              		.section	.text.ADC_SetChanMask,"ax",%progbits
 551              		.align	1
 552              		.global	ADC_SetChanMask
 553              		.syntax unified
 554              		.code	16
 555              		.thumb_func
 556              		.fpu softvfp
 557              		.type	ADC_SetChanMask, %function
 558              	ADC_SetChanMask:
 559              	.LVL30:
 560              	.LFB8:
 527:Generated_Source\PSoC4/ADC.c **** 
 528:Generated_Source\PSoC4/ADC.c **** 
 529:Generated_Source\PSoC4/ADC.c **** /*******************************************************************************
 530:Generated_Source\PSoC4/ADC.c **** * Function Name: ADC_SetChanMask
 531:Generated_Source\PSoC4/ADC.c **** ********************************************************************************
 532:Generated_Source\PSoC4/ADC.c **** *
 533:Generated_Source\PSoC4/ADC.c **** * Summary:
 534:Generated_Source\PSoC4/ADC.c **** *  Sets the channel enable mask.
 535:Generated_Source\PSoC4/ADC.c **** *
 536:Generated_Source\PSoC4/ADC.c **** * Parameters:
 537:Generated_Source\PSoC4/ADC.c **** *  mask: Sets which channels that will be
 538:Generated_Source\PSoC4/ADC.c **** *  scanned. Setting bits for channels that do not exist will have no
 539:Generated_Source\PSoC4/ADC.c **** *  effect. For example, if only 6 channels were enabled, setting a
 540:Generated_Source\PSoC4/ADC.c **** *  mask of 0x0103 would only enable the last two channels (0 and 1).
 541:Generated_Source\PSoC4/ADC.c **** *  This API will not enable the injection channel.
 542:Generated_Source\PSoC4/ADC.c **** *  Examples: If the component is setup to sequence through 8
 543:Generated_Source\PSoC4/ADC.c **** *  channels, a mask of 0x000F would enable channels 0, 1, 2, and 3.
 544:Generated_Source\PSoC4/ADC.c **** *
 545:Generated_Source\PSoC4/ADC.c **** * Return:
 546:Generated_Source\PSoC4/ADC.c **** *  None.
 547:Generated_Source\PSoC4/ADC.c **** *
 548:Generated_Source\PSoC4/ADC.c **** *******************************************************************************/
 549:Generated_Source\PSoC4/ADC.c **** void ADC_SetChanMask(uint32 mask)
ARM GAS  C:\Users\EDULU~1.DES\AppData\Local\Temp\cctBIIrR.s 			page 21


 550:Generated_Source\PSoC4/ADC.c **** {
 561              		.loc 1 550 1 is_stmt 1 view -0
 562              		.cfi_startproc
 563              		@ args = 0, pretend = 0, frame = 0
 564              		@ frame_needed = 0, uses_anonymous_args = 0
 565              		@ link register save eliminated.
 551:Generated_Source\PSoC4/ADC.c ****     ADC_SAR_CHAN_EN_REG = mask & ADC_MAX_CHANNELS_EN_MASK;
 566              		.loc 1 551 5 view .LVU125
 567              		.loc 1 551 32 is_stmt 0 view .LVU126
 568 0000 0123     		movs	r3, #1
 569 0002 0340     		ands	r3, r0
 570              		.loc 1 551 25 view .LVU127
 571 0004 014A     		ldr	r2, .L43
 572 0006 1360     		str	r3, [r2]
 552:Generated_Source\PSoC4/ADC.c **** }
 573              		.loc 1 552 1 view .LVU128
 574              		@ sp needed
 575 0008 7047     		bx	lr
 576              	.L44:
 577 000a C046     		.align	2
 578              	.L43:
 579 000c 20001A40 		.word	1075445792
 580              		.cfi_endproc
 581              	.LFE8:
 582              		.size	ADC_SetChanMask, .-ADC_SetChanMask
 583              		.section	.text.ADC_SetLowLimit,"ax",%progbits
 584              		.align	1
 585              		.global	ADC_SetLowLimit
 586              		.syntax unified
 587              		.code	16
 588              		.thumb_func
 589              		.fpu softvfp
 590              		.type	ADC_SetLowLimit, %function
 591              	ADC_SetLowLimit:
 592              	.LVL31:
 593              	.LFB9:
 553:Generated_Source\PSoC4/ADC.c **** 
 554:Generated_Source\PSoC4/ADC.c **** #if(ADC_INJ_CHANNEL_ENABLED)
 555:Generated_Source\PSoC4/ADC.c **** 
 556:Generated_Source\PSoC4/ADC.c **** 
 557:Generated_Source\PSoC4/ADC.c ****     /*******************************************************************************
 558:Generated_Source\PSoC4/ADC.c ****     * Function Name: ADC_EnableInjection
 559:Generated_Source\PSoC4/ADC.c ****     ********************************************************************************
 560:Generated_Source\PSoC4/ADC.c ****     *
 561:Generated_Source\PSoC4/ADC.c ****     * Summary:
 562:Generated_Source\PSoC4/ADC.c ****     *  Enables the injection channel for the next scan only.
 563:Generated_Source\PSoC4/ADC.c ****     *
 564:Generated_Source\PSoC4/ADC.c ****     * Parameters:
 565:Generated_Source\PSoC4/ADC.c ****     *  None.
 566:Generated_Source\PSoC4/ADC.c ****     *
 567:Generated_Source\PSoC4/ADC.c ****     * Return:
 568:Generated_Source\PSoC4/ADC.c ****     *  None.
 569:Generated_Source\PSoC4/ADC.c ****     *
 570:Generated_Source\PSoC4/ADC.c ****     *******************************************************************************/
 571:Generated_Source\PSoC4/ADC.c ****     void ADC_EnableInjection(void)
 572:Generated_Source\PSoC4/ADC.c ****     {
 573:Generated_Source\PSoC4/ADC.c ****         ADC_SAR_INJ_CHAN_CONFIG_REG |= ADC_INJ_CHAN_EN;
ARM GAS  C:\Users\EDULU~1.DES\AppData\Local\Temp\cctBIIrR.s 			page 22


 574:Generated_Source\PSoC4/ADC.c ****     }
 575:Generated_Source\PSoC4/ADC.c **** 
 576:Generated_Source\PSoC4/ADC.c **** #endif /* ADC_INJ_CHANNEL_ENABLED */
 577:Generated_Source\PSoC4/ADC.c **** 
 578:Generated_Source\PSoC4/ADC.c **** 
 579:Generated_Source\PSoC4/ADC.c **** /*******************************************************************************
 580:Generated_Source\PSoC4/ADC.c **** * Function Name: ADC_SetLowLimit
 581:Generated_Source\PSoC4/ADC.c **** ********************************************************************************
 582:Generated_Source\PSoC4/ADC.c **** *
 583:Generated_Source\PSoC4/ADC.c **** * Summary:
 584:Generated_Source\PSoC4/ADC.c **** *  Sets the low limit parameter for a limit condition.
 585:Generated_Source\PSoC4/ADC.c **** *
 586:Generated_Source\PSoC4/ADC.c **** * Parameters:
 587:Generated_Source\PSoC4/ADC.c **** *  lowLimit: The low limit for a limit condition.
 588:Generated_Source\PSoC4/ADC.c **** *
 589:Generated_Source\PSoC4/ADC.c **** * Return:
 590:Generated_Source\PSoC4/ADC.c **** *  None.
 591:Generated_Source\PSoC4/ADC.c **** *
 592:Generated_Source\PSoC4/ADC.c **** *******************************************************************************/
 593:Generated_Source\PSoC4/ADC.c **** void ADC_SetLowLimit(uint32 lowLimit)
 594:Generated_Source\PSoC4/ADC.c **** {
 594              		.loc 1 594 1 is_stmt 1 view -0
 595              		.cfi_startproc
 596              		@ args = 0, pretend = 0, frame = 0
 597              		@ frame_needed = 0, uses_anonymous_args = 0
 598              		@ link register save eliminated.
 595:Generated_Source\PSoC4/ADC.c ****     ADC_SAR_RANGE_THRES_REG &= (uint32)(~ADC_RANGE_LOW_MASK);
 599              		.loc 1 595 5 view .LVU130
 600              		.loc 1 595 29 is_stmt 0 view .LVU131
 601 0000 054A     		ldr	r2, .L46
 602 0002 1368     		ldr	r3, [r2]
 603 0004 1B0C     		lsrs	r3, r3, #16
 604 0006 1B04     		lsls	r3, r3, #16
 605 0008 1360     		str	r3, [r2]
 596:Generated_Source\PSoC4/ADC.c ****     ADC_SAR_RANGE_THRES_REG |= lowLimit & ADC_RANGE_LOW_MASK;
 606              		.loc 1 596 5 is_stmt 1 view .LVU132
 607              		.loc 1 596 29 is_stmt 0 view .LVU133
 608 000a 1368     		ldr	r3, [r2]
 609              		.loc 1 596 41 view .LVU134
 610 000c 0004     		lsls	r0, r0, #16
 611              	.LVL32:
 612              		.loc 1 596 41 view .LVU135
 613 000e 000C     		lsrs	r0, r0, #16
 614              		.loc 1 596 29 view .LVU136
 615 0010 1843     		orrs	r0, r3
 616 0012 1060     		str	r0, [r2]
 597:Generated_Source\PSoC4/ADC.c **** }
 617              		.loc 1 597 1 view .LVU137
 618              		@ sp needed
 619 0014 7047     		bx	lr
 620              	.L47:
 621 0016 C046     		.align	2
 622              	.L46:
 623 0018 18001A40 		.word	1075445784
 624              		.cfi_endproc
 625              	.LFE9:
 626              		.size	ADC_SetLowLimit, .-ADC_SetLowLimit
ARM GAS  C:\Users\EDULU~1.DES\AppData\Local\Temp\cctBIIrR.s 			page 23


 627              		.section	.text.ADC_SetHighLimit,"ax",%progbits
 628              		.align	1
 629              		.global	ADC_SetHighLimit
 630              		.syntax unified
 631              		.code	16
 632              		.thumb_func
 633              		.fpu softvfp
 634              		.type	ADC_SetHighLimit, %function
 635              	ADC_SetHighLimit:
 636              	.LVL33:
 637              	.LFB10:
 598:Generated_Source\PSoC4/ADC.c **** 
 599:Generated_Source\PSoC4/ADC.c **** 
 600:Generated_Source\PSoC4/ADC.c **** /*******************************************************************************
 601:Generated_Source\PSoC4/ADC.c **** * Function Name: ADC_SetHighLimit
 602:Generated_Source\PSoC4/ADC.c **** ********************************************************************************
 603:Generated_Source\PSoC4/ADC.c **** *
 604:Generated_Source\PSoC4/ADC.c **** * Summary:
 605:Generated_Source\PSoC4/ADC.c **** *  Sets the low limit parameter for a limit condition.
 606:Generated_Source\PSoC4/ADC.c **** *
 607:Generated_Source\PSoC4/ADC.c **** * Parameters:
 608:Generated_Source\PSoC4/ADC.c **** *  highLimit: The high limit for a limit condition.
 609:Generated_Source\PSoC4/ADC.c **** *
 610:Generated_Source\PSoC4/ADC.c **** * Return:
 611:Generated_Source\PSoC4/ADC.c **** *  None.
 612:Generated_Source\PSoC4/ADC.c **** *
 613:Generated_Source\PSoC4/ADC.c **** *******************************************************************************/
 614:Generated_Source\PSoC4/ADC.c **** void ADC_SetHighLimit(uint32 highLimit)
 615:Generated_Source\PSoC4/ADC.c **** {
 638              		.loc 1 615 1 is_stmt 1 view -0
 639              		.cfi_startproc
 640              		@ args = 0, pretend = 0, frame = 0
 641              		@ frame_needed = 0, uses_anonymous_args = 0
 642              		@ link register save eliminated.
 616:Generated_Source\PSoC4/ADC.c ****     ADC_SAR_RANGE_THRES_REG &= (uint32)(~ADC_RANGE_HIGH_MASK);
 643              		.loc 1 616 5 view .LVU139
 644              		.loc 1 616 29 is_stmt 0 view .LVU140
 645 0000 044A     		ldr	r2, .L49
 646 0002 1368     		ldr	r3, [r2]
 647 0004 1B04     		lsls	r3, r3, #16
 648 0006 1B0C     		lsrs	r3, r3, #16
 649 0008 1360     		str	r3, [r2]
 617:Generated_Source\PSoC4/ADC.c ****     ADC_SAR_RANGE_THRES_REG |= (uint32)(highLimit << ADC_RANGE_HIGH_OFFSET);
 650              		.loc 1 617 5 is_stmt 1 view .LVU141
 651              		.loc 1 617 29 is_stmt 0 view .LVU142
 652 000a 1368     		ldr	r3, [r2]
 653              		.loc 1 617 51 view .LVU143
 654 000c 0004     		lsls	r0, r0, #16
 655              	.LVL34:
 656              		.loc 1 617 29 view .LVU144
 657 000e 0343     		orrs	r3, r0
 658 0010 1360     		str	r3, [r2]
 618:Generated_Source\PSoC4/ADC.c **** }
 659              		.loc 1 618 1 view .LVU145
 660              		@ sp needed
 661 0012 7047     		bx	lr
 662              	.L50:
ARM GAS  C:\Users\EDULU~1.DES\AppData\Local\Temp\cctBIIrR.s 			page 24


 663              		.align	2
 664              	.L49:
 665 0014 18001A40 		.word	1075445784
 666              		.cfi_endproc
 667              	.LFE10:
 668              		.size	ADC_SetHighLimit, .-ADC_SetHighLimit
 669              		.section	.text.ADC_SetLimitMask,"ax",%progbits
 670              		.align	1
 671              		.global	ADC_SetLimitMask
 672              		.syntax unified
 673              		.code	16
 674              		.thumb_func
 675              		.fpu softvfp
 676              		.type	ADC_SetLimitMask, %function
 677              	ADC_SetLimitMask:
 678              	.LVL35:
 679              	.LFB11:
 619:Generated_Source\PSoC4/ADC.c **** 
 620:Generated_Source\PSoC4/ADC.c **** 
 621:Generated_Source\PSoC4/ADC.c **** /*******************************************************************************
 622:Generated_Source\PSoC4/ADC.c **** * Function Name: ADC_SetLimitMask
 623:Generated_Source\PSoC4/ADC.c **** ********************************************************************************
 624:Generated_Source\PSoC4/ADC.c **** *
 625:Generated_Source\PSoC4/ADC.c **** * Summary:
 626:Generated_Source\PSoC4/ADC.c **** *  Sets the channel limit condition mask.
 627:Generated_Source\PSoC4/ADC.c **** *
 628:Generated_Source\PSoC4/ADC.c **** * Parameters:
 629:Generated_Source\PSoC4/ADC.c **** *  mask: Sets which channels that may cause a
 630:Generated_Source\PSoC4/ADC.c **** *  limit condition interrupt. Setting bits for channels that do not exist
 631:Generated_Source\PSoC4/ADC.c **** *  will have no effect. For example, if only 6 channels were enabled,
 632:Generated_Source\PSoC4/ADC.c **** *  setting a mask of 0x0103 would only enable the last two channels (0 and 1).
 633:Generated_Source\PSoC4/ADC.c **** *
 634:Generated_Source\PSoC4/ADC.c **** * Return:
 635:Generated_Source\PSoC4/ADC.c **** *  None.
 636:Generated_Source\PSoC4/ADC.c **** *
 637:Generated_Source\PSoC4/ADC.c **** *******************************************************************************/
 638:Generated_Source\PSoC4/ADC.c **** void ADC_SetLimitMask(uint32 mask)
 639:Generated_Source\PSoC4/ADC.c **** {
 680              		.loc 1 639 1 is_stmt 1 view -0
 681              		.cfi_startproc
 682              		@ args = 0, pretend = 0, frame = 0
 683              		@ frame_needed = 0, uses_anonymous_args = 0
 684              		@ link register save eliminated.
 640:Generated_Source\PSoC4/ADC.c ****     ADC_SAR_RANGE_INTR_MASK_REG = mask & ADC_MAX_CHANNELS_EN_MASK;
 685              		.loc 1 640 5 view .LVU147
 686              		.loc 1 640 40 is_stmt 0 view .LVU148
 687 0000 0123     		movs	r3, #1
 688 0002 0340     		ands	r3, r0
 689              		.loc 1 640 33 view .LVU149
 690 0004 014A     		ldr	r2, .L52
 691 0006 1360     		str	r3, [r2]
 641:Generated_Source\PSoC4/ADC.c **** }
 692              		.loc 1 641 1 view .LVU150
 693              		@ sp needed
 694 0008 7047     		bx	lr
 695              	.L53:
 696 000a C046     		.align	2
ARM GAS  C:\Users\EDULU~1.DES\AppData\Local\Temp\cctBIIrR.s 			page 25


 697              	.L52:
 698 000c 38021A40 		.word	1075446328
 699              		.cfi_endproc
 700              	.LFE11:
 701              		.size	ADC_SetLimitMask, .-ADC_SetLimitMask
 702              		.section	.text.ADC_SetSatMask,"ax",%progbits
 703              		.align	1
 704              		.global	ADC_SetSatMask
 705              		.syntax unified
 706              		.code	16
 707              		.thumb_func
 708              		.fpu softvfp
 709              		.type	ADC_SetSatMask, %function
 710              	ADC_SetSatMask:
 711              	.LVL36:
 712              	.LFB12:
 642:Generated_Source\PSoC4/ADC.c **** 
 643:Generated_Source\PSoC4/ADC.c **** 
 644:Generated_Source\PSoC4/ADC.c **** /*******************************************************************************
 645:Generated_Source\PSoC4/ADC.c **** * Function Name: ADC_SetSatMask
 646:Generated_Source\PSoC4/ADC.c **** ********************************************************************************
 647:Generated_Source\PSoC4/ADC.c **** *
 648:Generated_Source\PSoC4/ADC.c **** * Summary:
 649:Generated_Source\PSoC4/ADC.c **** *  Sets the channel saturation event mask.
 650:Generated_Source\PSoC4/ADC.c **** *
 651:Generated_Source\PSoC4/ADC.c **** * Parameters:
 652:Generated_Source\PSoC4/ADC.c **** *  mask: Sets which channels that may cause a
 653:Generated_Source\PSoC4/ADC.c **** *  saturation event interrupt. Setting bits for channels that do not exist
 654:Generated_Source\PSoC4/ADC.c **** *  will have no effect. For example, if only 8 channels were enabled,
 655:Generated_Source\PSoC4/ADC.c **** *  setting a mask of 0x01C0 would only enable two channels (6 and 7).
 656:Generated_Source\PSoC4/ADC.c **** *
 657:Generated_Source\PSoC4/ADC.c **** * Return:
 658:Generated_Source\PSoC4/ADC.c **** *  None.
 659:Generated_Source\PSoC4/ADC.c **** *
 660:Generated_Source\PSoC4/ADC.c **** *******************************************************************************/
 661:Generated_Source\PSoC4/ADC.c **** void ADC_SetSatMask(uint32 mask)
 662:Generated_Source\PSoC4/ADC.c **** {
 713              		.loc 1 662 1 is_stmt 1 view -0
 714              		.cfi_startproc
 715              		@ args = 0, pretend = 0, frame = 0
 716              		@ frame_needed = 0, uses_anonymous_args = 0
 717              		@ link register save eliminated.
 663:Generated_Source\PSoC4/ADC.c ****     ADC_SAR_SATURATE_INTR_MASK_REG = mask & ADC_MAX_CHANNELS_EN_MASK;
 718              		.loc 1 663 5 view .LVU152
 719              		.loc 1 663 43 is_stmt 0 view .LVU153
 720 0000 0123     		movs	r3, #1
 721 0002 0340     		ands	r3, r0
 722              		.loc 1 663 36 view .LVU154
 723 0004 014A     		ldr	r2, .L55
 724 0006 1360     		str	r3, [r2]
 664:Generated_Source\PSoC4/ADC.c **** }
 725              		.loc 1 664 1 view .LVU155
 726              		@ sp needed
 727 0008 7047     		bx	lr
 728              	.L56:
 729 000a C046     		.align	2
 730              	.L55:
ARM GAS  C:\Users\EDULU~1.DES\AppData\Local\Temp\cctBIIrR.s 			page 26


 731 000c 28021A40 		.word	1075446312
 732              		.cfi_endproc
 733              	.LFE12:
 734              		.size	ADC_SetSatMask, .-ADC_SetSatMask
 735              		.section	.text.ADC_SetOffset,"ax",%progbits
 736              		.align	1
 737              		.global	ADC_SetOffset
 738              		.syntax unified
 739              		.code	16
 740              		.thumb_func
 741              		.fpu softvfp
 742              		.type	ADC_SetOffset, %function
 743              	ADC_SetOffset:
 744              	.LVL37:
 745              	.LFB13:
 665:Generated_Source\PSoC4/ADC.c **** 
 666:Generated_Source\PSoC4/ADC.c **** 
 667:Generated_Source\PSoC4/ADC.c **** /*******************************************************************************
 668:Generated_Source\PSoC4/ADC.c **** * Function Name: ADC_SetOffset
 669:Generated_Source\PSoC4/ADC.c **** ********************************************************************************
 670:Generated_Source\PSoC4/ADC.c **** *
 671:Generated_Source\PSoC4/ADC.c **** * Summary:
 672:Generated_Source\PSoC4/ADC.c **** *   Description: Sets the ADC offset which is used by the functions
 673:Generated_Source\PSoC4/ADC.c **** *   ADC_CountsTo_uVolts, ADC_CountsTo_mVolts and ADC_CountsTo_Volts
 674:Generated_Source\PSoC4/ADC.c **** *   to substract the offset from the given reading
 675:Generated_Source\PSoC4/ADC.c **** *   before calculating the voltage conversion.
 676:Generated_Source\PSoC4/ADC.c **** *
 677:Generated_Source\PSoC4/ADC.c **** * Parameters:
 678:Generated_Source\PSoC4/ADC.c **** *  chan: ADC channel number.
 679:Generated_Source\PSoC4/ADC.c **** *  offset: This value is a measured value when the
 680:Generated_Source\PSoC4/ADC.c **** *          inputs are shorted or connected to the same input voltage.
 681:Generated_Source\PSoC4/ADC.c **** *
 682:Generated_Source\PSoC4/ADC.c **** * Return:
 683:Generated_Source\PSoC4/ADC.c **** *  None.
 684:Generated_Source\PSoC4/ADC.c **** *
 685:Generated_Source\PSoC4/ADC.c **** * Global variables:
 686:Generated_Source\PSoC4/ADC.c **** *  ADC_Offset:  Modified to set the user provided offset.
 687:Generated_Source\PSoC4/ADC.c **** *
 688:Generated_Source\PSoC4/ADC.c **** *******************************************************************************/
 689:Generated_Source\PSoC4/ADC.c **** void ADC_SetOffset(uint32 chan, int16 offset)
 690:Generated_Source\PSoC4/ADC.c **** {
 746              		.loc 1 690 1 is_stmt 1 view -0
 747              		.cfi_startproc
 748              		@ args = 0, pretend = 0, frame = 0
 749              		@ frame_needed = 0, uses_anonymous_args = 0
 750              		.loc 1 690 1 is_stmt 0 view .LVU157
 751 0000 70B5     		push	{r4, r5, r6, lr}
 752              		.cfi_def_cfa_offset 16
 753              		.cfi_offset 4, -16
 754              		.cfi_offset 5, -12
 755              		.cfi_offset 6, -8
 756              		.cfi_offset 14, -4
 757 0002 0400     		movs	r4, r0
 758 0004 0D00     		movs	r5, r1
 691:Generated_Source\PSoC4/ADC.c ****     /* Halt CPU in debug mode if channel is out of valid range */
 692:Generated_Source\PSoC4/ADC.c ****     CYASSERT(chan < ADC_TOTAL_CHANNELS_NUM);
 759              		.loc 1 692 5 is_stmt 1 view .LVU158
ARM GAS  C:\Users\EDULU~1.DES\AppData\Local\Temp\cctBIIrR.s 			page 27


 760              		.loc 1 692 5 view .LVU159
 761 0006 0028     		cmp	r0, #0
 762 0008 03D1     		bne	.L59
 763              	.LVL38:
 764              	.L58:
 693:Generated_Source\PSoC4/ADC.c **** 
 694:Generated_Source\PSoC4/ADC.c ****     ADC_offset[chan] = offset;
 765              		.loc 1 694 5 view .LVU160
 766              		.loc 1 694 22 is_stmt 0 view .LVU161
 767 000a 6400     		lsls	r4, r4, #1
 768              	.LVL39:
 769              		.loc 1 694 22 view .LVU162
 770 000c 034B     		ldr	r3, .L60
 771 000e E552     		strh	r5, [r4, r3]
 695:Generated_Source\PSoC4/ADC.c **** }
 772              		.loc 1 695 1 view .LVU163
 773              		@ sp needed
 774 0010 70BD     		pop	{r4, r5, r6, pc}
 775              	.LVL40:
 776              	.L59:
 692:Generated_Source\PSoC4/ADC.c **** 
 777              		.loc 1 692 5 is_stmt 1 discriminator 1 view .LVU164
 778 0012 0020     		movs	r0, #0
 779              	.LVL41:
 692:Generated_Source\PSoC4/ADC.c **** 
 780              		.loc 1 692 5 is_stmt 0 discriminator 1 view .LVU165
 781 0014 FFF7FEFF 		bl	CyHalt
 782              	.LVL42:
 692:Generated_Source\PSoC4/ADC.c **** 
 783              		.loc 1 692 5 discriminator 1 view .LVU166
 784 0018 F7E7     		b	.L58
 785              	.L61:
 786 001a C046     		.align	2
 787              	.L60:
 788 001c 00000000 		.word	ADC_offset
 789              		.cfi_endproc
 790              	.LFE13:
 791              		.size	ADC_SetOffset, .-ADC_SetOffset
 792              		.section	.text.ADC_SetGain,"ax",%progbits
 793              		.align	1
 794              		.global	ADC_SetGain
 795              		.syntax unified
 796              		.code	16
 797              		.thumb_func
 798              		.fpu softvfp
 799              		.type	ADC_SetGain, %function
 800              	ADC_SetGain:
 801              	.LVL43:
 802              	.LFB14:
 696:Generated_Source\PSoC4/ADC.c **** 
 697:Generated_Source\PSoC4/ADC.c **** 
 698:Generated_Source\PSoC4/ADC.c **** /*******************************************************************************
 699:Generated_Source\PSoC4/ADC.c **** * Function Name: ADC_SetGain
 700:Generated_Source\PSoC4/ADC.c **** ********************************************************************************
 701:Generated_Source\PSoC4/ADC.c **** *
 702:Generated_Source\PSoC4/ADC.c **** * Summary:
 703:Generated_Source\PSoC4/ADC.c **** *  Description: Sets the ADC gain in counts per 10 volt for the voltage
ARM GAS  C:\Users\EDULU~1.DES\AppData\Local\Temp\cctBIIrR.s 			page 28


 704:Generated_Source\PSoC4/ADC.c **** *  conversion functions below. This value is set by default by the
 705:Generated_Source\PSoC4/ADC.c **** *  reference and input range settings. It should only be used to further
 706:Generated_Source\PSoC4/ADC.c **** *  calibrate the ADC with a known input or if an external reference is
 707:Generated_Source\PSoC4/ADC.c **** *  used. Affects the ADC_CountsTo_uVolts, ADC_CountsTo_mVolts
 708:Generated_Source\PSoC4/ADC.c **** *  and ADC_CountsTo_Volts functions by supplying the correct
 709:Generated_Source\PSoC4/ADC.c **** *  conversion between ADC counts and voltage.
 710:Generated_Source\PSoC4/ADC.c **** *
 711:Generated_Source\PSoC4/ADC.c **** * Parameters:
 712:Generated_Source\PSoC4/ADC.c **** *  chan: ADC channel number.
 713:Generated_Source\PSoC4/ADC.c **** *  adcGain: ADC gain in counts per 10 volts.
 714:Generated_Source\PSoC4/ADC.c **** *
 715:Generated_Source\PSoC4/ADC.c **** * Return:
 716:Generated_Source\PSoC4/ADC.c **** *  None.
 717:Generated_Source\PSoC4/ADC.c **** *
 718:Generated_Source\PSoC4/ADC.c **** * Global variables:
 719:Generated_Source\PSoC4/ADC.c **** *  ADC_CountsPer10Volt:  modified to set the ADC gain in counts
 720:Generated_Source\PSoC4/ADC.c **** *   per 10 volt.
 721:Generated_Source\PSoC4/ADC.c **** *
 722:Generated_Source\PSoC4/ADC.c **** *******************************************************************************/
 723:Generated_Source\PSoC4/ADC.c **** void ADC_SetGain(uint32 chan, int32 adcGain)
 724:Generated_Source\PSoC4/ADC.c **** {
 803              		.loc 1 724 1 is_stmt 1 view -0
 804              		.cfi_startproc
 805              		@ args = 0, pretend = 0, frame = 0
 806              		@ frame_needed = 0, uses_anonymous_args = 0
 807              		.loc 1 724 1 is_stmt 0 view .LVU168
 808 0000 70B5     		push	{r4, r5, r6, lr}
 809              		.cfi_def_cfa_offset 16
 810              		.cfi_offset 4, -16
 811              		.cfi_offset 5, -12
 812              		.cfi_offset 6, -8
 813              		.cfi_offset 14, -4
 814 0002 0400     		movs	r4, r0
 815 0004 0D00     		movs	r5, r1
 725:Generated_Source\PSoC4/ADC.c ****     /* Halt CPU in debug mode if channel is out of valid range */
 726:Generated_Source\PSoC4/ADC.c ****     CYASSERT(chan < ADC_TOTAL_CHANNELS_NUM);
 816              		.loc 1 726 5 is_stmt 1 view .LVU169
 817              		.loc 1 726 5 view .LVU170
 818 0006 0028     		cmp	r0, #0
 819 0008 03D1     		bne	.L64
 820              	.LVL44:
 821              	.L63:
 727:Generated_Source\PSoC4/ADC.c **** 
 728:Generated_Source\PSoC4/ADC.c ****     ADC_countsPer10Volt[chan] = adcGain;
 822              		.loc 1 728 5 view .LVU171
 823              		.loc 1 728 31 is_stmt 0 view .LVU172
 824 000a A400     		lsls	r4, r4, #2
 825              	.LVL45:
 826              		.loc 1 728 31 view .LVU173
 827 000c 034B     		ldr	r3, .L65
 828 000e E550     		str	r5, [r4, r3]
 729:Generated_Source\PSoC4/ADC.c **** }
 829              		.loc 1 729 1 view .LVU174
 830              		@ sp needed
 831              	.LVL46:
 832              		.loc 1 729 1 view .LVU175
 833 0010 70BD     		pop	{r4, r5, r6, pc}
ARM GAS  C:\Users\EDULU~1.DES\AppData\Local\Temp\cctBIIrR.s 			page 29


 834              	.LVL47:
 835              	.L64:
 726:Generated_Source\PSoC4/ADC.c **** 
 836              		.loc 1 726 5 is_stmt 1 discriminator 1 view .LVU176
 837 0012 0020     		movs	r0, #0
 838              	.LVL48:
 726:Generated_Source\PSoC4/ADC.c **** 
 839              		.loc 1 726 5 is_stmt 0 discriminator 1 view .LVU177
 840 0014 FFF7FEFF 		bl	CyHalt
 841              	.LVL49:
 726:Generated_Source\PSoC4/ADC.c **** 
 842              		.loc 1 726 5 discriminator 1 view .LVU178
 843 0018 F7E7     		b	.L63
 844              	.L66:
 845 001a C046     		.align	2
 846              	.L65:
 847 001c 00000000 		.word	ADC_countsPer10Volt
 848              		.cfi_endproc
 849              	.LFE14:
 850              		.size	ADC_SetGain, .-ADC_SetGain
 851              		.global	__aeabi_idiv
 852              		.section	.text.ADC_CountsTo_mVolts,"ax",%progbits
 853              		.align	1
 854              		.global	ADC_CountsTo_mVolts
 855              		.syntax unified
 856              		.code	16
 857              		.thumb_func
 858              		.fpu softvfp
 859              		.type	ADC_CountsTo_mVolts, %function
 860              	ADC_CountsTo_mVolts:
 861              	.LVL50:
 862              	.LFB15:
 730:Generated_Source\PSoC4/ADC.c **** 
 731:Generated_Source\PSoC4/ADC.c **** 
 732:Generated_Source\PSoC4/ADC.c **** #if(ADC_DEFAULT_JUSTIFICATION_SEL == ADC__RIGHT)
 733:Generated_Source\PSoC4/ADC.c **** 
 734:Generated_Source\PSoC4/ADC.c **** 
 735:Generated_Source\PSoC4/ADC.c ****     /*******************************************************************************
 736:Generated_Source\PSoC4/ADC.c ****     * Function Name: ADC_CountsTo_mVolts
 737:Generated_Source\PSoC4/ADC.c ****     ********************************************************************************
 738:Generated_Source\PSoC4/ADC.c ****     *
 739:Generated_Source\PSoC4/ADC.c ****     * Summary:
 740:Generated_Source\PSoC4/ADC.c ****     *  This function converts ADC counts to mVolts
 741:Generated_Source\PSoC4/ADC.c ****     *  This function is not available when left data format justification selected.
 742:Generated_Source\PSoC4/ADC.c ****     *
 743:Generated_Source\PSoC4/ADC.c ****     * Parameters:
 744:Generated_Source\PSoC4/ADC.c ****     *  chan: The ADC channel number.
 745:Generated_Source\PSoC4/ADC.c ****     *  adcCounts: Result from the ADC conversion
 746:Generated_Source\PSoC4/ADC.c ****     *
 747:Generated_Source\PSoC4/ADC.c ****     * Return:
 748:Generated_Source\PSoC4/ADC.c ****     *  Results in mVolts
 749:Generated_Source\PSoC4/ADC.c ****     *
 750:Generated_Source\PSoC4/ADC.c ****     * Global variables:
 751:Generated_Source\PSoC4/ADC.c ****     *  ADC_countsPer10Volt:  used to convert ADC counts to mVolts.
 752:Generated_Source\PSoC4/ADC.c ****     *  ADC_Offset:  Used as the offset while converting ADC counts
 753:Generated_Source\PSoC4/ADC.c ****     *   to mVolts.
 754:Generated_Source\PSoC4/ADC.c ****     *
ARM GAS  C:\Users\EDULU~1.DES\AppData\Local\Temp\cctBIIrR.s 			page 30


 755:Generated_Source\PSoC4/ADC.c ****     *******************************************************************************/
 756:Generated_Source\PSoC4/ADC.c ****     int16 ADC_CountsTo_mVolts(uint32 chan, int16 adcCounts)
 757:Generated_Source\PSoC4/ADC.c ****     {
 863              		.loc 1 757 5 is_stmt 1 view -0
 864              		.cfi_startproc
 865              		@ args = 0, pretend = 0, frame = 0
 866              		@ frame_needed = 0, uses_anonymous_args = 0
 867              		.loc 1 757 5 is_stmt 0 view .LVU180
 868 0000 70B5     		push	{r4, r5, r6, lr}
 869              		.cfi_def_cfa_offset 16
 870              		.cfi_offset 4, -16
 871              		.cfi_offset 5, -12
 872              		.cfi_offset 6, -8
 873              		.cfi_offset 14, -4
 874 0002 0400     		movs	r4, r0
 875 0004 0D00     		movs	r5, r1
 758:Generated_Source\PSoC4/ADC.c ****         int16 mVolts;
 876              		.loc 1 758 9 is_stmt 1 view .LVU181
 759:Generated_Source\PSoC4/ADC.c **** 
 760:Generated_Source\PSoC4/ADC.c ****         /* Halt CPU in debug mode if channel is out of valid range */
 761:Generated_Source\PSoC4/ADC.c ****         CYASSERT(chan < ADC_TOTAL_CHANNELS_NUM);
 877              		.loc 1 761 9 view .LVU182
 878              		.loc 1 761 9 view .LVU183
 879 0006 0028     		cmp	r0, #0
 880 0008 16D1     		bne	.L71
 881              	.LVL51:
 882              	.L68:
 762:Generated_Source\PSoC4/ADC.c **** 
 763:Generated_Source\PSoC4/ADC.c ****         /* Divide the adcCount when accumulate averaging mode selected */
 764:Generated_Source\PSoC4/ADC.c ****         #if(ADC_DEFAULT_AVG_MODE == ADC__ACCUMULATE)
 765:Generated_Source\PSoC4/ADC.c ****             if((ADC_channelsConfig[chan] & ADC_AVERAGING_EN) != 0u)
 766:Generated_Source\PSoC4/ADC.c ****             {
 767:Generated_Source\PSoC4/ADC.c ****                 adcCounts /= ADC_DEFAULT_AVG_SAMPLES_DIV;
 768:Generated_Source\PSoC4/ADC.c ****             }
 769:Generated_Source\PSoC4/ADC.c ****         #endif /* ADC_DEFAULT_AVG_MODE == ADC__ACCUMULATE */
 770:Generated_Source\PSoC4/ADC.c **** 
 771:Generated_Source\PSoC4/ADC.c ****         /* Subtract ADC offset */
 772:Generated_Source\PSoC4/ADC.c ****         adcCounts -= ADC_offset[chan];
 883              		.loc 1 772 9 view .LVU184
 884              		.loc 1 772 32 is_stmt 0 view .LVU185
 885 000a 6300     		lsls	r3, r4, #1
 886 000c 104A     		ldr	r2, .L72
 887 000e 995A     		ldrh	r1, [r3, r2]
 888              		.loc 1 772 19 view .LVU186
 889 0010 691A     		subs	r1, r5, r1
 890 0012 09B2     		sxth	r1, r1
 891              	.LVL52:
 773:Generated_Source\PSoC4/ADC.c **** 
 774:Generated_Source\PSoC4/ADC.c ****         mVolts = (int16)((((int32)adcCounts * ADC_10MV_COUNTS) + ( (adcCounts > 0) ?
 892              		.loc 1 774 9 is_stmt 1 view .LVU187
 893              		.loc 1 774 45 is_stmt 0 view .LVU188
 894 0014 0F4B     		ldr	r3, .L72+4
 895 0016 4B43     		muls	r3, r1
 775:Generated_Source\PSoC4/ADC.c ****                  (ADC_countsPer10Volt[chan] / 2) : (-(ADC_countsPer10Volt[chan] / 2)) ))
 896              		.loc 1 775 50 view .LVU189
 897 0018 0029     		cmp	r1, #0
 898 001a 11DD     		ble	.L69
ARM GAS  C:\Users\EDULU~1.DES\AppData\Local\Temp\cctBIIrR.s 			page 31


 899              		.loc 1 775 38 discriminator 1 view .LVU190
 900 001c A200     		lsls	r2, r4, #2
 901 001e 0E49     		ldr	r1, .L72+8
 902              	.LVL53:
 903              		.loc 1 775 38 discriminator 1 view .LVU191
 904 0020 5258     		ldr	r2, [r2, r1]
 905              		.loc 1 775 50 discriminator 1 view .LVU192
 906 0022 D00F     		lsrs	r0, r2, #31
 907 0024 8018     		adds	r0, r0, r2
 908 0026 4010     		asrs	r0, r0, #1
 909              	.L70:
 774:Generated_Source\PSoC4/ADC.c ****                  (ADC_countsPer10Volt[chan] / 2) : (-(ADC_countsPer10Volt[chan] / 2)) ))
 910              		.loc 1 774 64 view .LVU193
 911 0028 1818     		adds	r0, r3, r0
 776:Generated_Source\PSoC4/ADC.c ****                  / ADC_countsPer10Volt[chan]);
 912              		.loc 1 776 39 view .LVU194
 913 002a A400     		lsls	r4, r4, #2
 914              	.LVL54:
 915              		.loc 1 776 39 view .LVU195
 916 002c 0A4B     		ldr	r3, .L72+8
 917 002e E158     		ldr	r1, [r4, r3]
 918              		.loc 1 776 18 view .LVU196
 919 0030 FFF7FEFF 		bl	__aeabi_idiv
 920              	.LVL55:
 774:Generated_Source\PSoC4/ADC.c ****                  (ADC_countsPer10Volt[chan] / 2) : (-(ADC_countsPer10Volt[chan] / 2)) ))
 921              		.loc 1 774 16 view .LVU197
 922 0034 00B2     		sxth	r0, r0
 923              	.LVL56:
 777:Generated_Source\PSoC4/ADC.c **** 
 778:Generated_Source\PSoC4/ADC.c ****         return( mVolts );
 924              		.loc 1 778 9 is_stmt 1 view .LVU198
 779:Generated_Source\PSoC4/ADC.c ****     }
 925              		.loc 1 779 5 is_stmt 0 view .LVU199
 926              		@ sp needed
 927              		.loc 1 779 5 view .LVU200
 928 0036 70BD     		pop	{r4, r5, r6, pc}
 929              	.LVL57:
 930              	.L71:
 761:Generated_Source\PSoC4/ADC.c **** 
 931              		.loc 1 761 9 is_stmt 1 discriminator 1 view .LVU201
 932 0038 0020     		movs	r0, #0
 933              	.LVL58:
 761:Generated_Source\PSoC4/ADC.c **** 
 934              		.loc 1 761 9 is_stmt 0 discriminator 1 view .LVU202
 935 003a FFF7FEFF 		bl	CyHalt
 936              	.LVL59:
 761:Generated_Source\PSoC4/ADC.c **** 
 937              		.loc 1 761 9 discriminator 1 view .LVU203
 938 003e E4E7     		b	.L68
 939              	.LVL60:
 940              	.L69:
 775:Generated_Source\PSoC4/ADC.c ****                  / ADC_countsPer10Volt[chan]);
 941              		.loc 1 775 74 discriminator 2 view .LVU204
 942 0040 A200     		lsls	r2, r4, #2
 943 0042 0549     		ldr	r1, .L72+8
 944              	.LVL61:
 775:Generated_Source\PSoC4/ADC.c ****                  / ADC_countsPer10Volt[chan]);
ARM GAS  C:\Users\EDULU~1.DES\AppData\Local\Temp\cctBIIrR.s 			page 32


 945              		.loc 1 775 74 discriminator 2 view .LVU205
 946 0044 5158     		ldr	r1, [r2, r1]
 775:Generated_Source\PSoC4/ADC.c ****                  / ADC_countsPer10Volt[chan]);
 947              		.loc 1 775 50 discriminator 2 view .LVU206
 948 0046 CA0F     		lsrs	r2, r1, #31
 949 0048 5218     		adds	r2, r2, r1
 950 004a 5210     		asrs	r2, r2, #1
 951 004c 5042     		rsbs	r0, r2, #0
 952 004e EBE7     		b	.L70
 953              	.L73:
 954              		.align	2
 955              	.L72:
 956 0050 00000000 		.word	ADC_offset
 957 0054 10270000 		.word	10000
 958 0058 00000000 		.word	ADC_countsPer10Volt
 959              		.cfi_endproc
 960              	.LFE15:
 961              		.size	ADC_CountsTo_mVolts, .-ADC_CountsTo_mVolts
 962              		.global	__aeabi_lmul
 963              		.global	__aeabi_ldivmod
 964              		.section	.text.ADC_CountsTo_uVolts,"ax",%progbits
 965              		.align	1
 966              		.global	ADC_CountsTo_uVolts
 967              		.syntax unified
 968              		.code	16
 969              		.thumb_func
 970              		.fpu softvfp
 971              		.type	ADC_CountsTo_uVolts, %function
 972              	ADC_CountsTo_uVolts:
 973              	.LVL62:
 974              	.LFB16:
 780:Generated_Source\PSoC4/ADC.c **** 
 781:Generated_Source\PSoC4/ADC.c **** 
 782:Generated_Source\PSoC4/ADC.c ****     /*******************************************************************************
 783:Generated_Source\PSoC4/ADC.c ****     * Function Name: ADC_CountsTo_uVolts
 784:Generated_Source\PSoC4/ADC.c ****     ********************************************************************************
 785:Generated_Source\PSoC4/ADC.c ****     *
 786:Generated_Source\PSoC4/ADC.c ****     * Summary:
 787:Generated_Source\PSoC4/ADC.c ****     *  This function converts ADC counts to micro Volts
 788:Generated_Source\PSoC4/ADC.c ****     *  This function is not available when left data format justification selected.
 789:Generated_Source\PSoC4/ADC.c ****     *
 790:Generated_Source\PSoC4/ADC.c ****     * Parameters:
 791:Generated_Source\PSoC4/ADC.c ****     *  chan: The ADC channel number.
 792:Generated_Source\PSoC4/ADC.c ****     *  adcCounts: Result from the ADC conversion
 793:Generated_Source\PSoC4/ADC.c ****     *
 794:Generated_Source\PSoC4/ADC.c ****     * Return:
 795:Generated_Source\PSoC4/ADC.c ****     *  Results in uVolts
 796:Generated_Source\PSoC4/ADC.c ****     *
 797:Generated_Source\PSoC4/ADC.c ****     * Global variables:
 798:Generated_Source\PSoC4/ADC.c ****     *  ADC_countsPer10Volt:  used to convert ADC counts to uVolts.
 799:Generated_Source\PSoC4/ADC.c ****     *  ADC_Offset:  Used as the offset while converting ADC counts
 800:Generated_Source\PSoC4/ADC.c ****     *   to mVolts.
 801:Generated_Source\PSoC4/ADC.c ****     *
 802:Generated_Source\PSoC4/ADC.c ****     * Theory:
 803:Generated_Source\PSoC4/ADC.c ****     *  Care must be taken to not exceed the maximum value for a 31 bit signed
 804:Generated_Source\PSoC4/ADC.c ****     *  number in the conversion to uVolts and at the same time not loose
 805:Generated_Source\PSoC4/ADC.c ****     *  resolution.
ARM GAS  C:\Users\EDULU~1.DES\AppData\Local\Temp\cctBIIrR.s 			page 33


 806:Generated_Source\PSoC4/ADC.c ****     *  To convert adcCounts to microVolts it is required to be multiplied
 807:Generated_Source\PSoC4/ADC.c ****     *  on 10 million and later divide on gain in counts per 10V.
 808:Generated_Source\PSoC4/ADC.c ****     *
 809:Generated_Source\PSoC4/ADC.c ****     *******************************************************************************/
 810:Generated_Source\PSoC4/ADC.c ****     int32 ADC_CountsTo_uVolts(uint32 chan, int16 adcCounts)
 811:Generated_Source\PSoC4/ADC.c ****     {
 975              		.loc 1 811 5 is_stmt 1 view -0
 976              		.cfi_startproc
 977              		@ args = 0, pretend = 0, frame = 0
 978              		@ frame_needed = 0, uses_anonymous_args = 0
 979              		.loc 1 811 5 is_stmt 0 view .LVU208
 980 0000 70B5     		push	{r4, r5, r6, lr}
 981              		.cfi_def_cfa_offset 16
 982              		.cfi_offset 4, -16
 983              		.cfi_offset 5, -12
 984              		.cfi_offset 6, -8
 985              		.cfi_offset 14, -4
 986 0002 0500     		movs	r5, r0
 987 0004 0C00     		movs	r4, r1
 812:Generated_Source\PSoC4/ADC.c ****         int64 uVolts;
 988              		.loc 1 812 9 is_stmt 1 view .LVU209
 813:Generated_Source\PSoC4/ADC.c **** 
 814:Generated_Source\PSoC4/ADC.c ****         /* Halt CPU in debug mode if channel is out of valid range */
 815:Generated_Source\PSoC4/ADC.c ****         CYASSERT(chan < ADC_TOTAL_CHANNELS_NUM);
 989              		.loc 1 815 9 view .LVU210
 990              		.loc 1 815 9 view .LVU211
 991 0006 0028     		cmp	r0, #0
 992 0008 10D1     		bne	.L76
 993              	.LVL63:
 994              	.L75:
 816:Generated_Source\PSoC4/ADC.c **** 
 817:Generated_Source\PSoC4/ADC.c ****         /* Divide the adcCount when accumulate averaging mode selected */
 818:Generated_Source\PSoC4/ADC.c ****         #if(ADC_DEFAULT_AVG_MODE == ADC__ACCUMULATE)
 819:Generated_Source\PSoC4/ADC.c ****             if((ADC_channelsConfig[chan] & ADC_AVERAGING_EN) != 0u)
 820:Generated_Source\PSoC4/ADC.c ****             {
 821:Generated_Source\PSoC4/ADC.c ****                 adcCounts /= ADC_DEFAULT_AVG_SAMPLES_DIV;
 822:Generated_Source\PSoC4/ADC.c ****             }
 823:Generated_Source\PSoC4/ADC.c ****         #endif /* ADC_DEFAULT_AVG_MODE == ADC__ACCUMULATE */
 824:Generated_Source\PSoC4/ADC.c **** 
 825:Generated_Source\PSoC4/ADC.c ****         /* Subtract ADC offset */
 826:Generated_Source\PSoC4/ADC.c ****         adcCounts -= ADC_offset[chan];
 995              		.loc 1 826 9 view .LVU212
 996              		.loc 1 826 32 is_stmt 0 view .LVU213
 997 000a 6A00     		lsls	r2, r5, #1
 998 000c 094B     		ldr	r3, .L77
 999 000e D05A     		ldrh	r0, [r2, r3]
 1000              		.loc 1 826 19 view .LVU214
 1001 0010 201A     		subs	r0, r4, r0
 1002 0012 00B2     		sxth	r0, r0
 1003              	.LVL64:
 827:Generated_Source\PSoC4/ADC.c **** 
 828:Generated_Source\PSoC4/ADC.c ****         uVolts = ((int64)adcCounts * ADC_10UV_COUNTS) / ADC_countsPer10Volt[chan];
 1004              		.loc 1 828 9 is_stmt 1 view .LVU215
 1005              		.loc 1 828 19 is_stmt 0 view .LVU216
 1006 0014 C117     		asrs	r1, r0, #31
 1007              		.loc 1 828 36 view .LVU217
 1008 0016 084A     		ldr	r2, .L77+4
ARM GAS  C:\Users\EDULU~1.DES\AppData\Local\Temp\cctBIIrR.s 			page 34


 1009 0018 0023     		movs	r3, #0
 1010 001a FFF7FEFF 		bl	__aeabi_lmul
 1011              	.LVL65:
 1012              		.loc 1 828 76 view .LVU218
 1013 001e AD00     		lsls	r5, r5, #2
 1014              	.LVL66:
 1015              		.loc 1 828 76 view .LVU219
 1016 0020 064B     		ldr	r3, .L77+8
 1017 0022 EA58     		ldr	r2, [r5, r3]
 1018 0024 D317     		asrs	r3, r2, #31
 1019              		.loc 1 828 16 view .LVU220
 1020 0026 FFF7FEFF 		bl	__aeabi_ldivmod
 1021              	.LVL67:
 829:Generated_Source\PSoC4/ADC.c **** 
 830:Generated_Source\PSoC4/ADC.c ****         return( (int32)uVolts );
 1022              		.loc 1 830 9 is_stmt 1 view .LVU221
 831:Generated_Source\PSoC4/ADC.c ****     }
 1023              		.loc 1 831 5 is_stmt 0 view .LVU222
 1024              		@ sp needed
 1025              		.loc 1 831 5 view .LVU223
 1026 002a 70BD     		pop	{r4, r5, r6, pc}
 1027              	.LVL68:
 1028              	.L76:
 815:Generated_Source\PSoC4/ADC.c **** 
 1029              		.loc 1 815 9 is_stmt 1 discriminator 1 view .LVU224
 1030 002c 0020     		movs	r0, #0
 1031              	.LVL69:
 815:Generated_Source\PSoC4/ADC.c **** 
 1032              		.loc 1 815 9 is_stmt 0 discriminator 1 view .LVU225
 1033 002e FFF7FEFF 		bl	CyHalt
 1034              	.LVL70:
 815:Generated_Source\PSoC4/ADC.c **** 
 1035              		.loc 1 815 9 discriminator 1 view .LVU226
 1036 0032 EAE7     		b	.L75
 1037              	.L78:
 1038              		.align	2
 1039              	.L77:
 1040 0034 00000000 		.word	ADC_offset
 1041 0038 80969800 		.word	10000000
 1042 003c 00000000 		.word	ADC_countsPer10Volt
 1043              		.cfi_endproc
 1044              	.LFE16:
 1045              		.size	ADC_CountsTo_uVolts, .-ADC_CountsTo_uVolts
 1046              		.global	__aeabi_i2f
 1047              		.global	__aeabi_fmul
 1048              		.global	__aeabi_fdiv
 1049              		.section	.text.ADC_CountsTo_Volts,"ax",%progbits
 1050              		.align	1
 1051              		.global	ADC_CountsTo_Volts
 1052              		.syntax unified
 1053              		.code	16
 1054              		.thumb_func
 1055              		.fpu softvfp
 1056              		.type	ADC_CountsTo_Volts, %function
 1057              	ADC_CountsTo_Volts:
 1058              	.LVL71:
 1059              	.LFB17:
ARM GAS  C:\Users\EDULU~1.DES\AppData\Local\Temp\cctBIIrR.s 			page 35


 832:Generated_Source\PSoC4/ADC.c **** 
 833:Generated_Source\PSoC4/ADC.c **** 
 834:Generated_Source\PSoC4/ADC.c ****     /*******************************************************************************
 835:Generated_Source\PSoC4/ADC.c ****     * Function Name: ADC_CountsTo_Volts
 836:Generated_Source\PSoC4/ADC.c ****     ********************************************************************************
 837:Generated_Source\PSoC4/ADC.c ****     *
 838:Generated_Source\PSoC4/ADC.c ****     * Summary:
 839:Generated_Source\PSoC4/ADC.c ****     *  Converts the ADC output to Volts as a floating point number.
 840:Generated_Source\PSoC4/ADC.c ****     *  This function is not available when left data format justification selected.
 841:Generated_Source\PSoC4/ADC.c ****     *
 842:Generated_Source\PSoC4/ADC.c ****     * Parameters:
 843:Generated_Source\PSoC4/ADC.c ****     *  chan: The ADC channel number.
 844:Generated_Source\PSoC4/ADC.c ****     *  Result from the ADC conversion
 845:Generated_Source\PSoC4/ADC.c ****     *
 846:Generated_Source\PSoC4/ADC.c ****     * Return:
 847:Generated_Source\PSoC4/ADC.c ****     *  Results in Volts
 848:Generated_Source\PSoC4/ADC.c ****     *
 849:Generated_Source\PSoC4/ADC.c ****     * Global variables:
 850:Generated_Source\PSoC4/ADC.c ****     *  ADC_countsPer10Volt:  used to convert ADC counts to Volts.
 851:Generated_Source\PSoC4/ADC.c ****     *  ADC_Offset:  Used as the offset while converting ADC counts
 852:Generated_Source\PSoC4/ADC.c ****     *   to mVolts.
 853:Generated_Source\PSoC4/ADC.c ****     *
 854:Generated_Source\PSoC4/ADC.c ****     *******************************************************************************/
 855:Generated_Source\PSoC4/ADC.c ****     float32 ADC_CountsTo_Volts(uint32 chan, int16 adcCounts)
 856:Generated_Source\PSoC4/ADC.c ****     {
 1060              		.loc 1 856 5 is_stmt 1 view -0
 1061              		.cfi_startproc
 1062              		@ args = 0, pretend = 0, frame = 0
 1063              		@ frame_needed = 0, uses_anonymous_args = 0
 1064              		.loc 1 856 5 is_stmt 0 view .LVU228
 1065 0000 70B5     		push	{r4, r5, r6, lr}
 1066              		.cfi_def_cfa_offset 16
 1067              		.cfi_offset 4, -16
 1068              		.cfi_offset 5, -12
 1069              		.cfi_offset 6, -8
 1070              		.cfi_offset 14, -4
 1071 0002 0400     		movs	r4, r0
 1072 0004 0D00     		movs	r5, r1
 857:Generated_Source\PSoC4/ADC.c ****         float32 volts;
 1073              		.loc 1 857 9 is_stmt 1 view .LVU229
 858:Generated_Source\PSoC4/ADC.c **** 
 859:Generated_Source\PSoC4/ADC.c ****         /* Halt CPU in debug mode if channel is out of valid range */
 860:Generated_Source\PSoC4/ADC.c ****         CYASSERT(chan < ADC_TOTAL_CHANNELS_NUM);
 1074              		.loc 1 860 9 view .LVU230
 1075              		.loc 1 860 9 view .LVU231
 1076 0006 0028     		cmp	r0, #0
 1077 0008 14D1     		bne	.L81
 1078              	.LVL72:
 1079              	.L80:
 861:Generated_Source\PSoC4/ADC.c **** 
 862:Generated_Source\PSoC4/ADC.c ****         /* Divide the adcCount when accumulate averaging mode selected */
 863:Generated_Source\PSoC4/ADC.c ****         #if(ADC_DEFAULT_AVG_MODE == ADC__ACCUMULATE)
 864:Generated_Source\PSoC4/ADC.c ****             if((ADC_channelsConfig[chan] & ADC_AVERAGING_EN) != 0u)
 865:Generated_Source\PSoC4/ADC.c ****             {
 866:Generated_Source\PSoC4/ADC.c ****                 adcCounts /= ADC_DEFAULT_AVG_SAMPLES_DIV;
 867:Generated_Source\PSoC4/ADC.c ****             }
 868:Generated_Source\PSoC4/ADC.c ****         #endif /* ADC_DEFAULT_AVG_MODE == ADC__ACCUMULATE */
ARM GAS  C:\Users\EDULU~1.DES\AppData\Local\Temp\cctBIIrR.s 			page 36


 869:Generated_Source\PSoC4/ADC.c **** 
 870:Generated_Source\PSoC4/ADC.c ****         /* Subtract ADC offset */
 871:Generated_Source\PSoC4/ADC.c ****         adcCounts -= ADC_offset[chan];
 1080              		.loc 1 871 9 view .LVU232
 1081              		.loc 1 871 32 is_stmt 0 view .LVU233
 1082 000a 6200     		lsls	r2, r4, #1
 1083 000c 0B4B     		ldr	r3, .L82
 1084 000e D05A     		ldrh	r0, [r2, r3]
 1085              		.loc 1 871 19 view .LVU234
 1086 0010 281A     		subs	r0, r5, r0
 1087 0012 00B2     		sxth	r0, r0
 1088              	.LVL73:
 872:Generated_Source\PSoC4/ADC.c **** 
 873:Generated_Source\PSoC4/ADC.c ****         volts = ((float32)adcCounts * ADC_10V_COUNTS) / (float32)ADC_countsPer10Volt[chan];
 1089              		.loc 1 873 9 is_stmt 1 view .LVU235
 1090              		.loc 1 873 18 is_stmt 0 view .LVU236
 1091 0014 FFF7FEFF 		bl	__aeabi_i2f
 1092              	.LVL74:
 1093              		.loc 1 873 37 view .LVU237
 1094 0018 0949     		ldr	r1, .L82+4
 1095 001a FFF7FEFF 		bl	__aeabi_fmul
 1096              	.LVL75:
 1097 001e 051C     		adds	r5, r0, #0
 1098              		.loc 1 873 85 view .LVU238
 1099 0020 A400     		lsls	r4, r4, #2
 1100              	.LVL76:
 1101              		.loc 1 873 85 view .LVU239
 1102 0022 084B     		ldr	r3, .L82+8
 1103 0024 E058     		ldr	r0, [r4, r3]
 1104              		.loc 1 873 57 view .LVU240
 1105 0026 FFF7FEFF 		bl	__aeabi_i2f
 1106              	.LVL77:
 1107 002a 011C     		adds	r1, r0, #0
 1108              		.loc 1 873 15 view .LVU241
 1109 002c 281C     		adds	r0, r5, #0
 1110 002e FFF7FEFF 		bl	__aeabi_fdiv
 1111              	.LVL78:
 874:Generated_Source\PSoC4/ADC.c **** 
 875:Generated_Source\PSoC4/ADC.c ****         return( volts );
 1112              		.loc 1 875 9 is_stmt 1 view .LVU242
 876:Generated_Source\PSoC4/ADC.c ****     }
 1113              		.loc 1 876 5 is_stmt 0 view .LVU243
 1114              		@ sp needed
 1115 0032 70BD     		pop	{r4, r5, r6, pc}
 1116              	.LVL79:
 1117              	.L81:
 860:Generated_Source\PSoC4/ADC.c **** 
 1118              		.loc 1 860 9 is_stmt 1 discriminator 1 view .LVU244
 1119 0034 0020     		movs	r0, #0
 1120              	.LVL80:
 860:Generated_Source\PSoC4/ADC.c **** 
 1121              		.loc 1 860 9 is_stmt 0 discriminator 1 view .LVU245
 1122 0036 FFF7FEFF 		bl	CyHalt
 1123              	.LVL81:
 860:Generated_Source\PSoC4/ADC.c **** 
 1124              		.loc 1 860 9 discriminator 1 view .LVU246
 1125 003a E6E7     		b	.L80
ARM GAS  C:\Users\EDULU~1.DES\AppData\Local\Temp\cctBIIrR.s 			page 37


 1126              	.L83:
 1127              		.align	2
 1128              	.L82:
 1129 003c 00000000 		.word	ADC_offset
 1130 0040 00002041 		.word	1092616192
 1131 0044 00000000 		.word	ADC_countsPer10Volt
 1132              		.cfi_endproc
 1133              	.LFE17:
 1134              		.size	ADC_CountsTo_Volts, .-ADC_CountsTo_Volts
 1135              		.comm	ADC_countsPer10Volt,4,4
 1136              		.comm	ADC_offset,2,4
 1137              		.global	ADC_initVar
 1138              		.bss
 1139              		.set	.LANCHOR0,. + 0
 1140              		.type	ADC_initVar, %object
 1141              		.size	ADC_initVar, 1
 1142              	ADC_initVar:
 1143 0000 00       		.space	1
 1144              		.text
 1145              	.Letext0:
 1146              		.file 2 "Generated_Source\\PSoC4\\cytypes.h"
 1147              		.file 3 "c:\\program files (x86)\\gnu tools arm embedded\\8 2018-q4-major\\arm-none-eabi\\include\
 1148              		.file 4 "c:\\program files (x86)\\gnu tools arm embedded\\8 2018-q4-major\\arm-none-eabi\\include\
 1149              		.file 5 "c:\\program files (x86)\\gnu tools arm embedded\\8 2018-q4-major\\lib\\gcc\\arm-none-eabi
 1150              		.file 6 "c:\\program files (x86)\\gnu tools arm embedded\\8 2018-q4-major\\arm-none-eabi\\include\
 1151              		.file 7 "c:\\program files (x86)\\gnu tools arm embedded\\8 2018-q4-major\\arm-none-eabi\\include\
 1152              		.file 8 "Generated_Source\\PSoC4\\CyLib.h"
 1153              		.file 9 "Generated_Source\\PSoC4\\ADC.h"