ARM GAS  C:\Users\EDULU~1.DES\AppData\Local\Temp\ccQoFsJ2.s 			page 1


   1              		.cpu cortex-m0
   2              		.eabi_attribute 20, 1
   3              		.eabi_attribute 21, 1
   4              		.eabi_attribute 23, 3
   5              		.eabi_attribute 24, 1
   6              		.eabi_attribute 25, 1
   7              		.eabi_attribute 26, 1
   8              		.eabi_attribute 30, 1
   9              		.eabi_attribute 34, 0
  10              		.eabi_attribute 18, 4
  11              		.file	"ADC_IRQ.c"
  12              		.text
  13              	.Ltext0:
  14              		.cfi_sections	.debug_frame
  15              		.section	.text.ADC_IRQ_Interrupt,"ax",%progbits
  16              		.align	1
  17              		.global	ADC_IRQ_Interrupt
  18              		.arch armv6s-m
  19              		.syntax unified
  20              		.code	16
  21              		.thumb_func
  22              		.fpu softvfp
  23              		.type	ADC_IRQ_Interrupt, %function
  24              	ADC_IRQ_Interrupt:
  25              	.LFB3:
  26              		.file 1 "Generated_Source\\PSoC4\\ADC_IRQ.c"
   1:Generated_Source\PSoC4/ADC_IRQ.c **** /*******************************************************************************
   2:Generated_Source\PSoC4/ADC_IRQ.c **** * File Name: ADC_IRQ.c  
   3:Generated_Source\PSoC4/ADC_IRQ.c **** * Version 1.70
   4:Generated_Source\PSoC4/ADC_IRQ.c **** *
   5:Generated_Source\PSoC4/ADC_IRQ.c **** *  Description:
   6:Generated_Source\PSoC4/ADC_IRQ.c **** *   API for controlling the state of an interrupt.
   7:Generated_Source\PSoC4/ADC_IRQ.c **** *
   8:Generated_Source\PSoC4/ADC_IRQ.c **** *
   9:Generated_Source\PSoC4/ADC_IRQ.c **** *  Note:
  10:Generated_Source\PSoC4/ADC_IRQ.c **** *
  11:Generated_Source\PSoC4/ADC_IRQ.c **** ********************************************************************************
  12:Generated_Source\PSoC4/ADC_IRQ.c **** * Copyright 2008-2015, Cypress Semiconductor Corporation.  All rights reserved.
  13:Generated_Source\PSoC4/ADC_IRQ.c **** * You may use this file only in accordance with the license, terms, conditions, 
  14:Generated_Source\PSoC4/ADC_IRQ.c **** * disclaimers, and limitations in the end user license agreement accompanying 
  15:Generated_Source\PSoC4/ADC_IRQ.c **** * the software package with which this file was provided.
  16:Generated_Source\PSoC4/ADC_IRQ.c **** *******************************************************************************/
  17:Generated_Source\PSoC4/ADC_IRQ.c **** 
  18:Generated_Source\PSoC4/ADC_IRQ.c **** 
  19:Generated_Source\PSoC4/ADC_IRQ.c **** #include <cydevice_trm.h>
  20:Generated_Source\PSoC4/ADC_IRQ.c **** #include <CyLib.h>
  21:Generated_Source\PSoC4/ADC_IRQ.c **** #include <ADC_IRQ.h>
  22:Generated_Source\PSoC4/ADC_IRQ.c **** 
  23:Generated_Source\PSoC4/ADC_IRQ.c **** 
  24:Generated_Source\PSoC4/ADC_IRQ.c **** #if !defined(ADC_IRQ__REMOVED) /* Check for removal by optimization */
  25:Generated_Source\PSoC4/ADC_IRQ.c **** 
  26:Generated_Source\PSoC4/ADC_IRQ.c **** /*******************************************************************************
  27:Generated_Source\PSoC4/ADC_IRQ.c **** *  Place your includes, defines and code here 
  28:Generated_Source\PSoC4/ADC_IRQ.c **** ********************************************************************************/
  29:Generated_Source\PSoC4/ADC_IRQ.c **** /* `#START ADC_IRQ_intc` */
  30:Generated_Source\PSoC4/ADC_IRQ.c **** 
  31:Generated_Source\PSoC4/ADC_IRQ.c **** /* `#END` */
ARM GAS  C:\Users\EDULU~1.DES\AppData\Local\Temp\ccQoFsJ2.s 			page 2


  32:Generated_Source\PSoC4/ADC_IRQ.c **** 
  33:Generated_Source\PSoC4/ADC_IRQ.c **** extern cyisraddress CyRamVectors[CYINT_IRQ_BASE + CY_NUM_INTERRUPTS];
  34:Generated_Source\PSoC4/ADC_IRQ.c **** 
  35:Generated_Source\PSoC4/ADC_IRQ.c **** /* Declared in startup, used to set unused interrupts to. */
  36:Generated_Source\PSoC4/ADC_IRQ.c **** CY_ISR_PROTO(IntDefaultHandler);
  37:Generated_Source\PSoC4/ADC_IRQ.c **** 
  38:Generated_Source\PSoC4/ADC_IRQ.c **** 
  39:Generated_Source\PSoC4/ADC_IRQ.c **** /*******************************************************************************
  40:Generated_Source\PSoC4/ADC_IRQ.c **** * Function Name: ADC_IRQ_Start
  41:Generated_Source\PSoC4/ADC_IRQ.c **** ********************************************************************************
  42:Generated_Source\PSoC4/ADC_IRQ.c **** *
  43:Generated_Source\PSoC4/ADC_IRQ.c **** * Summary:
  44:Generated_Source\PSoC4/ADC_IRQ.c **** *  Set up the interrupt and enable it. This function disables the interrupt, 
  45:Generated_Source\PSoC4/ADC_IRQ.c **** *  sets the default interrupt vector, sets the priority from the value in the
  46:Generated_Source\PSoC4/ADC_IRQ.c **** *  Design Wide Resources Interrupt Editor, then enables the interrupt to the 
  47:Generated_Source\PSoC4/ADC_IRQ.c **** *  interrupt controller.
  48:Generated_Source\PSoC4/ADC_IRQ.c **** *
  49:Generated_Source\PSoC4/ADC_IRQ.c **** * Parameters:  
  50:Generated_Source\PSoC4/ADC_IRQ.c **** *   None
  51:Generated_Source\PSoC4/ADC_IRQ.c **** *
  52:Generated_Source\PSoC4/ADC_IRQ.c **** * Return:
  53:Generated_Source\PSoC4/ADC_IRQ.c **** *   None
  54:Generated_Source\PSoC4/ADC_IRQ.c **** *
  55:Generated_Source\PSoC4/ADC_IRQ.c **** *******************************************************************************/
  56:Generated_Source\PSoC4/ADC_IRQ.c **** void ADC_IRQ_Start(void)
  57:Generated_Source\PSoC4/ADC_IRQ.c **** {
  58:Generated_Source\PSoC4/ADC_IRQ.c ****     /* For all we know the interrupt is active. */
  59:Generated_Source\PSoC4/ADC_IRQ.c ****     ADC_IRQ_Disable();
  60:Generated_Source\PSoC4/ADC_IRQ.c **** 
  61:Generated_Source\PSoC4/ADC_IRQ.c ****     /* Set the ISR to point to the ADC_IRQ Interrupt. */
  62:Generated_Source\PSoC4/ADC_IRQ.c ****     ADC_IRQ_SetVector(&ADC_IRQ_Interrupt);
  63:Generated_Source\PSoC4/ADC_IRQ.c **** 
  64:Generated_Source\PSoC4/ADC_IRQ.c ****     /* Set the priority. */
  65:Generated_Source\PSoC4/ADC_IRQ.c ****     ADC_IRQ_SetPriority((uint8)ADC_IRQ_INTC_PRIOR_NUMBER);
  66:Generated_Source\PSoC4/ADC_IRQ.c **** 
  67:Generated_Source\PSoC4/ADC_IRQ.c ****     /* Enable it. */
  68:Generated_Source\PSoC4/ADC_IRQ.c ****     ADC_IRQ_Enable();
  69:Generated_Source\PSoC4/ADC_IRQ.c **** }
  70:Generated_Source\PSoC4/ADC_IRQ.c **** 
  71:Generated_Source\PSoC4/ADC_IRQ.c **** 
  72:Generated_Source\PSoC4/ADC_IRQ.c **** /*******************************************************************************
  73:Generated_Source\PSoC4/ADC_IRQ.c **** * Function Name: ADC_IRQ_StartEx
  74:Generated_Source\PSoC4/ADC_IRQ.c **** ********************************************************************************
  75:Generated_Source\PSoC4/ADC_IRQ.c **** *
  76:Generated_Source\PSoC4/ADC_IRQ.c **** * Summary:
  77:Generated_Source\PSoC4/ADC_IRQ.c **** *  Sets up the interrupt and enables it. This function disables the interrupt,
  78:Generated_Source\PSoC4/ADC_IRQ.c **** *  sets the interrupt vector based on the address passed in, sets the priority 
  79:Generated_Source\PSoC4/ADC_IRQ.c **** *  from the value in the Design Wide Resources Interrupt Editor, then enables 
  80:Generated_Source\PSoC4/ADC_IRQ.c **** *  the interrupt to the interrupt controller.
  81:Generated_Source\PSoC4/ADC_IRQ.c **** *  
  82:Generated_Source\PSoC4/ADC_IRQ.c **** *  When defining ISR functions, the CY_ISR and CY_ISR_PROTO macros should be 
  83:Generated_Source\PSoC4/ADC_IRQ.c **** *  used to provide consistent definition across compilers:
  84:Generated_Source\PSoC4/ADC_IRQ.c **** *  
  85:Generated_Source\PSoC4/ADC_IRQ.c **** *  Function definition example:
  86:Generated_Source\PSoC4/ADC_IRQ.c **** *   CY_ISR(MyISR)
  87:Generated_Source\PSoC4/ADC_IRQ.c **** *   {
  88:Generated_Source\PSoC4/ADC_IRQ.c **** *   }
ARM GAS  C:\Users\EDULU~1.DES\AppData\Local\Temp\ccQoFsJ2.s 			page 3


  89:Generated_Source\PSoC4/ADC_IRQ.c **** *   Function prototype example:
  90:Generated_Source\PSoC4/ADC_IRQ.c **** *   CY_ISR_PROTO(MyISR);
  91:Generated_Source\PSoC4/ADC_IRQ.c **** *
  92:Generated_Source\PSoC4/ADC_IRQ.c **** * Parameters:  
  93:Generated_Source\PSoC4/ADC_IRQ.c **** *   address: Address of the ISR to set in the interrupt vector table.
  94:Generated_Source\PSoC4/ADC_IRQ.c **** *
  95:Generated_Source\PSoC4/ADC_IRQ.c **** * Return:
  96:Generated_Source\PSoC4/ADC_IRQ.c **** *   None
  97:Generated_Source\PSoC4/ADC_IRQ.c **** *
  98:Generated_Source\PSoC4/ADC_IRQ.c **** *******************************************************************************/
  99:Generated_Source\PSoC4/ADC_IRQ.c **** void ADC_IRQ_StartEx(cyisraddress address)
 100:Generated_Source\PSoC4/ADC_IRQ.c **** {
 101:Generated_Source\PSoC4/ADC_IRQ.c ****     /* For all we know the interrupt is active. */
 102:Generated_Source\PSoC4/ADC_IRQ.c ****     ADC_IRQ_Disable();
 103:Generated_Source\PSoC4/ADC_IRQ.c **** 
 104:Generated_Source\PSoC4/ADC_IRQ.c ****     /* Set the ISR to point to the ADC_IRQ Interrupt. */
 105:Generated_Source\PSoC4/ADC_IRQ.c ****     ADC_IRQ_SetVector(address);
 106:Generated_Source\PSoC4/ADC_IRQ.c **** 
 107:Generated_Source\PSoC4/ADC_IRQ.c ****     /* Set the priority. */
 108:Generated_Source\PSoC4/ADC_IRQ.c ****     ADC_IRQ_SetPriority((uint8)ADC_IRQ_INTC_PRIOR_NUMBER);
 109:Generated_Source\PSoC4/ADC_IRQ.c **** 
 110:Generated_Source\PSoC4/ADC_IRQ.c ****     /* Enable it. */
 111:Generated_Source\PSoC4/ADC_IRQ.c ****     ADC_IRQ_Enable();
 112:Generated_Source\PSoC4/ADC_IRQ.c **** }
 113:Generated_Source\PSoC4/ADC_IRQ.c **** 
 114:Generated_Source\PSoC4/ADC_IRQ.c **** 
 115:Generated_Source\PSoC4/ADC_IRQ.c **** /*******************************************************************************
 116:Generated_Source\PSoC4/ADC_IRQ.c **** * Function Name: ADC_IRQ_Stop
 117:Generated_Source\PSoC4/ADC_IRQ.c **** ********************************************************************************
 118:Generated_Source\PSoC4/ADC_IRQ.c **** *
 119:Generated_Source\PSoC4/ADC_IRQ.c **** * Summary:
 120:Generated_Source\PSoC4/ADC_IRQ.c **** *   Disables and removes the interrupt.
 121:Generated_Source\PSoC4/ADC_IRQ.c **** *
 122:Generated_Source\PSoC4/ADC_IRQ.c **** * Parameters:  
 123:Generated_Source\PSoC4/ADC_IRQ.c **** *   None
 124:Generated_Source\PSoC4/ADC_IRQ.c **** *
 125:Generated_Source\PSoC4/ADC_IRQ.c **** * Return:
 126:Generated_Source\PSoC4/ADC_IRQ.c **** *   None
 127:Generated_Source\PSoC4/ADC_IRQ.c **** *
 128:Generated_Source\PSoC4/ADC_IRQ.c **** *******************************************************************************/
 129:Generated_Source\PSoC4/ADC_IRQ.c **** void ADC_IRQ_Stop(void)
 130:Generated_Source\PSoC4/ADC_IRQ.c **** {
 131:Generated_Source\PSoC4/ADC_IRQ.c ****     /* Disable this interrupt. */
 132:Generated_Source\PSoC4/ADC_IRQ.c ****     ADC_IRQ_Disable();
 133:Generated_Source\PSoC4/ADC_IRQ.c **** 
 134:Generated_Source\PSoC4/ADC_IRQ.c ****     /* Set the ISR to point to the passive one. */
 135:Generated_Source\PSoC4/ADC_IRQ.c ****     ADC_IRQ_SetVector(&IntDefaultHandler);
 136:Generated_Source\PSoC4/ADC_IRQ.c **** }
 137:Generated_Source\PSoC4/ADC_IRQ.c **** 
 138:Generated_Source\PSoC4/ADC_IRQ.c **** 
 139:Generated_Source\PSoC4/ADC_IRQ.c **** /*******************************************************************************
 140:Generated_Source\PSoC4/ADC_IRQ.c **** * Function Name: ADC_IRQ_Interrupt
 141:Generated_Source\PSoC4/ADC_IRQ.c **** ********************************************************************************
 142:Generated_Source\PSoC4/ADC_IRQ.c **** *
 143:Generated_Source\PSoC4/ADC_IRQ.c **** * Summary:
 144:Generated_Source\PSoC4/ADC_IRQ.c **** *   The default Interrupt Service Routine for ADC_IRQ.
 145:Generated_Source\PSoC4/ADC_IRQ.c **** *
ARM GAS  C:\Users\EDULU~1.DES\AppData\Local\Temp\ccQoFsJ2.s 			page 4


 146:Generated_Source\PSoC4/ADC_IRQ.c **** *   Add custom code between the START and END comments to keep the next version
 147:Generated_Source\PSoC4/ADC_IRQ.c **** *   of this file from over-writing your code.
 148:Generated_Source\PSoC4/ADC_IRQ.c **** *
 149:Generated_Source\PSoC4/ADC_IRQ.c **** *   Note You may use either the default ISR by using this API, or you may define
 150:Generated_Source\PSoC4/ADC_IRQ.c **** *   your own separate ISR through ISR_StartEx().
 151:Generated_Source\PSoC4/ADC_IRQ.c **** *
 152:Generated_Source\PSoC4/ADC_IRQ.c **** * Parameters:  
 153:Generated_Source\PSoC4/ADC_IRQ.c **** *   None
 154:Generated_Source\PSoC4/ADC_IRQ.c **** *
 155:Generated_Source\PSoC4/ADC_IRQ.c **** * Return:
 156:Generated_Source\PSoC4/ADC_IRQ.c **** *   None
 157:Generated_Source\PSoC4/ADC_IRQ.c **** *
 158:Generated_Source\PSoC4/ADC_IRQ.c **** *******************************************************************************/
 159:Generated_Source\PSoC4/ADC_IRQ.c **** CY_ISR(ADC_IRQ_Interrupt)
 160:Generated_Source\PSoC4/ADC_IRQ.c **** {
  27              		.loc 1 160 1 view -0
  28              		.cfi_startproc
  29              		@ args = 0, pretend = 0, frame = 0
  30              		@ frame_needed = 0, uses_anonymous_args = 0
  31              		@ link register save eliminated.
 161:Generated_Source\PSoC4/ADC_IRQ.c ****     #ifdef ADC_IRQ_INTERRUPT_INTERRUPT_CALLBACK
 162:Generated_Source\PSoC4/ADC_IRQ.c ****         ADC_IRQ_Interrupt_InterruptCallback();
 163:Generated_Source\PSoC4/ADC_IRQ.c ****     #endif /* ADC_IRQ_INTERRUPT_INTERRUPT_CALLBACK */ 
 164:Generated_Source\PSoC4/ADC_IRQ.c **** 
 165:Generated_Source\PSoC4/ADC_IRQ.c ****     /*  Place your Interrupt code here. */
 166:Generated_Source\PSoC4/ADC_IRQ.c ****     /* `#START ADC_IRQ_Interrupt` */
 167:Generated_Source\PSoC4/ADC_IRQ.c **** 
 168:Generated_Source\PSoC4/ADC_IRQ.c ****     /* `#END` */
 169:Generated_Source\PSoC4/ADC_IRQ.c **** }
  32              		.loc 1 169 1 view .LVU1
  33              		@ sp needed
  34 0000 7047     		bx	lr
  35              		.cfi_endproc
  36              	.LFE3:
  37              		.size	ADC_IRQ_Interrupt, .-ADC_IRQ_Interrupt
  38              		.section	.text.ADC_IRQ_SetVector,"ax",%progbits
  39              		.align	1
  40              		.global	ADC_IRQ_SetVector
  41              		.syntax unified
  42              		.code	16
  43              		.thumb_func
  44              		.fpu softvfp
  45              		.type	ADC_IRQ_SetVector, %function
  46              	ADC_IRQ_SetVector:
  47              	.LVL0:
  48              	.LFB4:
 170:Generated_Source\PSoC4/ADC_IRQ.c **** 
 171:Generated_Source\PSoC4/ADC_IRQ.c **** 
 172:Generated_Source\PSoC4/ADC_IRQ.c **** /*******************************************************************************
 173:Generated_Source\PSoC4/ADC_IRQ.c **** * Function Name: ADC_IRQ_SetVector
 174:Generated_Source\PSoC4/ADC_IRQ.c **** ********************************************************************************
 175:Generated_Source\PSoC4/ADC_IRQ.c **** *
 176:Generated_Source\PSoC4/ADC_IRQ.c **** * Summary:
 177:Generated_Source\PSoC4/ADC_IRQ.c **** *   Change the ISR vector for the Interrupt. Note calling ADC_IRQ_Start
 178:Generated_Source\PSoC4/ADC_IRQ.c **** *   will override any effect this method would have had. To set the vector 
 179:Generated_Source\PSoC4/ADC_IRQ.c **** *   before the component has been started use ADC_IRQ_StartEx instead.
 180:Generated_Source\PSoC4/ADC_IRQ.c **** * 
ARM GAS  C:\Users\EDULU~1.DES\AppData\Local\Temp\ccQoFsJ2.s 			page 5


 181:Generated_Source\PSoC4/ADC_IRQ.c **** *   When defining ISR functions, the CY_ISR and CY_ISR_PROTO macros should be 
 182:Generated_Source\PSoC4/ADC_IRQ.c **** *   used to provide consistent definition across compilers:
 183:Generated_Source\PSoC4/ADC_IRQ.c **** *
 184:Generated_Source\PSoC4/ADC_IRQ.c **** *   Function definition example:
 185:Generated_Source\PSoC4/ADC_IRQ.c **** *   CY_ISR(MyISR)
 186:Generated_Source\PSoC4/ADC_IRQ.c **** *   {
 187:Generated_Source\PSoC4/ADC_IRQ.c **** *   }
 188:Generated_Source\PSoC4/ADC_IRQ.c **** *
 189:Generated_Source\PSoC4/ADC_IRQ.c **** *   Function prototype example:
 190:Generated_Source\PSoC4/ADC_IRQ.c **** *     CY_ISR_PROTO(MyISR);
 191:Generated_Source\PSoC4/ADC_IRQ.c **** *
 192:Generated_Source\PSoC4/ADC_IRQ.c **** * Parameters:
 193:Generated_Source\PSoC4/ADC_IRQ.c **** *   address: Address of the ISR to set in the interrupt vector table.
 194:Generated_Source\PSoC4/ADC_IRQ.c **** *
 195:Generated_Source\PSoC4/ADC_IRQ.c **** * Return:
 196:Generated_Source\PSoC4/ADC_IRQ.c **** *   None
 197:Generated_Source\PSoC4/ADC_IRQ.c **** *
 198:Generated_Source\PSoC4/ADC_IRQ.c **** *******************************************************************************/
 199:Generated_Source\PSoC4/ADC_IRQ.c **** void ADC_IRQ_SetVector(cyisraddress address)
 200:Generated_Source\PSoC4/ADC_IRQ.c **** {
  49              		.loc 1 200 1 view -0
  50              		.cfi_startproc
  51              		@ args = 0, pretend = 0, frame = 0
  52              		@ frame_needed = 0, uses_anonymous_args = 0
  53              		@ link register save eliminated.
 201:Generated_Source\PSoC4/ADC_IRQ.c ****     CyRamVectors[CYINT_IRQ_BASE + ADC_IRQ__INTC_NUMBER] = address;
  54              		.loc 1 201 5 view .LVU3
  55              		.loc 1 201 57 is_stmt 0 view .LVU4
  56 0000 014B     		ldr	r3, .L3
  57 0002 9867     		str	r0, [r3, #120]
 202:Generated_Source\PSoC4/ADC_IRQ.c **** }
  58              		.loc 1 202 1 view .LVU5
  59              		@ sp needed
  60 0004 7047     		bx	lr
  61              	.L4:
  62 0006 C046     		.align	2
  63              	.L3:
  64 0008 00000000 		.word	CyRamVectors
  65              		.cfi_endproc
  66              	.LFE4:
  67              		.size	ADC_IRQ_SetVector, .-ADC_IRQ_SetVector
  68              		.section	.text.ADC_IRQ_GetVector,"ax",%progbits
  69              		.align	1
  70              		.global	ADC_IRQ_GetVector
  71              		.syntax unified
  72              		.code	16
  73              		.thumb_func
  74              		.fpu softvfp
  75              		.type	ADC_IRQ_GetVector, %function
  76              	ADC_IRQ_GetVector:
  77              	.LFB5:
 203:Generated_Source\PSoC4/ADC_IRQ.c **** 
 204:Generated_Source\PSoC4/ADC_IRQ.c **** 
 205:Generated_Source\PSoC4/ADC_IRQ.c **** /*******************************************************************************
 206:Generated_Source\PSoC4/ADC_IRQ.c **** * Function Name: ADC_IRQ_GetVector
 207:Generated_Source\PSoC4/ADC_IRQ.c **** ********************************************************************************
 208:Generated_Source\PSoC4/ADC_IRQ.c **** *
ARM GAS  C:\Users\EDULU~1.DES\AppData\Local\Temp\ccQoFsJ2.s 			page 6


 209:Generated_Source\PSoC4/ADC_IRQ.c **** * Summary:
 210:Generated_Source\PSoC4/ADC_IRQ.c **** *   Gets the "address" of the current ISR vector for the Interrupt.
 211:Generated_Source\PSoC4/ADC_IRQ.c **** *
 212:Generated_Source\PSoC4/ADC_IRQ.c **** * Parameters:
 213:Generated_Source\PSoC4/ADC_IRQ.c **** *   None
 214:Generated_Source\PSoC4/ADC_IRQ.c **** *
 215:Generated_Source\PSoC4/ADC_IRQ.c **** * Return:
 216:Generated_Source\PSoC4/ADC_IRQ.c **** *   Address of the ISR in the interrupt vector table.
 217:Generated_Source\PSoC4/ADC_IRQ.c **** *
 218:Generated_Source\PSoC4/ADC_IRQ.c **** *******************************************************************************/
 219:Generated_Source\PSoC4/ADC_IRQ.c **** cyisraddress ADC_IRQ_GetVector(void)
 220:Generated_Source\PSoC4/ADC_IRQ.c **** {
  78              		.loc 1 220 1 is_stmt 1 view -0
  79              		.cfi_startproc
  80              		@ args = 0, pretend = 0, frame = 0
  81              		@ frame_needed = 0, uses_anonymous_args = 0
  82              		@ link register save eliminated.
 221:Generated_Source\PSoC4/ADC_IRQ.c ****     return CyRamVectors[CYINT_IRQ_BASE + ADC_IRQ__INTC_NUMBER];
  83              		.loc 1 221 5 view .LVU7
  84              		.loc 1 221 24 is_stmt 0 view .LVU8
  85 0000 014B     		ldr	r3, .L6
  86 0002 986F     		ldr	r0, [r3, #120]
 222:Generated_Source\PSoC4/ADC_IRQ.c **** }
  87              		.loc 1 222 1 view .LVU9
  88              		@ sp needed
  89 0004 7047     		bx	lr
  90              	.L7:
  91 0006 C046     		.align	2
  92              	.L6:
  93 0008 00000000 		.word	CyRamVectors
  94              		.cfi_endproc
  95              	.LFE5:
  96              		.size	ADC_IRQ_GetVector, .-ADC_IRQ_GetVector
  97              		.section	.text.ADC_IRQ_SetPriority,"ax",%progbits
  98              		.align	1
  99              		.global	ADC_IRQ_SetPriority
 100              		.syntax unified
 101              		.code	16
 102              		.thumb_func
 103              		.fpu softvfp
 104              		.type	ADC_IRQ_SetPriority, %function
 105              	ADC_IRQ_SetPriority:
 106              	.LVL1:
 107              	.LFB6:
 223:Generated_Source\PSoC4/ADC_IRQ.c **** 
 224:Generated_Source\PSoC4/ADC_IRQ.c **** 
 225:Generated_Source\PSoC4/ADC_IRQ.c **** /*******************************************************************************
 226:Generated_Source\PSoC4/ADC_IRQ.c **** * Function Name: ADC_IRQ_SetPriority
 227:Generated_Source\PSoC4/ADC_IRQ.c **** ********************************************************************************
 228:Generated_Source\PSoC4/ADC_IRQ.c **** *
 229:Generated_Source\PSoC4/ADC_IRQ.c **** * Summary:
 230:Generated_Source\PSoC4/ADC_IRQ.c **** *   Sets the Priority of the Interrupt. 
 231:Generated_Source\PSoC4/ADC_IRQ.c **** *
 232:Generated_Source\PSoC4/ADC_IRQ.c **** *   Note calling ADC_IRQ_Start or ADC_IRQ_StartEx will 
 233:Generated_Source\PSoC4/ADC_IRQ.c **** *   override any effect this API would have had. This API should only be called
 234:Generated_Source\PSoC4/ADC_IRQ.c **** *   after ADC_IRQ_Start or ADC_IRQ_StartEx has been called. 
 235:Generated_Source\PSoC4/ADC_IRQ.c **** *   To set the initial priority for the component, use the Design-Wide Resources
ARM GAS  C:\Users\EDULU~1.DES\AppData\Local\Temp\ccQoFsJ2.s 			page 7


 236:Generated_Source\PSoC4/ADC_IRQ.c **** *   Interrupt Editor.
 237:Generated_Source\PSoC4/ADC_IRQ.c **** *
 238:Generated_Source\PSoC4/ADC_IRQ.c **** *   Note This API has no effect on Non-maskable interrupt NMI).
 239:Generated_Source\PSoC4/ADC_IRQ.c **** *
 240:Generated_Source\PSoC4/ADC_IRQ.c **** * Parameters:
 241:Generated_Source\PSoC4/ADC_IRQ.c **** *   priority: Priority of the interrupt, 0 being the highest priority
 242:Generated_Source\PSoC4/ADC_IRQ.c **** *             PSoC 3 and PSoC 5LP: Priority is from 0 to 7.
 243:Generated_Source\PSoC4/ADC_IRQ.c **** *             PSoC 4: Priority is from 0 to 3.
 244:Generated_Source\PSoC4/ADC_IRQ.c **** *
 245:Generated_Source\PSoC4/ADC_IRQ.c **** * Return:
 246:Generated_Source\PSoC4/ADC_IRQ.c **** *   None
 247:Generated_Source\PSoC4/ADC_IRQ.c **** *
 248:Generated_Source\PSoC4/ADC_IRQ.c **** *******************************************************************************/
 249:Generated_Source\PSoC4/ADC_IRQ.c **** void ADC_IRQ_SetPriority(uint8 priority)
 250:Generated_Source\PSoC4/ADC_IRQ.c **** {
 108              		.loc 1 250 1 is_stmt 1 view -0
 109              		.cfi_startproc
 110              		@ args = 0, pretend = 0, frame = 0
 111              		@ frame_needed = 0, uses_anonymous_args = 0
 112              		.loc 1 250 1 is_stmt 0 view .LVU11
 113 0000 10B5     		push	{r4, lr}
 114              		.cfi_def_cfa_offset 8
 115              		.cfi_offset 4, -8
 116              		.cfi_offset 14, -4
 117 0002 0400     		movs	r4, r0
 251:Generated_Source\PSoC4/ADC_IRQ.c **** 	uint8 interruptState;
 118              		.loc 1 251 2 is_stmt 1 view .LVU12
 252:Generated_Source\PSoC4/ADC_IRQ.c ****     uint32 priorityOffset = ((ADC_IRQ__INTC_NUMBER % 4u) * 8u) + 6u;
 119              		.loc 1 252 5 view .LVU13
 120              	.LVL2:
 253:Generated_Source\PSoC4/ADC_IRQ.c ****     
 254:Generated_Source\PSoC4/ADC_IRQ.c **** 	interruptState = CyEnterCriticalSection();
 121              		.loc 1 254 2 view .LVU14
 122              		.loc 1 254 19 is_stmt 0 view .LVU15
 123 0004 FFF7FEFF 		bl	CyEnterCriticalSection
 124              	.LVL3:
 255:Generated_Source\PSoC4/ADC_IRQ.c ****     *ADC_IRQ_INTC_PRIOR = (*ADC_IRQ_INTC_PRIOR & (uint32)(~ADC_IRQ__INTC_PRIOR_MASK)) |
 125              		.loc 1 255 5 is_stmt 1 view .LVU16
 126              		.loc 1 255 28 is_stmt 0 view .LVU17
 127 0008 044A     		ldr	r2, .L9
 128 000a 1368     		ldr	r3, [r2]
 129              		.loc 1 255 48 view .LVU18
 130 000c 0449     		ldr	r1, .L9+4
 131 000e 0B40     		ands	r3, r1
 256:Generated_Source\PSoC4/ADC_IRQ.c ****                                     ((uint32)priority << priorityOffset);
 132              		.loc 1 256 55 view .LVU19
 133 0010 A405     		lsls	r4, r4, #22
 255:Generated_Source\PSoC4/ADC_IRQ.c ****     *ADC_IRQ_INTC_PRIOR = (*ADC_IRQ_INTC_PRIOR & (uint32)(~ADC_IRQ__INTC_PRIOR_MASK)) |
 134              		.loc 1 255 87 view .LVU20
 135 0012 2343     		orrs	r3, r4
 255:Generated_Source\PSoC4/ADC_IRQ.c ****     *ADC_IRQ_INTC_PRIOR = (*ADC_IRQ_INTC_PRIOR & (uint32)(~ADC_IRQ__INTC_PRIOR_MASK)) |
 136              		.loc 1 255 25 view .LVU21
 137 0014 1360     		str	r3, [r2]
 257:Generated_Source\PSoC4/ADC_IRQ.c **** 	CyExitCriticalSection(interruptState);
 138              		.loc 1 257 2 is_stmt 1 view .LVU22
 139 0016 FFF7FEFF 		bl	CyExitCriticalSection
 140              	.LVL4:
ARM GAS  C:\Users\EDULU~1.DES\AppData\Local\Temp\ccQoFsJ2.s 			page 8


 258:Generated_Source\PSoC4/ADC_IRQ.c **** }
 141              		.loc 1 258 1 is_stmt 0 view .LVU23
 142              		@ sp needed
 143 001a 10BD     		pop	{r4, pc}
 144              	.L10:
 145              		.align	2
 146              	.L9:
 147 001c 0CE400E0 		.word	-536812532
 148 0020 FFFF3FFF 		.word	-12582913
 149              		.cfi_endproc
 150              	.LFE6:
 151              		.size	ADC_IRQ_SetPriority, .-ADC_IRQ_SetPriority
 152              		.section	.text.ADC_IRQ_GetPriority,"ax",%progbits
 153              		.align	1
 154              		.global	ADC_IRQ_GetPriority
 155              		.syntax unified
 156              		.code	16
 157              		.thumb_func
 158              		.fpu softvfp
 159              		.type	ADC_IRQ_GetPriority, %function
 160              	ADC_IRQ_GetPriority:
 161              	.LFB7:
 259:Generated_Source\PSoC4/ADC_IRQ.c **** 
 260:Generated_Source\PSoC4/ADC_IRQ.c **** 
 261:Generated_Source\PSoC4/ADC_IRQ.c **** /*******************************************************************************
 262:Generated_Source\PSoC4/ADC_IRQ.c **** * Function Name: ADC_IRQ_GetPriority
 263:Generated_Source\PSoC4/ADC_IRQ.c **** ********************************************************************************
 264:Generated_Source\PSoC4/ADC_IRQ.c **** *
 265:Generated_Source\PSoC4/ADC_IRQ.c **** * Summary:
 266:Generated_Source\PSoC4/ADC_IRQ.c **** *   Gets the Priority of the Interrupt.
 267:Generated_Source\PSoC4/ADC_IRQ.c **** *
 268:Generated_Source\PSoC4/ADC_IRQ.c **** * Parameters:
 269:Generated_Source\PSoC4/ADC_IRQ.c **** *   None
 270:Generated_Source\PSoC4/ADC_IRQ.c **** *
 271:Generated_Source\PSoC4/ADC_IRQ.c **** * Return:
 272:Generated_Source\PSoC4/ADC_IRQ.c **** *   Priority of the interrupt, 0 being the highest priority
 273:Generated_Source\PSoC4/ADC_IRQ.c **** *    PSoC 3 and PSoC 5LP: Priority is from 0 to 7.
 274:Generated_Source\PSoC4/ADC_IRQ.c **** *    PSoC 4: Priority is from 0 to 3.
 275:Generated_Source\PSoC4/ADC_IRQ.c **** *
 276:Generated_Source\PSoC4/ADC_IRQ.c **** *******************************************************************************/
 277:Generated_Source\PSoC4/ADC_IRQ.c **** uint8 ADC_IRQ_GetPriority(void)
 278:Generated_Source\PSoC4/ADC_IRQ.c **** {
 162              		.loc 1 278 1 is_stmt 1 view -0
 163              		.cfi_startproc
 164              		@ args = 0, pretend = 0, frame = 0
 165              		@ frame_needed = 0, uses_anonymous_args = 0
 166              		@ link register save eliminated.
 279:Generated_Source\PSoC4/ADC_IRQ.c ****     uint32 priority;
 167              		.loc 1 279 5 view .LVU25
 280:Generated_Source\PSoC4/ADC_IRQ.c **** 	uint32 priorityOffset = ((ADC_IRQ__INTC_NUMBER % 4u) * 8u) + 6u;
 168              		.loc 1 280 2 view .LVU26
 169              	.LVL5:
 281:Generated_Source\PSoC4/ADC_IRQ.c **** 
 282:Generated_Source\PSoC4/ADC_IRQ.c ****     priority = (*ADC_IRQ_INTC_PRIOR & ADC_IRQ__INTC_PRIOR_MASK) >> priorityOffset;
 170              		.loc 1 282 5 view .LVU27
 171              		.loc 1 282 17 is_stmt 0 view .LVU28
 172 0000 024B     		ldr	r3, .L12
ARM GAS  C:\Users\EDULU~1.DES\AppData\Local\Temp\ccQoFsJ2.s 			page 9


 173 0002 1B68     		ldr	r3, [r3]
 174              		.loc 1 282 14 view .LVU29
 175 0004 9B0D     		lsrs	r3, r3, #22
 176              	.LVL6:
 283:Generated_Source\PSoC4/ADC_IRQ.c **** 
 284:Generated_Source\PSoC4/ADC_IRQ.c ****     return (uint8)priority;
 177              		.loc 1 284 5 is_stmt 1 view .LVU30
 178              		.loc 1 284 12 is_stmt 0 view .LVU31
 179 0006 0320     		movs	r0, #3
 180 0008 1840     		ands	r0, r3
 181              	.LVL7:
 285:Generated_Source\PSoC4/ADC_IRQ.c **** }
 182              		.loc 1 285 1 view .LVU32
 183              		@ sp needed
 184 000a 7047     		bx	lr
 185              	.L13:
 186              		.align	2
 187              	.L12:
 188 000c 0CE400E0 		.word	-536812532
 189              		.cfi_endproc
 190              	.LFE7:
 191              		.size	ADC_IRQ_GetPriority, .-ADC_IRQ_GetPriority
 192              		.section	.text.ADC_IRQ_Enable,"ax",%progbits
 193              		.align	1
 194              		.global	ADC_IRQ_Enable
 195              		.syntax unified
 196              		.code	16
 197              		.thumb_func
 198              		.fpu softvfp
 199              		.type	ADC_IRQ_Enable, %function
 200              	ADC_IRQ_Enable:
 201              	.LFB8:
 286:Generated_Source\PSoC4/ADC_IRQ.c **** 
 287:Generated_Source\PSoC4/ADC_IRQ.c **** 
 288:Generated_Source\PSoC4/ADC_IRQ.c **** /*******************************************************************************
 289:Generated_Source\PSoC4/ADC_IRQ.c **** * Function Name: ADC_IRQ_Enable
 290:Generated_Source\PSoC4/ADC_IRQ.c **** ********************************************************************************
 291:Generated_Source\PSoC4/ADC_IRQ.c **** *
 292:Generated_Source\PSoC4/ADC_IRQ.c **** * Summary:
 293:Generated_Source\PSoC4/ADC_IRQ.c **** *   Enables the interrupt to the interrupt controller. Do not call this function
 294:Generated_Source\PSoC4/ADC_IRQ.c **** *   unless ISR_Start() has been called or the functionality of the ISR_Start() 
 295:Generated_Source\PSoC4/ADC_IRQ.c **** *   function, which sets the vector and the priority, has been called.
 296:Generated_Source\PSoC4/ADC_IRQ.c **** *
 297:Generated_Source\PSoC4/ADC_IRQ.c **** * Parameters:
 298:Generated_Source\PSoC4/ADC_IRQ.c **** *   None
 299:Generated_Source\PSoC4/ADC_IRQ.c **** *
 300:Generated_Source\PSoC4/ADC_IRQ.c **** * Return:
 301:Generated_Source\PSoC4/ADC_IRQ.c **** *   None
 302:Generated_Source\PSoC4/ADC_IRQ.c **** *
 303:Generated_Source\PSoC4/ADC_IRQ.c **** *******************************************************************************/
 304:Generated_Source\PSoC4/ADC_IRQ.c **** void ADC_IRQ_Enable(void)
 305:Generated_Source\PSoC4/ADC_IRQ.c **** {
 202              		.loc 1 305 1 is_stmt 1 view -0
 203              		.cfi_startproc
 204              		@ args = 0, pretend = 0, frame = 0
 205              		@ frame_needed = 0, uses_anonymous_args = 0
 206              		@ link register save eliminated.
ARM GAS  C:\Users\EDULU~1.DES\AppData\Local\Temp\ccQoFsJ2.s 			page 10


 306:Generated_Source\PSoC4/ADC_IRQ.c ****     /* Enable the general interrupt. */
 307:Generated_Source\PSoC4/ADC_IRQ.c ****     *ADC_IRQ_INTC_SET_EN = ADC_IRQ__INTC_MASK;
 207              		.loc 1 307 5 view .LVU34
 208              		.loc 1 307 26 is_stmt 0 view .LVU35
 209 0000 024B     		ldr	r3, .L15
 210 0002 8022     		movs	r2, #128
 211 0004 D201     		lsls	r2, r2, #7
 212 0006 1A60     		str	r2, [r3]
 308:Generated_Source\PSoC4/ADC_IRQ.c **** }
 213              		.loc 1 308 1 view .LVU36
 214              		@ sp needed
 215 0008 7047     		bx	lr
 216              	.L16:
 217 000a C046     		.align	2
 218              	.L15:
 219 000c 00E100E0 		.word	-536813312
 220              		.cfi_endproc
 221              	.LFE8:
 222              		.size	ADC_IRQ_Enable, .-ADC_IRQ_Enable
 223              		.section	.text.ADC_IRQ_GetState,"ax",%progbits
 224              		.align	1
 225              		.global	ADC_IRQ_GetState
 226              		.syntax unified
 227              		.code	16
 228              		.thumb_func
 229              		.fpu softvfp
 230              		.type	ADC_IRQ_GetState, %function
 231              	ADC_IRQ_GetState:
 232              	.LFB9:
 309:Generated_Source\PSoC4/ADC_IRQ.c **** 
 310:Generated_Source\PSoC4/ADC_IRQ.c **** 
 311:Generated_Source\PSoC4/ADC_IRQ.c **** /*******************************************************************************
 312:Generated_Source\PSoC4/ADC_IRQ.c **** * Function Name: ADC_IRQ_GetState
 313:Generated_Source\PSoC4/ADC_IRQ.c **** ********************************************************************************
 314:Generated_Source\PSoC4/ADC_IRQ.c **** *
 315:Generated_Source\PSoC4/ADC_IRQ.c **** * Summary:
 316:Generated_Source\PSoC4/ADC_IRQ.c **** *   Gets the state (enabled, disabled) of the Interrupt.
 317:Generated_Source\PSoC4/ADC_IRQ.c **** *
 318:Generated_Source\PSoC4/ADC_IRQ.c **** * Parameters:
 319:Generated_Source\PSoC4/ADC_IRQ.c **** *   None
 320:Generated_Source\PSoC4/ADC_IRQ.c **** *
 321:Generated_Source\PSoC4/ADC_IRQ.c **** * Return:
 322:Generated_Source\PSoC4/ADC_IRQ.c **** *   1 if enabled, 0 if disabled.
 323:Generated_Source\PSoC4/ADC_IRQ.c **** *
 324:Generated_Source\PSoC4/ADC_IRQ.c **** *******************************************************************************/
 325:Generated_Source\PSoC4/ADC_IRQ.c **** uint8 ADC_IRQ_GetState(void)
 326:Generated_Source\PSoC4/ADC_IRQ.c **** {
 233              		.loc 1 326 1 is_stmt 1 view -0
 234              		.cfi_startproc
 235              		@ args = 0, pretend = 0, frame = 0
 236              		@ frame_needed = 0, uses_anonymous_args = 0
 237              		@ link register save eliminated.
 327:Generated_Source\PSoC4/ADC_IRQ.c ****     /* Get the state of the general interrupt. */
 328:Generated_Source\PSoC4/ADC_IRQ.c ****     return ((*ADC_IRQ_INTC_SET_EN & (uint32)ADC_IRQ__INTC_MASK) != 0u) ? 1u:0u;
 238              		.loc 1 328 5 view .LVU38
 239              		.loc 1 328 14 is_stmt 0 view .LVU39
 240 0000 034B     		ldr	r3, .L20
ARM GAS  C:\Users\EDULU~1.DES\AppData\Local\Temp\ccQoFsJ2.s 			page 11


 241 0002 1B68     		ldr	r3, [r3]
 242              		.loc 1 328 76 view .LVU40
 243 0004 5B04     		lsls	r3, r3, #17
 244 0006 01D5     		bpl	.L19
 245 0008 0120     		movs	r0, #1
 246              	.L18:
 329:Generated_Source\PSoC4/ADC_IRQ.c **** }
 247              		.loc 1 329 1 discriminator 4 view .LVU41
 248              		@ sp needed
 249 000a 7047     		bx	lr
 250              	.L19:
 328:Generated_Source\PSoC4/ADC_IRQ.c **** }
 251              		.loc 1 328 76 view .LVU42
 252 000c 0020     		movs	r0, #0
 253 000e FCE7     		b	.L18
 254              	.L21:
 255              		.align	2
 256              	.L20:
 257 0010 00E100E0 		.word	-536813312
 258              		.cfi_endproc
 259              	.LFE9:
 260              		.size	ADC_IRQ_GetState, .-ADC_IRQ_GetState
 261              		.section	.text.ADC_IRQ_Disable,"ax",%progbits
 262              		.align	1
 263              		.global	ADC_IRQ_Disable
 264              		.syntax unified
 265              		.code	16
 266              		.thumb_func
 267              		.fpu softvfp
 268              		.type	ADC_IRQ_Disable, %function
 269              	ADC_IRQ_Disable:
 270              	.LFB10:
 330:Generated_Source\PSoC4/ADC_IRQ.c **** 
 331:Generated_Source\PSoC4/ADC_IRQ.c **** 
 332:Generated_Source\PSoC4/ADC_IRQ.c **** /*******************************************************************************
 333:Generated_Source\PSoC4/ADC_IRQ.c **** * Function Name: ADC_IRQ_Disable
 334:Generated_Source\PSoC4/ADC_IRQ.c **** ********************************************************************************
 335:Generated_Source\PSoC4/ADC_IRQ.c **** *
 336:Generated_Source\PSoC4/ADC_IRQ.c **** * Summary:
 337:Generated_Source\PSoC4/ADC_IRQ.c **** *   Disables the Interrupt in the interrupt controller.
 338:Generated_Source\PSoC4/ADC_IRQ.c **** *
 339:Generated_Source\PSoC4/ADC_IRQ.c **** * Parameters:
 340:Generated_Source\PSoC4/ADC_IRQ.c **** *   None
 341:Generated_Source\PSoC4/ADC_IRQ.c **** *
 342:Generated_Source\PSoC4/ADC_IRQ.c **** * Return:
 343:Generated_Source\PSoC4/ADC_IRQ.c **** *   None
 344:Generated_Source\PSoC4/ADC_IRQ.c **** *
 345:Generated_Source\PSoC4/ADC_IRQ.c **** *******************************************************************************/
 346:Generated_Source\PSoC4/ADC_IRQ.c **** void ADC_IRQ_Disable(void)
 347:Generated_Source\PSoC4/ADC_IRQ.c **** {
 271              		.loc 1 347 1 is_stmt 1 view -0
 272              		.cfi_startproc
 273              		@ args = 0, pretend = 0, frame = 0
 274              		@ frame_needed = 0, uses_anonymous_args = 0
 275              		@ link register save eliminated.
 348:Generated_Source\PSoC4/ADC_IRQ.c ****     /* Disable the general interrupt. */
 349:Generated_Source\PSoC4/ADC_IRQ.c ****     *ADC_IRQ_INTC_CLR_EN = ADC_IRQ__INTC_MASK;
ARM GAS  C:\Users\EDULU~1.DES\AppData\Local\Temp\ccQoFsJ2.s 			page 12


 276              		.loc 1 349 5 view .LVU44
 277              		.loc 1 349 26 is_stmt 0 view .LVU45
 278 0000 024B     		ldr	r3, .L23
 279 0002 8022     		movs	r2, #128
 280 0004 D201     		lsls	r2, r2, #7
 281 0006 1A60     		str	r2, [r3]
 350:Generated_Source\PSoC4/ADC_IRQ.c **** }
 282              		.loc 1 350 1 view .LVU46
 283              		@ sp needed
 284 0008 7047     		bx	lr
 285              	.L24:
 286 000a C046     		.align	2
 287              	.L23:
 288 000c 80E100E0 		.word	-536813184
 289              		.cfi_endproc
 290              	.LFE10:
 291              		.size	ADC_IRQ_Disable, .-ADC_IRQ_Disable
 292              		.section	.text.ADC_IRQ_Start,"ax",%progbits
 293              		.align	1
 294              		.global	ADC_IRQ_Start
 295              		.syntax unified
 296              		.code	16
 297              		.thumb_func
 298              		.fpu softvfp
 299              		.type	ADC_IRQ_Start, %function
 300              	ADC_IRQ_Start:
 301              	.LFB0:
  57:Generated_Source\PSoC4/ADC_IRQ.c ****     /* For all we know the interrupt is active. */
 302              		.loc 1 57 1 is_stmt 1 view -0
 303              		.cfi_startproc
 304              		@ args = 0, pretend = 0, frame = 0
 305              		@ frame_needed = 0, uses_anonymous_args = 0
 306 0000 10B5     		push	{r4, lr}
 307              		.cfi_def_cfa_offset 8
 308              		.cfi_offset 4, -8
 309              		.cfi_offset 14, -4
  59:Generated_Source\PSoC4/ADC_IRQ.c **** 
 310              		.loc 1 59 5 view .LVU48
 311 0002 FFF7FEFF 		bl	ADC_IRQ_Disable
 312              	.LVL8:
  62:Generated_Source\PSoC4/ADC_IRQ.c **** 
 313              		.loc 1 62 5 view .LVU49
 314 0006 0448     		ldr	r0, .L26
 315 0008 FFF7FEFF 		bl	ADC_IRQ_SetVector
 316              	.LVL9:
  65:Generated_Source\PSoC4/ADC_IRQ.c **** 
 317              		.loc 1 65 5 view .LVU50
 318 000c 0320     		movs	r0, #3
 319 000e FFF7FEFF 		bl	ADC_IRQ_SetPriority
 320              	.LVL10:
  68:Generated_Source\PSoC4/ADC_IRQ.c **** }
 321              		.loc 1 68 5 view .LVU51
 322 0012 FFF7FEFF 		bl	ADC_IRQ_Enable
 323              	.LVL11:
  69:Generated_Source\PSoC4/ADC_IRQ.c **** 
 324              		.loc 1 69 1 is_stmt 0 view .LVU52
 325              		@ sp needed
ARM GAS  C:\Users\EDULU~1.DES\AppData\Local\Temp\ccQoFsJ2.s 			page 13


 326 0016 10BD     		pop	{r4, pc}
 327              	.L27:
 328              		.align	2
 329              	.L26:
 330 0018 00000000 		.word	ADC_IRQ_Interrupt
 331              		.cfi_endproc
 332              	.LFE0:
 333              		.size	ADC_IRQ_Start, .-ADC_IRQ_Start
 334              		.section	.text.ADC_IRQ_StartEx,"ax",%progbits
 335              		.align	1
 336              		.global	ADC_IRQ_StartEx
 337              		.syntax unified
 338              		.code	16
 339              		.thumb_func
 340              		.fpu softvfp
 341              		.type	ADC_IRQ_StartEx, %function
 342              	ADC_IRQ_StartEx:
 343              	.LVL12:
 344              	.LFB1:
 100:Generated_Source\PSoC4/ADC_IRQ.c ****     /* For all we know the interrupt is active. */
 345              		.loc 1 100 1 is_stmt 1 view -0
 346              		.cfi_startproc
 347              		@ args = 0, pretend = 0, frame = 0
 348              		@ frame_needed = 0, uses_anonymous_args = 0
 100:Generated_Source\PSoC4/ADC_IRQ.c ****     /* For all we know the interrupt is active. */
 349              		.loc 1 100 1 is_stmt 0 view .LVU54
 350 0000 10B5     		push	{r4, lr}
 351              		.cfi_def_cfa_offset 8
 352              		.cfi_offset 4, -8
 353              		.cfi_offset 14, -4
 354 0002 0400     		movs	r4, r0
 102:Generated_Source\PSoC4/ADC_IRQ.c **** 
 355              		.loc 1 102 5 is_stmt 1 view .LVU55
 356 0004 FFF7FEFF 		bl	ADC_IRQ_Disable
 357              	.LVL13:
 105:Generated_Source\PSoC4/ADC_IRQ.c **** 
 358              		.loc 1 105 5 view .LVU56
 359 0008 2000     		movs	r0, r4
 360 000a FFF7FEFF 		bl	ADC_IRQ_SetVector
 361              	.LVL14:
 108:Generated_Source\PSoC4/ADC_IRQ.c **** 
 362              		.loc 1 108 5 view .LVU57
 363 000e 0320     		movs	r0, #3
 364 0010 FFF7FEFF 		bl	ADC_IRQ_SetPriority
 365              	.LVL15:
 111:Generated_Source\PSoC4/ADC_IRQ.c **** }
 366              		.loc 1 111 5 view .LVU58
 367 0014 FFF7FEFF 		bl	ADC_IRQ_Enable
 368              	.LVL16:
 112:Generated_Source\PSoC4/ADC_IRQ.c **** 
 369              		.loc 1 112 1 is_stmt 0 view .LVU59
 370              		@ sp needed
 371              	.LVL17:
 112:Generated_Source\PSoC4/ADC_IRQ.c **** 
 372              		.loc 1 112 1 view .LVU60
 373 0018 10BD     		pop	{r4, pc}
 374              		.cfi_endproc
ARM GAS  C:\Users\EDULU~1.DES\AppData\Local\Temp\ccQoFsJ2.s 			page 14


 375              	.LFE1:
 376              		.size	ADC_IRQ_StartEx, .-ADC_IRQ_StartEx
 377              		.section	.text.ADC_IRQ_Stop,"ax",%progbits
 378              		.align	1
 379              		.global	ADC_IRQ_Stop
 380              		.syntax unified
 381              		.code	16
 382              		.thumb_func
 383              		.fpu softvfp
 384              		.type	ADC_IRQ_Stop, %function
 385              	ADC_IRQ_Stop:
 386              	.LFB2:
 130:Generated_Source\PSoC4/ADC_IRQ.c ****     /* Disable this interrupt. */
 387              		.loc 1 130 1 is_stmt 1 view -0
 388              		.cfi_startproc
 389              		@ args = 0, pretend = 0, frame = 0
 390              		@ frame_needed = 0, uses_anonymous_args = 0
 391 0000 10B5     		push	{r4, lr}
 392              		.cfi_def_cfa_offset 8
 393              		.cfi_offset 4, -8
 394              		.cfi_offset 14, -4
 132:Generated_Source\PSoC4/ADC_IRQ.c **** 
 395              		.loc 1 132 5 view .LVU62
 396 0002 FFF7FEFF 		bl	ADC_IRQ_Disable
 397              	.LVL18:
 135:Generated_Source\PSoC4/ADC_IRQ.c **** }
 398              		.loc 1 135 5 view .LVU63
 399 0006 0248     		ldr	r0, .L30
 400 0008 FFF7FEFF 		bl	ADC_IRQ_SetVector
 401              	.LVL19:
 136:Generated_Source\PSoC4/ADC_IRQ.c **** 
 402              		.loc 1 136 1 is_stmt 0 view .LVU64
 403              		@ sp needed
 404 000c 10BD     		pop	{r4, pc}
 405              	.L31:
 406 000e C046     		.align	2
 407              	.L30:
 408 0010 00000000 		.word	IntDefaultHandler
 409              		.cfi_endproc
 410              	.LFE2:
 411              		.size	ADC_IRQ_Stop, .-ADC_IRQ_Stop
 412              		.section	.text.ADC_IRQ_SetPending,"ax",%progbits
 413              		.align	1
 414              		.global	ADC_IRQ_SetPending
 415              		.syntax unified
 416              		.code	16
 417              		.thumb_func
 418              		.fpu softvfp
 419              		.type	ADC_IRQ_SetPending, %function
 420              	ADC_IRQ_SetPending:
 421              	.LFB11:
 351:Generated_Source\PSoC4/ADC_IRQ.c **** 
 352:Generated_Source\PSoC4/ADC_IRQ.c **** 
 353:Generated_Source\PSoC4/ADC_IRQ.c **** /*******************************************************************************
 354:Generated_Source\PSoC4/ADC_IRQ.c **** * Function Name: ADC_IRQ_SetPending
 355:Generated_Source\PSoC4/ADC_IRQ.c **** ********************************************************************************
 356:Generated_Source\PSoC4/ADC_IRQ.c **** *
ARM GAS  C:\Users\EDULU~1.DES\AppData\Local\Temp\ccQoFsJ2.s 			page 15


 357:Generated_Source\PSoC4/ADC_IRQ.c **** * Summary:
 358:Generated_Source\PSoC4/ADC_IRQ.c **** *   Causes the Interrupt to enter the pending state, a software method of
 359:Generated_Source\PSoC4/ADC_IRQ.c **** *   generating the interrupt.
 360:Generated_Source\PSoC4/ADC_IRQ.c **** *
 361:Generated_Source\PSoC4/ADC_IRQ.c **** * Parameters:
 362:Generated_Source\PSoC4/ADC_IRQ.c **** *   None
 363:Generated_Source\PSoC4/ADC_IRQ.c **** *
 364:Generated_Source\PSoC4/ADC_IRQ.c **** * Return:
 365:Generated_Source\PSoC4/ADC_IRQ.c **** *   None
 366:Generated_Source\PSoC4/ADC_IRQ.c **** *
 367:Generated_Source\PSoC4/ADC_IRQ.c **** * Side Effects:
 368:Generated_Source\PSoC4/ADC_IRQ.c **** *   If interrupts are enabled and the interrupt is set up properly, the ISR is
 369:Generated_Source\PSoC4/ADC_IRQ.c **** *   entered (depending on the priority of this interrupt and other pending 
 370:Generated_Source\PSoC4/ADC_IRQ.c **** *   interrupts).
 371:Generated_Source\PSoC4/ADC_IRQ.c **** *
 372:Generated_Source\PSoC4/ADC_IRQ.c **** *******************************************************************************/
 373:Generated_Source\PSoC4/ADC_IRQ.c **** void ADC_IRQ_SetPending(void)
 374:Generated_Source\PSoC4/ADC_IRQ.c **** {
 422              		.loc 1 374 1 is_stmt 1 view -0
 423              		.cfi_startproc
 424              		@ args = 0, pretend = 0, frame = 0
 425              		@ frame_needed = 0, uses_anonymous_args = 0
 426              		@ link register save eliminated.
 375:Generated_Source\PSoC4/ADC_IRQ.c ****     *ADC_IRQ_INTC_SET_PD = ADC_IRQ__INTC_MASK;
 427              		.loc 1 375 5 view .LVU66
 428              		.loc 1 375 26 is_stmt 0 view .LVU67
 429 0000 024B     		ldr	r3, .L33
 430 0002 8022     		movs	r2, #128
 431 0004 D201     		lsls	r2, r2, #7
 432 0006 1A60     		str	r2, [r3]
 376:Generated_Source\PSoC4/ADC_IRQ.c **** }
 433              		.loc 1 376 1 view .LVU68
 434              		@ sp needed
 435 0008 7047     		bx	lr
 436              	.L34:
 437 000a C046     		.align	2
 438              	.L33:
 439 000c 00E200E0 		.word	-536813056
 440              		.cfi_endproc
 441              	.LFE11:
 442              		.size	ADC_IRQ_SetPending, .-ADC_IRQ_SetPending
 443              		.section	.text.ADC_IRQ_ClearPending,"ax",%progbits
 444              		.align	1
 445              		.global	ADC_IRQ_ClearPending
 446              		.syntax unified
 447              		.code	16
 448              		.thumb_func
 449              		.fpu softvfp
 450              		.type	ADC_IRQ_ClearPending, %function
 451              	ADC_IRQ_ClearPending:
 452              	.LFB12:
 377:Generated_Source\PSoC4/ADC_IRQ.c **** 
 378:Generated_Source\PSoC4/ADC_IRQ.c **** 
 379:Generated_Source\PSoC4/ADC_IRQ.c **** /*******************************************************************************
 380:Generated_Source\PSoC4/ADC_IRQ.c **** * Function Name: ADC_IRQ_ClearPending
 381:Generated_Source\PSoC4/ADC_IRQ.c **** ********************************************************************************
 382:Generated_Source\PSoC4/ADC_IRQ.c **** *
ARM GAS  C:\Users\EDULU~1.DES\AppData\Local\Temp\ccQoFsJ2.s 			page 16


 383:Generated_Source\PSoC4/ADC_IRQ.c **** * Summary:
 384:Generated_Source\PSoC4/ADC_IRQ.c **** *   Clears a pending interrupt in the interrupt controller.
 385:Generated_Source\PSoC4/ADC_IRQ.c **** *
 386:Generated_Source\PSoC4/ADC_IRQ.c **** *   Note Some interrupt sources are clear-on-read and require the block 
 387:Generated_Source\PSoC4/ADC_IRQ.c **** *   interrupt/status register to be read/cleared with the appropriate block API 
 388:Generated_Source\PSoC4/ADC_IRQ.c **** *   (GPIO, UART, and so on). Otherwise the ISR will continue to remain in 
 389:Generated_Source\PSoC4/ADC_IRQ.c **** *   pending state even though the interrupt itself is cleared using this API.
 390:Generated_Source\PSoC4/ADC_IRQ.c **** *
 391:Generated_Source\PSoC4/ADC_IRQ.c **** * Parameters:
 392:Generated_Source\PSoC4/ADC_IRQ.c **** *   None
 393:Generated_Source\PSoC4/ADC_IRQ.c **** *
 394:Generated_Source\PSoC4/ADC_IRQ.c **** * Return:
 395:Generated_Source\PSoC4/ADC_IRQ.c **** *   None
 396:Generated_Source\PSoC4/ADC_IRQ.c **** *
 397:Generated_Source\PSoC4/ADC_IRQ.c **** *******************************************************************************/
 398:Generated_Source\PSoC4/ADC_IRQ.c **** void ADC_IRQ_ClearPending(void)
 399:Generated_Source\PSoC4/ADC_IRQ.c **** {
 453              		.loc 1 399 1 is_stmt 1 view -0
 454              		.cfi_startproc
 455              		@ args = 0, pretend = 0, frame = 0
 456              		@ frame_needed = 0, uses_anonymous_args = 0
 457              		@ link register save eliminated.
 400:Generated_Source\PSoC4/ADC_IRQ.c ****     *ADC_IRQ_INTC_CLR_PD = ADC_IRQ__INTC_MASK;
 458              		.loc 1 400 5 view .LVU70
 459              		.loc 1 400 26 is_stmt 0 view .LVU71
 460 0000 024B     		ldr	r3, .L36
 461 0002 8022     		movs	r2, #128
 462 0004 D201     		lsls	r2, r2, #7
 463 0006 1A60     		str	r2, [r3]
 401:Generated_Source\PSoC4/ADC_IRQ.c **** }
 464              		.loc 1 401 1 view .LVU72
 465              		@ sp needed
 466 0008 7047     		bx	lr
 467              	.L37:
 468 000a C046     		.align	2
 469              	.L36:
 470 000c 80E200E0 		.word	-536812928
 471              		.cfi_endproc
 472              	.LFE12:
 473              		.size	ADC_IRQ_ClearPending, .-ADC_IRQ_ClearPending
 474              		.text
 475              	.Letext0:
 476              		.file 2 "Generated_Source\\PSoC4/cytypes.h"
 477              		.file 3 "c:\\program files (x86)\\gnu tools arm embedded\\8 2018-q4-major\\arm-none-eabi\\include\
 478              		.file 4 "c:\\program files (x86)\\gnu tools arm embedded\\8 2018-q4-major\\arm-none-eabi\\include\
 479              		.file 5 "c:\\program files (x86)\\gnu tools arm embedded\\8 2018-q4-major\\lib\\gcc\\arm-none-eabi
 480              		.file 6 "c:\\program files (x86)\\gnu tools arm embedded\\8 2018-q4-major\\arm-none-eabi\\include\
 481              		.file 7 "c:\\program files (x86)\\gnu tools arm embedded\\8 2018-q4-major\\arm-none-eabi\\include\
 482              		.file 8 "Generated_Source\\PSoC4/CyLib.h"