ARM GAS  C:\Users\EDULU~1.DES\AppData\Local\Temp\ccyXGgvh.s 			page 1


   1              		.cpu cortex-m0
   2              		.eabi_attribute 20, 1
   3              		.eabi_attribute 21, 1
   4              		.eabi_attribute 23, 3
   5              		.eabi_attribute 24, 1
   6              		.eabi_attribute 25, 1
   7              		.eabi_attribute 26, 1
   8              		.eabi_attribute 30, 1
   9              		.eabi_attribute 34, 0
  10              		.eabi_attribute 18, 4
  11              		.file	"app.c"
  12              		.text
  13              	.Ltext0:
  14              		.cfi_sections	.debug_frame
  15              		.section	.text.App_TaskCreate,"ax",%progbits
  16              		.align	1
  17              		.arch armv6s-m
  18              		.syntax unified
  19              		.code	16
  20              		.thumb_func
  21              		.fpu softvfp
  22              		.type	App_TaskCreate, %function
  23              	App_TaskCreate:
  24              	.LFB5:
  25              		.file 1 "..\\..\\app.c"
   1:..\../app.c   **** /*
   2:..\../app.c   **** ***************************************************************************************************
   3:..\../app.c   **** *                                             EXAMPLE CODE
   4:..\../app.c   **** *
   5:..\../app.c   **** *                            (c) Copyright 2015; Micrium, Inc.; Weston, FL
   6:..\../app.c   **** *
   7:..\../app.c   **** *               This file is provided as an example on how to use Micrium products.
   8:..\../app.c   **** *
   9:..\../app.c   **** *               Please feel free to use any application code labeled as 'EXAMPLE CODE' in
  10:..\../app.c   **** *               your application products.  Example code may be used as is, in whole or in
  11:..\../app.c   **** *               part, or may be used as a reference only. This file can be modified as
  12:..\../app.c   **** *               required to meet the end-product requirements.
  13:..\../app.c   **** *
  14:..\../app.c   **** *               Please help us continue to provide the Embedded community with the finest
  15:..\../app.c   **** *               software available.  Your honesty is greatly appreciated.
  16:..\../app.c   **** *
  17:..\../app.c   **** *               You can find our product's user manual, API reference, release notes and
  18:..\../app.c   **** *               more information at https://doc.micrium.com.
  19:..\../app.c   **** *               You can contact us at www.micrium.com.
  20:..\../app.c   **** ***************************************************************************************************
  21:..\../app.c   **** */
  22:..\../app.c   **** 
  23:..\../app.c   **** /*
  24:..\../app.c   **** ***************************************************************************************************
  25:..\../app.c   **** *                                           APPLICATION CODE
  26:..\../app.c   **** *
  27:..\../app.c   **** *                                            CYPRESS PSoC4
  28:..\../app.c   **** *                                               with the
  29:..\../app.c   **** *                                      CY8CKIT-044 Development Kit
  30:..\../app.c   **** *
  31:..\../app.c   **** * Filename      : app.c
  32:..\../app.c   **** * Version       : V1.00
ARM GAS  C:\Users\EDULU~1.DES\AppData\Local\Temp\ccyXGgvh.s 			page 2


  33:..\../app.c   **** * Programmer(s) : DC
  34:..\../app.c   **** ***************************************************************************************************
  35:..\../app.c   **** */
  36:..\../app.c   **** 
  37:..\../app.c   **** /*
  38:..\../app.c   **** ***************************************************************************************************
  39:..\../app.c   **** *                                             INCLUDE FILES
  40:..\../app.c   **** ***************************************************************************************************
  41:..\../app.c   **** */
  42:..\../app.c   **** 
  43:..\../app.c   **** #include  "app_cfg.h"
  44:..\../app.c   **** #include  "bsp.h"
  45:..\../app.c   **** #include  <os.h>
  46:..\../app.c   **** #include  <cpu.h>
  47:..\../app.c   **** 
  48:..\../app.c   **** #include  <lib_math.h>
  49:..\../app.c   **** #include  <lib_mem.h>
  50:..\../app.c   **** 
  51:..\../app.c   **** 
  52:..\../app.c   **** /*
  53:..\../app.c   **** ***************************************************************************************************
  54:..\../app.c   **** *                                             LOCAL DEFINES
  55:..\../app.c   **** ***************************************************************************************************
  56:..\../app.c   **** */
  57:..\../app.c   ****                                                                 /* ---------------- TEMP SENSOR DEF
  58:..\../app.c   **** #define  APP_TEMP_SENSOR_NUM                        0u
  59:..\../app.c   **** 
  60:..\../app.c   ****                                                                 /* --------------- AMBIENT LIGHT DE
  61:..\../app.c   **** #define  APP_AMBIENT_DEMO_MAX_VAL                  50u          /* See 'App_Demo_TempAccel' Task No
  62:..\../app.c   ****                                                                 
  63:..\../app.c   **** 
  64:..\../app.c   **** /*
  65:..\../app.c   **** ***************************************************************************************************
  66:..\../app.c   **** *                                            GLOBAL DEFINES
  67:..\../app.c   **** ***************************************************************************************************
  68:..\../app.c   **** */
  69:..\../app.c   ****                                                                 /* -------------- uC/PROBE GLOBAL D
  70:..\../app.c   **** CPU_INT32U   uC_Probe_RGB_Val;                                  /*  - RGB LED Color Value.         
  71:..\../app.c   **** CPU_BOOLEAN  uC_Probe_PB_Trigger = DEF_OFF;                     /*  - RGB LED ON/OFF Push Button Tr
  72:..\../app.c   **** CPU_FP32     uC_Probe_Temp_Val;                                 /*  - Temperature Sensor Value (*F)
  73:..\../app.c   **** CPU_INT16U   uC_Probe_AmbientLight;                             /*  - Ambient Light Sensor Value.  
  74:..\../app.c   **** CPU_INT16S   uC_Probe_Accel_X_Axis;                             /*  - Accelerometer X-Axis Value.  
  75:..\../app.c   **** CPU_INT16S   uC_Probe_Accel_Y_Axis;                             /*  - Accelerometer Y-Axis Value.  
  76:..\../app.c   **** CPU_INT16S   uC_Probe_Accel_Z_Axis;                             /*  - Accelerometer Z-Axis Value.  
  77:..\../app.c   **** 
  78:..\../app.c   **** 
  79:..\../app.c   **** /*
  80:..\../app.c   **** ***************************************************************************************************
  81:..\../app.c   **** *                                            LOCAL VARIABLES
  82:..\../app.c   **** ***************************************************************************************************
  83:..\../app.c   **** */
  84:..\../app.c   ****                                                                 /* ------------------ APP TASK VAR(
  85:..\../app.c   **** static  OS_TCB      App_TaskStartTCB;
  86:..\../app.c   **** static  CPU_STK     App_TaskStartStk[APP_CFG_TASK_START_STK_SIZE];
  87:..\../app.c   **** 
  88:..\../app.c   ****                                                                 /* ------------- TEMP & ACCEL TASK 
  89:..\../app.c   **** static  OS_TCB      App_Demo_SensorTaskTCB;
ARM GAS  C:\Users\EDULU~1.DES\AppData\Local\Temp\ccyXGgvh.s 			page 3


  90:..\../app.c   **** static  CPU_STK     App_Demo_SensorTaskStk[APP_CFG_SENSOR_TASK_STK_SIZE];
  91:..\../app.c   **** 
  92:..\../app.c   ****                                                                 /* --------------- MISCELLANEOUS VA
  93:..\../app.c   **** static  CPU_INT16U  App_Demo_Ambient_InitVar;                   /*  - Ambient Light Initial DMA Sto
  94:..\../app.c   **** 
  95:..\../app.c   **** 
  96:..\../app.c   **** /*
  97:..\../app.c   **** ***************************************************************************************************
  98:..\../app.c   **** *                                         FUNCTION PROTOTYPES
  99:..\../app.c   **** ***************************************************************************************************
 100:..\../app.c   **** */
 101:..\../app.c   **** 
 102:..\../app.c   **** static  void  App_TaskStart      (void *p_arg);
 103:..\../app.c   **** static  void  App_Demo_SensorTask(void *p_arg);
 104:..\../app.c   **** 
 105:..\../app.c   **** static  void  App_TaskCreate     (void);
 106:..\../app.c   **** static  void  App_ObjCreate      (void);
 107:..\../app.c   **** 
 108:..\../app.c   **** 
 109:..\../app.c   **** /*
 110:..\../app.c   **** ***************************************************************************************************
 111:..\../app.c   **** *                                                main()
 112:..\../app.c   **** *
 113:..\../app.c   **** * Description : This is the standard entry point for C code.  It is assumed that your code will cal
 114:..\../app.c   **** *               main() once you have performed all necessary initialization.
 115:..\../app.c   **** *
 116:..\../app.c   **** * Argument(s) : none
 117:..\../app.c   **** *
 118:..\../app.c   **** * Return(s)   : none
 119:..\../app.c   **** *
 120:..\../app.c   **** * Caller(s)   : Startup Code.
 121:..\../app.c   **** *
 122:..\../app.c   **** * Note(s)     : none.
 123:..\../app.c   **** ***************************************************************************************************
 124:..\../app.c   **** */
 125:..\../app.c   **** 
 126:..\../app.c   **** int  main (void)
 127:..\../app.c   **** {
 128:..\../app.c   ****     OS_ERR  os_err;
 129:..\../app.c   **** 
 130:..\../app.c   **** 
 131:..\../app.c   ****     CPU_Init();                                                 /* Initialize the uC/CPU services  
 132:..\../app.c   **** 	Mem_Init();                                                 /* Initialize Memory Managment Module 
 133:..\../app.c   ****     Math_Init();                                                /* Initialize Mathematical Module  
 134:..\../app.c   ****     
 135:..\../app.c   ****     BSP_Init();                                                 /* Initialize BSP Functions.       
 136:..\../app.c   ****     
 137:..\../app.c   ****     OSInit(&os_err);                                            /* Init uC/OS-III.                 
 138:..\../app.c   **** 
 139:..\../app.c   ****     OSTaskCreate(&App_TaskStartTCB,                             /* Create the start task           
 140:..\../app.c   ****                  "App Task Start",
 141:..\../app.c   ****                   App_TaskStart,
 142:..\../app.c   ****                   0u,
 143:..\../app.c   ****                   APP_CFG_TASK_START_PRIO,
 144:..\../app.c   ****                  &App_TaskStartStk[0u],
 145:..\../app.c   ****                  (APP_CFG_TASK_START_STK_SIZE / 10u),
 146:..\../app.c   ****                   APP_CFG_TASK_START_STK_SIZE,
ARM GAS  C:\Users\EDULU~1.DES\AppData\Local\Temp\ccyXGgvh.s 			page 4


 147:..\../app.c   ****                   0u,
 148:..\../app.c   ****                   0u,
 149:..\../app.c   ****                   0u,
 150:..\../app.c   ****                  (OS_OPT_TASK_STK_CHK | OS_OPT_TASK_STK_CLR),
 151:..\../app.c   ****                  &os_err);
 152:..\../app.c   **** 
 153:..\../app.c   ****     OSStart(&os_err);                                           /* Start multitasking (i.e. give co
 154:..\../app.c   ****     
 155:..\../app.c   ****     while (DEF_ON);                                             /* Should Never Get Here.          
 156:..\../app.c   **** }
 157:..\../app.c   **** 
 158:..\../app.c   **** 
 159:..\../app.c   **** /*
 160:..\../app.c   **** ***************************************************************************************************
 161:..\../app.c   **** *                                          App_TaskStart()
 162:..\../app.c   **** *
 163:..\../app.c   **** * Description : This is an example of a startup task.  As mentioned in the book's text, you MUST
 164:..\../app.c   **** *               initialize the ticker only once multitasking has started.
 165:..\../app.c   **** *
 166:..\../app.c   **** * Argument(s) : p_arg   is the argument passed to 'App_TaskStart()' by 'OSTaskCreate()'.
 167:..\../app.c   **** *
 168:..\../app.c   **** * Return(s)   : none
 169:..\../app.c   **** *
 170:..\../app.c   **** * Caller(s)   : main()
 171:..\../app.c   **** *
 172:..\../app.c   **** * Note(s)     : (1) The first line of code is used to prevent a compiler warning because 'p_arg' is
 173:..\../app.c   **** *                   used.  The compiler should not generate any code for this statement.
 174:..\../app.c   **** *
 175:..\../app.c   **** *               (2) App_TaskStart Task will manage the RGB LED as well as the Push Button to Turn O
 176:..\../app.c   **** *                   and OFF the RGB LED.
 177:..\../app.c   **** ***************************************************************************************************
 178:..\../app.c   **** */
 179:..\../app.c   **** 
 180:..\../app.c   **** void  App_TaskStart (void *p_arg)
 181:..\../app.c   **** {
 182:..\../app.c   ****     OS_ERR       os_err;
 183:..\../app.c   ****     CPU_BOOLEAN  pb_status;
 184:..\../app.c   ****     CPU_BOOLEAN  pb_prev;
 185:..\../app.c   ****     CPU_BOOLEAN  led_status;
 186:..\../app.c   ****         
 187:..\../app.c   **** 
 188:..\../app.c   ****    (void)p_arg;
 189:..\../app.c   ****     led_status = DEF_OFF;                                       /* Initialize Var(s).              
 190:..\../app.c   **** 
 191:..\../app.c   ****     BSP_CPU_TickInit();                                         /* Initialize the Tick Interrupt.  
 192:..\../app.c   ****                                                                 /* --------------- ACCELEROMETER SE
 193:..\../app.c   ****     BSP_Accel_Init();                                           /* Init & Cfg I2C & Accelerometer a
 194:..\../app.c   **** 
 195:..\../app.c   **** #if (OS_CFG_STAT_TASK_EN > 0u)
 196:..\../app.c   ****     OSStatTaskCPUUsageInit(&os_err);
 197:..\../app.c   **** #endif
 198:..\../app.c   **** 
 199:..\../app.c   **** #ifdef CPU_CFG_INT_DIS_MEAS_EN
 200:..\../app.c   ****     CPU_IntDisMeasMaxCurReset();
 201:..\../app.c   **** #endif
 202:..\../app.c   **** 
 203:..\../app.c   ****     APP_TRACE_INFO(("Creating Kernel Objects...\n\r"));
ARM GAS  C:\Users\EDULU~1.DES\AppData\Local\Temp\ccyXGgvh.s 			page 5


 204:..\../app.c   ****     App_ObjCreate();                                            /* Create Kernel Objects           
 205:..\../app.c   ****     
 206:..\../app.c   ****     APP_TRACE_INFO(("Creating Application Tasks...\n\r"));
 207:..\../app.c   ****     App_TaskCreate();                                           /* Create Application Tasks.       
 208:..\../app.c   ****     
 209:..\../app.c   ****     BSP_RGB_Off();                                              /* Initially Turn off the RGB LED. 
 210:..\../app.c   ****     
 211:..\../app.c   ****     while (DEF_TRUE) {                                          /* Task body, always written as an 
 212:..\../app.c   ****         pb_status = BSP_PB_StatusGet();                         /* ------------- PUSH BUTTON (SW2) 
 213:..\../app.c   **** 		
 214:..\../app.c   ****         if((pb_status == DEF_OFF) && (pb_prev != DEF_OFF)) {    /* Push Button Triggers change on B
 215:..\../app.c   ****             if (uC_Probe_PB_Trigger == DEF_ON) {                /* If the Probe Button is Turned ON
 216:..\../app.c   ****                 uC_Probe_PB_Trigger = DEF_OFF;
 217:..\../app.c   ****             } else {                                            /* If the Probe Button is Turned OF
 218:..\../app.c   ****                 uC_Probe_PB_Trigger = DEF_ON;
 219:..\../app.c   ****             }
 220:..\../app.c   ****         }
 221:..\../app.c   ****         
 222:..\../app.c   ****         pb_prev = pb_status;                                    /* Set the Status as the Button's P
 223:..\../app.c   ****         
 224:..\../app.c   ****         if (uC_Probe_PB_Trigger == DEF_ON) {                    /* ---------- uC/PROBE BUTTON TRIGG
 225:..\../app.c   ****             if (led_status == DEF_INACTIVE) {                   /* if LED Status Flag is currently 
 226:..\../app.c   ****                 led_status = DEF_ACTIVE;                        /* ... Status Flag and Turn ON The 
 227:..\../app.c   ****                 BSP_RGB_On();
 228:..\../app.c   ****             }
 229:..\../app.c   ****         } else {
 230:..\../app.c   ****             if (led_status == DEF_YES) {                        /* if LED Status Flag is currently 
 231:..\../app.c   ****                 led_status = DEF_INACTIVE;                      /* .. Status Flag and Turn OFF The 
 232:..\../app.c   ****                 BSP_RGB_Off();
 233:..\../app.c   ****             }
 234:..\../app.c   ****         }
 235:..\../app.c   ****         
 236:..\../app.c   ****         if (led_status == DEF_ACTIVE) {                         /* -------------- UPDATE RGB COLOR 
 237:..\../app.c   ****             BSP_RGB_ColorSet(uC_Probe_RGB_Val);                 /* IF LED Status Flag is Active, Up
 238:..\../app.c   ****         }
 239:..\../app.c   ****         
 240:..\../app.c   ****         OSTimeDlyHMSM(0u, 0u, 0u, 100u, 
 241:..\../app.c   ****                       OS_OPT_TIME_HMSM_STRICT, &os_err);
 242:..\../app.c   ****     }
 243:..\../app.c   **** }
 244:..\../app.c   **** 
 245:..\../app.c   **** 
 246:..\../app.c   **** /*
 247:..\../app.c   **** ***************************************************************************************************
 248:..\../app.c   **** *                                          App_TaskCreate()
 249:..\../app.c   **** *
 250:..\../app.c   **** * Description : Create Application Tasks.
 251:..\../app.c   **** *
 252:..\../app.c   **** * Argument(s) : none
 253:..\../app.c   **** *
 254:..\../app.c   **** * Return(s)   : none
 255:..\../app.c   **** *
 256:..\../app.c   **** * Caller(s)   : AppTaskStart()
 257:..\../app.c   **** *
 258:..\../app.c   **** * Note(s)     : (1) The Following Task(s) were created to simulate Cypress' CY8CKIT-044 Sensor Hub
 259:..\../app.c   **** *                   demo using Micrium's uC/OS-III Kernel.
 260:..\../app.c   **** *
ARM GAS  C:\Users\EDULU~1.DES\AppData\Local\Temp\ccyXGgvh.s 			page 6


 261:..\../app.c   **** *               (2) Although Multiple Tasks were used for this demo, One (1) Task can manage all 
 262:..\../app.c   **** *                   services required to simulate the demo. The use of Mutiple tasks is used as an
 263:..\../app.c   **** *                   example for Multitasking with uC/OS-III.
 264:..\../app.c   **** ***************************************************************************************************
 265:..\../app.c   **** */
 266:..\../app.c   **** 
 267:..\../app.c   **** void  App_TaskCreate (void)
 268:..\../app.c   **** {
  26              		.loc 1 268 1 view -0
  27              		.cfi_startproc
  28              		@ args = 0, pretend = 0, frame = 8
  29              		@ frame_needed = 0, uses_anonymous_args = 0
  30 0000 00B5     		push	{lr}
  31              		.cfi_def_cfa_offset 4
  32              		.cfi_offset 14, -4
  33 0002 8DB0     		sub	sp, sp, #52
  34              		.cfi_def_cfa_offset 56
 269:..\../app.c   ****     OS_ERR  os_err;
  35              		.loc 1 269 5 view .LVU1
 270:..\../app.c   ****     
 271:..\../app.c   ****     OSTaskCreate(&App_Demo_SensorTaskTCB,                       /* Task that Manages Temp, Accel & 
  36              		.loc 1 271 5 view .LVU2
  37 0004 2E23     		movs	r3, #46
  38 0006 6B44     		add	r3, r3, sp
  39 0008 0893     		str	r3, [sp, #32]
  40 000a 0323     		movs	r3, #3
  41 000c 0793     		str	r3, [sp, #28]
  42 000e 0022     		movs	r2, #0
  43 0010 0692     		str	r2, [sp, #24]
  44 0012 0592     		str	r2, [sp, #20]
  45 0014 0492     		str	r2, [sp, #16]
  46 0016 2032     		adds	r2, r2, #32
  47 0018 0392     		str	r2, [sp, #12]
  48 001a 0293     		str	r3, [sp, #8]
  49 001c 054A     		ldr	r2, .L2
  50 001e 0192     		str	r2, [sp, #4]
  51 0020 0093     		str	r3, [sp]
  52 0022 0023     		movs	r3, #0
  53 0024 044A     		ldr	r2, .L2+4
  54 0026 0549     		ldr	r1, .L2+8
  55 0028 0548     		ldr	r0, .L2+12
  56 002a FFF7FEFF 		bl	OSTaskCreate
  57              	.LVL0:
 272:..\../app.c   ****                  "Demo: Sensor Task",
 273:..\../app.c   ****                   App_Demo_SensorTask,
 274:..\../app.c   ****                   0u,
 275:..\../app.c   ****                   APP_CFG_SENSOR_TASK_PRIO,
 276:..\../app.c   ****                  &App_Demo_SensorTaskStk[0u],
 277:..\../app.c   ****                  (APP_CFG_SENSOR_TASK_STK_SIZE / 10u),
 278:..\../app.c   ****                   APP_CFG_SENSOR_TASK_STK_SIZE,
 279:..\../app.c   ****                   0u,
 280:..\../app.c   ****                   0u,
 281:..\../app.c   ****                   0u,
 282:..\../app.c   ****                  (OS_OPT_TASK_STK_CHK | OS_OPT_TASK_STK_CLR),
 283:..\../app.c   ****                  &os_err);
 284:..\../app.c   **** }
  58              		.loc 1 284 1 is_stmt 0 view .LVU3
ARM GAS  C:\Users\EDULU~1.DES\AppData\Local\Temp\ccyXGgvh.s 			page 7


  59 002e 0DB0     		add	sp, sp, #52
  60              		@ sp needed
  61 0030 00BD     		pop	{pc}
  62              	.L3:
  63 0032 C046     		.align	2
  64              	.L2:
  65 0034 FC000000 		.word	App_Demo_SensorTaskStk
  66 0038 00000000 		.word	App_Demo_SensorTask
  67 003c 00000000 		.word	.LC1
  68 0040 00000000 		.word	.LANCHOR0
  69              		.cfi_endproc
  70              	.LFE5:
  71              		.size	App_TaskCreate, .-App_TaskCreate
  72              		.section	.text.App_TaskStart,"ax",%progbits
  73              		.align	1
  74              		.syntax unified
  75              		.code	16
  76              		.thumb_func
  77              		.fpu softvfp
  78              		.type	App_TaskStart, %function
  79              	App_TaskStart:
  80              	.LVL1:
  81              	.LFB4:
 181:..\../app.c   ****     OS_ERR       os_err;
  82              		.loc 1 181 1 is_stmt 1 view -0
  83              		.cfi_startproc
  84              		@ args = 0, pretend = 0, frame = 8
  85              		@ frame_needed = 0, uses_anonymous_args = 0
 181:..\../app.c   ****     OS_ERR       os_err;
  86              		.loc 1 181 1 is_stmt 0 view .LVU5
  87 0000 70B5     		push	{r4, r5, r6, lr}
  88              		.cfi_def_cfa_offset 16
  89              		.cfi_offset 4, -16
  90              		.cfi_offset 5, -12
  91              		.cfi_offset 6, -8
  92              		.cfi_offset 14, -4
  93 0002 84B0     		sub	sp, sp, #16
  94              		.cfi_def_cfa_offset 32
  95 0004 0025     		movs	r5, #0
 182:..\../app.c   ****     CPU_BOOLEAN  pb_status;
  96              		.loc 1 182 5 is_stmt 1 view .LVU6
 183:..\../app.c   ****     CPU_BOOLEAN  pb_prev;
  97              		.loc 1 183 5 view .LVU7
 184:..\../app.c   ****     CPU_BOOLEAN  led_status;
  98              		.loc 1 184 5 view .LVU8
 185:..\../app.c   ****         
  99              		.loc 1 185 5 view .LVU9
 188:..\../app.c   ****     led_status = DEF_OFF;                                       /* Initialize Var(s).              
 100              		.loc 1 188 4 view .LVU10
 189:..\../app.c   **** 
 101              		.loc 1 189 5 view .LVU11
 102              	.LVL2:
 191:..\../app.c   ****                                                                 /* --------------- ACCELEROMETER SE
 103              		.loc 1 191 5 view .LVU12
 104 0006 FFF7FEFF 		bl	BSP_CPU_TickInit
 105              	.LVL3:
 193:..\../app.c   **** 
ARM GAS  C:\Users\EDULU~1.DES\AppData\Local\Temp\ccyXGgvh.s 			page 8


 106              		.loc 1 193 5 view .LVU13
 107 000a FFF7FEFF 		bl	BSP_Accel_Init
 108              	.LVL4:
 196:..\../app.c   **** #endif
 109              		.loc 1 196 5 view .LVU14
 110 000e 0E20     		movs	r0, #14
 111 0010 6844     		add	r0, r0, sp
 112 0012 FFF7FEFF 		bl	OSStatTaskCPUUsageInit
 113              	.LVL5:
 200:..\../app.c   **** #endif
 114              		.loc 1 200 5 view .LVU15
 115 0016 FFF7FEFF 		bl	CPU_IntDisMeasMaxCurReset
 116              	.LVL6:
 203:..\../app.c   ****     App_ObjCreate();                                            /* Create Kernel Objects           
 117              		.loc 1 203 5 view .LVU16
 204:..\../app.c   ****     
 118              		.loc 1 204 5 view .LVU17
 206:..\../app.c   ****     App_TaskCreate();                                           /* Create Application Tasks.       
 119              		.loc 1 206 5 view .LVU18
 207:..\../app.c   ****     
 120              		.loc 1 207 5 view .LVU19
 121 001a FFF7FEFF 		bl	App_TaskCreate
 122              	.LVL7:
 209:..\../app.c   ****     
 123              		.loc 1 209 5 view .LVU20
 124 001e FFF7FEFF 		bl	BSP_RGB_Off
 125              	.LVL8:
 189:..\../app.c   **** 
 126              		.loc 1 189 16 is_stmt 0 view .LVU21
 127 0022 0026     		movs	r6, #0
 128 0024 18E0     		b	.L11
 129              	.LVL9:
 130              	.L6:
 218:..\../app.c   ****             }
 131              		.loc 1 218 17 is_stmt 1 view .LVU22
 218:..\../app.c   ****             }
 132              		.loc 1 218 37 is_stmt 0 view .LVU23
 133 0026 1B4A     		ldr	r2, .L14
 134 0028 7C23     		movs	r3, #124
 135 002a 0121     		movs	r1, #1
 136 002c D154     		strb	r1, [r2, r3]
 137              	.L5:
 222:..\../app.c   ****         
 138              		.loc 1 222 9 is_stmt 1 view .LVU24
 139              	.LVL10:
 224:..\../app.c   ****             if (led_status == DEF_INACTIVE) {                   /* if LED Status Flag is currently 
 140              		.loc 1 224 9 view .LVU25
 224:..\../app.c   ****             if (led_status == DEF_INACTIVE) {                   /* if LED Status Flag is currently 
 141              		.loc 1 224 33 is_stmt 0 view .LVU26
 142 002e 194A     		ldr	r2, .L14
 143 0030 7C23     		movs	r3, #124
 144 0032 D55C     		ldrb	r5, [r2, r3]
 224:..\../app.c   ****             if (led_status == DEF_INACTIVE) {                   /* if LED Status Flag is currently 
 145              		.loc 1 224 12 view .LVU27
 146 0034 012D     		cmp	r5, #1
 147 0036 1ED0     		beq	.L12
 230:..\../app.c   ****                 led_status = DEF_INACTIVE;                      /* .. Status Flag and Turn OFF The 
ARM GAS  C:\Users\EDULU~1.DES\AppData\Local\Temp\ccyXGgvh.s 			page 9


 148              		.loc 1 230 13 is_stmt 1 view .LVU28
 230:..\../app.c   ****                 led_status = DEF_INACTIVE;                      /* .. Status Flag and Turn OFF The 
 149              		.loc 1 230 16 is_stmt 0 view .LVU29
 150 0038 012E     		cmp	r6, #1
 151 003a 26D0     		beq	.L13
 152              	.L8:
 236:..\../app.c   ****             BSP_RGB_ColorSet(uC_Probe_RGB_Val);                 /* IF LED Status Flag is Active, Up
 153              		.loc 1 236 9 is_stmt 1 view .LVU30
 236:..\../app.c   ****             BSP_RGB_ColorSet(uC_Probe_RGB_Val);                 /* IF LED Status Flag is Active, Up
 154              		.loc 1 236 12 is_stmt 0 view .LVU31
 155 003c 012E     		cmp	r6, #1
 156 003e 1FD0     		beq	.L9
 157              	.LVL11:
 158              	.L10:
 240:..\../app.c   ****                       OS_OPT_TIME_HMSM_STRICT, &os_err);
 159              		.loc 1 240 9 is_stmt 1 view .LVU32
 160 0040 0E23     		movs	r3, #14
 161 0042 6B44     		add	r3, r3, sp
 162 0044 0193     		str	r3, [sp, #4]
 163 0046 0023     		movs	r3, #0
 164 0048 0093     		str	r3, [sp]
 165 004a 6433     		adds	r3, r3, #100
 166 004c 0022     		movs	r2, #0
 167 004e 0021     		movs	r1, #0
 168 0050 0020     		movs	r0, #0
 169 0052 FFF7FEFF 		bl	OSTimeDlyHMSM
 170              	.LVL12:
 222:..\../app.c   ****         
 171              		.loc 1 222 17 is_stmt 0 view .LVU33
 172 0056 2500     		movs	r5, r4
 173              	.LVL13:
 174              	.L11:
 211:..\../app.c   ****         pb_status = BSP_PB_StatusGet();                         /* ------------- PUSH BUTTON (SW2) 
 175              		.loc 1 211 5 is_stmt 1 view .LVU34
 212:..\../app.c   **** 		
 176              		.loc 1 212 9 view .LVU35
 212:..\../app.c   **** 		
 177              		.loc 1 212 21 is_stmt 0 view .LVU36
 178 0058 FFF7FEFF 		bl	BSP_PB_StatusGet
 179              	.LVL14:
 180 005c 041E     		subs	r4, r0, #0
 181              	.LVL15:
 214:..\../app.c   ****             if (uC_Probe_PB_Trigger == DEF_ON) {                /* If the Probe Button is Turned ON
 182              		.loc 1 214 9 is_stmt 1 view .LVU37
 214:..\../app.c   ****             if (uC_Probe_PB_Trigger == DEF_ON) {                /* If the Probe Button is Turned ON
 183              		.loc 1 214 11 is_stmt 0 view .LVU38
 184 005e E6D1     		bne	.L5
 214:..\../app.c   ****             if (uC_Probe_PB_Trigger == DEF_ON) {                /* If the Probe Button is Turned ON
 185              		.loc 1 214 35 discriminator 1 view .LVU39
 186 0060 002D     		cmp	r5, #0
 187 0062 E4D0     		beq	.L5
 215:..\../app.c   ****                 uC_Probe_PB_Trigger = DEF_OFF;
 188              		.loc 1 215 13 is_stmt 1 view .LVU40
 215:..\../app.c   ****                 uC_Probe_PB_Trigger = DEF_OFF;
 189              		.loc 1 215 37 is_stmt 0 view .LVU41
 190 0064 0B4A     		ldr	r2, .L14
 191 0066 7C23     		movs	r3, #124
ARM GAS  C:\Users\EDULU~1.DES\AppData\Local\Temp\ccyXGgvh.s 			page 10


 192 0068 D35C     		ldrb	r3, [r2, r3]
 215:..\../app.c   ****                 uC_Probe_PB_Trigger = DEF_OFF;
 193              		.loc 1 215 16 view .LVU42
 194 006a 012B     		cmp	r3, #1
 195 006c DBD1     		bne	.L6
 216:..\../app.c   ****             } else {                                            /* If the Probe Button is Turned OF
 196              		.loc 1 216 17 is_stmt 1 view .LVU43
 216:..\../app.c   ****             } else {                                            /* If the Probe Button is Turned OF
 197              		.loc 1 216 37 is_stmt 0 view .LVU44
 198 006e 7B33     		adds	r3, r3, #123
 199 0070 0021     		movs	r1, #0
 200 0072 D154     		strb	r1, [r2, r3]
 201 0074 DBE7     		b	.L5
 202              	.LVL16:
 203              	.L12:
 225:..\../app.c   ****                 led_status = DEF_ACTIVE;                        /* ... Status Flag and Turn ON The 
 204              		.loc 1 225 13 is_stmt 1 view .LVU45
 225:..\../app.c   ****                 led_status = DEF_ACTIVE;                        /* ... Status Flag and Turn ON The 
 205              		.loc 1 225 16 is_stmt 0 view .LVU46
 206 0076 002E     		cmp	r6, #0
 207 0078 E0D1     		bne	.L8
 226:..\../app.c   ****                 BSP_RGB_On();
 208              		.loc 1 226 17 is_stmt 1 view .LVU47
 209              	.LVL17:
 227:..\../app.c   ****             }
 210              		.loc 1 227 17 view .LVU48
 211 007a FFF7FEFF 		bl	BSP_RGB_On
 212              	.LVL18:
 236:..\../app.c   ****             BSP_RGB_ColorSet(uC_Probe_RGB_Val);                 /* IF LED Status Flag is Active, Up
 213              		.loc 1 236 9 view .LVU49
 226:..\../app.c   ****                 BSP_RGB_On();
 214              		.loc 1 226 28 is_stmt 0 view .LVU50
 215 007e 2E00     		movs	r6, r5
 216              	.LVL19:
 217              	.L9:
 237:..\../app.c   ****         }
 218              		.loc 1 237 13 is_stmt 1 view .LVU51
 219 0080 054B     		ldr	r3, .L14+4
 220 0082 1868     		ldr	r0, [r3]
 221 0084 FFF7FEFF 		bl	BSP_RGB_ColorSet
 222              	.LVL20:
 223 0088 DAE7     		b	.L10
 224              	.LVL21:
 225              	.L13:
 231:..\../app.c   ****                 BSP_RGB_Off();
 226              		.loc 1 231 17 view .LVU52
 232:..\../app.c   ****             }
 227              		.loc 1 232 17 view .LVU53
 228 008a FFF7FEFF 		bl	BSP_RGB_Off
 229              	.LVL22:
 236:..\../app.c   ****             BSP_RGB_ColorSet(uC_Probe_RGB_Val);                 /* IF LED Status Flag is Active, Up
 230              		.loc 1 236 9 view .LVU54
 231:..\../app.c   ****                 BSP_RGB_Off();
 231              		.loc 1 231 28 is_stmt 0 view .LVU55
 232 008e 0026     		movs	r6, #0
 233 0090 D6E7     		b	.L10
 234              	.L15:
ARM GAS  C:\Users\EDULU~1.DES\AppData\Local\Temp\ccyXGgvh.s 			page 11


 235 0092 C046     		.align	2
 236              	.L14:
 237 0094 00000000 		.word	.LANCHOR0
 238 0098 00000000 		.word	uC_Probe_RGB_Val
 239              		.cfi_endproc
 240              	.LFE4:
 241              		.size	App_TaskStart, .-App_TaskStart
 242              		.section	.text.App_Demo_SensorTask,"ax",%progbits
 243              		.align	1
 244              		.syntax unified
 245              		.code	16
 246              		.thumb_func
 247              		.fpu softvfp
 248              		.type	App_Demo_SensorTask, %function
 249              	App_Demo_SensorTask:
 250              	.LFB7:
 285:..\../app.c   **** 
 286:..\../app.c   **** 
 287:..\../app.c   **** /*
 288:..\../app.c   **** ***************************************************************************************************
 289:..\../app.c   **** *                                          App_ObjCreate()
 290:..\../app.c   **** *
 291:..\../app.c   **** * Description : Create Application Kernel Objects Tasks.
 292:..\../app.c   **** *
 293:..\../app.c   **** * Argument(s) : none
 294:..\../app.c   **** *
 295:..\../app.c   **** * Return(s)   : none
 296:..\../app.c   **** *
 297:..\../app.c   **** * Caller(s)   : AppTaskStart()
 298:..\../app.c   **** *
 299:..\../app.c   **** * Note(s)     : none.
 300:..\../app.c   **** ***************************************************************************************************
 301:..\../app.c   **** */
 302:..\../app.c   **** 
 303:..\../app.c   **** void  App_ObjCreate (void)
 304:..\../app.c   **** {
 305:..\../app.c   ****     
 306:..\../app.c   **** }
 307:..\../app.c   **** 
 308:..\../app.c   **** 
 309:..\../app.c   **** /*
 310:..\../app.c   **** ***************************************************************************************************
 311:..\../app.c   **** ***************************************************************************************************
 312:..\../app.c   **** *                                             LOCAL TASKS
 313:..\../app.c   **** ***************************************************************************************************
 314:..\../app.c   **** ***************************************************************************************************
 315:..\../app.c   **** */
 316:..\../app.c   **** 
 317:..\../app.c   **** /*
 318:..\../app.c   **** ***************************************************************************************************
 319:..\../app.c   **** *                                        App_Demo_SensorTask()
 320:..\../app.c   **** *
 321:..\../app.c   **** * Description : Manage CY8CKIT-044's Temperature Sensor, Ambient Light Sensor, and I2C Communicatio
 322:..\../app.c   **** *               to the KXTJ2-1009 3-Axis Accelerometer.
 323:..\../app.c   **** *
 324:..\../app.c   **** * Argument(s) : none
 325:..\../app.c   **** *
ARM GAS  C:\Users\EDULU~1.DES\AppData\Local\Temp\ccyXGgvh.s 			page 12


 326:..\../app.c   **** * Return(s)   : none
 327:..\../app.c   **** *
 328:..\../app.c   **** * Caller(s)   : AppTaskStart()
 329:..\../app.c   **** *
 330:..\../app.c   **** * Note(s)     : (1) The use/start of the DMA Component also sets the source of the Global Variable 
 331:..\../app.c   **** *                   will be used to house the Ambient Light data Autiomatically that uC/Probe will
 332:..\../app.c   **** *                   Display.
 333:..\../app.c   **** *
 334:..\../app.c   **** *               (2) The Ambient Light Sensor can go to a max range of 2000, however in normal 'indo
 335:..\../app.c   **** *                   light the Light doesn't go higher than 50. For this reason, an initial Variable
 336:..\../app.c   **** *                   was introduced to regulate the Probe Variable. When surrounded in Total Darknes
 337:..\../app.c   **** *                   the Ambient Light Sensor cannot successfully read the proper Lighting value, an
 338:..\../app.c   **** *                   simulate a variable overflow. To keep this from occurring, a check has been int
 339:..\../app.c   **** *                   to check if the 'Light Value' is greater than the configured range (50), the
 340:..\../app.c   **** *                   uC/Probe variable will be defaulted to '0'.
 341:..\../app.c   **** ***************************************************************************************************
 342:..\../app.c   **** */
 343:..\../app.c   **** 
 344:..\../app.c   **** void  App_Demo_SensorTask (void *p_arg)
 345:..\../app.c   **** {
 251              		.loc 1 345 1 is_stmt 1 view -0
 252              		.cfi_startproc
 253              		@ Volatile: function does not return.
 254              		@ args = 0, pretend = 0, frame = 8
 255              		@ frame_needed = 0, uses_anonymous_args = 0
 256              	.LVL23:
 257              		.loc 1 345 1 is_stmt 0 view .LVU57
 258 0000 00B5     		push	{lr}
 259              		.cfi_def_cfa_offset 4
 260              		.cfi_offset 14, -4
 261 0002 85B0     		sub	sp, sp, #20
 262              		.cfi_def_cfa_offset 24
 263              	.LVL24:
 264              	.L17:
 346:..\../app.c   ****     OS_ERR      os_err;
 265              		.loc 1 346 5 is_stmt 1 discriminator 1 view .LVU58
 347:..\../app.c   ****     CPU_INT08U  temp_status;
 266              		.loc 1 347 5 discriminator 1 view .LVU59
 348:..\../app.c   ****     CPU_INT16U  temp_val;
 267              		.loc 1 348 5 discriminator 1 view .LVU60
 349:..\../app.c   ****     CPU_FP32    temp_conv;
 268              		.loc 1 349 5 discriminator 1 view .LVU61
 350:..\../app.c   ****     
 351:..\../app.c   ****     
 352:..\../app.c   ****     (void)p_arg;
 269              		.loc 1 352 5 discriminator 1 view .LVU62
 353:..\../app.c   ****                                                                 /* ---------------- AMBIENT LIGHT I
 354:..\../app.c   ****                                                                 /* Enable the DMA Component and set
 355:..\../app.c   ****                                                                 /* .. DMA transfer as well as the D
 356:..\../app.c   **** //    DMA_Start((void *)ADC_SAR_CHAN0_RESULT_PTR, &App_Demo_Ambient_InitVar);
 357:..\../app.c   ****     
 358:..\../app.c   ****    // ADC_StartConvert();                                         /* Start ADC Conversions, Save to
 359:..\../app.c   ****     
 360:..\../app.c   ****     while (DEF_TRUE) {                                          /* Task body, always written as an 
 270              		.loc 1 360 5 discriminator 1 view .LVU63
 361:..\../app.c   ****           
 362:..\../app.c   ****         /* ----------------- TEMP SENSOR READ ----------------- */
ARM GAS  C:\Users\EDULU~1.DES\AppData\Local\Temp\ccyXGgvh.s 			page 13


 363:..\../app.c   ****        /* temp_status = Temp_Sensor_ConversionStatus();           /* Get the Temperature Sensor's C
 364:..\../app.c   ****         
 365:..\../app.c   ****         //if (temp_status == Temp_Sensor_STATUS_COMPLETE) {       /* If Conversion is Complete, Rd 
 366:..\../app.c   ****                                                                 /* Temperature Returned is in (*C).
 367:..\../app.c   ****          //   temp_val          = Temp_Sensor_GetTemperature(APP_TEMP_SENSOR_NUM);
 368:..\../app.c   ****          //   temp_conv         = (temp_val / 100u);              /* Temp Value must be Factored Do
 369:..\../app.c   ****          //   uC_Probe_Temp_Val = ((temp_conv * 1.8) + 32u);      /* Convert Temp from (*C) to (*F)
 370:..\../app.c   ****             
 371:..\../app.c   ****        //     Temp_Sensor_Trigger();                              /* Trigger next conversion when t
 372:..\../app.c   ****        // }
 373:..\../app.c   ****                                                                 /* --------------- AMBIENT LIGHT SE
 374:..\../app.c   ****        // if (App_Demo_Ambient_InitVar > APP_AMBIENT_DEMO_MAX_VAL) {
 375:..\../app.c   ****         //    uC_Probe_AmbientLight = 0u;                         /* See Note (2).                 
 376:..\../app.c   ****        // } else {
 377:..\../app.c   ****        //     uC_Probe_AmbientLight = App_Demo_Ambient_InitVar;
 378:..\../app.c   ****         //}
 379:..\../app.c   ****         
 380:..\../app.c   ****                                                                 /* --------------- ACCELEROMETER SE
 381:..\../app.c   ****        // BSP_Accel_Rd(&uC_Probe_Accel_X_Axis,                    /* Read Accelerometer's X, Y, & Z
 382:..\../app.c   ****         //             &uC_Probe_Accel_Y_Axis,
 383:..\../app.c   ****         //             &uC_Probe_Accel_Z_Axis);
 384:..\../app.c   ****       
 385:..\../app.c   ****         
 386:..\../app.c   ****         OSTimeDlyHMSM(0u, 0u, 0u, 50u,
 271              		.loc 1 386 9 discriminator 1 view .LVU64
 272 0004 0E23     		movs	r3, #14
 273 0006 6B44     		add	r3, r3, sp
 274 0008 0193     		str	r3, [sp, #4]
 275 000a 0023     		movs	r3, #0
 276 000c 0093     		str	r3, [sp]
 277 000e 3233     		adds	r3, r3, #50
 278 0010 0022     		movs	r2, #0
 279 0012 0021     		movs	r1, #0
 280 0014 0020     		movs	r0, #0
 281 0016 FFF7FEFF 		bl	OSTimeDlyHMSM
 282              	.LVL25:
 283 001a F3E7     		b	.L17
 284              		.cfi_endproc
 285              	.LFE7:
 286              		.size	App_Demo_SensorTask, .-App_Demo_SensorTask
 287              		.section	.text.main,"ax",%progbits
 288              		.align	1
 289              		.global	main
 290              		.syntax unified
 291              		.code	16
 292              		.thumb_func
 293              		.fpu softvfp
 294              		.type	main, %function
 295              	main:
 296              	.LFB3:
 127:..\../app.c   ****     OS_ERR  os_err;
 297              		.loc 1 127 1 view -0
 298              		.cfi_startproc
 299              		@ Volatile: function does not return.
 300              		@ args = 0, pretend = 0, frame = 8
 301              		@ frame_needed = 0, uses_anonymous_args = 0
 302 0000 10B5     		push	{r4, lr}
ARM GAS  C:\Users\EDULU~1.DES\AppData\Local\Temp\ccyXGgvh.s 			page 14


 303              		.cfi_def_cfa_offset 8
 304              		.cfi_offset 4, -8
 305              		.cfi_offset 14, -4
 306 0002 8CB0     		sub	sp, sp, #48
 307              		.cfi_def_cfa_offset 56
 128:..\../app.c   **** 
 308              		.loc 1 128 5 view .LVU66
 131:..\../app.c   **** 	Mem_Init();                                                 /* Initialize Memory Managment Module 
 309              		.loc 1 131 5 view .LVU67
 310 0004 FFF7FEFF 		bl	CPU_Init
 311              	.LVL26:
 132:..\../app.c   ****     Math_Init();                                                /* Initialize Mathematical Module  
 312              		.loc 1 132 2 view .LVU68
 313 0008 FFF7FEFF 		bl	Mem_Init
 314              	.LVL27:
 133:..\../app.c   ****     
 315              		.loc 1 133 5 view .LVU69
 316 000c FFF7FEFF 		bl	Math_Init
 317              	.LVL28:
 135:..\../app.c   ****     
 318              		.loc 1 135 5 view .LVU70
 319 0010 FFF7FEFF 		bl	BSP_Init
 320              	.LVL29:
 137:..\../app.c   **** 
 321              		.loc 1 137 5 view .LVU71
 322 0014 2E24     		movs	r4, #46
 323 0016 6C44     		add	r4, r4, sp
 324 0018 2000     		movs	r0, r4
 325 001a FFF7FEFF 		bl	OSInit
 326              	.LVL30:
 139:..\../app.c   ****                  "App Task Start",
 327              		.loc 1 139 5 view .LVU72
 328 001e 0894     		str	r4, [sp, #32]
 329 0020 0323     		movs	r3, #3
 330 0022 0793     		str	r3, [sp, #28]
 331 0024 0023     		movs	r3, #0
 332 0026 0693     		str	r3, [sp, #24]
 333 0028 0593     		str	r3, [sp, #20]
 334 002a 0493     		str	r3, [sp, #16]
 335 002c 4033     		adds	r3, r3, #64
 336 002e 0393     		str	r3, [sp, #12]
 337 0030 3A3B     		subs	r3, r3, #58
 338 0032 0293     		str	r3, [sp, #8]
 339 0034 064B     		ldr	r3, .L20
 340 0036 0193     		str	r3, [sp, #4]
 341 0038 0223     		movs	r3, #2
 342 003a 0093     		str	r3, [sp]
 343 003c 0023     		movs	r3, #0
 344 003e 054A     		ldr	r2, .L20+4
 345 0040 0549     		ldr	r1, .L20+8
 346 0042 0648     		ldr	r0, .L20+12
 347 0044 FFF7FEFF 		bl	OSTaskCreate
 348              	.LVL31:
 153:..\../app.c   ****     
 349              		.loc 1 153 5 view .LVU73
 350 0048 2000     		movs	r0, r4
 351 004a FFF7FEFF 		bl	OSStart
ARM GAS  C:\Users\EDULU~1.DES\AppData\Local\Temp\ccyXGgvh.s 			page 15


 352              	.LVL32:
 353              	.L19:
 155:..\../app.c   **** }
 354              		.loc 1 155 5 discriminator 1 view .LVU74
 155:..\../app.c   **** }
 355              		.loc 1 155 19 discriminator 1 view .LVU75
 356 004e FEE7     		b	.L19
 357              	.L21:
 358              		.align	2
 359              	.L20:
 360 0050 7C010000 		.word	App_TaskStartStk
 361 0054 00000000 		.word	App_TaskStart
 362 0058 14000000 		.word	.LC8
 363 005c 80000000 		.word	.LANCHOR1
 364              		.cfi_endproc
 365              	.LFE3:
 366              		.size	main, .-main
 367              		.comm	uC_Probe_Accel_Z_Axis,2,2
 368              		.comm	uC_Probe_Accel_Y_Axis,2,2
 369              		.comm	uC_Probe_Accel_X_Axis,2,2
 370              		.comm	uC_Probe_AmbientLight,2,2
 371              		.comm	uC_Probe_Temp_Val,4,4
 372              		.global	uC_Probe_PB_Trigger
 373              		.comm	uC_Probe_RGB_Val,4,4
 374              		.bss
 375              		.align	2
 376              		.set	.LANCHOR0,. + 0
 377              		.set	.LANCHOR1,. + 128
 378              		.type	App_Demo_SensorTaskTCB, %object
 379              		.size	App_Demo_SensorTaskTCB, 124
 380              	App_Demo_SensorTaskTCB:
 381 0000 00000000 		.space	124
 381      00000000 
 381      00000000 
 381      00000000 
 381      00000000 
 382              		.type	uC_Probe_PB_Trigger, %object
 383              		.size	uC_Probe_PB_Trigger, 1
 384              	uC_Probe_PB_Trigger:
 385 007c 00       		.space	1
 386 007d 000000   		.space	3
 387              		.type	App_TaskStartTCB, %object
 388              		.size	App_TaskStartTCB, 124
 389              	App_TaskStartTCB:
 390 0080 00000000 		.space	124
 390      00000000 
 390      00000000 
 390      00000000 
 390      00000000 
 391              		.type	App_Demo_SensorTaskStk, %object
 392              		.size	App_Demo_SensorTaskStk, 128
 393              	App_Demo_SensorTaskStk:
 394 00fc 00000000 		.space	128
 394      00000000 
 394      00000000 
 394      00000000 
 394      00000000 
ARM GAS  C:\Users\EDULU~1.DES\AppData\Local\Temp\ccyXGgvh.s 			page 16


 395              		.type	App_TaskStartStk, %object
 396              		.size	App_TaskStartStk, 256
 397              	App_TaskStartStk:
 398 017c 00000000 		.space	256
 398      00000000 
 398      00000000 
 398      00000000 
 398      00000000 
 399              		.section	.rodata.str1.4,"aMS",%progbits,1
 400              		.align	2
 401              	.LC1:
 402 0000 44656D6F 		.ascii	"Demo: Sensor Task\000"
 402      3A205365 
 402      6E736F72 
 402      20546173 
 402      6B00
 403 0012 0000     		.space	2
 404              	.LC8:
 405 0014 41707020 		.ascii	"App Task Start\000"
 405      5461736B 
 405      20537461 
 405      727400
 406              		.text
 407              	.Letext0:
 408              		.file 2 "c:\\program files (x86)\\gnu tools arm embedded\\8 2018-q4-major\\arm-none-eabi\\include\
 409              		.file 3 "c:\\program files (x86)\\gnu tools arm embedded\\8 2018-q4-major\\arm-none-eabi\\include\
 410              		.file 4 "c:\\program files (x86)\\gnu tools arm embedded\\8 2018-q4-major\\lib\\gcc\\arm-none-eabi
 411              		.file 5 "c:\\program files (x86)\\gnu tools arm embedded\\8 2018-q4-major\\arm-none-eabi\\include\
 412              		.file 6 "..\\..\\..\\..\\..\\..\\Software\\uC-CPU\\ARM-Cortex-M0\\GNU/cpu.h"
 413              		.file 7 "..\\..\\..\\..\\..\\..\\Software\\uC-CPU/cpu_core.h"
 414              		.file 8 "..\\..\\..\\..\\..\\..\\Software\\uCOS-III\\Source/os_type.h"
 415              		.file 9 "..\\..\\..\\..\\..\\..\\Software\\uCOS-III\\Ports\\ARM-Cortex-M0\\Generic\\GNU/os_cpu.h"
 416              		.file 10 "..\\..\\..\\..\\..\\..\\Software\\uCOS-III\\Source/os.h"
 417              		.file 11 "Generated_Source\\PSoC4/cytypes.h"
 418              		.file 12 "c:\\program files (x86)\\gnu tools arm embedded\\8 2018-q4-major\\arm-none-eabi\\include
 419              		.file 13 "Generated_Source\\PSoC4/CyLib.h"
 420              		.file 14 "Generated_Source\\PSoC4/PWM_Red.h"
 421              		.file 15 "Generated_Source\\PSoC4/PWM_Green.h"
 422              		.file 16 "Generated_Source\\PSoC4/PWM_Blue.h"
 423              		.file 17 "Generated_Source\\PSoC4/Temp_Sensor.h"
 424              		.file 18 "Generated_Source\\PSoC4/ADC.h"
 425              		.file 19 "Generated_Source\\PSoC4/Opamp.h"
 426              		.file 20 "Generated_Source\\PSoC4/I2C.h"
 427              		.file 21 "..\\..\\..\\BSP/bsp.h"
 428              		.file 22 "..\\..\\..\\..\\..\\..\\Software\\uC-LIB/lib_mem.h"
 429              		.file 23 "..\\..\\..\\..\\..\\..\\Software\\uC-LIB/lib_math.h"