ARM GAS  C:\Users\EDULU~1.DES\AppData\Local\Temp\ccpm8yUU.s 			page 1


   1              		.cpu cortex-m0
   2              		.eabi_attribute 20, 1
   3              		.eabi_attribute 21, 1
   4              		.eabi_attribute 23, 3
   5              		.eabi_attribute 24, 1
   6              		.eabi_attribute 25, 1
   7              		.eabi_attribute 26, 1
   8              		.eabi_attribute 30, 1
   9              		.eabi_attribute 34, 0
  10              		.eabi_attribute 18, 4
  11              		.file	"bsp.c"
  12              		.text
  13              	.Ltext0:
  14              		.cfi_sections	.debug_frame
  15              		.section	.text.BSP_Accel_RegRdWr,"ax",%progbits
  16              		.align	1
  17              		.arch armv6s-m
  18              		.syntax unified
  19              		.code	16
  20              		.thumb_func
  21              		.fpu softvfp
  22              		.type	BSP_Accel_RegRdWr, %function
  23              	BSP_Accel_RegRdWr:
  24              	.LVL0:
  25              	.LFB13:
  26              		.file 1 "..\\..\\..\\BSP\\bsp.c"
   1:..\..\..\BSP/bsp.c **** /*
   2:..\..\..\BSP/bsp.c **** ***************************************************************************************************
   3:..\..\..\BSP/bsp.c **** *                                     MICIRUM BOARD SUPPORT PACKAGE
   4:..\..\..\BSP/bsp.c **** *
   5:..\..\..\BSP/bsp.c **** *                             (c) Copyright 2015; Micrium, Inc.; Weston, FL
   6:..\..\..\BSP/bsp.c **** *
   7:..\..\..\BSP/bsp.c **** *               All rights reserved.  Protected by international copyright laws.
   8:..\..\..\BSP/bsp.c **** *               Knowledge of the source code may NOT be used to develop a similar product.
   9:..\..\..\BSP/bsp.c **** *               Please help us continue to provide the Embedded community with the finest
  10:..\..\..\BSP/bsp.c **** *               software available.  Your honesty is greatly appreciated.
  11:..\..\..\BSP/bsp.c **** ***************************************************************************************************
  12:..\..\..\BSP/bsp.c **** */
  13:..\..\..\BSP/bsp.c **** 
  14:..\..\..\BSP/bsp.c **** /*
  15:..\..\..\BSP/bsp.c **** ***************************************************************************************************
  16:..\..\..\BSP/bsp.c **** *                                        BOARD SUPPORT PACKAGE
  17:..\..\..\BSP/bsp.c **** *
  18:..\..\..\BSP/bsp.c **** *                                           CYPRESS PSoC5
  19:..\..\..\BSP/bsp.c **** *                                              with the
  20:..\..\..\BSP/bsp.c **** *                                     CY8CKIT-050 Development Kit
  21:..\..\..\BSP/bsp.c **** *
  22:..\..\..\BSP/bsp.c **** * Filename      : bsp.c
  23:..\..\..\BSP/bsp.c **** * Version       : V1.00
  24:..\..\..\BSP/bsp.c **** * Programmer(s) : DC
  25:..\..\..\BSP/bsp.c **** ***************************************************************************************************
  26:..\..\..\BSP/bsp.c **** */
  27:..\..\..\BSP/bsp.c **** 
  28:..\..\..\BSP/bsp.c **** /*
  29:..\..\..\BSP/bsp.c **** ***************************************************************************************************
  30:..\..\..\BSP/bsp.c **** *                                             INCLUDE FILES
  31:..\..\..\BSP/bsp.c **** ***************************************************************************************************
ARM GAS  C:\Users\EDULU~1.DES\AppData\Local\Temp\ccpm8yUU.s 			page 2


  32:..\..\..\BSP/bsp.c **** */
  33:..\..\..\BSP/bsp.c **** 
  34:..\..\..\BSP/bsp.c **** #define   BSP_MODULE
  35:..\..\..\BSP/bsp.c **** #include  "bsp.h"
  36:..\..\..\BSP/bsp.c **** 
  37:..\..\..\BSP/bsp.c **** #include  <Accel_ISR.h>
  38:..\..\..\BSP/bsp.c **** #include  <Accel_Pin.h>
  39:..\..\..\BSP/bsp.c **** 
  40:..\..\..\BSP/bsp.c **** 
  41:..\..\..\BSP/bsp.c **** /*
  42:..\..\..\BSP/bsp.c **** ***************************************************************************************************
  43:..\..\..\BSP/bsp.c **** *                                            LOCAL DEFINES
  44:..\..\..\BSP/bsp.c **** ***************************************************************************************************
  45:..\..\..\BSP/bsp.c **** */
  46:..\..\..\BSP/bsp.c ****                                                                 /* ------------------- COLOR DEFINE
  47:..\..\..\BSP/bsp.c **** #define  BSP_RGB_BRIGHT_SAT_SHIFT               0x01u
  48:..\..\..\BSP/bsp.c **** #define  BSP_RGB_MAX_ALPHA_VAL                  0xFFu
  49:..\..\..\BSP/bsp.c **** 
  50:..\..\..\BSP/bsp.c ****                                                                 /* -------------- COLOR POSITION DE
  51:..\..\..\BSP/bsp.c **** #define  BSP_RGB_ALPHA_POS_SHIFT                24u             /* Shift to set the Alpha Value to 
  52:..\..\..\BSP/bsp.c **** #define  BSP_RGB_RED_POS_SHIFT                  16u             /* Shift to set the RED   Value to 
  53:..\..\..\BSP/bsp.c **** #define  BSP_RGB_GREEN_POS_SHIFT                 8u             /* Shift to set the Green Value to 
  54:..\..\..\BSP/bsp.c **** #define  BSP_RGB_BLUE_POS_SHIFT                  0u             /* Shift to set the Blue  Value to 
  55:..\..\..\BSP/bsp.c **** 
  56:..\..\..\BSP/bsp.c ****                                                                 /* ------------------ ACCEL: DEFINE
  57:..\..\..\BSP/bsp.c **** #define  BSP_ACCEL_INVALID_MSK                  0xF000u         /* Mask Accelerometer Value if Over
  58:..\..\..\BSP/bsp.c **** 
  59:..\..\..\BSP/bsp.c ****                                                                 /* --------------- ACCEL: WAKEUP VA
  60:..\..\..\BSP/bsp.c **** #define  BSP_ACCEL_WAKEUP_CNTS                  50u             /* Desired Delay : 1 sec; Cnts:   1
  61:..\..\..\BSP/bsp.c **** #define  BSP_ACCEL_WAKEUP_THRESH_CNTS            8u             /* Desired Thresh: 0.5g ; Cnts: 0.5
  62:..\..\..\BSP/bsp.c **** 
  63:..\..\..\BSP/bsp.c **** 
  64:..\..\..\BSP/bsp.c **** /*
  65:..\..\..\BSP/bsp.c **** ***************************************************************************************************
  66:..\..\..\BSP/bsp.c **** *                                           LOCAL CONSTANTS
  67:..\..\..\BSP/bsp.c **** ***************************************************************************************************
  68:..\..\..\BSP/bsp.c **** */
  69:..\..\..\BSP/bsp.c **** 
  70:..\..\..\BSP/bsp.c **** 
  71:..\..\..\BSP/bsp.c **** /*
  72:..\..\..\BSP/bsp.c **** ***************************************************************************************************
  73:..\..\..\BSP/bsp.c **** *                                             LOCAL MACROs
  74:..\..\..\BSP/bsp.c **** ***************************************************************************************************
  75:..\..\..\BSP/bsp.c **** */
  76:..\..\..\BSP/bsp.c **** 
  77:..\..\..\BSP/bsp.c **** 
  78:..\..\..\BSP/bsp.c **** /*
  79:..\..\..\BSP/bsp.c **** ***************************************************************************************************
  80:..\..\..\BSP/bsp.c **** *                                       LOCAL GLOBAL VARIABLES
  81:..\..\..\BSP/bsp.c **** ***************************************************************************************************
  82:..\..\..\BSP/bsp.c **** */
  83:..\..\..\BSP/bsp.c ****                                                                 /* ------------------- RGB LED VARs
  84:..\..\..\BSP/bsp.c **** CPU_INT32U  RGB_PrevVal = BSP_RGB_COLOR_OFF;
  85:..\..\..\BSP/bsp.c **** 
  86:..\..\..\BSP/bsp.c **** 
  87:..\..\..\BSP/bsp.c **** /*
  88:..\..\..\BSP/bsp.c **** ***************************************************************************************************
ARM GAS  C:\Users\EDULU~1.DES\AppData\Local\Temp\ccpm8yUU.s 			page 3


  89:..\..\..\BSP/bsp.c **** *                                      LOCAL FUNCTION PROTOTYPES
  90:..\..\..\BSP/bsp.c **** ***************************************************************************************************
  91:..\..\..\BSP/bsp.c **** */
  92:..\..\..\BSP/bsp.c ****                                                                 /* --------------- ACCEL LOCAL FUNC
  93:..\..\..\BSP/bsp.c **** static  CPU_BOOLEAN  BSP_Accel_InitSelfTst (void);
  94:..\..\..\BSP/bsp.c **** 
  95:..\..\..\BSP/bsp.c **** static  CPU_BOOLEAN  BSP_Accel_RegRdWr     (BSP_KXTJ2_DATA_DIR   rd_wr,
  96:..\..\..\BSP/bsp.c ****                                             CPU_INT08U           reg,
  97:..\..\..\BSP/bsp.c ****                                             CPU_INT08U          *value);
  98:..\..\..\BSP/bsp.c ****                                                                 
  99:..\..\..\BSP/bsp.c **** /*
 100:..\..\..\BSP/bsp.c **** ***************************************************************************************************
 101:..\..\..\BSP/bsp.c **** *                                         LOCAL ISR PROTOTYPES
 102:..\..\..\BSP/bsp.c **** ***************************************************************************************************
 103:..\..\..\BSP/bsp.c **** */
 104:..\..\..\BSP/bsp.c ****                                                                 /* -------------- BSP ACCELEROMETER
 105:..\..\..\BSP/bsp.c **** CY_ISR_PROTO(BSP_Accel_ISR_Handler);                            /* See BSP_Init Note (2B) For more 
 106:..\..\..\BSP/bsp.c **** 
 107:..\..\..\BSP/bsp.c **** 
 108:..\..\..\BSP/bsp.c **** /*
 109:..\..\..\BSP/bsp.c **** ***************************************************************************************************
 110:..\..\..\BSP/bsp.c **** *                                              BSP_Init()
 111:..\..\..\BSP/bsp.c **** *
 112:..\..\..\BSP/bsp.c **** * Description : Initialize Board Support Package.
 113:..\..\..\BSP/bsp.c **** *
 114:..\..\..\BSP/bsp.c **** * Argument(s) : none.
 115:..\..\..\BSP/bsp.c **** *
 116:..\..\..\BSP/bsp.c **** * Return(s)   : none.
 117:..\..\..\BSP/bsp.c **** *
 118:..\..\..\BSP/bsp.c **** * Caller(s)   : main().
 119:..\..\..\BSP/bsp.c **** *
 120:..\..\..\BSP/bsp.c **** * Note(s)     : (1) This funtion initializes Peripherals required. For this BSP, the BSP_Init() mus
 121:..\..\..\BSP/bsp.c **** *                   called before the OS Initializes due to the Configuration of the OS Interrupt a
 122:..\..\..\BSP/bsp.c **** *                   PendSV Handlers being done here. Since these are Interrupts are based on the CP
 123:..\..\..\BSP/bsp.c **** *                   NVIC Interrupt Sources, they are handled differently than Peripheral Interrupts
 124:..\..\..\BSP/bsp.c **** *
 125:..\..\..\BSP/bsp.c **** *               (2) For Peripheral Interrupts, each Interrupt 'name' (set in the 'TopDesign.cysch' 
 126:..\..\..\BSP/bsp.c **** *                   will generate source code files with that specific name. under the Interrupt's
 127:..\..\..\BSP/bsp.c **** *                   <name.c> file, there the <name's> default ISR handler will be generated and you
 128:..\..\..\BSP/bsp.c **** *                   code's ISR Handler should be added there within the comments to not be removed 
 129:..\..\..\BSP/bsp.c **** *                   the next necessary compile of the 'Generated Sources'.
 130:..\..\..\BSP/bsp.c **** *                   (A) Another option would be to call the <name's>_StartEx(ISR Handler) call wher
 131:..\..\..\BSP/bsp.c **** *                       argument passed is the address of the ISR to set in the IVT.
 132:..\..\..\BSP/bsp.c **** *
 133:..\..\..\BSP/bsp.c **** *                   (B) Each ISR Function should use the CY_ISR and CY_ISR_PROTO macros to provide
 134:..\..\..\BSP/bsp.c **** *                       consistency definition across compilers using the following examples:
 135:..\..\..\BSP/bsp.c **** *                           - Function Definition Example:
 136:..\..\..\BSP/bsp.c **** *                               CY_ISR(MyISR) {...}
 137:..\..\..\BSP/bsp.c **** *                           - Function Prototype  Example:
 138:..\..\..\BSP/bsp.c **** *                               CY_ISR_PROTO(MyISR);
 139:..\..\..\BSP/bsp.c **** *
 140:..\..\..\BSP/bsp.c **** *               (3) Every OS-Aware ISR should follow the following example setup:
 141:..\..\..\BSP/bsp.c **** *                       CY_ISR(MyISR)
 142:..\..\..\BSP/bsp.c **** *                       {
 143:..\..\..\BSP/bsp.c **** *                           CPU_SR_ALLOC();
 144:..\..\..\BSP/bsp.c **** *
 145:..\..\..\BSP/bsp.c **** *
ARM GAS  C:\Users\EDULU~1.DES\AppData\Local\Temp\ccpm8yUU.s 			page 4


 146:..\..\..\BSP/bsp.c **** *                           CPU_CRITICAL_ENTER();
 147:..\..\..\BSP/bsp.c **** *                           OSIntEnter();
 148:..\..\..\BSP/bsp.c **** *                           CPU_CRITICAL_EXIT();
 149:..\..\..\BSP/bsp.c **** *
 150:..\..\..\BSP/bsp.c **** *                           <Handle ISR Here>
 151:..\..\..\BSP/bsp.c **** *
 152:..\..\..\BSP/bsp.c **** *                           OSIntExit();
 153:..\..\..\BSP/bsp.c **** *                       }
 154:..\..\..\BSP/bsp.c **** ***************************************************************************************************
 155:..\..\..\BSP/bsp.c **** */
 156:..\..\..\BSP/bsp.c **** 
 157:..\..\..\BSP/bsp.c **** 
 158:..\..\..\BSP/bsp.c **** void BSP_Init (void)
 159:..\..\..\BSP/bsp.c **** {
 160:..\..\..\BSP/bsp.c ****     CPU_INT32U   reg_val;
 161:..\..\..\BSP/bsp.c ****     CPU_INT32U  *p_vect_tbl;
 162:..\..\..\BSP/bsp.c ****     
 163:..\..\..\BSP/bsp.c ****                                                                 /* -------------- SET PENDSV & TICK
 164:..\..\..\BSP/bsp.c ****     reg_val = CPU_REG_NVIC_VTOR;                                /* Get the NVIC Offset Table       
 165:..\..\..\BSP/bsp.c ****     DEF_BIT_CLR(reg_val, DEF_BIT_29);                           /* Clear the TBLBASE Bit           
 166:..\..\..\BSP/bsp.c ****     
 167:..\..\..\BSP/bsp.c ****     p_vect_tbl                  = (CPU_INT32U *)reg_val;           
 168:..\..\..\BSP/bsp.c ****                                                                 /* Install the PendSV & Systick Int
 169:..\..\..\BSP/bsp.c ****     p_vect_tbl[CPU_INT_PENDSV]  = (CPU_INT32U  )PendSV_Handler;
 170:..\..\..\BSP/bsp.c ****     p_vect_tbl[CPU_INT_SYSTICK] = (CPU_INT32U  )SysTick_Handler;
 171:..\..\..\BSP/bsp.c ****     
 172:..\..\..\BSP/bsp.c ****                                                                 /* ----------------- INIT RGB LED P
 173:..\..\..\BSP/bsp.c ****     PWM_Red_Start();                                            /* Enable and Start the PWM Block f
 174:..\..\..\BSP/bsp.c **** 	PWM_Green_Start();
 175:..\..\..\BSP/bsp.c **** 	PWM_Blue_Start();
 176:..\..\..\BSP/bsp.c ****     
 177:..\..\..\BSP/bsp.c ****                                                                 /* ----------------- INIT TEMP SENS
 178:..\..\..\BSP/bsp.c ****     Temp_Sensor_Start();                                        /* Initialize and Start the TMP05 T
 179:..\..\..\BSP/bsp.c ****     Temp_Sensor_Trigger();                                      /* Trigger the Temp Sensor Componen
 180:..\..\..\BSP/bsp.c ****     
 181:..\..\..\BSP/bsp.c ****                                                                 /* --------------- AMBIENT LIGHT SE
 182:..\..\..\BSP/bsp.c ****     Opamp_Start();                                              /* Start the OpAmp Hardware require
 183:..\..\..\BSP/bsp.c ****     ADC_Start();                                                /* Enable and Start the ADC Block. 
 184:..\..\..\BSP/bsp.c **** }
 185:..\..\..\BSP/bsp.c **** 
 186:..\..\..\BSP/bsp.c **** 
 187:..\..\..\BSP/bsp.c **** /*
 188:..\..\..\BSP/bsp.c **** ***************************************************************************************************
 189:..\..\..\BSP/bsp.c **** *                                          BSP_CPU_TickInit()
 190:..\..\..\BSP/bsp.c **** *
 191:..\..\..\BSP/bsp.c **** * Description : Configure and Initialize the Tick Interrupt.
 192:..\..\..\BSP/bsp.c **** *
 193:..\..\..\BSP/bsp.c **** * Argument(s) : none.
 194:..\..\..\BSP/bsp.c **** *
 195:..\..\..\BSP/bsp.c **** * Return(s)   : none.
 196:..\..\..\BSP/bsp.c **** *
 197:..\..\..\BSP/bsp.c **** * Caller(s)   : App_TaskStart().
 198:..\..\..\BSP/bsp.c **** *
 199:..\..\..\BSP/bsp.c **** * Note(s)     : (1) The ARM-Cortex-M0 Port figures out the necessary qty of Ticks required for the
 200:..\..\..\BSP/bsp.c **** *                   Periodic Time Source (SysTick) by just passing the CPU Clock Frequency to the
 201:..\..\..\BSP/bsp.c **** *                   OS_CPU_SysTickInit function.
 202:..\..\..\BSP/bsp.c **** ***************************************************************************************************
ARM GAS  C:\Users\EDULU~1.DES\AppData\Local\Temp\ccpm8yUU.s 			page 5


 203:..\..\..\BSP/bsp.c **** */
 204:..\..\..\BSP/bsp.c **** 
 205:..\..\..\BSP/bsp.c **** void  BSP_CPU_TickInit (void)
 206:..\..\..\BSP/bsp.c **** {
 207:..\..\..\BSP/bsp.c ****     CPU_INT32U  cpu_clk_freq;
 208:..\..\..\BSP/bsp.c ****     
 209:..\..\..\BSP/bsp.c ****     
 210:..\..\..\BSP/bsp.c ****     cpu_clk_freq = BSP_CPU_ClkFreq();                           /* Determine CPU Clock Frequency fo
 211:..\..\..\BSP/bsp.c **** 
 212:..\..\..\BSP/bsp.c ****     OS_CPU_SysTickInit(cpu_clk_freq);                           /* Init uC/OS Periodic Time Source 
 213:..\..\..\BSP/bsp.c **** }
 214:..\..\..\BSP/bsp.c **** 
 215:..\..\..\BSP/bsp.c **** 
 216:..\..\..\BSP/bsp.c **** /*
 217:..\..\..\BSP/bsp.c **** ***************************************************************************************************
 218:..\..\..\BSP/bsp.c **** *                                          BSP_CPU_ClkFreq()
 219:..\..\..\BSP/bsp.c **** *
 220:..\..\..\BSP/bsp.c **** * Description : Returns the CPU's Clock Frequency Configured.
 221:..\..\..\BSP/bsp.c **** *
 222:..\..\..\BSP/bsp.c **** * Argument(s) : none.
 223:..\..\..\BSP/bsp.c **** *
 224:..\..\..\BSP/bsp.c **** * Return(s)   : The CPU clock frequency, in Hz.
 225:..\..\..\BSP/bsp.c **** *
 226:..\..\..\BSP/bsp.c **** * Caller(s)   : BSP_CPU_TickInit().
 227:..\..\..\BSP/bsp.c **** *
 228:..\..\..\BSP/bsp.c **** * Note(s)     : none.
 229:..\..\..\BSP/bsp.c **** ***************************************************************************************************
 230:..\..\..\BSP/bsp.c **** */
 231:..\..\..\BSP/bsp.c **** 
 232:..\..\..\BSP/bsp.c **** CPU_INT32U  BSP_CPU_ClkFreq (void)
 233:..\..\..\BSP/bsp.c **** {
 234:..\..\..\BSP/bsp.c ****     return (BSP_PSOC_CPU_FREQ);
 235:..\..\..\BSP/bsp.c **** }
 236:..\..\..\BSP/bsp.c **** 
 237:..\..\..\BSP/bsp.c **** 
 238:..\..\..\BSP/bsp.c **** /*
 239:..\..\..\BSP/bsp.c **** ***************************************************************************************************
 240:..\..\..\BSP/bsp.c **** ***************************************************************************************************
 241:..\..\..\BSP/bsp.c **** *                                            LED FUNCTIONS
 242:..\..\..\BSP/bsp.c **** ***************************************************************************************************
 243:..\..\..\BSP/bsp.c **** ***************************************************************************************************
 244:..\..\..\BSP/bsp.c **** */
 245:..\..\..\BSP/bsp.c **** 
 246:..\..\..\BSP/bsp.c **** 
 247:..\..\..\BSP/bsp.c **** /*
 248:..\..\..\BSP/bsp.c **** ***************************************************************************************************
 249:..\..\..\BSP/bsp.c **** *                                             BSP_RGB_On()
 250:..\..\..\BSP/bsp.c **** *
 251:..\..\..\BSP/bsp.c **** * Description : Turn ON the RBG LED on the Board with the Last Value saved before an BSP_RGB_Off() 
 252:..\..\..\BSP/bsp.c **** *
 253:..\..\..\BSP/bsp.c **** * Argument(s) : none.
 254:..\..\..\BSP/bsp.c **** *
 255:..\..\..\BSP/bsp.c **** * Return(s)   : none.
 256:..\..\..\BSP/bsp.c **** *
 257:..\..\..\BSP/bsp.c **** * Caller(s)   : Application.
 258:..\..\..\BSP/bsp.c **** *
 259:..\..\..\BSP/bsp.c **** * Note(s)     : (1) The RGB_PrevVal holds the Hex (0x) value previously saved when the RGB LED was 
ARM GAS  C:\Users\EDULU~1.DES\AppData\Local\Temp\ccpm8yUU.s 			page 6


 260:..\..\..\BSP/bsp.c **** *                   turned off.
 261:..\..\..\BSP/bsp.c **** ***************************************************************************************************
 262:..\..\..\BSP/bsp.c **** */
 263:..\..\..\BSP/bsp.c **** 
 264:..\..\..\BSP/bsp.c **** void  BSP_RGB_On (void)
 265:..\..\..\BSP/bsp.c **** {
 266:..\..\..\BSP/bsp.c ****     BSP_RGB_ColorSet(RGB_PrevVal);                              /* Restore the RGB Color of the Pre
 267:..\..\..\BSP/bsp.c **** }
 268:..\..\..\BSP/bsp.c **** 
 269:..\..\..\BSP/bsp.c **** 
 270:..\..\..\BSP/bsp.c **** /*
 271:..\..\..\BSP/bsp.c **** ***************************************************************************************************
 272:..\..\..\BSP/bsp.c **** *                                            BSP_RGB_Off()
 273:..\..\..\BSP/bsp.c **** *
 274:..\..\..\BSP/bsp.c **** * Description : Turn OFF the RBG LED on the Board and save the Current Color Value.
 275:..\..\..\BSP/bsp.c **** *
 276:..\..\..\BSP/bsp.c **** * Argument(s) : none.
 277:..\..\..\BSP/bsp.c **** *
 278:..\..\..\BSP/bsp.c **** * Return(s)   : none.
 279:..\..\..\BSP/bsp.c **** *
 280:..\..\..\BSP/bsp.c **** * Caller(s)   : Application.
 281:..\..\..\BSP/bsp.c **** *
 282:..\..\..\BSP/bsp.c **** * Note(s)     : (1) The RGB_PrevVal will save the current value of the RBG LED, in Hex (0x), to res
 283:..\..\..\BSP/bsp.c **** *                   the same color next time the RGB LED is turned on.
 284:..\..\..\BSP/bsp.c **** *
 285:..\..\..\BSP/bsp.c **** *               (2) RGB Black Value = 0xFF000000u, which signifies LED is OFF.
 286:..\..\..\BSP/bsp.c **** ***************************************************************************************************
 287:..\..\..\BSP/bsp.c **** */
 288:..\..\..\BSP/bsp.c **** 
 289:..\..\..\BSP/bsp.c **** void  BSP_RGB_Off (void)
 290:..\..\..\BSP/bsp.c **** {
 291:..\..\..\BSP/bsp.c ****     RGB_PrevVal = BSP_RGB_ColorRead();                          /* Save the Current RBG Color Value
 292:..\..\..\BSP/bsp.c ****     BSP_RGB_ColorSet(BSP_RGB_COLOR_OFF);                        /* Turn the RGB Color LED OFF.     
 293:..\..\..\BSP/bsp.c **** }
 294:..\..\..\BSP/bsp.c **** 
 295:..\..\..\BSP/bsp.c **** 
 296:..\..\..\BSP/bsp.c **** /*
 297:..\..\..\BSP/bsp.c **** ***************************************************************************************************
 298:..\..\..\BSP/bsp.c **** *                                          BSP_RGB_ColorSet()
 299:..\..\..\BSP/bsp.c **** *
 300:..\..\..\BSP/bsp.c **** * Description : TOGGLE any or all the LEDs on the board.
 301:..\..\..\BSP/bsp.c **** *
 302:..\..\..\BSP/bsp.c **** * Argument(s) : color   The Color Value (in Hex) desired to Set.
 303:..\..\..\BSP/bsp.c **** *
 304:..\..\..\BSP/bsp.c **** * Return(s)   : none.
 305:..\..\..\BSP/bsp.c **** *
 306:..\..\..\BSP/bsp.c **** * Caller(s)   : Application.
 307:..\..\..\BSP/bsp.c **** *
 308:..\..\..\BSP/bsp.c **** * Note(s)     : (1) The RGBA Color Value (in Hex) is represented in the following way:
 309:..\..\..\BSP/bsp.c **** *                       Color = 0x FF 12 34 56
 310:..\..\..\BSP/bsp.c **** *                                   \  \  \  \
 311:..\..\..\BSP/bsp.c **** *                                    \  \  \  - Blue  LED Color.
 312:..\..\..\BSP/bsp.c **** *                                     \  \  - - Green LED Color.
 313:..\..\..\BSP/bsp.c **** *                                      \  - - - Red   LED Color.
 314:..\..\..\BSP/bsp.c **** *                                       - - - - Alpha Index Value.
 315:..\..\..\BSP/bsp.c **** ***************************************************************************************************
 316:..\..\..\BSP/bsp.c **** */
ARM GAS  C:\Users\EDULU~1.DES\AppData\Local\Temp\ccpm8yUU.s 			page 7


 317:..\..\..\BSP/bsp.c **** 
 318:..\..\..\BSP/bsp.c **** void  BSP_RGB_ColorSet (CPU_INT32U  color)
 319:..\..\..\BSP/bsp.c **** {
 320:..\..\..\BSP/bsp.c ****     CPU_INT08U  alpha;
 321:..\..\..\BSP/bsp.c ****     CPU_INT08U  color_val;
 322:..\..\..\BSP/bsp.c ****     CPU_INT16U  pwm_color;
 323:..\..\..\BSP/bsp.c ****     
 324:..\..\..\BSP/bsp.c **** 
 325:..\..\..\BSP/bsp.c ****     alpha     = HI8(HI16(color));                               /* Get Alpha Index from Hex Color V
 326:..\..\..\BSP/bsp.c ****     
 327:..\..\..\BSP/bsp.c ****                                                                 /* ---------------- SET LED COLOR: 
 328:..\..\..\BSP/bsp.c ****     color_val = LO8(HI16(color));                               /* Get Red Value from the Desired R
 329:..\..\..\BSP/bsp.c ****     
 330:..\..\..\BSP/bsp.c ****                                                                 /* Convert the RGBA Value to a PWM 
 331:..\..\..\BSP/bsp.c ****     pwm_color = ((((0xFFu - alpha) * 0xFFu) + (alpha * color_val)) >> BSP_RGB_BRIGHT_SAT_SHIFT);
 332:..\..\..\BSP/bsp.c ****     PWM_Red_WriteCompare(pwm_color);
 333:..\..\..\BSP/bsp.c ****     
 334:..\..\..\BSP/bsp.c ****                                                                 /* --------------- SET LED COLOR: G
 335:..\..\..\BSP/bsp.c ****     color_val = HI8(LO16(color));                               /* Get Green Value from the Desired
 336:..\..\..\BSP/bsp.c ****     
 337:..\..\..\BSP/bsp.c ****                                                                 /* Convert the RGBA Value to a PWM 
 338:..\..\..\BSP/bsp.c ****     pwm_color = ((((0xFFu - alpha) * 0xFFu) + (alpha * color_val)) >> BSP_RGB_BRIGHT_SAT_SHIFT);
 339:..\..\..\BSP/bsp.c ****     PWM_Green_WriteCompare(pwm_color);
 340:..\..\..\BSP/bsp.c ****     
 341:..\..\..\BSP/bsp.c ****                                                                 /* ---------------- SET LED COLOR: 
 342:..\..\..\BSP/bsp.c ****     color_val = LO8(LO16(color));                               /* Get Blue Value from the Desired 
 343:..\..\..\BSP/bsp.c ****     
 344:..\..\..\BSP/bsp.c ****                                                                 /* Convert the RGBA Value to a PWM 
 345:..\..\..\BSP/bsp.c ****     pwm_color = ((((0xFFu - alpha) * 0xFFu) + (alpha * color_val)) >> BSP_RGB_BRIGHT_SAT_SHIFT);
 346:..\..\..\BSP/bsp.c ****     PWM_Blue_WriteCompare(pwm_color);
 347:..\..\..\BSP/bsp.c **** }
 348:..\..\..\BSP/bsp.c **** 
 349:..\..\..\BSP/bsp.c **** 
 350:..\..\..\BSP/bsp.c **** /*
 351:..\..\..\BSP/bsp.c **** ***************************************************************************************************
 352:..\..\..\BSP/bsp.c **** *                                         BSP_RGB_ColorRead()
 353:..\..\..\BSP/bsp.c **** *
 354:..\..\..\BSP/bsp.c **** * Description : Read and Return the latest Color Value of the RGB LED PWM Signals.
 355:..\..\..\BSP/bsp.c **** *
 356:..\..\..\BSP/bsp.c **** * Argument(s) : none.
 357:..\..\..\BSP/bsp.c **** *
 358:..\..\..\BSP/bsp.c **** * Return(s)   : Converted Color Value of the RGB LED.
 359:..\..\..\BSP/bsp.c **** *
 360:..\..\..\BSP/bsp.c **** * Caller(s)   : Application.
 361:..\..\..\BSP/bsp.c **** *
 362:..\..\..\BSP/bsp.c **** * Note(s)     : (1) This Function reads the PWM Signals for the Red, Green, and Blue (LED) Signals 
 363:..\..\..\BSP/bsp.c **** *                   conver the Individual RGB Value to an RGBA value to return.
 364:..\..\..\BSP/bsp.c **** *
 365:..\..\..\BSP/bsp.c **** *               (2) This Function assumes a maximum Alpha value (0xFF) will be assigned and used to
 366:..\..\..\BSP/bsp.c **** *                   convert PWM signals to RGB color values (in hex).
 367:..\..\..\BSP/bsp.c **** *
 368:..\..\..\BSP/bsp.c **** *               (3) The RGBA Color Value (in Hex) is represented in the following way:
 369:..\..\..\BSP/bsp.c **** *                       Color = 0x FF 12 34 56
 370:..\..\..\BSP/bsp.c **** *                                   \  \  \  \
 371:..\..\..\BSP/bsp.c **** *                                    \  \  \  - Blue  LED Color.
 372:..\..\..\BSP/bsp.c **** *                                     \  \  - - Green LED Color.
 373:..\..\..\BSP/bsp.c **** *                                      \  - - - Red   LED Color.
ARM GAS  C:\Users\EDULU~1.DES\AppData\Local\Temp\ccpm8yUU.s 			page 8


 374:..\..\..\BSP/bsp.c **** *                                       - - - - Alpha Index Value.
 375:..\..\..\BSP/bsp.c **** ***************************************************************************************************
 376:..\..\..\BSP/bsp.c **** */
 377:..\..\..\BSP/bsp.c **** 
 378:..\..\..\BSP/bsp.c **** CPU_INT32U  BSP_RGB_ColorRead (void)
 379:..\..\..\BSP/bsp.c **** {
 380:..\..\..\BSP/bsp.c ****     CPU_INT32U  color;
 381:..\..\..\BSP/bsp.c ****     CPU_INT16U  pwm_color;
 382:..\..\..\BSP/bsp.c ****     CPU_INT08U  color_val;
 383:..\..\..\BSP/bsp.c ****     
 384:..\..\..\BSP/bsp.c ****     
 385:..\..\..\BSP/bsp.c ****     color = (BSP_RGB_MAX_ALPHA_VAL << BSP_RGB_ALPHA_POS_SHIFT); /* Set the Max Alpha Value to RGBA 
 386:..\..\..\BSP/bsp.c ****     
 387:..\..\..\BSP/bsp.c ****                                                                 /* ---------------- GET LED COLOR: 
 388:..\..\..\BSP/bsp.c ****     pwm_color = PWM_Red_ReadCompare();                          /* Get the PWM Compared Value to co
 389:..\..\..\BSP/bsp.c ****     color_val = ((pwm_color << BSP_RGB_BRIGHT_SAT_SHIFT) / BSP_RGB_MAX_ALPHA_VAL);
 390:..\..\..\BSP/bsp.c ****     
 391:..\..\..\BSP/bsp.c ****     color    |= (color_val << BSP_RGB_RED_POS_SHIFT);           /* Set the RED Converted value to R
 392:..\..\..\BSP/bsp.c ****     
 393:..\..\..\BSP/bsp.c ****                                                                 /* --------------- GET LED COLOR: G
 394:..\..\..\BSP/bsp.c ****     pwm_color = PWM_Green_ReadCompare();                        /* Get the PWM Compared Value to co
 395:..\..\..\BSP/bsp.c ****     color_val = ((pwm_color << BSP_RGB_BRIGHT_SAT_SHIFT) / BSP_RGB_MAX_ALPHA_VAL);
 396:..\..\..\BSP/bsp.c ****     
 397:..\..\..\BSP/bsp.c ****     color    |= (color_val << BSP_RGB_GREEN_POS_SHIFT);         /* Set the GREEN Converted value to
 398:..\..\..\BSP/bsp.c ****     
 399:..\..\..\BSP/bsp.c ****                                                                 /* ---------------- GET LED COLOR: 
 400:..\..\..\BSP/bsp.c ****     pwm_color = PWM_Blue_ReadCompare();                         /* Get the PWM Compared Value to co
 401:..\..\..\BSP/bsp.c ****     color_val = ((pwm_color << BSP_RGB_BRIGHT_SAT_SHIFT) / BSP_RGB_MAX_ALPHA_VAL);
 402:..\..\..\BSP/bsp.c ****     
 403:..\..\..\BSP/bsp.c ****     color    |= (color_val << BSP_RGB_BLUE_POS_SHIFT);          /* Set the BLUE Converted value to 
 404:..\..\..\BSP/bsp.c ****     
 405:..\..\..\BSP/bsp.c ****     return (color);
 406:..\..\..\BSP/bsp.c **** }
 407:..\..\..\BSP/bsp.c **** 
 408:..\..\..\BSP/bsp.c **** 
 409:..\..\..\BSP/bsp.c **** /*
 410:..\..\..\BSP/bsp.c **** ***************************************************************************************************
 411:..\..\..\BSP/bsp.c **** ***************************************************************************************************
 412:..\..\..\BSP/bsp.c **** *                                        PUSH BUTTON FUNCTIONS
 413:..\..\..\BSP/bsp.c **** ***************************************************************************************************
 414:..\..\..\BSP/bsp.c **** ***************************************************************************************************
 415:..\..\..\BSP/bsp.c **** */
 416:..\..\..\BSP/bsp.c **** 
 417:..\..\..\BSP/bsp.c **** /*
 418:..\..\..\BSP/bsp.c **** ***************************************************************************************************
 419:..\..\..\BSP/bsp.c **** *                                          BSP_PB_StatusGet()
 420:..\..\..\BSP/bsp.c **** *
 421:..\..\..\BSP/bsp.c **** * Description : Get the current status of the push buttons.
 422:..\..\..\BSP/bsp.c **** *
 423:..\..\..\BSP/bsp.c **** * Argument(s) : none.
 424:..\..\..\BSP/bsp.c **** *
 425:..\..\..\BSP/bsp.c **** * Return(s)   : Status of the Push Button (Active Low).
 426:..\..\..\BSP/bsp.c **** *                   - DEF_ON    If the push button is pressed.
 427:..\..\..\BSP/bsp.c **** *                   - DEF_OFF,  Otherwise.
 428:..\..\..\BSP/bsp.c **** *
 429:..\..\..\BSP/bsp.c **** * Caller(s)   : Application
 430:..\..\..\BSP/bsp.c **** *
ARM GAS  C:\Users\EDULU~1.DES\AppData\Local\Temp\ccpm8yUU.s 			page 9


 431:..\..\..\BSP/bsp.c **** * Note(s)     : (1) 'SW2' is the Set name of the only Push button (USER SW) found on the board. If 
 432:..\..\..\BSP/bsp.c **** *                   push button name changes, this Function call must be updated.
 433:..\..\..\BSP/bsp.c **** ***************************************************************************************************
 434:..\..\..\BSP/bsp.c **** */
 435:..\..\..\BSP/bsp.c **** 
 436:..\..\..\BSP/bsp.c **** CPU_BOOLEAN  BSP_PB_StatusGet (void)
 437:..\..\..\BSP/bsp.c **** {
 438:..\..\..\BSP/bsp.c ****     CPU_BOOLEAN  pb_status;
 439:..\..\..\BSP/bsp.c ****     CPU_INT08U   sw_val;
 440:..\..\..\BSP/bsp.c **** 
 441:..\..\..\BSP/bsp.c ****     
 442:..\..\..\BSP/bsp.c ****     sw_val = SW2_Read();                                        /* Get Push Button 'SW2' Status.   
 443:..\..\..\BSP/bsp.c ****     pb_status = DEF_BIT_IS_CLR(sw_val, DEF_BIT_00);             /* Check if 'SW2' was pressed. Acti
 444:..\..\..\BSP/bsp.c **** 
 445:..\..\..\BSP/bsp.c ****     return (pb_status);
 446:..\..\..\BSP/bsp.c **** }
 447:..\..\..\BSP/bsp.c **** 
 448:..\..\..\BSP/bsp.c **** 
 449:..\..\..\BSP/bsp.c **** /*
 450:..\..\..\BSP/bsp.c **** ***************************************************************************************************
 451:..\..\..\BSP/bsp.c **** ***************************************************************************************************
 452:..\..\..\BSP/bsp.c **** *                                    ACCELEROMETER (I2C) FUNCTIONS
 453:..\..\..\BSP/bsp.c **** ***************************************************************************************************
 454:..\..\..\BSP/bsp.c **** ***************************************************************************************************
 455:..\..\..\BSP/bsp.c **** */
 456:..\..\..\BSP/bsp.c **** 
 457:..\..\..\BSP/bsp.c **** /*
 458:..\..\..\BSP/bsp.c **** ***************************************************************************************************
 459:..\..\..\BSP/bsp.c **** *                                           BSP_Accel_Init()
 460:..\..\..\BSP/bsp.c **** *
 461:..\..\..\BSP/bsp.c **** * Description : Initialize the Accelerometer, connected via I2C communication, for proper operation
 462:..\..\..\BSP/bsp.c **** *
 463:..\..\..\BSP/bsp.c **** * Argument(s) : none.
 464:..\..\..\BSP/bsp.c **** *
 465:..\..\..\BSP/bsp.c **** * Return(s)   : none.
 466:..\..\..\BSP/bsp.c **** *
 467:..\..\..\BSP/bsp.c **** * Caller(s)   : BSP_Init().
 468:..\..\..\BSP/bsp.c **** *
 469:..\..\..\BSP/bsp.c **** * Note(s)     : (1) The Desired Wake Up Timer Counts should be Calculated using the following equat
 470:..\..\..\BSP/bsp.c **** *                       Counts = Desired Delay Time (sec) x ODR Period (Hz) [OWUF]
 471:..\..\..\BSP/bsp.c **** *
 472:..\..\..\BSP/bsp.c **** *                   Every Count is Calculated as 1/OWUF Delay Period.
 473:..\..\..\BSP/bsp.c **** *
 474:..\..\..\BSP/bsp.c **** *               (2) The Desired Wake Up Threshold Counts should be Calculated using the following e
 475:..\..\..\BSP/bsp.c **** *                       Threshold Counts = Desired Threshold (g) x 16 (counts/g)
 476:..\..\..\BSP/bsp.c **** *
 477:..\..\..\BSP/bsp.c **** *                   The Factory Setting of the value is set to a change in Acceleration of 0.5g
 478:..\..\..\BSP/bsp.c **** ***************************************************************************************************
 479:..\..\..\BSP/bsp.c **** */
 480:..\..\..\BSP/bsp.c **** 
 481:..\..\..\BSP/bsp.c **** void  BSP_Accel_Init (void)
 482:..\..\..\BSP/bsp.c **** {
 483:..\..\..\BSP/bsp.c ****     CPU_BOOLEAN  accel_status;
 484:..\..\..\BSP/bsp.c ****     CPU_INT08U   data_resp;
 485:..\..\..\BSP/bsp.c ****     
 486:..\..\..\BSP/bsp.c ****                                                                 /* ----------- INIT I2C BLOCK & ISR
 487:..\..\..\BSP/bsp.c ****     I2C_Start();                                                /* Enable and Start the I2C Block f
ARM GAS  C:\Users\EDULU~1.DES\AppData\Local\Temp\ccpm8yUU.s 			page 10


 488:..\..\..\BSP/bsp.c ****     Accel_ISR_StartEx(BSP_Accel_ISR_Handler);                   /* Enable, Start, and Set the ISR H
 489:..\..\..\BSP/bsp.c ****     
 490:..\..\..\BSP/bsp.c ****     BSP_OS_TimeDlyMs(50u);                                      /* Delay for 50ms to Allow the Acce
 491:..\..\..\BSP/bsp.c ****     
 492:..\..\..\BSP/bsp.c ****     accel_status = BSP_Accel_InitSelfTst();                     /* Run the Accel Self-Test to Ensur
 493:..\..\..\BSP/bsp.c ****     if (accel_status != DEF_OK) {
 494:..\..\..\BSP/bsp.c ****         return;                                                 /* Error Checking, if Self Test Fai
 495:..\..\..\BSP/bsp.c ****     }
 496:..\..\..\BSP/bsp.c ****                                                                 /* ------------- SET CONTROL REG 1 
 497:..\..\..\BSP/bsp.c ****     data_resp = (BSP_ACC_KXTJ2_CTRL_REG1_RES      |             /* CTRL_REG1: High Current 12-Bit/1
 498:..\..\..\BSP/bsp.c ****                  BSP_ACC_KXTJ2_CTRL_REG1_DRDYE    |             /*          : Reflect New Accel Dat
 499:..\..\..\BSP/bsp.c ****                  BSP_ACC_KXTJ2_CTRL_REG1_GSELx_2G |             /*          : Acceleration Range of
 500:..\..\..\BSP/bsp.c ****                  BSP_ACC_KXTJ2_CTRL_REG1_WUFE     );            /*          : Wake Up on Motion Det
 501:..\..\..\BSP/bsp.c ****                                                                 /*          : Set Stand-By Mode. (B
 502:..\..\..\BSP/bsp.c ****     BSP_Accel_RegRdWr( BSP_KXTJ2_DIR_WRITE,                     /* Write the Control Register #1 Se
 503:..\..\..\BSP/bsp.c ****                        BSP_ACCEL_REG_CTRL_REG1,
 504:..\..\..\BSP/bsp.c ****                       &data_resp);
 505:..\..\..\BSP/bsp.c ****                                                                 /* ------------- SET CONTROL REG 2 
 506:..\..\..\BSP/bsp.c ****     data_resp =  BSP_ACC_KXTJ2_CTRL_REG2_OWUFx_12_5Hz;          /* CTRL_REG2: Wake Up Fnct Output D
 507:..\..\..\BSP/bsp.c ****                                                                 /*          : DISABLE Software Rese
 508:..\..\..\BSP/bsp.c ****                                                                 /*          : Do Not Perform Self-T
 509:..\..\..\BSP/bsp.c ****     BSP_Accel_RegRdWr( BSP_KXTJ2_DIR_WRITE,                     /* Write the Control Register #2 Se
 510:..\..\..\BSP/bsp.c ****                        BSP_ACCEL_REG_CTRL_REG2,
 511:..\..\..\BSP/bsp.c ****                       &data_resp);
 512:..\..\..\BSP/bsp.c ****                                                                 /* ----------- SET INTERRUPT CONTRO
 513:..\..\..\BSP/bsp.c ****     data_resp = (BSP_ACC_KXTJ2_INT_CTRL_REG1_IEN |              /* INT_CTRL1: ENABLE Interrupt Pin.
 514:..\..\..\BSP/bsp.c ****                  BSP_ACC_KXTJ2_INT_CTRL_REG1_IEA );             /*          : Interrupt Polarity, A
 515:..\..\..\BSP/bsp.c ****                                                                 /*          : Interrupt Latches Unt
 516:..\..\..\BSP/bsp.c ****     BSP_Accel_RegRdWr( BSP_KXTJ2_DIR_WRITE,                     /* Write the Interrupt Control Regi
 517:..\..\..\BSP/bsp.c ****                        BSP_ACCEL_REG_INT_CTRL_REG1,
 518:..\..\..\BSP/bsp.c ****                       &data_resp);
 519:..\..\..\BSP/bsp.c ****     
 520:..\..\..\BSP/bsp.c ****     data_resp = (BSP_ACC_KXTJ2_INT_CTRL_REG2_XNWUE |            /* INT_CTRL2: Enable Interrupt Moti
 521:..\..\..\BSP/bsp.c ****                  BSP_ACC_KXTJ2_INT_CTRL_REG2_XPWUE |            /*          :                      
 522:..\..\..\BSP/bsp.c ****                  BSP_ACC_KXTJ2_INT_CTRL_REG2_YNWUE |            /*          :                      
 523:..\..\..\BSP/bsp.c ****                  BSP_ACC_KXTJ2_INT_CTRL_REG2_YPWUE |            /*          :                      
 524:..\..\..\BSP/bsp.c ****                  BSP_ACC_KXTJ2_INT_CTRL_REG2_ZNWUE |            /*          :                      
 525:..\..\..\BSP/bsp.c ****                  BSP_ACC_KXTJ2_INT_CTRL_REG2_ZPWUE );           /*          :                      
 526:..\..\..\BSP/bsp.c ****     BSP_Accel_RegRdWr( BSP_KXTJ2_DIR_WRITE,                     /* Write the Interrupt Control Regi
 527:..\..\..\BSP/bsp.c ****                        BSP_ACCEL_REG_INT_CTRL_REG2,
 528:..\..\..\BSP/bsp.c ****                       &data_resp);
 529:..\..\..\BSP/bsp.c ****                                                                 /* --------------- DATA CONTROL OPT
 530:..\..\..\BSP/bsp.c ****     data_resp =  BSP_ACC_KXTJ2_DATA_CTRL_OSAx_50Hz;             /* DATA_CTRL_REG: Set Accel Output 
 531:..\..\..\BSP/bsp.c ****     BSP_Accel_RegRdWr( BSP_KXTJ2_DIR_WRITE,                     /* Write the Data Control Register 
 532:..\..\..\BSP/bsp.c ****                        BSP_ACCEL_REG_DATA_CTRL_REG,
 533:..\..\..\BSP/bsp.c ****                       &data_resp);
 534:..\..\..\BSP/bsp.c ****                                                                 /* ------------------ WAKEUP OPTION
 535:..\..\..\BSP/bsp.c ****     data_resp = BSP_ACCEL_WAKEUP_CNTS;                          /* Set the Wake Up Timer Counts. Se
 536:..\..\..\BSP/bsp.c ****     BSP_Accel_RegRdWr( BSP_KXTJ2_DIR_WRITE,                     /* Write the Wakeup Timer Register 
 537:..\..\..\BSP/bsp.c ****                        BSP_ACCEL_REG_WAKEUP_TIMER,
 538:..\..\..\BSP/bsp.c ****                       &data_resp);
 539:..\..\..\BSP/bsp.c ****     
 540:..\..\..\BSP/bsp.c ****     data_resp = BSP_ACCEL_WAKEUP_THRESH_CNTS;                   /* Set the Wake Up Threshold Counts
 541:..\..\..\BSP/bsp.c ****     BSP_Accel_RegRdWr( BSP_KXTJ2_DIR_WRITE,                     /* Write the Wakeup Threshold Regis
 542:..\..\..\BSP/bsp.c ****                        BSP_ACCEL_REG_WAKUP_THRESHOLD,
 543:..\..\..\BSP/bsp.c ****                       &data_resp);
 544:..\..\..\BSP/bsp.c ****                                                                 /* ---------------- START ACCELEROM
ARM GAS  C:\Users\EDULU~1.DES\AppData\Local\Temp\ccpm8yUU.s 			page 11


 545:..\..\..\BSP/bsp.c ****     BSP_Accel_RegRdWr( BSP_KXTJ2_DIR_READ,                      /* Get Control Register #1 Current 
 546:..\..\..\BSP/bsp.c ****                        BSP_ACCEL_REG_CTRL_REG1,
 547:..\..\..\BSP/bsp.c ****                       &data_resp);
 548:..\..\..\BSP/bsp.c ****     
 549:..\..\..\BSP/bsp.c ****     DEF_BIT_SET(data_resp, BSP_ACC_KXTJ2_CTRL_REG1_PC1);        /* Clear PC1 Bit to set KXTJ2 Modul
 550:..\..\..\BSP/bsp.c ****     
 551:..\..\..\BSP/bsp.c ****     BSP_Accel_RegRdWr( BSP_KXTJ2_DIR_WRITE,                     /* Write the Updated Control Regist
 552:..\..\..\BSP/bsp.c ****                        BSP_ACCEL_REG_CTRL_REG1,
 553:..\..\..\BSP/bsp.c ****                       &data_resp);
 554:..\..\..\BSP/bsp.c ****                                                                 /* ----------------- CLR PENDING IN
 555:..\..\..\BSP/bsp.c ****     BSP_Accel_RegRdWr( BSP_KXTJ2_DIR_READ,                      /* Read INT_REL to Clear any Int Sr
 556:..\..\..\BSP/bsp.c ****                        BSP_ACCEL_REG_INT_REL,
 557:..\..\..\BSP/bsp.c ****                       &data_resp);
 558:..\..\..\BSP/bsp.c **** }
 559:..\..\..\BSP/bsp.c **** 
 560:..\..\..\BSP/bsp.c **** 
 561:..\..\..\BSP/bsp.c **** /*
 562:..\..\..\BSP/bsp.c **** ***************************************************************************************************
 563:..\..\..\BSP/bsp.c **** *                                       BSP_Accel_InitSelfTst()
 564:..\..\..\BSP/bsp.c **** *
 565:..\..\..\BSP/bsp.c **** * Description : Runs a Test Routine to make sure the Accelerometer Communication is Functional at I
 566:..\..\..\BSP/bsp.c **** *
 567:..\..\..\BSP/bsp.c **** * Argument(s) : none.
 568:..\..\..\BSP/bsp.c **** *
 569:..\..\..\BSP/bsp.c **** * Return(s)   : I2C Communication Status
 570:..\..\..\BSP/bsp.c **** *                   - DEF_FAIL: If Error in I2C Communication Sequence.
 571:..\..\..\BSP/bsp.c **** *                   - DEF_OK  : Otherwise, Everything went OK.
 572:..\..\..\BSP/bsp.c **** *
 573:..\..\..\BSP/bsp.c **** * Caller(s)   : BSP_Accel_Init()
 574:..\..\..\BSP/bsp.c **** *
 575:..\..\..\BSP/bsp.c **** * Note(s)     : none.
 576:..\..\..\BSP/bsp.c **** ***************************************************************************************************
 577:..\..\..\BSP/bsp.c **** */
 578:..\..\..\BSP/bsp.c **** 
 579:..\..\..\BSP/bsp.c **** CPU_BOOLEAN  BSP_Accel_InitSelfTst (void)
 580:..\..\..\BSP/bsp.c **** {
 581:..\..\..\BSP/bsp.c ****     CPU_BOOLEAN  test_status;
 582:..\..\..\BSP/bsp.c ****     CPU_BOOLEAN  accel_resp;
 583:..\..\..\BSP/bsp.c ****     CPU_INT08U   data_resp;
 584:..\..\..\BSP/bsp.c ****     
 585:..\..\..\BSP/bsp.c ****                                                                 /* ------------ MODULE/CIRCUIT VERI
 586:..\..\..\BSP/bsp.c ****     accel_resp = BSP_Accel_RegRdWr( BSP_KXTJ2_DIR_READ,         /* Read DCST Reg to verify proper C
 587:..\..\..\BSP/bsp.c ****                                     BSP_ACCEL_REG_DCST_RESP,
 588:..\..\..\BSP/bsp.c ****                                    &data_resp);
 589:..\..\..\BSP/bsp.c ****     if ((accel_resp != DEF_OK) ||
 590:..\..\..\BSP/bsp.c ****         (data_resp  != BSP_ACC_KXTJ2_DCST_RESP_1)) {            /* If Communication was OK & Data R
 591:..\..\..\BSP/bsp.c ****         return (DEF_FAIL);                                      /* ... Key #1, then Continue with S
 592:..\..\..\BSP/bsp.c ****     }
 593:..\..\..\BSP/bsp.c ****                                                                 /* ---------------- SET OPERATING M
 594:..\..\..\BSP/bsp.c ****     BSP_Accel_RegRdWr( BSP_KXTJ2_DIR_READ,                      /* Get current Control Register #1 
 595:..\..\..\BSP/bsp.c ****                        BSP_ACCEL_REG_CTRL_REG1,
 596:..\..\..\BSP/bsp.c ****                       &data_resp);
 597:..\..\..\BSP/bsp.c ****     
 598:..\..\..\BSP/bsp.c ****     DEF_BIT_CLR(data_resp, BSP_ACC_KXTJ2_CTRL_REG1_PC1);        /* Clear PC1 Bit to set KXTJ2 Modul
 599:..\..\..\BSP/bsp.c ****     
 600:..\..\..\BSP/bsp.c ****     BSP_Accel_RegRdWr( BSP_KXTJ2_DIR_WRITE,                     /* Write the Updated Control Regist
 601:..\..\..\BSP/bsp.c ****                        BSP_ACCEL_REG_CTRL_REG1,
ARM GAS  C:\Users\EDULU~1.DES\AppData\Local\Temp\ccpm8yUU.s 			page 12


 602:..\..\..\BSP/bsp.c ****                       &data_resp);
 603:..\..\..\BSP/bsp.c ****                                                                 /* ----------------- PERFORM SELF-T
 604:..\..\..\BSP/bsp.c ****     BSP_Accel_RegRdWr( BSP_KXTJ2_DIR_READ,                      /* Get current Control Register #2 
 605:..\..\..\BSP/bsp.c ****                        BSP_ACCEL_REG_CTRL_REG2,
 606:..\..\..\BSP/bsp.c ****                       &data_resp);
 607:..\..\..\BSP/bsp.c ****     
 608:..\..\..\BSP/bsp.c ****     DEF_BIT_SET(data_resp, BSP_ACC_KXTJ2_CTRL_REG2_DCST);       /* Set the DCST Bit to Perform the 
 609:..\..\..\BSP/bsp.c ****     
 610:..\..\..\BSP/bsp.c ****     BSP_Accel_RegRdWr( BSP_KXTJ2_DIR_WRITE,                     /* Write the Updated Control Regist
 611:..\..\..\BSP/bsp.c ****                        BSP_ACCEL_REG_CTRL_REG2,
 612:..\..\..\BSP/bsp.c ****                       &data_resp);
 613:..\..\..\BSP/bsp.c ****                                                                 /* ------------------- STATUS CHECK
 614:..\..\..\BSP/bsp.c ****     accel_resp = BSP_Accel_RegRdWr( BSP_KXTJ2_DIR_READ,         /* Read DCST Reg to Confirm Self-Te
 615:..\..\..\BSP/bsp.c ****                                     BSP_ACCEL_REG_DCST_RESP,
 616:..\..\..\BSP/bsp.c ****                                    &data_resp);
 617:..\..\..\BSP/bsp.c ****     if ((accel_resp != DEF_OK) ||
 618:..\..\..\BSP/bsp.c ****         (data_resp  != BSP_ACC_KXTJ2_DCST_RESP_2)) {            /* If Communication was OK & Data R
 619:..\..\..\BSP/bsp.c ****         return (DEF_FAIL);                                      /* ... Key #2, then Continue with S
 620:..\..\..\BSP/bsp.c ****     }
 621:..\..\..\BSP/bsp.c ****     
 622:..\..\..\BSP/bsp.c ****     accel_resp = BSP_Accel_RegRdWr( BSP_KXTJ2_DIR_READ,         /* Read DCST Reg Once More, Value M
 623:..\..\..\BSP/bsp.c ****                                     BSP_ACCEL_REG_DCST_RESP,
 624:..\..\..\BSP/bsp.c ****                                    &data_resp);
 625:..\..\..\BSP/bsp.c ****     if ((accel_resp != DEF_OK) ||
 626:..\..\..\BSP/bsp.c ****         (data_resp  != BSP_ACC_KXTJ2_DCST_RESP_1)) {            /* If Communication was OK & Data R
 627:..\..\..\BSP/bsp.c ****         return (DEF_FAIL);                                      /* ... Key #1, then end the Init Se
 628:..\..\..\BSP/bsp.c ****     }
 629:..\..\..\BSP/bsp.c ****     
 630:..\..\..\BSP/bsp.c ****     return (DEF_OK);
 631:..\..\..\BSP/bsp.c **** }
 632:..\..\..\BSP/bsp.c **** 
 633:..\..\..\BSP/bsp.c **** 
 634:..\..\..\BSP/bsp.c **** /*
 635:..\..\..\BSP/bsp.c **** ***************************************************************************************************
 636:..\..\..\BSP/bsp.c **** *                                         BSP_Accel_RegRdWr()
 637:..\..\..\BSP/bsp.c **** *
 638:..\..\..\BSP/bsp.c **** * Description : Read or Write a Byte from a specific Register location via I2C Communication.
 639:..\..\..\BSP/bsp.c **** *
 640:..\..\..\BSP/bsp.c **** * Argument(s) : rd_wr       Direction Status Flag:
 641:..\..\..\BSP/bsp.c **** *                               - BSP_KXTJ2_DIR_WRITE: Write a Data Byte
 642:..\..\..\BSP/bsp.c **** *                               - BSP_KXTJ2_DIR_READ : Read  a Data Byte
 643:..\..\..\BSP/bsp.c **** *
 644:..\..\..\BSP/bsp.c **** *               reg         Address of Desired Register to either Read or Write from.
 645:..\..\..\BSP/bsp.c **** *
 646:..\..\..\BSP/bsp.c **** *               value       When Writing: The Value Desired Byte to Write.
 647:..\..\..\BSP/bsp.c **** *                           When Reading: The Location to Store the Read Byte.
 648:..\..\..\BSP/bsp.c **** *
 649:..\..\..\BSP/bsp.c **** * Return(s)   : I2C Communication Status
 650:..\..\..\BSP/bsp.c **** *                   - DEF_FAIL: If Error in I2C Communication Sequence.
 651:..\..\..\BSP/bsp.c **** *                   - DEF_OK  : Otherwise, Everything went OK.
 652:..\..\..\BSP/bsp.c **** *
 653:..\..\..\BSP/bsp.c **** * Caller(s)   : BSP_Accel_Init().
 654:..\..\..\BSP/bsp.c **** *               BSP_Accel_InitSelfTst().
 655:..\..\..\BSP/bsp.c **** *               BSP_Accel_Rd().
 656:..\..\..\BSP/bsp.c **** *
 657:..\..\..\BSP/bsp.c **** * Note(s)     : none.
 658:..\..\..\BSP/bsp.c **** ***************************************************************************************************
ARM GAS  C:\Users\EDULU~1.DES\AppData\Local\Temp\ccpm8yUU.s 			page 13


 659:..\..\..\BSP/bsp.c **** */
 660:..\..\..\BSP/bsp.c **** 
 661:..\..\..\BSP/bsp.c **** CPU_BOOLEAN  BSP_Accel_RegRdWr (BSP_KXTJ2_DATA_DIR   rd_wr,
 662:..\..\..\BSP/bsp.c ****                                 CPU_INT08U           reg,
 663:..\..\..\BSP/bsp.c ****                                 CPU_INT08U          *value)
 664:..\..\..\BSP/bsp.c **** {
  27              		.loc 1 664 1 view -0
  28              		.cfi_startproc
  29              		@ args = 0, pretend = 0, frame = 0
  30              		@ frame_needed = 0, uses_anonymous_args = 0
  31              		.loc 1 664 1 is_stmt 0 view .LVU1
  32 0000 70B5     		push	{r4, r5, r6, lr}
  33              		.cfi_def_cfa_offset 16
  34              		.cfi_offset 4, -16
  35              		.cfi_offset 5, -12
  36              		.cfi_offset 6, -8
  37              		.cfi_offset 14, -4
  38 0002 0400     		movs	r4, r0
  39 0004 0D00     		movs	r5, r1
  40 0006 1600     		movs	r6, r2
 665:..\..\..\BSP/bsp.c ****     CPU_INT08U   i2c_status;
  41              		.loc 1 665 5 is_stmt 1 view .LVU2
 666:..\..\..\BSP/bsp.c ****     CPU_BOOLEAN  accel_status;
  42              		.loc 1 666 5 view .LVU3
 667:..\..\..\BSP/bsp.c ****     CPU_INT08U retAck;
  43              		.loc 1 667 5 view .LVU4
 668:..\..\..\BSP/bsp.c ****     
 669:..\..\..\BSP/bsp.c ****                                                                 /* ------------- START SEQUENCE CON
 670:..\..\..\BSP/bsp.c ****     i2c_status = I2C_I2CMasterSendStart(BSP_I2C_KXTJ2_ACC_SLV_ADDR, BSP_KXTJ2_DIR_WRITE, 0x000);
  44              		.loc 1 670 5 view .LVU5
  45              		.loc 1 670 18 is_stmt 0 view .LVU6
  46 0008 0022     		movs	r2, #0
  47              	.LVL1:
  48              		.loc 1 670 18 view .LVU7
  49 000a 0021     		movs	r1, #0
  50              	.LVL2:
  51              		.loc 1 670 18 view .LVU8
  52 000c 0F20     		movs	r0, #15
  53              	.LVL3:
  54              		.loc 1 670 18 view .LVU9
  55 000e FFF7FEFF 		bl	I2C_I2CMasterSendStart
  56              	.LVL4:
  57              		.loc 1 670 16 view .LVU10
  58 0012 C0B2     		uxtb	r0, r0
  59              	.LVL5:
 671:..\..\..\BSP/bsp.c ****     if (i2c_status == I2C_I2C_MSTR_NO_ERROR) {                  /* Sequence Start Successful, Perfo
  60              		.loc 1 671 5 is_stmt 1 view .LVU11
  61              		.loc 1 671 8 is_stmt 0 view .LVU12
  62 0014 0028     		cmp	r0, #0
  63 0016 09D0     		beq	.L8
 672:..\..\..\BSP/bsp.c ****         i2c_status = I2C_I2CMasterWriteByte(reg, 0x000);               /* Select Register Address t
 673:..\..\..\BSP/bsp.c ****         
 674:..\..\..\BSP/bsp.c ****         if (rd_wr == BSP_KXTJ2_DIR_WRITE) {                     /* -------------------- WRITE DATA 
 675:..\..\..\BSP/bsp.c ****             i2c_status   = I2C_I2CMasterWriteByte(*value, 0x000);      /* Write Data Byte to the De
 676:..\..\..\BSP/bsp.c ****             accel_status = DEF_OK;
 677:..\..\..\BSP/bsp.c ****             
 678:..\..\..\BSP/bsp.c ****         } else if (rd_wr == BSP_KXTJ2_DIR_READ) {               /* --------------------- READ DATA 
ARM GAS  C:\Users\EDULU~1.DES\AppData\Local\Temp\ccpm8yUU.s 			page 14


 679:..\..\..\BSP/bsp.c ****                                                                 /* Restart Start Condition to Read 
 680:..\..\..\BSP/bsp.c ****             i2c_status   = I2C_I2CMasterSendRestart(BSP_I2C_KXTJ2_ACC_SLV_ADDR,
 681:..\..\..\BSP/bsp.c ****                                                     BSP_KXTJ2_DIR_READ, 0x000);
 682:..\..\..\BSP/bsp.c ****                                                                 /* Read Data Byte from Register, Re
 683:..\..\..\BSP/bsp.c ****            //*value        = I2C_I2CMasterReadByte(I2C_I2C_NAK_DATA, 0x0000, 0x000);
 684:..\..\..\BSP/bsp.c ****             retAck        = I2C_I2CMasterReadByte(I2C_I2C_NAK_DATA, value, 0x000);
 685:..\..\..\BSP/bsp.c ****             accel_status = DEF_OK;
 686:..\..\..\BSP/bsp.c ****             
 687:..\..\..\BSP/bsp.c ****         } else {
 688:..\..\..\BSP/bsp.c ****             accel_status = DEF_FAIL;                            /* Wrong Direction, Either Read or 
 689:..\..\..\BSP/bsp.c ****         }
 690:..\..\..\BSP/bsp.c ****     } else {                                                    /* Sequence Start Failed, Return wi
 691:..\..\..\BSP/bsp.c ****         accel_status = DEF_FAIL;
  64              		.loc 1 691 22 view .LVU13
  65 0018 0024     		movs	r4, #0
  66              	.LVL6:
  67              	.L2:
 692:..\..\..\BSP/bsp.c ****     }
 693:..\..\..\BSP/bsp.c ****                                                                 /* -------------- STOP SEQUENCE CON
 694:..\..\..\BSP/bsp.c ****     i2c_status = I2C_I2CMasterSendStop(0x000);                       /* Send the Stop Condition to 
  68              		.loc 1 694 5 is_stmt 1 view .LVU14
  69              		.loc 1 694 18 is_stmt 0 view .LVU15
  70 001a 0020     		movs	r0, #0
  71 001c FFF7FEFF 		bl	I2C_I2CMasterSendStop
  72              	.LVL7:
  73              		.loc 1 694 16 view .LVU16
  74 0020 C0B2     		uxtb	r0, r0
  75              	.LVL8:
 695:..\..\..\BSP/bsp.c ****     if (i2c_status != I2C_I2C_MSTR_NO_ERROR) {                  /* Sequence Failed to Stopped, Retu
  76              		.loc 1 695 5 is_stmt 1 view .LVU17
  77              		.loc 1 695 8 is_stmt 0 view .LVU18
  78 0022 0028     		cmp	r0, #0
  79 0024 00D0     		beq	.L4
 696:..\..\..\BSP/bsp.c ****         accel_status = DEF_FAIL;
  80              		.loc 1 696 22 view .LVU19
  81 0026 0024     		movs	r4, #0
  82              	.LVL9:
  83              	.L4:
 697:..\..\..\BSP/bsp.c ****     }
 698:..\..\..\BSP/bsp.c ****     
 699:..\..\..\BSP/bsp.c ****     return (accel_status);
  84              		.loc 1 699 5 is_stmt 1 view .LVU20
 700:..\..\..\BSP/bsp.c **** }
  85              		.loc 1 700 1 is_stmt 0 view .LVU21
  86 0028 2000     		movs	r0, r4
  87              	.LVL10:
  88              		.loc 1 700 1 view .LVU22
  89              		@ sp needed
  90              	.LVL11:
  91              	.LVL12:
  92              		.loc 1 700 1 view .LVU23
  93 002a 70BD     		pop	{r4, r5, r6, pc}
  94              	.LVL13:
  95              	.L8:
 672:..\..\..\BSP/bsp.c ****         
  96              		.loc 1 672 9 is_stmt 1 view .LVU24
 672:..\..\..\BSP/bsp.c ****         
ARM GAS  C:\Users\EDULU~1.DES\AppData\Local\Temp\ccpm8yUU.s 			page 15


  97              		.loc 1 672 22 is_stmt 0 view .LVU25
  98 002c 0021     		movs	r1, #0
  99 002e 2800     		movs	r0, r5
 100              	.LVL14:
 672:..\..\..\BSP/bsp.c ****         
 101              		.loc 1 672 22 view .LVU26
 102 0030 FFF7FEFF 		bl	I2C_I2CMasterWriteByte
 103              	.LVL15:
 674:..\..\..\BSP/bsp.c ****             i2c_status   = I2C_I2CMasterWriteByte(*value, 0x000);      /* Write Data Byte to the De
 104              		.loc 1 674 9 is_stmt 1 view .LVU27
 674:..\..\..\BSP/bsp.c ****             i2c_status   = I2C_I2CMasterWriteByte(*value, 0x000);      /* Write Data Byte to the De
 105              		.loc 1 674 12 is_stmt 0 view .LVU28
 106 0034 002C     		cmp	r4, #0
 107 0036 03D0     		beq	.L9
 678:..\..\..\BSP/bsp.c ****                                                                 /* Restart Start Condition to Read 
 108              		.loc 1 678 16 is_stmt 1 view .LVU29
 678:..\..\..\BSP/bsp.c ****                                                                 /* Restart Start Condition to Read 
 109              		.loc 1 678 19 is_stmt 0 view .LVU30
 110 0038 012C     		cmp	r4, #1
 111 003a 07D0     		beq	.L10
 688:..\..\..\BSP/bsp.c ****         }
 112              		.loc 1 688 26 view .LVU31
 113 003c 0024     		movs	r4, #0
 114 003e ECE7     		b	.L2
 115              	.L9:
 675:..\..\..\BSP/bsp.c ****             accel_status = DEF_OK;
 116              		.loc 1 675 13 is_stmt 1 view .LVU32
 675:..\..\..\BSP/bsp.c ****             accel_status = DEF_OK;
 117              		.loc 1 675 51 is_stmt 0 view .LVU33
 118 0040 3078     		ldrb	r0, [r6]
 675:..\..\..\BSP/bsp.c ****             accel_status = DEF_OK;
 119              		.loc 1 675 28 view .LVU34
 120 0042 0021     		movs	r1, #0
 121 0044 FFF7FEFF 		bl	I2C_I2CMasterWriteByte
 122              	.LVL16:
 676:..\..\..\BSP/bsp.c ****             
 123              		.loc 1 676 13 is_stmt 1 view .LVU35
 676:..\..\..\BSP/bsp.c ****             
 124              		.loc 1 676 26 is_stmt 0 view .LVU36
 125 0048 0134     		adds	r4, r4, #1
 126 004a E6E7     		b	.L2
 127              	.LVL17:
 128              	.L10:
 680:..\..\..\BSP/bsp.c ****                                                     BSP_KXTJ2_DIR_READ, 0x000);
 129              		.loc 1 680 13 is_stmt 1 view .LVU37
 680:..\..\..\BSP/bsp.c ****                                                     BSP_KXTJ2_DIR_READ, 0x000);
 130              		.loc 1 680 28 is_stmt 0 view .LVU38
 131 004c 0022     		movs	r2, #0
 132 004e 0121     		movs	r1, #1
 133 0050 0F20     		movs	r0, #15
 134 0052 FFF7FEFF 		bl	I2C_I2CMasterSendRestart
 135              	.LVL18:
 684:..\..\..\BSP/bsp.c ****             accel_status = DEF_OK;
 136              		.loc 1 684 13 is_stmt 1 view .LVU39
 684:..\..\..\BSP/bsp.c ****             accel_status = DEF_OK;
 137              		.loc 1 684 29 is_stmt 0 view .LVU40
 138 0056 0022     		movs	r2, #0
ARM GAS  C:\Users\EDULU~1.DES\AppData\Local\Temp\ccpm8yUU.s 			page 16


 139 0058 3100     		movs	r1, r6
 140 005a 0120     		movs	r0, #1
 141 005c FFF7FEFF 		bl	I2C_I2CMasterReadByte
 142              	.LVL19:
 685:..\..\..\BSP/bsp.c ****             
 143              		.loc 1 685 13 is_stmt 1 view .LVU41
 685:..\..\..\BSP/bsp.c ****             
 144              		.loc 1 685 13 is_stmt 0 view .LVU42
 145 0060 DBE7     		b	.L2
 146              		.cfi_endproc
 147              	.LFE13:
 148              		.size	BSP_Accel_RegRdWr, .-BSP_Accel_RegRdWr
 149              		.section	.text.BSP_Accel_InitSelfTst,"ax",%progbits
 150              		.align	1
 151              		.syntax unified
 152              		.code	16
 153              		.thumb_func
 154              		.fpu softvfp
 155              		.type	BSP_Accel_InitSelfTst, %function
 156              	BSP_Accel_InitSelfTst:
 157              	.LFB12:
 580:..\..\..\BSP/bsp.c ****     CPU_BOOLEAN  test_status;
 158              		.loc 1 580 1 is_stmt 1 view -0
 159              		.cfi_startproc
 160              		@ args = 0, pretend = 0, frame = 8
 161              		@ frame_needed = 0, uses_anonymous_args = 0
 162 0000 10B5     		push	{r4, lr}
 163              		.cfi_def_cfa_offset 8
 164              		.cfi_offset 4, -8
 165              		.cfi_offset 14, -4
 166 0002 82B0     		sub	sp, sp, #8
 167              		.cfi_def_cfa_offset 16
 581:..\..\..\BSP/bsp.c ****     CPU_BOOLEAN  accel_resp;
 168              		.loc 1 581 5 view .LVU44
 582:..\..\..\BSP/bsp.c ****     CPU_INT08U   data_resp;
 169              		.loc 1 582 5 view .LVU45
 583:..\..\..\BSP/bsp.c ****     
 170              		.loc 1 583 5 view .LVU46
 586:..\..\..\BSP/bsp.c ****                                     BSP_ACCEL_REG_DCST_RESP,
 171              		.loc 1 586 5 view .LVU47
 586:..\..\..\BSP/bsp.c ****                                     BSP_ACCEL_REG_DCST_RESP,
 172              		.loc 1 586 18 is_stmt 0 view .LVU48
 173 0004 6B46     		mov	r3, sp
 174 0006 DA1D     		adds	r2, r3, #7
 175 0008 0C21     		movs	r1, #12
 176 000a 0120     		movs	r0, #1
 177 000c FFF7FEFF 		bl	BSP_Accel_RegRdWr
 178              	.LVL20:
 589:..\..\..\BSP/bsp.c ****         (data_resp  != BSP_ACC_KXTJ2_DCST_RESP_1)) {            /* If Communication was OK & Data R
 179              		.loc 1 589 5 is_stmt 1 view .LVU49
 589:..\..\..\BSP/bsp.c ****         (data_resp  != BSP_ACC_KXTJ2_DCST_RESP_1)) {            /* If Communication was OK & Data R
 180              		.loc 1 589 8 is_stmt 0 view .LVU50
 181 0010 0128     		cmp	r0, #1
 182 0012 3FD1     		bne	.L13
 590:..\..\..\BSP/bsp.c ****         return (DEF_FAIL);                                      /* ... Key #1, then Continue with S
 183              		.loc 1 590 21 discriminator 1 view .LVU51
 184 0014 6B46     		mov	r3, sp
ARM GAS  C:\Users\EDULU~1.DES\AppData\Local\Temp\ccpm8yUU.s 			page 17


 185 0016 0733     		adds	r3, r3, #7
 186 0018 1B78     		ldrb	r3, [r3]
 589:..\..\..\BSP/bsp.c ****         (data_resp  != BSP_ACC_KXTJ2_DCST_RESP_1)) {            /* If Communication was OK & Data R
 187              		.loc 1 589 32 discriminator 1 view .LVU52
 188 001a 552B     		cmp	r3, #85
 189 001c 01D0     		beq	.L19
 591:..\..\..\BSP/bsp.c ****     }
 190              		.loc 1 591 16 view .LVU53
 191 001e 0020     		movs	r0, #0
 192              	.LVL21:
 591:..\..\..\BSP/bsp.c ****     }
 193              		.loc 1 591 16 view .LVU54
 194 0020 39E0     		b	.L12
 195              	.LVL22:
 196              	.L19:
 594:..\..\..\BSP/bsp.c ****                        BSP_ACCEL_REG_CTRL_REG1,
 197              		.loc 1 594 5 is_stmt 1 view .LVU55
 198 0022 6B46     		mov	r3, sp
 199 0024 DC1D     		adds	r4, r3, #7
 200 0026 2200     		movs	r2, r4
 201 0028 1B21     		movs	r1, #27
 202 002a FFF7FEFF 		bl	BSP_Accel_RegRdWr
 203              	.LVL23:
 598:..\..\..\BSP/bsp.c ****     
 204              		.loc 1 598 5 view .LVU56
 205 002e 2278     		ldrb	r2, [r4]
 206 0030 7F23     		movs	r3, #127
 207 0032 1340     		ands	r3, r2
 208 0034 2370     		strb	r3, [r4]
 600:..\..\..\BSP/bsp.c ****                        BSP_ACCEL_REG_CTRL_REG1,
 209              		.loc 1 600 5 view .LVU57
 210 0036 2200     		movs	r2, r4
 211 0038 1B21     		movs	r1, #27
 212 003a 0020     		movs	r0, #0
 213 003c FFF7FEFF 		bl	BSP_Accel_RegRdWr
 214              	.LVL24:
 604:..\..\..\BSP/bsp.c ****                        BSP_ACCEL_REG_CTRL_REG2,
 215              		.loc 1 604 5 view .LVU58
 216 0040 2200     		movs	r2, r4
 217 0042 1D21     		movs	r1, #29
 218 0044 0120     		movs	r0, #1
 219 0046 FFF7FEFF 		bl	BSP_Accel_RegRdWr
 220              	.LVL25:
 608:..\..\..\BSP/bsp.c ****     
 221              		.loc 1 608 5 view .LVU59
 222 004a 2378     		ldrb	r3, [r4]
 223 004c 1022     		movs	r2, #16
 224 004e 1343     		orrs	r3, r2
 225 0050 2370     		strb	r3, [r4]
 610:..\..\..\BSP/bsp.c ****                        BSP_ACCEL_REG_CTRL_REG2,
 226              		.loc 1 610 5 view .LVU60
 227 0052 2200     		movs	r2, r4
 228 0054 1D21     		movs	r1, #29
 229 0056 0020     		movs	r0, #0
 230 0058 FFF7FEFF 		bl	BSP_Accel_RegRdWr
 231              	.LVL26:
 614:..\..\..\BSP/bsp.c ****                                     BSP_ACCEL_REG_DCST_RESP,
ARM GAS  C:\Users\EDULU~1.DES\AppData\Local\Temp\ccpm8yUU.s 			page 18


 232              		.loc 1 614 5 view .LVU61
 614:..\..\..\BSP/bsp.c ****                                     BSP_ACCEL_REG_DCST_RESP,
 233              		.loc 1 614 18 is_stmt 0 view .LVU62
 234 005c 2200     		movs	r2, r4
 235 005e 0C21     		movs	r1, #12
 236 0060 0120     		movs	r0, #1
 237 0062 FFF7FEFF 		bl	BSP_Accel_RegRdWr
 238              	.LVL27:
 617:..\..\..\BSP/bsp.c ****         (data_resp  != BSP_ACC_KXTJ2_DCST_RESP_2)) {            /* If Communication was OK & Data R
 239              		.loc 1 617 5 is_stmt 1 view .LVU63
 617:..\..\..\BSP/bsp.c ****         (data_resp  != BSP_ACC_KXTJ2_DCST_RESP_2)) {            /* If Communication was OK & Data R
 240              		.loc 1 617 8 is_stmt 0 view .LVU64
 241 0066 0128     		cmp	r0, #1
 242 0068 17D1     		bne	.L15
 618:..\..\..\BSP/bsp.c ****         return (DEF_FAIL);                                      /* ... Key #2, then Continue with S
 243              		.loc 1 618 21 discriminator 1 view .LVU65
 244 006a 6B46     		mov	r3, sp
 245 006c 0733     		adds	r3, r3, #7
 246 006e 1B78     		ldrb	r3, [r3]
 617:..\..\..\BSP/bsp.c ****         (data_resp  != BSP_ACC_KXTJ2_DCST_RESP_2)) {            /* If Communication was OK & Data R
 247              		.loc 1 617 32 discriminator 1 view .LVU66
 248 0070 AA2B     		cmp	r3, #170
 249 0072 01D0     		beq	.L20
 619:..\..\..\BSP/bsp.c ****     }
 250              		.loc 1 619 16 view .LVU67
 251 0074 0020     		movs	r0, #0
 252              	.LVL28:
 619:..\..\..\BSP/bsp.c ****     }
 253              		.loc 1 619 16 view .LVU68
 254 0076 0EE0     		b	.L12
 255              	.LVL29:
 256              	.L20:
 622:..\..\..\BSP/bsp.c ****                                     BSP_ACCEL_REG_DCST_RESP,
 257              		.loc 1 622 5 is_stmt 1 view .LVU69
 622:..\..\..\BSP/bsp.c ****                                     BSP_ACCEL_REG_DCST_RESP,
 258              		.loc 1 622 18 is_stmt 0 view .LVU70
 259 0078 6B46     		mov	r3, sp
 260 007a DA1D     		adds	r2, r3, #7
 261 007c 0C21     		movs	r1, #12
 262 007e FFF7FEFF 		bl	BSP_Accel_RegRdWr
 263              	.LVL30:
 625:..\..\..\BSP/bsp.c ****         (data_resp  != BSP_ACC_KXTJ2_DCST_RESP_1)) {            /* If Communication was OK & Data R
 264              		.loc 1 625 5 is_stmt 1 view .LVU71
 625:..\..\..\BSP/bsp.c ****         (data_resp  != BSP_ACC_KXTJ2_DCST_RESP_1)) {            /* If Communication was OK & Data R
 265              		.loc 1 625 8 is_stmt 0 view .LVU72
 266 0082 0128     		cmp	r0, #1
 267 0084 0BD1     		bne	.L17
 626:..\..\..\BSP/bsp.c ****         return (DEF_FAIL);                                      /* ... Key #1, then end the Init Se
 268              		.loc 1 626 21 discriminator 1 view .LVU73
 269 0086 6B46     		mov	r3, sp
 270 0088 0733     		adds	r3, r3, #7
 271 008a 1B78     		ldrb	r3, [r3]
 625:..\..\..\BSP/bsp.c ****         (data_resp  != BSP_ACC_KXTJ2_DCST_RESP_1)) {            /* If Communication was OK & Data R
 272              		.loc 1 625 32 discriminator 1 view .LVU74
 273 008c 552B     		cmp	r3, #85
 274 008e 02D0     		beq	.L12
 627:..\..\..\BSP/bsp.c ****     }
ARM GAS  C:\Users\EDULU~1.DES\AppData\Local\Temp\ccpm8yUU.s 			page 19


 275              		.loc 1 627 16 view .LVU75
 276 0090 0020     		movs	r0, #0
 277              	.LVL31:
 627:..\..\..\BSP/bsp.c ****     }
 278              		.loc 1 627 16 view .LVU76
 279 0092 00E0     		b	.L12
 280              	.LVL32:
 281              	.L13:
 591:..\..\..\BSP/bsp.c ****     }
 282              		.loc 1 591 16 view .LVU77
 283 0094 0020     		movs	r0, #0
 284              	.LVL33:
 285              	.L12:
 631:..\..\..\BSP/bsp.c **** 
 286              		.loc 1 631 1 view .LVU78
 287 0096 02B0     		add	sp, sp, #8
 288              		@ sp needed
 289 0098 10BD     		pop	{r4, pc}
 290              	.LVL34:
 291              	.L15:
 619:..\..\..\BSP/bsp.c ****     }
 292              		.loc 1 619 16 view .LVU79
 293 009a 0020     		movs	r0, #0
 294              	.LVL35:
 619:..\..\..\BSP/bsp.c ****     }
 295              		.loc 1 619 16 view .LVU80
 296 009c FBE7     		b	.L12
 297              	.LVL36:
 298              	.L17:
 627:..\..\..\BSP/bsp.c ****     }
 299              		.loc 1 627 16 view .LVU81
 300 009e 0020     		movs	r0, #0
 301              	.LVL37:
 627:..\..\..\BSP/bsp.c ****     }
 302              		.loc 1 627 16 view .LVU82
 303 00a0 F9E7     		b	.L12
 304              		.cfi_endproc
 305              	.LFE12:
 306              		.size	BSP_Accel_InitSelfTst, .-BSP_Accel_InitSelfTst
 307              		.section	.text.BSP_Accel_ISR_Handler,"ax",%progbits
 308              		.align	1
 309              		.global	BSP_Accel_ISR_Handler
 310              		.syntax unified
 311              		.code	16
 312              		.thumb_func
 313              		.fpu softvfp
 314              		.type	BSP_Accel_ISR_Handler, %function
 315              	BSP_Accel_ISR_Handler:
 316              	.LFB15:
 701:..\..\..\BSP/bsp.c **** 
 702:..\..\..\BSP/bsp.c **** 
 703:..\..\..\BSP/bsp.c **** /*
 704:..\..\..\BSP/bsp.c **** ***************************************************************************************************
 705:..\..\..\BSP/bsp.c **** *                                            BSP_Accel_Rd()
 706:..\..\..\BSP/bsp.c **** *
 707:..\..\..\BSP/bsp.c **** * Description : Reads the Accelerometer's Acceleration Values in the X, Y, and Z Directions.
 708:..\..\..\BSP/bsp.c **** *
ARM GAS  C:\Users\EDULU~1.DES\AppData\Local\Temp\ccpm8yUU.s 			page 20


 709:..\..\..\BSP/bsp.c **** * Argument(s) : x_axis      Variable in where the X-Direction's Acceleration Data will be Stored.
 710:..\..\..\BSP/bsp.c **** *
 711:..\..\..\BSP/bsp.c **** *               y_axis      Variable in where the Y-Direction's Acceleration Data will be Stored.
 712:..\..\..\BSP/bsp.c **** *
 713:..\..\..\BSP/bsp.c **** *               z_axis      Variable in where the Z-Direction's Acceleration Data will be Stored.
 714:..\..\..\BSP/bsp.c **** *
 715:..\..\..\BSP/bsp.c **** * Return(s)   : none.
 716:..\..\..\BSP/bsp.c **** *
 717:..\..\..\BSP/bsp.c **** * Caller(s)   : Application
 718:..\..\..\BSP/bsp.c **** *
 719:..\..\..\BSP/bsp.c **** * Note(s)     : none.
 720:..\..\..\BSP/bsp.c **** ***************************************************************************************************
 721:..\..\..\BSP/bsp.c **** */
 722:..\..\..\BSP/bsp.c **** 
 723:..\..\..\BSP/bsp.c **** void  BSP_Accel_Rd (CPU_INT16S  *x_axis,
 724:..\..\..\BSP/bsp.c ****                     CPU_INT16S  *y_axis,
 725:..\..\..\BSP/bsp.c ****                     CPU_INT16S  *z_axis)
 726:..\..\..\BSP/bsp.c **** {
 727:..\..\..\BSP/bsp.c ****     CPU_INT16S  axis_val;
 728:..\..\..\BSP/bsp.c ****     CPU_INT08U  data_resp;
 729:..\..\..\BSP/bsp.c ****     
 730:..\..\..\BSP/bsp.c ****                                                                 /* ----------------- READ X-AXIS DA
 731:..\..\..\BSP/bsp.c ****     BSP_Accel_RegRdWr( BSP_KXTJ2_DIR_READ,                      /* Read the X-Axis HIGH Register fo
 732:..\..\..\BSP/bsp.c ****                        BSP_ACCEL_REG_XOUT_H,
 733:..\..\..\BSP/bsp.c ****                       &data_resp);
 734:..\..\..\BSP/bsp.c ****     
 735:..\..\..\BSP/bsp.c ****     axis_val  = (data_resp << DEF_OCTET_NBR_BITS);              /* Place X-Axis TOP Half Value onto
 736:..\..\..\BSP/bsp.c **** 
 737:..\..\..\BSP/bsp.c ****     BSP_Accel_RegRdWr( BSP_KXTJ2_DIR_READ,                      /* Read the X-Axis LOW  Register fo
 738:..\..\..\BSP/bsp.c ****                        BSP_ACCEL_REG_XOUT_L,
 739:..\..\..\BSP/bsp.c ****                       &data_resp);
 740:..\..\..\BSP/bsp.c ****     
 741:..\..\..\BSP/bsp.c ****     axis_val |=  data_resp;                                     /* Add the X-Axis BOTTOM Half Value
 742:..\..\..\BSP/bsp.c ****     
 743:..\..\..\BSP/bsp.c ****     if (DEF_BIT_IS_SET(axis_val, DEF_BIT_15) == DEF_YES) {      /* Adjust X-Axis Value if Over Limi
 744:..\..\..\BSP/bsp.c ****         axis_val >>= DEF_NIBBLE_NBR_BITS;                       /* Shift Back a Nibble, Since Accel
 745:..\..\..\BSP/bsp.c ****         axis_val  |= BSP_ACCEL_INVALID_MSK;                     /* Invalidate Upper Nibble on X-Axi
 746:..\..\..\BSP/bsp.c ****     } else {
 747:..\..\..\BSP/bsp.c ****         axis_val >>= DEF_NIBBLE_NBR_BITS;                       /* Do Not Invalidate, just Shift Si
 748:..\..\..\BSP/bsp.c ****     }
 749:..\..\..\BSP/bsp.c ****     
 750:..\..\..\BSP/bsp.c ****    *x_axis = axis_val;                                          /* Assign X-Axis Value to Return.  
 751:..\..\..\BSP/bsp.c **** 
 752:..\..\..\BSP/bsp.c ****                                                                 /* ----------------- READ Y-AXIS DA
 753:..\..\..\BSP/bsp.c ****     BSP_Accel_RegRdWr( BSP_KXTJ2_DIR_READ,                      /* Read the Y-Axis HIGH Register fo
 754:..\..\..\BSP/bsp.c ****                        BSP_ACCEL_REG_YOUT_H,
 755:..\..\..\BSP/bsp.c ****                       &data_resp);
 756:..\..\..\BSP/bsp.c ****     
 757:..\..\..\BSP/bsp.c ****     axis_val  = (data_resp << DEF_OCTET_NBR_BITS);              /* Place Y-Axis TOP Half Value onto
 758:..\..\..\BSP/bsp.c **** 
 759:..\..\..\BSP/bsp.c ****     BSP_Accel_RegRdWr( BSP_KXTJ2_DIR_READ,                      /* Read the Y-Axis LOW  Register fo
 760:..\..\..\BSP/bsp.c ****                        BSP_ACCEL_REG_YOUT_L,
 761:..\..\..\BSP/bsp.c ****                       &data_resp);
 762:..\..\..\BSP/bsp.c ****     
 763:..\..\..\BSP/bsp.c ****     axis_val |=  data_resp;                                     /* Add the Y-Axis BOTTOM Half Value
 764:..\..\..\BSP/bsp.c ****     
 765:..\..\..\BSP/bsp.c ****     if (DEF_BIT_IS_SET(axis_val, DEF_BIT_15) == DEF_YES) {      /* Adjust Y-Axis Value if Over Limi
ARM GAS  C:\Users\EDULU~1.DES\AppData\Local\Temp\ccpm8yUU.s 			page 21


 766:..\..\..\BSP/bsp.c ****         axis_val >>= DEF_NIBBLE_NBR_BITS;                       /* Shift Back a Nibble, Since Accel
 767:..\..\..\BSP/bsp.c ****         axis_val  |= BSP_ACCEL_INVALID_MSK;                     /* Invalidate Upper Nibble on Y-Axi
 768:..\..\..\BSP/bsp.c ****     } else {
 769:..\..\..\BSP/bsp.c ****         axis_val >>= DEF_NIBBLE_NBR_BITS;                       /* Do Not Invalidate, just Shift Si
 770:..\..\..\BSP/bsp.c ****     }
 771:..\..\..\BSP/bsp.c ****     
 772:..\..\..\BSP/bsp.c ****    *y_axis = axis_val;                                          /* Assign Y-Axis Value to Return.  
 773:..\..\..\BSP/bsp.c ****     
 774:..\..\..\BSP/bsp.c ****                                                                 /* ----------------- READ Z-AXIS DA
 775:..\..\..\BSP/bsp.c ****     BSP_Accel_RegRdWr( BSP_KXTJ2_DIR_READ,                      /* Read the Z-Axis HIGH Register fo
 776:..\..\..\BSP/bsp.c ****                        BSP_ACCEL_REG_ZOUT_H,
 777:..\..\..\BSP/bsp.c ****                       &data_resp);
 778:..\..\..\BSP/bsp.c ****     
 779:..\..\..\BSP/bsp.c ****     axis_val  = (data_resp << DEF_OCTET_NBR_BITS);              /* Place Z-Axis TOP Half Value onto
 780:..\..\..\BSP/bsp.c **** 
 781:..\..\..\BSP/bsp.c ****     BSP_Accel_RegRdWr( BSP_KXTJ2_DIR_READ,                      /* Read the Z-Axis LOW  Register fo
 782:..\..\..\BSP/bsp.c ****                        BSP_ACCEL_REG_ZOUT_L,
 783:..\..\..\BSP/bsp.c ****                       &data_resp);
 784:..\..\..\BSP/bsp.c ****     
 785:..\..\..\BSP/bsp.c ****     axis_val |=  data_resp;                                     /* Add the Z-Axis BOTTOM Half Value
 786:..\..\..\BSP/bsp.c ****     
 787:..\..\..\BSP/bsp.c ****     if (DEF_BIT_IS_SET(axis_val, DEF_BIT_15) == DEF_YES) {      /* Adjust Z-Axis Value if Over Limi
 788:..\..\..\BSP/bsp.c ****         axis_val >>= DEF_NIBBLE_NBR_BITS;                       /* Shift Back a Nibble, Since Accel
 789:..\..\..\BSP/bsp.c ****         axis_val  |= BSP_ACCEL_INVALID_MSK;                     /* Invalidate Upper Nibble on Z-Axi
 790:..\..\..\BSP/bsp.c ****     } else {
 791:..\..\..\BSP/bsp.c ****         axis_val >>= DEF_NIBBLE_NBR_BITS;                       /* Do Not Invalidate, just Shift Si
 792:..\..\..\BSP/bsp.c ****     }
 793:..\..\..\BSP/bsp.c ****     
 794:..\..\..\BSP/bsp.c ****    *z_axis = axis_val;                                          /* Assign Z-Axis Value to Return.  
 795:..\..\..\BSP/bsp.c **** }
 796:..\..\..\BSP/bsp.c **** 
 797:..\..\..\BSP/bsp.c **** 
 798:..\..\..\BSP/bsp.c **** /*
 799:..\..\..\BSP/bsp.c **** ***************************************************************************************************
 800:..\..\..\BSP/bsp.c **** *                                       BSP_Accel_ISR_Handler()
 801:..\..\..\BSP/bsp.c **** *
 802:..\..\..\BSP/bsp.c **** * Description : ISR Handler (I2C Based) for the KXTJ2-1009 3-Axis Accelerometer.
 803:..\..\..\BSP/bsp.c **** *
 804:..\..\..\BSP/bsp.c **** * Argument(s) : none.
 805:..\..\..\BSP/bsp.c **** *
 806:..\..\..\BSP/bsp.c **** * Return(s)   : none.
 807:..\..\..\BSP/bsp.c **** *
 808:..\..\..\BSP/bsp.c **** * Caller(s)   : This is an ISR.
 809:..\..\..\BSP/bsp.c **** *
 810:..\..\..\BSP/bsp.c **** * Note(s)     : (1) See BSP_Init Note (3) for more information on how to convert this ISR Handler i
 811:..\..\..\BSP/bsp.c **** *                   an OS-Aware ISR Handler.
 812:..\..\..\BSP/bsp.c **** ***************************************************************************************************
 813:..\..\..\BSP/bsp.c **** */
 814:..\..\..\BSP/bsp.c **** 
 815:..\..\..\BSP/bsp.c **** CY_ISR(BSP_Accel_ISR_Handler)
 816:..\..\..\BSP/bsp.c **** {
 317              		.loc 1 816 1 is_stmt 1 view -0
 318              		.cfi_startproc
 319              		@ args = 0, pretend = 0, frame = 8
 320              		@ frame_needed = 0, uses_anonymous_args = 0
 321 0000 00B5     		push	{lr}
 322              		.cfi_def_cfa_offset 4
ARM GAS  C:\Users\EDULU~1.DES\AppData\Local\Temp\ccpm8yUU.s 			page 22


 323              		.cfi_offset 14, -4
 324 0002 83B0     		sub	sp, sp, #12
 325              		.cfi_def_cfa_offset 16
 817:..\..\..\BSP/bsp.c ****     CPU_INT08U  data_resp;
 326              		.loc 1 817 5 view .LVU84
 818:..\..\..\BSP/bsp.c ****     
 819:..\..\..\BSP/bsp.c ****                                                                 /* ----------------- CLR PENDING IN
 820:..\..\..\BSP/bsp.c ****     BSP_Accel_RegRdWr( BSP_KXTJ2_DIR_READ,                      /* Read INT_REL to Clear any Int Sr
 327              		.loc 1 820 5 view .LVU85
 328 0004 6B46     		mov	r3, sp
 329 0006 DA1D     		adds	r2, r3, #7
 330 0008 1A21     		movs	r1, #26
 331 000a 0120     		movs	r0, #1
 332 000c FFF7FEFF 		bl	BSP_Accel_RegRdWr
 333              	.LVL38:
 821:..\..\..\BSP/bsp.c ****                        BSP_ACCEL_REG_INT_REL,
 822:..\..\..\BSP/bsp.c ****                       &data_resp);
 823:..\..\..\BSP/bsp.c ****     
 824:..\..\..\BSP/bsp.c ****     Accel_Pin_ClearInterrupt();                                 /* Clear Pending GPIO Interrupt.   
 334              		.loc 1 824 5 view .LVU86
 335 0010 FFF7FEFF 		bl	Accel_Pin_ClearInterrupt
 336              	.LVL39:
 825:..\..\..\BSP/bsp.c **** }...
 337              		.loc 1 825 1 is_stmt 0 view .LVU87
 338 0014 03B0     		add	sp, sp, #12
 339              		@ sp needed
 340 0016 00BD     		pop	{pc}
 341              		.cfi_endproc
 342              	.LFE15:
 343              		.size	BSP_Accel_ISR_Handler, .-BSP_Accel_ISR_Handler
 344              		.section	.text.BSP_Init,"ax",%progbits
 345              		.align	1
 346              		.global	BSP_Init
 347              		.syntax unified
 348              		.code	16
 349              		.thumb_func
 350              		.fpu softvfp
 351              		.type	BSP_Init, %function
 352              	BSP_Init:
 353              	.LFB3:
 159:..\..\..\BSP/bsp.c **** {
 354              		.loc 1 159 1 is_stmt 1 view -0
 355              		.cfi_startproc
 356              		@ args = 0, pretend = 0, frame = 0
 357              		@ frame_needed = 0, uses_anonymous_args = 0
 358 0000 10B5     		push	{r4, lr}
 359              		.cfi_def_cfa_offset 8
 360              		.cfi_offset 4, -8
 361              		.cfi_offset 14, -4
 160:..\..\..\BSP/bsp.c ****     CPU_INT32U   reg_val;
 362              		.loc 1 160 5 view .LVU89
 161:..\..\..\BSP/bsp.c ****     CPU_INT32U  *p_vect_tbl;
 363              		.loc 1 161 5 view .LVU90
 164:..\..\..\BSP/bsp.c ****     reg_val = CPU_REG_NVIC_VTOR;                                /* Get the NVIC Offset Table       
 364              		.loc 1 164 5 view .LVU91
 164:..\..\..\BSP/bsp.c ****     reg_val = CPU_REG_NVIC_VTOR;                                /* Get the NVIC Offset Table       
 365              		.loc 1 164 13 is_stmt 0 view .LVU92
ARM GAS  C:\Users\EDULU~1.DES\AppData\Local\Temp\ccpm8yUU.s 			page 23


 366 0002 0B4B     		ldr	r3, .L23
 367 0004 1B68     		ldr	r3, [r3]
 368              	.LVL40:
 165:..\..\..\BSP/bsp.c ****     DEF_BIT_CLR(reg_val, DEF_BIT_29);                           /* Clear the TBLBASE Bit           
 369              		.loc 1 165 5 is_stmt 1 view .LVU93
 370 0006 0B4A     		ldr	r2, .L23+4
 371 0008 1340     		ands	r3, r2
 372              	.LVL41:
 167:..\..\..\BSP/bsp.c ****     p_vect_tbl                  = (CPU_INT32U *)reg_val;           
 373              		.loc 1 167 5 view .LVU94
 169:..\..\..\BSP/bsp.c ****     p_vect_tbl[CPU_INT_PENDSV]  = (CPU_INT32U  )PendSV_Handler;
 374              		.loc 1 169 5 view .LVU95
 169:..\..\..\BSP/bsp.c ****     p_vect_tbl[CPU_INT_PENDSV]  = (CPU_INT32U  )PendSV_Handler;
 375              		.loc 1 169 35 is_stmt 0 view .LVU96
 376 000a 0B4A     		ldr	r2, .L23+8
 169:..\..\..\BSP/bsp.c ****     p_vect_tbl[CPU_INT_PENDSV]  = (CPU_INT32U  )PendSV_Handler;
 377              		.loc 1 169 33 view .LVU97
 378 000c 9A63     		str	r2, [r3, #56]
 170:..\..\..\BSP/bsp.c ****     p_vect_tbl[CPU_INT_SYSTICK] = (CPU_INT32U  )SysTick_Handler;
 379              		.loc 1 170 5 is_stmt 1 view .LVU98
 170:..\..\..\BSP/bsp.c ****     p_vect_tbl[CPU_INT_SYSTICK] = (CPU_INT32U  )SysTick_Handler;
 380              		.loc 1 170 35 is_stmt 0 view .LVU99
 381 000e 0B4A     		ldr	r2, .L23+12
 170:..\..\..\BSP/bsp.c ****     p_vect_tbl[CPU_INT_SYSTICK] = (CPU_INT32U  )SysTick_Handler;
 382              		.loc 1 170 33 view .LVU100
 383 0010 DA63     		str	r2, [r3, #60]
 173:..\..\..\BSP/bsp.c ****     PWM_Red_Start();                                            /* Enable and Start the PWM Block f
 384              		.loc 1 173 5 is_stmt 1 view .LVU101
 385 0012 FFF7FEFF 		bl	PWM_Red_Start
 386              	.LVL42:
 174:..\..\..\BSP/bsp.c **** 	PWM_Green_Start();
 387              		.loc 1 174 2 view .LVU102
 388 0016 FFF7FEFF 		bl	PWM_Green_Start
 389              	.LVL43:
 175:..\..\..\BSP/bsp.c **** 	PWM_Blue_Start();
 390              		.loc 1 175 2 view .LVU103
 391 001a FFF7FEFF 		bl	PWM_Blue_Start
 392              	.LVL44:
 178:..\..\..\BSP/bsp.c ****     Temp_Sensor_Start();                                        /* Initialize and Start the TMP05 T
 393              		.loc 1 178 5 view .LVU104
 394 001e FFF7FEFF 		bl	Temp_Sensor_Start
 395              	.LVL45:
 179:..\..\..\BSP/bsp.c ****     Temp_Sensor_Trigger();                                      /* Trigger the Temp Sensor Componen
 396              		.loc 1 179 5 view .LVU105
 397 0022 FFF7FEFF 		bl	Temp_Sensor_Trigger
 398              	.LVL46:
 182:..\..\..\BSP/bsp.c ****     Opamp_Start();                                              /* Start the OpAmp Hardware require
 399              		.loc 1 182 5 view .LVU106
 400 0026 FFF7FEFF 		bl	Opamp_Start
 401              	.LVL47:
 183:..\..\..\BSP/bsp.c ****     ADC_Start();                                                /* Enable and Start the ADC Block. 
 402              		.loc 1 183 5 view .LVU107
 403 002a FFF7FEFF 		bl	ADC_Start
 404              	.LVL48:
 184:..\..\..\BSP/bsp.c **** }
 405              		.loc 1 184 1 is_stmt 0 view .LVU108
 406              		@ sp needed
ARM GAS  C:\Users\EDULU~1.DES\AppData\Local\Temp\ccpm8yUU.s 			page 24


 407 002e 10BD     		pop	{r4, pc}
 408              	.L24:
 409              		.align	2
 410              	.L23:
 411 0030 08ED00E0 		.word	-536810232
 412 0034 FFFFFFDF 		.word	-536870913
 413 0038 00000000 		.word	PendSV_Handler
 414 003c 00000000 		.word	SysTick_Handler
 415              		.cfi_endproc
 416              	.LFE3:
 417              		.size	BSP_Init, .-BSP_Init
 418              		.section	.text.BSP_CPU_ClkFreq,"ax",%progbits
 419              		.align	1
 420              		.global	BSP_CPU_ClkFreq
 421              		.syntax unified
 422              		.code	16
 423              		.thumb_func
 424              		.fpu softvfp
 425              		.type	BSP_CPU_ClkFreq, %function
 426              	BSP_CPU_ClkFreq:
 427              	.LFB5:
 233:..\..\..\BSP/bsp.c **** {
 428              		.loc 1 233 1 is_stmt 1 view -0
 429              		.cfi_startproc
 430              		@ args = 0, pretend = 0, frame = 0
 431              		@ frame_needed = 0, uses_anonymous_args = 0
 432              		@ link register save eliminated.
 234:..\..\..\BSP/bsp.c ****     return (BSP_PSOC_CPU_FREQ);
 433              		.loc 1 234 5 view .LVU110
 235:..\..\..\BSP/bsp.c **** }
 434              		.loc 1 235 1 is_stmt 0 view .LVU111
 435 0000 0048     		ldr	r0, .L26
 436              		@ sp needed
 437 0002 7047     		bx	lr
 438              	.L27:
 439              		.align	2
 440              	.L26:
 441 0004 006CDC02 		.word	48000000
 442              		.cfi_endproc
 443              	.LFE5:
 444              		.size	BSP_CPU_ClkFreq, .-BSP_CPU_ClkFreq
 445              		.section	.text.BSP_CPU_TickInit,"ax",%progbits
 446              		.align	1
 447              		.global	BSP_CPU_TickInit
 448              		.syntax unified
 449              		.code	16
 450              		.thumb_func
 451              		.fpu softvfp
 452              		.type	BSP_CPU_TickInit, %function
 453              	BSP_CPU_TickInit:
 454              	.LFB4:
 206:..\..\..\BSP/bsp.c **** {
 455              		.loc 1 206 1 is_stmt 1 view -0
 456              		.cfi_startproc
 457              		@ args = 0, pretend = 0, frame = 0
 458              		@ frame_needed = 0, uses_anonymous_args = 0
 459 0000 10B5     		push	{r4, lr}
ARM GAS  C:\Users\EDULU~1.DES\AppData\Local\Temp\ccpm8yUU.s 			page 25


 460              		.cfi_def_cfa_offset 8
 461              		.cfi_offset 4, -8
 462              		.cfi_offset 14, -4
 207:..\..\..\BSP/bsp.c ****     CPU_INT32U  cpu_clk_freq;
 463              		.loc 1 207 5 view .LVU113
 210:..\..\..\BSP/bsp.c ****     cpu_clk_freq = BSP_CPU_ClkFreq();                           /* Determine CPU Clock Frequency fo
 464              		.loc 1 210 5 view .LVU114
 210:..\..\..\BSP/bsp.c ****     cpu_clk_freq = BSP_CPU_ClkFreq();                           /* Determine CPU Clock Frequency fo
 465              		.loc 1 210 20 is_stmt 0 view .LVU115
 466 0002 FFF7FEFF 		bl	BSP_CPU_ClkFreq
 467              	.LVL49:
 212:..\..\..\BSP/bsp.c ****     OS_CPU_SysTickInit(cpu_clk_freq);                           /* Init uC/OS Periodic Time Source 
 468              		.loc 1 212 5 is_stmt 1 view .LVU116
 469 0006 FFF7FEFF 		bl	OS_CPU_SysTickInit
 470              	.LVL50:
 213:..\..\..\BSP/bsp.c **** }
 471              		.loc 1 213 1 is_stmt 0 view .LVU117
 472              		@ sp needed
 473 000a 10BD     		pop	{r4, pc}
 474              		.cfi_endproc
 475              	.LFE4:
 476              		.size	BSP_CPU_TickInit, .-BSP_CPU_TickInit
 477              		.section	.text.BSP_RGB_ColorSet,"ax",%progbits
 478              		.align	1
 479              		.global	BSP_RGB_ColorSet
 480              		.syntax unified
 481              		.code	16
 482              		.thumb_func
 483              		.fpu softvfp
 484              		.type	BSP_RGB_ColorSet, %function
 485              	BSP_RGB_ColorSet:
 486              	.LVL51:
 487              	.LFB8:
 319:..\..\..\BSP/bsp.c **** {
 488              		.loc 1 319 1 is_stmt 1 view -0
 489              		.cfi_startproc
 490              		@ args = 0, pretend = 0, frame = 0
 491              		@ frame_needed = 0, uses_anonymous_args = 0
 319:..\..\..\BSP/bsp.c **** {
 492              		.loc 1 319 1 is_stmt 0 view .LVU119
 493 0000 F8B5     		push	{r3, r4, r5, r6, r7, lr}
 494              		.cfi_def_cfa_offset 24
 495              		.cfi_offset 3, -24
 496              		.cfi_offset 4, -20
 497              		.cfi_offset 5, -16
 498              		.cfi_offset 6, -12
 499              		.cfi_offset 7, -8
 500              		.cfi_offset 14, -4
 501 0002 0700     		movs	r7, r0
 320:..\..\..\BSP/bsp.c ****     CPU_INT08U  alpha;
 502              		.loc 1 320 5 is_stmt 1 view .LVU120
 321:..\..\..\BSP/bsp.c ****     CPU_INT08U  color_val;
 503              		.loc 1 321 5 view .LVU121
 322:..\..\..\BSP/bsp.c ****     CPU_INT16U  pwm_color;
 504              		.loc 1 322 5 view .LVU122
 325:..\..\..\BSP/bsp.c ****     alpha     = HI8(HI16(color));                               /* Get Alpha Index from Hex Color V
 505              		.loc 1 325 5 view .LVU123
ARM GAS  C:\Users\EDULU~1.DES\AppData\Local\Temp\ccpm8yUU.s 			page 26


 325:..\..\..\BSP/bsp.c ****     alpha     = HI8(HI16(color));                               /* Get Alpha Index from Hex Color V
 506              		.loc 1 325 17 is_stmt 0 view .LVU124
 507 0004 030C     		lsrs	r3, r0, #16
 325:..\..\..\BSP/bsp.c ****     alpha     = HI8(HI16(color));                               /* Get Alpha Index from Hex Color V
 508              		.loc 1 325 15 view .LVU125
 509 0006 1C0A     		lsrs	r4, r3, #8
 510              	.LVL52:
 328:..\..\..\BSP/bsp.c ****     color_val = LO8(HI16(color));                               /* Get Red Value from the Desired R
 511              		.loc 1 328 5 is_stmt 1 view .LVU126
 331:..\..\..\BSP/bsp.c ****     pwm_color = ((((0xFFu - alpha) * 0xFFu) + (alpha * color_val)) >> BSP_RGB_BRIGHT_SAT_SHIFT);
 512              		.loc 1 331 5 view .LVU127
 331:..\..\..\BSP/bsp.c ****     pwm_color = ((((0xFFu - alpha) * 0xFFu) + (alpha * color_val)) >> BSP_RGB_BRIGHT_SAT_SHIFT);
 513              		.loc 1 331 45 is_stmt 0 view .LVU128
 514 0008 2502     		lsls	r5, r4, #8
 515 000a 651B     		subs	r5, r4, r5
 331:..\..\..\BSP/bsp.c ****     pwm_color = ((((0xFFu - alpha) * 0xFFu) + (alpha * color_val)) >> BSP_RGB_BRIGHT_SAT_SHIFT);
 516              		.loc 1 331 54 view .LVU129
 517 000c FF26     		movs	r6, #255
 518 000e 3340     		ands	r3, r6
 519              	.LVL53:
 331:..\..\..\BSP/bsp.c ****     pwm_color = ((((0xFFu - alpha) * 0xFFu) + (alpha * color_val)) >> BSP_RGB_BRIGHT_SAT_SHIFT);
 520              		.loc 1 331 54 view .LVU130
 521 0010 1800     		movs	r0, r3
 522              	.LVL54:
 331:..\..\..\BSP/bsp.c ****     pwm_color = ((((0xFFu - alpha) * 0xFFu) + (alpha * color_val)) >> BSP_RGB_BRIGHT_SAT_SHIFT);
 523              		.loc 1 331 54 view .LVU131
 524 0012 6043     		muls	r0, r4
 331:..\..\..\BSP/bsp.c ****     pwm_color = ((((0xFFu - alpha) * 0xFFu) + (alpha * color_val)) >> BSP_RGB_BRIGHT_SAT_SHIFT);
 525              		.loc 1 331 45 view .LVU132
 526 0014 4019     		adds	r0, r0, r5
 527 0016 104B     		ldr	r3, .L30
 528 0018 9C46     		mov	ip, r3
 529 001a 6044     		add	r0, r0, ip
 331:..\..\..\BSP/bsp.c ****     pwm_color = ((((0xFFu - alpha) * 0xFFu) + (alpha * color_val)) >> BSP_RGB_BRIGHT_SAT_SHIFT);
 530              		.loc 1 331 68 view .LVU133
 531 001c 4008     		lsrs	r0, r0, #1
 532              	.LVL55:
 332:..\..\..\BSP/bsp.c ****     PWM_Red_WriteCompare(pwm_color);
 533              		.loc 1 332 5 is_stmt 1 view .LVU134
 534 001e 0004     		lsls	r0, r0, #16
 535              	.LVL56:
 332:..\..\..\BSP/bsp.c ****     PWM_Red_WriteCompare(pwm_color);
 536              		.loc 1 332 5 is_stmt 0 view .LVU135
 537 0020 000C     		lsrs	r0, r0, #16
 538 0022 FFF7FEFF 		bl	PWM_Red_WriteCompare
 539              	.LVL57:
 335:..\..\..\BSP/bsp.c ****     color_val = HI8(LO16(color));                               /* Get Green Value from the Desired
 540              		.loc 1 335 5 is_stmt 1 view .LVU136
 335:..\..\..\BSP/bsp.c ****     color_val = HI8(LO16(color));                               /* Get Green Value from the Desired
 541              		.loc 1 335 17 is_stmt 0 view .LVU137
 542 0026 B8B2     		uxth	r0, r7
 335:..\..\..\BSP/bsp.c ****     color_val = HI8(LO16(color));                               /* Get Green Value from the Desired
 543              		.loc 1 335 15 view .LVU138
 544 0028 000A     		lsrs	r0, r0, #8
 545              	.LVL58:
 338:..\..\..\BSP/bsp.c ****     pwm_color = ((((0xFFu - alpha) * 0xFFu) + (alpha * color_val)) >> BSP_RGB_BRIGHT_SAT_SHIFT);
 546              		.loc 1 338 5 is_stmt 1 view .LVU139
ARM GAS  C:\Users\EDULU~1.DES\AppData\Local\Temp\ccpm8yUU.s 			page 27


 338:..\..\..\BSP/bsp.c ****     pwm_color = ((((0xFFu - alpha) * 0xFFu) + (alpha * color_val)) >> BSP_RGB_BRIGHT_SAT_SHIFT);
 547              		.loc 1 338 54 is_stmt 0 view .LVU140
 548 002a 6043     		muls	r0, r4
 549              	.LVL59:
 338:..\..\..\BSP/bsp.c ****     pwm_color = ((((0xFFu - alpha) * 0xFFu) + (alpha * color_val)) >> BSP_RGB_BRIGHT_SAT_SHIFT);
 550              		.loc 1 338 45 view .LVU141
 551 002c 4019     		adds	r0, r0, r5
 552 002e 0A4B     		ldr	r3, .L30
 553              	.LVL60:
 338:..\..\..\BSP/bsp.c ****     pwm_color = ((((0xFFu - alpha) * 0xFFu) + (alpha * color_val)) >> BSP_RGB_BRIGHT_SAT_SHIFT);
 554              		.loc 1 338 45 view .LVU142
 555 0030 9C46     		mov	ip, r3
 556 0032 6044     		add	r0, r0, ip
 338:..\..\..\BSP/bsp.c ****     pwm_color = ((((0xFFu - alpha) * 0xFFu) + (alpha * color_val)) >> BSP_RGB_BRIGHT_SAT_SHIFT);
 557              		.loc 1 338 68 view .LVU143
 558 0034 4008     		lsrs	r0, r0, #1
 559              	.LVL61:
 339:..\..\..\BSP/bsp.c ****     PWM_Green_WriteCompare(pwm_color);
 560              		.loc 1 339 5 is_stmt 1 view .LVU144
 561 0036 0004     		lsls	r0, r0, #16
 562              	.LVL62:
 339:..\..\..\BSP/bsp.c ****     PWM_Green_WriteCompare(pwm_color);
 563              		.loc 1 339 5 is_stmt 0 view .LVU145
 564 0038 000C     		lsrs	r0, r0, #16
 565 003a FFF7FEFF 		bl	PWM_Green_WriteCompare
 566              	.LVL63:
 342:..\..\..\BSP/bsp.c ****     color_val = LO8(LO16(color));                               /* Get Blue Value from the Desired 
 567              		.loc 1 342 5 is_stmt 1 view .LVU146
 345:..\..\..\BSP/bsp.c ****     pwm_color = ((((0xFFu - alpha) * 0xFFu) + (alpha * color_val)) >> BSP_RGB_BRIGHT_SAT_SHIFT);
 568              		.loc 1 345 5 view .LVU147
 345:..\..\..\BSP/bsp.c ****     pwm_color = ((((0xFFu - alpha) * 0xFFu) + (alpha * color_val)) >> BSP_RGB_BRIGHT_SAT_SHIFT);
 569              		.loc 1 345 54 is_stmt 0 view .LVU148
 570 003e 3000     		movs	r0, r6
 571 0040 3840     		ands	r0, r7
 572 0042 6043     		muls	r0, r4
 345:..\..\..\BSP/bsp.c ****     pwm_color = ((((0xFFu - alpha) * 0xFFu) + (alpha * color_val)) >> BSP_RGB_BRIGHT_SAT_SHIFT);
 573              		.loc 1 345 45 view .LVU149
 574 0044 4019     		adds	r0, r0, r5
 575 0046 044B     		ldr	r3, .L30
 576              	.LVL64:
 345:..\..\..\BSP/bsp.c ****     pwm_color = ((((0xFFu - alpha) * 0xFFu) + (alpha * color_val)) >> BSP_RGB_BRIGHT_SAT_SHIFT);
 577              		.loc 1 345 45 view .LVU150
 578 0048 9C46     		mov	ip, r3
 579 004a 6044     		add	r0, r0, ip
 345:..\..\..\BSP/bsp.c ****     pwm_color = ((((0xFFu - alpha) * 0xFFu) + (alpha * color_val)) >> BSP_RGB_BRIGHT_SAT_SHIFT);
 580              		.loc 1 345 68 view .LVU151
 581 004c 4008     		lsrs	r0, r0, #1
 582              	.LVL65:
 346:..\..\..\BSP/bsp.c ****     PWM_Blue_WriteCompare(pwm_color);
 583              		.loc 1 346 5 is_stmt 1 view .LVU152
 584 004e 0004     		lsls	r0, r0, #16
 585              	.LVL66:
 346:..\..\..\BSP/bsp.c ****     PWM_Blue_WriteCompare(pwm_color);
 586              		.loc 1 346 5 is_stmt 0 view .LVU153
 587 0050 000C     		lsrs	r0, r0, #16
 588 0052 FFF7FEFF 		bl	PWM_Blue_WriteCompare
 589              	.LVL67:
ARM GAS  C:\Users\EDULU~1.DES\AppData\Local\Temp\ccpm8yUU.s 			page 28


 347:..\..\..\BSP/bsp.c **** }
 590              		.loc 1 347 1 view .LVU154
 591              		@ sp needed
 592              	.LVL68:
 593              	.LVL69:
 594              	.LVL70:
 595              	.LVL71:
 347:..\..\..\BSP/bsp.c **** }
 596              		.loc 1 347 1 view .LVU155
 597 0056 F8BD     		pop	{r3, r4, r5, r6, r7, pc}
 598              	.L31:
 599              		.align	2
 600              	.L30:
 601 0058 01FE0000 		.word	65025
 602              		.cfi_endproc
 603              	.LFE8:
 604              		.size	BSP_RGB_ColorSet, .-BSP_RGB_ColorSet
 605              		.section	.text.BSP_RGB_On,"ax",%progbits
 606              		.align	1
 607              		.global	BSP_RGB_On
 608              		.syntax unified
 609              		.code	16
 610              		.thumb_func
 611              		.fpu softvfp
 612              		.type	BSP_RGB_On, %function
 613              	BSP_RGB_On:
 614              	.LFB6:
 265:..\..\..\BSP/bsp.c **** {
 615              		.loc 1 265 1 is_stmt 1 view -0
 616              		.cfi_startproc
 617              		@ args = 0, pretend = 0, frame = 0
 618              		@ frame_needed = 0, uses_anonymous_args = 0
 619 0000 10B5     		push	{r4, lr}
 620              		.cfi_def_cfa_offset 8
 621              		.cfi_offset 4, -8
 622              		.cfi_offset 14, -4
 266:..\..\..\BSP/bsp.c ****     BSP_RGB_ColorSet(RGB_PrevVal);                              /* Restore the RGB Color of the Pre
 623              		.loc 1 266 5 view .LVU157
 624 0002 024B     		ldr	r3, .L33
 625 0004 1868     		ldr	r0, [r3]
 626 0006 FFF7FEFF 		bl	BSP_RGB_ColorSet
 627              	.LVL72:
 267:..\..\..\BSP/bsp.c **** }
 628              		.loc 1 267 1 is_stmt 0 view .LVU158
 629              		@ sp needed
 630 000a 10BD     		pop	{r4, pc}
 631              	.L34:
 632              		.align	2
 633              	.L33:
 634 000c 00000000 		.word	.LANCHOR0
 635              		.cfi_endproc
 636              	.LFE6:
 637              		.size	BSP_RGB_On, .-BSP_RGB_On
 638              		.global	__aeabi_uidiv
 639              		.section	.text.BSP_RGB_ColorRead,"ax",%progbits
 640              		.align	1
 641              		.global	BSP_RGB_ColorRead
ARM GAS  C:\Users\EDULU~1.DES\AppData\Local\Temp\ccpm8yUU.s 			page 29


 642              		.syntax unified
 643              		.code	16
 644              		.thumb_func
 645              		.fpu softvfp
 646              		.type	BSP_RGB_ColorRead, %function
 647              	BSP_RGB_ColorRead:
 648              	.LFB9:
 379:..\..\..\BSP/bsp.c **** {
 649              		.loc 1 379 1 is_stmt 1 view -0
 650              		.cfi_startproc
 651              		@ args = 0, pretend = 0, frame = 0
 652              		@ frame_needed = 0, uses_anonymous_args = 0
 653 0000 70B5     		push	{r4, r5, r6, lr}
 654              		.cfi_def_cfa_offset 16
 655              		.cfi_offset 4, -16
 656              		.cfi_offset 5, -12
 657              		.cfi_offset 6, -8
 658              		.cfi_offset 14, -4
 380:..\..\..\BSP/bsp.c ****     CPU_INT32U  color;
 659              		.loc 1 380 5 view .LVU160
 381:..\..\..\BSP/bsp.c ****     CPU_INT16U  pwm_color;
 660              		.loc 1 381 5 view .LVU161
 382:..\..\..\BSP/bsp.c ****     CPU_INT08U  color_val;
 661              		.loc 1 382 5 view .LVU162
 385:..\..\..\BSP/bsp.c ****     color = (BSP_RGB_MAX_ALPHA_VAL << BSP_RGB_ALPHA_POS_SHIFT); /* Set the Max Alpha Value to RGBA 
 662              		.loc 1 385 5 view .LVU163
 663              	.LVL73:
 388:..\..\..\BSP/bsp.c ****     pwm_color = PWM_Red_ReadCompare();                          /* Get the PWM Compared Value to co
 664              		.loc 1 388 5 view .LVU164
 388:..\..\..\BSP/bsp.c ****     pwm_color = PWM_Red_ReadCompare();                          /* Get the PWM Compared Value to co
 665              		.loc 1 388 17 is_stmt 0 view .LVU165
 666 0002 FFF7FEFF 		bl	PWM_Red_ReadCompare
 667              	.LVL74:
 389:..\..\..\BSP/bsp.c ****     color_val = ((pwm_color << BSP_RGB_BRIGHT_SAT_SHIFT) / BSP_RGB_MAX_ALPHA_VAL);
 668              		.loc 1 389 5 is_stmt 1 view .LVU166
 389:..\..\..\BSP/bsp.c ****     color_val = ((pwm_color << BSP_RGB_BRIGHT_SAT_SHIFT) / BSP_RGB_MAX_ALPHA_VAL);
 669              		.loc 1 389 29 is_stmt 0 view .LVU167
 670 0006 4000     		lsls	r0, r0, #1
 671              	.LVL75:
 389:..\..\..\BSP/bsp.c ****     color_val = ((pwm_color << BSP_RGB_BRIGHT_SAT_SHIFT) / BSP_RGB_MAX_ALPHA_VAL);
 672              		.loc 1 389 29 view .LVU168
 673 0008 104D     		ldr	r5, .L36
 674 000a 2840     		ands	r0, r5
 389:..\..\..\BSP/bsp.c ****     color_val = ((pwm_color << BSP_RGB_BRIGHT_SAT_SHIFT) / BSP_RGB_MAX_ALPHA_VAL);
 675              		.loc 1 389 58 view .LVU169
 676 000c FF21     		movs	r1, #255
 677 000e FFF7FEFF 		bl	__aeabi_uidiv
 678              	.LVL76:
 391:..\..\..\BSP/bsp.c ****     color    |= (color_val << BSP_RGB_RED_POS_SHIFT);           /* Set the RED Converted value to R
 679              		.loc 1 391 5 is_stmt 1 view .LVU170
 391:..\..\..\BSP/bsp.c ****     color    |= (color_val << BSP_RGB_RED_POS_SHIFT);           /* Set the RED Converted value to R
 680              		.loc 1 391 28 is_stmt 0 view .LVU171
 681 0012 0004     		lsls	r0, r0, #16
 682              	.LVL77:
 391:..\..\..\BSP/bsp.c ****     color    |= (color_val << BSP_RGB_RED_POS_SHIFT);           /* Set the RED Converted value to R
 683              		.loc 1 391 28 view .LVU172
 684 0014 FF24     		movs	r4, #255
ARM GAS  C:\Users\EDULU~1.DES\AppData\Local\Temp\ccpm8yUU.s 			page 30


 685 0016 2404     		lsls	r4, r4, #16
 686 0018 2040     		ands	r0, r4
 391:..\..\..\BSP/bsp.c ****     color    |= (color_val << BSP_RGB_RED_POS_SHIFT);           /* Set the RED Converted value to R
 687              		.loc 1 391 14 view .LVU173
 688 001a FF26     		movs	r6, #255
 689 001c 3606     		lsls	r6, r6, #24
 690 001e 0643     		orrs	r6, r0
 691              	.LVL78:
 394:..\..\..\BSP/bsp.c ****     pwm_color = PWM_Green_ReadCompare();                        /* Get the PWM Compared Value to co
 692              		.loc 1 394 5 is_stmt 1 view .LVU174
 394:..\..\..\BSP/bsp.c ****     pwm_color = PWM_Green_ReadCompare();                        /* Get the PWM Compared Value to co
 693              		.loc 1 394 17 is_stmt 0 view .LVU175
 694 0020 FFF7FEFF 		bl	PWM_Green_ReadCompare
 695              	.LVL79:
 395:..\..\..\BSP/bsp.c ****     color_val = ((pwm_color << BSP_RGB_BRIGHT_SAT_SHIFT) / BSP_RGB_MAX_ALPHA_VAL);
 696              		.loc 1 395 5 is_stmt 1 view .LVU176
 395:..\..\..\BSP/bsp.c ****     color_val = ((pwm_color << BSP_RGB_BRIGHT_SAT_SHIFT) / BSP_RGB_MAX_ALPHA_VAL);
 697              		.loc 1 395 29 is_stmt 0 view .LVU177
 698 0024 4000     		lsls	r0, r0, #1
 699              	.LVL80:
 395:..\..\..\BSP/bsp.c ****     color_val = ((pwm_color << BSP_RGB_BRIGHT_SAT_SHIFT) / BSP_RGB_MAX_ALPHA_VAL);
 700              		.loc 1 395 29 view .LVU178
 701 0026 2840     		ands	r0, r5
 395:..\..\..\BSP/bsp.c ****     color_val = ((pwm_color << BSP_RGB_BRIGHT_SAT_SHIFT) / BSP_RGB_MAX_ALPHA_VAL);
 702              		.loc 1 395 58 view .LVU179
 703 0028 FF21     		movs	r1, #255
 704 002a FFF7FEFF 		bl	__aeabi_uidiv
 705              	.LVL81:
 397:..\..\..\BSP/bsp.c ****     color    |= (color_val << BSP_RGB_GREEN_POS_SHIFT);         /* Set the GREEN Converted value to
 706              		.loc 1 397 5 is_stmt 1 view .LVU180
 397:..\..\..\BSP/bsp.c ****     color    |= (color_val << BSP_RGB_GREEN_POS_SHIFT);         /* Set the GREEN Converted value to
 707              		.loc 1 397 28 is_stmt 0 view .LVU181
 708 002e 0406     		lsls	r4, r0, #24
 709 0030 240C     		lsrs	r4, r4, #16
 397:..\..\..\BSP/bsp.c ****     color    |= (color_val << BSP_RGB_GREEN_POS_SHIFT);         /* Set the GREEN Converted value to
 710              		.loc 1 397 14 view .LVU182
 711 0032 3443     		orrs	r4, r6
 712              	.LVL82:
 400:..\..\..\BSP/bsp.c ****     pwm_color = PWM_Blue_ReadCompare();                         /* Get the PWM Compared Value to co
 713              		.loc 1 400 5 is_stmt 1 view .LVU183
 400:..\..\..\BSP/bsp.c ****     pwm_color = PWM_Blue_ReadCompare();                         /* Get the PWM Compared Value to co
 714              		.loc 1 400 17 is_stmt 0 view .LVU184
 715 0034 FFF7FEFF 		bl	PWM_Blue_ReadCompare
 716              	.LVL83:
 401:..\..\..\BSP/bsp.c ****     color_val = ((pwm_color << BSP_RGB_BRIGHT_SAT_SHIFT) / BSP_RGB_MAX_ALPHA_VAL);
 717              		.loc 1 401 5 is_stmt 1 view .LVU185
 401:..\..\..\BSP/bsp.c ****     color_val = ((pwm_color << BSP_RGB_BRIGHT_SAT_SHIFT) / BSP_RGB_MAX_ALPHA_VAL);
 718              		.loc 1 401 29 is_stmt 0 view .LVU186
 719 0038 4000     		lsls	r0, r0, #1
 720              	.LVL84:
 401:..\..\..\BSP/bsp.c ****     color_val = ((pwm_color << BSP_RGB_BRIGHT_SAT_SHIFT) / BSP_RGB_MAX_ALPHA_VAL);
 721              		.loc 1 401 29 view .LVU187
 722 003a 2840     		ands	r0, r5
 401:..\..\..\BSP/bsp.c ****     color_val = ((pwm_color << BSP_RGB_BRIGHT_SAT_SHIFT) / BSP_RGB_MAX_ALPHA_VAL);
 723              		.loc 1 401 58 view .LVU188
 724 003c FF21     		movs	r1, #255
 725 003e FFF7FEFF 		bl	__aeabi_uidiv
ARM GAS  C:\Users\EDULU~1.DES\AppData\Local\Temp\ccpm8yUU.s 			page 31


 726              	.LVL85:
 403:..\..\..\BSP/bsp.c ****     color    |= (color_val << BSP_RGB_BLUE_POS_SHIFT);          /* Set the BLUE Converted value to 
 727              		.loc 1 403 5 is_stmt 1 view .LVU189
 403:..\..\..\BSP/bsp.c ****     color    |= (color_val << BSP_RGB_BLUE_POS_SHIFT);          /* Set the BLUE Converted value to 
 728              		.loc 1 403 14 is_stmt 0 view .LVU190
 729 0042 FF23     		movs	r3, #255
 730 0044 1840     		ands	r0, r3
 731              	.LVL86:
 403:..\..\..\BSP/bsp.c ****     color    |= (color_val << BSP_RGB_BLUE_POS_SHIFT);          /* Set the BLUE Converted value to 
 732              		.loc 1 403 14 view .LVU191
 733 0046 2043     		orrs	r0, r4
 734              	.LVL87:
 405:..\..\..\BSP/bsp.c ****     return (color);
 735              		.loc 1 405 5 is_stmt 1 view .LVU192
 406:..\..\..\BSP/bsp.c **** }
 736              		.loc 1 406 1 is_stmt 0 view .LVU193
 737              		@ sp needed
 738 0048 70BD     		pop	{r4, r5, r6, pc}
 739              	.L37:
 740 004a C046     		.align	2
 741              	.L36:
 742 004c FEFF0100 		.word	131070
 743              		.cfi_endproc
 744              	.LFE9:
 745              		.size	BSP_RGB_ColorRead, .-BSP_RGB_ColorRead
 746              		.section	.text.BSP_RGB_Off,"ax",%progbits
 747              		.align	1
 748              		.global	BSP_RGB_Off
 749              		.syntax unified
 750              		.code	16
 751              		.thumb_func
 752              		.fpu softvfp
 753              		.type	BSP_RGB_Off, %function
 754              	BSP_RGB_Off:
 755              	.LFB7:
 290:..\..\..\BSP/bsp.c **** {
 756              		.loc 1 290 1 is_stmt 1 view -0
 757              		.cfi_startproc
 758              		@ args = 0, pretend = 0, frame = 0
 759              		@ frame_needed = 0, uses_anonymous_args = 0
 760 0000 10B5     		push	{r4, lr}
 761              		.cfi_def_cfa_offset 8
 762              		.cfi_offset 4, -8
 763              		.cfi_offset 14, -4
 291:..\..\..\BSP/bsp.c ****     RGB_PrevVal = BSP_RGB_ColorRead();                          /* Save the Current RBG Color Value
 764              		.loc 1 291 5 view .LVU195
 291:..\..\..\BSP/bsp.c ****     RGB_PrevVal = BSP_RGB_ColorRead();                          /* Save the Current RBG Color Value
 765              		.loc 1 291 19 is_stmt 0 view .LVU196
 766 0002 FFF7FEFF 		bl	BSP_RGB_ColorRead
 767              	.LVL88:
 291:..\..\..\BSP/bsp.c ****     RGB_PrevVal = BSP_RGB_ColorRead();                          /* Save the Current RBG Color Value
 768              		.loc 1 291 17 view .LVU197
 769 0006 034B     		ldr	r3, .L39
 770 0008 1860     		str	r0, [r3]
 292:..\..\..\BSP/bsp.c ****     BSP_RGB_ColorSet(BSP_RGB_COLOR_OFF);                        /* Turn the RGB Color LED OFF.     
 771              		.loc 1 292 5 is_stmt 1 view .LVU198
 772 000a FF20     		movs	r0, #255
ARM GAS  C:\Users\EDULU~1.DES\AppData\Local\Temp\ccpm8yUU.s 			page 32


 773 000c 0006     		lsls	r0, r0, #24
 774 000e FFF7FEFF 		bl	BSP_RGB_ColorSet
 775              	.LVL89:
 293:..\..\..\BSP/bsp.c **** }
 776              		.loc 1 293 1 is_stmt 0 view .LVU199
 777              		@ sp needed
 778 0012 10BD     		pop	{r4, pc}
 779              	.L40:
 780              		.align	2
 781              	.L39:
 782 0014 00000000 		.word	.LANCHOR0
 783              		.cfi_endproc
 784              	.LFE7:
 785              		.size	BSP_RGB_Off, .-BSP_RGB_Off
 786              		.section	.text.BSP_PB_StatusGet,"ax",%progbits
 787              		.align	1
 788              		.global	BSP_PB_StatusGet
 789              		.syntax unified
 790              		.code	16
 791              		.thumb_func
 792              		.fpu softvfp
 793              		.type	BSP_PB_StatusGet, %function
 794              	BSP_PB_StatusGet:
 795              	.LFB10:
 437:..\..\..\BSP/bsp.c **** {
 796              		.loc 1 437 1 is_stmt 1 view -0
 797              		.cfi_startproc
 798              		@ args = 0, pretend = 0, frame = 0
 799              		@ frame_needed = 0, uses_anonymous_args = 0
 800 0000 10B5     		push	{r4, lr}
 801              		.cfi_def_cfa_offset 8
 802              		.cfi_offset 4, -8
 803              		.cfi_offset 14, -4
 438:..\..\..\BSP/bsp.c ****     CPU_BOOLEAN  pb_status;
 804              		.loc 1 438 5 view .LVU201
 439:..\..\..\BSP/bsp.c ****     CPU_INT08U   sw_val;
 805              		.loc 1 439 5 view .LVU202
 442:..\..\..\BSP/bsp.c ****     sw_val = SW2_Read();                                        /* Get Push Button 'SW2' Status.   
 806              		.loc 1 442 5 view .LVU203
 442:..\..\..\BSP/bsp.c ****     sw_val = SW2_Read();                                        /* Get Push Button 'SW2' Status.   
 807              		.loc 1 442 14 is_stmt 0 view .LVU204
 808 0002 FFF7FEFF 		bl	SW2_Read
 809              	.LVL90:
 443:..\..\..\BSP/bsp.c ****     pb_status = DEF_BIT_IS_CLR(sw_val, DEF_BIT_00);             /* Check if 'SW2' was pressed. Acti
 810              		.loc 1 443 5 is_stmt 1 view .LVU205
 443:..\..\..\BSP/bsp.c ****     pb_status = DEF_BIT_IS_CLR(sw_val, DEF_BIT_00);             /* Check if 'SW2' was pressed. Acti
 811              		.loc 1 443 15 is_stmt 0 view .LVU206
 812 0006 C307     		lsls	r3, r0, #31
 813 0008 01D4     		bmi	.L43
 814 000a 0120     		movs	r0, #1
 815              	.LVL91:
 816              	.L42:
 445:..\..\..\BSP/bsp.c ****     return (pb_status);
 817              		.loc 1 445 5 is_stmt 1 discriminator 4 view .LVU207
 446:..\..\..\BSP/bsp.c **** }
 818              		.loc 1 446 1 is_stmt 0 discriminator 4 view .LVU208
 819              		@ sp needed
ARM GAS  C:\Users\EDULU~1.DES\AppData\Local\Temp\ccpm8yUU.s 			page 33


 820 000c 10BD     		pop	{r4, pc}
 821              	.LVL92:
 822              	.L43:
 443:..\..\..\BSP/bsp.c ****     pb_status = DEF_BIT_IS_CLR(sw_val, DEF_BIT_00);             /* Check if 'SW2' was pressed. Acti
 823              		.loc 1 443 15 view .LVU209
 824 000e 0020     		movs	r0, #0
 825              	.LVL93:
 443:..\..\..\BSP/bsp.c ****     pb_status = DEF_BIT_IS_CLR(sw_val, DEF_BIT_00);             /* Check if 'SW2' was pressed. Acti
 826              		.loc 1 443 15 view .LVU210
 827 0010 FCE7     		b	.L42
 828              		.cfi_endproc
 829              	.LFE10:
 830              		.size	BSP_PB_StatusGet, .-BSP_PB_StatusGet
 831              		.section	.text.BSP_Accel_Init,"ax",%progbits
 832              		.align	1
 833              		.global	BSP_Accel_Init
 834              		.syntax unified
 835              		.code	16
 836              		.thumb_func
 837              		.fpu softvfp
 838              		.type	BSP_Accel_Init, %function
 839              	BSP_Accel_Init:
 840              	.LFB11:
 482:..\..\..\BSP/bsp.c **** {
 841              		.loc 1 482 1 is_stmt 1 view -0
 842              		.cfi_startproc
 843              		@ args = 0, pretend = 0, frame = 8
 844              		@ frame_needed = 0, uses_anonymous_args = 0
 845 0000 10B5     		push	{r4, lr}
 846              		.cfi_def_cfa_offset 8
 847              		.cfi_offset 4, -8
 848              		.cfi_offset 14, -4
 849 0002 82B0     		sub	sp, sp, #8
 850              		.cfi_def_cfa_offset 16
 483:..\..\..\BSP/bsp.c ****     CPU_BOOLEAN  accel_status;
 851              		.loc 1 483 5 view .LVU212
 484:..\..\..\BSP/bsp.c ****     CPU_INT08U   data_resp;
 852              		.loc 1 484 5 view .LVU213
 487:..\..\..\BSP/bsp.c ****     I2C_Start();                                                /* Enable and Start the I2C Block f
 853              		.loc 1 487 5 view .LVU214
 854 0004 FFF7FEFF 		bl	I2C_Start
 855              	.LVL94:
 488:..\..\..\BSP/bsp.c ****     Accel_ISR_StartEx(BSP_Accel_ISR_Handler);                   /* Enable, Start, and Set the ISR H
 856              		.loc 1 488 5 view .LVU215
 857 0008 2948     		ldr	r0, .L48
 858 000a FFF7FEFF 		bl	Accel_ISR_StartEx
 859              	.LVL95:
 490:..\..\..\BSP/bsp.c ****     BSP_OS_TimeDlyMs(50u);                                      /* Delay for 50ms to Allow the Acce
 860              		.loc 1 490 5 view .LVU216
 861 000e 3220     		movs	r0, #50
 862 0010 FFF7FEFF 		bl	BSP_OS_TimeDlyMs
 863              	.LVL96:
 492:..\..\..\BSP/bsp.c ****     accel_status = BSP_Accel_InitSelfTst();                     /* Run the Accel Self-Test to Ensur
 864              		.loc 1 492 5 view .LVU217
 492:..\..\..\BSP/bsp.c ****     accel_status = BSP_Accel_InitSelfTst();                     /* Run the Accel Self-Test to Ensur
 865              		.loc 1 492 20 is_stmt 0 view .LVU218
 866 0014 FFF7FEFF 		bl	BSP_Accel_InitSelfTst
ARM GAS  C:\Users\EDULU~1.DES\AppData\Local\Temp\ccpm8yUU.s 			page 34


 867              	.LVL97:
 493:..\..\..\BSP/bsp.c ****     if (accel_status != DEF_OK) {
 868              		.loc 1 493 5 is_stmt 1 view .LVU219
 493:..\..\..\BSP/bsp.c ****     if (accel_status != DEF_OK) {
 869              		.loc 1 493 8 is_stmt 0 view .LVU220
 870 0018 0128     		cmp	r0, #1
 871 001a 01D0     		beq	.L47
 872              	.LVL98:
 873              	.L44:
 558:..\..\..\BSP/bsp.c **** }
 874              		.loc 1 558 1 view .LVU221
 875 001c 02B0     		add	sp, sp, #8
 876              		@ sp needed
 877 001e 10BD     		pop	{r4, pc}
 878              	.LVL99:
 879              	.L47:
 497:..\..\..\BSP/bsp.c ****     data_resp = (BSP_ACC_KXTJ2_CTRL_REG1_RES      |             /* CTRL_REG1: High Current 12-Bit/1
 880              		.loc 1 497 5 is_stmt 1 view .LVU222
 497:..\..\..\BSP/bsp.c ****     data_resp = (BSP_ACC_KXTJ2_CTRL_REG1_RES      |             /* CTRL_REG1: High Current 12-Bit/1
 881              		.loc 1 497 15 is_stmt 0 view .LVU223
 882 0020 6B46     		mov	r3, sp
 883 0022 DC1D     		adds	r4, r3, #7
 884 0024 6223     		movs	r3, #98
 885 0026 2370     		strb	r3, [r4]
 502:..\..\..\BSP/bsp.c ****     BSP_Accel_RegRdWr( BSP_KXTJ2_DIR_WRITE,                     /* Write the Control Register #1 Se
 886              		.loc 1 502 5 is_stmt 1 view .LVU224
 887 0028 2200     		movs	r2, r4
 888 002a 1B21     		movs	r1, #27
 889 002c 0020     		movs	r0, #0
 890              	.LVL100:
 502:..\..\..\BSP/bsp.c ****     BSP_Accel_RegRdWr( BSP_KXTJ2_DIR_WRITE,                     /* Write the Control Register #1 Se
 891              		.loc 1 502 5 is_stmt 0 view .LVU225
 892 002e FFF7FEFF 		bl	BSP_Accel_RegRdWr
 893              	.LVL101:
 506:..\..\..\BSP/bsp.c ****     data_resp =  BSP_ACC_KXTJ2_CTRL_REG2_OWUFx_12_5Hz;          /* CTRL_REG2: Wake Up Fnct Output D
 894              		.loc 1 506 5 is_stmt 1 view .LVU226
 506:..\..\..\BSP/bsp.c ****     data_resp =  BSP_ACC_KXTJ2_CTRL_REG2_OWUFx_12_5Hz;          /* CTRL_REG2: Wake Up Fnct Output D
 895              		.loc 1 506 15 is_stmt 0 view .LVU227
 896 0032 0423     		movs	r3, #4
 897 0034 2370     		strb	r3, [r4]
 509:..\..\..\BSP/bsp.c ****     BSP_Accel_RegRdWr( BSP_KXTJ2_DIR_WRITE,                     /* Write the Control Register #2 Se
 898              		.loc 1 509 5 is_stmt 1 view .LVU228
 899 0036 2200     		movs	r2, r4
 900 0038 1D21     		movs	r1, #29
 901 003a 0020     		movs	r0, #0
 902 003c FFF7FEFF 		bl	BSP_Accel_RegRdWr
 903              	.LVL102:
 513:..\..\..\BSP/bsp.c ****     data_resp = (BSP_ACC_KXTJ2_INT_CTRL_REG1_IEN |              /* INT_CTRL1: ENABLE Interrupt Pin.
 904              		.loc 1 513 5 view .LVU229
 513:..\..\..\BSP/bsp.c ****     data_resp = (BSP_ACC_KXTJ2_INT_CTRL_REG1_IEN |              /* INT_CTRL1: ENABLE Interrupt Pin.
 905              		.loc 1 513 15 is_stmt 0 view .LVU230
 906 0040 3023     		movs	r3, #48
 907 0042 2370     		strb	r3, [r4]
 516:..\..\..\BSP/bsp.c ****     BSP_Accel_RegRdWr( BSP_KXTJ2_DIR_WRITE,                     /* Write the Interrupt Control Regi
 908              		.loc 1 516 5 is_stmt 1 view .LVU231
 909 0044 2200     		movs	r2, r4
 910 0046 1E21     		movs	r1, #30
ARM GAS  C:\Users\EDULU~1.DES\AppData\Local\Temp\ccpm8yUU.s 			page 35


 911 0048 0020     		movs	r0, #0
 912 004a FFF7FEFF 		bl	BSP_Accel_RegRdWr
 913              	.LVL103:
 520:..\..\..\BSP/bsp.c ****     data_resp = (BSP_ACC_KXTJ2_INT_CTRL_REG2_XNWUE |            /* INT_CTRL2: Enable Interrupt Moti
 914              		.loc 1 520 5 view .LVU232
 520:..\..\..\BSP/bsp.c ****     data_resp = (BSP_ACC_KXTJ2_INT_CTRL_REG2_XNWUE |            /* INT_CTRL2: Enable Interrupt Moti
 915              		.loc 1 520 15 is_stmt 0 view .LVU233
 916 004e 3F23     		movs	r3, #63
 917 0050 2370     		strb	r3, [r4]
 526:..\..\..\BSP/bsp.c ****     BSP_Accel_RegRdWr( BSP_KXTJ2_DIR_WRITE,                     /* Write the Interrupt Control Regi
 918              		.loc 1 526 5 is_stmt 1 view .LVU234
 919 0052 2200     		movs	r2, r4
 920 0054 1F21     		movs	r1, #31
 921 0056 0020     		movs	r0, #0
 922 0058 FFF7FEFF 		bl	BSP_Accel_RegRdWr
 923              	.LVL104:
 530:..\..\..\BSP/bsp.c ****     data_resp =  BSP_ACC_KXTJ2_DATA_CTRL_OSAx_50Hz;             /* DATA_CTRL_REG: Set Accel Output 
 924              		.loc 1 530 5 view .LVU235
 530:..\..\..\BSP/bsp.c ****     data_resp =  BSP_ACC_KXTJ2_DATA_CTRL_OSAx_50Hz;             /* DATA_CTRL_REG: Set Accel Output 
 925              		.loc 1 530 15 is_stmt 0 view .LVU236
 926 005c 0223     		movs	r3, #2
 927 005e 2370     		strb	r3, [r4]
 531:..\..\..\BSP/bsp.c ****     BSP_Accel_RegRdWr( BSP_KXTJ2_DIR_WRITE,                     /* Write the Data Control Register 
 928              		.loc 1 531 5 is_stmt 1 view .LVU237
 929 0060 2200     		movs	r2, r4
 930 0062 2121     		movs	r1, #33
 931 0064 0020     		movs	r0, #0
 932 0066 FFF7FEFF 		bl	BSP_Accel_RegRdWr
 933              	.LVL105:
 535:..\..\..\BSP/bsp.c ****     data_resp = BSP_ACCEL_WAKEUP_CNTS;                          /* Set the Wake Up Timer Counts. Se
 934              		.loc 1 535 5 view .LVU238
 535:..\..\..\BSP/bsp.c ****     data_resp = BSP_ACCEL_WAKEUP_CNTS;                          /* Set the Wake Up Timer Counts. Se
 935              		.loc 1 535 15 is_stmt 0 view .LVU239
 936 006a 3223     		movs	r3, #50
 937 006c 2370     		strb	r3, [r4]
 536:..\..\..\BSP/bsp.c ****     BSP_Accel_RegRdWr( BSP_KXTJ2_DIR_WRITE,                     /* Write the Wakeup Timer Register 
 938              		.loc 1 536 5 is_stmt 1 view .LVU240
 939 006e 2200     		movs	r2, r4
 940 0070 2921     		movs	r1, #41
 941 0072 0020     		movs	r0, #0
 942 0074 FFF7FEFF 		bl	BSP_Accel_RegRdWr
 943              	.LVL106:
 540:..\..\..\BSP/bsp.c ****     data_resp = BSP_ACCEL_WAKEUP_THRESH_CNTS;                   /* Set the Wake Up Threshold Counts
 944              		.loc 1 540 5 view .LVU241
 540:..\..\..\BSP/bsp.c ****     data_resp = BSP_ACCEL_WAKEUP_THRESH_CNTS;                   /* Set the Wake Up Threshold Counts
 945              		.loc 1 540 15 is_stmt 0 view .LVU242
 946 0078 0823     		movs	r3, #8
 947 007a 2370     		strb	r3, [r4]
 541:..\..\..\BSP/bsp.c ****     BSP_Accel_RegRdWr( BSP_KXTJ2_DIR_WRITE,                     /* Write the Wakeup Threshold Regis
 948              		.loc 1 541 5 is_stmt 1 view .LVU243
 949 007c 2200     		movs	r2, r4
 950 007e 6A21     		movs	r1, #106
 951 0080 0020     		movs	r0, #0
 952 0082 FFF7FEFF 		bl	BSP_Accel_RegRdWr
 953              	.LVL107:
 545:..\..\..\BSP/bsp.c ****     BSP_Accel_RegRdWr( BSP_KXTJ2_DIR_READ,                      /* Get Control Register #1 Current 
 954              		.loc 1 545 5 view .LVU244
ARM GAS  C:\Users\EDULU~1.DES\AppData\Local\Temp\ccpm8yUU.s 			page 36


 955 0086 2200     		movs	r2, r4
 956 0088 1B21     		movs	r1, #27
 957 008a 0120     		movs	r0, #1
 958 008c FFF7FEFF 		bl	BSP_Accel_RegRdWr
 959              	.LVL108:
 549:..\..\..\BSP/bsp.c ****     DEF_BIT_SET(data_resp, BSP_ACC_KXTJ2_CTRL_REG1_PC1);        /* Clear PC1 Bit to set KXTJ2 Modul
 960              		.loc 1 549 5 view .LVU245
 961 0090 2278     		ldrb	r2, [r4]
 962 0092 8023     		movs	r3, #128
 963 0094 5B42     		rsbs	r3, r3, #0
 964 0096 1343     		orrs	r3, r2
 965 0098 2370     		strb	r3, [r4]
 551:..\..\..\BSP/bsp.c ****     BSP_Accel_RegRdWr( BSP_KXTJ2_DIR_WRITE,                     /* Write the Updated Control Regist
 966              		.loc 1 551 5 view .LVU246
 967 009a 2200     		movs	r2, r4
 968 009c 1B21     		movs	r1, #27
 969 009e 0020     		movs	r0, #0
 970 00a0 FFF7FEFF 		bl	BSP_Accel_RegRdWr
 971              	.LVL109:
 555:..\..\..\BSP/bsp.c ****     BSP_Accel_RegRdWr( BSP_KXTJ2_DIR_READ,                      /* Read INT_REL to Clear any Int Sr
 972              		.loc 1 555 5 view .LVU247
 973 00a4 2200     		movs	r2, r4
 974 00a6 1A21     		movs	r1, #26
 975 00a8 0120     		movs	r0, #1
 976 00aa FFF7FEFF 		bl	BSP_Accel_RegRdWr
 977              	.LVL110:
 978 00ae B5E7     		b	.L44
 979              	.L49:
 980              		.align	2
 981              	.L48:
 982 00b0 00000000 		.word	BSP_Accel_ISR_Handler
 983              		.cfi_endproc
 984              	.LFE11:
 985              		.size	BSP_Accel_Init, .-BSP_Accel_Init
 986              		.section	.text.BSP_Accel_Rd,"ax",%progbits
 987              		.align	1
 988              		.global	BSP_Accel_Rd
 989              		.syntax unified
 990              		.code	16
 991              		.thumb_func
 992              		.fpu softvfp
 993              		.type	BSP_Accel_Rd, %function
 994              	BSP_Accel_Rd:
 995              	.LVL111:
 996              	.LFB14:
 726:..\..\..\BSP/bsp.c **** {
 997              		.loc 1 726 1 view -0
 998              		.cfi_startproc
 999              		@ args = 0, pretend = 0, frame = 8
 1000              		@ frame_needed = 0, uses_anonymous_args = 0
 726:..\..\..\BSP/bsp.c **** {
 1001              		.loc 1 726 1 is_stmt 0 view .LVU249
 1002 0000 F0B5     		push	{r4, r5, r6, r7, lr}
 1003              		.cfi_def_cfa_offset 20
 1004              		.cfi_offset 4, -20
 1005              		.cfi_offset 5, -16
 1006              		.cfi_offset 6, -12
ARM GAS  C:\Users\EDULU~1.DES\AppData\Local\Temp\ccpm8yUU.s 			page 37


 1007              		.cfi_offset 7, -8
 1008              		.cfi_offset 14, -4
 1009 0002 C646     		mov	lr, r8
 1010 0004 00B5     		push	{lr}
 1011              		.cfi_def_cfa_offset 24
 1012              		.cfi_offset 8, -24
 1013 0006 82B0     		sub	sp, sp, #8
 1014              		.cfi_def_cfa_offset 32
 1015 0008 8046     		mov	r8, r0
 1016 000a 0F00     		movs	r7, r1
 1017 000c 1600     		movs	r6, r2
 727:..\..\..\BSP/bsp.c ****     CPU_INT16S  axis_val;
 1018              		.loc 1 727 5 is_stmt 1 view .LVU250
 728:..\..\..\BSP/bsp.c ****     CPU_INT08U  data_resp;
 1019              		.loc 1 728 5 view .LVU251
 731:..\..\..\BSP/bsp.c ****     BSP_Accel_RegRdWr( BSP_KXTJ2_DIR_READ,                      /* Read the X-Axis HIGH Register fo
 1020              		.loc 1 731 5 view .LVU252
 1021 000e 6B46     		mov	r3, sp
 1022 0010 DD1D     		adds	r5, r3, #7
 1023 0012 2A00     		movs	r2, r5
 1024              	.LVL112:
 731:..\..\..\BSP/bsp.c ****     BSP_Accel_RegRdWr( BSP_KXTJ2_DIR_READ,                      /* Read the X-Axis HIGH Register fo
 1025              		.loc 1 731 5 is_stmt 0 view .LVU253
 1026 0014 0721     		movs	r1, #7
 1027              	.LVL113:
 731:..\..\..\BSP/bsp.c ****     BSP_Accel_RegRdWr( BSP_KXTJ2_DIR_READ,                      /* Read the X-Axis HIGH Register fo
 1028              		.loc 1 731 5 view .LVU254
 1029 0016 0120     		movs	r0, #1
 1030              	.LVL114:
 731:..\..\..\BSP/bsp.c ****     BSP_Accel_RegRdWr( BSP_KXTJ2_DIR_READ,                      /* Read the X-Axis HIGH Register fo
 1031              		.loc 1 731 5 view .LVU255
 1032 0018 FFF7FEFF 		bl	BSP_Accel_RegRdWr
 1033              	.LVL115:
 735:..\..\..\BSP/bsp.c ****     axis_val  = (data_resp << DEF_OCTET_NBR_BITS);              /* Place X-Axis TOP Half Value onto
 1034              		.loc 1 735 5 is_stmt 1 view .LVU256
 735:..\..\..\BSP/bsp.c ****     axis_val  = (data_resp << DEF_OCTET_NBR_BITS);              /* Place X-Axis TOP Half Value onto
 1035              		.loc 1 735 28 is_stmt 0 view .LVU257
 1036 001c 2B78     		ldrb	r3, [r5]
 1037 001e 1B02     		lsls	r3, r3, #8
 735:..\..\..\BSP/bsp.c ****     axis_val  = (data_resp << DEF_OCTET_NBR_BITS);              /* Place X-Axis TOP Half Value onto
 1038              		.loc 1 735 15 view .LVU258
 1039 0020 1CB2     		sxth	r4, r3
 1040              	.LVL116:
 737:..\..\..\BSP/bsp.c ****     BSP_Accel_RegRdWr( BSP_KXTJ2_DIR_READ,                      /* Read the X-Axis LOW  Register fo
 1041              		.loc 1 737 5 is_stmt 1 view .LVU259
 1042 0022 2A00     		movs	r2, r5
 1043 0024 0621     		movs	r1, #6
 1044 0026 0120     		movs	r0, #1
 1045 0028 FFF7FEFF 		bl	BSP_Accel_RegRdWr
 1046              	.LVL117:
 741:..\..\..\BSP/bsp.c ****     axis_val |=  data_resp;                                     /* Add the X-Axis BOTTOM Half Value
 1047              		.loc 1 741 5 view .LVU260
 741:..\..\..\BSP/bsp.c ****     axis_val |=  data_resp;                                     /* Add the X-Axis BOTTOM Half Value
 1048              		.loc 1 741 14 is_stmt 0 view .LVU261
 1049 002c 2B78     		ldrb	r3, [r5]
 1050 002e 2343     		orrs	r3, r4
 1051              	.LVL118:
ARM GAS  C:\Users\EDULU~1.DES\AppData\Local\Temp\ccpm8yUU.s 			page 38


 743:..\..\..\BSP/bsp.c ****     if (DEF_BIT_IS_SET(axis_val, DEF_BIT_15) == DEF_YES) {      /* Adjust X-Axis Value if Over Limi
 1052              		.loc 1 743 5 is_stmt 1 view .LVU262
 743:..\..\..\BSP/bsp.c ****     if (DEF_BIT_IS_SET(axis_val, DEF_BIT_15) == DEF_YES) {      /* Adjust X-Axis Value if Over Limi
 1053              		.loc 1 743 8 is_stmt 0 view .LVU263
 1054 0030 34D5     		bpl	.L51
 744:..\..\..\BSP/bsp.c ****         axis_val >>= DEF_NIBBLE_NBR_BITS;                       /* Shift Back a Nibble, Since Accel
 1055              		.loc 1 744 9 is_stmt 1 view .LVU264
 744:..\..\..\BSP/bsp.c ****         axis_val >>= DEF_NIBBLE_NBR_BITS;                       /* Shift Back a Nibble, Since Accel
 1056              		.loc 1 744 18 is_stmt 0 view .LVU265
 1057 0032 1B11     		asrs	r3, r3, #4
 1058              	.LVL119:
 745:..\..\..\BSP/bsp.c ****         axis_val  |= BSP_ACCEL_INVALID_MSK;                     /* Invalidate Upper Nibble on X-Axi
 1059              		.loc 1 745 9 is_stmt 1 view .LVU266
 745:..\..\..\BSP/bsp.c ****         axis_val  |= BSP_ACCEL_INVALID_MSK;                     /* Invalidate Upper Nibble on X-Axi
 1060              		.loc 1 745 19 is_stmt 0 view .LVU267
 1061 0034 1C4A     		ldr	r2, .L57
 1062 0036 1343     		orrs	r3, r2
 1063              	.LVL120:
 1064              	.L52:
 750:..\..\..\BSP/bsp.c ****    *x_axis = axis_val;                                          /* Assign X-Axis Value to Return.  
 1065              		.loc 1 750 4 is_stmt 1 view .LVU268
 750:..\..\..\BSP/bsp.c ****    *x_axis = axis_val;                                          /* Assign X-Axis Value to Return.  
 1066              		.loc 1 750 12 is_stmt 0 view .LVU269
 1067 0038 4246     		mov	r2, r8
 1068 003a 1380     		strh	r3, [r2]
 753:..\..\..\BSP/bsp.c ****     BSP_Accel_RegRdWr( BSP_KXTJ2_DIR_READ,                      /* Read the Y-Axis HIGH Register fo
 1069              		.loc 1 753 5 is_stmt 1 view .LVU270
 1070 003c 6B46     		mov	r3, sp
 1071              	.LVL121:
 753:..\..\..\BSP/bsp.c ****     BSP_Accel_RegRdWr( BSP_KXTJ2_DIR_READ,                      /* Read the Y-Axis HIGH Register fo
 1072              		.loc 1 753 5 is_stmt 0 view .LVU271
 1073 003e DD1D     		adds	r5, r3, #7
 1074 0040 2A00     		movs	r2, r5
 1075              	.LVL122:
 753:..\..\..\BSP/bsp.c ****     BSP_Accel_RegRdWr( BSP_KXTJ2_DIR_READ,                      /* Read the Y-Axis HIGH Register fo
 1076              		.loc 1 753 5 view .LVU272
 1077 0042 0921     		movs	r1, #9
 1078 0044 0120     		movs	r0, #1
 1079 0046 FFF7FEFF 		bl	BSP_Accel_RegRdWr
 1080              	.LVL123:
 757:..\..\..\BSP/bsp.c ****     axis_val  = (data_resp << DEF_OCTET_NBR_BITS);              /* Place Y-Axis TOP Half Value onto
 1081              		.loc 1 757 5 is_stmt 1 view .LVU273
 757:..\..\..\BSP/bsp.c ****     axis_val  = (data_resp << DEF_OCTET_NBR_BITS);              /* Place Y-Axis TOP Half Value onto
 1082              		.loc 1 757 28 is_stmt 0 view .LVU274
 1083 004a 2B78     		ldrb	r3, [r5]
 1084 004c 1B02     		lsls	r3, r3, #8
 757:..\..\..\BSP/bsp.c ****     axis_val  = (data_resp << DEF_OCTET_NBR_BITS);              /* Place Y-Axis TOP Half Value onto
 1085              		.loc 1 757 15 view .LVU275
 1086 004e 1CB2     		sxth	r4, r3
 1087              	.LVL124:
 759:..\..\..\BSP/bsp.c ****     BSP_Accel_RegRdWr( BSP_KXTJ2_DIR_READ,                      /* Read the Y-Axis LOW  Register fo
 1088              		.loc 1 759 5 is_stmt 1 view .LVU276
 1089 0050 2A00     		movs	r2, r5
 1090 0052 0821     		movs	r1, #8
 1091 0054 0120     		movs	r0, #1
 1092 0056 FFF7FEFF 		bl	BSP_Accel_RegRdWr
 1093              	.LVL125:
ARM GAS  C:\Users\EDULU~1.DES\AppData\Local\Temp\ccpm8yUU.s 			page 39


 763:..\..\..\BSP/bsp.c ****     axis_val |=  data_resp;                                     /* Add the Y-Axis BOTTOM Half Value
 1094              		.loc 1 763 5 view .LVU277
 763:..\..\..\BSP/bsp.c ****     axis_val |=  data_resp;                                     /* Add the Y-Axis BOTTOM Half Value
 1095              		.loc 1 763 14 is_stmt 0 view .LVU278
 1096 005a 2B78     		ldrb	r3, [r5]
 1097 005c 2343     		orrs	r3, r4
 1098              	.LVL126:
 765:..\..\..\BSP/bsp.c ****     if (DEF_BIT_IS_SET(axis_val, DEF_BIT_15) == DEF_YES) {      /* Adjust Y-Axis Value if Over Limi
 1099              		.loc 1 765 5 is_stmt 1 view .LVU279
 765:..\..\..\BSP/bsp.c ****     if (DEF_BIT_IS_SET(axis_val, DEF_BIT_15) == DEF_YES) {      /* Adjust Y-Axis Value if Over Limi
 1100              		.loc 1 765 8 is_stmt 0 view .LVU280
 1101 005e 1FD5     		bpl	.L53
 766:..\..\..\BSP/bsp.c ****         axis_val >>= DEF_NIBBLE_NBR_BITS;                       /* Shift Back a Nibble, Since Accel
 1102              		.loc 1 766 9 is_stmt 1 view .LVU281
 766:..\..\..\BSP/bsp.c ****         axis_val >>= DEF_NIBBLE_NBR_BITS;                       /* Shift Back a Nibble, Since Accel
 1103              		.loc 1 766 18 is_stmt 0 view .LVU282
 1104 0060 1B11     		asrs	r3, r3, #4
 1105              	.LVL127:
 767:..\..\..\BSP/bsp.c ****         axis_val  |= BSP_ACCEL_INVALID_MSK;                     /* Invalidate Upper Nibble on Y-Axi
 1106              		.loc 1 767 9 is_stmt 1 view .LVU283
 767:..\..\..\BSP/bsp.c ****         axis_val  |= BSP_ACCEL_INVALID_MSK;                     /* Invalidate Upper Nibble on Y-Axi
 1107              		.loc 1 767 19 is_stmt 0 view .LVU284
 1108 0062 114A     		ldr	r2, .L57
 1109 0064 1343     		orrs	r3, r2
 1110              	.LVL128:
 1111              	.L54:
 772:..\..\..\BSP/bsp.c ****    *y_axis = axis_val;                                          /* Assign Y-Axis Value to Return.  
 1112              		.loc 1 772 4 is_stmt 1 view .LVU285
 772:..\..\..\BSP/bsp.c ****    *y_axis = axis_val;                                          /* Assign Y-Axis Value to Return.  
 1113              		.loc 1 772 12 is_stmt 0 view .LVU286
 1114 0066 3B80     		strh	r3, [r7]
 775:..\..\..\BSP/bsp.c ****     BSP_Accel_RegRdWr( BSP_KXTJ2_DIR_READ,                      /* Read the Z-Axis HIGH Register fo
 1115              		.loc 1 775 5 is_stmt 1 view .LVU287
 1116 0068 6B46     		mov	r3, sp
 1117              	.LVL129:
 775:..\..\..\BSP/bsp.c ****     BSP_Accel_RegRdWr( BSP_KXTJ2_DIR_READ,                      /* Read the Z-Axis HIGH Register fo
 1118              		.loc 1 775 5 is_stmt 0 view .LVU288
 1119 006a DD1D     		adds	r5, r3, #7
 1120 006c 2A00     		movs	r2, r5
 1121 006e 0B21     		movs	r1, #11
 1122 0070 0120     		movs	r0, #1
 1123 0072 FFF7FEFF 		bl	BSP_Accel_RegRdWr
 1124              	.LVL130:
 779:..\..\..\BSP/bsp.c ****     axis_val  = (data_resp << DEF_OCTET_NBR_BITS);              /* Place Z-Axis TOP Half Value onto
 1125              		.loc 1 779 5 is_stmt 1 view .LVU289
 779:..\..\..\BSP/bsp.c ****     axis_val  = (data_resp << DEF_OCTET_NBR_BITS);              /* Place Z-Axis TOP Half Value onto
 1126              		.loc 1 779 28 is_stmt 0 view .LVU290
 1127 0076 2B78     		ldrb	r3, [r5]
 1128 0078 1B02     		lsls	r3, r3, #8
 779:..\..\..\BSP/bsp.c ****     axis_val  = (data_resp << DEF_OCTET_NBR_BITS);              /* Place Z-Axis TOP Half Value onto
 1129              		.loc 1 779 15 view .LVU291
 1130 007a 1CB2     		sxth	r4, r3
 1131              	.LVL131:
 781:..\..\..\BSP/bsp.c ****     BSP_Accel_RegRdWr( BSP_KXTJ2_DIR_READ,                      /* Read the Z-Axis LOW  Register fo
 1132              		.loc 1 781 5 is_stmt 1 view .LVU292
 1133 007c 2A00     		movs	r2, r5
 1134 007e 0A21     		movs	r1, #10
ARM GAS  C:\Users\EDULU~1.DES\AppData\Local\Temp\ccpm8yUU.s 			page 40


 1135 0080 0120     		movs	r0, #1
 1136 0082 FFF7FEFF 		bl	BSP_Accel_RegRdWr
 1137              	.LVL132:
 785:..\..\..\BSP/bsp.c ****     axis_val |=  data_resp;                                     /* Add the Z-Axis BOTTOM Half Value
 1138              		.loc 1 785 5 view .LVU293
 785:..\..\..\BSP/bsp.c ****     axis_val |=  data_resp;                                     /* Add the Z-Axis BOTTOM Half Value
 1139              		.loc 1 785 14 is_stmt 0 view .LVU294
 1140 0086 2B78     		ldrb	r3, [r5]
 1141 0088 2343     		orrs	r3, r4
 1142              	.LVL133:
 787:..\..\..\BSP/bsp.c ****     if (DEF_BIT_IS_SET(axis_val, DEF_BIT_15) == DEF_YES) {      /* Adjust Z-Axis Value if Over Limi
 1143              		.loc 1 787 5 is_stmt 1 view .LVU295
 787:..\..\..\BSP/bsp.c ****     if (DEF_BIT_IS_SET(axis_val, DEF_BIT_15) == DEF_YES) {      /* Adjust Z-Axis Value if Over Limi
 1144              		.loc 1 787 8 is_stmt 0 view .LVU296
 1145 008a 0BD5     		bpl	.L55
 788:..\..\..\BSP/bsp.c ****         axis_val >>= DEF_NIBBLE_NBR_BITS;                       /* Shift Back a Nibble, Since Accel
 1146              		.loc 1 788 9 is_stmt 1 view .LVU297
 788:..\..\..\BSP/bsp.c ****         axis_val >>= DEF_NIBBLE_NBR_BITS;                       /* Shift Back a Nibble, Since Accel
 1147              		.loc 1 788 18 is_stmt 0 view .LVU298
 1148 008c 1B11     		asrs	r3, r3, #4
 1149              	.LVL134:
 789:..\..\..\BSP/bsp.c ****         axis_val  |= BSP_ACCEL_INVALID_MSK;                     /* Invalidate Upper Nibble on Z-Axi
 1150              		.loc 1 789 9 is_stmt 1 view .LVU299
 789:..\..\..\BSP/bsp.c ****         axis_val  |= BSP_ACCEL_INVALID_MSK;                     /* Invalidate Upper Nibble on Z-Axi
 1151              		.loc 1 789 19 is_stmt 0 view .LVU300
 1152 008e 064A     		ldr	r2, .L57
 1153 0090 1343     		orrs	r3, r2
 1154              	.LVL135:
 1155              	.L56:
 794:..\..\..\BSP/bsp.c ****    *z_axis = axis_val;                                          /* Assign Z-Axis Value to Return.  
 1156              		.loc 1 794 4 is_stmt 1 view .LVU301
 794:..\..\..\BSP/bsp.c ****    *z_axis = axis_val;                                          /* Assign Z-Axis Value to Return.  
 1157              		.loc 1 794 12 is_stmt 0 view .LVU302
 1158 0092 3380     		strh	r3, [r6]
 795:..\..\..\BSP/bsp.c **** }
 1159              		.loc 1 795 1 view .LVU303
 1160 0094 02B0     		add	sp, sp, #8
 1161              		@ sp needed
 1162              	.LVL136:
 1163              	.LVL137:
 1164              	.LVL138:
 795:..\..\..\BSP/bsp.c **** }
 1165              		.loc 1 795 1 view .LVU304
 1166 0096 04BC     		pop	{r2}
 1167 0098 9046     		mov	r8, r2
 1168 009a F0BD     		pop	{r4, r5, r6, r7, pc}
 1169              	.LVL139:
 1170              	.L51:
 747:..\..\..\BSP/bsp.c ****         axis_val >>= DEF_NIBBLE_NBR_BITS;                       /* Do Not Invalidate, just Shift Si
 1171              		.loc 1 747 9 is_stmt 1 view .LVU305
 747:..\..\..\BSP/bsp.c ****         axis_val >>= DEF_NIBBLE_NBR_BITS;                       /* Do Not Invalidate, just Shift Si
 1172              		.loc 1 747 18 is_stmt 0 view .LVU306
 1173 009c 1B11     		asrs	r3, r3, #4
 1174              	.LVL140:
 747:..\..\..\BSP/bsp.c ****         axis_val >>= DEF_NIBBLE_NBR_BITS;                       /* Do Not Invalidate, just Shift Si
 1175              		.loc 1 747 18 view .LVU307
 1176 009e CBE7     		b	.L52
ARM GAS  C:\Users\EDULU~1.DES\AppData\Local\Temp\ccpm8yUU.s 			page 41


 1177              	.L53:
 769:..\..\..\BSP/bsp.c ****         axis_val >>= DEF_NIBBLE_NBR_BITS;                       /* Do Not Invalidate, just Shift Si
 1178              		.loc 1 769 9 is_stmt 1 view .LVU308
 769:..\..\..\BSP/bsp.c ****         axis_val >>= DEF_NIBBLE_NBR_BITS;                       /* Do Not Invalidate, just Shift Si
 1179              		.loc 1 769 18 is_stmt 0 view .LVU309
 1180 00a0 1B11     		asrs	r3, r3, #4
 1181              	.LVL141:
 769:..\..\..\BSP/bsp.c ****         axis_val >>= DEF_NIBBLE_NBR_BITS;                       /* Do Not Invalidate, just Shift Si
 1182              		.loc 1 769 18 view .LVU310
 1183 00a2 E0E7     		b	.L54
 1184              	.L55:
 791:..\..\..\BSP/bsp.c ****         axis_val >>= DEF_NIBBLE_NBR_BITS;                       /* Do Not Invalidate, just Shift Si
 1185              		.loc 1 791 9 is_stmt 1 view .LVU311
 791:..\..\..\BSP/bsp.c ****         axis_val >>= DEF_NIBBLE_NBR_BITS;                       /* Do Not Invalidate, just Shift Si
 1186              		.loc 1 791 18 is_stmt 0 view .LVU312
 1187 00a4 1B11     		asrs	r3, r3, #4
 1188              	.LVL142:
 791:..\..\..\BSP/bsp.c ****         axis_val >>= DEF_NIBBLE_NBR_BITS;                       /* Do Not Invalidate, just Shift Si
 1189              		.loc 1 791 18 view .LVU313
 1190 00a6 F4E7     		b	.L56
 1191              	.L58:
 1192              		.align	2
 1193              	.L57:
 1194 00a8 00F0FFFF 		.word	-4096
 1195              		.cfi_endproc
 1196              	.LFE14:
 1197              		.size	BSP_Accel_Rd, .-BSP_Accel_Rd
 1198              		.global	RGB_PrevVal
 1199              		.data
 1200              		.align	2
 1201              		.set	.LANCHOR0,. + 0
 1202              		.type	RGB_PrevVal, %object
 1203              		.size	RGB_PrevVal, 4
 1204              	RGB_PrevVal:
 1205 0000 000000FF 		.word	-16777216
 1206              		.text
 1207              	.Letext0:
 1208              		.file 2 "c:\\program files (x86)\\gnu tools arm embedded\\8 2018-q4-major\\arm-none-eabi\\include\
 1209              		.file 3 "c:\\program files (x86)\\gnu tools arm embedded\\8 2018-q4-major\\arm-none-eabi\\include\
 1210              		.file 4 "c:\\program files (x86)\\gnu tools arm embedded\\8 2018-q4-major\\lib\\gcc\\arm-none-eabi
 1211              		.file 5 "c:\\program files (x86)\\gnu tools arm embedded\\8 2018-q4-major\\arm-none-eabi\\include\
 1212              		.file 6 "..\\..\\..\\..\\..\\..\\Software\\uC-CPU\\ARM-Cortex-M0\\GNU/cpu.h"
 1213              		.file 7 "..\\..\\..\\..\\..\\..\\Software\\uC-CPU/cpu_core.h"
 1214              		.file 8 "..\\..\\..\\..\\..\\..\\Software\\uCOS-III\\Source/os_type.h"
 1215              		.file 9 "..\\..\\..\\..\\..\\..\\Software\\uCOS-III\\Ports\\ARM-Cortex-M0\\Generic\\GNU/os_cpu.h"
 1216              		.file 10 "..\\..\\..\\..\\..\\..\\Software\\uCOS-III\\Source/os.h"
 1217              		.file 11 "Generated_Source\\PSoC4/cytypes.h"
 1218              		.file 12 "c:\\program files (x86)\\gnu tools arm embedded\\8 2018-q4-major\\arm-none-eabi\\include
 1219              		.file 13 "Generated_Source\\PSoC4/CyLib.h"
 1220              		.file 14 "Generated_Source\\PSoC4/PWM_Red.h"
 1221              		.file 15 "Generated_Source\\PSoC4/PWM_Green.h"
 1222              		.file 16 "Generated_Source\\PSoC4/PWM_Blue.h"
 1223              		.file 17 "Generated_Source\\PSoC4/Temp_Sensor.h"
 1224              		.file 18 "Generated_Source\\PSoC4/ADC.h"
 1225              		.file 19 "Generated_Source\\PSoC4/Opamp.h"
 1226              		.file 20 "Generated_Source\\PSoC4/I2C.h"
 1227              		.file 21 "..\\..\\..\\BSP\\bsp.h"
ARM GAS  C:\Users\EDULU~1.DES\AppData\Local\Temp\ccpm8yUU.s 			page 42


 1228              		.file 22 "Generated_Source\\PSoC4/Accel_Pin.h"
 1229              		.file 23 "Generated_Source\\PSoC4/I2C_I2C.h"
 1230              		.file 24 "Generated_Source\\PSoC4/Accel_ISR.h"
 1231              		.file 25 "..\\..\\..\\BSP\\OS\\uCOS-III/bsp_os.h"
 1232              		.file 26 "Generated_Source\\PSoC4/SW2.h"