ARM GAS  C:\Users\EDULU~1.DES\AppData\Local\Temp\ccJisAUw.s 			page 1


   1              		.cpu cortex-m0
   2              		.eabi_attribute 20, 1
   3              		.eabi_attribute 21, 1
   4              		.eabi_attribute 23, 3
   5              		.eabi_attribute 24, 1
   6              		.eabi_attribute 25, 1
   7              		.eabi_attribute 26, 1
   8              		.eabi_attribute 30, 1
   9              		.eabi_attribute 34, 0
  10              		.eabi_attribute 18, 4
  11              		.file	"bsp_os.c"
  12              		.text
  13              	.Ltext0:
  14              		.cfi_sections	.debug_frame
  15              		.section	.text.BSP_OS_SemCreate,"ax",%progbits
  16              		.align	1
  17              		.global	BSP_OS_SemCreate
  18              		.arch armv6s-m
  19              		.syntax unified
  20              		.code	16
  21              		.thumb_func
  22              		.fpu softvfp
  23              		.type	BSP_OS_SemCreate, %function
  24              	BSP_OS_SemCreate:
  25              	.LVL0:
  26              	.LFB3:
  27              		.file 1 "..\\..\\..\\BSP\\OS\\uCOS-III\\bsp_os.c"
   1:..\..\..\BSP\OS\uCOS-III/bsp_os.c **** /*
   2:..\..\..\BSP\OS\uCOS-III/bsp_os.c **** ***************************************************************************************************
   3:..\..\..\BSP\OS\uCOS-III/bsp_os.c **** *                                     MICRIUM BOARD SUPPORT SUPPORT
   4:..\..\..\BSP\OS\uCOS-III/bsp_os.c **** *
   5:..\..\..\BSP\OS\uCOS-III/bsp_os.c **** *                          (c) Copyright 2003-2013; Micrium, Inc.; Weston, FL
   6:..\..\..\BSP\OS\uCOS-III/bsp_os.c **** *
   7:..\..\..\BSP\OS\uCOS-III/bsp_os.c **** *               All rights reserved.  Protected by international copyright laws.
   8:..\..\..\BSP\OS\uCOS-III/bsp_os.c **** *               Knowledge of the source code may NOT be used to develop a similar product.
   9:..\..\..\BSP\OS\uCOS-III/bsp_os.c **** *               Please help us continue to provide the Embedded community with the finest
  10:..\..\..\BSP\OS\uCOS-III/bsp_os.c **** *               software available.  Your honesty is greatly appreciated.
  11:..\..\..\BSP\OS\uCOS-III/bsp_os.c **** ***************************************************************************************************
  12:..\..\..\BSP\OS\uCOS-III/bsp_os.c **** */
  13:..\..\..\BSP\OS\uCOS-III/bsp_os.c **** 
  14:..\..\..\BSP\OS\uCOS-III/bsp_os.c **** /*
  15:..\..\..\BSP\OS\uCOS-III/bsp_os.c **** ***************************************************************************************************
  16:..\..\..\BSP\OS\uCOS-III/bsp_os.c **** *
  17:..\..\..\BSP\OS\uCOS-III/bsp_os.c **** *                                       BOARD SUPPORT PACKAGE
  18:..\..\..\BSP\OS\uCOS-III/bsp_os.c **** *                                          uCOS-III LAYER
  19:..\..\..\BSP\OS\uCOS-III/bsp_os.c **** *
  20:..\..\..\BSP\OS\uCOS-III/bsp_os.c **** * Filename      : bsp_os.c
  21:..\..\..\BSP\OS\uCOS-III/bsp_os.c **** * Version       : V1.00
  22:..\..\..\BSP\OS\uCOS-III/bsp_os.c **** * Programmer(s) : DC
  23:..\..\..\BSP\OS\uCOS-III/bsp_os.c **** ***************************************************************************************************
  24:..\..\..\BSP\OS\uCOS-III/bsp_os.c **** */
  25:..\..\..\BSP\OS\uCOS-III/bsp_os.c **** 
  26:..\..\..\BSP\OS\uCOS-III/bsp_os.c **** 
  27:..\..\..\BSP\OS\uCOS-III/bsp_os.c **** /*
  28:..\..\..\BSP\OS\uCOS-III/bsp_os.c **** ***************************************************************************************************
  29:..\..\..\BSP\OS\uCOS-III/bsp_os.c **** *                                             INCLUDE FILES
  30:..\..\..\BSP\OS\uCOS-III/bsp_os.c **** ***************************************************************************************************
ARM GAS  C:\Users\EDULU~1.DES\AppData\Local\Temp\ccJisAUw.s 			page 2


  31:..\..\..\BSP\OS\uCOS-III/bsp_os.c **** */
  32:..\..\..\BSP\OS\uCOS-III/bsp_os.c **** 
  33:..\..\..\BSP\OS\uCOS-III/bsp_os.c **** #define  BSP_OS_MODULE
  34:..\..\..\BSP\OS\uCOS-III/bsp_os.c **** #include <bsp.h>
  35:..\..\..\BSP\OS\uCOS-III/bsp_os.c **** #include <bsp_os.h>
  36:..\..\..\BSP\OS\uCOS-III/bsp_os.c **** 
  37:..\..\..\BSP\OS\uCOS-III/bsp_os.c **** 
  38:..\..\..\BSP\OS\uCOS-III/bsp_os.c **** /*
  39:..\..\..\BSP\OS\uCOS-III/bsp_os.c **** ***************************************************************************************************
  40:..\..\..\BSP\OS\uCOS-III/bsp_os.c **** *                                            LOCAL DEFINES
  41:..\..\..\BSP\OS\uCOS-III/bsp_os.c **** ***************************************************************************************************
  42:..\..\..\BSP\OS\uCOS-III/bsp_os.c **** */
  43:..\..\..\BSP\OS\uCOS-III/bsp_os.c **** 
  44:..\..\..\BSP\OS\uCOS-III/bsp_os.c **** 
  45:..\..\..\BSP\OS\uCOS-III/bsp_os.c **** /*
  46:..\..\..\BSP\OS\uCOS-III/bsp_os.c **** ***************************************************************************************************
  47:..\..\..\BSP\OS\uCOS-III/bsp_os.c **** *                                           LOCAL CONSTANTS
  48:..\..\..\BSP\OS\uCOS-III/bsp_os.c **** ***************************************************************************************************
  49:..\..\..\BSP\OS\uCOS-III/bsp_os.c **** */
  50:..\..\..\BSP\OS\uCOS-III/bsp_os.c **** 
  51:..\..\..\BSP\OS\uCOS-III/bsp_os.c **** 
  52:..\..\..\BSP\OS\uCOS-III/bsp_os.c **** /*
  53:..\..\..\BSP\OS\uCOS-III/bsp_os.c **** ***************************************************************************************************
  54:..\..\..\BSP\OS\uCOS-III/bsp_os.c **** *                                          LOCAL DATA TYPES
  55:..\..\..\BSP\OS\uCOS-III/bsp_os.c **** ***************************************************************************************************
  56:..\..\..\BSP\OS\uCOS-III/bsp_os.c **** */
  57:..\..\..\BSP\OS\uCOS-III/bsp_os.c **** 
  58:..\..\..\BSP\OS\uCOS-III/bsp_os.c **** 
  59:..\..\..\BSP\OS\uCOS-III/bsp_os.c **** /*
  60:..\..\..\BSP\OS\uCOS-III/bsp_os.c **** ***************************************************************************************************
  61:..\..\..\BSP\OS\uCOS-III/bsp_os.c **** *                                            LOCAL TABLES
  62:..\..\..\BSP\OS\uCOS-III/bsp_os.c **** ***************************************************************************************************
  63:..\..\..\BSP\OS\uCOS-III/bsp_os.c **** */
  64:..\..\..\BSP\OS\uCOS-III/bsp_os.c **** 
  65:..\..\..\BSP\OS\uCOS-III/bsp_os.c **** 
  66:..\..\..\BSP\OS\uCOS-III/bsp_os.c **** /*
  67:..\..\..\BSP\OS\uCOS-III/bsp_os.c **** ***************************************************************************************************
  68:..\..\..\BSP\OS\uCOS-III/bsp_os.c **** *                                       LOCAL GLOBAL VARIABLES
  69:..\..\..\BSP\OS\uCOS-III/bsp_os.c **** ***************************************************************************************************
  70:..\..\..\BSP\OS\uCOS-III/bsp_os.c **** */
  71:..\..\..\BSP\OS\uCOS-III/bsp_os.c **** 
  72:..\..\..\BSP\OS\uCOS-III/bsp_os.c **** 
  73:..\..\..\BSP\OS\uCOS-III/bsp_os.c **** /*
  74:..\..\..\BSP\OS\uCOS-III/bsp_os.c **** ***************************************************************************************************
  75:..\..\..\BSP\OS\uCOS-III/bsp_os.c **** *                                      LOCAL FUNCTION PROTOTYPES
  76:..\..\..\BSP\OS\uCOS-III/bsp_os.c **** ***************************************************************************************************
  77:..\..\..\BSP\OS\uCOS-III/bsp_os.c **** */
  78:..\..\..\BSP\OS\uCOS-III/bsp_os.c **** 
  79:..\..\..\BSP\OS\uCOS-III/bsp_os.c **** 
  80:..\..\..\BSP\OS\uCOS-III/bsp_os.c **** /*
  81:..\..\..\BSP\OS\uCOS-III/bsp_os.c **** ***************************************************************************************************
  82:..\..\..\BSP\OS\uCOS-III/bsp_os.c **** *                                     LOCAL CONFIGURATION ERRORS
  83:..\..\..\BSP\OS\uCOS-III/bsp_os.c **** ***************************************************************************************************
  84:..\..\..\BSP\OS\uCOS-III/bsp_os.c **** */
  85:..\..\..\BSP\OS\uCOS-III/bsp_os.c **** 
  86:..\..\..\BSP\OS\uCOS-III/bsp_os.c **** /*
  87:..\..\..\BSP\OS\uCOS-III/bsp_os.c **** ***************************************************************************************************
ARM GAS  C:\Users\EDULU~1.DES\AppData\Local\Temp\ccJisAUw.s 			page 3


  88:..\..\..\BSP\OS\uCOS-III/bsp_os.c **** ***************************************************************************************************
  89:..\..\..\BSP\OS\uCOS-III/bsp_os.c **** **                                         GLOBAL FUNCTIONS
  90:..\..\..\BSP\OS\uCOS-III/bsp_os.c **** ***************************************************************************************************
  91:..\..\..\BSP\OS\uCOS-III/bsp_os.c **** ***************************************************************************************************
  92:..\..\..\BSP\OS\uCOS-III/bsp_os.c **** */
  93:..\..\..\BSP\OS\uCOS-III/bsp_os.c **** 
  94:..\..\..\BSP\OS\uCOS-III/bsp_os.c **** 
  95:..\..\..\BSP\OS\uCOS-III/bsp_os.c **** /*
  96:..\..\..\BSP\OS\uCOS-III/bsp_os.c **** ***************************************************************************************************
  97:..\..\..\BSP\OS\uCOS-III/bsp_os.c **** ***************************************************************************************************
  98:..\..\..\BSP\OS\uCOS-III/bsp_os.c **** **                                     BSP OS LOCKS FUNCTIONS
  99:..\..\..\BSP\OS\uCOS-III/bsp_os.c **** ***************************************************************************************************
 100:..\..\..\BSP\OS\uCOS-III/bsp_os.c **** ***************************************************************************************************
 101:..\..\..\BSP\OS\uCOS-III/bsp_os.c **** */
 102:..\..\..\BSP\OS\uCOS-III/bsp_os.c **** 
 103:..\..\..\BSP\OS\uCOS-III/bsp_os.c **** /*
 104:..\..\..\BSP\OS\uCOS-III/bsp_os.c **** ***************************************************************************************************
 105:..\..\..\BSP\OS\uCOS-III/bsp_os.c **** ***************************************************************************************************
 106:..\..\..\BSP\OS\uCOS-III/bsp_os.c **** **                                     BSP OS LOCKS FUNCTIONS
 107:..\..\..\BSP\OS\uCOS-III/bsp_os.c **** ***************************************************************************************************
 108:..\..\..\BSP\OS\uCOS-III/bsp_os.c **** ***************************************************************************************************
 109:..\..\..\BSP\OS\uCOS-III/bsp_os.c **** */
 110:..\..\..\BSP\OS\uCOS-III/bsp_os.c **** 
 111:..\..\..\BSP\OS\uCOS-III/bsp_os.c **** /*
 112:..\..\..\BSP\OS\uCOS-III/bsp_os.c **** ***************************************************************************************************
 113:..\..\..\BSP\OS\uCOS-III/bsp_os.c **** *                                      BSP_OS_SemCreate()
 114:..\..\..\BSP\OS\uCOS-III/bsp_os.c **** *
 115:..\..\..\BSP\OS\uCOS-III/bsp_os.c **** * Description : Creates a sempahore to lock/unlock
 116:..\..\..\BSP\OS\uCOS-III/bsp_os.c **** *
 117:..\..\..\BSP\OS\uCOS-III/bsp_os.c **** * Argument(s) : p_sem        Pointer to a BSP_OS_SEM structure
 118:..\..\..\BSP\OS\uCOS-III/bsp_os.c **** *
 119:..\..\..\BSP\OS\uCOS-III/bsp_os.c **** *               sem_val      Initial value of the semaphore.
 120:..\..\..\BSP\OS\uCOS-III/bsp_os.c **** *
 121:..\..\..\BSP\OS\uCOS-III/bsp_os.c **** *               p_sem_name   Pointer to the semaphore name.
 122:..\..\..\BSP\OS\uCOS-III/bsp_os.c **** *
 123:..\..\..\BSP\OS\uCOS-III/bsp_os.c **** * Return(s)   : DEF_OK       if the semaphore was created.
 124:..\..\..\BSP\OS\uCOS-III/bsp_os.c **** *               DEF_FAIL     if the sempahore could not be created.
 125:..\..\..\BSP\OS\uCOS-III/bsp_os.c **** *
 126:..\..\..\BSP\OS\uCOS-III/bsp_os.c **** * Caller(s)   : Application.
 127:..\..\..\BSP\OS\uCOS-III/bsp_os.c **** *
 128:..\..\..\BSP\OS\uCOS-III/bsp_os.c **** * Note(s)     : none.
 129:..\..\..\BSP\OS\uCOS-III/bsp_os.c **** *
 130:..\..\..\BSP\OS\uCOS-III/bsp_os.c **** ***************************************************************************************************
 131:..\..\..\BSP\OS\uCOS-III/bsp_os.c **** */
 132:..\..\..\BSP\OS\uCOS-III/bsp_os.c **** 
 133:..\..\..\BSP\OS\uCOS-III/bsp_os.c **** CPU_BOOLEAN  BSP_OS_SemCreate (BSP_OS_SEM      *p_sem,
 134:..\..\..\BSP\OS\uCOS-III/bsp_os.c ****                                BSP_OS_SEM_VAL   sem_val,
 135:..\..\..\BSP\OS\uCOS-III/bsp_os.c ****                                CPU_CHAR        *p_sem_name)
 136:..\..\..\BSP\OS\uCOS-III/bsp_os.c **** {
  28              		.loc 1 136 1 view -0
  29              		.cfi_startproc
  30              		@ args = 0, pretend = 0, frame = 8
  31              		@ frame_needed = 0, uses_anonymous_args = 0
  32              		.loc 1 136 1 is_stmt 0 view .LVU1
  33 0000 30B5     		push	{r4, r5, lr}
  34              		.cfi_def_cfa_offset 12
  35              		.cfi_offset 4, -12
ARM GAS  C:\Users\EDULU~1.DES\AppData\Local\Temp\ccJisAUw.s 			page 4


  36              		.cfi_offset 5, -8
  37              		.cfi_offset 14, -4
  38 0002 83B0     		sub	sp, sp, #12
  39              		.cfi_def_cfa_offset 24
  40 0004 0D00     		movs	r5, r1
  41 0006 1100     		movs	r1, r2
  42              	.LVL1:
 137:..\..\..\BSP\OS\uCOS-III/bsp_os.c ****     OS_ERR os_err;
  43              		.loc 1 137 5 is_stmt 1 view .LVU2
 138:..\..\..\BSP\OS\uCOS-III/bsp_os.c **** 
 139:..\..\..\BSP\OS\uCOS-III/bsp_os.c **** 
 140:..\..\..\BSP\OS\uCOS-III/bsp_os.c ****     OSSemCreate( p_sem,
  44              		.loc 1 140 5 view .LVU3
  45 0008 6B46     		mov	r3, sp
  46 000a 9C1D     		adds	r4, r3, #6
  47 000c 2300     		movs	r3, r4
  48 000e 2A00     		movs	r2, r5
  49              	.LVL2:
  50              		.loc 1 140 5 is_stmt 0 view .LVU4
  51 0010 FFF7FEFF 		bl	OSSemCreate
  52              	.LVL3:
 141:..\..\..\BSP\OS\uCOS-III/bsp_os.c ****                  p_sem_name,
 142:..\..\..\BSP\OS\uCOS-III/bsp_os.c ****                  sem_val,
 143:..\..\..\BSP\OS\uCOS-III/bsp_os.c ****                 &os_err);
 144:..\..\..\BSP\OS\uCOS-III/bsp_os.c **** 
 145:..\..\..\BSP\OS\uCOS-III/bsp_os.c ****     if (os_err != OS_ERR_NONE) {
  53              		.loc 1 145 5 is_stmt 1 view .LVU5
  54              		.loc 1 145 16 is_stmt 0 view .LVU6
  55 0014 2388     		ldrh	r3, [r4]
  56              		.loc 1 145 8 view .LVU7
  57 0016 002B     		cmp	r3, #0
  58 0018 02D1     		bne	.L3
 146:..\..\..\BSP\OS\uCOS-III/bsp_os.c ****         return (DEF_FAIL);
 147:..\..\..\BSP\OS\uCOS-III/bsp_os.c ****     }
 148:..\..\..\BSP\OS\uCOS-III/bsp_os.c **** 
 149:..\..\..\BSP\OS\uCOS-III/bsp_os.c ****     return (DEF_OK);
  59              		.loc 1 149 12 view .LVU8
  60 001a 0120     		movs	r0, #1
  61              	.L2:
 150:..\..\..\BSP\OS\uCOS-III/bsp_os.c **** }
  62              		.loc 1 150 1 view .LVU9
  63 001c 03B0     		add	sp, sp, #12
  64              		@ sp needed
  65              	.LVL4:
  66              		.loc 1 150 1 view .LVU10
  67 001e 30BD     		pop	{r4, r5, pc}
  68              	.LVL5:
  69              	.L3:
 146:..\..\..\BSP\OS\uCOS-III/bsp_os.c ****         return (DEF_FAIL);
  70              		.loc 1 146 16 view .LVU11
  71 0020 0020     		movs	r0, #0
  72 0022 FBE7     		b	.L2
  73              		.cfi_endproc
  74              	.LFE3:
  75              		.size	BSP_OS_SemCreate, .-BSP_OS_SemCreate
  76              		.global	__aeabi_uidiv
  77              		.section	.text.BSP_OS_SemWait,"ax",%progbits
ARM GAS  C:\Users\EDULU~1.DES\AppData\Local\Temp\ccJisAUw.s 			page 5


  78              		.align	1
  79              		.global	BSP_OS_SemWait
  80              		.syntax unified
  81              		.code	16
  82              		.thumb_func
  83              		.fpu softvfp
  84              		.type	BSP_OS_SemWait, %function
  85              	BSP_OS_SemWait:
  86              	.LVL6:
  87              	.LFB4:
 151:..\..\..\BSP\OS\uCOS-III/bsp_os.c **** 
 152:..\..\..\BSP\OS\uCOS-III/bsp_os.c **** 
 153:..\..\..\BSP\OS\uCOS-III/bsp_os.c **** /*
 154:..\..\..\BSP\OS\uCOS-III/bsp_os.c **** ***************************************************************************************************
 155:..\..\..\BSP\OS\uCOS-III/bsp_os.c **** *                                     BSP_OS_SemWait()
 156:..\..\..\BSP\OS\uCOS-III/bsp_os.c **** *
 157:..\..\..\BSP\OS\uCOS-III/bsp_os.c **** * Description : Wait on a semaphore to become available
 158:..\..\..\BSP\OS\uCOS-III/bsp_os.c **** *
 159:..\..\..\BSP\OS\uCOS-III/bsp_os.c **** * Argument(s) : sem          sempahore handler
 160:..\..\..\BSP\OS\uCOS-III/bsp_os.c **** *
 161:..\..\..\BSP\OS\uCOS-III/bsp_os.c **** *               dly_ms       delay in miliseconds to wait on the semaphore
 162:..\..\..\BSP\OS\uCOS-III/bsp_os.c **** *
 163:..\..\..\BSP\OS\uCOS-III/bsp_os.c **** * Return(s)   : DEF_OK       if the semaphore was acquire
 164:..\..\..\BSP\OS\uCOS-III/bsp_os.c **** *               DEF_FAIL     if the sempahore could not be acquire
 165:..\..\..\BSP\OS\uCOS-III/bsp_os.c **** *
 166:..\..\..\BSP\OS\uCOS-III/bsp_os.c **** * Caller(s)   : Application.
 167:..\..\..\BSP\OS\uCOS-III/bsp_os.c **** *
 168:..\..\..\BSP\OS\uCOS-III/bsp_os.c **** * Note(s)     : none.
 169:..\..\..\BSP\OS\uCOS-III/bsp_os.c **** ***************************************************************************************************
 170:..\..\..\BSP\OS\uCOS-III/bsp_os.c **** */
 171:..\..\..\BSP\OS\uCOS-III/bsp_os.c **** 
 172:..\..\..\BSP\OS\uCOS-III/bsp_os.c **** CPU_BOOLEAN  BSP_OS_SemWait (BSP_OS_SEM  *p_sem,
 173:..\..\..\BSP\OS\uCOS-III/bsp_os.c ****                              CPU_INT32U   dly_ms)
 174:..\..\..\BSP\OS\uCOS-III/bsp_os.c **** {
  88              		.loc 1 174 1 is_stmt 1 view -0
  89              		.cfi_startproc
  90              		@ args = 0, pretend = 0, frame = 8
  91              		@ frame_needed = 0, uses_anonymous_args = 0
  92              		.loc 1 174 1 is_stmt 0 view .LVU13
  93 0000 30B5     		push	{r4, r5, lr}
  94              		.cfi_def_cfa_offset 12
  95              		.cfi_offset 4, -12
  96              		.cfi_offset 5, -8
  97              		.cfi_offset 14, -4
  98 0002 85B0     		sub	sp, sp, #20
  99              		.cfi_def_cfa_offset 32
 100 0004 0400     		movs	r4, r0
 175:..\..\..\BSP\OS\uCOS-III/bsp_os.c ****     OS_ERR      os_err;
 101              		.loc 1 175 5 is_stmt 1 view .LVU14
 176:..\..\..\BSP\OS\uCOS-III/bsp_os.c ****     CPU_INT32U  dly_ticks;
 102              		.loc 1 176 5 view .LVU15
 177:..\..\..\BSP\OS\uCOS-III/bsp_os.c **** 
 178:..\..\..\BSP\OS\uCOS-III/bsp_os.c **** 
 179:..\..\..\BSP\OS\uCOS-III/bsp_os.c ****     dly_ticks  = ((dly_ms * DEF_TIME_NBR_mS_PER_SEC) / OSCfg_TickRate_Hz);
 103              		.loc 1 179 5 view .LVU16
 104              		.loc 1 179 27 is_stmt 0 view .LVU17
 105 0006 4B01     		lsls	r3, r1, #5
ARM GAS  C:\Users\EDULU~1.DES\AppData\Local\Temp\ccJisAUw.s 			page 6


 106 0008 5B1A     		subs	r3, r3, r1
 107 000a 9B00     		lsls	r3, r3, #2
 108 000c 5918     		adds	r1, r3, r1
 109              	.LVL7:
 110              		.loc 1 179 27 view .LVU18
 111 000e C800     		lsls	r0, r1, #3
 112              	.LVL8:
 113              		.loc 1 179 54 view .LVU19
 114 0010 0A4B     		ldr	r3, .L7
 115 0012 1968     		ldr	r1, [r3]
 116              		.loc 1 179 16 view .LVU20
 117 0014 FFF7FEFF 		bl	__aeabi_uidiv
 118              	.LVL9:
 119 0018 0100     		movs	r1, r0
 120              	.LVL10:
 180:..\..\..\BSP\OS\uCOS-III/bsp_os.c **** 
 181:..\..\..\BSP\OS\uCOS-III/bsp_os.c ****     OSSemPend( p_sem,
 121              		.loc 1 181 5 is_stmt 1 view .LVU21
 122 001a 0E25     		movs	r5, #14
 123 001c 6D44     		add	r5, r5, sp
 124 001e 0095     		str	r5, [sp]
 125 0020 0023     		movs	r3, #0
 126 0022 0022     		movs	r2, #0
 127 0024 2000     		movs	r0, r4
 128              	.LVL11:
 129              		.loc 1 181 5 is_stmt 0 view .LVU22
 130 0026 FFF7FEFF 		bl	OSSemPend
 131              	.LVL12:
 182:..\..\..\BSP\OS\uCOS-III/bsp_os.c ****                dly_ticks,
 183:..\..\..\BSP\OS\uCOS-III/bsp_os.c ****                OS_OPT_PEND_BLOCKING,
 184:..\..\..\BSP\OS\uCOS-III/bsp_os.c ****                0u,
 185:..\..\..\BSP\OS\uCOS-III/bsp_os.c ****               &os_err);
 186:..\..\..\BSP\OS\uCOS-III/bsp_os.c **** 
 187:..\..\..\BSP\OS\uCOS-III/bsp_os.c ****     if (os_err != OS_ERR_NONE) {
 132              		.loc 1 187 5 is_stmt 1 view .LVU23
 133              		.loc 1 187 16 is_stmt 0 view .LVU24
 134 002a 2B88     		ldrh	r3, [r5]
 135              		.loc 1 187 8 view .LVU25
 136 002c 002B     		cmp	r3, #0
 137 002e 02D1     		bne	.L6
 188:..\..\..\BSP\OS\uCOS-III/bsp_os.c ****        return (DEF_FAIL);
 189:..\..\..\BSP\OS\uCOS-III/bsp_os.c ****     }
 190:..\..\..\BSP\OS\uCOS-III/bsp_os.c **** 
 191:..\..\..\BSP\OS\uCOS-III/bsp_os.c ****     return (DEF_OK);
 138              		.loc 1 191 12 view .LVU26
 139 0030 0120     		movs	r0, #1
 140              	.L5:
 192:..\..\..\BSP\OS\uCOS-III/bsp_os.c **** }
 141              		.loc 1 192 1 view .LVU27
 142 0032 05B0     		add	sp, sp, #20
 143              		@ sp needed
 144              	.LVL13:
 145              		.loc 1 192 1 view .LVU28
 146 0034 30BD     		pop	{r4, r5, pc}
 147              	.LVL14:
 148              	.L6:
 188:..\..\..\BSP\OS\uCOS-III/bsp_os.c ****        return (DEF_FAIL);
ARM GAS  C:\Users\EDULU~1.DES\AppData\Local\Temp\ccJisAUw.s 			page 7


 149              		.loc 1 188 15 view .LVU29
 150 0036 0020     		movs	r0, #0
 151 0038 FBE7     		b	.L5
 152              	.L8:
 153 003a C046     		.align	2
 154              	.L7:
 155 003c 00000000 		.word	OSCfg_TickRate_Hz
 156              		.cfi_endproc
 157              	.LFE4:
 158              		.size	BSP_OS_SemWait, .-BSP_OS_SemWait
 159              		.section	.text.BSP_OS_SemPost,"ax",%progbits
 160              		.align	1
 161              		.global	BSP_OS_SemPost
 162              		.syntax unified
 163              		.code	16
 164              		.thumb_func
 165              		.fpu softvfp
 166              		.type	BSP_OS_SemPost, %function
 167              	BSP_OS_SemPost:
 168              	.LVL15:
 169              	.LFB5:
 193:..\..\..\BSP\OS\uCOS-III/bsp_os.c **** 
 194:..\..\..\BSP\OS\uCOS-III/bsp_os.c **** /*
 195:..\..\..\BSP\OS\uCOS-III/bsp_os.c **** ***************************************************************************************************
 196:..\..\..\BSP\OS\uCOS-III/bsp_os.c **** *                                      BSP_OS_SemPost()
 197:..\..\..\BSP\OS\uCOS-III/bsp_os.c **** *
 198:..\..\..\BSP\OS\uCOS-III/bsp_os.c **** * Description : Post a semaphore
 199:..\..\..\BSP\OS\uCOS-III/bsp_os.c **** *
 200:..\..\..\BSP\OS\uCOS-III/bsp_os.c **** * Argument(s) : sem          Semaphore handler
 201:..\..\..\BSP\OS\uCOS-III/bsp_os.c **** *
 202:..\..\..\BSP\OS\uCOS-III/bsp_os.c **** * Return(s)   : DEF_OK       if the semaphore was posted.
 203:..\..\..\BSP\OS\uCOS-III/bsp_os.c **** *               DEF_FAIL     if the sempahore could not be posted.
 204:..\..\..\BSP\OS\uCOS-III/bsp_os.c **** *
 205:..\..\..\BSP\OS\uCOS-III/bsp_os.c **** * Caller(s)   : Application.
 206:..\..\..\BSP\OS\uCOS-III/bsp_os.c **** *
 207:..\..\..\BSP\OS\uCOS-III/bsp_os.c **** * Note(s)     : none.
 208:..\..\..\BSP\OS\uCOS-III/bsp_os.c **** ***************************************************************************************************
 209:..\..\..\BSP\OS\uCOS-III/bsp_os.c **** */
 210:..\..\..\BSP\OS\uCOS-III/bsp_os.c **** 
 211:..\..\..\BSP\OS\uCOS-III/bsp_os.c **** CPU_BOOLEAN  BSP_OS_SemPost (BSP_OS_SEM *p_sem)
 212:..\..\..\BSP\OS\uCOS-III/bsp_os.c **** {
 170              		.loc 1 212 1 is_stmt 1 view -0
 171              		.cfi_startproc
 172              		@ args = 0, pretend = 0, frame = 8
 173              		@ frame_needed = 0, uses_anonymous_args = 0
 174              		.loc 1 212 1 is_stmt 0 view .LVU31
 175 0000 10B5     		push	{r4, lr}
 176              		.cfi_def_cfa_offset 8
 177              		.cfi_offset 4, -8
 178              		.cfi_offset 14, -4
 179 0002 82B0     		sub	sp, sp, #8
 180              		.cfi_def_cfa_offset 16
 213:..\..\..\BSP\OS\uCOS-III/bsp_os.c ****     OS_ERR  os_err;
 181              		.loc 1 213 5 is_stmt 1 view .LVU32
 214:..\..\..\BSP\OS\uCOS-III/bsp_os.c **** 
 215:..\..\..\BSP\OS\uCOS-III/bsp_os.c **** 
 216:..\..\..\BSP\OS\uCOS-III/bsp_os.c ****     OSSemPost( p_sem,
ARM GAS  C:\Users\EDULU~1.DES\AppData\Local\Temp\ccJisAUw.s 			page 8


 182              		.loc 1 216 5 view .LVU33
 183 0004 6B46     		mov	r3, sp
 184 0006 9C1D     		adds	r4, r3, #6
 185 0008 2200     		movs	r2, r4
 186 000a 0021     		movs	r1, #0
 187 000c FFF7FEFF 		bl	OSSemPost
 188              	.LVL16:
 217:..\..\..\BSP\OS\uCOS-III/bsp_os.c ****                OS_OPT_POST_1,
 218:..\..\..\BSP\OS\uCOS-III/bsp_os.c ****                &os_err);
 219:..\..\..\BSP\OS\uCOS-III/bsp_os.c **** 
 220:..\..\..\BSP\OS\uCOS-III/bsp_os.c ****     if (os_err != OS_ERR_NONE) {
 189              		.loc 1 220 5 view .LVU34
 190              		.loc 1 220 16 is_stmt 0 view .LVU35
 191 0010 2388     		ldrh	r3, [r4]
 192              		.loc 1 220 8 view .LVU36
 193 0012 002B     		cmp	r3, #0
 194 0014 02D1     		bne	.L11
 221:..\..\..\BSP\OS\uCOS-III/bsp_os.c ****         return (DEF_FAIL);
 222:..\..\..\BSP\OS\uCOS-III/bsp_os.c ****     }
 223:..\..\..\BSP\OS\uCOS-III/bsp_os.c **** 
 224:..\..\..\BSP\OS\uCOS-III/bsp_os.c ****     return (DEF_OK);
 195              		.loc 1 224 12 view .LVU37
 196 0016 0120     		movs	r0, #1
 197              	.L10:
 225:..\..\..\BSP\OS\uCOS-III/bsp_os.c **** }
 198              		.loc 1 225 1 view .LVU38
 199 0018 02B0     		add	sp, sp, #8
 200              		@ sp needed
 201 001a 10BD     		pop	{r4, pc}
 202              	.L11:
 221:..\..\..\BSP\OS\uCOS-III/bsp_os.c ****         return (DEF_FAIL);
 203              		.loc 1 221 16 view .LVU39
 204 001c 0020     		movs	r0, #0
 205 001e FBE7     		b	.L10
 206              		.cfi_endproc
 207              	.LFE5:
 208              		.size	BSP_OS_SemPost, .-BSP_OS_SemPost
 209              		.global	__aeabi_uidivmod
 210              		.section	.text.BSP_OS_TimeDlyMs,"ax",%progbits
 211              		.align	1
 212              		.global	BSP_OS_TimeDlyMs
 213              		.syntax unified
 214              		.code	16
 215              		.thumb_func
 216              		.fpu softvfp
 217              		.type	BSP_OS_TimeDlyMs, %function
 218              	BSP_OS_TimeDlyMs:
 219              	.LVL17:
 220              	.LFB6:
 226:..\..\..\BSP\OS\uCOS-III/bsp_os.c **** 
 227:..\..\..\BSP\OS\uCOS-III/bsp_os.c **** 
 228:..\..\..\BSP\OS\uCOS-III/bsp_os.c **** /*
 229:..\..\..\BSP\OS\uCOS-III/bsp_os.c **** ***************************************************************************************************
 230:..\..\..\BSP\OS\uCOS-III/bsp_os.c **** ***************************************************************************************************
 231:..\..\..\BSP\OS\uCOS-III/bsp_os.c **** **                                     uC/OS-III TIMER FUNCTIONS
 232:..\..\..\BSP\OS\uCOS-III/bsp_os.c **** ***************************************************************************************************
 233:..\..\..\BSP\OS\uCOS-III/bsp_os.c **** ***************************************************************************************************
ARM GAS  C:\Users\EDULU~1.DES\AppData\Local\Temp\ccJisAUw.s 			page 9


 234:..\..\..\BSP\OS\uCOS-III/bsp_os.c **** */
 235:..\..\..\BSP\OS\uCOS-III/bsp_os.c **** 
 236:..\..\..\BSP\OS\uCOS-III/bsp_os.c **** /*
 237:..\..\..\BSP\OS\uCOS-III/bsp_os.c **** ***************************************************************************************************
 238:..\..\..\BSP\OS\uCOS-III/bsp_os.c **** *                                    BSP_TimeDlyMs()
 239:..\..\..\BSP\OS\uCOS-III/bsp_os.c **** *
 240:..\..\..\BSP\OS\uCOS-III/bsp_os.c **** * Description : This function delay the exceution for specifi amount of miliseconds
 241:..\..\..\BSP\OS\uCOS-III/bsp_os.c **** *
 242:..\..\..\BSP\OS\uCOS-III/bsp_os.c **** * Argument(s) : dly_ms       Delay in miliseconds
 243:..\..\..\BSP\OS\uCOS-III/bsp_os.c **** *
 244:..\..\..\BSP\OS\uCOS-III/bsp_os.c **** * Return(s)   : none.
 245:..\..\..\BSP\OS\uCOS-III/bsp_os.c **** *
 246:..\..\..\BSP\OS\uCOS-III/bsp_os.c **** * Caller(s)   : Application
 247:..\..\..\BSP\OS\uCOS-III/bsp_os.c **** *
 248:..\..\..\BSP\OS\uCOS-III/bsp_os.c **** * Note(s)     : none.
 249:..\..\..\BSP\OS\uCOS-III/bsp_os.c **** *
 250:..\..\..\BSP\OS\uCOS-III/bsp_os.c **** ***************************************************************************************************
 251:..\..\..\BSP\OS\uCOS-III/bsp_os.c **** */
 252:..\..\..\BSP\OS\uCOS-III/bsp_os.c **** 
 253:..\..\..\BSP\OS\uCOS-III/bsp_os.c **** void  BSP_OS_TimeDlyMs (CPU_INT32U  dly_ms)
 254:..\..\..\BSP\OS\uCOS-III/bsp_os.c **** {
 221              		.loc 1 254 1 is_stmt 1 view -0
 222              		.cfi_startproc
 223              		@ args = 0, pretend = 0, frame = 8
 224              		@ frame_needed = 0, uses_anonymous_args = 0
 225              		.loc 1 254 1 is_stmt 0 view .LVU41
 226 0000 30B5     		push	{r4, r5, lr}
 227              		.cfi_def_cfa_offset 12
 228              		.cfi_offset 4, -12
 229              		.cfi_offset 5, -8
 230              		.cfi_offset 14, -4
 231 0002 85B0     		sub	sp, sp, #20
 232              		.cfi_def_cfa_offset 32
 233 0004 0400     		movs	r4, r0
 255:..\..\..\BSP\OS\uCOS-III/bsp_os.c ****     CPU_INT16U  ms;
 234              		.loc 1 255 5 is_stmt 1 view .LVU42
 256:..\..\..\BSP\OS\uCOS-III/bsp_os.c ****     CPU_INT16U  sec;
 235              		.loc 1 256 5 view .LVU43
 257:..\..\..\BSP\OS\uCOS-III/bsp_os.c ****     OS_ERR      os_err;
 236              		.loc 1 257 5 view .LVU44
 258:..\..\..\BSP\OS\uCOS-III/bsp_os.c **** 
 259:..\..\..\BSP\OS\uCOS-III/bsp_os.c **** 
 260:..\..\..\BSP\OS\uCOS-III/bsp_os.c ****     if (dly_ms > 10000u) {                                       /* Limit delays to 10 seconds.    
 237              		.loc 1 260 5 view .LVU45
 238              		.loc 1 260 8 is_stmt 0 view .LVU46
 239 0006 114B     		ldr	r3, .L17
 240 0008 9842     		cmp	r0, r3
 241 000a 05D8     		bhi	.L16
 261:..\..\..\BSP\OS\uCOS-III/bsp_os.c ****         dly_ms = 10000u;
 262:..\..\..\BSP\OS\uCOS-III/bsp_os.c ****     }
 263:..\..\..\BSP\OS\uCOS-III/bsp_os.c **** 
 264:..\..\..\BSP\OS\uCOS-III/bsp_os.c ****     if (dly_ms >= 1000u) {
 242              		.loc 1 264 5 is_stmt 1 view .LVU47
 243              		.loc 1 264 8 is_stmt 0 view .LVU48
 244 000c 104B     		ldr	r3, .L17+4
 245 000e 9842     		cmp	r0, r3
 246 0010 03D8     		bhi	.L13
ARM GAS  C:\Users\EDULU~1.DES\AppData\Local\Temp\ccJisAUw.s 			page 10


 265:..\..\..\BSP\OS\uCOS-III/bsp_os.c ****         sec = dly_ms / 1000u;
 266:..\..\..\BSP\OS\uCOS-III/bsp_os.c ****         ms  = dly_ms % 1000u;
 267:..\..\..\BSP\OS\uCOS-III/bsp_os.c ****     } else {
 268:..\..\..\BSP\OS\uCOS-III/bsp_os.c ****         ms  = dly_ms;
 247              		.loc 1 268 9 is_stmt 1 view .LVU49
 248              		.loc 1 268 13 is_stmt 0 view .LVU50
 249 0012 83B2     		uxth	r3, r0
 250              	.LVL18:
 269:..\..\..\BSP\OS\uCOS-III/bsp_os.c ****         sec = 0u;
 251              		.loc 1 269 9 is_stmt 1 view .LVU51
 252              		.loc 1 269 13 is_stmt 0 view .LVU52
 253 0014 0025     		movs	r5, #0
 254 0016 0CE0     		b	.L15
 255              	.LVL19:
 256              	.L16:
 261:..\..\..\BSP\OS\uCOS-III/bsp_os.c ****         dly_ms = 10000u;
 257              		.loc 1 261 16 view .LVU53
 258 0018 0C4C     		ldr	r4, .L17
 259              	.L13:
 265:..\..\..\BSP\OS\uCOS-III/bsp_os.c ****         sec = dly_ms / 1000u;
 260              		.loc 1 265 9 is_stmt 1 view .LVU54
 265:..\..\..\BSP\OS\uCOS-III/bsp_os.c ****         sec = dly_ms / 1000u;
 261              		.loc 1 265 22 is_stmt 0 view .LVU55
 262 001a FA21     		movs	r1, #250
 263 001c 8900     		lsls	r1, r1, #2
 264 001e 2000     		movs	r0, r4
 265              	.LVL20:
 265:..\..\..\BSP\OS\uCOS-III/bsp_os.c ****         sec = dly_ms / 1000u;
 266              		.loc 1 265 22 view .LVU56
 267 0020 FFF7FEFF 		bl	__aeabi_uidiv
 268              	.LVL21:
 265:..\..\..\BSP\OS\uCOS-III/bsp_os.c ****         sec = dly_ms / 1000u;
 269              		.loc 1 265 13 view .LVU57
 270 0024 85B2     		uxth	r5, r0
 271              	.LVL22:
 266:..\..\..\BSP\OS\uCOS-III/bsp_os.c ****     } else {
 272              		.loc 1 266 9 is_stmt 1 view .LVU58
 266:..\..\..\BSP\OS\uCOS-III/bsp_os.c ****     } else {
 273              		.loc 1 266 22 is_stmt 0 view .LVU59
 274 0026 FA21     		movs	r1, #250
 275 0028 8900     		lsls	r1, r1, #2
 276 002a 2000     		movs	r0, r4
 277 002c FFF7FEFF 		bl	__aeabi_uidivmod
 278              	.LVL23:
 266:..\..\..\BSP\OS\uCOS-III/bsp_os.c ****     } else {
 279              		.loc 1 266 13 view .LVU60
 280 0030 8BB2     		uxth	r3, r1
 281              	.LVL24:
 282              	.L15:
 270:..\..\..\BSP\OS\uCOS-III/bsp_os.c ****     }
 271:..\..\..\BSP\OS\uCOS-III/bsp_os.c **** 
 272:..\..\..\BSP\OS\uCOS-III/bsp_os.c ****     OSTimeDlyHMSM(0u, 0u, sec, ms,
 283              		.loc 1 272 5 is_stmt 1 view .LVU61
 284 0032 0E22     		movs	r2, #14
 285 0034 6A44     		add	r2, r2, sp
 286 0036 0192     		str	r2, [sp, #4]
 287 0038 0022     		movs	r2, #0
ARM GAS  C:\Users\EDULU~1.DES\AppData\Local\Temp\ccJisAUw.s 			page 11


 288 003a 0092     		str	r2, [sp]
 289 003c 2A00     		movs	r2, r5
 290 003e 0021     		movs	r1, #0
 291 0040 0020     		movs	r0, #0
 292 0042 FFF7FEFF 		bl	OSTimeDlyHMSM
 293              	.LVL25:
 273:..\..\..\BSP\OS\uCOS-III/bsp_os.c ****                   OS_OPT_TIME_HMSM_STRICT, &os_err);
 274:..\..\..\BSP\OS\uCOS-III/bsp_os.c **** }
 294              		.loc 1 274 1 is_stmt 0 view .LVU62
 295 0046 05B0     		add	sp, sp, #20
 296              		@ sp needed
 297              	.LVL26:
 298              		.loc 1 274 1 view .LVU63
 299 0048 30BD     		pop	{r4, r5, pc}
 300              	.L18:
 301 004a C046     		.align	2
 302              	.L17:
 303 004c 10270000 		.word	10000
 304 0050 E7030000 		.word	999
 305              		.cfi_endproc
 306              	.LFE6:
 307              		.size	BSP_OS_TimeDlyMs, .-BSP_OS_TimeDlyMs
 308              		.section	.text.BSP_OS_TimeDly,"ax",%progbits
 309              		.align	1
 310              		.global	BSP_OS_TimeDly
 311              		.syntax unified
 312              		.code	16
 313              		.thumb_func
 314              		.fpu softvfp
 315              		.type	BSP_OS_TimeDly, %function
 316              	BSP_OS_TimeDly:
 317              	.LVL27:
 318              	.LFB7:
 275:..\..\..\BSP\OS\uCOS-III/bsp_os.c **** 
 276:..\..\..\BSP\OS\uCOS-III/bsp_os.c **** 
 277:..\..\..\BSP\OS\uCOS-III/bsp_os.c **** /*
 278:..\..\..\BSP\OS\uCOS-III/bsp_os.c **** ***************************************************************************************************
 279:..\..\..\BSP\OS\uCOS-III/bsp_os.c **** *                                     BSP_TimeDly()
 280:..\..\..\BSP\OS\uCOS-III/bsp_os.c **** *
 281:..\..\..\BSP\OS\uCOS-III/bsp_os.c **** * Description : This function delay the exceution for specific amount of clk ticks
 282:..\..\..\BSP\OS\uCOS-III/bsp_os.c **** *
 283:..\..\..\BSP\OS\uCOS-III/bsp_os.c **** * Argument(s) : dly_tick     Delay in clk ticks
 284:..\..\..\BSP\OS\uCOS-III/bsp_os.c **** *
 285:..\..\..\BSP\OS\uCOS-III/bsp_os.c **** * Return(s)   : none.
 286:..\..\..\BSP\OS\uCOS-III/bsp_os.c **** *
 287:..\..\..\BSP\OS\uCOS-III/bsp_os.c **** * Caller(s)   : Application
 288:..\..\..\BSP\OS\uCOS-III/bsp_os.c **** *
 289:..\..\..\BSP\OS\uCOS-III/bsp_os.c **** * Note(s)     : none.
 290:..\..\..\BSP\OS\uCOS-III/bsp_os.c **** *
 291:..\..\..\BSP\OS\uCOS-III/bsp_os.c **** ***************************************************************************************************
 292:..\..\..\BSP\OS\uCOS-III/bsp_os.c **** */
 293:..\..\..\BSP\OS\uCOS-III/bsp_os.c **** 
 294:..\..\..\BSP\OS\uCOS-III/bsp_os.c **** void  BSP_OS_TimeDly (CPU_INT32U  dly_tick)
 295:..\..\..\BSP\OS\uCOS-III/bsp_os.c **** {
 319              		.loc 1 295 1 is_stmt 1 view -0
 320              		.cfi_startproc
 321              		@ args = 0, pretend = 0, frame = 8
ARM GAS  C:\Users\EDULU~1.DES\AppData\Local\Temp\ccJisAUw.s 			page 12


 322              		@ frame_needed = 0, uses_anonymous_args = 0
 323              		.loc 1 295 1 is_stmt 0 view .LVU65
 324 0000 00B5     		push	{lr}
 325              		.cfi_def_cfa_offset 4
 326              		.cfi_offset 14, -4
 327 0002 83B0     		sub	sp, sp, #12
 328              		.cfi_def_cfa_offset 16
 296:..\..\..\BSP\OS\uCOS-III/bsp_os.c ****     OS_ERR  os_err;
 329              		.loc 1 296 5 is_stmt 1 view .LVU66
 297:..\..\..\BSP\OS\uCOS-III/bsp_os.c **** 
 298:..\..\..\BSP\OS\uCOS-III/bsp_os.c ****     OSTimeDly( dly_tick,
 330              		.loc 1 298 5 view .LVU67
 331 0004 6B46     		mov	r3, sp
 332 0006 9A1D     		adds	r2, r3, #6
 333 0008 0021     		movs	r1, #0
 334 000a FFF7FEFF 		bl	OSTimeDly
 335              	.LVL28:
 299:..\..\..\BSP\OS\uCOS-III/bsp_os.c ****                OS_OPT_TIME_DLY,
 300:..\..\..\BSP\OS\uCOS-III/bsp_os.c ****               &os_err);
 301:..\..\..\BSP\OS\uCOS-III/bsp_os.c **** 
 302:..\..\..\BSP\OS\uCOS-III/bsp_os.c ****    (void)&os_err;
 336              		.loc 1 302 4 view .LVU68
 303:..\..\..\BSP\OS\uCOS-III/bsp_os.c **** }
 337              		.loc 1 303 1 is_stmt 0 view .LVU69
 338 000e 03B0     		add	sp, sp, #12
 339              		@ sp needed
 340 0010 00BD     		pop	{pc}
 341              		.cfi_endproc
 342              	.LFE7:
 343              		.size	BSP_OS_TimeDly, .-BSP_OS_TimeDly
 344              		.text
 345              	.Letext0:
 346              		.file 2 "c:\\program files (x86)\\gnu tools arm embedded\\8 2018-q4-major\\arm-none-eabi\\include\
 347              		.file 3 "c:\\program files (x86)\\gnu tools arm embedded\\8 2018-q4-major\\arm-none-eabi\\include\
 348              		.file 4 "c:\\program files (x86)\\gnu tools arm embedded\\8 2018-q4-major\\lib\\gcc\\arm-none-eabi
 349              		.file 5 "c:\\program files (x86)\\gnu tools arm embedded\\8 2018-q4-major\\arm-none-eabi\\include\
 350              		.file 6 "..\\..\\..\\..\\..\\..\\Software\\uC-CPU\\ARM-Cortex-M0\\GNU/cpu.h"
 351              		.file 7 "..\\..\\..\\..\\..\\..\\Software\\uC-CPU/cpu_core.h"
 352              		.file 8 "..\\..\\..\\..\\..\\..\\Software\\uCOS-III\\Source/os_type.h"
 353              		.file 9 "..\\..\\..\\..\\..\\..\\Software\\uCOS-III\\Ports\\ARM-Cortex-M0\\Generic\\GNU/os_cpu.h"
 354              		.file 10 "..\\..\\..\\..\\..\\..\\Software\\uCOS-III\\Source/os.h"
 355              		.file 11 "..\\..\\..\\BSP\\OS\\uCOS-III/bsp_os.h"
 356              		.file 12 "Generated_Source\\PSoC4/cytypes.h"
 357              		.file 13 "c:\\program files (x86)\\gnu tools arm embedded\\8 2018-q4-major\\arm-none-eabi\\include
 358              		.file 14 "Generated_Source\\PSoC4/CyLib.h"
 359              		.file 15 "Generated_Source\\PSoC4/PWM_Red.h"
 360              		.file 16 "Generated_Source\\PSoC4/PWM_Green.h"
 361              		.file 17 "Generated_Source\\PSoC4/PWM_Blue.h"
 362              		.file 18 "Generated_Source\\PSoC4/Temp_Sensor.h"
 363              		.file 19 "Generated_Source\\PSoC4/ADC.h"
 364              		.file 20 "Generated_Source\\PSoC4/Opamp.h"
 365              		.file 21 "Generated_Source\\PSoC4/I2C.h"