ARM GAS  C:\Users\EDULU~1.DES\AppData\Local\Temp\ccXvCWxH.s 			page 1


   1              		.cpu cortex-m0
   2              		.eabi_attribute 20, 1
   3              		.eabi_attribute 21, 1
   4              		.eabi_attribute 23, 3
   5              		.eabi_attribute 24, 1
   6              		.eabi_attribute 25, 1
   7              		.eabi_attribute 26, 1
   8              		.eabi_attribute 30, 1
   9              		.eabi_attribute 34, 0
  10              		.eabi_attribute 18, 4
  11              		.file	"cpu_bsp.c"
  12              		.text
  13              	.Ltext0:
  14              		.cfi_sections	.debug_frame
  15              		.section	.text.CPU_TS_TmrInit,"ax",%progbits
  16              		.align	1
  17              		.global	CPU_TS_TmrInit
  18              		.arch armv6s-m
  19              		.syntax unified
  20              		.code	16
  21              		.thumb_func
  22              		.fpu softvfp
  23              		.type	CPU_TS_TmrInit, %function
  24              	CPU_TS_TmrInit:
  25              	.LFB3:
  26              		.file 1 "..\\..\\..\\BSP\\cpu_bsp.c"
   1:..\..\..\BSP/cpu_bsp.c **** /*
   2:..\..\..\BSP/cpu_bsp.c **** ***************************************************************************************************
   3:..\..\..\BSP/cpu_bsp.c **** *                                                uC/CPU
   4:..\..\..\BSP/cpu_bsp.c **** *                                    CPU CONFIGURATION & PORT LAYER
   5:..\..\..\BSP/cpu_bsp.c **** *
   6:..\..\..\BSP/cpu_bsp.c **** *                          (c) Copyright 2004-2015; Micrium, Inc.; Weston, FL
   7:..\..\..\BSP/cpu_bsp.c **** *
   8:..\..\..\BSP/cpu_bsp.c **** *               All rights reserved.  Protected by international copyright laws.
   9:..\..\..\BSP/cpu_bsp.c **** *
  10:..\..\..\BSP/cpu_bsp.c **** *               uC/CPU is provided in source form to registered licensees ONLY.  It is 
  11:..\..\..\BSP/cpu_bsp.c **** *               illegal to distribute this source code to any third party unless you receive 
  12:..\..\..\BSP/cpu_bsp.c **** *               written permission by an authorized Micrium representative.  Knowledge of 
  13:..\..\..\BSP/cpu_bsp.c **** *               the source code may NOT be used to develop a similar product.
  14:..\..\..\BSP/cpu_bsp.c **** *
  15:..\..\..\BSP/cpu_bsp.c **** *               Please help us continue to provide the Embedded community with the finest 
  16:..\..\..\BSP/cpu_bsp.c **** *               software available.  Your honesty is greatly appreciated.
  17:..\..\..\BSP/cpu_bsp.c **** *
  18:..\..\..\BSP/cpu_bsp.c **** *               You can contact us at www.micrium.com.
  19:..\..\..\BSP/cpu_bsp.c **** ***************************************************************************************************
  20:..\..\..\BSP/cpu_bsp.c **** */
  21:..\..\..\BSP/cpu_bsp.c **** 
  22:..\..\..\BSP/cpu_bsp.c **** /*
  23:..\..\..\BSP/cpu_bsp.c **** ***************************************************************************************************
  24:..\..\..\BSP/cpu_bsp.c **** *                               CPU BOARD SUPPORT PACKAGE (BSP) FUNCTIONS
  25:..\..\..\BSP/cpu_bsp.c **** *
  26:..\..\..\BSP/cpu_bsp.c **** *                                           CYPRESS PSoC4
  27:..\..\..\BSP/cpu_bsp.c **** *                                              with the
  28:..\..\..\BSP/cpu_bsp.c **** *                                     CY8CKIT-044 Development Kit
  29:..\..\..\BSP/cpu_bsp.c **** *
  30:..\..\..\BSP/cpu_bsp.c **** * Filename      : cpu_bsp.c
  31:..\..\..\BSP/cpu_bsp.c **** * Version       : V1.25
ARM GAS  C:\Users\EDULU~1.DES\AppData\Local\Temp\ccXvCWxH.s 			page 2


  32:..\..\..\BSP/cpu_bsp.c **** * Programmer(s) : ITJ
  33:..\..\..\BSP/cpu_bsp.c **** *                 DC
  34:..\..\..\BSP/cpu_bsp.c **** ***************************************************************************************************
  35:..\..\..\BSP/cpu_bsp.c **** */
  36:..\..\..\BSP/cpu_bsp.c **** 
  37:..\..\..\BSP/cpu_bsp.c **** 
  38:..\..\..\BSP/cpu_bsp.c **** /*
  39:..\..\..\BSP/cpu_bsp.c **** ***************************************************************************************************
  40:..\..\..\BSP/cpu_bsp.c **** *                                            INCLUDE FILES
  41:..\..\..\BSP/cpu_bsp.c **** ***************************************************************************************************
  42:..\..\..\BSP/cpu_bsp.c **** */
  43:..\..\..\BSP/cpu_bsp.c **** 
  44:..\..\..\BSP/cpu_bsp.c **** #define    CPU_BSP_MODULE
  45:..\..\..\BSP/cpu_bsp.c **** #include  <cpu_core.h>
  46:..\..\..\BSP/cpu_bsp.c **** #include  "bsp.h"
  47:..\..\..\BSP/cpu_bsp.c **** 
  48:..\..\..\BSP/cpu_bsp.c **** 
  49:..\..\..\BSP/cpu_bsp.c **** /*
  50:..\..\..\BSP/cpu_bsp.c **** ***************************************************************************************************
  51:..\..\..\BSP/cpu_bsp.c **** *                                            LOCAL DEFINES
  52:..\..\..\BSP/cpu_bsp.c **** ***************************************************************************************************
  53:..\..\..\BSP/cpu_bsp.c **** */
  54:..\..\..\BSP/cpu_bsp.c **** 
  55:..\..\..\BSP/cpu_bsp.c **** #define  CPU_BSP_REG_DEMCR             (*(CPU_REG32 *)0xE000EDFCu)
  56:..\..\..\BSP/cpu_bsp.c **** #define  CPU_BSP_REG_DWT_CR            (*(CPU_REG32 *)0xE0001000u)
  57:..\..\..\BSP/cpu_bsp.c **** #define  CPU_BSP_REG_DWT_CYCCNT        (*(CPU_REG32 *)0xE0001004u)
  58:..\..\..\BSP/cpu_bsp.c **** 
  59:..\..\..\BSP/cpu_bsp.c **** 
  60:..\..\..\BSP/cpu_bsp.c **** /*
  61:..\..\..\BSP/cpu_bsp.c **** ***************************************************************************************************
  62:..\..\..\BSP/cpu_bsp.c **** *                                           LOCAL CONSTANTS
  63:..\..\..\BSP/cpu_bsp.c **** ***************************************************************************************************
  64:..\..\..\BSP/cpu_bsp.c **** */
  65:..\..\..\BSP/cpu_bsp.c **** 
  66:..\..\..\BSP/cpu_bsp.c **** 
  67:..\..\..\BSP/cpu_bsp.c **** /*
  68:..\..\..\BSP/cpu_bsp.c **** ***************************************************************************************************
  69:..\..\..\BSP/cpu_bsp.c **** *                                          LOCAL DATA TYPES
  70:..\..\..\BSP/cpu_bsp.c **** ***************************************************************************************************
  71:..\..\..\BSP/cpu_bsp.c **** */
  72:..\..\..\BSP/cpu_bsp.c **** 
  73:..\..\..\BSP/cpu_bsp.c **** 
  74:..\..\..\BSP/cpu_bsp.c **** /*
  75:..\..\..\BSP/cpu_bsp.c **** ***************************************************************************************************
  76:..\..\..\BSP/cpu_bsp.c **** *                                            LOCAL TABLES
  77:..\..\..\BSP/cpu_bsp.c **** ***************************************************************************************************
  78:..\..\..\BSP/cpu_bsp.c **** */
  79:..\..\..\BSP/cpu_bsp.c **** 
  80:..\..\..\BSP/cpu_bsp.c **** 
  81:..\..\..\BSP/cpu_bsp.c **** /*
  82:..\..\..\BSP/cpu_bsp.c **** ***************************************************************************************************
  83:..\..\..\BSP/cpu_bsp.c **** *                                       LOCAL GLOBAL VARIABLES
  84:..\..\..\BSP/cpu_bsp.c **** ***************************************************************************************************
  85:..\..\..\BSP/cpu_bsp.c **** */
  86:..\..\..\BSP/cpu_bsp.c **** 
  87:..\..\..\BSP/cpu_bsp.c **** 
  88:..\..\..\BSP/cpu_bsp.c **** /*
ARM GAS  C:\Users\EDULU~1.DES\AppData\Local\Temp\ccXvCWxH.s 			page 3


  89:..\..\..\BSP/cpu_bsp.c **** ***************************************************************************************************
  90:..\..\..\BSP/cpu_bsp.c **** *                                      LOCAL FUNCTION PROTOTYPES
  91:..\..\..\BSP/cpu_bsp.c **** ***************************************************************************************************
  92:..\..\..\BSP/cpu_bsp.c **** */
  93:..\..\..\BSP/cpu_bsp.c **** 
  94:..\..\..\BSP/cpu_bsp.c **** 
  95:..\..\..\BSP/cpu_bsp.c **** /*
  96:..\..\..\BSP/cpu_bsp.c **** ***************************************************************************************************
  97:..\..\..\BSP/cpu_bsp.c **** *                                     LOCAL CONFIGURATION ERRORS
  98:..\..\..\BSP/cpu_bsp.c **** ***************************************************************************************************
  99:..\..\..\BSP/cpu_bsp.c **** */
 100:..\..\..\BSP/cpu_bsp.c **** 
 101:..\..\..\BSP/cpu_bsp.c **** 
 102:..\..\..\BSP/cpu_bsp.c **** /*
 103:..\..\..\BSP/cpu_bsp.c **** ***************************************************************************************************
 104:..\..\..\BSP/cpu_bsp.c **** *                                          CPU_TS_TmrInit()
 105:..\..\..\BSP/cpu_bsp.c **** *
 106:..\..\..\BSP/cpu_bsp.c **** * Description : Initialize & start CPU timestamp timer.
 107:..\..\..\BSP/cpu_bsp.c **** *
 108:..\..\..\BSP/cpu_bsp.c **** * Argument(s) : none.
 109:..\..\..\BSP/cpu_bsp.c **** *
 110:..\..\..\BSP/cpu_bsp.c **** * Return(s)   : none.
 111:..\..\..\BSP/cpu_bsp.c **** *
 112:..\..\..\BSP/cpu_bsp.c **** * Caller(s)   : CPU_TS_Init().
 113:..\..\..\BSP/cpu_bsp.c **** *
 114:..\..\..\BSP/cpu_bsp.c **** *               This function is an INTERNAL CPU module function & MUST be implemented by applicati
 115:..\..\..\BSP/cpu_bsp.c **** *               BSP function(s) [see Note #1] but MUST NOT be called by application function(s).
 116:..\..\..\BSP/cpu_bsp.c **** *
 117:..\..\..\BSP/cpu_bsp.c **** * Note(s)     : (1) CPU_TS_TmrInit() is an application/BSP function that MUST be defined by the dev
 118:..\..\..\BSP/cpu_bsp.c **** *                   if either of the following CPU features is enabled :
 119:..\..\..\BSP/cpu_bsp.c **** *
 120:..\..\..\BSP/cpu_bsp.c **** *                   (a) CPU timestamps
 121:..\..\..\BSP/cpu_bsp.c **** *                   (b) CPU interrupts disabled time measurements
 122:..\..\..\BSP/cpu_bsp.c **** *
 123:..\..\..\BSP/cpu_bsp.c **** *                   See 'cpu_cfg.h  CPU TIMESTAMP CONFIGURATION  Note #1'
 124:..\..\..\BSP/cpu_bsp.c **** *                     & 'cpu_cfg.h  CPU INTERRUPTS DISABLED TIME MEASUREMENT CONFIGURATION  Note #1
 125:..\..\..\BSP/cpu_bsp.c **** *
 126:..\..\..\BSP/cpu_bsp.c **** *               (2) (a) Timer count values MUST be returned via word-size-configurable 'CPU_TS_TMR'
 127:..\..\..\BSP/cpu_bsp.c **** *                       data type.
 128:..\..\..\BSP/cpu_bsp.c **** *
 129:..\..\..\BSP/cpu_bsp.c **** *                       (1) If timer has more bits, truncate timer values' higher-order bits greate
 130:..\..\..\BSP/cpu_bsp.c **** *                           than the configured 'CPU_TS_TMR' timestamp timer data type word size.
 131:..\..\..\BSP/cpu_bsp.c **** *
 132:..\..\..\BSP/cpu_bsp.c **** *                       (2) Since the timer MUST NOT have less bits than the configured 'CPU_TS_TMR
 133:..\..\..\BSP/cpu_bsp.c **** *                           timestamp timer data type word size; 'CPU_CFG_TS_TMR_SIZE' MUST be 
 134:..\..\..\BSP/cpu_bsp.c **** *                           configured so that ALL bits in 'CPU_TS_TMR' data type are significant.
 135:..\..\..\BSP/cpu_bsp.c **** *
 136:..\..\..\BSP/cpu_bsp.c **** *                           In other words, if timer size is not a binary-multiple of 8-bit octets 
 137:..\..\..\BSP/cpu_bsp.c **** *                           (e.g. 20-bits or even 24-bits), then the next lower, binary-multiple 
 138:..\..\..\BSP/cpu_bsp.c **** *                           octet word size SHOULD be configured (e.g. to 16-bits).  However, the 
 139:..\..\..\BSP/cpu_bsp.c **** *                           minimum supported word size for CPU timestamp timers is 8-bits.
 140:..\..\..\BSP/cpu_bsp.c **** *
 141:..\..\..\BSP/cpu_bsp.c **** *                       See also 'cpu_cfg.h   CPU TIMESTAMP CONFIGURATION  Note #2'
 142:..\..\..\BSP/cpu_bsp.c **** *                              & 'cpu_core.h  CPU TIMESTAMP DATA TYPES     Note #1'.
 143:..\..\..\BSP/cpu_bsp.c **** *
 144:..\..\..\BSP/cpu_bsp.c **** *                   (b) Timer SHOULD be an 'up'  counter whose values increase with each time count
 145:..\..\..\BSP/cpu_bsp.c **** *
ARM GAS  C:\Users\EDULU~1.DES\AppData\Local\Temp\ccXvCWxH.s 			page 4


 146:..\..\..\BSP/cpu_bsp.c **** *                   (c) When applicable, timer period SHOULD be less than the typical measured time
 147:..\..\..\BSP/cpu_bsp.c **** *                       but MUST be less than the maximum measured time; otherwise, timer resolutio
 148:..\..\..\BSP/cpu_bsp.c **** *                       inadequate to measure desired times.
 149:..\..\..\BSP/cpu_bsp.c **** *
 150:..\..\..\BSP/cpu_bsp.c **** *                   See also 'CPU_TS_TmrRd()  Note #2'.
 151:..\..\..\BSP/cpu_bsp.c **** ***************************************************************************************************
 152:..\..\..\BSP/cpu_bsp.c **** */
 153:..\..\..\BSP/cpu_bsp.c **** 
 154:..\..\..\BSP/cpu_bsp.c **** #if (CPU_CFG_TS_TMR_EN == DEF_ENABLED)
 155:..\..\..\BSP/cpu_bsp.c **** void  CPU_TS_TmrInit (void)
 156:..\..\..\BSP/cpu_bsp.c **** {
  27              		.loc 1 156 1 view -0
  28              		.cfi_startproc
  29              		@ args = 0, pretend = 0, frame = 0
  30              		@ frame_needed = 0, uses_anonymous_args = 0
  31 0000 10B5     		push	{r4, lr}
  32              		.cfi_def_cfa_offset 8
  33              		.cfi_offset 4, -8
  34              		.cfi_offset 14, -4
 157:..\..\..\BSP/cpu_bsp.c ****     CPU_INT32U  fclk_freq;
  35              		.loc 1 157 5 view .LVU1
 158:..\..\..\BSP/cpu_bsp.c ****     
 159:..\..\..\BSP/cpu_bsp.c ****     fclk_freq = BSP_CPU_ClkFreq();
  36              		.loc 1 159 5 view .LVU2
  37              		.loc 1 159 17 is_stmt 0 view .LVU3
  38 0002 FFF7FEFF 		bl	BSP_CPU_ClkFreq
  39              	.LVL0:
 160:..\..\..\BSP/cpu_bsp.c ****     
 161:..\..\..\BSP/cpu_bsp.c ****     CPU_BSP_REG_DEMCR  |= DEF_BIT_24;
  40              		.loc 1 161 5 is_stmt 1 view .LVU4
  41              		.loc 1 161 24 is_stmt 0 view .LVU5
  42 0006 074A     		ldr	r2, .L2
  43 0008 1168     		ldr	r1, [r2]
  44 000a 8023     		movs	r3, #128
  45 000c 5B04     		lsls	r3, r3, #17
  46 000e 0B43     		orrs	r3, r1
  47 0010 1360     		str	r3, [r2]
 162:..\..\..\BSP/cpu_bsp.c ****     CPU_BSP_REG_DWT_CR |= DEF_BIT_00;
  48              		.loc 1 162 5 is_stmt 1 view .LVU6
  49              		.loc 1 162 24 is_stmt 0 view .LVU7
  50 0012 054A     		ldr	r2, .L2+4
  51 0014 1368     		ldr	r3, [r2]
  52 0016 0121     		movs	r1, #1
  53 0018 0B43     		orrs	r3, r1
  54 001a 1360     		str	r3, [r2]
 163:..\..\..\BSP/cpu_bsp.c **** 
 164:..\..\..\BSP/cpu_bsp.c ****     CPU_TS_TmrFreqSet((CPU_TS_TMR_FREQ)fclk_freq);    
  55              		.loc 1 164 5 is_stmt 1 view .LVU8
  56 001c FFF7FEFF 		bl	CPU_TS_TmrFreqSet
  57              	.LVL1:
 165:..\..\..\BSP/cpu_bsp.c **** }
  58              		.loc 1 165 1 is_stmt 0 view .LVU9
  59              		@ sp needed
  60 0020 10BD     		pop	{r4, pc}
  61              	.L3:
  62 0022 C046     		.align	2
  63              	.L2:
ARM GAS  C:\Users\EDULU~1.DES\AppData\Local\Temp\ccXvCWxH.s 			page 5


  64 0024 FCED00E0 		.word	-536809988
  65 0028 001000E0 		.word	-536866816
  66              		.cfi_endproc
  67              	.LFE3:
  68              		.size	CPU_TS_TmrInit, .-CPU_TS_TmrInit
  69              		.section	.text.CPU_TS_TmrRd,"ax",%progbits
  70              		.align	1
  71              		.global	CPU_TS_TmrRd
  72              		.syntax unified
  73              		.code	16
  74              		.thumb_func
  75              		.fpu softvfp
  76              		.type	CPU_TS_TmrRd, %function
  77              	CPU_TS_TmrRd:
  78              	.LFB4:
 166:..\..\..\BSP/cpu_bsp.c **** #endif
 167:..\..\..\BSP/cpu_bsp.c **** 
 168:..\..\..\BSP/cpu_bsp.c **** 
 169:..\..\..\BSP/cpu_bsp.c **** /*
 170:..\..\..\BSP/cpu_bsp.c **** ***************************************************************************************************
 171:..\..\..\BSP/cpu_bsp.c **** *                                           CPU_TS_TmrRd()
 172:..\..\..\BSP/cpu_bsp.c **** *
 173:..\..\..\BSP/cpu_bsp.c **** * Description : Get current CPU timestamp timer count value.
 174:..\..\..\BSP/cpu_bsp.c **** *
 175:..\..\..\BSP/cpu_bsp.c **** * Argument(s) : none.
 176:..\..\..\BSP/cpu_bsp.c **** *
 177:..\..\..\BSP/cpu_bsp.c **** * Return(s)   : Timestamp timer count (see Notes #2a & #2b).
 178:..\..\..\BSP/cpu_bsp.c **** *
 179:..\..\..\BSP/cpu_bsp.c **** * Caller(s)   : CPU_TS_Init(),
 180:..\..\..\BSP/cpu_bsp.c **** *               CPU_TS_Get32(),
 181:..\..\..\BSP/cpu_bsp.c **** *               CPU_TS_Get64(),
 182:..\..\..\BSP/cpu_bsp.c **** *               CPU_IntDisMeasStart(),
 183:..\..\..\BSP/cpu_bsp.c **** *               CPU_IntDisMeasStop().
 184:..\..\..\BSP/cpu_bsp.c **** *
 185:..\..\..\BSP/cpu_bsp.c **** *               This function is an INTERNAL CPU module function & MUST be implemented by applicati
 186:..\..\..\BSP/cpu_bsp.c **** *               BSP function(s) [see Note #1] but SHOULD NOT be called by application function(s).
 187:..\..\..\BSP/cpu_bsp.c **** *
 188:..\..\..\BSP/cpu_bsp.c **** * Note(s)     : (1) CPU_TS_TmrRd() is an application/BSP function that MUST be defined by the devel
 189:..\..\..\BSP/cpu_bsp.c **** *                   if either of the following CPU features is enabled :
 190:..\..\..\BSP/cpu_bsp.c **** *
 191:..\..\..\BSP/cpu_bsp.c **** *                   (a) CPU timestamps
 192:..\..\..\BSP/cpu_bsp.c **** *                   (b) CPU interrupts disabled time measurements
 193:..\..\..\BSP/cpu_bsp.c **** *
 194:..\..\..\BSP/cpu_bsp.c **** *                   See 'cpu_cfg.h  CPU TIMESTAMP CONFIGURATION  Note #1'
 195:..\..\..\BSP/cpu_bsp.c **** *                     & 'cpu_cfg.h  CPU INTERRUPTS DISABLED TIME MEASUREMENT CONFIGURATION  Note #1
 196:..\..\..\BSP/cpu_bsp.c **** *
 197:..\..\..\BSP/cpu_bsp.c **** *               (2) (a) Timer count values MUST be returned via word-size-configurable 'CPU_TS_TMR'
 198:..\..\..\BSP/cpu_bsp.c **** *                       data type.
 199:..\..\..\BSP/cpu_bsp.c **** *
 200:..\..\..\BSP/cpu_bsp.c **** *                       (1) If timer has more bits, truncate timer values' higher-order bits greate
 201:..\..\..\BSP/cpu_bsp.c **** *                           than the configured 'CPU_TS_TMR' timestamp timer data type word size.
 202:..\..\..\BSP/cpu_bsp.c **** *
 203:..\..\..\BSP/cpu_bsp.c **** *                       (2) Since the timer MUST NOT have less bits than the configured 'CPU_TS_TMR
 204:..\..\..\BSP/cpu_bsp.c **** *                           timestamp timer data type word size; 'CPU_CFG_TS_TMR_SIZE' MUST be 
 205:..\..\..\BSP/cpu_bsp.c **** *                           configured so that ALL bits in 'CPU_TS_TMR' data type are significant.
 206:..\..\..\BSP/cpu_bsp.c **** *
 207:..\..\..\BSP/cpu_bsp.c **** *                           In other words, if timer size is not a binary-multiple of 8-bit octets 
ARM GAS  C:\Users\EDULU~1.DES\AppData\Local\Temp\ccXvCWxH.s 			page 6


 208:..\..\..\BSP/cpu_bsp.c **** *                           (e.g. 20-bits or even 24-bits), then the next lower, binary-multiple 
 209:..\..\..\BSP/cpu_bsp.c **** *                           octet word size SHOULD be configured (e.g. to 16-bits).  However, the 
 210:..\..\..\BSP/cpu_bsp.c **** *                           minimum supported word size for CPU timestamp timers is 8-bits.
 211:..\..\..\BSP/cpu_bsp.c **** *
 212:..\..\..\BSP/cpu_bsp.c **** *                       See also 'cpu_cfg.h   CPU TIMESTAMP CONFIGURATION  Note #2'
 213:..\..\..\BSP/cpu_bsp.c **** *                              & 'cpu_core.h  CPU TIMESTAMP DATA TYPES     Note #1'.
 214:..\..\..\BSP/cpu_bsp.c **** *
 215:..\..\..\BSP/cpu_bsp.c **** *                   (b) Timer SHOULD be an 'up'  counter whose values increase with each time count
 216:..\..\..\BSP/cpu_bsp.c **** *
 217:..\..\..\BSP/cpu_bsp.c **** *                       (1) If timer is a 'down' counter whose values decrease with each time count
 218:..\..\..\BSP/cpu_bsp.c **** *                           then the returned timer value MUST be ones-complemented.
 219:..\..\..\BSP/cpu_bsp.c **** *
 220:..\..\..\BSP/cpu_bsp.c **** *                   (c) (1) When applicable, the amount of time measured by CPU timestamps is 
 221:..\..\..\BSP/cpu_bsp.c **** *                           calculated by either of the following equations :
 222:..\..\..\BSP/cpu_bsp.c **** *
 223:..\..\..\BSP/cpu_bsp.c **** *                           (A) Time measured  =  Number timer counts  *  Timer period
 224:..\..\..\BSP/cpu_bsp.c **** *
 225:..\..\..\BSP/cpu_bsp.c **** *                                   where
 226:..\..\..\BSP/cpu_bsp.c **** *
 227:..\..\..\BSP/cpu_bsp.c **** *                                       Number timer counts     Number of timer counts measured 
 228:..\..\..\BSP/cpu_bsp.c **** *                                       Timer period            Timer's period in some units of 
 229:..\..\..\BSP/cpu_bsp.c **** *                                                                   (fractional) seconds
 230:..\..\..\BSP/cpu_bsp.c **** *                                       Time measured           Amount of time measured, in same 
 231:..\..\..\BSP/cpu_bsp.c **** *                                                                   units of (fractional) seconds 
 232:..\..\..\BSP/cpu_bsp.c **** *                                                                   as the Timer period
 233:..\..\..\BSP/cpu_bsp.c **** *
 234:..\..\..\BSP/cpu_bsp.c **** *                                                  Number timer counts
 235:..\..\..\BSP/cpu_bsp.c **** *                           (B) Time measured  =  ---------------------
 236:..\..\..\BSP/cpu_bsp.c **** *                                                    Timer frequency
 237:..\..\..\BSP/cpu_bsp.c **** *
 238:..\..\..\BSP/cpu_bsp.c **** *                                   where
 239:..\..\..\BSP/cpu_bsp.c **** *
 240:..\..\..\BSP/cpu_bsp.c **** *                                       Number timer counts     Number of timer counts measured
 241:..\..\..\BSP/cpu_bsp.c **** *                                       Timer frequency         Timer's frequency in some units 
 242:..\..\..\BSP/cpu_bsp.c **** *                                                                   of counts per second
 243:..\..\..\BSP/cpu_bsp.c **** *                                       Time measured           Amount of time measured, in seconds
 244:..\..\..\BSP/cpu_bsp.c **** *
 245:..\..\..\BSP/cpu_bsp.c **** *                       (2) Timer period SHOULD be less than the typical measured time but MUST be 
 246:..\..\..\BSP/cpu_bsp.c **** *                           than the maximum measured time; otherwise, timer resolution inadequate 
 247:..\..\..\BSP/cpu_bsp.c **** *                           measure desired times.
 248:..\..\..\BSP/cpu_bsp.c **** ***************************************************************************************************
 249:..\..\..\BSP/cpu_bsp.c **** */
 250:..\..\..\BSP/cpu_bsp.c **** 
 251:..\..\..\BSP/cpu_bsp.c **** #if (CPU_CFG_TS_TMR_EN == DEF_ENABLED)
 252:..\..\..\BSP/cpu_bsp.c **** CPU_TS_TMR  CPU_TS_TmrRd (void)
 253:..\..\..\BSP/cpu_bsp.c **** {
  79              		.loc 1 253 1 is_stmt 1 view -0
  80              		.cfi_startproc
  81              		@ args = 0, pretend = 0, frame = 0
  82              		@ frame_needed = 0, uses_anonymous_args = 0
  83              		@ link register save eliminated.
 254:..\..\..\BSP/cpu_bsp.c ****     CPU_TS_TMR  ts_tmr_cnts;
  84              		.loc 1 254 5 view .LVU11
 255:..\..\..\BSP/cpu_bsp.c **** 
 256:..\..\..\BSP/cpu_bsp.c ****                                                                 
 257:..\..\..\BSP/cpu_bsp.c ****     ts_tmr_cnts  = (CPU_TS_TMR)CPU_BSP_REG_DWT_CYCCNT;
  85              		.loc 1 257 5 view .LVU12
ARM GAS  C:\Users\EDULU~1.DES\AppData\Local\Temp\ccXvCWxH.s 			page 7


  86              		.loc 1 257 18 is_stmt 0 view .LVU13
  87 0000 014B     		ldr	r3, .L5
  88 0002 1868     		ldr	r0, [r3]
  89              	.LVL2:
 258:..\..\..\BSP/cpu_bsp.c ****     
 259:..\..\..\BSP/cpu_bsp.c ****     return (ts_tmr_cnts);
  90              		.loc 1 259 5 is_stmt 1 view .LVU14
 260:..\..\..\BSP/cpu_bsp.c **** }
  91              		.loc 1 260 1 is_stmt 0 view .LVU15
  92              		@ sp needed
  93 0004 7047     		bx	lr
  94              	.L6:
  95 0006 C046     		.align	2
  96              	.L5:
  97 0008 041000E0 		.word	-536866812
  98              		.cfi_endproc
  99              	.LFE4:
 100              		.size	CPU_TS_TmrRd, .-CPU_TS_TmrRd
 101              		.global	__aeabi_uldivmod
 102              		.section	.text.CPU_TS32_to_uSec,"ax",%progbits
 103              		.align	1
 104              		.global	CPU_TS32_to_uSec
 105              		.syntax unified
 106              		.code	16
 107              		.thumb_func
 108              		.fpu softvfp
 109              		.type	CPU_TS32_to_uSec, %function
 110              	CPU_TS32_to_uSec:
 111              	.LVL3:
 112              	.LFB5:
 261:..\..\..\BSP/cpu_bsp.c **** #endif
 262:..\..\..\BSP/cpu_bsp.c **** 
 263:..\..\..\BSP/cpu_bsp.c **** 
 264:..\..\..\BSP/cpu_bsp.c **** /*
 265:..\..\..\BSP/cpu_bsp.c **** ***************************************************************************************************
 266:..\..\..\BSP/cpu_bsp.c **** *                                         CPU_TSxx_to_uSec()
 267:..\..\..\BSP/cpu_bsp.c **** *
 268:..\..\..\BSP/cpu_bsp.c **** * Description : Convert a 32-/64-bit CPU timestamp from timer counts to microseconds.
 269:..\..\..\BSP/cpu_bsp.c **** *
 270:..\..\..\BSP/cpu_bsp.c **** * Argument(s) : ts_cnts   CPU timestamp (in timestamp timer counts [see Note #2aA]).
 271:..\..\..\BSP/cpu_bsp.c **** *
 272:..\..\..\BSP/cpu_bsp.c **** * Return(s)   : Converted CPU timestamp (in microseconds           [see Note #2aD]).
 273:..\..\..\BSP/cpu_bsp.c **** *
 274:..\..\..\BSP/cpu_bsp.c **** * Caller(s)   : Application.
 275:..\..\..\BSP/cpu_bsp.c **** *
 276:..\..\..\BSP/cpu_bsp.c **** *               This function is an (optional) CPU module application interface (API) function whic
 277:..\..\..\BSP/cpu_bsp.c **** *               MAY be implemented by application/BSP function(s) [see Note #1] & MAY be called by 
 278:..\..\..\BSP/cpu_bsp.c **** *               application function(s).
 279:..\..\..\BSP/cpu_bsp.c **** *
 280:..\..\..\BSP/cpu_bsp.c **** * Note(s)     : (1) CPU_TS32_to_uSec()/CPU_TS64_to_uSec() are application/BSP functions that MAY be
 281:..\..\..\BSP/cpu_bsp.c **** *                   optionally defined by the developer when either of the following CPU features i
 282:..\..\..\BSP/cpu_bsp.c **** *                   enabled :
 283:..\..\..\BSP/cpu_bsp.c **** *
 284:..\..\..\BSP/cpu_bsp.c **** *                   (a) CPU timestamps
 285:..\..\..\BSP/cpu_bsp.c **** *                   (b) CPU interrupts disabled time measurements
 286:..\..\..\BSP/cpu_bsp.c **** *
 287:..\..\..\BSP/cpu_bsp.c **** *                   See 'cpu_cfg.h  CPU TIMESTAMP CONFIGURATION  Note #1'
ARM GAS  C:\Users\EDULU~1.DES\AppData\Local\Temp\ccXvCWxH.s 			page 8


 288:..\..\..\BSP/cpu_bsp.c **** *                     & 'cpu_cfg.h  CPU INTERRUPTS DISABLED TIME MEASUREMENT CONFIGURATION  Note #1
 289:..\..\..\BSP/cpu_bsp.c **** *
 290:..\..\..\BSP/cpu_bsp.c **** *               (2) (a) The amount of time measured by CPU timestamps is calculated by either of 
 291:..\..\..\BSP/cpu_bsp.c **** *                       the following equations :
 292:..\..\..\BSP/cpu_bsp.c **** *
 293:..\..\..\BSP/cpu_bsp.c **** *                                                                        10^6 microseconds
 294:..\..\..\BSP/cpu_bsp.c **** *                       (1) Time measured  =   Number timer counts   *  -------------------  *  Tim
 295:..\..\..\BSP/cpu_bsp.c **** *                                                                            1 second
 296:..\..\..\BSP/cpu_bsp.c **** *
 297:..\..\..\BSP/cpu_bsp.c **** *                                              Number timer counts       10^6 microseconds
 298:..\..\..\BSP/cpu_bsp.c **** *                       (2) Time measured  =  ---------------------  *  -------------------
 299:..\..\..\BSP/cpu_bsp.c **** *                                                Timer frequency             1 second
 300:..\..\..\BSP/cpu_bsp.c **** *
 301:..\..\..\BSP/cpu_bsp.c **** *                               where
 302:..\..\..\BSP/cpu_bsp.c **** *
 303:..\..\..\BSP/cpu_bsp.c **** *                                   (A) Number timer counts     Number of timer counts measured
 304:..\..\..\BSP/cpu_bsp.c **** *                                   (B) Timer frequency         Timer's frequency in some units 
 305:..\..\..\BSP/cpu_bsp.c **** *                                                                   of counts per second
 306:..\..\..\BSP/cpu_bsp.c **** *                                   (C) Timer period            Timer's period in some units of 
 307:..\..\..\BSP/cpu_bsp.c **** *                                                                   (fractional)  seconds
 308:..\..\..\BSP/cpu_bsp.c **** *                                   (D) Time measured           Amount of time measured, 
 309:..\..\..\BSP/cpu_bsp.c **** *                                                                   in microseconds
 310:..\..\..\BSP/cpu_bsp.c **** *
 311:..\..\..\BSP/cpu_bsp.c **** *                   (b) Timer period SHOULD be less than the typical measured time but MUST be less
 312:..\..\..\BSP/cpu_bsp.c **** *                       than the maximum measured time; otherwise, timer resolution inadequate to 
 313:..\..\..\BSP/cpu_bsp.c **** *                       measure desired times.
 314:..\..\..\BSP/cpu_bsp.c **** *
 315:..\..\..\BSP/cpu_bsp.c **** *                   (c) Specific implementations may convert any number of CPU_TS32 or CPU_TS64 bit
 316:..\..\..\BSP/cpu_bsp.c **** *                       -- up to 32 or 64, respectively -- into microseconds.
 317:..\..\..\BSP/cpu_bsp.c **** ***************************************************************************************************
 318:..\..\..\BSP/cpu_bsp.c **** */
 319:..\..\..\BSP/cpu_bsp.c **** 
 320:..\..\..\BSP/cpu_bsp.c **** #if (CPU_CFG_TS_32_EN == DEF_ENABLED)
 321:..\..\..\BSP/cpu_bsp.c **** CPU_INT64U  CPU_TS32_to_uSec (CPU_TS32  ts_cnts)
 322:..\..\..\BSP/cpu_bsp.c **** {
 113              		.loc 1 322 1 is_stmt 1 view -0
 114              		.cfi_startproc
 115              		@ args = 0, pretend = 0, frame = 0
 116              		@ frame_needed = 0, uses_anonymous_args = 0
 117              		.loc 1 322 1 is_stmt 0 view .LVU17
 118 0000 10B5     		push	{r4, lr}
 119              		.cfi_def_cfa_offset 8
 120              		.cfi_offset 4, -8
 121              		.cfi_offset 14, -4
 122 0002 0400     		movs	r4, r0
 323:..\..\..\BSP/cpu_bsp.c ****     CPU_INT64U  ts_us;
 123              		.loc 1 323 5 is_stmt 1 view .LVU18
 324:..\..\..\BSP/cpu_bsp.c ****     CPU_INT64U  fclk_freq;
 124              		.loc 1 324 5 view .LVU19
 325:..\..\..\BSP/cpu_bsp.c **** 
 326:..\..\..\BSP/cpu_bsp.c ****     
 327:..\..\..\BSP/cpu_bsp.c **** 
 328:..\..\..\BSP/cpu_bsp.c ****     fclk_freq = BSP_CPU_ClkFreq();    
 125              		.loc 1 328 5 view .LVU20
 126              		.loc 1 328 17 is_stmt 0 view .LVU21
 127 0004 FFF7FEFF 		bl	BSP_CPU_ClkFreq
 128              	.LVL4:
ARM GAS  C:\Users\EDULU~1.DES\AppData\Local\Temp\ccXvCWxH.s 			page 9


 329:..\..\..\BSP/cpu_bsp.c ****     ts_us     = ts_cnts / (fclk_freq / DEF_TIME_NBR_uS_PER_SEC);
 129              		.loc 1 329 5 is_stmt 1 view .LVU22
 130              		.loc 1 329 38 is_stmt 0 view .LVU23
 131 0008 054A     		ldr	r2, .L8
 132 000a 0023     		movs	r3, #0
 133 000c 0021     		movs	r1, #0
 134 000e FFF7FEFF 		bl	__aeabi_uldivmod
 135              	.LVL5:
 136              		.loc 1 329 38 view .LVU24
 137 0012 0200     		movs	r2, r0
 138 0014 0B00     		movs	r3, r1
 139              		.loc 1 329 15 view .LVU25
 140 0016 2000     		movs	r0, r4
 141 0018 0021     		movs	r1, #0
 142 001a FFF7FEFF 		bl	__aeabi_uldivmod
 143              	.LVL6:
 330:..\..\..\BSP/cpu_bsp.c **** 
 331:..\..\..\BSP/cpu_bsp.c ****     return (ts_us);
 144              		.loc 1 331 5 is_stmt 1 view .LVU26
 332:..\..\..\BSP/cpu_bsp.c **** }
 145              		.loc 1 332 1 is_stmt 0 view .LVU27
 146              		@ sp needed
 147              	.LVL7:
 148              		.loc 1 332 1 view .LVU28
 149 001e 10BD     		pop	{r4, pc}
 150              	.L9:
 151              		.align	2
 152              	.L8:
 153 0020 40420F00 		.word	1000000
 154              		.cfi_endproc
 155              	.LFE5:
 156              		.size	CPU_TS32_to_uSec, .-CPU_TS32_to_uSec
 157              		.text
 158              	.Letext0:
 159              		.file 2 "..\\..\\..\\..\\..\\..\\Software\\uC-CPU\\ARM-Cortex-M0\\GNU/cpu.h"
 160              		.file 3 "c:\\program files (x86)\\gnu tools arm embedded\\8 2018-q4-major\\arm-none-eabi\\include\
 161              		.file 4 "c:\\program files (x86)\\gnu tools arm embedded\\8 2018-q4-major\\arm-none-eabi\\include\
 162              		.file 5 "c:\\program files (x86)\\gnu tools arm embedded\\8 2018-q4-major\\lib\\gcc\\arm-none-eabi
 163              		.file 6 "c:\\program files (x86)\\gnu tools arm embedded\\8 2018-q4-major\\arm-none-eabi\\include\
 164              		.file 7 "..\\..\\..\\..\\..\\..\\Software\\uC-CPU/cpu_core.h"
 165              		.file 8 "..\\..\\..\\..\\..\\..\\Software\\uCOS-III\\Source/os_type.h"
 166              		.file 9 "..\\..\\..\\..\\..\\..\\Software\\uCOS-III\\Ports\\ARM-Cortex-M0\\Generic\\GNU/os_cpu.h"
 167              		.file 10 "..\\..\\..\\..\\..\\..\\Software\\uCOS-III\\Source/os.h"
 168              		.file 11 "Generated_Source\\PSoC4/cytypes.h"
 169              		.file 12 "c:\\program files (x86)\\gnu tools arm embedded\\8 2018-q4-major\\arm-none-eabi\\include
 170              		.file 13 "Generated_Source\\PSoC4/CyLib.h"
 171              		.file 14 "Generated_Source\\PSoC4/PWM_Red.h"
 172              		.file 15 "Generated_Source\\PSoC4/PWM_Green.h"
 173              		.file 16 "Generated_Source\\PSoC4/PWM_Blue.h"
 174              		.file 17 "Generated_Source\\PSoC4/Temp_Sensor.h"
 175              		.file 18 "Generated_Source\\PSoC4/ADC.h"
 176              		.file 19 "Generated_Source\\PSoC4/Opamp.h"
 177              		.file 20 "Generated_Source\\PSoC4/I2C.h"
 178              		.file 21 "..\\..\\..\\BSP\\bsp.h"