ARM GAS  C:\Users\EDULU~1.DES\AppData\Local\Temp\cc9dcV7d.s 			page 1


   1              		.cpu cortex-m0
   2              		.eabi_attribute 20, 1
   3              		.eabi_attribute 21, 1
   4              		.eabi_attribute 23, 3
   5              		.eabi_attribute 24, 1
   6              		.eabi_attribute 25, 1
   7              		.eabi_attribute 26, 1
   8              		.eabi_attribute 30, 1
   9              		.eabi_attribute 34, 0
  10              		.eabi_attribute 18, 4
  11              		.file	"cy_em_eeprom.c"
  12              		.text
  13              	.Ltext0:
  14              		.cfi_sections	.debug_frame
  15              		.section	.text.FindLastWrittenRow,"ax",%progbits
  16              		.align	1
  17              		.arch armv6s-m
  18              		.syntax unified
  19              		.code	16
  20              		.thumb_func
  21              		.fpu softvfp
  22              		.type	FindLastWrittenRow, %function
  23              	FindLastWrittenRow:
  24              	.LVL0:
  25              	.LFB5:
  26              		.file 1 "Generated_Source\\PSoC4\\cy_em_eeprom.c"
   1:Generated_Source\PSoC4/cy_em_eeprom.c **** /***************************************************************************//**
   2:Generated_Source\PSoC4/cy_em_eeprom.c **** * \file cy_em_eeprom.c
   3:Generated_Source\PSoC4/cy_em_eeprom.c **** * \version 2.20
   4:Generated_Source\PSoC4/cy_em_eeprom.c **** *
   5:Generated_Source\PSoC4/cy_em_eeprom.c **** * \brief
   6:Generated_Source\PSoC4/cy_em_eeprom.c **** *  This file provides source code of the API for the Emulated EEPROM library.
   7:Generated_Source\PSoC4/cy_em_eeprom.c **** *  The Emulated EEPROM API allows creating of an emulated EEPROM in flash that
   8:Generated_Source\PSoC4/cy_em_eeprom.c **** *  has the ability to do wear leveling and restore corrupted data from a
   9:Generated_Source\PSoC4/cy_em_eeprom.c **** *  redundant copy.
  10:Generated_Source\PSoC4/cy_em_eeprom.c **** *
  11:Generated_Source\PSoC4/cy_em_eeprom.c **** ********************************************************************************
  12:Generated_Source\PSoC4/cy_em_eeprom.c **** * \copyright
  13:Generated_Source\PSoC4/cy_em_eeprom.c **** * Copyright 2017, Cypress Semiconductor Corporation.  All rights reserved.
  14:Generated_Source\PSoC4/cy_em_eeprom.c **** * You may use this file only in accordance with the license, terms, conditions,
  15:Generated_Source\PSoC4/cy_em_eeprom.c **** * disclaimers, and limitations in the end user license agreement accompanying
  16:Generated_Source\PSoC4/cy_em_eeprom.c **** * the software package with which this file was provided.
  17:Generated_Source\PSoC4/cy_em_eeprom.c **** *******************************************************************************/
  18:Generated_Source\PSoC4/cy_em_eeprom.c **** 
  19:Generated_Source\PSoC4/cy_em_eeprom.c **** 
  20:Generated_Source\PSoC4/cy_em_eeprom.c **** #include "cytypes.h"
  21:Generated_Source\PSoC4/cy_em_eeprom.c **** #include <string.h>
  22:Generated_Source\PSoC4/cy_em_eeprom.c **** 
  23:Generated_Source\PSoC4/cy_em_eeprom.c **** #if (CYDEV_CHIP_FAMILY_USED == CYDEV_CHIP_FAMILY_PSOC6)
  24:Generated_Source\PSoC4/cy_em_eeprom.c ****     #include "em_eeprom/cy_em_eeprom.h"
  25:Generated_Source\PSoC4/cy_em_eeprom.c **** #else
  26:Generated_Source\PSoC4/cy_em_eeprom.c ****     #include "cy_em_eeprom.h"
  27:Generated_Source\PSoC4/cy_em_eeprom.c **** #endif /* (CYDEV_CHIP_FAMILY_USED == CYDEV_CHIP_FAMILY_PSOC6) */
  28:Generated_Source\PSoC4/cy_em_eeprom.c **** 
  29:Generated_Source\PSoC4/cy_em_eeprom.c **** 
  30:Generated_Source\PSoC4/cy_em_eeprom.c **** #if defined(__cplusplus)
  31:Generated_Source\PSoC4/cy_em_eeprom.c **** extern "C" {
ARM GAS  C:\Users\EDULU~1.DES\AppData\Local\Temp\cc9dcV7d.s 			page 2


  32:Generated_Source\PSoC4/cy_em_eeprom.c **** #endif
  33:Generated_Source\PSoC4/cy_em_eeprom.c **** 
  34:Generated_Source\PSoC4/cy_em_eeprom.c **** 
  35:Generated_Source\PSoC4/cy_em_eeprom.c **** /***************************************
  36:Generated_Source\PSoC4/cy_em_eeprom.c **** * Private Function Prototypes
  37:Generated_Source\PSoC4/cy_em_eeprom.c **** ***************************************/
  38:Generated_Source\PSoC4/cy_em_eeprom.c **** static void FindLastWrittenRow(uint32 * lastWrRowPtr, cy_stc_eeprom_context_t * context);
  39:Generated_Source\PSoC4/cy_em_eeprom.c **** static uint32 GetRowAddrBySeqNum(uint32 seqNum, cy_stc_eeprom_context_t * context);
  40:Generated_Source\PSoC4/cy_em_eeprom.c **** static uint8 CalcChecksum(uint8 rowData[], uint32 len);
  41:Generated_Source\PSoC4/cy_em_eeprom.c **** static void GetNextRowToWrite(uint32 seqNum,
  42:Generated_Source\PSoC4/cy_em_eeprom.c ****                             uint32 * rowToWrPtr,
  43:Generated_Source\PSoC4/cy_em_eeprom.c ****                             uint32 * rowToRdPtr,
  44:Generated_Source\PSoC4/cy_em_eeprom.c ****                             cy_stc_eeprom_context_t * context);
  45:Generated_Source\PSoC4/cy_em_eeprom.c **** static cy_en_em_eeprom_status_t CheckRanges(cy_stc_eeprom_config_t* config);
  46:Generated_Source\PSoC4/cy_em_eeprom.c **** static cy_en_em_eeprom_status_t WriteRow(uint32 rowAddr, uint32 *rowData, cy_stc_eeprom_context_t *
  47:Generated_Source\PSoC4/cy_em_eeprom.c **** static cy_en_em_eeprom_status_t EraseRow(uint32 rowAddr, uint32 ramBuffAddr, cy_stc_eeprom_context_
  48:Generated_Source\PSoC4/cy_em_eeprom.c **** static cy_en_em_eeprom_status_t CheckCrcAndCopy(uint32 startAddr,
  49:Generated_Source\PSoC4/cy_em_eeprom.c ****                                                 uint32 dstAddr,
  50:Generated_Source\PSoC4/cy_em_eeprom.c ****                                                 uint32 rowOffset,
  51:Generated_Source\PSoC4/cy_em_eeprom.c ****                                                 uint32 numBytes,
  52:Generated_Source\PSoC4/cy_em_eeprom.c ****                                                 cy_stc_eeprom_context_t * context);
  53:Generated_Source\PSoC4/cy_em_eeprom.c **** static uint32 GetAddresses(uint32 *startAddr, uint32 *endAddr, uint32 *offset, uint32 rowNum, uint3
  54:Generated_Source\PSoC4/cy_em_eeprom.c **** static cy_en_em_eeprom_status_t FillChecksum(cy_stc_eeprom_context_t * context);
  55:Generated_Source\PSoC4/cy_em_eeprom.c **** 
  56:Generated_Source\PSoC4/cy_em_eeprom.c **** /**
  57:Generated_Source\PSoC4/cy_em_eeprom.c **** * \addtogroup group_em_eeprom_functions
  58:Generated_Source\PSoC4/cy_em_eeprom.c **** * \{
  59:Generated_Source\PSoC4/cy_em_eeprom.c **** */
  60:Generated_Source\PSoC4/cy_em_eeprom.c **** 
  61:Generated_Source\PSoC4/cy_em_eeprom.c **** /*******************************************************************************
  62:Generated_Source\PSoC4/cy_em_eeprom.c **** * Function Name: Cy_Em_EEPROM_Init
  63:Generated_Source\PSoC4/cy_em_eeprom.c **** ****************************************************************************//**
  64:Generated_Source\PSoC4/cy_em_eeprom.c **** *
  65:Generated_Source\PSoC4/cy_em_eeprom.c **** * Initializes the Emulated EEPROM library by filling the context structure. 
  66:Generated_Source\PSoC4/cy_em_eeprom.c **** *
  67:Generated_Source\PSoC4/cy_em_eeprom.c **** * \param config
  68:Generated_Source\PSoC4/cy_em_eeprom.c **** * The pointer to a configuration structure. See \ref cy_stc_eeprom_config_t.
  69:Generated_Source\PSoC4/cy_em_eeprom.c **** *
  70:Generated_Source\PSoC4/cy_em_eeprom.c **** * \param context
  71:Generated_Source\PSoC4/cy_em_eeprom.c **** * The pointer to the EEPROM context structure to be filled by the function.
  72:Generated_Source\PSoC4/cy_em_eeprom.c **** * \ref cy_stc_eeprom_context_t.
  73:Generated_Source\PSoC4/cy_em_eeprom.c **** *
  74:Generated_Source\PSoC4/cy_em_eeprom.c **** * \return
  75:Generated_Source\PSoC4/cy_em_eeprom.c **** * error / status code. See \ref cy_en_em_eeprom_status_t.
  76:Generated_Source\PSoC4/cy_em_eeprom.c **** *
  77:Generated_Source\PSoC4/cy_em_eeprom.c **** * \note
  78:Generated_Source\PSoC4/cy_em_eeprom.c **** * The context structure should not be modified by the user after it is filled
  79:Generated_Source\PSoC4/cy_em_eeprom.c **** * with this function. Modification of context structure may cause the 
  80:Generated_Source\PSoC4/cy_em_eeprom.c **** * unexpected behavior of the Cy_Em_EEPROM API functions which rely on it.
  81:Generated_Source\PSoC4/cy_em_eeprom.c **** *
  82:Generated_Source\PSoC4/cy_em_eeprom.c **** * \note
  83:Generated_Source\PSoC4/cy_em_eeprom.c **** * This function uses a buffer of the flash row size to perform read
  84:Generated_Source\PSoC4/cy_em_eeprom.c **** * operation. For the size of the row refer to the specific PSoC device
  85:Generated_Source\PSoC4/cy_em_eeprom.c **** * datasheet.
  86:Generated_Source\PSoC4/cy_em_eeprom.c **** *
  87:Generated_Source\PSoC4/cy_em_eeprom.c **** * \sideeffect 
  88:Generated_Source\PSoC4/cy_em_eeprom.c **** * If the "Redundant Copy" option is used, the function performs a number of 
ARM GAS  C:\Users\EDULU~1.DES\AppData\Local\Temp\cc9dcV7d.s 			page 3


  89:Generated_Source\PSoC4/cy_em_eeprom.c **** * write operations to the EEPROM to initialize flash rows checksums. Therefore,
  90:Generated_Source\PSoC4/cy_em_eeprom.c **** * Cy_Em_EEPROM_NumWrites(), when it is called right after Cy_Em_EEPROM_Init(), 
  91:Generated_Source\PSoC4/cy_em_eeprom.c **** * will return a non-zero value that identifies the number of writes performed 
  92:Generated_Source\PSoC4/cy_em_eeprom.c **** * by Cy_Em_EEPROM_Init().
  93:Generated_Source\PSoC4/cy_em_eeprom.c **** *
  94:Generated_Source\PSoC4/cy_em_eeprom.c **** *******************************************************************************/
  95:Generated_Source\PSoC4/cy_em_eeprom.c **** cy_en_em_eeprom_status_t Cy_Em_EEPROM_Init(cy_stc_eeprom_config_t* config, cy_stc_eeprom_context_t 
  96:Generated_Source\PSoC4/cy_em_eeprom.c **** {
  97:Generated_Source\PSoC4/cy_em_eeprom.c ****     cy_en_em_eeprom_status_t ret = CY_EM_EEPROM_BAD_PARAM;
  98:Generated_Source\PSoC4/cy_em_eeprom.c **** 
  99:Generated_Source\PSoC4/cy_em_eeprom.c ****     if((NULL != context) && (NULL != config) && (NULL != ((uint32 *)config->userFlashStartAddr)) &&
 100:Generated_Source\PSoC4/cy_em_eeprom.c ****         (config->wearLevelingFactor <= CY_EM_EEPROM_MAX_WEAR_LEVELING_FACTOR) && (config->eepromSiz
 101:Generated_Source\PSoC4/cy_em_eeprom.c ****     {
 102:Generated_Source\PSoC4/cy_em_eeprom.c ****         ret = CheckRanges(config);
 103:Generated_Source\PSoC4/cy_em_eeprom.c **** 
 104:Generated_Source\PSoC4/cy_em_eeprom.c ****         if(CY_EM_EEPROM_SUCCESS == ret)
 105:Generated_Source\PSoC4/cy_em_eeprom.c ****         {
 106:Generated_Source\PSoC4/cy_em_eeprom.c ****             /* Copy the user config structure fields into context */
 107:Generated_Source\PSoC4/cy_em_eeprom.c ****             context->eepromSize = config->eepromSize;
 108:Generated_Source\PSoC4/cy_em_eeprom.c ****             context->wearLevelingFactor = config->wearLevelingFactor;
 109:Generated_Source\PSoC4/cy_em_eeprom.c ****             context->redundantCopy = config->redundantCopy;
 110:Generated_Source\PSoC4/cy_em_eeprom.c ****             context->blockingWrite = config->blockingWrite;
 111:Generated_Source\PSoC4/cy_em_eeprom.c ****             context->userFlashStartAddr = config->userFlashStartAddr;
 112:Generated_Source\PSoC4/cy_em_eeprom.c ****             /* Store frequently used data for internal use */
 113:Generated_Source\PSoC4/cy_em_eeprom.c ****             context->numberOfRows = CY_EM_EEPROM_GET_NUM_ROWS_IN_EEPROM(config->eepromSize);
 114:Generated_Source\PSoC4/cy_em_eeprom.c ****             context->wlEndAddr = ((CY_EM_EEPROM_GET_EEPROM_SIZE(context->numberOfRows) * config->we
 115:Generated_Source\PSoC4/cy_em_eeprom.c ****                     config->userFlashStartAddr);
 116:Generated_Source\PSoC4/cy_em_eeprom.c ****             /* Find last written EEPROM row and store it for quick access */
 117:Generated_Source\PSoC4/cy_em_eeprom.c ****             FindLastWrittenRow(&context->lastWrRowAddr, context);
 118:Generated_Source\PSoC4/cy_em_eeprom.c **** 
 119:Generated_Source\PSoC4/cy_em_eeprom.c ****             if((0u == CY_EM_EEPROM_GET_SEQ_NUM(context->lastWrRowAddr)) && (0u != context->redundan
 120:Generated_Source\PSoC4/cy_em_eeprom.c ****             {
 121:Generated_Source\PSoC4/cy_em_eeprom.c ****                 /* Call the function only after device reprogramming in case
 122:Generated_Source\PSoC4/cy_em_eeprom.c ****                 * if redundant copy is enabled.
 123:Generated_Source\PSoC4/cy_em_eeprom.c ****                 */
 124:Generated_Source\PSoC4/cy_em_eeprom.c ****                 ret = FillChecksum(context);
 125:Generated_Source\PSoC4/cy_em_eeprom.c ****                 
 126:Generated_Source\PSoC4/cy_em_eeprom.c ****                 /* Update the last written EEPROM row for Cy_Em_EEPROM_NumWrites() */
 127:Generated_Source\PSoC4/cy_em_eeprom.c ****                 FindLastWrittenRow(&context->lastWrRowAddr, context);
 128:Generated_Source\PSoC4/cy_em_eeprom.c ****             }
 129:Generated_Source\PSoC4/cy_em_eeprom.c ****         }
 130:Generated_Source\PSoC4/cy_em_eeprom.c ****     }
 131:Generated_Source\PSoC4/cy_em_eeprom.c **** 
 132:Generated_Source\PSoC4/cy_em_eeprom.c ****     return(ret);
 133:Generated_Source\PSoC4/cy_em_eeprom.c **** }
 134:Generated_Source\PSoC4/cy_em_eeprom.c **** 
 135:Generated_Source\PSoC4/cy_em_eeprom.c **** 
 136:Generated_Source\PSoC4/cy_em_eeprom.c **** /*******************************************************************************
 137:Generated_Source\PSoC4/cy_em_eeprom.c **** * Function Name: Cy_Em_EEPROM_Read
 138:Generated_Source\PSoC4/cy_em_eeprom.c **** ****************************************************************************//**
 139:Generated_Source\PSoC4/cy_em_eeprom.c **** *
 140:Generated_Source\PSoC4/cy_em_eeprom.c **** * This function takes the logical EEPROM address, converts it to the actual
 141:Generated_Source\PSoC4/cy_em_eeprom.c **** * physical address where the data is stored and returns the data to the user.
 142:Generated_Source\PSoC4/cy_em_eeprom.c **** *
 143:Generated_Source\PSoC4/cy_em_eeprom.c **** * \param addr
 144:Generated_Source\PSoC4/cy_em_eeprom.c **** * The logical start address in EEPROM to start reading data from.
 145:Generated_Source\PSoC4/cy_em_eeprom.c **** *
ARM GAS  C:\Users\EDULU~1.DES\AppData\Local\Temp\cc9dcV7d.s 			page 4


 146:Generated_Source\PSoC4/cy_em_eeprom.c **** * \param eepromData
 147:Generated_Source\PSoC4/cy_em_eeprom.c **** * The pointer to a user array to write data to.
 148:Generated_Source\PSoC4/cy_em_eeprom.c **** *
 149:Generated_Source\PSoC4/cy_em_eeprom.c **** * \param size
 150:Generated_Source\PSoC4/cy_em_eeprom.c **** * The amount of data to read.
 151:Generated_Source\PSoC4/cy_em_eeprom.c **** *
 152:Generated_Source\PSoC4/cy_em_eeprom.c **** * \param context
 153:Generated_Source\PSoC4/cy_em_eeprom.c **** * The pointer to the EEPROM context structure \ref cy_stc_eeprom_context_t.
 154:Generated_Source\PSoC4/cy_em_eeprom.c **** *
 155:Generated_Source\PSoC4/cy_em_eeprom.c **** * \return
 156:Generated_Source\PSoC4/cy_em_eeprom.c **** * This function returns \ref cy_en_em_eeprom_status_t.
 157:Generated_Source\PSoC4/cy_em_eeprom.c **** *
 158:Generated_Source\PSoC4/cy_em_eeprom.c **** * \note
 159:Generated_Source\PSoC4/cy_em_eeprom.c **** * This function uses a buffer of the flash row size to perform read
 160:Generated_Source\PSoC4/cy_em_eeprom.c **** * operation. For the size of the row refer to the specific PSoC device
 161:Generated_Source\PSoC4/cy_em_eeprom.c **** * datasheet.
 162:Generated_Source\PSoC4/cy_em_eeprom.c **** *
 163:Generated_Source\PSoC4/cy_em_eeprom.c **** * \note
 164:Generated_Source\PSoC4/cy_em_eeprom.c **** * In case if redundant copy option is enabled the function may perform writes
 165:Generated_Source\PSoC4/cy_em_eeprom.c **** * to EEPROM. This is done in case if the data in the EEPPROM is corrupted and
 166:Generated_Source\PSoC4/cy_em_eeprom.c **** * the data in redundant copy is valid based on CRC-8 data integrity check.
 167:Generated_Source\PSoC4/cy_em_eeprom.c **** *
 168:Generated_Source\PSoC4/cy_em_eeprom.c **** *******************************************************************************/
 169:Generated_Source\PSoC4/cy_em_eeprom.c **** cy_en_em_eeprom_status_t Cy_Em_EEPROM_Read(uint32 addr, 
 170:Generated_Source\PSoC4/cy_em_eeprom.c ****                                         void * eepromData, 
 171:Generated_Source\PSoC4/cy_em_eeprom.c ****                                         uint32 size,
 172:Generated_Source\PSoC4/cy_em_eeprom.c ****                                         cy_stc_eeprom_context_t * context)
 173:Generated_Source\PSoC4/cy_em_eeprom.c **** {
 174:Generated_Source\PSoC4/cy_em_eeprom.c ****     cy_en_em_eeprom_status_t ret = CY_EM_EEPROM_BAD_PARAM;
 175:Generated_Source\PSoC4/cy_em_eeprom.c ****     uint32 i;
 176:Generated_Source\PSoC4/cy_em_eeprom.c ****     uint32 numBytesToRead;
 177:Generated_Source\PSoC4/cy_em_eeprom.c ****     uint32 curEepromBaseAddr;
 178:Generated_Source\PSoC4/cy_em_eeprom.c ****     uint32 curRowOffset;
 179:Generated_Source\PSoC4/cy_em_eeprom.c ****     uint32 startRowAddr;
 180:Generated_Source\PSoC4/cy_em_eeprom.c ****     uint32 actEepromRowNum;
 181:Generated_Source\PSoC4/cy_em_eeprom.c ****     uint32 curRdEepromRowNum = 0u;
 182:Generated_Source\PSoC4/cy_em_eeprom.c ****     uint32 dataStartEepromRowNum = 0u;
 183:Generated_Source\PSoC4/cy_em_eeprom.c ****     uint32 eeData = (uint32) eepromData; /* To avoid the pointer arithmetic with void */
 184:Generated_Source\PSoC4/cy_em_eeprom.c **** 
 185:Generated_Source\PSoC4/cy_em_eeprom.c ****     /* Validate input parameters */
 186:Generated_Source\PSoC4/cy_em_eeprom.c ****     if((0u != size) && ((addr + size) <= (context->eepromSize)) && (NULL != eepromData))
 187:Generated_Source\PSoC4/cy_em_eeprom.c ****     {
 188:Generated_Source\PSoC4/cy_em_eeprom.c ****         uint32 rdAddr = addr;
 189:Generated_Source\PSoC4/cy_em_eeprom.c ****         uint32 rdSize = size;
 190:Generated_Source\PSoC4/cy_em_eeprom.c ****         /* Get the sequence number of the last written row */
 191:Generated_Source\PSoC4/cy_em_eeprom.c ****         uint32 seqNum = CY_EM_EEPROM_GET_SEQ_NUM(context->lastWrRowAddr);
 192:Generated_Source\PSoC4/cy_em_eeprom.c ****         uint32 updateAddrFlag = 0u;
 193:Generated_Source\PSoC4/cy_em_eeprom.c **** 
 194:Generated_Source\PSoC4/cy_em_eeprom.c ****         /* Calculate the number of the row read operations. Currently this only concerns
 195:Generated_Source\PSoC4/cy_em_eeprom.c ****         * the reads from the EEPROM data locations.
 196:Generated_Source\PSoC4/cy_em_eeprom.c ****         */
 197:Generated_Source\PSoC4/cy_em_eeprom.c ****         uint32 numRowReads = ((((rdAddr + rdSize) - 1u) / CY_EM_EEPROM_EEPROM_DATA_LEN) -
 198:Generated_Source\PSoC4/cy_em_eeprom.c ****                               (rdAddr / CY_EM_EEPROM_EEPROM_DATA_LEN)) + 1u;
 199:Generated_Source\PSoC4/cy_em_eeprom.c **** 
 200:Generated_Source\PSoC4/cy_em_eeprom.c ****         /* Get the address of the first row of the currently active EEPROM sector. If
 201:Generated_Source\PSoC4/cy_em_eeprom.c ****         * no wear leveling is used - the EEPROM has only one sector, so use the base
 202:Generated_Source\PSoC4/cy_em_eeprom.c ****         * addr stored in "context->userFlashStartAddr".
ARM GAS  C:\Users\EDULU~1.DES\AppData\Local\Temp\cc9dcV7d.s 			page 5


 203:Generated_Source\PSoC4/cy_em_eeprom.c ****         */
 204:Generated_Source\PSoC4/cy_em_eeprom.c ****         curEepromBaseAddr = (((context->lastWrRowAddr - context->userFlashStartAddr) /
 205:Generated_Source\PSoC4/cy_em_eeprom.c ****                               (CY_EM_EEPROM_FLASH_SIZEOF_ROW * context->numberOfRows)) *
 206:Generated_Source\PSoC4/cy_em_eeprom.c ****                               (CY_EM_EEPROM_FLASH_SIZEOF_ROW * context->numberOfRows)) +
 207:Generated_Source\PSoC4/cy_em_eeprom.c ****                                context->userFlashStartAddr;
 208:Generated_Source\PSoC4/cy_em_eeprom.c **** 
 209:Generated_Source\PSoC4/cy_em_eeprom.c ****         /* Find the number of the row that contains the start address of the data */
 210:Generated_Source\PSoC4/cy_em_eeprom.c ****         for(i = 0u; i < context->numberOfRows; i++)
 211:Generated_Source\PSoC4/cy_em_eeprom.c ****         {
 212:Generated_Source\PSoC4/cy_em_eeprom.c ****             if(0u != CY_EM_EEPROM_IS_ADDR_IN_ROW_RANGE(rdAddr, i))
 213:Generated_Source\PSoC4/cy_em_eeprom.c ****             {
 214:Generated_Source\PSoC4/cy_em_eeprom.c ****                 dataStartEepromRowNum = i;
 215:Generated_Source\PSoC4/cy_em_eeprom.c ****                 curRdEepromRowNum = dataStartEepromRowNum;
 216:Generated_Source\PSoC4/cy_em_eeprom.c ****                 break;
 217:Generated_Source\PSoC4/cy_em_eeprom.c ****             }
 218:Generated_Source\PSoC4/cy_em_eeprom.c ****         }
 219:Generated_Source\PSoC4/cy_em_eeprom.c **** 
 220:Generated_Source\PSoC4/cy_em_eeprom.c ****         /* Find the row number of the last written row */
 221:Generated_Source\PSoC4/cy_em_eeprom.c ****         actEepromRowNum = (context->lastWrRowAddr - curEepromBaseAddr) / CY_EM_EEPROM_FLASH_SIZEOF_
 222:Generated_Source\PSoC4/cy_em_eeprom.c **** 
 223:Generated_Source\PSoC4/cy_em_eeprom.c ****         /* Check if wear leveling is used */
 224:Generated_Source\PSoC4/cy_em_eeprom.c ****         if(context->wearLevelingFactor > 1u)
 225:Generated_Source\PSoC4/cy_em_eeprom.c ****         {
 226:Generated_Source\PSoC4/cy_em_eeprom.c ****             uint32 dataEndEepromRowNum = dataStartEepromRowNum + (numRowReads - 1u);
 227:Generated_Source\PSoC4/cy_em_eeprom.c **** 
 228:Generated_Source\PSoC4/cy_em_eeprom.c ****             /* Check if the future validation of the read address is required. */
 229:Generated_Source\PSoC4/cy_em_eeprom.c ****             updateAddrFlag = (dataStartEepromRowNum > actEepromRowNum) ? 1u :
 230:Generated_Source\PSoC4/cy_em_eeprom.c ****                               ((dataEndEepromRowNum > actEepromRowNum) ? 1u : 0u);
 231:Generated_Source\PSoC4/cy_em_eeprom.c ****         }
 232:Generated_Source\PSoC4/cy_em_eeprom.c **** 
 233:Generated_Source\PSoC4/cy_em_eeprom.c ****         /* Copy data from the EEPROM data locations to the user buffer */
 234:Generated_Source\PSoC4/cy_em_eeprom.c ****         for(i = 0u; i < numRowReads; i++)
 235:Generated_Source\PSoC4/cy_em_eeprom.c ****         {
 236:Generated_Source\PSoC4/cy_em_eeprom.c ****             startRowAddr = curEepromBaseAddr + (curRdEepromRowNum * CY_EM_EEPROM_FLASH_SIZEOF_ROW);
 237:Generated_Source\PSoC4/cy_em_eeprom.c ****             curRowOffset = CY_EM_EEPROM_EEPROM_DATA_LEN + (rdAddr % CY_EM_EEPROM_EEPROM_DATA_LEN);
 238:Generated_Source\PSoC4/cy_em_eeprom.c **** 
 239:Generated_Source\PSoC4/cy_em_eeprom.c ****             /* Check if there are more reads pending and update the number of the
 240:Generated_Source\PSoC4/cy_em_eeprom.c ****             * remaining bytes to read respectively.
 241:Generated_Source\PSoC4/cy_em_eeprom.c ****             */
 242:Generated_Source\PSoC4/cy_em_eeprom.c ****             if((i + 1u) < numRowReads)
 243:Generated_Source\PSoC4/cy_em_eeprom.c ****             {
 244:Generated_Source\PSoC4/cy_em_eeprom.c ****                 numBytesToRead = CY_EM_EEPROM_EEPROM_DATA_LEN - (rdAddr % CY_EM_EEPROM_EEPROM_DATA_
 245:Generated_Source\PSoC4/cy_em_eeprom.c ****             }
 246:Generated_Source\PSoC4/cy_em_eeprom.c ****             else
 247:Generated_Source\PSoC4/cy_em_eeprom.c ****             {
 248:Generated_Source\PSoC4/cy_em_eeprom.c ****                 numBytesToRead = rdSize;
 249:Generated_Source\PSoC4/cy_em_eeprom.c ****             }
 250:Generated_Source\PSoC4/cy_em_eeprom.c **** 
 251:Generated_Source\PSoC4/cy_em_eeprom.c ****             /* Check if the read address needs to be updated to point to the correct
 252:Generated_Source\PSoC4/cy_em_eeprom.c ****             * EEPROM sector.
 253:Generated_Source\PSoC4/cy_em_eeprom.c ****             */
 254:Generated_Source\PSoC4/cy_em_eeprom.c ****             if((0u != updateAddrFlag) && (curRdEepromRowNum > actEepromRowNum))
 255:Generated_Source\PSoC4/cy_em_eeprom.c ****             {
 256:Generated_Source\PSoC4/cy_em_eeprom.c ****                 startRowAddr -= context->numberOfRows * CY_EM_EEPROM_FLASH_SIZEOF_ROW;
 257:Generated_Source\PSoC4/cy_em_eeprom.c **** 
 258:Generated_Source\PSoC4/cy_em_eeprom.c ****                 if(startRowAddr < context->userFlashStartAddr)
 259:Generated_Source\PSoC4/cy_em_eeprom.c ****                 {
ARM GAS  C:\Users\EDULU~1.DES\AppData\Local\Temp\cc9dcV7d.s 			page 6


 260:Generated_Source\PSoC4/cy_em_eeprom.c ****                     startRowAddr = context->wlEndAddr -
 261:Generated_Source\PSoC4/cy_em_eeprom.c ****                         ((context->numberOfRows - curRdEepromRowNum) * CY_EM_EEPROM_FLASH_SIZEOF_RO
 262:Generated_Source\PSoC4/cy_em_eeprom.c ****                 }
 263:Generated_Source\PSoC4/cy_em_eeprom.c ****             }
 264:Generated_Source\PSoC4/cy_em_eeprom.c **** 
 265:Generated_Source\PSoC4/cy_em_eeprom.c ****             if(0u != context->redundantCopy)
 266:Generated_Source\PSoC4/cy_em_eeprom.c ****             {
 267:Generated_Source\PSoC4/cy_em_eeprom.c ****                 /* Check a checksum of the EEPROM row and if it is bad, check a checksum in
 268:Generated_Source\PSoC4/cy_em_eeprom.c ****                 * the corresponding row in redundant copy, otherwise return failure.
 269:Generated_Source\PSoC4/cy_em_eeprom.c ****                 */
 270:Generated_Source\PSoC4/cy_em_eeprom.c ****                 ret = CheckCrcAndCopy(startRowAddr, eeData, curRowOffset, numBytesToRead, context);
 271:Generated_Source\PSoC4/cy_em_eeprom.c **** 
 272:Generated_Source\PSoC4/cy_em_eeprom.c ****                 if(CY_EM_EEPROM_SUCCESS != ret)
 273:Generated_Source\PSoC4/cy_em_eeprom.c ****                 {
 274:Generated_Source\PSoC4/cy_em_eeprom.c ****                     break;
 275:Generated_Source\PSoC4/cy_em_eeprom.c ****                 }
 276:Generated_Source\PSoC4/cy_em_eeprom.c ****             }
 277:Generated_Source\PSoC4/cy_em_eeprom.c ****             else
 278:Generated_Source\PSoC4/cy_em_eeprom.c ****             {
 279:Generated_Source\PSoC4/cy_em_eeprom.c ****                 /* Copy the data to the user buffer */
 280:Generated_Source\PSoC4/cy_em_eeprom.c ****                 (void)memcpy((void *)(eeData),
 281:Generated_Source\PSoC4/cy_em_eeprom.c ****                              (void *)(startRowAddr + curRowOffset),
 282:Generated_Source\PSoC4/cy_em_eeprom.c ****                              numBytesToRead);
 283:Generated_Source\PSoC4/cy_em_eeprom.c **** 
 284:Generated_Source\PSoC4/cy_em_eeprom.c ****                 /* Indicate success to be able to execute next code block */
 285:Generated_Source\PSoC4/cy_em_eeprom.c ****                 ret = CY_EM_EEPROM_SUCCESS;
 286:Generated_Source\PSoC4/cy_em_eeprom.c ****             }
 287:Generated_Source\PSoC4/cy_em_eeprom.c **** 
 288:Generated_Source\PSoC4/cy_em_eeprom.c ****             /* Update variables anticipated in the read operation */
 289:Generated_Source\PSoC4/cy_em_eeprom.c ****             rdAddr += numBytesToRead;
 290:Generated_Source\PSoC4/cy_em_eeprom.c ****             rdSize -= numBytesToRead;
 291:Generated_Source\PSoC4/cy_em_eeprom.c ****             eeData += numBytesToRead;
 292:Generated_Source\PSoC4/cy_em_eeprom.c ****             curRdEepromRowNum++;
 293:Generated_Source\PSoC4/cy_em_eeprom.c ****         }
 294:Generated_Source\PSoC4/cy_em_eeprom.c **** 
 295:Generated_Source\PSoC4/cy_em_eeprom.c ****         /* This code block will copy the latest data from the EEPROM headers into the
 296:Generated_Source\PSoC4/cy_em_eeprom.c ****         * user buffer. The data previously copied into the user buffer may be updated
 297:Generated_Source\PSoC4/cy_em_eeprom.c ****         * as the EEPROM headers contain more recent data. 
 298:Generated_Source\PSoC4/cy_em_eeprom.c ****         * The code block is executed when two following conditions are true:
 299:Generated_Source\PSoC4/cy_em_eeprom.c ****         *  1) The reads from "historic" data locations were successful;
 300:Generated_Source\PSoC4/cy_em_eeprom.c ****         *  2) The user performed at least one write operation to Em_EEPROM (0u !=
 301:Generated_Source\PSoC4/cy_em_eeprom.c ****         *     seqNum).        
 302:Generated_Source\PSoC4/cy_em_eeprom.c ****         */
 303:Generated_Source\PSoC4/cy_em_eeprom.c ****         if((CY_EM_EEPROM_SUCCESS == ret) && (0u != seqNum))
 304:Generated_Source\PSoC4/cy_em_eeprom.c ****         {
 305:Generated_Source\PSoC4/cy_em_eeprom.c ****             numRowReads = (context->numberOfRows <= seqNum) ? (context->numberOfRows) : (seqNum);
 306:Generated_Source\PSoC4/cy_em_eeprom.c ****             numRowReads--;
 307:Generated_Source\PSoC4/cy_em_eeprom.c **** 
 308:Generated_Source\PSoC4/cy_em_eeprom.c ****             for(i = (seqNum - numRowReads); i <= seqNum; i++)
 309:Generated_Source\PSoC4/cy_em_eeprom.c ****             {
 310:Generated_Source\PSoC4/cy_em_eeprom.c ****                 startRowAddr = GetRowAddrBySeqNum(i, context);
 311:Generated_Source\PSoC4/cy_em_eeprom.c **** 
 312:Generated_Source\PSoC4/cy_em_eeprom.c ****                 if (0u != startRowAddr)
 313:Generated_Source\PSoC4/cy_em_eeprom.c ****                 {
 314:Generated_Source\PSoC4/cy_em_eeprom.c ****                     /* The following variables are introduced to increase code readability. */
 315:Generated_Source\PSoC4/cy_em_eeprom.c ****                     uint32 startAddr  = *(uint32 *)(startRowAddr + CY_EM_EEPROM_HEADER_ADDR_OFFSET)
 316:Generated_Source\PSoC4/cy_em_eeprom.c ****                     uint32 endAddr    = startAddr + (*(uint32 *)(startRowAddr + CY_EM_EEPROM_HEADER
ARM GAS  C:\Users\EDULU~1.DES\AppData\Local\Temp\cc9dcV7d.s 			page 7


 317:Generated_Source\PSoC4/cy_em_eeprom.c **** 
 318:Generated_Source\PSoC4/cy_em_eeprom.c ****                     /* Check if the current row EEPROM header contains the data requested for read 
 319:Generated_Source\PSoC4/cy_em_eeprom.c ****                     if(0u != CY_EM_EEPROM_IS_ADDRESES_CROSSING(startAddr, endAddr, addr, addr + siz
 320:Generated_Source\PSoC4/cy_em_eeprom.c ****                     {
 321:Generated_Source\PSoC4/cy_em_eeprom.c ****                         uint32 srcOffset = (startAddr > addr) ? (0u) : (addr - startAddr);
 322:Generated_Source\PSoC4/cy_em_eeprom.c ****                         uint32 dstOffset = (startAddr > addr) ? (startAddr - addr): (0u);
 323:Generated_Source\PSoC4/cy_em_eeprom.c ****                         rdAddr = (startAddr > addr) ? (startAddr) : (addr);
 324:Generated_Source\PSoC4/cy_em_eeprom.c **** 
 325:Generated_Source\PSoC4/cy_em_eeprom.c ****                         srcOffset += CY_EM_EEPROM_HEADER_DATA_OFFSET;
 326:Generated_Source\PSoC4/cy_em_eeprom.c **** 
 327:Generated_Source\PSoC4/cy_em_eeprom.c ****                         /* Calculate the number of bytes to be read from the current row's EEPROM h
 328:Generated_Source\PSoC4/cy_em_eeprom.c ****                         numBytesToRead = ((endAddr < (addr + size)) ? endAddr : (addr + size)) - rd
 329:Generated_Source\PSoC4/cy_em_eeprom.c **** 
 330:Generated_Source\PSoC4/cy_em_eeprom.c ****                         /* Calculate the offset in the user buffer from which the data will be upda
 331:Generated_Source\PSoC4/cy_em_eeprom.c ****                         eeData = ((uint32)eepromData) + dstOffset;
 332:Generated_Source\PSoC4/cy_em_eeprom.c **** 
 333:Generated_Source\PSoC4/cy_em_eeprom.c ****                         /* Check a checksum of the EEPROM row and if it is bad, check a checksum in
 334:Generated_Source\PSoC4/cy_em_eeprom.c ****                         * corresponding row in redundant copy, otherwise return failure. Copy the d
 335:Generated_Source\PSoC4/cy_em_eeprom.c ****                         * from the recent EEPROM headers to the user buffer. This will overwrite th
 336:Generated_Source\PSoC4/cy_em_eeprom.c ****                         * data copied form EEPROM data locations as the data in EEPROM headers is n
 337:Generated_Source\PSoC4/cy_em_eeprom.c ****                         */
 338:Generated_Source\PSoC4/cy_em_eeprom.c ****                         if(0u != context->redundantCopy)
 339:Generated_Source\PSoC4/cy_em_eeprom.c ****                         {
 340:Generated_Source\PSoC4/cy_em_eeprom.c ****                             ret = CheckCrcAndCopy(startRowAddr, eeData, srcOffset, numBytesToRead, 
 341:Generated_Source\PSoC4/cy_em_eeprom.c **** 
 342:Generated_Source\PSoC4/cy_em_eeprom.c ****                             if(CY_EM_EEPROM_SUCCESS != ret)
 343:Generated_Source\PSoC4/cy_em_eeprom.c ****                             {
 344:Generated_Source\PSoC4/cy_em_eeprom.c ****                                 break;
 345:Generated_Source\PSoC4/cy_em_eeprom.c ****                             }
 346:Generated_Source\PSoC4/cy_em_eeprom.c ****                         }
 347:Generated_Source\PSoC4/cy_em_eeprom.c ****                         else
 348:Generated_Source\PSoC4/cy_em_eeprom.c ****                         {
 349:Generated_Source\PSoC4/cy_em_eeprom.c ****                             (void)memcpy((void *)(eeData), (void *)(startRowAddr + srcOffset), numB
 350:Generated_Source\PSoC4/cy_em_eeprom.c ****                         }
 351:Generated_Source\PSoC4/cy_em_eeprom.c ****                     }
 352:Generated_Source\PSoC4/cy_em_eeprom.c ****                 }
 353:Generated_Source\PSoC4/cy_em_eeprom.c ****             }
 354:Generated_Source\PSoC4/cy_em_eeprom.c ****         }
 355:Generated_Source\PSoC4/cy_em_eeprom.c ****     }
 356:Generated_Source\PSoC4/cy_em_eeprom.c **** 
 357:Generated_Source\PSoC4/cy_em_eeprom.c ****     return(ret);
 358:Generated_Source\PSoC4/cy_em_eeprom.c **** }
 359:Generated_Source\PSoC4/cy_em_eeprom.c **** 
 360:Generated_Source\PSoC4/cy_em_eeprom.c **** 
 361:Generated_Source\PSoC4/cy_em_eeprom.c **** /*******************************************************************************
 362:Generated_Source\PSoC4/cy_em_eeprom.c **** * Function Name: Cy_Em_EEPROM_Write
 363:Generated_Source\PSoC4/cy_em_eeprom.c **** ****************************************************************************//**
 364:Generated_Source\PSoC4/cy_em_eeprom.c **** *
 365:Generated_Source\PSoC4/cy_em_eeprom.c **** * This function takes the logical EEPROM address and converts it to the actual
 366:Generated_Source\PSoC4/cy_em_eeprom.c **** * physical address and writes data there. If wear leveling is implemented, the
 367:Generated_Source\PSoC4/cy_em_eeprom.c **** * writing process will use the wear leveling techniques. This is a blocking
 368:Generated_Source\PSoC4/cy_em_eeprom.c **** * function and it does not return until the write operation is completed. The
 369:Generated_Source\PSoC4/cy_em_eeprom.c **** * user firmware should not enter Hibernate mode until write is completed. The
 370:Generated_Source\PSoC4/cy_em_eeprom.c **** * write operation is allowed in Sleep and Deep-Sleep modes. During the flash
 371:Generated_Source\PSoC4/cy_em_eeprom.c **** * operation, the device should not be reset, including the XRES pin, a software
 372:Generated_Source\PSoC4/cy_em_eeprom.c **** * reset, and watchdog reset sources. Also, low-voltage detect circuits should
 373:Generated_Source\PSoC4/cy_em_eeprom.c **** * be configured to generate an interrupt instead of a reset. Otherwise, portions
ARM GAS  C:\Users\EDULU~1.DES\AppData\Local\Temp\cc9dcV7d.s 			page 8


 374:Generated_Source\PSoC4/cy_em_eeprom.c **** * of flash may undergo unexpected changes.
 375:Generated_Source\PSoC4/cy_em_eeprom.c **** *
 376:Generated_Source\PSoC4/cy_em_eeprom.c **** * \param addr
 377:Generated_Source\PSoC4/cy_em_eeprom.c **** * The logical start address in EEPROM to start writing data from.
 378:Generated_Source\PSoC4/cy_em_eeprom.c **** *
 379:Generated_Source\PSoC4/cy_em_eeprom.c **** * \param eepromData
 380:Generated_Source\PSoC4/cy_em_eeprom.c **** * Data to write to EEPROM.
 381:Generated_Source\PSoC4/cy_em_eeprom.c **** *
 382:Generated_Source\PSoC4/cy_em_eeprom.c **** * \param size
 383:Generated_Source\PSoC4/cy_em_eeprom.c **** * The amount of data to write to EEPROM.
 384:Generated_Source\PSoC4/cy_em_eeprom.c **** *
 385:Generated_Source\PSoC4/cy_em_eeprom.c **** * \param context
 386:Generated_Source\PSoC4/cy_em_eeprom.c **** * The pointer to the EEPROM context structure \ref cy_stc_eeprom_context_t.
 387:Generated_Source\PSoC4/cy_em_eeprom.c **** *
 388:Generated_Source\PSoC4/cy_em_eeprom.c **** * \return
 389:Generated_Source\PSoC4/cy_em_eeprom.c **** * This function returns \ref cy_en_em_eeprom_status_t.
 390:Generated_Source\PSoC4/cy_em_eeprom.c **** *
 391:Generated_Source\PSoC4/cy_em_eeprom.c **** * \note
 392:Generated_Source\PSoC4/cy_em_eeprom.c **** * This function uses a buffer of the flash row size to perform write
 393:Generated_Source\PSoC4/cy_em_eeprom.c **** * operation. For the size of the row refer to the specific PSoC device
 394:Generated_Source\PSoC4/cy_em_eeprom.c **** * datasheet.
 395:Generated_Source\PSoC4/cy_em_eeprom.c **** *
 396:Generated_Source\PSoC4/cy_em_eeprom.c **** * \sideeffect
 397:Generated_Source\PSoC4/cy_em_eeprom.c **** * In case when blocking write option is used, if this function is called by
 398:Generated_Source\PSoC4/cy_em_eeprom.c **** * the CM4 the user code on CM0P and the user code on CM4 are blocked until erase
 399:Generated_Source\PSoC4/cy_em_eeprom.c **** * flash row operation is finished. If this function is called by the CM0P the
 400:Generated_Source\PSoC4/cy_em_eeprom.c **** * user code on CM4 is not blocked and the user code on CM0P is blocked until
 401:Generated_Source\PSoC4/cy_em_eeprom.c **** * erase flash row operation is finished. Plan your task allocation accordingly.
 402:Generated_Source\PSoC4/cy_em_eeprom.c **** *
 403:Generated_Source\PSoC4/cy_em_eeprom.c **** * \sideeffect
 404:Generated_Source\PSoC4/cy_em_eeprom.c **** * In case if non-blocking write option is used and when user flash is used as
 405:Generated_Source\PSoC4/cy_em_eeprom.c **** * an EEPROM storage care should be taken to prevent the read while write (RWW)
 406:Generated_Source\PSoC4/cy_em_eeprom.c **** * exception. To prevent the RWW exception the user flash macro that includes
 407:Generated_Source\PSoC4/cy_em_eeprom.c **** * the EEPROM storage should not be read while the EEPROM write is not completed.
 408:Generated_Source\PSoC4/cy_em_eeprom.c **** * The read also means the user code execution from the respective flash macro.
 409:Generated_Source\PSoC4/cy_em_eeprom.c **** *
 410:Generated_Source\PSoC4/cy_em_eeprom.c **** *******************************************************************************/
 411:Generated_Source\PSoC4/cy_em_eeprom.c **** cy_en_em_eeprom_status_t Cy_Em_EEPROM_Write(uint32 addr,
 412:Generated_Source\PSoC4/cy_em_eeprom.c ****                                             void * eepromData,
 413:Generated_Source\PSoC4/cy_em_eeprom.c ****                                             uint32 size,
 414:Generated_Source\PSoC4/cy_em_eeprom.c ****                                             cy_stc_eeprom_context_t * context)
 415:Generated_Source\PSoC4/cy_em_eeprom.c **** {
 416:Generated_Source\PSoC4/cy_em_eeprom.c ****     cy_en_em_eeprom_status_t ret = CY_EM_EEPROM_BAD_PARAM;
 417:Generated_Source\PSoC4/cy_em_eeprom.c ****     uint32 i;
 418:Generated_Source\PSoC4/cy_em_eeprom.c ****     uint32 wrCnt;
 419:Generated_Source\PSoC4/cy_em_eeprom.c ****     uint32 actEmEepromRowNum;
 420:Generated_Source\PSoC4/cy_em_eeprom.c ****     uint32 writeRamBuffer[CY_EM_EEPROM_FLASH_SIZEOF_ROW / CY_EM_EEPROM_U32_DIV];
 421:Generated_Source\PSoC4/cy_em_eeprom.c ****     uint32 startAddr = 0u;
 422:Generated_Source\PSoC4/cy_em_eeprom.c ****     uint32 endAddr = 0u;
 423:Generated_Source\PSoC4/cy_em_eeprom.c ****     uint32 tmpRowAddr;
 424:Generated_Source\PSoC4/cy_em_eeprom.c ****     uint32 emEepromRowAddr = context->lastWrRowAddr;
 425:Generated_Source\PSoC4/cy_em_eeprom.c ****     uint32 emEepromRowRdAddr;
 426:Generated_Source\PSoC4/cy_em_eeprom.c ****     void * tmpData;
 427:Generated_Source\PSoC4/cy_em_eeprom.c ****     uint32 eeData = (uint32) eepromData; /* To avoid the pointer arithmetic with void */
 428:Generated_Source\PSoC4/cy_em_eeprom.c **** 
 429:Generated_Source\PSoC4/cy_em_eeprom.c ****     /* Check if the EEPROM data does not exceed the EEPROM capacity */
 430:Generated_Source\PSoC4/cy_em_eeprom.c ****     if((0u != size) && ((addr + size) <= (context->eepromSize)) && (NULL != eepromData))
ARM GAS  C:\Users\EDULU~1.DES\AppData\Local\Temp\cc9dcV7d.s 			page 9


 431:Generated_Source\PSoC4/cy_em_eeprom.c ****     {
 432:Generated_Source\PSoC4/cy_em_eeprom.c ****         uint32 numWrites = ((size - 1u) / CY_EM_EEPROM_HEADER_DATA_LEN) + 1u;
 433:Generated_Source\PSoC4/cy_em_eeprom.c ****         uint32 eeHeaderDataOffset = 0u;
 434:Generated_Source\PSoC4/cy_em_eeprom.c **** 
 435:Generated_Source\PSoC4/cy_em_eeprom.c ****         for(wrCnt = 0u; wrCnt < numWrites; wrCnt++)
 436:Generated_Source\PSoC4/cy_em_eeprom.c ****         {
 437:Generated_Source\PSoC4/cy_em_eeprom.c ****             uint32 skipOperation = 0u;
 438:Generated_Source\PSoC4/cy_em_eeprom.c ****             /* Get the sequence number of the last written row */
 439:Generated_Source\PSoC4/cy_em_eeprom.c ****             uint32 seqNum = CY_EM_EEPROM_GET_SEQ_NUM(emEepromRowAddr);
 440:Generated_Source\PSoC4/cy_em_eeprom.c **** 
 441:Generated_Source\PSoC4/cy_em_eeprom.c ****             /* Get the address of the row to be written. The "emEepromRowAddr" may be
 442:Generated_Source\PSoC4/cy_em_eeprom.c ****             * updated with the proper address (if wear leveling is used). The
 443:Generated_Source\PSoC4/cy_em_eeprom.c ****             * "emEepromRowRdAddr" will point to the row address from which the historic
 444:Generated_Source\PSoC4/cy_em_eeprom.c ****             * data will be read into the RAM buffer.
 445:Generated_Source\PSoC4/cy_em_eeprom.c ****             */
 446:Generated_Source\PSoC4/cy_em_eeprom.c ****             GetNextRowToWrite(seqNum, &emEepromRowAddr, &emEepromRowRdAddr, context);
 447:Generated_Source\PSoC4/cy_em_eeprom.c **** 
 448:Generated_Source\PSoC4/cy_em_eeprom.c ****             /* Clear the RAM buffer so to not put junk into flash */
 449:Generated_Source\PSoC4/cy_em_eeprom.c ****             (void)memset(writeRamBuffer, 0, CY_EM_EEPROM_FLASH_SIZEOF_ROW);
 450:Generated_Source\PSoC4/cy_em_eeprom.c **** 
 451:Generated_Source\PSoC4/cy_em_eeprom.c ****             /* Fill the EM_EEPROM header info for the row in the RAM buffer */
 452:Generated_Source\PSoC4/cy_em_eeprom.c ****             seqNum++;
 453:Generated_Source\PSoC4/cy_em_eeprom.c ****             writeRamBuffer[CY_EM_EEPROM_HEADER_SEQ_NUM_OFFSET_U32] = seqNum;
 454:Generated_Source\PSoC4/cy_em_eeprom.c ****             writeRamBuffer[CY_EM_EEPROM_HEADER_ADDR_OFFSET_U32] = addr;
 455:Generated_Source\PSoC4/cy_em_eeprom.c ****             tmpData = (void *) eeData;
 456:Generated_Source\PSoC4/cy_em_eeprom.c **** 
 457:Generated_Source\PSoC4/cy_em_eeprom.c ****             /* Check if this is the last row to write */
 458:Generated_Source\PSoC4/cy_em_eeprom.c ****             if(wrCnt == (numWrites - 1u))
 459:Generated_Source\PSoC4/cy_em_eeprom.c ****             {
 460:Generated_Source\PSoC4/cy_em_eeprom.c ****                 /* Fill in the remaining size value to the EEPROM header. */
 461:Generated_Source\PSoC4/cy_em_eeprom.c ****                 writeRamBuffer[CY_EM_EEPROM_HEADER_LEN_OFFSET_U32] = size;
 462:Generated_Source\PSoC4/cy_em_eeprom.c ****             }
 463:Generated_Source\PSoC4/cy_em_eeprom.c ****             else
 464:Generated_Source\PSoC4/cy_em_eeprom.c ****             {
 465:Generated_Source\PSoC4/cy_em_eeprom.c ****                 /* This is not the last row to write in the current EEPROM write operation.
 466:Generated_Source\PSoC4/cy_em_eeprom.c ****                 * Write the maximum possible data size to the EEPROM header. Update the
 467:Generated_Source\PSoC4/cy_em_eeprom.c ****                 * size, eeData and addr respectively.
 468:Generated_Source\PSoC4/cy_em_eeprom.c ****                 */
 469:Generated_Source\PSoC4/cy_em_eeprom.c ****                 writeRamBuffer[CY_EM_EEPROM_HEADER_LEN_OFFSET_U32] = CY_EM_EEPROM_HEADER_DATA_LEN;
 470:Generated_Source\PSoC4/cy_em_eeprom.c ****                 size -= CY_EM_EEPROM_HEADER_DATA_LEN;
 471:Generated_Source\PSoC4/cy_em_eeprom.c ****                 addr += CY_EM_EEPROM_HEADER_DATA_LEN;
 472:Generated_Source\PSoC4/cy_em_eeprom.c ****                 eeData += CY_EM_EEPROM_HEADER_DATA_LEN;
 473:Generated_Source\PSoC4/cy_em_eeprom.c ****             }
 474:Generated_Source\PSoC4/cy_em_eeprom.c **** 
 475:Generated_Source\PSoC4/cy_em_eeprom.c ****             /* Write the data to the EEPROM header */
 476:Generated_Source\PSoC4/cy_em_eeprom.c ****             (void)memcpy((void *)&writeRamBuffer[CY_EM_EEPROM_HEADER_DATA_OFFSET_U32],
 477:Generated_Source\PSoC4/cy_em_eeprom.c ****                          tmpData,
 478:Generated_Source\PSoC4/cy_em_eeprom.c ****                          writeRamBuffer[CY_EM_EEPROM_HEADER_LEN_OFFSET_U32]);
 479:Generated_Source\PSoC4/cy_em_eeprom.c **** 
 480:Generated_Source\PSoC4/cy_em_eeprom.c ****             if(emEepromRowRdAddr != 0UL)
 481:Generated_Source\PSoC4/cy_em_eeprom.c ****             {
 482:Generated_Source\PSoC4/cy_em_eeprom.c ****                 /* Copy the EEPROM historic data for this row from flash to RAM */
 483:Generated_Source\PSoC4/cy_em_eeprom.c ****                 (void)memcpy((void *)&writeRamBuffer[CY_EM_EEPROM_EEPROM_DATA_OFFSET_U32],
 484:Generated_Source\PSoC4/cy_em_eeprom.c ****                              (void *)(emEepromRowRdAddr + CY_EM_EEPROM_EEPROM_DATA_LEN),
 485:Generated_Source\PSoC4/cy_em_eeprom.c ****                              CY_EM_EEPROM_EEPROM_DATA_LEN);
 486:Generated_Source\PSoC4/cy_em_eeprom.c ****             }
 487:Generated_Source\PSoC4/cy_em_eeprom.c **** 
ARM GAS  C:\Users\EDULU~1.DES\AppData\Local\Temp\cc9dcV7d.s 			page 10


 488:Generated_Source\PSoC4/cy_em_eeprom.c ****             /* Check if there is data for this location in other EEPROM headers:
 489:Generated_Source\PSoC4/cy_em_eeprom.c ****             * find out the row with the lowest possible sequence number which
 490:Generated_Source\PSoC4/cy_em_eeprom.c ****             * may contain the data for the current row.
 491:Generated_Source\PSoC4/cy_em_eeprom.c ****             */
 492:Generated_Source\PSoC4/cy_em_eeprom.c ****             i = (seqNum > context->numberOfRows) ? ((seqNum - (context->numberOfRows)) + 1u) : 1u;
 493:Generated_Source\PSoC4/cy_em_eeprom.c **** 
 494:Generated_Source\PSoC4/cy_em_eeprom.c ****             for(; i <= seqNum; i++)
 495:Generated_Source\PSoC4/cy_em_eeprom.c ****             {
 496:Generated_Source\PSoC4/cy_em_eeprom.c ****                 if(i == seqNum)
 497:Generated_Source\PSoC4/cy_em_eeprom.c ****                 {
 498:Generated_Source\PSoC4/cy_em_eeprom.c ****                     /* The code reached the row that is about to be written. Analyze the recently
 499:Generated_Source\PSoC4/cy_em_eeprom.c ****                     * created EEPROM header (stored in the RAM buffer currently): if it contains
 500:Generated_Source\PSoC4/cy_em_eeprom.c ****                     * the data for EEPROM data locations in the row that is about to be written.
 501:Generated_Source\PSoC4/cy_em_eeprom.c ****                     */
 502:Generated_Source\PSoC4/cy_em_eeprom.c ****                     tmpRowAddr = (uint32) writeRamBuffer;
 503:Generated_Source\PSoC4/cy_em_eeprom.c ****                 }
 504:Generated_Source\PSoC4/cy_em_eeprom.c ****                 else
 505:Generated_Source\PSoC4/cy_em_eeprom.c ****                 {
 506:Generated_Source\PSoC4/cy_em_eeprom.c ****                     /* Retrieve the address of the previously written row by its sequence number.
 507:Generated_Source\PSoC4/cy_em_eeprom.c ****                     * The pointer will be used to get data from the respective EEPROM header.
 508:Generated_Source\PSoC4/cy_em_eeprom.c ****                     */
 509:Generated_Source\PSoC4/cy_em_eeprom.c ****                     tmpRowAddr = GetRowAddrBySeqNum(i, context);
 510:Generated_Source\PSoC4/cy_em_eeprom.c ****                 }
 511:Generated_Source\PSoC4/cy_em_eeprom.c **** 
 512:Generated_Source\PSoC4/cy_em_eeprom.c ****                 actEmEepromRowNum = CY_EM_EEPROM_GET_ACT_ROW_NUM_FROM_ADDR(emEepromRowAddr,
 513:Generated_Source\PSoC4/cy_em_eeprom.c ****                                                                            context->numberOfRows,
 514:Generated_Source\PSoC4/cy_em_eeprom.c ****                                                                            context->userFlashStartA
 515:Generated_Source\PSoC4/cy_em_eeprom.c ****                 if(0UL != tmpRowAddr)
 516:Generated_Source\PSoC4/cy_em_eeprom.c ****                 {
 517:Generated_Source\PSoC4/cy_em_eeprom.c ****                     /* Calculate the required addressed for the later EEPROM historic data update *
 518:Generated_Source\PSoC4/cy_em_eeprom.c ****                     skipOperation = GetAddresses(
 519:Generated_Source\PSoC4/cy_em_eeprom.c ****                                               &startAddr,
 520:Generated_Source\PSoC4/cy_em_eeprom.c ****                                               &endAddr,
 521:Generated_Source\PSoC4/cy_em_eeprom.c ****                                               &eeHeaderDataOffset,
 522:Generated_Source\PSoC4/cy_em_eeprom.c ****                                               actEmEepromRowNum,
 523:Generated_Source\PSoC4/cy_em_eeprom.c ****                                               *(uint32 *)(tmpRowAddr + CY_EM_EEPROM_HEADER_ADDR_OFF
 524:Generated_Source\PSoC4/cy_em_eeprom.c ****                                               *(uint32 *)(tmpRowAddr + CY_EM_EEPROM_HEADER_LEN_OFFS
 525:Generated_Source\PSoC4/cy_em_eeprom.c ****                 }
 526:Generated_Source\PSoC4/cy_em_eeprom.c ****                 else
 527:Generated_Source\PSoC4/cy_em_eeprom.c ****                 {
 528:Generated_Source\PSoC4/cy_em_eeprom.c ****                     /* Skip writes to the RAM buffer */
 529:Generated_Source\PSoC4/cy_em_eeprom.c ****                     skipOperation++;
 530:Generated_Source\PSoC4/cy_em_eeprom.c ****                 }
 531:Generated_Source\PSoC4/cy_em_eeprom.c **** 
 532:Generated_Source\PSoC4/cy_em_eeprom.c ****                 /* Write data to the RAM buffer */
 533:Generated_Source\PSoC4/cy_em_eeprom.c ****                 if(0u == skipOperation)
 534:Generated_Source\PSoC4/cy_em_eeprom.c ****                 {
 535:Generated_Source\PSoC4/cy_em_eeprom.c ****                     uint32 dataAddr = ((uint32)((uint8 *)&writeRamBuffer)) + startAddr;
 536:Generated_Source\PSoC4/cy_em_eeprom.c **** 
 537:Generated_Source\PSoC4/cy_em_eeprom.c ****                     /* Update the address to point to the EEPROM header data and not to
 538:Generated_Source\PSoC4/cy_em_eeprom.c ****                     * the start of the row.
 539:Generated_Source\PSoC4/cy_em_eeprom.c ****                     */
 540:Generated_Source\PSoC4/cy_em_eeprom.c ****                     tmpRowAddr = tmpRowAddr + CY_EM_EEPROM_HEADER_DATA_OFFSET + eeHeaderDataOffset;
 541:Generated_Source\PSoC4/cy_em_eeprom.c ****                     (void)memcpy((void *)(dataAddr), (void *)(tmpRowAddr), endAddr - startAddr);
 542:Generated_Source\PSoC4/cy_em_eeprom.c ****                 }
 543:Generated_Source\PSoC4/cy_em_eeprom.c **** 
 544:Generated_Source\PSoC4/cy_em_eeprom.c ****                 /* Calculate the checksum if redundant copy is enabled */
ARM GAS  C:\Users\EDULU~1.DES\AppData\Local\Temp\cc9dcV7d.s 			page 11


 545:Generated_Source\PSoC4/cy_em_eeprom.c ****                 if(0u != context->redundantCopy)
 546:Generated_Source\PSoC4/cy_em_eeprom.c ****                 {
 547:Generated_Source\PSoC4/cy_em_eeprom.c ****                     writeRamBuffer[CY_EM_EEPROM_HEADER_CHECKSUM_OFFSET_U32] = (uint32)
 548:Generated_Source\PSoC4/cy_em_eeprom.c ****                         CalcChecksum((uint8 *) &writeRamBuffer[CY_EM_EEPROM_EEPROM_DATA_OFFSET_U32]
 549:Generated_Source\PSoC4/cy_em_eeprom.c ****                                                   CY_EM_EEPROM_EEPROM_DATA_LEN);
 550:Generated_Source\PSoC4/cy_em_eeprom.c ****                 }
 551:Generated_Source\PSoC4/cy_em_eeprom.c ****             }
 552:Generated_Source\PSoC4/cy_em_eeprom.c **** 
 553:Generated_Source\PSoC4/cy_em_eeprom.c ****             /* Write the data to the specified flash row */
 554:Generated_Source\PSoC4/cy_em_eeprom.c ****             ret = WriteRow(emEepromRowAddr, writeRamBuffer, context);
 555:Generated_Source\PSoC4/cy_em_eeprom.c ****             tmpRowAddr = emEepromRowAddr;
 556:Generated_Source\PSoC4/cy_em_eeprom.c **** 
 557:Generated_Source\PSoC4/cy_em_eeprom.c ****             /* Check if redundant copy is used */
 558:Generated_Source\PSoC4/cy_em_eeprom.c ****             if((0u != context->redundantCopy) && (CY_EM_EEPROM_SUCCESS == ret))
 559:Generated_Source\PSoC4/cy_em_eeprom.c ****             {
 560:Generated_Source\PSoC4/cy_em_eeprom.c ****                 /* Update the row address to point to the row in the redundant EEPROM's copy */
 561:Generated_Source\PSoC4/cy_em_eeprom.c ****                 tmpRowAddr = (emEepromRowAddr - context->userFlashStartAddr) + context->wlEndAddr;
 562:Generated_Source\PSoC4/cy_em_eeprom.c **** 
 563:Generated_Source\PSoC4/cy_em_eeprom.c ****                 /* Write the data to the specified flash row */
 564:Generated_Source\PSoC4/cy_em_eeprom.c ****                 ret = WriteRow(tmpRowAddr, writeRamBuffer, context);
 565:Generated_Source\PSoC4/cy_em_eeprom.c ****             }
 566:Generated_Source\PSoC4/cy_em_eeprom.c **** 
 567:Generated_Source\PSoC4/cy_em_eeprom.c ****             if(CY_EM_EEPROM_SUCCESS == ret)
 568:Generated_Source\PSoC4/cy_em_eeprom.c ****             {
 569:Generated_Source\PSoC4/cy_em_eeprom.c ****                 /* Store last written row address only when EEPROM and redundant
 570:Generated_Source\PSoC4/cy_em_eeprom.c ****                 * copy writes were successful.
 571:Generated_Source\PSoC4/cy_em_eeprom.c ****                 */
 572:Generated_Source\PSoC4/cy_em_eeprom.c ****                 context->lastWrRowAddr = emEepromRowAddr;
 573:Generated_Source\PSoC4/cy_em_eeprom.c ****             }
 574:Generated_Source\PSoC4/cy_em_eeprom.c ****             else
 575:Generated_Source\PSoC4/cy_em_eeprom.c ****             {
 576:Generated_Source\PSoC4/cy_em_eeprom.c ****                 break;
 577:Generated_Source\PSoC4/cy_em_eeprom.c ****             }
 578:Generated_Source\PSoC4/cy_em_eeprom.c ****         }
 579:Generated_Source\PSoC4/cy_em_eeprom.c ****     }
 580:Generated_Source\PSoC4/cy_em_eeprom.c ****     return(ret);
 581:Generated_Source\PSoC4/cy_em_eeprom.c **** }
 582:Generated_Source\PSoC4/cy_em_eeprom.c **** 
 583:Generated_Source\PSoC4/cy_em_eeprom.c **** 
 584:Generated_Source\PSoC4/cy_em_eeprom.c **** /*******************************************************************************
 585:Generated_Source\PSoC4/cy_em_eeprom.c **** * Function Name: Cy_Em_EEPROM_Erase
 586:Generated_Source\PSoC4/cy_em_eeprom.c **** ****************************************************************************//**
 587:Generated_Source\PSoC4/cy_em_eeprom.c **** *
 588:Generated_Source\PSoC4/cy_em_eeprom.c **** * This function erases the entire contents of the EEPROM. Erased values are all
 589:Generated_Source\PSoC4/cy_em_eeprom.c **** * zeros. This is a blocking function and it does not return until the write
 590:Generated_Source\PSoC4/cy_em_eeprom.c **** * operation is completed. The user firmware should not enter Hibernate mode until
 591:Generated_Source\PSoC4/cy_em_eeprom.c **** * erase is completed. The erase operation is allowed in Sleep and Deep-Sleep modes.
 592:Generated_Source\PSoC4/cy_em_eeprom.c **** * During the flash operation, the device should not be reset, including the
 593:Generated_Source\PSoC4/cy_em_eeprom.c **** * XRES pin, a software reset, and watchdog reset sources. Also, low-voltage
 594:Generated_Source\PSoC4/cy_em_eeprom.c **** * detect circuits should be configured to generate an interrupt instead of a
 595:Generated_Source\PSoC4/cy_em_eeprom.c **** * reset. Otherwise, portions of flash may undergo unexpected changes.
 596:Generated_Source\PSoC4/cy_em_eeprom.c **** *
 597:Generated_Source\PSoC4/cy_em_eeprom.c **** * \param context
 598:Generated_Source\PSoC4/cy_em_eeprom.c **** * The pointer to the EEPROM context structure \ref cy_stc_eeprom_context_t.
 599:Generated_Source\PSoC4/cy_em_eeprom.c **** *
 600:Generated_Source\PSoC4/cy_em_eeprom.c **** * \return
 601:Generated_Source\PSoC4/cy_em_eeprom.c **** * This function returns \ref cy_en_em_eeprom_status_t.
ARM GAS  C:\Users\EDULU~1.DES\AppData\Local\Temp\cc9dcV7d.s 			page 12


 602:Generated_Source\PSoC4/cy_em_eeprom.c **** *
 603:Generated_Source\PSoC4/cy_em_eeprom.c **** * \note
 604:Generated_Source\PSoC4/cy_em_eeprom.c **** * For all non PSoC 6 devices the erase operation is performed by clearing
 605:Generated_Source\PSoC4/cy_em_eeprom.c **** * the EEPROM data using flash write. This affects the flash durability.
 606:Generated_Source\PSoC4/cy_em_eeprom.c **** * So it is recommended to use this function in utmost case to prolongate
 607:Generated_Source\PSoC4/cy_em_eeprom.c **** * flash life.
 608:Generated_Source\PSoC4/cy_em_eeprom.c **** *
 609:Generated_Source\PSoC4/cy_em_eeprom.c **** * \note
 610:Generated_Source\PSoC4/cy_em_eeprom.c **** * This function uses a buffer of the flash row size to perform erase
 611:Generated_Source\PSoC4/cy_em_eeprom.c **** * operation. For the size of the row refer to the specific PSoC device
 612:Generated_Source\PSoC4/cy_em_eeprom.c **** * datasheet.
 613:Generated_Source\PSoC4/cy_em_eeprom.c **** *
 614:Generated_Source\PSoC4/cy_em_eeprom.c **** * \sideeffect
 615:Generated_Source\PSoC4/cy_em_eeprom.c **** * In case when blocking write option is used, if this function is called by
 616:Generated_Source\PSoC4/cy_em_eeprom.c **** * the CM4 the user code on CM0P and the user code on CM4 are blocked until erase
 617:Generated_Source\PSoC4/cy_em_eeprom.c **** * flash row operation is finished. If this function is called by the CM0P the
 618:Generated_Source\PSoC4/cy_em_eeprom.c **** * user code on CM4 is not blocked and the user code on CM0P is blocked until
 619:Generated_Source\PSoC4/cy_em_eeprom.c **** * erase flash row operation is finished. Plan your task allocation accordingly.
 620:Generated_Source\PSoC4/cy_em_eeprom.c **** *
 621:Generated_Source\PSoC4/cy_em_eeprom.c **** * \sideeffect
 622:Generated_Source\PSoC4/cy_em_eeprom.c **** * In case if non-blocking write option is used and when user flash is used as
 623:Generated_Source\PSoC4/cy_em_eeprom.c **** * an EEPROM storage care should be taken to prevent the read while write (RWW)
 624:Generated_Source\PSoC4/cy_em_eeprom.c **** * exception. To prevent the RWW exception the user flash macro that includes
 625:Generated_Source\PSoC4/cy_em_eeprom.c **** * the EEPROM storage should not be read while the EEPROM erase is not completed.
 626:Generated_Source\PSoC4/cy_em_eeprom.c **** * The read also means the user code execution from the respective flash macro.
 627:Generated_Source\PSoC4/cy_em_eeprom.c **** *
 628:Generated_Source\PSoC4/cy_em_eeprom.c **** *******************************************************************************/
 629:Generated_Source\PSoC4/cy_em_eeprom.c **** cy_en_em_eeprom_status_t Cy_Em_EEPROM_Erase(cy_stc_eeprom_context_t * context)
 630:Generated_Source\PSoC4/cy_em_eeprom.c **** {
 631:Generated_Source\PSoC4/cy_em_eeprom.c ****     uint32 i;
 632:Generated_Source\PSoC4/cy_em_eeprom.c ****     uint32 seqNum;
 633:Generated_Source\PSoC4/cy_em_eeprom.c ****     uint32 emEepromRowAddr = context->lastWrRowAddr;
 634:Generated_Source\PSoC4/cy_em_eeprom.c ****     uint32 emEepromRowRdAddr;
 635:Generated_Source\PSoC4/cy_em_eeprom.c ****     cy_en_em_eeprom_status_t ret = CY_EM_EEPROM_WRITE_FAIL;
 636:Generated_Source\PSoC4/cy_em_eeprom.c ****     uint32 writeRamBuffer[CY_EM_EEPROM_FLASH_SIZEOF_ROW / CY_EM_EEPROM_U32_DIV] = {0u};
 637:Generated_Source\PSoC4/cy_em_eeprom.c **** #if (CY_PSOC6)
 638:Generated_Source\PSoC4/cy_em_eeprom.c ****     uint32 emEepromStoredRowAddr = context->lastWrRowAddr;
 639:Generated_Source\PSoC4/cy_em_eeprom.c ****     uint32 storedSeqNum;
 640:Generated_Source\PSoC4/cy_em_eeprom.c **** #endif /* (!CY_PSOC6) */
 641:Generated_Source\PSoC4/cy_em_eeprom.c **** 
 642:Generated_Source\PSoC4/cy_em_eeprom.c ****     /* Get the sequence number of the last written row */
 643:Generated_Source\PSoC4/cy_em_eeprom.c ****     seqNum = CY_EM_EEPROM_GET_SEQ_NUM(emEepromRowAddr);
 644:Generated_Source\PSoC4/cy_em_eeprom.c **** 
 645:Generated_Source\PSoC4/cy_em_eeprom.c ****     /* If there were no writes to EEPROM - nothing to erase */
 646:Generated_Source\PSoC4/cy_em_eeprom.c ****     if(0u != seqNum)
 647:Generated_Source\PSoC4/cy_em_eeprom.c ****     {
 648:Generated_Source\PSoC4/cy_em_eeprom.c ****         /* Calculate the number of row erase operations required */
 649:Generated_Source\PSoC4/cy_em_eeprom.c ****         uint32 numWrites = context->numberOfRows * context->wearLevelingFactor;
 650:Generated_Source\PSoC4/cy_em_eeprom.c **** 
 651:Generated_Source\PSoC4/cy_em_eeprom.c ****     #if (CY_PSOC6)
 652:Generated_Source\PSoC4/cy_em_eeprom.c ****         GetNextRowToWrite(seqNum, &emEepromStoredRowAddr, &emEepromRowRdAddr, context);
 653:Generated_Source\PSoC4/cy_em_eeprom.c ****         storedSeqNum = seqNum + 1u;
 654:Generated_Source\PSoC4/cy_em_eeprom.c ****     #endif /* (CY_PSOC6) */
 655:Generated_Source\PSoC4/cy_em_eeprom.c **** 
 656:Generated_Source\PSoC4/cy_em_eeprom.c ****         if(0u != context->redundantCopy)
 657:Generated_Source\PSoC4/cy_em_eeprom.c ****         {
 658:Generated_Source\PSoC4/cy_em_eeprom.c ****             writeRamBuffer[CY_EM_EEPROM_HEADER_CHECKSUM_OFFSET_U32] = (uint32)
ARM GAS  C:\Users\EDULU~1.DES\AppData\Local\Temp\cc9dcV7d.s 			page 13


 659:Generated_Source\PSoC4/cy_em_eeprom.c ****                         CalcChecksum((uint8 *) &writeRamBuffer[CY_EM_EEPROM_EEPROM_DATA_OFFSET_U32]
 660:Generated_Source\PSoC4/cy_em_eeprom.c ****                                                   CY_EM_EEPROM_EEPROM_DATA_LEN);
 661:Generated_Source\PSoC4/cy_em_eeprom.c ****         }
 662:Generated_Source\PSoC4/cy_em_eeprom.c **** 
 663:Generated_Source\PSoC4/cy_em_eeprom.c ****         for(i = 0u; i < numWrites; i++)
 664:Generated_Source\PSoC4/cy_em_eeprom.c ****         {
 665:Generated_Source\PSoC4/cy_em_eeprom.c ****         #if (CY_PSOC6)
 666:Generated_Source\PSoC4/cy_em_eeprom.c ****             /* For PSoC 6 the erase operation moves backwards. From last written row
 667:Generated_Source\PSoC4/cy_em_eeprom.c ****             * identified by "seqNum" down to "seqNum" - "numWrites". If "emEepromRowAddr"
 668:Generated_Source\PSoC4/cy_em_eeprom.c ****             * is zero this means that the row identified by "seqNum" was previously 
 669:Generated_Source\PSoC4/cy_em_eeprom.c ****             * erased.
 670:Generated_Source\PSoC4/cy_em_eeprom.c ****             */
 671:Generated_Source\PSoC4/cy_em_eeprom.c ****             if(0u != emEepromRowAddr)
 672:Generated_Source\PSoC4/cy_em_eeprom.c ****             {
 673:Generated_Source\PSoC4/cy_em_eeprom.c ****                 ret = EraseRow(emEepromRowAddr, (uint32)writeRamBuffer, context);
 674:Generated_Source\PSoC4/cy_em_eeprom.c ****             }
 675:Generated_Source\PSoC4/cy_em_eeprom.c **** 
 676:Generated_Source\PSoC4/cy_em_eeprom.c ****             seqNum--;
 677:Generated_Source\PSoC4/cy_em_eeprom.c **** 
 678:Generated_Source\PSoC4/cy_em_eeprom.c ****             if(0u == seqNum)
 679:Generated_Source\PSoC4/cy_em_eeprom.c ****             {
 680:Generated_Source\PSoC4/cy_em_eeprom.c ****                 /* Exit the loop as there is no more row is EEPROM to be erased */
 681:Generated_Source\PSoC4/cy_em_eeprom.c ****                 break;
 682:Generated_Source\PSoC4/cy_em_eeprom.c ****             }
 683:Generated_Source\PSoC4/cy_em_eeprom.c ****             emEepromRowAddr = GetRowAddrBySeqNum(seqNum, context);
 684:Generated_Source\PSoC4/cy_em_eeprom.c ****         #else
 685:Generated_Source\PSoC4/cy_em_eeprom.c ****             seqNum = CY_EM_EEPROM_GET_SEQ_NUM(emEepromRowAddr);
 686:Generated_Source\PSoC4/cy_em_eeprom.c ****             /* Get the address of the row to be erased. "emEepromRowAddr" may be updated
 687:Generated_Source\PSoC4/cy_em_eeprom.c ****             * with the proper address (if wear leveling is used).
 688:Generated_Source\PSoC4/cy_em_eeprom.c ****             */
 689:Generated_Source\PSoC4/cy_em_eeprom.c ****             GetNextRowToWrite(seqNum, &emEepromRowAddr, &emEepromRowRdAddr, context);
 690:Generated_Source\PSoC4/cy_em_eeprom.c ****             seqNum++;
 691:Generated_Source\PSoC4/cy_em_eeprom.c ****             writeRamBuffer[0u] = seqNum;
 692:Generated_Source\PSoC4/cy_em_eeprom.c ****             ret = EraseRow(emEepromRowAddr, (uint32)writeRamBuffer, context);
 693:Generated_Source\PSoC4/cy_em_eeprom.c ****         #endif /* (CY_PSOC6) */
 694:Generated_Source\PSoC4/cy_em_eeprom.c ****         }
 695:Generated_Source\PSoC4/cy_em_eeprom.c **** 
 696:Generated_Source\PSoC4/cy_em_eeprom.c ****     #if (CY_PSOC6)
 697:Generated_Source\PSoC4/cy_em_eeprom.c ****         if(CY_EM_EEPROM_SUCCESS == ret)
 698:Generated_Source\PSoC4/cy_em_eeprom.c ****         {
 699:Generated_Source\PSoC4/cy_em_eeprom.c ****             writeRamBuffer[0u] = storedSeqNum;
 700:Generated_Source\PSoC4/cy_em_eeprom.c **** 
 701:Generated_Source\PSoC4/cy_em_eeprom.c ****             /* Write the previously stored sequence number to the flash row which would be
 702:Generated_Source\PSoC4/cy_em_eeprom.c ****             * written next if the erase wouldn't happen. In this case the write to
 703:Generated_Source\PSoC4/cy_em_eeprom.c ****             * redundant copy can be skipped as it does not add any value.
 704:Generated_Source\PSoC4/cy_em_eeprom.c ****             */
 705:Generated_Source\PSoC4/cy_em_eeprom.c ****             ret = WriteRow(emEepromStoredRowAddr, writeRamBuffer, context);
 706:Generated_Source\PSoC4/cy_em_eeprom.c **** 
 707:Generated_Source\PSoC4/cy_em_eeprom.c ****             if(CY_EM_EEPROM_SUCCESS == ret)
 708:Generated_Source\PSoC4/cy_em_eeprom.c ****             {
 709:Generated_Source\PSoC4/cy_em_eeprom.c ****                 context->lastWrRowAddr = emEepromStoredRowAddr;
 710:Generated_Source\PSoC4/cy_em_eeprom.c ****             }
 711:Generated_Source\PSoC4/cy_em_eeprom.c ****         }
 712:Generated_Source\PSoC4/cy_em_eeprom.c ****     #endif /* (CY_PSOC6) */
 713:Generated_Source\PSoC4/cy_em_eeprom.c **** 
 714:Generated_Source\PSoC4/cy_em_eeprom.c ****     }
 715:Generated_Source\PSoC4/cy_em_eeprom.c ****     return(ret);
ARM GAS  C:\Users\EDULU~1.DES\AppData\Local\Temp\cc9dcV7d.s 			page 14


 716:Generated_Source\PSoC4/cy_em_eeprom.c **** }
 717:Generated_Source\PSoC4/cy_em_eeprom.c **** 
 718:Generated_Source\PSoC4/cy_em_eeprom.c **** 
 719:Generated_Source\PSoC4/cy_em_eeprom.c **** /*******************************************************************************
 720:Generated_Source\PSoC4/cy_em_eeprom.c **** * Function Name: Cy_Em_EEPROM_NumWrites
 721:Generated_Source\PSoC4/cy_em_eeprom.c **** ****************************************************************************//**
 722:Generated_Source\PSoC4/cy_em_eeprom.c **** *
 723:Generated_Source\PSoC4/cy_em_eeprom.c **** * Returns the number of the EEPROM writes completed so far.
 724:Generated_Source\PSoC4/cy_em_eeprom.c **** *
 725:Generated_Source\PSoC4/cy_em_eeprom.c **** * \param context
 726:Generated_Source\PSoC4/cy_em_eeprom.c **** * The pointer to the EEPROM context structure \ref cy_stc_eeprom_context_t.
 727:Generated_Source\PSoC4/cy_em_eeprom.c **** *
 728:Generated_Source\PSoC4/cy_em_eeprom.c **** * \return
 729:Generated_Source\PSoC4/cy_em_eeprom.c **** * The number of writes performed to the EEPROM.
 730:Generated_Source\PSoC4/cy_em_eeprom.c **** *
 731:Generated_Source\PSoC4/cy_em_eeprom.c **** *******************************************************************************/
 732:Generated_Source\PSoC4/cy_em_eeprom.c **** uint32 Cy_Em_EEPROM_NumWrites(cy_stc_eeprom_context_t * context)
 733:Generated_Source\PSoC4/cy_em_eeprom.c **** {
 734:Generated_Source\PSoC4/cy_em_eeprom.c ****     return(CY_EM_EEPROM_GET_SEQ_NUM(context->lastWrRowAddr));
 735:Generated_Source\PSoC4/cy_em_eeprom.c **** }
 736:Generated_Source\PSoC4/cy_em_eeprom.c **** 
 737:Generated_Source\PSoC4/cy_em_eeprom.c **** /** \} */
 738:Generated_Source\PSoC4/cy_em_eeprom.c **** 
 739:Generated_Source\PSoC4/cy_em_eeprom.c **** /** \cond INTERNAL */
 740:Generated_Source\PSoC4/cy_em_eeprom.c **** 
 741:Generated_Source\PSoC4/cy_em_eeprom.c **** 
 742:Generated_Source\PSoC4/cy_em_eeprom.c **** /*******************************************************************************
 743:Generated_Source\PSoC4/cy_em_eeprom.c **** * Function Name: FindLastWrittenRow
 744:Generated_Source\PSoC4/cy_em_eeprom.c **** ****************************************************************************//**
 745:Generated_Source\PSoC4/cy_em_eeprom.c **** *
 746:Generated_Source\PSoC4/cy_em_eeprom.c **** * Performs a search of the last written row address of the EEPROM associated
 747:Generated_Source\PSoC4/cy_em_eeprom.c **** * with the context structure. If there were no writes to the EEPROM the
 748:Generated_Source\PSoC4/cy_em_eeprom.c **** * function returns the start address of the EEPROM. The row address is returned
 749:Generated_Source\PSoC4/cy_em_eeprom.c **** * in the input parameter.
 750:Generated_Source\PSoC4/cy_em_eeprom.c **** *
 751:Generated_Source\PSoC4/cy_em_eeprom.c **** * \param lastWrRowPtr
 752:Generated_Source\PSoC4/cy_em_eeprom.c **** * The pointer to a memory where the last written row will be returned.
 753:Generated_Source\PSoC4/cy_em_eeprom.c **** *
 754:Generated_Source\PSoC4/cy_em_eeprom.c **** * \param context
 755:Generated_Source\PSoC4/cy_em_eeprom.c **** * The pointer to the EEPROM context structure \ref cy_stc_eeprom_context_t.
 756:Generated_Source\PSoC4/cy_em_eeprom.c **** *
 757:Generated_Source\PSoC4/cy_em_eeprom.c **** *******************************************************************************/
 758:Generated_Source\PSoC4/cy_em_eeprom.c **** static void FindLastWrittenRow(uint32 * lastWrRowPtr, cy_stc_eeprom_context_t * context)
 759:Generated_Source\PSoC4/cy_em_eeprom.c **** {
  27              		.loc 1 759 1 view -0
  28              		.cfi_startproc
  29              		@ args = 0, pretend = 0, frame = 0
  30              		@ frame_needed = 0, uses_anonymous_args = 0
  31              		.loc 1 759 1 is_stmt 0 view .LVU1
  32 0000 70B5     		push	{r4, r5, r6, lr}
  33              		.cfi_def_cfa_offset 16
  34              		.cfi_offset 4, -16
  35              		.cfi_offset 5, -12
  36              		.cfi_offset 6, -8
  37              		.cfi_offset 14, -4
 760:Generated_Source\PSoC4/cy_em_eeprom.c ****     uint32 seqNum = 0u;
  38              		.loc 1 760 5 is_stmt 1 view .LVU2
ARM GAS  C:\Users\EDULU~1.DES\AppData\Local\Temp\cc9dcV7d.s 			page 15


  39              	.LVL1:
 761:Generated_Source\PSoC4/cy_em_eeprom.c ****     uint32 prevSeqNum = 0u;
  40              		.loc 1 761 5 view .LVU3
 762:Generated_Source\PSoC4/cy_em_eeprom.c ****     uint32 numRows;
  41              		.loc 1 762 5 view .LVU4
 763:Generated_Source\PSoC4/cy_em_eeprom.c ****     uint32 emEepromAddr = context->userFlashStartAddr;
  42              		.loc 1 763 5 view .LVU5
  43              		.loc 1 763 12 is_stmt 0 view .LVU6
  44 0002 8A69     		ldr	r2, [r1, #24]
  45              	.LVL2:
 764:Generated_Source\PSoC4/cy_em_eeprom.c **** 
 765:Generated_Source\PSoC4/cy_em_eeprom.c ****     *lastWrRowPtr = emEepromAddr;
  46              		.loc 1 765 5 is_stmt 1 view .LVU7
  47              		.loc 1 765 19 is_stmt 0 view .LVU8
  48 0004 0260     		str	r2, [r0]
 766:Generated_Source\PSoC4/cy_em_eeprom.c **** 
 767:Generated_Source\PSoC4/cy_em_eeprom.c ****     for(numRows = 0u; numRows < (context->numberOfRows * context->wearLevelingFactor); numRows++)
  49              		.loc 1 767 5 is_stmt 1 view .LVU9
  50              	.LVL3:
  51              		.loc 1 767 17 is_stmt 0 view .LVU10
  52 0006 0024     		movs	r4, #0
 761:Generated_Source\PSoC4/cy_em_eeprom.c ****     uint32 numRows;
  53              		.loc 1 761 12 view .LVU11
  54 0008 0025     		movs	r5, #0
  55              		.loc 1 767 5 view .LVU12
  56 000a 01E0     		b	.L2
  57              	.LVL4:
  58              	.L3:
 768:Generated_Source\PSoC4/cy_em_eeprom.c ****     {
 769:Generated_Source\PSoC4/cy_em_eeprom.c ****         seqNum = CY_EM_EEPROM_GET_SEQ_NUM(emEepromAddr);
 770:Generated_Source\PSoC4/cy_em_eeprom.c ****         if((0u != seqNum) && (seqNum > prevSeqNum))
 771:Generated_Source\PSoC4/cy_em_eeprom.c ****         {
 772:Generated_Source\PSoC4/cy_em_eeprom.c ****             /* Some record in EEPROM was found. Store found sequence
 773:Generated_Source\PSoC4/cy_em_eeprom.c ****             * number and row address.
 774:Generated_Source\PSoC4/cy_em_eeprom.c ****             */
 775:Generated_Source\PSoC4/cy_em_eeprom.c ****             prevSeqNum = seqNum;
 776:Generated_Source\PSoC4/cy_em_eeprom.c ****             *lastWrRowPtr = emEepromAddr;
 777:Generated_Source\PSoC4/cy_em_eeprom.c ****         }
 778:Generated_Source\PSoC4/cy_em_eeprom.c **** 
 779:Generated_Source\PSoC4/cy_em_eeprom.c ****         /* Switch to the next row */
 780:Generated_Source\PSoC4/cy_em_eeprom.c ****         emEepromAddr = emEepromAddr + CY_EM_EEPROM_FLASH_SIZEOF_ROW;
  59              		.loc 1 780 9 is_stmt 1 discriminator 2 view .LVU13
  60              		.loc 1 780 22 is_stmt 0 discriminator 2 view .LVU14
  61 000c 8032     		adds	r2, r2, #128
  62              	.LVL5:
 767:Generated_Source\PSoC4/cy_em_eeprom.c ****     {
  63              		.loc 1 767 95 discriminator 2 view .LVU15
  64 000e 0134     		adds	r4, r4, #1
  65              	.LVL6:
  66              	.L2:
 767:Generated_Source\PSoC4/cy_em_eeprom.c ****     {
  67              		.loc 1 767 56 discriminator 1 view .LVU16
  68 0010 0B69     		ldr	r3, [r1, #16]
  69 0012 4E68     		ldr	r6, [r1, #4]
  70 0014 7343     		muls	r3, r6
 767:Generated_Source\PSoC4/cy_em_eeprom.c ****     {
  71              		.loc 1 767 5 discriminator 1 view .LVU17
ARM GAS  C:\Users\EDULU~1.DES\AppData\Local\Temp\cc9dcV7d.s 			page 16


  72 0016 A342     		cmp	r3, r4
  73 0018 07D9     		bls	.L5
 769:Generated_Source\PSoC4/cy_em_eeprom.c ****         if((0u != seqNum) && (seqNum > prevSeqNum))
  74              		.loc 1 769 9 is_stmt 1 view .LVU18
 769:Generated_Source\PSoC4/cy_em_eeprom.c ****         if((0u != seqNum) && (seqNum > prevSeqNum))
  75              		.loc 1 769 16 is_stmt 0 view .LVU19
  76 001a 1368     		ldr	r3, [r2]
  77              	.LVL7:
 770:Generated_Source\PSoC4/cy_em_eeprom.c ****         {
  78              		.loc 1 770 9 is_stmt 1 view .LVU20
 770:Generated_Source\PSoC4/cy_em_eeprom.c ****         {
  79              		.loc 1 770 11 is_stmt 0 view .LVU21
  80 001c 002B     		cmp	r3, #0
  81 001e F5D0     		beq	.L3
 770:Generated_Source\PSoC4/cy_em_eeprom.c ****         {
  82              		.loc 1 770 27 discriminator 1 view .LVU22
  83 0020 9D42     		cmp	r5, r3
  84 0022 F3D2     		bcs	.L3
 775:Generated_Source\PSoC4/cy_em_eeprom.c ****             *lastWrRowPtr = emEepromAddr;
  85              		.loc 1 775 13 is_stmt 1 view .LVU23
  86              	.LVL8:
 776:Generated_Source\PSoC4/cy_em_eeprom.c ****         }
  87              		.loc 1 776 13 view .LVU24
 776:Generated_Source\PSoC4/cy_em_eeprom.c ****         }
  88              		.loc 1 776 27 is_stmt 0 view .LVU25
  89 0024 0260     		str	r2, [r0]
 775:Generated_Source\PSoC4/cy_em_eeprom.c ****             *lastWrRowPtr = emEepromAddr;
  90              		.loc 1 775 24 view .LVU26
  91 0026 1D00     		movs	r5, r3
  92 0028 F0E7     		b	.L3
  93              	.LVL9:
  94              	.L5:
 781:Generated_Source\PSoC4/cy_em_eeprom.c ****     }
 782:Generated_Source\PSoC4/cy_em_eeprom.c **** }
  95              		.loc 1 782 1 view .LVU27
  96              		@ sp needed
  97              	.LVL10:
  98              	.LVL11:
  99              		.loc 1 782 1 view .LVU28
 100 002a 70BD     		pop	{r4, r5, r6, pc}
 101              		.cfi_endproc
 102              	.LFE5:
 103              		.size	FindLastWrittenRow, .-FindLastWrittenRow
 104              		.section	.text.GetRowAddrBySeqNum,"ax",%progbits
 105              		.align	1
 106              		.syntax unified
 107              		.code	16
 108              		.thumb_func
 109              		.fpu softvfp
 110              		.type	GetRowAddrBySeqNum, %function
 111              	GetRowAddrBySeqNum:
 112              	.LVL12:
 113              	.LFB6:
 783:Generated_Source\PSoC4/cy_em_eeprom.c **** 
 784:Generated_Source\PSoC4/cy_em_eeprom.c **** 
 785:Generated_Source\PSoC4/cy_em_eeprom.c **** /*******************************************************************************
 786:Generated_Source\PSoC4/cy_em_eeprom.c **** * Function Name: GetRowAddrBySeqNum
ARM GAS  C:\Users\EDULU~1.DES\AppData\Local\Temp\cc9dcV7d.s 			page 17


 787:Generated_Source\PSoC4/cy_em_eeprom.c **** ****************************************************************************//**
 788:Generated_Source\PSoC4/cy_em_eeprom.c **** *
 789:Generated_Source\PSoC4/cy_em_eeprom.c **** * Returns the address of the row in EEPROM using its sequence number.
 790:Generated_Source\PSoC4/cy_em_eeprom.c **** *
 791:Generated_Source\PSoC4/cy_em_eeprom.c **** * \param seqNum
 792:Generated_Source\PSoC4/cy_em_eeprom.c **** * The sequence number of the row.
 793:Generated_Source\PSoC4/cy_em_eeprom.c **** *
 794:Generated_Source\PSoC4/cy_em_eeprom.c **** * \param context
 795:Generated_Source\PSoC4/cy_em_eeprom.c **** * The pointer to the EEPROM context structure.
 796:Generated_Source\PSoC4/cy_em_eeprom.c **** *
 797:Generated_Source\PSoC4/cy_em_eeprom.c **** * \return
 798:Generated_Source\PSoC4/cy_em_eeprom.c **** * The address of the row or zero if the row with the sequence number was not
 799:Generated_Source\PSoC4/cy_em_eeprom.c **** * found.
 800:Generated_Source\PSoC4/cy_em_eeprom.c **** *
 801:Generated_Source\PSoC4/cy_em_eeprom.c **** *******************************************************************************/
 802:Generated_Source\PSoC4/cy_em_eeprom.c **** static uint32 GetRowAddrBySeqNum(uint32 seqNum, cy_stc_eeprom_context_t * context)
 803:Generated_Source\PSoC4/cy_em_eeprom.c **** {
 114              		.loc 1 803 1 is_stmt 1 view -0
 115              		.cfi_startproc
 116              		@ args = 0, pretend = 0, frame = 0
 117              		@ frame_needed = 0, uses_anonymous_args = 0
 118              		@ link register save eliminated.
 804:Generated_Source\PSoC4/cy_em_eeprom.c ****     uint32 emEepromAddr = context->userFlashStartAddr;
 119              		.loc 1 804 5 view .LVU30
 120              		.loc 1 804 12 is_stmt 0 view .LVU31
 121 0000 8B69     		ldr	r3, [r1, #24]
 122              	.LVL13:
 805:Generated_Source\PSoC4/cy_em_eeprom.c **** 
 806:Generated_Source\PSoC4/cy_em_eeprom.c ****     while(CY_EM_EEPROM_GET_SEQ_NUM(emEepromAddr) != seqNum)
 123              		.loc 1 806 5 is_stmt 1 view .LVU32
 124              	.L7:
 125              		.loc 1 806 10 is_stmt 0 view .LVU33
 126 0002 1A68     		ldr	r2, [r3]
 127 0004 8242     		cmp	r2, r0
 128 0006 04D0     		beq	.L6
 807:Generated_Source\PSoC4/cy_em_eeprom.c ****     {
 808:Generated_Source\PSoC4/cy_em_eeprom.c ****         /* Switch to the next row */
 809:Generated_Source\PSoC4/cy_em_eeprom.c ****         emEepromAddr = emEepromAddr + CY_EM_EEPROM_FLASH_SIZEOF_ROW;
 129              		.loc 1 809 9 is_stmt 1 view .LVU34
 130              		.loc 1 809 22 is_stmt 0 view .LVU35
 131 0008 8033     		adds	r3, r3, #128
 132              	.LVL14:
 810:Generated_Source\PSoC4/cy_em_eeprom.c **** 
 811:Generated_Source\PSoC4/cy_em_eeprom.c ****         if (CY_EM_EEPROM_ADDR_IN_RANGE !=
 133              		.loc 1 811 9 is_stmt 1 view .LVU36
 134              		.loc 1 811 12 is_stmt 0 view .LVU37
 135 000a 0A68     		ldr	r2, [r1]
 136 000c 9A42     		cmp	r2, r3
 137 000e F8D8     		bhi	.L7
 812:Generated_Source\PSoC4/cy_em_eeprom.c ****             CY_EM_EEPROM_IS_ADDR_EXCEED_RANGE(emEepromAddr, context->wlEndAddr))
 813:Generated_Source\PSoC4/cy_em_eeprom.c ****         {
 814:Generated_Source\PSoC4/cy_em_eeprom.c ****             emEepromAddr = 0u;
 138              		.loc 1 814 26 view .LVU38
 139 0010 0023     		movs	r3, #0
 140              	.LVL15:
 815:Generated_Source\PSoC4/cy_em_eeprom.c ****             /* Exit the loop as we reached the end of EEPROM */
 816:Generated_Source\PSoC4/cy_em_eeprom.c ****             break;
ARM GAS  C:\Users\EDULU~1.DES\AppData\Local\Temp\cc9dcV7d.s 			page 18


 817:Generated_Source\PSoC4/cy_em_eeprom.c ****         }
 818:Generated_Source\PSoC4/cy_em_eeprom.c ****     }
 819:Generated_Source\PSoC4/cy_em_eeprom.c **** 
 820:Generated_Source\PSoC4/cy_em_eeprom.c ****     return (emEepromAddr);
 141              		.loc 1 820 5 is_stmt 1 view .LVU39
 142              	.L6:
 821:Generated_Source\PSoC4/cy_em_eeprom.c **** }
 143              		.loc 1 821 1 is_stmt 0 view .LVU40
 144 0012 1800     		movs	r0, r3
 145              	.LVL16:
 146              		.loc 1 821 1 view .LVU41
 147              		@ sp needed
 148 0014 7047     		bx	lr
 149              		.cfi_endproc
 150              	.LFE6:
 151              		.size	GetRowAddrBySeqNum, .-GetRowAddrBySeqNum
 152              		.section	.text.GetNextRowToWrite,"ax",%progbits
 153              		.align	1
 154              		.syntax unified
 155              		.code	16
 156              		.thumb_func
 157              		.fpu softvfp
 158              		.type	GetNextRowToWrite, %function
 159              	GetNextRowToWrite:
 160              	.LVL17:
 161              	.LFB7:
 822:Generated_Source\PSoC4/cy_em_eeprom.c **** 
 823:Generated_Source\PSoC4/cy_em_eeprom.c **** 
 824:Generated_Source\PSoC4/cy_em_eeprom.c **** /*******************************************************************************
 825:Generated_Source\PSoC4/cy_em_eeprom.c **** * Function Name: GetNextRowToWrite
 826:Generated_Source\PSoC4/cy_em_eeprom.c **** ****************************************************************************//**
 827:Generated_Source\PSoC4/cy_em_eeprom.c **** *
 828:Generated_Source\PSoC4/cy_em_eeprom.c **** * Performs a range check of the row that should be written and updates the
 829:Generated_Source\PSoC4/cy_em_eeprom.c **** * address to the row respectively. The similar actions are done for the read
 830:Generated_Source\PSoC4/cy_em_eeprom.c **** * address.
 831:Generated_Source\PSoC4/cy_em_eeprom.c **** *
 832:Generated_Source\PSoC4/cy_em_eeprom.c **** * \param seqNum
 833:Generated_Source\PSoC4/cy_em_eeprom.c **** * The sequence number of the last written row.
 834:Generated_Source\PSoC4/cy_em_eeprom.c **** *
 835:Generated_Source\PSoC4/cy_em_eeprom.c **** * \param rowToWrPtr
 836:Generated_Source\PSoC4/cy_em_eeprom.c **** * The address of the last written row (input). The address of the row to be 
 837:Generated_Source\PSoC4/cy_em_eeprom.c **** * written (output).
 838:Generated_Source\PSoC4/cy_em_eeprom.c **** *
 839:Generated_Source\PSoC4/cy_em_eeprom.c **** * \param rowToRdPtr
 840:Generated_Source\PSoC4/cy_em_eeprom.c **** * The address of the row from which the data should be read into the RAM buffer
 841:Generated_Source\PSoC4/cy_em_eeprom.c **** * in a later write operation. Out parameter.
 842:Generated_Source\PSoC4/cy_em_eeprom.c **** *
 843:Generated_Source\PSoC4/cy_em_eeprom.c **** * \param context
 844:Generated_Source\PSoC4/cy_em_eeprom.c **** * The pointer to the EEPROM context structure \ref cy_stc_eeprom_context_t.
 845:Generated_Source\PSoC4/cy_em_eeprom.c **** *
 846:Generated_Source\PSoC4/cy_em_eeprom.c **** *******************************************************************************/
 847:Generated_Source\PSoC4/cy_em_eeprom.c **** static void GetNextRowToWrite(uint32 seqNum,
 848:Generated_Source\PSoC4/cy_em_eeprom.c ****                             uint32 * rowToWrPtr,
 849:Generated_Source\PSoC4/cy_em_eeprom.c ****                             uint32 * rowToRdPtr,
 850:Generated_Source\PSoC4/cy_em_eeprom.c ****                             cy_stc_eeprom_context_t * context)
 851:Generated_Source\PSoC4/cy_em_eeprom.c **** {
 162              		.loc 1 851 1 is_stmt 1 view -0
ARM GAS  C:\Users\EDULU~1.DES\AppData\Local\Temp\cc9dcV7d.s 			page 19


 163              		.cfi_startproc
 164              		@ args = 0, pretend = 0, frame = 0
 165              		@ frame_needed = 0, uses_anonymous_args = 0
 166              		.loc 1 851 1 is_stmt 0 view .LVU43
 167 0000 30B5     		push	{r4, r5, lr}
 168              		.cfi_def_cfa_offset 12
 169              		.cfi_offset 4, -12
 170              		.cfi_offset 5, -8
 171              		.cfi_offset 14, -4
 852:Generated_Source\PSoC4/cy_em_eeprom.c ****     /* Switch to the next row to be written if the current sequence number is
 853:Generated_Source\PSoC4/cy_em_eeprom.c ****     * not zero.
 854:Generated_Source\PSoC4/cy_em_eeprom.c ****     */
 855:Generated_Source\PSoC4/cy_em_eeprom.c ****     if(0u != seqNum)
 172              		.loc 1 855 5 is_stmt 1 view .LVU44
 173              		.loc 1 855 7 is_stmt 0 view .LVU45
 174 0002 0028     		cmp	r0, #0
 175 0004 02D0     		beq	.L12
 856:Generated_Source\PSoC4/cy_em_eeprom.c ****     {
 857:Generated_Source\PSoC4/cy_em_eeprom.c ****         *rowToWrPtr = (*rowToWrPtr + CY_EM_EEPROM_FLASH_SIZEOF_ROW);
 176              		.loc 1 857 9 is_stmt 1 view .LVU46
 177              		.loc 1 857 36 is_stmt 0 view .LVU47
 178 0006 0C68     		ldr	r4, [r1]
 179 0008 8034     		adds	r4, r4, #128
 180              		.loc 1 857 21 view .LVU48
 181 000a 0C60     		str	r4, [r1]
 182              	.L12:
 858:Generated_Source\PSoC4/cy_em_eeprom.c ****     }
 859:Generated_Source\PSoC4/cy_em_eeprom.c **** 
 860:Generated_Source\PSoC4/cy_em_eeprom.c ****     /* If the resulting row address is out of EEPROM, then switch to the base
 861:Generated_Source\PSoC4/cy_em_eeprom.c ****     * EEPROM address (Row#0).
 862:Generated_Source\PSoC4/cy_em_eeprom.c ****     */
 863:Generated_Source\PSoC4/cy_em_eeprom.c ****     if(CY_EM_EEPROM_ADDR_IN_RANGE !=
 183              		.loc 1 863 5 is_stmt 1 view .LVU49
 184              		.loc 1 863 7 is_stmt 0 view .LVU50
 185 000c 0C68     		ldr	r4, [r1]
 186 000e 1D68     		ldr	r5, [r3]
 187 0010 AC42     		cmp	r4, r5
 188 0012 01D3     		bcc	.L13
 864:Generated_Source\PSoC4/cy_em_eeprom.c ****             CY_EM_EEPROM_IS_ADDR_EXCEED_RANGE(*rowToWrPtr, context->wlEndAddr))
 865:Generated_Source\PSoC4/cy_em_eeprom.c ****     {
 866:Generated_Source\PSoC4/cy_em_eeprom.c ****         *rowToWrPtr = context->userFlashStartAddr;
 189              		.loc 1 866 9 is_stmt 1 view .LVU51
 190              		.loc 1 866 21 is_stmt 0 view .LVU52
 191 0014 9C69     		ldr	r4, [r3, #24]
 192 0016 0C60     		str	r4, [r1]
 193              	.L13:
 867:Generated_Source\PSoC4/cy_em_eeprom.c ****     }
 868:Generated_Source\PSoC4/cy_em_eeprom.c **** 
 869:Generated_Source\PSoC4/cy_em_eeprom.c ****     *rowToRdPtr = 0u;
 194              		.loc 1 869 5 is_stmt 1 view .LVU53
 195              		.loc 1 869 17 is_stmt 0 view .LVU54
 196 0018 0024     		movs	r4, #0
 197 001a 1460     		str	r4, [r2]
 870:Generated_Source\PSoC4/cy_em_eeprom.c **** 
 871:Generated_Source\PSoC4/cy_em_eeprom.c ****     /* Check if the sequence number is larger than the number of rows in the EEPROM.
 872:Generated_Source\PSoC4/cy_em_eeprom.c ****     * If not, do not update the row read address because there is no historic
 873:Generated_Source\PSoC4/cy_em_eeprom.c ****     * data to be read.
ARM GAS  C:\Users\EDULU~1.DES\AppData\Local\Temp\cc9dcV7d.s 			page 20


 874:Generated_Source\PSoC4/cy_em_eeprom.c ****     */
 875:Generated_Source\PSoC4/cy_em_eeprom.c ****     if(context->numberOfRows <= seqNum)
 198              		.loc 1 875 5 is_stmt 1 view .LVU55
 199              		.loc 1 875 15 is_stmt 0 view .LVU56
 200 001c 5C68     		ldr	r4, [r3, #4]
 201              		.loc 1 875 7 view .LVU57
 202 001e 8442     		cmp	r4, r0
 203 0020 16D8     		bhi	.L11
 876:Generated_Source\PSoC4/cy_em_eeprom.c ****     {
 877:Generated_Source\PSoC4/cy_em_eeprom.c ****         /* Check if wear leveling is used in EEPROM */
 878:Generated_Source\PSoC4/cy_em_eeprom.c ****         if(context->wearLevelingFactor > 1u)
 204              		.loc 1 878 9 is_stmt 1 view .LVU58
 205              		.loc 1 878 19 is_stmt 0 view .LVU59
 206 0022 1869     		ldr	r0, [r3, #16]
 207              	.LVL18:
 208              		.loc 1 878 11 view .LVU60
 209 0024 0128     		cmp	r0, #1
 210 0026 11D9     		bls	.L15
 879:Generated_Source\PSoC4/cy_em_eeprom.c ****         {
 880:Generated_Source\PSoC4/cy_em_eeprom.c ****             /* The read row address should be taken from an EEPROM copy that became
 881:Generated_Source\PSoC4/cy_em_eeprom.c ****             * inactive recently. This condition check handles that.
 882:Generated_Source\PSoC4/cy_em_eeprom.c ****             */
 883:Generated_Source\PSoC4/cy_em_eeprom.c ****             if((*rowToWrPtr - (context->numberOfRows * CY_EM_EEPROM_FLASH_SIZEOF_ROW)) <
 211              		.loc 1 883 13 is_stmt 1 view .LVU61
 212              		.loc 1 883 17 is_stmt 0 view .LVU62
 213 0028 0D68     		ldr	r5, [r1]
 214              		.loc 1 883 54 view .LVU63
 215 002a E101     		lsls	r1, r4, #7
 216              	.LVL19:
 217              		.loc 1 883 29 view .LVU64
 218 002c 691A     		subs	r1, r5, r1
 884:Generated_Source\PSoC4/cy_em_eeprom.c ****                 context->userFlashStartAddr)
 219              		.loc 1 884 24 view .LVU65
 220 002e 9B69     		ldr	r3, [r3, #24]
 221              	.LVL20:
 883:Generated_Source\PSoC4/cy_em_eeprom.c ****                 context->userFlashStartAddr)
 222              		.loc 1 883 15 view .LVU66
 223 0030 9942     		cmp	r1, r3
 224 0032 09D2     		bcs	.L16
 885:Generated_Source\PSoC4/cy_em_eeprom.c ****             {
 886:Generated_Source\PSoC4/cy_em_eeprom.c ****                 *rowToRdPtr = context->userFlashStartAddr +
 225              		.loc 1 886 17 is_stmt 1 view .LVU67
 887:Generated_Source\PSoC4/cy_em_eeprom.c ****                     (context->numberOfRows * (context->wearLevelingFactor - 1u) *
 226              		.loc 1 887 81 is_stmt 0 view .LVU68
 227 0034 0749     		ldr	r1, .L17
 228 0036 8C46     		mov	ip, r1
 229 0038 6044     		add	r0, r0, ip
 230 003a 4443     		muls	r4, r0
 231 003c E401     		lsls	r4, r4, #7
 886:Generated_Source\PSoC4/cy_em_eeprom.c ****                     (context->numberOfRows * (context->wearLevelingFactor - 1u) *
 232              		.loc 1 886 59 view .LVU69
 233 003e 1C19     		adds	r4, r3, r4
 888:Generated_Source\PSoC4/cy_em_eeprom.c ****                         CY_EM_EEPROM_FLASH_SIZEOF_ROW) + (*rowToWrPtr - context->userFlashStartAddr
 234              		.loc 1 888 71 view .LVU70
 235 0040 ED1A     		subs	r5, r5, r3
 236              		.loc 1 888 56 view .LVU71
 237 0042 6419     		adds	r4, r4, r5
ARM GAS  C:\Users\EDULU~1.DES\AppData\Local\Temp\cc9dcV7d.s 			page 21


 886:Generated_Source\PSoC4/cy_em_eeprom.c ****                     (context->numberOfRows * (context->wearLevelingFactor - 1u) *
 238              		.loc 1 886 29 view .LVU72
 239 0044 1460     		str	r4, [r2]
 240 0046 03E0     		b	.L11
 241              	.L16:
 889:Generated_Source\PSoC4/cy_em_eeprom.c ****             }
 890:Generated_Source\PSoC4/cy_em_eeprom.c ****             else
 891:Generated_Source\PSoC4/cy_em_eeprom.c ****             {
 892:Generated_Source\PSoC4/cy_em_eeprom.c ****                 *rowToRdPtr = *rowToWrPtr - (context->numberOfRows * CY_EM_EEPROM_FLASH_SIZEOF_ROW)
 242              		.loc 1 892 17 is_stmt 1 view .LVU73
 243              		.loc 1 892 29 is_stmt 0 view .LVU74
 244 0048 1160     		str	r1, [r2]
 245 004a 01E0     		b	.L11
 246              	.LVL21:
 247              	.L15:
 893:Generated_Source\PSoC4/cy_em_eeprom.c ****             }
 894:Generated_Source\PSoC4/cy_em_eeprom.c ****         }
 895:Generated_Source\PSoC4/cy_em_eeprom.c ****         else
 896:Generated_Source\PSoC4/cy_em_eeprom.c ****         {
 897:Generated_Source\PSoC4/cy_em_eeprom.c ****             /* If no wear leveling, always read from the same flash row that
 898:Generated_Source\PSoC4/cy_em_eeprom.c ****             * should be written.
 899:Generated_Source\PSoC4/cy_em_eeprom.c ****             */
 900:Generated_Source\PSoC4/cy_em_eeprom.c ****             *rowToRdPtr = *rowToWrPtr;
 248              		.loc 1 900 13 is_stmt 1 view .LVU75
 249              		.loc 1 900 27 is_stmt 0 view .LVU76
 250 004c 0B68     		ldr	r3, [r1]
 251              	.LVL22:
 252              		.loc 1 900 27 view .LVU77
 253 004e 1360     		str	r3, [r2]
 254              	.LVL23:
 255              	.L11:
 901:Generated_Source\PSoC4/cy_em_eeprom.c ****         }
 902:Generated_Source\PSoC4/cy_em_eeprom.c ****     }
 903:Generated_Source\PSoC4/cy_em_eeprom.c **** }
 256              		.loc 1 903 1 view .LVU78
 257              		@ sp needed
 258 0050 30BD     		pop	{r4, r5, pc}
 259              	.L18:
 260 0052 C046     		.align	2
 261              	.L17:
 262 0054 FFFFFF01 		.word	33554431
 263              		.cfi_endproc
 264              	.LFE7:
 265              		.size	GetNextRowToWrite, .-GetNextRowToWrite
 266              		.section	.text.CalcChecksum,"ax",%progbits
 267              		.align	1
 268              		.syntax unified
 269              		.code	16
 270              		.thumb_func
 271              		.fpu softvfp
 272              		.type	CalcChecksum, %function
 273              	CalcChecksum:
 274              	.LVL24:
 275              	.LFB8:
 904:Generated_Source\PSoC4/cy_em_eeprom.c **** 
 905:Generated_Source\PSoC4/cy_em_eeprom.c **** 
 906:Generated_Source\PSoC4/cy_em_eeprom.c **** /*******************************************************************************
ARM GAS  C:\Users\EDULU~1.DES\AppData\Local\Temp\cc9dcV7d.s 			page 22


 907:Generated_Source\PSoC4/cy_em_eeprom.c **** * Function Name: CalcChecksum
 908:Generated_Source\PSoC4/cy_em_eeprom.c **** ****************************************************************************//**
 909:Generated_Source\PSoC4/cy_em_eeprom.c **** *
 910:Generated_Source\PSoC4/cy_em_eeprom.c **** * Implements CRC-8 that is used in checksum calculation for the redundant copy
 911:Generated_Source\PSoC4/cy_em_eeprom.c **** * algorithm.
 912:Generated_Source\PSoC4/cy_em_eeprom.c **** *
 913:Generated_Source\PSoC4/cy_em_eeprom.c **** * \param rowData
 914:Generated_Source\PSoC4/cy_em_eeprom.c **** * The row data to be used to calculate the checksum.
 915:Generated_Source\PSoC4/cy_em_eeprom.c **** *
 916:Generated_Source\PSoC4/cy_em_eeprom.c **** * \param len
 917:Generated_Source\PSoC4/cy_em_eeprom.c **** * The length of rowData.
 918:Generated_Source\PSoC4/cy_em_eeprom.c **** *
 919:Generated_Source\PSoC4/cy_em_eeprom.c **** * \return
 920:Generated_Source\PSoC4/cy_em_eeprom.c **** * The calculated value of CRC-8.
 921:Generated_Source\PSoC4/cy_em_eeprom.c **** *
 922:Generated_Source\PSoC4/cy_em_eeprom.c **** *******************************************************************************/
 923:Generated_Source\PSoC4/cy_em_eeprom.c **** static uint8 CalcChecksum(uint8 rowData[], uint32 len)
 924:Generated_Source\PSoC4/cy_em_eeprom.c **** {
 276              		.loc 1 924 1 is_stmt 1 view -0
 277              		.cfi_startproc
 278              		@ args = 0, pretend = 0, frame = 0
 279              		@ frame_needed = 0, uses_anonymous_args = 0
 280              		.loc 1 924 1 is_stmt 0 view .LVU80
 281 0000 30B5     		push	{r4, r5, lr}
 282              		.cfi_def_cfa_offset 12
 283              		.cfi_offset 4, -12
 284              		.cfi_offset 5, -8
 285              		.cfi_offset 14, -4
 286 0002 0500     		movs	r5, r0
 925:Generated_Source\PSoC4/cy_em_eeprom.c ****     uint8 crc = CY_EM_EEPROM_CRC8_SEED;
 287              		.loc 1 925 5 is_stmt 1 view .LVU81
 288              	.LVL25:
 926:Generated_Source\PSoC4/cy_em_eeprom.c ****     uint8 i;
 289              		.loc 1 926 5 view .LVU82
 927:Generated_Source\PSoC4/cy_em_eeprom.c ****     uint16 cnt = 0u;
 290              		.loc 1 927 5 view .LVU83
 928:Generated_Source\PSoC4/cy_em_eeprom.c **** 
 929:Generated_Source\PSoC4/cy_em_eeprom.c ****     while(cnt != len)
 291              		.loc 1 929 5 view .LVU84
 927:Generated_Source\PSoC4/cy_em_eeprom.c ****     uint16 cnt = 0u;
 292              		.loc 1 927 12 is_stmt 0 view .LVU85
 293 0004 0024     		movs	r4, #0
 925:Generated_Source\PSoC4/cy_em_eeprom.c ****     uint8 i;
 294              		.loc 1 925 11 view .LVU86
 295 0006 FF20     		movs	r0, #255
 296              	.LVL26:
 297              		.loc 1 929 10 view .LVU87
 298 0008 0FE0     		b	.L20
 299              	.LVL27:
 300              	.L27:
 930:Generated_Source\PSoC4/cy_em_eeprom.c ****     {
 931:Generated_Source\PSoC4/cy_em_eeprom.c ****         crc ^= rowData[cnt];
 932:Generated_Source\PSoC4/cy_em_eeprom.c ****         for (i = 0u; i < CY_EM_EEPROM_CRC8_POLYNOM_LEN; i++)
 933:Generated_Source\PSoC4/cy_em_eeprom.c ****         {
 934:Generated_Source\PSoC4/cy_em_eeprom.c ****             crc = CY_EM_EEPROM_CALCULATE_CRC8(crc);
 301              		.loc 1 934 19 discriminator 1 view .LVU88
 302 000a 4000     		lsls	r0, r0, #1
ARM GAS  C:\Users\EDULU~1.DES\AppData\Local\Temp\cc9dcV7d.s 			page 23


 303              	.LVL28:
 304              		.loc 1 934 19 discriminator 1 view .LVU89
 305 000c C0B2     		uxtb	r0, r0
 306              		.loc 1 934 17 discriminator 1 view .LVU90
 307 000e 3122     		movs	r2, #49
 308              	.LVL29:
 309              		.loc 1 934 17 discriminator 1 view .LVU91
 310 0010 5040     		eors	r0, r2
 311              	.L23:
 312              	.LVL30:
 932:Generated_Source\PSoC4/cy_em_eeprom.c ****         {
 313              		.loc 1 932 58 discriminator 4 view .LVU92
 314 0012 0133     		adds	r3, r3, #1
 315              	.LVL31:
 932:Generated_Source\PSoC4/cy_em_eeprom.c ****         {
 316              		.loc 1 932 58 discriminator 4 view .LVU93
 317 0014 DBB2     		uxtb	r3, r3
 318              	.LVL32:
 319              	.L21:
 932:Generated_Source\PSoC4/cy_em_eeprom.c ****         {
 320              		.loc 1 932 9 discriminator 2 view .LVU94
 321 0016 072B     		cmp	r3, #7
 322 0018 05D8     		bhi	.L26
 323              		.loc 1 934 13 is_stmt 1 view .LVU95
 324              		.loc 1 934 19 is_stmt 0 view .LVU96
 325 001a 42B2     		sxtb	r2, r0
 326              		.loc 1 934 17 view .LVU97
 327 001c 002A     		cmp	r2, #0
 328 001e F4DB     		blt	.L27
 329              		.loc 1 934 17 discriminator 2 view .LVU98
 330 0020 4000     		lsls	r0, r0, #1
 331              	.LVL33:
 332              		.loc 1 934 17 discriminator 2 view .LVU99
 333 0022 C0B2     		uxtb	r0, r0
 334 0024 F5E7     		b	.L23
 335              	.LVL34:
 336              	.L26:
 935:Generated_Source\PSoC4/cy_em_eeprom.c ****         }
 936:Generated_Source\PSoC4/cy_em_eeprom.c ****         cnt++;
 337              		.loc 1 936 9 is_stmt 1 view .LVU100
 338              		.loc 1 936 12 is_stmt 0 view .LVU101
 339 0026 0134     		adds	r4, r4, #1
 340              	.LVL35:
 341              		.loc 1 936 12 view .LVU102
 342 0028 A4B2     		uxth	r4, r4
 343              	.LVL36:
 344              	.L20:
 929:Generated_Source\PSoC4/cy_em_eeprom.c ****     {
 345              		.loc 1 929 10 view .LVU103
 346 002a 8C42     		cmp	r4, r1
 347 002c 03D0     		beq	.L28
 931:Generated_Source\PSoC4/cy_em_eeprom.c ****         for (i = 0u; i < CY_EM_EEPROM_CRC8_POLYNOM_LEN; i++)
 348              		.loc 1 931 9 is_stmt 1 view .LVU104
 931:Generated_Source\PSoC4/cy_em_eeprom.c ****         for (i = 0u; i < CY_EM_EEPROM_CRC8_POLYNOM_LEN; i++)
 349              		.loc 1 931 23 is_stmt 0 view .LVU105
 350 002e 2B5D     		ldrb	r3, [r5, r4]
 931:Generated_Source\PSoC4/cy_em_eeprom.c ****         for (i = 0u; i < CY_EM_EEPROM_CRC8_POLYNOM_LEN; i++)
ARM GAS  C:\Users\EDULU~1.DES\AppData\Local\Temp\cc9dcV7d.s 			page 24


 351              		.loc 1 931 13 view .LVU106
 352 0030 5840     		eors	r0, r3
 353              	.LVL37:
 932:Generated_Source\PSoC4/cy_em_eeprom.c ****         {
 354              		.loc 1 932 9 is_stmt 1 view .LVU107
 932:Generated_Source\PSoC4/cy_em_eeprom.c ****         {
 355              		.loc 1 932 16 is_stmt 0 view .LVU108
 356 0032 0023     		movs	r3, #0
 932:Generated_Source\PSoC4/cy_em_eeprom.c ****         {
 357              		.loc 1 932 9 view .LVU109
 358 0034 EFE7     		b	.L21
 359              	.LVL38:
 360              	.L28:
 937:Generated_Source\PSoC4/cy_em_eeprom.c ****     }
 938:Generated_Source\PSoC4/cy_em_eeprom.c **** 
 939:Generated_Source\PSoC4/cy_em_eeprom.c ****     return (crc);
 940:Generated_Source\PSoC4/cy_em_eeprom.c **** }
 361              		.loc 1 940 1 view .LVU110
 362              		@ sp needed
 363              	.LVL39:
 364              	.LVL40:
 365              		.loc 1 940 1 view .LVU111
 366 0036 30BD     		pop	{r4, r5, pc}
 367              		.cfi_endproc
 368              	.LFE8:
 369              		.size	CalcChecksum, .-CalcChecksum
 370              		.section	.text.CheckRanges,"ax",%progbits
 371              		.align	1
 372              		.syntax unified
 373              		.code	16
 374              		.thumb_func
 375              		.fpu softvfp
 376              		.type	CheckRanges, %function
 377              	CheckRanges:
 378              	.LVL41:
 379              	.LFB9:
 941:Generated_Source\PSoC4/cy_em_eeprom.c **** 
 942:Generated_Source\PSoC4/cy_em_eeprom.c **** 
 943:Generated_Source\PSoC4/cy_em_eeprom.c **** /*******************************************************************************
 944:Generated_Source\PSoC4/cy_em_eeprom.c **** * Function Name: CheckRanges
 945:Generated_Source\PSoC4/cy_em_eeprom.c **** ****************************************************************************//**
 946:Generated_Source\PSoC4/cy_em_eeprom.c **** *
 947:Generated_Source\PSoC4/cy_em_eeprom.c **** * Checks if the EEPROM of the requested size can be placed in flash.
 948:Generated_Source\PSoC4/cy_em_eeprom.c **** *
 949:Generated_Source\PSoC4/cy_em_eeprom.c **** * \param config
 950:Generated_Source\PSoC4/cy_em_eeprom.c **** * The pointer to a configuration structure. See \ref cy_stc_eeprom_config_t.
 951:Generated_Source\PSoC4/cy_em_eeprom.c **** *
 952:Generated_Source\PSoC4/cy_em_eeprom.c **** * \return
 953:Generated_Source\PSoC4/cy_em_eeprom.c **** * error / status code. See \ref cy_en_em_eeprom_status_t.
 954:Generated_Source\PSoC4/cy_em_eeprom.c **** *
 955:Generated_Source\PSoC4/cy_em_eeprom.c **** *******************************************************************************/
 956:Generated_Source\PSoC4/cy_em_eeprom.c **** static cy_en_em_eeprom_status_t CheckRanges(cy_stc_eeprom_config_t* config)
 957:Generated_Source\PSoC4/cy_em_eeprom.c **** {
 380              		.loc 1 957 1 is_stmt 1 view -0
 381              		.cfi_startproc
 382              		@ args = 0, pretend = 0, frame = 0
 383              		@ frame_needed = 0, uses_anonymous_args = 0
ARM GAS  C:\Users\EDULU~1.DES\AppData\Local\Temp\cc9dcV7d.s 			page 25


 384              		.loc 1 957 1 is_stmt 0 view .LVU113
 385 0000 30B5     		push	{r4, r5, lr}
 386              		.cfi_def_cfa_offset 12
 387              		.cfi_offset 4, -12
 388              		.cfi_offset 5, -8
 389              		.cfi_offset 14, -4
 958:Generated_Source\PSoC4/cy_em_eeprom.c ****     cy_en_em_eeprom_status_t ret = CY_EM_EEPROM_BAD_DATA;
 390              		.loc 1 958 5 is_stmt 1 view .LVU114
 391              	.LVL42:
 959:Generated_Source\PSoC4/cy_em_eeprom.c ****     uint32 startAddr = config->userFlashStartAddr;
 392              		.loc 1 959 5 view .LVU115
 393              		.loc 1 959 12 is_stmt 0 view .LVU116
 394 0002 C468     		ldr	r4, [r0, #12]
 395              	.LVL43:
 960:Generated_Source\PSoC4/cy_em_eeprom.c ****     uint32 endAddr = startAddr + CY_EM_EEPROM_GET_PHYSICAL_SIZE(config->eepromSize,
 396              		.loc 1 960 5 is_stmt 1 view .LVU117
 397              		.loc 1 960 34 is_stmt 0 view .LVU118
 398 0004 017A     		ldrb	r1, [r0, #8]
 399 0006 0131     		adds	r1, r1, #1
 400 0008 0568     		ldr	r5, [r0]
 401 000a AB09     		lsrs	r3, r5, #6
 402 000c 3F22     		movs	r2, #63
 403 000e 2A40     		ands	r2, r5
 404 0010 00D0     		beq	.L30
 405 0012 0122     		movs	r2, #1
 406              	.L30:
 407              		.loc 1 960 34 discriminator 4 view .LVU119
 408 0014 9A18     		adds	r2, r3, r2
 409 0016 4368     		ldr	r3, [r0, #4]
 410 0018 5343     		muls	r3, r2
 411 001a 4B43     		muls	r3, r1
 412 001c DB01     		lsls	r3, r3, #7
 413              		.loc 1 960 12 discriminator 4 view .LVU120
 414 001e 1B19     		adds	r3, r3, r4
 415              	.LVL44:
 961:Generated_Source\PSoC4/cy_em_eeprom.c ****             config->wearLevelingFactor, config->redundantCopy);
 962:Generated_Source\PSoC4/cy_em_eeprom.c **** 
 963:Generated_Source\PSoC4/cy_em_eeprom.c ****     /* Range check if there is enough flash for EEPROM */
 964:Generated_Source\PSoC4/cy_em_eeprom.c ****     if (CY_EM_EEPROM_IS_IN_FLASH_RANGE(startAddr, endAddr))
 416              		.loc 1 964 5 is_stmt 1 discriminator 4 view .LVU121
 417              		.loc 1 964 8 is_stmt 0 discriminator 4 view .LVU122
 418 0020 002C     		cmp	r4, #0
 419 0022 07D0     		beq	.L32
 420              		.loc 1 964 9 discriminator 1 view .LVU123
 421 0024 8022     		movs	r2, #128
 422 0026 1202     		lsls	r2, r2, #8
 423 0028 9342     		cmp	r3, r2
 424 002a 01D8     		bhi	.L34
 965:Generated_Source\PSoC4/cy_em_eeprom.c ****     {
 966:Generated_Source\PSoC4/cy_em_eeprom.c ****         ret = CY_EM_EEPROM_SUCCESS;
 425              		.loc 1 966 13 view .LVU124
 426 002c 0020     		movs	r0, #0
 427              	.LVL45:
 428              	.L31:
 967:Generated_Source\PSoC4/cy_em_eeprom.c ****     }
 968:Generated_Source\PSoC4/cy_em_eeprom.c ****     return (ret);
 429              		.loc 1 968 5 is_stmt 1 view .LVU125
ARM GAS  C:\Users\EDULU~1.DES\AppData\Local\Temp\cc9dcV7d.s 			page 26


 969:Generated_Source\PSoC4/cy_em_eeprom.c **** }
 430              		.loc 1 969 1 is_stmt 0 view .LVU126
 431              		@ sp needed
 432              	.LVL46:
 433              		.loc 1 969 1 view .LVU127
 434 002e 30BD     		pop	{r4, r5, pc}
 435              	.LVL47:
 436              	.L34:
 958:Generated_Source\PSoC4/cy_em_eeprom.c ****     uint32 startAddr = config->userFlashStartAddr;
 437              		.loc 1 958 30 view .LVU128
 438 0030 0320     		movs	r0, #3
 439              	.LVL48:
 958:Generated_Source\PSoC4/cy_em_eeprom.c ****     uint32 startAddr = config->userFlashStartAddr;
 440              		.loc 1 958 30 view .LVU129
 441 0032 FCE7     		b	.L31
 442              	.LVL49:
 443              	.L32:
 958:Generated_Source\PSoC4/cy_em_eeprom.c ****     uint32 startAddr = config->userFlashStartAddr;
 444              		.loc 1 958 30 view .LVU130
 445 0034 0320     		movs	r0, #3
 446              	.LVL50:
 958:Generated_Source\PSoC4/cy_em_eeprom.c ****     uint32 startAddr = config->userFlashStartAddr;
 447              		.loc 1 958 30 view .LVU131
 448 0036 FAE7     		b	.L31
 449              		.cfi_endproc
 450              	.LFE9:
 451              		.size	CheckRanges, .-CheckRanges
 452              		.section	.text.GetAddresses,"ax",%progbits
 453              		.align	1
 454              		.syntax unified
 455              		.code	16
 456              		.thumb_func
 457              		.fpu softvfp
 458              		.type	GetAddresses, %function
 459              	GetAddresses:
 460              	.LVL51:
 461              	.LFB13:
 970:Generated_Source\PSoC4/cy_em_eeprom.c **** 
 971:Generated_Source\PSoC4/cy_em_eeprom.c **** 
 972:Generated_Source\PSoC4/cy_em_eeprom.c **** /*******************************************************************************
 973:Generated_Source\PSoC4/cy_em_eeprom.c **** * Function Name: WriteRow
 974:Generated_Source\PSoC4/cy_em_eeprom.c **** ****************************************************************************//**
 975:Generated_Source\PSoC4/cy_em_eeprom.c **** *
 976:Generated_Source\PSoC4/cy_em_eeprom.c **** * Writes one flash row starting from the specified row address.
 977:Generated_Source\PSoC4/cy_em_eeprom.c **** *
 978:Generated_Source\PSoC4/cy_em_eeprom.c **** * \param rowAdd
 979:Generated_Source\PSoC4/cy_em_eeprom.c **** * The address of the flash row.
 980:Generated_Source\PSoC4/cy_em_eeprom.c **** *
 981:Generated_Source\PSoC4/cy_em_eeprom.c **** * \param rowData
 982:Generated_Source\PSoC4/cy_em_eeprom.c **** * The pointer to the data to be written to the row.
 983:Generated_Source\PSoC4/cy_em_eeprom.c **** *
 984:Generated_Source\PSoC4/cy_em_eeprom.c **** * \param context
 985:Generated_Source\PSoC4/cy_em_eeprom.c **** * The pointer to the EEPROM context structure \ref cy_stc_eeprom_context_t.
 986:Generated_Source\PSoC4/cy_em_eeprom.c **** *
 987:Generated_Source\PSoC4/cy_em_eeprom.c **** * \return
 988:Generated_Source\PSoC4/cy_em_eeprom.c **** * error / status code. See \ref cy_en_em_eeprom_status_t.
 989:Generated_Source\PSoC4/cy_em_eeprom.c **** *
ARM GAS  C:\Users\EDULU~1.DES\AppData\Local\Temp\cc9dcV7d.s 			page 27


 990:Generated_Source\PSoC4/cy_em_eeprom.c **** *******************************************************************************/
 991:Generated_Source\PSoC4/cy_em_eeprom.c **** static cy_en_em_eeprom_status_t WriteRow(uint32 rowAddr,
 992:Generated_Source\PSoC4/cy_em_eeprom.c ****                                         uint32 *rowData,
 993:Generated_Source\PSoC4/cy_em_eeprom.c ****                                         cy_stc_eeprom_context_t * context)
 994:Generated_Source\PSoC4/cy_em_eeprom.c **** {
 995:Generated_Source\PSoC4/cy_em_eeprom.c ****     cy_en_em_eeprom_status_t ret = CY_EM_EEPROM_WRITE_FAIL;
 996:Generated_Source\PSoC4/cy_em_eeprom.c **** #if (!CY_PSOC6)
 997:Generated_Source\PSoC4/cy_em_eeprom.c ****     cystatus rc;
 998:Generated_Source\PSoC4/cy_em_eeprom.c ****     #if ((CY_PSOC3) || (CY_PSOC5))
 999:Generated_Source\PSoC4/cy_em_eeprom.c ****         uint32 arrayId;
1000:Generated_Source\PSoC4/cy_em_eeprom.c ****         uint32 rowId;
1001:Generated_Source\PSoC4/cy_em_eeprom.c ****     #else
1002:Generated_Source\PSoC4/cy_em_eeprom.c ****         uint32 rowNum;
1003:Generated_Source\PSoC4/cy_em_eeprom.c ****     #endif /* (CY_PSOC3) */
1004:Generated_Source\PSoC4/cy_em_eeprom.c ****     
1005:Generated_Source\PSoC4/cy_em_eeprom.c ****     #if (CY_PSOC3)
1006:Generated_Source\PSoC4/cy_em_eeprom.c ****         rowAddr &= CY_EM_EEPROM_CODE_ADDR_MASK;
1007:Generated_Source\PSoC4/cy_em_eeprom.c ****         context = context;      /* To avoid compiler warning generation */
1008:Generated_Source\PSoC4/cy_em_eeprom.c ****     #else
1009:Generated_Source\PSoC4/cy_em_eeprom.c ****         (void)context;          /* To avoid compiler warning generation */
1010:Generated_Source\PSoC4/cy_em_eeprom.c ****     #endif /* ((CY_PSOC3) */
1011:Generated_Source\PSoC4/cy_em_eeprom.c ****     
1012:Generated_Source\PSoC4/cy_em_eeprom.c ****     /* Write the flash row */
1013:Generated_Source\PSoC4/cy_em_eeprom.c ****     #if (CY_PSOC4)
1014:Generated_Source\PSoC4/cy_em_eeprom.c ****         /* For PSoC 4 devices, the array ID is included in the row number */
1015:Generated_Source\PSoC4/cy_em_eeprom.c ****         rowNum = rowAddr / CY_EM_EEPROM_FLASH_SIZEOF_ROW;
1016:Generated_Source\PSoC4/cy_em_eeprom.c ****         
1017:Generated_Source\PSoC4/cy_em_eeprom.c ****         rc = CySysFlashWriteRow(rowNum, (uint8 *)rowData);
1018:Generated_Source\PSoC4/cy_em_eeprom.c ****     #else
1019:Generated_Source\PSoC4/cy_em_eeprom.c ****         /* For PSoC 3/5 devices, the array ID and row ID needed to write the row */
1020:Generated_Source\PSoC4/cy_em_eeprom.c ****         rowId = (rowAddr / CY_EM_EEPROM_FLASH_SIZEOF_ROW) % CY_EM_EEPROM_ROWS_IN_ARRAY;
1021:Generated_Source\PSoC4/cy_em_eeprom.c ****         
1022:Generated_Source\PSoC4/cy_em_eeprom.c ****         #ifndef CY_EM_EEPROM_SKIP_TEMP_MEASUREMENT
1023:Generated_Source\PSoC4/cy_em_eeprom.c ****             (void)CySetTemp();
1024:Generated_Source\PSoC4/cy_em_eeprom.c ****         #endif /* (CY_EM_EEPROM_SKIP_TEMP_MEASUREMENT) */
1025:Generated_Source\PSoC4/cy_em_eeprom.c **** 
1026:Generated_Source\PSoC4/cy_em_eeprom.c ****         arrayId = rowAddr / CY_FLASH_SIZEOF_ARRAY;
1027:Generated_Source\PSoC4/cy_em_eeprom.c ****         rc = CyWriteRowData((uint8)arrayId, (uint16)rowId, (uint8 *)rowData);
1028:Generated_Source\PSoC4/cy_em_eeprom.c ****         
1029:Generated_Source\PSoC4/cy_em_eeprom.c ****         #if (CY_PSOC5)
1030:Generated_Source\PSoC4/cy_em_eeprom.c ****             CyFlushCache();
1031:Generated_Source\PSoC4/cy_em_eeprom.c ****         #endif /* (CY_PSOC5) */
1032:Generated_Source\PSoC4/cy_em_eeprom.c ****     #endif /* (CY_PSOC4) */
1033:Generated_Source\PSoC4/cy_em_eeprom.c **** 
1034:Generated_Source\PSoC4/cy_em_eeprom.c ****     if(CYRET_SUCCESS == rc)
1035:Generated_Source\PSoC4/cy_em_eeprom.c ****     {
1036:Generated_Source\PSoC4/cy_em_eeprom.c ****         ret = CY_EM_EEPROM_SUCCESS;
1037:Generated_Source\PSoC4/cy_em_eeprom.c ****     }
1038:Generated_Source\PSoC4/cy_em_eeprom.c **** #else /* PSoC 6 */
1039:Generated_Source\PSoC4/cy_em_eeprom.c ****     if(0u != context->blockingWrite)
1040:Generated_Source\PSoC4/cy_em_eeprom.c ****     {
1041:Generated_Source\PSoC4/cy_em_eeprom.c ****         /* Do blocking write */
1042:Generated_Source\PSoC4/cy_em_eeprom.c ****         if(CY_FLASH_DRV_SUCCESS == Cy_Flash_WriteRow(rowAddr, (const uint32 *)rowData))
1043:Generated_Source\PSoC4/cy_em_eeprom.c ****         {
1044:Generated_Source\PSoC4/cy_em_eeprom.c ****             ret = CY_EM_EEPROM_SUCCESS;
1045:Generated_Source\PSoC4/cy_em_eeprom.c ****         }
1046:Generated_Source\PSoC4/cy_em_eeprom.c ****     }
ARM GAS  C:\Users\EDULU~1.DES\AppData\Local\Temp\cc9dcV7d.s 			page 28


1047:Generated_Source\PSoC4/cy_em_eeprom.c ****     else
1048:Generated_Source\PSoC4/cy_em_eeprom.c ****     {
1049:Generated_Source\PSoC4/cy_em_eeprom.c ****         /* Initiate write */
1050:Generated_Source\PSoC4/cy_em_eeprom.c ****         if(CY_FLASH_DRV_OPERATION_STARTED == Cy_Flash_StartWrite(rowAddr, (const uint32 *)rowData))
1051:Generated_Source\PSoC4/cy_em_eeprom.c ****         {
1052:Generated_Source\PSoC4/cy_em_eeprom.c ****             uint32 countMs = CY_EM_EEPROM_MAX_WRITE_DURATION_MS;
1053:Generated_Source\PSoC4/cy_em_eeprom.c ****             cy_en_flashdrv_status_t rc;
1054:Generated_Source\PSoC4/cy_em_eeprom.c **** 
1055:Generated_Source\PSoC4/cy_em_eeprom.c ****             do
1056:Generated_Source\PSoC4/cy_em_eeprom.c ****             {
1057:Generated_Source\PSoC4/cy_em_eeprom.c ****                 CyDelay(1u);                         /* Wait 1ms */
1058:Generated_Source\PSoC4/cy_em_eeprom.c ****                 rc = Cy_Flash_IsWriteComplete();     /* Check if write completed */
1059:Generated_Source\PSoC4/cy_em_eeprom.c ****                 countMs--;
1060:Generated_Source\PSoC4/cy_em_eeprom.c ****             }
1061:Generated_Source\PSoC4/cy_em_eeprom.c ****             while ((rc == CY_FLASH_DRV_OPCODE_BUSY) && (0u != countMs));
1062:Generated_Source\PSoC4/cy_em_eeprom.c **** 
1063:Generated_Source\PSoC4/cy_em_eeprom.c ****             if(CY_FLASH_DRV_SUCCESS == rc)
1064:Generated_Source\PSoC4/cy_em_eeprom.c ****             {
1065:Generated_Source\PSoC4/cy_em_eeprom.c ****                 ret = CY_EM_EEPROM_SUCCESS;
1066:Generated_Source\PSoC4/cy_em_eeprom.c ****             }
1067:Generated_Source\PSoC4/cy_em_eeprom.c ****         }
1068:Generated_Source\PSoC4/cy_em_eeprom.c ****     }
1069:Generated_Source\PSoC4/cy_em_eeprom.c **** #endif /* (CY_PSOC6) */
1070:Generated_Source\PSoC4/cy_em_eeprom.c **** 
1071:Generated_Source\PSoC4/cy_em_eeprom.c ****     return (ret);
1072:Generated_Source\PSoC4/cy_em_eeprom.c **** }
1073:Generated_Source\PSoC4/cy_em_eeprom.c **** 
1074:Generated_Source\PSoC4/cy_em_eeprom.c **** 
1075:Generated_Source\PSoC4/cy_em_eeprom.c **** /*******************************************************************************
1076:Generated_Source\PSoC4/cy_em_eeprom.c **** * Function Name: EraseRow
1077:Generated_Source\PSoC4/cy_em_eeprom.c **** ****************************************************************************//**
1078:Generated_Source\PSoC4/cy_em_eeprom.c **** *
1079:Generated_Source\PSoC4/cy_em_eeprom.c **** * Erases one flash row starting from the specified row address. If the redundant
1080:Generated_Source\PSoC4/cy_em_eeprom.c **** * copy option is enabled the corresponding row in the redundant copy will also
1081:Generated_Source\PSoC4/cy_em_eeprom.c **** * be erased.
1082:Generated_Source\PSoC4/cy_em_eeprom.c **** *
1083:Generated_Source\PSoC4/cy_em_eeprom.c **** * \param rowAdd
1084:Generated_Source\PSoC4/cy_em_eeprom.c **** * The address of the flash row.
1085:Generated_Source\PSoC4/cy_em_eeprom.c **** *
1086:Generated_Source\PSoC4/cy_em_eeprom.c **** * \param ramBuffAddr
1087:Generated_Source\PSoC4/cy_em_eeprom.c **** * The address of the RAM buffer that contains zeroed data (used only for
1088:Generated_Source\PSoC4/cy_em_eeprom.c **** * non-PSoC 6 devices).
1089:Generated_Source\PSoC4/cy_em_eeprom.c **** *
1090:Generated_Source\PSoC4/cy_em_eeprom.c **** * \param context
1091:Generated_Source\PSoC4/cy_em_eeprom.c **** * The pointer to the EEPROM context structure \ref cy_stc_eeprom_context_t.
1092:Generated_Source\PSoC4/cy_em_eeprom.c **** *
1093:Generated_Source\PSoC4/cy_em_eeprom.c **** * \return
1094:Generated_Source\PSoC4/cy_em_eeprom.c **** * error / status code. See \ref cy_en_em_eeprom_status_t.
1095:Generated_Source\PSoC4/cy_em_eeprom.c **** *
1096:Generated_Source\PSoC4/cy_em_eeprom.c **** *******************************************************************************/
1097:Generated_Source\PSoC4/cy_em_eeprom.c **** static cy_en_em_eeprom_status_t EraseRow(uint32 rowAddr,
1098:Generated_Source\PSoC4/cy_em_eeprom.c ****                                         uint32 ramBuffAddr,
1099:Generated_Source\PSoC4/cy_em_eeprom.c ****                                         cy_stc_eeprom_context_t * context)
1100:Generated_Source\PSoC4/cy_em_eeprom.c **** {
1101:Generated_Source\PSoC4/cy_em_eeprom.c ****     uint32 emEepromRowAddr = rowAddr;
1102:Generated_Source\PSoC4/cy_em_eeprom.c ****     cy_en_em_eeprom_status_t ret = CY_EM_EEPROM_WRITE_FAIL;
1103:Generated_Source\PSoC4/cy_em_eeprom.c **** #if (CY_PSOC6)
ARM GAS  C:\Users\EDULU~1.DES\AppData\Local\Temp\cc9dcV7d.s 			page 29


1104:Generated_Source\PSoC4/cy_em_eeprom.c ****     uint32 i = 1u;
1105:Generated_Source\PSoC4/cy_em_eeprom.c **** 
1106:Generated_Source\PSoC4/cy_em_eeprom.c ****     (void)ramBuffAddr; /* To avoid compiler warning */
1107:Generated_Source\PSoC4/cy_em_eeprom.c **** 
1108:Generated_Source\PSoC4/cy_em_eeprom.c ****     if(0u != context->redundantCopy)
1109:Generated_Source\PSoC4/cy_em_eeprom.c ****     {
1110:Generated_Source\PSoC4/cy_em_eeprom.c ****         i++;
1111:Generated_Source\PSoC4/cy_em_eeprom.c ****     }
1112:Generated_Source\PSoC4/cy_em_eeprom.c **** 
1113:Generated_Source\PSoC4/cy_em_eeprom.c ****     do
1114:Generated_Source\PSoC4/cy_em_eeprom.c ****     {
1115:Generated_Source\PSoC4/cy_em_eeprom.c ****         if(0u != context->blockingWrite)
1116:Generated_Source\PSoC4/cy_em_eeprom.c ****         {
1117:Generated_Source\PSoC4/cy_em_eeprom.c ****             /* Erase the flash row */
1118:Generated_Source\PSoC4/cy_em_eeprom.c ****             if(CY_FLASH_DRV_SUCCESS == Cy_Flash_EraseRow(emEepromRowAddr))
1119:Generated_Source\PSoC4/cy_em_eeprom.c ****             {
1120:Generated_Source\PSoC4/cy_em_eeprom.c ****                 ret = CY_EM_EEPROM_SUCCESS;
1121:Generated_Source\PSoC4/cy_em_eeprom.c ****             }
1122:Generated_Source\PSoC4/cy_em_eeprom.c ****         }
1123:Generated_Source\PSoC4/cy_em_eeprom.c ****         else
1124:Generated_Source\PSoC4/cy_em_eeprom.c ****         {
1125:Generated_Source\PSoC4/cy_em_eeprom.c ****             /* Initiate erase */
1126:Generated_Source\PSoC4/cy_em_eeprom.c ****             if(CY_FLASH_DRV_OPERATION_STARTED == Cy_Flash_StartErase(emEepromRowAddr))
1127:Generated_Source\PSoC4/cy_em_eeprom.c ****             {
1128:Generated_Source\PSoC4/cy_em_eeprom.c ****                 uint32 countMs = CY_EM_EEPROM_MAX_WRITE_DURATION_MS;
1129:Generated_Source\PSoC4/cy_em_eeprom.c ****                 cy_en_flashdrv_status_t rc;
1130:Generated_Source\PSoC4/cy_em_eeprom.c **** 
1131:Generated_Source\PSoC4/cy_em_eeprom.c ****                 do
1132:Generated_Source\PSoC4/cy_em_eeprom.c ****                 {
1133:Generated_Source\PSoC4/cy_em_eeprom.c ****                     CyDelay(1u);                         /* Wait 1ms */
1134:Generated_Source\PSoC4/cy_em_eeprom.c ****                     rc = Cy_Flash_IsWriteComplete();     /* Check if erase completed */
1135:Generated_Source\PSoC4/cy_em_eeprom.c ****                     countMs--;
1136:Generated_Source\PSoC4/cy_em_eeprom.c ****                 }
1137:Generated_Source\PSoC4/cy_em_eeprom.c ****                 while ((rc == CY_FLASH_DRV_OPCODE_BUSY) && (0u != countMs));
1138:Generated_Source\PSoC4/cy_em_eeprom.c **** 
1139:Generated_Source\PSoC4/cy_em_eeprom.c ****                 if(CY_FLASH_DRV_SUCCESS == rc)
1140:Generated_Source\PSoC4/cy_em_eeprom.c ****                 {
1141:Generated_Source\PSoC4/cy_em_eeprom.c ****                     ret = CY_EM_EEPROM_SUCCESS;
1142:Generated_Source\PSoC4/cy_em_eeprom.c ****                 }
1143:Generated_Source\PSoC4/cy_em_eeprom.c ****             }
1144:Generated_Source\PSoC4/cy_em_eeprom.c ****         }
1145:Generated_Source\PSoC4/cy_em_eeprom.c **** 
1146:Generated_Source\PSoC4/cy_em_eeprom.c ****         if(CY_EM_EEPROM_SUCCESS == ret)
1147:Generated_Source\PSoC4/cy_em_eeprom.c ****         {
1148:Generated_Source\PSoC4/cy_em_eeprom.c ****             /* Update the address to point to the redundant copy row */
1149:Generated_Source\PSoC4/cy_em_eeprom.c ****             emEepromRowAddr = (emEepromRowAddr - context->userFlashStartAddr) + context->wlEndAddr;
1150:Generated_Source\PSoC4/cy_em_eeprom.c ****         }
1151:Generated_Source\PSoC4/cy_em_eeprom.c ****         else
1152:Generated_Source\PSoC4/cy_em_eeprom.c ****         {
1153:Generated_Source\PSoC4/cy_em_eeprom.c ****             break;
1154:Generated_Source\PSoC4/cy_em_eeprom.c ****         }
1155:Generated_Source\PSoC4/cy_em_eeprom.c ****         i--;
1156:Generated_Source\PSoC4/cy_em_eeprom.c ****     } while (0u != i);
1157:Generated_Source\PSoC4/cy_em_eeprom.c **** #else
1158:Generated_Source\PSoC4/cy_em_eeprom.c ****     /* Write the data to the specified flash row */
1159:Generated_Source\PSoC4/cy_em_eeprom.c ****     ret = WriteRow(emEepromRowAddr, (uint32 *)ramBuffAddr, context);
1160:Generated_Source\PSoC4/cy_em_eeprom.c **** 
ARM GAS  C:\Users\EDULU~1.DES\AppData\Local\Temp\cc9dcV7d.s 			page 30


1161:Generated_Source\PSoC4/cy_em_eeprom.c ****     if((CY_EM_EEPROM_SUCCESS == ret) && (0u != context->redundantCopy))
1162:Generated_Source\PSoC4/cy_em_eeprom.c ****     {
1163:Generated_Source\PSoC4/cy_em_eeprom.c ****         /* Update the address to point to the redundant copy row */
1164:Generated_Source\PSoC4/cy_em_eeprom.c ****         emEepromRowAddr = (emEepromRowAddr - context->userFlashStartAddr) + context->wlEndAddr;
1165:Generated_Source\PSoC4/cy_em_eeprom.c ****         ret = WriteRow(emEepromRowAddr, (uint32 *)ramBuffAddr, context);
1166:Generated_Source\PSoC4/cy_em_eeprom.c ****     }
1167:Generated_Source\PSoC4/cy_em_eeprom.c **** 
1168:Generated_Source\PSoC4/cy_em_eeprom.c ****     if(CY_EM_EEPROM_SUCCESS == ret)
1169:Generated_Source\PSoC4/cy_em_eeprom.c ****     {
1170:Generated_Source\PSoC4/cy_em_eeprom.c ****         context->lastWrRowAddr = rowAddr;
1171:Generated_Source\PSoC4/cy_em_eeprom.c ****     }
1172:Generated_Source\PSoC4/cy_em_eeprom.c **** #endif /* (CY_PSOC6) */
1173:Generated_Source\PSoC4/cy_em_eeprom.c **** 
1174:Generated_Source\PSoC4/cy_em_eeprom.c ****     return(ret);
1175:Generated_Source\PSoC4/cy_em_eeprom.c **** }
1176:Generated_Source\PSoC4/cy_em_eeprom.c **** 
1177:Generated_Source\PSoC4/cy_em_eeprom.c **** 
1178:Generated_Source\PSoC4/cy_em_eeprom.c **** /*******************************************************************************
1179:Generated_Source\PSoC4/cy_em_eeprom.c **** * Function Name: CheckCrcAndCopy
1180:Generated_Source\PSoC4/cy_em_eeprom.c **** ****************************************************************************//**
1181:Generated_Source\PSoC4/cy_em_eeprom.c **** *
1182:Generated_Source\PSoC4/cy_em_eeprom.c **** * Checks the checksum of the specific row in EEPROM. If the CRC matches - copies
1183:Generated_Source\PSoC4/cy_em_eeprom.c **** * the data to the "datAddr" from EEPROM. f the CRC does not match checks the
1184:Generated_Source\PSoC4/cy_em_eeprom.c **** * CRC of the corresponding row in the EEPROM's redundant copy. If the CRC
1185:Generated_Source\PSoC4/cy_em_eeprom.c **** * matches - copies the data to the "datAddr" from EEPROM redundant copy. If the
1186:Generated_Source\PSoC4/cy_em_eeprom.c **** * CRC of the redundant copy does not match - returns bad checksum.
1187:Generated_Source\PSoC4/cy_em_eeprom.c **** *
1188:Generated_Source\PSoC4/cy_em_eeprom.c **** * \param startAddr
1189:Generated_Source\PSoC4/cy_em_eeprom.c **** * The address that points to the start of the specified row.
1190:Generated_Source\PSoC4/cy_em_eeprom.c **** *
1191:Generated_Source\PSoC4/cy_em_eeprom.c **** * \param datAddr
1192:Generated_Source\PSoC4/cy_em_eeprom.c **** * The start address of where the row data will be copied if the CRC check
1193:Generated_Source\PSoC4/cy_em_eeprom.c **** * will succeed.
1194:Generated_Source\PSoC4/cy_em_eeprom.c **** *
1195:Generated_Source\PSoC4/cy_em_eeprom.c **** * \param rowOffset
1196:Generated_Source\PSoC4/cy_em_eeprom.c **** * The offset in the row from which the data should be copied.
1197:Generated_Source\PSoC4/cy_em_eeprom.c **** *
1198:Generated_Source\PSoC4/cy_em_eeprom.c **** * \param numBytes
1199:Generated_Source\PSoC4/cy_em_eeprom.c **** * The number of bytes to be copied.
1200:Generated_Source\PSoC4/cy_em_eeprom.c **** *
1201:Generated_Source\PSoC4/cy_em_eeprom.c **** * \param context
1202:Generated_Source\PSoC4/cy_em_eeprom.c **** * The pointer to the EEPROM context structure \ref cy_stc_eeprom_context_t.
1203:Generated_Source\PSoC4/cy_em_eeprom.c **** *
1204:Generated_Source\PSoC4/cy_em_eeprom.c **** * \return
1205:Generated_Source\PSoC4/cy_em_eeprom.c **** * error / status code. See \ref cy_en_em_eeprom_status_t.
1206:Generated_Source\PSoC4/cy_em_eeprom.c **** *
1207:Generated_Source\PSoC4/cy_em_eeprom.c **** * \note
1208:Generated_Source\PSoC4/cy_em_eeprom.c **** * This function uses a buffer of the flash row size to perform read
1209:Generated_Source\PSoC4/cy_em_eeprom.c **** * operation. For the size of the row refer to the specific PSoC device
1210:Generated_Source\PSoC4/cy_em_eeprom.c **** * datasheet.
1211:Generated_Source\PSoC4/cy_em_eeprom.c **** *
1212:Generated_Source\PSoC4/cy_em_eeprom.c **** *******************************************************************************/
1213:Generated_Source\PSoC4/cy_em_eeprom.c **** static cy_en_em_eeprom_status_t CheckCrcAndCopy(uint32 startAddr,
1214:Generated_Source\PSoC4/cy_em_eeprom.c ****                                                 uint32 dstAddr,
1215:Generated_Source\PSoC4/cy_em_eeprom.c ****                                                 uint32 rowOffset,
1216:Generated_Source\PSoC4/cy_em_eeprom.c ****                                                 uint32 numBytes,
1217:Generated_Source\PSoC4/cy_em_eeprom.c ****                                                 cy_stc_eeprom_context_t * context)
ARM GAS  C:\Users\EDULU~1.DES\AppData\Local\Temp\cc9dcV7d.s 			page 31


1218:Generated_Source\PSoC4/cy_em_eeprom.c **** {
1219:Generated_Source\PSoC4/cy_em_eeprom.c ****     cy_en_em_eeprom_status_t ret;
1220:Generated_Source\PSoC4/cy_em_eeprom.c ****     uint32 writeRamBuffer[CY_EM_EEPROM_FLASH_SIZEOF_ROW / CY_EM_EEPROM_U32_DIV];
1221:Generated_Source\PSoC4/cy_em_eeprom.c **** 
1222:Generated_Source\PSoC4/cy_em_eeprom.c ****     /* Calculate the row address in the EEPROM's redundant copy */
1223:Generated_Source\PSoC4/cy_em_eeprom.c ****     uint32 rcStartRowAddr = (startAddr - context->userFlashStartAddr) + context->wlEndAddr;
1224:Generated_Source\PSoC4/cy_em_eeprom.c **** 
1225:Generated_Source\PSoC4/cy_em_eeprom.c ****     /* Check the row data CRC in the EEPROM */
1226:Generated_Source\PSoC4/cy_em_eeprom.c ****     if((*(uint32 *)(startAddr + CY_EM_EEPROM_HEADER_CHECKSUM_OFFSET)) ==
1227:Generated_Source\PSoC4/cy_em_eeprom.c ****         ((uint32) CalcChecksum((uint8 *)(startAddr + CY_EM_EEPROM_EEPROM_DATA_OFFSET),
1228:Generated_Source\PSoC4/cy_em_eeprom.c ****             CY_EM_EEPROM_EEPROM_DATA_LEN)))
1229:Generated_Source\PSoC4/cy_em_eeprom.c ****     {
1230:Generated_Source\PSoC4/cy_em_eeprom.c ****         (void)memcpy((void *)(dstAddr), (void *)(startAddr + rowOffset), numBytes);
1231:Generated_Source\PSoC4/cy_em_eeprom.c **** 
1232:Generated_Source\PSoC4/cy_em_eeprom.c ****         ret = CY_EM_EEPROM_SUCCESS;
1233:Generated_Source\PSoC4/cy_em_eeprom.c ****     }
1234:Generated_Source\PSoC4/cy_em_eeprom.c ****     /* Check the row data CRC in the EEPROM's redundant copy */
1235:Generated_Source\PSoC4/cy_em_eeprom.c ****     else if((*(uint32 *)(rcStartRowAddr + CY_EM_EEPROM_HEADER_CHECKSUM_OFFSET)) ==
1236:Generated_Source\PSoC4/cy_em_eeprom.c ****             ((uint32) CalcChecksum((uint8 *)(rcStartRowAddr + CY_EM_EEPROM_EEPROM_DATA_OFFSET),
1237:Generated_Source\PSoC4/cy_em_eeprom.c ****                 CY_EM_EEPROM_EEPROM_DATA_LEN)))
1238:Generated_Source\PSoC4/cy_em_eeprom.c ****     {
1239:Generated_Source\PSoC4/cy_em_eeprom.c ****         /* Copy the redundant copy row to RAM buffer to avoid read while write (RWW)
1240:Generated_Source\PSoC4/cy_em_eeprom.c ****         * flash exception. The RWW occurs while trying to write and read the data from
1241:Generated_Source\PSoC4/cy_em_eeprom.c ****         * same flash macro.
1242:Generated_Source\PSoC4/cy_em_eeprom.c ****         */
1243:Generated_Source\PSoC4/cy_em_eeprom.c ****         (void)memcpy((void *)(writeRamBuffer), (void *)(rcStartRowAddr), CY_EM_EEPROM_FLASH_SIZEOF_
1244:Generated_Source\PSoC4/cy_em_eeprom.c **** 
1245:Generated_Source\PSoC4/cy_em_eeprom.c ****         /* Restore bad row data from the RAM buffer */
1246:Generated_Source\PSoC4/cy_em_eeprom.c ****         ret = WriteRow(startAddr, (uint32 *)writeRamBuffer, context);
1247:Generated_Source\PSoC4/cy_em_eeprom.c **** 
1248:Generated_Source\PSoC4/cy_em_eeprom.c ****         if(CY_EM_EEPROM_SUCCESS == ret)
1249:Generated_Source\PSoC4/cy_em_eeprom.c ****         {
1250:Generated_Source\PSoC4/cy_em_eeprom.c ****             (void)memcpy((void *)(dstAddr), (void *)(writeRamBuffer + rowOffset), numBytes);
1251:Generated_Source\PSoC4/cy_em_eeprom.c ****         }
1252:Generated_Source\PSoC4/cy_em_eeprom.c ****     }
1253:Generated_Source\PSoC4/cy_em_eeprom.c ****     else
1254:Generated_Source\PSoC4/cy_em_eeprom.c ****     {
1255:Generated_Source\PSoC4/cy_em_eeprom.c ****         ret = CY_EM_EEPROM_BAD_CHECKSUM;
1256:Generated_Source\PSoC4/cy_em_eeprom.c ****     }
1257:Generated_Source\PSoC4/cy_em_eeprom.c **** 
1258:Generated_Source\PSoC4/cy_em_eeprom.c ****     return(ret);
1259:Generated_Source\PSoC4/cy_em_eeprom.c **** }
1260:Generated_Source\PSoC4/cy_em_eeprom.c **** 
1261:Generated_Source\PSoC4/cy_em_eeprom.c **** 
1262:Generated_Source\PSoC4/cy_em_eeprom.c **** /*******************************************************************************
1263:Generated_Source\PSoC4/cy_em_eeprom.c **** * Function Name: GetAddresses
1264:Generated_Source\PSoC4/cy_em_eeprom.c **** ****************************************************************************//**
1265:Generated_Source\PSoC4/cy_em_eeprom.c **** *
1266:Generated_Source\PSoC4/cy_em_eeprom.c **** * Calculates the start and end address of the row's EEPROM data to be updated.
1267:Generated_Source\PSoC4/cy_em_eeprom.c **** * The start and end are not absolute addresses but a relative addresses in a
1268:Generated_Source\PSoC4/cy_em_eeprom.c **** * flash row.
1269:Generated_Source\PSoC4/cy_em_eeprom.c **** *
1270:Generated_Source\PSoC4/cy_em_eeprom.c **** * \param startAddr
1271:Generated_Source\PSoC4/cy_em_eeprom.c **** * The pointer the address where the EEPROM data start address will be returned.
1272:Generated_Source\PSoC4/cy_em_eeprom.c **** *
1273:Generated_Source\PSoC4/cy_em_eeprom.c **** * \param endAddr
1274:Generated_Source\PSoC4/cy_em_eeprom.c **** * The pointer the address where the EEPROM data end address will be returned.
ARM GAS  C:\Users\EDULU~1.DES\AppData\Local\Temp\cc9dcV7d.s 			page 32


1275:Generated_Source\PSoC4/cy_em_eeprom.c **** *
1276:Generated_Source\PSoC4/cy_em_eeprom.c **** * \param offset
1277:Generated_Source\PSoC4/cy_em_eeprom.c **** * The pointer the address where the calculated offset of the EEPROM header data
1278:Generated_Source\PSoC4/cy_em_eeprom.c **** * will be returned.
1279:Generated_Source\PSoC4/cy_em_eeprom.c **** *
1280:Generated_Source\PSoC4/cy_em_eeprom.c **** * \param rowNum
1281:Generated_Source\PSoC4/cy_em_eeprom.c **** * The row number that is about to be written.
1282:Generated_Source\PSoC4/cy_em_eeprom.c **** *
1283:Generated_Source\PSoC4/cy_em_eeprom.c **** * \param addr
1284:Generated_Source\PSoC4/cy_em_eeprom.c **** * The address of the EEPROM header data in the currently analyzed row that may
1285:Generated_Source\PSoC4/cy_em_eeprom.c **** * concern to the row about to be written.
1286:Generated_Source\PSoC4/cy_em_eeprom.c **** *
1287:Generated_Source\PSoC4/cy_em_eeprom.c **** * \param len
1288:Generated_Source\PSoC4/cy_em_eeprom.c **** * The length of the EEPROM header data in the currently analyzed row that may
1289:Generated_Source\PSoC4/cy_em_eeprom.c **** * concern to the row about to be written.
1290:Generated_Source\PSoC4/cy_em_eeprom.c **** *
1291:Generated_Source\PSoC4/cy_em_eeprom.c **** * \return
1292:Generated_Source\PSoC4/cy_em_eeprom.c **** * Zero indicates that the currently analyzed row has the data to be written to
1293:Generated_Source\PSoC4/cy_em_eeprom.c **** * the active EEPROM row data locations. Non zero value indicates that there is
1294:Generated_Source\PSoC4/cy_em_eeprom.c **** * no data to be written
1295:Generated_Source\PSoC4/cy_em_eeprom.c **** *
1296:Generated_Source\PSoC4/cy_em_eeprom.c **** *******************************************************************************/
1297:Generated_Source\PSoC4/cy_em_eeprom.c **** static uint32 GetAddresses(uint32 *startAddr, 
1298:Generated_Source\PSoC4/cy_em_eeprom.c ****                         uint32 *endAddr, 
1299:Generated_Source\PSoC4/cy_em_eeprom.c ****                         uint32 *offset,
1300:Generated_Source\PSoC4/cy_em_eeprom.c ****                         uint32 rowNum,
1301:Generated_Source\PSoC4/cy_em_eeprom.c ****                         uint32 addr,
1302:Generated_Source\PSoC4/cy_em_eeprom.c ****                         uint32 len)
1303:Generated_Source\PSoC4/cy_em_eeprom.c **** {
 462              		.loc 1 1303 1 is_stmt 1 view -0
 463              		.cfi_startproc
 464              		@ args = 8, pretend = 0, frame = 0
 465              		@ frame_needed = 0, uses_anonymous_args = 0
 466              		.loc 1 1303 1 is_stmt 0 view .LVU133
 467 0000 70B5     		push	{r4, r5, r6, lr}
 468              		.cfi_def_cfa_offset 16
 469              		.cfi_offset 4, -16
 470              		.cfi_offset 5, -12
 471              		.cfi_offset 6, -8
 472              		.cfi_offset 14, -4
 473 0002 049C     		ldr	r4, [sp, #16]
1304:Generated_Source\PSoC4/cy_em_eeprom.c ****     uint32 skip = 0u;
 474              		.loc 1 1304 5 is_stmt 1 view .LVU134
 475              	.LVL52:
1305:Generated_Source\PSoC4/cy_em_eeprom.c **** 
1306:Generated_Source\PSoC4/cy_em_eeprom.c ****     *offset =0u;
 476              		.loc 1 1306 5 view .LVU135
 477              		.loc 1 1306 13 is_stmt 0 view .LVU136
 478 0004 0025     		movs	r5, #0
 479 0006 1560     		str	r5, [r2]
1307:Generated_Source\PSoC4/cy_em_eeprom.c **** 
1308:Generated_Source\PSoC4/cy_em_eeprom.c ****     if(0u != CY_EM_EEPROM_IS_ADDR_IN_ROW_RANGE(addr, rowNum))
 480              		.loc 1 1308 5 is_stmt 1 view .LVU137
 481              		.loc 1 1308 14 is_stmt 0 view .LVU138
 482 0008 9E01     		lsls	r6, r3, #6
 483 000a A642     		cmp	r6, r4
 484 000c 11D8     		bhi	.L36
ARM GAS  C:\Users\EDULU~1.DES\AppData\Local\Temp\cc9dcV7d.s 			page 33


 485              		.loc 1 1308 14 discriminator 1 view .LVU139
 486 000e 5D1C     		adds	r5, r3, #1
 487 0010 AD01     		lsls	r5, r5, #6
 488 0012 013D     		subs	r5, r5, #1
 489 0014 A542     		cmp	r5, r4
 490 0016 0CD3     		bcc	.L36
1309:Generated_Source\PSoC4/cy_em_eeprom.c ****     {
1310:Generated_Source\PSoC4/cy_em_eeprom.c ****         *startAddr = CY_EM_EEPROM_EEPROM_DATA_LEN + (addr % CY_EM_EEPROM_EEPROM_DATA_LEN);
 491              		.loc 1 1310 9 is_stmt 1 view .LVU140
 492              		.loc 1 1310 59 is_stmt 0 view .LVU141
 493 0018 3F23     		movs	r3, #63
 494              	.LVL53:
 495              		.loc 1 1310 59 view .LVU142
 496 001a 2340     		ands	r3, r4
 497              		.loc 1 1310 51 view .LVU143
 498 001c 4033     		adds	r3, r3, #64
 499              		.loc 1 1310 20 view .LVU144
 500 001e 0360     		str	r3, [r0]
1311:Generated_Source\PSoC4/cy_em_eeprom.c **** 
1312:Generated_Source\PSoC4/cy_em_eeprom.c ****         if(0u != CY_EM_EEPROM_IS_ADDR_IN_ROW_RANGE(addr + len, rowNum))
 501              		.loc 1 1312 9 is_stmt 1 view .LVU145
 502              		.loc 1 1312 18 is_stmt 0 view .LVU146
 503 0020 059A     		ldr	r2, [sp, #20]
 504              	.LVL54:
 505              		.loc 1 1312 18 view .LVU147
 506 0022 9446     		mov	ip, r2
 507 0024 6444     		add	r4, r4, ip
 508 0026 A642     		cmp	r6, r4
 509 0028 09D9     		bls	.L37
 510              	.L38:
1313:Generated_Source\PSoC4/cy_em_eeprom.c ****         {
1314:Generated_Source\PSoC4/cy_em_eeprom.c ****             *endAddr = *startAddr + len;
1315:Generated_Source\PSoC4/cy_em_eeprom.c ****         }
1316:Generated_Source\PSoC4/cy_em_eeprom.c ****         else
1317:Generated_Source\PSoC4/cy_em_eeprom.c ****         {
1318:Generated_Source\PSoC4/cy_em_eeprom.c ****             *endAddr = CY_EM_EEPROM_FLASH_SIZEOF_ROW;
 511              		.loc 1 1318 13 is_stmt 1 view .LVU148
 512              		.loc 1 1318 22 is_stmt 0 view .LVU149
 513 002a 8023     		movs	r3, #128
 514 002c 0B60     		str	r3, [r1]
1304:Generated_Source\PSoC4/cy_em_eeprom.c **** 
 515              		.loc 1 1304 12 view .LVU150
 516 002e 0020     		movs	r0, #0
 517              	.LVL55:
1304:Generated_Source\PSoC4/cy_em_eeprom.c **** 
 518              		.loc 1 1304 12 view .LVU151
 519 0030 04E0     		b	.L35
 520              	.LVL56:
 521              	.L36:
1319:Generated_Source\PSoC4/cy_em_eeprom.c ****         }
1320:Generated_Source\PSoC4/cy_em_eeprom.c ****     }
1321:Generated_Source\PSoC4/cy_em_eeprom.c ****     else
1322:Generated_Source\PSoC4/cy_em_eeprom.c ****     {
1323:Generated_Source\PSoC4/cy_em_eeprom.c **** 
1324:Generated_Source\PSoC4/cy_em_eeprom.c ****         if(0u != CY_EM_EEPROM_IS_ADDR_IN_ROW_RANGE(addr + len, rowNum))
 522              		.loc 1 1324 9 is_stmt 1 view .LVU152
 523              		.loc 1 1324 18 is_stmt 0 view .LVU153
ARM GAS  C:\Users\EDULU~1.DES\AppData\Local\Temp\cc9dcV7d.s 			page 34


 524 0032 059D     		ldr	r5, [sp, #20]
 525 0034 6519     		adds	r5, r4, r5
 526 0036 AE42     		cmp	r6, r5
 527 0038 09D9     		bls	.L39
1325:Generated_Source\PSoC4/cy_em_eeprom.c ****         {
1326:Generated_Source\PSoC4/cy_em_eeprom.c ****             *startAddr = CY_EM_EEPROM_EEPROM_DATA_LEN;
1327:Generated_Source\PSoC4/cy_em_eeprom.c ****             *endAddr = (*startAddr + len) - (*startAddr - (addr % CY_EM_EEPROM_EEPROM_DATA_LEN));
1328:Generated_Source\PSoC4/cy_em_eeprom.c ****             *offset = len - (*endAddr - *startAddr);
1329:Generated_Source\PSoC4/cy_em_eeprom.c ****         }
1330:Generated_Source\PSoC4/cy_em_eeprom.c ****         else
1331:Generated_Source\PSoC4/cy_em_eeprom.c ****         {
1332:Generated_Source\PSoC4/cy_em_eeprom.c ****             skip++;
 528              		.loc 1 1332 17 view .LVU154
 529 003a 0120     		movs	r0, #1
 530              	.LVL57:
 531              	.L35:
1333:Generated_Source\PSoC4/cy_em_eeprom.c ****         }
1334:Generated_Source\PSoC4/cy_em_eeprom.c ****     }
1335:Generated_Source\PSoC4/cy_em_eeprom.c **** 
1336:Generated_Source\PSoC4/cy_em_eeprom.c ****     return (skip);
1337:Generated_Source\PSoC4/cy_em_eeprom.c **** }
 532              		.loc 1 1337 1 view .LVU155
 533              		@ sp needed
 534 003c 70BD     		pop	{r4, r5, r6, pc}
 535              	.LVL58:
 536              	.L37:
1312:Generated_Source\PSoC4/cy_em_eeprom.c ****         {
 537              		.loc 1 1312 18 discriminator 1 view .LVU156
 538 003e A542     		cmp	r5, r4
 539 0040 F3D3     		bcc	.L38
1314:Generated_Source\PSoC4/cy_em_eeprom.c ****         }
 540              		.loc 1 1314 13 is_stmt 1 view .LVU157
1314:Generated_Source\PSoC4/cy_em_eeprom.c ****         }
 541              		.loc 1 1314 35 is_stmt 0 view .LVU158
 542 0042 059A     		ldr	r2, [sp, #20]
 543 0044 9446     		mov	ip, r2
 544 0046 6344     		add	r3, r3, ip
1314:Generated_Source\PSoC4/cy_em_eeprom.c ****         }
 545              		.loc 1 1314 22 view .LVU159
 546 0048 0B60     		str	r3, [r1]
1304:Generated_Source\PSoC4/cy_em_eeprom.c **** 
 547              		.loc 1 1304 12 view .LVU160
 548 004a 0020     		movs	r0, #0
 549              	.LVL59:
1304:Generated_Source\PSoC4/cy_em_eeprom.c **** 
 550              		.loc 1 1304 12 view .LVU161
 551 004c F6E7     		b	.L35
 552              	.LVL60:
 553              	.L39:
1324:Generated_Source\PSoC4/cy_em_eeprom.c ****         {
 554              		.loc 1 1324 18 discriminator 1 view .LVU162
 555 004e 0133     		adds	r3, r3, #1
 556              	.LVL61:
1324:Generated_Source\PSoC4/cy_em_eeprom.c ****         {
 557              		.loc 1 1324 18 discriminator 1 view .LVU163
 558 0050 9B01     		lsls	r3, r3, #6
 559              	.LVL62:
ARM GAS  C:\Users\EDULU~1.DES\AppData\Local\Temp\cc9dcV7d.s 			page 35


1324:Generated_Source\PSoC4/cy_em_eeprom.c ****         {
 560              		.loc 1 1324 18 discriminator 1 view .LVU164
 561 0052 013B     		subs	r3, r3, #1
 562 0054 9D42     		cmp	r5, r3
 563 0056 10D8     		bhi	.L42
1326:Generated_Source\PSoC4/cy_em_eeprom.c ****             *endAddr = (*startAddr + len) - (*startAddr - (addr % CY_EM_EEPROM_EEPROM_DATA_LEN));
 564              		.loc 1 1326 13 is_stmt 1 view .LVU165
1326:Generated_Source\PSoC4/cy_em_eeprom.c ****             *endAddr = (*startAddr + len) - (*startAddr - (addr % CY_EM_EEPROM_EEPROM_DATA_LEN));
 565              		.loc 1 1326 24 is_stmt 0 view .LVU166
 566 0058 4023     		movs	r3, #64
 567 005a 0360     		str	r3, [r0]
1327:Generated_Source\PSoC4/cy_em_eeprom.c ****             *offset = len - (*endAddr - *startAddr);
 568              		.loc 1 1327 13 is_stmt 1 view .LVU167
1327:Generated_Source\PSoC4/cy_em_eeprom.c ****             *offset = len - (*endAddr - *startAddr);
 569              		.loc 1 1327 36 is_stmt 0 view .LVU168
 570 005c 059D     		ldr	r5, [sp, #20]
 571 005e 4035     		adds	r5, r5, #64
1327:Generated_Source\PSoC4/cy_em_eeprom.c ****             *offset = len - (*endAddr - *startAddr);
 572              		.loc 1 1327 65 view .LVU169
 573 0060 013B     		subs	r3, r3, #1
 574 0062 1C40     		ands	r4, r3
1327:Generated_Source\PSoC4/cy_em_eeprom.c ****             *offset = len - (*endAddr - *startAddr);
 575              		.loc 1 1327 43 view .LVU170
 576 0064 403C     		subs	r4, r4, #64
 577 0066 6419     		adds	r4, r4, r5
1327:Generated_Source\PSoC4/cy_em_eeprom.c ****             *offset = len - (*endAddr - *startAddr);
 578              		.loc 1 1327 22 view .LVU171
 579 0068 0C60     		str	r4, [r1]
1328:Generated_Source\PSoC4/cy_em_eeprom.c ****         }
 580              		.loc 1 1328 13 is_stmt 1 view .LVU172
1328:Generated_Source\PSoC4/cy_em_eeprom.c ****         }
 581              		.loc 1 1328 41 is_stmt 0 view .LVU173
 582 006a 0368     		ldr	r3, [r0]
1328:Generated_Source\PSoC4/cy_em_eeprom.c ****         }
 583              		.loc 1 1328 27 view .LVU174
 584 006c 1C1B     		subs	r4, r3, r4
 585 006e 059B     		ldr	r3, [sp, #20]
 586 0070 9C46     		mov	ip, r3
 587 0072 6444     		add	r4, r4, ip
1328:Generated_Source\PSoC4/cy_em_eeprom.c ****         }
 588              		.loc 1 1328 21 view .LVU175
 589 0074 1460     		str	r4, [r2]
1304:Generated_Source\PSoC4/cy_em_eeprom.c **** 
 590              		.loc 1 1304 12 view .LVU176
 591 0076 0020     		movs	r0, #0
 592              	.LVL63:
1304:Generated_Source\PSoC4/cy_em_eeprom.c **** 
 593              		.loc 1 1304 12 view .LVU177
 594 0078 E0E7     		b	.L35
 595              	.LVL64:
 596              	.L42:
1332:Generated_Source\PSoC4/cy_em_eeprom.c ****         }
 597              		.loc 1 1332 17 view .LVU178
 598 007a 0120     		movs	r0, #1
 599              	.LVL65:
1336:Generated_Source\PSoC4/cy_em_eeprom.c **** }
 600              		.loc 1 1336 5 is_stmt 1 view .LVU179
ARM GAS  C:\Users\EDULU~1.DES\AppData\Local\Temp\cc9dcV7d.s 			page 36


1336:Generated_Source\PSoC4/cy_em_eeprom.c **** }
 601              		.loc 1 1336 12 is_stmt 0 view .LVU180
 602 007c DEE7     		b	.L35
 603              		.cfi_endproc
 604              	.LFE13:
 605              		.size	GetAddresses, .-GetAddresses
 606              		.section	.text.WriteRow,"ax",%progbits
 607              		.align	1
 608              		.syntax unified
 609              		.code	16
 610              		.thumb_func
 611              		.fpu softvfp
 612              		.type	WriteRow, %function
 613              	WriteRow:
 614              	.LVL66:
 615              	.LFB10:
 994:Generated_Source\PSoC4/cy_em_eeprom.c ****     cy_en_em_eeprom_status_t ret = CY_EM_EEPROM_WRITE_FAIL;
 616              		.loc 1 994 1 is_stmt 1 view -0
 617              		.cfi_startproc
 618              		@ args = 0, pretend = 0, frame = 0
 619              		@ frame_needed = 0, uses_anonymous_args = 0
 994:Generated_Source\PSoC4/cy_em_eeprom.c ****     cy_en_em_eeprom_status_t ret = CY_EM_EEPROM_WRITE_FAIL;
 620              		.loc 1 994 1 is_stmt 0 view .LVU182
 621 0000 10B5     		push	{r4, lr}
 622              		.cfi_def_cfa_offset 8
 623              		.cfi_offset 4, -8
 624              		.cfi_offset 14, -4
 995:Generated_Source\PSoC4/cy_em_eeprom.c **** #if (!CY_PSOC6)
 625              		.loc 1 995 5 is_stmt 1 view .LVU183
 626              	.LVL67:
 997:Generated_Source\PSoC4/cy_em_eeprom.c ****     #if ((CY_PSOC3) || (CY_PSOC5))
 627              		.loc 1 997 5 view .LVU184
1002:Generated_Source\PSoC4/cy_em_eeprom.c ****     #endif /* (CY_PSOC3) */
 628              		.loc 1 1002 9 view .LVU185
1009:Generated_Source\PSoC4/cy_em_eeprom.c ****     #endif /* ((CY_PSOC3) */
 629              		.loc 1 1009 9 view .LVU186
1015:Generated_Source\PSoC4/cy_em_eeprom.c ****         
 630              		.loc 1 1015 9 view .LVU187
1015:Generated_Source\PSoC4/cy_em_eeprom.c ****         
 631              		.loc 1 1015 16 is_stmt 0 view .LVU188
 632 0002 C009     		lsrs	r0, r0, #7
 633              	.LVL68:
1017:Generated_Source\PSoC4/cy_em_eeprom.c ****     #else
 634              		.loc 1 1017 9 is_stmt 1 view .LVU189
1017:Generated_Source\PSoC4/cy_em_eeprom.c ****     #else
 635              		.loc 1 1017 14 is_stmt 0 view .LVU190
 636 0004 FFF7FEFF 		bl	CySysFlashWriteRow
 637              	.LVL69:
1034:Generated_Source\PSoC4/cy_em_eeprom.c ****     {
 638              		.loc 1 1034 5 is_stmt 1 view .LVU191
1034:Generated_Source\PSoC4/cy_em_eeprom.c ****     {
 639              		.loc 1 1034 7 is_stmt 0 view .LVU192
 640 0008 0028     		cmp	r0, #0
 641 000a 01D1     		bne	.L46
1036:Generated_Source\PSoC4/cy_em_eeprom.c ****     }
 642              		.loc 1 1036 13 view .LVU193
 643 000c 0020     		movs	r0, #0
ARM GAS  C:\Users\EDULU~1.DES\AppData\Local\Temp\cc9dcV7d.s 			page 37


 644              	.LVL70:
 645              	.L44:
1071:Generated_Source\PSoC4/cy_em_eeprom.c **** }
 646              		.loc 1 1071 5 is_stmt 1 view .LVU194
1072:Generated_Source\PSoC4/cy_em_eeprom.c **** 
 647              		.loc 1 1072 1 is_stmt 0 view .LVU195
 648              		@ sp needed
 649 000e 10BD     		pop	{r4, pc}
 650              	.LVL71:
 651              	.L46:
 995:Generated_Source\PSoC4/cy_em_eeprom.c **** #if (!CY_PSOC6)
 652              		.loc 1 995 30 view .LVU196
 653 0010 0420     		movs	r0, #4
 654              	.LVL72:
 995:Generated_Source\PSoC4/cy_em_eeprom.c **** #if (!CY_PSOC6)
 655              		.loc 1 995 30 view .LVU197
 656 0012 FCE7     		b	.L44
 657              		.cfi_endproc
 658              	.LFE10:
 659              		.size	WriteRow, .-WriteRow
 660              		.section	.text.FillChecksum,"ax",%progbits
 661              		.align	1
 662              		.syntax unified
 663              		.code	16
 664              		.thumb_func
 665              		.fpu softvfp
 666              		.type	FillChecksum, %function
 667              	FillChecksum:
 668              	.LVL73:
 669              	.LFB14:
1338:Generated_Source\PSoC4/cy_em_eeprom.c **** 
1339:Generated_Source\PSoC4/cy_em_eeprom.c **** 
1340:Generated_Source\PSoC4/cy_em_eeprom.c **** /*******************************************************************************
1341:Generated_Source\PSoC4/cy_em_eeprom.c **** * Function Name: FillChecksum
1342:Generated_Source\PSoC4/cy_em_eeprom.c **** ****************************************************************************//**
1343:Generated_Source\PSoC4/cy_em_eeprom.c **** *
1344:Generated_Source\PSoC4/cy_em_eeprom.c **** * Performs calculation of the checksum on each row in the Em_EEPROM and fills
1345:Generated_Source\PSoC4/cy_em_eeprom.c **** * the Em_EEPROM headers checksum field with the calculated checksums.
1346:Generated_Source\PSoC4/cy_em_eeprom.c **** *
1347:Generated_Source\PSoC4/cy_em_eeprom.c **** * \param context
1348:Generated_Source\PSoC4/cy_em_eeprom.c **** * The pointer to the EEPROM context structure.
1349:Generated_Source\PSoC4/cy_em_eeprom.c **** *
1350:Generated_Source\PSoC4/cy_em_eeprom.c **** * \return
1351:Generated_Source\PSoC4/cy_em_eeprom.c **** * error / status code. See \ref cy_en_em_eeprom_status_t.
1352:Generated_Source\PSoC4/cy_em_eeprom.c **** *
1353:Generated_Source\PSoC4/cy_em_eeprom.c **** * \theory 
1354:Generated_Source\PSoC4/cy_em_eeprom.c **** * In case if redundant copy option is used the Em_EEPROM would return bad 
1355:Generated_Source\PSoC4/cy_em_eeprom.c **** * checksum while trying to read the EEPROM rows which were not yet written by 
1356:Generated_Source\PSoC4/cy_em_eeprom.c **** * the user. E.g. any read after device reprogramming without previous Write() 
1357:Generated_Source\PSoC4/cy_em_eeprom.c **** * operation to the EEPROM would fail. This would happen because the Em_EEPROM 
1358:Generated_Source\PSoC4/cy_em_eeprom.c **** * headers checksum field values (which is zero at the moment) would not be 
1359:Generated_Source\PSoC4/cy_em_eeprom.c **** * equal to the actual data checksum. This function allows to avoid read failure
1360:Generated_Source\PSoC4/cy_em_eeprom.c **** * after device reprogramming. 
1361:Generated_Source\PSoC4/cy_em_eeprom.c **** *
1362:Generated_Source\PSoC4/cy_em_eeprom.c **** * \note
1363:Generated_Source\PSoC4/cy_em_eeprom.c **** * This function uses a buffer of the flash row size to perform read
1364:Generated_Source\PSoC4/cy_em_eeprom.c **** * operation. For the size of the row refer to the specific PSoC device
ARM GAS  C:\Users\EDULU~1.DES\AppData\Local\Temp\cc9dcV7d.s 			page 38


1365:Generated_Source\PSoC4/cy_em_eeprom.c **** * datasheet.
1366:Generated_Source\PSoC4/cy_em_eeprom.c **** *
1367:Generated_Source\PSoC4/cy_em_eeprom.c **** *******************************************************************************/
1368:Generated_Source\PSoC4/cy_em_eeprom.c **** static cy_en_em_eeprom_status_t FillChecksum(cy_stc_eeprom_context_t * context)
1369:Generated_Source\PSoC4/cy_em_eeprom.c **** {
 670              		.loc 1 1369 1 is_stmt 1 view -0
 671              		.cfi_startproc
 672              		@ args = 0, pretend = 0, frame = 136
 673              		@ frame_needed = 0, uses_anonymous_args = 0
 674              		.loc 1 1369 1 is_stmt 0 view .LVU199
 675 0000 F0B5     		push	{r4, r5, r6, r7, lr}
 676              		.cfi_def_cfa_offset 20
 677              		.cfi_offset 4, -20
 678              		.cfi_offset 5, -16
 679              		.cfi_offset 6, -12
 680              		.cfi_offset 7, -8
 681              		.cfi_offset 14, -4
 682 0002 A3B0     		sub	sp, sp, #140
 683              		.cfi_def_cfa_offset 160
 684 0004 0400     		movs	r4, r0
1370:Generated_Source\PSoC4/cy_em_eeprom.c ****     uint32 i;
 685              		.loc 1 1370 5 is_stmt 1 view .LVU200
1371:Generated_Source\PSoC4/cy_em_eeprom.c ****     uint32 rdAddr;
 686              		.loc 1 1371 5 view .LVU201
1372:Generated_Source\PSoC4/cy_em_eeprom.c ****     uint32 writeRamBuffer[CY_EM_EEPROM_FLASH_SIZEOF_ROW / CY_EM_EEPROM_U32_DIV];
 687              		.loc 1 1372 5 view .LVU202
1373:Generated_Source\PSoC4/cy_em_eeprom.c ****     uint32 wrAddr = context->lastWrRowAddr;
 688              		.loc 1 1373 5 view .LVU203
 689              		.loc 1 1373 28 is_stmt 0 view .LVU204
 690 0006 8368     		ldr	r3, [r0, #8]
 691              		.loc 1 1373 12 view .LVU205
 692 0008 0093     		str	r3, [sp]
1374:Generated_Source\PSoC4/cy_em_eeprom.c ****     uint32 tmpRowAddr;
 693              		.loc 1 1374 5 is_stmt 1 view .LVU206
1375:Generated_Source\PSoC4/cy_em_eeprom.c ****     /* Get the sequence number (number of writes) */
1376:Generated_Source\PSoC4/cy_em_eeprom.c ****     uint32 seqNum = CY_EM_EEPROM_GET_SEQ_NUM(wrAddr);
 694              		.loc 1 1376 5 view .LVU207
 695              		.loc 1 1376 12 is_stmt 0 view .LVU208
 696 000a 1D68     		ldr	r5, [r3]
 697              	.LVL74:
1377:Generated_Source\PSoC4/cy_em_eeprom.c ****     cy_en_em_eeprom_status_t ret = CY_EM_EEPROM_BAD_PARAM;
 698              		.loc 1 1377 5 is_stmt 1 view .LVU209
1378:Generated_Source\PSoC4/cy_em_eeprom.c **** 
1379:Generated_Source\PSoC4/cy_em_eeprom.c ****     for(i = 0u; i < (context->numberOfRows * context->wearLevelingFactor); i++)
 699              		.loc 1 1379 5 view .LVU210
1377:Generated_Source\PSoC4/cy_em_eeprom.c ****     cy_en_em_eeprom_status_t ret = CY_EM_EEPROM_BAD_PARAM;
 700              		.loc 1 1377 30 is_stmt 0 view .LVU211
 701 000c 0126     		movs	r6, #1
 702              		.loc 1 1379 11 view .LVU212
 703 000e 0027     		movs	r7, #0
 704              	.LVL75:
 705              	.L48:
 706              		.loc 1 1379 44 discriminator 1 view .LVU213
 707 0010 2369     		ldr	r3, [r4, #16]
 708 0012 6268     		ldr	r2, [r4, #4]
 709 0014 5343     		muls	r3, r2
 710              		.loc 1 1379 5 discriminator 1 view .LVU214
ARM GAS  C:\Users\EDULU~1.DES\AppData\Local\Temp\cc9dcV7d.s 			page 39


 711 0016 BB42     		cmp	r3, r7
 712 0018 24D9     		bls	.L50
1380:Generated_Source\PSoC4/cy_em_eeprom.c ****     {
1381:Generated_Source\PSoC4/cy_em_eeprom.c ****         /* Copy the EEPROM row from Flash to RAM */
1382:Generated_Source\PSoC4/cy_em_eeprom.c ****         (void)memcpy((void *)&writeRamBuffer[0u], (void *)(wrAddr), CY_EM_EEPROM_FLASH_SIZEOF_ROW);
 713              		.loc 1 1382 9 is_stmt 1 discriminator 3 view .LVU215
 714              		.loc 1 1382 15 is_stmt 0 discriminator 3 view .LVU216
 715 001a 009E     		ldr	r6, [sp]
 716              	.LVL76:
 717              		.loc 1 1382 15 discriminator 3 view .LVU217
 718 001c 311D     		adds	r1, r6, #4
 719 001e 7C22     		movs	r2, #124
 720 0020 02A8     		add	r0, sp, #8
 721 0022 FFF7FEFF 		bl	memcpy
 722              	.LVL77:
1383:Generated_Source\PSoC4/cy_em_eeprom.c **** 
1384:Generated_Source\PSoC4/cy_em_eeprom.c ****         /* Increment the sequence number */
1385:Generated_Source\PSoC4/cy_em_eeprom.c ****         seqNum++;
 723              		.loc 1 1385 9 is_stmt 1 discriminator 3 view .LVU218
 724              		.loc 1 1385 15 is_stmt 0 discriminator 3 view .LVU219
 725 0026 0135     		adds	r5, r5, #1
 726              	.LVL78:
1386:Generated_Source\PSoC4/cy_em_eeprom.c ****         writeRamBuffer[CY_EM_EEPROM_HEADER_SEQ_NUM_OFFSET_U32] = seqNum;
 727              		.loc 1 1386 9 is_stmt 1 discriminator 3 view .LVU220
 728              		.loc 1 1386 64 is_stmt 0 discriminator 3 view .LVU221
 729 0028 0195     		str	r5, [sp, #4]
1387:Generated_Source\PSoC4/cy_em_eeprom.c **** 
1388:Generated_Source\PSoC4/cy_em_eeprom.c ****         /* Calculate and fill the checksum to the Em_EEPROM header */
1389:Generated_Source\PSoC4/cy_em_eeprom.c ****         writeRamBuffer[CY_EM_EEPROM_HEADER_CHECKSUM_OFFSET_U32] = (uint32)
 730              		.loc 1 1389 9 is_stmt 1 discriminator 3 view .LVU222
1390:Generated_Source\PSoC4/cy_em_eeprom.c ****                     CalcChecksum((uint8 *) &writeRamBuffer[CY_EM_EEPROM_EEPROM_DATA_OFFSET_U32],
 731              		.loc 1 1390 21 is_stmt 0 discriminator 3 view .LVU223
 732 002a 4021     		movs	r1, #64
 733 002c 11A8     		add	r0, sp, #68
 734 002e FFF7FEFF 		bl	CalcChecksum
 735              	.LVL79:
1389:Generated_Source\PSoC4/cy_em_eeprom.c ****                     CalcChecksum((uint8 *) &writeRamBuffer[CY_EM_EEPROM_EEPROM_DATA_OFFSET_U32],
 736              		.loc 1 1389 65 discriminator 3 view .LVU224
 737 0032 1090     		str	r0, [sp, #64]
1391:Generated_Source\PSoC4/cy_em_eeprom.c ****                                               CY_EM_EEPROM_EEPROM_DATA_LEN);
1392:Generated_Source\PSoC4/cy_em_eeprom.c **** 
1393:Generated_Source\PSoC4/cy_em_eeprom.c ****         /* Write the data to the specified flash row */
1394:Generated_Source\PSoC4/cy_em_eeprom.c ****         ret = WriteRow(wrAddr, writeRamBuffer, context);
 738              		.loc 1 1394 9 is_stmt 1 discriminator 3 view .LVU225
 739              		.loc 1 1394 15 is_stmt 0 discriminator 3 view .LVU226
 740 0034 2200     		movs	r2, r4
 741 0036 01A9     		add	r1, sp, #4
 742 0038 3000     		movs	r0, r6
 743 003a FFF7FEFF 		bl	WriteRow
 744              	.LVL80:
1395:Generated_Source\PSoC4/cy_em_eeprom.c **** 
1396:Generated_Source\PSoC4/cy_em_eeprom.c ****         /* Update the row address to point to the relevant row in the redundant 
1397:Generated_Source\PSoC4/cy_em_eeprom.c ****         * EEPROM's copy.
1398:Generated_Source\PSoC4/cy_em_eeprom.c ****         */
1399:Generated_Source\PSoC4/cy_em_eeprom.c ****         tmpRowAddr = (wrAddr - context->userFlashStartAddr) + context->wlEndAddr;
 745              		.loc 1 1399 9 is_stmt 1 discriminator 3 view .LVU227
 746              		.loc 1 1399 30 is_stmt 0 discriminator 3 view .LVU228
ARM GAS  C:\Users\EDULU~1.DES\AppData\Local\Temp\cc9dcV7d.s 			page 40


 747 003e 009B     		ldr	r3, [sp]
 748 0040 A269     		ldr	r2, [r4, #24]
 749 0042 981A     		subs	r0, r3, r2
 750              		.loc 1 1399 20 discriminator 3 view .LVU229
 751 0044 2368     		ldr	r3, [r4]
 752 0046 9C46     		mov	ip, r3
 753 0048 6044     		add	r0, r0, ip
 754              	.LVL81:
1400:Generated_Source\PSoC4/cy_em_eeprom.c **** 
1401:Generated_Source\PSoC4/cy_em_eeprom.c ****         /* Write the data to the specified flash row */
1402:Generated_Source\PSoC4/cy_em_eeprom.c ****         ret = WriteRow(tmpRowAddr, writeRamBuffer, context);
 755              		.loc 1 1402 9 is_stmt 1 discriminator 3 view .LVU230
 756              		.loc 1 1402 15 is_stmt 0 discriminator 3 view .LVU231
 757 004a 2200     		movs	r2, r4
 758 004c 01A9     		add	r1, sp, #4
 759 004e FFF7FEFF 		bl	WriteRow
 760              	.LVL82:
 761              		.loc 1 1402 15 discriminator 3 view .LVU232
 762 0052 0600     		movs	r6, r0
 763              	.LVL83:
1403:Generated_Source\PSoC4/cy_em_eeprom.c **** 
1404:Generated_Source\PSoC4/cy_em_eeprom.c ****         /* Get the address of the next row to be written. 
1405:Generated_Source\PSoC4/cy_em_eeprom.c ****         * "rdAddr" is not used in this function but provided to prevent NULL 
1406:Generated_Source\PSoC4/cy_em_eeprom.c ****         * pointer exception in GetNextRowToWrite().
1407:Generated_Source\PSoC4/cy_em_eeprom.c ****         */
1408:Generated_Source\PSoC4/cy_em_eeprom.c ****         GetNextRowToWrite(seqNum, &wrAddr, &rdAddr, context);
 764              		.loc 1 1408 9 is_stmt 1 discriminator 3 view .LVU233
 765 0054 2300     		movs	r3, r4
 766 0056 21AA     		add	r2, sp, #132
 767 0058 6946     		mov	r1, sp
 768 005a 2800     		movs	r0, r5
 769              	.LVL84:
 770              		.loc 1 1408 9 is_stmt 0 discriminator 3 view .LVU234
 771 005c FFF7FEFF 		bl	GetNextRowToWrite
 772              	.LVL85:
1379:Generated_Source\PSoC4/cy_em_eeprom.c ****     {
 773              		.loc 1 1379 77 discriminator 3 view .LVU235
 774 0060 0137     		adds	r7, r7, #1
 775              	.LVL86:
1379:Generated_Source\PSoC4/cy_em_eeprom.c ****     {
 776              		.loc 1 1379 77 discriminator 3 view .LVU236
 777 0062 D5E7     		b	.L48
 778              	.L50:
1409:Generated_Source\PSoC4/cy_em_eeprom.c ****     }
1410:Generated_Source\PSoC4/cy_em_eeprom.c ****     
1411:Generated_Source\PSoC4/cy_em_eeprom.c ****     return(ret);
 779              		.loc 1 1411 5 is_stmt 1 view .LVU237
1412:Generated_Source\PSoC4/cy_em_eeprom.c **** }
 780              		.loc 1 1412 1 is_stmt 0 view .LVU238
 781 0064 3000     		movs	r0, r6
 782 0066 23B0     		add	sp, sp, #140
 783              		@ sp needed
 784              	.LVL87:
 785              	.LVL88:
 786              	.LVL89:
 787              	.LVL90:
 788              		.loc 1 1412 1 view .LVU239
ARM GAS  C:\Users\EDULU~1.DES\AppData\Local\Temp\cc9dcV7d.s 			page 41


 789 0068 F0BD     		pop	{r4, r5, r6, r7, pc}
 790              		.cfi_endproc
 791              	.LFE14:
 792              		.size	FillChecksum, .-FillChecksum
 793              		.section	.text.CheckCrcAndCopy,"ax",%progbits
 794              		.align	1
 795              		.syntax unified
 796              		.code	16
 797              		.thumb_func
 798              		.fpu softvfp
 799              		.type	CheckCrcAndCopy, %function
 800              	CheckCrcAndCopy:
 801              	.LVL91:
 802              	.LFB12:
1218:Generated_Source\PSoC4/cy_em_eeprom.c ****     cy_en_em_eeprom_status_t ret;
 803              		.loc 1 1218 1 is_stmt 1 view -0
 804              		.cfi_startproc
 805              		@ args = 4, pretend = 0, frame = 144
 806              		@ frame_needed = 0, uses_anonymous_args = 0
1218:Generated_Source\PSoC4/cy_em_eeprom.c ****     cy_en_em_eeprom_status_t ret;
 807              		.loc 1 1218 1 is_stmt 0 view .LVU241
 808 0000 F0B5     		push	{r4, r5, r6, r7, lr}
 809              		.cfi_def_cfa_offset 20
 810              		.cfi_offset 4, -20
 811              		.cfi_offset 5, -16
 812              		.cfi_offset 6, -12
 813              		.cfi_offset 7, -8
 814              		.cfi_offset 14, -4
 815 0002 A5B0     		sub	sp, sp, #148
 816              		.cfi_def_cfa_offset 168
 817 0004 0600     		movs	r6, r0
 818 0006 0191     		str	r1, [sp, #4]
 819 0008 0292     		str	r2, [sp, #8]
 820 000a 0393     		str	r3, [sp, #12]
 821 000c 2A9F     		ldr	r7, [sp, #168]
1219:Generated_Source\PSoC4/cy_em_eeprom.c ****     uint32 writeRamBuffer[CY_EM_EEPROM_FLASH_SIZEOF_ROW / CY_EM_EEPROM_U32_DIV];
 822              		.loc 1 1219 5 is_stmt 1 view .LVU242
1220:Generated_Source\PSoC4/cy_em_eeprom.c **** 
 823              		.loc 1 1220 5 view .LVU243
1223:Generated_Source\PSoC4/cy_em_eeprom.c **** 
 824              		.loc 1 1223 5 view .LVU244
1223:Generated_Source\PSoC4/cy_em_eeprom.c **** 
 825              		.loc 1 1223 40 is_stmt 0 view .LVU245
 826 000e BB69     		ldr	r3, [r7, #24]
 827              	.LVL92:
1223:Generated_Source\PSoC4/cy_em_eeprom.c **** 
 828              		.loc 1 1223 40 view .LVU246
 829 0010 C41A     		subs	r4, r0, r3
1223:Generated_Source\PSoC4/cy_em_eeprom.c **** 
 830              		.loc 1 1223 12 view .LVU247
 831 0012 3B68     		ldr	r3, [r7]
 832 0014 9C46     		mov	ip, r3
 833 0016 6444     		add	r4, r4, ip
 834              	.LVL93:
1226:Generated_Source\PSoC4/cy_em_eeprom.c ****         ((uint32) CalcChecksum((uint8 *)(startAddr + CY_EM_EEPROM_EEPROM_DATA_OFFSET),
 835              		.loc 1 1226 5 is_stmt 1 view .LVU248
1226:Generated_Source\PSoC4/cy_em_eeprom.c ****         ((uint32) CalcChecksum((uint8 *)(startAddr + CY_EM_EEPROM_EEPROM_DATA_OFFSET),
ARM GAS  C:\Users\EDULU~1.DES\AppData\Local\Temp\cc9dcV7d.s 			page 42


 836              		.loc 1 1226 9 is_stmt 0 view .LVU249
 837 0018 C56B     		ldr	r5, [r0, #60]
1227:Generated_Source\PSoC4/cy_em_eeprom.c ****             CY_EM_EEPROM_EEPROM_DATA_LEN)))
 838              		.loc 1 1227 52 view .LVU250
 839 001a 4030     		adds	r0, r0, #64
 840              	.LVL94:
1227:Generated_Source\PSoC4/cy_em_eeprom.c ****             CY_EM_EEPROM_EEPROM_DATA_LEN)))
 841              		.loc 1 1227 19 view .LVU251
 842 001c 4021     		movs	r1, #64
 843              	.LVL95:
1227:Generated_Source\PSoC4/cy_em_eeprom.c ****             CY_EM_EEPROM_EEPROM_DATA_LEN)))
 844              		.loc 1 1227 19 view .LVU252
 845 001e FFF7FEFF 		bl	CalcChecksum
 846              	.LVL96:
1226:Generated_Source\PSoC4/cy_em_eeprom.c ****         ((uint32) CalcChecksum((uint8 *)(startAddr + CY_EM_EEPROM_EEPROM_DATA_OFFSET),
 847              		.loc 1 1226 7 view .LVU253
 848 0022 8542     		cmp	r5, r0
 849 0024 0BD0     		beq	.L55
1235:Generated_Source\PSoC4/cy_em_eeprom.c ****             ((uint32) CalcChecksum((uint8 *)(rcStartRowAddr + CY_EM_EEPROM_EEPROM_DATA_OFFSET),
 850              		.loc 1 1235 10 is_stmt 1 view .LVU254
1235:Generated_Source\PSoC4/cy_em_eeprom.c ****             ((uint32) CalcChecksum((uint8 *)(rcStartRowAddr + CY_EM_EEPROM_EEPROM_DATA_OFFSET),
 851              		.loc 1 1235 14 is_stmt 0 view .LVU255
 852 0026 E56B     		ldr	r5, [r4, #60]
1236:Generated_Source\PSoC4/cy_em_eeprom.c ****                 CY_EM_EEPROM_EEPROM_DATA_LEN)))
 853              		.loc 1 1236 61 view .LVU256
 854 0028 2000     		movs	r0, r4
 855 002a 4030     		adds	r0, r0, #64
1236:Generated_Source\PSoC4/cy_em_eeprom.c ****                 CY_EM_EEPROM_EEPROM_DATA_LEN)))
 856              		.loc 1 1236 23 view .LVU257
 857 002c 4021     		movs	r1, #64
 858 002e FFF7FEFF 		bl	CalcChecksum
 859              	.LVL97:
1235:Generated_Source\PSoC4/cy_em_eeprom.c ****             ((uint32) CalcChecksum((uint8 *)(rcStartRowAddr + CY_EM_EEPROM_EEPROM_DATA_OFFSET),
 860              		.loc 1 1235 12 view .LVU258
 861 0032 8542     		cmp	r5, r0
 862 0034 0BD0     		beq	.L56
1255:Generated_Source\PSoC4/cy_em_eeprom.c ****     }
 863              		.loc 1 1255 13 view .LVU259
 864 0036 0224     		movs	r4, #2
 865              	.LVL98:
 866              	.L53:
1258:Generated_Source\PSoC4/cy_em_eeprom.c **** }
 867              		.loc 1 1258 5 is_stmt 1 view .LVU260
1259:Generated_Source\PSoC4/cy_em_eeprom.c **** 
 868              		.loc 1 1259 1 is_stmt 0 view .LVU261
 869 0038 2000     		movs	r0, r4
 870 003a 25B0     		add	sp, sp, #148
 871              		@ sp needed
 872              	.LVL99:
 873              	.LVL100:
1259:Generated_Source\PSoC4/cy_em_eeprom.c **** 
 874              		.loc 1 1259 1 view .LVU262
 875 003c F0BD     		pop	{r4, r5, r6, r7, pc}
 876              	.LVL101:
 877              	.L55:
1230:Generated_Source\PSoC4/cy_em_eeprom.c **** 
 878              		.loc 1 1230 9 is_stmt 1 view .LVU263
ARM GAS  C:\Users\EDULU~1.DES\AppData\Local\Temp\cc9dcV7d.s 			page 43


1230:Generated_Source\PSoC4/cy_em_eeprom.c **** 
 879              		.loc 1 1230 60 is_stmt 0 view .LVU264
 880 003e 029B     		ldr	r3, [sp, #8]
 881 0040 F118     		adds	r1, r6, r3
1230:Generated_Source\PSoC4/cy_em_eeprom.c **** 
 882              		.loc 1 1230 15 view .LVU265
 883 0042 039A     		ldr	r2, [sp, #12]
 884 0044 0198     		ldr	r0, [sp, #4]
 885 0046 FFF7FEFF 		bl	memcpy
 886              	.LVL102:
1232:Generated_Source\PSoC4/cy_em_eeprom.c ****     }
 887              		.loc 1 1232 9 is_stmt 1 view .LVU266
1232:Generated_Source\PSoC4/cy_em_eeprom.c ****     }
 888              		.loc 1 1232 13 is_stmt 0 view .LVU267
 889 004a 0024     		movs	r4, #0
 890              	.LVL103:
1232:Generated_Source\PSoC4/cy_em_eeprom.c ****     }
 891              		.loc 1 1232 13 view .LVU268
 892 004c F4E7     		b	.L53
 893              	.LVL104:
 894              	.L56:
1243:Generated_Source\PSoC4/cy_em_eeprom.c **** 
 895              		.loc 1 1243 9 is_stmt 1 view .LVU269
1243:Generated_Source\PSoC4/cy_em_eeprom.c **** 
 896              		.loc 1 1243 15 is_stmt 0 view .LVU270
 897 004e 8022     		movs	r2, #128
 898 0050 2100     		movs	r1, r4
 899 0052 04A8     		add	r0, sp, #16
 900 0054 FFF7FEFF 		bl	memcpy
 901              	.LVL105:
1246:Generated_Source\PSoC4/cy_em_eeprom.c **** 
 902              		.loc 1 1246 9 is_stmt 1 view .LVU271
1246:Generated_Source\PSoC4/cy_em_eeprom.c **** 
 903              		.loc 1 1246 15 is_stmt 0 view .LVU272
 904 0058 3A00     		movs	r2, r7
 905 005a 04A9     		add	r1, sp, #16
 906 005c 3000     		movs	r0, r6
 907 005e FFF7FEFF 		bl	WriteRow
 908              	.LVL106:
 909 0062 041E     		subs	r4, r0, #0
 910              	.LVL107:
1248:Generated_Source\PSoC4/cy_em_eeprom.c ****         {
 911              		.loc 1 1248 9 is_stmt 1 view .LVU273
1248:Generated_Source\PSoC4/cy_em_eeprom.c ****         {
 912              		.loc 1 1248 11 is_stmt 0 view .LVU274
 913 0064 E8D1     		bne	.L53
1250:Generated_Source\PSoC4/cy_em_eeprom.c ****         }
 914              		.loc 1 1250 13 is_stmt 1 view .LVU275
1250:Generated_Source\PSoC4/cy_em_eeprom.c ****         }
 915              		.loc 1 1250 69 is_stmt 0 view .LVU276
 916 0066 029B     		ldr	r3, [sp, #8]
 917 0068 9D00     		lsls	r5, r3, #2
1250:Generated_Source\PSoC4/cy_em_eeprom.c ****         }
 918              		.loc 1 1250 19 view .LVU277
 919 006a 2900     		movs	r1, r5
 920 006c 04AB     		add	r3, sp, #16
 921 006e 9C46     		mov	ip, r3
ARM GAS  C:\Users\EDULU~1.DES\AppData\Local\Temp\cc9dcV7d.s 			page 44


 922 0070 6144     		add	r1, r1, ip
 923 0072 039A     		ldr	r2, [sp, #12]
 924 0074 0198     		ldr	r0, [sp, #4]
 925              	.LVL108:
1250:Generated_Source\PSoC4/cy_em_eeprom.c ****         }
 926              		.loc 1 1250 19 view .LVU278
 927 0076 FFF7FEFF 		bl	memcpy
 928              	.LVL109:
 929 007a DDE7     		b	.L53
 930              		.cfi_endproc
 931              	.LFE12:
 932              		.size	CheckCrcAndCopy, .-CheckCrcAndCopy
 933              		.section	.text.EraseRow,"ax",%progbits
 934              		.align	1
 935              		.syntax unified
 936              		.code	16
 937              		.thumb_func
 938              		.fpu softvfp
 939              		.type	EraseRow, %function
 940              	EraseRow:
 941              	.LVL110:
 942              	.LFB11:
1100:Generated_Source\PSoC4/cy_em_eeprom.c ****     uint32 emEepromRowAddr = rowAddr;
 943              		.loc 1 1100 1 is_stmt 1 view -0
 944              		.cfi_startproc
 945              		@ args = 0, pretend = 0, frame = 0
 946              		@ frame_needed = 0, uses_anonymous_args = 0
1100:Generated_Source\PSoC4/cy_em_eeprom.c ****     uint32 emEepromRowAddr = rowAddr;
 947              		.loc 1 1100 1 is_stmt 0 view .LVU280
 948 0000 70B5     		push	{r4, r5, r6, lr}
 949              		.cfi_def_cfa_offset 16
 950              		.cfi_offset 4, -16
 951              		.cfi_offset 5, -12
 952              		.cfi_offset 6, -8
 953              		.cfi_offset 14, -4
 954 0002 0400     		movs	r4, r0
 955 0004 0D00     		movs	r5, r1
 956 0006 1600     		movs	r6, r2
1101:Generated_Source\PSoC4/cy_em_eeprom.c ****     cy_en_em_eeprom_status_t ret = CY_EM_EEPROM_WRITE_FAIL;
 957              		.loc 1 1101 5 is_stmt 1 view .LVU281
 958              	.LVL111:
1102:Generated_Source\PSoC4/cy_em_eeprom.c **** #if (CY_PSOC6)
 959              		.loc 1 1102 5 view .LVU282
1159:Generated_Source\PSoC4/cy_em_eeprom.c **** 
 960              		.loc 1 1159 5 view .LVU283
1159:Generated_Source\PSoC4/cy_em_eeprom.c **** 
 961              		.loc 1 1159 11 is_stmt 0 view .LVU284
 962 0008 FFF7FEFF 		bl	WriteRow
 963              	.LVL112:
1161:Generated_Source\PSoC4/cy_em_eeprom.c ****     {
 964              		.loc 1 1161 5 is_stmt 1 view .LVU285
1161:Generated_Source\PSoC4/cy_em_eeprom.c ****     {
 965              		.loc 1 1161 7 is_stmt 0 view .LVU286
 966 000c 0028     		cmp	r0, #0
 967 000e 02D1     		bne	.L58
1161:Generated_Source\PSoC4/cy_em_eeprom.c ****     {
 968              		.loc 1 1161 55 discriminator 1 view .LVU287
ARM GAS  C:\Users\EDULU~1.DES\AppData\Local\Temp\cc9dcV7d.s 			page 45


 969 0010 337D     		ldrb	r3, [r6, #20]
1161:Generated_Source\PSoC4/cy_em_eeprom.c ****     {
 970              		.loc 1 1161 38 discriminator 1 view .LVU288
 971 0012 002B     		cmp	r3, #0
 972 0014 03D1     		bne	.L60
 973              	.LVL113:
 974              	.L58:
1168:Generated_Source\PSoC4/cy_em_eeprom.c ****     {
 975              		.loc 1 1168 5 is_stmt 1 view .LVU289
1168:Generated_Source\PSoC4/cy_em_eeprom.c ****     {
 976              		.loc 1 1168 7 is_stmt 0 view .LVU290
 977 0016 0028     		cmp	r0, #0
 978 0018 00D1     		bne	.L59
1170:Generated_Source\PSoC4/cy_em_eeprom.c ****     }
 979              		.loc 1 1170 9 is_stmt 1 view .LVU291
1170:Generated_Source\PSoC4/cy_em_eeprom.c ****     }
 980              		.loc 1 1170 32 is_stmt 0 view .LVU292
 981 001a B460     		str	r4, [r6, #8]
 982              	.L59:
1174:Generated_Source\PSoC4/cy_em_eeprom.c **** }
 983              		.loc 1 1174 5 is_stmt 1 view .LVU293
1175:Generated_Source\PSoC4/cy_em_eeprom.c **** 
 984              		.loc 1 1175 1 is_stmt 0 view .LVU294
 985              		@ sp needed
 986              	.LVL114:
 987              	.LVL115:
 988              	.LVL116:
1175:Generated_Source\PSoC4/cy_em_eeprom.c **** 
 989              		.loc 1 1175 1 view .LVU295
 990 001c 70BD     		pop	{r4, r5, r6, pc}
 991              	.LVL117:
 992              	.L60:
1164:Generated_Source\PSoC4/cy_em_eeprom.c ****         ret = WriteRow(emEepromRowAddr, (uint32 *)ramBuffAddr, context);
 993              		.loc 1 1164 9 is_stmt 1 view .LVU296
1164:Generated_Source\PSoC4/cy_em_eeprom.c ****         ret = WriteRow(emEepromRowAddr, (uint32 *)ramBuffAddr, context);
 994              		.loc 1 1164 44 is_stmt 0 view .LVU297
 995 001e B369     		ldr	r3, [r6, #24]
 996 0020 E01A     		subs	r0, r4, r3
 997              	.LVL118:
1164:Generated_Source\PSoC4/cy_em_eeprom.c ****         ret = WriteRow(emEepromRowAddr, (uint32 *)ramBuffAddr, context);
 998              		.loc 1 1164 25 view .LVU298
 999 0022 3368     		ldr	r3, [r6]
 1000 0024 9C46     		mov	ip, r3
 1001 0026 6044     		add	r0, r0, ip
 1002              	.LVL119:
1165:Generated_Source\PSoC4/cy_em_eeprom.c ****     }
 1003              		.loc 1 1165 9 is_stmt 1 view .LVU299
1165:Generated_Source\PSoC4/cy_em_eeprom.c ****     }
 1004              		.loc 1 1165 15 is_stmt 0 view .LVU300
 1005 0028 3200     		movs	r2, r6
 1006 002a 2900     		movs	r1, r5
 1007 002c FFF7FEFF 		bl	WriteRow
 1008              	.LVL120:
1165:Generated_Source\PSoC4/cy_em_eeprom.c ****     }
 1009              		.loc 1 1165 15 view .LVU301
 1010 0030 F1E7     		b	.L58
 1011              		.cfi_endproc
ARM GAS  C:\Users\EDULU~1.DES\AppData\Local\Temp\cc9dcV7d.s 			page 46


 1012              	.LFE11:
 1013              		.size	EraseRow, .-EraseRow
 1014              		.section	.text.Cy_Em_EEPROM_Init,"ax",%progbits
 1015              		.align	1
 1016              		.global	Cy_Em_EEPROM_Init
 1017              		.syntax unified
 1018              		.code	16
 1019              		.thumb_func
 1020              		.fpu softvfp
 1021              		.type	Cy_Em_EEPROM_Init, %function
 1022              	Cy_Em_EEPROM_Init:
 1023              	.LVL121:
 1024              	.LFB0:
  96:Generated_Source\PSoC4/cy_em_eeprom.c ****     cy_en_em_eeprom_status_t ret = CY_EM_EEPROM_BAD_PARAM;
 1025              		.loc 1 96 1 is_stmt 1 view -0
 1026              		.cfi_startproc
 1027              		@ args = 0, pretend = 0, frame = 0
 1028              		@ frame_needed = 0, uses_anonymous_args = 0
  96:Generated_Source\PSoC4/cy_em_eeprom.c ****     cy_en_em_eeprom_status_t ret = CY_EM_EEPROM_BAD_PARAM;
 1029              		.loc 1 96 1 is_stmt 0 view .LVU303
 1030 0000 F8B5     		push	{r3, r4, r5, r6, r7, lr}
 1031              		.cfi_def_cfa_offset 24
 1032              		.cfi_offset 3, -24
 1033              		.cfi_offset 4, -20
 1034              		.cfi_offset 5, -16
 1035              		.cfi_offset 6, -12
 1036              		.cfi_offset 7, -8
 1037              		.cfi_offset 14, -4
 1038 0002 0400     		movs	r4, r0
 1039 0004 0D1E     		subs	r5, r1, #0
  97:Generated_Source\PSoC4/cy_em_eeprom.c **** 
 1040              		.loc 1 97 5 is_stmt 1 view .LVU304
 1041              	.LVL122:
  99:Generated_Source\PSoC4/cy_em_eeprom.c ****         (config->wearLevelingFactor <= CY_EM_EEPROM_MAX_WEAR_LEVELING_FACTOR) && (config->eepromSiz
 1042              		.loc 1 99 5 view .LVU305
  99:Generated_Source\PSoC4/cy_em_eeprom.c ****         (config->wearLevelingFactor <= CY_EM_EEPROM_MAX_WEAR_LEVELING_FACTOR) && (config->eepromSiz
 1043              		.loc 1 99 7 is_stmt 0 view .LVU306
 1044 0006 3BD0     		beq	.L64
  99:Generated_Source\PSoC4/cy_em_eeprom.c ****         (config->wearLevelingFactor <= CY_EM_EEPROM_MAX_WEAR_LEVELING_FACTOR) && (config->eepromSiz
 1045              		.loc 1 99 26 discriminator 1 view .LVU307
 1046 0008 0028     		cmp	r0, #0
 1047 000a 3CD0     		beq	.L65
  99:Generated_Source\PSoC4/cy_em_eeprom.c ****         (config->wearLevelingFactor <= CY_EM_EEPROM_MAX_WEAR_LEVELING_FACTOR) && (config->eepromSiz
 1048              		.loc 1 99 46 discriminator 2 view .LVU308
 1049 000c C368     		ldr	r3, [r0, #12]
 1050 000e 002B     		cmp	r3, #0
 1051 0010 3BD0     		beq	.L66
  99:Generated_Source\PSoC4/cy_em_eeprom.c ****         (config->wearLevelingFactor <= CY_EM_EEPROM_MAX_WEAR_LEVELING_FACTOR) && (config->eepromSiz
 1052              		.loc 1 99 98 discriminator 3 view .LVU309
 1053 0012 4368     		ldr	r3, [r0, #4]
 1054 0014 0A2B     		cmp	r3, #10
 1055 0016 3AD8     		bhi	.L67
 100:Generated_Source\PSoC4/cy_em_eeprom.c ****     {
 1056              		.loc 1 100 89 view .LVU310
 1057 0018 0768     		ldr	r7, [r0]
 100:Generated_Source\PSoC4/cy_em_eeprom.c ****     {
 1058              		.loc 1 100 79 view .LVU311
ARM GAS  C:\Users\EDULU~1.DES\AppData\Local\Temp\cc9dcV7d.s 			page 47


 1059 001a 002F     		cmp	r7, #0
 1060 001c 39D0     		beq	.L68
 102:Generated_Source\PSoC4/cy_em_eeprom.c **** 
 1061              		.loc 1 102 9 is_stmt 1 view .LVU312
 102:Generated_Source\PSoC4/cy_em_eeprom.c **** 
 1062              		.loc 1 102 15 is_stmt 0 view .LVU313
 1063 001e FFF7FEFF 		bl	CheckRanges
 1064              	.LVL123:
 102:Generated_Source\PSoC4/cy_em_eeprom.c **** 
 1065              		.loc 1 102 15 view .LVU314
 1066 0022 061E     		subs	r6, r0, #0
 1067              	.LVL124:
 104:Generated_Source\PSoC4/cy_em_eeprom.c ****         {
 1068              		.loc 1 104 9 is_stmt 1 view .LVU315
 104:Generated_Source\PSoC4/cy_em_eeprom.c ****         {
 1069              		.loc 1 104 11 is_stmt 0 view .LVU316
 1070 0024 2DD1     		bne	.L62
 107:Generated_Source\PSoC4/cy_em_eeprom.c ****             context->wearLevelingFactor = config->wearLevelingFactor;
 1071              		.loc 1 107 13 is_stmt 1 view .LVU317
 107:Generated_Source\PSoC4/cy_em_eeprom.c ****             context->wearLevelingFactor = config->wearLevelingFactor;
 1072              		.loc 1 107 33 is_stmt 0 view .LVU318
 1073 0026 EF60     		str	r7, [r5, #12]
 108:Generated_Source\PSoC4/cy_em_eeprom.c ****             context->redundantCopy = config->redundantCopy;
 1074              		.loc 1 108 13 is_stmt 1 view .LVU319
 108:Generated_Source\PSoC4/cy_em_eeprom.c ****             context->redundantCopy = config->redundantCopy;
 1075              		.loc 1 108 41 is_stmt 0 view .LVU320
 1076 0028 6368     		ldr	r3, [r4, #4]
 1077 002a 2B61     		str	r3, [r5, #16]
 109:Generated_Source\PSoC4/cy_em_eeprom.c ****             context->blockingWrite = config->blockingWrite;
 1078              		.loc 1 109 13 is_stmt 1 view .LVU321
 109:Generated_Source\PSoC4/cy_em_eeprom.c ****             context->blockingWrite = config->blockingWrite;
 1079              		.loc 1 109 44 is_stmt 0 view .LVU322
 1080 002c 237A     		ldrb	r3, [r4, #8]
 109:Generated_Source\PSoC4/cy_em_eeprom.c ****             context->blockingWrite = config->blockingWrite;
 1081              		.loc 1 109 36 view .LVU323
 1082 002e 2B75     		strb	r3, [r5, #20]
 110:Generated_Source\PSoC4/cy_em_eeprom.c ****             context->userFlashStartAddr = config->userFlashStartAddr;
 1083              		.loc 1 110 13 is_stmt 1 view .LVU324
 110:Generated_Source\PSoC4/cy_em_eeprom.c ****             context->userFlashStartAddr = config->userFlashStartAddr;
 1084              		.loc 1 110 44 is_stmt 0 view .LVU325
 1085 0030 637A     		ldrb	r3, [r4, #9]
 110:Generated_Source\PSoC4/cy_em_eeprom.c ****             context->userFlashStartAddr = config->userFlashStartAddr;
 1086              		.loc 1 110 36 view .LVU326
 1087 0032 6B75     		strb	r3, [r5, #21]
 111:Generated_Source\PSoC4/cy_em_eeprom.c ****             /* Store frequently used data for internal use */
 1088              		.loc 1 111 13 is_stmt 1 view .LVU327
 111:Generated_Source\PSoC4/cy_em_eeprom.c ****             /* Store frequently used data for internal use */
 1089              		.loc 1 111 41 is_stmt 0 view .LVU328
 1090 0034 E368     		ldr	r3, [r4, #12]
 1091 0036 AB61     		str	r3, [r5, #24]
 113:Generated_Source\PSoC4/cy_em_eeprom.c ****             context->wlEndAddr = ((CY_EM_EEPROM_GET_EEPROM_SIZE(context->numberOfRows) * config->we
 1092              		.loc 1 113 13 is_stmt 1 view .LVU329
 113:Generated_Source\PSoC4/cy_em_eeprom.c ****             context->wlEndAddr = ((CY_EM_EEPROM_GET_EEPROM_SIZE(context->numberOfRows) * config->we
 1093              		.loc 1 113 37 is_stmt 0 view .LVU330
 1094 0038 2168     		ldr	r1, [r4]
 1095 003a 8A09     		lsrs	r2, r1, #6
 1096 003c 3F23     		movs	r3, #63
ARM GAS  C:\Users\EDULU~1.DES\AppData\Local\Temp\cc9dcV7d.s 			page 48


 1097 003e 0B40     		ands	r3, r1
 1098 0040 00D0     		beq	.L63
 1099 0042 0123     		movs	r3, #1
 1100              	.L63:
 113:Generated_Source\PSoC4/cy_em_eeprom.c ****             context->wlEndAddr = ((CY_EM_EEPROM_GET_EEPROM_SIZE(context->numberOfRows) * config->we
 1101              		.loc 1 113 37 discriminator 4 view .LVU331
 1102 0044 D318     		adds	r3, r2, r3
 113:Generated_Source\PSoC4/cy_em_eeprom.c ****             context->wlEndAddr = ((CY_EM_EEPROM_GET_EEPROM_SIZE(context->numberOfRows) * config->we
 1103              		.loc 1 113 35 discriminator 4 view .LVU332
 1104 0046 6B60     		str	r3, [r5, #4]
 114:Generated_Source\PSoC4/cy_em_eeprom.c ****                     config->userFlashStartAddr);
 1105              		.loc 1 114 13 is_stmt 1 discriminator 4 view .LVU333
 114:Generated_Source\PSoC4/cy_em_eeprom.c ****                     config->userFlashStartAddr);
 1106              		.loc 1 114 88 is_stmt 0 discriminator 4 view .LVU334
 1107 0048 6268     		ldr	r2, [r4, #4]
 1108 004a 5343     		muls	r3, r2
 1109 004c DB01     		lsls	r3, r3, #7
 115:Generated_Source\PSoC4/cy_em_eeprom.c ****             /* Find last written EEPROM row and store it for quick access */
 1110              		.loc 1 115 27 discriminator 4 view .LVU335
 1111 004e E268     		ldr	r2, [r4, #12]
 114:Generated_Source\PSoC4/cy_em_eeprom.c ****                     config->userFlashStartAddr);
 1112              		.loc 1 114 118 discriminator 4 view .LVU336
 1113 0050 9B18     		adds	r3, r3, r2
 114:Generated_Source\PSoC4/cy_em_eeprom.c ****                     config->userFlashStartAddr);
 1114              		.loc 1 114 32 discriminator 4 view .LVU337
 1115 0052 2B60     		str	r3, [r5]
 117:Generated_Source\PSoC4/cy_em_eeprom.c **** 
 1116              		.loc 1 117 13 is_stmt 1 discriminator 4 view .LVU338
 1117 0054 2C00     		movs	r4, r5
 1118              	.LVL125:
 117:Generated_Source\PSoC4/cy_em_eeprom.c **** 
 1119              		.loc 1 117 13 is_stmt 0 discriminator 4 view .LVU339
 1120 0056 0834     		adds	r4, r4, #8
 1121 0058 2900     		movs	r1, r5
 1122 005a 2000     		movs	r0, r4
 1123              	.LVL126:
 117:Generated_Source\PSoC4/cy_em_eeprom.c **** 
 1124              		.loc 1 117 13 discriminator 4 view .LVU340
 1125 005c FFF7FEFF 		bl	FindLastWrittenRow
 1126              	.LVL127:
 119:Generated_Source\PSoC4/cy_em_eeprom.c ****             {
 1127              		.loc 1 119 13 is_stmt 1 discriminator 4 view .LVU341
 119:Generated_Source\PSoC4/cy_em_eeprom.c ****             {
 1128              		.loc 1 119 23 is_stmt 0 discriminator 4 view .LVU342
 1129 0060 AB68     		ldr	r3, [r5, #8]
 1130 0062 1B68     		ldr	r3, [r3]
 119:Generated_Source\PSoC4/cy_em_eeprom.c ****             {
 1131              		.loc 1 119 15 discriminator 4 view .LVU343
 1132 0064 002B     		cmp	r3, #0
 1133 0066 0CD1     		bne	.L62
 119:Generated_Source\PSoC4/cy_em_eeprom.c ****             {
 1134              		.loc 1 119 90 discriminator 1 view .LVU344
 1135 0068 2B7D     		ldrb	r3, [r5, #20]
 119:Generated_Source\PSoC4/cy_em_eeprom.c ****             {
 1136              		.loc 1 119 73 discriminator 1 view .LVU345
 1137 006a 002B     		cmp	r3, #0
 1138 006c 09D0     		beq	.L62
ARM GAS  C:\Users\EDULU~1.DES\AppData\Local\Temp\cc9dcV7d.s 			page 49


 124:Generated_Source\PSoC4/cy_em_eeprom.c ****                 
 1139              		.loc 1 124 17 is_stmt 1 view .LVU346
 124:Generated_Source\PSoC4/cy_em_eeprom.c ****                 
 1140              		.loc 1 124 23 is_stmt 0 view .LVU347
 1141 006e 2800     		movs	r0, r5
 1142 0070 FFF7FEFF 		bl	FillChecksum
 1143              	.LVL128:
 1144 0074 0600     		movs	r6, r0
 1145              	.LVL129:
 127:Generated_Source\PSoC4/cy_em_eeprom.c ****             }
 1146              		.loc 1 127 17 is_stmt 1 view .LVU348
 1147 0076 2900     		movs	r1, r5
 1148 0078 2000     		movs	r0, r4
 1149              	.LVL130:
 127:Generated_Source\PSoC4/cy_em_eeprom.c ****             }
 1150              		.loc 1 127 17 is_stmt 0 view .LVU349
 1151 007a FFF7FEFF 		bl	FindLastWrittenRow
 1152              	.LVL131:
 1153 007e 00E0     		b	.L62
 1154              	.LVL132:
 1155              	.L64:
  97:Generated_Source\PSoC4/cy_em_eeprom.c **** 
 1156              		.loc 1 97 30 view .LVU350
 1157 0080 0126     		movs	r6, #1
 1158              	.LVL133:
 1159              	.L62:
 132:Generated_Source\PSoC4/cy_em_eeprom.c **** }
 1160              		.loc 1 132 5 is_stmt 1 view .LVU351
 133:Generated_Source\PSoC4/cy_em_eeprom.c **** 
 1161              		.loc 1 133 1 is_stmt 0 view .LVU352
 1162 0082 3000     		movs	r0, r6
 1163              		@ sp needed
 1164              	.LVL134:
 1165              	.LVL135:
 133:Generated_Source\PSoC4/cy_em_eeprom.c **** 
 1166              		.loc 1 133 1 view .LVU353
 1167 0084 F8BD     		pop	{r3, r4, r5, r6, r7, pc}
 1168              	.LVL136:
 1169              	.L65:
  97:Generated_Source\PSoC4/cy_em_eeprom.c **** 
 1170              		.loc 1 97 30 view .LVU354
 1171 0086 0126     		movs	r6, #1
 1172 0088 FBE7     		b	.L62
 1173              	.L66:
 1174 008a 0126     		movs	r6, #1
 1175 008c F9E7     		b	.L62
 1176              	.L67:
 1177 008e 0126     		movs	r6, #1
 1178 0090 F7E7     		b	.L62
 1179              	.L68:
 1180 0092 0126     		movs	r6, #1
 1181 0094 F5E7     		b	.L62
 1182              		.cfi_endproc
 1183              	.LFE0:
 1184              		.size	Cy_Em_EEPROM_Init, .-Cy_Em_EEPROM_Init
 1185              		.global	__aeabi_uidiv
 1186              		.section	.text.Cy_Em_EEPROM_Read,"ax",%progbits
ARM GAS  C:\Users\EDULU~1.DES\AppData\Local\Temp\cc9dcV7d.s 			page 50


 1187              		.align	1
 1188              		.global	Cy_Em_EEPROM_Read
 1189              		.syntax unified
 1190              		.code	16
 1191              		.thumb_func
 1192              		.fpu softvfp
 1193              		.type	Cy_Em_EEPROM_Read, %function
 1194              	Cy_Em_EEPROM_Read:
 1195              	.LVL137:
 1196              	.LFB1:
 173:Generated_Source\PSoC4/cy_em_eeprom.c ****     cy_en_em_eeprom_status_t ret = CY_EM_EEPROM_BAD_PARAM;
 1197              		.loc 1 173 1 is_stmt 1 view -0
 1198              		.cfi_startproc
 1199              		@ args = 0, pretend = 0, frame = 32
 1200              		@ frame_needed = 0, uses_anonymous_args = 0
 173:Generated_Source\PSoC4/cy_em_eeprom.c ****     cy_en_em_eeprom_status_t ret = CY_EM_EEPROM_BAD_PARAM;
 1201              		.loc 1 173 1 is_stmt 0 view .LVU356
 1202 0000 F0B5     		push	{r4, r5, r6, r7, lr}
 1203              		.cfi_def_cfa_offset 20
 1204              		.cfi_offset 4, -20
 1205              		.cfi_offset 5, -16
 1206              		.cfi_offset 6, -12
 1207              		.cfi_offset 7, -8
 1208              		.cfi_offset 14, -4
 1209 0002 DE46     		mov	lr, fp
 1210 0004 5746     		mov	r7, r10
 1211 0006 4E46     		mov	r6, r9
 1212 0008 4546     		mov	r5, r8
 1213 000a E0B5     		push	{r5, r6, r7, lr}
 1214              		.cfi_def_cfa_offset 36
 1215              		.cfi_offset 8, -36
 1216              		.cfi_offset 9, -32
 1217              		.cfi_offset 10, -28
 1218              		.cfi_offset 11, -24
 1219 000c 8BB0     		sub	sp, sp, #44
 1220              		.cfi_def_cfa_offset 80
 1221 000e 8146     		mov	r9, r0
 1222 0010 0D00     		movs	r5, r1
 1223 0012 9046     		mov	r8, r2
 1224 0014 1F00     		movs	r7, r3
 174:Generated_Source\PSoC4/cy_em_eeprom.c ****     uint32 i;
 1225              		.loc 1 174 5 is_stmt 1 view .LVU357
 1226              	.LVL138:
 175:Generated_Source\PSoC4/cy_em_eeprom.c ****     uint32 numBytesToRead;
 1227              		.loc 1 175 5 view .LVU358
 176:Generated_Source\PSoC4/cy_em_eeprom.c ****     uint32 curEepromBaseAddr;
 1228              		.loc 1 176 5 view .LVU359
 177:Generated_Source\PSoC4/cy_em_eeprom.c ****     uint32 curRowOffset;
 1229              		.loc 1 177 5 view .LVU360
 178:Generated_Source\PSoC4/cy_em_eeprom.c ****     uint32 startRowAddr;
 1230              		.loc 1 178 5 view .LVU361
 179:Generated_Source\PSoC4/cy_em_eeprom.c ****     uint32 actEepromRowNum;
 1231              		.loc 1 179 5 view .LVU362
 180:Generated_Source\PSoC4/cy_em_eeprom.c ****     uint32 curRdEepromRowNum = 0u;
 1232              		.loc 1 180 5 view .LVU363
 181:Generated_Source\PSoC4/cy_em_eeprom.c ****     uint32 dataStartEepromRowNum = 0u;
 1233              		.loc 1 181 5 view .LVU364
ARM GAS  C:\Users\EDULU~1.DES\AppData\Local\Temp\cc9dcV7d.s 			page 51


 182:Generated_Source\PSoC4/cy_em_eeprom.c ****     uint32 eeData = (uint32) eepromData; /* To avoid the pointer arithmetic with void */
 1234              		.loc 1 182 5 view .LVU365
 183:Generated_Source\PSoC4/cy_em_eeprom.c **** 
 1235              		.loc 1 183 5 view .LVU366
 183:Generated_Source\PSoC4/cy_em_eeprom.c **** 
 1236              		.loc 1 183 12 is_stmt 0 view .LVU367
 1237 0016 0691     		str	r1, [sp, #24]
 1238              	.LVL139:
 186:Generated_Source\PSoC4/cy_em_eeprom.c ****     {
 1239              		.loc 1 186 5 is_stmt 1 view .LVU368
 186:Generated_Source\PSoC4/cy_em_eeprom.c ****     {
 1240              		.loc 1 186 7 is_stmt 0 view .LVU369
 1241 0018 131E     		subs	r3, r2, #0
 1242              	.LVL140:
 186:Generated_Source\PSoC4/cy_em_eeprom.c ****     {
 1243              		.loc 1 186 7 view .LVU370
 1244 001a 00D1     		bne	.LCB1156
 1245 001c EFE0     		b	.L94	@long jump
 1246              	.LCB1156:
 186:Generated_Source\PSoC4/cy_em_eeprom.c ****     {
 1247              		.loc 1 186 31 discriminator 1 view .LVU371
 1248 001e 4B44     		add	r3, r3, r9
 1249 0020 0793     		str	r3, [sp, #28]
 186:Generated_Source\PSoC4/cy_em_eeprom.c ****     {
 1250              		.loc 1 186 21 discriminator 1 view .LVU372
 1251 0022 F968     		ldr	r1, [r7, #12]
 1252              	.LVL141:
 186:Generated_Source\PSoC4/cy_em_eeprom.c ****     {
 1253              		.loc 1 186 21 discriminator 1 view .LVU373
 1254 0024 8B42     		cmp	r3, r1
 1255 0026 00D9     		bls	.LCB1164
 1256 0028 F3E0     		b	.L95	@long jump
 1257              	.LCB1164:
 186:Generated_Source\PSoC4/cy_em_eeprom.c ****     {
 1258              		.loc 1 186 65 discriminator 2 view .LVU374
 1259 002a 002D     		cmp	r5, #0
 1260 002c 00D1     		bne	.LCB1166
 1261 002e F3E0     		b	.L96	@long jump
 1262              	.LCB1166:
 1263              	.LBB2:
 188:Generated_Source\PSoC4/cy_em_eeprom.c ****         uint32 rdSize = size;
 1264              		.loc 1 188 9 is_stmt 1 view .LVU375
 1265              	.LVL142:
 189:Generated_Source\PSoC4/cy_em_eeprom.c ****         /* Get the sequence number of the last written row */
 1266              		.loc 1 189 9 view .LVU376
 191:Generated_Source\PSoC4/cy_em_eeprom.c ****         uint32 updateAddrFlag = 0u;
 1267              		.loc 1 191 9 view .LVU377
 191:Generated_Source\PSoC4/cy_em_eeprom.c ****         uint32 updateAddrFlag = 0u;
 1268              		.loc 1 191 25 is_stmt 0 view .LVU378
 1269 0030 BA68     		ldr	r2, [r7, #8]
 1270              	.LVL143:
 191:Generated_Source\PSoC4/cy_em_eeprom.c ****         uint32 updateAddrFlag = 0u;
 1271              		.loc 1 191 25 view .LVU379
 1272 0032 9246     		mov	r10, r2
 191:Generated_Source\PSoC4/cy_em_eeprom.c ****         uint32 updateAddrFlag = 0u;
 1273              		.loc 1 191 16 view .LVU380
 1274 0034 1268     		ldr	r2, [r2]
ARM GAS  C:\Users\EDULU~1.DES\AppData\Local\Temp\cc9dcV7d.s 			page 52


 1275 0036 0992     		str	r2, [sp, #36]
 1276              	.LVL144:
 192:Generated_Source\PSoC4/cy_em_eeprom.c **** 
 1277              		.loc 1 192 9 is_stmt 1 view .LVU381
 197:Generated_Source\PSoC4/cy_em_eeprom.c ****                               (rdAddr / CY_EM_EEPROM_EEPROM_DATA_LEN)) + 1u;
 1278              		.loc 1 197 9 view .LVU382
 197:Generated_Source\PSoC4/cy_em_eeprom.c ****                               (rdAddr / CY_EM_EEPROM_EEPROM_DATA_LEN)) + 1u;
 1279              		.loc 1 197 51 is_stmt 0 view .LVU383
 1280 0038 013B     		subs	r3, r3, #1
 197:Generated_Source\PSoC4/cy_em_eeprom.c ****                               (rdAddr / CY_EM_EEPROM_EEPROM_DATA_LEN)) + 1u;
 1281              		.loc 1 197 57 view .LVU384
 1282 003a 9B09     		lsrs	r3, r3, #6
 198:Generated_Source\PSoC4/cy_em_eeprom.c **** 
 1283              		.loc 1 198 39 view .LVU385
 1284 003c 8209     		lsrs	r2, r0, #6
 1285              	.LVL145:
 197:Generated_Source\PSoC4/cy_em_eeprom.c ****                               (rdAddr / CY_EM_EEPROM_EEPROM_DATA_LEN)) + 1u;
 1286              		.loc 1 197 89 view .LVU386
 1287 003e 9B1A     		subs	r3, r3, r2
 197:Generated_Source\PSoC4/cy_em_eeprom.c ****                               (rdAddr / CY_EM_EEPROM_EEPROM_DATA_LEN)) + 1u;
 1288              		.loc 1 197 16 view .LVU387
 1289 0040 0133     		adds	r3, r3, #1
 1290 0042 9B46     		mov	fp, r3
 1291              	.LVL146:
 204:Generated_Source\PSoC4/cy_em_eeprom.c ****                               (CY_EM_EEPROM_FLASH_SIZEOF_ROW * context->numberOfRows)) *
 1292              		.loc 1 204 9 is_stmt 1 view .LVU388
 206:Generated_Source\PSoC4/cy_em_eeprom.c ****                                context->userFlashStartAddr;
 1293              		.loc 1 206 71 is_stmt 0 view .LVU389
 1294 0044 7E68     		ldr	r6, [r7, #4]
 204:Generated_Source\PSoC4/cy_em_eeprom.c ****                               (CY_EM_EEPROM_FLASH_SIZEOF_ROW * context->numberOfRows)) *
 1295              		.loc 1 204 64 view .LVU390
 1296 0046 BC69     		ldr	r4, [r7, #24]
 204:Generated_Source\PSoC4/cy_em_eeprom.c ****                               (CY_EM_EEPROM_FLASH_SIZEOF_ROW * context->numberOfRows)) *
 1297              		.loc 1 204 55 view .LVU391
 1298 0048 5346     		mov	r3, r10
 1299              	.LVL147:
 204:Generated_Source\PSoC4/cy_em_eeprom.c ****                               (CY_EM_EEPROM_FLASH_SIZEOF_ROW * context->numberOfRows)) *
 1300              		.loc 1 204 55 view .LVU392
 1301 004a 181B     		subs	r0, r3, r4
 1302              	.LVL148:
 205:Generated_Source\PSoC4/cy_em_eeprom.c ****                               (CY_EM_EEPROM_FLASH_SIZEOF_ROW * context->numberOfRows)) +
 1303              		.loc 1 205 62 view .LVU393
 1304 004c F101     		lsls	r1, r6, #7
 204:Generated_Source\PSoC4/cy_em_eeprom.c ****                               (CY_EM_EEPROM_FLASH_SIZEOF_ROW * context->numberOfRows)) *
 1305              		.loc 1 204 86 view .LVU394
 1306 004e FFF7FEFF 		bl	__aeabi_uidiv
 1307              	.LVL149:
 205:Generated_Source\PSoC4/cy_em_eeprom.c ****                               (CY_EM_EEPROM_FLASH_SIZEOF_ROW * context->numberOfRows)) +
 1308              		.loc 1 205 88 view .LVU395
 1309 0052 7043     		muls	r0, r6
 1310 0054 C001     		lsls	r0, r0, #7
 204:Generated_Source\PSoC4/cy_em_eeprom.c ****                               (CY_EM_EEPROM_FLASH_SIZEOF_ROW * context->numberOfRows)) *
 1311              		.loc 1 204 27 view .LVU396
 1312 0056 2318     		adds	r3, r4, r0
 1313 0058 0393     		str	r3, [sp, #12]
 1314              	.LVL150:
 210:Generated_Source\PSoC4/cy_em_eeprom.c ****         {
ARM GAS  C:\Users\EDULU~1.DES\AppData\Local\Temp\cc9dcV7d.s 			page 53


 1315              		.loc 1 210 9 is_stmt 1 view .LVU397
 210:Generated_Source\PSoC4/cy_em_eeprom.c ****         {
 1316              		.loc 1 210 15 is_stmt 0 view .LVU398
 1317 005a 0024     		movs	r4, #0
 1318 005c 4A46     		mov	r2, r9
 210:Generated_Source\PSoC4/cy_em_eeprom.c ****         {
 1319              		.loc 1 210 9 view .LVU399
 1320 005e 00E0     		b	.L71
 1321              	.LVL151:
 1322              	.L72:
 210:Generated_Source\PSoC4/cy_em_eeprom.c ****         {
 1323              		.loc 1 210 49 view .LVU400
 1324 0060 0134     		adds	r4, r4, #1
 1325              	.LVL152:
 1326              	.L71:
 210:Generated_Source\PSoC4/cy_em_eeprom.c ****         {
 1327              		.loc 1 210 9 discriminator 1 view .LVU401
 1328 0062 A642     		cmp	r6, r4
 1329 0064 09D9     		bls	.L104
 212:Generated_Source\PSoC4/cy_em_eeprom.c ****             {
 1330              		.loc 1 212 13 is_stmt 1 view .LVU402
 212:Generated_Source\PSoC4/cy_em_eeprom.c ****             {
 1331              		.loc 1 212 22 is_stmt 0 view .LVU403
 1332 0066 A301     		lsls	r3, r4, #6
 1333 0068 9342     		cmp	r3, r2
 1334 006a F9D8     		bhi	.L72
 212:Generated_Source\PSoC4/cy_em_eeprom.c ****             {
 1335              		.loc 1 212 22 discriminator 1 view .LVU404
 1336 006c 631C     		adds	r3, r4, #1
 1337 006e 9B01     		lsls	r3, r3, #6
 1338 0070 013B     		subs	r3, r3, #1
 1339 0072 9342     		cmp	r3, r2
 1340 0074 F4D3     		bcc	.L72
 1341 0076 9146     		mov	r9, r2
 1342              	.LVL153:
 212:Generated_Source\PSoC4/cy_em_eeprom.c ****             {
 1343              		.loc 1 212 22 discriminator 1 view .LVU405
 1344 0078 01E0     		b	.L73
 1345              	.L104:
 212:Generated_Source\PSoC4/cy_em_eeprom.c ****             {
 1346              		.loc 1 212 22 discriminator 1 view .LVU406
 1347 007a 9146     		mov	r9, r2
 1348              	.LBE2:
 181:Generated_Source\PSoC4/cy_em_eeprom.c ****     uint32 dataStartEepromRowNum = 0u;
 1349              		.loc 1 181 12 view .LVU407
 1350 007c 0024     		movs	r4, #0
 1351              	.LVL154:
 1352              	.L73:
 1353              	.LBB9:
 221:Generated_Source\PSoC4/cy_em_eeprom.c **** 
 1354              		.loc 1 221 9 is_stmt 1 view .LVU408
 221:Generated_Source\PSoC4/cy_em_eeprom.c **** 
 1355              		.loc 1 221 51 is_stmt 0 view .LVU409
 1356 007e 5346     		mov	r3, r10
 1357 0080 039A     		ldr	r2, [sp, #12]
 1358              	.LVL155:
 221:Generated_Source\PSoC4/cy_em_eeprom.c **** 
ARM GAS  C:\Users\EDULU~1.DES\AppData\Local\Temp\cc9dcV7d.s 			page 54


 1359              		.loc 1 221 51 view .LVU410
 1360 0082 9B1A     		subs	r3, r3, r2
 221:Generated_Source\PSoC4/cy_em_eeprom.c **** 
 1361              		.loc 1 221 25 view .LVU411
 1362 0084 DA09     		lsrs	r2, r3, #7
 1363 0086 0592     		str	r2, [sp, #20]
 1364              	.LVL156:
 224:Generated_Source\PSoC4/cy_em_eeprom.c ****         {
 1365              		.loc 1 224 9 is_stmt 1 view .LVU412
 224:Generated_Source\PSoC4/cy_em_eeprom.c ****         {
 1366              		.loc 1 224 11 is_stmt 0 view .LVU413
 1367 0088 3B69     		ldr	r3, [r7, #16]
 1368 008a 012B     		cmp	r3, #1
 1369 008c 09D9     		bls	.L97
 1370              	.LBB3:
 226:Generated_Source\PSoC4/cy_em_eeprom.c **** 
 1371              		.loc 1 226 13 is_stmt 1 view .LVU414
 226:Generated_Source\PSoC4/cy_em_eeprom.c **** 
 1372              		.loc 1 226 64 is_stmt 0 view .LVU415
 1373 008e 5B46     		mov	r3, fp
 1374 0090 E318     		adds	r3, r4, r3
 226:Generated_Source\PSoC4/cy_em_eeprom.c **** 
 1375              		.loc 1 226 20 view .LVU416
 1376 0092 013B     		subs	r3, r3, #1
 1377              	.LVL157:
 229:Generated_Source\PSoC4/cy_em_eeprom.c ****                               ((dataEndEepromRowNum > actEepromRowNum) ? 1u : 0u);
 1378              		.loc 1 229 13 is_stmt 1 view .LVU417
 229:Generated_Source\PSoC4/cy_em_eeprom.c ****                               ((dataEndEepromRowNum > actEepromRowNum) ? 1u : 0u);
 1379              		.loc 1 229 77 is_stmt 0 view .LVU418
 1380 0094 9442     		cmp	r4, r2
 1381 0096 10D8     		bhi	.L98
 229:Generated_Source\PSoC4/cy_em_eeprom.c ****                               ((dataEndEepromRowNum > actEepromRowNum) ? 1u : 0u);
 1382              		.loc 1 229 77 discriminator 1 view .LVU419
 1383 0098 9A42     		cmp	r2, r3
 1384 009a 11D2     		bcs	.L99
 229:Generated_Source\PSoC4/cy_em_eeprom.c ****                               ((dataEndEepromRowNum > actEepromRowNum) ? 1u : 0u);
 1385              		.loc 1 229 77 view .LVU420
 1386 009c 0123     		movs	r3, #1
 1387              	.LVL158:
 229:Generated_Source\PSoC4/cy_em_eeprom.c ****                               ((dataEndEepromRowNum > actEepromRowNum) ? 1u : 0u);
 1388              		.loc 1 229 77 view .LVU421
 1389 009e 0493     		str	r3, [sp, #16]
 1390 00a0 01E0     		b	.L75
 1391              	.LVL159:
 1392              	.L97:
 229:Generated_Source\PSoC4/cy_em_eeprom.c ****                               ((dataEndEepromRowNum > actEepromRowNum) ? 1u : 0u);
 1393              		.loc 1 229 77 view .LVU422
 1394              	.LBE3:
 192:Generated_Source\PSoC4/cy_em_eeprom.c **** 
 1395              		.loc 1 192 16 view .LVU423
 1396 00a2 0023     		movs	r3, #0
 1397 00a4 0493     		str	r3, [sp, #16]
 1398              	.L75:
 1399              	.LVL160:
 234:Generated_Source\PSoC4/cy_em_eeprom.c ****         {
 1400              		.loc 1 234 9 is_stmt 1 view .LVU424
 188:Generated_Source\PSoC4/cy_em_eeprom.c ****         uint32 rdSize = size;
ARM GAS  C:\Users\EDULU~1.DES\AppData\Local\Temp\cc9dcV7d.s 			page 55


 1401              		.loc 1 188 16 is_stmt 0 view .LVU425
 1402 00a6 CA46     		mov	r10, r9
 234:Generated_Source\PSoC4/cy_em_eeprom.c ****         {
 1403              		.loc 1 234 15 view .LVU426
 1404 00a8 0026     		movs	r6, #0
 1405              	.LBE9:
 174:Generated_Source\PSoC4/cy_em_eeprom.c ****     uint32 i;
 1406              		.loc 1 174 30 view .LVU427
 1407 00aa 0120     		movs	r0, #1
 1408 00ac 4B46     		mov	r3, r9
 1409 00ae 0893     		str	r3, [sp, #32]
 1410 00b0 A946     		mov	r9, r5
 1411              	.LVL161:
 174:Generated_Source\PSoC4/cy_em_eeprom.c ****     uint32 i;
 1412              		.loc 1 174 30 view .LVU428
 1413 00b2 3B00     		movs	r3, r7
 1414              	.LVL162:
 174:Generated_Source\PSoC4/cy_em_eeprom.c ****     uint32 i;
 1415              		.loc 1 174 30 view .LVU429
 1416 00b4 5746     		mov	r7, r10
 1417              	.LVL163:
 174:Generated_Source\PSoC4/cy_em_eeprom.c ****     uint32 i;
 1418              		.loc 1 174 30 view .LVU430
 1419 00b6 9A46     		mov	r10, r3
 1420              	.LVL164:
 1421              	.LBB10:
 234:Generated_Source\PSoC4/cy_em_eeprom.c ****         {
 1422              		.loc 1 234 9 view .LVU431
 1423 00b8 13E0     		b	.L76
 1424              	.LVL165:
 1425              	.L98:
 1426              	.LBB4:
 229:Generated_Source\PSoC4/cy_em_eeprom.c ****                               ((dataEndEepromRowNum > actEepromRowNum) ? 1u : 0u);
 1427              		.loc 1 229 77 view .LVU432
 1428 00ba 0123     		movs	r3, #1
 1429              	.LVL166:
 229:Generated_Source\PSoC4/cy_em_eeprom.c ****                               ((dataEndEepromRowNum > actEepromRowNum) ? 1u : 0u);
 1430              		.loc 1 229 77 view .LVU433
 1431 00bc 0493     		str	r3, [sp, #16]
 1432 00be F2E7     		b	.L75
 1433              	.LVL167:
 1434              	.L99:
 229:Generated_Source\PSoC4/cy_em_eeprom.c ****                               ((dataEndEepromRowNum > actEepromRowNum) ? 1u : 0u);
 1435              		.loc 1 229 77 view .LVU434
 1436 00c0 0023     		movs	r3, #0
 1437              	.LVL168:
 229:Generated_Source\PSoC4/cy_em_eeprom.c ****                               ((dataEndEepromRowNum > actEepromRowNum) ? 1u : 0u);
 1438              		.loc 1 229 77 view .LVU435
 1439 00c2 0493     		str	r3, [sp, #16]
 1440 00c4 EFE7     		b	.L75
 1441              	.LVL169:
 1442              	.L100:
 229:Generated_Source\PSoC4/cy_em_eeprom.c ****                               ((dataEndEepromRowNum > actEepromRowNum) ? 1u : 0u);
 1443              		.loc 1 229 77 view .LVU436
 1444              	.LBE4:
 248:Generated_Source\PSoC4/cy_em_eeprom.c ****             }
 1445              		.loc 1 248 32 view .LVU437
ARM GAS  C:\Users\EDULU~1.DES\AppData\Local\Temp\cc9dcV7d.s 			page 56


 1446 00c6 4546     		mov	r5, r8
 1447 00c8 1AE0     		b	.L77
 1448              	.LVL170:
 1449              	.L79:
 280:Generated_Source\PSoC4/cy_em_eeprom.c ****                              (void *)(startRowAddr + curRowOffset),
 1450              		.loc 1 280 17 is_stmt 1 view .LVU438
 281:Generated_Source\PSoC4/cy_em_eeprom.c ****                              numBytesToRead);
 1451              		.loc 1 281 52 is_stmt 0 view .LVU439
 1452 00ca 8118     		adds	r1, r0, r2
 280:Generated_Source\PSoC4/cy_em_eeprom.c ****                              (void *)(startRowAddr + curRowOffset),
 1453              		.loc 1 280 23 view .LVU440
 1454 00cc 2A00     		movs	r2, r5
 1455              	.LVL171:
 280:Generated_Source\PSoC4/cy_em_eeprom.c ****                              (void *)(startRowAddr + curRowOffset),
 1456              		.loc 1 280 23 view .LVU441
 1457 00ce 4846     		mov	r0, r9
 1458              	.LVL172:
 280:Generated_Source\PSoC4/cy_em_eeprom.c ****                              (void *)(startRowAddr + curRowOffset),
 1459              		.loc 1 280 23 view .LVU442
 1460 00d0 FFF7FEFF 		bl	memcpy
 1461              	.LVL173:
 285:Generated_Source\PSoC4/cy_em_eeprom.c ****             }
 1462              		.loc 1 285 17 is_stmt 1 view .LVU443
 285:Generated_Source\PSoC4/cy_em_eeprom.c ****             }
 1463              		.loc 1 285 21 is_stmt 0 view .LVU444
 1464 00d4 0020     		movs	r0, #0
 1465              	.LVL174:
 1466              	.L81:
 289:Generated_Source\PSoC4/cy_em_eeprom.c ****             rdSize -= numBytesToRead;
 1467              		.loc 1 289 13 is_stmt 1 discriminator 2 view .LVU445
 289:Generated_Source\PSoC4/cy_em_eeprom.c ****             rdSize -= numBytesToRead;
 1468              		.loc 1 289 20 is_stmt 0 discriminator 2 view .LVU446
 1469 00d6 7F19     		adds	r7, r7, r5
 1470              	.LVL175:
 290:Generated_Source\PSoC4/cy_em_eeprom.c ****             eeData += numBytesToRead;
 1471              		.loc 1 290 13 is_stmt 1 discriminator 2 view .LVU447
 290:Generated_Source\PSoC4/cy_em_eeprom.c ****             eeData += numBytesToRead;
 1472              		.loc 1 290 20 is_stmt 0 discriminator 2 view .LVU448
 1473 00d8 4346     		mov	r3, r8
 1474 00da 5B1B     		subs	r3, r3, r5
 1475 00dc 9846     		mov	r8, r3
 1476              	.LVL176:
 291:Generated_Source\PSoC4/cy_em_eeprom.c ****             curRdEepromRowNum++;
 1477              		.loc 1 291 13 is_stmt 1 discriminator 2 view .LVU449
 291:Generated_Source\PSoC4/cy_em_eeprom.c ****             curRdEepromRowNum++;
 1478              		.loc 1 291 20 is_stmt 0 discriminator 2 view .LVU450
 1479 00de A944     		add	r9, r9, r5
 1480              	.LVL177:
 292:Generated_Source\PSoC4/cy_em_eeprom.c ****         }
 1481              		.loc 1 292 13 is_stmt 1 discriminator 2 view .LVU451
 292:Generated_Source\PSoC4/cy_em_eeprom.c ****         }
 1482              		.loc 1 292 30 is_stmt 0 discriminator 2 view .LVU452
 1483 00e0 0134     		adds	r4, r4, #1
 1484              	.LVL178:
 1485              	.L76:
 234:Generated_Source\PSoC4/cy_em_eeprom.c ****         {
 1486              		.loc 1 234 9 discriminator 1 view .LVU453
ARM GAS  C:\Users\EDULU~1.DES\AppData\Local\Temp\cc9dcV7d.s 			page 57


 1487 00e2 5E45     		cmp	r6, fp
 1488 00e4 30D2     		bcs	.L105
 236:Generated_Source\PSoC4/cy_em_eeprom.c ****             curRowOffset = CY_EM_EEPROM_EEPROM_DATA_LEN + (rdAddr % CY_EM_EEPROM_EEPROM_DATA_LEN);
 1489              		.loc 1 236 13 is_stmt 1 view .LVU454
 236:Generated_Source\PSoC4/cy_em_eeprom.c ****             curRowOffset = CY_EM_EEPROM_EEPROM_DATA_LEN + (rdAddr % CY_EM_EEPROM_EEPROM_DATA_LEN);
 1490              		.loc 1 236 67 is_stmt 0 view .LVU455
 1491 00e6 E001     		lsls	r0, r4, #7
 1492              	.LVL179:
 236:Generated_Source\PSoC4/cy_em_eeprom.c ****             curRowOffset = CY_EM_EEPROM_EEPROM_DATA_LEN + (rdAddr % CY_EM_EEPROM_EEPROM_DATA_LEN);
 1493              		.loc 1 236 26 view .LVU456
 1494 00e8 039B     		ldr	r3, [sp, #12]
 1495 00ea 9C46     		mov	ip, r3
 1496 00ec 6044     		add	r0, r0, ip
 1497              	.LVL180:
 237:Generated_Source\PSoC4/cy_em_eeprom.c **** 
 1498              		.loc 1 237 13 is_stmt 1 view .LVU457
 237:Generated_Source\PSoC4/cy_em_eeprom.c **** 
 1499              		.loc 1 237 67 is_stmt 0 view .LVU458
 1500 00ee 3F25     		movs	r5, #63
 1501 00f0 3D40     		ands	r5, r7
 237:Generated_Source\PSoC4/cy_em_eeprom.c **** 
 1502              		.loc 1 237 26 view .LVU459
 1503 00f2 2A00     		movs	r2, r5
 1504 00f4 4032     		adds	r2, r2, #64
 1505              	.LVL181:
 242:Generated_Source\PSoC4/cy_em_eeprom.c ****             {
 1506              		.loc 1 242 13 is_stmt 1 view .LVU460
 242:Generated_Source\PSoC4/cy_em_eeprom.c ****             {
 1507              		.loc 1 242 19 is_stmt 0 view .LVU461
 1508 00f6 0136     		adds	r6, r6, #1
 1509              	.LVL182:
 242:Generated_Source\PSoC4/cy_em_eeprom.c ****             {
 1510              		.loc 1 242 15 view .LVU462
 1511 00f8 5E45     		cmp	r6, fp
 1512 00fa E4D2     		bcs	.L100
 244:Generated_Source\PSoC4/cy_em_eeprom.c ****             }
 1513              		.loc 1 244 17 is_stmt 1 view .LVU463
 244:Generated_Source\PSoC4/cy_em_eeprom.c ****             }
 1514              		.loc 1 244 32 is_stmt 0 view .LVU464
 1515 00fc 4023     		movs	r3, #64
 1516 00fe 5D1B     		subs	r5, r3, r5
 1517              	.LVL183:
 1518              	.L77:
 254:Generated_Source\PSoC4/cy_em_eeprom.c ****             {
 1519              		.loc 1 254 13 is_stmt 1 view .LVU465
 254:Generated_Source\PSoC4/cy_em_eeprom.c ****             {
 1520              		.loc 1 254 15 is_stmt 0 view .LVU466
 1521 0100 049B     		ldr	r3, [sp, #16]
 1522 0102 002B     		cmp	r3, #0
 1523 0104 0FD0     		beq	.L78
 254:Generated_Source\PSoC4/cy_em_eeprom.c ****             {
 1524              		.loc 1 254 39 discriminator 1 view .LVU467
 1525 0106 059B     		ldr	r3, [sp, #20]
 1526 0108 9C42     		cmp	r4, r3
 1527 010a 0CD9     		bls	.L78
 256:Generated_Source\PSoC4/cy_em_eeprom.c **** 
 1528              		.loc 1 256 17 is_stmt 1 view .LVU468
ARM GAS  C:\Users\EDULU~1.DES\AppData\Local\Temp\cc9dcV7d.s 			page 58


 256:Generated_Source\PSoC4/cy_em_eeprom.c **** 
 1529              		.loc 1 256 40 is_stmt 0 view .LVU469
 1530 010c 5346     		mov	r3, r10
 1531 010e 5B68     		ldr	r3, [r3, #4]
 256:Generated_Source\PSoC4/cy_em_eeprom.c **** 
 1532              		.loc 1 256 55 view .LVU470
 1533 0110 D901     		lsls	r1, r3, #7
 256:Generated_Source\PSoC4/cy_em_eeprom.c **** 
 1534              		.loc 1 256 30 view .LVU471
 1535 0112 401A     		subs	r0, r0, r1
 1536              	.LVL184:
 258:Generated_Source\PSoC4/cy_em_eeprom.c ****                 {
 1537              		.loc 1 258 17 is_stmt 1 view .LVU472
 258:Generated_Source\PSoC4/cy_em_eeprom.c ****                 {
 1538              		.loc 1 258 19 is_stmt 0 view .LVU473
 1539 0114 5146     		mov	r1, r10
 1540 0116 8969     		ldr	r1, [r1, #24]
 1541 0118 8142     		cmp	r1, r0
 1542 011a 04D9     		bls	.L78
 260:Generated_Source\PSoC4/cy_em_eeprom.c ****                         ((context->numberOfRows - curRdEepromRowNum) * CY_EM_EEPROM_FLASH_SIZEOF_RO
 1543              		.loc 1 260 21 is_stmt 1 view .LVU474
 261:Generated_Source\PSoC4/cy_em_eeprom.c ****                 }
 1544              		.loc 1 261 49 is_stmt 0 view .LVU475
 1545 011c 181B     		subs	r0, r3, r4
 1546              	.LVL185:
 261:Generated_Source\PSoC4/cy_em_eeprom.c ****                 }
 1547              		.loc 1 261 70 view .LVU476
 1548 011e C001     		lsls	r0, r0, #7
 260:Generated_Source\PSoC4/cy_em_eeprom.c ****                         ((context->numberOfRows - curRdEepromRowNum) * CY_EM_EEPROM_FLASH_SIZEOF_RO
 1549              		.loc 1 260 34 view .LVU477
 1550 0120 5346     		mov	r3, r10
 1551              	.LVL186:
 260:Generated_Source\PSoC4/cy_em_eeprom.c ****                         ((context->numberOfRows - curRdEepromRowNum) * CY_EM_EEPROM_FLASH_SIZEOF_RO
 1552              		.loc 1 260 34 view .LVU478
 1553 0122 1B68     		ldr	r3, [r3]
 1554              	.LVL187:
 260:Generated_Source\PSoC4/cy_em_eeprom.c ****                         ((context->numberOfRows - curRdEepromRowNum) * CY_EM_EEPROM_FLASH_SIZEOF_RO
 1555              		.loc 1 260 34 view .LVU479
 1556 0124 181A     		subs	r0, r3, r0
 1557              	.LVL188:
 1558              	.L78:
 265:Generated_Source\PSoC4/cy_em_eeprom.c ****             {
 1559              		.loc 1 265 13 is_stmt 1 view .LVU480
 265:Generated_Source\PSoC4/cy_em_eeprom.c ****             {
 1560              		.loc 1 265 29 is_stmt 0 view .LVU481
 1561 0126 5346     		mov	r3, r10
 1562 0128 1B7D     		ldrb	r3, [r3, #20]
 265:Generated_Source\PSoC4/cy_em_eeprom.c ****             {
 1563              		.loc 1 265 15 view .LVU482
 1564 012a 002B     		cmp	r3, #0
 1565 012c CDD0     		beq	.L79
 270:Generated_Source\PSoC4/cy_em_eeprom.c **** 
 1566              		.loc 1 270 17 is_stmt 1 view .LVU483
 270:Generated_Source\PSoC4/cy_em_eeprom.c **** 
 1567              		.loc 1 270 23 is_stmt 0 view .LVU484
 1568 012e 5346     		mov	r3, r10
 1569 0130 0093     		str	r3, [sp]
ARM GAS  C:\Users\EDULU~1.DES\AppData\Local\Temp\cc9dcV7d.s 			page 59


 1570 0132 2B00     		movs	r3, r5
 1571 0134 4946     		mov	r1, r9
 1572 0136 FFF7FEFF 		bl	CheckCrcAndCopy
 1573              	.LVL189:
 272:Generated_Source\PSoC4/cy_em_eeprom.c ****                 {
 1574              		.loc 1 272 17 is_stmt 1 view .LVU485
 272:Generated_Source\PSoC4/cy_em_eeprom.c ****                 {
 1575              		.loc 1 272 19 is_stmt 0 view .LVU486
 1576 013a 0028     		cmp	r0, #0
 1577 013c CBD0     		beq	.L81
 1578 013e 8346     		mov	fp, r0
 1579              	.LVL190:
 272:Generated_Source\PSoC4/cy_em_eeprom.c ****                 {
 1580              		.loc 1 272 19 view .LVU487
 1581 0140 089B     		ldr	r3, [sp, #32]
 1582 0142 9946     		mov	r9, r3
 1583              	.LVL191:
 272:Generated_Source\PSoC4/cy_em_eeprom.c ****                 {
 1584              		.loc 1 272 19 view .LVU488
 1585 0144 5746     		mov	r7, r10
 1586              	.LVL192:
 272:Generated_Source\PSoC4/cy_em_eeprom.c ****                 {
 1587              		.loc 1 272 19 view .LVU489
 1588 0146 03E0     		b	.L80
 1589              	.LVL193:
 1590              	.L105:
 272:Generated_Source\PSoC4/cy_em_eeprom.c ****                 {
 1591              		.loc 1 272 19 view .LVU490
 1592 0148 8346     		mov	fp, r0
 1593              	.LVL194:
 272:Generated_Source\PSoC4/cy_em_eeprom.c ****                 {
 1594              		.loc 1 272 19 view .LVU491
 1595 014a 089B     		ldr	r3, [sp, #32]
 1596 014c 9946     		mov	r9, r3
 1597              	.LVL195:
 272:Generated_Source\PSoC4/cy_em_eeprom.c ****                 {
 1598              		.loc 1 272 19 view .LVU492
 1599 014e 5746     		mov	r7, r10
 1600              	.LVL196:
 1601              	.L80:
 303:Generated_Source\PSoC4/cy_em_eeprom.c ****         {
 1602              		.loc 1 303 9 is_stmt 1 view .LVU493
 303:Generated_Source\PSoC4/cy_em_eeprom.c ****         {
 1603              		.loc 1 303 11 is_stmt 0 view .LVU494
 1604 0150 5B46     		mov	r3, fp
 1605 0152 002B     		cmp	r3, #0
 1606 0154 55D1     		bne	.L70
 303:Generated_Source\PSoC4/cy_em_eeprom.c ****         {
 1607              		.loc 1 303 42 discriminator 1 view .LVU495
 1608 0156 099B     		ldr	r3, [sp, #36]
 1609 0158 002B     		cmp	r3, #0
 1610 015a 52D0     		beq	.L70
 305:Generated_Source\PSoC4/cy_em_eeprom.c ****             numRowReads--;
 1611              		.loc 1 305 13 is_stmt 1 view .LVU496
 305:Generated_Source\PSoC4/cy_em_eeprom.c ****             numRowReads--;
 1612              		.loc 1 305 35 is_stmt 0 view .LVU497
 1613 015c 7C68     		ldr	r4, [r7, #4]
ARM GAS  C:\Users\EDULU~1.DES\AppData\Local\Temp\cc9dcV7d.s 			page 60


 1614              	.LVL197:
 305:Generated_Source\PSoC4/cy_em_eeprom.c ****             numRowReads--;
 1615              		.loc 1 305 25 view .LVU498
 1616 015e 9C42     		cmp	r4, r3
 1617 0160 00D9     		bls	.L83
 1618 0162 1C00     		movs	r4, r3
 1619              	.L83:
 1620              	.LVL198:
 306:Generated_Source\PSoC4/cy_em_eeprom.c **** 
 1621              		.loc 1 306 13 is_stmt 1 view .LVU499
 306:Generated_Source\PSoC4/cy_em_eeprom.c **** 
 1622              		.loc 1 306 24 is_stmt 0 view .LVU500
 1623 0164 013C     		subs	r4, r4, #1
 1624              	.LVL199:
 308:Generated_Source\PSoC4/cy_em_eeprom.c ****             {
 1625              		.loc 1 308 13 is_stmt 1 view .LVU501
 308:Generated_Source\PSoC4/cy_em_eeprom.c ****             {
 1626              		.loc 1 308 19 is_stmt 0 view .LVU502
 1627 0166 099D     		ldr	r5, [sp, #36]
 1628 0168 2C1B     		subs	r4, r5, r4
 1629              	.LVL200:
 308:Generated_Source\PSoC4/cy_em_eeprom.c ****             {
 1630              		.loc 1 308 19 view .LVU503
 1631 016a 079B     		ldr	r3, [sp, #28]
 1632 016c 9846     		mov	r8, r3
 1633              	.LVL201:
 308:Generated_Source\PSoC4/cy_em_eeprom.c ****             {
 1634              		.loc 1 308 19 view .LVU504
 1635 016e 4E46     		mov	r6, r9
 308:Generated_Source\PSoC4/cy_em_eeprom.c ****             {
 1636              		.loc 1 308 13 view .LVU505
 1637 0170 0FE0     		b	.L84
 1638              	.LVL202:
 1639              	.L86:
 1640              	.LBB5:
 319:Generated_Source\PSoC4/cy_em_eeprom.c ****                     {
 1641              		.loc 1 319 27 discriminator 2 view .LVU506
 1642 0172 8E42     		cmp	r6, r1
 1643 0174 9241     		sbcs	r2, r2, r2
 1644 0176 5242     		rsbs	r2, r2, #0
 1645 0178 1BE0     		b	.L87
 1646              	.L101:
 1647              	.LBB6:
 321:Generated_Source\PSoC4/cy_em_eeprom.c ****                         uint32 dstOffset = (startAddr > addr) ? (startAddr - addr): (0u);
 1648              		.loc 1 321 70 view .LVU507
 1649 017a 0022     		movs	r2, #0
 1650 017c 9246     		mov	r10, r2
 1651 017e 1EE0     		b	.L88
 1652              	.LVL203:
 1653              	.L102:
 322:Generated_Source\PSoC4/cy_em_eeprom.c ****                         rdAddr = (startAddr > addr) ? (startAddr) : (addr);
 1654              		.loc 1 322 83 view .LVU508
 1655 0180 0022     		movs	r2, #0
 1656 0182 9446     		mov	ip, r2
 1657 0184 1FE0     		b	.L89
 1658              	.LVL204:
 1659              	.L92:
ARM GAS  C:\Users\EDULU~1.DES\AppData\Local\Temp\cc9dcV7d.s 			page 61


 349:Generated_Source\PSoC4/cy_em_eeprom.c ****                         }
 1660              		.loc 1 349 29 is_stmt 1 view .LVU509
 349:Generated_Source\PSoC4/cy_em_eeprom.c ****                         }
 1661              		.loc 1 349 82 is_stmt 0 view .LVU510
 1662 0186 0100     		movs	r1, r0
 1663              	.LVL205:
 349:Generated_Source\PSoC4/cy_em_eeprom.c ****                         }
 1664              		.loc 1 349 82 view .LVU511
 1665 0188 5144     		add	r1, r1, r10
 349:Generated_Source\PSoC4/cy_em_eeprom.c ****                         }
 1666              		.loc 1 349 35 view .LVU512
 1667 018a 6046     		mov	r0, ip
 1668              	.LVL206:
 349:Generated_Source\PSoC4/cy_em_eeprom.c ****                         }
 1669              		.loc 1 349 35 view .LVU513
 1670 018c FFF7FEFF 		bl	memcpy
 1671              	.LVL207:
 1672              	.L85:
 349:Generated_Source\PSoC4/cy_em_eeprom.c ****                         }
 1673              		.loc 1 349 35 view .LVU514
 1674              	.LBE6:
 1675              	.LBE5:
 308:Generated_Source\PSoC4/cy_em_eeprom.c ****             {
 1676              		.loc 1 308 59 discriminator 2 view .LVU515
 1677 0190 0134     		adds	r4, r4, #1
 1678              	.LVL208:
 1679              	.L84:
 308:Generated_Source\PSoC4/cy_em_eeprom.c ****             {
 1680              		.loc 1 308 13 discriminator 1 view .LVU516
 1681 0192 AC42     		cmp	r4, r5
 1682 0194 35D8     		bhi	.L70
 310:Generated_Source\PSoC4/cy_em_eeprom.c **** 
 1683              		.loc 1 310 17 is_stmt 1 view .LVU517
 310:Generated_Source\PSoC4/cy_em_eeprom.c **** 
 1684              		.loc 1 310 32 is_stmt 0 view .LVU518
 1685 0196 3900     		movs	r1, r7
 1686 0198 2000     		movs	r0, r4
 1687 019a FFF7FEFF 		bl	GetRowAddrBySeqNum
 1688              	.LVL209:
 312:Generated_Source\PSoC4/cy_em_eeprom.c ****                 {
 1689              		.loc 1 312 17 is_stmt 1 view .LVU519
 312:Generated_Source\PSoC4/cy_em_eeprom.c ****                 {
 1690              		.loc 1 312 20 is_stmt 0 view .LVU520
 1691 019e 0028     		cmp	r0, #0
 1692 01a0 F6D0     		beq	.L85
 1693              	.LBB8:
 315:Generated_Source\PSoC4/cy_em_eeprom.c ****                     uint32 endAddr    = startAddr + (*(uint32 *)(startRowAddr + CY_EM_EEPROM_HEADER
 1694              		.loc 1 315 21 is_stmt 1 view .LVU521
 315:Generated_Source\PSoC4/cy_em_eeprom.c ****                     uint32 endAddr    = startAddr + (*(uint32 *)(startRowAddr + CY_EM_EEPROM_HEADER
 1695              		.loc 1 315 28 is_stmt 0 view .LVU522
 1696 01a2 4368     		ldr	r3, [r0, #4]
 1697              	.LVL210:
 316:Generated_Source\PSoC4/cy_em_eeprom.c **** 
 1698              		.loc 1 316 21 is_stmt 1 view .LVU523
 316:Generated_Source\PSoC4/cy_em_eeprom.c **** 
 1699              		.loc 1 316 28 is_stmt 0 view .LVU524
 1700 01a4 8268     		ldr	r2, [r0, #8]
ARM GAS  C:\Users\EDULU~1.DES\AppData\Local\Temp\cc9dcV7d.s 			page 62


 1701 01a6 D118     		adds	r1, r2, r3
 1702              	.LVL211:
 319:Generated_Source\PSoC4/cy_em_eeprom.c ****                     {
 1703              		.loc 1 319 21 is_stmt 1 view .LVU525
 319:Generated_Source\PSoC4/cy_em_eeprom.c ****                     {
 1704              		.loc 1 319 27 is_stmt 0 view .LVU526
 1705 01a8 9E42     		cmp	r6, r3
 1706 01aa E2D2     		bcs	.L86
 319:Generated_Source\PSoC4/cy_em_eeprom.c ****                     {
 1707              		.loc 1 319 27 discriminator 1 view .LVU527
 1708 01ac 4345     		cmp	r3, r8
 1709 01ae 9241     		sbcs	r2, r2, r2
 1710 01b0 5242     		rsbs	r2, r2, #0
 1711              	.L87:
 319:Generated_Source\PSoC4/cy_em_eeprom.c ****                     {
 1712              		.loc 1 319 23 discriminator 4 view .LVU528
 1713 01b2 002A     		cmp	r2, #0
 1714 01b4 ECD0     		beq	.L85
 1715              	.LBB7:
 321:Generated_Source\PSoC4/cy_em_eeprom.c ****                         uint32 dstOffset = (startAddr > addr) ? (startAddr - addr): (0u);
 1716              		.loc 1 321 25 is_stmt 1 view .LVU529
 321:Generated_Source\PSoC4/cy_em_eeprom.c ****                         uint32 dstOffset = (startAddr > addr) ? (startAddr - addr): (0u);
 1717              		.loc 1 321 70 is_stmt 0 view .LVU530
 1718 01b6 9E42     		cmp	r6, r3
 1719 01b8 DFD3     		bcc	.L101
 321:Generated_Source\PSoC4/cy_em_eeprom.c ****                         uint32 dstOffset = (startAddr > addr) ? (startAddr - addr): (0u);
 1720              		.loc 1 321 70 discriminator 1 view .LVU531
 1721 01ba F21A     		subs	r2, r6, r3
 1722 01bc 9246     		mov	r10, r2
 1723              	.L88:
 1724              	.LVL212:
 322:Generated_Source\PSoC4/cy_em_eeprom.c ****                         rdAddr = (startAddr > addr) ? (startAddr) : (addr);
 1725              		.loc 1 322 25 is_stmt 1 discriminator 4 view .LVU532
 322:Generated_Source\PSoC4/cy_em_eeprom.c ****                         rdAddr = (startAddr > addr) ? (startAddr) : (addr);
 1726              		.loc 1 322 83 is_stmt 0 discriminator 4 view .LVU533
 1727 01be 9E42     		cmp	r6, r3
 1728 01c0 DED2     		bcs	.L102
 322:Generated_Source\PSoC4/cy_em_eeprom.c ****                         rdAddr = (startAddr > addr) ? (startAddr) : (addr);
 1729              		.loc 1 322 83 discriminator 1 view .LVU534
 1730 01c2 9A1B     		subs	r2, r3, r6
 1731 01c4 9446     		mov	ip, r2
 1732              	.L89:
 1733              	.LVL213:
 323:Generated_Source\PSoC4/cy_em_eeprom.c **** 
 1734              		.loc 1 323 25 is_stmt 1 discriminator 4 view .LVU535
 323:Generated_Source\PSoC4/cy_em_eeprom.c **** 
 1735              		.loc 1 323 32 is_stmt 0 discriminator 4 view .LVU536
 1736 01c6 3200     		movs	r2, r6
 1737 01c8 9E42     		cmp	r6, r3
 1738 01ca 00D2     		bcs	.L90
 1739 01cc 1A00     		movs	r2, r3
 1740              	.L90:
 1741              	.LVL214:
 325:Generated_Source\PSoC4/cy_em_eeprom.c **** 
 1742              		.loc 1 325 25 is_stmt 1 discriminator 4 view .LVU537
 325:Generated_Source\PSoC4/cy_em_eeprom.c **** 
 1743              		.loc 1 325 35 is_stmt 0 discriminator 4 view .LVU538
ARM GAS  C:\Users\EDULU~1.DES\AppData\Local\Temp\cc9dcV7d.s 			page 63


 1744 01ce 0C23     		movs	r3, #12
 1745              	.LVL215:
 325:Generated_Source\PSoC4/cy_em_eeprom.c **** 
 1746              		.loc 1 325 35 discriminator 4 view .LVU539
 1747 01d0 9946     		mov	r9, r3
 1748 01d2 CA44     		add	r10, r10, r9
 1749              	.LVL216:
 328:Generated_Source\PSoC4/cy_em_eeprom.c **** 
 1750              		.loc 1 328 25 is_stmt 1 discriminator 4 view .LVU540
 328:Generated_Source\PSoC4/cy_em_eeprom.c **** 
 1751              		.loc 1 328 79 is_stmt 0 discriminator 4 view .LVU541
 1752 01d4 4346     		mov	r3, r8
 1753 01d6 8845     		cmp	r8, r1
 1754 01d8 00D9     		bls	.L91
 1755 01da 0B00     		movs	r3, r1
 1756              	.L91:
 328:Generated_Source\PSoC4/cy_em_eeprom.c **** 
 1757              		.loc 1 328 40 discriminator 4 view .LVU542
 1758 01dc 9A1A     		subs	r2, r3, r2
 1759              	.LVL217:
 331:Generated_Source\PSoC4/cy_em_eeprom.c **** 
 1760              		.loc 1 331 25 is_stmt 1 discriminator 4 view .LVU543
 331:Generated_Source\PSoC4/cy_em_eeprom.c **** 
 1761              		.loc 1 331 32 is_stmt 0 discriminator 4 view .LVU544
 1762 01de 069B     		ldr	r3, [sp, #24]
 1763 01e0 9946     		mov	r9, r3
 1764 01e2 CC44     		add	ip, ip, r9
 1765              	.LVL218:
 338:Generated_Source\PSoC4/cy_em_eeprom.c ****                         {
 1766              		.loc 1 338 25 is_stmt 1 discriminator 4 view .LVU545
 338:Generated_Source\PSoC4/cy_em_eeprom.c ****                         {
 1767              		.loc 1 338 41 is_stmt 0 discriminator 4 view .LVU546
 1768 01e4 3B7D     		ldrb	r3, [r7, #20]
 338:Generated_Source\PSoC4/cy_em_eeprom.c ****                         {
 1769              		.loc 1 338 27 discriminator 4 view .LVU547
 1770 01e6 002B     		cmp	r3, #0
 1771 01e8 CDD0     		beq	.L92
 340:Generated_Source\PSoC4/cy_em_eeprom.c **** 
 1772              		.loc 1 340 29 is_stmt 1 view .LVU548
 340:Generated_Source\PSoC4/cy_em_eeprom.c **** 
 1773              		.loc 1 340 35 is_stmt 0 view .LVU549
 1774 01ea 0097     		str	r7, [sp]
 1775              	.LVL219:
 340:Generated_Source\PSoC4/cy_em_eeprom.c **** 
 1776              		.loc 1 340 35 view .LVU550
 1777 01ec 1300     		movs	r3, r2
 1778 01ee 5246     		mov	r2, r10
 1779              	.LVL220:
 340:Generated_Source\PSoC4/cy_em_eeprom.c **** 
 1780              		.loc 1 340 35 view .LVU551
 1781 01f0 6146     		mov	r1, ip
 1782              	.LVL221:
 340:Generated_Source\PSoC4/cy_em_eeprom.c **** 
 1783              		.loc 1 340 35 view .LVU552
 1784 01f2 FFF7FEFF 		bl	CheckCrcAndCopy
 1785              	.LVL222:
 340:Generated_Source\PSoC4/cy_em_eeprom.c **** 
ARM GAS  C:\Users\EDULU~1.DES\AppData\Local\Temp\cc9dcV7d.s 			page 64


 1786              		.loc 1 340 35 view .LVU553
 1787 01f6 8346     		mov	fp, r0
 1788              	.LVL223:
 342:Generated_Source\PSoC4/cy_em_eeprom.c ****                             {
 1789              		.loc 1 342 29 is_stmt 1 view .LVU554
 342:Generated_Source\PSoC4/cy_em_eeprom.c ****                             {
 1790              		.loc 1 342 31 is_stmt 0 view .LVU555
 1791 01f8 0028     		cmp	r0, #0
 1792 01fa C9D0     		beq	.L85
 1793 01fc 01E0     		b	.L70
 1794              	.LVL224:
 1795              	.L94:
 342:Generated_Source\PSoC4/cy_em_eeprom.c ****                             {
 1796              		.loc 1 342 31 view .LVU556
 1797              	.LBE7:
 1798              	.LBE8:
 1799              	.LBE10:
 174:Generated_Source\PSoC4/cy_em_eeprom.c ****     uint32 i;
 1800              		.loc 1 174 30 view .LVU557
 1801 01fe 0123     		movs	r3, #1
 1802 0200 9B46     		mov	fp, r3
 1803              	.LVL225:
 1804              	.L70:
 357:Generated_Source\PSoC4/cy_em_eeprom.c **** }
 1805              		.loc 1 357 5 is_stmt 1 view .LVU558
 358:Generated_Source\PSoC4/cy_em_eeprom.c **** 
 1806              		.loc 1 358 1 is_stmt 0 view .LVU559
 1807 0202 5846     		mov	r0, fp
 1808 0204 0BB0     		add	sp, sp, #44
 1809              		@ sp needed
 1810              	.LVL226:
 1811              	.LVL227:
 358:Generated_Source\PSoC4/cy_em_eeprom.c **** 
 1812              		.loc 1 358 1 view .LVU560
 1813 0206 3CBC     		pop	{r2, r3, r4, r5}
 1814 0208 9046     		mov	r8, r2
 1815 020a 9946     		mov	r9, r3
 1816 020c A246     		mov	r10, r4
 1817 020e AB46     		mov	fp, r5
 1818 0210 F0BD     		pop	{r4, r5, r6, r7, pc}
 1819              	.LVL228:
 1820              	.L95:
 174:Generated_Source\PSoC4/cy_em_eeprom.c ****     uint32 i;
 1821              		.loc 1 174 30 view .LVU561
 1822 0212 0123     		movs	r3, #1
 1823 0214 9B46     		mov	fp, r3
 1824 0216 F4E7     		b	.L70
 1825              	.L96:
 1826 0218 0123     		movs	r3, #1
 1827 021a 9B46     		mov	fp, r3
 1828 021c F1E7     		b	.L70
 1829              		.cfi_endproc
 1830              	.LFE1:
 1831              		.size	Cy_Em_EEPROM_Read, .-Cy_Em_EEPROM_Read
 1832              		.global	__aeabi_uidivmod
 1833              		.section	.text.Cy_Em_EEPROM_Write,"ax",%progbits
 1834              		.align	1
ARM GAS  C:\Users\EDULU~1.DES\AppData\Local\Temp\cc9dcV7d.s 			page 65


 1835              		.global	Cy_Em_EEPROM_Write
 1836              		.syntax unified
 1837              		.code	16
 1838              		.thumb_func
 1839              		.fpu softvfp
 1840              		.type	Cy_Em_EEPROM_Write, %function
 1841              	Cy_Em_EEPROM_Write:
 1842              	.LVL229:
 1843              	.LFB2:
 415:Generated_Source\PSoC4/cy_em_eeprom.c ****     cy_en_em_eeprom_status_t ret = CY_EM_EEPROM_BAD_PARAM;
 1844              		.loc 1 415 1 is_stmt 1 view -0
 1845              		.cfi_startproc
 1846              		@ args = 0, pretend = 0, frame = 168
 1847              		@ frame_needed = 0, uses_anonymous_args = 0
 415:Generated_Source\PSoC4/cy_em_eeprom.c ****     cy_en_em_eeprom_status_t ret = CY_EM_EEPROM_BAD_PARAM;
 1848              		.loc 1 415 1 is_stmt 0 view .LVU563
 1849 0000 F0B5     		push	{r4, r5, r6, r7, lr}
 1850              		.cfi_def_cfa_offset 20
 1851              		.cfi_offset 4, -20
 1852              		.cfi_offset 5, -16
 1853              		.cfi_offset 6, -12
 1854              		.cfi_offset 7, -8
 1855              		.cfi_offset 14, -4
 1856 0002 DE46     		mov	lr, fp
 1857 0004 5746     		mov	r7, r10
 1858 0006 4E46     		mov	r6, r9
 1859 0008 4546     		mov	r5, r8
 1860 000a E0B5     		push	{r5, r6, r7, lr}
 1861              		.cfi_def_cfa_offset 36
 1862              		.cfi_offset 8, -36
 1863              		.cfi_offset 9, -32
 1864              		.cfi_offset 10, -28
 1865              		.cfi_offset 11, -24
 1866 000c ADB0     		sub	sp, sp, #180
 1867              		.cfi_def_cfa_offset 216
 1868 000e 8246     		mov	r10, r0
 1869 0010 9346     		mov	fp, r2
 1870 0012 1D00     		movs	r5, r3
 416:Generated_Source\PSoC4/cy_em_eeprom.c ****     uint32 i;
 1871              		.loc 1 416 5 is_stmt 1 view .LVU564
 1872              	.LVL230:
 417:Generated_Source\PSoC4/cy_em_eeprom.c ****     uint32 wrCnt;
 1873              		.loc 1 417 5 view .LVU565
 418:Generated_Source\PSoC4/cy_em_eeprom.c ****     uint32 actEmEepromRowNum;
 1874              		.loc 1 418 5 view .LVU566
 419:Generated_Source\PSoC4/cy_em_eeprom.c ****     uint32 writeRamBuffer[CY_EM_EEPROM_FLASH_SIZEOF_ROW / CY_EM_EEPROM_U32_DIV];
 1875              		.loc 1 419 5 view .LVU567
 420:Generated_Source\PSoC4/cy_em_eeprom.c ****     uint32 startAddr = 0u;
 1876              		.loc 1 420 5 view .LVU568
 421:Generated_Source\PSoC4/cy_em_eeprom.c ****     uint32 endAddr = 0u;
 1877              		.loc 1 421 5 view .LVU569
 421:Generated_Source\PSoC4/cy_em_eeprom.c ****     uint32 endAddr = 0u;
 1878              		.loc 1 421 12 is_stmt 0 view .LVU570
 1879 0014 0023     		movs	r3, #0
 1880              	.LVL231:
 421:Generated_Source\PSoC4/cy_em_eeprom.c ****     uint32 endAddr = 0u;
 1881              		.loc 1 421 12 view .LVU571
ARM GAS  C:\Users\EDULU~1.DES\AppData\Local\Temp\cc9dcV7d.s 			page 66


 1882 0016 0B93     		str	r3, [sp, #44]
 422:Generated_Source\PSoC4/cy_em_eeprom.c ****     uint32 tmpRowAddr;
 1883              		.loc 1 422 5 is_stmt 1 view .LVU572
 422:Generated_Source\PSoC4/cy_em_eeprom.c ****     uint32 tmpRowAddr;
 1884              		.loc 1 422 12 is_stmt 0 view .LVU573
 1885 0018 0A93     		str	r3, [sp, #40]
 423:Generated_Source\PSoC4/cy_em_eeprom.c ****     uint32 emEepromRowAddr = context->lastWrRowAddr;
 1886              		.loc 1 423 5 is_stmt 1 view .LVU574
 424:Generated_Source\PSoC4/cy_em_eeprom.c ****     uint32 emEepromRowRdAddr;
 1887              		.loc 1 424 5 view .LVU575
 424:Generated_Source\PSoC4/cy_em_eeprom.c ****     uint32 emEepromRowRdAddr;
 1888              		.loc 1 424 12 is_stmt 0 view .LVU576
 1889 001a AB68     		ldr	r3, [r5, #8]
 1890 001c 0993     		str	r3, [sp, #36]
 425:Generated_Source\PSoC4/cy_em_eeprom.c ****     void * tmpData;
 1891              		.loc 1 425 5 is_stmt 1 view .LVU577
 426:Generated_Source\PSoC4/cy_em_eeprom.c ****     uint32 eeData = (uint32) eepromData; /* To avoid the pointer arithmetic with void */
 1892              		.loc 1 426 5 view .LVU578
 427:Generated_Source\PSoC4/cy_em_eeprom.c **** 
 1893              		.loc 1 427 5 view .LVU579
 427:Generated_Source\PSoC4/cy_em_eeprom.c **** 
 1894              		.loc 1 427 12 is_stmt 0 view .LVU580
 1895 001e 0391     		str	r1, [sp, #12]
 1896              	.LVL232:
 430:Generated_Source\PSoC4/cy_em_eeprom.c ****     {
 1897              		.loc 1 430 5 is_stmt 1 view .LVU581
 430:Generated_Source\PSoC4/cy_em_eeprom.c ****     {
 1898              		.loc 1 430 7 is_stmt 0 view .LVU582
 1899 0020 131E     		subs	r3, r2, #0
 1900 0022 00D1     		bne	.LCB1904
 1901 0024 AAE0     		b	.L124	@long jump
 1902              	.LCB1904:
 430:Generated_Source\PSoC4/cy_em_eeprom.c ****     {
 1903              		.loc 1 430 31 discriminator 1 view .LVU583
 1904 0026 5344     		add	r3, r3, r10
 430:Generated_Source\PSoC4/cy_em_eeprom.c ****     {
 1905              		.loc 1 430 21 discriminator 1 view .LVU584
 1906 0028 EA68     		ldr	r2, [r5, #12]
 1907              	.LVL233:
 430:Generated_Source\PSoC4/cy_em_eeprom.c ****     {
 1908              		.loc 1 430 21 discriminator 1 view .LVU585
 1909 002a 9342     		cmp	r3, r2
 1910 002c 00D9     		bls	.LCB1910
 1911 002e ADE0     		b	.L125	@long jump
 1912              	.LCB1910:
 430:Generated_Source\PSoC4/cy_em_eeprom.c ****     {
 1913              		.loc 1 430 65 discriminator 2 view .LVU586
 1914 0030 0029     		cmp	r1, #0
 1915 0032 00D1     		bne	.LCB1912
 1916 0034 ACE0     		b	.L126	@long jump
 1917              	.LCB1912:
 1918              	.LBB11:
 432:Generated_Source\PSoC4/cy_em_eeprom.c ****         uint32 eeHeaderDataOffset = 0u;
 1919              		.loc 1 432 9 is_stmt 1 view .LVU587
 432:Generated_Source\PSoC4/cy_em_eeprom.c ****         uint32 eeHeaderDataOffset = 0u;
 1920              		.loc 1 432 35 is_stmt 0 view .LVU588
 1921 0036 5B46     		mov	r3, fp
ARM GAS  C:\Users\EDULU~1.DES\AppData\Local\Temp\cc9dcV7d.s 			page 67


 1922 0038 581E     		subs	r0, r3, #1
 1923              	.LVL234:
 432:Generated_Source\PSoC4/cy_em_eeprom.c ****         uint32 eeHeaderDataOffset = 0u;
 1924              		.loc 1 432 41 view .LVU589
 1925 003a 3021     		movs	r1, #48
 1926              	.LVL235:
 432:Generated_Source\PSoC4/cy_em_eeprom.c ****         uint32 eeHeaderDataOffset = 0u;
 1927              		.loc 1 432 41 view .LVU590
 1928 003c FFF7FEFF 		bl	__aeabi_uidiv
 1929              	.LVL236:
 1930 0040 0300     		movs	r3, r0
 1931 0042 0590     		str	r0, [sp, #20]
 432:Generated_Source\PSoC4/cy_em_eeprom.c ****         uint32 eeHeaderDataOffset = 0u;
 1932              		.loc 1 432 16 view .LVU591
 1933 0044 0133     		adds	r3, r3, #1
 1934 0046 0493     		str	r3, [sp, #16]
 1935              	.LVL237:
 433:Generated_Source\PSoC4/cy_em_eeprom.c **** 
 1936              		.loc 1 433 9 is_stmt 1 view .LVU592
 433:Generated_Source\PSoC4/cy_em_eeprom.c **** 
 1937              		.loc 1 433 16 is_stmt 0 view .LVU593
 1938 0048 0023     		movs	r3, #0
 1939              	.LVL238:
 433:Generated_Source\PSoC4/cy_em_eeprom.c **** 
 1940              		.loc 1 433 16 view .LVU594
 1941 004a 0793     		str	r3, [sp, #28]
 435:Generated_Source\PSoC4/cy_em_eeprom.c ****         {
 1942              		.loc 1 435 9 is_stmt 1 view .LVU595
 1943              	.LVL239:
 435:Generated_Source\PSoC4/cy_em_eeprom.c ****         {
 1944              		.loc 1 435 19 is_stmt 0 view .LVU596
 1945 004c 9946     		mov	r9, r3
 1946              	.LBE11:
 416:Generated_Source\PSoC4/cy_em_eeprom.c ****     uint32 i;
 1947              		.loc 1 416 30 view .LVU597
 1948 004e 0120     		movs	r0, #1
 1949              	.LBB15:
 435:Generated_Source\PSoC4/cy_em_eeprom.c ****         {
 1950              		.loc 1 435 9 view .LVU598
 1951 0050 55E0     		b	.L108
 1952              	.LVL240:
 1953              	.L135:
 1954              	.LBB12:
 461:Generated_Source\PSoC4/cy_em_eeprom.c ****             }
 1955              		.loc 1 461 17 is_stmt 1 view .LVU599
 461:Generated_Source\PSoC4/cy_em_eeprom.c ****             }
 1956              		.loc 1 461 68 is_stmt 0 view .LVU600
 1957 0052 5B46     		mov	r3, fp
 1958 0054 0E93     		str	r3, [sp, #56]
 1959 0056 75E0     		b	.L110
 1960              	.LVL241:
 1961              	.L136:
 483:Generated_Source\PSoC4/cy_em_eeprom.c ****                              (void *)(emEepromRowRdAddr + CY_EM_EEPROM_EEPROM_DATA_LEN),
 1962              		.loc 1 483 17 is_stmt 1 view .LVU601
 484:Generated_Source\PSoC4/cy_em_eeprom.c ****                              CY_EM_EEPROM_EEPROM_DATA_LEN);
 1963              		.loc 1 484 57 is_stmt 0 view .LVU602
 1964 0058 4031     		adds	r1, r1, #64
ARM GAS  C:\Users\EDULU~1.DES\AppData\Local\Temp\cc9dcV7d.s 			page 68


 483:Generated_Source\PSoC4/cy_em_eeprom.c ****                              (void *)(emEepromRowRdAddr + CY_EM_EEPROM_EEPROM_DATA_LEN),
 1965              		.loc 1 483 23 view .LVU603
 1966 005a 4022     		movs	r2, #64
 1967 005c 1CA8     		add	r0, sp, #112
 1968 005e FFF7FEFF 		bl	memcpy
 1969              	.LVL242:
 1970 0062 76E0     		b	.L111
 1971              	.LVL243:
 1972              	.L133:
 502:Generated_Source\PSoC4/cy_em_eeprom.c ****                 }
 1973              		.loc 1 502 21 is_stmt 1 view .LVU604
 502:Generated_Source\PSoC4/cy_em_eeprom.c ****                 }
 1974              		.loc 1 502 32 is_stmt 0 view .LVU605
 1975 0064 0CAE     		add	r6, sp, #48
 1976              	.LVL244:
 1977              	.L114:
 512:Generated_Source\PSoC4/cy_em_eeprom.c ****                                                                            context->numberOfRows,
 1978              		.loc 1 512 17 is_stmt 1 view .LVU606
 512:Generated_Source\PSoC4/cy_em_eeprom.c ****                                                                            context->numberOfRows,
 1979              		.loc 1 512 37 is_stmt 0 view .LVU607
 1980 0066 099B     		ldr	r3, [sp, #36]
 1981 0068 AA69     		ldr	r2, [r5, #24]
 1982 006a 981A     		subs	r0, r3, r2
 1983 006c C009     		lsrs	r0, r0, #7
 512:Generated_Source\PSoC4/cy_em_eeprom.c ****                                                                            context->numberOfRows,
 1984              		.loc 1 512 35 view .LVU608
 1985 006e 6968     		ldr	r1, [r5, #4]
 1986 0070 FFF7FEFF 		bl	__aeabi_uidivmod
 1987              	.LVL245:
 515:Generated_Source\PSoC4/cy_em_eeprom.c ****                 {
 1988              		.loc 1 515 17 is_stmt 1 view .LVU609
 515:Generated_Source\PSoC4/cy_em_eeprom.c ****                 {
 1989              		.loc 1 515 19 is_stmt 0 view .LVU610
 1990 0074 002E     		cmp	r6, #0
 1991 0076 0FD1     		bne	.L129
 529:Generated_Source\PSoC4/cy_em_eeprom.c ****                 }
 1992              		.loc 1 529 21 is_stmt 1 view .LVU611
 529:Generated_Source\PSoC4/cy_em_eeprom.c ****                 }
 1993              		.loc 1 529 34 is_stmt 0 view .LVU612
 1994 0078 0137     		adds	r7, r7, #1
 1995              	.LVL246:
 1996              	.L116:
 533:Generated_Source\PSoC4/cy_em_eeprom.c ****                 {
 1997              		.loc 1 533 17 is_stmt 1 view .LVU613
 533:Generated_Source\PSoC4/cy_em_eeprom.c ****                 {
 1998              		.loc 1 533 19 is_stmt 0 view .LVU614
 1999 007a 002F     		cmp	r7, #0
 2000 007c 18D0     		beq	.L130
 2001              	.LVL247:
 2002              	.L117:
 545:Generated_Source\PSoC4/cy_em_eeprom.c ****                 {
 2003              		.loc 1 545 17 is_stmt 1 view .LVU615
 545:Generated_Source\PSoC4/cy_em_eeprom.c ****                 {
 2004              		.loc 1 545 33 is_stmt 0 view .LVU616
 2005 007e 2B7D     		ldrb	r3, [r5, #20]
 545:Generated_Source\PSoC4/cy_em_eeprom.c ****                 {
 2006              		.loc 1 545 19 view .LVU617
ARM GAS  C:\Users\EDULU~1.DES\AppData\Local\Temp\cc9dcV7d.s 			page 69


 2007 0080 002B     		cmp	r3, #0
 2008 0082 22D1     		bne	.L131
 2009              	.L118:
 494:Generated_Source\PSoC4/cy_em_eeprom.c ****             {
 2010              		.loc 1 494 33 view .LVU618
 2011 0084 0134     		adds	r4, r4, #1
 2012              	.LVL248:
 2013              	.L119:
 494:Generated_Source\PSoC4/cy_em_eeprom.c ****             {
 2014              		.loc 1 494 13 discriminator 1 view .LVU619
 2015 0086 4445     		cmp	r4, r8
 2016 0088 27D8     		bhi	.L132
 496:Generated_Source\PSoC4/cy_em_eeprom.c ****                 {
 2017              		.loc 1 496 17 is_stmt 1 view .LVU620
 496:Generated_Source\PSoC4/cy_em_eeprom.c ****                 {
 2018              		.loc 1 496 19 is_stmt 0 view .LVU621
 2019 008a EBD0     		beq	.L133
 509:Generated_Source\PSoC4/cy_em_eeprom.c ****                 }
 2020              		.loc 1 509 21 is_stmt 1 view .LVU622
 509:Generated_Source\PSoC4/cy_em_eeprom.c ****                 }
 2021              		.loc 1 509 34 is_stmt 0 view .LVU623
 2022 008c 2900     		movs	r1, r5
 2023 008e 2000     		movs	r0, r4
 2024 0090 FFF7FEFF 		bl	GetRowAddrBySeqNum
 2025              	.LVL249:
 2026 0094 0600     		movs	r6, r0
 2027              	.LVL250:
 509:Generated_Source\PSoC4/cy_em_eeprom.c ****                 }
 2028              		.loc 1 509 34 view .LVU624
 2029 0096 E6E7     		b	.L114
 2030              	.LVL251:
 2031              	.L129:
 518:Generated_Source\PSoC4/cy_em_eeprom.c ****                                               &startAddr,
 2032              		.loc 1 518 21 is_stmt 1 view .LVU625
 518:Generated_Source\PSoC4/cy_em_eeprom.c ****                                               &startAddr,
 2033              		.loc 1 518 37 is_stmt 0 view .LVU626
 2034 0098 B368     		ldr	r3, [r6, #8]
 2035 009a 0193     		str	r3, [sp, #4]
 2036 009c 7368     		ldr	r3, [r6, #4]
 2037 009e 0093     		str	r3, [sp]
 2038 00a0 0B00     		movs	r3, r1
 2039 00a2 07AA     		add	r2, sp, #28
 2040 00a4 0AA9     		add	r1, sp, #40
 2041              	.LVL252:
 518:Generated_Source\PSoC4/cy_em_eeprom.c ****                                               &startAddr,
 2042              		.loc 1 518 37 view .LVU627
 2043 00a6 0BA8     		add	r0, sp, #44
 2044 00a8 FFF7FEFF 		bl	GetAddresses
 2045              	.LVL253:
 518:Generated_Source\PSoC4/cy_em_eeprom.c ****                                               &startAddr,
 2046              		.loc 1 518 37 view .LVU628
 2047 00ac 0700     		movs	r7, r0
 2048              	.LVL254:
 518:Generated_Source\PSoC4/cy_em_eeprom.c ****                                               &startAddr,
 2049              		.loc 1 518 37 view .LVU629
 2050 00ae E4E7     		b	.L116
 2051              	.LVL255:
ARM GAS  C:\Users\EDULU~1.DES\AppData\Local\Temp\cc9dcV7d.s 			page 70


 2052              	.L130:
 2053              	.LBB13:
 535:Generated_Source\PSoC4/cy_em_eeprom.c **** 
 2054              		.loc 1 535 21 is_stmt 1 view .LVU630
 535:Generated_Source\PSoC4/cy_em_eeprom.c **** 
 2055              		.loc 1 535 76 is_stmt 0 view .LVU631
 2056 00b0 0B9A     		ldr	r2, [sp, #44]
 535:Generated_Source\PSoC4/cy_em_eeprom.c **** 
 2057              		.loc 1 535 28 view .LVU632
 2058 00b2 0CAB     		add	r3, sp, #48
 2059 00b4 9818     		adds	r0, r3, r2
 2060              	.LVL256:
 540:Generated_Source\PSoC4/cy_em_eeprom.c ****                     (void)memcpy((void *)(dataAddr), (void *)(tmpRowAddr), endAddr - startAddr);
 2061              		.loc 1 540 21 is_stmt 1 view .LVU633
 540:Generated_Source\PSoC4/cy_em_eeprom.c ****                     (void)memcpy((void *)(dataAddr), (void *)(tmpRowAddr), endAddr - startAddr);
 2062              		.loc 1 540 79 is_stmt 0 view .LVU634
 2063 00b6 079B     		ldr	r3, [sp, #28]
 2064 00b8 9C46     		mov	ip, r3
 2065 00ba 6644     		add	r6, r6, ip
 2066              	.LVL257:
 540:Generated_Source\PSoC4/cy_em_eeprom.c ****                     (void)memcpy((void *)(dataAddr), (void *)(tmpRowAddr), endAddr - startAddr);
 2067              		.loc 1 540 32 view .LVU635
 2068 00bc 3100     		movs	r1, r6
 2069 00be 0C31     		adds	r1, r1, #12
 2070              	.LVL258:
 541:Generated_Source\PSoC4/cy_em_eeprom.c ****                 }
 2071              		.loc 1 541 21 is_stmt 1 view .LVU636
 541:Generated_Source\PSoC4/cy_em_eeprom.c ****                 }
 2072              		.loc 1 541 84 is_stmt 0 view .LVU637
 2073 00c0 0A9B     		ldr	r3, [sp, #40]
 2074 00c2 9A1A     		subs	r2, r3, r2
 541:Generated_Source\PSoC4/cy_em_eeprom.c ****                 }
 2075              		.loc 1 541 27 view .LVU638
 2076 00c4 FFF7FEFF 		bl	memcpy
 2077              	.LVL259:
 541:Generated_Source\PSoC4/cy_em_eeprom.c ****                 }
 2078              		.loc 1 541 27 view .LVU639
 2079 00c8 D9E7     		b	.L117
 2080              	.LVL260:
 2081              	.L131:
 541:Generated_Source\PSoC4/cy_em_eeprom.c ****                 }
 2082              		.loc 1 541 27 view .LVU640
 2083              	.LBE13:
 547:Generated_Source\PSoC4/cy_em_eeprom.c ****                         CalcChecksum((uint8 *) &writeRamBuffer[CY_EM_EEPROM_EEPROM_DATA_OFFSET_U32]
 2084              		.loc 1 547 21 is_stmt 1 view .LVU641
 548:Generated_Source\PSoC4/cy_em_eeprom.c ****                                                   CY_EM_EEPROM_EEPROM_DATA_LEN);
 2085              		.loc 1 548 25 is_stmt 0 view .LVU642
 2086 00ca 4021     		movs	r1, #64
 2087 00cc 1CA8     		add	r0, sp, #112
 2088 00ce FFF7FEFF 		bl	CalcChecksum
 2089              	.LVL261:
 547:Generated_Source\PSoC4/cy_em_eeprom.c ****                         CalcChecksum((uint8 *) &writeRamBuffer[CY_EM_EEPROM_EEPROM_DATA_OFFSET_U32]
 2090              		.loc 1 547 77 view .LVU643
 2091 00d2 1B90     		str	r0, [sp, #108]
 2092 00d4 D6E7     		b	.L118
 2093              	.LVL262:
 2094              	.L127:
ARM GAS  C:\Users\EDULU~1.DES\AppData\Local\Temp\cc9dcV7d.s 			page 71


 492:Generated_Source\PSoC4/cy_em_eeprom.c **** 
 2095              		.loc 1 492 94 view .LVU644
 2096 00d6 0124     		movs	r4, #1
 2097 00d8 40E0     		b	.L112
 2098              	.LVL263:
 2099              	.L132:
 554:Generated_Source\PSoC4/cy_em_eeprom.c ****             tmpRowAddr = emEepromRowAddr;
 2100              		.loc 1 554 13 is_stmt 1 view .LVU645
 554:Generated_Source\PSoC4/cy_em_eeprom.c ****             tmpRowAddr = emEepromRowAddr;
 2101              		.loc 1 554 19 is_stmt 0 view .LVU646
 2102 00da 2A00     		movs	r2, r5
 2103 00dc 0CA9     		add	r1, sp, #48
 2104 00de 0998     		ldr	r0, [sp, #36]
 2105 00e0 FFF7FEFF 		bl	WriteRow
 2106              	.LVL264:
 555:Generated_Source\PSoC4/cy_em_eeprom.c **** 
 2107              		.loc 1 555 13 is_stmt 1 view .LVU647
 555:Generated_Source\PSoC4/cy_em_eeprom.c **** 
 2108              		.loc 1 555 24 is_stmt 0 view .LVU648
 2109 00e4 099A     		ldr	r2, [sp, #36]
 2110              	.LVL265:
 558:Generated_Source\PSoC4/cy_em_eeprom.c ****             {
 2111              		.loc 1 558 13 is_stmt 1 view .LVU649
 558:Generated_Source\PSoC4/cy_em_eeprom.c ****             {
 2112              		.loc 1 558 30 is_stmt 0 view .LVU650
 2113 00e6 2B7D     		ldrb	r3, [r5, #20]
 558:Generated_Source\PSoC4/cy_em_eeprom.c ****             {
 2114              		.loc 1 558 15 view .LVU651
 2115 00e8 002B     		cmp	r3, #0
 2116 00ea 01D0     		beq	.L121
 558:Generated_Source\PSoC4/cy_em_eeprom.c ****             {
 2117              		.loc 1 558 47 discriminator 1 view .LVU652
 2118 00ec 0028     		cmp	r0, #0
 2119 00ee 3BD0     		beq	.L134
 2120              	.LVL266:
 2121              	.L121:
 567:Generated_Source\PSoC4/cy_em_eeprom.c ****             {
 2122              		.loc 1 567 13 is_stmt 1 view .LVU653
 567:Generated_Source\PSoC4/cy_em_eeprom.c ****             {
 2123              		.loc 1 567 15 is_stmt 0 view .LVU654
 2124 00f0 0028     		cmp	r0, #0
 2125 00f2 44D1     		bne	.L107
 572:Generated_Source\PSoC4/cy_em_eeprom.c ****             }
 2126              		.loc 1 572 17 is_stmt 1 discriminator 2 view .LVU655
 572:Generated_Source\PSoC4/cy_em_eeprom.c ****             }
 2127              		.loc 1 572 40 is_stmt 0 discriminator 2 view .LVU656
 2128 00f4 099B     		ldr	r3, [sp, #36]
 2129 00f6 AB60     		str	r3, [r5, #8]
 2130              	.LBE12:
 435:Generated_Source\PSoC4/cy_em_eeprom.c ****         {
 2131              		.loc 1 435 49 discriminator 2 view .LVU657
 2132 00f8 0123     		movs	r3, #1
 2133 00fa 9C46     		mov	ip, r3
 2134 00fc E144     		add	r9, r9, ip
 2135              	.LVL267:
 2136              	.L108:
 435:Generated_Source\PSoC4/cy_em_eeprom.c ****         {
ARM GAS  C:\Users\EDULU~1.DES\AppData\Local\Temp\cc9dcV7d.s 			page 72


 2137              		.loc 1 435 9 discriminator 1 view .LVU658
 2138 00fe 049B     		ldr	r3, [sp, #16]
 2139 0100 9945     		cmp	r9, r3
 2140 0102 3CD2     		bcs	.L107
 2141              	.LBB14:
 437:Generated_Source\PSoC4/cy_em_eeprom.c ****             /* Get the sequence number of the last written row */
 2142              		.loc 1 437 13 is_stmt 1 view .LVU659
 2143              	.LVL268:
 439:Generated_Source\PSoC4/cy_em_eeprom.c **** 
 2144              		.loc 1 439 13 view .LVU660
 439:Generated_Source\PSoC4/cy_em_eeprom.c **** 
 2145              		.loc 1 439 29 is_stmt 0 view .LVU661
 2146 0104 099B     		ldr	r3, [sp, #36]
 439:Generated_Source\PSoC4/cy_em_eeprom.c **** 
 2147              		.loc 1 439 20 view .LVU662
 2148 0106 1F68     		ldr	r7, [r3]
 2149              	.LVL269:
 446:Generated_Source\PSoC4/cy_em_eeprom.c **** 
 2150              		.loc 1 446 13 is_stmt 1 view .LVU663
 2151 0108 2B00     		movs	r3, r5
 2152 010a 08AA     		add	r2, sp, #32
 2153 010c 09A9     		add	r1, sp, #36
 2154 010e 3800     		movs	r0, r7
 2155              	.LVL270:
 446:Generated_Source\PSoC4/cy_em_eeprom.c **** 
 2156              		.loc 1 446 13 is_stmt 0 view .LVU664
 2157 0110 FFF7FEFF 		bl	GetNextRowToWrite
 2158              	.LVL271:
 449:Generated_Source\PSoC4/cy_em_eeprom.c **** 
 2159              		.loc 1 449 13 is_stmt 1 view .LVU665
 449:Generated_Source\PSoC4/cy_em_eeprom.c **** 
 2160              		.loc 1 449 19 is_stmt 0 view .LVU666
 2161 0114 7822     		movs	r2, #120
 2162 0116 0021     		movs	r1, #0
 2163 0118 0EA8     		add	r0, sp, #56
 2164 011a FFF7FEFF 		bl	memset
 2165              	.LVL272:
 452:Generated_Source\PSoC4/cy_em_eeprom.c ****             writeRamBuffer[CY_EM_EEPROM_HEADER_SEQ_NUM_OFFSET_U32] = seqNum;
 2166              		.loc 1 452 13 is_stmt 1 view .LVU667
 452:Generated_Source\PSoC4/cy_em_eeprom.c ****             writeRamBuffer[CY_EM_EEPROM_HEADER_SEQ_NUM_OFFSET_U32] = seqNum;
 2167              		.loc 1 452 19 is_stmt 0 view .LVU668
 2168 011e 0137     		adds	r7, r7, #1
 2169              	.LVL273:
 453:Generated_Source\PSoC4/cy_em_eeprom.c ****             writeRamBuffer[CY_EM_EEPROM_HEADER_ADDR_OFFSET_U32] = addr;
 2170              		.loc 1 453 13 is_stmt 1 view .LVU669
 453:Generated_Source\PSoC4/cy_em_eeprom.c ****             writeRamBuffer[CY_EM_EEPROM_HEADER_ADDR_OFFSET_U32] = addr;
 2171              		.loc 1 453 68 is_stmt 0 view .LVU670
 2172 0120 0C97     		str	r7, [sp, #48]
 454:Generated_Source\PSoC4/cy_em_eeprom.c ****             tmpData = (void *) eeData;
 2173              		.loc 1 454 13 is_stmt 1 view .LVU671
 454:Generated_Source\PSoC4/cy_em_eeprom.c ****             tmpData = (void *) eeData;
 2174              		.loc 1 454 65 is_stmt 0 view .LVU672
 2175 0122 5346     		mov	r3, r10
 2176 0124 0D93     		str	r3, [sp, #52]
 455:Generated_Source\PSoC4/cy_em_eeprom.c **** 
 2177              		.loc 1 455 13 is_stmt 1 view .LVU673
 455:Generated_Source\PSoC4/cy_em_eeprom.c **** 
ARM GAS  C:\Users\EDULU~1.DES\AppData\Local\Temp\cc9dcV7d.s 			page 73


 2178              		.loc 1 455 21 is_stmt 0 view .LVU674
 2179 0126 0399     		ldr	r1, [sp, #12]
 2180              	.LVL274:
 458:Generated_Source\PSoC4/cy_em_eeprom.c ****             {
 2181              		.loc 1 458 13 is_stmt 1 view .LVU675
 458:Generated_Source\PSoC4/cy_em_eeprom.c ****             {
 2182              		.loc 1 458 15 is_stmt 0 view .LVU676
 2183 0128 059B     		ldr	r3, [sp, #20]
 2184 012a 4B45     		cmp	r3, r9
 2185 012c 91D0     		beq	.L135
 469:Generated_Source\PSoC4/cy_em_eeprom.c ****                 size -= CY_EM_EEPROM_HEADER_DATA_LEN;
 2186              		.loc 1 469 17 is_stmt 1 view .LVU677
 469:Generated_Source\PSoC4/cy_em_eeprom.c ****                 size -= CY_EM_EEPROM_HEADER_DATA_LEN;
 2187              		.loc 1 469 68 is_stmt 0 view .LVU678
 2188 012e 3023     		movs	r3, #48
 2189 0130 0E93     		str	r3, [sp, #56]
 470:Generated_Source\PSoC4/cy_em_eeprom.c ****                 addr += CY_EM_EEPROM_HEADER_DATA_LEN;
 2190              		.loc 1 470 17 is_stmt 1 view .LVU679
 470:Generated_Source\PSoC4/cy_em_eeprom.c ****                 addr += CY_EM_EEPROM_HEADER_DATA_LEN;
 2191              		.loc 1 470 22 is_stmt 0 view .LVU680
 2192 0132 603B     		subs	r3, r3, #96
 2193 0134 9C46     		mov	ip, r3
 2194 0136 E344     		add	fp, fp, ip
 2195              	.LVL275:
 471:Generated_Source\PSoC4/cy_em_eeprom.c ****                 eeData += CY_EM_EEPROM_HEADER_DATA_LEN;
 2196              		.loc 1 471 17 is_stmt 1 view .LVU681
 471:Generated_Source\PSoC4/cy_em_eeprom.c ****                 eeData += CY_EM_EEPROM_HEADER_DATA_LEN;
 2197              		.loc 1 471 22 is_stmt 0 view .LVU682
 2198 0138 6033     		adds	r3, r3, #96
 2199 013a 9C46     		mov	ip, r3
 2200 013c E244     		add	r10, r10, ip
 2201              	.LVL276:
 472:Generated_Source\PSoC4/cy_em_eeprom.c ****             }
 2202              		.loc 1 472 17 is_stmt 1 view .LVU683
 472:Generated_Source\PSoC4/cy_em_eeprom.c ****             }
 2203              		.loc 1 472 24 is_stmt 0 view .LVU684
 2204 013e 039B     		ldr	r3, [sp, #12]
 2205 0140 3033     		adds	r3, r3, #48
 2206 0142 0393     		str	r3, [sp, #12]
 2207              	.LVL277:
 2208              	.L110:
 476:Generated_Source\PSoC4/cy_em_eeprom.c ****                          tmpData,
 2209              		.loc 1 476 13 is_stmt 1 view .LVU685
 476:Generated_Source\PSoC4/cy_em_eeprom.c ****                          tmpData,
 2210              		.loc 1 476 19 is_stmt 0 view .LVU686
 2211 0144 0E9A     		ldr	r2, [sp, #56]
 2212 0146 0FA8     		add	r0, sp, #60
 2213 0148 FFF7FEFF 		bl	memcpy
 2214              	.LVL278:
 480:Generated_Source\PSoC4/cy_em_eeprom.c ****             {
 2215              		.loc 1 480 13 is_stmt 1 view .LVU687
 480:Generated_Source\PSoC4/cy_em_eeprom.c ****             {
 2216              		.loc 1 480 34 is_stmt 0 view .LVU688
 2217 014c 0899     		ldr	r1, [sp, #32]
 480:Generated_Source\PSoC4/cy_em_eeprom.c ****             {
 2218              		.loc 1 480 15 view .LVU689
 2219 014e 0029     		cmp	r1, #0
ARM GAS  C:\Users\EDULU~1.DES\AppData\Local\Temp\cc9dcV7d.s 			page 74


 2220 0150 82D1     		bne	.L136
 2221              	.L111:
 492:Generated_Source\PSoC4/cy_em_eeprom.c **** 
 2222              		.loc 1 492 13 is_stmt 1 view .LVU690
 492:Generated_Source\PSoC4/cy_em_eeprom.c **** 
 2223              		.loc 1 492 34 is_stmt 0 view .LVU691
 2224 0152 6C68     		ldr	r4, [r5, #4]
 492:Generated_Source\PSoC4/cy_em_eeprom.c **** 
 2225              		.loc 1 492 94 view .LVU692
 2226 0154 BC42     		cmp	r4, r7
 2227 0156 BED2     		bcs	.L127
 492:Generated_Source\PSoC4/cy_em_eeprom.c **** 
 2228              		.loc 1 492 61 discriminator 1 view .LVU693
 2229 0158 3C1B     		subs	r4, r7, r4
 492:Generated_Source\PSoC4/cy_em_eeprom.c **** 
 2230              		.loc 1 492 94 discriminator 1 view .LVU694
 2231 015a 0134     		adds	r4, r4, #1
 2232              	.L112:
 492:Generated_Source\PSoC4/cy_em_eeprom.c **** 
 2233              		.loc 1 492 94 discriminator 1 view .LVU695
 2234 015c 0023     		movs	r3, #0
 2235 015e 9846     		mov	r8, r3
 2236 0160 3B00     		movs	r3, r7
 2237 0162 4746     		mov	r7, r8
 2238              	.LVL279:
 492:Generated_Source\PSoC4/cy_em_eeprom.c **** 
 2239              		.loc 1 492 94 discriminator 1 view .LVU696
 2240 0164 9846     		mov	r8, r3
 2241 0166 8EE7     		b	.L119
 2242              	.LVL280:
 2243              	.L134:
 561:Generated_Source\PSoC4/cy_em_eeprom.c **** 
 2244              		.loc 1 561 17 is_stmt 1 view .LVU697
 561:Generated_Source\PSoC4/cy_em_eeprom.c **** 
 2245              		.loc 1 561 47 is_stmt 0 view .LVU698
 2246 0168 AB69     		ldr	r3, [r5, #24]
 2247 016a D01A     		subs	r0, r2, r3
 2248              	.LVL281:
 561:Generated_Source\PSoC4/cy_em_eeprom.c **** 
 2249              		.loc 1 561 28 view .LVU699
 2250 016c 2B68     		ldr	r3, [r5]
 2251 016e 9C46     		mov	ip, r3
 2252 0170 6044     		add	r0, r0, ip
 2253              	.LVL282:
 564:Generated_Source\PSoC4/cy_em_eeprom.c ****             }
 2254              		.loc 1 564 17 is_stmt 1 view .LVU700
 564:Generated_Source\PSoC4/cy_em_eeprom.c ****             }
 2255              		.loc 1 564 23 is_stmt 0 view .LVU701
 2256 0172 2A00     		movs	r2, r5
 2257 0174 0CA9     		add	r1, sp, #48
 2258 0176 FFF7FEFF 		bl	WriteRow
 2259              	.LVL283:
 564:Generated_Source\PSoC4/cy_em_eeprom.c ****             }
 2260              		.loc 1 564 23 view .LVU702
 2261 017a B9E7     		b	.L121
 2262              	.LVL284:
 2263              	.L124:
ARM GAS  C:\Users\EDULU~1.DES\AppData\Local\Temp\cc9dcV7d.s 			page 75


 564:Generated_Source\PSoC4/cy_em_eeprom.c ****             }
 2264              		.loc 1 564 23 view .LVU703
 2265              	.LBE14:
 2266              	.LBE15:
 416:Generated_Source\PSoC4/cy_em_eeprom.c ****     uint32 i;
 2267              		.loc 1 416 30 view .LVU704
 2268 017c 0120     		movs	r0, #1
 2269              	.LVL285:
 2270              	.L107:
 580:Generated_Source\PSoC4/cy_em_eeprom.c **** }
 2271              		.loc 1 580 5 is_stmt 1 view .LVU705
 581:Generated_Source\PSoC4/cy_em_eeprom.c **** 
 2272              		.loc 1 581 1 is_stmt 0 view .LVU706
 2273 017e 2DB0     		add	sp, sp, #180
 2274              		@ sp needed
 2275              	.LVL286:
 2276              	.LVL287:
 2277              	.LVL288:
 581:Generated_Source\PSoC4/cy_em_eeprom.c **** 
 2278              		.loc 1 581 1 view .LVU707
 2279 0180 3CBC     		pop	{r2, r3, r4, r5}
 2280 0182 9046     		mov	r8, r2
 2281 0184 9946     		mov	r9, r3
 2282 0186 A246     		mov	r10, r4
 2283 0188 AB46     		mov	fp, r5
 2284 018a F0BD     		pop	{r4, r5, r6, r7, pc}
 2285              	.LVL289:
 2286              	.L125:
 416:Generated_Source\PSoC4/cy_em_eeprom.c ****     uint32 i;
 2287              		.loc 1 416 30 view .LVU708
 2288 018c 0120     		movs	r0, #1
 2289              	.LVL290:
 416:Generated_Source\PSoC4/cy_em_eeprom.c ****     uint32 i;
 2290              		.loc 1 416 30 view .LVU709
 2291 018e F6E7     		b	.L107
 2292              	.LVL291:
 2293              	.L126:
 416:Generated_Source\PSoC4/cy_em_eeprom.c ****     uint32 i;
 2294              		.loc 1 416 30 view .LVU710
 2295 0190 0120     		movs	r0, #1
 2296              	.LVL292:
 416:Generated_Source\PSoC4/cy_em_eeprom.c ****     uint32 i;
 2297              		.loc 1 416 30 view .LVU711
 2298 0192 F4E7     		b	.L107
 2299              		.cfi_endproc
 2300              	.LFE2:
 2301              		.size	Cy_Em_EEPROM_Write, .-Cy_Em_EEPROM_Write
 2302              		.section	.text.Cy_Em_EEPROM_Erase,"ax",%progbits
 2303              		.align	1
 2304              		.global	Cy_Em_EEPROM_Erase
 2305              		.syntax unified
 2306              		.code	16
 2307              		.thumb_func
 2308              		.fpu softvfp
 2309              		.type	Cy_Em_EEPROM_Erase, %function
 2310              	Cy_Em_EEPROM_Erase:
 2311              	.LVL293:
ARM GAS  C:\Users\EDULU~1.DES\AppData\Local\Temp\cc9dcV7d.s 			page 76


 2312              	.LFB3:
 630:Generated_Source\PSoC4/cy_em_eeprom.c ****     uint32 i;
 2313              		.loc 1 630 1 is_stmt 1 view -0
 2314              		.cfi_startproc
 2315              		@ args = 0, pretend = 0, frame = 136
 2316              		@ frame_needed = 0, uses_anonymous_args = 0
 630:Generated_Source\PSoC4/cy_em_eeprom.c ****     uint32 i;
 2317              		.loc 1 630 1 is_stmt 0 view .LVU713
 2318 0000 F0B5     		push	{r4, r5, r6, r7, lr}
 2319              		.cfi_def_cfa_offset 20
 2320              		.cfi_offset 4, -20
 2321              		.cfi_offset 5, -16
 2322              		.cfi_offset 6, -12
 2323              		.cfi_offset 7, -8
 2324              		.cfi_offset 14, -4
 2325 0002 A3B0     		sub	sp, sp, #140
 2326              		.cfi_def_cfa_offset 160
 2327 0004 0600     		movs	r6, r0
 631:Generated_Source\PSoC4/cy_em_eeprom.c ****     uint32 seqNum;
 2328              		.loc 1 631 5 is_stmt 1 view .LVU714
 632:Generated_Source\PSoC4/cy_em_eeprom.c ****     uint32 emEepromRowAddr = context->lastWrRowAddr;
 2329              		.loc 1 632 5 view .LVU715
 633:Generated_Source\PSoC4/cy_em_eeprom.c ****     uint32 emEepromRowRdAddr;
 2330              		.loc 1 633 5 view .LVU716
 633:Generated_Source\PSoC4/cy_em_eeprom.c ****     uint32 emEepromRowRdAddr;
 2331              		.loc 1 633 37 is_stmt 0 view .LVU717
 2332 0006 8468     		ldr	r4, [r0, #8]
 633:Generated_Source\PSoC4/cy_em_eeprom.c ****     uint32 emEepromRowRdAddr;
 2333              		.loc 1 633 12 view .LVU718
 2334 0008 2194     		str	r4, [sp, #132]
 634:Generated_Source\PSoC4/cy_em_eeprom.c ****     cy_en_em_eeprom_status_t ret = CY_EM_EEPROM_WRITE_FAIL;
 2335              		.loc 1 634 5 is_stmt 1 view .LVU719
 635:Generated_Source\PSoC4/cy_em_eeprom.c ****     uint32 writeRamBuffer[CY_EM_EEPROM_FLASH_SIZEOF_ROW / CY_EM_EEPROM_U32_DIV] = {0u};
 2336              		.loc 1 635 5 view .LVU720
 2337              	.LVL294:
 636:Generated_Source\PSoC4/cy_em_eeprom.c **** #if (CY_PSOC6)
 2338              		.loc 1 636 5 view .LVU721
 636:Generated_Source\PSoC4/cy_em_eeprom.c **** #if (CY_PSOC6)
 2339              		.loc 1 636 12 is_stmt 0 view .LVU722
 2340 000a 8022     		movs	r2, #128
 2341 000c 0021     		movs	r1, #0
 2342 000e 6846     		mov	r0, sp
 2343              	.LVL295:
 636:Generated_Source\PSoC4/cy_em_eeprom.c **** #if (CY_PSOC6)
 2344              		.loc 1 636 12 view .LVU723
 2345 0010 FFF7FEFF 		bl	memset
 2346              	.LVL296:
 643:Generated_Source\PSoC4/cy_em_eeprom.c **** 
 2347              		.loc 1 643 5 is_stmt 1 view .LVU724
 643:Generated_Source\PSoC4/cy_em_eeprom.c **** 
 2348              		.loc 1 643 12 is_stmt 0 view .LVU725
 2349 0014 2368     		ldr	r3, [r4]
 2350              	.LVL297:
 646:Generated_Source\PSoC4/cy_em_eeprom.c ****     {
 2351              		.loc 1 646 5 is_stmt 1 view .LVU726
 646:Generated_Source\PSoC4/cy_em_eeprom.c ****     {
 2352              		.loc 1 646 7 is_stmt 0 view .LVU727
ARM GAS  C:\Users\EDULU~1.DES\AppData\Local\Temp\cc9dcV7d.s 			page 77


 2353 0016 002B     		cmp	r3, #0
 2354 0018 20D0     		beq	.L142
 2355              	.LBB16:
 649:Generated_Source\PSoC4/cy_em_eeprom.c **** 
 2356              		.loc 1 649 9 is_stmt 1 view .LVU728
 649:Generated_Source\PSoC4/cy_em_eeprom.c **** 
 2357              		.loc 1 649 16 is_stmt 0 view .LVU729
 2358 001a 3769     		ldr	r7, [r6, #16]
 2359 001c 7368     		ldr	r3, [r6, #4]
 2360              	.LVL298:
 649:Generated_Source\PSoC4/cy_em_eeprom.c **** 
 2361              		.loc 1 649 16 view .LVU730
 2362 001e 5F43     		muls	r7, r3
 2363              	.LVL299:
 656:Generated_Source\PSoC4/cy_em_eeprom.c ****         {
 2364              		.loc 1 656 9 is_stmt 1 view .LVU731
 656:Generated_Source\PSoC4/cy_em_eeprom.c ****         {
 2365              		.loc 1 656 25 is_stmt 0 view .LVU732
 2366 0020 337D     		ldrb	r3, [r6, #20]
 656:Generated_Source\PSoC4/cy_em_eeprom.c ****         {
 2367              		.loc 1 656 11 view .LVU733
 2368 0022 002B     		cmp	r3, #0
 2369 0024 14D1     		bne	.L143
 2370              	.LVL300:
 2371              	.L139:
 656:Generated_Source\PSoC4/cy_em_eeprom.c ****         {
 2372              		.loc 1 656 11 view .LVU734
 2373              	.LBE16:
 630:Generated_Source\PSoC4/cy_em_eeprom.c ****     uint32 i;
 2374              		.loc 1 630 1 discriminator 1 view .LVU735
 2375 0026 0420     		movs	r0, #4
 2376 0028 0025     		movs	r5, #0
 2377              	.LVL301:
 2378              	.L140:
 2379              	.LBB17:
 663:Generated_Source\PSoC4/cy_em_eeprom.c ****         {
 2380              		.loc 1 663 9 discriminator 1 view .LVU736
 2381 002a BD42     		cmp	r5, r7
 2382 002c 17D2     		bcs	.L138
 685:Generated_Source\PSoC4/cy_em_eeprom.c ****             /* Get the address of the row to be erased. "emEepromRowAddr" may be updated
 2383              		.loc 1 685 13 is_stmt 1 discriminator 3 view .LVU737
 685:Generated_Source\PSoC4/cy_em_eeprom.c ****             /* Get the address of the row to be erased. "emEepromRowAddr" may be updated
 2384              		.loc 1 685 22 is_stmt 0 discriminator 3 view .LVU738
 2385 002e 219B     		ldr	r3, [sp, #132]
 685:Generated_Source\PSoC4/cy_em_eeprom.c ****             /* Get the address of the row to be erased. "emEepromRowAddr" may be updated
 2386              		.loc 1 685 20 discriminator 3 view .LVU739
 2387 0030 1C68     		ldr	r4, [r3]
 2388              	.LVL302:
 689:Generated_Source\PSoC4/cy_em_eeprom.c ****             seqNum++;
 2389              		.loc 1 689 13 is_stmt 1 discriminator 3 view .LVU740
 2390 0032 3300     		movs	r3, r6
 2391 0034 20AA     		add	r2, sp, #128
 2392 0036 21A9     		add	r1, sp, #132
 2393 0038 2000     		movs	r0, r4
 2394              	.LVL303:
 689:Generated_Source\PSoC4/cy_em_eeprom.c ****             seqNum++;
 2395              		.loc 1 689 13 is_stmt 0 discriminator 3 view .LVU741
ARM GAS  C:\Users\EDULU~1.DES\AppData\Local\Temp\cc9dcV7d.s 			page 78


 2396 003a FFF7FEFF 		bl	GetNextRowToWrite
 2397              	.LVL304:
 690:Generated_Source\PSoC4/cy_em_eeprom.c ****             writeRamBuffer[0u] = seqNum;
 2398              		.loc 1 690 13 is_stmt 1 discriminator 3 view .LVU742
 690:Generated_Source\PSoC4/cy_em_eeprom.c ****             writeRamBuffer[0u] = seqNum;
 2399              		.loc 1 690 19 is_stmt 0 discriminator 3 view .LVU743
 2400 003e 0134     		adds	r4, r4, #1
 2401              	.LVL305:
 691:Generated_Source\PSoC4/cy_em_eeprom.c ****             ret = EraseRow(emEepromRowAddr, (uint32)writeRamBuffer, context);
 2402              		.loc 1 691 13 is_stmt 1 discriminator 3 view .LVU744
 691:Generated_Source\PSoC4/cy_em_eeprom.c ****             ret = EraseRow(emEepromRowAddr, (uint32)writeRamBuffer, context);
 2403              		.loc 1 691 32 is_stmt 0 discriminator 3 view .LVU745
 2404 0040 0094     		str	r4, [sp]
 692:Generated_Source\PSoC4/cy_em_eeprom.c ****         #endif /* (CY_PSOC6) */
 2405              		.loc 1 692 13 is_stmt 1 discriminator 3 view .LVU746
 692:Generated_Source\PSoC4/cy_em_eeprom.c ****         #endif /* (CY_PSOC6) */
 2406              		.loc 1 692 19 is_stmt 0 discriminator 3 view .LVU747
 2407 0042 3200     		movs	r2, r6
 2408 0044 6946     		mov	r1, sp
 2409 0046 2198     		ldr	r0, [sp, #132]
 2410 0048 FFF7FEFF 		bl	EraseRow
 2411              	.LVL306:
 663:Generated_Source\PSoC4/cy_em_eeprom.c ****         {
 2412              		.loc 1 663 37 discriminator 3 view .LVU748
 2413 004c 0135     		adds	r5, r5, #1
 2414              	.LVL307:
 663:Generated_Source\PSoC4/cy_em_eeprom.c ****         {
 2415              		.loc 1 663 37 discriminator 3 view .LVU749
 2416 004e ECE7     		b	.L140
 2417              	.LVL308:
 2418              	.L143:
 658:Generated_Source\PSoC4/cy_em_eeprom.c ****                         CalcChecksum((uint8 *) &writeRamBuffer[CY_EM_EEPROM_EEPROM_DATA_OFFSET_U32]
 2419              		.loc 1 658 13 is_stmt 1 view .LVU750
 659:Generated_Source\PSoC4/cy_em_eeprom.c ****                                                   CY_EM_EEPROM_EEPROM_DATA_LEN);
 2420              		.loc 1 659 25 is_stmt 0 view .LVU751
 2421 0050 4021     		movs	r1, #64
 2422 0052 10A8     		add	r0, sp, #64
 2423 0054 FFF7FEFF 		bl	CalcChecksum
 2424              	.LVL309:
 658:Generated_Source\PSoC4/cy_em_eeprom.c ****                         CalcChecksum((uint8 *) &writeRamBuffer[CY_EM_EEPROM_EEPROM_DATA_OFFSET_U32]
 2425              		.loc 1 658 69 view .LVU752
 2426 0058 0F90     		str	r0, [sp, #60]
 2427 005a E4E7     		b	.L139
 2428              	.LVL310:
 2429              	.L142:
 658:Generated_Source\PSoC4/cy_em_eeprom.c ****                         CalcChecksum((uint8 *) &writeRamBuffer[CY_EM_EEPROM_EEPROM_DATA_OFFSET_U32]
 2430              		.loc 1 658 69 view .LVU753
 2431              	.LBE17:
 635:Generated_Source\PSoC4/cy_em_eeprom.c ****     uint32 writeRamBuffer[CY_EM_EEPROM_FLASH_SIZEOF_ROW / CY_EM_EEPROM_U32_DIV] = {0u};
 2432              		.loc 1 635 30 view .LVU754
 2433 005c 0420     		movs	r0, #4
 2434              	.LVL311:
 2435              	.L138:
 715:Generated_Source\PSoC4/cy_em_eeprom.c **** }
 2436              		.loc 1 715 5 is_stmt 1 view .LVU755
 716:Generated_Source\PSoC4/cy_em_eeprom.c **** 
 2437              		.loc 1 716 1 is_stmt 0 view .LVU756
ARM GAS  C:\Users\EDULU~1.DES\AppData\Local\Temp\cc9dcV7d.s 			page 79


 2438 005e 23B0     		add	sp, sp, #140
 2439              		@ sp needed
 2440              	.LVL312:
 716:Generated_Source\PSoC4/cy_em_eeprom.c **** 
 2441              		.loc 1 716 1 view .LVU757
 2442 0060 F0BD     		pop	{r4, r5, r6, r7, pc}
 2443              		.cfi_endproc
 2444              	.LFE3:
 2445              		.size	Cy_Em_EEPROM_Erase, .-Cy_Em_EEPROM_Erase
 2446              		.section	.text.Cy_Em_EEPROM_NumWrites,"ax",%progbits
 2447              		.align	1
 2448              		.global	Cy_Em_EEPROM_NumWrites
 2449              		.syntax unified
 2450              		.code	16
 2451              		.thumb_func
 2452              		.fpu softvfp
 2453              		.type	Cy_Em_EEPROM_NumWrites, %function
 2454              	Cy_Em_EEPROM_NumWrites:
 2455              	.LVL313:
 2456              	.LFB4:
 733:Generated_Source\PSoC4/cy_em_eeprom.c ****     return(CY_EM_EEPROM_GET_SEQ_NUM(context->lastWrRowAddr));
 2457              		.loc 1 733 1 is_stmt 1 view -0
 2458              		.cfi_startproc
 2459              		@ args = 0, pretend = 0, frame = 0
 2460              		@ frame_needed = 0, uses_anonymous_args = 0
 2461              		@ link register save eliminated.
 734:Generated_Source\PSoC4/cy_em_eeprom.c **** }
 2462              		.loc 1 734 5 view .LVU759
 734:Generated_Source\PSoC4/cy_em_eeprom.c **** }
 2463              		.loc 1 734 12 is_stmt 0 view .LVU760
 2464 0000 8368     		ldr	r3, [r0, #8]
 2465 0002 1868     		ldr	r0, [r3]
 2466              	.LVL314:
 735:Generated_Source\PSoC4/cy_em_eeprom.c **** 
 2467              		.loc 1 735 1 view .LVU761
 2468              		@ sp needed
 2469 0004 7047     		bx	lr
 2470              		.cfi_endproc
 2471              	.LFE4:
 2472              		.size	Cy_Em_EEPROM_NumWrites, .-Cy_Em_EEPROM_NumWrites
 2473              		.text
 2474              	.Letext0:
 2475              		.file 2 "Generated_Source\\PSoC4\\cytypes.h"
 2476              		.file 3 "c:\\program files (x86)\\gnu tools arm embedded\\8 2018-q4-major\\arm-none-eabi\\include\
 2477              		.file 4 "c:\\program files (x86)\\gnu tools arm embedded\\8 2018-q4-major\\arm-none-eabi\\include\
 2478              		.file 5 "c:\\program files (x86)\\gnu tools arm embedded\\8 2018-q4-major\\lib\\gcc\\arm-none-eabi
 2479              		.file 6 "c:\\program files (x86)\\gnu tools arm embedded\\8 2018-q4-major\\arm-none-eabi\\include\
 2480              		.file 7 "c:\\program files (x86)\\gnu tools arm embedded\\8 2018-q4-major\\arm-none-eabi\\include\
 2481              		.file 8 "Generated_Source\\PSoC4\\CyLib.h"
 2482              		.file 9 "Generated_Source\\PSoC4\\cy_em_eeprom.h"
 2483              		.file 10 "<built-in>"
 2484              		.file 11 "Generated_Source\\PSoC4\\CyFlash.h"
 2485              		.section	.debug_info,"",%progbits
 2486              	.Ldebug_info0:
 2487 0000 D1190000 		.4byte	0x19d1
 2488 0004 0400     		.2byte	0x4
 2489 0006 00000000 		.4byte	.Ldebug_abbrev0
ARM GAS  C:\Users\EDULU~1.DES\AppData\Local\Temp\cc9dcV7d.s 			page 80


 2490 000a 04       		.byte	0x4
 2491 000b 01       		.uleb128 0x1
 2492 000c AC040000 		.4byte	.LASF220
 2493 0010 0C       		.byte	0xc
 2494 0011 73010000 		.4byte	.LASF221
 2495 0015 0A020000 		.4byte	.LASF222
 2496 0019 B0000000 		.4byte	.Ldebug_ranges0+0xb0
 2497 001d 00000000 		.4byte	0
 2498 0021 00000000 		.4byte	.Ldebug_line0
 2499 0025 02       		.uleb128 0x2
 2500 0026 01       		.byte	0x1
 2501 0027 06       		.byte	0x6
 2502 0028 32010000 		.4byte	.LASF0
 2503 002c 02       		.uleb128 0x2
 2504 002d 01       		.byte	0x1
 2505 002e 08       		.byte	0x8
 2506 002f 53070000 		.4byte	.LASF1
 2507 0033 02       		.uleb128 0x2
 2508 0034 02       		.byte	0x2
 2509 0035 05       		.byte	0x5
 2510 0036 77070000 		.4byte	.LASF2
 2511 003a 02       		.uleb128 0x2
 2512 003b 02       		.byte	0x2
 2513 003c 07       		.byte	0x7
 2514 003d 1B040000 		.4byte	.LASF3
 2515 0041 02       		.uleb128 0x2
 2516 0042 04       		.byte	0x4
 2517 0043 05       		.byte	0x5
 2518 0044 EB010000 		.4byte	.LASF4
 2519 0048 02       		.uleb128 0x2
 2520 0049 04       		.byte	0x4
 2521 004a 07       		.byte	0x7
 2522 004b CD030000 		.4byte	.LASF5
 2523 004f 02       		.uleb128 0x2
 2524 0050 08       		.byte	0x8
 2525 0051 05       		.byte	0x5
 2526 0052 24010000 		.4byte	.LASF6
 2527 0056 02       		.uleb128 0x2
 2528 0057 08       		.byte	0x8
 2529 0058 07       		.byte	0x7
 2530 0059 AE000000 		.4byte	.LASF7
 2531 005d 03       		.uleb128 0x3
 2532 005e 04       		.byte	0x4
 2533 005f 05       		.byte	0x5
 2534 0060 696E7400 		.ascii	"int\000"
 2535 0064 02       		.uleb128 0x2
 2536 0065 04       		.byte	0x4
 2537 0066 07       		.byte	0x7
 2538 0067 95030000 		.4byte	.LASF8
 2539 006b 04       		.uleb128 0x4
 2540 006c 81020000 		.4byte	.LASF9
 2541 0070 02       		.byte	0x2
 2542 0071 E401     		.2byte	0x1e4
 2543 0073 19       		.byte	0x19
 2544 0074 2C000000 		.4byte	0x2c
 2545 0078 05       		.uleb128 0x5
 2546 0079 6B000000 		.4byte	0x6b
ARM GAS  C:\Users\EDULU~1.DES\AppData\Local\Temp\cc9dcV7d.s 			page 81


 2547 007d 04       		.uleb128 0x4
 2548 007e 0C000000 		.4byte	.LASF10
 2549 0082 02       		.byte	0x2
 2550 0083 E501     		.2byte	0x1e5
 2551 0085 19       		.byte	0x19
 2552 0086 3A000000 		.4byte	0x3a
 2553 008a 04       		.uleb128 0x4
 2554 008b DF020000 		.4byte	.LASF11
 2555 008f 02       		.byte	0x2
 2556 0090 E601     		.2byte	0x1e6
 2557 0092 19       		.byte	0x19
 2558 0093 48000000 		.4byte	0x48
 2559 0097 02       		.uleb128 0x2
 2560 0098 04       		.byte	0x4
 2561 0099 04       		.byte	0x4
 2562 009a EC060000 		.4byte	.LASF12
 2563 009e 02       		.uleb128 0x2
 2564 009f 08       		.byte	0x8
 2565 00a0 04       		.byte	0x4
 2566 00a1 A9020000 		.4byte	.LASF13
 2567 00a5 02       		.uleb128 0x2
 2568 00a6 01       		.byte	0x1
 2569 00a7 08       		.byte	0x8
 2570 00a8 99080000 		.4byte	.LASF14
 2571 00ac 05       		.uleb128 0x5
 2572 00ad A5000000 		.4byte	0xa5
 2573 00b1 04       		.uleb128 0x4
 2574 00b2 410A0000 		.4byte	.LASF15
 2575 00b6 02       		.byte	0x2
 2576 00b7 8602     		.2byte	0x286
 2577 00b9 1B       		.byte	0x1b
 2578 00ba 48000000 		.4byte	0x48
 2579 00be 06       		.uleb128 0x6
 2580 00bf 04       		.byte	0x4
 2581 00c0 C4000000 		.4byte	0xc4
 2582 00c4 07       		.uleb128 0x7
 2583 00c5 02       		.uleb128 0x2
 2584 00c6 08       		.byte	0x8
 2585 00c7 04       		.byte	0x4
 2586 00c8 18060000 		.4byte	.LASF16
 2587 00cc 08       		.uleb128 0x8
 2588 00cd 92040000 		.4byte	.LASF17
 2589 00d1 03       		.byte	0x3
 2590 00d2 22       		.byte	0x22
 2591 00d3 19       		.byte	0x19
 2592 00d4 D8000000 		.4byte	0xd8
 2593 00d8 06       		.uleb128 0x6
 2594 00d9 04       		.byte	0x4
 2595 00da DE000000 		.4byte	0xde
 2596 00de 09       		.uleb128 0x9
 2597 00df 4C080000 		.4byte	.LASF123
 2598 00e3 08       		.uleb128 0x8
 2599 00e4 BB060000 		.4byte	.LASF18
 2600 00e8 04       		.byte	0x4
 2601 00e9 2C       		.byte	0x2c
 2602 00ea 0E       		.byte	0xe
 2603 00eb 41000000 		.4byte	0x41
ARM GAS  C:\Users\EDULU~1.DES\AppData\Local\Temp\cc9dcV7d.s 			page 82


 2604 00ef 08       		.uleb128 0x8
 2605 00f0 7C080000 		.4byte	.LASF19
 2606 00f4 04       		.byte	0x4
 2607 00f5 72       		.byte	0x72
 2608 00f6 0E       		.byte	0xe
 2609 00f7 41000000 		.4byte	0x41
 2610 00fb 04       		.uleb128 0x4
 2611 00fc A5040000 		.4byte	.LASF20
 2612 0100 05       		.byte	0x5
 2613 0101 6501     		.2byte	0x165
 2614 0103 17       		.byte	0x17
 2615 0104 64000000 		.4byte	0x64
 2616 0108 0A       		.uleb128 0xa
 2617 0109 04       		.byte	0x4
 2618 010a 04       		.byte	0x4
 2619 010b A6       		.byte	0xa6
 2620 010c 03       		.byte	0x3
 2621 010d 2A010000 		.4byte	0x12a
 2622 0111 0B       		.uleb128 0xb
 2623 0112 73040000 		.4byte	.LASF21
 2624 0116 04       		.byte	0x4
 2625 0117 A8       		.byte	0xa8
 2626 0118 0C       		.byte	0xc
 2627 0119 FB000000 		.4byte	0xfb
 2628 011d 0B       		.uleb128 0xb
 2629 011e AB030000 		.4byte	.LASF22
 2630 0122 04       		.byte	0x4
 2631 0123 A9       		.byte	0xa9
 2632 0124 13       		.byte	0x13
 2633 0125 2A010000 		.4byte	0x12a
 2634 0129 00       		.byte	0
 2635 012a 0C       		.uleb128 0xc
 2636 012b 2C000000 		.4byte	0x2c
 2637 012f 3A010000 		.4byte	0x13a
 2638 0133 0D       		.uleb128 0xd
 2639 0134 64000000 		.4byte	0x64
 2640 0138 03       		.byte	0x3
 2641 0139 00       		.byte	0
 2642 013a 0E       		.uleb128 0xe
 2643 013b 08       		.byte	0x8
 2644 013c 04       		.byte	0x4
 2645 013d A3       		.byte	0xa3
 2646 013e 09       		.byte	0x9
 2647 013f 5E010000 		.4byte	0x15e
 2648 0143 0F       		.uleb128 0xf
 2649 0144 44080000 		.4byte	.LASF23
 2650 0148 04       		.byte	0x4
 2651 0149 A5       		.byte	0xa5
 2652 014a 07       		.byte	0x7
 2653 014b 5D000000 		.4byte	0x5d
 2654 014f 00       		.byte	0
 2655 0150 0F       		.uleb128 0xf
 2656 0151 53080000 		.4byte	.LASF24
 2657 0155 04       		.byte	0x4
 2658 0156 AA       		.byte	0xaa
 2659 0157 05       		.byte	0x5
 2660 0158 08010000 		.4byte	0x108
ARM GAS  C:\Users\EDULU~1.DES\AppData\Local\Temp\cc9dcV7d.s 			page 83


 2661 015c 04       		.byte	0x4
 2662 015d 00       		.byte	0
 2663 015e 08       		.uleb128 0x8
 2664 015f 9F070000 		.4byte	.LASF25
 2665 0163 04       		.byte	0x4
 2666 0164 AB       		.byte	0xab
 2667 0165 03       		.byte	0x3
 2668 0166 3A010000 		.4byte	0x13a
 2669 016a 08       		.uleb128 0x8
 2670 016b 23030000 		.4byte	.LASF26
 2671 016f 04       		.byte	0x4
 2672 0170 AF       		.byte	0xaf
 2673 0171 1B       		.byte	0x1b
 2674 0172 CC000000 		.4byte	0xcc
 2675 0176 10       		.uleb128 0x10
 2676 0177 04       		.byte	0x4
 2677 0178 06       		.uleb128 0x6
 2678 0179 04       		.byte	0x4
 2679 017a A5000000 		.4byte	0xa5
 2680 017e 08       		.uleb128 0x8
 2681 017f 47090000 		.4byte	.LASF27
 2682 0183 06       		.byte	0x6
 2683 0184 16       		.byte	0x16
 2684 0185 19       		.byte	0x19
 2685 0186 48000000 		.4byte	0x48
 2686 018a 11       		.uleb128 0x11
 2687 018b 34030000 		.4byte	.LASF32
 2688 018f 18       		.byte	0x18
 2689 0190 06       		.byte	0x6
 2690 0191 2F       		.byte	0x2f
 2691 0192 08       		.byte	0x8
 2692 0193 E4010000 		.4byte	0x1e4
 2693 0197 0F       		.uleb128 0xf
 2694 0198 04090000 		.4byte	.LASF28
 2695 019c 06       		.byte	0x6
 2696 019d 31       		.byte	0x31
 2697 019e 13       		.byte	0x13
 2698 019f E4010000 		.4byte	0x1e4
 2699 01a3 00       		.byte	0
 2700 01a4 12       		.uleb128 0x12
 2701 01a5 5F6B00   		.ascii	"_k\000"
 2702 01a8 06       		.byte	0x6
 2703 01a9 32       		.byte	0x32
 2704 01aa 07       		.byte	0x7
 2705 01ab 5D000000 		.4byte	0x5d
 2706 01af 04       		.byte	0x4
 2707 01b0 0F       		.uleb128 0xf
 2708 01b1 08080000 		.4byte	.LASF29
 2709 01b5 06       		.byte	0x6
 2710 01b6 32       		.byte	0x32
 2711 01b7 0B       		.byte	0xb
 2712 01b8 5D000000 		.4byte	0x5d
 2713 01bc 08       		.byte	0x8
 2714 01bd 0F       		.uleb128 0xf
 2715 01be 0E030000 		.4byte	.LASF30
 2716 01c2 06       		.byte	0x6
 2717 01c3 32       		.byte	0x32
ARM GAS  C:\Users\EDULU~1.DES\AppData\Local\Temp\cc9dcV7d.s 			page 84


 2718 01c4 14       		.byte	0x14
 2719 01c5 5D000000 		.4byte	0x5d
 2720 01c9 0C       		.byte	0xc
 2721 01ca 0F       		.uleb128 0xf
 2722 01cb E4090000 		.4byte	.LASF31
 2723 01cf 06       		.byte	0x6
 2724 01d0 32       		.byte	0x32
 2725 01d1 1B       		.byte	0x1b
 2726 01d2 5D000000 		.4byte	0x5d
 2727 01d6 10       		.byte	0x10
 2728 01d7 12       		.uleb128 0x12
 2729 01d8 5F7800   		.ascii	"_x\000"
 2730 01db 06       		.byte	0x6
 2731 01dc 33       		.byte	0x33
 2732 01dd 0B       		.byte	0xb
 2733 01de EA010000 		.4byte	0x1ea
 2734 01e2 14       		.byte	0x14
 2735 01e3 00       		.byte	0
 2736 01e4 06       		.uleb128 0x6
 2737 01e5 04       		.byte	0x4
 2738 01e6 8A010000 		.4byte	0x18a
 2739 01ea 0C       		.uleb128 0xc
 2740 01eb 7E010000 		.4byte	0x17e
 2741 01ef FA010000 		.4byte	0x1fa
 2742 01f3 0D       		.uleb128 0xd
 2743 01f4 64000000 		.4byte	0x64
 2744 01f8 00       		.byte	0
 2745 01f9 00       		.byte	0
 2746 01fa 11       		.uleb128 0x11
 2747 01fb 87030000 		.4byte	.LASF33
 2748 01ff 24       		.byte	0x24
 2749 0200 06       		.byte	0x6
 2750 0201 37       		.byte	0x37
 2751 0202 08       		.byte	0x8
 2752 0203 7D020000 		.4byte	0x27d
 2753 0207 0F       		.uleb128 0xf
 2754 0208 11010000 		.4byte	.LASF34
 2755 020c 06       		.byte	0x6
 2756 020d 39       		.byte	0x39
 2757 020e 09       		.byte	0x9
 2758 020f 5D000000 		.4byte	0x5d
 2759 0213 00       		.byte	0
 2760 0214 0F       		.uleb128 0xf
 2761 0215 9E080000 		.4byte	.LASF35
 2762 0219 06       		.byte	0x6
 2763 021a 3A       		.byte	0x3a
 2764 021b 09       		.byte	0x9
 2765 021c 5D000000 		.4byte	0x5d
 2766 0220 04       		.byte	0x4
 2767 0221 0F       		.uleb128 0xf
 2768 0222 99010000 		.4byte	.LASF36
 2769 0226 06       		.byte	0x6
 2770 0227 3B       		.byte	0x3b
 2771 0228 09       		.byte	0x9
 2772 0229 5D000000 		.4byte	0x5d
 2773 022d 08       		.byte	0x8
 2774 022e 0F       		.uleb128 0xf
ARM GAS  C:\Users\EDULU~1.DES\AppData\Local\Temp\cc9dcV7d.s 			page 85


 2775 022f C10A0000 		.4byte	.LASF37
 2776 0233 06       		.byte	0x6
 2777 0234 3C       		.byte	0x3c
 2778 0235 09       		.byte	0x9
 2779 0236 5D000000 		.4byte	0x5d
 2780 023a 0C       		.byte	0xc
 2781 023b 0F       		.uleb128 0xf
 2782 023c 92060000 		.4byte	.LASF38
 2783 0240 06       		.byte	0x6
 2784 0241 3D       		.byte	0x3d
 2785 0242 09       		.byte	0x9
 2786 0243 5D000000 		.4byte	0x5d
 2787 0247 10       		.byte	0x10
 2788 0248 0F       		.uleb128 0xf
 2789 0249 AD050000 		.4byte	.LASF39
 2790 024d 06       		.byte	0x6
 2791 024e 3E       		.byte	0x3e
 2792 024f 09       		.byte	0x9
 2793 0250 5D000000 		.4byte	0x5d
 2794 0254 14       		.byte	0x14
 2795 0255 0F       		.uleb128 0xf
 2796 0256 E9090000 		.4byte	.LASF40
 2797 025a 06       		.byte	0x6
 2798 025b 3F       		.byte	0x3f
 2799 025c 09       		.byte	0x9
 2800 025d 5D000000 		.4byte	0x5d
 2801 0261 18       		.byte	0x18
 2802 0262 0F       		.uleb128 0xf
 2803 0263 81070000 		.4byte	.LASF41
 2804 0267 06       		.byte	0x6
 2805 0268 40       		.byte	0x40
 2806 0269 09       		.byte	0x9
 2807 026a 5D000000 		.4byte	0x5d
 2808 026e 1C       		.byte	0x1c
 2809 026f 0F       		.uleb128 0xf
 2810 0270 650A0000 		.4byte	.LASF42
 2811 0274 06       		.byte	0x6
 2812 0275 41       		.byte	0x41
 2813 0276 09       		.byte	0x9
 2814 0277 5D000000 		.4byte	0x5d
 2815 027b 20       		.byte	0x20
 2816 027c 00       		.byte	0
 2817 027d 13       		.uleb128 0x13
 2818 027e B6010000 		.4byte	.LASF43
 2819 0282 0801     		.2byte	0x108
 2820 0284 06       		.byte	0x6
 2821 0285 4A       		.byte	0x4a
 2822 0286 08       		.byte	0x8
 2823 0287 C2020000 		.4byte	0x2c2
 2824 028b 0F       		.uleb128 0xf
 2825 028c 19000000 		.4byte	.LASF44
 2826 0290 06       		.byte	0x6
 2827 0291 4B       		.byte	0x4b
 2828 0292 0A       		.byte	0xa
 2829 0293 C2020000 		.4byte	0x2c2
 2830 0297 00       		.byte	0
 2831 0298 0F       		.uleb128 0xf
ARM GAS  C:\Users\EDULU~1.DES\AppData\Local\Temp\cc9dcV7d.s 			page 86


 2832 0299 00000000 		.4byte	.LASF45
 2833 029d 06       		.byte	0x6
 2834 029e 4C       		.byte	0x4c
 2835 029f 09       		.byte	0x9
 2836 02a0 C2020000 		.4byte	0x2c2
 2837 02a4 80       		.byte	0x80
 2838 02a5 14       		.uleb128 0x14
 2839 02a6 23090000 		.4byte	.LASF46
 2840 02aa 06       		.byte	0x6
 2841 02ab 4E       		.byte	0x4e
 2842 02ac 0A       		.byte	0xa
 2843 02ad 7E010000 		.4byte	0x17e
 2844 02b1 0001     		.2byte	0x100
 2845 02b3 14       		.uleb128 0x14
 2846 02b4 FB010000 		.4byte	.LASF47
 2847 02b8 06       		.byte	0x6
 2848 02b9 51       		.byte	0x51
 2849 02ba 0A       		.byte	0xa
 2850 02bb 7E010000 		.4byte	0x17e
 2851 02bf 0401     		.2byte	0x104
 2852 02c1 00       		.byte	0
 2853 02c2 0C       		.uleb128 0xc
 2854 02c3 76010000 		.4byte	0x176
 2855 02c7 D2020000 		.4byte	0x2d2
 2856 02cb 0D       		.uleb128 0xd
 2857 02cc 64000000 		.4byte	0x64
 2858 02d0 1F       		.byte	0x1f
 2859 02d1 00       		.byte	0
 2860 02d2 13       		.uleb128 0x13
 2861 02d3 9B060000 		.4byte	.LASF48
 2862 02d7 9001     		.2byte	0x190
 2863 02d9 06       		.byte	0x6
 2864 02da 5D       		.byte	0x5d
 2865 02db 08       		.byte	0x8
 2866 02dc 15030000 		.4byte	0x315
 2867 02e0 0F       		.uleb128 0xf
 2868 02e1 04090000 		.4byte	.LASF28
 2869 02e5 06       		.byte	0x6
 2870 02e6 5E       		.byte	0x5e
 2871 02e7 12       		.byte	0x12
 2872 02e8 15030000 		.4byte	0x315
 2873 02ec 00       		.byte	0
 2874 02ed 0F       		.uleb128 0xf
 2875 02ee D8070000 		.4byte	.LASF49
 2876 02f2 06       		.byte	0x6
 2877 02f3 5F       		.byte	0x5f
 2878 02f4 06       		.byte	0x6
 2879 02f5 5D000000 		.4byte	0x5d
 2880 02f9 04       		.byte	0x4
 2881 02fa 0F       		.uleb128 0xf
 2882 02fb 09030000 		.4byte	.LASF50
 2883 02ff 06       		.byte	0x6
 2884 0300 61       		.byte	0x61
 2885 0301 09       		.byte	0x9
 2886 0302 1B030000 		.4byte	0x31b
 2887 0306 08       		.byte	0x8
 2888 0307 0F       		.uleb128 0xf
ARM GAS  C:\Users\EDULU~1.DES\AppData\Local\Temp\cc9dcV7d.s 			page 87


 2889 0308 B6010000 		.4byte	.LASF43
 2890 030c 06       		.byte	0x6
 2891 030d 62       		.byte	0x62
 2892 030e 1E       		.byte	0x1e
 2893 030f 7D020000 		.4byte	0x27d
 2894 0313 88       		.byte	0x88
 2895 0314 00       		.byte	0
 2896 0315 06       		.uleb128 0x6
 2897 0316 04       		.byte	0x4
 2898 0317 D2020000 		.4byte	0x2d2
 2899 031b 0C       		.uleb128 0xc
 2900 031c BE000000 		.4byte	0xbe
 2901 0320 2B030000 		.4byte	0x32b
 2902 0324 0D       		.uleb128 0xd
 2903 0325 64000000 		.4byte	0x64
 2904 0329 1F       		.byte	0x1f
 2905 032a 00       		.byte	0
 2906 032b 11       		.uleb128 0x11
 2907 032c 8B070000 		.4byte	.LASF51
 2908 0330 08       		.byte	0x8
 2909 0331 06       		.byte	0x6
 2910 0332 75       		.byte	0x75
 2911 0333 08       		.byte	0x8
 2912 0334 53030000 		.4byte	0x353
 2913 0338 0F       		.uleb128 0xf
 2914 0339 0C0A0000 		.4byte	.LASF52
 2915 033d 06       		.byte	0x6
 2916 033e 76       		.byte	0x76
 2917 033f 11       		.byte	0x11
 2918 0340 53030000 		.4byte	0x353
 2919 0344 00       		.byte	0
 2920 0345 0F       		.uleb128 0xf
 2921 0346 13000000 		.4byte	.LASF53
 2922 034a 06       		.byte	0x6
 2923 034b 77       		.byte	0x77
 2924 034c 06       		.byte	0x6
 2925 034d 5D000000 		.4byte	0x5d
 2926 0351 04       		.byte	0x4
 2927 0352 00       		.byte	0
 2928 0353 06       		.uleb128 0x6
 2929 0354 04       		.byte	0x4
 2930 0355 2C000000 		.4byte	0x2c
 2931 0359 11       		.uleb128 0x11
 2932 035a AA070000 		.4byte	.LASF54
 2933 035e 68       		.byte	0x68
 2934 035f 06       		.byte	0x6
 2935 0360 B5       		.byte	0xb5
 2936 0361 08       		.byte	0x8
 2937 0362 9C040000 		.4byte	0x49c
 2938 0366 12       		.uleb128 0x12
 2939 0367 5F7000   		.ascii	"_p\000"
 2940 036a 06       		.byte	0x6
 2941 036b B6       		.byte	0xb6
 2942 036c 12       		.byte	0x12
 2943 036d 53030000 		.4byte	0x353
 2944 0371 00       		.byte	0
 2945 0372 12       		.uleb128 0x12
ARM GAS  C:\Users\EDULU~1.DES\AppData\Local\Temp\cc9dcV7d.s 			page 88


 2946 0373 5F7200   		.ascii	"_r\000"
 2947 0376 06       		.byte	0x6
 2948 0377 B7       		.byte	0xb7
 2949 0378 07       		.byte	0x7
 2950 0379 5D000000 		.4byte	0x5d
 2951 037d 04       		.byte	0x4
 2952 037e 12       		.uleb128 0x12
 2953 037f 5F7700   		.ascii	"_w\000"
 2954 0382 06       		.byte	0x6
 2955 0383 B8       		.byte	0xb8
 2956 0384 07       		.byte	0x7
 2957 0385 5D000000 		.4byte	0x5d
 2958 0389 08       		.byte	0x8
 2959 038a 0F       		.uleb128 0xf
 2960 038b F4010000 		.4byte	.LASF55
 2961 038f 06       		.byte	0x6
 2962 0390 B9       		.byte	0xb9
 2963 0391 09       		.byte	0x9
 2964 0392 33000000 		.4byte	0x33
 2965 0396 0C       		.byte	0xc
 2966 0397 0F       		.uleb128 0xf
 2967 0398 EC030000 		.4byte	.LASF56
 2968 039c 06       		.byte	0x6
 2969 039d BA       		.byte	0xba
 2970 039e 09       		.byte	0x9
 2971 039f 33000000 		.4byte	0x33
 2972 03a3 0E       		.byte	0xe
 2973 03a4 12       		.uleb128 0x12
 2974 03a5 5F626600 		.ascii	"_bf\000"
 2975 03a9 06       		.byte	0x6
 2976 03aa BB       		.byte	0xbb
 2977 03ab 11       		.byte	0x11
 2978 03ac 2B030000 		.4byte	0x32b
 2979 03b0 10       		.byte	0x10
 2980 03b1 0F       		.uleb128 0xf
 2981 03b2 C5000000 		.4byte	.LASF57
 2982 03b6 06       		.byte	0x6
 2983 03b7 BC       		.byte	0xbc
 2984 03b8 07       		.byte	0x7
 2985 03b9 5D000000 		.4byte	0x5d
 2986 03bd 18       		.byte	0x18
 2987 03be 0F       		.uleb128 0xf
 2988 03bf DB010000 		.4byte	.LASF58
 2989 03c3 06       		.byte	0x6
 2990 03c4 C3       		.byte	0xc3
 2991 03c5 0A       		.byte	0xa
 2992 03c6 76010000 		.4byte	0x176
 2993 03ca 1C       		.byte	0x1c
 2994 03cb 0F       		.uleb128 0xf
 2995 03cc 61030000 		.4byte	.LASF59
 2996 03d0 06       		.byte	0x6
 2997 03d1 C5       		.byte	0xc5
 2998 03d2 1D       		.byte	0x1d
 2999 03d3 0E060000 		.4byte	0x60e
 3000 03d7 20       		.byte	0x20
 3001 03d8 0F       		.uleb128 0xf
 3002 03d9 A6050000 		.4byte	.LASF60
ARM GAS  C:\Users\EDULU~1.DES\AppData\Local\Temp\cc9dcV7d.s 			page 89


 3003 03dd 06       		.byte	0x6
 3004 03de C7       		.byte	0xc7
 3005 03df 1D       		.byte	0x1d
 3006 03e0 38060000 		.4byte	0x638
 3007 03e4 24       		.byte	0x24
 3008 03e5 0F       		.uleb128 0xf
 3009 03e6 6A080000 		.4byte	.LASF61
 3010 03ea 06       		.byte	0x6
 3011 03eb CA       		.byte	0xca
 3012 03ec 0D       		.byte	0xd
 3013 03ed 5C060000 		.4byte	0x65c
 3014 03f1 28       		.byte	0x28
 3015 03f2 0F       		.uleb128 0xf
 3016 03f3 7F0A0000 		.4byte	.LASF62
 3017 03f7 06       		.byte	0x6
 3018 03f8 CB       		.byte	0xcb
 3019 03f9 09       		.byte	0x9
 3020 03fa 76060000 		.4byte	0x676
 3021 03fe 2C       		.byte	0x2c
 3022 03ff 12       		.uleb128 0x12
 3023 0400 5F756200 		.ascii	"_ub\000"
 3024 0404 06       		.byte	0x6
 3025 0405 CE       		.byte	0xce
 3026 0406 11       		.byte	0x11
 3027 0407 2B030000 		.4byte	0x32b
 3028 040b 30       		.byte	0x30
 3029 040c 12       		.uleb128 0x12
 3030 040d 5F757000 		.ascii	"_up\000"
 3031 0411 06       		.byte	0x6
 3032 0412 CF       		.byte	0xcf
 3033 0413 12       		.byte	0x12
 3034 0414 53030000 		.4byte	0x353
 3035 0418 38       		.byte	0x38
 3036 0419 12       		.uleb128 0x12
 3037 041a 5F757200 		.ascii	"_ur\000"
 3038 041e 06       		.byte	0x6
 3039 041f D0       		.byte	0xd0
 3040 0420 07       		.byte	0x7
 3041 0421 5D000000 		.4byte	0x5d
 3042 0425 3C       		.byte	0x3c
 3043 0426 0F       		.uleb128 0xf
 3044 0427 5A010000 		.4byte	.LASF63
 3045 042b 06       		.byte	0x6
 3046 042c D3       		.byte	0xd3
 3047 042d 11       		.byte	0x11
 3048 042e 7C060000 		.4byte	0x67c
 3049 0432 40       		.byte	0x40
 3050 0433 0F       		.uleb128 0xf
 3051 0434 3B0A0000 		.4byte	.LASF64
 3052 0438 06       		.byte	0x6
 3053 0439 D4       		.byte	0xd4
 3054 043a 11       		.byte	0x11
 3055 043b 8C060000 		.4byte	0x68c
 3056 043f 43       		.byte	0x43
 3057 0440 12       		.uleb128 0x12
 3058 0441 5F6C6200 		.ascii	"_lb\000"
 3059 0445 06       		.byte	0x6
ARM GAS  C:\Users\EDULU~1.DES\AppData\Local\Temp\cc9dcV7d.s 			page 90


 3060 0446 D7       		.byte	0xd7
 3061 0447 11       		.byte	0x11
 3062 0448 2B030000 		.4byte	0x32b
 3063 044c 44       		.byte	0x44
 3064 044d 0F       		.uleb128 0xf
 3065 044e 78020000 		.4byte	.LASF65
 3066 0452 06       		.byte	0x6
 3067 0453 DA       		.byte	0xda
 3068 0454 07       		.byte	0x7
 3069 0455 5D000000 		.4byte	0x5d
 3070 0459 4C       		.byte	0x4c
 3071 045a 0F       		.uleb128 0xf
 3072 045b B8020000 		.4byte	.LASF66
 3073 045f 06       		.byte	0x6
 3074 0460 DB       		.byte	0xdb
 3075 0461 0A       		.byte	0xa
 3076 0462 E3000000 		.4byte	0xe3
 3077 0466 50       		.byte	0x50
 3078 0467 0F       		.uleb128 0xf
 3079 0468 64000000 		.4byte	.LASF67
 3080 046c 06       		.byte	0x6
 3081 046d DE       		.byte	0xde
 3082 046e 12       		.byte	0x12
 3083 046f BA040000 		.4byte	0x4ba
 3084 0473 54       		.byte	0x54
 3085 0474 0F       		.uleb128 0xf
 3086 0475 63050000 		.4byte	.LASF68
 3087 0479 06       		.byte	0x6
 3088 047a E2       		.byte	0xe2
 3089 047b 0C       		.byte	0xc
 3090 047c 6A010000 		.4byte	0x16a
 3091 0480 58       		.byte	0x58
 3092 0481 0F       		.uleb128 0xf
 3093 0482 B2070000 		.4byte	.LASF69
 3094 0486 06       		.byte	0x6
 3095 0487 E4       		.byte	0xe4
 3096 0488 0E       		.byte	0xe
 3097 0489 5E010000 		.4byte	0x15e
 3098 048d 5C       		.byte	0x5c
 3099 048e 0F       		.uleb128 0xf
 3100 048f 76050000 		.4byte	.LASF70
 3101 0493 06       		.byte	0x6
 3102 0494 E5       		.byte	0xe5
 3103 0495 09       		.byte	0x9
 3104 0496 5D000000 		.4byte	0x5d
 3105 049a 64       		.byte	0x64
 3106 049b 00       		.byte	0
 3107 049c 15       		.uleb128 0x15
 3108 049d 5D000000 		.4byte	0x5d
 3109 04a1 BA040000 		.4byte	0x4ba
 3110 04a5 16       		.uleb128 0x16
 3111 04a6 BA040000 		.4byte	0x4ba
 3112 04aa 16       		.uleb128 0x16
 3113 04ab 76010000 		.4byte	0x176
 3114 04af 16       		.uleb128 0x16
 3115 04b0 78010000 		.4byte	0x178
 3116 04b4 16       		.uleb128 0x16
ARM GAS  C:\Users\EDULU~1.DES\AppData\Local\Temp\cc9dcV7d.s 			page 91


 3117 04b5 5D000000 		.4byte	0x5d
 3118 04b9 00       		.byte	0
 3119 04ba 06       		.uleb128 0x6
 3120 04bb 04       		.byte	0x4
 3121 04bc C5040000 		.4byte	0x4c5
 3122 04c0 05       		.uleb128 0x5
 3123 04c1 BA040000 		.4byte	0x4ba
 3124 04c5 17       		.uleb128 0x17
 3125 04c6 10080000 		.4byte	.LASF71
 3126 04ca 2804     		.2byte	0x428
 3127 04cc 06       		.byte	0x6
 3128 04cd 6002     		.2byte	0x260
 3129 04cf 08       		.byte	0x8
 3130 04d0 0E060000 		.4byte	0x60e
 3131 04d4 18       		.uleb128 0x18
 3132 04d5 92080000 		.4byte	.LASF72
 3133 04d9 06       		.byte	0x6
 3134 04da 6202     		.2byte	0x262
 3135 04dc 07       		.byte	0x7
 3136 04dd 5D000000 		.4byte	0x5d
 3137 04e1 00       		.byte	0
 3138 04e2 18       		.uleb128 0x18
 3139 04e3 03020000 		.4byte	.LASF73
 3140 04e7 06       		.byte	0x6
 3141 04e8 6702     		.2byte	0x267
 3142 04ea 0B       		.byte	0xb
 3143 04eb E8060000 		.4byte	0x6e8
 3144 04ef 04       		.byte	0x4
 3145 04f0 18       		.uleb128 0x18
 3146 04f1 BD030000 		.4byte	.LASF74
 3147 04f5 06       		.byte	0x6
 3148 04f6 6702     		.2byte	0x267
 3149 04f8 14       		.byte	0x14
 3150 04f9 E8060000 		.4byte	0x6e8
 3151 04fd 08       		.byte	0x8
 3152 04fe 18       		.uleb128 0x18
 3153 04ff 2C030000 		.4byte	.LASF75
 3154 0503 06       		.byte	0x6
 3155 0504 6702     		.2byte	0x267
 3156 0506 1E       		.byte	0x1e
 3157 0507 E8060000 		.4byte	0x6e8
 3158 050b 0C       		.byte	0xc
 3159 050c 18       		.uleb128 0x18
 3160 050d D3070000 		.4byte	.LASF76
 3161 0511 06       		.byte	0x6
 3162 0512 6902     		.2byte	0x269
 3163 0514 08       		.byte	0x8
 3164 0515 5D000000 		.4byte	0x5d
 3165 0519 10       		.byte	0x10
 3166 051a 18       		.uleb128 0x18
 3167 051b 31000000 		.4byte	.LASF77
 3168 051f 06       		.byte	0x6
 3169 0520 6A02     		.2byte	0x26a
 3170 0522 08       		.byte	0x8
 3171 0523 E8080000 		.4byte	0x8e8
 3172 0527 14       		.byte	0x14
 3173 0528 18       		.uleb128 0x18
ARM GAS  C:\Users\EDULU~1.DES\AppData\Local\Temp\cc9dcV7d.s 			page 92


 3174 0529 EF070000 		.4byte	.LASF78
 3175 052d 06       		.byte	0x6
 3176 052e 6D02     		.2byte	0x26d
 3177 0530 07       		.byte	0x7
 3178 0531 5D000000 		.4byte	0x5d
 3179 0535 30       		.byte	0x30
 3180 0536 18       		.uleb128 0x18
 3181 0537 DD070000 		.4byte	.LASF79
 3182 053b 06       		.byte	0x6
 3183 053c 6E02     		.2byte	0x26e
 3184 053e 16       		.byte	0x16
 3185 053f FD080000 		.4byte	0x8fd
 3186 0543 34       		.byte	0x34
 3187 0544 18       		.uleb128 0x18
 3188 0545 B0060000 		.4byte	.LASF80
 3189 0549 06       		.byte	0x6
 3190 054a 7002     		.2byte	0x270
 3191 054c 07       		.byte	0x7
 3192 054d 5D000000 		.4byte	0x5d
 3193 0551 38       		.byte	0x38
 3194 0552 18       		.uleb128 0x18
 3195 0553 E5070000 		.4byte	.LASF81
 3196 0557 06       		.byte	0x6
 3197 0558 7202     		.2byte	0x272
 3198 055a 0A       		.byte	0xa
 3199 055b 0E090000 		.4byte	0x90e
 3200 055f 3C       		.byte	0x3c
 3201 0560 18       		.uleb128 0x18
 3202 0561 6B040000 		.4byte	.LASF82
 3203 0565 06       		.byte	0x6
 3204 0566 7502     		.2byte	0x275
 3205 0568 13       		.byte	0x13
 3206 0569 E4010000 		.4byte	0x1e4
 3207 056d 40       		.byte	0x40
 3208 056e 18       		.uleb128 0x18
 3209 056f 67030000 		.4byte	.LASF83
 3210 0573 06       		.byte	0x6
 3211 0574 7602     		.2byte	0x276
 3212 0576 07       		.byte	0x7
 3213 0577 5D000000 		.4byte	0x5d
 3214 057b 44       		.byte	0x44
 3215 057c 18       		.uleb128 0x18
 3216 057d A10A0000 		.4byte	.LASF84
 3217 0581 06       		.byte	0x6
 3218 0582 7702     		.2byte	0x277
 3219 0584 13       		.byte	0x13
 3220 0585 E4010000 		.4byte	0x1e4
 3221 0589 48       		.byte	0x48
 3222 058a 18       		.uleb128 0x18
 3223 058b F2060000 		.4byte	.LASF85
 3224 058f 06       		.byte	0x6
 3225 0590 7802     		.2byte	0x278
 3226 0592 14       		.byte	0x14
 3227 0593 14090000 		.4byte	0x914
 3228 0597 4C       		.byte	0x4c
 3229 0598 18       		.uleb128 0x18
 3230 0599 C5030000 		.4byte	.LASF86
ARM GAS  C:\Users\EDULU~1.DES\AppData\Local\Temp\cc9dcV7d.s 			page 93


 3231 059d 06       		.byte	0x6
 3232 059e 7B02     		.2byte	0x27b
 3233 05a0 07       		.byte	0x7
 3234 05a1 5D000000 		.4byte	0x5d
 3235 05a5 50       		.byte	0x50
 3236 05a6 18       		.uleb128 0x18
 3237 05a7 B0020000 		.4byte	.LASF87
 3238 05ab 06       		.byte	0x6
 3239 05ac 7C02     		.2byte	0x27c
 3240 05ae 09       		.byte	0x9
 3241 05af 78010000 		.4byte	0x178
 3242 05b3 54       		.byte	0x54
 3243 05b4 18       		.uleb128 0x18
 3244 05b5 61070000 		.4byte	.LASF88
 3245 05b9 06       		.byte	0x6
 3246 05ba 9F02     		.2byte	0x29f
 3247 05bc 07       		.byte	0x7
 3248 05bd C3080000 		.4byte	0x8c3
 3249 05c1 58       		.byte	0x58
 3250 05c2 19       		.uleb128 0x19
 3251 05c3 9B060000 		.4byte	.LASF48
 3252 05c7 06       		.byte	0x6
 3253 05c8 A302     		.2byte	0x2a3
 3254 05ca 13       		.byte	0x13
 3255 05cb 15030000 		.4byte	0x315
 3256 05cf 4801     		.2byte	0x148
 3257 05d1 19       		.uleb128 0x19
 3258 05d2 2E040000 		.4byte	.LASF89
 3259 05d6 06       		.byte	0x6
 3260 05d7 A402     		.2byte	0x2a4
 3261 05d9 12       		.byte	0x12
 3262 05da D2020000 		.4byte	0x2d2
 3263 05de 4C01     		.2byte	0x14c
 3264 05e0 19       		.uleb128 0x19
 3265 05e1 310A0000 		.4byte	.LASF90
 3266 05e5 06       		.byte	0x6
 3267 05e6 A802     		.2byte	0x2a8
 3268 05e8 0C       		.byte	0xc
 3269 05e9 25090000 		.4byte	0x925
 3270 05ed DC02     		.2byte	0x2dc
 3271 05ef 19       		.uleb128 0x19
 3272 05f0 E3010000 		.4byte	.LASF91
 3273 05f4 06       		.byte	0x6
 3274 05f5 AD02     		.2byte	0x2ad
 3275 05f7 10       		.byte	0x10
 3276 05f8 A9060000 		.4byte	0x6a9
 3277 05fc E002     		.2byte	0x2e0
 3278 05fe 19       		.uleb128 0x19
 3279 05ff B1010000 		.4byte	.LASF92
 3280 0603 06       		.byte	0x6
 3281 0604 AF02     		.2byte	0x2af
 3282 0606 0A       		.byte	0xa
 3283 0607 31090000 		.4byte	0x931
 3284 060b EC02     		.2byte	0x2ec
 3285 060d 00       		.byte	0
 3286 060e 06       		.uleb128 0x6
 3287 060f 04       		.byte	0x4
ARM GAS  C:\Users\EDULU~1.DES\AppData\Local\Temp\cc9dcV7d.s 			page 94


 3288 0610 9C040000 		.4byte	0x49c
 3289 0614 15       		.uleb128 0x15
 3290 0615 5D000000 		.4byte	0x5d
 3291 0619 32060000 		.4byte	0x632
 3292 061d 16       		.uleb128 0x16
 3293 061e BA040000 		.4byte	0x4ba
 3294 0622 16       		.uleb128 0x16
 3295 0623 76010000 		.4byte	0x176
 3296 0627 16       		.uleb128 0x16
 3297 0628 32060000 		.4byte	0x632
 3298 062c 16       		.uleb128 0x16
 3299 062d 5D000000 		.4byte	0x5d
 3300 0631 00       		.byte	0
 3301 0632 06       		.uleb128 0x6
 3302 0633 04       		.byte	0x4
 3303 0634 AC000000 		.4byte	0xac
 3304 0638 06       		.uleb128 0x6
 3305 0639 04       		.byte	0x4
 3306 063a 14060000 		.4byte	0x614
 3307 063e 15       		.uleb128 0x15
 3308 063f EF000000 		.4byte	0xef
 3309 0643 5C060000 		.4byte	0x65c
 3310 0647 16       		.uleb128 0x16
 3311 0648 BA040000 		.4byte	0x4ba
 3312 064c 16       		.uleb128 0x16
 3313 064d 76010000 		.4byte	0x176
 3314 0651 16       		.uleb128 0x16
 3315 0652 EF000000 		.4byte	0xef
 3316 0656 16       		.uleb128 0x16
 3317 0657 5D000000 		.4byte	0x5d
 3318 065b 00       		.byte	0
 3319 065c 06       		.uleb128 0x6
 3320 065d 04       		.byte	0x4
 3321 065e 3E060000 		.4byte	0x63e
 3322 0662 15       		.uleb128 0x15
 3323 0663 5D000000 		.4byte	0x5d
 3324 0667 76060000 		.4byte	0x676
 3325 066b 16       		.uleb128 0x16
 3326 066c BA040000 		.4byte	0x4ba
 3327 0670 16       		.uleb128 0x16
 3328 0671 76010000 		.4byte	0x176
 3329 0675 00       		.byte	0
 3330 0676 06       		.uleb128 0x6
 3331 0677 04       		.byte	0x4
 3332 0678 62060000 		.4byte	0x662
 3333 067c 0C       		.uleb128 0xc
 3334 067d 2C000000 		.4byte	0x2c
 3335 0681 8C060000 		.4byte	0x68c
 3336 0685 0D       		.uleb128 0xd
 3337 0686 64000000 		.4byte	0x64
 3338 068a 02       		.byte	0x2
 3339 068b 00       		.byte	0
 3340 068c 0C       		.uleb128 0xc
 3341 068d 2C000000 		.4byte	0x2c
 3342 0691 9C060000 		.4byte	0x69c
 3343 0695 0D       		.uleb128 0xd
 3344 0696 64000000 		.4byte	0x64
ARM GAS  C:\Users\EDULU~1.DES\AppData\Local\Temp\cc9dcV7d.s 			page 95


 3345 069a 00       		.byte	0
 3346 069b 00       		.byte	0
 3347 069c 04       		.uleb128 0x4
 3348 069d 98070000 		.4byte	.LASF93
 3349 06a1 06       		.byte	0x6
 3350 06a2 1F01     		.2byte	0x11f
 3351 06a4 1A       		.byte	0x1a
 3352 06a5 59030000 		.4byte	0x359
 3353 06a9 1A       		.uleb128 0x1a
 3354 06aa F3090000 		.4byte	.LASF94
 3355 06ae 0C       		.byte	0xc
 3356 06af 06       		.byte	0x6
 3357 06b0 2301     		.2byte	0x123
 3358 06b2 08       		.byte	0x8
 3359 06b3 E2060000 		.4byte	0x6e2
 3360 06b7 18       		.uleb128 0x18
 3361 06b8 04090000 		.4byte	.LASF28
 3362 06bc 06       		.byte	0x6
 3363 06bd 2501     		.2byte	0x125
 3364 06bf 11       		.byte	0x11
 3365 06c0 E2060000 		.4byte	0x6e2
 3366 06c4 00       		.byte	0
 3367 06c5 18       		.uleb128 0x18
 3368 06c6 0F040000 		.4byte	.LASF95
 3369 06ca 06       		.byte	0x6
 3370 06cb 2601     		.2byte	0x126
 3371 06cd 07       		.byte	0x7
 3372 06ce 5D000000 		.4byte	0x5d
 3373 06d2 04       		.byte	0x4
 3374 06d3 18       		.uleb128 0x18
 3375 06d4 92070000 		.4byte	.LASF96
 3376 06d8 06       		.byte	0x6
 3377 06d9 2701     		.2byte	0x127
 3378 06db 0B       		.byte	0xb
 3379 06dc E8060000 		.4byte	0x6e8
 3380 06e0 08       		.byte	0x8
 3381 06e1 00       		.byte	0
 3382 06e2 06       		.uleb128 0x6
 3383 06e3 04       		.byte	0x4
 3384 06e4 A9060000 		.4byte	0x6a9
 3385 06e8 06       		.uleb128 0x6
 3386 06e9 04       		.byte	0x4
 3387 06ea 9C060000 		.4byte	0x69c
 3388 06ee 1A       		.uleb128 0x1a
 3389 06ef 29000000 		.4byte	.LASF97
 3390 06f3 0E       		.byte	0xe
 3391 06f4 06       		.byte	0x6
 3392 06f5 3F01     		.2byte	0x13f
 3393 06f7 08       		.byte	0x8
 3394 06f8 27070000 		.4byte	0x727
 3395 06fc 18       		.uleb128 0x18
 3396 06fd 17080000 		.4byte	.LASF98
 3397 0701 06       		.byte	0x6
 3398 0702 4001     		.2byte	0x140
 3399 0704 12       		.byte	0x12
 3400 0705 27070000 		.4byte	0x727
 3401 0709 00       		.byte	0
ARM GAS  C:\Users\EDULU~1.DES\AppData\Local\Temp\cc9dcV7d.s 			page 96


 3402 070a 18       		.uleb128 0x18
 3403 070b F7080000 		.4byte	.LASF99
 3404 070f 06       		.byte	0x6
 3405 0710 4101     		.2byte	0x141
 3406 0712 12       		.byte	0x12
 3407 0713 27070000 		.4byte	0x727
 3408 0717 06       		.byte	0x6
 3409 0718 18       		.uleb128 0x18
 3410 0719 42090000 		.4byte	.LASF100
 3411 071d 06       		.byte	0x6
 3412 071e 4201     		.2byte	0x142
 3413 0720 12       		.byte	0x12
 3414 0721 3A000000 		.4byte	0x3a
 3415 0725 0C       		.byte	0xc
 3416 0726 00       		.byte	0
 3417 0727 0C       		.uleb128 0xc
 3418 0728 3A000000 		.4byte	0x3a
 3419 072c 37070000 		.4byte	0x737
 3420 0730 0D       		.uleb128 0xd
 3421 0731 64000000 		.4byte	0x64
 3422 0735 02       		.byte	0x2
 3423 0736 00       		.byte	0
 3424 0737 1B       		.uleb128 0x1b
 3425 0738 D0       		.byte	0xd0
 3426 0739 06       		.byte	0x6
 3427 073a 8002     		.2byte	0x280
 3428 073c 07       		.byte	0x7
 3429 073d 4C080000 		.4byte	0x84c
 3430 0741 18       		.uleb128 0x18
 3431 0742 CF090000 		.4byte	.LASF101
 3432 0746 06       		.byte	0x6
 3433 0747 8202     		.2byte	0x282
 3434 0749 18       		.byte	0x18
 3435 074a 64000000 		.4byte	0x64
 3436 074e 00       		.byte	0
 3437 074f 18       		.uleb128 0x18
 3438 0750 0F090000 		.4byte	.LASF102
 3439 0754 06       		.byte	0x6
 3440 0755 8302     		.2byte	0x283
 3441 0757 12       		.byte	0x12
 3442 0758 78010000 		.4byte	0x178
 3443 075c 04       		.byte	0x4
 3444 075d 18       		.uleb128 0x18
 3445 075e 43040000 		.4byte	.LASF103
 3446 0762 06       		.byte	0x6
 3447 0763 8402     		.2byte	0x284
 3448 0765 10       		.byte	0x10
 3449 0766 4C080000 		.4byte	0x84c
 3450 076a 08       		.byte	0x8
 3451 076b 18       		.uleb128 0x18
 3452 076c 700A0000 		.4byte	.LASF104
 3453 0770 06       		.byte	0x6
 3454 0771 8502     		.2byte	0x285
 3455 0773 17       		.byte	0x17
 3456 0774 FA010000 		.4byte	0x1fa
 3457 0778 24       		.byte	0x24
 3458 0779 18       		.uleb128 0x18
ARM GAS  C:\Users\EDULU~1.DES\AppData\Local\Temp\cc9dcV7d.s 			page 97


 3459 077a 3C030000 		.4byte	.LASF105
 3460 077e 06       		.byte	0x6
 3461 077f 8602     		.2byte	0x286
 3462 0781 0F       		.byte	0xf
 3463 0782 5D000000 		.4byte	0x5d
 3464 0786 48       		.byte	0x48
 3465 0787 18       		.uleb128 0x18
 3466 0788 BB070000 		.4byte	.LASF106
 3467 078c 06       		.byte	0x6
 3468 078d 8702     		.2byte	0x287
 3469 078f 2C       		.byte	0x2c
 3470 0790 56000000 		.4byte	0x56
 3471 0794 50       		.byte	0x50
 3472 0795 18       		.uleb128 0x18
 3473 0796 8E0A0000 		.4byte	.LASF107
 3474 079a 06       		.byte	0x6
 3475 079b 8802     		.2byte	0x288
 3476 079d 1A       		.byte	0x1a
 3477 079e EE060000 		.4byte	0x6ee
 3478 07a2 58       		.byte	0x58
 3479 07a3 18       		.uleb128 0x18
 3480 07a4 C6070000 		.4byte	.LASF108
 3481 07a8 06       		.byte	0x6
 3482 07a9 8902     		.2byte	0x289
 3483 07ab 16       		.byte	0x16
 3484 07ac 5E010000 		.4byte	0x15e
 3485 07b0 68       		.byte	0x68
 3486 07b1 18       		.uleb128 0x18
 3487 07b2 930A0000 		.4byte	.LASF109
 3488 07b6 06       		.byte	0x6
 3489 07b7 8A02     		.2byte	0x28a
 3490 07b9 16       		.byte	0x16
 3491 07ba 5E010000 		.4byte	0x15e
 3492 07be 70       		.byte	0x70
 3493 07bf 18       		.uleb128 0x18
 3494 07c0 18070000 		.4byte	.LASF110
 3495 07c4 06       		.byte	0x6
 3496 07c5 8B02     		.2byte	0x28b
 3497 07c7 16       		.byte	0x16
 3498 07c8 5E010000 		.4byte	0x15e
 3499 07cc 78       		.byte	0x78
 3500 07cd 18       		.uleb128 0x18
 3501 07ce 120A0000 		.4byte	.LASF111
 3502 07d2 06       		.byte	0x6
 3503 07d3 8C02     		.2byte	0x28c
 3504 07d5 10       		.byte	0x10
 3505 07d6 5C080000 		.4byte	0x85c
 3506 07da 80       		.byte	0x80
 3507 07db 18       		.uleb128 0x18
 3508 07dc 37040000 		.4byte	.LASF112
 3509 07e0 06       		.byte	0x6
 3510 07e1 8D02     		.2byte	0x28d
 3511 07e3 10       		.byte	0x10
 3512 07e4 6C080000 		.4byte	0x86c
 3513 07e8 88       		.byte	0x88
 3514 07e9 18       		.uleb128 0x18
 3515 07ea 4F090000 		.4byte	.LASF113
ARM GAS  C:\Users\EDULU~1.DES\AppData\Local\Temp\cc9dcV7d.s 			page 98


 3516 07ee 06       		.byte	0x6
 3517 07ef 8E02     		.2byte	0x28e
 3518 07f1 0F       		.byte	0xf
 3519 07f2 5D000000 		.4byte	0x5d
 3520 07f6 A0       		.byte	0xa0
 3521 07f7 18       		.uleb128 0x18
 3522 07f8 D1020000 		.4byte	.LASF114
 3523 07fc 06       		.byte	0x6
 3524 07fd 8F02     		.2byte	0x28f
 3525 07ff 16       		.byte	0x16
 3526 0800 5E010000 		.4byte	0x15e
 3527 0804 A4       		.byte	0xa4
 3528 0805 18       		.uleb128 0x18
 3529 0806 F7000000 		.4byte	.LASF115
 3530 080a 06       		.byte	0x6
 3531 080b 9002     		.2byte	0x290
 3532 080d 16       		.byte	0x16
 3533 080e 5E010000 		.4byte	0x15e
 3534 0812 AC       		.byte	0xac
 3535 0813 18       		.uleb128 0x18
 3536 0814 C0020000 		.4byte	.LASF116
 3537 0818 06       		.byte	0x6
 3538 0819 9102     		.2byte	0x291
 3539 081b 16       		.byte	0x16
 3540 081c 5E010000 		.4byte	0x15e
 3541 0820 B4       		.byte	0xb4
 3542 0821 18       		.uleb128 0x18
 3543 0822 84000000 		.4byte	.LASF117
 3544 0826 06       		.byte	0x6
 3545 0827 9202     		.2byte	0x292
 3546 0829 16       		.byte	0x16
 3547 082a 5E010000 		.4byte	0x15e
 3548 082e BC       		.byte	0xbc
 3549 082f 18       		.uleb128 0x18
 3550 0830 93000000 		.4byte	.LASF118
 3551 0834 06       		.byte	0x6
 3552 0835 9302     		.2byte	0x293
 3553 0837 16       		.byte	0x16
 3554 0838 5E010000 		.4byte	0x15e
 3555 083c C4       		.byte	0xc4
 3556 083d 18       		.uleb128 0x18
 3557 083e 6E070000 		.4byte	.LASF119
 3558 0842 06       		.byte	0x6
 3559 0843 9402     		.2byte	0x294
 3560 0845 08       		.byte	0x8
 3561 0846 5D000000 		.4byte	0x5d
 3562 084a CC       		.byte	0xcc
 3563 084b 00       		.byte	0
 3564 084c 0C       		.uleb128 0xc
 3565 084d A5000000 		.4byte	0xa5
 3566 0851 5C080000 		.4byte	0x85c
 3567 0855 0D       		.uleb128 0xd
 3568 0856 64000000 		.4byte	0x64
 3569 085a 19       		.byte	0x19
 3570 085b 00       		.byte	0
 3571 085c 0C       		.uleb128 0xc
 3572 085d A5000000 		.4byte	0xa5
ARM GAS  C:\Users\EDULU~1.DES\AppData\Local\Temp\cc9dcV7d.s 			page 99


 3573 0861 6C080000 		.4byte	0x86c
 3574 0865 0D       		.uleb128 0xd
 3575 0866 64000000 		.4byte	0x64
 3576 086a 07       		.byte	0x7
 3577 086b 00       		.byte	0
 3578 086c 0C       		.uleb128 0xc
 3579 086d A5000000 		.4byte	0xa5
 3580 0871 7C080000 		.4byte	0x87c
 3581 0875 0D       		.uleb128 0xd
 3582 0876 64000000 		.4byte	0x64
 3583 087a 17       		.byte	0x17
 3584 087b 00       		.byte	0
 3585 087c 1B       		.uleb128 0x1b
 3586 087d F0       		.byte	0xf0
 3587 087e 06       		.byte	0x6
 3588 087f 9902     		.2byte	0x299
 3589 0881 07       		.byte	0x7
 3590 0882 A3080000 		.4byte	0x8a3
 3591 0886 18       		.uleb128 0x18
 3592 0887 36060000 		.4byte	.LASF120
 3593 088b 06       		.byte	0x6
 3594 088c 9C02     		.2byte	0x29c
 3595 088e 1B       		.byte	0x1b
 3596 088f A3080000 		.4byte	0x8a3
 3597 0893 00       		.byte	0
 3598 0894 18       		.uleb128 0x18
 3599 0895 FA050000 		.4byte	.LASF121
 3600 0899 06       		.byte	0x6
 3601 089a 9D02     		.2byte	0x29d
 3602 089c 18       		.byte	0x18
 3603 089d B3080000 		.4byte	0x8b3
 3604 08a1 78       		.byte	0x78
 3605 08a2 00       		.byte	0
 3606 08a3 0C       		.uleb128 0xc
 3607 08a4 53030000 		.4byte	0x353
 3608 08a8 B3080000 		.4byte	0x8b3
 3609 08ac 0D       		.uleb128 0xd
 3610 08ad 64000000 		.4byte	0x64
 3611 08b1 1D       		.byte	0x1d
 3612 08b2 00       		.byte	0
 3613 08b3 0C       		.uleb128 0xc
 3614 08b4 64000000 		.4byte	0x64
 3615 08b8 C3080000 		.4byte	0x8c3
 3616 08bc 0D       		.uleb128 0xd
 3617 08bd 64000000 		.4byte	0x64
 3618 08c1 1D       		.byte	0x1d
 3619 08c2 00       		.byte	0
 3620 08c3 1C       		.uleb128 0x1c
 3621 08c4 F0       		.byte	0xf0
 3622 08c5 06       		.byte	0x6
 3623 08c6 7E02     		.2byte	0x27e
 3624 08c8 03       		.byte	0x3
 3625 08c9 E8080000 		.4byte	0x8e8
 3626 08cd 1D       		.uleb128 0x1d
 3627 08ce 10080000 		.4byte	.LASF71
 3628 08d2 06       		.byte	0x6
 3629 08d3 9502     		.2byte	0x295
ARM GAS  C:\Users\EDULU~1.DES\AppData\Local\Temp\cc9dcV7d.s 			page 100


 3630 08d5 0B       		.byte	0xb
 3631 08d6 37070000 		.4byte	0x737
 3632 08da 1D       		.uleb128 0x1d
 3633 08db EF000000 		.4byte	.LASF122
 3634 08df 06       		.byte	0x6
 3635 08e0 9E02     		.2byte	0x29e
 3636 08e2 0B       		.byte	0xb
 3637 08e3 7C080000 		.4byte	0x87c
 3638 08e7 00       		.byte	0
 3639 08e8 0C       		.uleb128 0xc
 3640 08e9 A5000000 		.4byte	0xa5
 3641 08ed F8080000 		.4byte	0x8f8
 3642 08f1 0D       		.uleb128 0xd
 3643 08f2 64000000 		.4byte	0x64
 3644 08f6 18       		.byte	0x18
 3645 08f7 00       		.byte	0
 3646 08f8 09       		.uleb128 0x9
 3647 08f9 E4000000 		.4byte	.LASF124
 3648 08fd 06       		.uleb128 0x6
 3649 08fe 04       		.byte	0x4
 3650 08ff F8080000 		.4byte	0x8f8
 3651 0903 1E       		.uleb128 0x1e
 3652 0904 0E090000 		.4byte	0x90e
 3653 0908 16       		.uleb128 0x16
 3654 0909 BA040000 		.4byte	0x4ba
 3655 090d 00       		.byte	0
 3656 090e 06       		.uleb128 0x6
 3657 090f 04       		.byte	0x4
 3658 0910 03090000 		.4byte	0x903
 3659 0914 06       		.uleb128 0x6
 3660 0915 04       		.byte	0x4
 3661 0916 E4010000 		.4byte	0x1e4
 3662 091a 1E       		.uleb128 0x1e
 3663 091b 25090000 		.4byte	0x925
 3664 091f 16       		.uleb128 0x16
 3665 0920 5D000000 		.4byte	0x5d
 3666 0924 00       		.byte	0
 3667 0925 06       		.uleb128 0x6
 3668 0926 04       		.byte	0x4
 3669 0927 2B090000 		.4byte	0x92b
 3670 092b 06       		.uleb128 0x6
 3671 092c 04       		.byte	0x4
 3672 092d 1A090000 		.4byte	0x91a
 3673 0931 0C       		.uleb128 0xc
 3674 0932 9C060000 		.4byte	0x69c
 3675 0936 41090000 		.4byte	0x941
 3676 093a 0D       		.uleb128 0xd
 3677 093b 64000000 		.4byte	0x64
 3678 093f 02       		.byte	0x2
 3679 0940 00       		.byte	0
 3680 0941 1F       		.uleb128 0x1f
 3681 0942 70080000 		.4byte	.LASF125
 3682 0946 06       		.byte	0x6
 3683 0947 2E03     		.2byte	0x32e
 3684 0949 17       		.byte	0x17
 3685 094a BA040000 		.4byte	0x4ba
 3686 094e 1F       		.uleb128 0x1f
ARM GAS  C:\Users\EDULU~1.DES\AppData\Local\Temp\cc9dcV7d.s 			page 101


 3687 094f 93090000 		.4byte	.LASF126
 3688 0953 06       		.byte	0x6
 3689 0954 2F03     		.2byte	0x32f
 3690 0956 1D       		.byte	0x1d
 3691 0957 C0040000 		.4byte	0x4c0
 3692 095b 0C       		.uleb128 0xc
 3693 095c AC000000 		.4byte	0xac
 3694 0960 66090000 		.4byte	0x966
 3695 0964 20       		.uleb128 0x20
 3696 0965 00       		.byte	0
 3697 0966 05       		.uleb128 0x5
 3698 0967 5B090000 		.4byte	0x95b
 3699 096b 21       		.uleb128 0x21
 3700 096c D9080000 		.4byte	.LASF127
 3701 0970 07       		.byte	0x7
 3702 0971 AE       		.byte	0xae
 3703 0972 1C       		.byte	0x1c
 3704 0973 66090000 		.4byte	0x966
 3705 0977 21       		.uleb128 0x21
 3706 0978 03060000 		.4byte	.LASF128
 3707 097c 08       		.byte	0x8
 3708 097d D4       		.byte	0xd4
 3709 097e 0F       		.byte	0xf
 3710 097f 8A000000 		.4byte	0x8a
 3711 0983 21       		.uleb128 0x21
 3712 0984 87020000 		.4byte	.LASF129
 3713 0988 08       		.byte	0x8
 3714 0989 D5       		.byte	0xd5
 3715 098a 0F       		.byte	0xf
 3716 098b 8A000000 		.4byte	0x8a
 3717 098f 21       		.uleb128 0x21
 3718 0990 B9090000 		.4byte	.LASF130
 3719 0994 08       		.byte	0x8
 3720 0995 D6       		.byte	0xd6
 3721 0996 0F       		.byte	0xf
 3722 0997 6B000000 		.4byte	0x6b
 3723 099b 21       		.uleb128 0x21
 3724 099c 77000000 		.4byte	.LASF131
 3725 09a0 08       		.byte	0x8
 3726 09a1 D7       		.byte	0xd7
 3727 09a2 0F       		.byte	0xf
 3728 09a3 8A000000 		.4byte	0x8a
 3729 09a7 1F       		.uleb128 0x1f
 3730 09a8 D3000000 		.4byte	.LASF132
 3731 09ac 08       		.byte	0x8
 3732 09ad 0A01     		.2byte	0x10a
 3733 09af 0F       		.byte	0xf
 3734 09b0 8A000000 		.4byte	0x8a
 3735 09b4 0C       		.uleb128 0xc
 3736 09b5 78000000 		.4byte	0x78
 3737 09b9 C4090000 		.4byte	0x9c4
 3738 09bd 0D       		.uleb128 0xd
 3739 09be 64000000 		.4byte	0x64
 3740 09c2 2D       		.byte	0x2d
 3741 09c3 00       		.byte	0
 3742 09c4 05       		.uleb128 0x5
 3743 09c5 B4090000 		.4byte	0x9b4
ARM GAS  C:\Users\EDULU~1.DES\AppData\Local\Temp\cc9dcV7d.s 			page 102


 3744 09c9 1F       		.uleb128 0x1f
 3745 09ca 6F060000 		.4byte	.LASF133
 3746 09ce 08       		.byte	0x8
 3747 09cf 2402     		.2byte	0x224
 3748 09d1 1C       		.byte	0x1c
 3749 09d2 C4090000 		.4byte	0x9c4
 3750 09d6 0E       		.uleb128 0xe
 3751 09d7 10       		.byte	0x10
 3752 09d8 09       		.byte	0x9
 3753 09d9 FB       		.byte	0xfb
 3754 09da 09       		.byte	0x9
 3755 09db 250A0000 		.4byte	0xa25
 3756 09df 0F       		.uleb128 0xf
 3757 09e0 06010000 		.4byte	.LASF134
 3758 09e4 09       		.byte	0x9
 3759 09e5 FE       		.byte	0xfe
 3760 09e6 0C       		.byte	0xc
 3761 09e7 8A000000 		.4byte	0x8a
 3762 09eb 00       		.byte	0
 3763 09ec 18       		.uleb128 0x18
 3764 09ed A6090000 		.4byte	.LASF135
 3765 09f1 09       		.byte	0x9
 3766 09f2 0301     		.2byte	0x103
 3767 09f4 0C       		.byte	0xc
 3768 09f5 8A000000 		.4byte	0x8a
 3769 09f9 04       		.byte	0x4
 3770 09fa 18       		.uleb128 0x18
 3771 09fb A3010000 		.4byte	.LASF136
 3772 09ff 09       		.byte	0x9
 3773 0a00 0601     		.2byte	0x106
 3774 0a02 0B       		.byte	0xb
 3775 0a03 6B000000 		.4byte	0x6b
 3776 0a07 08       		.byte	0x8
 3777 0a08 18       		.uleb128 0x18
 3778 0a09 84080000 		.4byte	.LASF137
 3779 0a0d 09       		.byte	0x9
 3780 0a0e 0B01     		.2byte	0x10b
 3781 0a10 0B       		.byte	0xb
 3782 0a11 6B000000 		.4byte	0x6b
 3783 0a15 09       		.byte	0x9
 3784 0a16 18       		.uleb128 0x18
 3785 0a17 69090000 		.4byte	.LASF138
 3786 0a1b 09       		.byte	0x9
 3787 0a1c 0E01     		.2byte	0x10e
 3788 0a1e 0C       		.byte	0xc
 3789 0a1f 8A000000 		.4byte	0x8a
 3790 0a23 0C       		.byte	0xc
 3791 0a24 00       		.byte	0
 3792 0a25 04       		.uleb128 0x4
 3793 0a26 7C090000 		.4byte	.LASF139
 3794 0a2a 09       		.byte	0x9
 3795 0a2b 0F01     		.2byte	0x10f
 3796 0a2d 03       		.byte	0x3
 3797 0a2e D6090000 		.4byte	0x9d6
 3798 0a32 1B       		.uleb128 0x1b
 3799 0a33 1C       		.byte	0x1c
 3800 0a34 09       		.byte	0x9
ARM GAS  C:\Users\EDULU~1.DES\AppData\Local\Temp\cc9dcV7d.s 			page 103


 3801 0a35 1601     		.2byte	0x116
 3802 0a37 09       		.byte	0x9
 3803 0a38 AD0A0000 		.4byte	0xaad
 3804 0a3c 18       		.uleb128 0x18
 3805 0a3d 49070000 		.4byte	.LASF140
 3806 0a41 09       		.byte	0x9
 3807 0a42 1B01     		.2byte	0x11b
 3808 0a44 0C       		.byte	0xc
 3809 0a45 8A000000 		.4byte	0x8a
 3810 0a49 00       		.byte	0
 3811 0a4a 18       		.uleb128 0x18
 3812 0a4b 6A000000 		.4byte	.LASF141
 3813 0a4f 09       		.byte	0x9
 3814 0a50 2001     		.2byte	0x120
 3815 0a52 0C       		.byte	0xc
 3816 0a53 8A000000 		.4byte	0x8a
 3817 0a57 04       		.byte	0x4
 3818 0a58 18       		.uleb128 0x18
 3819 0a59 34090000 		.4byte	.LASF142
 3820 0a5d 09       		.byte	0x9
 3821 0a5e 2301     		.2byte	0x123
 3822 0a60 0C       		.byte	0xc
 3823 0a61 8A000000 		.4byte	0x8a
 3824 0a65 08       		.byte	0x8
 3825 0a66 18       		.uleb128 0x18
 3826 0a67 06010000 		.4byte	.LASF134
 3827 0a6b 09       		.byte	0x9
 3828 0a6c 2601     		.2byte	0x126
 3829 0a6e 0C       		.byte	0xc
 3830 0a6f 8A000000 		.4byte	0x8a
 3831 0a73 0C       		.byte	0xc
 3832 0a74 18       		.uleb128 0x18
 3833 0a75 A6090000 		.4byte	.LASF135
 3834 0a79 09       		.byte	0x9
 3835 0a7a 2B01     		.2byte	0x12b
 3836 0a7c 0C       		.byte	0xc
 3837 0a7d 8A000000 		.4byte	0x8a
 3838 0a81 10       		.byte	0x10
 3839 0a82 18       		.uleb128 0x18
 3840 0a83 A3010000 		.4byte	.LASF136
 3841 0a87 09       		.byte	0x9
 3842 0a88 2E01     		.2byte	0x12e
 3843 0a8a 0B       		.byte	0xb
 3844 0a8b 6B000000 		.4byte	0x6b
 3845 0a8f 14       		.byte	0x14
 3846 0a90 18       		.uleb128 0x18
 3847 0a91 84080000 		.4byte	.LASF137
 3848 0a95 09       		.byte	0x9
 3849 0a96 3301     		.2byte	0x133
 3850 0a98 0B       		.byte	0xb
 3851 0a99 6B000000 		.4byte	0x6b
 3852 0a9d 15       		.byte	0x15
 3853 0a9e 18       		.uleb128 0x18
 3854 0a9f 69090000 		.4byte	.LASF138
 3855 0aa3 09       		.byte	0x9
 3856 0aa4 3601     		.2byte	0x136
 3857 0aa6 0C       		.byte	0xc
ARM GAS  C:\Users\EDULU~1.DES\AppData\Local\Temp\cc9dcV7d.s 			page 104


 3858 0aa7 8A000000 		.4byte	0x8a
 3859 0aab 18       		.byte	0x18
 3860 0aac 00       		.byte	0
 3861 0aad 04       		.uleb128 0x4
 3862 0aae 57060000 		.4byte	.LASF143
 3863 0ab2 09       		.byte	0x9
 3864 0ab3 3701     		.2byte	0x137
 3865 0ab5 03       		.byte	0x3
 3866 0ab6 320A0000 		.4byte	0xa32
 3867 0aba 22       		.uleb128 0x22
 3868 0abb 07       		.byte	0x7
 3869 0abc 01       		.byte	0x1
 3870 0abd 2C000000 		.4byte	0x2c
 3871 0ac1 09       		.byte	0x9
 3872 0ac2 5401     		.2byte	0x154
 3873 0ac4 01       		.byte	0x1
 3874 0ac5 E80A0000 		.4byte	0xae8
 3875 0ac9 23       		.uleb128 0x23
 3876 0aca 1C0A0000 		.4byte	.LASF144
 3877 0ace 00       		.byte	0
 3878 0acf 23       		.uleb128 0x23
 3879 0ad0 B7050000 		.4byte	.LASF145
 3880 0ad4 01       		.byte	0x1
 3881 0ad5 23       		.uleb128 0x23
 3882 0ad6 E0050000 		.4byte	.LASF146
 3883 0ada 02       		.byte	0x2
 3884 0adb 23       		.uleb128 0x23
 3885 0adc 33070000 		.4byte	.LASF147
 3886 0ae0 03       		.byte	0x3
 3887 0ae1 23       		.uleb128 0x23
 3888 0ae2 2C080000 		.4byte	.LASF148
 3889 0ae6 04       		.byte	0x4
 3890 0ae7 00       		.byte	0
 3891 0ae8 04       		.uleb128 0x4
 3892 0ae9 3C000000 		.4byte	.LASF149
 3893 0aed 09       		.byte	0x9
 3894 0aee 5A01     		.2byte	0x15a
 3895 0af0 03       		.byte	0x3
 3896 0af1 BA0A0000 		.4byte	0xaba
 3897 0af5 24       		.uleb128 0x24
 3898 0af6 A3060000 		.4byte	.LASF155
 3899 0afa 01       		.byte	0x1
 3900 0afb 5805     		.2byte	0x558
 3901 0afd 21       		.byte	0x21
 3902 0afe E80A0000 		.4byte	0xae8
 3903 0b02 00000000 		.4byte	.LFB14
 3904 0b06 6A000000 		.4byte	.LFE14-.LFB14
 3905 0b0a 01       		.uleb128 0x1
 3906 0b0b 9C       		.byte	0x9c
 3907 0b0c 440C0000 		.4byte	0xc44
 3908 0b10 25       		.uleb128 0x25
 3909 0b11 2C090000 		.4byte	.LASF157
 3910 0b15 01       		.byte	0x1
 3911 0b16 5805     		.2byte	0x558
 3912 0b18 48       		.byte	0x48
 3913 0b19 440C0000 		.4byte	0xc44
 3914 0b1d 06000000 		.4byte	.LLST27
ARM GAS  C:\Users\EDULU~1.DES\AppData\Local\Temp\cc9dcV7d.s 			page 105


 3915 0b21 00000000 		.4byte	.LVUS27
 3916 0b25 26       		.uleb128 0x26
 3917 0b26 6900     		.ascii	"i\000"
 3918 0b28 01       		.byte	0x1
 3919 0b29 5A05     		.2byte	0x55a
 3920 0b2b 0C       		.byte	0xc
 3921 0b2c 8A000000 		.4byte	0x8a
 3922 0b30 36000000 		.4byte	.LLST28
 3923 0b34 32000000 		.4byte	.LVUS28
 3924 0b38 27       		.uleb128 0x27
 3925 0b39 11060000 		.4byte	.LASF150
 3926 0b3d 01       		.byte	0x1
 3927 0b3e 5B05     		.2byte	0x55b
 3928 0b40 0C       		.byte	0xc
 3929 0b41 8A000000 		.4byte	0x8a
 3930 0b45 02       		.uleb128 0x2
 3931 0b46 91       		.byte	0x91
 3932 0b47 64       		.sleb128 -28
 3933 0b48 27       		.uleb128 0x27
 3934 0b49 1D080000 		.4byte	.LASF151
 3935 0b4d 01       		.byte	0x1
 3936 0b4e 5C05     		.2byte	0x55c
 3937 0b50 0C       		.byte	0xc
 3938 0b51 4A0C0000 		.4byte	0xc4a
 3939 0b55 03       		.uleb128 0x3
 3940 0b56 91       		.byte	0x91
 3941 0b57 E47E     		.sleb128 -156
 3942 0b59 27       		.uleb128 0x27
 3943 0b5a CE060000 		.4byte	.LASF152
 3944 0b5e 01       		.byte	0x1
 3945 0b5f 5D05     		.2byte	0x55d
 3946 0b61 0C       		.byte	0xc
 3947 0b62 8A000000 		.4byte	0x8a
 3948 0b66 03       		.uleb128 0x3
 3949 0b67 91       		.byte	0x91
 3950 0b68 E07E     		.sleb128 -160
 3951 0b6a 28       		.uleb128 0x28
 3952 0b6b 56030000 		.4byte	.LASF153
 3953 0b6f 01       		.byte	0x1
 3954 0b70 5E05     		.2byte	0x55e
 3955 0b72 0C       		.byte	0xc
 3956 0b73 8A000000 		.4byte	0x8a
 3957 0b77 57000000 		.4byte	.LLST29
 3958 0b7b 55000000 		.4byte	.LVUS29
 3959 0b7f 28       		.uleb128 0x28
 3960 0b80 50060000 		.4byte	.LASF154
 3961 0b84 01       		.byte	0x1
 3962 0b85 6005     		.2byte	0x560
 3963 0b87 0C       		.byte	0xc
 3964 0b88 8A000000 		.4byte	0x8a
 3965 0b8c 6C000000 		.4byte	.LLST30
 3966 0b90 6A000000 		.4byte	.LVUS30
 3967 0b94 26       		.uleb128 0x26
 3968 0b95 72657400 		.ascii	"ret\000"
 3969 0b99 01       		.byte	0x1
 3970 0b9a 6105     		.2byte	0x561
 3971 0b9c 1E       		.byte	0x1e
ARM GAS  C:\Users\EDULU~1.DES\AppData\Local\Temp\cc9dcV7d.s 			page 106


 3972 0b9d E80A0000 		.4byte	0xae8
 3973 0ba1 87000000 		.4byte	.LLST31
 3974 0ba5 7F000000 		.4byte	.LVUS31
 3975 0ba9 29       		.uleb128 0x29
 3976 0baa 26000000 		.4byte	.LVL77
 3977 0bae B2190000 		.4byte	0x19b2
 3978 0bb2 CA0B0000 		.4byte	0xbca
 3979 0bb6 2A       		.uleb128 0x2a
 3980 0bb7 01       		.uleb128 0x1
 3981 0bb8 50       		.byte	0x50
 3982 0bb9 03       		.uleb128 0x3
 3983 0bba 91       		.byte	0x91
 3984 0bbb E87E     		.sleb128 -152
 3985 0bbd 2A       		.uleb128 0x2a
 3986 0bbe 01       		.uleb128 0x1
 3987 0bbf 51       		.byte	0x51
 3988 0bc0 02       		.uleb128 0x2
 3989 0bc1 76       		.byte	0x76
 3990 0bc2 04       		.sleb128 4
 3991 0bc3 2A       		.uleb128 0x2a
 3992 0bc4 01       		.uleb128 0x1
 3993 0bc5 52       		.byte	0x52
 3994 0bc6 02       		.uleb128 0x2
 3995 0bc7 08       		.byte	0x8
 3996 0bc8 7C       		.byte	0x7c
 3997 0bc9 00       		.byte	0
 3998 0bca 29       		.uleb128 0x29
 3999 0bcb 32000000 		.4byte	.LVL79
 4000 0bcf 65100000 		.4byte	0x1065
 4001 0bd3 E50B0000 		.4byte	0xbe5
 4002 0bd7 2A       		.uleb128 0x2a
 4003 0bd8 01       		.uleb128 0x1
 4004 0bd9 50       		.byte	0x50
 4005 0bda 03       		.uleb128 0x3
 4006 0bdb 91       		.byte	0x91
 4007 0bdc A47F     		.sleb128 -92
 4008 0bde 2A       		.uleb128 0x2a
 4009 0bdf 01       		.uleb128 0x1
 4010 0be0 51       		.byte	0x51
 4011 0be1 02       		.uleb128 0x2
 4012 0be2 08       		.byte	0x8
 4013 0be3 40       		.byte	0x40
 4014 0be4 00       		.byte	0
 4015 0be5 29       		.uleb128 0x29
 4016 0be6 3E000000 		.4byte	.LVL80
 4017 0bea 3C0F0000 		.4byte	0xf3c
 4018 0bee 060C0000 		.4byte	0xc06
 4019 0bf2 2A       		.uleb128 0x2a
 4020 0bf3 01       		.uleb128 0x1
 4021 0bf4 50       		.byte	0x50
 4022 0bf5 02       		.uleb128 0x2
 4023 0bf6 76       		.byte	0x76
 4024 0bf7 00       		.sleb128 0
 4025 0bf8 2A       		.uleb128 0x2a
 4026 0bf9 01       		.uleb128 0x1
 4027 0bfa 51       		.byte	0x51
 4028 0bfb 03       		.uleb128 0x3
ARM GAS  C:\Users\EDULU~1.DES\AppData\Local\Temp\cc9dcV7d.s 			page 107


 4029 0bfc 91       		.byte	0x91
 4030 0bfd E47E     		.sleb128 -156
 4031 0bff 2A       		.uleb128 0x2a
 4032 0c00 01       		.uleb128 0x1
 4033 0c01 52       		.byte	0x52
 4034 0c02 02       		.uleb128 0x2
 4035 0c03 74       		.byte	0x74
 4036 0c04 00       		.sleb128 0
 4037 0c05 00       		.byte	0
 4038 0c06 29       		.uleb128 0x29
 4039 0c07 52000000 		.4byte	.LVL82
 4040 0c0b 3C0F0000 		.4byte	0xf3c
 4041 0c0f 210C0000 		.4byte	0xc21
 4042 0c13 2A       		.uleb128 0x2a
 4043 0c14 01       		.uleb128 0x1
 4044 0c15 51       		.byte	0x51
 4045 0c16 03       		.uleb128 0x3
 4046 0c17 91       		.byte	0x91
 4047 0c18 E47E     		.sleb128 -156
 4048 0c1a 2A       		.uleb128 0x2a
 4049 0c1b 01       		.uleb128 0x1
 4050 0c1c 52       		.byte	0x52
 4051 0c1d 02       		.uleb128 0x2
 4052 0c1e 74       		.byte	0x74
 4053 0c1f 00       		.sleb128 0
 4054 0c20 00       		.byte	0
 4055 0c21 2B       		.uleb128 0x2b
 4056 0c22 60000000 		.4byte	.LVL85
 4057 0c26 E8100000 		.4byte	0x10e8
 4058 0c2a 2A       		.uleb128 0x2a
 4059 0c2b 01       		.uleb128 0x1
 4060 0c2c 50       		.byte	0x50
 4061 0c2d 02       		.uleb128 0x2
 4062 0c2e 75       		.byte	0x75
 4063 0c2f 00       		.sleb128 0
 4064 0c30 2A       		.uleb128 0x2a
 4065 0c31 01       		.uleb128 0x1
 4066 0c32 51       		.byte	0x51
 4067 0c33 02       		.uleb128 0x2
 4068 0c34 7D       		.byte	0x7d
 4069 0c35 00       		.sleb128 0
 4070 0c36 2A       		.uleb128 0x2a
 4071 0c37 01       		.uleb128 0x1
 4072 0c38 52       		.byte	0x52
 4073 0c39 02       		.uleb128 0x2
 4074 0c3a 91       		.byte	0x91
 4075 0c3b 64       		.sleb128 -28
 4076 0c3c 2A       		.uleb128 0x2a
 4077 0c3d 01       		.uleb128 0x1
 4078 0c3e 53       		.byte	0x53
 4079 0c3f 02       		.uleb128 0x2
 4080 0c40 74       		.byte	0x74
 4081 0c41 00       		.sleb128 0
 4082 0c42 00       		.byte	0
 4083 0c43 00       		.byte	0
 4084 0c44 06       		.uleb128 0x6
 4085 0c45 04       		.byte	0x4
ARM GAS  C:\Users\EDULU~1.DES\AppData\Local\Temp\cc9dcV7d.s 			page 108


 4086 0c46 AD0A0000 		.4byte	0xaad
 4087 0c4a 0C       		.uleb128 0xc
 4088 0c4b 8A000000 		.4byte	0x8a
 4089 0c4f 5A0C0000 		.4byte	0xc5a
 4090 0c53 0D       		.uleb128 0xd
 4091 0c54 64000000 		.4byte	0x64
 4092 0c58 1F       		.byte	0x1f
 4093 0c59 00       		.byte	0
 4094 0c5a 24       		.uleb128 0x24
 4095 0c5b DF030000 		.4byte	.LASF156
 4096 0c5f 01       		.byte	0x1
 4097 0c60 1105     		.2byte	0x511
 4098 0c62 0F       		.byte	0xf
 4099 0c63 8A000000 		.4byte	0x8a
 4100 0c67 00000000 		.4byte	.LFB13
 4101 0c6b 7E000000 		.4byte	.LFE13-.LFB13
 4102 0c6f 01       		.uleb128 0x1
 4103 0c70 9C       		.byte	0x9c
 4104 0c71 F90C0000 		.4byte	0xcf9
 4105 0c75 25       		.uleb128 0x25
 4106 0c76 BD080000 		.4byte	.LASF158
 4107 0c7a 01       		.byte	0x1
 4108 0c7b 1105     		.2byte	0x511
 4109 0c7d 24       		.byte	0x24
 4110 0c7e F90C0000 		.4byte	0xcf9
 4111 0c82 D0000000 		.4byte	.LLST17
 4112 0c86 BC000000 		.4byte	.LVUS17
 4113 0c8a 2C       		.uleb128 0x2c
 4114 0c8b FC060000 		.4byte	.LASF161
 4115 0c8f 01       		.byte	0x1
 4116 0c90 1205     		.2byte	0x512
 4117 0c92 21       		.byte	0x21
 4118 0c93 F90C0000 		.4byte	0xcf9
 4119 0c97 01       		.uleb128 0x1
 4120 0c98 51       		.byte	0x51
 4121 0c99 25       		.uleb128 0x25
 4122 0c9a 1C090000 		.4byte	.LASF159
 4123 0c9e 01       		.byte	0x1
 4124 0c9f 1305     		.2byte	0x513
 4125 0ca1 21       		.byte	0x21
 4126 0ca2 F90C0000 		.4byte	0xcf9
 4127 0ca6 5F010000 		.4byte	.LLST18
 4128 0caa 55010000 		.4byte	.LVUS18
 4129 0cae 25       		.uleb128 0x25
 4130 0caf 55000000 		.4byte	.LASF160
 4131 0cb3 01       		.byte	0x1
 4132 0cb4 1405     		.2byte	0x514
 4133 0cb6 20       		.byte	0x20
 4134 0cb7 8A000000 		.4byte	0x8a
 4135 0cbb B2010000 		.4byte	.LLST19
 4136 0cbf A4010000 		.4byte	.LVUS19
 4137 0cc3 2C       		.uleb128 0x2c
 4138 0cc4 CE000000 		.4byte	.LASF162
 4139 0cc8 01       		.byte	0x1
 4140 0cc9 1505     		.2byte	0x515
 4141 0ccb 20       		.byte	0x20
 4142 0ccc 8A000000 		.4byte	0x8a
ARM GAS  C:\Users\EDULU~1.DES\AppData\Local\Temp\cc9dcV7d.s 			page 109


 4143 0cd0 02       		.uleb128 0x2
 4144 0cd1 91       		.byte	0x91
 4145 0cd2 00       		.sleb128 0
 4146 0cd3 2D       		.uleb128 0x2d
 4147 0cd4 6C656E00 		.ascii	"len\000"
 4148 0cd8 01       		.byte	0x1
 4149 0cd9 1605     		.2byte	0x516
 4150 0cdb 20       		.byte	0x20
 4151 0cdc 8A000000 		.4byte	0x8a
 4152 0ce0 02       		.uleb128 0x2
 4153 0ce1 91       		.byte	0x91
 4154 0ce2 04       		.sleb128 4
 4155 0ce3 28       		.uleb128 0x28
 4156 0ce4 0A090000 		.4byte	.LASF163
 4157 0ce8 01       		.byte	0x1
 4158 0ce9 1805     		.2byte	0x518
 4159 0ceb 0C       		.byte	0xc
 4160 0cec 8A000000 		.4byte	0x8a
 4161 0cf0 18020000 		.4byte	.LLST20
 4162 0cf4 12020000 		.4byte	.LVUS20
 4163 0cf8 00       		.byte	0
 4164 0cf9 06       		.uleb128 0x6
 4165 0cfa 04       		.byte	0x4
 4166 0cfb 8A000000 		.4byte	0x8a
 4167 0cff 24       		.uleb128 0x24
 4168 0d00 FF030000 		.4byte	.LASF164
 4169 0d04 01       		.byte	0x1
 4170 0d05 BD04     		.2byte	0x4bd
 4171 0d07 21       		.byte	0x21
 4172 0d08 E80A0000 		.4byte	0xae8
 4173 0d0c 00000000 		.4byte	.LFB12
 4174 0d10 7C000000 		.4byte	.LFE12-.LFB12
 4175 0d14 01       		.uleb128 0x1
 4176 0d15 9C       		.byte	0x9c
 4177 0d16 810E0000 		.4byte	0xe81
 4178 0d1a 25       		.uleb128 0x25
 4179 0d1b BD080000 		.4byte	.LASF158
 4180 0d1f 01       		.byte	0x1
 4181 0d20 BD04     		.2byte	0x4bd
 4182 0d22 38       		.byte	0x38
 4183 0d23 8A000000 		.4byte	0x8a
 4184 0d27 4C020000 		.4byte	.LLST32
 4185 0d2b 44020000 		.4byte	.LVUS32
 4186 0d2f 25       		.uleb128 0x25
 4187 0d30 5C000000 		.4byte	.LASF165
 4188 0d34 01       		.byte	0x1
 4189 0d35 BE04     		.2byte	0x4be
 4190 0d37 38       		.byte	0x38
 4191 0d38 8A000000 		.4byte	0x8a
 4192 0d3c 87020000 		.4byte	.LLST33
 4193 0d40 83020000 		.4byte	.LVUS33
 4194 0d44 25       		.uleb128 0x25
 4195 0d45 8A050000 		.4byte	.LASF166
 4196 0d49 01       		.byte	0x1
 4197 0d4a BF04     		.2byte	0x4bf
 4198 0d4c 38       		.byte	0x38
 4199 0d4d 8A000000 		.4byte	0x8a
ARM GAS  C:\Users\EDULU~1.DES\AppData\Local\Temp\cc9dcV7d.s 			page 110


 4200 0d51 AB020000 		.4byte	.LLST34
 4201 0d55 A7020000 		.4byte	.LVUS34
 4202 0d59 25       		.uleb128 0x25
 4203 0d5a A2030000 		.4byte	.LASF167
 4204 0d5e 01       		.byte	0x1
 4205 0d5f C004     		.2byte	0x4c0
 4206 0d61 38       		.byte	0x38
 4207 0d62 8A000000 		.4byte	0x8a
 4208 0d66 CF020000 		.4byte	.LLST35
 4209 0d6a CB020000 		.4byte	.LVUS35
 4210 0d6e 2C       		.uleb128 0x2c
 4211 0d6f 2C090000 		.4byte	.LASF157
 4212 0d73 01       		.byte	0x1
 4213 0d74 C104     		.2byte	0x4c1
 4214 0d76 4B       		.byte	0x4b
 4215 0d77 440C0000 		.4byte	0xc44
 4216 0d7b 02       		.uleb128 0x2
 4217 0d7c 91       		.byte	0x91
 4218 0d7d 00       		.sleb128 0
 4219 0d7e 26       		.uleb128 0x26
 4220 0d7f 72657400 		.ascii	"ret\000"
 4221 0d83 01       		.byte	0x1
 4222 0d84 C304     		.2byte	0x4c3
 4223 0d86 1E       		.byte	0x1e
 4224 0d87 E80A0000 		.4byte	0xae8
 4225 0d8b F7020000 		.4byte	.LLST36
 4226 0d8f EF020000 		.4byte	.LVUS36
 4227 0d93 27       		.uleb128 0x27
 4228 0d94 1D080000 		.4byte	.LASF151
 4229 0d98 01       		.byte	0x1
 4230 0d99 C404     		.2byte	0x4c4
 4231 0d9b 0C       		.byte	0xc
 4232 0d9c 4A0C0000 		.4byte	0xc4a
 4233 0da0 03       		.uleb128 0x3
 4234 0da1 91       		.byte	0x91
 4235 0da2 E87E     		.sleb128 -152
 4236 0da4 28       		.uleb128 0x28
 4237 0da5 5B080000 		.4byte	.LASF168
 4238 0da9 01       		.byte	0x1
 4239 0daa C704     		.2byte	0x4c7
 4240 0dac 0C       		.byte	0xc
 4241 0dad 8A000000 		.4byte	0x8a
 4242 0db1 32030000 		.4byte	.LLST37
 4243 0db5 2C030000 		.4byte	.LVUS37
 4244 0db9 29       		.uleb128 0x29
 4245 0dba 22000000 		.4byte	.LVL96
 4246 0dbe 65100000 		.4byte	0x1065
 4247 0dc2 D40D0000 		.4byte	0xdd4
 4248 0dc6 2A       		.uleb128 0x2a
 4249 0dc7 01       		.uleb128 0x1
 4250 0dc8 50       		.byte	0x50
 4251 0dc9 03       		.uleb128 0x3
 4252 0dca 76       		.byte	0x76
 4253 0dcb C000     		.sleb128 64
 4254 0dcd 2A       		.uleb128 0x2a
 4255 0dce 01       		.uleb128 0x1
 4256 0dcf 51       		.byte	0x51
ARM GAS  C:\Users\EDULU~1.DES\AppData\Local\Temp\cc9dcV7d.s 			page 111


 4257 0dd0 02       		.uleb128 0x2
 4258 0dd1 08       		.byte	0x8
 4259 0dd2 40       		.byte	0x40
 4260 0dd3 00       		.byte	0
 4261 0dd4 29       		.uleb128 0x29
 4262 0dd5 32000000 		.4byte	.LVL97
 4263 0dd9 65100000 		.4byte	0x1065
 4264 0ddd EF0D0000 		.4byte	0xdef
 4265 0de1 2A       		.uleb128 0x2a
 4266 0de2 01       		.uleb128 0x1
 4267 0de3 50       		.byte	0x50
 4268 0de4 03       		.uleb128 0x3
 4269 0de5 74       		.byte	0x74
 4270 0de6 C000     		.sleb128 64
 4271 0de8 2A       		.uleb128 0x2a
 4272 0de9 01       		.uleb128 0x1
 4273 0dea 51       		.byte	0x51
 4274 0deb 02       		.uleb128 0x2
 4275 0dec 08       		.byte	0x8
 4276 0ded 40       		.byte	0x40
 4277 0dee 00       		.byte	0
 4278 0def 29       		.uleb128 0x29
 4279 0df0 4A000000 		.4byte	.LVL102
 4280 0df4 B2190000 		.4byte	0x19b2
 4281 0df8 180E0000 		.4byte	0xe18
 4282 0dfc 2A       		.uleb128 0x2a
 4283 0dfd 01       		.uleb128 0x1
 4284 0dfe 50       		.byte	0x50
 4285 0dff 04       		.uleb128 0x4
 4286 0e00 91       		.byte	0x91
 4287 0e01 DC7E     		.sleb128 -164
 4288 0e03 06       		.byte	0x6
 4289 0e04 2A       		.uleb128 0x2a
 4290 0e05 01       		.uleb128 0x1
 4291 0e06 51       		.byte	0x51
 4292 0e07 07       		.uleb128 0x7
 4293 0e08 76       		.byte	0x76
 4294 0e09 00       		.sleb128 0
 4295 0e0a 91       		.byte	0x91
 4296 0e0b E07E     		.sleb128 -160
 4297 0e0d 06       		.byte	0x6
 4298 0e0e 22       		.byte	0x22
 4299 0e0f 2A       		.uleb128 0x2a
 4300 0e10 01       		.uleb128 0x1
 4301 0e11 52       		.byte	0x52
 4302 0e12 04       		.uleb128 0x4
 4303 0e13 91       		.byte	0x91
 4304 0e14 E47E     		.sleb128 -156
 4305 0e16 06       		.byte	0x6
 4306 0e17 00       		.byte	0
 4307 0e18 29       		.uleb128 0x29
 4308 0e19 58000000 		.4byte	.LVL105
 4309 0e1d B2190000 		.4byte	0x19b2
 4310 0e21 390E0000 		.4byte	0xe39
 4311 0e25 2A       		.uleb128 0x2a
 4312 0e26 01       		.uleb128 0x1
 4313 0e27 50       		.byte	0x50
ARM GAS  C:\Users\EDULU~1.DES\AppData\Local\Temp\cc9dcV7d.s 			page 112


 4314 0e28 03       		.uleb128 0x3
 4315 0e29 91       		.byte	0x91
 4316 0e2a E87E     		.sleb128 -152
 4317 0e2c 2A       		.uleb128 0x2a
 4318 0e2d 01       		.uleb128 0x1
 4319 0e2e 51       		.byte	0x51
 4320 0e2f 02       		.uleb128 0x2
 4321 0e30 74       		.byte	0x74
 4322 0e31 00       		.sleb128 0
 4323 0e32 2A       		.uleb128 0x2a
 4324 0e33 01       		.uleb128 0x1
 4325 0e34 52       		.byte	0x52
 4326 0e35 02       		.uleb128 0x2
 4327 0e36 08       		.byte	0x8
 4328 0e37 80       		.byte	0x80
 4329 0e38 00       		.byte	0
 4330 0e39 29       		.uleb128 0x29
 4331 0e3a 62000000 		.4byte	.LVL106
 4332 0e3e 3C0F0000 		.4byte	0xf3c
 4333 0e42 5A0E0000 		.4byte	0xe5a
 4334 0e46 2A       		.uleb128 0x2a
 4335 0e47 01       		.uleb128 0x1
 4336 0e48 50       		.byte	0x50
 4337 0e49 02       		.uleb128 0x2
 4338 0e4a 76       		.byte	0x76
 4339 0e4b 00       		.sleb128 0
 4340 0e4c 2A       		.uleb128 0x2a
 4341 0e4d 01       		.uleb128 0x1
 4342 0e4e 51       		.byte	0x51
 4343 0e4f 03       		.uleb128 0x3
 4344 0e50 91       		.byte	0x91
 4345 0e51 E87E     		.sleb128 -152
 4346 0e53 2A       		.uleb128 0x2a
 4347 0e54 01       		.uleb128 0x1
 4348 0e55 52       		.byte	0x52
 4349 0e56 02       		.uleb128 0x2
 4350 0e57 77       		.byte	0x77
 4351 0e58 00       		.sleb128 0
 4352 0e59 00       		.byte	0
 4353 0e5a 2B       		.uleb128 0x2b
 4354 0e5b 7A000000 		.4byte	.LVL109
 4355 0e5f B2190000 		.4byte	0x19b2
 4356 0e63 2A       		.uleb128 0x2a
 4357 0e64 01       		.uleb128 0x1
 4358 0e65 50       		.byte	0x50
 4359 0e66 04       		.uleb128 0x4
 4360 0e67 91       		.byte	0x91
 4361 0e68 DC7E     		.sleb128 -164
 4362 0e6a 06       		.byte	0x6
 4363 0e6b 2A       		.uleb128 0x2a
 4364 0e6c 01       		.uleb128 0x1
 4365 0e6d 51       		.byte	0x51
 4366 0e6e 08       		.uleb128 0x8
 4367 0e6f 91       		.byte	0x91
 4368 0e70 00       		.sleb128 0
 4369 0e71 75       		.byte	0x75
 4370 0e72 00       		.sleb128 0
ARM GAS  C:\Users\EDULU~1.DES\AppData\Local\Temp\cc9dcV7d.s 			page 113


 4371 0e73 22       		.byte	0x22
 4372 0e74 08       		.byte	0x8
 4373 0e75 98       		.byte	0x98
 4374 0e76 1C       		.byte	0x1c
 4375 0e77 2A       		.uleb128 0x2a
 4376 0e78 01       		.uleb128 0x1
 4377 0e79 52       		.byte	0x52
 4378 0e7a 04       		.uleb128 0x4
 4379 0e7b 91       		.byte	0x91
 4380 0e7c E47E     		.sleb128 -156
 4381 0e7e 06       		.byte	0x6
 4382 0e7f 00       		.byte	0
 4383 0e80 00       		.byte	0
 4384 0e81 24       		.uleb128 0x24
 4385 0e82 50040000 		.4byte	.LASF169
 4386 0e86 01       		.byte	0x1
 4387 0e87 4904     		.2byte	0x449
 4388 0e89 21       		.byte	0x21
 4389 0e8a E80A0000 		.4byte	0xae8
 4390 0e8e 00000000 		.4byte	.LFB11
 4391 0e92 32000000 		.4byte	.LFE11-.LFB11
 4392 0e96 01       		.uleb128 0x1
 4393 0e97 9C       		.byte	0x9c
 4394 0e98 3C0F0000 		.4byte	0xf3c
 4395 0e9c 25       		.uleb128 0x25
 4396 0e9d 66070000 		.4byte	.LASF170
 4397 0ea1 01       		.byte	0x1
 4398 0ea2 4904     		.2byte	0x449
 4399 0ea4 31       		.byte	0x31
 4400 0ea5 8A000000 		.4byte	0x8a
 4401 0ea9 63030000 		.4byte	.LLST38
 4402 0ead 5B030000 		.4byte	.LVUS38
 4403 0eb1 25       		.uleb128 0x25
 4404 0eb2 71030000 		.4byte	.LASF171
 4405 0eb6 01       		.byte	0x1
 4406 0eb7 4A04     		.2byte	0x44a
 4407 0eb9 30       		.byte	0x30
 4408 0eba 8A000000 		.4byte	0x8a
 4409 0ebe A2030000 		.4byte	.LLST39
 4410 0ec2 9A030000 		.4byte	.LVUS39
 4411 0ec6 25       		.uleb128 0x25
 4412 0ec7 2C090000 		.4byte	.LASF157
 4413 0ecb 01       		.byte	0x1
 4414 0ecc 4B04     		.2byte	0x44b
 4415 0ece 43       		.byte	0x43
 4416 0ecf 440C0000 		.4byte	0xc44
 4417 0ed3 E1030000 		.4byte	.LLST40
 4418 0ed7 D9030000 		.4byte	.LVUS40
 4419 0edb 28       		.uleb128 0x28
 4420 0edc A60A0000 		.4byte	.LASF172
 4421 0ee0 01       		.byte	0x1
 4422 0ee1 4D04     		.2byte	0x44d
 4423 0ee3 0C       		.byte	0xc
 4424 0ee4 8A000000 		.4byte	0x8a
 4425 0ee8 20040000 		.4byte	.LLST41
 4426 0eec 18040000 		.4byte	.LVUS41
 4427 0ef0 26       		.uleb128 0x26
ARM GAS  C:\Users\EDULU~1.DES\AppData\Local\Temp\cc9dcV7d.s 			page 114


 4428 0ef1 72657400 		.ascii	"ret\000"
 4429 0ef5 01       		.byte	0x1
 4430 0ef6 4E04     		.2byte	0x44e
 4431 0ef8 1E       		.byte	0x1e
 4432 0ef9 E80A0000 		.4byte	0xae8
 4433 0efd 5A040000 		.4byte	.LLST42
 4434 0f01 54040000 		.4byte	.LVUS42
 4435 0f05 29       		.uleb128 0x29
 4436 0f06 0C000000 		.4byte	.LVL112
 4437 0f0a 3C0F0000 		.4byte	0xf3c
 4438 0f0e 250F0000 		.4byte	0xf25
 4439 0f12 2A       		.uleb128 0x2a
 4440 0f13 01       		.uleb128 0x1
 4441 0f14 50       		.byte	0x50
 4442 0f15 02       		.uleb128 0x2
 4443 0f16 74       		.byte	0x74
 4444 0f17 00       		.sleb128 0
 4445 0f18 2A       		.uleb128 0x2a
 4446 0f19 01       		.uleb128 0x1
 4447 0f1a 51       		.byte	0x51
 4448 0f1b 02       		.uleb128 0x2
 4449 0f1c 75       		.byte	0x75
 4450 0f1d 00       		.sleb128 0
 4451 0f1e 2A       		.uleb128 0x2a
 4452 0f1f 01       		.uleb128 0x1
 4453 0f20 52       		.byte	0x52
 4454 0f21 02       		.uleb128 0x2
 4455 0f22 76       		.byte	0x76
 4456 0f23 00       		.sleb128 0
 4457 0f24 00       		.byte	0
 4458 0f25 2B       		.uleb128 0x2b
 4459 0f26 30000000 		.4byte	.LVL120
 4460 0f2a 3C0F0000 		.4byte	0xf3c
 4461 0f2e 2A       		.uleb128 0x2a
 4462 0f2f 01       		.uleb128 0x1
 4463 0f30 51       		.byte	0x51
 4464 0f31 02       		.uleb128 0x2
 4465 0f32 75       		.byte	0x75
 4466 0f33 00       		.sleb128 0
 4467 0f34 2A       		.uleb128 0x2a
 4468 0f35 01       		.uleb128 0x1
 4469 0f36 52       		.byte	0x52
 4470 0f37 02       		.uleb128 0x2
 4471 0f38 76       		.byte	0x76
 4472 0f39 00       		.sleb128 0
 4473 0f3a 00       		.byte	0
 4474 0f3b 00       		.byte	0
 4475 0f3c 24       		.uleb128 0x24
 4476 0f3d 3E010000 		.4byte	.LASF173
 4477 0f41 01       		.byte	0x1
 4478 0f42 DF03     		.2byte	0x3df
 4479 0f44 21       		.byte	0x21
 4480 0f45 E80A0000 		.4byte	0xae8
 4481 0f49 00000000 		.4byte	.LFB10
 4482 0f4d 14000000 		.4byte	.LFE10-.LFB10
 4483 0f51 01       		.uleb128 0x1
 4484 0f52 9C       		.byte	0x9c
ARM GAS  C:\Users\EDULU~1.DES\AppData\Local\Temp\cc9dcV7d.s 			page 115


 4485 0f53 EF0F0000 		.4byte	0xfef
 4486 0f57 25       		.uleb128 0x25
 4487 0f58 66070000 		.4byte	.LASF170
 4488 0f5c 01       		.byte	0x1
 4489 0f5d DF03     		.2byte	0x3df
 4490 0f5f 31       		.byte	0x31
 4491 0f60 8A000000 		.4byte	0x8a
 4492 0f64 88040000 		.4byte	.LLST21
 4493 0f68 84040000 		.4byte	.LVUS21
 4494 0f6c 25       		.uleb128 0x25
 4495 0f6d 860A0000 		.4byte	.LASF174
 4496 0f71 01       		.byte	0x1
 4497 0f72 E003     		.2byte	0x3e0
 4498 0f74 31       		.byte	0x31
 4499 0f75 F90C0000 		.4byte	0xcf9
 4500 0f79 AD040000 		.4byte	.LLST22
 4501 0f7d A9040000 		.4byte	.LVUS22
 4502 0f81 25       		.uleb128 0x25
 4503 0f82 2C090000 		.4byte	.LASF157
 4504 0f86 01       		.byte	0x1
 4505 0f87 E103     		.2byte	0x3e1
 4506 0f89 43       		.byte	0x43
 4507 0f8a 440C0000 		.4byte	0xc44
 4508 0f8e D2040000 		.4byte	.LLST23
 4509 0f92 CE040000 		.4byte	.LVUS23
 4510 0f96 26       		.uleb128 0x26
 4511 0f97 72657400 		.ascii	"ret\000"
 4512 0f9b 01       		.byte	0x1
 4513 0f9c E303     		.2byte	0x3e3
 4514 0f9e 1E       		.byte	0x1e
 4515 0f9f E80A0000 		.4byte	0xae8
 4516 0fa3 F9040000 		.4byte	.LLST24
 4517 0fa7 F3040000 		.4byte	.LVUS24
 4518 0fab 26       		.uleb128 0x26
 4519 0fac 726300   		.ascii	"rc\000"
 4520 0faf 01       		.byte	0x1
 4521 0fb0 E503     		.2byte	0x3e5
 4522 0fb2 0E       		.byte	0xe
 4523 0fb3 B1000000 		.4byte	0xb1
 4524 0fb7 28050000 		.4byte	.LLST25
 4525 0fbb 24050000 		.4byte	.LVUS25
 4526 0fbf 28       		.uleb128 0x28
 4527 0fc0 55000000 		.4byte	.LASF160
 4528 0fc4 01       		.byte	0x1
 4529 0fc5 EA03     		.2byte	0x3ea
 4530 0fc7 10       		.byte	0x10
 4531 0fc8 8A000000 		.4byte	0x8a
 4532 0fcc 4A050000 		.4byte	.LLST26
 4533 0fd0 46050000 		.4byte	.LVUS26
 4534 0fd4 2B       		.uleb128 0x2b
 4535 0fd5 08000000 		.4byte	.LVL69
 4536 0fd9 BD190000 		.4byte	0x19bd
 4537 0fdd 2A       		.uleb128 0x2a
 4538 0fde 01       		.uleb128 0x1
 4539 0fdf 50       		.byte	0x50
 4540 0fe0 05       		.uleb128 0x5
 4541 0fe1 F3       		.byte	0xf3
ARM GAS  C:\Users\EDULU~1.DES\AppData\Local\Temp\cc9dcV7d.s 			page 116


 4542 0fe2 01       		.uleb128 0x1
 4543 0fe3 50       		.byte	0x50
 4544 0fe4 37       		.byte	0x37
 4545 0fe5 25       		.byte	0x25
 4546 0fe6 2A       		.uleb128 0x2a
 4547 0fe7 01       		.uleb128 0x1
 4548 0fe8 51       		.byte	0x51
 4549 0fe9 03       		.uleb128 0x3
 4550 0fea F3       		.byte	0xf3
 4551 0feb 01       		.uleb128 0x1
 4552 0fec 51       		.byte	0x51
 4553 0fed 00       		.byte	0
 4554 0fee 00       		.byte	0
 4555 0fef 24       		.uleb128 0x24
 4556 0ff0 C2060000 		.4byte	.LASF175
 4557 0ff4 01       		.byte	0x1
 4558 0ff5 BC03     		.2byte	0x3bc
 4559 0ff7 21       		.byte	0x21
 4560 0ff8 E80A0000 		.4byte	0xae8
 4561 0ffc 00000000 		.4byte	.LFB9
 4562 1000 38000000 		.4byte	.LFE9-.LFB9
 4563 1004 01       		.uleb128 0x1
 4564 1005 9C       		.byte	0x9c
 4565 1006 5F100000 		.4byte	0x105f
 4566 100a 25       		.uleb128 0x25
 4567 100b A7080000 		.4byte	.LASF176
 4568 100f 01       		.byte	0x1
 4569 1010 BC03     		.2byte	0x3bc
 4570 1012 45       		.byte	0x45
 4571 1013 5F100000 		.4byte	0x105f
 4572 1017 79050000 		.4byte	.LLST13
 4573 101b 6D050000 		.4byte	.LVUS13
 4574 101f 26       		.uleb128 0x26
 4575 1020 72657400 		.ascii	"ret\000"
 4576 1024 01       		.byte	0x1
 4577 1025 BE03     		.2byte	0x3be
 4578 1027 1E       		.byte	0x1e
 4579 1028 E80A0000 		.4byte	0xae8
 4580 102c D2050000 		.4byte	.LLST14
 4581 1030 CC050000 		.4byte	.LVUS14
 4582 1034 28       		.uleb128 0x28
 4583 1035 BD080000 		.4byte	.LASF158
 4584 1039 01       		.byte	0x1
 4585 103a BF03     		.2byte	0x3bf
 4586 103c 0C       		.byte	0xc
 4587 103d 8A000000 		.4byte	0x8a
 4588 1041 03060000 		.4byte	.LLST15
 4589 1045 FD050000 		.4byte	.LVUS15
 4590 1049 28       		.uleb128 0x28
 4591 104a FC060000 		.4byte	.LASF161
 4592 104e 01       		.byte	0x1
 4593 104f C003     		.2byte	0x3c0
 4594 1051 0C       		.byte	0xc
 4595 1052 8A000000 		.4byte	0x8a
 4596 1056 32060000 		.4byte	.LLST16
 4597 105a 30060000 		.4byte	.LVUS16
 4598 105e 00       		.byte	0
ARM GAS  C:\Users\EDULU~1.DES\AppData\Local\Temp\cc9dcV7d.s 			page 117


 4599 105f 06       		.uleb128 0x6
 4600 1060 04       		.byte	0x4
 4601 1061 250A0000 		.4byte	0xa25
 4602 1065 24       		.uleb128 0x24
 4603 1066 580A0000 		.4byte	.LASF177
 4604 106a 01       		.byte	0x1
 4605 106b 9B03     		.2byte	0x39b
 4606 106d 0E       		.byte	0xe
 4607 106e 6B000000 		.4byte	0x6b
 4608 1072 00000000 		.4byte	.LFB8
 4609 1076 38000000 		.4byte	.LFE8-.LFB8
 4610 107a 01       		.uleb128 0x1
 4611 107b 9C       		.byte	0x9c
 4612 107c E2100000 		.4byte	0x10e2
 4613 1080 25       		.uleb128 0x25
 4614 1081 860A0000 		.4byte	.LASF174
 4615 1085 01       		.byte	0x1
 4616 1086 9B03     		.2byte	0x39b
 4617 1088 21       		.byte	0x21
 4618 1089 E2100000 		.4byte	0x10e2
 4619 108d 4B060000 		.4byte	.LLST9
 4620 1091 45060000 		.4byte	.LVUS9
 4621 1095 2D       		.uleb128 0x2d
 4622 1096 6C656E00 		.ascii	"len\000"
 4623 109a 01       		.byte	0x1
 4624 109b 9B03     		.2byte	0x39b
 4625 109d 33       		.byte	0x33
 4626 109e 8A000000 		.4byte	0x8a
 4627 10a2 01       		.uleb128 0x1
 4628 10a3 51       		.byte	0x51
 4629 10a4 26       		.uleb128 0x26
 4630 10a5 63726300 		.ascii	"crc\000"
 4631 10a9 01       		.byte	0x1
 4632 10aa 9D03     		.2byte	0x39d
 4633 10ac 0B       		.byte	0xb
 4634 10ad 6B000000 		.4byte	0x6b
 4635 10b1 83060000 		.4byte	.LLST10
 4636 10b5 77060000 		.4byte	.LVUS10
 4637 10b9 26       		.uleb128 0x26
 4638 10ba 6900     		.ascii	"i\000"
 4639 10bc 01       		.byte	0x1
 4640 10bd 9E03     		.2byte	0x39e
 4641 10bf 0B       		.byte	0xb
 4642 10c0 6B000000 		.4byte	0x6b
 4643 10c4 D5060000 		.4byte	.LLST11
 4644 10c8 CF060000 		.4byte	.LVUS11
 4645 10cc 26       		.uleb128 0x26
 4646 10cd 636E7400 		.ascii	"cnt\000"
 4647 10d1 01       		.byte	0x1
 4648 10d2 9F03     		.2byte	0x39f
 4649 10d4 0C       		.byte	0xc
 4650 10d5 7D000000 		.4byte	0x7d
 4651 10d9 05070000 		.4byte	.LLST12
 4652 10dd FF060000 		.4byte	.LVUS12
 4653 10e1 00       		.byte	0
 4654 10e2 06       		.uleb128 0x6
 4655 10e3 04       		.byte	0x4
ARM GAS  C:\Users\EDULU~1.DES\AppData\Local\Temp\cc9dcV7d.s 			page 118


 4656 10e4 6B000000 		.4byte	0x6b
 4657 10e8 2E       		.uleb128 0x2e
 4658 10e9 80060000 		.4byte	.LASF182
 4659 10ed 01       		.byte	0x1
 4660 10ee 4F03     		.2byte	0x34f
 4661 10f0 0D       		.byte	0xd
 4662 10f1 00000000 		.4byte	.LFB7
 4663 10f5 58000000 		.4byte	.LFE7-.LFB7
 4664 10f9 01       		.uleb128 0x1
 4665 10fa 9C       		.byte	0x9c
 4666 10fb 4E110000 		.4byte	0x114e
 4667 10ff 25       		.uleb128 0x25
 4668 1100 50060000 		.4byte	.LASF154
 4669 1104 01       		.byte	0x1
 4670 1105 4F03     		.2byte	0x34f
 4671 1107 26       		.byte	0x26
 4672 1108 8A000000 		.4byte	0x8a
 4673 110c 33070000 		.4byte	.LLST6
 4674 1110 2F070000 		.4byte	.LVUS6
 4675 1114 25       		.uleb128 0x25
 4676 1115 B60A0000 		.4byte	.LASF178
 4677 1119 01       		.byte	0x1
 4678 111a 5003     		.2byte	0x350
 4679 111c 26       		.byte	0x26
 4680 111d F90C0000 		.4byte	0xcf9
 4681 1121 5C070000 		.4byte	.LLST7
 4682 1125 54070000 		.4byte	.LVUS7
 4683 1129 2C       		.uleb128 0x2c
 4684 112a 4B030000 		.4byte	.LASF179
 4685 112e 01       		.byte	0x1
 4686 112f 5103     		.2byte	0x351
 4687 1131 26       		.byte	0x26
 4688 1132 F90C0000 		.4byte	0xcf9
 4689 1136 01       		.uleb128 0x1
 4690 1137 52       		.byte	0x52
 4691 1138 25       		.uleb128 0x25
 4692 1139 2C090000 		.4byte	.LASF157
 4693 113d 01       		.byte	0x1
 4694 113e 5203     		.2byte	0x352
 4695 1140 37       		.byte	0x37
 4696 1141 440C0000 		.4byte	0xc44
 4697 1145 9E070000 		.4byte	.LLST8
 4698 1149 96070000 		.4byte	.LVUS8
 4699 114d 00       		.byte	0
 4700 114e 24       		.uleb128 0x24
 4701 114f 47010000 		.4byte	.LASF180
 4702 1153 01       		.byte	0x1
 4703 1154 2203     		.2byte	0x322
 4704 1156 0F       		.byte	0xf
 4705 1157 8A000000 		.4byte	0x8a
 4706 115b 00000000 		.4byte	.LFB6
 4707 115f 16000000 		.4byte	.LFE6-.LFB6
 4708 1163 01       		.uleb128 0x1
 4709 1164 9C       		.byte	0x9c
 4710 1165 A3110000 		.4byte	0x11a3
 4711 1169 25       		.uleb128 0x25
 4712 116a 50060000 		.4byte	.LASF154
ARM GAS  C:\Users\EDULU~1.DES\AppData\Local\Temp\cc9dcV7d.s 			page 119


 4713 116e 01       		.byte	0x1
 4714 116f 2203     		.2byte	0x322
 4715 1171 29       		.byte	0x29
 4716 1172 8A000000 		.4byte	0x8a
 4717 1176 DC070000 		.4byte	.LLST4
 4718 117a D8070000 		.4byte	.LVUS4
 4719 117e 2C       		.uleb128 0x2c
 4720 117f 2C090000 		.4byte	.LASF157
 4721 1183 01       		.byte	0x1
 4722 1184 2203     		.2byte	0x322
 4723 1186 4B       		.byte	0x4b
 4724 1187 440C0000 		.4byte	0xc44
 4725 118b 01       		.uleb128 0x1
 4726 118c 51       		.byte	0x51
 4727 118d 28       		.uleb128 0x28
 4728 118e 26070000 		.4byte	.LASF181
 4729 1192 01       		.byte	0x1
 4730 1193 2403     		.2byte	0x324
 4731 1195 0C       		.byte	0xc
 4732 1196 8A000000 		.4byte	0x8a
 4733 119a 01080000 		.4byte	.LLST5
 4734 119e FD070000 		.4byte	.LVUS5
 4735 11a2 00       		.byte	0
 4736 11a3 2E       		.uleb128 0x2e
 4737 11a4 60010000 		.4byte	.LASF183
 4738 11a8 01       		.byte	0x1
 4739 11a9 F602     		.2byte	0x2f6
 4740 11ab 0D       		.byte	0xd
 4741 11ac 00000000 		.4byte	.LFB5
 4742 11b0 2C000000 		.4byte	.LFE5-.LFB5
 4743 11b4 01       		.uleb128 0x1
 4744 11b5 9C       		.byte	0x9c
 4745 11b6 2D120000 		.4byte	0x122d
 4746 11ba 2C       		.uleb128 0x2c
 4747 11bb F2030000 		.4byte	.LASF184
 4748 11bf 01       		.byte	0x1
 4749 11c0 F602     		.2byte	0x2f6
 4750 11c2 29       		.byte	0x29
 4751 11c3 F90C0000 		.4byte	0xcf9
 4752 11c7 01       		.uleb128 0x1
 4753 11c8 50       		.byte	0x50
 4754 11c9 2C       		.uleb128 0x2c
 4755 11ca 2C090000 		.4byte	.LASF157
 4756 11ce 01       		.byte	0x1
 4757 11cf F602     		.2byte	0x2f6
 4758 11d1 51       		.byte	0x51
 4759 11d2 440C0000 		.4byte	0xc44
 4760 11d6 01       		.uleb128 0x1
 4761 11d7 51       		.byte	0x51
 4762 11d8 28       		.uleb128 0x28
 4763 11d9 50060000 		.4byte	.LASF154
 4764 11dd 01       		.byte	0x1
 4765 11de F802     		.2byte	0x2f8
 4766 11e0 0C       		.byte	0xc
 4767 11e1 8A000000 		.4byte	0x8a
 4768 11e5 26080000 		.4byte	.LLST0
 4769 11e9 20080000 		.4byte	.LVUS0
ARM GAS  C:\Users\EDULU~1.DES\AppData\Local\Temp\cc9dcV7d.s 			page 120


 4770 11ed 28       		.uleb128 0x28
 4771 11ee B2030000 		.4byte	.LASF185
 4772 11f2 01       		.byte	0x1
 4773 11f3 F902     		.2byte	0x2f9
 4774 11f5 0C       		.byte	0xc
 4775 11f6 8A000000 		.4byte	0x8a
 4776 11fa 58080000 		.4byte	.LLST1
 4777 11fe 50080000 		.4byte	.LVUS1
 4778 1202 28       		.uleb128 0x28
 4779 1203 DC090000 		.4byte	.LASF186
 4780 1207 01       		.byte	0x1
 4781 1208 FA02     		.2byte	0x2fa
 4782 120a 0C       		.byte	0xc
 4783 120b 8A000000 		.4byte	0x8a
 4784 120f 91080000 		.4byte	.LLST2
 4785 1213 8D080000 		.4byte	.LVUS2
 4786 1217 28       		.uleb128 0x28
 4787 1218 26070000 		.4byte	.LASF181
 4788 121c 01       		.byte	0x1
 4789 121d FB02     		.2byte	0x2fb
 4790 121f 0C       		.byte	0xc
 4791 1220 8A000000 		.4byte	0x8a
 4792 1224 B2080000 		.4byte	.LLST3
 4793 1228 B0080000 		.4byte	.LVUS3
 4794 122c 00       		.byte	0
 4795 122d 2F       		.uleb128 0x2f
 4796 122e C4010000 		.4byte	.LASF187
 4797 1232 01       		.byte	0x1
 4798 1233 DC02     		.2byte	0x2dc
 4799 1235 08       		.byte	0x8
 4800 1236 8A000000 		.4byte	0x8a
 4801 123a 00000000 		.4byte	.LFB4
 4802 123e 06000000 		.4byte	.LFE4-.LFB4
 4803 1242 01       		.uleb128 0x1
 4804 1243 9C       		.byte	0x9c
 4805 1244 5E120000 		.4byte	0x125e
 4806 1248 25       		.uleb128 0x25
 4807 1249 2C090000 		.4byte	.LASF157
 4808 124d 01       		.byte	0x1
 4809 124e DC02     		.2byte	0x2dc
 4810 1250 39       		.byte	0x39
 4811 1251 440C0000 		.4byte	0xc44
 4812 1255 C9080000 		.4byte	.LLST90
 4813 1259 C5080000 		.4byte	.LVUS90
 4814 125d 00       		.byte	0
 4815 125e 2F       		.uleb128 0x2f
 4816 125f 96020000 		.4byte	.LASF188
 4817 1263 01       		.byte	0x1
 4818 1264 7502     		.2byte	0x275
 4819 1266 1A       		.byte	0x1a
 4820 1267 E80A0000 		.4byte	0xae8
 4821 126b 00000000 		.4byte	.LFB3
 4822 126f 62000000 		.4byte	.LFE3-.LFB3
 4823 1273 01       		.uleb128 0x1
 4824 1274 9C       		.byte	0x9c
 4825 1275 8E130000 		.4byte	0x138e
 4826 1279 25       		.uleb128 0x25
ARM GAS  C:\Users\EDULU~1.DES\AppData\Local\Temp\cc9dcV7d.s 			page 121


 4827 127a 2C090000 		.4byte	.LASF157
 4828 127e 01       		.byte	0x1
 4829 127f 7502     		.2byte	0x275
 4830 1281 47       		.byte	0x47
 4831 1282 440C0000 		.4byte	0xc44
 4832 1286 F0080000 		.4byte	.LLST85
 4833 128a EA080000 		.4byte	.LVUS85
 4834 128e 26       		.uleb128 0x26
 4835 128f 6900     		.ascii	"i\000"
 4836 1291 01       		.byte	0x1
 4837 1292 7702     		.2byte	0x277
 4838 1294 0C       		.byte	0xc
 4839 1295 8A000000 		.4byte	0x8a
 4840 1299 1E090000 		.4byte	.LLST86
 4841 129d 1C090000 		.4byte	.LVUS86
 4842 12a1 28       		.uleb128 0x28
 4843 12a2 50060000 		.4byte	.LASF154
 4844 12a6 01       		.byte	0x1
 4845 12a7 7802     		.2byte	0x278
 4846 12a9 0C       		.byte	0xc
 4847 12aa 8A000000 		.4byte	0x8a
 4848 12ae 3B090000 		.4byte	.LLST87
 4849 12b2 31090000 		.4byte	.LVUS87
 4850 12b6 27       		.uleb128 0x27
 4851 12b7 A60A0000 		.4byte	.LASF172
 4852 12bb 01       		.byte	0x1
 4853 12bc 7902     		.2byte	0x279
 4854 12be 0C       		.byte	0xc
 4855 12bf 8A000000 		.4byte	0x8a
 4856 12c3 02       		.uleb128 0x2
 4857 12c4 91       		.byte	0x91
 4858 12c5 64       		.sleb128 -28
 4859 12c6 27       		.uleb128 0x27
 4860 12c7 79040000 		.4byte	.LASF189
 4861 12cb 01       		.byte	0x1
 4862 12cc 7A02     		.2byte	0x27a
 4863 12ce 0C       		.byte	0xc
 4864 12cf 8A000000 		.4byte	0x8a
 4865 12d3 02       		.uleb128 0x2
 4866 12d4 91       		.byte	0x91
 4867 12d5 60       		.sleb128 -32
 4868 12d6 26       		.uleb128 0x26
 4869 12d7 72657400 		.ascii	"ret\000"
 4870 12db 01       		.byte	0x1
 4871 12dc 7B02     		.2byte	0x27b
 4872 12de 1E       		.byte	0x1e
 4873 12df E80A0000 		.4byte	0xae8
 4874 12e3 86090000 		.4byte	.LLST88
 4875 12e7 7C090000 		.4byte	.LVUS88
 4876 12eb 27       		.uleb128 0x27
 4877 12ec 1D080000 		.4byte	.LASF151
 4878 12f0 01       		.byte	0x1
 4879 12f1 7C02     		.2byte	0x27c
 4880 12f3 0C       		.byte	0xc
 4881 12f4 4A0C0000 		.4byte	0xc4a
 4882 12f8 03       		.uleb128 0x3
 4883 12f9 91       		.byte	0x91
ARM GAS  C:\Users\EDULU~1.DES\AppData\Local\Temp\cc9dcV7d.s 			page 122


 4884 12fa E07E     		.sleb128 -160
 4885 12fc 30       		.uleb128 0x30
 4886 12fd 98000000 		.4byte	.Ldebug_ranges0+0x98
 4887 1301 72130000 		.4byte	0x1372
 4888 1305 28       		.uleb128 0x28
 4889 1306 A4000000 		.4byte	.LASF190
 4890 130a 01       		.byte	0x1
 4891 130b 8902     		.2byte	0x289
 4892 130d 10       		.byte	0x10
 4893 130e 8A000000 		.4byte	0x8a
 4894 1312 C9090000 		.4byte	.LLST89
 4895 1316 C7090000 		.4byte	.LVUS89
 4896 131a 29       		.uleb128 0x29
 4897 131b 3E000000 		.4byte	.LVL304
 4898 131f E8100000 		.4byte	0x10e8
 4899 1323 40130000 		.4byte	0x1340
 4900 1327 2A       		.uleb128 0x2a
 4901 1328 01       		.uleb128 0x1
 4902 1329 50       		.byte	0x50
 4903 132a 02       		.uleb128 0x2
 4904 132b 74       		.byte	0x74
 4905 132c 00       		.sleb128 0
 4906 132d 2A       		.uleb128 0x2a
 4907 132e 01       		.uleb128 0x1
 4908 132f 51       		.byte	0x51
 4909 1330 02       		.uleb128 0x2
 4910 1331 91       		.byte	0x91
 4911 1332 64       		.sleb128 -28
 4912 1333 2A       		.uleb128 0x2a
 4913 1334 01       		.uleb128 0x1
 4914 1335 52       		.byte	0x52
 4915 1336 02       		.uleb128 0x2
 4916 1337 91       		.byte	0x91
 4917 1338 60       		.sleb128 -32
 4918 1339 2A       		.uleb128 0x2a
 4919 133a 01       		.uleb128 0x1
 4920 133b 53       		.byte	0x53
 4921 133c 02       		.uleb128 0x2
 4922 133d 76       		.byte	0x76
 4923 133e 00       		.sleb128 0
 4924 133f 00       		.byte	0
 4925 1340 29       		.uleb128 0x29
 4926 1341 4C000000 		.4byte	.LVL306
 4927 1345 810E0000 		.4byte	0xe81
 4928 1349 5A130000 		.4byte	0x135a
 4929 134d 2A       		.uleb128 0x2a
 4930 134e 01       		.uleb128 0x1
 4931 134f 51       		.byte	0x51
 4932 1350 02       		.uleb128 0x2
 4933 1351 7D       		.byte	0x7d
 4934 1352 00       		.sleb128 0
 4935 1353 2A       		.uleb128 0x2a
 4936 1354 01       		.uleb128 0x1
 4937 1355 52       		.byte	0x52
 4938 1356 02       		.uleb128 0x2
 4939 1357 76       		.byte	0x76
 4940 1358 00       		.sleb128 0
ARM GAS  C:\Users\EDULU~1.DES\AppData\Local\Temp\cc9dcV7d.s 			page 123


 4941 1359 00       		.byte	0
 4942 135a 2B       		.uleb128 0x2b
 4943 135b 58000000 		.4byte	.LVL309
 4944 135f 65100000 		.4byte	0x1065
 4945 1363 2A       		.uleb128 0x2a
 4946 1364 01       		.uleb128 0x1
 4947 1365 50       		.byte	0x50
 4948 1366 03       		.uleb128 0x3
 4949 1367 91       		.byte	0x91
 4950 1368 A07F     		.sleb128 -96
 4951 136a 2A       		.uleb128 0x2a
 4952 136b 01       		.uleb128 0x1
 4953 136c 51       		.byte	0x51
 4954 136d 02       		.uleb128 0x2
 4955 136e 08       		.byte	0x8
 4956 136f 40       		.byte	0x40
 4957 1370 00       		.byte	0
 4958 1371 00       		.byte	0
 4959 1372 2B       		.uleb128 0x2b
 4960 1373 14000000 		.4byte	.LVL296
 4961 1377 C9190000 		.4byte	0x19c9
 4962 137b 2A       		.uleb128 0x2a
 4963 137c 01       		.uleb128 0x1
 4964 137d 50       		.byte	0x50
 4965 137e 02       		.uleb128 0x2
 4966 137f 7D       		.byte	0x7d
 4967 1380 00       		.sleb128 0
 4968 1381 2A       		.uleb128 0x2a
 4969 1382 01       		.uleb128 0x1
 4970 1383 51       		.byte	0x51
 4971 1384 01       		.uleb128 0x1
 4972 1385 30       		.byte	0x30
 4973 1386 2A       		.uleb128 0x2a
 4974 1387 01       		.uleb128 0x1
 4975 1388 52       		.byte	0x52
 4976 1389 02       		.uleb128 0x2
 4977 138a 08       		.byte	0x8
 4978 138b 80       		.byte	0x80
 4979 138c 00       		.byte	0
 4980 138d 00       		.byte	0
 4981 138e 31       		.uleb128 0x31
 4982 138f 3D060000 		.4byte	.LASF191
 4983 1393 01       		.byte	0x1
 4984 1394 9B01     		.2byte	0x19b
 4985 1396 1A       		.byte	0x1a
 4986 1397 E80A0000 		.4byte	0xae8
 4987 139b 00000000 		.4byte	.LFB2
 4988 139f 94010000 		.4byte	.LFE2-.LFB2
 4989 13a3 01       		.uleb128 0x1
 4990 13a4 9C       		.byte	0x9c
 4991 13a5 75160000 		.4byte	0x1675
 4992 13a9 25       		.uleb128 0x25
 4993 13aa CE000000 		.4byte	.LASF162
 4994 13ae 01       		.byte	0x1
 4995 13af 9B01     		.2byte	0x19b
 4996 13b1 34       		.byte	0x34
 4997 13b2 8A000000 		.4byte	0x8a
ARM GAS  C:\Users\EDULU~1.DES\AppData\Local\Temp\cc9dcV7d.s 			page 124


 4998 13b6 EC090000 		.4byte	.LLST70
 4999 13ba DC090000 		.4byte	.LVUS70
 5000 13be 25       		.uleb128 0x25
 5001 13bf 9A040000 		.4byte	.LASF192
 5002 13c3 01       		.byte	0x1
 5003 13c4 9C01     		.2byte	0x19c
 5004 13c6 34       		.byte	0x34
 5005 13c7 76010000 		.4byte	0x176
 5006 13cb 580A0000 		.4byte	.LLST71
 5007 13cf 4C0A0000 		.4byte	.LVUS71
 5008 13d3 25       		.uleb128 0x25
 5009 13d4 16040000 		.4byte	.LASF193
 5010 13d8 01       		.byte	0x1
 5011 13d9 9D01     		.2byte	0x19d
 5012 13db 34       		.byte	0x34
 5013 13dc 8A000000 		.4byte	0x8a
 5014 13e0 B40A0000 		.4byte	.LLST72
 5015 13e4 AA0A0000 		.4byte	.LVUS72
 5016 13e8 25       		.uleb128 0x25
 5017 13e9 2C090000 		.4byte	.LASF157
 5018 13ed 01       		.byte	0x1
 5019 13ee 9E01     		.2byte	0x19e
 5020 13f0 47       		.byte	0x47
 5021 13f1 440C0000 		.4byte	0xc44
 5022 13f5 FB0A0000 		.4byte	.LLST73
 5023 13f9 F30A0000 		.4byte	.LVUS73
 5024 13fd 26       		.uleb128 0x26
 5025 13fe 72657400 		.ascii	"ret\000"
 5026 1402 01       		.byte	0x1
 5027 1403 A001     		.2byte	0x1a0
 5028 1405 1E       		.byte	0x1e
 5029 1406 E80A0000 		.4byte	0xae8
 5030 140a 400B0000 		.4byte	.LLST74
 5031 140e 320B0000 		.4byte	.LVUS74
 5032 1412 26       		.uleb128 0x26
 5033 1413 6900     		.ascii	"i\000"
 5034 1415 01       		.byte	0x1
 5035 1416 A101     		.2byte	0x1a1
 5036 1418 0C       		.byte	0xc
 5037 1419 8A000000 		.4byte	0x8a
 5038 141d 9E0B0000 		.4byte	.LLST75
 5039 1421 980B0000 		.4byte	.LVUS75
 5040 1425 28       		.uleb128 0x28
 5041 1426 D5060000 		.4byte	.LASF194
 5042 142a 01       		.byte	0x1
 5043 142b A201     		.2byte	0x1a2
 5044 142d 0C       		.byte	0xc
 5045 142e 8A000000 		.4byte	0x8a
 5046 1432 CB0B0000 		.4byte	.LLST76
 5047 1436 C70B0000 		.4byte	.LVUS76
 5048 143a 28       		.uleb128 0x28
 5049 143b 59040000 		.4byte	.LASF195
 5050 143f 01       		.byte	0x1
 5051 1440 A301     		.2byte	0x1a3
 5052 1442 0C       		.byte	0xc
 5053 1443 8A000000 		.4byte	0x8a
 5054 1447 F00B0000 		.4byte	.LLST77
ARM GAS  C:\Users\EDULU~1.DES\AppData\Local\Temp\cc9dcV7d.s 			page 125


 5055 144b EA0B0000 		.4byte	.LVUS77
 5056 144f 27       		.uleb128 0x27
 5057 1450 1D080000 		.4byte	.LASF151
 5058 1454 01       		.byte	0x1
 5059 1455 A401     		.2byte	0x1a4
 5060 1457 0C       		.byte	0xc
 5061 1458 4A0C0000 		.4byte	0xc4a
 5062 145c 03       		.uleb128 0x3
 5063 145d 91       		.byte	0x91
 5064 145e D87E     		.sleb128 -168
 5065 1460 27       		.uleb128 0x27
 5066 1461 BD080000 		.4byte	.LASF158
 5067 1465 01       		.byte	0x1
 5068 1466 A501     		.2byte	0x1a5
 5069 1468 0C       		.byte	0xc
 5070 1469 8A000000 		.4byte	0x8a
 5071 146d 03       		.uleb128 0x3
 5072 146e 91       		.byte	0x91
 5073 146f D47E     		.sleb128 -172
 5074 1471 27       		.uleb128 0x27
 5075 1472 FC060000 		.4byte	.LASF161
 5076 1476 01       		.byte	0x1
 5077 1477 A601     		.2byte	0x1a6
 5078 1479 0C       		.byte	0xc
 5079 147a 8A000000 		.4byte	0x8a
 5080 147e 03       		.uleb128 0x3
 5081 147f 91       		.byte	0x91
 5082 1480 D07E     		.sleb128 -176
 5083 1482 28       		.uleb128 0x28
 5084 1483 56030000 		.4byte	.LASF153
 5085 1487 01       		.byte	0x1
 5086 1488 A701     		.2byte	0x1a7
 5087 148a 0C       		.byte	0xc
 5088 148b 8A000000 		.4byte	0x8a
 5089 148f 290C0000 		.4byte	.LLST78
 5090 1493 190C0000 		.4byte	.LVUS78
 5091 1497 27       		.uleb128 0x27
 5092 1498 A60A0000 		.4byte	.LASF172
 5093 149c 01       		.byte	0x1
 5094 149d A801     		.2byte	0x1a8
 5095 149f 0C       		.byte	0xc
 5096 14a0 8A000000 		.4byte	0x8a
 5097 14a4 03       		.uleb128 0x3
 5098 14a5 91       		.byte	0x91
 5099 14a6 CC7E     		.sleb128 -180
 5100 14a8 27       		.uleb128 0x27
 5101 14a9 79040000 		.4byte	.LASF189
 5102 14ad 01       		.byte	0x1
 5103 14ae A901     		.2byte	0x1a9
 5104 14b0 0C       		.byte	0xc
 5105 14b1 8A000000 		.4byte	0x8a
 5106 14b5 03       		.uleb128 0x3
 5107 14b6 91       		.byte	0x91
 5108 14b7 C87E     		.sleb128 -184
 5109 14b9 28       		.uleb128 0x28
 5110 14ba 21000000 		.4byte	.LASF196
 5111 14be 01       		.byte	0x1
ARM GAS  C:\Users\EDULU~1.DES\AppData\Local\Temp\cc9dcV7d.s 			page 126


 5112 14bf AA01     		.2byte	0x1aa
 5113 14c1 0C       		.byte	0xc
 5114 14c2 76010000 		.4byte	0x176
 5115 14c6 8F0C0000 		.4byte	.LLST79
 5116 14ca 8B0C0000 		.4byte	.LVUS79
 5117 14ce 28       		.uleb128 0x28
 5118 14cf CB0A0000 		.4byte	.LASF197
 5119 14d3 01       		.byte	0x1
 5120 14d4 AB01     		.2byte	0x1ab
 5121 14d6 0C       		.byte	0xc
 5122 14d7 8A000000 		.4byte	0x8a
 5123 14db B70C0000 		.4byte	.LLST80
 5124 14df AD0C0000 		.4byte	.LVUS80
 5125 14e3 32       		.uleb128 0x32
 5126 14e4 68000000 		.4byte	.Ldebug_ranges0+0x68
 5127 14e8 28       		.uleb128 0x28
 5128 14e9 A4000000 		.4byte	.LASF190
 5129 14ed 01       		.byte	0x1
 5130 14ee B001     		.2byte	0x1b0
 5131 14f0 10       		.byte	0x10
 5132 14f1 8A000000 		.4byte	0x8a
 5133 14f5 FE0C0000 		.4byte	.LLST81
 5134 14f9 FA0C0000 		.4byte	.LVUS81
 5135 14fd 27       		.uleb128 0x27
 5136 14fe F6020000 		.4byte	.LASF198
 5137 1502 01       		.byte	0x1
 5138 1503 B101     		.2byte	0x1b1
 5139 1505 10       		.byte	0x10
 5140 1506 8A000000 		.4byte	0x8a
 5141 150a 03       		.uleb128 0x3
 5142 150b 91       		.byte	0x91
 5143 150c C47E     		.sleb128 -188
 5144 150e 32       		.uleb128 0x32
 5145 150f 80000000 		.4byte	.Ldebug_ranges0+0x80
 5146 1513 28       		.uleb128 0x28
 5147 1514 4A0A0000 		.4byte	.LASF199
 5148 1518 01       		.byte	0x1
 5149 1519 B501     		.2byte	0x1b5
 5150 151b 14       		.byte	0x14
 5151 151c 8A000000 		.4byte	0x8a
 5152 1520 2E0D0000 		.4byte	.LLST82
 5153 1524 1E0D0000 		.4byte	.LVUS82
 5154 1528 28       		.uleb128 0x28
 5155 1529 50060000 		.4byte	.LASF154
 5156 152d 01       		.byte	0x1
 5157 152e B701     		.2byte	0x1b7
 5158 1530 14       		.byte	0x14
 5159 1531 8A000000 		.4byte	0x8a
 5160 1535 9F0D0000 		.4byte	.LLST83
 5161 1539 910D0000 		.4byte	.LVUS83
 5162 153d 33       		.uleb128 0x33
 5163 153e B0000000 		.4byte	.LBB13
 5164 1542 1A000000 		.4byte	.LBE13-.LBB13
 5165 1546 70150000 		.4byte	0x1570
 5166 154a 28       		.uleb128 0x28
 5167 154b 8C030000 		.4byte	.LASF200
 5168 154f 01       		.byte	0x1
ARM GAS  C:\Users\EDULU~1.DES\AppData\Local\Temp\cc9dcV7d.s 			page 127


 5169 1550 1702     		.2byte	0x217
 5170 1552 1C       		.byte	0x1c
 5171 1553 8A000000 		.4byte	0x8a
 5172 1557 F60D0000 		.4byte	.LLST84
 5173 155b F40D0000 		.4byte	.LVUS84
 5174 155f 2B       		.uleb128 0x2b
 5175 1560 C8000000 		.4byte	.LVL259
 5176 1564 B2190000 		.4byte	0x19b2
 5177 1568 2A       		.uleb128 0x2a
 5178 1569 01       		.uleb128 0x1
 5179 156a 51       		.byte	0x51
 5180 156b 02       		.uleb128 0x2
 5181 156c 76       		.byte	0x76
 5182 156d 0C       		.sleb128 12
 5183 156e 00       		.byte	0
 5184 156f 00       		.byte	0
 5185 1570 29       		.uleb128 0x29
 5186 1571 62000000 		.4byte	.LVL242
 5187 1575 B2190000 		.4byte	0x19b2
 5188 1579 8B150000 		.4byte	0x158b
 5189 157d 2A       		.uleb128 0x2a
 5190 157e 01       		.uleb128 0x1
 5191 157f 50       		.byte	0x50
 5192 1580 03       		.uleb128 0x3
 5193 1581 91       		.byte	0x91
 5194 1582 987F     		.sleb128 -104
 5195 1584 2A       		.uleb128 0x2a
 5196 1585 01       		.uleb128 0x1
 5197 1586 52       		.byte	0x52
 5198 1587 02       		.uleb128 0x2
 5199 1588 08       		.byte	0x8
 5200 1589 40       		.byte	0x40
 5201 158a 00       		.byte	0
 5202 158b 29       		.uleb128 0x29
 5203 158c 94000000 		.4byte	.LVL249
 5204 1590 4E110000 		.4byte	0x114e
 5205 1594 A5150000 		.4byte	0x15a5
 5206 1598 2A       		.uleb128 0x2a
 5207 1599 01       		.uleb128 0x1
 5208 159a 50       		.byte	0x50
 5209 159b 02       		.uleb128 0x2
 5210 159c 74       		.byte	0x74
 5211 159d 00       		.sleb128 0
 5212 159e 2A       		.uleb128 0x2a
 5213 159f 01       		.uleb128 0x1
 5214 15a0 51       		.byte	0x51
 5215 15a1 02       		.uleb128 0x2
 5216 15a2 75       		.byte	0x75
 5217 15a3 00       		.sleb128 0
 5218 15a4 00       		.byte	0
 5219 15a5 29       		.uleb128 0x29
 5220 15a6 AC000000 		.4byte	.LVL253
 5221 15aa 5A0C0000 		.4byte	0xc5a
 5222 15ae C8150000 		.4byte	0x15c8
 5223 15b2 2A       		.uleb128 0x2a
 5224 15b3 01       		.uleb128 0x1
 5225 15b4 50       		.byte	0x50
ARM GAS  C:\Users\EDULU~1.DES\AppData\Local\Temp\cc9dcV7d.s 			page 128


 5226 15b5 03       		.uleb128 0x3
 5227 15b6 91       		.byte	0x91
 5228 15b7 D47E     		.sleb128 -172
 5229 15b9 2A       		.uleb128 0x2a
 5230 15ba 01       		.uleb128 0x1
 5231 15bb 51       		.byte	0x51
 5232 15bc 03       		.uleb128 0x3
 5233 15bd 91       		.byte	0x91
 5234 15be D07E     		.sleb128 -176
 5235 15c0 2A       		.uleb128 0x2a
 5236 15c1 01       		.uleb128 0x1
 5237 15c2 52       		.byte	0x52
 5238 15c3 03       		.uleb128 0x3
 5239 15c4 91       		.byte	0x91
 5240 15c5 C47E     		.sleb128 -188
 5241 15c7 00       		.byte	0
 5242 15c8 29       		.uleb128 0x29
 5243 15c9 D2000000 		.4byte	.LVL261
 5244 15cd 65100000 		.4byte	0x1065
 5245 15d1 E3150000 		.4byte	0x15e3
 5246 15d5 2A       		.uleb128 0x2a
 5247 15d6 01       		.uleb128 0x1
 5248 15d7 50       		.byte	0x50
 5249 15d8 03       		.uleb128 0x3
 5250 15d9 91       		.byte	0x91
 5251 15da 987F     		.sleb128 -104
 5252 15dc 2A       		.uleb128 0x2a
 5253 15dd 01       		.uleb128 0x1
 5254 15de 51       		.byte	0x51
 5255 15df 02       		.uleb128 0x2
 5256 15e0 08       		.byte	0x8
 5257 15e1 40       		.byte	0x40
 5258 15e2 00       		.byte	0
 5259 15e3 29       		.uleb128 0x29
 5260 15e4 E4000000 		.4byte	.LVL264
 5261 15e8 3C0F0000 		.4byte	0xf3c
 5262 15ec FE150000 		.4byte	0x15fe
 5263 15f0 2A       		.uleb128 0x2a
 5264 15f1 01       		.uleb128 0x1
 5265 15f2 51       		.byte	0x51
 5266 15f3 03       		.uleb128 0x3
 5267 15f4 91       		.byte	0x91
 5268 15f5 D87E     		.sleb128 -168
 5269 15f7 2A       		.uleb128 0x2a
 5270 15f8 01       		.uleb128 0x1
 5271 15f9 52       		.byte	0x52
 5272 15fa 02       		.uleb128 0x2
 5273 15fb 75       		.byte	0x75
 5274 15fc 00       		.sleb128 0
 5275 15fd 00       		.byte	0
 5276 15fe 29       		.uleb128 0x29
 5277 15ff 14010000 		.4byte	.LVL271
 5278 1603 E8100000 		.4byte	0x10e8
 5279 1607 26160000 		.4byte	0x1626
 5280 160b 2A       		.uleb128 0x2a
 5281 160c 01       		.uleb128 0x1
 5282 160d 50       		.byte	0x50
ARM GAS  C:\Users\EDULU~1.DES\AppData\Local\Temp\cc9dcV7d.s 			page 129


 5283 160e 02       		.uleb128 0x2
 5284 160f 77       		.byte	0x77
 5285 1610 00       		.sleb128 0
 5286 1611 2A       		.uleb128 0x2a
 5287 1612 01       		.uleb128 0x1
 5288 1613 51       		.byte	0x51
 5289 1614 03       		.uleb128 0x3
 5290 1615 91       		.byte	0x91
 5291 1616 CC7E     		.sleb128 -180
 5292 1618 2A       		.uleb128 0x2a
 5293 1619 01       		.uleb128 0x1
 5294 161a 52       		.byte	0x52
 5295 161b 03       		.uleb128 0x3
 5296 161c 91       		.byte	0x91
 5297 161d C87E     		.sleb128 -184
 5298 161f 2A       		.uleb128 0x2a
 5299 1620 01       		.uleb128 0x1
 5300 1621 53       		.byte	0x53
 5301 1622 02       		.uleb128 0x2
 5302 1623 75       		.byte	0x75
 5303 1624 00       		.sleb128 0
 5304 1625 00       		.byte	0
 5305 1626 29       		.uleb128 0x29
 5306 1627 1E010000 		.4byte	.LVL272
 5307 162b C9190000 		.4byte	0x19c9
 5308 162f 46160000 		.4byte	0x1646
 5309 1633 2A       		.uleb128 0x2a
 5310 1634 01       		.uleb128 0x1
 5311 1635 50       		.byte	0x50
 5312 1636 03       		.uleb128 0x3
 5313 1637 91       		.byte	0x91
 5314 1638 E07E     		.sleb128 -160
 5315 163a 2A       		.uleb128 0x2a
 5316 163b 01       		.uleb128 0x1
 5317 163c 51       		.byte	0x51
 5318 163d 01       		.uleb128 0x1
 5319 163e 30       		.byte	0x30
 5320 163f 2A       		.uleb128 0x2a
 5321 1640 01       		.uleb128 0x1
 5322 1641 52       		.byte	0x52
 5323 1642 02       		.uleb128 0x2
 5324 1643 08       		.byte	0x8
 5325 1644 78       		.byte	0x78
 5326 1645 00       		.byte	0
 5327 1646 29       		.uleb128 0x29
 5328 1647 4C010000 		.4byte	.LVL278
 5329 164b B2190000 		.4byte	0x19b2
 5330 164f 5B160000 		.4byte	0x165b
 5331 1653 2A       		.uleb128 0x2a
 5332 1654 01       		.uleb128 0x1
 5333 1655 50       		.byte	0x50
 5334 1656 03       		.uleb128 0x3
 5335 1657 91       		.byte	0x91
 5336 1658 E47E     		.sleb128 -156
 5337 165a 00       		.byte	0
 5338 165b 2B       		.uleb128 0x2b
 5339 165c 7A010000 		.4byte	.LVL283
ARM GAS  C:\Users\EDULU~1.DES\AppData\Local\Temp\cc9dcV7d.s 			page 130


 5340 1660 3C0F0000 		.4byte	0xf3c
 5341 1664 2A       		.uleb128 0x2a
 5342 1665 01       		.uleb128 0x1
 5343 1666 51       		.byte	0x51
 5344 1667 03       		.uleb128 0x3
 5345 1668 91       		.byte	0x91
 5346 1669 D87E     		.sleb128 -168
 5347 166b 2A       		.uleb128 0x2a
 5348 166c 01       		.uleb128 0x1
 5349 166d 52       		.byte	0x52
 5350 166e 02       		.uleb128 0x2
 5351 166f 75       		.byte	0x75
 5352 1670 00       		.sleb128 0
 5353 1671 00       		.byte	0
 5354 1672 00       		.byte	0
 5355 1673 00       		.byte	0
 5356 1674 00       		.byte	0
 5357 1675 34       		.uleb128 0x34
 5358 1676 C7080000 		.4byte	.LASF201
 5359 167a 01       		.byte	0x1
 5360 167b A9       		.byte	0xa9
 5361 167c 1A       		.byte	0x1a
 5362 167d E80A0000 		.4byte	0xae8
 5363 1681 00000000 		.4byte	.LFB1
 5364 1685 1E020000 		.4byte	.LFE1-.LFB1
 5365 1689 01       		.uleb128 0x1
 5366 168a 9C       		.byte	0x9c
 5367 168b 03190000 		.4byte	0x1903
 5368 168f 35       		.uleb128 0x35
 5369 1690 CE000000 		.4byte	.LASF162
 5370 1694 01       		.byte	0x1
 5371 1695 A9       		.byte	0xa9
 5372 1696 33       		.byte	0x33
 5373 1697 8A000000 		.4byte	0x8a
 5374 169b 210E0000 		.4byte	.LLST46
 5375 169f 090E0000 		.4byte	.LVUS46
 5376 16a3 35       		.uleb128 0x35
 5377 16a4 9A040000 		.4byte	.LASF192
 5378 16a8 01       		.byte	0x1
 5379 16a9 AA       		.byte	0xaa
 5380 16aa 30       		.byte	0x30
 5381 16ab 76010000 		.4byte	0x176
 5382 16af BD0E0000 		.4byte	.LLST47
 5383 16b3 B10E0000 		.4byte	.LVUS47
 5384 16b7 35       		.uleb128 0x35
 5385 16b8 16040000 		.4byte	.LASF193
 5386 16bc 01       		.byte	0x1
 5387 16bd AB       		.byte	0xab
 5388 16be 30       		.byte	0x30
 5389 16bf 8A000000 		.4byte	0x8a
 5390 16c3 150F0000 		.4byte	.LLST48
 5391 16c7 090F0000 		.4byte	.LVUS48
 5392 16cb 35       		.uleb128 0x35
 5393 16cc 2C090000 		.4byte	.LASF157
 5394 16d0 01       		.byte	0x1
 5395 16d1 AC       		.byte	0xac
 5396 16d2 43       		.byte	0x43
ARM GAS  C:\Users\EDULU~1.DES\AppData\Local\Temp\cc9dcV7d.s 			page 131


 5397 16d3 440C0000 		.4byte	0xc44
 5398 16d7 750F0000 		.4byte	.LLST49
 5399 16db 650F0000 		.4byte	.LVUS49
 5400 16df 36       		.uleb128 0x36
 5401 16e0 72657400 		.ascii	"ret\000"
 5402 16e4 01       		.byte	0x1
 5403 16e5 AE       		.byte	0xae
 5404 16e6 1E       		.byte	0x1e
 5405 16e7 E80A0000 		.4byte	0xae8
 5406 16eb EA0F0000 		.4byte	.LLST50
 5407 16ef D80F0000 		.4byte	.LVUS50
 5408 16f3 36       		.uleb128 0x36
 5409 16f4 6900     		.ascii	"i\000"
 5410 16f6 01       		.byte	0x1
 5411 16f7 AF       		.byte	0xaf
 5412 16f8 0C       		.byte	0xc
 5413 16f9 8A000000 		.4byte	0x8a
 5414 16fd 69100000 		.4byte	.LLST51
 5415 1701 59100000 		.4byte	.LVUS51
 5416 1705 37       		.uleb128 0x37
 5417 1706 AE080000 		.4byte	.LASF202
 5418 170a 01       		.byte	0x1
 5419 170b B0       		.byte	0xb0
 5420 170c 0C       		.byte	0xc
 5421 170d 8A000000 		.4byte	0x8a
 5422 1711 D9100000 		.4byte	.LLST52
 5423 1715 CF100000 		.4byte	.LVUS52
 5424 1719 37       		.uleb128 0x37
 5425 171a 94050000 		.4byte	.LASF203
 5426 171e 01       		.byte	0x1
 5427 171f B1       		.byte	0xb1
 5428 1720 0C       		.byte	0xc
 5429 1721 8A000000 		.4byte	0x8a
 5430 1725 1C110000 		.4byte	.LLST53
 5431 1729 18110000 		.4byte	.LVUS53
 5432 172d 37       		.uleb128 0x37
 5433 172e 5C090000 		.4byte	.LASF204
 5434 1732 01       		.byte	0x1
 5435 1733 B2       		.byte	0xb2
 5436 1734 0C       		.byte	0xc
 5437 1735 8A000000 		.4byte	0x8a
 5438 1739 44110000 		.4byte	.LLST54
 5439 173d 3C110000 		.4byte	.LVUS54
 5440 1741 37       		.uleb128 0x37
 5441 1742 69050000 		.4byte	.LASF205
 5442 1746 01       		.byte	0x1
 5443 1747 B3       		.byte	0xb3
 5444 1748 0C       		.byte	0xc
 5445 1749 8A000000 		.4byte	0x8a
 5446 174d 96110000 		.4byte	.LLST55
 5447 1751 86110000 		.4byte	.LVUS55
 5448 1755 37       		.uleb128 0x37
 5449 1756 E6020000 		.4byte	.LASF206
 5450 175a 01       		.byte	0x1
 5451 175b B4       		.byte	0xb4
 5452 175c 0C       		.byte	0xc
 5453 175d 8A000000 		.4byte	0x8a
ARM GAS  C:\Users\EDULU~1.DES\AppData\Local\Temp\cc9dcV7d.s 			page 132


 5454 1761 20120000 		.4byte	.LLST56
 5455 1765 1C120000 		.4byte	.LVUS56
 5456 1769 37       		.uleb128 0x37
 5457 176a 24060000 		.4byte	.LASF207
 5458 176e 01       		.byte	0x1
 5459 176f B5       		.byte	0xb5
 5460 1770 0C       		.byte	0xc
 5461 1771 8A000000 		.4byte	0x8a
 5462 1775 47120000 		.4byte	.LLST57
 5463 1779 3F120000 		.4byte	.LVUS57
 5464 177d 37       		.uleb128 0x37
 5465 177e E1080000 		.4byte	.LASF208
 5466 1782 01       		.byte	0x1
 5467 1783 B6       		.byte	0xb6
 5468 1784 0C       		.byte	0xc
 5469 1785 8A000000 		.4byte	0x8a
 5470 1789 86120000 		.4byte	.LLST58
 5471 178d 7E120000 		.4byte	.LVUS58
 5472 1791 37       		.uleb128 0x37
 5473 1792 CB0A0000 		.4byte	.LASF197
 5474 1796 01       		.byte	0x1
 5475 1797 B7       		.byte	0xb7
 5476 1798 0C       		.byte	0xc
 5477 1799 8A000000 		.4byte	0x8a
 5478 179d CD120000 		.4byte	.LLST59
 5479 17a1 BD120000 		.4byte	.LVUS59
 5480 17a5 32       		.uleb128 0x32
 5481 17a6 00000000 		.4byte	.Ldebug_ranges0+0
 5482 17aa 37       		.uleb128 0x37
 5483 17ab 11060000 		.4byte	.LASF150
 5484 17af 01       		.byte	0x1
 5485 17b0 BC       		.byte	0xbc
 5486 17b1 10       		.byte	0x10
 5487 17b2 8A000000 		.4byte	0x8a
 5488 17b6 43130000 		.4byte	.LLST60
 5489 17ba 2D130000 		.4byte	.LVUS60
 5490 17be 37       		.uleb128 0x37
 5491 17bf FD080000 		.4byte	.LASF209
 5492 17c3 01       		.byte	0x1
 5493 17c4 BD       		.byte	0xbd
 5494 17c5 10       		.byte	0x10
 5495 17c6 8A000000 		.4byte	0x8a
 5496 17ca CC130000 		.4byte	.LLST61
 5497 17ce C4130000 		.4byte	.LVUS61
 5498 17d2 37       		.uleb128 0x37
 5499 17d3 50060000 		.4byte	.LASF154
 5500 17d7 01       		.byte	0x1
 5501 17d8 BF       		.byte	0xbf
 5502 17d9 10       		.byte	0x10
 5503 17da 8A000000 		.4byte	0x8a
 5504 17de 06140000 		.4byte	.LLST62
 5505 17e2 00140000 		.4byte	.LVUS62
 5506 17e6 37       		.uleb128 0x37
 5507 17e7 14030000 		.4byte	.LASF210
 5508 17eb 01       		.byte	0x1
 5509 17ec C0       		.byte	0xc0
 5510 17ed 10       		.byte	0x10
ARM GAS  C:\Users\EDULU~1.DES\AppData\Local\Temp\cc9dcV7d.s 			page 133


 5511 17ee 8A000000 		.4byte	0x8a
 5512 17f2 39140000 		.4byte	.LLST63
 5513 17f6 31140000 		.4byte	.LVUS63
 5514 17fa 37       		.uleb128 0x37
 5515 17fb 7E050000 		.4byte	.LASF211
 5516 17ff 01       		.byte	0x1
 5517 1800 C5       		.byte	0xc5
 5518 1801 10       		.byte	0x10
 5519 1802 8A000000 		.4byte	0x8a
 5520 1806 7D140000 		.4byte	.LLST64
 5521 180a 71140000 		.4byte	.LVUS64
 5522 180e 30       		.uleb128 0x30
 5523 180f 20000000 		.4byte	.Ldebug_ranges0+0x20
 5524 1813 2C180000 		.4byte	0x182c
 5525 1817 37       		.uleb128 0x37
 5526 1818 04070000 		.4byte	.LASF212
 5527 181c 01       		.byte	0x1
 5528 181d E2       		.byte	0xe2
 5529 181e 14       		.byte	0x14
 5530 181f 8A000000 		.4byte	0x8a
 5531 1823 F1140000 		.4byte	.LLST65
 5532 1827 E5140000 		.4byte	.LVUS65
 5533 182b 00       		.byte	0
 5534 182c 30       		.uleb128 0x30
 5535 182d 38000000 		.4byte	.Ldebug_ranges0+0x38
 5536 1831 B0180000 		.4byte	0x18b0
 5537 1835 28       		.uleb128 0x28
 5538 1836 BD080000 		.4byte	.LASF158
 5539 183a 01       		.byte	0x1
 5540 183b 3B01     		.2byte	0x13b
 5541 183d 1C       		.byte	0x1c
 5542 183e 8A000000 		.4byte	0x8a
 5543 1842 58150000 		.4byte	.LLST66
 5544 1846 50150000 		.4byte	.LVUS66
 5545 184a 28       		.uleb128 0x28
 5546 184b FC060000 		.4byte	.LASF161
 5547 184f 01       		.byte	0x1
 5548 1850 3C01     		.2byte	0x13c
 5549 1852 1C       		.byte	0x1c
 5550 1853 8A000000 		.4byte	0x8a
 5551 1857 94150000 		.4byte	.LLST67
 5552 185b 8E150000 		.4byte	.LVUS67
 5553 185f 32       		.uleb128 0x32
 5554 1860 50000000 		.4byte	.Ldebug_ranges0+0x50
 5555 1864 28       		.uleb128 0x28
 5556 1865 7D030000 		.4byte	.LASF213
 5557 1869 01       		.byte	0x1
 5558 186a 4101     		.2byte	0x141
 5559 186c 20       		.byte	0x20
 5560 186d 8A000000 		.4byte	0x8a
 5561 1871 C8150000 		.4byte	.LLST68
 5562 1875 C4150000 		.4byte	.LVUS68
 5563 1879 28       		.uleb128 0x28
 5564 187a 1A010000 		.4byte	.LASF214
 5565 187e 01       		.byte	0x1
 5566 187f 4201     		.2byte	0x142
 5567 1881 20       		.byte	0x20
ARM GAS  C:\Users\EDULU~1.DES\AppData\Local\Temp\cc9dcV7d.s 			page 134


 5568 1882 8A000000 		.4byte	0x8a
 5569 1886 E8150000 		.4byte	.LLST69
 5570 188a E6150000 		.4byte	.LVUS69
 5571 188e 38       		.uleb128 0x38
 5572 188f 90010000 		.4byte	.LVL207
 5573 1893 B2190000 		.4byte	0x19b2
 5574 1897 2B       		.uleb128 0x2b
 5575 1898 F6010000 		.4byte	.LVL222
 5576 189c FF0C0000 		.4byte	0xcff
 5577 18a0 2A       		.uleb128 0x2a
 5578 18a1 01       		.uleb128 0x1
 5579 18a2 52       		.byte	0x52
 5580 18a3 02       		.uleb128 0x2
 5581 18a4 7A       		.byte	0x7a
 5582 18a5 00       		.sleb128 0
 5583 18a6 2A       		.uleb128 0x2a
 5584 18a7 02       		.uleb128 0x2
 5585 18a8 7D       		.byte	0x7d
 5586 18a9 00       		.sleb128 0
 5587 18aa 02       		.uleb128 0x2
 5588 18ab 77       		.byte	0x77
 5589 18ac 00       		.sleb128 0
 5590 18ad 00       		.byte	0
 5591 18ae 00       		.byte	0
 5592 18af 00       		.byte	0
 5593 18b0 29       		.uleb128 0x29
 5594 18b1 D4000000 		.4byte	.LVL173
 5595 18b5 B2190000 		.4byte	0x19b2
 5596 18b9 CA180000 		.4byte	0x18ca
 5597 18bd 2A       		.uleb128 0x2a
 5598 18be 01       		.uleb128 0x1
 5599 18bf 50       		.byte	0x50
 5600 18c0 02       		.uleb128 0x2
 5601 18c1 79       		.byte	0x79
 5602 18c2 00       		.sleb128 0
 5603 18c3 2A       		.uleb128 0x2a
 5604 18c4 01       		.uleb128 0x1
 5605 18c5 52       		.byte	0x52
 5606 18c6 02       		.uleb128 0x2
 5607 18c7 75       		.byte	0x75
 5608 18c8 00       		.sleb128 0
 5609 18c9 00       		.byte	0
 5610 18ca 29       		.uleb128 0x29
 5611 18cb 3A010000 		.4byte	.LVL189
 5612 18cf FF0C0000 		.4byte	0xcff
 5613 18d3 EB180000 		.4byte	0x18eb
 5614 18d7 2A       		.uleb128 0x2a
 5615 18d8 01       		.uleb128 0x1
 5616 18d9 51       		.byte	0x51
 5617 18da 02       		.uleb128 0x2
 5618 18db 79       		.byte	0x79
 5619 18dc 00       		.sleb128 0
 5620 18dd 2A       		.uleb128 0x2a
 5621 18de 01       		.uleb128 0x1
 5622 18df 53       		.byte	0x53
 5623 18e0 02       		.uleb128 0x2
 5624 18e1 75       		.byte	0x75
ARM GAS  C:\Users\EDULU~1.DES\AppData\Local\Temp\cc9dcV7d.s 			page 135


 5625 18e2 00       		.sleb128 0
 5626 18e3 2A       		.uleb128 0x2a
 5627 18e4 02       		.uleb128 0x2
 5628 18e5 7D       		.byte	0x7d
 5629 18e6 00       		.sleb128 0
 5630 18e7 02       		.uleb128 0x2
 5631 18e8 7A       		.byte	0x7a
 5632 18e9 00       		.sleb128 0
 5633 18ea 00       		.byte	0
 5634 18eb 2B       		.uleb128 0x2b
 5635 18ec 9E010000 		.4byte	.LVL209
 5636 18f0 4E110000 		.4byte	0x114e
 5637 18f4 2A       		.uleb128 0x2a
 5638 18f5 01       		.uleb128 0x1
 5639 18f6 50       		.byte	0x50
 5640 18f7 02       		.uleb128 0x2
 5641 18f8 74       		.byte	0x74
 5642 18f9 00       		.sleb128 0
 5643 18fa 2A       		.uleb128 0x2a
 5644 18fb 01       		.uleb128 0x1
 5645 18fc 51       		.byte	0x51
 5646 18fd 02       		.uleb128 0x2
 5647 18fe 77       		.byte	0x77
 5648 18ff 00       		.sleb128 0
 5649 1900 00       		.byte	0
 5650 1901 00       		.byte	0
 5651 1902 00       		.byte	0
 5652 1903 39       		.uleb128 0x39
 5653 1904 CE050000 		.4byte	.LASF215
 5654 1908 01       		.byte	0x1
 5655 1909 5F       		.byte	0x5f
 5656 190a 1A       		.byte	0x1a
 5657 190b E80A0000 		.4byte	0xae8
 5658 190f 00000000 		.4byte	.LFB0
 5659 1913 96000000 		.4byte	.LFE0-.LFB0
 5660 1917 01       		.uleb128 0x1
 5661 1918 9C       		.byte	0x9c
 5662 1919 B2190000 		.4byte	0x19b2
 5663 191d 35       		.uleb128 0x35
 5664 191e A7080000 		.4byte	.LASF176
 5665 1922 01       		.byte	0x1
 5666 1923 5F       		.byte	0x5f
 5667 1924 44       		.byte	0x44
 5668 1925 5F100000 		.4byte	0x105f
 5669 1929 07160000 		.4byte	.LLST43
 5670 192d FB150000 		.4byte	.LVUS43
 5671 1931 35       		.uleb128 0x35
 5672 1932 2C090000 		.4byte	.LASF157
 5673 1936 01       		.byte	0x1
 5674 1937 5F       		.byte	0x5f
 5675 1938 66       		.byte	0x66
 5676 1939 440C0000 		.4byte	0xc44
 5677 193d 63160000 		.4byte	.LLST44
 5678 1941 57160000 		.4byte	.LVUS44
 5679 1945 36       		.uleb128 0x36
 5680 1946 72657400 		.ascii	"ret\000"
 5681 194a 01       		.byte	0x1
ARM GAS  C:\Users\EDULU~1.DES\AppData\Local\Temp\cc9dcV7d.s 			page 136


 5682 194b 61       		.byte	0x61
 5683 194c 1E       		.byte	0x1e
 5684 194d E80A0000 		.4byte	0xae8
 5685 1951 C0160000 		.4byte	.LLST45
 5686 1955 B0160000 		.4byte	.LVUS45
 5687 1959 29       		.uleb128 0x29
 5688 195a 22000000 		.4byte	.LVL123
 5689 195e EF0F0000 		.4byte	0xfef
 5690 1962 6D190000 		.4byte	0x196d
 5691 1966 2A       		.uleb128 0x2a
 5692 1967 01       		.uleb128 0x1
 5693 1968 50       		.byte	0x50
 5694 1969 02       		.uleb128 0x2
 5695 196a 74       		.byte	0x74
 5696 196b 00       		.sleb128 0
 5697 196c 00       		.byte	0
 5698 196d 29       		.uleb128 0x29
 5699 196e 60000000 		.4byte	.LVL127
 5700 1972 A3110000 		.4byte	0x11a3
 5701 1976 87190000 		.4byte	0x1987
 5702 197a 2A       		.uleb128 0x2a
 5703 197b 01       		.uleb128 0x1
 5704 197c 50       		.byte	0x50
 5705 197d 02       		.uleb128 0x2
 5706 197e 74       		.byte	0x74
 5707 197f 00       		.sleb128 0
 5708 1980 2A       		.uleb128 0x2a
 5709 1981 01       		.uleb128 0x1
 5710 1982 51       		.byte	0x51
 5711 1983 02       		.uleb128 0x2
 5712 1984 75       		.byte	0x75
 5713 1985 00       		.sleb128 0
 5714 1986 00       		.byte	0
 5715 1987 29       		.uleb128 0x29
 5716 1988 74000000 		.4byte	.LVL128
 5717 198c F50A0000 		.4byte	0xaf5
 5718 1990 9B190000 		.4byte	0x199b
 5719 1994 2A       		.uleb128 0x2a
 5720 1995 01       		.uleb128 0x1
 5721 1996 50       		.byte	0x50
 5722 1997 02       		.uleb128 0x2
 5723 1998 75       		.byte	0x75
 5724 1999 00       		.sleb128 0
 5725 199a 00       		.byte	0
 5726 199b 2B       		.uleb128 0x2b
 5727 199c 7E000000 		.4byte	.LVL131
 5728 19a0 A3110000 		.4byte	0x11a3
 5729 19a4 2A       		.uleb128 0x2a
 5730 19a5 01       		.uleb128 0x1
 5731 19a6 50       		.byte	0x50
 5732 19a7 02       		.uleb128 0x2
 5733 19a8 74       		.byte	0x74
 5734 19a9 00       		.sleb128 0
 5735 19aa 2A       		.uleb128 0x2a
 5736 19ab 01       		.uleb128 0x1
 5737 19ac 51       		.byte	0x51
 5738 19ad 02       		.uleb128 0x2
ARM GAS  C:\Users\EDULU~1.DES\AppData\Local\Temp\cc9dcV7d.s 			page 137


 5739 19ae 75       		.byte	0x75
 5740 19af 00       		.sleb128 0
 5741 19b0 00       		.byte	0
 5742 19b1 00       		.byte	0
 5743 19b2 3A       		.uleb128 0x3a
 5744 19b3 8B040000 		.4byte	.LASF216
 5745 19b7 52050000 		.4byte	.LASF218
 5746 19bb 0A       		.byte	0xa
 5747 19bc 00       		.byte	0
 5748 19bd 3B       		.uleb128 0x3b
 5749 19be F9090000 		.4byte	.LASF223
 5750 19c2 F9090000 		.4byte	.LASF223
 5751 19c6 0B       		.byte	0xb
 5752 19c7 4E       		.byte	0x4e
 5753 19c8 08       		.byte	0x8
 5754 19c9 3A       		.uleb128 0x3a
 5755 19ca C8090000 		.4byte	.LASF217
 5756 19ce DB060000 		.4byte	.LASF219
 5757 19d2 0A       		.byte	0xa
 5758 19d3 00       		.byte	0
 5759 19d4 00       		.byte	0
 5760              		.section	.debug_abbrev,"",%progbits
 5761              	.Ldebug_abbrev0:
 5762 0000 01       		.uleb128 0x1
 5763 0001 11       		.uleb128 0x11
 5764 0002 01       		.byte	0x1
 5765 0003 25       		.uleb128 0x25
 5766 0004 0E       		.uleb128 0xe
 5767 0005 13       		.uleb128 0x13
 5768 0006 0B       		.uleb128 0xb
 5769 0007 03       		.uleb128 0x3
 5770 0008 0E       		.uleb128 0xe
 5771 0009 1B       		.uleb128 0x1b
 5772 000a 0E       		.uleb128 0xe
 5773 000b 55       		.uleb128 0x55
 5774 000c 17       		.uleb128 0x17
 5775 000d 11       		.uleb128 0x11
 5776 000e 01       		.uleb128 0x1
 5777 000f 10       		.uleb128 0x10
 5778 0010 17       		.uleb128 0x17
 5779 0011 00       		.byte	0
 5780 0012 00       		.byte	0
 5781 0013 02       		.uleb128 0x2
 5782 0014 24       		.uleb128 0x24
 5783 0015 00       		.byte	0
 5784 0016 0B       		.uleb128 0xb
 5785 0017 0B       		.uleb128 0xb
 5786 0018 3E       		.uleb128 0x3e
 5787 0019 0B       		.uleb128 0xb
 5788 001a 03       		.uleb128 0x3
 5789 001b 0E       		.uleb128 0xe
 5790 001c 00       		.byte	0
 5791 001d 00       		.byte	0
 5792 001e 03       		.uleb128 0x3
 5793 001f 24       		.uleb128 0x24
 5794 0020 00       		.byte	0
 5795 0021 0B       		.uleb128 0xb
ARM GAS  C:\Users\EDULU~1.DES\AppData\Local\Temp\cc9dcV7d.s 			page 138


 5796 0022 0B       		.uleb128 0xb
 5797 0023 3E       		.uleb128 0x3e
 5798 0024 0B       		.uleb128 0xb
 5799 0025 03       		.uleb128 0x3
 5800 0026 08       		.uleb128 0x8
 5801 0027 00       		.byte	0
 5802 0028 00       		.byte	0
 5803 0029 04       		.uleb128 0x4
 5804 002a 16       		.uleb128 0x16
 5805 002b 00       		.byte	0
 5806 002c 03       		.uleb128 0x3
 5807 002d 0E       		.uleb128 0xe
 5808 002e 3A       		.uleb128 0x3a
 5809 002f 0B       		.uleb128 0xb
 5810 0030 3B       		.uleb128 0x3b
 5811 0031 05       		.uleb128 0x5
 5812 0032 39       		.uleb128 0x39
 5813 0033 0B       		.uleb128 0xb
 5814 0034 49       		.uleb128 0x49
 5815 0035 13       		.uleb128 0x13
 5816 0036 00       		.byte	0
 5817 0037 00       		.byte	0
 5818 0038 05       		.uleb128 0x5
 5819 0039 26       		.uleb128 0x26
 5820 003a 00       		.byte	0
 5821 003b 49       		.uleb128 0x49
 5822 003c 13       		.uleb128 0x13
 5823 003d 00       		.byte	0
 5824 003e 00       		.byte	0
 5825 003f 06       		.uleb128 0x6
 5826 0040 0F       		.uleb128 0xf
 5827 0041 00       		.byte	0
 5828 0042 0B       		.uleb128 0xb
 5829 0043 0B       		.uleb128 0xb
 5830 0044 49       		.uleb128 0x49
 5831 0045 13       		.uleb128 0x13
 5832 0046 00       		.byte	0
 5833 0047 00       		.byte	0
 5834 0048 07       		.uleb128 0x7
 5835 0049 15       		.uleb128 0x15
 5836 004a 00       		.byte	0
 5837 004b 27       		.uleb128 0x27
 5838 004c 19       		.uleb128 0x19
 5839 004d 00       		.byte	0
 5840 004e 00       		.byte	0
 5841 004f 08       		.uleb128 0x8
 5842 0050 16       		.uleb128 0x16
 5843 0051 00       		.byte	0
 5844 0052 03       		.uleb128 0x3
 5845 0053 0E       		.uleb128 0xe
 5846 0054 3A       		.uleb128 0x3a
 5847 0055 0B       		.uleb128 0xb
 5848 0056 3B       		.uleb128 0x3b
 5849 0057 0B       		.uleb128 0xb
 5850 0058 39       		.uleb128 0x39
 5851 0059 0B       		.uleb128 0xb
 5852 005a 49       		.uleb128 0x49
ARM GAS  C:\Users\EDULU~1.DES\AppData\Local\Temp\cc9dcV7d.s 			page 139


 5853 005b 13       		.uleb128 0x13
 5854 005c 00       		.byte	0
 5855 005d 00       		.byte	0
 5856 005e 09       		.uleb128 0x9
 5857 005f 13       		.uleb128 0x13
 5858 0060 00       		.byte	0
 5859 0061 03       		.uleb128 0x3
 5860 0062 0E       		.uleb128 0xe
 5861 0063 3C       		.uleb128 0x3c
 5862 0064 19       		.uleb128 0x19
 5863 0065 00       		.byte	0
 5864 0066 00       		.byte	0
 5865 0067 0A       		.uleb128 0xa
 5866 0068 17       		.uleb128 0x17
 5867 0069 01       		.byte	0x1
 5868 006a 0B       		.uleb128 0xb
 5869 006b 0B       		.uleb128 0xb
 5870 006c 3A       		.uleb128 0x3a
 5871 006d 0B       		.uleb128 0xb
 5872 006e 3B       		.uleb128 0x3b
 5873 006f 0B       		.uleb128 0xb
 5874 0070 39       		.uleb128 0x39
 5875 0071 0B       		.uleb128 0xb
 5876 0072 01       		.uleb128 0x1
 5877 0073 13       		.uleb128 0x13
 5878 0074 00       		.byte	0
 5879 0075 00       		.byte	0
 5880 0076 0B       		.uleb128 0xb
 5881 0077 0D       		.uleb128 0xd
 5882 0078 00       		.byte	0
 5883 0079 03       		.uleb128 0x3
 5884 007a 0E       		.uleb128 0xe
 5885 007b 3A       		.uleb128 0x3a
 5886 007c 0B       		.uleb128 0xb
 5887 007d 3B       		.uleb128 0x3b
 5888 007e 0B       		.uleb128 0xb
 5889 007f 39       		.uleb128 0x39
 5890 0080 0B       		.uleb128 0xb
 5891 0081 49       		.uleb128 0x49
 5892 0082 13       		.uleb128 0x13
 5893 0083 00       		.byte	0
 5894 0084 00       		.byte	0
 5895 0085 0C       		.uleb128 0xc
 5896 0086 01       		.uleb128 0x1
 5897 0087 01       		.byte	0x1
 5898 0088 49       		.uleb128 0x49
 5899 0089 13       		.uleb128 0x13
 5900 008a 01       		.uleb128 0x1
 5901 008b 13       		.uleb128 0x13
 5902 008c 00       		.byte	0
 5903 008d 00       		.byte	0
 5904 008e 0D       		.uleb128 0xd
 5905 008f 21       		.uleb128 0x21
 5906 0090 00       		.byte	0
 5907 0091 49       		.uleb128 0x49
 5908 0092 13       		.uleb128 0x13
 5909 0093 2F       		.uleb128 0x2f
ARM GAS  C:\Users\EDULU~1.DES\AppData\Local\Temp\cc9dcV7d.s 			page 140


 5910 0094 0B       		.uleb128 0xb
 5911 0095 00       		.byte	0
 5912 0096 00       		.byte	0
 5913 0097 0E       		.uleb128 0xe
 5914 0098 13       		.uleb128 0x13
 5915 0099 01       		.byte	0x1
 5916 009a 0B       		.uleb128 0xb
 5917 009b 0B       		.uleb128 0xb
 5918 009c 3A       		.uleb128 0x3a
 5919 009d 0B       		.uleb128 0xb
 5920 009e 3B       		.uleb128 0x3b
 5921 009f 0B       		.uleb128 0xb
 5922 00a0 39       		.uleb128 0x39
 5923 00a1 0B       		.uleb128 0xb
 5924 00a2 01       		.uleb128 0x1
 5925 00a3 13       		.uleb128 0x13
 5926 00a4 00       		.byte	0
 5927 00a5 00       		.byte	0
 5928 00a6 0F       		.uleb128 0xf
 5929 00a7 0D       		.uleb128 0xd
 5930 00a8 00       		.byte	0
 5931 00a9 03       		.uleb128 0x3
 5932 00aa 0E       		.uleb128 0xe
 5933 00ab 3A       		.uleb128 0x3a
 5934 00ac 0B       		.uleb128 0xb
 5935 00ad 3B       		.uleb128 0x3b
 5936 00ae 0B       		.uleb128 0xb
 5937 00af 39       		.uleb128 0x39
 5938 00b0 0B       		.uleb128 0xb
 5939 00b1 49       		.uleb128 0x49
 5940 00b2 13       		.uleb128 0x13
 5941 00b3 38       		.uleb128 0x38
 5942 00b4 0B       		.uleb128 0xb
 5943 00b5 00       		.byte	0
 5944 00b6 00       		.byte	0
 5945 00b7 10       		.uleb128 0x10
 5946 00b8 0F       		.uleb128 0xf
 5947 00b9 00       		.byte	0
 5948 00ba 0B       		.uleb128 0xb
 5949 00bb 0B       		.uleb128 0xb
 5950 00bc 00       		.byte	0
 5951 00bd 00       		.byte	0
 5952 00be 11       		.uleb128 0x11
 5953 00bf 13       		.uleb128 0x13
 5954 00c0 01       		.byte	0x1
 5955 00c1 03       		.uleb128 0x3
 5956 00c2 0E       		.uleb128 0xe
 5957 00c3 0B       		.uleb128 0xb
 5958 00c4 0B       		.uleb128 0xb
 5959 00c5 3A       		.uleb128 0x3a
 5960 00c6 0B       		.uleb128 0xb
 5961 00c7 3B       		.uleb128 0x3b
 5962 00c8 0B       		.uleb128 0xb
 5963 00c9 39       		.uleb128 0x39
 5964 00ca 0B       		.uleb128 0xb
 5965 00cb 01       		.uleb128 0x1
 5966 00cc 13       		.uleb128 0x13
ARM GAS  C:\Users\EDULU~1.DES\AppData\Local\Temp\cc9dcV7d.s 			page 141


 5967 00cd 00       		.byte	0
 5968 00ce 00       		.byte	0
 5969 00cf 12       		.uleb128 0x12
 5970 00d0 0D       		.uleb128 0xd
 5971 00d1 00       		.byte	0
 5972 00d2 03       		.uleb128 0x3
 5973 00d3 08       		.uleb128 0x8
 5974 00d4 3A       		.uleb128 0x3a
 5975 00d5 0B       		.uleb128 0xb
 5976 00d6 3B       		.uleb128 0x3b
 5977 00d7 0B       		.uleb128 0xb
 5978 00d8 39       		.uleb128 0x39
 5979 00d9 0B       		.uleb128 0xb
 5980 00da 49       		.uleb128 0x49
 5981 00db 13       		.uleb128 0x13
 5982 00dc 38       		.uleb128 0x38
 5983 00dd 0B       		.uleb128 0xb
 5984 00de 00       		.byte	0
 5985 00df 00       		.byte	0
 5986 00e0 13       		.uleb128 0x13
 5987 00e1 13       		.uleb128 0x13
 5988 00e2 01       		.byte	0x1
 5989 00e3 03       		.uleb128 0x3
 5990 00e4 0E       		.uleb128 0xe
 5991 00e5 0B       		.uleb128 0xb
 5992 00e6 05       		.uleb128 0x5
 5993 00e7 3A       		.uleb128 0x3a
 5994 00e8 0B       		.uleb128 0xb
 5995 00e9 3B       		.uleb128 0x3b
 5996 00ea 0B       		.uleb128 0xb
 5997 00eb 39       		.uleb128 0x39
 5998 00ec 0B       		.uleb128 0xb
 5999 00ed 01       		.uleb128 0x1
 6000 00ee 13       		.uleb128 0x13
 6001 00ef 00       		.byte	0
 6002 00f0 00       		.byte	0
 6003 00f1 14       		.uleb128 0x14
 6004 00f2 0D       		.uleb128 0xd
 6005 00f3 00       		.byte	0
 6006 00f4 03       		.uleb128 0x3
 6007 00f5 0E       		.uleb128 0xe
 6008 00f6 3A       		.uleb128 0x3a
 6009 00f7 0B       		.uleb128 0xb
 6010 00f8 3B       		.uleb128 0x3b
 6011 00f9 0B       		.uleb128 0xb
 6012 00fa 39       		.uleb128 0x39
 6013 00fb 0B       		.uleb128 0xb
 6014 00fc 49       		.uleb128 0x49
 6015 00fd 13       		.uleb128 0x13
 6016 00fe 38       		.uleb128 0x38
 6017 00ff 05       		.uleb128 0x5
 6018 0100 00       		.byte	0
 6019 0101 00       		.byte	0
 6020 0102 15       		.uleb128 0x15
 6021 0103 15       		.uleb128 0x15
 6022 0104 01       		.byte	0x1
 6023 0105 27       		.uleb128 0x27
ARM GAS  C:\Users\EDULU~1.DES\AppData\Local\Temp\cc9dcV7d.s 			page 142


 6024 0106 19       		.uleb128 0x19
 6025 0107 49       		.uleb128 0x49
 6026 0108 13       		.uleb128 0x13
 6027 0109 01       		.uleb128 0x1
 6028 010a 13       		.uleb128 0x13
 6029 010b 00       		.byte	0
 6030 010c 00       		.byte	0
 6031 010d 16       		.uleb128 0x16
 6032 010e 05       		.uleb128 0x5
 6033 010f 00       		.byte	0
 6034 0110 49       		.uleb128 0x49
 6035 0111 13       		.uleb128 0x13
 6036 0112 00       		.byte	0
 6037 0113 00       		.byte	0
 6038 0114 17       		.uleb128 0x17
 6039 0115 13       		.uleb128 0x13
 6040 0116 01       		.byte	0x1
 6041 0117 03       		.uleb128 0x3
 6042 0118 0E       		.uleb128 0xe
 6043 0119 0B       		.uleb128 0xb
 6044 011a 05       		.uleb128 0x5
 6045 011b 3A       		.uleb128 0x3a
 6046 011c 0B       		.uleb128 0xb
 6047 011d 3B       		.uleb128 0x3b
 6048 011e 05       		.uleb128 0x5
 6049 011f 39       		.uleb128 0x39
 6050 0120 0B       		.uleb128 0xb
 6051 0121 01       		.uleb128 0x1
 6052 0122 13       		.uleb128 0x13
 6053 0123 00       		.byte	0
 6054 0124 00       		.byte	0
 6055 0125 18       		.uleb128 0x18
 6056 0126 0D       		.uleb128 0xd
 6057 0127 00       		.byte	0
 6058 0128 03       		.uleb128 0x3
 6059 0129 0E       		.uleb128 0xe
 6060 012a 3A       		.uleb128 0x3a
 6061 012b 0B       		.uleb128 0xb
 6062 012c 3B       		.uleb128 0x3b
 6063 012d 05       		.uleb128 0x5
 6064 012e 39       		.uleb128 0x39
 6065 012f 0B       		.uleb128 0xb
 6066 0130 49       		.uleb128 0x49
 6067 0131 13       		.uleb128 0x13
 6068 0132 38       		.uleb128 0x38
 6069 0133 0B       		.uleb128 0xb
 6070 0134 00       		.byte	0
 6071 0135 00       		.byte	0
 6072 0136 19       		.uleb128 0x19
 6073 0137 0D       		.uleb128 0xd
 6074 0138 00       		.byte	0
 6075 0139 03       		.uleb128 0x3
 6076 013a 0E       		.uleb128 0xe
 6077 013b 3A       		.uleb128 0x3a
 6078 013c 0B       		.uleb128 0xb
 6079 013d 3B       		.uleb128 0x3b
 6080 013e 05       		.uleb128 0x5
ARM GAS  C:\Users\EDULU~1.DES\AppData\Local\Temp\cc9dcV7d.s 			page 143


 6081 013f 39       		.uleb128 0x39
 6082 0140 0B       		.uleb128 0xb
 6083 0141 49       		.uleb128 0x49
 6084 0142 13       		.uleb128 0x13
 6085 0143 38       		.uleb128 0x38
 6086 0144 05       		.uleb128 0x5
 6087 0145 00       		.byte	0
 6088 0146 00       		.byte	0
 6089 0147 1A       		.uleb128 0x1a
 6090 0148 13       		.uleb128 0x13
 6091 0149 01       		.byte	0x1
 6092 014a 03       		.uleb128 0x3
 6093 014b 0E       		.uleb128 0xe
 6094 014c 0B       		.uleb128 0xb
 6095 014d 0B       		.uleb128 0xb
 6096 014e 3A       		.uleb128 0x3a
 6097 014f 0B       		.uleb128 0xb
 6098 0150 3B       		.uleb128 0x3b
 6099 0151 05       		.uleb128 0x5
 6100 0152 39       		.uleb128 0x39
 6101 0153 0B       		.uleb128 0xb
 6102 0154 01       		.uleb128 0x1
 6103 0155 13       		.uleb128 0x13
 6104 0156 00       		.byte	0
 6105 0157 00       		.byte	0
 6106 0158 1B       		.uleb128 0x1b
 6107 0159 13       		.uleb128 0x13
 6108 015a 01       		.byte	0x1
 6109 015b 0B       		.uleb128 0xb
 6110 015c 0B       		.uleb128 0xb
 6111 015d 3A       		.uleb128 0x3a
 6112 015e 0B       		.uleb128 0xb
 6113 015f 3B       		.uleb128 0x3b
 6114 0160 05       		.uleb128 0x5
 6115 0161 39       		.uleb128 0x39
 6116 0162 0B       		.uleb128 0xb
 6117 0163 01       		.uleb128 0x1
 6118 0164 13       		.uleb128 0x13
 6119 0165 00       		.byte	0
 6120 0166 00       		.byte	0
 6121 0167 1C       		.uleb128 0x1c
 6122 0168 17       		.uleb128 0x17
 6123 0169 01       		.byte	0x1
 6124 016a 0B       		.uleb128 0xb
 6125 016b 0B       		.uleb128 0xb
 6126 016c 3A       		.uleb128 0x3a
 6127 016d 0B       		.uleb128 0xb
 6128 016e 3B       		.uleb128 0x3b
 6129 016f 05       		.uleb128 0x5
 6130 0170 39       		.uleb128 0x39
 6131 0171 0B       		.uleb128 0xb
 6132 0172 01       		.uleb128 0x1
 6133 0173 13       		.uleb128 0x13
 6134 0174 00       		.byte	0
 6135 0175 00       		.byte	0
 6136 0176 1D       		.uleb128 0x1d
 6137 0177 0D       		.uleb128 0xd
ARM GAS  C:\Users\EDULU~1.DES\AppData\Local\Temp\cc9dcV7d.s 			page 144


 6138 0178 00       		.byte	0
 6139 0179 03       		.uleb128 0x3
 6140 017a 0E       		.uleb128 0xe
 6141 017b 3A       		.uleb128 0x3a
 6142 017c 0B       		.uleb128 0xb
 6143 017d 3B       		.uleb128 0x3b
 6144 017e 05       		.uleb128 0x5
 6145 017f 39       		.uleb128 0x39
 6146 0180 0B       		.uleb128 0xb
 6147 0181 49       		.uleb128 0x49
 6148 0182 13       		.uleb128 0x13
 6149 0183 00       		.byte	0
 6150 0184 00       		.byte	0
 6151 0185 1E       		.uleb128 0x1e
 6152 0186 15       		.uleb128 0x15
 6153 0187 01       		.byte	0x1
 6154 0188 27       		.uleb128 0x27
 6155 0189 19       		.uleb128 0x19
 6156 018a 01       		.uleb128 0x1
 6157 018b 13       		.uleb128 0x13
 6158 018c 00       		.byte	0
 6159 018d 00       		.byte	0
 6160 018e 1F       		.uleb128 0x1f
 6161 018f 34       		.uleb128 0x34
 6162 0190 00       		.byte	0
 6163 0191 03       		.uleb128 0x3
 6164 0192 0E       		.uleb128 0xe
 6165 0193 3A       		.uleb128 0x3a
 6166 0194 0B       		.uleb128 0xb
 6167 0195 3B       		.uleb128 0x3b
 6168 0196 05       		.uleb128 0x5
 6169 0197 39       		.uleb128 0x39
 6170 0198 0B       		.uleb128 0xb
 6171 0199 49       		.uleb128 0x49
 6172 019a 13       		.uleb128 0x13
 6173 019b 3F       		.uleb128 0x3f
 6174 019c 19       		.uleb128 0x19
 6175 019d 3C       		.uleb128 0x3c
 6176 019e 19       		.uleb128 0x19
 6177 019f 00       		.byte	0
 6178 01a0 00       		.byte	0
 6179 01a1 20       		.uleb128 0x20
 6180 01a2 21       		.uleb128 0x21
 6181 01a3 00       		.byte	0
 6182 01a4 00       		.byte	0
 6183 01a5 00       		.byte	0
 6184 01a6 21       		.uleb128 0x21
 6185 01a7 34       		.uleb128 0x34
 6186 01a8 00       		.byte	0
 6187 01a9 03       		.uleb128 0x3
 6188 01aa 0E       		.uleb128 0xe
 6189 01ab 3A       		.uleb128 0x3a
 6190 01ac 0B       		.uleb128 0xb
 6191 01ad 3B       		.uleb128 0x3b
 6192 01ae 0B       		.uleb128 0xb
 6193 01af 39       		.uleb128 0x39
 6194 01b0 0B       		.uleb128 0xb
ARM GAS  C:\Users\EDULU~1.DES\AppData\Local\Temp\cc9dcV7d.s 			page 145


 6195 01b1 49       		.uleb128 0x49
 6196 01b2 13       		.uleb128 0x13
 6197 01b3 3F       		.uleb128 0x3f
 6198 01b4 19       		.uleb128 0x19
 6199 01b5 3C       		.uleb128 0x3c
 6200 01b6 19       		.uleb128 0x19
 6201 01b7 00       		.byte	0
 6202 01b8 00       		.byte	0
 6203 01b9 22       		.uleb128 0x22
 6204 01ba 04       		.uleb128 0x4
 6205 01bb 01       		.byte	0x1
 6206 01bc 3E       		.uleb128 0x3e
 6207 01bd 0B       		.uleb128 0xb
 6208 01be 0B       		.uleb128 0xb
 6209 01bf 0B       		.uleb128 0xb
 6210 01c0 49       		.uleb128 0x49
 6211 01c1 13       		.uleb128 0x13
 6212 01c2 3A       		.uleb128 0x3a
 6213 01c3 0B       		.uleb128 0xb
 6214 01c4 3B       		.uleb128 0x3b
 6215 01c5 05       		.uleb128 0x5
 6216 01c6 39       		.uleb128 0x39
 6217 01c7 0B       		.uleb128 0xb
 6218 01c8 01       		.uleb128 0x1
 6219 01c9 13       		.uleb128 0x13
 6220 01ca 00       		.byte	0
 6221 01cb 00       		.byte	0
 6222 01cc 23       		.uleb128 0x23
 6223 01cd 28       		.uleb128 0x28
 6224 01ce 00       		.byte	0
 6225 01cf 03       		.uleb128 0x3
 6226 01d0 0E       		.uleb128 0xe
 6227 01d1 1C       		.uleb128 0x1c
 6228 01d2 0B       		.uleb128 0xb
 6229 01d3 00       		.byte	0
 6230 01d4 00       		.byte	0
 6231 01d5 24       		.uleb128 0x24
 6232 01d6 2E       		.uleb128 0x2e
 6233 01d7 01       		.byte	0x1
 6234 01d8 03       		.uleb128 0x3
 6235 01d9 0E       		.uleb128 0xe
 6236 01da 3A       		.uleb128 0x3a
 6237 01db 0B       		.uleb128 0xb
 6238 01dc 3B       		.uleb128 0x3b
 6239 01dd 05       		.uleb128 0x5
 6240 01de 39       		.uleb128 0x39
 6241 01df 0B       		.uleb128 0xb
 6242 01e0 27       		.uleb128 0x27
 6243 01e1 19       		.uleb128 0x19
 6244 01e2 49       		.uleb128 0x49
 6245 01e3 13       		.uleb128 0x13
 6246 01e4 11       		.uleb128 0x11
 6247 01e5 01       		.uleb128 0x1
 6248 01e6 12       		.uleb128 0x12
 6249 01e7 06       		.uleb128 0x6
 6250 01e8 40       		.uleb128 0x40
 6251 01e9 18       		.uleb128 0x18
ARM GAS  C:\Users\EDULU~1.DES\AppData\Local\Temp\cc9dcV7d.s 			page 146


 6252 01ea 9742     		.uleb128 0x2117
 6253 01ec 19       		.uleb128 0x19
 6254 01ed 01       		.uleb128 0x1
 6255 01ee 13       		.uleb128 0x13
 6256 01ef 00       		.byte	0
 6257 01f0 00       		.byte	0
 6258 01f1 25       		.uleb128 0x25
 6259 01f2 05       		.uleb128 0x5
 6260 01f3 00       		.byte	0
 6261 01f4 03       		.uleb128 0x3
 6262 01f5 0E       		.uleb128 0xe
 6263 01f6 3A       		.uleb128 0x3a
 6264 01f7 0B       		.uleb128 0xb
 6265 01f8 3B       		.uleb128 0x3b
 6266 01f9 05       		.uleb128 0x5
 6267 01fa 39       		.uleb128 0x39
 6268 01fb 0B       		.uleb128 0xb
 6269 01fc 49       		.uleb128 0x49
 6270 01fd 13       		.uleb128 0x13
 6271 01fe 02       		.uleb128 0x2
 6272 01ff 17       		.uleb128 0x17
 6273 0200 B742     		.uleb128 0x2137
 6274 0202 17       		.uleb128 0x17
 6275 0203 00       		.byte	0
 6276 0204 00       		.byte	0
 6277 0205 26       		.uleb128 0x26
 6278 0206 34       		.uleb128 0x34
 6279 0207 00       		.byte	0
 6280 0208 03       		.uleb128 0x3
 6281 0209 08       		.uleb128 0x8
 6282 020a 3A       		.uleb128 0x3a
 6283 020b 0B       		.uleb128 0xb
 6284 020c 3B       		.uleb128 0x3b
 6285 020d 05       		.uleb128 0x5
 6286 020e 39       		.uleb128 0x39
 6287 020f 0B       		.uleb128 0xb
 6288 0210 49       		.uleb128 0x49
 6289 0211 13       		.uleb128 0x13
 6290 0212 02       		.uleb128 0x2
 6291 0213 17       		.uleb128 0x17
 6292 0214 B742     		.uleb128 0x2137
 6293 0216 17       		.uleb128 0x17
 6294 0217 00       		.byte	0
 6295 0218 00       		.byte	0
 6296 0219 27       		.uleb128 0x27
 6297 021a 34       		.uleb128 0x34
 6298 021b 00       		.byte	0
 6299 021c 03       		.uleb128 0x3
 6300 021d 0E       		.uleb128 0xe
 6301 021e 3A       		.uleb128 0x3a
 6302 021f 0B       		.uleb128 0xb
 6303 0220 3B       		.uleb128 0x3b
 6304 0221 05       		.uleb128 0x5
 6305 0222 39       		.uleb128 0x39
 6306 0223 0B       		.uleb128 0xb
 6307 0224 49       		.uleb128 0x49
 6308 0225 13       		.uleb128 0x13
ARM GAS  C:\Users\EDULU~1.DES\AppData\Local\Temp\cc9dcV7d.s 			page 147


 6309 0226 02       		.uleb128 0x2
 6310 0227 18       		.uleb128 0x18
 6311 0228 00       		.byte	0
 6312 0229 00       		.byte	0
 6313 022a 28       		.uleb128 0x28
 6314 022b 34       		.uleb128 0x34
 6315 022c 00       		.byte	0
 6316 022d 03       		.uleb128 0x3
 6317 022e 0E       		.uleb128 0xe
 6318 022f 3A       		.uleb128 0x3a
 6319 0230 0B       		.uleb128 0xb
 6320 0231 3B       		.uleb128 0x3b
 6321 0232 05       		.uleb128 0x5
 6322 0233 39       		.uleb128 0x39
 6323 0234 0B       		.uleb128 0xb
 6324 0235 49       		.uleb128 0x49
 6325 0236 13       		.uleb128 0x13
 6326 0237 02       		.uleb128 0x2
 6327 0238 17       		.uleb128 0x17
 6328 0239 B742     		.uleb128 0x2137
 6329 023b 17       		.uleb128 0x17
 6330 023c 00       		.byte	0
 6331 023d 00       		.byte	0
 6332 023e 29       		.uleb128 0x29
 6333 023f 898201   		.uleb128 0x4109
 6334 0242 01       		.byte	0x1
 6335 0243 11       		.uleb128 0x11
 6336 0244 01       		.uleb128 0x1
 6337 0245 31       		.uleb128 0x31
 6338 0246 13       		.uleb128 0x13
 6339 0247 01       		.uleb128 0x1
 6340 0248 13       		.uleb128 0x13
 6341 0249 00       		.byte	0
 6342 024a 00       		.byte	0
 6343 024b 2A       		.uleb128 0x2a
 6344 024c 8A8201   		.uleb128 0x410a
 6345 024f 00       		.byte	0
 6346 0250 02       		.uleb128 0x2
 6347 0251 18       		.uleb128 0x18
 6348 0252 9142     		.uleb128 0x2111
 6349 0254 18       		.uleb128 0x18
 6350 0255 00       		.byte	0
 6351 0256 00       		.byte	0
 6352 0257 2B       		.uleb128 0x2b
 6353 0258 898201   		.uleb128 0x4109
 6354 025b 01       		.byte	0x1
 6355 025c 11       		.uleb128 0x11
 6356 025d 01       		.uleb128 0x1
 6357 025e 31       		.uleb128 0x31
 6358 025f 13       		.uleb128 0x13
 6359 0260 00       		.byte	0
 6360 0261 00       		.byte	0
 6361 0262 2C       		.uleb128 0x2c
 6362 0263 05       		.uleb128 0x5
 6363 0264 00       		.byte	0
 6364 0265 03       		.uleb128 0x3
 6365 0266 0E       		.uleb128 0xe
ARM GAS  C:\Users\EDULU~1.DES\AppData\Local\Temp\cc9dcV7d.s 			page 148


 6366 0267 3A       		.uleb128 0x3a
 6367 0268 0B       		.uleb128 0xb
 6368 0269 3B       		.uleb128 0x3b
 6369 026a 05       		.uleb128 0x5
 6370 026b 39       		.uleb128 0x39
 6371 026c 0B       		.uleb128 0xb
 6372 026d 49       		.uleb128 0x49
 6373 026e 13       		.uleb128 0x13
 6374 026f 02       		.uleb128 0x2
 6375 0270 18       		.uleb128 0x18
 6376 0271 00       		.byte	0
 6377 0272 00       		.byte	0
 6378 0273 2D       		.uleb128 0x2d
 6379 0274 05       		.uleb128 0x5
 6380 0275 00       		.byte	0
 6381 0276 03       		.uleb128 0x3
 6382 0277 08       		.uleb128 0x8
 6383 0278 3A       		.uleb128 0x3a
 6384 0279 0B       		.uleb128 0xb
 6385 027a 3B       		.uleb128 0x3b
 6386 027b 05       		.uleb128 0x5
 6387 027c 39       		.uleb128 0x39
 6388 027d 0B       		.uleb128 0xb
 6389 027e 49       		.uleb128 0x49
 6390 027f 13       		.uleb128 0x13
 6391 0280 02       		.uleb128 0x2
 6392 0281 18       		.uleb128 0x18
 6393 0282 00       		.byte	0
 6394 0283 00       		.byte	0
 6395 0284 2E       		.uleb128 0x2e
 6396 0285 2E       		.uleb128 0x2e
 6397 0286 01       		.byte	0x1
 6398 0287 03       		.uleb128 0x3
 6399 0288 0E       		.uleb128 0xe
 6400 0289 3A       		.uleb128 0x3a
 6401 028a 0B       		.uleb128 0xb
 6402 028b 3B       		.uleb128 0x3b
 6403 028c 05       		.uleb128 0x5
 6404 028d 39       		.uleb128 0x39
 6405 028e 0B       		.uleb128 0xb
 6406 028f 27       		.uleb128 0x27
 6407 0290 19       		.uleb128 0x19
 6408 0291 11       		.uleb128 0x11
 6409 0292 01       		.uleb128 0x1
 6410 0293 12       		.uleb128 0x12
 6411 0294 06       		.uleb128 0x6
 6412 0295 40       		.uleb128 0x40
 6413 0296 18       		.uleb128 0x18
 6414 0297 9742     		.uleb128 0x2117
 6415 0299 19       		.uleb128 0x19
 6416 029a 01       		.uleb128 0x1
 6417 029b 13       		.uleb128 0x13
 6418 029c 00       		.byte	0
 6419 029d 00       		.byte	0
 6420 029e 2F       		.uleb128 0x2f
 6421 029f 2E       		.uleb128 0x2e
 6422 02a0 01       		.byte	0x1
ARM GAS  C:\Users\EDULU~1.DES\AppData\Local\Temp\cc9dcV7d.s 			page 149


 6423 02a1 3F       		.uleb128 0x3f
 6424 02a2 19       		.uleb128 0x19
 6425 02a3 03       		.uleb128 0x3
 6426 02a4 0E       		.uleb128 0xe
 6427 02a5 3A       		.uleb128 0x3a
 6428 02a6 0B       		.uleb128 0xb
 6429 02a7 3B       		.uleb128 0x3b
 6430 02a8 05       		.uleb128 0x5
 6431 02a9 39       		.uleb128 0x39
 6432 02aa 0B       		.uleb128 0xb
 6433 02ab 27       		.uleb128 0x27
 6434 02ac 19       		.uleb128 0x19
 6435 02ad 49       		.uleb128 0x49
 6436 02ae 13       		.uleb128 0x13
 6437 02af 11       		.uleb128 0x11
 6438 02b0 01       		.uleb128 0x1
 6439 02b1 12       		.uleb128 0x12
 6440 02b2 06       		.uleb128 0x6
 6441 02b3 40       		.uleb128 0x40
 6442 02b4 18       		.uleb128 0x18
 6443 02b5 9742     		.uleb128 0x2117
 6444 02b7 19       		.uleb128 0x19
 6445 02b8 01       		.uleb128 0x1
 6446 02b9 13       		.uleb128 0x13
 6447 02ba 00       		.byte	0
 6448 02bb 00       		.byte	0
 6449 02bc 30       		.uleb128 0x30
 6450 02bd 0B       		.uleb128 0xb
 6451 02be 01       		.byte	0x1
 6452 02bf 55       		.uleb128 0x55
 6453 02c0 17       		.uleb128 0x17
 6454 02c1 01       		.uleb128 0x1
 6455 02c2 13       		.uleb128 0x13
 6456 02c3 00       		.byte	0
 6457 02c4 00       		.byte	0
 6458 02c5 31       		.uleb128 0x31
 6459 02c6 2E       		.uleb128 0x2e
 6460 02c7 01       		.byte	0x1
 6461 02c8 3F       		.uleb128 0x3f
 6462 02c9 19       		.uleb128 0x19
 6463 02ca 03       		.uleb128 0x3
 6464 02cb 0E       		.uleb128 0xe
 6465 02cc 3A       		.uleb128 0x3a
 6466 02cd 0B       		.uleb128 0xb
 6467 02ce 3B       		.uleb128 0x3b
 6468 02cf 05       		.uleb128 0x5
 6469 02d0 39       		.uleb128 0x39
 6470 02d1 0B       		.uleb128 0xb
 6471 02d2 27       		.uleb128 0x27
 6472 02d3 19       		.uleb128 0x19
 6473 02d4 49       		.uleb128 0x49
 6474 02d5 13       		.uleb128 0x13
 6475 02d6 11       		.uleb128 0x11
 6476 02d7 01       		.uleb128 0x1
 6477 02d8 12       		.uleb128 0x12
 6478 02d9 06       		.uleb128 0x6
 6479 02da 40       		.uleb128 0x40
ARM GAS  C:\Users\EDULU~1.DES\AppData\Local\Temp\cc9dcV7d.s 			page 150


 6480 02db 18       		.uleb128 0x18
 6481 02dc 9642     		.uleb128 0x2116
 6482 02de 19       		.uleb128 0x19
 6483 02df 01       		.uleb128 0x1
 6484 02e0 13       		.uleb128 0x13
 6485 02e1 00       		.byte	0
 6486 02e2 00       		.byte	0
 6487 02e3 32       		.uleb128 0x32
 6488 02e4 0B       		.uleb128 0xb
 6489 02e5 01       		.byte	0x1
 6490 02e6 55       		.uleb128 0x55
 6491 02e7 17       		.uleb128 0x17
 6492 02e8 00       		.byte	0
 6493 02e9 00       		.byte	0
 6494 02ea 33       		.uleb128 0x33
 6495 02eb 0B       		.uleb128 0xb
 6496 02ec 01       		.byte	0x1
 6497 02ed 11       		.uleb128 0x11
 6498 02ee 01       		.uleb128 0x1
 6499 02ef 12       		.uleb128 0x12
 6500 02f0 06       		.uleb128 0x6
 6501 02f1 01       		.uleb128 0x1
 6502 02f2 13       		.uleb128 0x13
 6503 02f3 00       		.byte	0
 6504 02f4 00       		.byte	0
 6505 02f5 34       		.uleb128 0x34
 6506 02f6 2E       		.uleb128 0x2e
 6507 02f7 01       		.byte	0x1
 6508 02f8 3F       		.uleb128 0x3f
 6509 02f9 19       		.uleb128 0x19
 6510 02fa 03       		.uleb128 0x3
 6511 02fb 0E       		.uleb128 0xe
 6512 02fc 3A       		.uleb128 0x3a
 6513 02fd 0B       		.uleb128 0xb
 6514 02fe 3B       		.uleb128 0x3b
 6515 02ff 0B       		.uleb128 0xb
 6516 0300 39       		.uleb128 0x39
 6517 0301 0B       		.uleb128 0xb
 6518 0302 27       		.uleb128 0x27
 6519 0303 19       		.uleb128 0x19
 6520 0304 49       		.uleb128 0x49
 6521 0305 13       		.uleb128 0x13
 6522 0306 11       		.uleb128 0x11
 6523 0307 01       		.uleb128 0x1
 6524 0308 12       		.uleb128 0x12
 6525 0309 06       		.uleb128 0x6
 6526 030a 40       		.uleb128 0x40
 6527 030b 18       		.uleb128 0x18
 6528 030c 9642     		.uleb128 0x2116
 6529 030e 19       		.uleb128 0x19
 6530 030f 01       		.uleb128 0x1
 6531 0310 13       		.uleb128 0x13
 6532 0311 00       		.byte	0
 6533 0312 00       		.byte	0
 6534 0313 35       		.uleb128 0x35
 6535 0314 05       		.uleb128 0x5
 6536 0315 00       		.byte	0
ARM GAS  C:\Users\EDULU~1.DES\AppData\Local\Temp\cc9dcV7d.s 			page 151


 6537 0316 03       		.uleb128 0x3
 6538 0317 0E       		.uleb128 0xe
 6539 0318 3A       		.uleb128 0x3a
 6540 0319 0B       		.uleb128 0xb
 6541 031a 3B       		.uleb128 0x3b
 6542 031b 0B       		.uleb128 0xb
 6543 031c 39       		.uleb128 0x39
 6544 031d 0B       		.uleb128 0xb
 6545 031e 49       		.uleb128 0x49
 6546 031f 13       		.uleb128 0x13
 6547 0320 02       		.uleb128 0x2
 6548 0321 17       		.uleb128 0x17
 6549 0322 B742     		.uleb128 0x2137
 6550 0324 17       		.uleb128 0x17
 6551 0325 00       		.byte	0
 6552 0326 00       		.byte	0
 6553 0327 36       		.uleb128 0x36
 6554 0328 34       		.uleb128 0x34
 6555 0329 00       		.byte	0
 6556 032a 03       		.uleb128 0x3
 6557 032b 08       		.uleb128 0x8
 6558 032c 3A       		.uleb128 0x3a
 6559 032d 0B       		.uleb128 0xb
 6560 032e 3B       		.uleb128 0x3b
 6561 032f 0B       		.uleb128 0xb
 6562 0330 39       		.uleb128 0x39
 6563 0331 0B       		.uleb128 0xb
 6564 0332 49       		.uleb128 0x49
 6565 0333 13       		.uleb128 0x13
 6566 0334 02       		.uleb128 0x2
 6567 0335 17       		.uleb128 0x17
 6568 0336 B742     		.uleb128 0x2137
 6569 0338 17       		.uleb128 0x17
 6570 0339 00       		.byte	0
 6571 033a 00       		.byte	0
 6572 033b 37       		.uleb128 0x37
 6573 033c 34       		.uleb128 0x34
 6574 033d 00       		.byte	0
 6575 033e 03       		.uleb128 0x3
 6576 033f 0E       		.uleb128 0xe
 6577 0340 3A       		.uleb128 0x3a
 6578 0341 0B       		.uleb128 0xb
 6579 0342 3B       		.uleb128 0x3b
 6580 0343 0B       		.uleb128 0xb
 6581 0344 39       		.uleb128 0x39
 6582 0345 0B       		.uleb128 0xb
 6583 0346 49       		.uleb128 0x49
 6584 0347 13       		.uleb128 0x13
 6585 0348 02       		.uleb128 0x2
 6586 0349 17       		.uleb128 0x17
 6587 034a B742     		.uleb128 0x2137
 6588 034c 17       		.uleb128 0x17
 6589 034d 00       		.byte	0
 6590 034e 00       		.byte	0
 6591 034f 38       		.uleb128 0x38
 6592 0350 898201   		.uleb128 0x4109
 6593 0353 00       		.byte	0
ARM GAS  C:\Users\EDULU~1.DES\AppData\Local\Temp\cc9dcV7d.s 			page 152


 6594 0354 11       		.uleb128 0x11
 6595 0355 01       		.uleb128 0x1
 6596 0356 31       		.uleb128 0x31
 6597 0357 13       		.uleb128 0x13
 6598 0358 00       		.byte	0
 6599 0359 00       		.byte	0
 6600 035a 39       		.uleb128 0x39
 6601 035b 2E       		.uleb128 0x2e
 6602 035c 01       		.byte	0x1
 6603 035d 3F       		.uleb128 0x3f
 6604 035e 19       		.uleb128 0x19
 6605 035f 03       		.uleb128 0x3
 6606 0360 0E       		.uleb128 0xe
 6607 0361 3A       		.uleb128 0x3a
 6608 0362 0B       		.uleb128 0xb
 6609 0363 3B       		.uleb128 0x3b
 6610 0364 0B       		.uleb128 0xb
 6611 0365 39       		.uleb128 0x39
 6612 0366 0B       		.uleb128 0xb
 6613 0367 27       		.uleb128 0x27
 6614 0368 19       		.uleb128 0x19
 6615 0369 49       		.uleb128 0x49
 6616 036a 13       		.uleb128 0x13
 6617 036b 11       		.uleb128 0x11
 6618 036c 01       		.uleb128 0x1
 6619 036d 12       		.uleb128 0x12
 6620 036e 06       		.uleb128 0x6
 6621 036f 40       		.uleb128 0x40
 6622 0370 18       		.uleb128 0x18
 6623 0371 9742     		.uleb128 0x2117
 6624 0373 19       		.uleb128 0x19
 6625 0374 01       		.uleb128 0x1
 6626 0375 13       		.uleb128 0x13
 6627 0376 00       		.byte	0
 6628 0377 00       		.byte	0
 6629 0378 3A       		.uleb128 0x3a
 6630 0379 2E       		.uleb128 0x2e
 6631 037a 00       		.byte	0
 6632 037b 3F       		.uleb128 0x3f
 6633 037c 19       		.uleb128 0x19
 6634 037d 3C       		.uleb128 0x3c
 6635 037e 19       		.uleb128 0x19
 6636 037f 6E       		.uleb128 0x6e
 6637 0380 0E       		.uleb128 0xe
 6638 0381 03       		.uleb128 0x3
 6639 0382 0E       		.uleb128 0xe
 6640 0383 3A       		.uleb128 0x3a
 6641 0384 0B       		.uleb128 0xb
 6642 0385 3B       		.uleb128 0x3b
 6643 0386 0B       		.uleb128 0xb
 6644 0387 00       		.byte	0
 6645 0388 00       		.byte	0
 6646 0389 3B       		.uleb128 0x3b
 6647 038a 2E       		.uleb128 0x2e
 6648 038b 00       		.byte	0
 6649 038c 3F       		.uleb128 0x3f
 6650 038d 19       		.uleb128 0x19
ARM GAS  C:\Users\EDULU~1.DES\AppData\Local\Temp\cc9dcV7d.s 			page 153


 6651 038e 3C       		.uleb128 0x3c
 6652 038f 19       		.uleb128 0x19
 6653 0390 6E       		.uleb128 0x6e
 6654 0391 0E       		.uleb128 0xe
 6655 0392 03       		.uleb128 0x3
 6656 0393 0E       		.uleb128 0xe
 6657 0394 3A       		.uleb128 0x3a
 6658 0395 0B       		.uleb128 0xb
 6659 0396 3B       		.uleb128 0x3b
 6660 0397 0B       		.uleb128 0xb
 6661 0398 39       		.uleb128 0x39
 6662 0399 0B       		.uleb128 0xb
 6663 039a 00       		.byte	0
 6664 039b 00       		.byte	0
 6665 039c 00       		.byte	0
 6666              		.section	.debug_loc,"",%progbits
 6667              	.Ldebug_loc0:
 6668              	.LVUS27:
 6669 0000 00       		.uleb128 0
 6670 0001 00       		.uleb128 .LVU213
 6671 0002 00       		.uleb128 .LVU213
 6672 0003 00       		.uleb128 .LVU239
 6673 0004 00       		.uleb128 .LVU239
 6674 0005 00       		.uleb128 0
 6675              	.LLST27:
 6676 0006 00000000 		.4byte	.LVL73
 6677 000a 10000000 		.4byte	.LVL75
 6678 000e 0100     		.2byte	0x1
 6679 0010 50       		.byte	0x50
 6680 0011 10000000 		.4byte	.LVL75
 6681 0015 68000000 		.4byte	.LVL87
 6682 0019 0100     		.2byte	0x1
 6683 001b 54       		.byte	0x54
 6684 001c 68000000 		.4byte	.LVL87
 6685 0020 6A000000 		.4byte	.LFE14
 6686 0024 0400     		.2byte	0x4
 6687 0026 F3       		.byte	0xf3
 6688 0027 01       		.uleb128 0x1
 6689 0028 50       		.byte	0x50
 6690 0029 9F       		.byte	0x9f
 6691 002a 00000000 		.4byte	0
 6692 002e 00000000 		.4byte	0
 6693              	.LVUS28:
 6694 0032 02       		.uleb128 .LVU211
 6695 0033 00       		.uleb128 .LVU213
 6696 0034 00       		.uleb128 .LVU213
 6697 0035 00       		.uleb128 .LVU239
 6698              	.LLST28:
 6699 0036 0C000000 		.4byte	.LVL74
 6700 003a 10000000 		.4byte	.LVL75
 6701 003e 0200     		.2byte	0x2
 6702 0040 30       		.byte	0x30
 6703 0041 9F       		.byte	0x9f
 6704 0042 10000000 		.4byte	.LVL75
 6705 0046 68000000 		.4byte	.LVL90
 6706 004a 0100     		.2byte	0x1
 6707 004c 57       		.byte	0x57
ARM GAS  C:\Users\EDULU~1.DES\AppData\Local\Temp\cc9dcV7d.s 			page 154


 6708 004d 00000000 		.4byte	0
 6709 0051 00000000 		.4byte	0
 6710              	.LVUS29:
 6711 0055 00       		.uleb128 .LVU230
 6712 0056 00       		.uleb128 .LVU232
 6713              	.LLST29:
 6714 0057 4A000000 		.4byte	.LVL81
 6715 005b 51000000 		.4byte	.LVL82-1
 6716 005f 0100     		.2byte	0x1
 6717 0061 50       		.byte	0x50
 6718 0062 00000000 		.4byte	0
 6719 0066 00000000 		.4byte	0
 6720              	.LVUS30:
 6721 006a 00       		.uleb128 .LVU209
 6722 006b 00       		.uleb128 .LVU239
 6723              	.LLST30:
 6724 006c 0C000000 		.4byte	.LVL74
 6725 0070 68000000 		.4byte	.LVL88
 6726 0074 0100     		.2byte	0x1
 6727 0076 55       		.byte	0x55
 6728 0077 00000000 		.4byte	0
 6729 007b 00000000 		.4byte	0
 6730              	.LVUS31:
 6731 007f 01       		.uleb128 .LVU210
 6732 0080 00       		.uleb128 .LVU213
 6733 0081 00       		.uleb128 .LVU213
 6734 0082 00       		.uleb128 .LVU217
 6735 0083 00       		.uleb128 .LVU233
 6736 0084 00       		.uleb128 .LVU234
 6737 0085 00       		.uleb128 .LVU234
 6738 0086 00       		.uleb128 .LVU239
 6739              	.LLST31:
 6740 0087 0C000000 		.4byte	.LVL74
 6741 008b 10000000 		.4byte	.LVL75
 6742 008f 0200     		.2byte	0x2
 6743 0091 31       		.byte	0x31
 6744 0092 9F       		.byte	0x9f
 6745 0093 10000000 		.4byte	.LVL75
 6746 0097 1C000000 		.4byte	.LVL76
 6747 009b 0100     		.2byte	0x1
 6748 009d 56       		.byte	0x56
 6749 009e 54000000 		.4byte	.LVL83
 6750 00a2 5C000000 		.4byte	.LVL84
 6751 00a6 0100     		.2byte	0x1
 6752 00a8 50       		.byte	0x50
 6753 00a9 5C000000 		.4byte	.LVL84
 6754 00ad 68000000 		.4byte	.LVL89
 6755 00b1 0100     		.2byte	0x1
 6756 00b3 56       		.byte	0x56
 6757 00b4 00000000 		.4byte	0
 6758 00b8 00000000 		.4byte	0
 6759              	.LVUS17:
 6760 00bc 00       		.uleb128 0
 6761 00bd 00       		.uleb128 .LVU151
 6762 00be 00       		.uleb128 .LVU151
 6763 00bf 00       		.uleb128 .LVU152
 6764 00c0 00       		.uleb128 .LVU152
ARM GAS  C:\Users\EDULU~1.DES\AppData\Local\Temp\cc9dcV7d.s 			page 155


 6765 00c1 00       		.uleb128 .LVU155
 6766 00c2 00       		.uleb128 .LVU155
 6767 00c3 00       		.uleb128 .LVU156
 6768 00c4 00       		.uleb128 .LVU156
 6769 00c5 00       		.uleb128 .LVU161
 6770 00c6 00       		.uleb128 .LVU161
 6771 00c7 00       		.uleb128 .LVU162
 6772 00c8 00       		.uleb128 .LVU162
 6773 00c9 00       		.uleb128 .LVU177
 6774 00ca 00       		.uleb128 .LVU177
 6775 00cb 00       		.uleb128 .LVU178
 6776 00cc 00       		.uleb128 .LVU178
 6777 00cd 00       		.uleb128 .LVU179
 6778 00ce 00       		.uleb128 .LVU179
 6779 00cf 00       		.uleb128 0
 6780              	.LLST17:
 6781 00d0 00000000 		.4byte	.LVL51
 6782 00d4 30000000 		.4byte	.LVL55
 6783 00d8 0100     		.2byte	0x1
 6784 00da 50       		.byte	0x50
 6785 00db 30000000 		.4byte	.LVL55
 6786 00df 32000000 		.4byte	.LVL56
 6787 00e3 0400     		.2byte	0x4
 6788 00e5 F3       		.byte	0xf3
 6789 00e6 01       		.uleb128 0x1
 6790 00e7 50       		.byte	0x50
 6791 00e8 9F       		.byte	0x9f
 6792 00e9 32000000 		.4byte	.LVL56
 6793 00ed 3C000000 		.4byte	.LVL57
 6794 00f1 0100     		.2byte	0x1
 6795 00f3 50       		.byte	0x50
 6796 00f4 3C000000 		.4byte	.LVL57
 6797 00f8 3E000000 		.4byte	.LVL58
 6798 00fc 0400     		.2byte	0x4
 6799 00fe F3       		.byte	0xf3
 6800 00ff 01       		.uleb128 0x1
 6801 0100 50       		.byte	0x50
 6802 0101 9F       		.byte	0x9f
 6803 0102 3E000000 		.4byte	.LVL58
 6804 0106 4C000000 		.4byte	.LVL59
 6805 010a 0100     		.2byte	0x1
 6806 010c 50       		.byte	0x50
 6807 010d 4C000000 		.4byte	.LVL59
 6808 0111 4E000000 		.4byte	.LVL60
 6809 0115 0400     		.2byte	0x4
 6810 0117 F3       		.byte	0xf3
 6811 0118 01       		.uleb128 0x1
 6812 0119 50       		.byte	0x50
 6813 011a 9F       		.byte	0x9f
 6814 011b 4E000000 		.4byte	.LVL60
 6815 011f 78000000 		.4byte	.LVL63
 6816 0123 0100     		.2byte	0x1
 6817 0125 50       		.byte	0x50
 6818 0126 78000000 		.4byte	.LVL63
 6819 012a 7A000000 		.4byte	.LVL64
 6820 012e 0400     		.2byte	0x4
 6821 0130 F3       		.byte	0xf3
ARM GAS  C:\Users\EDULU~1.DES\AppData\Local\Temp\cc9dcV7d.s 			page 156


 6822 0131 01       		.uleb128 0x1
 6823 0132 50       		.byte	0x50
 6824 0133 9F       		.byte	0x9f
 6825 0134 7A000000 		.4byte	.LVL64
 6826 0138 7C000000 		.4byte	.LVL65
 6827 013c 0100     		.2byte	0x1
 6828 013e 50       		.byte	0x50
 6829 013f 7C000000 		.4byte	.LVL65
 6830 0143 7E000000 		.4byte	.LFE13
 6831 0147 0400     		.2byte	0x4
 6832 0149 F3       		.byte	0xf3
 6833 014a 01       		.uleb128 0x1
 6834 014b 50       		.byte	0x50
 6835 014c 9F       		.byte	0x9f
 6836 014d 00000000 		.4byte	0
 6837 0151 00000000 		.4byte	0
 6838              	.LVUS18:
 6839 0155 00       		.uleb128 0
 6840 0156 00       		.uleb128 .LVU147
 6841 0157 00       		.uleb128 .LVU147
 6842 0158 00       		.uleb128 .LVU152
 6843 0159 00       		.uleb128 .LVU152
 6844 015a 00       		.uleb128 .LVU155
 6845 015b 00       		.uleb128 .LVU155
 6846 015c 00       		.uleb128 .LVU162
 6847 015d 00       		.uleb128 .LVU162
 6848 015e 00       		.uleb128 0
 6849              	.LLST18:
 6850 015f 00000000 		.4byte	.LVL51
 6851 0163 22000000 		.4byte	.LVL54
 6852 0167 0100     		.2byte	0x1
 6853 0169 52       		.byte	0x52
 6854 016a 22000000 		.4byte	.LVL54
 6855 016e 32000000 		.4byte	.LVL56
 6856 0172 0400     		.2byte	0x4
 6857 0174 F3       		.byte	0xf3
 6858 0175 01       		.uleb128 0x1
 6859 0176 52       		.byte	0x52
 6860 0177 9F       		.byte	0x9f
 6861 0178 32000000 		.4byte	.LVL56
 6862 017c 3C000000 		.4byte	.LVL57
 6863 0180 0100     		.2byte	0x1
 6864 0182 52       		.byte	0x52
 6865 0183 3C000000 		.4byte	.LVL57
 6866 0187 4E000000 		.4byte	.LVL60
 6867 018b 0400     		.2byte	0x4
 6868 018d F3       		.byte	0xf3
 6869 018e 01       		.uleb128 0x1
 6870 018f 52       		.byte	0x52
 6871 0190 9F       		.byte	0x9f
 6872 0191 4E000000 		.4byte	.LVL60
 6873 0195 7E000000 		.4byte	.LFE13
 6874 0199 0100     		.2byte	0x1
 6875 019b 52       		.byte	0x52
 6876 019c 00000000 		.4byte	0
 6877 01a0 00000000 		.4byte	0
 6878              	.LVUS19:
ARM GAS  C:\Users\EDULU~1.DES\AppData\Local\Temp\cc9dcV7d.s 			page 157


 6879 01a4 00       		.uleb128 0
 6880 01a5 00       		.uleb128 .LVU142
 6881 01a6 00       		.uleb128 .LVU142
 6882 01a7 00       		.uleb128 .LVU152
 6883 01a8 00       		.uleb128 .LVU152
 6884 01a9 00       		.uleb128 .LVU155
 6885 01aa 00       		.uleb128 .LVU155
 6886 01ab 00       		.uleb128 .LVU162
 6887 01ac 00       		.uleb128 .LVU162
 6888 01ad 00       		.uleb128 .LVU163
 6889 01ae 00       		.uleb128 .LVU163
 6890 01af 00       		.uleb128 .LVU164
 6891 01b0 00       		.uleb128 .LVU164
 6892 01b1 00       		.uleb128 0
 6893              	.LLST19:
 6894 01b2 00000000 		.4byte	.LVL51
 6895 01b6 1A000000 		.4byte	.LVL53
 6896 01ba 0100     		.2byte	0x1
 6897 01bc 53       		.byte	0x53
 6898 01bd 1A000000 		.4byte	.LVL53
 6899 01c1 32000000 		.4byte	.LVL56
 6900 01c5 0400     		.2byte	0x4
 6901 01c7 F3       		.byte	0xf3
 6902 01c8 01       		.uleb128 0x1
 6903 01c9 53       		.byte	0x53
 6904 01ca 9F       		.byte	0x9f
 6905 01cb 32000000 		.4byte	.LVL56
 6906 01cf 3C000000 		.4byte	.LVL57
 6907 01d3 0100     		.2byte	0x1
 6908 01d5 53       		.byte	0x53
 6909 01d6 3C000000 		.4byte	.LVL57
 6910 01da 4E000000 		.4byte	.LVL60
 6911 01de 0400     		.2byte	0x4
 6912 01e0 F3       		.byte	0xf3
 6913 01e1 01       		.uleb128 0x1
 6914 01e2 53       		.byte	0x53
 6915 01e3 9F       		.byte	0x9f
 6916 01e4 4E000000 		.4byte	.LVL60
 6917 01e8 50000000 		.4byte	.LVL61
 6918 01ec 0100     		.2byte	0x1
 6919 01ee 53       		.byte	0x53
 6920 01ef 50000000 		.4byte	.LVL61
 6921 01f3 52000000 		.4byte	.LVL62
 6922 01f7 0300     		.2byte	0x3
 6923 01f9 73       		.byte	0x73
 6924 01fa 7F       		.sleb128 -1
 6925 01fb 9F       		.byte	0x9f
 6926 01fc 52000000 		.4byte	.LVL62
 6927 0200 7E000000 		.4byte	.LFE13
 6928 0204 0400     		.2byte	0x4
 6929 0206 F3       		.byte	0xf3
 6930 0207 01       		.uleb128 0x1
 6931 0208 53       		.byte	0x53
 6932 0209 9F       		.byte	0x9f
 6933 020a 00000000 		.4byte	0
 6934 020e 00000000 		.4byte	0
 6935              	.LVUS20:
ARM GAS  C:\Users\EDULU~1.DES\AppData\Local\Temp\cc9dcV7d.s 			page 158


 6936 0212 01       		.uleb128 .LVU135
 6937 0213 00       		.uleb128 .LVU155
 6938 0214 00       		.uleb128 .LVU156
 6939 0215 00       		.uleb128 .LVU179
 6940 0216 00       		.uleb128 .LVU179
 6941 0217 00       		.uleb128 0
 6942              	.LLST20:
 6943 0218 04000000 		.4byte	.LVL52
 6944 021c 3C000000 		.4byte	.LVL57
 6945 0220 0200     		.2byte	0x2
 6946 0222 30       		.byte	0x30
 6947 0223 9F       		.byte	0x9f
 6948 0224 3E000000 		.4byte	.LVL58
 6949 0228 7C000000 		.4byte	.LVL65
 6950 022c 0200     		.2byte	0x2
 6951 022e 30       		.byte	0x30
 6952 022f 9F       		.byte	0x9f
 6953 0230 7C000000 		.4byte	.LVL65
 6954 0234 7E000000 		.4byte	.LFE13
 6955 0238 0200     		.2byte	0x2
 6956 023a 31       		.byte	0x31
 6957 023b 9F       		.byte	0x9f
 6958 023c 00000000 		.4byte	0
 6959 0240 00000000 		.4byte	0
 6960              	.LVUS32:
 6961 0244 00       		.uleb128 0
 6962 0245 00       		.uleb128 .LVU251
 6963 0246 00       		.uleb128 .LVU251
 6964 0247 00       		.uleb128 .LVU262
 6965 0248 00       		.uleb128 .LVU262
 6966 0249 00       		.uleb128 .LVU263
 6967 024a 00       		.uleb128 .LVU263
 6968 024b 00       		.uleb128 0
 6969              	.LLST32:
 6970 024c 00000000 		.4byte	.LVL91
 6971 0250 1C000000 		.4byte	.LVL94
 6972 0254 0100     		.2byte	0x1
 6973 0256 50       		.byte	0x50
 6974 0257 1C000000 		.4byte	.LVL94
 6975 025b 3C000000 		.4byte	.LVL100
 6976 025f 0100     		.2byte	0x1
 6977 0261 56       		.byte	0x56
 6978 0262 3C000000 		.4byte	.LVL100
 6979 0266 3E000000 		.4byte	.LVL101
 6980 026a 0400     		.2byte	0x4
 6981 026c F3       		.byte	0xf3
 6982 026d 01       		.uleb128 0x1
 6983 026e 50       		.byte	0x50
 6984 026f 9F       		.byte	0x9f
 6985 0270 3E000000 		.4byte	.LVL101
 6986 0274 7C000000 		.4byte	.LFE12
 6987 0278 0100     		.2byte	0x1
 6988 027a 56       		.byte	0x56
 6989 027b 00000000 		.4byte	0
 6990 027f 00000000 		.4byte	0
 6991              	.LVUS33:
 6992 0283 00       		.uleb128 0
ARM GAS  C:\Users\EDULU~1.DES\AppData\Local\Temp\cc9dcV7d.s 			page 159


 6993 0284 00       		.uleb128 .LVU252
 6994 0285 00       		.uleb128 .LVU252
 6995 0286 00       		.uleb128 0
 6996              	.LLST33:
 6997 0287 00000000 		.4byte	.LVL91
 6998 028b 1E000000 		.4byte	.LVL95
 6999 028f 0100     		.2byte	0x1
 7000 0291 51       		.byte	0x51
 7001 0292 1E000000 		.4byte	.LVL95
 7002 0296 7C000000 		.4byte	.LFE12
 7003 029a 0300     		.2byte	0x3
 7004 029c 91       		.byte	0x91
 7005 029d DC7E     		.sleb128 -164
 7006 029f 00000000 		.4byte	0
 7007 02a3 00000000 		.4byte	0
 7008              	.LVUS34:
 7009 02a7 00       		.uleb128 0
 7010 02a8 00       		.uleb128 .LVU253
 7011 02a9 00       		.uleb128 .LVU253
 7012 02aa 00       		.uleb128 0
 7013              	.LLST34:
 7014 02ab 00000000 		.4byte	.LVL91
 7015 02af 21000000 		.4byte	.LVL96-1
 7016 02b3 0100     		.2byte	0x1
 7017 02b5 52       		.byte	0x52
 7018 02b6 21000000 		.4byte	.LVL96-1
 7019 02ba 7C000000 		.4byte	.LFE12
 7020 02be 0300     		.2byte	0x3
 7021 02c0 91       		.byte	0x91
 7022 02c1 E07E     		.sleb128 -160
 7023 02c3 00000000 		.4byte	0
 7024 02c7 00000000 		.4byte	0
 7025              	.LVUS35:
 7026 02cb 00       		.uleb128 0
 7027 02cc 00       		.uleb128 .LVU246
 7028 02cd 00       		.uleb128 .LVU246
 7029 02ce 00       		.uleb128 0
 7030              	.LLST35:
 7031 02cf 00000000 		.4byte	.LVL91
 7032 02d3 10000000 		.4byte	.LVL92
 7033 02d7 0100     		.2byte	0x1
 7034 02d9 53       		.byte	0x53
 7035 02da 10000000 		.4byte	.LVL92
 7036 02de 7C000000 		.4byte	.LFE12
 7037 02e2 0300     		.2byte	0x3
 7038 02e4 91       		.byte	0x91
 7039 02e5 E47E     		.sleb128 -156
 7040 02e7 00000000 		.4byte	0
 7041 02eb 00000000 		.4byte	0
 7042              	.LVUS36:
 7043 02ef 00       		.uleb128 .LVU260
 7044 02f0 00       		.uleb128 .LVU262
 7045 02f1 01       		.uleb128 .LVU267
 7046 02f2 00       		.uleb128 .LVU269
 7047 02f3 00       		.uleb128 .LVU273
 7048 02f4 00       		.uleb128 .LVU278
 7049 02f5 00       		.uleb128 .LVU278
ARM GAS  C:\Users\EDULU~1.DES\AppData\Local\Temp\cc9dcV7d.s 			page 160


 7050 02f6 00       		.uleb128 0
 7051              	.LLST36:
 7052 02f7 38000000 		.4byte	.LVL98
 7053 02fb 3C000000 		.4byte	.LVL99
 7054 02ff 0100     		.2byte	0x1
 7055 0301 54       		.byte	0x54
 7056 0302 4A000000 		.4byte	.LVL102
 7057 0306 4E000000 		.4byte	.LVL104
 7058 030a 0200     		.2byte	0x2
 7059 030c 30       		.byte	0x30
 7060 030d 9F       		.byte	0x9f
 7061 030e 64000000 		.4byte	.LVL107
 7062 0312 76000000 		.4byte	.LVL108
 7063 0316 0100     		.2byte	0x1
 7064 0318 50       		.byte	0x50
 7065 0319 76000000 		.4byte	.LVL108
 7066 031d 7C000000 		.4byte	.LFE12
 7067 0321 0100     		.2byte	0x1
 7068 0323 54       		.byte	0x54
 7069 0324 00000000 		.4byte	0
 7070 0328 00000000 		.4byte	0
 7071              	.LVUS37:
 7072 032c 00       		.uleb128 .LVU248
 7073 032d 00       		.uleb128 .LVU260
 7074 032e 00       		.uleb128 .LVU263
 7075 032f 00       		.uleb128 .LVU268
 7076 0330 00       		.uleb128 .LVU269
 7077 0331 00       		.uleb128 .LVU273
 7078              	.LLST37:
 7079 0332 18000000 		.4byte	.LVL93
 7080 0336 38000000 		.4byte	.LVL98
 7081 033a 0100     		.2byte	0x1
 7082 033c 54       		.byte	0x54
 7083 033d 3E000000 		.4byte	.LVL101
 7084 0341 4C000000 		.4byte	.LVL103
 7085 0345 0100     		.2byte	0x1
 7086 0347 54       		.byte	0x54
 7087 0348 4E000000 		.4byte	.LVL104
 7088 034c 64000000 		.4byte	.LVL107
 7089 0350 0100     		.2byte	0x1
 7090 0352 54       		.byte	0x54
 7091 0353 00000000 		.4byte	0
 7092 0357 00000000 		.4byte	0
 7093              	.LVUS38:
 7094 035b 00       		.uleb128 0
 7095 035c 00       		.uleb128 .LVU285
 7096 035d 00       		.uleb128 .LVU285
 7097 035e 02       		.uleb128 .LVU295
 7098 035f 02       		.uleb128 .LVU295
 7099 0360 00       		.uleb128 .LVU296
 7100 0361 00       		.uleb128 .LVU296
 7101 0362 00       		.uleb128 0
 7102              	.LLST38:
 7103 0363 00000000 		.4byte	.LVL110
 7104 0367 0B000000 		.4byte	.LVL112-1
 7105 036b 0100     		.2byte	0x1
 7106 036d 50       		.byte	0x50
ARM GAS  C:\Users\EDULU~1.DES\AppData\Local\Temp\cc9dcV7d.s 			page 161


 7107 036e 0B000000 		.4byte	.LVL112-1
 7108 0372 1C000000 		.4byte	.LVL114
 7109 0376 0100     		.2byte	0x1
 7110 0378 54       		.byte	0x54
 7111 0379 1C000000 		.4byte	.LVL114
 7112 037d 1E000000 		.4byte	.LVL117
 7113 0381 0400     		.2byte	0x4
 7114 0383 F3       		.byte	0xf3
 7115 0384 01       		.uleb128 0x1
 7116 0385 50       		.byte	0x50
 7117 0386 9F       		.byte	0x9f
 7118 0387 1E000000 		.4byte	.LVL117
 7119 038b 32000000 		.4byte	.LFE11
 7120 038f 0100     		.2byte	0x1
 7121 0391 54       		.byte	0x54
 7122 0392 00000000 		.4byte	0
 7123 0396 00000000 		.4byte	0
 7124              	.LVUS39:
 7125 039a 00       		.uleb128 0
 7126 039b 00       		.uleb128 .LVU285
 7127 039c 00       		.uleb128 .LVU285
 7128 039d 02       		.uleb128 .LVU295
 7129 039e 02       		.uleb128 .LVU295
 7130 039f 00       		.uleb128 .LVU296
 7131 03a0 00       		.uleb128 .LVU296
 7132 03a1 00       		.uleb128 0
 7133              	.LLST39:
 7134 03a2 00000000 		.4byte	.LVL110
 7135 03a6 0B000000 		.4byte	.LVL112-1
 7136 03aa 0100     		.2byte	0x1
 7137 03ac 51       		.byte	0x51
 7138 03ad 0B000000 		.4byte	.LVL112-1
 7139 03b1 1C000000 		.4byte	.LVL115
 7140 03b5 0100     		.2byte	0x1
 7141 03b7 55       		.byte	0x55
 7142 03b8 1C000000 		.4byte	.LVL115
 7143 03bc 1E000000 		.4byte	.LVL117
 7144 03c0 0400     		.2byte	0x4
 7145 03c2 F3       		.byte	0xf3
 7146 03c3 01       		.uleb128 0x1
 7147 03c4 51       		.byte	0x51
 7148 03c5 9F       		.byte	0x9f
 7149 03c6 1E000000 		.4byte	.LVL117
 7150 03ca 32000000 		.4byte	.LFE11
 7151 03ce 0100     		.2byte	0x1
 7152 03d0 55       		.byte	0x55
 7153 03d1 00000000 		.4byte	0
 7154 03d5 00000000 		.4byte	0
 7155              	.LVUS40:
 7156 03d9 00       		.uleb128 0
 7157 03da 00       		.uleb128 .LVU285
 7158 03db 00       		.uleb128 .LVU285
 7159 03dc 02       		.uleb128 .LVU295
 7160 03dd 02       		.uleb128 .LVU295
 7161 03de 00       		.uleb128 .LVU296
 7162 03df 00       		.uleb128 .LVU296
 7163 03e0 00       		.uleb128 0
ARM GAS  C:\Users\EDULU~1.DES\AppData\Local\Temp\cc9dcV7d.s 			page 162


 7164              	.LLST40:
 7165 03e1 00000000 		.4byte	.LVL110
 7166 03e5 0B000000 		.4byte	.LVL112-1
 7167 03e9 0100     		.2byte	0x1
 7168 03eb 52       		.byte	0x52
 7169 03ec 0B000000 		.4byte	.LVL112-1
 7170 03f0 1C000000 		.4byte	.LVL116
 7171 03f4 0100     		.2byte	0x1
 7172 03f6 56       		.byte	0x56
 7173 03f7 1C000000 		.4byte	.LVL116
 7174 03fb 1E000000 		.4byte	.LVL117
 7175 03ff 0400     		.2byte	0x4
 7176 0401 F3       		.byte	0xf3
 7177 0402 01       		.uleb128 0x1
 7178 0403 52       		.byte	0x52
 7179 0404 9F       		.byte	0x9f
 7180 0405 1E000000 		.4byte	.LVL117
 7181 0409 32000000 		.4byte	.LFE11
 7182 040d 0100     		.2byte	0x1
 7183 040f 56       		.byte	0x56
 7184 0410 00000000 		.4byte	0
 7185 0414 00000000 		.4byte	0
 7186              	.LVUS41:
 7187 0418 01       		.uleb128 .LVU282
 7188 0419 00       		.uleb128 .LVU285
 7189 041a 00       		.uleb128 .LVU285
 7190 041b 00       		.uleb128 .LVU289
 7191 041c 00       		.uleb128 .LVU296
 7192 041d 00       		.uleb128 .LVU299
 7193 041e 00       		.uleb128 .LVU299
 7194 041f 00       		.uleb128 .LVU301
 7195              	.LLST41:
 7196 0420 08000000 		.4byte	.LVL111
 7197 0424 0B000000 		.4byte	.LVL112-1
 7198 0428 0100     		.2byte	0x1
 7199 042a 50       		.byte	0x50
 7200 042b 0B000000 		.4byte	.LVL112-1
 7201 042f 16000000 		.4byte	.LVL113
 7202 0433 0100     		.2byte	0x1
 7203 0435 54       		.byte	0x54
 7204 0436 1E000000 		.4byte	.LVL117
 7205 043a 28000000 		.4byte	.LVL119
 7206 043e 0100     		.2byte	0x1
 7207 0440 54       		.byte	0x54
 7208 0441 28000000 		.4byte	.LVL119
 7209 0445 2F000000 		.4byte	.LVL120-1
 7210 0449 0100     		.2byte	0x1
 7211 044b 50       		.byte	0x50
 7212 044c 00000000 		.4byte	0
 7213 0450 00000000 		.4byte	0
 7214              	.LVUS42:
 7215 0454 02       		.uleb128 .LVU283
 7216 0455 00       		.uleb128 .LVU285
 7217 0456 00       		.uleb128 .LVU285
 7218 0457 00       		.uleb128 .LVU298
 7219 0458 00       		.uleb128 .LVU301
 7220 0459 00       		.uleb128 0
ARM GAS  C:\Users\EDULU~1.DES\AppData\Local\Temp\cc9dcV7d.s 			page 163


 7221              	.LLST42:
 7222 045a 08000000 		.4byte	.LVL111
 7223 045e 0C000000 		.4byte	.LVL112
 7224 0462 0200     		.2byte	0x2
 7225 0464 34       		.byte	0x34
 7226 0465 9F       		.byte	0x9f
 7227 0466 0C000000 		.4byte	.LVL112
 7228 046a 22000000 		.4byte	.LVL118
 7229 046e 0100     		.2byte	0x1
 7230 0470 50       		.byte	0x50
 7231 0471 30000000 		.4byte	.LVL120
 7232 0475 32000000 		.4byte	.LFE11
 7233 0479 0100     		.2byte	0x1
 7234 047b 50       		.byte	0x50
 7235 047c 00000000 		.4byte	0
 7236 0480 00000000 		.4byte	0
 7237              	.LVUS21:
 7238 0484 00       		.uleb128 0
 7239 0485 00       		.uleb128 .LVU189
 7240 0486 00       		.uleb128 .LVU189
 7241 0487 00       		.uleb128 0
 7242              	.LLST21:
 7243 0488 00000000 		.4byte	.LVL66
 7244 048c 04000000 		.4byte	.LVL68
 7245 0490 0100     		.2byte	0x1
 7246 0492 50       		.byte	0x50
 7247 0493 04000000 		.4byte	.LVL68
 7248 0497 14000000 		.4byte	.LFE10
 7249 049b 0400     		.2byte	0x4
 7250 049d F3       		.byte	0xf3
 7251 049e 01       		.uleb128 0x1
 7252 049f 50       		.byte	0x50
 7253 04a0 9F       		.byte	0x9f
 7254 04a1 00000000 		.4byte	0
 7255 04a5 00000000 		.4byte	0
 7256              	.LVUS22:
 7257 04a9 00       		.uleb128 0
 7258 04aa 00       		.uleb128 .LVU191
 7259 04ab 00       		.uleb128 .LVU191
 7260 04ac 00       		.uleb128 0
 7261              	.LLST22:
 7262 04ad 00000000 		.4byte	.LVL66
 7263 04b1 07000000 		.4byte	.LVL69-1
 7264 04b5 0100     		.2byte	0x1
 7265 04b7 51       		.byte	0x51
 7266 04b8 07000000 		.4byte	.LVL69-1
 7267 04bc 14000000 		.4byte	.LFE10
 7268 04c0 0400     		.2byte	0x4
 7269 04c2 F3       		.byte	0xf3
 7270 04c3 01       		.uleb128 0x1
 7271 04c4 51       		.byte	0x51
 7272 04c5 9F       		.byte	0x9f
 7273 04c6 00000000 		.4byte	0
 7274 04ca 00000000 		.4byte	0
 7275              	.LVUS23:
 7276 04ce 00       		.uleb128 0
 7277 04cf 00       		.uleb128 .LVU191
ARM GAS  C:\Users\EDULU~1.DES\AppData\Local\Temp\cc9dcV7d.s 			page 164


 7278 04d0 00       		.uleb128 .LVU191
 7279 04d1 00       		.uleb128 0
 7280              	.LLST23:
 7281 04d2 00000000 		.4byte	.LVL66
 7282 04d6 07000000 		.4byte	.LVL69-1
 7283 04da 0100     		.2byte	0x1
 7284 04dc 52       		.byte	0x52
 7285 04dd 07000000 		.4byte	.LVL69-1
 7286 04e1 14000000 		.4byte	.LFE10
 7287 04e5 0400     		.2byte	0x4
 7288 04e7 F3       		.byte	0xf3
 7289 04e8 01       		.uleb128 0x1
 7290 04e9 52       		.byte	0x52
 7291 04ea 9F       		.byte	0x9f
 7292 04eb 00000000 		.4byte	0
 7293 04ef 00000000 		.4byte	0
 7294              	.LVUS24:
 7295 04f3 01       		.uleb128 .LVU184
 7296 04f4 00       		.uleb128 .LVU194
 7297 04f5 00       		.uleb128 .LVU194
 7298 04f6 00       		.uleb128 .LVU196
 7299 04f7 00       		.uleb128 .LVU196
 7300 04f8 00       		.uleb128 0
 7301              	.LLST24:
 7302 04f9 02000000 		.4byte	.LVL67
 7303 04fd 0E000000 		.4byte	.LVL70
 7304 0501 0200     		.2byte	0x2
 7305 0503 34       		.byte	0x34
 7306 0504 9F       		.byte	0x9f
 7307 0505 0E000000 		.4byte	.LVL70
 7308 0509 10000000 		.4byte	.LVL71
 7309 050d 0100     		.2byte	0x1
 7310 050f 50       		.byte	0x50
 7311 0510 10000000 		.4byte	.LVL71
 7312 0514 14000000 		.4byte	.LFE10
 7313 0518 0200     		.2byte	0x2
 7314 051a 34       		.byte	0x34
 7315 051b 9F       		.byte	0x9f
 7316 051c 00000000 		.4byte	0
 7317 0520 00000000 		.4byte	0
 7318              	.LVUS25:
 7319 0524 00       		.uleb128 .LVU191
 7320 0525 00       		.uleb128 .LVU194
 7321 0526 00       		.uleb128 .LVU196
 7322 0527 00       		.uleb128 .LVU197
 7323              	.LLST25:
 7324 0528 08000000 		.4byte	.LVL69
 7325 052c 0E000000 		.4byte	.LVL70
 7326 0530 0100     		.2byte	0x1
 7327 0532 50       		.byte	0x50
 7328 0533 10000000 		.4byte	.LVL71
 7329 0537 12000000 		.4byte	.LVL72
 7330 053b 0100     		.2byte	0x1
 7331 053d 50       		.byte	0x50
 7332 053e 00000000 		.4byte	0
 7333 0542 00000000 		.4byte	0
 7334              	.LVUS26:
ARM GAS  C:\Users\EDULU~1.DES\AppData\Local\Temp\cc9dcV7d.s 			page 165


 7335 0546 00       		.uleb128 .LVU189
 7336 0547 00       		.uleb128 .LVU191
 7337 0548 00       		.uleb128 .LVU191
 7338 0549 00       		.uleb128 0
 7339              	.LLST26:
 7340 054a 04000000 		.4byte	.LVL68
 7341 054e 07000000 		.4byte	.LVL69-1
 7342 0552 0100     		.2byte	0x1
 7343 0554 50       		.byte	0x50
 7344 0555 07000000 		.4byte	.LVL69-1
 7345 0559 14000000 		.4byte	.LFE10
 7346 055d 0600     		.2byte	0x6
 7347 055f F3       		.byte	0xf3
 7348 0560 01       		.uleb128 0x1
 7349 0561 50       		.byte	0x50
 7350 0562 37       		.byte	0x37
 7351 0563 25       		.byte	0x25
 7352 0564 9F       		.byte	0x9f
 7353 0565 00000000 		.4byte	0
 7354 0569 00000000 		.4byte	0
 7355              	.LVUS13:
 7356 056d 00       		.uleb128 0
 7357 056e 00       		.uleb128 .LVU125
 7358 056f 00       		.uleb128 .LVU125
 7359 0570 00       		.uleb128 .LVU128
 7360 0571 00       		.uleb128 .LVU128
 7361 0572 00       		.uleb128 .LVU129
 7362 0573 00       		.uleb128 .LVU129
 7363 0574 00       		.uleb128 .LVU130
 7364 0575 00       		.uleb128 .LVU130
 7365 0576 00       		.uleb128 .LVU131
 7366 0577 00       		.uleb128 .LVU131
 7367 0578 00       		.uleb128 0
 7368              	.LLST13:
 7369 0579 00000000 		.4byte	.LVL41
 7370 057d 2E000000 		.4byte	.LVL45
 7371 0581 0100     		.2byte	0x1
 7372 0583 50       		.byte	0x50
 7373 0584 2E000000 		.4byte	.LVL45
 7374 0588 30000000 		.4byte	.LVL47
 7375 058c 0400     		.2byte	0x4
 7376 058e F3       		.byte	0xf3
 7377 058f 01       		.uleb128 0x1
 7378 0590 50       		.byte	0x50
 7379 0591 9F       		.byte	0x9f
 7380 0592 30000000 		.4byte	.LVL47
 7381 0596 32000000 		.4byte	.LVL48
 7382 059a 0100     		.2byte	0x1
 7383 059c 50       		.byte	0x50
 7384 059d 32000000 		.4byte	.LVL48
 7385 05a1 34000000 		.4byte	.LVL49
 7386 05a5 0400     		.2byte	0x4
 7387 05a7 F3       		.byte	0xf3
 7388 05a8 01       		.uleb128 0x1
 7389 05a9 50       		.byte	0x50
 7390 05aa 9F       		.byte	0x9f
 7391 05ab 34000000 		.4byte	.LVL49
ARM GAS  C:\Users\EDULU~1.DES\AppData\Local\Temp\cc9dcV7d.s 			page 166


 7392 05af 36000000 		.4byte	.LVL50
 7393 05b3 0100     		.2byte	0x1
 7394 05b5 50       		.byte	0x50
 7395 05b6 36000000 		.4byte	.LVL50
 7396 05ba 38000000 		.4byte	.LFE9
 7397 05be 0400     		.2byte	0x4
 7398 05c0 F3       		.byte	0xf3
 7399 05c1 01       		.uleb128 0x1
 7400 05c2 50       		.byte	0x50
 7401 05c3 9F       		.byte	0x9f
 7402 05c4 00000000 		.4byte	0
 7403 05c8 00000000 		.4byte	0
 7404              	.LVUS14:
 7405 05cc 01       		.uleb128 .LVU115
 7406 05cd 00       		.uleb128 .LVU125
 7407 05ce 00       		.uleb128 .LVU125
 7408 05cf 00       		.uleb128 .LVU128
 7409 05d0 00       		.uleb128 .LVU128
 7410 05d1 00       		.uleb128 0
 7411              	.LLST14:
 7412 05d2 02000000 		.4byte	.LVL42
 7413 05d6 2E000000 		.4byte	.LVL45
 7414 05da 0200     		.2byte	0x2
 7415 05dc 33       		.byte	0x33
 7416 05dd 9F       		.byte	0x9f
 7417 05de 2E000000 		.4byte	.LVL45
 7418 05e2 30000000 		.4byte	.LVL47
 7419 05e6 0100     		.2byte	0x1
 7420 05e8 50       		.byte	0x50
 7421 05e9 30000000 		.4byte	.LVL47
 7422 05ed 38000000 		.4byte	.LFE9
 7423 05f1 0200     		.2byte	0x2
 7424 05f3 33       		.byte	0x33
 7425 05f4 9F       		.byte	0x9f
 7426 05f5 00000000 		.4byte	0
 7427 05f9 00000000 		.4byte	0
 7428              	.LVUS15:
 7429 05fd 00       		.uleb128 .LVU117
 7430 05fe 02       		.uleb128 .LVU127
 7431 05ff 02       		.uleb128 .LVU127
 7432 0600 00       		.uleb128 .LVU128
 7433 0601 00       		.uleb128 .LVU128
 7434 0602 00       		.uleb128 0
 7435              	.LLST15:
 7436 0603 04000000 		.4byte	.LVL43
 7437 0607 2E000000 		.4byte	.LVL46
 7438 060b 0100     		.2byte	0x1
 7439 060d 54       		.byte	0x54
 7440 060e 2E000000 		.4byte	.LVL46
 7441 0612 30000000 		.4byte	.LVL47
 7442 0616 0500     		.2byte	0x5
 7443 0618 F3       		.byte	0xf3
 7444 0619 01       		.uleb128 0x1
 7445 061a 50       		.byte	0x50
 7446 061b 23       		.byte	0x23
 7447 061c 0C       		.uleb128 0xc
 7448 061d 30000000 		.4byte	.LVL47
ARM GAS  C:\Users\EDULU~1.DES\AppData\Local\Temp\cc9dcV7d.s 			page 167


 7449 0621 38000000 		.4byte	.LFE9
 7450 0625 0100     		.2byte	0x1
 7451 0627 54       		.byte	0x54
 7452 0628 00000000 		.4byte	0
 7453 062c 00000000 		.4byte	0
 7454              	.LVUS16:
 7455 0630 00       		.uleb128 .LVU121
 7456 0631 00       		.uleb128 0
 7457              	.LLST16:
 7458 0632 20000000 		.4byte	.LVL44
 7459 0636 38000000 		.4byte	.LFE9
 7460 063a 0100     		.2byte	0x1
 7461 063c 53       		.byte	0x53
 7462 063d 00000000 		.4byte	0
 7463 0641 00000000 		.4byte	0
 7464              	.LVUS9:
 7465 0645 00       		.uleb128 0
 7466 0646 00       		.uleb128 .LVU87
 7467 0647 00       		.uleb128 .LVU87
 7468 0648 01       		.uleb128 .LVU111
 7469 0649 01       		.uleb128 .LVU111
 7470 064a 00       		.uleb128 0
 7471              	.LLST9:
 7472 064b 00000000 		.4byte	.LVL24
 7473 064f 08000000 		.4byte	.LVL26
 7474 0653 0100     		.2byte	0x1
 7475 0655 50       		.byte	0x50
 7476 0656 08000000 		.4byte	.LVL26
 7477 065a 36000000 		.4byte	.LVL40
 7478 065e 0100     		.2byte	0x1
 7479 0660 55       		.byte	0x55
 7480 0661 36000000 		.4byte	.LVL40
 7481 0665 38000000 		.4byte	.LFE8
 7482 0669 0400     		.2byte	0x4
 7483 066b F3       		.byte	0xf3
 7484 066c 01       		.uleb128 0x1
 7485 066d 50       		.byte	0x50
 7486 066e 9F       		.byte	0x9f
 7487 066f 00000000 		.4byte	0
 7488 0673 00000000 		.4byte	0
 7489              	.LVUS10:
 7490 0677 01       		.uleb128 .LVU82
 7491 0678 00       		.uleb128 .LVU88
 7492 0679 00       		.uleb128 .LVU88
 7493 067a 00       		.uleb128 .LVU89
 7494 067b 00       		.uleb128 .LVU89
 7495 067c 00       		.uleb128 .LVU91
 7496 067d 00       		.uleb128 .LVU92
 7497 067e 00       		.uleb128 .LVU99
 7498 067f 00       		.uleb128 .LVU99
 7499 0680 00       		.uleb128 .LVU100
 7500 0681 00       		.uleb128 .LVU100
 7501 0682 00       		.uleb128 0
 7502              	.LLST10:
 7503 0683 04000000 		.4byte	.LVL25
 7504 0687 0A000000 		.4byte	.LVL27
 7505 068b 0300     		.2byte	0x3
ARM GAS  C:\Users\EDULU~1.DES\AppData\Local\Temp\cc9dcV7d.s 			page 168


 7506 068d 09       		.byte	0x9
 7507 068e FF       		.byte	0xff
 7508 068f 9F       		.byte	0x9f
 7509 0690 0A000000 		.4byte	.LVL27
 7510 0694 0C000000 		.4byte	.LVL28
 7511 0698 0100     		.2byte	0x1
 7512 069a 50       		.byte	0x50
 7513 069b 0C000000 		.4byte	.LVL28
 7514 069f 10000000 		.4byte	.LVL29
 7515 06a3 0100     		.2byte	0x1
 7516 06a5 52       		.byte	0x52
 7517 06a6 12000000 		.4byte	.LVL30
 7518 06aa 22000000 		.4byte	.LVL33
 7519 06ae 0100     		.2byte	0x1
 7520 06b0 50       		.byte	0x50
 7521 06b1 22000000 		.4byte	.LVL33
 7522 06b5 26000000 		.4byte	.LVL34
 7523 06b9 0100     		.2byte	0x1
 7524 06bb 52       		.byte	0x52
 7525 06bc 26000000 		.4byte	.LVL34
 7526 06c0 38000000 		.4byte	.LFE8
 7527 06c4 0100     		.2byte	0x1
 7528 06c6 50       		.byte	0x50
 7529 06c7 00000000 		.4byte	0
 7530 06cb 00000000 		.4byte	0
 7531              	.LVUS11:
 7532 06cf 00       		.uleb128 .LVU88
 7533 06d0 00       		.uleb128 .LVU93
 7534 06d1 00       		.uleb128 .LVU94
 7535 06d2 00       		.uleb128 .LVU103
 7536 06d3 01       		.uleb128 .LVU108
 7537 06d4 00       		.uleb128 .LVU110
 7538              	.LLST11:
 7539 06d5 0A000000 		.4byte	.LVL27
 7540 06d9 14000000 		.4byte	.LVL31
 7541 06dd 0100     		.2byte	0x1
 7542 06df 53       		.byte	0x53
 7543 06e0 16000000 		.4byte	.LVL32
 7544 06e4 2A000000 		.4byte	.LVL36
 7545 06e8 0100     		.2byte	0x1
 7546 06ea 53       		.byte	0x53
 7547 06eb 32000000 		.4byte	.LVL37
 7548 06ef 36000000 		.4byte	.LVL38
 7549 06f3 0200     		.2byte	0x2
 7550 06f5 30       		.byte	0x30
 7551 06f6 9F       		.byte	0x9f
 7552 06f7 00000000 		.4byte	0
 7553 06fb 00000000 		.4byte	0
 7554              	.LVUS12:
 7555 06ff 03       		.uleb128 .LVU84
 7556 0700 00       		.uleb128 .LVU88
 7557 0701 00       		.uleb128 .LVU88
 7558 0702 00       		.uleb128 .LVU102
 7559 0703 00       		.uleb128 .LVU103
 7560 0704 01       		.uleb128 .LVU111
 7561              	.LLST12:
 7562 0705 04000000 		.4byte	.LVL25
ARM GAS  C:\Users\EDULU~1.DES\AppData\Local\Temp\cc9dcV7d.s 			page 169


 7563 0709 0A000000 		.4byte	.LVL27
 7564 070d 0200     		.2byte	0x2
 7565 070f 30       		.byte	0x30
 7566 0710 9F       		.byte	0x9f
 7567 0711 0A000000 		.4byte	.LVL27
 7568 0715 28000000 		.4byte	.LVL35
 7569 0719 0100     		.2byte	0x1
 7570 071b 54       		.byte	0x54
 7571 071c 2A000000 		.4byte	.LVL36
 7572 0720 36000000 		.4byte	.LVL39
 7573 0724 0100     		.2byte	0x1
 7574 0726 54       		.byte	0x54
 7575 0727 00000000 		.4byte	0
 7576 072b 00000000 		.4byte	0
 7577              	.LVUS6:
 7578 072f 00       		.uleb128 0
 7579 0730 00       		.uleb128 .LVU60
 7580 0731 00       		.uleb128 .LVU60
 7581 0732 00       		.uleb128 0
 7582              	.LLST6:
 7583 0733 00000000 		.4byte	.LVL17
 7584 0737 24000000 		.4byte	.LVL18
 7585 073b 0100     		.2byte	0x1
 7586 073d 50       		.byte	0x50
 7587 073e 24000000 		.4byte	.LVL18
 7588 0742 58000000 		.4byte	.LFE7
 7589 0746 0400     		.2byte	0x4
 7590 0748 F3       		.byte	0xf3
 7591 0749 01       		.uleb128 0x1
 7592 074a 50       		.byte	0x50
 7593 074b 9F       		.byte	0x9f
 7594 074c 00000000 		.4byte	0
 7595 0750 00000000 		.4byte	0
 7596              	.LVUS7:
 7597 0754 00       		.uleb128 0
 7598 0755 00       		.uleb128 .LVU64
 7599 0756 00       		.uleb128 .LVU64
 7600 0757 00       		.uleb128 .LVU75
 7601 0758 00       		.uleb128 .LVU75
 7602 0759 00       		.uleb128 .LVU78
 7603 075a 00       		.uleb128 .LVU78
 7604 075b 00       		.uleb128 0
 7605              	.LLST7:
 7606 075c 00000000 		.4byte	.LVL17
 7607 0760 2C000000 		.4byte	.LVL19
 7608 0764 0100     		.2byte	0x1
 7609 0766 51       		.byte	0x51
 7610 0767 2C000000 		.4byte	.LVL19
 7611 076b 4C000000 		.4byte	.LVL21
 7612 076f 0400     		.2byte	0x4
 7613 0771 F3       		.byte	0xf3
 7614 0772 01       		.uleb128 0x1
 7615 0773 51       		.byte	0x51
 7616 0774 9F       		.byte	0x9f
 7617 0775 4C000000 		.4byte	.LVL21
 7618 0779 50000000 		.4byte	.LVL23
 7619 077d 0100     		.2byte	0x1
ARM GAS  C:\Users\EDULU~1.DES\AppData\Local\Temp\cc9dcV7d.s 			page 170


 7620 077f 51       		.byte	0x51
 7621 0780 50000000 		.4byte	.LVL23
 7622 0784 58000000 		.4byte	.LFE7
 7623 0788 0400     		.2byte	0x4
 7624 078a F3       		.byte	0xf3
 7625 078b 01       		.uleb128 0x1
 7626 078c 51       		.byte	0x51
 7627 078d 9F       		.byte	0x9f
 7628 078e 00000000 		.4byte	0
 7629 0792 00000000 		.4byte	0
 7630              	.LVUS8:
 7631 0796 00       		.uleb128 0
 7632 0797 00       		.uleb128 .LVU66
 7633 0798 00       		.uleb128 .LVU66
 7634 0799 00       		.uleb128 .LVU75
 7635 079a 00       		.uleb128 .LVU75
 7636 079b 00       		.uleb128 .LVU77
 7637 079c 00       		.uleb128 .LVU77
 7638 079d 00       		.uleb128 0
 7639              	.LLST8:
 7640 079e 00000000 		.4byte	.LVL17
 7641 07a2 30000000 		.4byte	.LVL20
 7642 07a6 0100     		.2byte	0x1
 7643 07a8 53       		.byte	0x53
 7644 07a9 30000000 		.4byte	.LVL20
 7645 07ad 4C000000 		.4byte	.LVL21
 7646 07b1 0400     		.2byte	0x4
 7647 07b3 F3       		.byte	0xf3
 7648 07b4 01       		.uleb128 0x1
 7649 07b5 53       		.byte	0x53
 7650 07b6 9F       		.byte	0x9f
 7651 07b7 4C000000 		.4byte	.LVL21
 7652 07bb 4E000000 		.4byte	.LVL22
 7653 07bf 0100     		.2byte	0x1
 7654 07c1 53       		.byte	0x53
 7655 07c2 4E000000 		.4byte	.LVL22
 7656 07c6 58000000 		.4byte	.LFE7
 7657 07ca 0400     		.2byte	0x4
 7658 07cc F3       		.byte	0xf3
 7659 07cd 01       		.uleb128 0x1
 7660 07ce 53       		.byte	0x53
 7661 07cf 9F       		.byte	0x9f
 7662 07d0 00000000 		.4byte	0
 7663 07d4 00000000 		.4byte	0
 7664              	.LVUS4:
 7665 07d8 00       		.uleb128 0
 7666 07d9 00       		.uleb128 .LVU41
 7667 07da 00       		.uleb128 .LVU41
 7668 07db 00       		.uleb128 0
 7669              	.LLST4:
 7670 07dc 00000000 		.4byte	.LVL12
 7671 07e0 14000000 		.4byte	.LVL16
 7672 07e4 0100     		.2byte	0x1
 7673 07e6 50       		.byte	0x50
 7674 07e7 14000000 		.4byte	.LVL16
 7675 07eb 16000000 		.4byte	.LFE6
 7676 07ef 0400     		.2byte	0x4
ARM GAS  C:\Users\EDULU~1.DES\AppData\Local\Temp\cc9dcV7d.s 			page 171


 7677 07f1 F3       		.byte	0xf3
 7678 07f2 01       		.uleb128 0x1
 7679 07f3 50       		.byte	0x50
 7680 07f4 9F       		.byte	0x9f
 7681 07f5 00000000 		.4byte	0
 7682 07f9 00000000 		.4byte	0
 7683              	.LVUS5:
 7684 07fd 00       		.uleb128 .LVU32
 7685 07fe 00       		.uleb128 .LVU39
 7686 07ff 00       		.uleb128 .LVU39
 7687 0800 01       		.uleb128 .LVU40
 7688              	.LLST5:
 7689 0801 02000000 		.4byte	.LVL13
 7690 0805 12000000 		.4byte	.LVL15
 7691 0809 0100     		.2byte	0x1
 7692 080b 53       		.byte	0x53
 7693 080c 12000000 		.4byte	.LVL15
 7694 0810 12000000 		.4byte	.LVL15
 7695 0814 0200     		.2byte	0x2
 7696 0816 30       		.byte	0x30
 7697 0817 9F       		.byte	0x9f
 7698 0818 00000000 		.4byte	0
 7699 081c 00000000 		.4byte	0
 7700              	.LVUS0:
 7701 0820 01       		.uleb128 .LVU3
 7702 0821 00       		.uleb128 .LVU13
 7703 0822 00       		.uleb128 .LVU13
 7704 0823 00       		.uleb128 .LVU16
 7705 0824 00       		.uleb128 .LVU20
 7706 0825 00       		.uleb128 .LVU27
 7707              	.LLST0:
 7708 0826 02000000 		.4byte	.LVL1
 7709 082a 0C000000 		.4byte	.LVL4
 7710 082e 0200     		.2byte	0x2
 7711 0830 30       		.byte	0x30
 7712 0831 9F       		.byte	0x9f
 7713 0832 0C000000 		.4byte	.LVL4
 7714 0836 10000000 		.4byte	.LVL6
 7715 083a 0100     		.2byte	0x1
 7716 083c 53       		.byte	0x53
 7717 083d 1C000000 		.4byte	.LVL7
 7718 0841 2A000000 		.4byte	.LVL9
 7719 0845 0100     		.2byte	0x1
 7720 0847 53       		.byte	0x53
 7721 0848 00000000 		.4byte	0
 7722 084c 00000000 		.4byte	0
 7723              	.LVUS1:
 7724 0850 02       		.uleb128 .LVU4
 7725 0851 00       		.uleb128 .LVU13
 7726 0852 00       		.uleb128 .LVU13
 7727 0853 01       		.uleb128 .LVU24
 7728 0854 01       		.uleb128 .LVU24
 7729 0855 00       		.uleb128 .LVU27
 7730 0856 00       		.uleb128 .LVU27
 7731 0857 01       		.uleb128 .LVU28
 7732              	.LLST1:
 7733 0858 02000000 		.4byte	.LVL1
ARM GAS  C:\Users\EDULU~1.DES\AppData\Local\Temp\cc9dcV7d.s 			page 172


 7734 085c 0C000000 		.4byte	.LVL4
 7735 0860 0200     		.2byte	0x2
 7736 0862 30       		.byte	0x30
 7737 0863 9F       		.byte	0x9f
 7738 0864 0C000000 		.4byte	.LVL4
 7739 0868 24000000 		.4byte	.LVL8
 7740 086c 0100     		.2byte	0x1
 7741 086e 55       		.byte	0x55
 7742 086f 24000000 		.4byte	.LVL8
 7743 0873 2A000000 		.4byte	.LVL9
 7744 0877 0100     		.2byte	0x1
 7745 0879 53       		.byte	0x53
 7746 087a 2A000000 		.4byte	.LVL9
 7747 087e 2A000000 		.4byte	.LVL11
 7748 0882 0100     		.2byte	0x1
 7749 0884 55       		.byte	0x55
 7750 0885 00000000 		.4byte	0
 7751 0889 00000000 		.4byte	0
 7752              	.LVUS2:
 7753 088d 01       		.uleb128 .LVU10
 7754 088e 00       		.uleb128 .LVU13
 7755 088f 00       		.uleb128 .LVU13
 7756 0890 01       		.uleb128 .LVU28
 7757              	.LLST2:
 7758 0891 06000000 		.4byte	.LVL3
 7759 0895 0C000000 		.4byte	.LVL4
 7760 0899 0200     		.2byte	0x2
 7761 089b 30       		.byte	0x30
 7762 089c 9F       		.byte	0x9f
 7763 089d 0C000000 		.4byte	.LVL4
 7764 08a1 2A000000 		.4byte	.LVL10
 7765 08a5 0100     		.2byte	0x1
 7766 08a7 54       		.byte	0x54
 7767 08a8 00000000 		.4byte	0
 7768 08ac 00000000 		.4byte	0
 7769              	.LVUS3:
 7770 08b0 00       		.uleb128 .LVU7
 7771 08b1 00       		.uleb128 0
 7772              	.LLST3:
 7773 08b2 04000000 		.4byte	.LVL2
 7774 08b6 2C000000 		.4byte	.LFE5
 7775 08ba 0100     		.2byte	0x1
 7776 08bc 52       		.byte	0x52
 7777 08bd 00000000 		.4byte	0
 7778 08c1 00000000 		.4byte	0
 7779              	.LVUS90:
 7780 08c5 00       		.uleb128 0
 7781 08c6 00       		.uleb128 .LVU761
 7782 08c7 00       		.uleb128 .LVU761
 7783 08c8 00       		.uleb128 0
 7784              	.LLST90:
 7785 08c9 00000000 		.4byte	.LVL313
 7786 08cd 04000000 		.4byte	.LVL314
 7787 08d1 0100     		.2byte	0x1
 7788 08d3 50       		.byte	0x50
 7789 08d4 04000000 		.4byte	.LVL314
 7790 08d8 06000000 		.4byte	.LFE4
ARM GAS  C:\Users\EDULU~1.DES\AppData\Local\Temp\cc9dcV7d.s 			page 173


 7791 08dc 0400     		.2byte	0x4
 7792 08de F3       		.byte	0xf3
 7793 08df 01       		.uleb128 0x1
 7794 08e0 50       		.byte	0x50
 7795 08e1 9F       		.byte	0x9f
 7796 08e2 00000000 		.4byte	0
 7797 08e6 00000000 		.4byte	0
 7798              	.LVUS85:
 7799 08ea 00       		.uleb128 0
 7800 08eb 00       		.uleb128 .LVU723
 7801 08ec 00       		.uleb128 .LVU723
 7802 08ed 00       		.uleb128 .LVU757
 7803 08ee 00       		.uleb128 .LVU757
 7804 08ef 00       		.uleb128 0
 7805              	.LLST85:
 7806 08f0 00000000 		.4byte	.LVL293
 7807 08f4 10000000 		.4byte	.LVL295
 7808 08f8 0100     		.2byte	0x1
 7809 08fa 50       		.byte	0x50
 7810 08fb 10000000 		.4byte	.LVL295
 7811 08ff 60000000 		.4byte	.LVL312
 7812 0903 0100     		.2byte	0x1
 7813 0905 56       		.byte	0x56
 7814 0906 60000000 		.4byte	.LVL312
 7815 090a 62000000 		.4byte	.LFE3
 7816 090e 0400     		.2byte	0x4
 7817 0910 F3       		.byte	0xf3
 7818 0911 01       		.uleb128 0x1
 7819 0912 50       		.byte	0x50
 7820 0913 9F       		.byte	0x9f
 7821 0914 00000000 		.4byte	0
 7822 0918 00000000 		.4byte	0
 7823              	.LVUS86:
 7824 091c 00       		.uleb128 .LVU736
 7825 091d 00       		.uleb128 .LVU750
 7826              	.LLST86:
 7827 091e 2A000000 		.4byte	.LVL301
 7828 0922 50000000 		.4byte	.LVL308
 7829 0926 0100     		.2byte	0x1
 7830 0928 55       		.byte	0x55
 7831 0929 00000000 		.4byte	0
 7832 092d 00000000 		.4byte	0
 7833              	.LVUS87:
 7834 0931 00       		.uleb128 .LVU726
 7835 0932 00       		.uleb128 .LVU730
 7836 0933 00       		.uleb128 .LVU730
 7837 0934 00       		.uleb128 .LVU734
 7838 0935 00       		.uleb128 .LVU740
 7839 0936 00       		.uleb128 .LVU750
 7840 0937 00       		.uleb128 .LVU750
 7841 0938 00       		.uleb128 .LVU752
 7842 0939 00       		.uleb128 .LVU753
 7843 093a 00       		.uleb128 .LVU755
 7844              	.LLST87:
 7845 093b 16000000 		.4byte	.LVL297
 7846 093f 1E000000 		.4byte	.LVL298
 7847 0943 0100     		.2byte	0x1
ARM GAS  C:\Users\EDULU~1.DES\AppData\Local\Temp\cc9dcV7d.s 			page 174


 7848 0945 53       		.byte	0x53
 7849 0946 1E000000 		.4byte	.LVL298
 7850 094a 26000000 		.4byte	.LVL300
 7851 094e 0200     		.2byte	0x2
 7852 0950 74       		.byte	0x74
 7853 0951 00       		.sleb128 0
 7854 0952 32000000 		.4byte	.LVL302
 7855 0956 50000000 		.4byte	.LVL308
 7856 095a 0100     		.2byte	0x1
 7857 095c 54       		.byte	0x54
 7858 095d 50000000 		.4byte	.LVL308
 7859 0961 57000000 		.4byte	.LVL309-1
 7860 0965 0200     		.2byte	0x2
 7861 0967 74       		.byte	0x74
 7862 0968 00       		.sleb128 0
 7863 0969 5C000000 		.4byte	.LVL310
 7864 096d 5E000000 		.4byte	.LVL311
 7865 0971 0100     		.2byte	0x1
 7866 0973 53       		.byte	0x53
 7867 0974 00000000 		.4byte	0
 7868 0978 00000000 		.4byte	0
 7869              	.LVUS88:
 7870 097c 02       		.uleb128 .LVU721
 7871 097d 00       		.uleb128 .LVU736
 7872 097e 00       		.uleb128 .LVU736
 7873 097f 00       		.uleb128 .LVU741
 7874 0980 00       		.uleb128 .LVU748
 7875 0981 00       		.uleb128 .LVU750
 7876 0982 00       		.uleb128 .LVU750
 7877 0983 00       		.uleb128 .LVU755
 7878 0984 00       		.uleb128 .LVU755
 7879 0985 00       		.uleb128 0
 7880              	.LLST88:
 7881 0986 0A000000 		.4byte	.LVL294
 7882 098a 2A000000 		.4byte	.LVL301
 7883 098e 0200     		.2byte	0x2
 7884 0990 34       		.byte	0x34
 7885 0991 9F       		.byte	0x9f
 7886 0992 2A000000 		.4byte	.LVL301
 7887 0996 3A000000 		.4byte	.LVL303
 7888 099a 0100     		.2byte	0x1
 7889 099c 50       		.byte	0x50
 7890 099d 4C000000 		.4byte	.LVL306
 7891 09a1 50000000 		.4byte	.LVL308
 7892 09a5 0100     		.2byte	0x1
 7893 09a7 50       		.byte	0x50
 7894 09a8 50000000 		.4byte	.LVL308
 7895 09ac 5E000000 		.4byte	.LVL311
 7896 09b0 0200     		.2byte	0x2
 7897 09b2 34       		.byte	0x34
 7898 09b3 9F       		.byte	0x9f
 7899 09b4 5E000000 		.4byte	.LVL311
 7900 09b8 62000000 		.4byte	.LFE3
 7901 09bc 0100     		.2byte	0x1
 7902 09be 50       		.byte	0x50
 7903 09bf 00000000 		.4byte	0
 7904 09c3 00000000 		.4byte	0
ARM GAS  C:\Users\EDULU~1.DES\AppData\Local\Temp\cc9dcV7d.s 			page 175


 7905              	.LVUS89:
 7906 09c7 00       		.uleb128 .LVU731
 7907 09c8 00       		.uleb128 .LVU753
 7908              	.LLST89:
 7909 09c9 20000000 		.4byte	.LVL299
 7910 09cd 5C000000 		.4byte	.LVL310
 7911 09d1 0100     		.2byte	0x1
 7912 09d3 57       		.byte	0x57
 7913 09d4 00000000 		.4byte	0
 7914 09d8 00000000 		.4byte	0
 7915              	.LVUS70:
 7916 09dc 00       		.uleb128 0
 7917 09dd 00       		.uleb128 .LVU589
 7918 09de 00       		.uleb128 .LVU589
 7919 09df 00       		.uleb128 .LVU703
 7920 09e0 00       		.uleb128 .LVU703
 7921 09e1 00       		.uleb128 .LVU705
 7922 09e2 00       		.uleb128 .LVU705
 7923 09e3 00       		.uleb128 .LVU707
 7924 09e4 00       		.uleb128 .LVU708
 7925 09e5 00       		.uleb128 .LVU709
 7926 09e6 00       		.uleb128 .LVU709
 7927 09e7 00       		.uleb128 .LVU710
 7928 09e8 00       		.uleb128 .LVU710
 7929 09e9 00       		.uleb128 .LVU711
 7930 09ea 00       		.uleb128 .LVU711
 7931 09eb 00       		.uleb128 0
 7932              	.LLST70:
 7933 09ec 00000000 		.4byte	.LVL229
 7934 09f0 3A000000 		.4byte	.LVL234
 7935 09f4 0100     		.2byte	0x1
 7936 09f6 50       		.byte	0x50
 7937 09f7 3A000000 		.4byte	.LVL234
 7938 09fb 7C010000 		.4byte	.LVL284
 7939 09ff 0100     		.2byte	0x1
 7940 0a01 5A       		.byte	0x5a
 7941 0a02 7C010000 		.4byte	.LVL284
 7942 0a06 7E010000 		.4byte	.LVL285
 7943 0a0a 0100     		.2byte	0x1
 7944 0a0c 50       		.byte	0x50
 7945 0a0d 7E010000 		.4byte	.LVL285
 7946 0a11 80010000 		.4byte	.LVL287
 7947 0a15 0100     		.2byte	0x1
 7948 0a17 5A       		.byte	0x5a
 7949 0a18 8C010000 		.4byte	.LVL289
 7950 0a1c 8E010000 		.4byte	.LVL290
 7951 0a20 0100     		.2byte	0x1
 7952 0a22 50       		.byte	0x50
 7953 0a23 8E010000 		.4byte	.LVL290
 7954 0a27 90010000 		.4byte	.LVL291
 7955 0a2b 0100     		.2byte	0x1
 7956 0a2d 5A       		.byte	0x5a
 7957 0a2e 90010000 		.4byte	.LVL291
 7958 0a32 92010000 		.4byte	.LVL292
 7959 0a36 0100     		.2byte	0x1
 7960 0a38 50       		.byte	0x50
 7961 0a39 92010000 		.4byte	.LVL292
ARM GAS  C:\Users\EDULU~1.DES\AppData\Local\Temp\cc9dcV7d.s 			page 176


 7962 0a3d 94010000 		.4byte	.LFE2
 7963 0a41 0100     		.2byte	0x1
 7964 0a43 5A       		.byte	0x5a
 7965 0a44 00000000 		.4byte	0
 7966 0a48 00000000 		.4byte	0
 7967              	.LVUS71:
 7968 0a4c 00       		.uleb128 0
 7969 0a4d 00       		.uleb128 .LVU590
 7970 0a4e 00       		.uleb128 .LVU590
 7971 0a4f 00       		.uleb128 .LVU599
 7972 0a50 00       		.uleb128 .LVU599
 7973 0a51 00       		.uleb128 .LVU703
 7974 0a52 00       		.uleb128 .LVU703
 7975 0a53 00       		.uleb128 .LVU705
 7976 0a54 00       		.uleb128 .LVU705
 7977 0a55 00       		.uleb128 .LVU708
 7978 0a56 00       		.uleb128 .LVU708
 7979 0a57 00       		.uleb128 0
 7980              	.LLST71:
 7981 0a58 00000000 		.4byte	.LVL229
 7982 0a5c 3C000000 		.4byte	.LVL235
 7983 0a60 0100     		.2byte	0x1
 7984 0a62 51       		.byte	0x51
 7985 0a63 3C000000 		.4byte	.LVL235
 7986 0a67 52000000 		.4byte	.LVL240
 7987 0a6b 0300     		.2byte	0x3
 7988 0a6d 91       		.byte	0x91
 7989 0a6e B47E     		.sleb128 -204
 7990 0a70 52000000 		.4byte	.LVL240
 7991 0a74 7C010000 		.4byte	.LVL284
 7992 0a78 0400     		.2byte	0x4
 7993 0a7a F3       		.byte	0xf3
 7994 0a7b 01       		.uleb128 0x1
 7995 0a7c 51       		.byte	0x51
 7996 0a7d 9F       		.byte	0x9f
 7997 0a7e 7C010000 		.4byte	.LVL284
 7998 0a82 7E010000 		.4byte	.LVL285
 7999 0a86 0100     		.2byte	0x1
 8000 0a88 51       		.byte	0x51
 8001 0a89 7E010000 		.4byte	.LVL285
 8002 0a8d 8C010000 		.4byte	.LVL289
 8003 0a91 0400     		.2byte	0x4
 8004 0a93 F3       		.byte	0xf3
 8005 0a94 01       		.uleb128 0x1
 8006 0a95 51       		.byte	0x51
 8007 0a96 9F       		.byte	0x9f
 8008 0a97 8C010000 		.4byte	.LVL289
 8009 0a9b 94010000 		.4byte	.LFE2
 8010 0a9f 0100     		.2byte	0x1
 8011 0aa1 51       		.byte	0x51
 8012 0aa2 00000000 		.4byte	0
 8013 0aa6 00000000 		.4byte	0
 8014              	.LVUS72:
 8015 0aaa 00       		.uleb128 0
 8016 0aab 00       		.uleb128 .LVU585
 8017 0aac 00       		.uleb128 .LVU585
 8018 0aad 00       		.uleb128 .LVU703
ARM GAS  C:\Users\EDULU~1.DES\AppData\Local\Temp\cc9dcV7d.s 			page 177


 8019 0aae 00       		.uleb128 .LVU703
 8020 0aaf 00       		.uleb128 .LVU705
 8021 0ab0 00       		.uleb128 .LVU705
 8022 0ab1 00       		.uleb128 .LVU707
 8023 0ab2 00       		.uleb128 .LVU708
 8024 0ab3 00       		.uleb128 0
 8025              	.LLST72:
 8026 0ab4 00000000 		.4byte	.LVL229
 8027 0ab8 2A000000 		.4byte	.LVL233
 8028 0abc 0100     		.2byte	0x1
 8029 0abe 52       		.byte	0x52
 8030 0abf 2A000000 		.4byte	.LVL233
 8031 0ac3 7C010000 		.4byte	.LVL284
 8032 0ac7 0100     		.2byte	0x1
 8033 0ac9 5B       		.byte	0x5b
 8034 0aca 7C010000 		.4byte	.LVL284
 8035 0ace 7E010000 		.4byte	.LVL285
 8036 0ad2 0100     		.2byte	0x1
 8037 0ad4 52       		.byte	0x52
 8038 0ad5 7E010000 		.4byte	.LVL285
 8039 0ad9 80010000 		.4byte	.LVL288
 8040 0add 0100     		.2byte	0x1
 8041 0adf 5B       		.byte	0x5b
 8042 0ae0 8C010000 		.4byte	.LVL289
 8043 0ae4 94010000 		.4byte	.LFE2
 8044 0ae8 0100     		.2byte	0x1
 8045 0aea 5B       		.byte	0x5b
 8046 0aeb 00000000 		.4byte	0
 8047 0aef 00000000 		.4byte	0
 8048              	.LVUS73:
 8049 0af3 00       		.uleb128 0
 8050 0af4 00       		.uleb128 .LVU571
 8051 0af5 00       		.uleb128 .LVU571
 8052 0af6 00       		.uleb128 .LVU707
 8053 0af7 00       		.uleb128 .LVU707
 8054 0af8 00       		.uleb128 .LVU708
 8055 0af9 00       		.uleb128 .LVU708
 8056 0afa 00       		.uleb128 0
 8057              	.LLST73:
 8058 0afb 00000000 		.4byte	.LVL229
 8059 0aff 16000000 		.4byte	.LVL231
 8060 0b03 0100     		.2byte	0x1
 8061 0b05 53       		.byte	0x53
 8062 0b06 16000000 		.4byte	.LVL231
 8063 0b0a 80010000 		.4byte	.LVL286
 8064 0b0e 0100     		.2byte	0x1
 8065 0b10 55       		.byte	0x55
 8066 0b11 80010000 		.4byte	.LVL286
 8067 0b15 8C010000 		.4byte	.LVL289
 8068 0b19 0400     		.2byte	0x4
 8069 0b1b F3       		.byte	0xf3
 8070 0b1c 01       		.uleb128 0x1
 8071 0b1d 53       		.byte	0x53
 8072 0b1e 9F       		.byte	0x9f
 8073 0b1f 8C010000 		.4byte	.LVL289
 8074 0b23 94010000 		.4byte	.LFE2
 8075 0b27 0100     		.2byte	0x1
ARM GAS  C:\Users\EDULU~1.DES\AppData\Local\Temp\cc9dcV7d.s 			page 178


 8076 0b29 55       		.byte	0x55
 8077 0b2a 00000000 		.4byte	0
 8078 0b2e 00000000 		.4byte	0
 8079              	.LVUS74:
 8080 0b32 01       		.uleb128 .LVU565
 8081 0b33 00       		.uleb128 .LVU599
 8082 0b34 00       		.uleb128 .LVU647
 8083 0b35 00       		.uleb128 .LVU664
 8084 0b36 00       		.uleb128 .LVU697
 8085 0b37 00       		.uleb128 .LVU699
 8086 0b38 00       		.uleb128 .LVU702
 8087 0b39 00       		.uleb128 .LVU703
 8088 0b3a 00       		.uleb128 .LVU703
 8089 0b3b 00       		.uleb128 .LVU705
 8090 0b3c 00       		.uleb128 .LVU705
 8091 0b3d 00       		.uleb128 .LVU708
 8092 0b3e 00       		.uleb128 .LVU708
 8093 0b3f 00       		.uleb128 0
 8094              	.LLST74:
 8095 0b40 14000000 		.4byte	.LVL230
 8096 0b44 52000000 		.4byte	.LVL240
 8097 0b48 0200     		.2byte	0x2
 8098 0b4a 31       		.byte	0x31
 8099 0b4b 9F       		.byte	0x9f
 8100 0b4c E4000000 		.4byte	.LVL264
 8101 0b50 10010000 		.4byte	.LVL270
 8102 0b54 0100     		.2byte	0x1
 8103 0b56 50       		.byte	0x50
 8104 0b57 68010000 		.4byte	.LVL280
 8105 0b5b 6C010000 		.4byte	.LVL281
 8106 0b5f 0100     		.2byte	0x1
 8107 0b61 50       		.byte	0x50
 8108 0b62 7A010000 		.4byte	.LVL283
 8109 0b66 7C010000 		.4byte	.LVL284
 8110 0b6a 0100     		.2byte	0x1
 8111 0b6c 50       		.byte	0x50
 8112 0b6d 7C010000 		.4byte	.LVL284
 8113 0b71 7E010000 		.4byte	.LVL285
 8114 0b75 0200     		.2byte	0x2
 8115 0b77 31       		.byte	0x31
 8116 0b78 9F       		.byte	0x9f
 8117 0b79 7E010000 		.4byte	.LVL285
 8118 0b7d 8C010000 		.4byte	.LVL289
 8119 0b81 0100     		.2byte	0x1
 8120 0b83 50       		.byte	0x50
 8121 0b84 8C010000 		.4byte	.LVL289
 8122 0b88 94010000 		.4byte	.LFE2
 8123 0b8c 0200     		.2byte	0x2
 8124 0b8e 31       		.byte	0x31
 8125 0b8f 9F       		.byte	0x9f
 8126 0b90 00000000 		.4byte	0
 8127 0b94 00000000 		.4byte	0
 8128              	.LVUS75:
 8129 0b98 00       		.uleb128 .LVU604
 8130 0b99 00       		.uleb128 .LVU644
 8131 0b9a 00       		.uleb128 .LVU645
 8132 0b9b 00       		.uleb128 .LVU658
ARM GAS  C:\Users\EDULU~1.DES\AppData\Local\Temp\cc9dcV7d.s 			page 179


 8133 0b9c 00       		.uleb128 .LVU697
 8134 0b9d 00       		.uleb128 .LVU703
 8135              	.LLST75:
 8136 0b9e 64000000 		.4byte	.LVL243
 8137 0ba2 D6000000 		.4byte	.LVL262
 8138 0ba6 0100     		.2byte	0x1
 8139 0ba8 54       		.byte	0x54
 8140 0ba9 DA000000 		.4byte	.LVL263
 8141 0bad FE000000 		.4byte	.LVL267
 8142 0bb1 0100     		.2byte	0x1
 8143 0bb3 54       		.byte	0x54
 8144 0bb4 68010000 		.4byte	.LVL280
 8145 0bb8 7C010000 		.4byte	.LVL284
 8146 0bbc 0100     		.2byte	0x1
 8147 0bbe 54       		.byte	0x54
 8148 0bbf 00000000 		.4byte	0
 8149 0bc3 00000000 		.4byte	0
 8150              	.LVUS76:
 8151 0bc7 01       		.uleb128 .LVU596
 8152 0bc8 00       		.uleb128 .LVU599
 8153 0bc9 00       		.uleb128 .LVU599
 8154 0bca 00       		.uleb128 .LVU703
 8155              	.LLST76:
 8156 0bcb 4C000000 		.4byte	.LVL239
 8157 0bcf 52000000 		.4byte	.LVL240
 8158 0bd3 0200     		.2byte	0x2
 8159 0bd5 30       		.byte	0x30
 8160 0bd6 9F       		.byte	0x9f
 8161 0bd7 52000000 		.4byte	.LVL240
 8162 0bdb 7C010000 		.4byte	.LVL284
 8163 0bdf 0100     		.2byte	0x1
 8164 0be1 59       		.byte	0x59
 8165 0be2 00000000 		.4byte	0
 8166 0be6 00000000 		.4byte	0
 8167              	.LVUS77:
 8168 0bea 00       		.uleb128 .LVU609
 8169 0beb 00       		.uleb128 .LVU613
 8170 0bec 00       		.uleb128 .LVU625
 8171 0bed 00       		.uleb128 .LVU627
 8172 0bee 00       		.uleb128 .LVU627
 8173 0bef 00       		.uleb128 .LVU628
 8174              	.LLST77:
 8175 0bf0 74000000 		.4byte	.LVL245
 8176 0bf4 7A000000 		.4byte	.LVL246
 8177 0bf8 0100     		.2byte	0x1
 8178 0bfa 51       		.byte	0x51
 8179 0bfb 98000000 		.4byte	.LVL251
 8180 0bff A6000000 		.4byte	.LVL252
 8181 0c03 0100     		.2byte	0x1
 8182 0c05 51       		.byte	0x51
 8183 0c06 A6000000 		.4byte	.LVL252
 8184 0c0a AB000000 		.4byte	.LVL253-1
 8185 0c0e 0100     		.2byte	0x1
 8186 0c10 53       		.byte	0x53
 8187 0c11 00000000 		.4byte	0
 8188 0c15 00000000 		.4byte	0
 8189              	.LVUS78:
ARM GAS  C:\Users\EDULU~1.DES\AppData\Local\Temp\cc9dcV7d.s 			page 180


 8190 0c19 00       		.uleb128 .LVU606
 8191 0c1a 00       		.uleb128 .LVU615
 8192 0c1b 00       		.uleb128 .LVU624
 8193 0c1c 00       		.uleb128 .LVU625
 8194 0c1d 00       		.uleb128 .LVU625
 8195 0c1e 00       		.uleb128 .LVU635
 8196 0c1f 00       		.uleb128 .LVU636
 8197 0c20 00       		.uleb128 .LVU639
 8198 0c21 00       		.uleb128 .LVU639
 8199 0c22 00       		.uleb128 .LVU640
 8200 0c23 00       		.uleb128 .LVU649
 8201 0c24 00       		.uleb128 .LVU653
 8202 0c25 00       		.uleb128 .LVU697
 8203 0c26 00       		.uleb128 .LVU700
 8204 0c27 00       		.uleb128 .LVU700
 8205 0c28 00       		.uleb128 .LVU702
 8206              	.LLST78:
 8207 0c29 66000000 		.4byte	.LVL244
 8208 0c2d 7E000000 		.4byte	.LVL247
 8209 0c31 0100     		.2byte	0x1
 8210 0c33 56       		.byte	0x56
 8211 0c34 96000000 		.4byte	.LVL250
 8212 0c38 98000000 		.4byte	.LVL251
 8213 0c3c 0100     		.2byte	0x1
 8214 0c3e 50       		.byte	0x50
 8215 0c3f 98000000 		.4byte	.LVL251
 8216 0c43 BC000000 		.4byte	.LVL257
 8217 0c47 0100     		.2byte	0x1
 8218 0c49 56       		.byte	0x56
 8219 0c4a C0000000 		.4byte	.LVL258
 8220 0c4e C7000000 		.4byte	.LVL259-1
 8221 0c52 0100     		.2byte	0x1
 8222 0c54 51       		.byte	0x51
 8223 0c55 C7000000 		.4byte	.LVL259-1
 8224 0c59 CA000000 		.4byte	.LVL260
 8225 0c5d 0300     		.2byte	0x3
 8226 0c5f 76       		.byte	0x76
 8227 0c60 0C       		.sleb128 12
 8228 0c61 9F       		.byte	0x9f
 8229 0c62 E6000000 		.4byte	.LVL265
 8230 0c66 F0000000 		.4byte	.LVL266
 8231 0c6a 0100     		.2byte	0x1
 8232 0c6c 52       		.byte	0x52
 8233 0c6d 68010000 		.4byte	.LVL280
 8234 0c71 72010000 		.4byte	.LVL282
 8235 0c75 0100     		.2byte	0x1
 8236 0c77 52       		.byte	0x52
 8237 0c78 72010000 		.4byte	.LVL282
 8238 0c7c 79010000 		.4byte	.LVL283-1
 8239 0c80 0100     		.2byte	0x1
 8240 0c82 50       		.byte	0x50
 8241 0c83 00000000 		.4byte	0
 8242 0c87 00000000 		.4byte	0
 8243              	.LVUS79:
 8244 0c8b 00       		.uleb128 .LVU599
 8245 0c8c 00       		.uleb128 .LVU601
 8246 0c8d 00       		.uleb128 .LVU675
ARM GAS  C:\Users\EDULU~1.DES\AppData\Local\Temp\cc9dcV7d.s 			page 181


 8247 0c8e 00       		.uleb128 .LVU687
 8248              	.LLST79:
 8249 0c8f 52000000 		.4byte	.LVL240
 8250 0c93 58000000 		.4byte	.LVL241
 8251 0c97 0100     		.2byte	0x1
 8252 0c99 51       		.byte	0x51
 8253 0c9a 28010000 		.4byte	.LVL274
 8254 0c9e 4B010000 		.4byte	.LVL278-1
 8255 0ca2 0100     		.2byte	0x1
 8256 0ca4 51       		.byte	0x51
 8257 0ca5 00000000 		.4byte	0
 8258 0ca9 00000000 		.4byte	0
 8259              	.LVUS80:
 8260 0cad 00       		.uleb128 .LVU581
 8261 0cae 00       		.uleb128 .LVU590
 8262 0caf 00       		.uleb128 .LVU590
 8263 0cb0 00       		.uleb128 .LVU703
 8264 0cb1 00       		.uleb128 .LVU703
 8265 0cb2 00       		.uleb128 .LVU705
 8266 0cb3 00       		.uleb128 .LVU705
 8267 0cb4 00       		.uleb128 .LVU708
 8268 0cb5 00       		.uleb128 .LVU708
 8269 0cb6 00       		.uleb128 0
 8270              	.LLST80:
 8271 0cb7 20000000 		.4byte	.LVL232
 8272 0cbb 3C000000 		.4byte	.LVL235
 8273 0cbf 0100     		.2byte	0x1
 8274 0cc1 51       		.byte	0x51
 8275 0cc2 3C000000 		.4byte	.LVL235
 8276 0cc6 7C010000 		.4byte	.LVL284
 8277 0cca 0300     		.2byte	0x3
 8278 0ccc 91       		.byte	0x91
 8279 0ccd B47E     		.sleb128 -204
 8280 0ccf 7C010000 		.4byte	.LVL284
 8281 0cd3 7E010000 		.4byte	.LVL285
 8282 0cd7 0100     		.2byte	0x1
 8283 0cd9 51       		.byte	0x51
 8284 0cda 7E010000 		.4byte	.LVL285
 8285 0cde 8C010000 		.4byte	.LVL289
 8286 0ce2 0300     		.2byte	0x3
 8287 0ce4 91       		.byte	0x91
 8288 0ce5 B47E     		.sleb128 -204
 8289 0ce7 8C010000 		.4byte	.LVL289
 8290 0ceb 94010000 		.4byte	.LFE2
 8291 0cef 0100     		.2byte	0x1
 8292 0cf1 51       		.byte	0x51
 8293 0cf2 00000000 		.4byte	0
 8294 0cf6 00000000 		.4byte	0
 8295              	.LVUS81:
 8296 0cfa 00       		.uleb128 .LVU592
 8297 0cfb 00       		.uleb128 .LVU594
 8298 0cfc 00       		.uleb128 .LVU594
 8299 0cfd 00       		.uleb128 .LVU703
 8300              	.LLST81:
 8301 0cfe 48000000 		.4byte	.LVL237
 8302 0d02 4A000000 		.4byte	.LVL238
 8303 0d06 0100     		.2byte	0x1
ARM GAS  C:\Users\EDULU~1.DES\AppData\Local\Temp\cc9dcV7d.s 			page 182


 8304 0d08 53       		.byte	0x53
 8305 0d09 4A000000 		.4byte	.LVL238
 8306 0d0d 7C010000 		.4byte	.LVL284
 8307 0d11 0300     		.2byte	0x3
 8308 0d13 91       		.byte	0x91
 8309 0d14 B87E     		.sleb128 -200
 8310 0d16 00000000 		.4byte	0
 8311 0d1a 00000000 		.4byte	0
 8312              	.LVUS82:
 8313 0d1e 00       		.uleb128 .LVU599
 8314 0d1f 00       		.uleb128 .LVU604
 8315 0d20 00       		.uleb128 .LVU604
 8316 0d21 00       		.uleb128 .LVU629
 8317 0d22 00       		.uleb128 .LVU629
 8318 0d23 00       		.uleb128 .LVU630
 8319 0d24 00       		.uleb128 .LVU630
 8320 0d25 00       		.uleb128 .LVU644
 8321 0d26 00       		.uleb128 .LVU644
 8322 0d27 00       		.uleb128 .LVU645
 8323 0d28 00       		.uleb128 .LVU645
 8324 0d29 00       		.uleb128 .LVU658
 8325 0d2a 01       		.uleb128 .LVU660
 8326 0d2b 00       		.uleb128 .LVU697
 8327 0d2c 00       		.uleb128 .LVU697
 8328 0d2d 00       		.uleb128 .LVU703
 8329              	.LLST82:
 8330 0d2e 52000000 		.4byte	.LVL240
 8331 0d32 64000000 		.4byte	.LVL243
 8332 0d36 0200     		.2byte	0x2
 8333 0d38 30       		.byte	0x30
 8334 0d39 9F       		.byte	0x9f
 8335 0d3a 64000000 		.4byte	.LVL243
 8336 0d3e AE000000 		.4byte	.LVL254
 8337 0d42 0100     		.2byte	0x1
 8338 0d44 57       		.byte	0x57
 8339 0d45 AE000000 		.4byte	.LVL254
 8340 0d49 B0000000 		.4byte	.LVL255
 8341 0d4d 0100     		.2byte	0x1
 8342 0d4f 50       		.byte	0x50
 8343 0d50 B0000000 		.4byte	.LVL255
 8344 0d54 D6000000 		.4byte	.LVL262
 8345 0d58 0100     		.2byte	0x1
 8346 0d5a 57       		.byte	0x57
 8347 0d5b D6000000 		.4byte	.LVL262
 8348 0d5f DA000000 		.4byte	.LVL263
 8349 0d63 0200     		.2byte	0x2
 8350 0d65 30       		.byte	0x30
 8351 0d66 9F       		.byte	0x9f
 8352 0d67 DA000000 		.4byte	.LVL263
 8353 0d6b FE000000 		.4byte	.LVL267
 8354 0d6f 0100     		.2byte	0x1
 8355 0d71 57       		.byte	0x57
 8356 0d72 04010000 		.4byte	.LVL268
 8357 0d76 68010000 		.4byte	.LVL280
 8358 0d7a 0200     		.2byte	0x2
 8359 0d7c 30       		.byte	0x30
 8360 0d7d 9F       		.byte	0x9f
ARM GAS  C:\Users\EDULU~1.DES\AppData\Local\Temp\cc9dcV7d.s 			page 183


 8361 0d7e 68010000 		.4byte	.LVL280
 8362 0d82 7C010000 		.4byte	.LVL284
 8363 0d86 0100     		.2byte	0x1
 8364 0d88 57       		.byte	0x57
 8365 0d89 00000000 		.4byte	0
 8366 0d8d 00000000 		.4byte	0
 8367              	.LVUS83:
 8368 0d91 00       		.uleb128 .LVU599
 8369 0d92 00       		.uleb128 .LVU604
 8370 0d93 00       		.uleb128 .LVU604
 8371 0d94 00       		.uleb128 .LVU644
 8372 0d95 00       		.uleb128 .LVU644
 8373 0d96 00       		.uleb128 .LVU645
 8374 0d97 00       		.uleb128 .LVU645
 8375 0d98 00       		.uleb128 .LVU658
 8376 0d99 00       		.uleb128 .LVU663
 8377 0d9a 00       		.uleb128 .LVU696
 8378 0d9b 00       		.uleb128 .LVU696
 8379 0d9c 00       		.uleb128 .LVU697
 8380 0d9d 00       		.uleb128 .LVU697
 8381 0d9e 00       		.uleb128 .LVU703
 8382              	.LLST83:
 8383 0d9f 52000000 		.4byte	.LVL240
 8384 0da3 64000000 		.4byte	.LVL243
 8385 0da7 0100     		.2byte	0x1
 8386 0da9 57       		.byte	0x57
 8387 0daa 64000000 		.4byte	.LVL243
 8388 0dae D6000000 		.4byte	.LVL262
 8389 0db2 0100     		.2byte	0x1
 8390 0db4 58       		.byte	0x58
 8391 0db5 D6000000 		.4byte	.LVL262
 8392 0db9 DA000000 		.4byte	.LVL263
 8393 0dbd 0100     		.2byte	0x1
 8394 0dbf 57       		.byte	0x57
 8395 0dc0 DA000000 		.4byte	.LVL263
 8396 0dc4 FE000000 		.4byte	.LVL267
 8397 0dc8 0100     		.2byte	0x1
 8398 0dca 58       		.byte	0x58
 8399 0dcb 08010000 		.4byte	.LVL269
 8400 0dcf 64010000 		.4byte	.LVL279
 8401 0dd3 0100     		.2byte	0x1
 8402 0dd5 57       		.byte	0x57
 8403 0dd6 64010000 		.4byte	.LVL279
 8404 0dda 68010000 		.4byte	.LVL280
 8405 0dde 0100     		.2byte	0x1
 8406 0de0 53       		.byte	0x53
 8407 0de1 68010000 		.4byte	.LVL280
 8408 0de5 7C010000 		.4byte	.LVL284
 8409 0de9 0100     		.2byte	0x1
 8410 0deb 58       		.byte	0x58
 8411 0dec 00000000 		.4byte	0
 8412 0df0 00000000 		.4byte	0
 8413              	.LVUS84:
 8414 0df4 00       		.uleb128 .LVU633
 8415 0df5 00       		.uleb128 .LVU639
 8416              	.LLST84:
 8417 0df6 B6000000 		.4byte	.LVL256
ARM GAS  C:\Users\EDULU~1.DES\AppData\Local\Temp\cc9dcV7d.s 			page 184


 8418 0dfa C7000000 		.4byte	.LVL259-1
 8419 0dfe 0100     		.2byte	0x1
 8420 0e00 50       		.byte	0x50
 8421 0e01 00000000 		.4byte	0
 8422 0e05 00000000 		.4byte	0
 8423              	.LVUS46:
 8424 0e09 00       		.uleb128 0
 8425 0e0a 00       		.uleb128 .LVU393
 8426 0e0b 00       		.uleb128 .LVU393
 8427 0e0c 00       		.uleb128 .LVU405
 8428 0e0d 00       		.uleb128 .LVU405
 8429 0e0e 00       		.uleb128 .LVU410
 8430 0e0f 00       		.uleb128 .LVU410
 8431 0e10 00       		.uleb128 .LVU428
 8432 0e11 00       		.uleb128 .LVU428
 8433 0e12 00       		.uleb128 .LVU429
 8434 0e13 00       		.uleb128 .LVU429
 8435 0e14 00       		.uleb128 .LVU431
 8436 0e15 00       		.uleb128 .LVU431
 8437 0e16 00       		.uleb128 .LVU432
 8438 0e17 00       		.uleb128 .LVU432
 8439 0e18 00       		.uleb128 .LVU436
 8440 0e19 00       		.uleb128 .LVU436
 8441 0e1a 00       		.uleb128 .LVU556
 8442 0e1b 00       		.uleb128 .LVU556
 8443 0e1c 00       		.uleb128 .LVU558
 8444 0e1d 00       		.uleb128 .LVU558
 8445 0e1e 00       		.uleb128 .LVU561
 8446 0e1f 00       		.uleb128 .LVU561
 8447 0e20 00       		.uleb128 0
 8448              	.LLST46:
 8449 0e21 00000000 		.4byte	.LVL137
 8450 0e25 4C000000 		.4byte	.LVL148
 8451 0e29 0100     		.2byte	0x1
 8452 0e2b 50       		.byte	0x50
 8453 0e2c 4C000000 		.4byte	.LVL148
 8454 0e30 78000000 		.4byte	.LVL153
 8455 0e34 0100     		.2byte	0x1
 8456 0e36 59       		.byte	0x59
 8457 0e37 78000000 		.4byte	.LVL153
 8458 0e3b 82000000 		.4byte	.LVL155
 8459 0e3f 0100     		.2byte	0x1
 8460 0e41 52       		.byte	0x52
 8461 0e42 82000000 		.4byte	.LVL155
 8462 0e46 B2000000 		.4byte	.LVL161
 8463 0e4a 0100     		.2byte	0x1
 8464 0e4c 59       		.byte	0x59
 8465 0e4d B2000000 		.4byte	.LVL161
 8466 0e51 B4000000 		.4byte	.LVL162
 8467 0e55 0100     		.2byte	0x1
 8468 0e57 53       		.byte	0x53
 8469 0e58 B4000000 		.4byte	.LVL162
 8470 0e5c B8000000 		.4byte	.LVL164
 8471 0e60 0100     		.2byte	0x1
 8472 0e62 5A       		.byte	0x5a
 8473 0e63 B8000000 		.4byte	.LVL164
 8474 0e67 BA000000 		.4byte	.LVL165
ARM GAS  C:\Users\EDULU~1.DES\AppData\Local\Temp\cc9dcV7d.s 			page 185


 8475 0e6b 0100     		.2byte	0x1
 8476 0e6d 57       		.byte	0x57
 8477 0e6e BA000000 		.4byte	.LVL165
 8478 0e72 C6000000 		.4byte	.LVL169
 8479 0e76 0100     		.2byte	0x1
 8480 0e78 59       		.byte	0x59
 8481 0e79 C6000000 		.4byte	.LVL169
 8482 0e7d FE010000 		.4byte	.LVL224
 8483 0e81 0200     		.2byte	0x2
 8484 0e83 91       		.byte	0x91
 8485 0e84 50       		.sleb128 -48
 8486 0e85 FE010000 		.4byte	.LVL224
 8487 0e89 02020000 		.4byte	.LVL225
 8488 0e8d 0100     		.2byte	0x1
 8489 0e8f 50       		.byte	0x50
 8490 0e90 02020000 		.4byte	.LVL225
 8491 0e94 12020000 		.4byte	.LVL228
 8492 0e98 0400     		.2byte	0x4
 8493 0e9a F3       		.byte	0xf3
 8494 0e9b 01       		.uleb128 0x1
 8495 0e9c 50       		.byte	0x50
 8496 0e9d 9F       		.byte	0x9f
 8497 0e9e 12020000 		.4byte	.LVL228
 8498 0ea2 1E020000 		.4byte	.LFE1
 8499 0ea6 0100     		.2byte	0x1
 8500 0ea8 50       		.byte	0x50
 8501 0ea9 00000000 		.4byte	0
 8502 0ead 00000000 		.4byte	0
 8503              	.LVUS47:
 8504 0eb1 00       		.uleb128 0
 8505 0eb2 00       		.uleb128 .LVU373
 8506 0eb3 00       		.uleb128 .LVU373
 8507 0eb4 00       		.uleb128 .LVU436
 8508 0eb5 00       		.uleb128 .LVU436
 8509 0eb6 00       		.uleb128 .LVU556
 8510 0eb7 00       		.uleb128 .LVU556
 8511 0eb8 00       		.uleb128 .LVU558
 8512 0eb9 00       		.uleb128 .LVU558
 8513 0eba 00       		.uleb128 .LVU561
 8514 0ebb 00       		.uleb128 .LVU561
 8515 0ebc 00       		.uleb128 0
 8516              	.LLST47:
 8517 0ebd 00000000 		.4byte	.LVL137
 8518 0ec1 24000000 		.4byte	.LVL141
 8519 0ec5 0100     		.2byte	0x1
 8520 0ec7 51       		.byte	0x51
 8521 0ec8 24000000 		.4byte	.LVL141
 8522 0ecc C6000000 		.4byte	.LVL169
 8523 0ed0 0100     		.2byte	0x1
 8524 0ed2 55       		.byte	0x55
 8525 0ed3 C6000000 		.4byte	.LVL169
 8526 0ed7 FE010000 		.4byte	.LVL224
 8527 0edb 0200     		.2byte	0x2
 8528 0edd 91       		.byte	0x91
 8529 0ede 48       		.sleb128 -56
 8530 0edf FE010000 		.4byte	.LVL224
 8531 0ee3 02020000 		.4byte	.LVL225
ARM GAS  C:\Users\EDULU~1.DES\AppData\Local\Temp\cc9dcV7d.s 			page 186


 8532 0ee7 0100     		.2byte	0x1
 8533 0ee9 51       		.byte	0x51
 8534 0eea 02020000 		.4byte	.LVL225
 8535 0eee 12020000 		.4byte	.LVL228
 8536 0ef2 0200     		.2byte	0x2
 8537 0ef4 91       		.byte	0x91
 8538 0ef5 48       		.sleb128 -56
 8539 0ef6 12020000 		.4byte	.LVL228
 8540 0efa 1E020000 		.4byte	.LFE1
 8541 0efe 0100     		.2byte	0x1
 8542 0f00 55       		.byte	0x55
 8543 0f01 00000000 		.4byte	0
 8544 0f05 00000000 		.4byte	0
 8545              	.LVUS48:
 8546 0f09 00       		.uleb128 0
 8547 0f0a 00       		.uleb128 .LVU379
 8548 0f0b 00       		.uleb128 .LVU379
 8549 0f0c 00       		.uleb128 .LVU436
 8550 0f0d 00       		.uleb128 .LVU436
 8551 0f0e 00       		.uleb128 .LVU556
 8552 0f0f 00       		.uleb128 .LVU556
 8553 0f10 00       		.uleb128 .LVU558
 8554 0f11 00       		.uleb128 .LVU558
 8555 0f12 00       		.uleb128 .LVU561
 8556 0f13 00       		.uleb128 .LVU561
 8557 0f14 00       		.uleb128 0
 8558              	.LLST48:
 8559 0f15 00000000 		.4byte	.LVL137
 8560 0f19 32000000 		.4byte	.LVL143
 8561 0f1d 0100     		.2byte	0x1
 8562 0f1f 52       		.byte	0x52
 8563 0f20 32000000 		.4byte	.LVL143
 8564 0f24 C6000000 		.4byte	.LVL169
 8565 0f28 0100     		.2byte	0x1
 8566 0f2a 58       		.byte	0x58
 8567 0f2b C6000000 		.4byte	.LVL169
 8568 0f2f FE010000 		.4byte	.LVL224
 8569 0f33 0400     		.2byte	0x4
 8570 0f35 F3       		.byte	0xf3
 8571 0f36 01       		.uleb128 0x1
 8572 0f37 52       		.byte	0x52
 8573 0f38 9F       		.byte	0x9f
 8574 0f39 FE010000 		.4byte	.LVL224
 8575 0f3d 02020000 		.4byte	.LVL225
 8576 0f41 0100     		.2byte	0x1
 8577 0f43 52       		.byte	0x52
 8578 0f44 02020000 		.4byte	.LVL225
 8579 0f48 12020000 		.4byte	.LVL228
 8580 0f4c 0400     		.2byte	0x4
 8581 0f4e F3       		.byte	0xf3
 8582 0f4f 01       		.uleb128 0x1
 8583 0f50 52       		.byte	0x52
 8584 0f51 9F       		.byte	0x9f
 8585 0f52 12020000 		.4byte	.LVL228
 8586 0f56 1E020000 		.4byte	.LFE1
 8587 0f5a 0100     		.2byte	0x1
 8588 0f5c 52       		.byte	0x52
ARM GAS  C:\Users\EDULU~1.DES\AppData\Local\Temp\cc9dcV7d.s 			page 187


 8589 0f5d 00000000 		.4byte	0
 8590 0f61 00000000 		.4byte	0
 8591              	.LVUS49:
 8592 0f65 00       		.uleb128 0
 8593 0f66 00       		.uleb128 .LVU370
 8594 0f67 00       		.uleb128 .LVU370
 8595 0f68 00       		.uleb128 .LVU430
 8596 0f69 00       		.uleb128 .LVU430
 8597 0f6a 00       		.uleb128 .LVU432
 8598 0f6b 00       		.uleb128 .LVU432
 8599 0f6c 00       		.uleb128 .LVU436
 8600 0f6d 00       		.uleb128 .LVU436
 8601 0f6e 00       		.uleb128 .LVU493
 8602 0f6f 00       		.uleb128 .LVU493
 8603 0f70 00       		.uleb128 .LVU560
 8604 0f71 00       		.uleb128 .LVU560
 8605 0f72 00       		.uleb128 .LVU561
 8606 0f73 00       		.uleb128 .LVU561
 8607 0f74 00       		.uleb128 0
 8608              	.LLST49:
 8609 0f75 00000000 		.4byte	.LVL137
 8610 0f79 1A000000 		.4byte	.LVL140
 8611 0f7d 0100     		.2byte	0x1
 8612 0f7f 53       		.byte	0x53
 8613 0f80 1A000000 		.4byte	.LVL140
 8614 0f84 B6000000 		.4byte	.LVL163
 8615 0f88 0100     		.2byte	0x1
 8616 0f8a 57       		.byte	0x57
 8617 0f8b B6000000 		.4byte	.LVL163
 8618 0f8f BA000000 		.4byte	.LVL165
 8619 0f93 0100     		.2byte	0x1
 8620 0f95 53       		.byte	0x53
 8621 0f96 BA000000 		.4byte	.LVL165
 8622 0f9a C6000000 		.4byte	.LVL169
 8623 0f9e 0100     		.2byte	0x1
 8624 0fa0 57       		.byte	0x57
 8625 0fa1 C6000000 		.4byte	.LVL169
 8626 0fa5 50010000 		.4byte	.LVL196
 8627 0fa9 0100     		.2byte	0x1
 8628 0fab 5A       		.byte	0x5a
 8629 0fac 50010000 		.4byte	.LVL196
 8630 0fb0 06020000 		.4byte	.LVL226
 8631 0fb4 0100     		.2byte	0x1
 8632 0fb6 57       		.byte	0x57
 8633 0fb7 06020000 		.4byte	.LVL226
 8634 0fbb 12020000 		.4byte	.LVL228
 8635 0fbf 0400     		.2byte	0x4
 8636 0fc1 F3       		.byte	0xf3
 8637 0fc2 01       		.uleb128 0x1
 8638 0fc3 53       		.byte	0x53
 8639 0fc4 9F       		.byte	0x9f
 8640 0fc5 12020000 		.4byte	.LVL228
 8641 0fc9 1E020000 		.4byte	.LFE1
 8642 0fcd 0100     		.2byte	0x1
 8643 0fcf 57       		.byte	0x57
 8644 0fd0 00000000 		.4byte	0
 8645 0fd4 00000000 		.4byte	0
ARM GAS  C:\Users\EDULU~1.DES\AppData\Local\Temp\cc9dcV7d.s 			page 188


 8646              	.LVUS50:
 8647 0fd8 01       		.uleb128 .LVU358
 8648 0fd9 00       		.uleb128 .LVU436
 8649 0fda 01       		.uleb128 .LVU444
 8650 0fdb 00       		.uleb128 .LVU445
 8651 0fdc 00       		.uleb128 .LVU445
 8652 0fdd 00       		.uleb128 .LVU456
 8653 0fde 00       		.uleb128 .LVU485
 8654 0fdf 00       		.uleb128 .LVU493
 8655 0fe0 00       		.uleb128 .LVU493
 8656 0fe1 00       		.uleb128 .LVU554
 8657 0fe2 00       		.uleb128 .LVU554
 8658 0fe3 00       		.uleb128 .LVU556
 8659 0fe4 00       		.uleb128 .LVU556
 8660 0fe5 00       		.uleb128 .LVU558
 8661 0fe6 00       		.uleb128 .LVU558
 8662 0fe7 00       		.uleb128 .LVU560
 8663 0fe8 00       		.uleb128 .LVU561
 8664 0fe9 00       		.uleb128 0
 8665              	.LLST50:
 8666 0fea 16000000 		.4byte	.LVL138
 8667 0fee C6000000 		.4byte	.LVL169
 8668 0ff2 0200     		.2byte	0x2
 8669 0ff4 31       		.byte	0x31
 8670 0ff5 9F       		.byte	0x9f
 8671 0ff6 D4000000 		.4byte	.LVL173
 8672 0ffa D6000000 		.4byte	.LVL174
 8673 0ffe 0200     		.2byte	0x2
 8674 1000 30       		.byte	0x30
 8675 1001 9F       		.byte	0x9f
 8676 1002 D6000000 		.4byte	.LVL174
 8677 1006 E8000000 		.4byte	.LVL179
 8678 100a 0100     		.2byte	0x1
 8679 100c 50       		.byte	0x50
 8680 100d 3A010000 		.4byte	.LVL189
 8681 1011 50010000 		.4byte	.LVL196
 8682 1015 0100     		.2byte	0x1
 8683 1017 50       		.byte	0x50
 8684 1018 50010000 		.4byte	.LVL196
 8685 101c F8010000 		.4byte	.LVL223
 8686 1020 0100     		.2byte	0x1
 8687 1022 5B       		.byte	0x5b
 8688 1023 F8010000 		.4byte	.LVL223
 8689 1027 FE010000 		.4byte	.LVL224
 8690 102b 0100     		.2byte	0x1
 8691 102d 50       		.byte	0x50
 8692 102e FE010000 		.4byte	.LVL224
 8693 1032 02020000 		.4byte	.LVL225
 8694 1036 0200     		.2byte	0x2
 8695 1038 31       		.byte	0x31
 8696 1039 9F       		.byte	0x9f
 8697 103a 02020000 		.4byte	.LVL225
 8698 103e 06020000 		.4byte	.LVL227
 8699 1042 0100     		.2byte	0x1
 8700 1044 5B       		.byte	0x5b
 8701 1045 12020000 		.4byte	.LVL228
 8702 1049 1E020000 		.4byte	.LFE1
ARM GAS  C:\Users\EDULU~1.DES\AppData\Local\Temp\cc9dcV7d.s 			page 189


 8703 104d 0200     		.2byte	0x2
 8704 104f 31       		.byte	0x31
 8705 1050 9F       		.byte	0x9f
 8706 1051 00000000 		.4byte	0
 8707 1055 00000000 		.4byte	0
 8708              	.LVUS51:
 8709 1059 01       		.uleb128 .LVU398
 8710 105a 00       		.uleb128 .LVU400
 8711 105b 00       		.uleb128 .LVU400
 8712 105c 00       		.uleb128 .LVU408
 8713 105d 01       		.uleb128 .LVU425
 8714 105e 00       		.uleb128 .LVU432
 8715 105f 00       		.uleb128 .LVU436
 8716 1060 00       		.uleb128 .LVU453
 8717 1061 00       		.uleb128 .LVU453
 8718 1062 00       		.uleb128 .LVU462
 8719 1063 00       		.uleb128 .LVU462
 8720 1064 00       		.uleb128 .LVU490
 8721 1065 00       		.uleb128 .LVU490
 8722 1066 00       		.uleb128 .LVU493
 8723 1067 00       		.uleb128 .LVU503
 8724 1068 00       		.uleb128 .LVU556
 8725              	.LLST51:
 8726 1069 5A000000 		.4byte	.LVL150
 8727 106d 60000000 		.4byte	.LVL151
 8728 1071 0200     		.2byte	0x2
 8729 1073 30       		.byte	0x30
 8730 1074 9F       		.byte	0x9f
 8731 1075 60000000 		.4byte	.LVL151
 8732 1079 7E000000 		.4byte	.LVL154
 8733 107d 0100     		.2byte	0x1
 8734 107f 54       		.byte	0x54
 8735 1080 A6000000 		.4byte	.LVL160
 8736 1084 BA000000 		.4byte	.LVL165
 8737 1088 0200     		.2byte	0x2
 8738 108a 30       		.byte	0x30
 8739 108b 9F       		.byte	0x9f
 8740 108c C6000000 		.4byte	.LVL169
 8741 1090 E2000000 		.4byte	.LVL178
 8742 1094 0300     		.2byte	0x3
 8743 1096 76       		.byte	0x76
 8744 1097 7F       		.sleb128 -1
 8745 1098 9F       		.byte	0x9f
 8746 1099 E2000000 		.4byte	.LVL178
 8747 109d F8000000 		.4byte	.LVL182
 8748 10a1 0100     		.2byte	0x1
 8749 10a3 56       		.byte	0x56
 8750 10a4 F8000000 		.4byte	.LVL182
 8751 10a8 48010000 		.4byte	.LVL193
 8752 10ac 0300     		.2byte	0x3
 8753 10ae 76       		.byte	0x76
 8754 10af 7F       		.sleb128 -1
 8755 10b0 9F       		.byte	0x9f
 8756 10b1 48010000 		.4byte	.LVL193
 8757 10b5 50010000 		.4byte	.LVL196
 8758 10b9 0100     		.2byte	0x1
 8759 10bb 56       		.byte	0x56
ARM GAS  C:\Users\EDULU~1.DES\AppData\Local\Temp\cc9dcV7d.s 			page 190


 8760 10bc 6A010000 		.4byte	.LVL200
 8761 10c0 FE010000 		.4byte	.LVL224
 8762 10c4 0100     		.2byte	0x1
 8763 10c6 54       		.byte	0x54
 8764 10c7 00000000 		.4byte	0
 8765 10cb 00000000 		.4byte	0
 8766              	.LVUS52:
 8767 10cf 00       		.uleb128 .LVU438
 8768 10d0 00       		.uleb128 .LVU453
 8769 10d1 00       		.uleb128 .LVU465
 8770 10d2 00       		.uleb128 .LVU490
 8771 10d3 00       		.uleb128 .LVU509
 8772 10d4 00       		.uleb128 .LVU514
 8773 10d5 00       		.uleb128 .LVU543
 8774 10d6 00       		.uleb128 .LVU551
 8775 10d7 00       		.uleb128 .LVU551
 8776 10d8 00       		.uleb128 .LVU553
 8777              	.LLST52:
 8778 10d9 CA000000 		.4byte	.LVL170
 8779 10dd E2000000 		.4byte	.LVL178
 8780 10e1 0100     		.2byte	0x1
 8781 10e3 55       		.byte	0x55
 8782 10e4 00010000 		.4byte	.LVL183
 8783 10e8 48010000 		.4byte	.LVL193
 8784 10ec 0100     		.2byte	0x1
 8785 10ee 55       		.byte	0x55
 8786 10ef 86010000 		.4byte	.LVL204
 8787 10f3 8F010000 		.4byte	.LVL207-1
 8788 10f7 0100     		.2byte	0x1
 8789 10f9 52       		.byte	0x52
 8790 10fa DE010000 		.4byte	.LVL217
 8791 10fe F0010000 		.4byte	.LVL220
 8792 1102 0100     		.2byte	0x1
 8793 1104 52       		.byte	0x52
 8794 1105 F0010000 		.4byte	.LVL220
 8795 1109 F5010000 		.4byte	.LVL222-1
 8796 110d 0100     		.2byte	0x1
 8797 110f 53       		.byte	0x53
 8798 1110 00000000 		.4byte	0
 8799 1114 00000000 		.4byte	0
 8800              	.LVUS53:
 8801 1118 00       		.uleb128 .LVU397
 8802 1119 00       		.uleb128 .LVU400
 8803 111a 00       		.uleb128 .LVU400
 8804 111b 00       		.uleb128 .LVU556
 8805              	.LLST53:
 8806 111c 5A000000 		.4byte	.LVL150
 8807 1120 60000000 		.4byte	.LVL151
 8808 1124 0100     		.2byte	0x1
 8809 1126 53       		.byte	0x53
 8810 1127 60000000 		.4byte	.LVL151
 8811 112b FE010000 		.4byte	.LVL224
 8812 112f 0300     		.2byte	0x3
 8813 1131 91       		.byte	0x91
 8814 1132 BC7F     		.sleb128 -68
 8815 1134 00000000 		.4byte	0
 8816 1138 00000000 		.4byte	0
ARM GAS  C:\Users\EDULU~1.DES\AppData\Local\Temp\cc9dcV7d.s 			page 191


 8817              	.LVUS54:
 8818 113c 00       		.uleb128 .LVU436
 8819 113d 00       		.uleb128 .LVU441
 8820 113e 00       		.uleb128 .LVU441
 8821 113f 00       		.uleb128 .LVU447
 8822 1140 00       		.uleb128 .LVU460
 8823 1141 00       		.uleb128 .LVU485
 8824 1142 00       		.uleb128 .LVU485
 8825 1143 00       		.uleb128 .LVU489
 8826              	.LLST54:
 8827 1144 C6000000 		.4byte	.LVL169
 8828 1148 CE000000 		.4byte	.LVL171
 8829 114c 0100     		.2byte	0x1
 8830 114e 52       		.byte	0x52
 8831 114f CE000000 		.4byte	.LVL171
 8832 1153 D8000000 		.4byte	.LVL175
 8833 1157 0800     		.2byte	0x8
 8834 1159 77       		.byte	0x77
 8835 115a 00       		.sleb128 0
 8836 115b 08       		.byte	0x8
 8837 115c 3F       		.byte	0x3f
 8838 115d 1A       		.byte	0x1a
 8839 115e 23       		.byte	0x23
 8840 115f 40       		.uleb128 0x40
 8841 1160 9F       		.byte	0x9f
 8842 1161 F6000000 		.4byte	.LVL181
 8843 1165 39010000 		.4byte	.LVL189-1
 8844 1169 0100     		.2byte	0x1
 8845 116b 52       		.byte	0x52
 8846 116c 39010000 		.4byte	.LVL189-1
 8847 1170 46010000 		.4byte	.LVL192
 8848 1174 0800     		.2byte	0x8
 8849 1176 77       		.byte	0x77
 8850 1177 00       		.sleb128 0
 8851 1178 08       		.byte	0x8
 8852 1179 3F       		.byte	0x3f
 8853 117a 1A       		.byte	0x1a
 8854 117b 23       		.byte	0x23
 8855 117c 40       		.uleb128 0x40
 8856 117d 9F       		.byte	0x9f
 8857 117e 00000000 		.4byte	0
 8858 1182 00000000 		.4byte	0
 8859              	.LVUS55:
 8860 1186 00       		.uleb128 .LVU436
 8861 1187 00       		.uleb128 .LVU442
 8862 1188 00       		.uleb128 .LVU457
 8863 1189 00       		.uleb128 .LVU476
 8864 118a 00       		.uleb128 .LVU476
 8865 118b 00       		.uleb128 .LVU478
 8866 118c 00       		.uleb128 .LVU478
 8867 118d 00       		.uleb128 .LVU479
 8868 118e 00       		.uleb128 .LVU479
 8869 118f 00       		.uleb128 .LVU480
 8870 1190 00       		.uleb128 .LVU480
 8871 1191 00       		.uleb128 .LVU485
 8872 1192 00       		.uleb128 .LVU506
 8873 1193 00       		.uleb128 .LVU513
ARM GAS  C:\Users\EDULU~1.DES\AppData\Local\Temp\cc9dcV7d.s 			page 192


 8874 1194 00       		.uleb128 .LVU519
 8875 1195 00       		.uleb128 .LVU553
 8876              	.LLST55:
 8877 1196 C6000000 		.4byte	.LVL169
 8878 119a D0000000 		.4byte	.LVL172
 8879 119e 0100     		.2byte	0x1
 8880 11a0 50       		.byte	0x50
 8881 11a1 EE000000 		.4byte	.LVL180
 8882 11a5 1E010000 		.4byte	.LVL185
 8883 11a9 0100     		.2byte	0x1
 8884 11ab 50       		.byte	0x50
 8885 11ac 1E010000 		.4byte	.LVL185
 8886 11b0 22010000 		.4byte	.LVL186
 8887 11b4 0D00     		.2byte	0xd
 8888 11b6 74       		.byte	0x74
 8889 11b7 00       		.sleb128 0
 8890 11b8 37       		.byte	0x37
 8891 11b9 24       		.byte	0x24
 8892 11ba 73       		.byte	0x73
 8893 11bb 00       		.sleb128 0
 8894 11bc 37       		.byte	0x37
 8895 11bd 24       		.byte	0x24
 8896 11be 1C       		.byte	0x1c
 8897 11bf 7C       		.byte	0x7c
 8898 11c0 00       		.sleb128 0
 8899 11c1 22       		.byte	0x22
 8900 11c2 9F       		.byte	0x9f
 8901 11c3 22010000 		.4byte	.LVL186
 8902 11c7 24010000 		.4byte	.LVL187
 8903 11cb 0E00     		.2byte	0xe
 8904 11cd 74       		.byte	0x74
 8905 11ce 00       		.sleb128 0
 8906 11cf 37       		.byte	0x37
 8907 11d0 24       		.byte	0x24
 8908 11d1 73       		.byte	0x73
 8909 11d2 04       		.sleb128 4
 8910 11d3 06       		.byte	0x6
 8911 11d4 37       		.byte	0x37
 8912 11d5 24       		.byte	0x24
 8913 11d6 1C       		.byte	0x1c
 8914 11d7 7C       		.byte	0x7c
 8915 11d8 00       		.sleb128 0
 8916 11d9 22       		.byte	0x22
 8917 11da 9F       		.byte	0x9f
 8918 11db 24010000 		.4byte	.LVL187
 8919 11df 26010000 		.4byte	.LVL188
 8920 11e3 0E00     		.2byte	0xe
 8921 11e5 74       		.byte	0x74
 8922 11e6 00       		.sleb128 0
 8923 11e7 37       		.byte	0x37
 8924 11e8 24       		.byte	0x24
 8925 11e9 7A       		.byte	0x7a
 8926 11ea 04       		.sleb128 4
 8927 11eb 06       		.byte	0x6
 8928 11ec 37       		.byte	0x37
 8929 11ed 24       		.byte	0x24
 8930 11ee 1C       		.byte	0x1c
ARM GAS  C:\Users\EDULU~1.DES\AppData\Local\Temp\cc9dcV7d.s 			page 193


 8931 11ef 7C       		.byte	0x7c
 8932 11f0 00       		.sleb128 0
 8933 11f1 22       		.byte	0x22
 8934 11f2 9F       		.byte	0x9f
 8935 11f3 26010000 		.4byte	.LVL188
 8936 11f7 39010000 		.4byte	.LVL189-1
 8937 11fb 0100     		.2byte	0x1
 8938 11fd 50       		.byte	0x50
 8939 11fe 72010000 		.4byte	.LVL202
 8940 1202 8C010000 		.4byte	.LVL206
 8941 1206 0100     		.2byte	0x1
 8942 1208 50       		.byte	0x50
 8943 1209 9E010000 		.4byte	.LVL209
 8944 120d F5010000 		.4byte	.LVL222-1
 8945 1211 0100     		.2byte	0x1
 8946 1213 50       		.byte	0x50
 8947 1214 00000000 		.4byte	0
 8948 1218 00000000 		.4byte	0
 8949              	.LVUS56:
 8950 121c 00       		.uleb128 .LVU412
 8951 121d 00       		.uleb128 .LVU436
 8952 121e 00       		.uleb128 .LVU436
 8953 121f 00       		.uleb128 .LVU556
 8954              	.LLST56:
 8955 1220 88000000 		.4byte	.LVL156
 8956 1224 C6000000 		.4byte	.LVL169
 8957 1228 0100     		.2byte	0x1
 8958 122a 52       		.byte	0x52
 8959 122b C6000000 		.4byte	.LVL169
 8960 122f FE010000 		.4byte	.LVL224
 8961 1233 0200     		.2byte	0x2
 8962 1235 91       		.byte	0x91
 8963 1236 44       		.sleb128 -60
 8964 1237 00000000 		.4byte	0
 8965 123b 00000000 		.4byte	0
 8966              	.LVUS57:
 8967 123f 08       		.uleb128 .LVU365
 8968 1240 00       		.uleb128 .LVU408
 8969 1241 00       		.uleb128 .LVU408
 8970 1242 00       		.uleb128 .LVU498
 8971 1243 00       		.uleb128 .LVU556
 8972 1244 00       		.uleb128 .LVU558
 8973 1245 00       		.uleb128 .LVU561
 8974 1246 00       		.uleb128 0
 8975              	.LLST57:
 8976 1247 16000000 		.4byte	.LVL138
 8977 124b 7E000000 		.4byte	.LVL154
 8978 124f 0200     		.2byte	0x2
 8979 1251 30       		.byte	0x30
 8980 1252 9F       		.byte	0x9f
 8981 1253 7E000000 		.4byte	.LVL154
 8982 1257 5E010000 		.4byte	.LVL197
 8983 125b 0100     		.2byte	0x1
 8984 125d 54       		.byte	0x54
 8985 125e FE010000 		.4byte	.LVL224
 8986 1262 02020000 		.4byte	.LVL225
 8987 1266 0200     		.2byte	0x2
ARM GAS  C:\Users\EDULU~1.DES\AppData\Local\Temp\cc9dcV7d.s 			page 194


 8988 1268 30       		.byte	0x30
 8989 1269 9F       		.byte	0x9f
 8990 126a 12020000 		.4byte	.LVL228
 8991 126e 1E020000 		.4byte	.LFE1
 8992 1272 0200     		.2byte	0x2
 8993 1274 30       		.byte	0x30
 8994 1275 9F       		.byte	0x9f
 8995 1276 00000000 		.4byte	0
 8996 127a 00000000 		.4byte	0
 8997              	.LVUS58:
 8998 127e 09       		.uleb128 .LVU366
 8999 127f 00       		.uleb128 .LVU408
 9000 1280 00       		.uleb128 .LVU408
 9001 1281 00       		.uleb128 .LVU436
 9002 1282 00       		.uleb128 .LVU556
 9003 1283 00       		.uleb128 .LVU558
 9004 1284 00       		.uleb128 .LVU561
 9005 1285 00       		.uleb128 0
 9006              	.LLST58:
 9007 1286 16000000 		.4byte	.LVL138
 9008 128a 7E000000 		.4byte	.LVL154
 9009 128e 0200     		.2byte	0x2
 9010 1290 30       		.byte	0x30
 9011 1291 9F       		.byte	0x9f
 9012 1292 7E000000 		.4byte	.LVL154
 9013 1296 C6000000 		.4byte	.LVL169
 9014 129a 0100     		.2byte	0x1
 9015 129c 54       		.byte	0x54
 9016 129d FE010000 		.4byte	.LVL224
 9017 12a1 02020000 		.4byte	.LVL225
 9018 12a5 0200     		.2byte	0x2
 9019 12a7 30       		.byte	0x30
 9020 12a8 9F       		.byte	0x9f
 9021 12a9 12020000 		.4byte	.LVL228
 9022 12ad 1E020000 		.4byte	.LFE1
 9023 12b1 0200     		.2byte	0x2
 9024 12b3 30       		.byte	0x30
 9025 12b4 9F       		.byte	0x9f
 9026 12b5 00000000 		.4byte	0
 9027 12b9 00000000 		.4byte	0
 9028              	.LVUS59:
 9029 12bd 00       		.uleb128 .LVU368
 9030 12be 00       		.uleb128 .LVU373
 9031 12bf 00       		.uleb128 .LVU373
 9032 12c0 00       		.uleb128 .LVU436
 9033 12c1 00       		.uleb128 .LVU436
 9034 12c2 00       		.uleb128 .LVU488
 9035 12c3 00       		.uleb128 .LVU490
 9036 12c4 00       		.uleb128 .LVU492
 9037 12c5 00       		.uleb128 .LVU509
 9038 12c6 00       		.uleb128 .LVU514
 9039 12c7 00       		.uleb128 .LVU545
 9040 12c8 00       		.uleb128 .LVU553
 9041 12c9 00       		.uleb128 .LVU556
 9042 12ca 00       		.uleb128 .LVU558
 9043 12cb 00       		.uleb128 .LVU561
 9044 12cc 00       		.uleb128 0
ARM GAS  C:\Users\EDULU~1.DES\AppData\Local\Temp\cc9dcV7d.s 			page 195


 9045              	.LLST59:
 9046 12cd 18000000 		.4byte	.LVL139
 9047 12d1 24000000 		.4byte	.LVL141
 9048 12d5 0100     		.2byte	0x1
 9049 12d7 51       		.byte	0x51
 9050 12d8 24000000 		.4byte	.LVL141
 9051 12dc C6000000 		.4byte	.LVL169
 9052 12e0 0100     		.2byte	0x1
 9053 12e2 55       		.byte	0x55
 9054 12e3 C6000000 		.4byte	.LVL169
 9055 12e7 44010000 		.4byte	.LVL191
 9056 12eb 0100     		.2byte	0x1
 9057 12ed 59       		.byte	0x59
 9058 12ee 48010000 		.4byte	.LVL193
 9059 12f2 4E010000 		.4byte	.LVL195
 9060 12f6 0100     		.2byte	0x1
 9061 12f8 59       		.byte	0x59
 9062 12f9 86010000 		.4byte	.LVL204
 9063 12fd 8F010000 		.4byte	.LVL207-1
 9064 1301 0100     		.2byte	0x1
 9065 1303 5C       		.byte	0x5c
 9066 1304 E4010000 		.4byte	.LVL218
 9067 1308 F5010000 		.4byte	.LVL222-1
 9068 130c 0100     		.2byte	0x1
 9069 130e 5C       		.byte	0x5c
 9070 130f FE010000 		.4byte	.LVL224
 9071 1313 02020000 		.4byte	.LVL225
 9072 1317 0100     		.2byte	0x1
 9073 1319 51       		.byte	0x51
 9074 131a 12020000 		.4byte	.LVL228
 9075 131e 1E020000 		.4byte	.LFE1
 9076 1322 0100     		.2byte	0x1
 9077 1324 55       		.byte	0x55
 9078 1325 00000000 		.4byte	0
 9079 1329 00000000 		.4byte	0
 9080              	.LVUS60:
 9081 132d 01       		.uleb128 .LVU376
 9082 132e 00       		.uleb128 .LVU393
 9083 132f 00       		.uleb128 .LVU393
 9084 1330 00       		.uleb128 .LVU405
 9085 1331 00       		.uleb128 .LVU405
 9086 1332 00       		.uleb128 .LVU410
 9087 1333 00       		.uleb128 .LVU410
 9088 1334 00       		.uleb128 .LVU428
 9089 1335 00       		.uleb128 .LVU428
 9090 1336 00       		.uleb128 .LVU429
 9091 1337 00       		.uleb128 .LVU429
 9092 1338 00       		.uleb128 .LVU431
 9093 1339 00       		.uleb128 .LVU431
 9094 133a 00       		.uleb128 .LVU432
 9095 133b 00       		.uleb128 .LVU432
 9096 133c 00       		.uleb128 .LVU436
 9097 133d 00       		.uleb128 .LVU436
 9098 133e 00       		.uleb128 .LVU489
 9099 133f 00       		.uleb128 .LVU490
 9100 1340 00       		.uleb128 .LVU493
 9101 1341 00       		.uleb128 .LVU537
ARM GAS  C:\Users\EDULU~1.DES\AppData\Local\Temp\cc9dcV7d.s 			page 196


 9102 1342 00       		.uleb128 .LVU543
 9103              	.LLST60:
 9104 1343 30000000 		.4byte	.LVL142
 9105 1347 4C000000 		.4byte	.LVL148
 9106 134b 0100     		.2byte	0x1
 9107 134d 50       		.byte	0x50
 9108 134e 4C000000 		.4byte	.LVL148
 9109 1352 78000000 		.4byte	.LVL153
 9110 1356 0100     		.2byte	0x1
 9111 1358 59       		.byte	0x59
 9112 1359 78000000 		.4byte	.LVL153
 9113 135d 82000000 		.4byte	.LVL155
 9114 1361 0100     		.2byte	0x1
 9115 1363 52       		.byte	0x52
 9116 1364 82000000 		.4byte	.LVL155
 9117 1368 B2000000 		.4byte	.LVL161
 9118 136c 0100     		.2byte	0x1
 9119 136e 59       		.byte	0x59
 9120 136f B2000000 		.4byte	.LVL161
 9121 1373 B4000000 		.4byte	.LVL162
 9122 1377 0100     		.2byte	0x1
 9123 1379 53       		.byte	0x53
 9124 137a B4000000 		.4byte	.LVL162
 9125 137e B8000000 		.4byte	.LVL164
 9126 1382 0100     		.2byte	0x1
 9127 1384 5A       		.byte	0x5a
 9128 1385 B8000000 		.4byte	.LVL164
 9129 1389 BA000000 		.4byte	.LVL165
 9130 138d 0100     		.2byte	0x1
 9131 138f 57       		.byte	0x57
 9132 1390 BA000000 		.4byte	.LVL165
 9133 1394 C6000000 		.4byte	.LVL169
 9134 1398 0100     		.2byte	0x1
 9135 139a 59       		.byte	0x59
 9136 139b C6000000 		.4byte	.LVL169
 9137 139f 46010000 		.4byte	.LVL192
 9138 13a3 0100     		.2byte	0x1
 9139 13a5 57       		.byte	0x57
 9140 13a6 48010000 		.4byte	.LVL193
 9141 13aa 50010000 		.4byte	.LVL196
 9142 13ae 0100     		.2byte	0x1
 9143 13b0 57       		.byte	0x57
 9144 13b1 CE010000 		.4byte	.LVL214
 9145 13b5 DE010000 		.4byte	.LVL217
 9146 13b9 0100     		.2byte	0x1
 9147 13bb 52       		.byte	0x52
 9148 13bc 00000000 		.4byte	0
 9149 13c0 00000000 		.4byte	0
 9150              	.LVUS61:
 9151 13c4 02       		.uleb128 .LVU377
 9152 13c5 00       		.uleb128 .LVU379
 9153 13c6 00       		.uleb128 .LVU379
 9154 13c7 00       		.uleb128 .LVU449
 9155 13c8 00       		.uleb128 .LVU449
 9156 13c9 00       		.uleb128 .LVU453
 9157 13ca 00       		.uleb128 .LVU453
 9158 13cb 00       		.uleb128 .LVU504
ARM GAS  C:\Users\EDULU~1.DES\AppData\Local\Temp\cc9dcV7d.s 			page 197


 9159              	.LLST61:
 9160 13cc 30000000 		.4byte	.LVL142
 9161 13d0 32000000 		.4byte	.LVL143
 9162 13d4 0100     		.2byte	0x1
 9163 13d6 52       		.byte	0x52
 9164 13d7 32000000 		.4byte	.LVL143
 9165 13db DE000000 		.4byte	.LVL176
 9166 13df 0100     		.2byte	0x1
 9167 13e1 58       		.byte	0x58
 9168 13e2 DE000000 		.4byte	.LVL176
 9169 13e6 E2000000 		.4byte	.LVL178
 9170 13ea 0100     		.2byte	0x1
 9171 13ec 53       		.byte	0x53
 9172 13ed E2000000 		.4byte	.LVL178
 9173 13f1 6E010000 		.4byte	.LVL201
 9174 13f5 0100     		.2byte	0x1
 9175 13f7 58       		.byte	0x58
 9176 13f8 00000000 		.4byte	0
 9177 13fc 00000000 		.4byte	0
 9178              	.LVUS62:
 9179 1400 00       		.uleb128 .LVU381
 9180 1401 00       		.uleb128 .LVU386
 9181 1402 00       		.uleb128 .LVU386
 9182 1403 00       		.uleb128 .LVU395
 9183 1404 00       		.uleb128 .LVU395
 9184 1405 00       		.uleb128 .LVU556
 9185              	.LLST62:
 9186 1406 38000000 		.4byte	.LVL144
 9187 140a 3E000000 		.4byte	.LVL145
 9188 140e 0100     		.2byte	0x1
 9189 1410 52       		.byte	0x52
 9190 1411 3E000000 		.4byte	.LVL145
 9191 1415 51000000 		.4byte	.LVL149-1
 9192 1419 0200     		.2byte	0x2
 9193 141b 7A       		.byte	0x7a
 9194 141c 00       		.sleb128 0
 9195 141d 51000000 		.4byte	.LVL149-1
 9196 1421 FE010000 		.4byte	.LVL224
 9197 1425 0200     		.2byte	0x2
 9198 1427 91       		.byte	0x91
 9199 1428 54       		.sleb128 -44
 9200 1429 00000000 		.4byte	0
 9201 142d 00000000 		.4byte	0
 9202              	.LVUS63:
 9203 1431 01       		.uleb128 .LVU382
 9204 1432 00       		.uleb128 .LVU424
 9205 1433 00       		.uleb128 .LVU424
 9206 1434 00       		.uleb128 .LVU432
 9207 1435 00       		.uleb128 .LVU432
 9208 1436 00       		.uleb128 .LVU436
 9209 1437 00       		.uleb128 .LVU436
 9210 1438 00       		.uleb128 .LVU556
 9211              	.LLST63:
 9212 1439 38000000 		.4byte	.LVL144
 9213 143d A6000000 		.4byte	.LVL160
 9214 1441 0200     		.2byte	0x2
 9215 1443 30       		.byte	0x30
ARM GAS  C:\Users\EDULU~1.DES\AppData\Local\Temp\cc9dcV7d.s 			page 198


 9216 1444 9F       		.byte	0x9f
 9217 1445 A6000000 		.4byte	.LVL160
 9218 1449 BA000000 		.4byte	.LVL165
 9219 144d 0200     		.2byte	0x2
 9220 144f 91       		.byte	0x91
 9221 1450 40       		.sleb128 -64
 9222 1451 BA000000 		.4byte	.LVL165
 9223 1455 C6000000 		.4byte	.LVL169
 9224 1459 0200     		.2byte	0x2
 9225 145b 30       		.byte	0x30
 9226 145c 9F       		.byte	0x9f
 9227 145d C6000000 		.4byte	.LVL169
 9228 1461 FE010000 		.4byte	.LVL224
 9229 1465 0200     		.2byte	0x2
 9230 1467 91       		.byte	0x91
 9231 1468 40       		.sleb128 -64
 9232 1469 00000000 		.4byte	0
 9233 146d 00000000 		.4byte	0
 9234              	.LVUS64:
 9235 1471 00       		.uleb128 .LVU388
 9236 1472 00       		.uleb128 .LVU392
 9237 1473 00       		.uleb128 .LVU392
 9238 1474 00       		.uleb128 .LVU487
 9239 1475 00       		.uleb128 .LVU487
 9240 1476 00       		.uleb128 .LVU490
 9241 1477 00       		.uleb128 .LVU490
 9242 1478 00       		.uleb128 .LVU491
 9243 1479 00       		.uleb128 .LVU491
 9244 147a 00       		.uleb128 .LVU499
 9245 147b 00       		.uleb128 .LVU499
 9246 147c 00       		.uleb128 .LVU503
 9247              	.LLST64:
 9248 147d 44000000 		.4byte	.LVL146
 9249 1481 4A000000 		.4byte	.LVL147
 9250 1485 0100     		.2byte	0x1
 9251 1487 53       		.byte	0x53
 9252 1488 4A000000 		.4byte	.LVL147
 9253 148c 40010000 		.4byte	.LVL190
 9254 1490 0100     		.2byte	0x1
 9255 1492 5B       		.byte	0x5b
 9256 1493 40010000 		.4byte	.LVL190
 9257 1497 48010000 		.4byte	.LVL193
 9258 149b 1000     		.2byte	0x10
 9259 149d 91       		.byte	0x91
 9260 149e 4C       		.sleb128 -52
 9261 149f 06       		.byte	0x6
 9262 14a0 31       		.byte	0x31
 9263 14a1 1C       		.byte	0x1c
 9264 14a2 36       		.byte	0x36
 9265 14a3 25       		.byte	0x25
 9266 14a4 91       		.byte	0x91
 9267 14a5 50       		.sleb128 -48
 9268 14a6 06       		.byte	0x6
 9269 14a7 36       		.byte	0x36
 9270 14a8 25       		.byte	0x25
 9271 14a9 1C       		.byte	0x1c
 9272 14aa 23       		.byte	0x23
ARM GAS  C:\Users\EDULU~1.DES\AppData\Local\Temp\cc9dcV7d.s 			page 199


 9273 14ab 01       		.uleb128 0x1
 9274 14ac 9F       		.byte	0x9f
 9275 14ad 48010000 		.4byte	.LVL193
 9276 14b1 4A010000 		.4byte	.LVL194
 9277 14b5 0100     		.2byte	0x1
 9278 14b7 5B       		.byte	0x5b
 9279 14b8 4A010000 		.4byte	.LVL194
 9280 14bc 64010000 		.4byte	.LVL198
 9281 14c0 1000     		.2byte	0x10
 9282 14c2 91       		.byte	0x91
 9283 14c3 4C       		.sleb128 -52
 9284 14c4 06       		.byte	0x6
 9285 14c5 31       		.byte	0x31
 9286 14c6 1C       		.byte	0x1c
 9287 14c7 36       		.byte	0x36
 9288 14c8 25       		.byte	0x25
 9289 14c9 91       		.byte	0x91
 9290 14ca 50       		.sleb128 -48
 9291 14cb 06       		.byte	0x6
 9292 14cc 36       		.byte	0x36
 9293 14cd 25       		.byte	0x25
 9294 14ce 1C       		.byte	0x1c
 9295 14cf 23       		.byte	0x23
 9296 14d0 01       		.uleb128 0x1
 9297 14d1 9F       		.byte	0x9f
 9298 14d2 64010000 		.4byte	.LVL198
 9299 14d6 6A010000 		.4byte	.LVL200
 9300 14da 0100     		.2byte	0x1
 9301 14dc 54       		.byte	0x54
 9302 14dd 00000000 		.4byte	0
 9303 14e1 00000000 		.4byte	0
 9304              	.LVUS65:
 9305 14e5 00       		.uleb128 .LVU417
 9306 14e6 00       		.uleb128 .LVU421
 9307 14e7 00       		.uleb128 .LVU421
 9308 14e8 00       		.uleb128 .LVU422
 9309 14e9 00       		.uleb128 .LVU432
 9310 14ea 00       		.uleb128 .LVU433
 9311 14eb 00       		.uleb128 .LVU433
 9312 14ec 00       		.uleb128 .LVU434
 9313 14ed 00       		.uleb128 .LVU434
 9314 14ee 00       		.uleb128 .LVU435
 9315 14ef 00       		.uleb128 .LVU435
 9316 14f0 00       		.uleb128 .LVU436
 9317              	.LLST65:
 9318 14f1 94000000 		.4byte	.LVL157
 9319 14f5 9E000000 		.4byte	.LVL158
 9320 14f9 0100     		.2byte	0x1
 9321 14fb 53       		.byte	0x53
 9322 14fc 9E000000 		.4byte	.LVL158
 9323 1500 A2000000 		.4byte	.LVL159
 9324 1504 0800     		.2byte	0x8
 9325 1506 74       		.byte	0x74
 9326 1507 00       		.sleb128 0
 9327 1508 7B       		.byte	0x7b
 9328 1509 00       		.sleb128 0
 9329 150a 22       		.byte	0x22
ARM GAS  C:\Users\EDULU~1.DES\AppData\Local\Temp\cc9dcV7d.s 			page 200


 9330 150b 31       		.byte	0x31
 9331 150c 1C       		.byte	0x1c
 9332 150d 9F       		.byte	0x9f
 9333 150e BA000000 		.4byte	.LVL165
 9334 1512 BC000000 		.4byte	.LVL166
 9335 1516 0100     		.2byte	0x1
 9336 1518 53       		.byte	0x53
 9337 1519 BC000000 		.4byte	.LVL166
 9338 151d C0000000 		.4byte	.LVL167
 9339 1521 0800     		.2byte	0x8
 9340 1523 74       		.byte	0x74
 9341 1524 00       		.sleb128 0
 9342 1525 7B       		.byte	0x7b
 9343 1526 00       		.sleb128 0
 9344 1527 22       		.byte	0x22
 9345 1528 31       		.byte	0x31
 9346 1529 1C       		.byte	0x1c
 9347 152a 9F       		.byte	0x9f
 9348 152b C0000000 		.4byte	.LVL167
 9349 152f C2000000 		.4byte	.LVL168
 9350 1533 0100     		.2byte	0x1
 9351 1535 53       		.byte	0x53
 9352 1536 C2000000 		.4byte	.LVL168
 9353 153a C6000000 		.4byte	.LVL169
 9354 153e 0800     		.2byte	0x8
 9355 1540 74       		.byte	0x74
 9356 1541 00       		.sleb128 0
 9357 1542 7B       		.byte	0x7b
 9358 1543 00       		.sleb128 0
 9359 1544 22       		.byte	0x22
 9360 1545 31       		.byte	0x31
 9361 1546 1C       		.byte	0x1c
 9362 1547 9F       		.byte	0x9f
 9363 1548 00000000 		.4byte	0
 9364 154c 00000000 		.4byte	0
 9365              	.LVUS66:
 9366 1550 00       		.uleb128 .LVU506
 9367 1551 00       		.uleb128 .LVU509
 9368 1552 00       		.uleb128 .LVU509
 9369 1553 00       		.uleb128 .LVU513
 9370 1554 00       		.uleb128 .LVU523
 9371 1555 00       		.uleb128 .LVU539
 9372 1556 00       		.uleb128 .LVU539
 9373 1557 00       		.uleb128 .LVU550
 9374              	.LLST66:
 9375 1558 72010000 		.4byte	.LVL202
 9376 155c 86010000 		.4byte	.LVL204
 9377 1560 0100     		.2byte	0x1
 9378 1562 53       		.byte	0x53
 9379 1563 86010000 		.4byte	.LVL204
 9380 1567 8C010000 		.4byte	.LVL206
 9381 156b 0200     		.2byte	0x2
 9382 156d 70       		.byte	0x70
 9383 156e 04       		.sleb128 4
 9384 156f A4010000 		.4byte	.LVL210
 9385 1573 D0010000 		.4byte	.LVL215
 9386 1577 0100     		.2byte	0x1
ARM GAS  C:\Users\EDULU~1.DES\AppData\Local\Temp\cc9dcV7d.s 			page 201


 9387 1579 53       		.byte	0x53
 9388 157a D0010000 		.4byte	.LVL215
 9389 157e EC010000 		.4byte	.LVL219
 9390 1582 0200     		.2byte	0x2
 9391 1584 70       		.byte	0x70
 9392 1585 04       		.sleb128 4
 9393 1586 00000000 		.4byte	0
 9394 158a 00000000 		.4byte	0
 9395              	.LVUS67:
 9396 158e 00       		.uleb128 .LVU506
 9397 158f 00       		.uleb128 .LVU511
 9398 1590 00       		.uleb128 .LVU511
 9399 1591 00       		.uleb128 .LVU513
 9400 1592 00       		.uleb128 .LVU525
 9401 1593 00       		.uleb128 .LVU552
 9402              	.LLST67:
 9403 1594 72010000 		.4byte	.LVL202
 9404 1598 88010000 		.4byte	.LVL205
 9405 159c 0100     		.2byte	0x1
 9406 159e 51       		.byte	0x51
 9407 159f 88010000 		.4byte	.LVL205
 9408 15a3 8C010000 		.4byte	.LVL206
 9409 15a7 0800     		.2byte	0x8
 9410 15a9 70       		.byte	0x70
 9411 15aa 08       		.sleb128 8
 9412 15ab 06       		.byte	0x6
 9413 15ac 70       		.byte	0x70
 9414 15ad 04       		.sleb128 4
 9415 15ae 06       		.byte	0x6
 9416 15af 22       		.byte	0x22
 9417 15b0 9F       		.byte	0x9f
 9418 15b1 A8010000 		.4byte	.LVL211
 9419 15b5 F2010000 		.4byte	.LVL221
 9420 15b9 0100     		.2byte	0x1
 9421 15bb 51       		.byte	0x51
 9422 15bc 00000000 		.4byte	0
 9423 15c0 00000000 		.4byte	0
 9424              	.LVUS68:
 9425 15c4 00       		.uleb128 .LVU508
 9426 15c5 00       		.uleb128 .LVU514
 9427 15c6 00       		.uleb128 .LVU532
 9428 15c7 00       		.uleb128 .LVU556
 9429              	.LLST68:
 9430 15c8 80010000 		.4byte	.LVL203
 9431 15cc 90010000 		.4byte	.LVL207
 9432 15d0 0100     		.2byte	0x1
 9433 15d2 5A       		.byte	0x5a
 9434 15d3 BE010000 		.4byte	.LVL212
 9435 15d7 FE010000 		.4byte	.LVL224
 9436 15db 0100     		.2byte	0x1
 9437 15dd 5A       		.byte	0x5a
 9438 15de 00000000 		.4byte	0
 9439 15e2 00000000 		.4byte	0
 9440              	.LVUS69:
 9441 15e6 00       		.uleb128 .LVU535
 9442 15e7 00       		.uleb128 .LVU545
 9443              	.LLST69:
ARM GAS  C:\Users\EDULU~1.DES\AppData\Local\Temp\cc9dcV7d.s 			page 202


 9444 15e8 C6010000 		.4byte	.LVL213
 9445 15ec E4010000 		.4byte	.LVL218
 9446 15f0 0100     		.2byte	0x1
 9447 15f2 5C       		.byte	0x5c
 9448 15f3 00000000 		.4byte	0
 9449 15f7 00000000 		.4byte	0
 9450              	.LVUS43:
 9451 15fb 00       		.uleb128 0
 9452 15fc 00       		.uleb128 .LVU314
 9453 15fd 00       		.uleb128 .LVU314
 9454 15fe 00       		.uleb128 .LVU339
 9455 15ff 00       		.uleb128 .LVU339
 9456 1600 00       		.uleb128 .LVU350
 9457 1601 00       		.uleb128 .LVU350
 9458 1602 00       		.uleb128 .LVU351
 9459 1603 00       		.uleb128 .LVU351
 9460 1604 00       		.uleb128 .LVU354
 9461 1605 00       		.uleb128 .LVU354
 9462 1606 00       		.uleb128 0
 9463              	.LLST43:
 9464 1607 00000000 		.4byte	.LVL121
 9465 160b 21000000 		.4byte	.LVL123-1
 9466 160f 0100     		.2byte	0x1
 9467 1611 50       		.byte	0x50
 9468 1612 21000000 		.4byte	.LVL123-1
 9469 1616 56000000 		.4byte	.LVL125
 9470 161a 0100     		.2byte	0x1
 9471 161c 54       		.byte	0x54
 9472 161d 56000000 		.4byte	.LVL125
 9473 1621 80000000 		.4byte	.LVL132
 9474 1625 0400     		.2byte	0x4
 9475 1627 F3       		.byte	0xf3
 9476 1628 01       		.uleb128 0x1
 9477 1629 50       		.byte	0x50
 9478 162a 9F       		.byte	0x9f
 9479 162b 80000000 		.4byte	.LVL132
 9480 162f 82000000 		.4byte	.LVL133
 9481 1633 0100     		.2byte	0x1
 9482 1635 50       		.byte	0x50
 9483 1636 82000000 		.4byte	.LVL133
 9484 163a 86000000 		.4byte	.LVL136
 9485 163e 0400     		.2byte	0x4
 9486 1640 F3       		.byte	0xf3
 9487 1641 01       		.uleb128 0x1
 9488 1642 50       		.byte	0x50
 9489 1643 9F       		.byte	0x9f
 9490 1644 86000000 		.4byte	.LVL136
 9491 1648 96000000 		.4byte	.LFE0
 9492 164c 0100     		.2byte	0x1
 9493 164e 50       		.byte	0x50
 9494 164f 00000000 		.4byte	0
 9495 1653 00000000 		.4byte	0
 9496              	.LVUS44:
 9497 1657 00       		.uleb128 0
 9498 1658 00       		.uleb128 .LVU314
 9499 1659 00       		.uleb128 .LVU314
 9500 165a 00       		.uleb128 .LVU350
ARM GAS  C:\Users\EDULU~1.DES\AppData\Local\Temp\cc9dcV7d.s 			page 203


 9501 165b 00       		.uleb128 .LVU350
 9502 165c 00       		.uleb128 .LVU351
 9503 165d 00       		.uleb128 .LVU351
 9504 165e 00       		.uleb128 .LVU353
 9505 165f 00       		.uleb128 .LVU353
 9506 1660 00       		.uleb128 .LVU354
 9507 1661 00       		.uleb128 .LVU354
 9508 1662 00       		.uleb128 0
 9509              	.LLST44:
 9510 1663 00000000 		.4byte	.LVL121
 9511 1667 21000000 		.4byte	.LVL123-1
 9512 166b 0100     		.2byte	0x1
 9513 166d 51       		.byte	0x51
 9514 166e 21000000 		.4byte	.LVL123-1
 9515 1672 80000000 		.4byte	.LVL132
 9516 1676 0100     		.2byte	0x1
 9517 1678 55       		.byte	0x55
 9518 1679 80000000 		.4byte	.LVL132
 9519 167d 82000000 		.4byte	.LVL133
 9520 1681 0100     		.2byte	0x1
 9521 1683 51       		.byte	0x51
 9522 1684 82000000 		.4byte	.LVL133
 9523 1688 84000000 		.4byte	.LVL134
 9524 168c 0100     		.2byte	0x1
 9525 168e 55       		.byte	0x55
 9526 168f 84000000 		.4byte	.LVL134
 9527 1693 86000000 		.4byte	.LVL136
 9528 1697 0400     		.2byte	0x4
 9529 1699 F3       		.byte	0xf3
 9530 169a 01       		.uleb128 0x1
 9531 169b 51       		.byte	0x51
 9532 169c 9F       		.byte	0x9f
 9533 169d 86000000 		.4byte	.LVL136
 9534 16a1 96000000 		.4byte	.LFE0
 9535 16a5 0100     		.2byte	0x1
 9536 16a7 51       		.byte	0x51
 9537 16a8 00000000 		.4byte	0
 9538 16ac 00000000 		.4byte	0
 9539              	.LVUS45:
 9540 16b0 01       		.uleb128 .LVU305
 9541 16b1 00       		.uleb128 .LVU315
 9542 16b2 00       		.uleb128 .LVU315
 9543 16b3 00       		.uleb128 .LVU340
 9544 16b4 00       		.uleb128 .LVU340
 9545 16b5 00       		.uleb128 .LVU348
 9546 16b6 00       		.uleb128 .LVU348
 9547 16b7 00       		.uleb128 .LVU349
 9548 16b8 00       		.uleb128 .LVU349
 9549 16b9 00       		.uleb128 .LVU350
 9550 16ba 00       		.uleb128 .LVU350
 9551 16bb 00       		.uleb128 .LVU351
 9552 16bc 00       		.uleb128 .LVU351
 9553 16bd 00       		.uleb128 .LVU353
 9554 16be 00       		.uleb128 .LVU354
 9555 16bf 00       		.uleb128 0
 9556              	.LLST45:
 9557 16c0 06000000 		.4byte	.LVL122
ARM GAS  C:\Users\EDULU~1.DES\AppData\Local\Temp\cc9dcV7d.s 			page 204


 9558 16c4 24000000 		.4byte	.LVL124
 9559 16c8 0200     		.2byte	0x2
 9560 16ca 31       		.byte	0x31
 9561 16cb 9F       		.byte	0x9f
 9562 16cc 24000000 		.4byte	.LVL124
 9563 16d0 5C000000 		.4byte	.LVL126
 9564 16d4 0100     		.2byte	0x1
 9565 16d6 50       		.byte	0x50
 9566 16d7 5C000000 		.4byte	.LVL126
 9567 16db 76000000 		.4byte	.LVL129
 9568 16df 0100     		.2byte	0x1
 9569 16e1 56       		.byte	0x56
 9570 16e2 76000000 		.4byte	.LVL129
 9571 16e6 7A000000 		.4byte	.LVL130
 9572 16ea 0100     		.2byte	0x1
 9573 16ec 50       		.byte	0x50
 9574 16ed 7A000000 		.4byte	.LVL130
 9575 16f1 80000000 		.4byte	.LVL132
 9576 16f5 0100     		.2byte	0x1
 9577 16f7 56       		.byte	0x56
 9578 16f8 80000000 		.4byte	.LVL132
 9579 16fc 82000000 		.4byte	.LVL133
 9580 1700 0200     		.2byte	0x2
 9581 1702 31       		.byte	0x31
 9582 1703 9F       		.byte	0x9f
 9583 1704 82000000 		.4byte	.LVL133
 9584 1708 84000000 		.4byte	.LVL135
 9585 170c 0100     		.2byte	0x1
 9586 170e 56       		.byte	0x56
 9587 170f 86000000 		.4byte	.LVL136
 9588 1713 96000000 		.4byte	.LFE0
 9589 1717 0200     		.2byte	0x2
 9590 1719 31       		.byte	0x31
 9591 171a 9F       		.byte	0x9f
 9592 171b 00000000 		.4byte	0
 9593 171f 00000000 		.4byte	0
 9594              		.section	.debug_aranges,"",%progbits
 9595 0000 8C000000 		.4byte	0x8c
 9596 0004 0200     		.2byte	0x2
 9597 0006 00000000 		.4byte	.Ldebug_info0
 9598 000a 04       		.byte	0x4
 9599 000b 00       		.byte	0
 9600 000c 0000     		.2byte	0
 9601 000e 0000     		.2byte	0
 9602 0010 00000000 		.4byte	.LFB5
 9603 0014 2C000000 		.4byte	.LFE5-.LFB5
 9604 0018 00000000 		.4byte	.LFB6
 9605 001c 16000000 		.4byte	.LFE6-.LFB6
 9606 0020 00000000 		.4byte	.LFB7
 9607 0024 58000000 		.4byte	.LFE7-.LFB7
 9608 0028 00000000 		.4byte	.LFB8
 9609 002c 38000000 		.4byte	.LFE8-.LFB8
 9610 0030 00000000 		.4byte	.LFB9
 9611 0034 38000000 		.4byte	.LFE9-.LFB9
 9612 0038 00000000 		.4byte	.LFB13
 9613 003c 7E000000 		.4byte	.LFE13-.LFB13
 9614 0040 00000000 		.4byte	.LFB10
ARM GAS  C:\Users\EDULU~1.DES\AppData\Local\Temp\cc9dcV7d.s 			page 205


 9615 0044 14000000 		.4byte	.LFE10-.LFB10
 9616 0048 00000000 		.4byte	.LFB14
 9617 004c 6A000000 		.4byte	.LFE14-.LFB14
 9618 0050 00000000 		.4byte	.LFB12
 9619 0054 7C000000 		.4byte	.LFE12-.LFB12
 9620 0058 00000000 		.4byte	.LFB11
 9621 005c 32000000 		.4byte	.LFE11-.LFB11
 9622 0060 00000000 		.4byte	.LFB0
 9623 0064 96000000 		.4byte	.LFE0-.LFB0
 9624 0068 00000000 		.4byte	.LFB1
 9625 006c 1E020000 		.4byte	.LFE1-.LFB1
 9626 0070 00000000 		.4byte	.LFB2
 9627 0074 94010000 		.4byte	.LFE2-.LFB2
 9628 0078 00000000 		.4byte	.LFB3
 9629 007c 62000000 		.4byte	.LFE3-.LFB3
 9630 0080 00000000 		.4byte	.LFB4
 9631 0084 06000000 		.4byte	.LFE4-.LFB4
 9632 0088 00000000 		.4byte	0
 9633 008c 00000000 		.4byte	0
 9634              		.section	.debug_ranges,"",%progbits
 9635              	.Ldebug_ranges0:
 9636 0000 30000000 		.4byte	.LBB2
 9637 0004 7C000000 		.4byte	.LBE2
 9638 0008 7E000000 		.4byte	.LBB9
 9639 000c AA000000 		.4byte	.LBE9
 9640 0010 B8000000 		.4byte	.LBB10
 9641 0014 FE010000 		.4byte	.LBE10
 9642 0018 00000000 		.4byte	0
 9643 001c 00000000 		.4byte	0
 9644 0020 8E000000 		.4byte	.LBB3
 9645 0024 A2000000 		.4byte	.LBE3
 9646 0028 BA000000 		.4byte	.LBB4
 9647 002c C6000000 		.4byte	.LBE4
 9648 0030 00000000 		.4byte	0
 9649 0034 00000000 		.4byte	0
 9650 0038 72010000 		.4byte	.LBB5
 9651 003c 90010000 		.4byte	.LBE5
 9652 0040 A2010000 		.4byte	.LBB8
 9653 0044 FE010000 		.4byte	.LBE8
 9654 0048 00000000 		.4byte	0
 9655 004c 00000000 		.4byte	0
 9656 0050 7A010000 		.4byte	.LBB6
 9657 0054 90010000 		.4byte	.LBE6
 9658 0058 B6010000 		.4byte	.LBB7
 9659 005c FE010000 		.4byte	.LBE7
 9660 0060 00000000 		.4byte	0
 9661 0064 00000000 		.4byte	0
 9662 0068 36000000 		.4byte	.LBB11
 9663 006c 4E000000 		.4byte	.LBE11
 9664 0070 50000000 		.4byte	.LBB15
 9665 0074 7C010000 		.4byte	.LBE15
 9666 0078 00000000 		.4byte	0
 9667 007c 00000000 		.4byte	0
 9668 0080 52000000 		.4byte	.LBB12
 9669 0084 F8000000 		.4byte	.LBE12
 9670 0088 04010000 		.4byte	.LBB14
 9671 008c 7C010000 		.4byte	.LBE14
ARM GAS  C:\Users\EDULU~1.DES\AppData\Local\Temp\cc9dcV7d.s 			page 206


 9672 0090 00000000 		.4byte	0
 9673 0094 00000000 		.4byte	0
 9674 0098 1A000000 		.4byte	.LBB16
 9675 009c 26000000 		.4byte	.LBE16
 9676 00a0 2A000000 		.4byte	.LBB17
 9677 00a4 5C000000 		.4byte	.LBE17
 9678 00a8 00000000 		.4byte	0
 9679 00ac 00000000 		.4byte	0
 9680 00b0 00000000 		.4byte	.LFB5
 9681 00b4 2C000000 		.4byte	.LFE5
 9682 00b8 00000000 		.4byte	.LFB6
 9683 00bc 16000000 		.4byte	.LFE6
 9684 00c0 00000000 		.4byte	.LFB7
 9685 00c4 58000000 		.4byte	.LFE7
 9686 00c8 00000000 		.4byte	.LFB8
 9687 00cc 38000000 		.4byte	.LFE8
 9688 00d0 00000000 		.4byte	.LFB9
 9689 00d4 38000000 		.4byte	.LFE9
 9690 00d8 00000000 		.4byte	.LFB13
 9691 00dc 7E000000 		.4byte	.LFE13
 9692 00e0 00000000 		.4byte	.LFB10
 9693 00e4 14000000 		.4byte	.LFE10
 9694 00e8 00000000 		.4byte	.LFB14
 9695 00ec 6A000000 		.4byte	.LFE14
 9696 00f0 00000000 		.4byte	.LFB12
 9697 00f4 7C000000 		.4byte	.LFE12
 9698 00f8 00000000 		.4byte	.LFB11
 9699 00fc 32000000 		.4byte	.LFE11
 9700 0100 00000000 		.4byte	.LFB0
 9701 0104 96000000 		.4byte	.LFE0
 9702 0108 00000000 		.4byte	.LFB1
 9703 010c 1E020000 		.4byte	.LFE1
 9704 0110 00000000 		.4byte	.LFB2
 9705 0114 94010000 		.4byte	.LFE2
 9706 0118 00000000 		.4byte	.LFB3
 9707 011c 62000000 		.4byte	.LFE3
 9708 0120 00000000 		.4byte	.LFB4
 9709 0124 06000000 		.4byte	.LFE4
 9710 0128 00000000 		.4byte	0
 9711 012c 00000000 		.4byte	0
 9712              		.section	.debug_line,"",%progbits
 9713              	.Ldebug_line0:
 9714 0000 A50E0000 		.section	.debug_str,"MS",%progbits,1
 9714      0300C701 
 9714      00000201 
 9714      FB0E0D00 
 9714      01010101 
 9715              	.LASF45:
 9716 0000 5F64736F 		.ascii	"_dso_handle\000"
 9716      5F68616E 
 9716      646C6500 
 9717              	.LASF10:
 9718 000c 75696E74 		.ascii	"uint16\000"
 9718      313600
 9719              	.LASF53:
 9720 0013 5F73697A 		.ascii	"_size\000"
 9720      6500
ARM GAS  C:\Users\EDULU~1.DES\AppData\Local\Temp\cc9dcV7d.s 			page 207


 9721              	.LASF44:
 9722 0019 5F666E61 		.ascii	"_fnargs\000"
 9722      72677300 
 9723              	.LASF196:
 9724 0021 746D7044 		.ascii	"tmpData\000"
 9724      61746100 
 9725              	.LASF97:
 9726 0029 5F72616E 		.ascii	"_rand48\000"
 9726      64343800 
 9727              	.LASF77:
 9728 0031 5F656D65 		.ascii	"_emergency\000"
 9728      7267656E 
 9728      637900
 9729              	.LASF149:
 9730 003c 63795F65 		.ascii	"cy_en_em_eeprom_status_t\000"
 9730      6E5F656D 
 9730      5F656570 
 9730      726F6D5F 
 9730      73746174 
 9731              	.LASF160:
 9732 0055 726F774E 		.ascii	"rowNum\000"
 9732      756D00
 9733              	.LASF165:
 9734 005c 64737441 		.ascii	"dstAddr\000"
 9734      64647200 
 9735              	.LASF67:
 9736 0064 5F646174 		.ascii	"_data\000"
 9736      6100
 9737              	.LASF141:
 9738 006a 6E756D62 		.ascii	"numberOfRows\000"
 9738      65724F66 
 9738      526F7773 
 9738      00
 9739              	.LASF131:
 9740 0077 63796465 		.ascii	"cydelay32kMs\000"
 9740      6C617933 
 9740      326B4D73 
 9740      00
 9741              	.LASF117:
 9742 0084 5F776372 		.ascii	"_wcrtomb_state\000"
 9742      746F6D62 
 9742      5F737461 
 9742      746500
 9743              	.LASF118:
 9744 0093 5F776373 		.ascii	"_wcsrtombs_state\000"
 9744      72746F6D 
 9744      62735F73 
 9744      74617465 
 9744      00
 9745              	.LASF190:
 9746 00a4 6E756D57 		.ascii	"numWrites\000"
 9746      72697465 
 9746      7300
 9747              	.LASF7:
 9748 00ae 6C6F6E67 		.ascii	"long long unsigned int\000"
 9748      206C6F6E 
 9748      6720756E 
ARM GAS  C:\Users\EDULU~1.DES\AppData\Local\Temp\cc9dcV7d.s 			page 208


 9748      7369676E 
 9748      65642069 
 9749              	.LASF57:
 9750 00c5 5F6C6266 		.ascii	"_lbfsize\000"
 9750      73697A65 
 9750      00
 9751              	.LASF162:
 9752 00ce 61646472 		.ascii	"addr\000"
 9752      00
 9753              	.LASF132:
 9754 00d3 43795379 		.ascii	"CySysTickInitVar\000"
 9754      73546963 
 9754      6B496E69 
 9754      74566172 
 9754      00
 9755              	.LASF124:
 9756 00e4 5F5F6C6F 		.ascii	"__locale_t\000"
 9756      63616C65 
 9756      5F7400
 9757              	.LASF122:
 9758 00ef 5F756E75 		.ascii	"_unused\000"
 9758      73656400 
 9759              	.LASF115:
 9760 00f7 5F6D6272 		.ascii	"_mbrtowc_state\000"
 9760      746F7763 
 9760      5F737461 
 9760      746500
 9761              	.LASF134:
 9762 0106 65657072 		.ascii	"eepromSize\000"
 9762      6F6D5369 
 9762      7A6500
 9763              	.LASF34:
 9764 0111 5F5F746D 		.ascii	"__tm_sec\000"
 9764      5F736563 
 9764      00
 9765              	.LASF214:
 9766 011a 6473744F 		.ascii	"dstOffset\000"
 9766      66667365 
 9766      7400
 9767              	.LASF6:
 9768 0124 6C6F6E67 		.ascii	"long long int\000"
 9768      206C6F6E 
 9768      6720696E 
 9768      7400
 9769              	.LASF0:
 9770 0132 7369676E 		.ascii	"signed char\000"
 9770      65642063 
 9770      68617200 
 9771              	.LASF173:
 9772 013e 57726974 		.ascii	"WriteRow\000"
 9772      65526F77 
 9772      00
 9773              	.LASF180:
 9774 0147 47657452 		.ascii	"GetRowAddrBySeqNum\000"
 9774      6F774164 
 9774      64724279 
 9774      5365714E 
ARM GAS  C:\Users\EDULU~1.DES\AppData\Local\Temp\cc9dcV7d.s 			page 209


 9774      756D00
 9775              	.LASF63:
 9776 015a 5F756275 		.ascii	"_ubuf\000"
 9776      6600
 9777              	.LASF183:
 9778 0160 46696E64 		.ascii	"FindLastWrittenRow\000"
 9778      4C617374 
 9778      57726974 
 9778      74656E52 
 9778      6F7700
 9779              	.LASF221:
 9780 0173 47656E65 		.ascii	"Generated_Source\\PSoC4\\cy_em_eeprom.c\000"
 9780      72617465 
 9780      645F536F 
 9780      75726365 
 9780      5C50536F 
 9781              	.LASF36:
 9782 0199 5F5F746D 		.ascii	"__tm_hour\000"
 9782      5F686F75 
 9782      7200
 9783              	.LASF136:
 9784 01a3 72656475 		.ascii	"redundantCopy\000"
 9784      6E64616E 
 9784      74436F70 
 9784      7900
 9785              	.LASF92:
 9786 01b1 5F5F7366 		.ascii	"__sf\000"
 9786      00
 9787              	.LASF43:
 9788 01b6 5F6F6E5F 		.ascii	"_on_exit_args\000"
 9788      65786974 
 9788      5F617267 
 9788      7300
 9789              	.LASF187:
 9790 01c4 43795F45 		.ascii	"Cy_Em_EEPROM_NumWrites\000"
 9790      6D5F4545 
 9790      50524F4D 
 9790      5F4E756D 
 9790      57726974 
 9791              	.LASF58:
 9792 01db 5F636F6F 		.ascii	"_cookie\000"
 9792      6B696500 
 9793              	.LASF91:
 9794 01e3 5F5F7367 		.ascii	"__sglue\000"
 9794      6C756500 
 9795              	.LASF4:
 9796 01eb 6C6F6E67 		.ascii	"long int\000"
 9796      20696E74 
 9796      00
 9797              	.LASF55:
 9798 01f4 5F666C61 		.ascii	"_flags\000"
 9798      677300
 9799              	.LASF47:
 9800 01fb 5F69735F 		.ascii	"_is_cxa\000"
 9800      63786100 
 9801              	.LASF73:
 9802 0203 5F737464 		.ascii	"_stdin\000"
ARM GAS  C:\Users\EDULU~1.DES\AppData\Local\Temp\cc9dcV7d.s 			page 210


 9802      696E00
 9803              	.LASF222:
 9804 020a 433A5C55 		.ascii	"C:\\Users\\edulu.DESKTOP-961TG4K\\Documents\\PSoC C"
 9804      73657273 
 9804      5C656475 
 9804      6C752E44 
 9804      45534B54 
 9805 0239 72656174 		.ascii	"reator\\Micrium\\Examples\\Cypress\\CY8CKIT-044\\OS"
 9805      6F725C4D 
 9805      69637269 
 9805      756D5C45 
 9805      78616D70 
 9806 0267 335C5053 		.ascii	"3\\PSoC\\OS3.cydsn\000"
 9806      6F435C4F 
 9806      53332E63 
 9806      7964736E 
 9806      00
 9807              	.LASF65:
 9808 0278 5F626C6B 		.ascii	"_blksize\000"
 9808      73697A65 
 9808      00
 9809              	.LASF9:
 9810 0281 75696E74 		.ascii	"uint8\000"
 9810      3800
 9811              	.LASF129:
 9812 0287 63796465 		.ascii	"cydelayFreqKhz\000"
 9812      6C617946 
 9812      7265714B 
 9812      687A00
 9813              	.LASF188:
 9814 0296 43795F45 		.ascii	"Cy_Em_EEPROM_Erase\000"
 9814      6D5F4545 
 9814      50524F4D 
 9814      5F457261 
 9814      736500
 9815              	.LASF13:
 9816 02a9 646F7562 		.ascii	"double\000"
 9816      6C6500
 9817              	.LASF87:
 9818 02b0 5F637674 		.ascii	"_cvtbuf\000"
 9818      62756600 
 9819              	.LASF66:
 9820 02b8 5F6F6666 		.ascii	"_offset\000"
 9820      73657400 
 9821              	.LASF116:
 9822 02c0 5F6D6273 		.ascii	"_mbsrtowcs_state\000"
 9822      72746F77 
 9822      63735F73 
 9822      74617465 
 9822      00
 9823              	.LASF114:
 9824 02d1 5F6D6272 		.ascii	"_mbrlen_state\000"
 9824      6C656E5F 
 9824      73746174 
 9824      6500
 9825              	.LASF11:
 9826 02df 75696E74 		.ascii	"uint32\000"
ARM GAS  C:\Users\EDULU~1.DES\AppData\Local\Temp\cc9dcV7d.s 			page 211


 9826      333200
 9827              	.LASF206:
 9828 02e6 61637445 		.ascii	"actEepromRowNum\000"
 9828      6570726F 
 9828      6D526F77 
 9828      4E756D00 
 9829              	.LASF198:
 9830 02f6 65654865 		.ascii	"eeHeaderDataOffset\000"
 9830      61646572 
 9830      44617461 
 9830      4F666673 
 9830      657400
 9831              	.LASF50:
 9832 0309 5F666E73 		.ascii	"_fns\000"
 9832      00
 9833              	.LASF30:
 9834 030e 5F736967 		.ascii	"_sign\000"
 9834      6E00
 9835              	.LASF210:
 9836 0314 75706461 		.ascii	"updateAddrFlag\000"
 9836      74654164 
 9836      6472466C 
 9836      616700
 9837              	.LASF26:
 9838 0323 5F666C6F 		.ascii	"_flock_t\000"
 9838      636B5F74 
 9838      00
 9839              	.LASF75:
 9840 032c 5F737464 		.ascii	"_stderr\000"
 9840      65727200 
 9841              	.LASF32:
 9842 0334 5F426967 		.ascii	"_Bigint\000"
 9842      696E7400 
 9843              	.LASF105:
 9844 033c 5F67616D 		.ascii	"_gamma_signgam\000"
 9844      6D615F73 
 9844      69676E67 
 9844      616D00
 9845              	.LASF179:
 9846 034b 726F7754 		.ascii	"rowToRdPtr\000"
 9846      6F526450 
 9846      747200
 9847              	.LASF153:
 9848 0356 746D7052 		.ascii	"tmpRowAddr\000"
 9848      6F774164 
 9848      647200
 9849              	.LASF59:
 9850 0361 5F726561 		.ascii	"_read\000"
 9850      6400
 9851              	.LASF83:
 9852 0367 5F726573 		.ascii	"_result_k\000"
 9852      756C745F 
 9852      6B00
 9853              	.LASF171:
 9854 0371 72616D42 		.ascii	"ramBuffAddr\000"
 9854      75666641 
 9854      64647200 
ARM GAS  C:\Users\EDULU~1.DES\AppData\Local\Temp\cc9dcV7d.s 			page 212


 9855              	.LASF213:
 9856 037d 7372634F 		.ascii	"srcOffset\000"
 9856      66667365 
 9856      7400
 9857              	.LASF33:
 9858 0387 5F5F746D 		.ascii	"__tm\000"
 9858      00
 9859              	.LASF200:
 9860 038c 64617461 		.ascii	"dataAddr\000"
 9860      41646472 
 9860      00
 9861              	.LASF8:
 9862 0395 756E7369 		.ascii	"unsigned int\000"
 9862      676E6564 
 9862      20696E74 
 9862      00
 9863              	.LASF167:
 9864 03a2 6E756D42 		.ascii	"numBytes\000"
 9864      79746573 
 9864      00
 9865              	.LASF22:
 9866 03ab 5F5F7763 		.ascii	"__wchb\000"
 9866      686200
 9867              	.LASF185:
 9868 03b2 70726576 		.ascii	"prevSeqNum\000"
 9868      5365714E 
 9868      756D00
 9869              	.LASF74:
 9870 03bd 5F737464 		.ascii	"_stdout\000"
 9870      6F757400 
 9871              	.LASF86:
 9872 03c5 5F637674 		.ascii	"_cvtlen\000"
 9872      6C656E00 
 9873              	.LASF5:
 9874 03cd 6C6F6E67 		.ascii	"long unsigned int\000"
 9874      20756E73 
 9874      69676E65 
 9874      6420696E 
 9874      7400
 9875              	.LASF156:
 9876 03df 47657441 		.ascii	"GetAddresses\000"
 9876      64647265 
 9876      73736573 
 9876      00
 9877              	.LASF56:
 9878 03ec 5F66696C 		.ascii	"_file\000"
 9878      6500
 9879              	.LASF184:
 9880 03f2 6C617374 		.ascii	"lastWrRowPtr\000"
 9880      5772526F 
 9880      77507472 
 9880      00
 9881              	.LASF164:
 9882 03ff 43686563 		.ascii	"CheckCrcAndCopy\000"
 9882      6B437263 
 9882      416E6443 
 9882      6F707900 
ARM GAS  C:\Users\EDULU~1.DES\AppData\Local\Temp\cc9dcV7d.s 			page 213


 9883              	.LASF95:
 9884 040f 5F6E696F 		.ascii	"_niobs\000"
 9884      627300
 9885              	.LASF193:
 9886 0416 73697A65 		.ascii	"size\000"
 9886      00
 9887              	.LASF3:
 9888 041b 73686F72 		.ascii	"short unsigned int\000"
 9888      7420756E 
 9888      7369676E 
 9888      65642069 
 9888      6E7400
 9889              	.LASF89:
 9890 042e 5F617465 		.ascii	"_atexit0\000"
 9890      78697430 
 9890      00
 9891              	.LASF112:
 9892 0437 5F736967 		.ascii	"_signal_buf\000"
 9892      6E616C5F 
 9892      62756600 
 9893              	.LASF103:
 9894 0443 5F617363 		.ascii	"_asctime_buf\000"
 9894      74696D65 
 9894      5F627566 
 9894      00
 9895              	.LASF169:
 9896 0450 45726173 		.ascii	"EraseRow\000"
 9896      65526F77 
 9896      00
 9897              	.LASF195:
 9898 0459 61637445 		.ascii	"actEmEepromRowNum\000"
 9898      6D456570 
 9898      726F6D52 
 9898      6F774E75 
 9898      6D00
 9899              	.LASF82:
 9900 046b 5F726573 		.ascii	"_result\000"
 9900      756C7400 
 9901              	.LASF21:
 9902 0473 5F5F7763 		.ascii	"__wch\000"
 9902      6800
 9903              	.LASF189:
 9904 0479 656D4565 		.ascii	"emEepromRowRdAddr\000"
 9904      70726F6D 
 9904      526F7752 
 9904      64416464 
 9904      7200
 9905              	.LASF216:
 9906 048b 6D656D63 		.ascii	"memcpy\000"
 9906      707900
 9907              	.LASF17:
 9908 0492 5F4C4F43 		.ascii	"_LOCK_T\000"
 9908      4B5F5400 
 9909              	.LASF192:
 9910 049a 65657072 		.ascii	"eepromData\000"
 9910      6F6D4461 
 9910      746100
ARM GAS  C:\Users\EDULU~1.DES\AppData\Local\Temp\cc9dcV7d.s 			page 214


 9911              	.LASF20:
 9912 04a5 77696E74 		.ascii	"wint_t\000"
 9912      5F7400
 9913              	.LASF220:
 9914 04ac 474E5520 		.ascii	"GNU C17 8.2.1 20181213 (release) [gcc-8-branch revi"
 9914      43313720 
 9914      382E322E 
 9914      31203230 
 9914      31383132 
 9915 04df 73696F6E 		.ascii	"sion 267074] -mcpu=cortex-m0 -mthumb -mfloat-abi=so"
 9915      20323637 
 9915      3037345D 
 9915      202D6D63 
 9915      70753D63 
 9916 0512 6674202D 		.ascii	"ft -march=armv6s-m -g -Og -ffunction-sections -ffat"
 9916      6D617263 
 9916      683D6172 
 9916      6D763673 
 9916      2D6D202D 
 9917 0545 2D6C746F 		.ascii	"-lto-objects\000"
 9917      2D6F626A 
 9917      65637473 
 9917      00
 9918              	.LASF218:
 9919 0552 5F5F6275 		.ascii	"__builtin_memcpy\000"
 9919      696C7469 
 9919      6E5F6D65 
 9919      6D637079 
 9919      00
 9920              	.LASF68:
 9921 0563 5F6C6F63 		.ascii	"_lock\000"
 9921      6B00
 9922              	.LASF205:
 9923 0569 73746172 		.ascii	"startRowAddr\000"
 9923      74526F77 
 9923      41646472 
 9923      00
 9924              	.LASF70:
 9925 0576 5F666C61 		.ascii	"_flags2\000"
 9925      67733200 
 9926              	.LASF211:
 9927 057e 6E756D52 		.ascii	"numRowReads\000"
 9927      6F775265 
 9927      61647300 
 9928              	.LASF166:
 9929 058a 726F774F 		.ascii	"rowOffset\000"
 9929      66667365 
 9929      7400
 9930              	.LASF203:
 9931 0594 63757245 		.ascii	"curEepromBaseAddr\000"
 9931      6570726F 
 9931      6D426173 
 9931      65416464 
 9931      7200
 9932              	.LASF60:
 9933 05a6 5F777269 		.ascii	"_write\000"
 9933      746500
ARM GAS  C:\Users\EDULU~1.DES\AppData\Local\Temp\cc9dcV7d.s 			page 215


 9934              	.LASF39:
 9935 05ad 5F5F746D 		.ascii	"__tm_year\000"
 9935      5F796561 
 9935      7200
 9936              	.LASF145:
 9937 05b7 43595F45 		.ascii	"CY_EM_EEPROM_BAD_PARAM\000"
 9937      4D5F4545 
 9937      50524F4D 
 9937      5F424144 
 9937      5F504152 
 9938              	.LASF215:
 9939 05ce 43795F45 		.ascii	"Cy_Em_EEPROM_Init\000"
 9939      6D5F4545 
 9939      50524F4D 
 9939      5F496E69 
 9939      7400
 9940              	.LASF146:
 9941 05e0 43595F45 		.ascii	"CY_EM_EEPROM_BAD_CHECKSUM\000"
 9941      4D5F4545 
 9941      50524F4D 
 9941      5F424144 
 9941      5F434845 
 9942              	.LASF121:
 9943 05fa 5F6E6D61 		.ascii	"_nmalloc\000"
 9943      6C6C6F63 
 9943      00
 9944              	.LASF128:
 9945 0603 63796465 		.ascii	"cydelayFreqHz\000"
 9945      6C617946 
 9945      72657148 
 9945      7A00
 9946              	.LASF150:
 9947 0611 72644164 		.ascii	"rdAddr\000"
 9947      647200
 9948              	.LASF16:
 9949 0618 6C6F6E67 		.ascii	"long double\000"
 9949      20646F75 
 9949      626C6500 
 9950              	.LASF207:
 9951 0624 63757252 		.ascii	"curRdEepromRowNum\000"
 9951      64456570 
 9951      726F6D52 
 9951      6F774E75 
 9951      6D00
 9952              	.LASF120:
 9953 0636 5F6E6578 		.ascii	"_nextf\000"
 9953      746600
 9954              	.LASF191:
 9955 063d 43795F45 		.ascii	"Cy_Em_EEPROM_Write\000"
 9955      6D5F4545 
 9955      50524F4D 
 9955      5F577269 
 9955      746500
 9956              	.LASF154:
 9957 0650 7365714E 		.ascii	"seqNum\000"
 9957      756D00
 9958              	.LASF143:
ARM GAS  C:\Users\EDULU~1.DES\AppData\Local\Temp\cc9dcV7d.s 			page 216


 9959 0657 63795F73 		.ascii	"cy_stc_eeprom_context_t\000"
 9959      74635F65 
 9959      6570726F 
 9959      6D5F636F 
 9959      6E746578 
 9960              	.LASF133:
 9961 066f 6379496D 		.ascii	"cyImoFreqMhz2Reg\000"
 9961      6F467265 
 9961      714D687A 
 9961      32526567 
 9961      00
 9962              	.LASF182:
 9963 0680 4765744E 		.ascii	"GetNextRowToWrite\000"
 9963      65787452 
 9963      6F77546F 
 9963      57726974 
 9963      6500
 9964              	.LASF38:
 9965 0692 5F5F746D 		.ascii	"__tm_mon\000"
 9965      5F6D6F6E 
 9965      00
 9966              	.LASF48:
 9967 069b 5F617465 		.ascii	"_atexit\000"
 9967      78697400 
 9968              	.LASF155:
 9969 06a3 46696C6C 		.ascii	"FillChecksum\000"
 9969      43686563 
 9969      6B73756D 
 9969      00
 9970              	.LASF80:
 9971 06b0 5F5F7364 		.ascii	"__sdidinit\000"
 9971      6964696E 
 9971      697400
 9972              	.LASF18:
 9973 06bb 5F6F6666 		.ascii	"_off_t\000"
 9973      5F7400
 9974              	.LASF175:
 9975 06c2 43686563 		.ascii	"CheckRanges\000"
 9975      6B52616E 
 9975      67657300 
 9976              	.LASF152:
 9977 06ce 77724164 		.ascii	"wrAddr\000"
 9977      647200
 9978              	.LASF194:
 9979 06d5 7772436E 		.ascii	"wrCnt\000"
 9979      7400
 9980              	.LASF219:
 9981 06db 5F5F6275 		.ascii	"__builtin_memset\000"
 9981      696C7469 
 9981      6E5F6D65 
 9981      6D736574 
 9981      00
 9982              	.LASF12:
 9983 06ec 666C6F61 		.ascii	"float\000"
 9983      7400
 9984              	.LASF85:
 9985 06f2 5F667265 		.ascii	"_freelist\000"
ARM GAS  C:\Users\EDULU~1.DES\AppData\Local\Temp\cc9dcV7d.s 			page 217


 9985      656C6973 
 9985      7400
 9986              	.LASF161:
 9987 06fc 656E6441 		.ascii	"endAddr\000"
 9987      64647200 
 9988              	.LASF212:
 9989 0704 64617461 		.ascii	"dataEndEepromRowNum\000"
 9989      456E6445 
 9989      6570726F 
 9989      6D526F77 
 9989      4E756D00 
 9990              	.LASF110:
 9991 0718 5F776374 		.ascii	"_wctomb_state\000"
 9991      6F6D625F 
 9991      73746174 
 9991      6500
 9992              	.LASF181:
 9993 0726 656D4565 		.ascii	"emEepromAddr\000"
 9993      70726F6D 
 9993      41646472 
 9993      00
 9994              	.LASF147:
 9995 0733 43595F45 		.ascii	"CY_EM_EEPROM_BAD_DATA\000"
 9995      4D5F4545 
 9995      50524F4D 
 9995      5F424144 
 9995      5F444154 
 9996              	.LASF140:
 9997 0749 776C456E 		.ascii	"wlEndAddr\000"
 9997      64416464 
 9997      7200
 9998              	.LASF1:
 9999 0753 756E7369 		.ascii	"unsigned char\000"
 9999      676E6564 
 9999      20636861 
 9999      7200
 10000              	.LASF88:
 10001 0761 5F6E6577 		.ascii	"_new\000"
 10001      00
 10002              	.LASF170:
 10003 0766 726F7741 		.ascii	"rowAddr\000"
 10003      64647200 
 10004              	.LASF119:
 10005 076e 5F685F65 		.ascii	"_h_errno\000"
 10005      72726E6F 
 10005      00
 10006              	.LASF2:
 10007 0777 73686F72 		.ascii	"short int\000"
 10007      7420696E 
 10007      7400
 10008              	.LASF41:
 10009 0781 5F5F746D 		.ascii	"__tm_yday\000"
 10009      5F796461 
 10009      7900
 10010              	.LASF51:
 10011 078b 5F5F7362 		.ascii	"__sbuf\000"
 10011      756600
ARM GAS  C:\Users\EDULU~1.DES\AppData\Local\Temp\cc9dcV7d.s 			page 218


 10012              	.LASF96:
 10013 0792 5F696F62 		.ascii	"_iobs\000"
 10013      7300
 10014              	.LASF93:
 10015 0798 5F5F4649 		.ascii	"__FILE\000"
 10015      4C4500
 10016              	.LASF25:
 10017 079f 5F6D6273 		.ascii	"_mbstate_t\000"
 10017      74617465 
 10017      5F7400
 10018              	.LASF54:
 10019 07aa 5F5F7346 		.ascii	"__sFILE\000"
 10019      494C4500 
 10020              	.LASF69:
 10021 07b2 5F6D6273 		.ascii	"_mbstate\000"
 10021      74617465 
 10021      00
 10022              	.LASF106:
 10023 07bb 5F72616E 		.ascii	"_rand_next\000"
 10023      645F6E65 
 10023      787400
 10024              	.LASF108:
 10025 07c6 5F6D626C 		.ascii	"_mblen_state\000"
 10025      656E5F73 
 10025      74617465 
 10025      00
 10026              	.LASF76:
 10027 07d3 5F696E63 		.ascii	"_inc\000"
 10027      00
 10028              	.LASF49:
 10029 07d8 5F696E64 		.ascii	"_ind\000"
 10029      00
 10030              	.LASF79:
 10031 07dd 5F6C6F63 		.ascii	"_locale\000"
 10031      616C6500 
 10032              	.LASF81:
 10033 07e5 5F5F636C 		.ascii	"__cleanup\000"
 10033      65616E75 
 10033      7000
 10034              	.LASF78:
 10035 07ef 5F756E73 		.ascii	"_unspecified_locale_info\000"
 10035      70656369 
 10035      66696564 
 10035      5F6C6F63 
 10035      616C655F 
 10036              	.LASF29:
 10037 0808 5F6D6178 		.ascii	"_maxwds\000"
 10037      77647300 
 10038              	.LASF71:
 10039 0810 5F726565 		.ascii	"_reent\000"
 10039      6E7400
 10040              	.LASF98:
 10041 0817 5F736565 		.ascii	"_seed\000"
 10041      6400
 10042              	.LASF151:
 10043 081d 77726974 		.ascii	"writeRamBuffer\000"
 10043      6552616D 
ARM GAS  C:\Users\EDULU~1.DES\AppData\Local\Temp\cc9dcV7d.s 			page 219


 10043      42756666 
 10043      657200
 10044              	.LASF148:
 10045 082c 43595F45 		.ascii	"CY_EM_EEPROM_WRITE_FAIL\000"
 10045      4D5F4545 
 10045      50524F4D 
 10045      5F575249 
 10045      54455F46 
 10046              	.LASF23:
 10047 0844 5F5F636F 		.ascii	"__count\000"
 10047      756E7400 
 10048              	.LASF123:
 10049 084c 5F5F6C6F 		.ascii	"__lock\000"
 10049      636B00
 10050              	.LASF24:
 10051 0853 5F5F7661 		.ascii	"__value\000"
 10051      6C756500 
 10052              	.LASF168:
 10053 085b 72635374 		.ascii	"rcStartRowAddr\000"
 10053      61727452 
 10053      6F774164 
 10053      647200
 10054              	.LASF61:
 10055 086a 5F736565 		.ascii	"_seek\000"
 10055      6B00
 10056              	.LASF125:
 10057 0870 5F696D70 		.ascii	"_impure_ptr\000"
 10057      7572655F 
 10057      70747200 
 10058              	.LASF19:
 10059 087c 5F66706F 		.ascii	"_fpos_t\000"
 10059      735F7400 
 10060              	.LASF137:
 10061 0884 626C6F63 		.ascii	"blockingWrite\000"
 10061      6B696E67 
 10061      57726974 
 10061      6500
 10062              	.LASF72:
 10063 0892 5F657272 		.ascii	"_errno\000"
 10063      6E6F00
 10064              	.LASF14:
 10065 0899 63686172 		.ascii	"char\000"
 10065      00
 10066              	.LASF35:
 10067 089e 5F5F746D 		.ascii	"__tm_min\000"
 10067      5F6D696E 
 10067      00
 10068              	.LASF176:
 10069 08a7 636F6E66 		.ascii	"config\000"
 10069      696700
 10070              	.LASF202:
 10071 08ae 6E756D42 		.ascii	"numBytesToRead\000"
 10071      79746573 
 10071      546F5265 
 10071      616400
 10072              	.LASF158:
 10073 08bd 73746172 		.ascii	"startAddr\000"
ARM GAS  C:\Users\EDULU~1.DES\AppData\Local\Temp\cc9dcV7d.s 			page 220


 10073      74416464 
 10073      7200
 10074              	.LASF201:
 10075 08c7 43795F45 		.ascii	"Cy_Em_EEPROM_Read\000"
 10075      6D5F4545 
 10075      50524F4D 
 10075      5F526561 
 10075      6400
 10076              	.LASF127:
 10077 08d9 5F637479 		.ascii	"_ctype_\000"
 10077      70655F00 
 10078              	.LASF208:
 10079 08e1 64617461 		.ascii	"dataStartEepromRowNum\000"
 10079      53746172 
 10079      74456570 
 10079      726F6D52 
 10079      6F774E75 
 10080              	.LASF99:
 10081 08f7 5F6D756C 		.ascii	"_mult\000"
 10081      7400
 10082              	.LASF209:
 10083 08fd 72645369 		.ascii	"rdSize\000"
 10083      7A6500
 10084              	.LASF28:
 10085 0904 5F6E6578 		.ascii	"_next\000"
 10085      7400
 10086              	.LASF163:
 10087 090a 736B6970 		.ascii	"skip\000"
 10087      00
 10088              	.LASF102:
 10089 090f 5F737472 		.ascii	"_strtok_last\000"
 10089      746F6B5F 
 10089      6C617374 
 10089      00
 10090              	.LASF159:
 10091 091c 6F666673 		.ascii	"offset\000"
 10091      657400
 10092              	.LASF46:
 10093 0923 5F666E74 		.ascii	"_fntypes\000"
 10093      79706573 
 10093      00
 10094              	.LASF157:
 10095 092c 636F6E74 		.ascii	"context\000"
 10095      65787400 
 10096              	.LASF142:
 10097 0934 6C617374 		.ascii	"lastWrRowAddr\000"
 10097      5772526F 
 10097      77416464 
 10097      7200
 10098              	.LASF100:
 10099 0942 5F616464 		.ascii	"_add\000"
 10099      00
 10100              	.LASF27:
 10101 0947 5F5F554C 		.ascii	"__ULong\000"
 10101      6F6E6700 
 10102              	.LASF113:
 10103 094f 5F676574 		.ascii	"_getdate_err\000"
ARM GAS  C:\Users\EDULU~1.DES\AppData\Local\Temp\cc9dcV7d.s 			page 221


 10103      64617465 
 10103      5F657272 
 10103      00
 10104              	.LASF204:
 10105 095c 63757252 		.ascii	"curRowOffset\000"
 10105      6F774F66 
 10105      66736574 
 10105      00
 10106              	.LASF138:
 10107 0969 75736572 		.ascii	"userFlashStartAddr\000"
 10107      466C6173 
 10107      68537461 
 10107      72744164 
 10107      647200
 10108              	.LASF139:
 10109 097c 63795F73 		.ascii	"cy_stc_eeprom_config_t\000"
 10109      74635F65 
 10109      6570726F 
 10109      6D5F636F 
 10109      6E666967 
 10110              	.LASF126:
 10111 0993 5F676C6F 		.ascii	"_global_impure_ptr\000"
 10111      62616C5F 
 10111      696D7075 
 10111      72655F70 
 10111      747200
 10112              	.LASF135:
 10113 09a6 77656172 		.ascii	"wearLevelingFactor\000"
 10113      4C657665 
 10113      6C696E67 
 10113      46616374 
 10113      6F7200
 10114              	.LASF130:
 10115 09b9 63796465 		.ascii	"cydelayFreqMhz\000"
 10115      6C617946 
 10115      7265714D 
 10115      687A00
 10116              	.LASF217:
 10117 09c8 6D656D73 		.ascii	"memset\000"
 10117      657400
 10118              	.LASF101:
 10119 09cf 5F756E75 		.ascii	"_unused_rand\000"
 10119      7365645F 
 10119      72616E64 
 10119      00
 10120              	.LASF186:
 10121 09dc 6E756D52 		.ascii	"numRows\000"
 10121      6F777300 
 10122              	.LASF31:
 10123 09e4 5F776473 		.ascii	"_wds\000"
 10123      00
 10124              	.LASF40:
 10125 09e9 5F5F746D 		.ascii	"__tm_wday\000"
 10125      5F776461 
 10125      7900
 10126              	.LASF94:
 10127 09f3 5F676C75 		.ascii	"_glue\000"
ARM GAS  C:\Users\EDULU~1.DES\AppData\Local\Temp\cc9dcV7d.s 			page 222


 10127      6500
 10128              	.LASF223:
 10129 09f9 43795379 		.ascii	"CySysFlashWriteRow\000"
 10129      73466C61 
 10129      73685772 
 10129      69746552 
 10129      6F7700
 10130              	.LASF52:
 10131 0a0c 5F626173 		.ascii	"_base\000"
 10131      6500
 10132              	.LASF111:
 10133 0a12 5F6C3634 		.ascii	"_l64a_buf\000"
 10133      615F6275 
 10133      6600
 10134              	.LASF144:
 10135 0a1c 43595F45 		.ascii	"CY_EM_EEPROM_SUCCESS\000"
 10135      4D5F4545 
 10135      50524F4D 
 10135      5F535543 
 10135      43455353 
 10136              	.LASF90:
 10137 0a31 5F736967 		.ascii	"_sig_func\000"
 10137      5F66756E 
 10137      6300
 10138              	.LASF64:
 10139 0a3b 5F6E6275 		.ascii	"_nbuf\000"
 10139      6600
 10140              	.LASF15:
 10141 0a41 63797374 		.ascii	"cystatus\000"
 10141      61747573 
 10141      00
 10142              	.LASF199:
 10143 0a4a 736B6970 		.ascii	"skipOperation\000"
 10143      4F706572 
 10143      6174696F 
 10143      6E00
 10144              	.LASF177:
 10145 0a58 43616C63 		.ascii	"CalcChecksum\000"
 10145      43686563 
 10145      6B73756D 
 10145      00
 10146              	.LASF42:
 10147 0a65 5F5F746D 		.ascii	"__tm_isdst\000"
 10147      5F697364 
 10147      737400
 10148              	.LASF104:
 10149 0a70 5F6C6F63 		.ascii	"_localtime_buf\000"
 10149      616C7469 
 10149      6D655F62 
 10149      756600
 10150              	.LASF62:
 10151 0a7f 5F636C6F 		.ascii	"_close\000"
 10151      736500
 10152              	.LASF174:
 10153 0a86 726F7744 		.ascii	"rowData\000"
 10153      61746100 
 10154              	.LASF107:
ARM GAS  C:\Users\EDULU~1.DES\AppData\Local\Temp\cc9dcV7d.s 			page 223


 10155 0a8e 5F723438 		.ascii	"_r48\000"
 10155      00
 10156              	.LASF109:
 10157 0a93 5F6D6274 		.ascii	"_mbtowc_state\000"
 10157      6F77635F 
 10157      73746174 
 10157      6500
 10158              	.LASF84:
 10159 0aa1 5F703573 		.ascii	"_p5s\000"
 10159      00
 10160              	.LASF172:
 10161 0aa6 656D4565 		.ascii	"emEepromRowAddr\000"
 10161      70726F6D 
 10161      526F7741 
 10161      64647200 
 10162              	.LASF178:
 10163 0ab6 726F7754 		.ascii	"rowToWrPtr\000"
 10163      6F577250 
 10163      747200
 10164              	.LASF37:
 10165 0ac1 5F5F746D 		.ascii	"__tm_mday\000"
 10165      5F6D6461 
 10165      7900
 10166              	.LASF197:
 10167 0acb 65654461 		.ascii	"eeData\000"
 10167      746100
 10168              		.ident	"GCC: (GNU Tools for Arm Embedded Processors 8-2018-q4-major) 8.2.1 20181213 (release) [gcc
