ARM GAS  C:\Users\EDULU~1.DES\AppData\Local\Temp\cc9dcV7d.s 			page 1


   1              		.cpu cortex-m0
   2              		.eabi_attribute 20, 1
   3              		.eabi_attribute 21, 1
   4              		.eabi_attribute 23, 3
   5              		.eabi_attribute 24, 1
   6              		.eabi_attribute 25, 1
   7              		.eabi_attribute 26, 1
   8              		.eabi_attribute 30, 1
   9              		.eabi_attribute 34, 0
  10              		.eabi_attribute 18, 4
  11              		.file	"cy_em_eeprom.c"
  12              		.text
  13              	.Ltext0:
  14              		.cfi_sections	.debug_frame
  15              		.section	.text.FindLastWrittenRow,"ax",%progbits
  16              		.align	1
  17              		.arch armv6s-m
  18              		.syntax unified
  19              		.code	16
  20              		.thumb_func
  21              		.fpu softvfp
  22              		.type	FindLastWrittenRow, %function
  23              	FindLastWrittenRow:
  24              	.LVL0:
  25              	.LFB5:
  26              		.file 1 "Generated_Source\\PSoC4\\cy_em_eeprom.c"
   1:Generated_Source\PSoC4/cy_em_eeprom.c **** /***************************************************************************//**
   2:Generated_Source\PSoC4/cy_em_eeprom.c **** * \file cy_em_eeprom.c
   3:Generated_Source\PSoC4/cy_em_eeprom.c **** * \version 2.20
   4:Generated_Source\PSoC4/cy_em_eeprom.c **** *
   5:Generated_Source\PSoC4/cy_em_eeprom.c **** * \brief
   6:Generated_Source\PSoC4/cy_em_eeprom.c **** *  This file provides source code of the API for the Emulated EEPROM library.
   7:Generated_Source\PSoC4/cy_em_eeprom.c **** *  The Emulated EEPROM API allows creating of an emulated EEPROM in flash that
   8:Generated_Source\PSoC4/cy_em_eeprom.c **** *  has the ability to do wear leveling and restore corrupted data from a
   9:Generated_Source\PSoC4/cy_em_eeprom.c **** *  redundant copy.
  10:Generated_Source\PSoC4/cy_em_eeprom.c **** *
  11:Generated_Source\PSoC4/cy_em_eeprom.c **** ********************************************************************************
  12:Generated_Source\PSoC4/cy_em_eeprom.c **** * \copyright
  13:Generated_Source\PSoC4/cy_em_eeprom.c **** * Copyright 2017, Cypress Semiconductor Corporation.  All rights reserved.
  14:Generated_Source\PSoC4/cy_em_eeprom.c **** * You may use this file only in accordance with the license, terms, conditions,
  15:Generated_Source\PSoC4/cy_em_eeprom.c **** * disclaimers, and limitations in the end user license agreement accompanying
  16:Generated_Source\PSoC4/cy_em_eeprom.c **** * the software package with which this file was provided.
  17:Generated_Source\PSoC4/cy_em_eeprom.c **** *******************************************************************************/
  18:Generated_Source\PSoC4/cy_em_eeprom.c **** 
  19:Generated_Source\PSoC4/cy_em_eeprom.c **** 
  20:Generated_Source\PSoC4/cy_em_eeprom.c **** #include "cytypes.h"
  21:Generated_Source\PSoC4/cy_em_eeprom.c **** #include <string.h>
  22:Generated_Source\PSoC4/cy_em_eeprom.c **** 
  23:Generated_Source\PSoC4/cy_em_eeprom.c **** #if (CYDEV_CHIP_FAMILY_USED == CYDEV_CHIP_FAMILY_PSOC6)
  24:Generated_Source\PSoC4/cy_em_eeprom.c ****     #include "em_eeprom/cy_em_eeprom.h"
  25:Generated_Source\PSoC4/cy_em_eeprom.c **** #else
  26:Generated_Source\PSoC4/cy_em_eeprom.c ****     #include "cy_em_eeprom.h"
  27:Generated_Source\PSoC4/cy_em_eeprom.c **** #endif /* (CYDEV_CHIP_FAMILY_USED == CYDEV_CHIP_FAMILY_PSOC6) */
  28:Generated_Source\PSoC4/cy_em_eeprom.c **** 
  29:Generated_Source\PSoC4/cy_em_eeprom.c **** 
  30:Generated_Source\PSoC4/cy_em_eeprom.c **** #if defined(__cplusplus)
  31:Generated_Source\PSoC4/cy_em_eeprom.c **** extern "C" {
ARM GAS  C:\Users\EDULU~1.DES\AppData\Local\Temp\cc9dcV7d.s 			page 2


  32:Generated_Source\PSoC4/cy_em_eeprom.c **** #endif
  33:Generated_Source\PSoC4/cy_em_eeprom.c **** 
  34:Generated_Source\PSoC4/cy_em_eeprom.c **** 
  35:Generated_Source\PSoC4/cy_em_eeprom.c **** /***************************************
  36:Generated_Source\PSoC4/cy_em_eeprom.c **** * Private Function Prototypes
  37:Generated_Source\PSoC4/cy_em_eeprom.c **** ***************************************/
  38:Generated_Source\PSoC4/cy_em_eeprom.c **** static void FindLastWrittenRow(uint32 * lastWrRowPtr, cy_stc_eeprom_context_t * context);
  39:Generated_Source\PSoC4/cy_em_eeprom.c **** static uint32 GetRowAddrBySeqNum(uint32 seqNum, cy_stc_eeprom_context_t * context);
  40:Generated_Source\PSoC4/cy_em_eeprom.c **** static uint8 CalcChecksum(uint8 rowData[], uint32 len);
  41:Generated_Source\PSoC4/cy_em_eeprom.c **** static void GetNextRowToWrite(uint32 seqNum,
  42:Generated_Source\PSoC4/cy_em_eeprom.c ****                             uint32 * rowToWrPtr,
  43:Generated_Source\PSoC4/cy_em_eeprom.c ****                             uint32 * rowToRdPtr,
  44:Generated_Source\PSoC4/cy_em_eeprom.c ****                             cy_stc_eeprom_context_t * context);
  45:Generated_Source\PSoC4/cy_em_eeprom.c **** static cy_en_em_eeprom_status_t CheckRanges(cy_stc_eeprom_config_t* config);
  46:Generated_Source\PSoC4/cy_em_eeprom.c **** static cy_en_em_eeprom_status_t WriteRow(uint32 rowAddr, uint32 *rowData, cy_stc_eeprom_context_t *
  47:Generated_Source\PSoC4/cy_em_eeprom.c **** static cy_en_em_eeprom_status_t EraseRow(uint32 rowAddr, uint32 ramBuffAddr, cy_stc_eeprom_context_
  48:Generated_Source\PSoC4/cy_em_eeprom.c **** static cy_en_em_eeprom_status_t CheckCrcAndCopy(uint32 startAddr,
  49:Generated_Source\PSoC4/cy_em_eeprom.c ****                                                 uint32 dstAddr,
  50:Generated_Source\PSoC4/cy_em_eeprom.c ****                                                 uint32 rowOffset,
  51:Generated_Source\PSoC4/cy_em_eeprom.c ****                                                 uint32 numBytes,
  52:Generated_Source\PSoC4/cy_em_eeprom.c ****                                                 cy_stc_eeprom_context_t * context);
  53:Generated_Source\PSoC4/cy_em_eeprom.c **** static uint32 GetAddresses(uint32 *startAddr, uint32 *endAddr, uint32 *offset, uint32 rowNum, uint3
  54:Generated_Source\PSoC4/cy_em_eeprom.c **** static cy_en_em_eeprom_status_t FillChecksum(cy_stc_eeprom_context_t * context);
  55:Generated_Source\PSoC4/cy_em_eeprom.c **** 
  56:Generated_Source\PSoC4/cy_em_eeprom.c **** /**
  57:Generated_Source\PSoC4/cy_em_eeprom.c **** * \addtogroup group_em_eeprom_functions
  58:Generated_Source\PSoC4/cy_em_eeprom.c **** * \{
  59:Generated_Source\PSoC4/cy_em_eeprom.c **** */
  60:Generated_Source\PSoC4/cy_em_eeprom.c **** 
  61:Generated_Source\PSoC4/cy_em_eeprom.c **** /*******************************************************************************
  62:Generated_Source\PSoC4/cy_em_eeprom.c **** * Function Name: Cy_Em_EEPROM_Init
  63:Generated_Source\PSoC4/cy_em_eeprom.c **** ****************************************************************************//**
  64:Generated_Source\PSoC4/cy_em_eeprom.c **** *
  65:Generated_Source\PSoC4/cy_em_eeprom.c **** * Initializes the Emulated EEPROM library by filling the context structure. 
  66:Generated_Source\PSoC4/cy_em_eeprom.c **** *
  67:Generated_Source\PSoC4/cy_em_eeprom.c **** * \param config
  68:Generated_Source\PSoC4/cy_em_eeprom.c **** * The pointer to a configuration structure. See \ref cy_stc_eeprom_config_t.
  69:Generated_Source\PSoC4/cy_em_eeprom.c **** *
  70:Generated_Source\PSoC4/cy_em_eeprom.c **** * \param context
  71:Generated_Source\PSoC4/cy_em_eeprom.c **** * The pointer to the EEPROM context structure to be filled by the function.
  72:Generated_Source\PSoC4/cy_em_eeprom.c **** * \ref cy_stc_eeprom_context_t.
  73:Generated_Source\PSoC4/cy_em_eeprom.c **** *
  74:Generated_Source\PSoC4/cy_em_eeprom.c **** * \return
  75:Generated_Source\PSoC4/cy_em_eeprom.c **** * error / status code. See \ref cy_en_em_eeprom_status_t.
  76:Generated_Source\PSoC4/cy_em_eeprom.c **** *
  77:Generated_Source\PSoC4/cy_em_eeprom.c **** * \note
  78:Generated_Source\PSoC4/cy_em_eeprom.c **** * The context structure should not be modified by the user after it is filled
  79:Generated_Source\PSoC4/cy_em_eeprom.c **** * with this function. Modification of context structure may cause the 
  80:Generated_Source\PSoC4/cy_em_eeprom.c **** * unexpected behavior of the Cy_Em_EEPROM API functions which rely on it.
  81:Generated_Source\PSoC4/cy_em_eeprom.c **** *
  82:Generated_Source\PSoC4/cy_em_eeprom.c **** * \note
  83:Generated_Source\PSoC4/cy_em_eeprom.c **** * This function uses a buffer of the flash row size to perform read
  84:Generated_Source\PSoC4/cy_em_eeprom.c **** * operation. For the size of the row refer to the specific PSoC device
  85:Generated_Source\PSoC4/cy_em_eeprom.c **** * datasheet.
  86:Generated_Source\PSoC4/cy_em_eeprom.c **** *
  87:Generated_Source\PSoC4/cy_em_eeprom.c **** * \sideeffect 
  88:Generated_Source\PSoC4/cy_em_eeprom.c **** * If the "Redundant Copy" option is used, the function performs a number of 
ARM GAS  C:\Users\EDULU~1.DES\AppData\Local\Temp\cc9dcV7d.s 			page 3


  89:Generated_Source\PSoC4/cy_em_eeprom.c **** * write operations to the EEPROM to initialize flash rows checksums. Therefore,
  90:Generated_Source\PSoC4/cy_em_eeprom.c **** * Cy_Em_EEPROM_NumWrites(), when it is called right after Cy_Em_EEPROM_Init(), 
  91:Generated_Source\PSoC4/cy_em_eeprom.c **** * will return a non-zero value that identifies the number of writes performed 
  92:Generated_Source\PSoC4/cy_em_eeprom.c **** * by Cy_Em_EEPROM_Init().
  93:Generated_Source\PSoC4/cy_em_eeprom.c **** *
  94:Generated_Source\PSoC4/cy_em_eeprom.c **** *******************************************************************************/
  95:Generated_Source\PSoC4/cy_em_eeprom.c **** cy_en_em_eeprom_status_t Cy_Em_EEPROM_Init(cy_stc_eeprom_config_t* config, cy_stc_eeprom_context_t 
  96:Generated_Source\PSoC4/cy_em_eeprom.c **** {
  97:Generated_Source\PSoC4/cy_em_eeprom.c ****     cy_en_em_eeprom_status_t ret = CY_EM_EEPROM_BAD_PARAM;
  98:Generated_Source\PSoC4/cy_em_eeprom.c **** 
  99:Generated_Source\PSoC4/cy_em_eeprom.c ****     if((NULL != context) && (NULL != config) && (NULL != ((uint32 *)config->userFlashStartAddr)) &&
 100:Generated_Source\PSoC4/cy_em_eeprom.c ****         (config->wearLevelingFactor <= CY_EM_EEPROM_MAX_WEAR_LEVELING_FACTOR) && (config->eepromSiz
 101:Generated_Source\PSoC4/cy_em_eeprom.c ****     {
 102:Generated_Source\PSoC4/cy_em_eeprom.c ****         ret = CheckRanges(config);
 103:Generated_Source\PSoC4/cy_em_eeprom.c **** 
 104:Generated_Source\PSoC4/cy_em_eeprom.c ****         if(CY_EM_EEPROM_SUCCESS == ret)
 105:Generated_Source\PSoC4/cy_em_eeprom.c ****         {
 106:Generated_Source\PSoC4/cy_em_eeprom.c ****             /* Copy the user config structure fields into context */
 107:Generated_Source\PSoC4/cy_em_eeprom.c ****             context->eepromSize = config->eepromSize;
 108:Generated_Source\PSoC4/cy_em_eeprom.c ****             context->wearLevelingFactor = config->wearLevelingFactor;
 109:Generated_Source\PSoC4/cy_em_eeprom.c ****             context->redundantCopy = config->redundantCopy;
 110:Generated_Source\PSoC4/cy_em_eeprom.c ****             context->blockingWrite = config->blockingWrite;
 111:Generated_Source\PSoC4/cy_em_eeprom.c ****             context->userFlashStartAddr = config->userFlashStartAddr;
 112:Generated_Source\PSoC4/cy_em_eeprom.c ****             /* Store frequently used data for internal use */
 113:Generated_Source\PSoC4/cy_em_eeprom.c ****             context->numberOfRows = CY_EM_EEPROM_GET_NUM_ROWS_IN_EEPROM(config->eepromSize);
 114:Generated_Source\PSoC4/cy_em_eeprom.c ****             context->wlEndAddr = ((CY_EM_EEPROM_GET_EEPROM_SIZE(context->numberOfRows) * config->we
 115:Generated_Source\PSoC4/cy_em_eeprom.c ****                     config->userFlashStartAddr);
 116:Generated_Source\PSoC4/cy_em_eeprom.c ****             /* Find last written EEPROM row and store it for quick access */
 117:Generated_Source\PSoC4/cy_em_eeprom.c ****             FindLastWrittenRow(&context->lastWrRowAddr, context);
 118:Generated_Source\PSoC4/cy_em_eeprom.c **** 
 119:Generated_Source\PSoC4/cy_em_eeprom.c ****             if((0u == CY_EM_EEPROM_GET_SEQ_NUM(context->lastWrRowAddr)) && (0u != context->redundan
 120:Generated_Source\PSoC4/cy_em_eeprom.c ****             {
 121:Generated_Source\PSoC4/cy_em_eeprom.c ****                 /* Call the function only after device reprogramming in case
 122:Generated_Source\PSoC4/cy_em_eeprom.c ****                 * if redundant copy is enabled.
 123:Generated_Source\PSoC4/cy_em_eeprom.c ****                 */
 124:Generated_Source\PSoC4/cy_em_eeprom.c ****                 ret = FillChecksum(context);
 125:Generated_Source\PSoC4/cy_em_eeprom.c ****                 
 126:Generated_Source\PSoC4/cy_em_eeprom.c ****                 /* Update the last written EEPROM row for Cy_Em_EEPROM_NumWrites() */
 127:Generated_Source\PSoC4/cy_em_eeprom.c ****                 FindLastWrittenRow(&context->lastWrRowAddr, context);
 128:Generated_Source\PSoC4/cy_em_eeprom.c ****             }
 129:Generated_Source\PSoC4/cy_em_eeprom.c ****         }
 130:Generated_Source\PSoC4/cy_em_eeprom.c ****     }
 131:Generated_Source\PSoC4/cy_em_eeprom.c **** 
 132:Generated_Source\PSoC4/cy_em_eeprom.c ****     return(ret);
 133:Generated_Source\PSoC4/cy_em_eeprom.c **** }
 134:Generated_Source\PSoC4/cy_em_eeprom.c **** 
 135:Generated_Source\PSoC4/cy_em_eeprom.c **** 
 136:Generated_Source\PSoC4/cy_em_eeprom.c **** /*******************************************************************************
 137:Generated_Source\PSoC4/cy_em_eeprom.c **** * Function Name: Cy_Em_EEPROM_Read
 138:Generated_Source\PSoC4/cy_em_eeprom.c **** ****************************************************************************//**
 139:Generated_Source\PSoC4/cy_em_eeprom.c **** *
 140:Generated_Source\PSoC4/cy_em_eeprom.c **** * This function takes the logical EEPROM address, converts it to the actual
 141:Generated_Source\PSoC4/cy_em_eeprom.c **** * physical address where the data is stored and returns the data to the user.
 142:Generated_Source\PSoC4/cy_em_eeprom.c **** *
 143:Generated_Source\PSoC4/cy_em_eeprom.c **** * \param addr
 144:Generated_Source\PSoC4/cy_em_eeprom.c **** * The logical start address in EEPROM to start reading data from.
 145:Generated_Source\PSoC4/cy_em_eeprom.c **** *
ARM GAS  C:\Users\EDULU~1.DES\AppData\Local\Temp\cc9dcV7d.s 			page 4


 146:Generated_Source\PSoC4/cy_em_eeprom.c **** * \param eepromData
 147:Generated_Source\PSoC4/cy_em_eeprom.c **** * The pointer to a user array to write data to.
 148:Generated_Source\PSoC4/cy_em_eeprom.c **** *
 149:Generated_Source\PSoC4/cy_em_eeprom.c **** * \param size
 150:Generated_Source\PSoC4/cy_em_eeprom.c **** * The amount of data to read.
 151:Generated_Source\PSoC4/cy_em_eeprom.c **** *
 152:Generated_Source\PSoC4/cy_em_eeprom.c **** * \param context
 153:Generated_Source\PSoC4/cy_em_eeprom.c **** * The pointer to the EEPROM context structure \ref cy_stc_eeprom_context_t.
 154:Generated_Source\PSoC4/cy_em_eeprom.c **** *
 155:Generated_Source\PSoC4/cy_em_eeprom.c **** * \return
 156:Generated_Source\PSoC4/cy_em_eeprom.c **** * This function returns \ref cy_en_em_eeprom_status_t.
 157:Generated_Source\PSoC4/cy_em_eeprom.c **** *
 158:Generated_Source\PSoC4/cy_em_eeprom.c **** * \note
 159:Generated_Source\PSoC4/cy_em_eeprom.c **** * This function uses a buffer of the flash row size to perform read
 160:Generated_Source\PSoC4/cy_em_eeprom.c **** * operation. For the size of the row refer to the specific PSoC device
 161:Generated_Source\PSoC4/cy_em_eeprom.c **** * datasheet.
 162:Generated_Source\PSoC4/cy_em_eeprom.c **** *
 163:Generated_Source\PSoC4/cy_em_eeprom.c **** * \note
 164:Generated_Source\PSoC4/cy_em_eeprom.c **** * In case if redundant copy option is enabled the function may perform writes
 165:Generated_Source\PSoC4/cy_em_eeprom.c **** * to EEPROM. This is done in case if the data in the EEPPROM is corrupted and
 166:Generated_Source\PSoC4/cy_em_eeprom.c **** * the data in redundant copy is valid based on CRC-8 data integrity check.
 167:Generated_Source\PSoC4/cy_em_eeprom.c **** *
 168:Generated_Source\PSoC4/cy_em_eeprom.c **** *******************************************************************************/
 169:Generated_Source\PSoC4/cy_em_eeprom.c **** cy_en_em_eeprom_status_t Cy_Em_EEPROM_Read(uint32 addr, 
 170:Generated_Source\PSoC4/cy_em_eeprom.c ****                                         void * eepromData, 
 171:Generated_Source\PSoC4/cy_em_eeprom.c ****                                         uint32 size,
 172:Generated_Source\PSoC4/cy_em_eeprom.c ****                                         cy_stc_eeprom_context_t * context)
 173:Generated_Source\PSoC4/cy_em_eeprom.c **** {
 174:Generated_Source\PSoC4/cy_em_eeprom.c ****     cy_en_em_eeprom_status_t ret = CY_EM_EEPROM_BAD_PARAM;
 175:Generated_Source\PSoC4/cy_em_eeprom.c ****     uint32 i;
 176:Generated_Source\PSoC4/cy_em_eeprom.c ****     uint32 numBytesToRead;
 177:Generated_Source\PSoC4/cy_em_eeprom.c ****     uint32 curEepromBaseAddr;
 178:Generated_Source\PSoC4/cy_em_eeprom.c ****     uint32 curRowOffset;
 179:Generated_Source\PSoC4/cy_em_eeprom.c ****     uint32 startRowAddr;
 180:Generated_Source\PSoC4/cy_em_eeprom.c ****     uint32 actEepromRowNum;
 181:Generated_Source\PSoC4/cy_em_eeprom.c ****     uint32 curRdEepromRowNum = 0u;
 182:Generated_Source\PSoC4/cy_em_eeprom.c ****     uint32 dataStartEepromRowNum = 0u;
 183:Generated_Source\PSoC4/cy_em_eeprom.c ****     uint32 eeData = (uint32) eepromData; /* To avoid the pointer arithmetic with void */
 184:Generated_Source\PSoC4/cy_em_eeprom.c **** 
 185:Generated_Source\PSoC4/cy_em_eeprom.c ****     /* Validate input parameters */
 186:Generated_Source\PSoC4/cy_em_eeprom.c ****     if((0u != size) && ((addr + size) <= (context->eepromSize)) && (NULL != eepromData))
 187:Generated_Source\PSoC4/cy_em_eeprom.c ****     {
 188:Generated_Source\PSoC4/cy_em_eeprom.c ****         uint32 rdAddr = addr;
 189:Generated_Source\PSoC4/cy_em_eeprom.c ****         uint32 rdSize = size;
 190:Generated_Source\PSoC4/cy_em_eeprom.c ****         /* Get the sequence number of the last written row */
 191:Generated_Source\PSoC4/cy_em_eeprom.c ****         uint32 seqNum = CY_EM_EEPROM_GET_SEQ_NUM(context->lastWrRowAddr);
 192:Generated_Source\PSoC4/cy_em_eeprom.c ****         uint32 updateAddrFlag = 0u;
 193:Generated_Source\PSoC4/cy_em_eeprom.c **** 
 194:Generated_Source\PSoC4/cy_em_eeprom.c ****         /* Calculate the number of the row read operations. Currently this only concerns
 195:Generated_Source\PSoC4/cy_em_eeprom.c ****         * the reads from the EEPROM data locations.
 196:Generated_Source\PSoC4/cy_em_eeprom.c ****         */
 197:Generated_Source\PSoC4/cy_em_eeprom.c ****         uint32 numRowReads = ((((rdAddr + rdSize) - 1u) / CY_EM_EEPROM_EEPROM_DATA_LEN) -
 198:Generated_Source\PSoC4/cy_em_eeprom.c ****                               (rdAddr / CY_EM_EEPROM_EEPROM_DATA_LEN)) + 1u;
 199:Generated_Source\PSoC4/cy_em_eeprom.c **** 
 200:Generated_Source\PSoC4/cy_em_eeprom.c ****         /* Get the address of the first row of the currently active EEPROM sector. If
 201:Generated_Source\PSoC4/cy_em_eeprom.c ****         * no wear leveling is used - the EEPROM has only one sector, so use the base
 202:Generated_Source\PSoC4/cy_em_eeprom.c ****         * addr stored in "context->userFlashStartAddr".
ARM GAS  C:\Users\EDULU~1.DES\AppData\Local\Temp\cc9dcV7d.s 			page 5


 203:Generated_Source\PSoC4/cy_em_eeprom.c ****         */
 204:Generated_Source\PSoC4/cy_em_eeprom.c ****         curEepromBaseAddr = (((context->lastWrRowAddr - context->userFlashStartAddr) /
 205:Generated_Source\PSoC4/cy_em_eeprom.c ****                               (CY_EM_EEPROM_FLASH_SIZEOF_ROW * context->numberOfRows)) *
 206:Generated_Source\PSoC4/cy_em_eeprom.c ****                               (CY_EM_EEPROM_FLASH_SIZEOF_ROW * context->numberOfRows)) +
 207:Generated_Source\PSoC4/cy_em_eeprom.c ****                                context->userFlashStartAddr;
 208:Generated_Source\PSoC4/cy_em_eeprom.c **** 
 209:Generated_Source\PSoC4/cy_em_eeprom.c ****         /* Find the number of the row that contains the start address of the data */
 210:Generated_Source\PSoC4/cy_em_eeprom.c ****         for(i = 0u; i < context->numberOfRows; i++)
 211:Generated_Source\PSoC4/cy_em_eeprom.c ****         {
 212:Generated_Source\PSoC4/cy_em_eeprom.c ****             if(0u != CY_EM_EEPROM_IS_ADDR_IN_ROW_RANGE(rdAddr, i))
 213:Generated_Source\PSoC4/cy_em_eeprom.c ****             {
 214:Generated_Source\PSoC4/cy_em_eeprom.c ****                 dataStartEepromRowNum = i;
 215:Generated_Source\PSoC4/cy_em_eeprom.c ****                 curRdEepromRowNum = dataStartEepromRowNum;
 216:Generated_Source\PSoC4/cy_em_eeprom.c ****                 break;
 217:Generated_Source\PSoC4/cy_em_eeprom.c ****             }
 218:Generated_Source\PSoC4/cy_em_eeprom.c ****         }
 219:Generated_Source\PSoC4/cy_em_eeprom.c **** 
 220:Generated_Source\PSoC4/cy_em_eeprom.c ****         /* Find the row number of the last written row */
 221:Generated_Source\PSoC4/cy_em_eeprom.c ****         actEepromRowNum = (context->lastWrRowAddr - curEepromBaseAddr) / CY_EM_EEPROM_FLASH_SIZEOF_
 222:Generated_Source\PSoC4/cy_em_eeprom.c **** 
 223:Generated_Source\PSoC4/cy_em_eeprom.c ****         /* Check if wear leveling is used */
 224:Generated_Source\PSoC4/cy_em_eeprom.c ****         if(context->wearLevelingFactor > 1u)
 225:Generated_Source\PSoC4/cy_em_eeprom.c ****         {
 226:Generated_Source\PSoC4/cy_em_eeprom.c ****             uint32 dataEndEepromRowNum = dataStartEepromRowNum + (numRowReads - 1u);
 227:Generated_Source\PSoC4/cy_em_eeprom.c **** 
 228:Generated_Source\PSoC4/cy_em_eeprom.c ****             /* Check if the future validation of the read address is required. */
 229:Generated_Source\PSoC4/cy_em_eeprom.c ****             updateAddrFlag = (dataStartEepromRowNum > actEepromRowNum) ? 1u :
 230:Generated_Source\PSoC4/cy_em_eeprom.c ****                               ((dataEndEepromRowNum > actEepromRowNum) ? 1u : 0u);
 231:Generated_Source\PSoC4/cy_em_eeprom.c ****         }
 232:Generated_Source\PSoC4/cy_em_eeprom.c **** 
 233:Generated_Source\PSoC4/cy_em_eeprom.c ****         /* Copy data from the EEPROM data locations to the user buffer */
 234:Generated_Source\PSoC4/cy_em_eeprom.c ****         for(i = 0u; i < numRowReads; i++)
 235:Generated_Source\PSoC4/cy_em_eeprom.c ****         {
 236:Generated_Source\PSoC4/cy_em_eeprom.c ****             startRowAddr = curEepromBaseAddr + (curRdEepromRowNum * CY_EM_EEPROM_FLASH_SIZEOF_ROW);
 237:Generated_Source\PSoC4/cy_em_eeprom.c ****             curRowOffset = CY_EM_EEPROM_EEPROM_DATA_LEN + (rdAddr % CY_EM_EEPROM_EEPROM_DATA_LEN);
 238:Generated_Source\PSoC4/cy_em_eeprom.c **** 
 239:Generated_Source\PSoC4/cy_em_eeprom.c ****             /* Check if there are more reads pending and update the number of the
 240:Generated_Source\PSoC4/cy_em_eeprom.c ****             * remaining bytes to read respectively.
 241:Generated_Source\PSoC4/cy_em_eeprom.c ****             */
 242:Generated_Source\PSoC4/cy_em_eeprom.c ****             if((i + 1u) < numRowReads)
 243:Generated_Source\PSoC4/cy_em_eeprom.c ****             {
 244:Generated_Source\PSoC4/cy_em_eeprom.c ****                 numBytesToRead = CY_EM_EEPROM_EEPROM_DATA_LEN - (rdAddr % CY_EM_EEPROM_EEPROM_DATA_
 245:Generated_Source\PSoC4/cy_em_eeprom.c ****             }
 246:Generated_Source\PSoC4/cy_em_eeprom.c ****             else
 247:Generated_Source\PSoC4/cy_em_eeprom.c ****             {
 248:Generated_Source\PSoC4/cy_em_eeprom.c ****                 numBytesToRead = rdSize;
 249:Generated_Source\PSoC4/cy_em_eeprom.c ****             }
 250:Generated_Source\PSoC4/cy_em_eeprom.c **** 
 251:Generated_Source\PSoC4/cy_em_eeprom.c ****             /* Check if the read address needs to be updated to point to the correct
 252:Generated_Source\PSoC4/cy_em_eeprom.c ****             * EEPROM sector.
 253:Generated_Source\PSoC4/cy_em_eeprom.c ****             */
 254:Generated_Source\PSoC4/cy_em_eeprom.c ****             if((0u != updateAddrFlag) && (curRdEepromRowNum > actEepromRowNum))
 255:Generated_Source\PSoC4/cy_em_eeprom.c ****             {
 256:Generated_Source\PSoC4/cy_em_eeprom.c ****                 startRowAddr -= context->numberOfRows * CY_EM_EEPROM_FLASH_SIZEOF_ROW;
 257:Generated_Source\PSoC4/cy_em_eeprom.c **** 
 258:Generated_Source\PSoC4/cy_em_eeprom.c ****                 if(startRowAddr < context->userFlashStartAddr)
 259:Generated_Source\PSoC4/cy_em_eeprom.c ****                 {
ARM GAS  C:\Users\EDULU~1.DES\AppData\Local\Temp\cc9dcV7d.s 			page 6


 260:Generated_Source\PSoC4/cy_em_eeprom.c ****                     startRowAddr = context->wlEndAddr -
 261:Generated_Source\PSoC4/cy_em_eeprom.c ****                         ((context->numberOfRows - curRdEepromRowNum) * CY_EM_EEPROM_FLASH_SIZEOF_RO
 262:Generated_Source\PSoC4/cy_em_eeprom.c ****                 }
 263:Generated_Source\PSoC4/cy_em_eeprom.c ****             }
 264:Generated_Source\PSoC4/cy_em_eeprom.c **** 
 265:Generated_Source\PSoC4/cy_em_eeprom.c ****             if(0u != context->redundantCopy)
 266:Generated_Source\PSoC4/cy_em_eeprom.c ****             {
 267:Generated_Source\PSoC4/cy_em_eeprom.c ****                 /* Check a checksum of the EEPROM row and if it is bad, check a checksum in
 268:Generated_Source\PSoC4/cy_em_eeprom.c ****                 * the corresponding row in redundant copy, otherwise return failure.
 269:Generated_Source\PSoC4/cy_em_eeprom.c ****                 */
 270:Generated_Source\PSoC4/cy_em_eeprom.c ****                 ret = CheckCrcAndCopy(startRowAddr, eeData, curRowOffset, numBytesToRead, context);
 271:Generated_Source\PSoC4/cy_em_eeprom.c **** 
 272:Generated_Source\PSoC4/cy_em_eeprom.c ****                 if(CY_EM_EEPROM_SUCCESS != ret)
 273:Generated_Source\PSoC4/cy_em_eeprom.c ****                 {
 274:Generated_Source\PSoC4/cy_em_eeprom.c ****                     break;
 275:Generated_Source\PSoC4/cy_em_eeprom.c ****                 }
 276:Generated_Source\PSoC4/cy_em_eeprom.c ****             }
 277:Generated_Source\PSoC4/cy_em_eeprom.c ****             else
 278:Generated_Source\PSoC4/cy_em_eeprom.c ****             {
 279:Generated_Source\PSoC4/cy_em_eeprom.c ****                 /* Copy the data to the user buffer */
 280:Generated_Source\PSoC4/cy_em_eeprom.c ****                 (void)memcpy((void *)(eeData),
 281:Generated_Source\PSoC4/cy_em_eeprom.c ****                              (void *)(startRowAddr + curRowOffset),
 282:Generated_Source\PSoC4/cy_em_eeprom.c ****                              numBytesToRead);
 283:Generated_Source\PSoC4/cy_em_eeprom.c **** 
 284:Generated_Source\PSoC4/cy_em_eeprom.c ****                 /* Indicate success to be able to execute next code block */
 285:Generated_Source\PSoC4/cy_em_eeprom.c ****                 ret = CY_EM_EEPROM_SUCCESS;
 286:Generated_Source\PSoC4/cy_em_eeprom.c ****             }
 287:Generated_Source\PSoC4/cy_em_eeprom.c **** 
 288:Generated_Source\PSoC4/cy_em_eeprom.c ****             /* Update variables anticipated in the read operation */
 289:Generated_Source\PSoC4/cy_em_eeprom.c ****             rdAddr += numBytesToRead;
 290:Generated_Source\PSoC4/cy_em_eeprom.c ****             rdSize -= numBytesToRead;
 291:Generated_Source\PSoC4/cy_em_eeprom.c ****             eeData += numBytesToRead;
 292:Generated_Source\PSoC4/cy_em_eeprom.c ****             curRdEepromRowNum++;
 293:Generated_Source\PSoC4/cy_em_eeprom.c ****         }
 294:Generated_Source\PSoC4/cy_em_eeprom.c **** 
 295:Generated_Source\PSoC4/cy_em_eeprom.c ****         /* This code block will copy the latest data from the EEPROM headers into the
 296:Generated_Source\PSoC4/cy_em_eeprom.c ****         * user buffer. The data previously copied into the user buffer may be updated
 297:Generated_Source\PSoC4/cy_em_eeprom.c ****         * as the EEPROM headers contain more recent data. 
 298:Generated_Source\PSoC4/cy_em_eeprom.c ****         * The code block is executed when two following conditions are true:
 299:Generated_Source\PSoC4/cy_em_eeprom.c ****         *  1) The reads from "historic" data locations were successful;
 300:Generated_Source\PSoC4/cy_em_eeprom.c ****         *  2) The user performed at least one write operation to Em_EEPROM (0u !=
 301:Generated_Source\PSoC4/cy_em_eeprom.c ****         *     seqNum).        
 302:Generated_Source\PSoC4/cy_em_eeprom.c ****         */
 303:Generated_Source\PSoC4/cy_em_eeprom.c ****         if((CY_EM_EEPROM_SUCCESS == ret) && (0u != seqNum))
 304:Generated_Source\PSoC4/cy_em_eeprom.c ****         {
 305:Generated_Source\PSoC4/cy_em_eeprom.c ****             numRowReads = (context->numberOfRows <= seqNum) ? (context->numberOfRows) : (seqNum);
 306:Generated_Source\PSoC4/cy_em_eeprom.c ****             numRowReads--;
 307:Generated_Source\PSoC4/cy_em_eeprom.c **** 
 308:Generated_Source\PSoC4/cy_em_eeprom.c ****             for(i = (seqNum - numRowReads); i <= seqNum; i++)
 309:Generated_Source\PSoC4/cy_em_eeprom.c ****             {
 310:Generated_Source\PSoC4/cy_em_eeprom.c ****                 startRowAddr = GetRowAddrBySeqNum(i, context);
 311:Generated_Source\PSoC4/cy_em_eeprom.c **** 
 312:Generated_Source\PSoC4/cy_em_eeprom.c ****                 if (0u != startRowAddr)
 313:Generated_Source\PSoC4/cy_em_eeprom.c ****                 {
 314:Generated_Source\PSoC4/cy_em_eeprom.c ****                     /* The following variables are introduced to increase code readability. */
 315:Generated_Source\PSoC4/cy_em_eeprom.c ****                     uint32 startAddr  = *(uint32 *)(startRowAddr + CY_EM_EEPROM_HEADER_ADDR_OFFSET)
 316:Generated_Source\PSoC4/cy_em_eeprom.c ****                     uint32 endAddr    = startAddr + (*(uint32 *)(startRowAddr + CY_EM_EEPROM_HEADER
ARM GAS  C:\Users\EDULU~1.DES\AppData\Local\Temp\cc9dcV7d.s 			page 7


 317:Generated_Source\PSoC4/cy_em_eeprom.c **** 
 318:Generated_Source\PSoC4/cy_em_eeprom.c ****                     /* Check if the current row EEPROM header contains the data requested for read 
 319:Generated_Source\PSoC4/cy_em_eeprom.c ****                     if(0u != CY_EM_EEPROM_IS_ADDRESES_CROSSING(startAddr, endAddr, addr, addr + siz
 320:Generated_Source\PSoC4/cy_em_eeprom.c ****                     {
 321:Generated_Source\PSoC4/cy_em_eeprom.c ****                         uint32 srcOffset = (startAddr > addr) ? (0u) : (addr - startAddr);
 322:Generated_Source\PSoC4/cy_em_eeprom.c ****                         uint32 dstOffset = (startAddr > addr) ? (startAddr - addr): (0u);
 323:Generated_Source\PSoC4/cy_em_eeprom.c ****                         rdAddr = (startAddr > addr) ? (startAddr) : (addr);
 324:Generated_Source\PSoC4/cy_em_eeprom.c **** 
 325:Generated_Source\PSoC4/cy_em_eeprom.c ****                         srcOffset += CY_EM_EEPROM_HEADER_DATA_OFFSET;
 326:Generated_Source\PSoC4/cy_em_eeprom.c **** 
 327:Generated_Source\PSoC4/cy_em_eeprom.c ****                         /* Calculate the number of bytes to be read from the current row's EEPROM h
 328:Generated_Source\PSoC4/cy_em_eeprom.c ****                         numBytesToRead = ((endAddr < (addr + size)) ? endAddr : (addr + size)) - rd
 329:Generated_Source\PSoC4/cy_em_eeprom.c **** 
 330:Generated_Source\PSoC4/cy_em_eeprom.c ****                         /* Calculate the offset in the user buffer from which the data will be upda
 331:Generated_Source\PSoC4/cy_em_eeprom.c ****                         eeData = ((uint32)eepromData) + dstOffset;
 332:Generated_Source\PSoC4/cy_em_eeprom.c **** 
 333:Generated_Source\PSoC4/cy_em_eeprom.c ****                         /* Check a checksum of the EEPROM row and if it is bad, check a checksum in
 334:Generated_Source\PSoC4/cy_em_eeprom.c ****                         * corresponding row in redundant copy, otherwise return failure. Copy the d
 335:Generated_Source\PSoC4/cy_em_eeprom.c ****                         * from the recent EEPROM headers to the user buffer. This will overwrite th
 336:Generated_Source\PSoC4/cy_em_eeprom.c ****                         * data copied form EEPROM data locations as the data in EEPROM headers is n
 337:Generated_Source\PSoC4/cy_em_eeprom.c ****                         */
 338:Generated_Source\PSoC4/cy_em_eeprom.c ****                         if(0u != context->redundantCopy)
 339:Generated_Source\PSoC4/cy_em_eeprom.c ****                         {
 340:Generated_Source\PSoC4/cy_em_eeprom.c ****                             ret = CheckCrcAndCopy(startRowAddr, eeData, srcOffset, numBytesToRead, 
 341:Generated_Source\PSoC4/cy_em_eeprom.c **** 
 342:Generated_Source\PSoC4/cy_em_eeprom.c ****                             if(CY_EM_EEPROM_SUCCESS != ret)
 343:Generated_Source\PSoC4/cy_em_eeprom.c ****                             {
 344:Generated_Source\PSoC4/cy_em_eeprom.c ****                                 break;
 345:Generated_Source\PSoC4/cy_em_eeprom.c ****                             }
 346:Generated_Source\PSoC4/cy_em_eeprom.c ****                         }
 347:Generated_Source\PSoC4/cy_em_eeprom.c ****                         else
 348:Generated_Source\PSoC4/cy_em_eeprom.c ****                         {
 349:Generated_Source\PSoC4/cy_em_eeprom.c ****                             (void)memcpy((void *)(eeData), (void *)(startRowAddr + srcOffset), numB
 350:Generated_Source\PSoC4/cy_em_eeprom.c ****                         }
 351:Generated_Source\PSoC4/cy_em_eeprom.c ****                     }
 352:Generated_Source\PSoC4/cy_em_eeprom.c ****                 }
 353:Generated_Source\PSoC4/cy_em_eeprom.c ****             }
 354:Generated_Source\PSoC4/cy_em_eeprom.c ****         }
 355:Generated_Source\PSoC4/cy_em_eeprom.c ****     }
 356:Generated_Source\PSoC4/cy_em_eeprom.c **** 
 357:Generated_Source\PSoC4/cy_em_eeprom.c ****     return(ret);
 358:Generated_Source\PSoC4/cy_em_eeprom.c **** }
 359:Generated_Source\PSoC4/cy_em_eeprom.c **** 
 360:Generated_Source\PSoC4/cy_em_eeprom.c **** 
 361:Generated_Source\PSoC4/cy_em_eeprom.c **** /*******************************************************************************
 362:Generated_Source\PSoC4/cy_em_eeprom.c **** * Function Name: Cy_Em_EEPROM_Write
 363:Generated_Source\PSoC4/cy_em_eeprom.c **** ****************************************************************************//**
 364:Generated_Source\PSoC4/cy_em_eeprom.c **** *
 365:Generated_Source\PSoC4/cy_em_eeprom.c **** * This function takes the logical EEPROM address and converts it to the actual
 366:Generated_Source\PSoC4/cy_em_eeprom.c **** * physical address and writes data there. If wear leveling is implemented, the
 367:Generated_Source\PSoC4/cy_em_eeprom.c **** * writing process will use the wear leveling techniques. This is a blocking
 368:Generated_Source\PSoC4/cy_em_eeprom.c **** * function and it does not return until the write operation is completed. The
 369:Generated_Source\PSoC4/cy_em_eeprom.c **** * user firmware should not enter Hibernate mode until write is completed. The
 370:Generated_Source\PSoC4/cy_em_eeprom.c **** * write operation is allowed in Sleep and Deep-Sleep modes. During the flash
 371:Generated_Source\PSoC4/cy_em_eeprom.c **** * operation, the device should not be reset, including the XRES pin, a software
 372:Generated_Source\PSoC4/cy_em_eeprom.c **** * reset, and watchdog reset sources. Also, low-voltage detect circuits should
 373:Generated_Source\PSoC4/cy_em_eeprom.c **** * be configured to generate an interrupt instead of a reset. Otherwise, portions
ARM GAS  C:\Users\EDULU~1.DES\AppData\Local\Temp\cc9dcV7d.s 			page 8


 374:Generated_Source\PSoC4/cy_em_eeprom.c **** * of flash may undergo unexpected changes.
 375:Generated_Source\PSoC4/cy_em_eeprom.c **** *
 376:Generated_Source\PSoC4/cy_em_eeprom.c **** * \param addr
 377:Generated_Source\PSoC4/cy_em_eeprom.c **** * The logical start address in EEPROM to start writing data from.
 378:Generated_Source\PSoC4/cy_em_eeprom.c **** *
 379:Generated_Source\PSoC4/cy_em_eeprom.c **** * \param eepromData
 380:Generated_Source\PSoC4/cy_em_eeprom.c **** * Data to write to EEPROM.
 381:Generated_Source\PSoC4/cy_em_eeprom.c **** *
 382:Generated_Source\PSoC4/cy_em_eeprom.c **** * \param size
 383:Generated_Source\PSoC4/cy_em_eeprom.c **** * The amount of data to write to EEPROM.
 384:Generated_Source\PSoC4/cy_em_eeprom.c **** *
 385:Generated_Source\PSoC4/cy_em_eeprom.c **** * \param context
 386:Generated_Source\PSoC4/cy_em_eeprom.c **** * The pointer to the EEPROM context structure \ref cy_stc_eeprom_context_t.
 387:Generated_Source\PSoC4/cy_em_eeprom.c **** *
 388:Generated_Source\PSoC4/cy_em_eeprom.c **** * \return
 389:Generated_Source\PSoC4/cy_em_eeprom.c **** * This function returns \ref cy_en_em_eeprom_status_t.
 390:Generated_Source\PSoC4/cy_em_eeprom.c **** *
 391:Generated_Source\PSoC4/cy_em_eeprom.c **** * \note
 392:Generated_Source\PSoC4/cy_em_eeprom.c **** * This function uses a buffer of the flash row size to perform write
 393:Generated_Source\PSoC4/cy_em_eeprom.c **** * operation. For the size of the row refer to the specific PSoC device
 394:Generated_Source\PSoC4/cy_em_eeprom.c **** * datasheet.
 395:Generated_Source\PSoC4/cy_em_eeprom.c **** *
 396:Generated_Source\PSoC4/cy_em_eeprom.c **** * \sideeffect
 397:Generated_Source\PSoC4/cy_em_eeprom.c **** * In case when blocking write option is used, if this function is called by
 398:Generated_Source\PSoC4/cy_em_eeprom.c **** * the CM4 the user code on CM0P and the user code on CM4 are blocked until erase
 399:Generated_Source\PSoC4/cy_em_eeprom.c **** * flash row operation is finished. If this function is called by the CM0P the
 400:Generated_Source\PSoC4/cy_em_eeprom.c **** * user code on CM4 is not blocked and the user code on CM0P is blocked until
 401:Generated_Source\PSoC4/cy_em_eeprom.c **** * erase flash row operation is finished. Plan your task allocation accordingly.
 402:Generated_Source\PSoC4/cy_em_eeprom.c **** *
 403:Generated_Source\PSoC4/cy_em_eeprom.c **** * \sideeffect
 404:Generated_Source\PSoC4/cy_em_eeprom.c **** * In case if non-blocking write option is used and when user flash is used as
 405:Generated_Source\PSoC4/cy_em_eeprom.c **** * an EEPROM storage care should be taken to prevent the read while write (RWW)
 406:Generated_Source\PSoC4/cy_em_eeprom.c **** * exception. To prevent the RWW exception the user flash macro that includes
 407:Generated_Source\PSoC4/cy_em_eeprom.c **** * the EEPROM storage should not be read while the EEPROM write is not completed.
 408:Generated_Source\PSoC4/cy_em_eeprom.c **** * The read also means the user code execution from the respective flash macro.
 409:Generated_Source\PSoC4/cy_em_eeprom.c **** *
 410:Generated_Source\PSoC4/cy_em_eeprom.c **** *******************************************************************************/
 411:Generated_Source\PSoC4/cy_em_eeprom.c **** cy_en_em_eeprom_status_t Cy_Em_EEPROM_Write(uint32 addr,
 412:Generated_Source\PSoC4/cy_em_eeprom.c ****                                             void * eepromData,
 413:Generated_Source\PSoC4/cy_em_eeprom.c ****                                             uint32 size,
 414:Generated_Source\PSoC4/cy_em_eeprom.c ****                                             cy_stc_eeprom_context_t * context)
 415:Generated_Source\PSoC4/cy_em_eeprom.c **** {
 416:Generated_Source\PSoC4/cy_em_eeprom.c ****     cy_en_em_eeprom_status_t ret = CY_EM_EEPROM_BAD_PARAM;
 417:Generated_Source\PSoC4/cy_em_eeprom.c ****     uint32 i;
 418:Generated_Source\PSoC4/cy_em_eeprom.c ****     uint32 wrCnt;
 419:Generated_Source\PSoC4/cy_em_eeprom.c ****     uint32 actEmEepromRowNum;
 420:Generated_Source\PSoC4/cy_em_eeprom.c ****     uint32 writeRamBuffer[CY_EM_EEPROM_FLASH_SIZEOF_ROW / CY_EM_EEPROM_U32_DIV];
 421:Generated_Source\PSoC4/cy_em_eeprom.c ****     uint32 startAddr = 0u;
 422:Generated_Source\PSoC4/cy_em_eeprom.c ****     uint32 endAddr = 0u;
 423:Generated_Source\PSoC4/cy_em_eeprom.c ****     uint32 tmpRowAddr;
 424:Generated_Source\PSoC4/cy_em_eeprom.c ****     uint32 emEepromRowAddr = context->lastWrRowAddr;
 425:Generated_Source\PSoC4/cy_em_eeprom.c ****     uint32 emEepromRowRdAddr;
 426:Generated_Source\PSoC4/cy_em_eeprom.c ****     void * tmpData;
 427:Generated_Source\PSoC4/cy_em_eeprom.c ****     uint32 eeData = (uint32) eepromData; /* To avoid the pointer arithmetic with void */
 428:Generated_Source\PSoC4/cy_em_eeprom.c **** 
 429:Generated_Source\PSoC4/cy_em_eeprom.c ****     /* Check if the EEPROM data does not exceed the EEPROM capacity */
 430:Generated_Source\PSoC4/cy_em_eeprom.c ****     if((0u != size) && ((addr + size) <= (context->eepromSize)) && (NULL != eepromData))
ARM GAS  C:\Users\EDULU~1.DES\AppData\Local\Temp\cc9dcV7d.s 			page 9


 431:Generated_Source\PSoC4/cy_em_eeprom.c ****     {
 432:Generated_Source\PSoC4/cy_em_eeprom.c ****         uint32 numWrites = ((size - 1u) / CY_EM_EEPROM_HEADER_DATA_LEN) + 1u;
 433:Generated_Source\PSoC4/cy_em_eeprom.c ****         uint32 eeHeaderDataOffset = 0u;
 434:Generated_Source\PSoC4/cy_em_eeprom.c **** 
 435:Generated_Source\PSoC4/cy_em_eeprom.c ****         for(wrCnt = 0u; wrCnt < numWrites; wrCnt++)
 436:Generated_Source\PSoC4/cy_em_eeprom.c ****         {
 437:Generated_Source\PSoC4/cy_em_eeprom.c ****             uint32 skipOperation = 0u;
 438:Generated_Source\PSoC4/cy_em_eeprom.c ****             /* Get the sequence number of the last written row */
 439:Generated_Source\PSoC4/cy_em_eeprom.c ****             uint32 seqNum = CY_EM_EEPROM_GET_SEQ_NUM(emEepromRowAddr);
 440:Generated_Source\PSoC4/cy_em_eeprom.c **** 
 441:Generated_Source\PSoC4/cy_em_eeprom.c ****             /* Get the address of the row to be written. The "emEepromRowAddr" may be
 442:Generated_Source\PSoC4/cy_em_eeprom.c ****             * updated with the proper address (if wear leveling is used). The
 443:Generated_Source\PSoC4/cy_em_eeprom.c ****             * "emEepromRowRdAddr" will point to the row address from which the historic
 444:Generated_Source\PSoC4/cy_em_eeprom.c ****             * data will be read into the RAM buffer.
 445:Generated_Source\PSoC4/cy_em_eeprom.c ****             */
 446:Generated_Source\PSoC4/cy_em_eeprom.c ****             GetNextRowToWrite(seqNum, &emEepromRowAddr, &emEepromRowRdAddr, context);
 447:Generated_Source\PSoC4/cy_em_eeprom.c **** 
 448:Generated_Source\PSoC4/cy_em_eeprom.c ****             /* Clear the RAM buffer so to not put junk into flash */
 449:Generated_Source\PSoC4/cy_em_eeprom.c ****             (void)memset(writeRamBuffer, 0, CY_EM_EEPROM_FLASH_SIZEOF_ROW);
 450:Generated_Source\PSoC4/cy_em_eeprom.c **** 
 451:Generated_Source\PSoC4/cy_em_eeprom.c ****             /* Fill the EM_EEPROM header info for the row in the RAM buffer */
 452:Generated_Source\PSoC4/cy_em_eeprom.c ****             seqNum++;
 453:Generated_Source\PSoC4/cy_em_eeprom.c ****             writeRamBuffer[CY_EM_EEPROM_HEADER_SEQ_NUM_OFFSET_U32] = seqNum;
 454:Generated_Source\PSoC4/cy_em_eeprom.c ****             writeRamBuffer[CY_EM_EEPROM_HEADER_ADDR_OFFSET_U32] = addr;
 455:Generated_Source\PSoC4/cy_em_eeprom.c ****             tmpData = (void *) eeData;
 456:Generated_Source\PSoC4/cy_em_eeprom.c **** 
 457:Generated_Source\PSoC4/cy_em_eeprom.c ****             /* Check if this is the last row to write */
 458:Generated_Source\PSoC4/cy_em_eeprom.c ****             if(wrCnt == (numWrites - 1u))
 459:Generated_Source\PSoC4/cy_em_eeprom.c ****             {
 460:Generated_Source\PSoC4/cy_em_eeprom.c ****                 /* Fill in the remaining size value to the EEPROM header. */
 461:Generated_Source\PSoC4/cy_em_eeprom.c ****                 writeRamBuffer[CY_EM_EEPROM_HEADER_LEN_OFFSET_U32] = size;
 462:Generated_Source\PSoC4/cy_em_eeprom.c ****             }
 463:Generated_Source\PSoC4/cy_em_eeprom.c ****             else
 464:Generated_Source\PSoC4/cy_em_eeprom.c ****             {
 465:Generated_Source\PSoC4/cy_em_eeprom.c ****                 /* This is not the last row to write in the current EEPROM write operation.
 466:Generated_Source\PSoC4/cy_em_eeprom.c ****                 * Write the maximum possible data size to the EEPROM header. Update the
 467:Generated_Source\PSoC4/cy_em_eeprom.c ****                 * size, eeData and addr respectively.
 468:Generated_Source\PSoC4/cy_em_eeprom.c ****                 */
 469:Generated_Source\PSoC4/cy_em_eeprom.c ****                 writeRamBuffer[CY_EM_EEPROM_HEADER_LEN_OFFSET_U32] = CY_EM_EEPROM_HEADER_DATA_LEN;
 470:Generated_Source\PSoC4/cy_em_eeprom.c ****                 size -= CY_EM_EEPROM_HEADER_DATA_LEN;
 471:Generated_Source\PSoC4/cy_em_eeprom.c ****                 addr += CY_EM_EEPROM_HEADER_DATA_LEN;
 472:Generated_Source\PSoC4/cy_em_eeprom.c ****                 eeData += CY_EM_EEPROM_HEADER_DATA_LEN;
 473:Generated_Source\PSoC4/cy_em_eeprom.c ****             }
 474:Generated_Source\PSoC4/cy_em_eeprom.c **** 
 475:Generated_Source\PSoC4/cy_em_eeprom.c ****             /* Write the data to the EEPROM header */
 476:Generated_Source\PSoC4/cy_em_eeprom.c ****             (void)memcpy((void *)&writeRamBuffer[CY_EM_EEPROM_HEADER_DATA_OFFSET_U32],
 477:Generated_Source\PSoC4/cy_em_eeprom.c ****                          tmpData,
 478:Generated_Source\PSoC4/cy_em_eeprom.c ****                          writeRamBuffer[CY_EM_EEPROM_HEADER_LEN_OFFSET_U32]);
 479:Generated_Source\PSoC4/cy_em_eeprom.c **** 
 480:Generated_Source\PSoC4/cy_em_eeprom.c ****             if(emEepromRowRdAddr != 0UL)
 481:Generated_Source\PSoC4/cy_em_eeprom.c ****             {
 482:Generated_Source\PSoC4/cy_em_eeprom.c ****                 /* Copy the EEPROM historic data for this row from flash to RAM */
 483:Generated_Source\PSoC4/cy_em_eeprom.c ****                 (void)memcpy((void *)&writeRamBuffer[CY_EM_EEPROM_EEPROM_DATA_OFFSET_U32],
 484:Generated_Source\PSoC4/cy_em_eeprom.c ****                              (void *)(emEepromRowRdAddr + CY_EM_EEPROM_EEPROM_DATA_LEN),
 485:Generated_Source\PSoC4/cy_em_eeprom.c ****                              CY_EM_EEPROM_EEPROM_DATA_LEN);
 486:Generated_Source\PSoC4/cy_em_eeprom.c ****             }
 487:Generated_Source\PSoC4/cy_em_eeprom.c **** 
ARM GAS  C:\Users\EDULU~1.DES\AppData\Local\Temp\cc9dcV7d.s 			page 10


 488:Generated_Source\PSoC4/cy_em_eeprom.c ****             /* Check if there is data for this location in other EEPROM headers:
 489:Generated_Source\PSoC4/cy_em_eeprom.c ****             * find out the row with the lowest possible sequence number which
 490:Generated_Source\PSoC4/cy_em_eeprom.c ****             * may contain the data for the current row.
 491:Generated_Source\PSoC4/cy_em_eeprom.c ****             */
 492:Generated_Source\PSoC4/cy_em_eeprom.c ****             i = (seqNum > context->numberOfRows) ? ((seqNum - (context->numberOfRows)) + 1u) : 1u;
 493:Generated_Source\PSoC4/cy_em_eeprom.c **** 
 494:Generated_Source\PSoC4/cy_em_eeprom.c ****             for(; i <= seqNum; i++)
 495:Generated_Source\PSoC4/cy_em_eeprom.c ****             {
 496:Generated_Source\PSoC4/cy_em_eeprom.c ****                 if(i == seqNum)
 497:Generated_Source\PSoC4/cy_em_eeprom.c ****                 {
 498:Generated_Source\PSoC4/cy_em_eeprom.c ****                     /* The code reached the row that is about to be written. Analyze the recently
 499:Generated_Source\PSoC4/cy_em_eeprom.c ****                     * created EEPROM header (stored in the RAM buffer currently): if it contains
 500:Generated_Source\PSoC4/cy_em_eeprom.c ****                     * the data for EEPROM data locations in the row that is about to be written.
 501:Generated_Source\PSoC4/cy_em_eeprom.c ****                     */
 502:Generated_Source\PSoC4/cy_em_eeprom.c ****                     tmpRowAddr = (uint32) writeRamBuffer;
 503:Generated_Source\PSoC4/cy_em_eeprom.c ****                 }
 504:Generated_Source\PSoC4/cy_em_eeprom.c ****                 else
 505:Generated_Source\PSoC4/cy_em_eeprom.c ****                 {
 506:Generated_Source\PSoC4/cy_em_eeprom.c ****                     /* Retrieve the address of the previously written row by its sequence number.
 507:Generated_Source\PSoC4/cy_em_eeprom.c ****                     * The pointer will be used to get data from the respective EEPROM header.
 508:Generated_Source\PSoC4/cy_em_eeprom.c ****                     */
 509:Generated_Source\PSoC4/cy_em_eeprom.c ****                     tmpRowAddr = GetRowAddrBySeqNum(i, context);
 510:Generated_Source\PSoC4/cy_em_eeprom.c ****                 }
 511:Generated_Source\PSoC4/cy_em_eeprom.c **** 
 512:Generated_Source\PSoC4/cy_em_eeprom.c ****                 actEmEepromRowNum = CY_EM_EEPROM_GET_ACT_ROW_NUM_FROM_ADDR(emEepromRowAddr,
 513:Generated_Source\PSoC4/cy_em_eeprom.c ****                                                                            context->numberOfRows,
 514:Generated_Source\PSoC4/cy_em_eeprom.c ****                                                                            context->userFlashStartA
 515:Generated_Source\PSoC4/cy_em_eeprom.c ****                 if(0UL != tmpRowAddr)
 516:Generated_Source\PSoC4/cy_em_eeprom.c ****                 {
 517:Generated_Source\PSoC4/cy_em_eeprom.c ****                     /* Calculate the required addressed for the later EEPROM historic data update *
 518:Generated_Source\PSoC4/cy_em_eeprom.c ****                     skipOperation = GetAddresses(
 519:Generated_Source\PSoC4/cy_em_eeprom.c ****                                               &startAddr,
 520:Generated_Source\PSoC4/cy_em_eeprom.c ****                                               &endAddr,
 521:Generated_Source\PSoC4/cy_em_eeprom.c ****                                               &eeHeaderDataOffset,
 522:Generated_Source\PSoC4/cy_em_eeprom.c ****                                               actEmEepromRowNum,
 523:Generated_Source\PSoC4/cy_em_eeprom.c ****                                               *(uint32 *)(tmpRowAddr + CY_EM_EEPROM_HEADER_ADDR_OFF
 524:Generated_Source\PSoC4/cy_em_eeprom.c ****                                               *(uint32 *)(tmpRowAddr + CY_EM_EEPROM_HEADER_LEN_OFFS
 525:Generated_Source\PSoC4/cy_em_eeprom.c ****                 }
 526:Generated_Source\PSoC4/cy_em_eeprom.c ****                 else
 527:Generated_Source\PSoC4/cy_em_eeprom.c ****                 {
 528:Generated_Source\PSoC4/cy_em_eeprom.c ****                     /* Skip writes to the RAM buffer */
 529:Generated_Source\PSoC4/cy_em_eeprom.c ****                     skipOperation++;
 530:Generated_Source\PSoC4/cy_em_eeprom.c ****                 }
 531:Generated_Source\PSoC4/cy_em_eeprom.c **** 
 532:Generated_Source\PSoC4/cy_em_eeprom.c ****                 /* Write data to the RAM buffer */
 533:Generated_Source\PSoC4/cy_em_eeprom.c ****                 if(0u == skipOperation)
 534:Generated_Source\PSoC4/cy_em_eeprom.c ****                 {
 535:Generated_Source\PSoC4/cy_em_eeprom.c ****                     uint32 dataAddr = ((uint32)((uint8 *)&writeRamBuffer)) + startAddr;
 536:Generated_Source\PSoC4/cy_em_eeprom.c **** 
 537:Generated_Source\PSoC4/cy_em_eeprom.c ****                     /* Update the address to point to the EEPROM header data and not to
 538:Generated_Source\PSoC4/cy_em_eeprom.c ****                     * the start of the row.
 539:Generated_Source\PSoC4/cy_em_eeprom.c ****                     */
 540:Generated_Source\PSoC4/cy_em_eeprom.c ****                     tmpRowAddr = tmpRowAddr + CY_EM_EEPROM_HEADER_DATA_OFFSET + eeHeaderDataOffset;
 541:Generated_Source\PSoC4/cy_em_eeprom.c ****                     (void)memcpy((void *)(dataAddr), (void *)(tmpRowAddr), endAddr - startAddr);
 542:Generated_Source\PSoC4/cy_em_eeprom.c ****                 }
 543:Generated_Source\PSoC4/cy_em_eeprom.c **** 
 544:Generated_Source\PSoC4/cy_em_eeprom.c ****                 /* Calculate the checksum if redundant copy is enabled */
ARM GAS  C:\Users\EDULU~1.DES\AppData\Local\Temp\cc9dcV7d.s 			page 11


 545:Generated_Source\PSoC4/cy_em_eeprom.c ****                 if(0u != context->redundantCopy)
 546:Generated_Source\PSoC4/cy_em_eeprom.c ****                 {
 547:Generated_Source\PSoC4/cy_em_eeprom.c ****                     writeRamBuffer[CY_EM_EEPROM_HEADER_CHECKSUM_OFFSET_U32] = (uint32)
 548:Generated_Source\PSoC4/cy_em_eeprom.c ****                         CalcChecksum((uint8 *) &writeRamBuffer[CY_EM_EEPROM_EEPROM_DATA_OFFSET_U32]
 549:Generated_Source\PSoC4/cy_em_eeprom.c ****                                                   CY_EM_EEPROM_EEPROM_DATA_LEN);
 550:Generated_Source\PSoC4/cy_em_eeprom.c ****                 }
 551:Generated_Source\PSoC4/cy_em_eeprom.c ****             }
 552:Generated_Source\PSoC4/cy_em_eeprom.c **** 
 553:Generated_Source\PSoC4/cy_em_eeprom.c ****             /* Write the data to the specified flash row */
 554:Generated_Source\PSoC4/cy_em_eeprom.c ****             ret = WriteRow(emEepromRowAddr, writeRamBuffer, context);
 555:Generated_Source\PSoC4/cy_em_eeprom.c ****             tmpRowAddr = emEepromRowAddr;
 556:Generated_Source\PSoC4/cy_em_eeprom.c **** 
 557:Generated_Source\PSoC4/cy_em_eeprom.c ****             /* Check if redundant copy is used */
 558:Generated_Source\PSoC4/cy_em_eeprom.c ****             if((0u != context->redundantCopy) && (CY_EM_EEPROM_SUCCESS == ret))
 559:Generated_Source\PSoC4/cy_em_eeprom.c ****             {
 560:Generated_Source\PSoC4/cy_em_eeprom.c ****                 /* Update the row address to point to the row in the redundant EEPROM's copy */
 561:Generated_Source\PSoC4/cy_em_eeprom.c ****                 tmpRowAddr = (emEepromRowAddr - context->userFlashStartAddr) + context->wlEndAddr;
 562:Generated_Source\PSoC4/cy_em_eeprom.c **** 
 563:Generated_Source\PSoC4/cy_em_eeprom.c ****                 /* Write the data to the specified flash row */
 564:Generated_Source\PSoC4/cy_em_eeprom.c ****                 ret = WriteRow(tmpRowAddr, writeRamBuffer, context);
 565:Generated_Source\PSoC4/cy_em_eeprom.c ****             }
 566:Generated_Source\PSoC4/cy_em_eeprom.c **** 
 567:Generated_Source\PSoC4/cy_em_eeprom.c ****             if(CY_EM_EEPROM_SUCCESS == ret)
 568:Generated_Source\PSoC4/cy_em_eeprom.c ****             {
 569:Generated_Source\PSoC4/cy_em_eeprom.c ****                 /* Store last written row address only when EEPROM and redundant
 570:Generated_Source\PSoC4/cy_em_eeprom.c ****                 * copy writes were successful.
 571:Generated_Source\PSoC4/cy_em_eeprom.c ****                 */
 572:Generated_Source\PSoC4/cy_em_eeprom.c ****                 context->lastWrRowAddr = emEepromRowAddr;
 573:Generated_Source\PSoC4/cy_em_eeprom.c ****             }
 574:Generated_Source\PSoC4/cy_em_eeprom.c ****             else
 575:Generated_Source\PSoC4/cy_em_eeprom.c ****             {
 576:Generated_Source\PSoC4/cy_em_eeprom.c ****                 break;
 577:Generated_Source\PSoC4/cy_em_eeprom.c ****             }
 578:Generated_Source\PSoC4/cy_em_eeprom.c ****         }
 579:Generated_Source\PSoC4/cy_em_eeprom.c ****     }
 580:Generated_Source\PSoC4/cy_em_eeprom.c ****     return(ret);
 581:Generated_Source\PSoC4/cy_em_eeprom.c **** }
 582:Generated_Source\PSoC4/cy_em_eeprom.c **** 
 583:Generated_Source\PSoC4/cy_em_eeprom.c **** 
 584:Generated_Source\PSoC4/cy_em_eeprom.c **** /*******************************************************************************
 585:Generated_Source\PSoC4/cy_em_eeprom.c **** * Function Name: Cy_Em_EEPROM_Erase
 586:Generated_Source\PSoC4/cy_em_eeprom.c **** ****************************************************************************//**
 587:Generated_Source\PSoC4/cy_em_eeprom.c **** *
 588:Generated_Source\PSoC4/cy_em_eeprom.c **** * This function erases the entire contents of the EEPROM. Erased values are all
 589:Generated_Source\PSoC4/cy_em_eeprom.c **** * zeros. This is a blocking function and it does not return until the write
 590:Generated_Source\PSoC4/cy_em_eeprom.c **** * operation is completed. The user firmware should not enter Hibernate mode until
 591:Generated_Source\PSoC4/cy_em_eeprom.c **** * erase is completed. The erase operation is allowed in Sleep and Deep-Sleep modes.
 592:Generated_Source\PSoC4/cy_em_eeprom.c **** * During the flash operation, the device should not be reset, including the
 593:Generated_Source\PSoC4/cy_em_eeprom.c **** * XRES pin, a software reset, and watchdog reset sources. Also, low-voltage
 594:Generated_Source\PSoC4/cy_em_eeprom.c **** * detect circuits should be configured to generate an interrupt instead of a
 595:Generated_Source\PSoC4/cy_em_eeprom.c **** * reset. Otherwise, portions of flash may undergo unexpected changes.
 596:Generated_Source\PSoC4/cy_em_eeprom.c **** *
 597:Generated_Source\PSoC4/cy_em_eeprom.c **** * \param context
 598:Generated_Source\PSoC4/cy_em_eeprom.c **** * The pointer to the EEPROM context structure \ref cy_stc_eeprom_context_t.
 599:Generated_Source\PSoC4/cy_em_eeprom.c **** *
 600:Generated_Source\PSoC4/cy_em_eeprom.c **** * \return
 601:Generated_Source\PSoC4/cy_em_eeprom.c **** * This function returns \ref cy_en_em_eeprom_status_t.
ARM GAS  C:\Users\EDULU~1.DES\AppData\Local\Temp\cc9dcV7d.s 			page 12


 602:Generated_Source\PSoC4/cy_em_eeprom.c **** *
 603:Generated_Source\PSoC4/cy_em_eeprom.c **** * \note
 604:Generated_Source\PSoC4/cy_em_eeprom.c **** * For all non PSoC 6 devices the erase operation is performed by clearing
 605:Generated_Source\PSoC4/cy_em_eeprom.c **** * the EEPROM data using flash write. This affects the flash durability.
 606:Generated_Source\PSoC4/cy_em_eeprom.c **** * So it is recommended to use this function in utmost case to prolongate
 607:Generated_Source\PSoC4/cy_em_eeprom.c **** * flash life.
 608:Generated_Source\PSoC4/cy_em_eeprom.c **** *
 609:Generated_Source\PSoC4/cy_em_eeprom.c **** * \note
 610:Generated_Source\PSoC4/cy_em_eeprom.c **** * This function uses a buffer of the flash row size to perform erase
 611:Generated_Source\PSoC4/cy_em_eeprom.c **** * operation. For the size of the row refer to the specific PSoC device
 612:Generated_Source\PSoC4/cy_em_eeprom.c **** * datasheet.
 613:Generated_Source\PSoC4/cy_em_eeprom.c **** *
 614:Generated_Source\PSoC4/cy_em_eeprom.c **** * \sideeffect
 615:Generated_Source\PSoC4/cy_em_eeprom.c **** * In case when blocking write option is used, if this function is called by
 616:Generated_Source\PSoC4/cy_em_eeprom.c **** * the CM4 the user code on CM0P and the user code on CM4 are blocked until erase
 617:Generated_Source\PSoC4/cy_em_eeprom.c **** * flash row operation is finished. If this function is called by the CM0P the
 618:Generated_Source\PSoC4/cy_em_eeprom.c **** * user code on CM4 is not blocked and the user code on CM0P is blocked until
 619:Generated_Source\PSoC4/cy_em_eeprom.c **** * erase flash row operation is finished. Plan your task allocation accordingly.
 620:Generated_Source\PSoC4/cy_em_eeprom.c **** *
 621:Generated_Source\PSoC4/cy_em_eeprom.c **** * \sideeffect
 622:Generated_Source\PSoC4/cy_em_eeprom.c **** * In case if non-blocking write option is used and when user flash is used as
 623:Generated_Source\PSoC4/cy_em_eeprom.c **** * an EEPROM storage care should be taken to prevent the read while write (RWW)
 624:Generated_Source\PSoC4/cy_em_eeprom.c **** * exception. To prevent the RWW exception the user flash macro that includes
 625:Generated_Source\PSoC4/cy_em_eeprom.c **** * the EEPROM storage should not be read while the EEPROM erase is not completed.
 626:Generated_Source\PSoC4/cy_em_eeprom.c **** * The read also means the user code execution from the respective flash macro.
 627:Generated_Source\PSoC4/cy_em_eeprom.c **** *
 628:Generated_Source\PSoC4/cy_em_eeprom.c **** *******************************************************************************/
 629:Generated_Source\PSoC4/cy_em_eeprom.c **** cy_en_em_eeprom_status_t Cy_Em_EEPROM_Erase(cy_stc_eeprom_context_t * context)
 630:Generated_Source\PSoC4/cy_em_eeprom.c **** {
 631:Generated_Source\PSoC4/cy_em_eeprom.c ****     uint32 i;
 632:Generated_Source\PSoC4/cy_em_eeprom.c ****     uint32 seqNum;
 633:Generated_Source\PSoC4/cy_em_eeprom.c ****     uint32 emEepromRowAddr = context->lastWrRowAddr;
 634:Generated_Source\PSoC4/cy_em_eeprom.c ****     uint32 emEepromRowRdAddr;
 635:Generated_Source\PSoC4/cy_em_eeprom.c ****     cy_en_em_eeprom_status_t ret = CY_EM_EEPROM_WRITE_FAIL;
 636:Generated_Source\PSoC4/cy_em_eeprom.c ****     uint32 writeRamBuffer[CY_EM_EEPROM_FLASH_SIZEOF_ROW / CY_EM_EEPROM_U32_DIV] = {0u};
 637:Generated_Source\PSoC4/cy_em_eeprom.c **** #if (CY_PSOC6)
 638:Generated_Source\PSoC4/cy_em_eeprom.c ****     uint32 emEepromStoredRowAddr = context->lastWrRowAddr;
 639:Generated_Source\PSoC4/cy_em_eeprom.c ****     uint32 storedSeqNum;
 640:Generated_Source\PSoC4/cy_em_eeprom.c **** #endif /* (!CY_PSOC6) */
 641:Generated_Source\PSoC4/cy_em_eeprom.c **** 
 642:Generated_Source\PSoC4/cy_em_eeprom.c ****     /* Get the sequence number of the last written row */
 643:Generated_Source\PSoC4/cy_em_eeprom.c ****     seqNum = CY_EM_EEPROM_GET_SEQ_NUM(emEepromRowAddr);
 644:Generated_Source\PSoC4/cy_em_eeprom.c **** 
 645:Generated_Source\PSoC4/cy_em_eeprom.c ****     /* If there were no writes to EEPROM - nothing to erase */
 646:Generated_Source\PSoC4/cy_em_eeprom.c ****     if(0u != seqNum)
 647:Generated_Source\PSoC4/cy_em_eeprom.c ****     {
 648:Generated_Source\PSoC4/cy_em_eeprom.c ****         /* Calculate the number of row erase operations required */
 649:Generated_Source\PSoC4/cy_em_eeprom.c ****         uint32 numWrites = context->numberOfRows * context->wearLevelingFactor;
 650:Generated_Source\PSoC4/cy_em_eeprom.c **** 
 651:Generated_Source\PSoC4/cy_em_eeprom.c ****     #if (CY_PSOC6)
 652:Generated_Source\PSoC4/cy_em_eeprom.c ****         GetNextRowToWrite(seqNum, &emEepromStoredRowAddr, &emEepromRowRdAddr, context);
 653:Generated_Source\PSoC4/cy_em_eeprom.c ****         storedSeqNum = seqNum + 1u;
 654:Generated_Source\PSoC4/cy_em_eeprom.c ****     #endif /* (CY_PSOC6) */
 655:Generated_Source\PSoC4/cy_em_eeprom.c **** 
 656:Generated_Source\PSoC4/cy_em_eeprom.c ****         if(0u != context->redundantCopy)
 657:Generated_Source\PSoC4/cy_em_eeprom.c ****         {
 658:Generated_Source\PSoC4/cy_em_eeprom.c ****             writeRamBuffer[CY_EM_EEPROM_HEADER_CHECKSUM_OFFSET_U32] = (uint32)
ARM GAS  C:\Users\EDULU~1.DES\AppData\Local\Temp\cc9dcV7d.s 			page 13


 659:Generated_Source\PSoC4/cy_em_eeprom.c ****                         CalcChecksum((uint8 *) &writeRamBuffer[CY_EM_EEPROM_EEPROM_DATA_OFFSET_U32]
 660:Generated_Source\PSoC4/cy_em_eeprom.c ****                                                   CY_EM_EEPROM_EEPROM_DATA_LEN);
 661:Generated_Source\PSoC4/cy_em_eeprom.c ****         }
 662:Generated_Source\PSoC4/cy_em_eeprom.c **** 
 663:Generated_Source\PSoC4/cy_em_eeprom.c ****         for(i = 0u; i < numWrites; i++)
 664:Generated_Source\PSoC4/cy_em_eeprom.c ****         {
 665:Generated_Source\PSoC4/cy_em_eeprom.c ****         #if (CY_PSOC6)
 666:Generated_Source\PSoC4/cy_em_eeprom.c ****             /* For PSoC 6 the erase operation moves backwards. From last written row
 667:Generated_Source\PSoC4/cy_em_eeprom.c ****             * identified by "seqNum" down to "seqNum" - "numWrites". If "emEepromRowAddr"
 668:Generated_Source\PSoC4/cy_em_eeprom.c ****             * is zero this means that the row identified by "seqNum" was previously 
 669:Generated_Source\PSoC4/cy_em_eeprom.c ****             * erased.
 670:Generated_Source\PSoC4/cy_em_eeprom.c ****             */
 671:Generated_Source\PSoC4/cy_em_eeprom.c ****             if(0u != emEepromRowAddr)
 672:Generated_Source\PSoC4/cy_em_eeprom.c ****             {
 673:Generated_Source\PSoC4/cy_em_eeprom.c ****                 ret = EraseRow(emEepromRowAddr, (uint32)writeRamBuffer, context);
 674:Generated_Source\PSoC4/cy_em_eeprom.c ****             }
 675:Generated_Source\PSoC4/cy_em_eeprom.c **** 
 676:Generated_Source\PSoC4/cy_em_eeprom.c ****             seqNum--;
 677:Generated_Source\PSoC4/cy_em_eeprom.c **** 
 678:Generated_Source\PSoC4/cy_em_eeprom.c ****             if(0u == seqNum)
 679:Generated_Source\PSoC4/cy_em_eeprom.c ****             {
 680:Generated_Source\PSoC4/cy_em_eeprom.c ****                 /* Exit the loop as there is no more row is EEPROM to be erased */
 681:Generated_Source\PSoC4/cy_em_eeprom.c ****                 break;
 682:Generated_Source\PSoC4/cy_em_eeprom.c ****             }
 683:Generated_Source\PSoC4/cy_em_eeprom.c ****             emEepromRowAddr = GetRowAddrBySeqNum(seqNum, context);
 684:Generated_Source\PSoC4/cy_em_eeprom.c ****         #else
 685:Generated_Source\PSoC4/cy_em_eeprom.c ****             seqNum = CY_EM_EEPROM_GET_SEQ_NUM(emEepromRowAddr);
 686:Generated_Source\PSoC4/cy_em_eeprom.c ****             /* Get the address of the row to be erased. "emEepromRowAddr" may be updated
 687:Generated_Source\PSoC4/cy_em_eeprom.c ****             * with the proper address (if wear leveling is used).
 688:Generated_Source\PSoC4/cy_em_eeprom.c ****             */
 689:Generated_Source\PSoC4/cy_em_eeprom.c ****             GetNextRowToWrite(seqNum, &emEepromRowAddr, &emEepromRowRdAddr, context);
 690:Generated_Source\PSoC4/cy_em_eeprom.c ****             seqNum++;
 691:Generated_Source\PSoC4/cy_em_eeprom.c ****             writeRamBuffer[0u] = seqNum;
 692:Generated_Source\PSoC4/cy_em_eeprom.c ****             ret = EraseRow(emEepromRowAddr, (uint32)writeRamBuffer, context);
 693:Generated_Source\PSoC4/cy_em_eeprom.c ****         #endif /* (CY_PSOC6) */
 694:Generated_Source\PSoC4/cy_em_eeprom.c ****         }
 695:Generated_Source\PSoC4/cy_em_eeprom.c **** 
 696:Generated_Source\PSoC4/cy_em_eeprom.c ****     #if (CY_PSOC6)
 697:Generated_Source\PSoC4/cy_em_eeprom.c ****         if(CY_EM_EEPROM_SUCCESS == ret)
 698:Generated_Source\PSoC4/cy_em_eeprom.c ****         {
 699:Generated_Source\PSoC4/cy_em_eeprom.c ****             writeRamBuffer[0u] = storedSeqNum;
 700:Generated_Source\PSoC4/cy_em_eeprom.c **** 
 701:Generated_Source\PSoC4/cy_em_eeprom.c ****             /* Write the previously stored sequence number to the flash row which would be
 702:Generated_Source\PSoC4/cy_em_eeprom.c ****             * written next if the erase wouldn't happen. In this case the write to
 703:Generated_Source\PSoC4/cy_em_eeprom.c ****             * redundant copy can be skipped as it does not add any value.
 704:Generated_Source\PSoC4/cy_em_eeprom.c ****             */
 705:Generated_Source\PSoC4/cy_em_eeprom.c ****             ret = WriteRow(emEepromStoredRowAddr, writeRamBuffer, context);
 706:Generated_Source\PSoC4/cy_em_eeprom.c **** 
 707:Generated_Source\PSoC4/cy_em_eeprom.c ****             if(CY_EM_EEPROM_SUCCESS == ret)
 708:Generated_Source\PSoC4/cy_em_eeprom.c ****             {
 709:Generated_Source\PSoC4/cy_em_eeprom.c ****                 context->lastWrRowAddr = emEepromStoredRowAddr;
 710:Generated_Source\PSoC4/cy_em_eeprom.c ****             }
 711:Generated_Source\PSoC4/cy_em_eeprom.c ****         }
 712:Generated_Source\PSoC4/cy_em_eeprom.c ****     #endif /* (CY_PSOC6) */
 713:Generated_Source\PSoC4/cy_em_eeprom.c **** 
 714:Generated_Source\PSoC4/cy_em_eeprom.c ****     }
 715:Generated_Source\PSoC4/cy_em_eeprom.c ****     return(ret);
ARM GAS  C:\Users\EDULU~1.DES\AppData\Local\Temp\cc9dcV7d.s 			page 14


 716:Generated_Source\PSoC4/cy_em_eeprom.c **** }
 717:Generated_Source\PSoC4/cy_em_eeprom.c **** 
 718:Generated_Source\PSoC4/cy_em_eeprom.c **** 
 719:Generated_Source\PSoC4/cy_em_eeprom.c **** /*******************************************************************************
 720:Generated_Source\PSoC4/cy_em_eeprom.c **** * Function Name: Cy_Em_EEPROM_NumWrites
 721:Generated_Source\PSoC4/cy_em_eeprom.c **** ****************************************************************************//**
 722:Generated_Source\PSoC4/cy_em_eeprom.c **** *
 723:Generated_Source\PSoC4/cy_em_eeprom.c **** * Returns the number of the EEPROM writes completed so far.
 724:Generated_Source\PSoC4/cy_em_eeprom.c **** *
 725:Generated_Source\PSoC4/cy_em_eeprom.c **** * \param context
 726:Generated_Source\PSoC4/cy_em_eeprom.c **** * The pointer to the EEPROM context structure \ref cy_stc_eeprom_context_t.
 727:Generated_Source\PSoC4/cy_em_eeprom.c **** *
 728:Generated_Source\PSoC4/cy_em_eeprom.c **** * \return
 729:Generated_Source\PSoC4/cy_em_eeprom.c **** * The number of writes performed to the EEPROM.
 730:Generated_Source\PSoC4/cy_em_eeprom.c **** *
 731:Generated_Source\PSoC4/cy_em_eeprom.c **** *******************************************************************************/
 732:Generated_Source\PSoC4/cy_em_eeprom.c **** uint32 Cy_Em_EEPROM_NumWrites(cy_stc_eeprom_context_t * context)
 733:Generated_Source\PSoC4/cy_em_eeprom.c **** {
 734:Generated_Source\PSoC4/cy_em_eeprom.c ****     return(CY_EM_EEPROM_GET_SEQ_NUM(context->lastWrRowAddr));
 735:Generated_Source\PSoC4/cy_em_eeprom.c **** }
 736:Generated_Source\PSoC4/cy_em_eeprom.c **** 
 737:Generated_Source\PSoC4/cy_em_eeprom.c **** /** \} */
 738:Generated_Source\PSoC4/cy_em_eeprom.c **** 
 739:Generated_Source\PSoC4/cy_em_eeprom.c **** /** \cond INTERNAL */
 740:Generated_Source\PSoC4/cy_em_eeprom.c **** 
 741:Generated_Source\PSoC4/cy_em_eeprom.c **** 
 742:Generated_Source\PSoC4/cy_em_eeprom.c **** /*******************************************************************************
 743:Generated_Source\PSoC4/cy_em_eeprom.c **** * Function Name: FindLastWrittenRow
 744:Generated_Source\PSoC4/cy_em_eeprom.c **** ****************************************************************************//**
 745:Generated_Source\PSoC4/cy_em_eeprom.c **** *
 746:Generated_Source\PSoC4/cy_em_eeprom.c **** * Performs a search of the last written row address of the EEPROM associated
 747:Generated_Source\PSoC4/cy_em_eeprom.c **** * with the context structure. If there were no writes to the EEPROM the
 748:Generated_Source\PSoC4/cy_em_eeprom.c **** * function returns the start address of the EEPROM. The row address is returned
 749:Generated_Source\PSoC4/cy_em_eeprom.c **** * in the input parameter.
 750:Generated_Source\PSoC4/cy_em_eeprom.c **** *
 751:Generated_Source\PSoC4/cy_em_eeprom.c **** * \param lastWrRowPtr
 752:Generated_Source\PSoC4/cy_em_eeprom.c **** * The pointer to a memory where the last written row will be returned.
 753:Generated_Source\PSoC4/cy_em_eeprom.c **** *
 754:Generated_Source\PSoC4/cy_em_eeprom.c **** * \param context
 755:Generated_Source\PSoC4/cy_em_eeprom.c **** * The pointer to the EEPROM context structure \ref cy_stc_eeprom_context_t.
 756:Generated_Source\PSoC4/cy_em_eeprom.c **** *
 757:Generated_Source\PSoC4/cy_em_eeprom.c **** *******************************************************************************/
 758:Generated_Source\PSoC4/cy_em_eeprom.c **** static void FindLastWrittenRow(uint32 * lastWrRowPtr, cy_stc_eeprom_context_t * context)
 759:Generated_Source\PSoC4/cy_em_eeprom.c **** {
  27              		.loc 1 759 1 view -0
  28              		.cfi_startproc
  29              		@ args = 0, pretend = 0, frame = 0
  30              		@ frame_needed = 0, uses_anonymous_args = 0
  31              		.loc 1 759 1 is_stmt 0 view .LVU1
  32 0000 70B5     		push	{r4, r5, r6, lr}
  33              		.cfi_def_cfa_offset 16
  34              		.cfi_offset 4, -16
  35              		.cfi_offset 5, -12
  36              		.cfi_offset 6, -8
  37              		.cfi_offset 14, -4
 760:Generated_Source\PSoC4/cy_em_eeprom.c ****     uint32 seqNum = 0u;
  38              		.loc 1 760 5 is_stmt 1 view .LVU2
ARM GAS  C:\Users\EDULU~1.DES\AppData\Local\Temp\cc9dcV7d.s 			page 15


  39              	.LVL1:
 761:Generated_Source\PSoC4/cy_em_eeprom.c ****     uint32 prevSeqNum = 0u;
  40              		.loc 1 761 5 view .LVU3
 762:Generated_Source\PSoC4/cy_em_eeprom.c ****     uint32 numRows;
  41              		.loc 1 762 5 view .LVU4
 763:Generated_Source\PSoC4/cy_em_eeprom.c ****     uint32 emEepromAddr = context->userFlashStartAddr;
  42              		.loc 1 763 5 view .LVU5
  43              		.loc 1 763 12 is_stmt 0 view .LVU6
  44 0002 8A69     		ldr	r2, [r1, #24]
  45              	.LVL2:
 764:Generated_Source\PSoC4/cy_em_eeprom.c **** 
 765:Generated_Source\PSoC4/cy_em_eeprom.c ****     *lastWrRowPtr = emEepromAddr;
  46              		.loc 1 765 5 is_stmt 1 view .LVU7
  47              		.loc 1 765 19 is_stmt 0 view .LVU8
  48 0004 0260     		str	r2, [r0]
 766:Generated_Source\PSoC4/cy_em_eeprom.c **** 
 767:Generated_Source\PSoC4/cy_em_eeprom.c ****     for(numRows = 0u; numRows < (context->numberOfRows * context->wearLevelingFactor); numRows++)
  49              		.loc 1 767 5 is_stmt 1 view .LVU9
  50              	.LVL3:
  51              		.loc 1 767 17 is_stmt 0 view .LVU10
  52 0006 0024     		movs	r4, #0
 761:Generated_Source\PSoC4/cy_em_eeprom.c ****     uint32 numRows;
  53              		.loc 1 761 12 view .LVU11
  54 0008 0025     		movs	r5, #0
  55              		.loc 1 767 5 view .LVU12
  56 000a 01E0     		b	.L2
  57              	.LVL4:
  58              	.L3:
 768:Generated_Source\PSoC4/cy_em_eeprom.c ****     {
 769:Generated_Source\PSoC4/cy_em_eeprom.c ****         seqNum = CY_EM_EEPROM_GET_SEQ_NUM(emEepromAddr);
 770:Generated_Source\PSoC4/cy_em_eeprom.c ****         if((0u != seqNum) && (seqNum > prevSeqNum))
 771:Generated_Source\PSoC4/cy_em_eeprom.c ****         {
 772:Generated_Source\PSoC4/cy_em_eeprom.c ****             /* Some record in EEPROM was found. Store found sequence
 773:Generated_Source\PSoC4/cy_em_eeprom.c ****             * number and row address.
 774:Generated_Source\PSoC4/cy_em_eeprom.c ****             */
 775:Generated_Source\PSoC4/cy_em_eeprom.c ****             prevSeqNum = seqNum;
 776:Generated_Source\PSoC4/cy_em_eeprom.c ****             *lastWrRowPtr = emEepromAddr;
 777:Generated_Source\PSoC4/cy_em_eeprom.c ****         }
 778:Generated_Source\PSoC4/cy_em_eeprom.c **** 
 779:Generated_Source\PSoC4/cy_em_eeprom.c ****         /* Switch to the next row */
 780:Generated_Source\PSoC4/cy_em_eeprom.c ****         emEepromAddr = emEepromAddr + CY_EM_EEPROM_FLASH_SIZEOF_ROW;
  59              		.loc 1 780 9 is_stmt 1 discriminator 2 view .LVU13
  60              		.loc 1 780 22 is_stmt 0 discriminator 2 view .LVU14
  61 000c 8032     		adds	r2, r2, #128
  62              	.LVL5:
 767:Generated_Source\PSoC4/cy_em_eeprom.c ****     {
  63              		.loc 1 767 95 discriminator 2 view .LVU15
  64 000e 0134     		adds	r4, r4, #1
  65              	.LVL6:
  66              	.L2:
 767:Generated_Source\PSoC4/cy_em_eeprom.c ****     {
  67              		.loc 1 767 56 discriminator 1 view .LVU16
  68 0010 0B69     		ldr	r3, [r1, #16]
  69 0012 4E68     		ldr	r6, [r1, #4]
  70 0014 7343     		muls	r3, r6
 767:Generated_Source\PSoC4/cy_em_eeprom.c ****     {
  71              		.loc 1 767 5 discriminator 1 view .LVU17
ARM GAS  C:\Users\EDULU~1.DES\AppData\Local\Temp\cc9dcV7d.s 			page 16


  72 0016 A342     		cmp	r3, r4
  73 0018 07D9     		bls	.L5
 769:Generated_Source\PSoC4/cy_em_eeprom.c ****         if((0u != seqNum) && (seqNum > prevSeqNum))
  74              		.loc 1 769 9 is_stmt 1 view .LVU18
 769:Generated_Source\PSoC4/cy_em_eeprom.c ****         if((0u != seqNum) && (seqNum > prevSeqNum))
  75              		.loc 1 769 16 is_stmt 0 view .LVU19
  76 001a 1368     		ldr	r3, [r2]
  77              	.LVL7:
 770:Generated_Source\PSoC4/cy_em_eeprom.c ****         {
  78              		.loc 1 770 9 is_stmt 1 view .LVU20
 770:Generated_Source\PSoC4/cy_em_eeprom.c ****         {
  79              		.loc 1 770 11 is_stmt 0 view .LVU21
  80 001c 002B     		cmp	r3, #0
  81 001e F5D0     		beq	.L3
 770:Generated_Source\PSoC4/cy_em_eeprom.c ****         {
  82              		.loc 1 770 27 discriminator 1 view .LVU22
  83 0020 9D42     		cmp	r5, r3
  84 0022 F3D2     		bcs	.L3
 775:Generated_Source\PSoC4/cy_em_eeprom.c ****             *lastWrRowPtr = emEepromAddr;
  85              		.loc 1 775 13 is_stmt 1 view .LVU23
  86              	.LVL8:
 776:Generated_Source\PSoC4/cy_em_eeprom.c ****         }
  87              		.loc 1 776 13 view .LVU24
 776:Generated_Source\PSoC4/cy_em_eeprom.c ****         }
  88              		.loc 1 776 27 is_stmt 0 view .LVU25
  89 0024 0260     		str	r2, [r0]
 775:Generated_Source\PSoC4/cy_em_eeprom.c ****             *lastWrRowPtr = emEepromAddr;
  90              		.loc 1 775 24 view .LVU26
  91 0026 1D00     		movs	r5, r3
  92 0028 F0E7     		b	.L3
  93              	.LVL9:
  94              	.L5:
 781:Generated_Source\PSoC4/cy_em_eeprom.c ****     }
 782:Generated_Source\PSoC4/cy_em_eeprom.c **** }
  95              		.loc 1 782 1 view .LVU27
  96              		@ sp needed
  97              	.LVL10:
  98              	.LVL11:
  99              		.loc 1 782 1 view .LVU28
 100 002a 70BD     		pop	{r4, r5, r6, pc}
 101              		.cfi_endproc
 102              	.LFE5:
 103              		.size	FindLastWrittenRow, .-FindLastWrittenRow
 104              		.section	.text.GetRowAddrBySeqNum,"ax",%progbits
 105              		.align	1
 106              		.syntax unified
 107              		.code	16
 108              		.thumb_func
 109              		.fpu softvfp
 110              		.type	GetRowAddrBySeqNum, %function
 111              	GetRowAddrBySeqNum:
 112              	.LVL12:
 113              	.LFB6:
 783:Generated_Source\PSoC4/cy_em_eeprom.c **** 
 784:Generated_Source\PSoC4/cy_em_eeprom.c **** 
 785:Generated_Source\PSoC4/cy_em_eeprom.c **** /*******************************************************************************
 786:Generated_Source\PSoC4/cy_em_eeprom.c **** * Function Name: GetRowAddrBySeqNum
ARM GAS  C:\Users\EDULU~1.DES\AppData\Local\Temp\cc9dcV7d.s 			page 17


 787:Generated_Source\PSoC4/cy_em_eeprom.c **** ****************************************************************************//**
 788:Generated_Source\PSoC4/cy_em_eeprom.c **** *
 789:Generated_Source\PSoC4/cy_em_eeprom.c **** * Returns the address of the row in EEPROM using its sequence number.
 790:Generated_Source\PSoC4/cy_em_eeprom.c **** *
 791:Generated_Source\PSoC4/cy_em_eeprom.c **** * \param seqNum
 792:Generated_Source\PSoC4/cy_em_eeprom.c **** * The sequence number of the row.
 793:Generated_Source\PSoC4/cy_em_eeprom.c **** *
 794:Generated_Source\PSoC4/cy_em_eeprom.c **** * \param context
 795:Generated_Source\PSoC4/cy_em_eeprom.c **** * The pointer to the EEPROM context structure.
 796:Generated_Source\PSoC4/cy_em_eeprom.c **** *
 797:Generated_Source\PSoC4/cy_em_eeprom.c **** * \return
 798:Generated_Source\PSoC4/cy_em_eeprom.c **** * The address of the row or zero if the row with the sequence number was not
 799:Generated_Source\PSoC4/cy_em_eeprom.c **** * found.
 800:Generated_Source\PSoC4/cy_em_eeprom.c **** *
 801:Generated_Source\PSoC4/cy_em_eeprom.c **** *******************************************************************************/
 802:Generated_Source\PSoC4/cy_em_eeprom.c **** static uint32 GetRowAddrBySeqNum(uint32 seqNum, cy_stc_eeprom_context_t * context)
 803:Generated_Source\PSoC4/cy_em_eeprom.c **** {
 114              		.loc 1 803 1 is_stmt 1 view -0
 115              		.cfi_startproc
 116              		@ args = 0, pretend = 0, frame = 0
 117              		@ frame_needed = 0, uses_anonymous_args = 0
 118              		@ link register save eliminated.
 804:Generated_Source\PSoC4/cy_em_eeprom.c ****     uint32 emEepromAddr = context->userFlashStartAddr;
 119              		.loc 1 804 5 view .LVU30
 120              		.loc 1 804 12 is_stmt 0 view .LVU31
 121 0000 8B69     		ldr	r3, [r1, #24]
 122              	.LVL13:
 805:Generated_Source\PSoC4/cy_em_eeprom.c **** 
 806:Generated_Source\PSoC4/cy_em_eeprom.c ****     while(CY_EM_EEPROM_GET_SEQ_NUM(emEepromAddr) != seqNum)
 123              		.loc 1 806 5 is_stmt 1 view .LVU32
 124              	.L7:
 125              		.loc 1 806 10 is_stmt 0 view .LVU33
 126 0002 1A68     		ldr	r2, [r3]
 127 0004 8242     		cmp	r2, r0
 128 0006 04D0     		beq	.L6
 807:Generated_Source\PSoC4/cy_em_eeprom.c ****     {
 808:Generated_Source\PSoC4/cy_em_eeprom.c ****         /* Switch to the next row */
 809:Generated_Source\PSoC4/cy_em_eeprom.c ****         emEepromAddr = emEepromAddr + CY_EM_EEPROM_FLASH_SIZEOF_ROW;
 129              		.loc 1 809 9 is_stmt 1 view .LVU34
 130              		.loc 1 809 22 is_stmt 0 view .LVU35
 131 0008 8033     		adds	r3, r3, #128
 132              	.LVL14:
 810:Generated_Source\PSoC4/cy_em_eeprom.c **** 
 811:Generated_Source\PSoC4/cy_em_eeprom.c ****         if (CY_EM_EEPROM_ADDR_IN_RANGE !=
 133              		.loc 1 811 9 is_stmt 1 view .LVU36
 134              		.loc 1 811 12 is_stmt 0 view .LVU37
 135 000a 0A68     		ldr	r2, [r1]
 136 000c 9A42     		cmp	r2, r3
 137 000e F8D8     		bhi	.L7
 812:Generated_Source\PSoC4/cy_em_eeprom.c ****             CY_EM_EEPROM_IS_ADDR_EXCEED_RANGE(emEepromAddr, context->wlEndAddr))
 813:Generated_Source\PSoC4/cy_em_eeprom.c ****         {
 814:Generated_Source\PSoC4/cy_em_eeprom.c ****             emEepromAddr = 0u;
 138              		.loc 1 814 26 view .LVU38
 139 0010 0023     		movs	r3, #0
 140              	.LVL15:
 815:Generated_Source\PSoC4/cy_em_eeprom.c ****             /* Exit the loop as we reached the end of EEPROM */
 816:Generated_Source\PSoC4/cy_em_eeprom.c ****             break;
ARM GAS  C:\Users\EDULU~1.DES\AppData\Local\Temp\cc9dcV7d.s 			page 18


 817:Generated_Source\PSoC4/cy_em_eeprom.c ****         }
 818:Generated_Source\PSoC4/cy_em_eeprom.c ****     }
 819:Generated_Source\PSoC4/cy_em_eeprom.c **** 
 820:Generated_Source\PSoC4/cy_em_eeprom.c ****     return (emEepromAddr);
 141              		.loc 1 820 5 is_stmt 1 view .LVU39
 142              	.L6:
 821:Generated_Source\PSoC4/cy_em_eeprom.c **** }
 143              		.loc 1 821 1 is_stmt 0 view .LVU40
 144 0012 1800     		movs	r0, r3
 145              	.LVL16:
 146              		.loc 1 821 1 view .LVU41
 147              		@ sp needed
 148 0014 7047     		bx	lr
 149              		.cfi_endproc
 150              	.LFE6:
 151              		.size	GetRowAddrBySeqNum, .-GetRowAddrBySeqNum
 152              		.section	.text.GetNextRowToWrite,"ax",%progbits
 153              		.align	1
 154              		.syntax unified
 155              		.code	16
 156              		.thumb_func
 157              		.fpu softvfp
 158              		.type	GetNextRowToWrite, %function
 159              	GetNextRowToWrite:
 160              	.LVL17:
 161              	.LFB7:
 822:Generated_Source\PSoC4/cy_em_eeprom.c **** 
 823:Generated_Source\PSoC4/cy_em_eeprom.c **** 
 824:Generated_Source\PSoC4/cy_em_eeprom.c **** /*******************************************************************************
 825:Generated_Source\PSoC4/cy_em_eeprom.c **** * Function Name: GetNextRowToWrite
 826:Generated_Source\PSoC4/cy_em_eeprom.c **** ****************************************************************************//**
 827:Generated_Source\PSoC4/cy_em_eeprom.c **** *
 828:Generated_Source\PSoC4/cy_em_eeprom.c **** * Performs a range check of the row that should be written and updates the
 829:Generated_Source\PSoC4/cy_em_eeprom.c **** * address to the row respectively. The similar actions are done for the read
 830:Generated_Source\PSoC4/cy_em_eeprom.c **** * address.
 831:Generated_Source\PSoC4/cy_em_eeprom.c **** *
 832:Generated_Source\PSoC4/cy_em_eeprom.c **** * \param seqNum
 833:Generated_Source\PSoC4/cy_em_eeprom.c **** * The sequence number of the last written row.
 834:Generated_Source\PSoC4/cy_em_eeprom.c **** *
 835:Generated_Source\PSoC4/cy_em_eeprom.c **** * \param rowToWrPtr
 836:Generated_Source\PSoC4/cy_em_eeprom.c **** * The address of the last written row (input). The address of the row to be 
 837:Generated_Source\PSoC4/cy_em_eeprom.c **** * written (output).
 838:Generated_Source\PSoC4/cy_em_eeprom.c **** *
 839:Generated_Source\PSoC4/cy_em_eeprom.c **** * \param rowToRdPtr
 840:Generated_Source\PSoC4/cy_em_eeprom.c **** * The address of the row from which the data should be read into the RAM buffer
 841:Generated_Source\PSoC4/cy_em_eeprom.c **** * in a later write operation. Out parameter.
 842:Generated_Source\PSoC4/cy_em_eeprom.c **** *
 843:Generated_Source\PSoC4/cy_em_eeprom.c **** * \param context
 844:Generated_Source\PSoC4/cy_em_eeprom.c **** * The pointer to the EEPROM context structure \ref cy_stc_eeprom_context_t.
 845:Generated_Source\PSoC4/cy_em_eeprom.c **** *
 846:Generated_Source\PSoC4/cy_em_eeprom.c **** *******************************************************************************/
 847:Generated_Source\PSoC4/cy_em_eeprom.c **** static void GetNextRowToWrite(uint32 seqNum,
 848:Generated_Source\PSoC4/cy_em_eeprom.c ****                             uint32 * rowToWrPtr,
 849:Generated_Source\PSoC4/cy_em_eeprom.c ****                             uint32 * rowToRdPtr,
 850:Generated_Source\PSoC4/cy_em_eeprom.c ****                             cy_stc_eeprom_context_t * context)
 851:Generated_Source\PSoC4/cy_em_eeprom.c **** {
 162              		.loc 1 851 1 is_stmt 1 view -0
ARM GAS  C:\Users\EDULU~1.DES\AppData\Local\Temp\cc9dcV7d.s 			page 19


 163              		.cfi_startproc
 164              		@ args = 0, pretend = 0, frame = 0
 165              		@ frame_needed = 0, uses_anonymous_args = 0
 166              		.loc 1 851 1 is_stmt 0 view .LVU43
 167 0000 30B5     		push	{r4, r5, lr}
 168              		.cfi_def_cfa_offset 12
 169              		.cfi_offset 4, -12
 170              		.cfi_offset 5, -8
 171              		.cfi_offset 14, -4
 852:Generated_Source\PSoC4/cy_em_eeprom.c ****     /* Switch to the next row to be written if the current sequence number is
 853:Generated_Source\PSoC4/cy_em_eeprom.c ****     * not zero.
 854:Generated_Source\PSoC4/cy_em_eeprom.c ****     */
 855:Generated_Source\PSoC4/cy_em_eeprom.c ****     if(0u != seqNum)
 172              		.loc 1 855 5 is_stmt 1 view .LVU44
 173              		.loc 1 855 7 is_stmt 0 view .LVU45
 174 0002 0028     		cmp	r0, #0
 175 0004 02D0     		beq	.L12
 856:Generated_Source\PSoC4/cy_em_eeprom.c ****     {
 857:Generated_Source\PSoC4/cy_em_eeprom.c ****         *rowToWrPtr = (*rowToWrPtr + CY_EM_EEPROM_FLASH_SIZEOF_ROW);
 176              		.loc 1 857 9 is_stmt 1 view .LVU46
 177              		.loc 1 857 36 is_stmt 0 view .LVU47
 178 0006 0C68     		ldr	r4, [r1]
 179 0008 8034     		adds	r4, r4, #128
 180              		.loc 1 857 21 view .LVU48
 181 000a 0C60     		str	r4, [r1]
 182              	.L12:
 858:Generated_Source\PSoC4/cy_em_eeprom.c ****     }
 859:Generated_Source\PSoC4/cy_em_eeprom.c **** 
 860:Generated_Source\PSoC4/cy_em_eeprom.c ****     /* If the resulting row address is out of EEPROM, then switch to the base
 861:Generated_Source\PSoC4/cy_em_eeprom.c ****     * EEPROM address (Row#0).
 862:Generated_Source\PSoC4/cy_em_eeprom.c ****     */
 863:Generated_Source\PSoC4/cy_em_eeprom.c ****     if(CY_EM_EEPROM_ADDR_IN_RANGE !=
 183              		.loc 1 863 5 is_stmt 1 view .LVU49
 184              		.loc 1 863 7 is_stmt 0 view .LVU50
 185 000c 0C68     		ldr	r4, [r1]
 186 000e 1D68     		ldr	r5, [r3]
 187 0010 AC42     		cmp	r4, r5
 188 0012 01D3     		bcc	.L13
 864:Generated_Source\PSoC4/cy_em_eeprom.c ****             CY_EM_EEPROM_IS_ADDR_EXCEED_RANGE(*rowToWrPtr, context->wlEndAddr))
 865:Generated_Source\PSoC4/cy_em_eeprom.c ****     {
 866:Generated_Source\PSoC4/cy_em_eeprom.c ****         *rowToWrPtr = context->userFlashStartAddr;
 189              		.loc 1 866 9 is_stmt 1 view .LVU51
 190              		.loc 1 866 21 is_stmt 0 view .LVU52
 191 0014 9C69     		ldr	r4, [r3, #24]
 192 0016 0C60     		str	r4, [r1]
 193              	.L13:
 867:Generated_Source\PSoC4/cy_em_eeprom.c ****     }
 868:Generated_Source\PSoC4/cy_em_eeprom.c **** 
 869:Generated_Source\PSoC4/cy_em_eeprom.c ****     *rowToRdPtr = 0u;
 194              		.loc 1 869 5 is_stmt 1 view .LVU53
 195              		.loc 1 869 17 is_stmt 0 view .LVU54
 196 0018 0024     		movs	r4, #0
 197 001a 1460     		str	r4, [r2]
 870:Generated_Source\PSoC4/cy_em_eeprom.c **** 
 871:Generated_Source\PSoC4/cy_em_eeprom.c ****     /* Check if the sequence number is larger than the number of rows in the EEPROM.
 872:Generated_Source\PSoC4/cy_em_eeprom.c ****     * If not, do not update the row read address because there is no historic
 873:Generated_Source\PSoC4/cy_em_eeprom.c ****     * data to be read.
ARM GAS  C:\Users\EDULU~1.DES\AppData\Local\Temp\cc9dcV7d.s 			page 20


 874:Generated_Source\PSoC4/cy_em_eeprom.c ****     */
 875:Generated_Source\PSoC4/cy_em_eeprom.c ****     if(context->numberOfRows <= seqNum)
 198              		.loc 1 875 5 is_stmt 1 view .LVU55
 199              		.loc 1 875 15 is_stmt 0 view .LVU56
 200 001c 5C68     		ldr	r4, [r3, #4]
 201              		.loc 1 875 7 view .LVU57
 202 001e 8442     		cmp	r4, r0
 203 0020 16D8     		bhi	.L11
 876:Generated_Source\PSoC4/cy_em_eeprom.c ****     {
 877:Generated_Source\PSoC4/cy_em_eeprom.c ****         /* Check if wear leveling is used in EEPROM */
 878:Generated_Source\PSoC4/cy_em_eeprom.c ****         if(context->wearLevelingFactor > 1u)
 204              		.loc 1 878 9 is_stmt 1 view .LVU58
 205              		.loc 1 878 19 is_stmt 0 view .LVU59
 206 0022 1869     		ldr	r0, [r3, #16]
 207              	.LVL18:
 208              		.loc 1 878 11 view .LVU60
 209 0024 0128     		cmp	r0, #1
 210 0026 11D9     		bls	.L15
 879:Generated_Source\PSoC4/cy_em_eeprom.c ****         {
 880:Generated_Source\PSoC4/cy_em_eeprom.c ****             /* The read row address should be taken from an EEPROM copy that became
 881:Generated_Source\PSoC4/cy_em_eeprom.c ****             * inactive recently. This condition check handles that.
 882:Generated_Source\PSoC4/cy_em_eeprom.c ****             */
 883:Generated_Source\PSoC4/cy_em_eeprom.c ****             if((*rowToWrPtr - (context->numberOfRows * CY_EM_EEPROM_FLASH_SIZEOF_ROW)) <
 211              		.loc 1 883 13 is_stmt 1 view .LVU61
 212              		.loc 1 883 17 is_stmt 0 view .LVU62
 213 0028 0D68     		ldr	r5, [r1]
 214              		.loc 1 883 54 view .LVU63
 215 002a E101     		lsls	r1, r4, #7
 216              	.LVL19:
 217              		.loc 1 883 29 view .LVU64
 218 002c 691A     		subs	r1, r5, r1
 884:Generated_Source\PSoC4/cy_em_eeprom.c ****                 context->userFlashStartAddr)
 219              		.loc 1 884 24 view .LVU65
 220 002e 9B69     		ldr	r3, [r3, #24]
 221              	.LVL20:
 883:Generated_Source\PSoC4/cy_em_eeprom.c ****                 context->userFlashStartAddr)
 222              		.loc 1 883 15 view .LVU66
 223 0030 9942     		cmp	r1, r3
 224 0032 09D2     		bcs	.L16
 885:Generated_Source\PSoC4/cy_em_eeprom.c ****             {
 886:Generated_Source\PSoC4/cy_em_eeprom.c ****                 *rowToRdPtr = context->userFlashStartAddr +
 225              		.loc 1 886 17 is_stmt 1 view .LVU67
 887:Generated_Source\PSoC4/cy_em_eeprom.c ****                     (context->numberOfRows * (context->wearLevelingFactor - 1u) *
 226              		.loc 1 887 81 is_stmt 0 view .LVU68
 227 0034 0749     		ldr	r1, .L17
 228 0036 8C46     		mov	ip, r1
 229 0038 6044     		add	r0, r0, ip
 230 003a 4443     		muls	r4, r0
 231 003c E401     		lsls	r4, r4, #7
 886:Generated_Source\PSoC4/cy_em_eeprom.c ****                     (context->numberOfRows * (context->wearLevelingFactor - 1u) *
 232              		.loc 1 886 59 view .LVU69
 233 003e 1C19     		adds	r4, r3, r4
 888:Generated_Source\PSoC4/cy_em_eeprom.c ****                         CY_EM_EEPROM_FLASH_SIZEOF_ROW) + (*rowToWrPtr - context->userFlashStartAddr
 234              		.loc 1 888 71 view .LVU70
 235 0040 ED1A     		subs	r5, r5, r3
 236              		.loc 1 888 56 view .LVU71
 237 0042 6419     		adds	r4, r4, r5
ARM GAS  C:\Users\EDULU~1.DES\AppData\Local\Temp\cc9dcV7d.s 			page 21


 886:Generated_Source\PSoC4/cy_em_eeprom.c ****                     (context->numberOfRows * (context->wearLevelingFactor - 1u) *
 238              		.loc 1 886 29 view .LVU72
 239 0044 1460     		str	r4, [r2]
 240 0046 03E0     		b	.L11
 241              	.L16:
 889:Generated_Source\PSoC4/cy_em_eeprom.c ****             }
 890:Generated_Source\PSoC4/cy_em_eeprom.c ****             else
 891:Generated_Source\PSoC4/cy_em_eeprom.c ****             {
 892:Generated_Source\PSoC4/cy_em_eeprom.c ****                 *rowToRdPtr = *rowToWrPtr - (context->numberOfRows * CY_EM_EEPROM_FLASH_SIZEOF_ROW)
 242              		.loc 1 892 17 is_stmt 1 view .LVU73
 243              		.loc 1 892 29 is_stmt 0 view .LVU74
 244 0048 1160     		str	r1, [r2]
 245 004a 01E0     		b	.L11
 246              	.LVL21:
 247              	.L15:
 893:Generated_Source\PSoC4/cy_em_eeprom.c ****             }
 894:Generated_Source\PSoC4/cy_em_eeprom.c ****         }
 895:Generated_Source\PSoC4/cy_em_eeprom.c ****         else
 896:Generated_Source\PSoC4/cy_em_eeprom.c ****         {
 897:Generated_Source\PSoC4/cy_em_eeprom.c ****             /* If no wear leveling, always read from the same flash row that
 898:Generated_Source\PSoC4/cy_em_eeprom.c ****             * should be written.
 899:Generated_Source\PSoC4/cy_em_eeprom.c ****             */
 900:Generated_Source\PSoC4/cy_em_eeprom.c ****             *rowToRdPtr = *rowToWrPtr;
 248              		.loc 1 900 13 is_stmt 1 view .LVU75
 249              		.loc 1 900 27 is_stmt 0 view .LVU76
 250 004c 0B68     		ldr	r3, [r1]
 251              	.LVL22:
 252              		.loc 1 900 27 view .LVU77
 253 004e 1360     		str	r3, [r2]
 254              	.LVL23:
 255              	.L11:
 901:Generated_Source\PSoC4/cy_em_eeprom.c ****         }
 902:Generated_Source\PSoC4/cy_em_eeprom.c ****     }
 903:Generated_Source\PSoC4/cy_em_eeprom.c **** }
 256              		.loc 1 903 1 view .LVU78
 257              		@ sp needed
 258 0050 30BD     		pop	{r4, r5, pc}
 259              	.L18:
 260 0052 C046     		.align	2
 261              	.L17:
 262 0054 FFFFFF01 		.word	33554431
 263              		.cfi_endproc
 264              	.LFE7:
 265              		.size	GetNextRowToWrite, .-GetNextRowToWrite
 266              		.section	.text.CalcChecksum,"ax",%progbits
 267              		.align	1
 268              		.syntax unified
 269              		.code	16
 270              		.thumb_func
 271              		.fpu softvfp
 272              		.type	CalcChecksum, %function
 273              	CalcChecksum:
 274              	.LVL24:
 275              	.LFB8:
 904:Generated_Source\PSoC4/cy_em_eeprom.c **** 
 905:Generated_Source\PSoC4/cy_em_eeprom.c **** 
 906:Generated_Source\PSoC4/cy_em_eeprom.c **** /*******************************************************************************
ARM GAS  C:\Users\EDULU~1.DES\AppData\Local\Temp\cc9dcV7d.s 			page 22


 907:Generated_Source\PSoC4/cy_em_eeprom.c **** * Function Name: CalcChecksum
 908:Generated_Source\PSoC4/cy_em_eeprom.c **** ****************************************************************************//**
 909:Generated_Source\PSoC4/cy_em_eeprom.c **** *
 910:Generated_Source\PSoC4/cy_em_eeprom.c **** * Implements CRC-8 that is used in checksum calculation for the redundant copy
 911:Generated_Source\PSoC4/cy_em_eeprom.c **** * algorithm.
 912:Generated_Source\PSoC4/cy_em_eeprom.c **** *
 913:Generated_Source\PSoC4/cy_em_eeprom.c **** * \param rowData
 914:Generated_Source\PSoC4/cy_em_eeprom.c **** * The row data to be used to calculate the checksum.
 915:Generated_Source\PSoC4/cy_em_eeprom.c **** *
 916:Generated_Source\PSoC4/cy_em_eeprom.c **** * \param len
 917:Generated_Source\PSoC4/cy_em_eeprom.c **** * The length of rowData.
 918:Generated_Source\PSoC4/cy_em_eeprom.c **** *
 919:Generated_Source\PSoC4/cy_em_eeprom.c **** * \return
 920:Generated_Source\PSoC4/cy_em_eeprom.c **** * The calculated value of CRC-8.
 921:Generated_Source\PSoC4/cy_em_eeprom.c **** *
 922:Generated_Source\PSoC4/cy_em_eeprom.c **** *******************************************************************************/
 923:Generated_Source\PSoC4/cy_em_eeprom.c **** static uint8 CalcChecksum(uint8 rowData[], uint32 len)
 924:Generated_Source\PSoC4/cy_em_eeprom.c **** {
 276              		.loc 1 924 1 is_stmt 1 view -0
 277              		.cfi_startproc
 278              		@ args = 0, pretend = 0, frame = 0
 279              		@ frame_needed = 0, uses_anonymous_args = 0
 280              		.loc 1 924 1 is_stmt 0 view .LVU80
 281 0000 30B5     		push	{r4, r5, lr}
 282              		.cfi_def_cfa_offset 12
 283              		.cfi_offset 4, -12
 284              		.cfi_offset 5, -8
 285              		.cfi_offset 14, -4
 286 0002 0500     		movs	r5, r0
 925:Generated_Source\PSoC4/cy_em_eeprom.c ****     uint8 crc = CY_EM_EEPROM_CRC8_SEED;
 287              		.loc 1 925 5 is_stmt 1 view .LVU81
 288              	.LVL25:
 926:Generated_Source\PSoC4/cy_em_eeprom.c ****     uint8 i;
 289              		.loc 1 926 5 view .LVU82
 927:Generated_Source\PSoC4/cy_em_eeprom.c ****     uint16 cnt = 0u;
 290              		.loc 1 927 5 view .LVU83
 928:Generated_Source\PSoC4/cy_em_eeprom.c **** 
 929:Generated_Source\PSoC4/cy_em_eeprom.c ****     while(cnt != len)
 291              		.loc 1 929 5 view .LVU84
 927:Generated_Source\PSoC4/cy_em_eeprom.c ****     uint16 cnt = 0u;
 292              		.loc 1 927 12 is_stmt 0 view .LVU85
 293 0004 0024     		movs	r4, #0
 925:Generated_Source\PSoC4/cy_em_eeprom.c ****     uint8 i;
 294              		.loc 1 925 11 view .LVU86
 295 0006 FF20     		movs	r0, #255
 296              	.LVL26:
 297              		.loc 1 929 10 view .LVU87
 298 0008 0FE0     		b	.L20
 299              	.LVL27:
 300              	.L27:
 930:Generated_Source\PSoC4/cy_em_eeprom.c ****     {
 931:Generated_Source\PSoC4/cy_em_eeprom.c ****         crc ^= rowData[cnt];
 932:Generated_Source\PSoC4/cy_em_eeprom.c ****         for (i = 0u; i < CY_EM_EEPROM_CRC8_POLYNOM_LEN; i++)
 933:Generated_Source\PSoC4/cy_em_eeprom.c ****         {
 934:Generated_Source\PSoC4/cy_em_eeprom.c ****             crc = CY_EM_EEPROM_CALCULATE_CRC8(crc);
 301              		.loc 1 934 19 discriminator 1 view .LVU88
 302 000a 4000     		lsls	r0, r0, #1
ARM GAS  C:\Users\EDULU~1.DES\AppData\Local\Temp\cc9dcV7d.s 			page 23


 303              	.LVL28:
 304              		.loc 1 934 19 discriminator 1 view .LVU89
 305 000c C0B2     		uxtb	r0, r0
 306              		.loc 1 934 17 discriminator 1 view .LVU90
 307 000e 3122     		movs	r2, #49
 308              	.LVL29:
 309              		.loc 1 934 17 discriminator 1 view .LVU91
 310 0010 5040     		eors	r0, r2
 311              	.L23:
 312              	.LVL30:
 932:Generated_Source\PSoC4/cy_em_eeprom.c ****         {
 313              		.loc 1 932 58 discriminator 4 view .LVU92
 314 0012 0133     		adds	r3, r3, #1
 315              	.LVL31:
 932:Generated_Source\PSoC4/cy_em_eeprom.c ****         {
 316              		.loc 1 932 58 discriminator 4 view .LVU93
 317 0014 DBB2     		uxtb	r3, r3
 318              	.LVL32:
 319              	.L21:
 932:Generated_Source\PSoC4/cy_em_eeprom.c ****         {
 320              		.loc 1 932 9 discriminator 2 view .LVU94
 321 0016 072B     		cmp	r3, #7
 322 0018 05D8     		bhi	.L26
 323              		.loc 1 934 13 is_stmt 1 view .LVU95
 324              		.loc 1 934 19 is_stmt 0 view .LVU96
 325 001a 42B2     		sxtb	r2, r0
 326              		.loc 1 934 17 view .LVU97
 327 001c 002A     		cmp	r2, #0
 328 001e F4DB     		blt	.L27
 329              		.loc 1 934 17 discriminator 2 view .LVU98
 330 0020 4000     		lsls	r0, r0, #1
 331              	.LVL33:
 332              		.loc 1 934 17 discriminator 2 view .LVU99
 333 0022 C0B2     		uxtb	r0, r0
 334 0024 F5E7     		b	.L23
 335              	.LVL34:
 336              	.L26:
 935:Generated_Source\PSoC4/cy_em_eeprom.c ****         }
 936:Generated_Source\PSoC4/cy_em_eeprom.c ****         cnt++;
 337              		.loc 1 936 9 is_stmt 1 view .LVU100
 338              		.loc 1 936 12 is_stmt 0 view .LVU101
 339 0026 0134     		adds	r4, r4, #1
 340              	.LVL35:
 341              		.loc 1 936 12 view .LVU102
 342 0028 A4B2     		uxth	r4, r4
 343              	.LVL36:
 344              	.L20:
 929:Generated_Source\PSoC4/cy_em_eeprom.c ****     {
 345              		.loc 1 929 10 view .LVU103
 346 002a 8C42     		cmp	r4, r1
 347 002c 03D0     		beq	.L28
 931:Generated_Source\PSoC4/cy_em_eeprom.c ****         for (i = 0u; i < CY_EM_EEPROM_CRC8_POLYNOM_LEN; i++)
 348              		.loc 1 931 9 is_stmt 1 view .LVU104
 931:Generated_Source\PSoC4/cy_em_eeprom.c ****         for (i = 0u; i < CY_EM_EEPROM_CRC8_POLYNOM_LEN; i++)
 349              		.loc 1 931 23 is_stmt 0 view .LVU105
 350 002e 2B5D     		ldrb	r3, [r5, r4]
 931:Generated_Source\PSoC4/cy_em_eeprom.c ****         for (i = 0u; i < CY_EM_EEPROM_CRC8_POLYNOM_LEN; i++)
ARM GAS  C:\Users\EDULU~1.DES\AppData\Local\Temp\cc9dcV7d.s 			page 24


 351              		.loc 1 931 13 view .LVU106
 352 0030 5840     		eors	r0, r3
 353              	.LVL37:
 932:Generated_Source\PSoC4/cy_em_eeprom.c ****         {
 354              		.loc 1 932 9 is_stmt 1 view .LVU107
 932:Generated_Source\PSoC4/cy_em_eeprom.c ****         {
 355              		.loc 1 932 16 is_stmt 0 view .LVU108
 356 0032 0023     		movs	r3, #0
 932:Generated_Source\PSoC4/cy_em_eeprom.c ****         {
 357              		.loc 1 932 9 view .LVU109
 358 0034 EFE7     		b	.L21
 359              	.LVL38:
 360              	.L28:
 937:Generated_Source\PSoC4/cy_em_eeprom.c ****     }
 938:Generated_Source\PSoC4/cy_em_eeprom.c **** 
 939:Generated_Source\PSoC4/cy_em_eeprom.c ****     return (crc);
 940:Generated_Source\PSoC4/cy_em_eeprom.c **** }
 361              		.loc 1 940 1 view .LVU110
 362              		@ sp needed
 363              	.LVL39:
 364              	.LVL40:
 365              		.loc 1 940 1 view .LVU111
 366 0036 30BD     		pop	{r4, r5, pc}
 367              		.cfi_endproc
 368              	.LFE8:
 369              		.size	CalcChecksum, .-CalcChecksum
 370              		.section	.text.CheckRanges,"ax",%progbits
 371              		.align	1
 372              		.syntax unified
 373              		.code	16
 374              		.thumb_func
 375              		.fpu softvfp
 376              		.type	CheckRanges, %function
 377              	CheckRanges:
 378              	.LVL41:
 379              	.LFB9:
 941:Generated_Source\PSoC4/cy_em_eeprom.c **** 
 942:Generated_Source\PSoC4/cy_em_eeprom.c **** 
 943:Generated_Source\PSoC4/cy_em_eeprom.c **** /*******************************************************************************
 944:Generated_Source\PSoC4/cy_em_eeprom.c **** * Function Name: CheckRanges
 945:Generated_Source\PSoC4/cy_em_eeprom.c **** ****************************************************************************//**
 946:Generated_Source\PSoC4/cy_em_eeprom.c **** *
 947:Generated_Source\PSoC4/cy_em_eeprom.c **** * Checks if the EEPROM of the requested size can be placed in flash.
 948:Generated_Source\PSoC4/cy_em_eeprom.c **** *
 949:Generated_Source\PSoC4/cy_em_eeprom.c **** * \param config
 950:Generated_Source\PSoC4/cy_em_eeprom.c **** * The pointer to a configuration structure. See \ref cy_stc_eeprom_config_t.
 951:Generated_Source\PSoC4/cy_em_eeprom.c **** *
 952:Generated_Source\PSoC4/cy_em_eeprom.c **** * \return
 953:Generated_Source\PSoC4/cy_em_eeprom.c **** * error / status code. See \ref cy_en_em_eeprom_status_t.
 954:Generated_Source\PSoC4/cy_em_eeprom.c **** *
 955:Generated_Source\PSoC4/cy_em_eeprom.c **** *******************************************************************************/
 956:Generated_Source\PSoC4/cy_em_eeprom.c **** static cy_en_em_eeprom_status_t CheckRanges(cy_stc_eeprom_config_t* config)
 957:Generated_Source\PSoC4/cy_em_eeprom.c **** {
 380              		.loc 1 957 1 is_stmt 1 view -0
 381              		.cfi_startproc
 382              		@ args = 0, pretend = 0, frame = 0
 383              		@ frame_needed = 0, uses_anonymous_args = 0
ARM GAS  C:\Users\EDULU~1.DES\AppData\Local\Temp\cc9dcV7d.s 			page 25


 384              		.loc 1 957 1 is_stmt 0 view .LVU113
 385 0000 30B5     		push	{r4, r5, lr}
 386              		.cfi_def_cfa_offset 12
 387              		.cfi_offset 4, -12
 388              		.cfi_offset 5, -8
 389              		.cfi_offset 14, -4
 958:Generated_Source\PSoC4/cy_em_eeprom.c ****     cy_en_em_eeprom_status_t ret = CY_EM_EEPROM_BAD_DATA;
 390              		.loc 1 958 5 is_stmt 1 view .LVU114
 391              	.LVL42:
 959:Generated_Source\PSoC4/cy_em_eeprom.c ****     uint32 startAddr = config->userFlashStartAddr;
 392              		.loc 1 959 5 view .LVU115
 393              		.loc 1 959 12 is_stmt 0 view .LVU116
 394 0002 C468     		ldr	r4, [r0, #12]
 395              	.LVL43:
 960:Generated_Source\PSoC4/cy_em_eeprom.c ****     uint32 endAddr = startAddr + CY_EM_EEPROM_GET_PHYSICAL_SIZE(config->eepromSize,
 396              		.loc 1 960 5 is_stmt 1 view .LVU117
 397              		.loc 1 960 34 is_stmt 0 view .LVU118
 398 0004 017A     		ldrb	r1, [r0, #8]
 399 0006 0131     		adds	r1, r1, #1
 400 0008 0568     		ldr	r5, [r0]
 401 000a AB09     		lsrs	r3, r5, #6
 402 000c 3F22     		movs	r2, #63
 403 000e 2A40     		ands	r2, r5
 404 0010 00D0     		beq	.L30
 405 0012 0122     		movs	r2, #1
 406              	.L30:
 407              		.loc 1 960 34 discriminator 4 view .LVU119
 408 0014 9A18     		adds	r2, r3, r2
 409 0016 4368     		ldr	r3, [r0, #4]
 410 0018 5343     		muls	r3, r2
 411 001a 4B43     		muls	r3, r1
 412 001c DB01     		lsls	r3, r3, #7
 413              		.loc 1 960 12 discriminator 4 view .LVU120
 414 001e 1B19     		adds	r3, r3, r4
 415              	.LVL44:
 961:Generated_Source\PSoC4/cy_em_eeprom.c ****             config->wearLevelingFactor, config->redundantCopy);
 962:Generated_Source\PSoC4/cy_em_eeprom.c **** 
 963:Generated_Source\PSoC4/cy_em_eeprom.c ****     /* Range check if there is enough flash for EEPROM */
 964:Generated_Source\PSoC4/cy_em_eeprom.c ****     if (CY_EM_EEPROM_IS_IN_FLASH_RANGE(startAddr, endAddr))
 416              		.loc 1 964 5 is_stmt 1 discriminator 4 view .LVU121
 417              		.loc 1 964 8 is_stmt 0 discriminator 4 view .LVU122
 418 0020 002C     		cmp	r4, #0
 419 0022 07D0     		beq	.L32
 420              		.loc 1 964 9 discriminator 1 view .LVU123
 421 0024 8022     		movs	r2, #128
 422 0026 1202     		lsls	r2, r2, #8
 423 0028 9342     		cmp	r3, r2
 424 002a 01D8     		bhi	.L34
 965:Generated_Source\PSoC4/cy_em_eeprom.c ****     {
 966:Generated_Source\PSoC4/cy_em_eeprom.c ****         ret = CY_EM_EEPROM_SUCCESS;
 425              		.loc 1 966 13 view .LVU124
 426 002c 0020     		movs	r0, #0
 427              	.LVL45:
 428              	.L31:
 967:Generated_Source\PSoC4/cy_em_eeprom.c ****     }
 968:Generated_Source\PSoC4/cy_em_eeprom.c ****     return (ret);
 429              		.loc 1 968 5 is_stmt 1 view .LVU125
ARM GAS  C:\Users\EDULU~1.DES\AppData\Local\Temp\cc9dcV7d.s 			page 26


 969:Generated_Source\PSoC4/cy_em_eeprom.c **** }
 430              		.loc 1 969 1 is_stmt 0 view .LVU126
 431              		@ sp needed
 432              	.LVL46:
 433              		.loc 1 969 1 view .LVU127
 434 002e 30BD     		pop	{r4, r5, pc}
 435              	.LVL47:
 436              	.L34:
 958:Generated_Source\PSoC4/cy_em_eeprom.c ****     uint32 startAddr = config->userFlashStartAddr;
 437              		.loc 1 958 30 view .LVU128
 438 0030 0320     		movs	r0, #3
 439              	.LVL48:
 958:Generated_Source\PSoC4/cy_em_eeprom.c ****     uint32 startAddr = config->userFlashStartAddr;
 440              		.loc 1 958 30 view .LVU129
 441 0032 FCE7     		b	.L31
 442              	.LVL49:
 443              	.L32:
 958:Generated_Source\PSoC4/cy_em_eeprom.c ****     uint32 startAddr = config->userFlashStartAddr;
 444              		.loc 1 958 30 view .LVU130
 445 0034 0320     		movs	r0, #3
 446              	.LVL50:
 958:Generated_Source\PSoC4/cy_em_eeprom.c ****     uint32 startAddr = config->userFlashStartAddr;
 447              		.loc 1 958 30 view .LVU131
 448 0036 FAE7     		b	.L31
 449              		.cfi_endproc
 450              	.LFE9:
 451              		.size	CheckRanges, .-CheckRanges
 452              		.section	.text.GetAddresses,"ax",%progbits
 453              		.align	1
 454              		.syntax unified
 455              		.code	16
 456              		.thumb_func
 457              		.fpu softvfp
 458              		.type	GetAddresses, %function
 459              	GetAddresses:
 460              	.LVL51:
 461              	.LFB13:
 970:Generated_Source\PSoC4/cy_em_eeprom.c **** 
 971:Generated_Source\PSoC4/cy_em_eeprom.c **** 
 972:Generated_Source\PSoC4/cy_em_eeprom.c **** /*******************************************************************************
 973:Generated_Source\PSoC4/cy_em_eeprom.c **** * Function Name: WriteRow
 974:Generated_Source\PSoC4/cy_em_eeprom.c **** ****************************************************************************//**
 975:Generated_Source\PSoC4/cy_em_eeprom.c **** *
 976:Generated_Source\PSoC4/cy_em_eeprom.c **** * Writes one flash row starting from the specified row address.
 977:Generated_Source\PSoC4/cy_em_eeprom.c **** *
 978:Generated_Source\PSoC4/cy_em_eeprom.c **** * \param rowAdd
 979:Generated_Source\PSoC4/cy_em_eeprom.c **** * The address of the flash row.
 980:Generated_Source\PSoC4/cy_em_eeprom.c **** *
 981:Generated_Source\PSoC4/cy_em_eeprom.c **** * \param rowData
 982:Generated_Source\PSoC4/cy_em_eeprom.c **** * The pointer to the data to be written to the row.
 983:Generated_Source\PSoC4/cy_em_eeprom.c **** *
 984:Generated_Source\PSoC4/cy_em_eeprom.c **** * \param context
 985:Generated_Source\PSoC4/cy_em_eeprom.c **** * The pointer to the EEPROM context structure \ref cy_stc_eeprom_context_t.
 986:Generated_Source\PSoC4/cy_em_eeprom.c **** *
 987:Generated_Source\PSoC4/cy_em_eeprom.c **** * \return
 988:Generated_Source\PSoC4/cy_em_eeprom.c **** * error / status code. See \ref cy_en_em_eeprom_status_t.
 989:Generated_Source\PSoC4/cy_em_eeprom.c **** *
ARM GAS  C:\Users\EDULU~1.DES\AppData\Local\Temp\cc9dcV7d.s 			page 27


 990:Generated_Source\PSoC4/cy_em_eeprom.c **** *******************************************************************************/
 991:Generated_Source\PSoC4/cy_em_eeprom.c **** static cy_en_em_eeprom_status_t WriteRow(uint32 rowAddr,
 992:Generated_Source\PSoC4/cy_em_eeprom.c ****                                         uint32 *rowData,
 993:Generated_Source\PSoC4/cy_em_eeprom.c ****                                         cy_stc_eeprom_context_t * context)
 994:Generated_Source\PSoC4/cy_em_eeprom.c **** {
 995:Generated_Source\PSoC4/cy_em_eeprom.c ****     cy_en_em_eeprom_status_t ret = CY_EM_EEPROM_WRITE_FAIL;
 996:Generated_Source\PSoC4/cy_em_eeprom.c **** #if (!CY_PSOC6)
 997:Generated_Source\PSoC4/cy_em_eeprom.c ****     cystatus rc;
 998:Generated_Source\PSoC4/cy_em_eeprom.c ****     #if ((CY_PSOC3) || (CY_PSOC5))
 999:Generated_Source\PSoC4/cy_em_eeprom.c ****         uint32 arrayId;
1000:Generated_Source\PSoC4/cy_em_eeprom.c ****         uint32 rowId;
1001:Generated_Source\PSoC4/cy_em_eeprom.c ****     #else
1002:Generated_Source\PSoC4/cy_em_eeprom.c ****         uint32 rowNum;
1003:Generated_Source\PSoC4/cy_em_eeprom.c ****     #endif /* (CY_PSOC3) */
1004:Generated_Source\PSoC4/cy_em_eeprom.c ****     
1005:Generated_Source\PSoC4/cy_em_eeprom.c ****     #if (CY_PSOC3)
1006:Generated_Source\PSoC4/cy_em_eeprom.c ****         rowAddr &= CY_EM_EEPROM_CODE_ADDR_MASK;
1007:Generated_Source\PSoC4/cy_em_eeprom.c ****         context = context;      /* To avoid compiler warning generation */
1008:Generated_Source\PSoC4/cy_em_eeprom.c ****     #else
1009:Generated_Source\PSoC4/cy_em_eeprom.c ****         (void)context;          /* To avoid compiler warning generation */
1010:Generated_Source\PSoC4/cy_em_eeprom.c ****     #endif /* ((CY_PSOC3) */
1011:Generated_Source\PSoC4/cy_em_eeprom.c ****     
1012:Generated_Source\PSoC4/cy_em_eeprom.c ****     /* Write the flash row */
1013:Generated_Source\PSoC4/cy_em_eeprom.c ****     #if (CY_PSOC4)
1014:Generated_Source\PSoC4/cy_em_eeprom.c ****         /* For PSoC 4 devices, the array ID is included in the row number */
1015:Generated_Source\PSoC4/cy_em_eeprom.c ****         rowNum = rowAddr / CY_EM_EEPROM_FLASH_SIZEOF_ROW;
1016:Generated_Source\PSoC4/cy_em_eeprom.c ****         
1017:Generated_Source\PSoC4/cy_em_eeprom.c ****         rc = CySysFlashWriteRow(rowNum, (uint8 *)rowData);
1018:Generated_Source\PSoC4/cy_em_eeprom.c ****     #else
1019:Generated_Source\PSoC4/cy_em_eeprom.c ****         /* For PSoC 3/5 devices, the array ID and row ID needed to write the row */
1020:Generated_Source\PSoC4/cy_em_eeprom.c ****         rowId = (rowAddr / CY_EM_EEPROM_FLASH_SIZEOF_ROW) % CY_EM_EEPROM_ROWS_IN_ARRAY;
1021:Generated_Source\PSoC4/cy_em_eeprom.c ****         
1022:Generated_Source\PSoC4/cy_em_eeprom.c ****         #ifndef CY_EM_EEPROM_SKIP_TEMP_MEASUREMENT
1023:Generated_Source\PSoC4/cy_em_eeprom.c ****             (void)CySetTemp();
1024:Generated_Source\PSoC4/cy_em_eeprom.c ****         #endif /* (CY_EM_EEPROM_SKIP_TEMP_MEASUREMENT) */
1025:Generated_Source\PSoC4/cy_em_eeprom.c **** 
1026:Generated_Source\PSoC4/cy_em_eeprom.c ****         arrayId = rowAddr / CY_FLASH_SIZEOF_ARRAY;
1027:Generated_Source\PSoC4/cy_em_eeprom.c ****         rc = CyWriteRowData((uint8)arrayId, (uint16)rowId, (uint8 *)rowData);
1028:Generated_Source\PSoC4/cy_em_eeprom.c ****         
1029:Generated_Source\PSoC4/cy_em_eeprom.c ****         #if (CY_PSOC5)
1030:Generated_Source\PSoC4/cy_em_eeprom.c ****             CyFlushCache();
1031:Generated_Source\PSoC4/cy_em_eeprom.c ****         #endif /* (CY_PSOC5) */
1032:Generated_Source\PSoC4/cy_em_eeprom.c ****     #endif /* (CY_PSOC4) */
1033:Generated_Source\PSoC4/cy_em_eeprom.c **** 
1034:Generated_Source\PSoC4/cy_em_eeprom.c ****     if(CYRET_SUCCESS == rc)
1035:Generated_Source\PSoC4/cy_em_eeprom.c ****     {
1036:Generated_Source\PSoC4/cy_em_eeprom.c ****         ret = CY_EM_EEPROM_SUCCESS;
1037:Generated_Source\PSoC4/cy_em_eeprom.c ****     }
1038:Generated_Source\PSoC4/cy_em_eeprom.c **** #else /* PSoC 6 */
1039:Generated_Source\PSoC4/cy_em_eeprom.c ****     if(0u != context->blockingWrite)
1040:Generated_Source\PSoC4/cy_em_eeprom.c ****     {
1041:Generated_Source\PSoC4/cy_em_eeprom.c ****         /* Do blocking write */
1042:Generated_Source\PSoC4/cy_em_eeprom.c ****         if(CY_FLASH_DRV_SUCCESS == Cy_Flash_WriteRow(rowAddr, (const uint32 *)rowData))
1043:Generated_Source\PSoC4/cy_em_eeprom.c ****         {
1044:Generated_Source\PSoC4/cy_em_eeprom.c ****             ret = CY_EM_EEPROM_SUCCESS;
1045:Generated_Source\PSoC4/cy_em_eeprom.c ****         }
1046:Generated_Source\PSoC4/cy_em_eeprom.c ****     }
ARM GAS  C:\Users\EDULU~1.DES\AppData\Local\Temp\cc9dcV7d.s 			page 28


1047:Generated_Source\PSoC4/cy_em_eeprom.c ****     else
1048:Generated_Source\PSoC4/cy_em_eeprom.c ****     {
1049:Generated_Source\PSoC4/cy_em_eeprom.c ****         /* Initiate write */
1050:Generated_Source\PSoC4/cy_em_eeprom.c ****         if(CY_FLASH_DRV_OPERATION_STARTED == Cy_Flash_StartWrite(rowAddr, (const uint32 *)rowData))
1051:Generated_Source\PSoC4/cy_em_eeprom.c ****         {
1052:Generated_Source\PSoC4/cy_em_eeprom.c ****             uint32 countMs = CY_EM_EEPROM_MAX_WRITE_DURATION_MS;
1053:Generated_Source\PSoC4/cy_em_eeprom.c ****             cy_en_flashdrv_status_t rc;
1054:Generated_Source\PSoC4/cy_em_eeprom.c **** 
1055:Generated_Source\PSoC4/cy_em_eeprom.c ****             do
1056:Generated_Source\PSoC4/cy_em_eeprom.c ****             {
1057:Generated_Source\PSoC4/cy_em_eeprom.c ****                 CyDelay(1u);                         /* Wait 1ms */
1058:Generated_Source\PSoC4/cy_em_eeprom.c ****                 rc = Cy_Flash_IsWriteComplete();     /* Check if write completed */
1059:Generated_Source\PSoC4/cy_em_eeprom.c ****                 countMs--;
1060:Generated_Source\PSoC4/cy_em_eeprom.c ****             }
1061:Generated_Source\PSoC4/cy_em_eeprom.c ****             while ((rc == CY_FLASH_DRV_OPCODE_BUSY) && (0u != countMs));
1062:Generated_Source\PSoC4/cy_em_eeprom.c **** 
1063:Generated_Source\PSoC4/cy_em_eeprom.c ****             if(CY_FLASH_DRV_SUCCESS == rc)
1064:Generated_Source\PSoC4/cy_em_eeprom.c ****             {
1065:Generated_Source\PSoC4/cy_em_eeprom.c ****                 ret = CY_EM_EEPROM_SUCCESS;
1066:Generated_Source\PSoC4/cy_em_eeprom.c ****             }
1067:Generated_Source\PSoC4/cy_em_eeprom.c ****         }
1068:Generated_Source\PSoC4/cy_em_eeprom.c ****     }
1069:Generated_Source\PSoC4/cy_em_eeprom.c **** #endif /* (CY_PSOC6) */
1070:Generated_Source\PSoC4/cy_em_eeprom.c **** 
1071:Generated_Source\PSoC4/cy_em_eeprom.c ****     return (ret);
1072:Generated_Source\PSoC4/cy_em_eeprom.c **** }
1073:Generated_Source\PSoC4/cy_em_eeprom.c **** 
1074:Generated_Source\PSoC4/cy_em_eeprom.c **** 
1075:Generated_Source\PSoC4/cy_em_eeprom.c **** /*******************************************************************************
1076:Generated_Source\PSoC4/cy_em_eeprom.c **** * Function Name: EraseRow
1077:Generated_Source\PSoC4/cy_em_eeprom.c **** ****************************************************************************//**
1078:Generated_Source\PSoC4/cy_em_eeprom.c **** *
1079:Generated_Source\PSoC4/cy_em_eeprom.c **** * Erases one flash row starting from the specified row address. If the redundant
1080:Generated_Source\PSoC4/cy_em_eeprom.c **** * copy option is enabled the corresponding row in the redundant copy will also
1081:Generated_Source\PSoC4/cy_em_eeprom.c **** * be erased.
1082:Generated_Source\PSoC4/cy_em_eeprom.c **** *
1083:Generated_Source\PSoC4/cy_em_eeprom.c **** * \param rowAdd
1084:Generated_Source\PSoC4/cy_em_eeprom.c **** * The address of the flash row.
1085:Generated_Source\PSoC4/cy_em_eeprom.c **** *
1086:Generated_Source\PSoC4/cy_em_eeprom.c **** * \param ramBuffAddr
1087:Generated_Source\PSoC4/cy_em_eeprom.c **** * The address of the RAM buffer that contains zeroed data (used only for
1088:Generated_Source\PSoC4/cy_em_eeprom.c **** * non-PSoC 6 devices).
1089:Generated_Source\PSoC4/cy_em_eeprom.c **** *
1090:Generated_Source\PSoC4/cy_em_eeprom.c **** * \param context
1091:Generated_Source\PSoC4/cy_em_eeprom.c **** * The pointer to the EEPROM context structure \ref cy_stc_eeprom_context_t.
1092:Generated_Source\PSoC4/cy_em_eeprom.c **** *
1093:Generated_Source\PSoC4/cy_em_eeprom.c **** * \return
1094:Generated_Source\PSoC4/cy_em_eeprom.c **** * error / status code. See \ref cy_en_em_eeprom_status_t.
1095:Generated_Source\PSoC4/cy_em_eeprom.c **** *
1096:Generated_Source\PSoC4/cy_em_eeprom.c **** *******************************************************************************/
1097:Generated_Source\PSoC4/cy_em_eeprom.c **** static cy_en_em_eeprom_status_t EraseRow(uint32 rowAddr,
1098:Generated_Source\PSoC4/cy_em_eeprom.c ****                                         uint32 ramBuffAddr,
1099:Generated_Source\PSoC4/cy_em_eeprom.c ****                                         cy_stc_eeprom_context_t * context)
1100:Generated_Source\PSoC4/cy_em_eeprom.c **** {
1101:Generated_Source\PSoC4/cy_em_eeprom.c ****     uint32 emEepromRowAddr = rowAddr;
1102:Generated_Source\PSoC4/cy_em_eeprom.c ****     cy_en_em_eeprom_status_t ret = CY_EM_EEPROM_WRITE_FAIL;
1103:Generated_Source\PSoC4/cy_em_eeprom.c **** #if (CY_PSOC6)
ARM GAS  C:\Users\EDULU~1.DES\AppData\Local\Temp\cc9dcV7d.s 			page 29


1104:Generated_Source\PSoC4/cy_em_eeprom.c ****     uint32 i = 1u;
1105:Generated_Source\PSoC4/cy_em_eeprom.c **** 
1106:Generated_Source\PSoC4/cy_em_eeprom.c ****     (void)ramBuffAddr; /* To avoid compiler warning */
1107:Generated_Source\PSoC4/cy_em_eeprom.c **** 
1108:Generated_Source\PSoC4/cy_em_eeprom.c ****     if(0u != context->redundantCopy)
1109:Generated_Source\PSoC4/cy_em_eeprom.c ****     {
1110:Generated_Source\PSoC4/cy_em_eeprom.c ****         i++;
1111:Generated_Source\PSoC4/cy_em_eeprom.c ****     }
1112:Generated_Source\PSoC4/cy_em_eeprom.c **** 
1113:Generated_Source\PSoC4/cy_em_eeprom.c ****     do
1114:Generated_Source\PSoC4/cy_em_eeprom.c ****     {
1115:Generated_Source\PSoC4/cy_em_eeprom.c ****         if(0u != context->blockingWrite)
1116:Generated_Source\PSoC4/cy_em_eeprom.c ****         {
1117:Generated_Source\PSoC4/cy_em_eeprom.c ****             /* Erase the flash row */
1118:Generated_Source\PSoC4/cy_em_eeprom.c ****             if(CY_FLASH_DRV_SUCCESS == Cy_Flash_EraseRow(emEepromRowAddr))
1119:Generated_Source\PSoC4/cy_em_eeprom.c ****             {
1120:Generated_Source\PSoC4/cy_em_eeprom.c ****                 ret = CY_EM_EEPROM_SUCCESS;
1121:Generated_Source\PSoC4/cy_em_eeprom.c ****             }
1122:Generated_Source\PSoC4/cy_em_eeprom.c ****         }
1123:Generated_Source\PSoC4/cy_em_eeprom.c ****         else
1124:Generated_Source\PSoC4/cy_em_eeprom.c ****         {
1125:Generated_Source\PSoC4/cy_em_eeprom.c ****             /* Initiate erase */
1126:Generated_Source\PSoC4/cy_em_eeprom.c ****             if(CY_FLASH_DRV_OPERATION_STARTED == Cy_Flash_StartErase(emEepromRowAddr))
1127:Generated_Source\PSoC4/cy_em_eeprom.c ****             {
1128:Generated_Source\PSoC4/cy_em_eeprom.c ****                 uint32 countMs = CY_EM_EEPROM_MAX_WRITE_DURATION_MS;
1129:Generated_Source\PSoC4/cy_em_eeprom.c ****                 cy_en_flashdrv_status_t rc;
1130:Generated_Source\PSoC4/cy_em_eeprom.c **** 
1131:Generated_Source\PSoC4/cy_em_eeprom.c ****                 do
1132:Generated_Source\PSoC4/cy_em_eeprom.c ****                 {
1133:Generated_Source\PSoC4/cy_em_eeprom.c ****                     CyDelay(1u);                         /* Wait 1ms */
1134:Generated_Source\PSoC4/cy_em_eeprom.c ****                     rc = Cy_Flash_IsWriteComplete();     /* Check if erase completed */
1135:Generated_Source\PSoC4/cy_em_eeprom.c ****                     countMs--;
1136:Generated_Source\PSoC4/cy_em_eeprom.c ****                 }
1137:Generated_Source\PSoC4/cy_em_eeprom.c ****                 while ((rc == CY_FLASH_DRV_OPCODE_BUSY) && (0u != countMs));
1138:Generated_Source\PSoC4/cy_em_eeprom.c **** 
1139:Generated_Source\PSoC4/cy_em_eeprom.c ****                 if(CY_FLASH_DRV_SUCCESS == rc)
1140:Generated_Source\PSoC4/cy_em_eeprom.c ****                 {
1141:Generated_Source\PSoC4/cy_em_eeprom.c ****                     ret = CY_EM_EEPROM_SUCCESS;
1142:Generated_Source\PSoC4/cy_em_eeprom.c ****                 }
1143:Generated_Source\PSoC4/cy_em_eeprom.c ****             }
1144:Generated_Source\PSoC4/cy_em_eeprom.c ****         }
1145:Generated_Source\PSoC4/cy_em_eeprom.c **** 
1146:Generated_Source\PSoC4/cy_em_eeprom.c ****         if(CY_EM_EEPROM_SUCCESS == ret)
1147:Generated_Source\PSoC4/cy_em_eeprom.c ****         {
1148:Generated_Source\PSoC4/cy_em_eeprom.c ****             /* Update the address to point to the redundant copy row */
1149:Generated_Source\PSoC4/cy_em_eeprom.c ****             emEepromRowAddr = (emEepromRowAddr - context->userFlashStartAddr) + context->wlEndAddr;
1150:Generated_Source\PSoC4/cy_em_eeprom.c ****         }
1151:Generated_Source\PSoC4/cy_em_eeprom.c ****         else
1152:Generated_Source\PSoC4/cy_em_eeprom.c ****         {
1153:Generated_Source\PSoC4/cy_em_eeprom.c ****             break;
1154:Generated_Source\PSoC4/cy_em_eeprom.c ****         }
1155:Generated_Source\PSoC4/cy_em_eeprom.c ****         i--;
1156:Generated_Source\PSoC4/cy_em_eeprom.c ****     } while (0u != i);
1157:Generated_Source\PSoC4/cy_em_eeprom.c **** #else
1158:Generated_Source\PSoC4/cy_em_eeprom.c ****     /* Write the data to the specified flash row */
1159:Generated_Source\PSoC4/cy_em_eeprom.c ****     ret = WriteRow(emEepromRowAddr, (uint32 *)ramBuffAddr, context);
1160:Generated_Source\PSoC4/cy_em_eeprom.c **** 
ARM GAS  C:\Users\EDULU~1.DES\AppData\Local\Temp\cc9dcV7d.s 			page 30


1161:Generated_Source\PSoC4/cy_em_eeprom.c ****     if((CY_EM_EEPROM_SUCCESS == ret) && (0u != context->redundantCopy))
1162:Generated_Source\PSoC4/cy_em_eeprom.c ****     {
1163:Generated_Source\PSoC4/cy_em_eeprom.c ****         /* Update the address to point to the redundant copy row */
1164:Generated_Source\PSoC4/cy_em_eeprom.c ****         emEepromRowAddr = (emEepromRowAddr - context->userFlashStartAddr) + context->wlEndAddr;
1165:Generated_Source\PSoC4/cy_em_eeprom.c ****         ret = WriteRow(emEepromRowAddr, (uint32 *)ramBuffAddr, context);
1166:Generated_Source\PSoC4/cy_em_eeprom.c ****     }
1167:Generated_Source\PSoC4/cy_em_eeprom.c **** 
1168:Generated_Source\PSoC4/cy_em_eeprom.c ****     if(CY_EM_EEPROM_SUCCESS == ret)
1169:Generated_Source\PSoC4/cy_em_eeprom.c ****     {
1170:Generated_Source\PSoC4/cy_em_eeprom.c ****         context->lastWrRowAddr = rowAddr;
1171:Generated_Source\PSoC4/cy_em_eeprom.c ****     }
1172:Generated_Source\PSoC4/cy_em_eeprom.c **** #endif /* (CY_PSOC6) */
1173:Generated_Source\PSoC4/cy_em_eeprom.c **** 
1174:Generated_Source\PSoC4/cy_em_eeprom.c ****     return(ret);
1175:Generated_Source\PSoC4/cy_em_eeprom.c **** }
1176:Generated_Source\PSoC4/cy_em_eeprom.c **** 
1177:Generated_Source\PSoC4/cy_em_eeprom.c **** 
1178:Generated_Source\PSoC4/cy_em_eeprom.c **** /*******************************************************************************
1179:Generated_Source\PSoC4/cy_em_eeprom.c **** * Function Name: CheckCrcAndCopy
1180:Generated_Source\PSoC4/cy_em_eeprom.c **** ****************************************************************************//**
1181:Generated_Source\PSoC4/cy_em_eeprom.c **** *
1182:Generated_Source\PSoC4/cy_em_eeprom.c **** * Checks the checksum of the specific row in EEPROM. If the CRC matches - copies
1183:Generated_Source\PSoC4/cy_em_eeprom.c **** * the data to the "datAddr" from EEPROM. f the CRC does not match checks the
1184:Generated_Source\PSoC4/cy_em_eeprom.c **** * CRC of the corresponding row in the EEPROM's redundant copy. If the CRC
1185:Generated_Source\PSoC4/cy_em_eeprom.c **** * matches - copies the data to the "datAddr" from EEPROM redundant copy. If the
1186:Generated_Source\PSoC4/cy_em_eeprom.c **** * CRC of the redundant copy does not match - returns bad checksum.
1187:Generated_Source\PSoC4/cy_em_eeprom.c **** *
1188:Generated_Source\PSoC4/cy_em_eeprom.c **** * \param startAddr
1189:Generated_Source\PSoC4/cy_em_eeprom.c **** * The address that points to the start of the specified row.
1190:Generated_Source\PSoC4/cy_em_eeprom.c **** *
1191:Generated_Source\PSoC4/cy_em_eeprom.c **** * \param datAddr
1192:Generated_Source\PSoC4/cy_em_eeprom.c **** * The start address of where the row data will be copied if the CRC check
1193:Generated_Source\PSoC4/cy_em_eeprom.c **** * will succeed.
1194:Generated_Source\PSoC4/cy_em_eeprom.c **** *
1195:Generated_Source\PSoC4/cy_em_eeprom.c **** * \param rowOffset
1196:Generated_Source\PSoC4/cy_em_eeprom.c **** * The offset in the row from which the data should be copied.
1197:Generated_Source\PSoC4/cy_em_eeprom.c **** *
1198:Generated_Source\PSoC4/cy_em_eeprom.c **** * \param numBytes
1199:Generated_Source\PSoC4/cy_em_eeprom.c **** * The number of bytes to be copied.
1200:Generated_Source\PSoC4/cy_em_eeprom.c **** *
1201:Generated_Source\PSoC4/cy_em_eeprom.c **** * \param context
1202:Generated_Source\PSoC4/cy_em_eeprom.c **** * The pointer to the EEPROM context structure \ref cy_stc_eeprom_context_t.
1203:Generated_Source\PSoC4/cy_em_eeprom.c **** *
1204:Generated_Source\PSoC4/cy_em_eeprom.c **** * \return
1205:Generated_Source\PSoC4/cy_em_eeprom.c **** * error / status code. See \ref cy_en_em_eeprom_status_t.
1206:Generated_Source\PSoC4/cy_em_eeprom.c **** *
1207:Generated_Source\PSoC4/cy_em_eeprom.c **** * \note
1208:Generated_Source\PSoC4/cy_em_eeprom.c **** * This function uses a buffer of the flash row size to perform read
1209:Generated_Source\PSoC4/cy_em_eeprom.c **** * operation. For the size of the row refer to the specific PSoC device
1210:Generated_Source\PSoC4/cy_em_eeprom.c **** * datasheet.
1211:Generated_Source\PSoC4/cy_em_eeprom.c **** *
1212:Generated_Source\PSoC4/cy_em_eeprom.c **** *******************************************************************************/
1213:Generated_Source\PSoC4/cy_em_eeprom.c **** static cy_en_em_eeprom_status_t CheckCrcAndCopy(uint32 startAddr,
1214:Generated_Source\PSoC4/cy_em_eeprom.c ****                                                 uint32 dstAddr,
1215:Generated_Source\PSoC4/cy_em_eeprom.c ****                                                 uint32 rowOffset,
1216:Generated_Source\PSoC4/cy_em_eeprom.c ****                                                 uint32 numBytes,
1217:Generated_Source\PSoC4/cy_em_eeprom.c ****                                                 cy_stc_eeprom_context_t * context)
ARM GAS  C:\Users\EDULU~1.DES\AppData\Local\Temp\cc9dcV7d.s 			page 31


1218:Generated_Source\PSoC4/cy_em_eeprom.c **** {
1219:Generated_Source\PSoC4/cy_em_eeprom.c ****     cy_en_em_eeprom_status_t ret;
1220:Generated_Source\PSoC4/cy_em_eeprom.c ****     uint32 writeRamBuffer[CY_EM_EEPROM_FLASH_SIZEOF_ROW / CY_EM_EEPROM_U32_DIV];
1221:Generated_Source\PSoC4/cy_em_eeprom.c **** 
1222:Generated_Source\PSoC4/cy_em_eeprom.c ****     /* Calculate the row address in the EEPROM's redundant copy */
1223:Generated_Source\PSoC4/cy_em_eeprom.c ****     uint32 rcStartRowAddr = (startAddr - context->userFlashStartAddr) + context->wlEndAddr;
1224:Generated_Source\PSoC4/cy_em_eeprom.c **** 
1225:Generated_Source\PSoC4/cy_em_eeprom.c ****     /* Check the row data CRC in the EEPROM */
1226:Generated_Source\PSoC4/cy_em_eeprom.c ****     if((*(uint32 *)(startAddr + CY_EM_EEPROM_HEADER_CHECKSUM_OFFSET)) ==
1227:Generated_Source\PSoC4/cy_em_eeprom.c ****         ((uint32) CalcChecksum((uint8 *)(startAddr + CY_EM_EEPROM_EEPROM_DATA_OFFSET),
1228:Generated_Source\PSoC4/cy_em_eeprom.c ****             CY_EM_EEPROM_EEPROM_DATA_LEN)))
1229:Generated_Source\PSoC4/cy_em_eeprom.c ****     {
1230:Generated_Source\PSoC4/cy_em_eeprom.c ****         (void)memcpy((void *)(dstAddr), (void *)(startAddr + rowOffset), numBytes);
1231:Generated_Source\PSoC4/cy_em_eeprom.c **** 
1232:Generated_Source\PSoC4/cy_em_eeprom.c ****         ret = CY_EM_EEPROM_SUCCESS;
1233:Generated_Source\PSoC4/cy_em_eeprom.c ****     }
1234:Generated_Source\PSoC4/cy_em_eeprom.c ****     /* Check the row data CRC in the EEPROM's redundant copy */
1235:Generated_Source\PSoC4/cy_em_eeprom.c ****     else if((*(uint32 *)(rcStartRowAddr + CY_EM_EEPROM_HEADER_CHECKSUM_OFFSET)) ==
1236:Generated_Source\PSoC4/cy_em_eeprom.c ****             ((uint32) CalcChecksum((uint8 *)(rcStartRowAddr + CY_EM_EEPROM_EEPROM_DATA_OFFSET),
1237:Generated_Source\PSoC4/cy_em_eeprom.c ****                 CY_EM_EEPROM_EEPROM_DATA_LEN)))
1238:Generated_Source\PSoC4/cy_em_eeprom.c ****     {
1239:Generated_Source\PSoC4/cy_em_eeprom.c ****         /* Copy the redundant copy row to RAM buffer to avoid read while write (RWW)
1240:Generated_Source\PSoC4/cy_em_eeprom.c ****         * flash exception. The RWW occurs while trying to write and read the data from
1241:Generated_Source\PSoC4/cy_em_eeprom.c ****         * same flash macro.
1242:Generated_Source\PSoC4/cy_em_eeprom.c ****         */
1243:Generated_Source\PSoC4/cy_em_eeprom.c ****         (void)memcpy((void *)(writeRamBuffer), (void *)(rcStartRowAddr), CY_EM_EEPROM_FLASH_SIZEOF_
1244:Generated_Source\PSoC4/cy_em_eeprom.c **** 
1245:Generated_Source\PSoC4/cy_em_eeprom.c ****         /* Restore bad row data from the RAM buffer */
1246:Generated_Source\PSoC4/cy_em_eeprom.c ****         ret = WriteRow(startAddr, (uint32 *)writeRamBuffer, context);
1247:Generated_Source\PSoC4/cy_em_eeprom.c **** 
1248:Generated_Source\PSoC4/cy_em_eeprom.c ****         if(CY_EM_EEPROM_SUCCESS == ret)
1249:Generated_Source\PSoC4/cy_em_eeprom.c ****         {
1250:Generated_Source\PSoC4/cy_em_eeprom.c ****             (void)memcpy((void *)(dstAddr), (void *)(writeRamBuffer + rowOffset), numBytes);
1251:Generated_Source\PSoC4/cy_em_eeprom.c ****         }
1252:Generated_Source\PSoC4/cy_em_eeprom.c ****     }
1253:Generated_Source\PSoC4/cy_em_eeprom.c ****     else
1254:Generated_Source\PSoC4/cy_em_eeprom.c ****     {
1255:Generated_Source\PSoC4/cy_em_eeprom.c ****         ret = CY_EM_EEPROM_BAD_CHECKSUM;
1256:Generated_Source\PSoC4/cy_em_eeprom.c ****     }
1257:Generated_Source\PSoC4/cy_em_eeprom.c **** 
1258:Generated_Source\PSoC4/cy_em_eeprom.c ****     return(ret);
1259:Generated_Source\PSoC4/cy_em_eeprom.c **** }
1260:Generated_Source\PSoC4/cy_em_eeprom.c **** 
1261:Generated_Source\PSoC4/cy_em_eeprom.c **** 
1262:Generated_Source\PSoC4/cy_em_eeprom.c **** /*******************************************************************************
1263:Generated_Source\PSoC4/cy_em_eeprom.c **** * Function Name: GetAddresses
1264:Generated_Source\PSoC4/cy_em_eeprom.c **** ****************************************************************************//**
1265:Generated_Source\PSoC4/cy_em_eeprom.c **** *
1266:Generated_Source\PSoC4/cy_em_eeprom.c **** * Calculates the start and end address of the row's EEPROM data to be updated.
1267:Generated_Source\PSoC4/cy_em_eeprom.c **** * The start and end are not absolute addresses but a relative addresses in a
1268:Generated_Source\PSoC4/cy_em_eeprom.c **** * flash row.
1269:Generated_Source\PSoC4/cy_em_eeprom.c **** *
1270:Generated_Source\PSoC4/cy_em_eeprom.c **** * \param startAddr
1271:Generated_Source\PSoC4/cy_em_eeprom.c **** * The pointer the address where the EEPROM data start address will be returned.
1272:Generated_Source\PSoC4/cy_em_eeprom.c **** *
1273:Generated_Source\PSoC4/cy_em_eeprom.c **** * \param endAddr
1274:Generated_Source\PSoC4/cy_em_eeprom.c **** * The pointer the address where the EEPROM data end address will be returned.
ARM GAS  C:\Users\EDULU~1.DES\AppData\Local\Temp\cc9dcV7d.s 			page 32


1275:Generated_Source\PSoC4/cy_em_eeprom.c **** *
1276:Generated_Source\PSoC4/cy_em_eeprom.c **** * \param offset
1277:Generated_Source\PSoC4/cy_em_eeprom.c **** * The pointer the address where the calculated offset of the EEPROM header data
1278:Generated_Source\PSoC4/cy_em_eeprom.c **** * will be returned.
1279:Generated_Source\PSoC4/cy_em_eeprom.c **** *
1280:Generated_Source\PSoC4/cy_em_eeprom.c **** * \param rowNum
1281:Generated_Source\PSoC4/cy_em_eeprom.c **** * The row number that is about to be written.
1282:Generated_Source\PSoC4/cy_em_eeprom.c **** *
1283:Generated_Source\PSoC4/cy_em_eeprom.c **** * \param addr
1284:Generated_Source\PSoC4/cy_em_eeprom.c **** * The address of the EEPROM header data in the currently analyzed row that may
1285:Generated_Source\PSoC4/cy_em_eeprom.c **** * concern to the row about to be written.
1286:Generated_Source\PSoC4/cy_em_eeprom.c **** *
1287:Generated_Source\PSoC4/cy_em_eeprom.c **** * \param len
1288:Generated_Source\PSoC4/cy_em_eeprom.c **** * The length of the EEPROM header data in the currently analyzed row that may
1289:Generated_Source\PSoC4/cy_em_eeprom.c **** * concern to the row about to be written.
1290:Generated_Source\PSoC4/cy_em_eeprom.c **** *
1291:Generated_Source\PSoC4/cy_em_eeprom.c **** * \return
1292:Generated_Source\PSoC4/cy_em_eeprom.c **** * Zero indicates that the currently analyzed row has the data to be written to
1293:Generated_Source\PSoC4/cy_em_eeprom.c **** * the active EEPROM row data locations. Non zero value indicates that there is
1294:Generated_Source\PSoC4/cy_em_eeprom.c **** * no data to be written
1295:Generated_Source\PSoC4/cy_em_eeprom.c **** *
1296:Generated_Source\PSoC4/cy_em_eeprom.c **** *******************************************************************************/
1297:Generated_Source\PSoC4/cy_em_eeprom.c **** static uint32 GetAddresses(uint32 *startAddr, 
1298:Generated_Source\PSoC4/cy_em_eeprom.c ****                         uint32 *endAddr, 
1299:Generated_Source\PSoC4/cy_em_eeprom.c ****                         uint32 *offset,
1300:Generated_Source\PSoC4/cy_em_eeprom.c ****                         uint32 rowNum,
1301:Generated_Source\PSoC4/cy_em_eeprom.c ****                         uint32 addr,
1302:Generated_Source\PSoC4/cy_em_eeprom.c ****                         uint32 len)
1303:Generated_Source\PSoC4/cy_em_eeprom.c **** {
 462              		.loc 1 1303 1 is_stmt 1 view -0
 463              		.cfi_startproc
 464              		@ args = 8, pretend = 0, frame = 0
 465              		@ frame_needed = 0, uses_anonymous_args = 0
 466              		.loc 1 1303 1 is_stmt 0 view .LVU133
 467 0000 70B5     		push	{r4, r5, r6, lr}
 468              		.cfi_def_cfa_offset 16
 469              		.cfi_offset 4, -16
 470              		.cfi_offset 5, -12
 471              		.cfi_offset 6, -8
 472              		.cfi_offset 14, -4
 473 0002 049C     		ldr	r4, [sp, #16]
1304:Generated_Source\PSoC4/cy_em_eeprom.c ****     uint32 skip = 0u;
 474              		.loc 1 1304 5 is_stmt 1 view .LVU134
 475              	.LVL52:
1305:Generated_Source\PSoC4/cy_em_eeprom.c **** 
1306:Generated_Source\PSoC4/cy_em_eeprom.c ****     *offset =0u;
 476              		.loc 1 1306 5 view .LVU135
 477              		.loc 1 1306 13 is_stmt 0 view .LVU136
 478 0004 0025     		movs	r5, #0
 479 0006 1560     		str	r5, [r2]
1307:Generated_Source\PSoC4/cy_em_eeprom.c **** 
1308:Generated_Source\PSoC4/cy_em_eeprom.c ****     if(0u != CY_EM_EEPROM_IS_ADDR_IN_ROW_RANGE(addr, rowNum))
 480              		.loc 1 1308 5 is_stmt 1 view .LVU137
 481              		.loc 1 1308 14 is_stmt 0 view .LVU138
 482 0008 9E01     		lsls	r6, r3, #6
 483 000a A642     		cmp	r6, r4
 484 000c 11D8     		bhi	.L36
ARM GAS  C:\Users\EDULU~1.DES\AppData\Local\Temp\cc9dcV7d.s 			page 33


 485              		.loc 1 1308 14 discriminator 1 view .LVU139
 486 000e 5D1C     		adds	r5, r3, #1
 487 0010 AD01     		lsls	r5, r5, #6
 488 0012 013D     		subs	r5, r5, #1
 489 0014 A542     		cmp	r5, r4
 490 0016 0CD3     		bcc	.L36
1309:Generated_Source\PSoC4/cy_em_eeprom.c ****     {
1310:Generated_Source\PSoC4/cy_em_eeprom.c ****         *startAddr = CY_EM_EEPROM_EEPROM_DATA_LEN + (addr % CY_EM_EEPROM_EEPROM_DATA_LEN);
 491              		.loc 1 1310 9 is_stmt 1 view .LVU140
 492              		.loc 1 1310 59 is_stmt 0 view .LVU141
 493 0018 3F23     		movs	r3, #63
 494              	.LVL53:
 495              		.loc 1 1310 59 view .LVU142
 496 001a 2340     		ands	r3, r4
 497              		.loc 1 1310 51 view .LVU143
 498 001c 4033     		adds	r3, r3, #64
 499              		.loc 1 1310 20 view .LVU144
 500 001e 0360     		str	r3, [r0]
1311:Generated_Source\PSoC4/cy_em_eeprom.c **** 
1312:Generated_Source\PSoC4/cy_em_eeprom.c ****         if(0u != CY_EM_EEPROM_IS_ADDR_IN_ROW_RANGE(addr + len, rowNum))
 501              		.loc 1 1312 9 is_stmt 1 view .LVU145
 502              		.loc 1 1312 18 is_stmt 0 view .LVU146
 503 0020 059A     		ldr	r2, [sp, #20]
 504              	.LVL54:
 505              		.loc 1 1312 18 view .LVU147
 506 0022 9446     		mov	ip, r2
 507 0024 6444     		add	r4, r4, ip
 508 0026 A642     		cmp	r6, r4
 509 0028 09D9     		bls	.L37
 510              	.L38:
1313:Generated_Source\PSoC4/cy_em_eeprom.c ****         {
1314:Generated_Source\PSoC4/cy_em_eeprom.c ****             *endAddr = *startAddr + len;
1315:Generated_Source\PSoC4/cy_em_eeprom.c ****         }
1316:Generated_Source\PSoC4/cy_em_eeprom.c ****         else
1317:Generated_Source\PSoC4/cy_em_eeprom.c ****         {
1318:Generated_Source\PSoC4/cy_em_eeprom.c ****             *endAddr = CY_EM_EEPROM_FLASH_SIZEOF_ROW;
 511              		.loc 1 1318 13 is_stmt 1 view .LVU148
 512              		.loc 1 1318 22 is_stmt 0 view .LVU149
 513 002a 8023     		movs	r3, #128
 514 002c 0B60     		str	r3, [r1]
1304:Generated_Source\PSoC4/cy_em_eeprom.c **** 
 515              		.loc 1 1304 12 view .LVU150
 516 002e 0020     		movs	r0, #0
 517              	.LVL55:
1304:Generated_Source\PSoC4/cy_em_eeprom.c **** 
 518              		.loc 1 1304 12 view .LVU151
 519 0030 04E0     		b	.L35
 520              	.LVL56:
 521              	.L36:
1319:Generated_Source\PSoC4/cy_em_eeprom.c ****         }
1320:Generated_Source\PSoC4/cy_em_eeprom.c ****     }
1321:Generated_Source\PSoC4/cy_em_eeprom.c ****     else
1322:Generated_Source\PSoC4/cy_em_eeprom.c ****     {
1323:Generated_Source\PSoC4/cy_em_eeprom.c **** 
1324:Generated_Source\PSoC4/cy_em_eeprom.c ****         if(0u != CY_EM_EEPROM_IS_ADDR_IN_ROW_RANGE(addr + len, rowNum))
 522              		.loc 1 1324 9 is_stmt 1 view .LVU152
 523              		.loc 1 1324 18 is_stmt 0 view .LVU153
ARM GAS  C:\Users\EDULU~1.DES\AppData\Local\Temp\cc9dcV7d.s 			page 34


 524 0032 059D     		ldr	r5, [sp, #20]
 525 0034 6519     		adds	r5, r4, r5
 526 0036 AE42     		cmp	r6, r5
 527 0038 09D9     		bls	.L39
1325:Generated_Source\PSoC4/cy_em_eeprom.c ****         {
1326:Generated_Source\PSoC4/cy_em_eeprom.c ****             *startAddr = CY_EM_EEPROM_EEPROM_DATA_LEN;
1327:Generated_Source\PSoC4/cy_em_eeprom.c ****             *endAddr = (*startAddr + len) - (*startAddr - (addr % CY_EM_EEPROM_EEPROM_DATA_LEN));
1328:Generated_Source\PSoC4/cy_em_eeprom.c ****             *offset = len - (*endAddr - *startAddr);
1329:Generated_Source\PSoC4/cy_em_eeprom.c ****         }
1330:Generated_Source\PSoC4/cy_em_eeprom.c ****         else
1331:Generated_Source\PSoC4/cy_em_eeprom.c ****         {
1332:Generated_Source\PSoC4/cy_em_eeprom.c ****             skip++;
 528              		.loc 1 1332 17 view .LVU154
 529 003a 0120     		movs	r0, #1
 530              	.LVL57:
 531              	.L35:
1333:Generated_Source\PSoC4/cy_em_eeprom.c ****         }
1334:Generated_Source\PSoC4/cy_em_eeprom.c ****     }
1335:Generated_Source\PSoC4/cy_em_eeprom.c **** 
1336:Generated_Source\PSoC4/cy_em_eeprom.c ****     return (skip);
1337:Generated_Source\PSoC4/cy_em_eeprom.c **** }
 532              		.loc 1 1337 1 view .LVU155
 533              		@ sp needed
 534 003c 70BD     		pop	{r4, r5, r6, pc}
 535              	.LVL58:
 536              	.L37:
1312:Generated_Source\PSoC4/cy_em_eeprom.c ****         {
 537              		.loc 1 1312 18 discriminator 1 view .LVU156
 538 003e A542     		cmp	r5, r4
 539 0040 F3D3     		bcc	.L38
1314:Generated_Source\PSoC4/cy_em_eeprom.c ****         }
 540              		.loc 1 1314 13 is_stmt 1 view .LVU157
1314:Generated_Source\PSoC4/cy_em_eeprom.c ****         }
 541              		.loc 1 1314 35 is_stmt 0 view .LVU158
 542 0042 059A     		ldr	r2, [sp, #20]
 543 0044 9446     		mov	ip, r2
 544 0046 6344     		add	r3, r3, ip
1314:Generated_Source\PSoC4/cy_em_eeprom.c ****         }
 545              		.loc 1 1314 22 view .LVU159
 546 0048 0B60     		str	r3, [r1]
1304:Generated_Source\PSoC4/cy_em_eeprom.c **** 
 547              		.loc 1 1304 12 view .LVU160
 548 004a 0020     		movs	r0, #0
 549              	.LVL59:
1304:Generated_Source\PSoC4/cy_em_eeprom.c **** 
 550              		.loc 1 1304 12 view .LVU161
 551 004c F6E7     		b	.L35
 552              	.LVL60:
 553              	.L39:
1324:Generated_Source\PSoC4/cy_em_eeprom.c ****         {
 554              		.loc 1 1324 18 discriminator 1 view .LVU162
 555 004e 0133     		adds	r3, r3, #1
 556              	.LVL61:
1324:Generated_Source\PSoC4/cy_em_eeprom.c ****         {
 557              		.loc 1 1324 18 discriminator 1 view .LVU163
 558 0050 9B01     		lsls	r3, r3, #6
 559              	.LVL62:
ARM GAS  C:\Users\EDULU~1.DES\AppData\Local\Temp\cc9dcV7d.s 			page 35


1324:Generated_Source\PSoC4/cy_em_eeprom.c ****         {
 560              		.loc 1 1324 18 discriminator 1 view .LVU164
 561 0052 013B     		subs	r3, r3, #1
 562 0054 9D42     		cmp	r5, r3
 563 0056 10D8     		bhi	.L42
1326:Generated_Source\PSoC4/cy_em_eeprom.c ****             *endAddr = (*startAddr + len) - (*startAddr - (addr % CY_EM_EEPROM_EEPROM_DATA_LEN));
 564              		.loc 1 1326 13 is_stmt 1 view .LVU165
1326:Generated_Source\PSoC4/cy_em_eeprom.c ****             *endAddr = (*startAddr + len) - (*startAddr - (addr % CY_EM_EEPROM_EEPROM_DATA_LEN));
 565              		.loc 1 1326 24 is_stmt 0 view .LVU166
 566 0058 4023     		movs	r3, #64
 567 005a 0360     		str	r3, [r0]
1327:Generated_Source\PSoC4/cy_em_eeprom.c ****             *offset = len - (*endAddr - *startAddr);
 568              		.loc 1 1327 13 is_stmt 1 view .LVU167
1327:Generated_Source\PSoC4/cy_em_eeprom.c ****             *offset = len - (*endAddr - *startAddr);
 569              		.loc 1 1327 36 is_stmt 0 view .LVU168
 570 005c 059D     		ldr	r5, [sp, #20]
 571 005e 4035     		adds	r5, r5, #64
1327:Generated_Source\PSoC4/cy_em_eeprom.c ****             *offset = len - (*endAddr - *startAddr);
 572              		.loc 1 1327 65 view .LVU169
 573 0060 013B     		subs	r3, r3, #1
 574 0062 1C40     		ands	r4, r3
1327:Generated_Source\PSoC4/cy_em_eeprom.c ****             *offset = len - (*endAddr - *startAddr);
 575              		.loc 1 1327 43 view .LVU170
 576 0064 403C     		subs	r4, r4, #64
 577 0066 6419     		adds	r4, r4, r5
1327:Generated_Source\PSoC4/cy_em_eeprom.c ****             *offset = len - (*endAddr - *startAddr);
 578              		.loc 1 1327 22 view .LVU171
 579 0068 0C60     		str	r4, [r1]
1328:Generated_Source\PSoC4/cy_em_eeprom.c ****         }
 580              		.loc 1 1328 13 is_stmt 1 view .LVU172
1328:Generated_Source\PSoC4/cy_em_eeprom.c ****         }
 581              		.loc 1 1328 41 is_stmt 0 view .LVU173
 582 006a 0368     		ldr	r3, [r0]
1328:Generated_Source\PSoC4/cy_em_eeprom.c ****         }
 583              		.loc 1 1328 27 view .LVU174
 584 006c 1C1B     		subs	r4, r3, r4
 585 006e 059B     		ldr	r3, [sp, #20]
 586 0070 9C46     		mov	ip, r3
 587 0072 6444     		add	r4, r4, ip
1328:Generated_Source\PSoC4/cy_em_eeprom.c ****         }
 588              		.loc 1 1328 21 view .LVU175
 589 0074 1460     		str	r4, [r2]
1304:Generated_Source\PSoC4/cy_em_eeprom.c **** 
 590              		.loc 1 1304 12 view .LVU176
 591 0076 0020     		movs	r0, #0
 592              	.LVL63:
1304:Generated_Source\PSoC4/cy_em_eeprom.c **** 
 593              		.loc 1 1304 12 view .LVU177
 594 0078 E0E7     		b	.L35
 595              	.LVL64:
 596              	.L42:
1332:Generated_Source\PSoC4/cy_em_eeprom.c ****         }
 597              		.loc 1 1332 17 view .LVU178
 598 007a 0120     		movs	r0, #1
 599              	.LVL65:
1336:Generated_Source\PSoC4/cy_em_eeprom.c **** }
 600              		.loc 1 1336 5 is_stmt 1 view .LVU179
ARM GAS  C:\Users\EDULU~1.DES\AppData\Local\Temp\cc9dcV7d.s 			page 36


1336:Generated_Source\PSoC4/cy_em_eeprom.c **** }
 601              		.loc 1 1336 12 is_stmt 0 view .LVU180
 602 007c DEE7     		b	.L35
 603              		.cfi_endproc
 604              	.LFE13:
 605              		.size	GetAddresses, .-GetAddresses
 606              		.section	.text.WriteRow,"ax",%progbits
 607              		.align	1
 608              		.syntax unified
 609              		.code	16
 610              		.thumb_func
 611              		.fpu softvfp
 612              		.type	WriteRow, %function
 613              	WriteRow:
 614              	.LVL66:
 615              	.LFB10:
 994:Generated_Source\PSoC4/cy_em_eeprom.c ****     cy_en_em_eeprom_status_t ret = CY_EM_EEPROM_WRITE_FAIL;
 616              		.loc 1 994 1 is_stmt 1 view -0
 617              		.cfi_startproc
 618              		@ args = 0, pretend = 0, frame = 0
 619              		@ frame_needed = 0, uses_anonymous_args = 0
 994:Generated_Source\PSoC4/cy_em_eeprom.c ****     cy_en_em_eeprom_status_t ret = CY_EM_EEPROM_WRITE_FAIL;
 620              		.loc 1 994 1 is_stmt 0 view .LVU182
 621 0000 10B5     		push	{r4, lr}
 622              		.cfi_def_cfa_offset 8
 623              		.cfi_offset 4, -8
 624              		.cfi_offset 14, -4
 995:Generated_Source\PSoC4/cy_em_eeprom.c **** #if (!CY_PSOC6)
 625              		.loc 1 995 5 is_stmt 1 view .LVU183
 626              	.LVL67:
 997:Generated_Source\PSoC4/cy_em_eeprom.c ****     #if ((CY_PSOC3) || (CY_PSOC5))
 627              		.loc 1 997 5 view .LVU184
1002:Generated_Source\PSoC4/cy_em_eeprom.c ****     #endif /* (CY_PSOC3) */
 628              		.loc 1 1002 9 view .LVU185
1009:Generated_Source\PSoC4/cy_em_eeprom.c ****     #endif /* ((CY_PSOC3) */
 629              		.loc 1 1009 9 view .LVU186
1015:Generated_Source\PSoC4/cy_em_eeprom.c ****         
 630              		.loc 1 1015 9 view .LVU187
1015:Generated_Source\PSoC4/cy_em_eeprom.c ****         
 631              		.loc 1 1015 16 is_stmt 0 view .LVU188
 632 0002 C009     		lsrs	r0, r0, #7
 633              	.LVL68:
1017:Generated_Source\PSoC4/cy_em_eeprom.c ****     #else
 634              		.loc 1 1017 9 is_stmt 1 view .LVU189
1017:Generated_Source\PSoC4/cy_em_eeprom.c ****     #else
 635              		.loc 1 1017 14 is_stmt 0 view .LVU190
 636 0004 FFF7FEFF 		bl	CySysFlashWriteRow
 637              	.LVL69:
1034:Generated_Source\PSoC4/cy_em_eeprom.c ****     {
 638              		.loc 1 1034 5 is_stmt 1 view .LVU191
1034:Generated_Source\PSoC4/cy_em_eeprom.c ****     {
 639              		.loc 1 1034 7 is_stmt 0 view .LVU192
 640 0008 0028     		cmp	r0, #0
 641 000a 01D1     		bne	.L46
1036:Generated_Source\PSoC4/cy_em_eeprom.c ****     }
 642              		.loc 1 1036 13 view .LVU193
 643 000c 0020     		movs	r0, #0
ARM GAS  C:\Users\EDULU~1.DES\AppData\Local\Temp\cc9dcV7d.s 			page 37


 644              	.LVL70:
 645              	.L44:
1071:Generated_Source\PSoC4/cy_em_eeprom.c **** }
 646              		.loc 1 1071 5 is_stmt 1 view .LVU194
1072:Generated_Source\PSoC4/cy_em_eeprom.c **** 
 647              		.loc 1 1072 1 is_stmt 0 view .LVU195
 648              		@ sp needed
 649 000e 10BD     		pop	{r4, pc}
 650              	.LVL71:
 651              	.L46:
 995:Generated_Source\PSoC4/cy_em_eeprom.c **** #if (!CY_PSOC6)
 652              		.loc 1 995 30 view .LVU196
 653 0010 0420     		movs	r0, #4
 654              	.LVL72:
 995:Generated_Source\PSoC4/cy_em_eeprom.c **** #if (!CY_PSOC6)
 655              		.loc 1 995 30 view .LVU197
 656 0012 FCE7     		b	.L44
 657              		.cfi_endproc
 658              	.LFE10:
 659              		.size	WriteRow, .-WriteRow
 660              		.section	.text.FillChecksum,"ax",%progbits
 661              		.align	1
 662              		.syntax unified
 663              		.code	16
 664              		.thumb_func
 665              		.fpu softvfp
 666              		.type	FillChecksum, %function
 667              	FillChecksum:
 668              	.LVL73:
 669              	.LFB14:
1338:Generated_Source\PSoC4/cy_em_eeprom.c **** 
1339:Generated_Source\PSoC4/cy_em_eeprom.c **** 
1340:Generated_Source\PSoC4/cy_em_eeprom.c **** /*******************************************************************************
1341:Generated_Source\PSoC4/cy_em_eeprom.c **** * Function Name: FillChecksum
1342:Generated_Source\PSoC4/cy_em_eeprom.c **** ****************************************************************************//**
1343:Generated_Source\PSoC4/cy_em_eeprom.c **** *
1344:Generated_Source\PSoC4/cy_em_eeprom.c **** * Performs calculation of the checksum on each row in the Em_EEPROM and fills
1345:Generated_Source\PSoC4/cy_em_eeprom.c **** * the Em_EEPROM headers checksum field with the calculated checksums.
1346:Generated_Source\PSoC4/cy_em_eeprom.c **** *
1347:Generated_Source\PSoC4/cy_em_eeprom.c **** * \param context
1348:Generated_Source\PSoC4/cy_em_eeprom.c **** * The pointer to the EEPROM context structure.
1349:Generated_Source\PSoC4/cy_em_eeprom.c **** *
1350:Generated_Source\PSoC4/cy_em_eeprom.c **** * \return
1351:Generated_Source\PSoC4/cy_em_eeprom.c **** * error / status code. See \ref cy_en_em_eeprom_status_t.
1352:Generated_Source\PSoC4/cy_em_eeprom.c **** *
1353:Generated_Source\PSoC4/cy_em_eeprom.c **** * \theory 
1354:Generated_Source\PSoC4/cy_em_eeprom.c **** * In case if redundant copy option is used the Em_EEPROM would return bad 
1355:Generated_Source\PSoC4/cy_em_eeprom.c **** * checksum while trying to read the EEPROM rows which were not yet written by 
1356:Generated_Source\PSoC4/cy_em_eeprom.c **** * the user. E.g. any read after device reprogramming without previous Write() 
1357:Generated_Source\PSoC4/cy_em_eeprom.c **** * operation to the EEPROM would fail. This would happen because the Em_EEPROM 
1358:Generated_Source\PSoC4/cy_em_eeprom.c **** * headers checksum field values (which is zero at the moment) would not be 
1359:Generated_Source\PSoC4/cy_em_eeprom.c **** * equal to the actual data checksum. This function allows to avoid read failure
1360:Generated_Source\PSoC4/cy_em_eeprom.c **** * after device reprogramming. 
1361:Generated_Source\PSoC4/cy_em_eeprom.c **** *
1362:Generated_Source\PSoC4/cy_em_eeprom.c **** * \note
1363:Generated_Source\PSoC4/cy_em_eeprom.c **** * This function uses a buffer of the flash row size to perform read
1364:Generated_Source\PSoC4/cy_em_eeprom.c **** * operation. For the size of the row refer to the specific PSoC device
ARM GAS  C:\Users\EDULU~1.DES\AppData\Local\Temp\cc9dcV7d.s 			page 38


1365:Generated_Source\PSoC4/cy_em_eeprom.c **** * datasheet.
1366:Generated_Source\PSoC4/cy_em_eeprom.c **** *
1367:Generated_Source\PSoC4/cy_em_eeprom.c **** *******************************************************************************/
1368:Generated_Source\PSoC4/cy_em_eeprom.c **** static cy_en_em_eeprom_status_t FillChecksum(cy_stc_eeprom_context_t * context)
1369:Generated_Source\PSoC4/cy_em_eeprom.c **** {
 670              		.loc 1 1369 1 is_stmt 1 view -0
 671              		.cfi_startproc
 672              		@ args = 0, pretend = 0, frame = 136
 673              		@ frame_needed = 0, uses_anonymous_args = 0
 674              		.loc 1 1369 1 is_stmt 0 view .LVU199
 675 0000 F0B5     		push	{r4, r5, r6, r7, lr}
 676              		.cfi_def_cfa_offset 20
 677              		.cfi_offset 4, -20
 678              		.cfi_offset 5, -16
 679              		.cfi_offset 6, -12
 680              		.cfi_offset 7, -8
 681              		.cfi_offset 14, -4
 682 0002 A3B0     		sub	sp, sp, #140
 683              		.cfi_def_cfa_offset 160
 684 0004 0400     		movs	r4, r0
1370:Generated_Source\PSoC4/cy_em_eeprom.c ****     uint32 i;
 685              		.loc 1 1370 5 is_stmt 1 view .LVU200
1371:Generated_Source\PSoC4/cy_em_eeprom.c ****     uint32 rdAddr;
 686              		.loc 1 1371 5 view .LVU201
1372:Generated_Source\PSoC4/cy_em_eeprom.c ****     uint32 writeRamBuffer[CY_EM_EEPROM_FLASH_SIZEOF_ROW / CY_EM_EEPROM_U32_DIV];
 687              		.loc 1 1372 5 view .LVU202
1373:Generated_Source\PSoC4/cy_em_eeprom.c ****     uint32 wrAddr = context->lastWrRowAddr;
 688              		.loc 1 1373 5 view .LVU203
 689              		.loc 1 1373 28 is_stmt 0 view .LVU204
 690 0006 8368     		ldr	r3, [r0, #8]
 691              		.loc 1 1373 12 view .LVU205
 692 0008 0093     		str	r3, [sp]
1374:Generated_Source\PSoC4/cy_em_eeprom.c ****     uint32 tmpRowAddr;
 693              		.loc 1 1374 5 is_stmt 1 view .LVU206
1375:Generated_Source\PSoC4/cy_em_eeprom.c ****     /* Get the sequence number (number of writes) */
1376:Generated_Source\PSoC4/cy_em_eeprom.c ****     uint32 seqNum = CY_EM_EEPROM_GET_SEQ_NUM(wrAddr);
 694              		.loc 1 1376 5 view .LVU207
 695              		.loc 1 1376 12 is_stmt 0 view .LVU208
 696 000a 1D68     		ldr	r5, [r3]
 697              	.LVL74:
1377:Generated_Source\PSoC4/cy_em_eeprom.c ****     cy_en_em_eeprom_status_t ret = CY_EM_EEPROM_BAD_PARAM;
 698              		.loc 1 1377 5 is_stmt 1 view .LVU209
1378:Generated_Source\PSoC4/cy_em_eeprom.c **** 
1379:Generated_Source\PSoC4/cy_em_eeprom.c ****     for(i = 0u; i < (context->numberOfRows * context->wearLevelingFactor); i++)
 699              		.loc 1 1379 5 view .LVU210
1377:Generated_Source\PSoC4/cy_em_eeprom.c ****     cy_en_em_eeprom_status_t ret = CY_EM_EEPROM_BAD_PARAM;
 700              		.loc 1 1377 30 is_stmt 0 view .LVU211
 701 000c 0126     		movs	r6, #1
 702              		.loc 1 1379 11 view .LVU212
 703 000e 0027     		movs	r7, #0
 704              	.LVL75:
 705              	.L48:
 706              		.loc 1 1379 44 discriminator 1 view .LVU213
 707 0010 2369     		ldr	r3, [r4, #16]
 708 0012 6268     		ldr	r2, [r4, #4]
 709 0014 5343     		muls	r3, r2
 710              		.loc 1 1379 5 discriminator 1 view .LVU214
ARM GAS  C:\Users\EDULU~1.DES\AppData\Local\Temp\cc9dcV7d.s 			page 39


 711 0016 BB42     		cmp	r3, r7
 712 0018 24D9     		bls	.L50
1380:Generated_Source\PSoC4/cy_em_eeprom.c ****     {
1381:Generated_Source\PSoC4/cy_em_eeprom.c ****         /* Copy the EEPROM row from Flash to RAM */
1382:Generated_Source\PSoC4/cy_em_eeprom.c ****         (void)memcpy((void *)&writeRamBuffer[0u], (void *)(wrAddr), CY_EM_EEPROM_FLASH_SIZEOF_ROW);
 713              		.loc 1 1382 9 is_stmt 1 discriminator 3 view .LVU215
 714              		.loc 1 1382 15 is_stmt 0 discriminator 3 view .LVU216
 715 001a 009E     		ldr	r6, [sp]
 716              	.LVL76:
 717              		.loc 1 1382 15 discriminator 3 view .LVU217
 718 001c 311D     		adds	r1, r6, #4
 719 001e 7C22     		movs	r2, #124
 720 0020 02A8     		add	r0, sp, #8
 721 0022 FFF7FEFF 		bl	memcpy
 722              	.LVL77:
1383:Generated_Source\PSoC4/cy_em_eeprom.c **** 
1384:Generated_Source\PSoC4/cy_em_eeprom.c ****         /* Increment the sequence number */
1385:Generated_Source\PSoC4/cy_em_eeprom.c ****         seqNum++;
 723              		.loc 1 1385 9 is_stmt 1 discriminator 3 view .LVU218
 724              		.loc 1 1385 15 is_stmt 0 discriminator 3 view .LVU219
 725 0026 0135     		adds	r5, r5, #1
 726              	.LVL78:
1386:Generated_Source\PSoC4/cy_em_eeprom.c ****         writeRamBuffer[CY_EM_EEPROM_HEADER_SEQ_NUM_OFFSET_U32] = seqNum;
 727              		.loc 1 1386 9 is_stmt 1 discriminator 3 view .LVU220
 728              		.loc 1 1386 64 is_stmt 0 discriminator 3 view .LVU221
 729 0028 0195     		str	r5, [sp, #4]
1387:Generated_Source\PSoC4/cy_em_eeprom.c **** 
1388:Generated_Source\PSoC4/cy_em_eeprom.c ****         /* Calculate and fill the checksum to the Em_EEPROM header */
1389:Generated_Source\PSoC4/cy_em_eeprom.c ****         writeRamBuffer[CY_EM_EEPROM_HEADER_CHECKSUM_OFFSET_U32] = (uint32)
 730              		.loc 1 1389 9 is_stmt 1 discriminator 3 view .LVU222
1390:Generated_Source\PSoC4/cy_em_eeprom.c ****                     CalcChecksum((uint8 *) &writeRamBuffer[CY_EM_EEPROM_EEPROM_DATA_OFFSET_U32],
 731              		.loc 1 1390 21 is_stmt 0 discriminator 3 view .LVU223
 732 002a 4021     		movs	r1, #64
 733 002c 11A8     		add	r0, sp, #68
 734 002e FFF7FEFF 		bl	CalcChecksum
 735              	.LVL79:
1389:Generated_Source\PSoC4/cy_em_eeprom.c ****                     CalcChecksum((uint8 *) &writeRamBuffer[CY_EM_EEPROM_EEPROM_DATA_OFFSET_U32],
 736              		.loc 1 1389 65 discriminator 3 view .LVU224
 737 0032 1090     		str	r0, [sp, #64]
1391:Generated_Source\PSoC4/cy_em_eeprom.c ****                                               CY_EM_EEPROM_EEPROM_DATA_LEN);
1392:Generated_Source\PSoC4/cy_em_eeprom.c **** 
1393:Generated_Source\PSoC4/cy_em_eeprom.c ****         /* Write the data to the specified flash row */
1394:Generated_Source\PSoC4/cy_em_eeprom.c ****         ret = WriteRow(wrAddr, writeRamBuffer, context);
 738              		.loc 1 1394 9 is_stmt 1 discriminator 3 view .LVU225
 739              		.loc 1 1394 15 is_stmt 0 discriminator 3 view .LVU226
 740 0034 2200     		movs	r2, r4
 741 0036 01A9     		add	r1, sp, #4
 742 0038 3000     		movs	r0, r6
 743 003a FFF7FEFF 		bl	WriteRow
 744              	.LVL80:
1395:Generated_Source\PSoC4/cy_em_eeprom.c **** 
1396:Generated_Source\PSoC4/cy_em_eeprom.c ****         /* Update the row address to point to the relevant row in the redundant 
1397:Generated_Source\PSoC4/cy_em_eeprom.c ****         * EEPROM's copy.
1398:Generated_Source\PSoC4/cy_em_eeprom.c ****         */
1399:Generated_Source\PSoC4/cy_em_eeprom.c ****         tmpRowAddr = (wrAddr - context->userFlashStartAddr) + context->wlEndAddr;
 745              		.loc 1 1399 9 is_stmt 1 discriminator 3 view .LVU227
 746              		.loc 1 1399 30 is_stmt 0 discriminator 3 view .LVU228
ARM GAS  C:\Users\EDULU~1.DES\AppData\Local\Temp\cc9dcV7d.s 			page 40


 747 003e 009B     		ldr	r3, [sp]
 748 0040 A269     		ldr	r2, [r4, #24]
 749 0042 981A     		subs	r0, r3, r2
 750              		.loc 1 1399 20 discriminator 3 view .LVU229
 751 0044 2368     		ldr	r3, [r4]
 752 0046 9C46     		mov	ip, r3
 753 0048 6044     		add	r0, r0, ip
 754              	.LVL81:
1400:Generated_Source\PSoC4/cy_em_eeprom.c **** 
1401:Generated_Source\PSoC4/cy_em_eeprom.c ****         /* Write the data to the specified flash row */
1402:Generated_Source\PSoC4/cy_em_eeprom.c ****         ret = WriteRow(tmpRowAddr, writeRamBuffer, context);
 755              		.loc 1 1402 9 is_stmt 1 discriminator 3 view .LVU230
 756              		.loc 1 1402 15 is_stmt 0 discriminator 3 view .LVU231
 757 004a 2200     		movs	r2, r4
 758 004c 01A9     		add	r1, sp, #4
 759 004e FFF7FEFF 		bl	WriteRow
 760              	.LVL82:
 761              		.loc 1 1402 15 discriminator 3 view .LVU232
 762 0052 0600     		movs	r6, r0
 763              	.LVL83:
1403:Generated_Source\PSoC4/cy_em_eeprom.c **** 
1404:Generated_Source\PSoC4/cy_em_eeprom.c ****         /* Get the address of the next row to be written. 
1405:Generated_Source\PSoC4/cy_em_eeprom.c ****         * "rdAddr" is not used in this function but provided to prevent NULL 
1406:Generated_Source\PSoC4/cy_em_eeprom.c ****         * pointer exception in GetNextRowToWrite().
1407:Generated_Source\PSoC4/cy_em_eeprom.c ****         */
1408:Generated_Source\PSoC4/cy_em_eeprom.c ****         GetNextRowToWrite(seqNum, &wrAddr, &rdAddr, context);
 764              		.loc 1 1408 9 is_stmt 1 discriminator 3 view .LVU233
 765 0054 2300     		movs	r3, r4
 766 0056 21AA     		add	r2, sp, #132
 767 0058 6946     		mov	r1, sp
 768 005a 2800     		movs	r0, r5
 769              	.LVL84:
 770              		.loc 1 1408 9 is_stmt 0 discriminator 3 view .LVU234
 771 005c FFF7FEFF 		bl	GetNextRowToWrite
 772              	.LVL85:
1379:Generated_Source\PSoC4/cy_em_eeprom.c ****     {
 773              		.loc 1 1379 77 discriminator 3 view .LVU235
 774 0060 0137     		adds	r7, r7, #1
 775              	.LVL86:
1379:Generated_Source\PSoC4/cy_em_eeprom.c ****     {
 776              		.loc 1 1379 77 discriminator 3 view .LVU236
 777 0062 D5E7     		b	.L48
 778              	.L50:
1409:Generated_Source\PSoC4/cy_em_eeprom.c ****     }
1410:Generated_Source\PSoC4/cy_em_eeprom.c ****     
1411:Generated_Source\PSoC4/cy_em_eeprom.c ****     return(ret);
 779              		.loc 1 1411 5 is_stmt 1 view .LVU237
1412:Generated_Source\PSoC4/cy_em_eeprom.c **** }
 780              		.loc 1 1412 1 is_stmt 0 view .LVU238
 781 0064 3000     		movs	r0, r6
 782 0066 23B0     		add	sp, sp, #140
 783              		@ sp needed
 784              	.LVL87:
 785              	.LVL88:
 786              	.LVL89:
 787              	.LVL90:
 788              		.loc 1 1412 1 view .LVU239
ARM GAS  C:\Users\EDULU~1.DES\AppData\Local\Temp\cc9dcV7d.s 			page 41


 789 0068 F0BD     		pop	{r4, r5, r6, r7, pc}
 790              		.cfi_endproc
 791              	.LFE14:
 792              		.size	FillChecksum, .-FillChecksum
 793              		.section	.text.CheckCrcAndCopy,"ax",%progbits
 794              		.align	1
 795              		.syntax unified
 796              		.code	16
 797              		.thumb_func
 798              		.fpu softvfp
 799              		.type	CheckCrcAndCopy, %function
 800              	CheckCrcAndCopy:
 801              	.LVL91:
 802              	.LFB12:
1218:Generated_Source\PSoC4/cy_em_eeprom.c ****     cy_en_em_eeprom_status_t ret;
 803              		.loc 1 1218 1 is_stmt 1 view -0
 804              		.cfi_startproc
 805              		@ args = 4, pretend = 0, frame = 144
 806              		@ frame_needed = 0, uses_anonymous_args = 0
1218:Generated_Source\PSoC4/cy_em_eeprom.c ****     cy_en_em_eeprom_status_t ret;
 807              		.loc 1 1218 1 is_stmt 0 view .LVU241
 808 0000 F0B5     		push	{r4, r5, r6, r7, lr}
 809              		.cfi_def_cfa_offset 20
 810              		.cfi_offset 4, -20
 811              		.cfi_offset 5, -16
 812              		.cfi_offset 6, -12
 813              		.cfi_offset 7, -8
 814              		.cfi_offset 14, -4
 815 0002 A5B0     		sub	sp, sp, #148
 816              		.cfi_def_cfa_offset 168
 817 0004 0600     		movs	r6, r0
 818 0006 0191     		str	r1, [sp, #4]
 819 0008 0292     		str	r2, [sp, #8]
 820 000a 0393     		str	r3, [sp, #12]
 821 000c 2A9F     		ldr	r7, [sp, #168]
1219:Generated_Source\PSoC4/cy_em_eeprom.c ****     uint32 writeRamBuffer[CY_EM_EEPROM_FLASH_SIZEOF_ROW / CY_EM_EEPROM_U32_DIV];
 822              		.loc 1 1219 5 is_stmt 1 view .LVU242
1220:Generated_Source\PSoC4/cy_em_eeprom.c **** 
 823              		.loc 1 1220 5 view .LVU243
1223:Generated_Source\PSoC4/cy_em_eeprom.c **** 
 824              		.loc 1 1223 5 view .LVU244
1223:Generated_Source\PSoC4/cy_em_eeprom.c **** 
 825              		.loc 1 1223 40 is_stmt 0 view .LVU245
 826 000e BB69     		ldr	r3, [r7, #24]
 827              	.LVL92:
1223:Generated_Source\PSoC4/cy_em_eeprom.c **** 
 828              		.loc 1 1223 40 view .LVU246
 829 0010 C41A     		subs	r4, r0, r3
1223:Generated_Source\PSoC4/cy_em_eeprom.c **** 
 830              		.loc 1 1223 12 view .LVU247
 831 0012 3B68     		ldr	r3, [r7]
 832 0014 9C46     		mov	ip, r3
 833 0016 6444     		add	r4, r4, ip
 834              	.LVL93:
1226:Generated_Source\PSoC4/cy_em_eeprom.c ****         ((uint32) CalcChecksum((uint8 *)(startAddr + CY_EM_EEPROM_EEPROM_DATA_OFFSET),
 835              		.loc 1 1226 5 is_stmt 1 view .LVU248
1226:Generated_Source\PSoC4/cy_em_eeprom.c ****         ((uint32) CalcChecksum((uint8 *)(startAddr + CY_EM_EEPROM_EEPROM_DATA_OFFSET),
ARM GAS  C:\Users\EDULU~1.DES\AppData\Local\Temp\cc9dcV7d.s 			page 42


 836              		.loc 1 1226 9 is_stmt 0 view .LVU249
 837 0018 C56B     		ldr	r5, [r0, #60]
1227:Generated_Source\PSoC4/cy_em_eeprom.c ****             CY_EM_EEPROM_EEPROM_DATA_LEN)))
 838              		.loc 1 1227 52 view .LVU250
 839 001a 4030     		adds	r0, r0, #64
 840              	.LVL94:
1227:Generated_Source\PSoC4/cy_em_eeprom.c ****             CY_EM_EEPROM_EEPROM_DATA_LEN)))
 841              		.loc 1 1227 19 view .LVU251
 842 001c 4021     		movs	r1, #64
 843              	.LVL95:
1227:Generated_Source\PSoC4/cy_em_eeprom.c ****             CY_EM_EEPROM_EEPROM_DATA_LEN)))
 844              		.loc 1 1227 19 view .LVU252
 845 001e FFF7FEFF 		bl	CalcChecksum
 846              	.LVL96:
1226:Generated_Source\PSoC4/cy_em_eeprom.c ****         ((uint32) CalcChecksum((uint8 *)(startAddr + CY_EM_EEPROM_EEPROM_DATA_OFFSET),
 847              		.loc 1 1226 7 view .LVU253
 848 0022 8542     		cmp	r5, r0
 849 0024 0BD0     		beq	.L55
1235:Generated_Source\PSoC4/cy_em_eeprom.c ****             ((uint32) CalcChecksum((uint8 *)(rcStartRowAddr + CY_EM_EEPROM_EEPROM_DATA_OFFSET),
 850              		.loc 1 1235 10 is_stmt 1 view .LVU254
1235:Generated_Source\PSoC4/cy_em_eeprom.c ****             ((uint32) CalcChecksum((uint8 *)(rcStartRowAddr + CY_EM_EEPROM_EEPROM_DATA_OFFSET),
 851              		.loc 1 1235 14 is_stmt 0 view .LVU255
 852 0026 E56B     		ldr	r5, [r4, #60]
1236:Generated_Source\PSoC4/cy_em_eeprom.c ****                 CY_EM_EEPROM_EEPROM_DATA_LEN)))
 853              		.loc 1 1236 61 view .LVU256
 854 0028 2000     		movs	r0, r4
 855 002a 4030     		adds	r0, r0, #64
1236:Generated_Source\PSoC4/cy_em_eeprom.c ****                 CY_EM_EEPROM_EEPROM_DATA_LEN)))
 856              		.loc 1 1236 23 view .LVU257
 857 002c 4021     		movs	r1, #64
 858 002e FFF7FEFF 		bl	CalcChecksum
 859              	.LVL97:
1235:Generated_Source\PSoC4/cy_em_eeprom.c ****             ((uint32) CalcChecksum((uint8 *)(rcStartRowAddr + CY_EM_EEPROM_EEPROM_DATA_OFFSET),
 860              		.loc 1 1235 12 view .LVU258
 861 0032 8542     		cmp	r5, r0
 862 0034 0BD0     		beq	.L56
1255:Generated_Source\PSoC4/cy_em_eeprom.c ****     }
 863              		.loc 1 1255 13 view .LVU259
 864 0036 0224     		movs	r4, #2
 865              	.LVL98:
 866              	.L53:
1258:Generated_Source\PSoC4/cy_em_eeprom.c **** }
 867              		.loc 1 1258 5 is_stmt 1 view .LVU260
1259:Generated_Source\PSoC4/cy_em_eeprom.c **** 
 868              		.loc 1 1259 1 is_stmt 0 view .LVU261
 869 0038 2000     		movs	r0, r4
 870 003a 25B0     		add	sp, sp, #148
 871              		@ sp needed
 872              	.LVL99:
 873              	.LVL100:
1259:Generated_Source\PSoC4/cy_em_eeprom.c **** 
 874              		.loc 1 1259 1 view .LVU262
 875 003c F0BD     		pop	{r4, r5, r6, r7, pc}
 876              	.LVL101:
 877              	.L55:
1230:Generated_Source\PSoC4/cy_em_eeprom.c **** 
 878              		.loc 1 1230 9 is_stmt 1 view .LVU263
ARM GAS  C:\Users\EDULU~1.DES\AppData\Local\Temp\cc9dcV7d.s 			page 43


1230:Generated_Source\PSoC4/cy_em_eeprom.c **** 
 879              		.loc 1 1230 60 is_stmt 0 view .LVU264
 880 003e 029B     		ldr	r3, [sp, #8]
 881 0040 F118     		adds	r1, r6, r3
1230:Generated_Source\PSoC4/cy_em_eeprom.c **** 
 882              		.loc 1 1230 15 view .LVU265
 883 0042 039A     		ldr	r2, [sp, #12]
 884 0044 0198     		ldr	r0, [sp, #4]
 885 0046 FFF7FEFF 		bl	memcpy
 886              	.LVL102:
1232:Generated_Source\PSoC4/cy_em_eeprom.c ****     }
 887              		.loc 1 1232 9 is_stmt 1 view .LVU266
1232:Generated_Source\PSoC4/cy_em_eeprom.c ****     }
 888              		.loc 1 1232 13 is_stmt 0 view .LVU267
 889 004a 0024     		movs	r4, #0
 890              	.LVL103:
1232:Generated_Source\PSoC4/cy_em_eeprom.c ****     }
 891              		.loc 1 1232 13 view .LVU268
 892 004c F4E7     		b	.L53
 893              	.LVL104:
 894              	.L56:
1243:Generated_Source\PSoC4/cy_em_eeprom.c **** 
 895              		.loc 1 1243 9 is_stmt 1 view .LVU269
1243:Generated_Source\PSoC4/cy_em_eeprom.c **** 
 896              		.loc 1 1243 15 is_stmt 0 view .LVU270
 897 004e 8022     		movs	r2, #128
 898 0050 2100     		movs	r1, r4
 899 0052 04A8     		add	r0, sp, #16
 900 0054 FFF7FEFF 		bl	memcpy
 901              	.LVL105:
1246:Generated_Source\PSoC4/cy_em_eeprom.c **** 
 902              		.loc 1 1246 9 is_stmt 1 view .LVU271
1246:Generated_Source\PSoC4/cy_em_eeprom.c **** 
 903              		.loc 1 1246 15 is_stmt 0 view .LVU272
 904 0058 3A00     		movs	r2, r7
 905 005a 04A9     		add	r1, sp, #16
 906 005c 3000     		movs	r0, r6
 907 005e FFF7FEFF 		bl	WriteRow
 908              	.LVL106:
 909 0062 041E     		subs	r4, r0, #0
 910              	.LVL107:
1248:Generated_Source\PSoC4/cy_em_eeprom.c ****         {
 911              		.loc 1 1248 9 is_stmt 1 view .LVU273
1248:Generated_Source\PSoC4/cy_em_eeprom.c ****         {
 912              		.loc 1 1248 11 is_stmt 0 view .LVU274
 913 0064 E8D1     		bne	.L53
1250:Generated_Source\PSoC4/cy_em_eeprom.c ****         }
 914              		.loc 1 1250 13 is_stmt 1 view .LVU275
1250:Generated_Source\PSoC4/cy_em_eeprom.c ****         }
 915              		.loc 1 1250 69 is_stmt 0 view .LVU276
 916 0066 029B     		ldr	r3, [sp, #8]
 917 0068 9D00     		lsls	r5, r3, #2
1250:Generated_Source\PSoC4/cy_em_eeprom.c ****         }
 918              		.loc 1 1250 19 view .LVU277
 919 006a 2900     		movs	r1, r5
 920 006c 04AB     		add	r3, sp, #16
 921 006e 9C46     		mov	ip, r3
ARM GAS  C:\Users\EDULU~1.DES\AppData\Local\Temp\cc9dcV7d.s 			page 44


 922 0070 6144     		add	r1, r1, ip
 923 0072 039A     		ldr	r2, [sp, #12]
 924 0074 0198     		ldr	r0, [sp, #4]
 925              	.LVL108:
1250:Generated_Source\PSoC4/cy_em_eeprom.c ****         }
 926              		.loc 1 1250 19 view .LVU278
 927 0076 FFF7FEFF 		bl	memcpy
 928              	.LVL109:
 929 007a DDE7     		b	.L53
 930              		.cfi_endproc
 931              	.LFE12:
 932              		.size	CheckCrcAndCopy, .-CheckCrcAndCopy
 933              		.section	.text.EraseRow,"ax",%progbits
 934              		.align	1
 935              		.syntax unified
 936              		.code	16
 937              		.thumb_func
 938              		.fpu softvfp
 939              		.type	EraseRow, %function
 940              	EraseRow:
 941              	.LVL110:
 942              	.LFB11:
1100:Generated_Source\PSoC4/cy_em_eeprom.c ****     uint32 emEepromRowAddr = rowAddr;
 943              		.loc 1 1100 1 is_stmt 1 view -0
 944              		.cfi_startproc
 945              		@ args = 0, pretend = 0, frame = 0
 946              		@ frame_needed = 0, uses_anonymous_args = 0
1100:Generated_Source\PSoC4/cy_em_eeprom.c ****     uint32 emEepromRowAddr = rowAddr;
 947              		.loc 1 1100 1 is_stmt 0 view .LVU280
 948 0000 70B5     		push	{r4, r5, r6, lr}
 949              		.cfi_def_cfa_offset 16
 950              		.cfi_offset 4, -16
 951              		.cfi_offset 5, -12
 952              		.cfi_offset 6, -8
 953              		.cfi_offset 14, -4
 954 0002 0400     		movs	r4, r0
 955 0004 0D00     		movs	r5, r1
 956 0006 1600     		movs	r6, r2
1101:Generated_Source\PSoC4/cy_em_eeprom.c ****     cy_en_em_eeprom_status_t ret = CY_EM_EEPROM_WRITE_FAIL;
 957              		.loc 1 1101 5 is_stmt 1 view .LVU281
 958              	.LVL111:
1102:Generated_Source\PSoC4/cy_em_eeprom.c **** #if (CY_PSOC6)
 959              		.loc 1 1102 5 view .LVU282
1159:Generated_Source\PSoC4/cy_em_eeprom.c **** 
 960              		.loc 1 1159 5 view .LVU283
1159:Generated_Source\PSoC4/cy_em_eeprom.c **** 
 961              		.loc 1 1159 11 is_stmt 0 view .LVU284
 962 0008 FFF7FEFF 		bl	WriteRow
 963              	.LVL112:
1161:Generated_Source\PSoC4/cy_em_eeprom.c ****     {
 964              		.loc 1 1161 5 is_stmt 1 view .LVU285
1161:Generated_Source\PSoC4/cy_em_eeprom.c ****     {
 965              		.loc 1 1161 7 is_stmt 0 view .LVU286
 966 000c 0028     		cmp	r0, #0
 967 000e 02D1     		bne	.L58
1161:Generated_Source\PSoC4/cy_em_eeprom.c ****     {
 968              		.loc 1 1161 55 discriminator 1 view .LVU287
ARM GAS  C:\Users\EDULU~1.DES\AppData\Local\Temp\cc9dcV7d.s 			page 45


 969 0010 337D     		ldrb	r3, [r6, #20]
1161:Generated_Source\PSoC4/cy_em_eeprom.c ****     {
 970              		.loc 1 1161 38 discriminator 1 view .LVU288
 971 0012 002B     		cmp	r3, #0
 972 0014 03D1     		bne	.L60
 973              	.LVL113:
 974              	.L58:
1168:Generated_Source\PSoC4/cy_em_eeprom.c ****     {
 975              		.loc 1 1168 5 is_stmt 1 view .LVU289
1168:Generated_Source\PSoC4/cy_em_eeprom.c ****     {
 976              		.loc 1 1168 7 is_stmt 0 view .LVU290
 977 0016 0028     		cmp	r0, #0
 978 0018 00D1     		bne	.L59
1170:Generated_Source\PSoC4/cy_em_eeprom.c ****     }
 979              		.loc 1 1170 9 is_stmt 1 view .LVU291
1170:Generated_Source\PSoC4/cy_em_eeprom.c ****     }
 980              		.loc 1 1170 32 is_stmt 0 view .LVU292
 981 001a B460     		str	r4, [r6, #8]
 982              	.L59:
1174:Generated_Source\PSoC4/cy_em_eeprom.c **** }
 983              		.loc 1 1174 5 is_stmt 1 view .LVU293
1175:Generated_Source\PSoC4/cy_em_eeprom.c **** 
 984              		.loc 1 1175 1 is_stmt 0 view .LVU294
 985              		@ sp needed
 986              	.LVL114:
 987              	.LVL115:
 988              	.LVL116:
1175:Generated_Source\PSoC4/cy_em_eeprom.c **** 
 989              		.loc 1 1175 1 view .LVU295
 990 001c 70BD     		pop	{r4, r5, r6, pc}
 991              	.LVL117:
 992              	.L60:
1164:Generated_Source\PSoC4/cy_em_eeprom.c ****         ret = WriteRow(emEepromRowAddr, (uint32 *)ramBuffAddr, context);
 993              		.loc 1 1164 9 is_stmt 1 view .LVU296
1164:Generated_Source\PSoC4/cy_em_eeprom.c ****         ret = WriteRow(emEepromRowAddr, (uint32 *)ramBuffAddr, context);
 994              		.loc 1 1164 44 is_stmt 0 view .LVU297
 995 001e B369     		ldr	r3, [r6, #24]
 996 0020 E01A     		subs	r0, r4, r3
 997              	.LVL118:
1164:Generated_Source\PSoC4/cy_em_eeprom.c ****         ret = WriteRow(emEepromRowAddr, (uint32 *)ramBuffAddr, context);
 998              		.loc 1 1164 25 view .LVU298
 999 0022 3368     		ldr	r3, [r6]
 1000 0024 9C46     		mov	ip, r3
 1001 0026 6044     		add	r0, r0, ip
 1002              	.LVL119:
1165:Generated_Source\PSoC4/cy_em_eeprom.c ****     }
 1003              		.loc 1 1165 9 is_stmt 1 view .LVU299
1165:Generated_Source\PSoC4/cy_em_eeprom.c ****     }
 1004              		.loc 1 1165 15 is_stmt 0 view .LVU300
 1005 0028 3200     		movs	r2, r6
 1006 002a 2900     		movs	r1, r5
 1007 002c FFF7FEFF 		bl	WriteRow
 1008              	.LVL120:
1165:Generated_Source\PSoC4/cy_em_eeprom.c ****     }
 1009              		.loc 1 1165 15 view .LVU301
 1010 0030 F1E7     		b	.L58
 1011              		.cfi_endproc
ARM GAS  C:\Users\EDULU~1.DES\AppData\Local\Temp\cc9dcV7d.s 			page 46


 1012              	.LFE11:
 1013              		.size	EraseRow, .-EraseRow
 1014              		.section	.text.Cy_Em_EEPROM_Init,"ax",%progbits
 1015              		.align	1
 1016              		.global	Cy_Em_EEPROM_Init
 1017              		.syntax unified
 1018              		.code	16
 1019              		.thumb_func
 1020              		.fpu softvfp
 1021              		.type	Cy_Em_EEPROM_Init, %function
 1022              	Cy_Em_EEPROM_Init:
 1023              	.LVL121:
 1024              	.LFB0:
  96:Generated_Source\PSoC4/cy_em_eeprom.c ****     cy_en_em_eeprom_status_t ret = CY_EM_EEPROM_BAD_PARAM;
 1025              		.loc 1 96 1 is_stmt 1 view -0
 1026              		.cfi_startproc
 1027              		@ args = 0, pretend = 0, frame = 0
 1028              		@ frame_needed = 0, uses_anonymous_args = 0
  96:Generated_Source\PSoC4/cy_em_eeprom.c ****     cy_en_em_eeprom_status_t ret = CY_EM_EEPROM_BAD_PARAM;
 1029              		.loc 1 96 1 is_stmt 0 view .LVU303
 1030 0000 F8B5     		push	{r3, r4, r5, r6, r7, lr}
 1031              		.cfi_def_cfa_offset 24
 1032              		.cfi_offset 3, -24
 1033              		.cfi_offset 4, -20
 1034              		.cfi_offset 5, -16
 1035              		.cfi_offset 6, -12
 1036              		.cfi_offset 7, -8
 1037              		.cfi_offset 14, -4
 1038 0002 0400     		movs	r4, r0
 1039 0004 0D1E     		subs	r5, r1, #0
  97:Generated_Source\PSoC4/cy_em_eeprom.c **** 
 1040              		.loc 1 97 5 is_stmt 1 view .LVU304
 1041              	.LVL122:
  99:Generated_Source\PSoC4/cy_em_eeprom.c ****         (config->wearLevelingFactor <= CY_EM_EEPROM_MAX_WEAR_LEVELING_FACTOR) && (config->eepromSiz
 1042              		.loc 1 99 5 view .LVU305
  99:Generated_Source\PSoC4/cy_em_eeprom.c ****         (config->wearLevelingFactor <= CY_EM_EEPROM_MAX_WEAR_LEVELING_FACTOR) && (config->eepromSiz
 1043              		.loc 1 99 7 is_stmt 0 view .LVU306
 1044 0006 3BD0     		beq	.L64
  99:Generated_Source\PSoC4/cy_em_eeprom.c ****         (config->wearLevelingFactor <= CY_EM_EEPROM_MAX_WEAR_LEVELING_FACTOR) && (config->eepromSiz
 1045              		.loc 1 99 26 discriminator 1 view .LVU307
 1046 0008 0028     		cmp	r0, #0
 1047 000a 3CD0     		beq	.L65
  99:Generated_Source\PSoC4/cy_em_eeprom.c ****         (config->wearLevelingFactor <= CY_EM_EEPROM_MAX_WEAR_LEVELING_FACTOR) && (config->eepromSiz
 1048              		.loc 1 99 46 discriminator 2 view .LVU308
 1049 000c C368     		ldr	r3, [r0, #12]
 1050 000e 002B     		cmp	r3, #0
 1051 0010 3BD0     		beq	.L66
  99:Generated_Source\PSoC4/cy_em_eeprom.c ****         (config->wearLevelingFactor <= CY_EM_EEPROM_MAX_WEAR_LEVELING_FACTOR) && (config->eepromSiz
 1052              		.loc 1 99 98 discriminator 3 view .LVU309
 1053 0012 4368     		ldr	r3, [r0, #4]
 1054 0014 0A2B     		cmp	r3, #10
 1055 0016 3AD8     		bhi	.L67
 100:Generated_Source\PSoC4/cy_em_eeprom.c ****     {
 1056              		.loc 1 100 89 view .LVU310
 1057 0018 0768     		ldr	r7, [r0]
 100:Generated_Source\PSoC4/cy_em_eeprom.c ****     {
 1058              		.loc 1 100 79 view .LVU311
ARM GAS  C:\Users\EDULU~1.DES\AppData\Local\Temp\cc9dcV7d.s 			page 47


 1059 001a 002F     		cmp	r7, #0
 1060 001c 39D0     		beq	.L68
 102:Generated_Source\PSoC4/cy_em_eeprom.c **** 
 1061              		.loc 1 102 9 is_stmt 1 view .LVU312
 102:Generated_Source\PSoC4/cy_em_eeprom.c **** 
 1062              		.loc 1 102 15 is_stmt 0 view .LVU313
 1063 001e FFF7FEFF 		bl	CheckRanges
 1064              	.LVL123:
 102:Generated_Source\PSoC4/cy_em_eeprom.c **** 
 1065              		.loc 1 102 15 view .LVU314
 1066 0022 061E     		subs	r6, r0, #0
 1067              	.LVL124:
 104:Generated_Source\PSoC4/cy_em_eeprom.c ****         {
 1068              		.loc 1 104 9 is_stmt 1 view .LVU315
 104:Generated_Source\PSoC4/cy_em_eeprom.c ****         {
 1069              		.loc 1 104 11 is_stmt 0 view .LVU316
 1070 0024 2DD1     		bne	.L62
 107:Generated_Source\PSoC4/cy_em_eeprom.c ****             context->wearLevelingFactor = config->wearLevelingFactor;
 1071              		.loc 1 107 13 is_stmt 1 view .LVU317
 107:Generated_Source\PSoC4/cy_em_eeprom.c ****             context->wearLevelingFactor = config->wearLevelingFactor;
 1072              		.loc 1 107 33 is_stmt 0 view .LVU318
 1073 0026 EF60     		str	r7, [r5, #12]
 108:Generated_Source\PSoC4/cy_em_eeprom.c ****             context->redundantCopy = config->redundantCopy;
 1074              		.loc 1 108 13 is_stmt 1 view .LVU319
 108:Generated_Source\PSoC4/cy_em_eeprom.c ****             context->redundantCopy = config->redundantCopy;
 1075              		.loc 1 108 41 is_stmt 0 view .LVU320
 1076 0028 6368     		ldr	r3, [r4, #4]
 1077 002a 2B61     		str	r3, [r5, #16]
 109:Generated_Source\PSoC4/cy_em_eeprom.c ****             context->blockingWrite = config->blockingWrite;
 1078              		.loc 1 109 13 is_stmt 1 view .LVU321
 109:Generated_Source\PSoC4/cy_em_eeprom.c ****             context->blockingWrite = config->blockingWrite;
 1079              		.loc 1 109 44 is_stmt 0 view .LVU322
 1080 002c 237A     		ldrb	r3, [r4, #8]
 109:Generated_Source\PSoC4/cy_em_eeprom.c ****             context->blockingWrite = config->blockingWrite;
 1081              		.loc 1 109 36 view .LVU323
 1082 002e 2B75     		strb	r3, [r5, #20]
 110:Generated_Source\PSoC4/cy_em_eeprom.c ****             context->userFlashStartAddr = config->userFlashStartAddr;
 1083              		.loc 1 110 13 is_stmt 1 view .LVU324
 110:Generated_Source\PSoC4/cy_em_eeprom.c ****             context->userFlashStartAddr = config->userFlashStartAddr;
 1084              		.loc 1 110 44 is_stmt 0 view .LVU325
 1085 0030 637A     		ldrb	r3, [r4, #9]
 110:Generated_Source\PSoC4/cy_em_eeprom.c ****             context->userFlashStartAddr = config->userFlashStartAddr;
 1086              		.loc 1 110 36 view .LVU326
 1087 0032 6B75     		strb	r3, [r5, #21]
 111:Generated_Source\PSoC4/cy_em_eeprom.c ****             /* Store frequently used data for internal use */
 1088              		.loc 1 111 13 is_stmt 1 view .LVU327
 111:Generated_Source\PSoC4/cy_em_eeprom.c ****             /* Store frequently used data for internal use */
 1089              		.loc 1 111 41 is_stmt 0 view .LVU328
 1090 0034 E368     		ldr	r3, [r4, #12]
 1091 0036 AB61     		str	r3, [r5, #24]
 113:Generated_Source\PSoC4/cy_em_eeprom.c ****             context->wlEndAddr = ((CY_EM_EEPROM_GET_EEPROM_SIZE(context->numberOfRows) * config->we
 1092              		.loc 1 113 13 is_stmt 1 view .LVU329
 113:Generated_Source\PSoC4/cy_em_eeprom.c ****             context->wlEndAddr = ((CY_EM_EEPROM_GET_EEPROM_SIZE(context->numberOfRows) * config->we
 1093              		.loc 1 113 37 is_stmt 0 view .LVU330
 1094 0038 2168     		ldr	r1, [r4]
 1095 003a 8A09     		lsrs	r2, r1, #6
 1096 003c 3F23     		movs	r3, #63
ARM GAS  C:\Users\EDULU~1.DES\AppData\Local\Temp\cc9dcV7d.s 			page 48


 1097 003e 0B40     		ands	r3, r1
 1098 0040 00D0     		beq	.L63
 1099 0042 0123     		movs	r3, #1
 1100              	.L63:
 113:Generated_Source\PSoC4/cy_em_eeprom.c ****             context->wlEndAddr = ((CY_EM_EEPROM_GET_EEPROM_SIZE(context->numberOfRows) * config->we
 1101              		.loc 1 113 37 discriminator 4 view .LVU331
 1102 0044 D318     		adds	r3, r2, r3
 113:Generated_Source\PSoC4/cy_em_eeprom.c ****             context->wlEndAddr = ((CY_EM_EEPROM_GET_EEPROM_SIZE(context->numberOfRows) * config->we
 1103              		.loc 1 113 35 discriminator 4 view .LVU332
 1104 0046 6B60     		str	r3, [r5, #4]
 114:Generated_Source\PSoC4/cy_em_eeprom.c ****                     config->userFlashStartAddr);
 1105              		.loc 1 114 13 is_stmt 1 discriminator 4 view .LVU333
 114:Generated_Source\PSoC4/cy_em_eeprom.c ****                     config->userFlashStartAddr);
 1106              		.loc 1 114 88 is_stmt 0 discriminator 4 view .LVU334
 1107 0048 6268     		ldr	r2, [r4, #4]
 1108 004a 5343     		muls	r3, r2
 1109 004c DB01     		lsls	r3, r3, #7
 115:Generated_Source\PSoC4/cy_em_eeprom.c ****             /* Find last written EEPROM row and store it for quick access */
 1110              		.loc 1 115 27 discriminator 4 view .LVU335
 1111 004e E268     		ldr	r2, [r4, #12]
 114:Generated_Source\PSoC4/cy_em_eeprom.c ****                     config->userFlashStartAddr);
 1112              		.loc 1 114 118 discriminator 4 view .LVU336
 1113 0050 9B18     		adds	r3, r3, r2
 114:Generated_Source\PSoC4/cy_em_eeprom.c ****                     config->userFlashStartAddr);
 1114              		.loc 1 114 32 discriminator 4 view .LVU337
 1115 0052 2B60     		str	r3, [r5]
 117:Generated_Source\PSoC4/cy_em_eeprom.c **** 
 1116              		.loc 1 117 13 is_stmt 1 discriminator 4 view .LVU338
 1117 0054 2C00     		movs	r4, r5
 1118              	.LVL125:
 117:Generated_Source\PSoC4/cy_em_eeprom.c **** 
 1119              		.loc 1 117 13 is_stmt 0 discriminator 4 view .LVU339
 1120 0056 0834     		adds	r4, r4, #8
 1121 0058 2900     		movs	r1, r5
 1122 005a 2000     		movs	r0, r4
 1123              	.LVL126:
 117:Generated_Source\PSoC4/cy_em_eeprom.c **** 
 1124              		.loc 1 117 13 discriminator 4 view .LVU340
 1125 005c FFF7FEFF 		bl	FindLastWrittenRow
 1126              	.LVL127:
 119:Generated_Source\PSoC4/cy_em_eeprom.c ****             {
 1127              		.loc 1 119 13 is_stmt 1 discriminator 4 view .LVU341
 119:Generated_Source\PSoC4/cy_em_eeprom.c ****             {
 1128              		.loc 1 119 23 is_stmt 0 discriminator 4 view .LVU342
 1129 0060 AB68     		ldr	r3, [r5, #8]
 1130 0062 1B68     		ldr	r3, [r3]
 119:Generated_Source\PSoC4/cy_em_eeprom.c ****             {
 1131              		.loc 1 119 15 discriminator 4 view .LVU343
 1132 0064 002B     		cmp	r3, #0
 1133 0066 0CD1     		bne	.L62
 119:Generated_Source\PSoC4/cy_em_eeprom.c ****             {
 1134              		.loc 1 119 90 discriminator 1 view .LVU344
 1135 0068 2B7D     		ldrb	r3, [r5, #20]
 119:Generated_Source\PSoC4/cy_em_eeprom.c ****             {
 1136              		.loc 1 119 73 discriminator 1 view .LVU345
 1137 006a 002B     		cmp	r3, #0
 1138 006c 09D0     		beq	.L62
ARM GAS  C:\Users\EDULU~1.DES\AppData\Local\Temp\cc9dcV7d.s 			page 49


 124:Generated_Source\PSoC4/cy_em_eeprom.c ****                 
 1139              		.loc 1 124 17 is_stmt 1 view .LVU346
 124:Generated_Source\PSoC4/cy_em_eeprom.c ****                 
 1140              		.loc 1 124 23 is_stmt 0 view .LVU347
 1141 006e 2800     		movs	r0, r5
 1142 0070 FFF7FEFF 		bl	FillChecksum
 1143              	.LVL128:
 1144 0074 0600     		movs	r6, r0
 1145              	.LVL129:
 127:Generated_Source\PSoC4/cy_em_eeprom.c ****             }
 1146              		.loc 1 127 17 is_stmt 1 view .LVU348
 1147 0076 2900     		movs	r1, r5
 1148 0078 2000     		movs	r0, r4
 1149              	.LVL130:
 127:Generated_Source\PSoC4/cy_em_eeprom.c ****             }
 1150              		.loc 1 127 17 is_stmt 0 view .LVU349
 1151 007a FFF7FEFF 		bl	FindLastWrittenRow
 1152              	.LVL131:
 1153 007e 00E0     		b	.L62
 1154              	.LVL132:
 1155              	.L64:
  97:Generated_Source\PSoC4/cy_em_eeprom.c **** 
 1156              		.loc 1 97 30 view .LVU350
 1157 0080 0126     		movs	r6, #1
 1158              	.LVL133:
 1159              	.L62:
 132:Generated_Source\PSoC4/cy_em_eeprom.c **** }
 1160              		.loc 1 132 5 is_stmt 1 view .LVU351
 133:Generated_Source\PSoC4/cy_em_eeprom.c **** 
 1161              		.loc 1 133 1 is_stmt 0 view .LVU352
 1162 0082 3000     		movs	r0, r6
 1163              		@ sp needed
 1164              	.LVL134:
 1165              	.LVL135:
 133:Generated_Source\PSoC4/cy_em_eeprom.c **** 
 1166              		.loc 1 133 1 view .LVU353
 1167 0084 F8BD     		pop	{r3, r4, r5, r6, r7, pc}
 1168              	.LVL136:
 1169              	.L65:
  97:Generated_Source\PSoC4/cy_em_eeprom.c **** 
 1170              		.loc 1 97 30 view .LVU354
 1171 0086 0126     		movs	r6, #1
 1172 0088 FBE7     		b	.L62
 1173              	.L66:
 1174 008a 0126     		movs	r6, #1
 1175 008c F9E7     		b	.L62
 1176              	.L67:
 1177 008e 0126     		movs	r6, #1
 1178 0090 F7E7     		b	.L62
 1179              	.L68:
 1180 0092 0126     		movs	r6, #1
 1181 0094 F5E7     		b	.L62
 1182              		.cfi_endproc
 1183              	.LFE0:
 1184              		.size	Cy_Em_EEPROM_Init, .-Cy_Em_EEPROM_Init
 1185              		.global	__aeabi_uidiv
 1186              		.section	.text.Cy_Em_EEPROM_Read,"ax",%progbits
ARM GAS  C:\Users\EDULU~1.DES\AppData\Local\Temp\cc9dcV7d.s 			page 50


 1187              		.align	1
 1188              		.global	Cy_Em_EEPROM_Read
 1189              		.syntax unified
 1190              		.code	16
 1191              		.thumb_func
 1192              		.fpu softvfp
 1193              		.type	Cy_Em_EEPROM_Read, %function
 1194              	Cy_Em_EEPROM_Read:
 1195              	.LVL137:
 1196              	.LFB1:
 173:Generated_Source\PSoC4/cy_em_eeprom.c ****     cy_en_em_eeprom_status_t ret = CY_EM_EEPROM_BAD_PARAM;
 1197              		.loc 1 173 1 is_stmt 1 view -0
 1198              		.cfi_startproc
 1199              		@ args = 0, pretend = 0, frame = 32
 1200              		@ frame_needed = 0, uses_anonymous_args = 0
 173:Generated_Source\PSoC4/cy_em_eeprom.c ****     cy_en_em_eeprom_status_t ret = CY_EM_EEPROM_BAD_PARAM;
 1201              		.loc 1 173 1 is_stmt 0 view .LVU356
 1202 0000 F0B5     		push	{r4, r5, r6, r7, lr}
 1203              		.cfi_def_cfa_offset 20
 1204              		.cfi_offset 4, -20
 1205              		.cfi_offset 5, -16
 1206              		.cfi_offset 6, -12
 1207              		.cfi_offset 7, -8
 1208              		.cfi_offset 14, -4
 1209 0002 DE46     		mov	lr, fp
 1210 0004 5746     		mov	r7, r10
 1211 0006 4E46     		mov	r6, r9
 1212 0008 4546     		mov	r5, r8
 1213 000a E0B5     		push	{r5, r6, r7, lr}
 1214              		.cfi_def_cfa_offset 36
 1215              		.cfi_offset 8, -36
 1216              		.cfi_offset 9, -32
 1217              		.cfi_offset 10, -28
 1218              		.cfi_offset 11, -24
 1219 000c 8BB0     		sub	sp, sp, #44
 1220              		.cfi_def_cfa_offset 80
 1221 000e 8146     		mov	r9, r0
 1222 0010 0D00     		movs	r5, r1
 1223 0012 9046     		mov	r8, r2
 1224 0014 1F00     		movs	r7, r3
 174:Generated_Source\PSoC4/cy_em_eeprom.c ****     uint32 i;
 1225              		.loc 1 174 5 is_stmt 1 view .LVU357
 1226              	.LVL138:
 175:Generated_Source\PSoC4/cy_em_eeprom.c ****     uint32 numBytesToRead;
 1227              		.loc 1 175 5 view .LVU358
 176:Generated_Source\PSoC4/cy_em_eeprom.c ****     uint32 curEepromBaseAddr;
 1228              		.loc 1 176 5 view .LVU359
 177:Generated_Source\PSoC4/cy_em_eeprom.c ****     uint32 curRowOffset;
 1229              		.loc 1 177 5 view .LVU360
 178:Generated_Source\PSoC4/cy_em_eeprom.c ****     uint32 startRowAddr;
 1230              		.loc 1 178 5 view .LVU361
 179:Generated_Source\PSoC4/cy_em_eeprom.c ****     uint32 actEepromRowNum;
 1231              		.loc 1 179 5 view .LVU362
 180:Generated_Source\PSoC4/cy_em_eeprom.c ****     uint32 curRdEepromRowNum = 0u;
 1232              		.loc 1 180 5 view .LVU363
 181:Generated_Source\PSoC4/cy_em_eeprom.c ****     uint32 dataStartEepromRowNum = 0u;
 1233              		.loc 1 181 5 view .LVU364
ARM GAS  C:\Users\EDULU~1.DES\AppData\Local\Temp\cc9dcV7d.s 			page 51


 182:Generated_Source\PSoC4/cy_em_eeprom.c ****     uint32 eeData = (uint32) eepromData; /* To avoid the pointer arithmetic with void */
 1234              		.loc 1 182 5 view .LVU365
 183:Generated_Source\PSoC4/cy_em_eeprom.c **** 
 1235              		.loc 1 183 5 view .LVU366
 183:Generated_Source\PSoC4/cy_em_eeprom.c **** 
 1236              		.loc 1 183 12 is_stmt 0 view .LVU367
 1237 0016 0691     		str	r1, [sp, #24]
 1238              	.LVL139:
 186:Generated_Source\PSoC4/cy_em_eeprom.c ****     {
 1239              		.loc 1 186 5 is_stmt 1 view .LVU368
 186:Generated_Source\PSoC4/cy_em_eeprom.c ****     {
 1240              		.loc 1 186 7 is_stmt 0 view .LVU369
 1241 0018 131E     		subs	r3, r2, #0
 1242              	.LVL140:
 186:Generated_Source\PSoC4/cy_em_eeprom.c ****     {
 1243              		.loc 1 186 7 view .LVU370
 1244 001a 00D1     		bne	.LCB1156
 1245 001c EFE0     		b	.L94	@long jump
 1246              	.LCB1156:
 186:Generated_Source\PSoC4/cy_em_eeprom.c ****     {
 1247              		.loc 1 186 31 discriminator 1 view .LVU371
 1248 001e 4B44     		add	r3, r3, r9
 1249 0020 0793     		str	r3, [sp, #28]
 186:Generated_Source\PSoC4/cy_em_eeprom.c ****     {
 1250              		.loc 1 186 21 discriminator 1 view .LVU372
 1251 0022 F968     		ldr	r1, [r7, #12]
 1252              	.LVL141:
 186:Generated_Source\PSoC4/cy_em_eeprom.c ****     {
 1253              		.loc 1 186 21 discriminator 1 view .LVU373
 1254 0024 8B42     		cmp	r3, r1
 1255 0026 00D9     		bls	.LCB1164
 1256 0028 F3E0     		b	.L95	@long jump
 1257              	.LCB1164:
 186:Generated_Source\PSoC4/cy_em_eeprom.c ****     {
 1258              		.loc 1 186 65 discriminator 2 view .LVU374
 1259 002a 002D     		cmp	r5, #0
 1260 002c 00D1     		bne	.LCB1166
 1261 002e F3E0     		b	.L96	@long jump
 1262              	.LCB1166:
 1263              	.LBB2:
 188:Generated_Source\PSoC4/cy_em_eeprom.c ****         uint32 rdSize = size;
 1264              		.loc 1 188 9 is_stmt 1 view .LVU375
 1265              	.LVL142:
 189:Generated_Source\PSoC4/cy_em_eeprom.c ****         /* Get the sequence number of the last written row */
 1266              		.loc 1 189 9 view .LVU376
 191:Generated_Source\PSoC4/cy_em_eeprom.c ****         uint32 updateAddrFlag = 0u;
 1267              		.loc 1 191 9 view .LVU377
 191:Generated_Source\PSoC4/cy_em_eeprom.c ****         uint32 updateAddrFlag = 0u;
 1268              		.loc 1 191 25 is_stmt 0 view .LVU378
 1269 0030 BA68     		ldr	r2, [r7, #8]
 1270              	.LVL143:
 191:Generated_Source\PSoC4/cy_em_eeprom.c ****         uint32 updateAddrFlag = 0u;
 1271              		.loc 1 191 25 view .LVU379
 1272 0032 9246     		mov	r10, r2
 191:Generated_Source\PSoC4/cy_em_eeprom.c ****         uint32 updateAddrFlag = 0u;
 1273              		.loc 1 191 16 view .LVU380
 1274 0034 1268     		ldr	r2, [r2]
ARM GAS  C:\Users\EDULU~1.DES\AppData\Local\Temp\cc9dcV7d.s 			page 52


 1275 0036 0992     		str	r2, [sp, #36]
 1276              	.LVL144:
 192:Generated_Source\PSoC4/cy_em_eeprom.c **** 
 1277              		.loc 1 192 9 is_stmt 1 view .LVU381
 197:Generated_Source\PSoC4/cy_em_eeprom.c ****                               (rdAddr / CY_EM_EEPROM_EEPROM_DATA_LEN)) + 1u;
 1278              		.loc 1 197 9 view .LVU382
 197:Generated_Source\PSoC4/cy_em_eeprom.c ****                               (rdAddr / CY_EM_EEPROM_EEPROM_DATA_LEN)) + 1u;
 1279              		.loc 1 197 51 is_stmt 0 view .LVU383
 1280 0038 013B     		subs	r3, r3, #1
 197:Generated_Source\PSoC4/cy_em_eeprom.c ****                               (rdAddr / CY_EM_EEPROM_EEPROM_DATA_LEN)) + 1u;
 1281              		.loc 1 197 57 view .LVU384
 1282 003a 9B09     		lsrs	r3, r3, #6
 198:Generated_Source\PSoC4/cy_em_eeprom.c **** 
 1283              		.loc 1 198 39 view .LVU385
 1284 003c 8209     		lsrs	r2, r0, #6
 1285              	.LVL145:
 197:Generated_Source\PSoC4/cy_em_eeprom.c ****                               (rdAddr / CY_EM_EEPROM_EEPROM_DATA_LEN)) + 1u;
 1286              		.loc 1 197 89 view .LVU386
 1287 003e 9B1A     		subs	r3, r3, r2
 197:Generated_Source\PSoC4/cy_em_eeprom.c ****                               (rdAddr / CY_EM_EEPROM_EEPROM_DATA_LEN)) + 1u;
 1288              		.loc 1 197 16 view .LVU387
 1289 0040 0133     		adds	r3, r3, #1
 1290 0042 9B46     		mov	fp, r3
 1291              	.LVL146:
 204:Generated_Source\PSoC4/cy_em_eeprom.c ****                               (CY_EM_EEPROM_FLASH_SIZEOF_ROW * context->numberOfRows)) *
 1292              		.loc 1 204 9 is_stmt 1 view .LVU388
 206:Generated_Source\PSoC4/cy_em_eeprom.c ****                                context->userFlashStartAddr;
 1293              		.loc 1 206 71 is_stmt 0 view .LVU389
 1294 0044 7E68     		ldr	r6, [r7, #4]
 204:Generated_Source\PSoC4/cy_em_eeprom.c ****                               (CY_EM_EEPROM_FLASH_SIZEOF_ROW * context->numberOfRows)) *
 1295              		.loc 1 204 64 view .LVU390
 1296 0046 BC69     		ldr	r4, [r7, #24]
 204:Generated_Source\PSoC4/cy_em_eeprom.c ****                               (CY_EM_EEPROM_FLASH_SIZEOF_ROW * context->numberOfRows)) *
 1297              		.loc 1 204 55 view .LVU391
 1298 0048 5346     		mov	r3, r10
 1299              	.LVL147:
 204:Generated_Source\PSoC4/cy_em_eeprom.c ****                               (CY_EM_EEPROM_FLASH_SIZEOF_ROW * context->numberOfRows)) *
 1300              		.loc 1 204 55 view .LVU392
 1301 004a 181B     		subs	r0, r3, r4
 1302              	.LVL148:
 205:Generated_Source\PSoC4/cy_em_eeprom.c ****                               (CY_EM_EEPROM_FLASH_SIZEOF_ROW * context->numberOfRows)) +
 1303              		.loc 1 205 62 view .LVU393
 1304 004c F101     		lsls	r1, r6, #7
 204:Generated_Source\PSoC4/cy_em_eeprom.c ****                               (CY_EM_EEPROM_FLASH_SIZEOF_ROW * context->numberOfRows)) *
 1305              		.loc 1 204 86 view .LVU394
 1306 004e FFF7FEFF 		bl	__aeabi_uidiv
 1307              	.LVL149:
 205:Generated_Source\PSoC4/cy_em_eeprom.c ****                               (CY_EM_EEPROM_FLASH_SIZEOF_ROW * context->numberOfRows)) +
 1308              		.loc 1 205 88 view .LVU395
 1309 0052 7043     		muls	r0, r6
 1310 0054 C001     		lsls	r0, r0, #7
 204:Generated_Source\PSoC4/cy_em_eeprom.c ****                               (CY_EM_EEPROM_FLASH_SIZEOF_ROW * context->numberOfRows)) *
 1311              		.loc 1 204 27 view .LVU396
 1312 0056 2318     		adds	r3, r4, r0
 1313 0058 0393     		str	r3, [sp, #12]
 1314              	.LVL150:
 210:Generated_Source\PSoC4/cy_em_eeprom.c ****         {
ARM GAS  C:\Users\EDULU~1.DES\AppData\Local\Temp\cc9dcV7d.s 			page 53


 1315              		.loc 1 210 9 is_stmt 1 view .LVU397
 210:Generated_Source\PSoC4/cy_em_eeprom.c ****         {
 1316              		.loc 1 210 15 is_stmt 0 view .LVU398
 1317 005a 0024     		movs	r4, #0
 1318 005c 4A46     		mov	r2, r9
 210:Generated_Source\PSoC4/cy_em_eeprom.c ****         {
 1319              		.loc 1 210 9 view .LVU399
 1320 005e 00E0     		b	.L71
 1321              	.LVL151:
 1322              	.L72:
 210:Generated_Source\PSoC4/cy_em_eeprom.c ****         {
 1323              		.loc 1 210 49 view .LVU400
 1324 0060 0134     		adds	r4, r4, #1
 1325              	.LVL152:
 1326              	.L71:
 210:Generated_Source\PSoC4/cy_em_eeprom.c ****         {
 1327              		.loc 1 210 9 discriminator 1 view .LVU401
 1328 0062 A642     		cmp	r6, r4
 1329 0064 09D9     		bls	.L104
 212:Generated_Source\PSoC4/cy_em_eeprom.c ****             {
 1330              		.loc 1 212 13 is_stmt 1 view .LVU402
 212:Generated_Source\PSoC4/cy_em_eeprom.c ****             {
 1331              		.loc 1 212 22 is_stmt 0 view .LVU403
 1332 0066 A301     		lsls	r3, r4, #6
 1333 0068 9342     		cmp	r3, r2
 1334 006a F9D8     		bhi	.L72
 212:Generated_Source\PSoC4/cy_em_eeprom.c ****             {
 1335              		.loc 1 212 22 discriminator 1 view .LVU404
 1336 006c 631C     		adds	r3, r4, #1
 1337 006e 9B01     		lsls	r3, r3, #6
 1338 0070 013B     		subs	r3, r3, #1
 1339 0072 9342     		cmp	r3, r2
 1340 0074 F4D3     		bcc	.L72
 1341 0076 9146     		mov	r9, r2
 1342              	.LVL153:
 212:Generated_Source\PSoC4/cy_em_eeprom.c ****             {
 1343              		.loc 1 212 22 discriminator 1 view .LVU405
 1344 0078 01E0     		b	.L73
 1345              	.L104:
 212:Generated_Source\PSoC4/cy_em_eeprom.c ****             {
 1346              		.loc 1 212 22 discriminator 1 view .LVU406
 1347 007a 9146     		mov	r9, r2
 1348              	.LBE2:
 181:Generated_Source\PSoC4/cy_em_eeprom.c ****     uint32 dataStartEepromRowNum = 0u;
 1349              		.loc 1 181 12 view .LVU407
 1350 007c 0024     		movs	r4, #0
 1351              	.LVL154:
 1352              	.L73:
 1353              	.LBB9:
 221:Generated_Source\PSoC4/cy_em_eeprom.c **** 
 1354              		.loc 1 221 9 is_stmt 1 view .LVU408
 221:Generated_Source\PSoC4/cy_em_eeprom.c **** 
 1355              		.loc 1 221 51 is_stmt 0 view .LVU409
 1356 007e 5346     		mov	r3, r10
 1357 0080 039A     		ldr	r2, [sp, #12]
 1358              	.LVL155:
 221:Generated_Source\PSoC4/cy_em_eeprom.c **** 
ARM GAS  C:\Users\EDULU~1.DES\AppData\Local\Temp\cc9dcV7d.s 			page 54


 1359              		.loc 1 221 51 view .LVU410
 1360 0082 9B1A     		subs	r3, r3, r2
 221:Generated_Source\PSoC4/cy_em_eeprom.c **** 
 1361              		.loc 1 221 25 view .LVU411
 1362 0084 DA09     		lsrs	r2, r3, #7
 1363 0086 0592     		str	r2, [sp, #20]
 1364              	.LVL156:
 224:Generated_Source\PSoC4/cy_em_eeprom.c ****         {
 1365              		.loc 1 224 9 is_stmt 1 view .LVU412
 224:Generated_Source\PSoC4/cy_em_eeprom.c ****         {
 1366              		.loc 1 224 11 is_stmt 0 view .LVU413
 1367 0088 3B69     		ldr	r3, [r7, #16]
 1368 008a 012B     		cmp	r3, #1
 1369 008c 09D9     		bls	.L97
 1370              	.LBB3:
 226:Generated_Source\PSoC4/cy_em_eeprom.c **** 
 1371              		.loc 1 226 13 is_stmt 1 view .LVU414
 226:Generated_Source\PSoC4/cy_em_eeprom.c **** 
 1372              		.loc 1 226 64 is_stmt 0 view .LVU415
 1373 008e 5B46     		mov	r3, fp
 1374 0090 E318     		adds	r3, r4, r3
 226:Generated_Source\PSoC4/cy_em_eeprom.c **** 
 1375              		.loc 1 226 20 view .LVU416
 1376 0092 013B     		subs	r3, r3, #1
 1377              	.LVL157:
 229:Generated_Source\PSoC4/cy_em_eeprom.c ****                               ((dataEndEepromRowNum > actEepromRowNum) ? 1u : 0u);
 1378              		.loc 1 229 13 is_stmt 1 view .LVU417
 229:Generated_Source\PSoC4/cy_em_eeprom.c ****                               ((dataEndEepromRowNum > actEepromRowNum) ? 1u : 0u);
 1379              		.loc 1 229 77 is_stmt 0 view .LVU418
 1380 0094 9442     		cmp	r4, r2
 1381 0096 10D8     		bhi	.L98
 229:Generated_Source\PSoC4/cy_em_eeprom.c ****                               ((dataEndEepromRowNum > actEepromRowNum) ? 1u : 0u);
 1382              		.loc 1 229 77 discriminator 1 view .LVU419
 1383 0098 9A42     		cmp	r2, r3
 1384 009a 11D2     		bcs	.L99
 229:Generated_Source\PSoC4/cy_em_eeprom.c ****                               ((dataEndEepromRowNum > actEepromRowNum) ? 1u : 0u);
 1385              		.loc 1 229 77 view .LVU420
 1386 009c 0123     		movs	r3, #1
 1387              	.LVL158:
 229:Generated_Source\PSoC4/cy_em_eeprom.c ****                               ((dataEndEepromRowNum > actEepromRowNum) ? 1u : 0u);
 1388              		.loc 1 229 77 view .LVU421
 1389 009e 0493     		str	r3, [sp, #16]
 1390 00a0 01E0     		b	.L75
 1391              	.LVL159:
 1392              	.L97:
 229:Generated_Source\PSoC4/cy_em_eeprom.c ****                               ((dataEndEepromRowNum > actEepromRowNum) ? 1u : 0u);
 1393              		.loc 1 229 77 view .LVU422
 1394              	.LBE3:
 192:Generated_Source\PSoC4/cy_em_eeprom.c **** 
 1395              		.loc 1 192 16 view .LVU423
 1396 00a2 0023     		movs	r3, #0
 1397 00a4 0493     		str	r3, [sp, #16]
 1398              	.L75:
 1399              	.LVL160:
 234:Generated_Source\PSoC4/cy_em_eeprom.c ****         {
 1400              		.loc 1 234 9 is_stmt 1 view .LVU424
 188:Generated_Source\PSoC4/cy_em_eeprom.c ****         uint32 rdSize = size;
ARM GAS  C:\Users\EDULU~1.DES\AppData\Local\Temp\cc9dcV7d.s 			page 55


 1401              		.loc 1 188 16 is_stmt 0 view .LVU425
 1402 00a6 CA46     		mov	r10, r9
 234:Generated_Source\PSoC4/cy_em_eeprom.c ****         {
 1403              		.loc 1 234 15 view .LVU426
 1404 00a8 0026     		movs	r6, #0
 1405              	.LBE9:
 174:Generated_Source\PSoC4/cy_em_eeprom.c ****     uint32 i;
 1406              		.loc 1 174 30 view .LVU427
 1407 00aa 0120     		movs	r0, #1
 1408 00ac 4B46     		mov	r3, r9
 1409 00ae 0893     		str	r3, [sp, #32]
 1410 00b0 A946     		mov	r9, r5
 1411              	.LVL161:
 174:Generated_Source\PSoC4/cy_em_eeprom.c ****     uint32 i;
 1412              		.loc 1 174 30 view .LVU428
 1413 00b2 3B00     		movs	r3, r7
 1414              	.LVL162:
 174:Generated_Source\PSoC4/cy_em_eeprom.c ****     uint32 i;
 1415              		.loc 1 174 30 view .LVU429
 1416 00b4 5746     		mov	r7, r10
 1417              	.LVL163:
 174:Generated_Source\PSoC4/cy_em_eeprom.c ****     uint32 i;
 1418              		.loc 1 174 30 view .LVU430
 1419 00b6 9A46     		mov	r10, r3
 1420              	.LVL164:
 1421              	.LBB10:
 234:Generated_Source\PSoC4/cy_em_eeprom.c ****         {
 1422              		.loc 1 234 9 view .LVU431
 1423 00b8 13E0     		b	.L76
 1424              	.LVL165:
 1425              	.L98:
 1426              	.LBB4:
 229:Generated_Source\PSoC4/cy_em_eeprom.c ****                               ((dataEndEepromRowNum > actEepromRowNum) ? 1u : 0u);
 1427              		.loc 1 229 77 view .LVU432
 1428 00ba 0123     		movs	r3, #1
 1429              	.LVL166:
 229:Generated_Source\PSoC4/cy_em_eeprom.c ****                               ((dataEndEepromRowNum > actEepromRowNum) ? 1u : 0u);
 1430              		.loc 1 229 77 view .LVU433
 1431 00bc 0493     		str	r3, [sp, #16]
 1432 00be F2E7     		b	.L75
 1433              	.LVL167:
 1434              	.L99:
 229:Generated_Source\PSoC4/cy_em_eeprom.c ****                               ((dataEndEepromRowNum > actEepromRowNum) ? 1u : 0u);
 1435              		.loc 1 229 77 view .LVU434
 1436 00c0 0023     		movs	r3, #0
 1437              	.LVL168:
 229:Generated_Source\PSoC4/cy_em_eeprom.c ****                               ((dataEndEepromRowNum > actEepromRowNum) ? 1u : 0u);
 1438              		.loc 1 229 77 view .LVU435
 1439 00c2 0493     		str	r3, [sp, #16]
 1440 00c4 EFE7     		b	.L75
 1441              	.LVL169:
 1442              	.L100:
 229:Generated_Source\PSoC4/cy_em_eeprom.c ****                               ((dataEndEepromRowNum > actEepromRowNum) ? 1u : 0u);
 1443              		.loc 1 229 77 view .LVU436
 1444              	.LBE4:
 248:Generated_Source\PSoC4/cy_em_eeprom.c ****             }
 1445              		.loc 1 248 32 view .LVU437
ARM GAS  C:\Users\EDULU~1.DES\AppData\Local\Temp\cc9dcV7d.s 			page 56


 1446 00c6 4546     		mov	r5, r8
 1447 00c8 1AE0     		b	.L77
 1448              	.LVL170:
 1449              	.L79:
 280:Generated_Source\PSoC4/cy_em_eeprom.c ****                              (void *)(startRowAddr + curRowOffset),
 1450              		.loc 1 280 17 is_stmt 1 view .LVU438
 281:Generated_Source\PSoC4/cy_em_eeprom.c ****                              numBytesToRead);
 1451              		.loc 1 281 52 is_stmt 0 view .LVU439
 1452 00ca 8118     		adds	r1, r0, r2
 280:Generated_Source\PSoC4/cy_em_eeprom.c ****                              (void *)(startRowAddr + curRowOffset),
 1453              		.loc 1 280 23 view .LVU440
 1454 00cc 2A00     		movs	r2, r5
 1455              	.LVL171:
 280:Generated_Source\PSoC4/cy_em_eeprom.c ****                              (void *)(startRowAddr + curRowOffset),
 1456              		.loc 1 280 23 view .LVU441
 1457 00ce 4846     		mov	r0, r9
 1458              	.LVL172:
 280:Generated_Source\PSoC4/cy_em_eeprom.c ****                              (void *)(startRowAddr + curRowOffset),
 1459              		.loc 1 280 23 view .LVU442
 1460 00d0 FFF7FEFF 		bl	memcpy
 1461              	.LVL173:
 285:Generated_Source\PSoC4/cy_em_eeprom.c ****             }
 1462              		.loc 1 285 17 is_stmt 1 view .LVU443
 285:Generated_Source\PSoC4/cy_em_eeprom.c ****             }
 1463              		.loc 1 285 21 is_stmt 0 view .LVU444
 1464 00d4 0020     		movs	r0, #0
 1465              	.LVL174:
 1466              	.L81:
 289:Generated_Source\PSoC4/cy_em_eeprom.c ****             rdSize -= numBytesToRead;
 1467              		.loc 1 289 13 is_stmt 1 discriminator 2 view .LVU445
 289:Generated_Source\PSoC4/cy_em_eeprom.c ****             rdSize -= numBytesToRead;
 1468              		.loc 1 289 20 is_stmt 0 discriminator 2 view .LVU446
 1469 00d6 7F19     		adds	r7, r7, r5
 1470              	.LVL175:
 290:Generated_Source\PSoC4/cy_em_eeprom.c ****             eeData += numBytesToRead;
 1471              		.loc 1 290 13 is_stmt 1 discriminator 2 view .LVU447
 290:Generated_Source\PSoC4/cy_em_eeprom.c ****             eeData += numBytesToRead;
 1472              		.loc 1 290 20 is_stmt 0 discriminator 2 view .LVU448
 1473 00d8 4346     		mov	r3, r8
 1474 00da 5B1B     		subs	r3, r3, r5
 1475 00dc 9846     		mov	r8, r3
 1476              	.LVL176:
 291:Generated_Source\PSoC4/cy_em_eeprom.c ****             curRdEepromRowNum++;
 1477              		.loc 1 291 13 is_stmt 1 discriminator 2 view .LVU449
 291:Generated_Source\PSoC4/cy_em_eeprom.c ****             curRdEepromRowNum++;
 1478              		.loc 1 291 20 is_stmt 0 discriminator 2 view .LVU450
 1479 00de A944     		add	r9, r9, r5
 1480              	.LVL177:
 292:Generated_Source\PSoC4/cy_em_eeprom.c ****         }
 1481              		.loc 1 292 13 is_stmt 1 discriminator 2 view .LVU451
 292:Generated_Source\PSoC4/cy_em_eeprom.c ****         }
 1482              		.loc 1 292 30 is_stmt 0 discriminator 2 view .LVU452
 1483 00e0 0134     		adds	r4, r4, #1
 1484              	.LVL178:
 1485              	.L76:
 234:Generated_Source\PSoC4/cy_em_eeprom.c ****         {
 1486              		.loc 1 234 9 discriminator 1 view .LVU453
ARM GAS  C:\Users\EDULU~1.DES\AppData\Local\Temp\cc9dcV7d.s 			page 57


 1487 00e2 5E45     		cmp	r6, fp
 1488 00e4 30D2     		bcs	.L105
 236:Generated_Source\PSoC4/cy_em_eeprom.c ****             curRowOffset = CY_EM_EEPROM_EEPROM_DATA_LEN + (rdAddr % CY_EM_EEPROM_EEPROM_DATA_LEN);
 1489              		.loc 1 236 13 is_stmt 1 view .LVU454
 236:Generated_Source\PSoC4/cy_em_eeprom.c ****             curRowOffset = CY_EM_EEPROM_EEPROM_DATA_LEN + (rdAddr % CY_EM_EEPROM_EEPROM_DATA_LEN);
 1490              		.loc 1 236 67 is_stmt 0 view .LVU455
 1491 00e6 E001     		lsls	r0, r4, #7
 1492              	.LVL179:
 236:Generated_Source\PSoC4/cy_em_eeprom.c ****             curRowOffset = CY_EM_EEPROM_EEPROM_DATA_LEN + (rdAddr % CY_EM_EEPROM_EEPROM_DATA_LEN);
 1493              		.loc 1 236 26 view .LVU456
 1494 00e8 039B     		ldr	r3, [sp, #12]
 1495 00ea 9C46     		mov	ip, r3
 1496 00ec 6044     		add	r0, r0, ip
 1497              	.LVL180:
 237:Generated_Source\PSoC4/cy_em_eeprom.c **** 
 1498              		.loc 1 237 13 is_stmt 1 view .LVU457
 237:Generated_Source\PSoC4/cy_em_eeprom.c **** 
 1499              		.loc 1 237 67 is_stmt 0 view .LVU458
 1500 00ee 3F25     		movs	r5, #63
 1501 00f0 3D40     		ands	r5, r7
 237:Generated_Source\PSoC4/cy_em_eeprom.c **** 
 1502              		.loc 1 237 26 view .LVU459
 1503 00f2 2A00     		movs	r2, r5
 1504 00f4 4032     		adds	r2, r2, #64
 1505              	.LVL181:
 242:Generated_Source\PSoC4/cy_em_eeprom.c ****             {
 1506              		.loc 1 242 13 is_stmt 1 view .LVU460
 242:Generated_Source\PSoC4/cy_em_eeprom.c ****             {
 1507              		.loc 1 242 19 is_stmt 0 view .LVU461
 1508 00f6 0136     		adds	r6, r6, #1
 1509              	.LVL182:
 242:Generated_Source\PSoC4/cy_em_eeprom.c ****             {
 1510              		.loc 1 242 15 view .LVU462
 1511 00f8 5E45     		cmp	r6, fp
 1512 00fa E4D2     		bcs	.L100
 244:Generated_Source\PSoC4/cy_em_eeprom.c ****             }
 1513              		.loc 1 244 17 is_stmt 1 view .LVU463
 244:Generated_Source\PSoC4/cy_em_eeprom.c ****             }
 1514              		.loc 1 244 32 is_stmt 0 view .LVU464
 1515 00fc 4023     		movs	r3, #64
 1516 00fe 5D1B     		subs	r5, r3, r5
 1517              	.LVL183:
 1518              	.L77:
 254:Generated_Source\PSoC4/cy_em_eeprom.c ****             {
 1519              		.loc 1 254 13 is_stmt 1 view .LVU465
 254:Generated_Source\PSoC4/cy_em_eeprom.c ****             {
 1520              		.loc 1 254 15 is_stmt 0 view .LVU466
 1521 0100 049B     		ldr	r3, [sp, #16]
 1522 0102 002B     		cmp	r3, #0
 1523 0104 0FD0     		beq	.L78
 254:Generated_Source\PSoC4/cy_em_eeprom.c ****             {
 1524              		.loc 1 254 39 discriminator 1 view .LVU467
 1525 0106 059B     		ldr	r3, [sp, #20]
 1526 0108 9C42     		cmp	r4, r3
 1527 010a 0CD9     		bls	.L78
 256:Generated_Source\PSoC4/cy_em_eeprom.c **** 
 1528              		.loc 1 256 17 is_stmt 1 view .LVU468
ARM GAS  C:\Users\EDULU~1.DES\AppData\Local\Temp\cc9dcV7d.s 			page 58


 256:Generated_Source\PSoC4/cy_em_eeprom.c **** 
 1529              		.loc 1 256 40 is_stmt 0 view .LVU469
 1530 010c 5346     		mov	r3, r10
 1531 010e 5B68     		ldr	r3, [r3, #4]
 256:Generated_Source\PSoC4/cy_em_eeprom.c **** 
 1532              		.loc 1 256 55 view .LVU470
 1533 0110 D901     		lsls	r1, r3, #7
 256:Generated_Source\PSoC4/cy_em_eeprom.c **** 
 1534              		.loc 1 256 30 view .LVU471
 1535 0112 401A     		subs	r0, r0, r1
 1536              	.LVL184:
 258:Generated_Source\PSoC4/cy_em_eeprom.c ****                 {
 1537              		.loc 1 258 17 is_stmt 1 view .LVU472
 258:Generated_Source\PSoC4/cy_em_eeprom.c ****                 {
 1538              		.loc 1 258 19 is_stmt 0 view .LVU473
 1539 0114 5146     		mov	r1, r10
 1540 0116 8969     		ldr	r1, [r1, #24]
 1541 0118 8142     		cmp	r1, r0
 1542 011a 04D9     		bls	.L78
 260:Generated_Source\PSoC4/cy_em_eeprom.c ****                         ((context->numberOfRows - curRdEepromRowNum) * CY_EM_EEPROM_FLASH_SIZEOF_RO
 1543              		.loc 1 260 21 is_stmt 1 view .LVU474
 261:Generated_Source\PSoC4/cy_em_eeprom.c ****                 }
 1544              		.loc 1 261 49 is_stmt 0 view .LVU475
 1545 011c 181B     		subs	r0, r3, r4
 1546              	.LVL185:
 261:Generated_Source\PSoC4/cy_em_eeprom.c ****                 }
 1547              		.loc 1 261 70 view .LVU476
 1548 011e C001     		lsls	r0, r0, #7
 260:Generated_Source\PSoC4/cy_em_eeprom.c ****                         ((context->numberOfRows - curRdEepromRowNum) * CY_EM_EEPROM_FLASH_SIZEOF_RO
 1549              		.loc 1 260 34 view .LVU477
 1550 0120 5346     		mov	r3, r10
 1551              	.LVL186:
 260:Generated_Source\PSoC4/cy_em_eeprom.c ****                         ((context->numberOfRows - curRdEepromRowNum) * CY_EM_EEPROM_FLASH_SIZEOF_RO
 1552              		.loc 1 260 34 view .LVU478
 1553 0122 1B68     		ldr	r3, [r3]
 1554              	.LVL187:
 260:Generated_Source\PSoC4/cy_em_eeprom.c ****                         ((context->numberOfRows - curRdEepromRowNum) * CY_EM_EEPROM_FLASH_SIZEOF_RO
 1555              		.loc 1 260 34 view .LVU479
 1556 0124 181A     		subs	r0, r3, r0
 1557              	.LVL188:
 1558              	.L78:
 265:Generated_Source\PSoC4/cy_em_eeprom.c ****             {
 1559              		.loc 1 265 13 is_stmt 1 view .LVU480
 265:Generated_Source\PSoC4/cy_em_eeprom.c ****             {
 1560              		.loc 1 265 29 is_stmt 0 view .LVU481
 1561 0126 5346     		mov	r3, r10
 1562 0128 1B7D     		ldrb	r3, [r3, #20]
 265:Generated_Source\PSoC4/cy_em_eeprom.c ****             {
 1563              		.loc 1 265 15 view .LVU482
 1564 012a 002B     		cmp	r3, #0
 1565 012c CDD0     		beq	.L79
 270:Generated_Source\PSoC4/cy_em_eeprom.c **** 
 1566              		.loc 1 270 17 is_stmt 1 view .LVU483
 270:Generated_Source\PSoC4/cy_em_eeprom.c **** 
 1567              		.loc 1 270 23 is_stmt 0 view .LVU484
 1568 012e 5346     		mov	r3, r10
 1569 0130 0093     		str	r3, [sp]
ARM GAS  C:\Users\EDULU~1.DES\AppData\Local\Temp\cc9dcV7d.s 			page 59


 1570 0132 2B00     		movs	r3, r5
 1571 0134 4946     		mov	r1, r9
 1572 0136 FFF7FEFF 		bl	CheckCrcAndCopy
 1573              	.LVL189:
 272:Generated_Source\PSoC4/cy_em_eeprom.c ****                 {
 1574              		.loc 1 272 17 is_stmt 1 view .LVU485
 272:Generated_Source\PSoC4/cy_em_eeprom.c ****                 {
 1575              		.loc 1 272 19 is_stmt 0 view .LVU486
 1576 013a 0028     		cmp	r0, #0
 1577 013c CBD0     		beq	.L81
 1578 013e 8346     		mov	fp, r0
 1579              	.LVL190:
 272:Generated_Source\PSoC4/cy_em_eeprom.c ****                 {
 1580              		.loc 1 272 19 view .LVU487
 1581 0140 089B     		ldr	r3, [sp, #32]
 1582 0142 9946     		mov	r9, r3
 1583              	.LVL191:
 272:Generated_Source\PSoC4/cy_em_eeprom.c ****                 {
 1584              		.loc 1 272 19 view .LVU488
 1585 0144 5746     		mov	r7, r10
 1586              	.LVL192:
 272:Generated_Source\PSoC4/cy_em_eeprom.c ****                 {
 1587              		.loc 1 272 19 view .LVU489
 1588 0146 03E0     		b	.L80
 1589              	.LVL193:
 1590              	.L105:
 272:Generated_Source\PSoC4/cy_em_eeprom.c ****                 {
 1591              		.loc 1 272 19 view .LVU490
 1592 0148 8346     		mov	fp, r0
 1593              	.LVL194:
 272:Generated_Source\PSoC4/cy_em_eeprom.c ****                 {
 1594              		.loc 1 272 19 view .LVU491
 1595 014a 089B     		ldr	r3, [sp, #32]
 1596 014c 9946     		mov	r9, r3
 1597              	.LVL195:
 272:Generated_Source\PSoC4/cy_em_eeprom.c ****                 {
 1598              		.loc 1 272 19 view .LVU492
 1599 014e 5746     		mov	r7, r10
 1600              	.LVL196:
 1601              	.L80:
 303:Generated_Source\PSoC4/cy_em_eeprom.c ****         {
 1602              		.loc 1 303 9 is_stmt 1 view .LVU493
 303:Generated_Source\PSoC4/cy_em_eeprom.c ****         {
 1603              		.loc 1 303 11 is_stmt 0 view .LVU494
 1604 0150 5B46     		mov	r3, fp
 1605 0152 002B     		cmp	r3, #0
 1606 0154 55D1     		bne	.L70
 303:Generated_Source\PSoC4/cy_em_eeprom.c ****         {
 1607              		.loc 1 303 42 discriminator 1 view .LVU495
 1608 0156 099B     		ldr	r3, [sp, #36]
 1609 0158 002B     		cmp	r3, #0
 1610 015a 52D0     		beq	.L70
 305:Generated_Source\PSoC4/cy_em_eeprom.c ****             numRowReads--;
 1611              		.loc 1 305 13 is_stmt 1 view .LVU496
 305:Generated_Source\PSoC4/cy_em_eeprom.c ****             numRowReads--;
 1612              		.loc 1 305 35 is_stmt 0 view .LVU497
 1613 015c 7C68     		ldr	r4, [r7, #4]
ARM GAS  C:\Users\EDULU~1.DES\AppData\Local\Temp\cc9dcV7d.s 			page 60


 1614              	.LVL197:
 305:Generated_Source\PSoC4/cy_em_eeprom.c ****             numRowReads--;
 1615              		.loc 1 305 25 view .LVU498
 1616 015e 9C42     		cmp	r4, r3
 1617 0160 00D9     		bls	.L83
 1618 0162 1C00     		movs	r4, r3
 1619              	.L83:
 1620              	.LVL198:
 306:Generated_Source\PSoC4/cy_em_eeprom.c **** 
 1621              		.loc 1 306 13 is_stmt 1 view .LVU499
 306:Generated_Source\PSoC4/cy_em_eeprom.c **** 
 1622              		.loc 1 306 24 is_stmt 0 view .LVU500
 1623 0164 013C     		subs	r4, r4, #1
 1624              	.LVL199:
 308:Generated_Source\PSoC4/cy_em_eeprom.c ****             {
 1625              		.loc 1 308 13 is_stmt 1 view .LVU501
 308:Generated_Source\PSoC4/cy_em_eeprom.c ****             {
 1626              		.loc 1 308 19 is_stmt 0 view .LVU502
 1627 0166 099D     		ldr	r5, [sp, #36]
 1628 0168 2C1B     		subs	r4, r5, r4
 1629              	.LVL200:
 308:Generated_Source\PSoC4/cy_em_eeprom.c ****             {
 1630              		.loc 1 308 19 view .LVU503
 1631 016a 079B     		ldr	r3, [sp, #28]
 1632 016c 9846     		mov	r8, r3
 1633              	.LVL201:
 308:Generated_Source\PSoC4/cy_em_eeprom.c ****             {
 1634              		.loc 1 308 19 view .LVU504
 1635 016e 4E46     		mov	r6, r9
 308:Generated_Source\PSoC4/cy_em_eeprom.c ****             {
 1636              		.loc 1 308 13 view .LVU505
 1637 0170 0FE0     		b	.L84
 1638              	.LVL202:
 1639              	.L86:
 1640              	.LBB5:
 319:Generated_Source\PSoC4/cy_em_eeprom.c ****                     {
 1641              		.loc 1 319 27 discriminator 2 view .LVU506
 1642 0172 8E42     		cmp	r6, r1
 1643 0174 9241     		sbcs	r2, r2, r2
 1644 0176 5242     		rsbs	r2, r2, #0
 1645 0178 1BE0     		b	.L87
 1646              	.L101:
 1647              	.LBB6:
 321:Generated_Source\PSoC4/cy_em_eeprom.c ****                         uint32 dstOffset = (startAddr > addr) ? (startAddr - addr): (0u);
 1648              		.loc 1 321 70 view .LVU507
 1649 017a 0022     		movs	r2, #0
 1650 017c 9246     		mov	r10, r2
 1651 017e 1EE0     		b	.L88
 1652              	.LVL203:
 1653              	.L102:
 322:Generated_Source\PSoC4/cy_em_eeprom.c ****                         rdAddr = (startAddr > addr) ? (startAddr) : (addr);
 1654              		.loc 1 322 83 view .LVU508
 1655 0180 0022     		movs	r2, #0
 1656 0182 9446     		mov	ip, r2
 1657 0184 1FE0     		b	.L89
 1658              	.LVL204:
 1659              	.L92:
ARM GAS  C:\Users\EDULU~1.DES\AppData\Local\Temp\cc9dcV7d.s 			page 61


 349:Generated_Source\PSoC4/cy_em_eeprom.c ****                         }
 1660              		.loc 1 349 29 is_stmt 1 view .LVU509
 349:Generated_Source\PSoC4/cy_em_eeprom.c ****                         }
 1661              		.loc 1 349 82 is_stmt 0 view .LVU510
 1662 0186 0100     		movs	r1, r0
 1663              	.LVL205:
 349:Generated_Source\PSoC4/cy_em_eeprom.c ****                         }
 1664              		.loc 1 349 82 view .LVU511
 1665 0188 5144     		add	r1, r1, r10
 349:Generated_Source\PSoC4/cy_em_eeprom.c ****                         }
 1666              		.loc 1 349 35 view .LVU512
 1667 018a 6046     		mov	r0, ip
 1668              	.LVL206:
 349:Generated_Source\PSoC4/cy_em_eeprom.c ****                         }
 1669              		.loc 1 349 35 view .LVU513
 1670 018c FFF7FEFF 		bl	memcpy
 1671              	.LVL207:
 1672              	.L85:
 349:Generated_Source\PSoC4/cy_em_eeprom.c ****                         }
 1673              		.loc 1 349 35 view .LVU514
 1674              	.LBE6:
 1675              	.LBE5:
 308:Generated_Source\PSoC4/cy_em_eeprom.c ****             {
 1676              		.loc 1 308 59 discriminator 2 view .LVU515
 1677 0190 0134     		adds	r4, r4, #1
 1678              	.LVL208:
 1679              	.L84:
 308:Generated_Source\PSoC4/cy_em_eeprom.c ****             {
 1680              		.loc 1 308 13 discriminator 1 view .LVU516
 1681 0192 AC42     		cmp	r4, r5
 1682 0194 35D8     		bhi	.L70
 310:Generated_Source\PSoC4/cy_em_eeprom.c **** 
 1683              		.loc 1 310 17 is_stmt 1 view .LVU517
 310:Generated_Source\PSoC4/cy_em_eeprom.c **** 
 1684              		.loc 1 310 32 is_stmt 0 view .LVU518
 1685 0196 3900     		movs	r1, r7
 1686 0198 2000     		movs	r0, r4
 1687 019a FFF7FEFF 		bl	GetRowAddrBySeqNum
 1688              	.LVL209:
 312:Generated_Source\PSoC4/cy_em_eeprom.c ****                 {
 1689              		.loc 1 312 17 is_stmt 1 view .LVU519
 312:Generated_Source\PSoC4/cy_em_eeprom.c ****                 {
 1690              		.loc 1 312 20 is_stmt 0 view .LVU520
 1691 019e 0028     		cmp	r0, #0
 1692 01a0 F6D0     		beq	.L85
 1693              	.LBB8:
 315:Generated_Source\PSoC4/cy_em_eeprom.c ****                     uint32 endAddr    = startAddr + (*(uint32 *)(startRowAddr + CY_EM_EEPROM_HEADER
 1694              		.loc 1 315 21 is_stmt 1 view .LVU521
 315:Generated_Source\PSoC4/cy_em_eeprom.c ****                     uint32 endAddr    = startAddr + (*(uint32 *)(startRowAddr + CY_EM_EEPROM_HEADER
 1695              		.loc 1 315 28 is_stmt 0 view .LVU522
 1696 01a2 4368     		ldr	r3, [r0, #4]
 1697              	.LVL210:
 316:Generated_Source\PSoC4/cy_em_eeprom.c **** 
 1698              		.loc 1 316 21 is_stmt 1 view .LVU523
 316:Generated_Source\PSoC4/cy_em_eeprom.c **** 
 1699              		.loc 1 316 28 is_stmt 0 view .LVU524
 1700 01a4 8268     		ldr	r2, [r0, #8]
ARM GAS  C:\Users\EDULU~1.DES\AppData\Local\Temp\cc9dcV7d.s 			page 62


 1701 01a6 D118     		adds	r1, r2, r3
 1702              	.LVL211:
 319:Generated_Source\PSoC4/cy_em_eeprom.c ****                     {
 1703              		.loc 1 319 21 is_stmt 1 view .LVU525
 319:Generated_Source\PSoC4/cy_em_eeprom.c ****                     {
 1704              		.loc 1 319 27 is_stmt 0 view .LVU526
 1705 01a8 9E42     		cmp	r6, r3
 1706 01aa E2D2     		bcs	.L86
 319:Generated_Source\PSoC4/cy_em_eeprom.c ****                     {
 1707              		.loc 1 319 27 discriminator 1 view .LVU527
 1708 01ac 4345     		cmp	r3, r8
 1709 01ae 9241     		sbcs	r2, r2, r2
 1710 01b0 5242     		rsbs	r2, r2, #0
 1711              	.L87:
 319:Generated_Source\PSoC4/cy_em_eeprom.c ****                     {
 1712              		.loc 1 319 23 discriminator 4 view .LVU528
 1713 01b2 002A     		cmp	r2, #0
 1714 01b4 ECD0     		beq	.L85
 1715              	.LBB7:
 321:Generated_Source\PSoC4/cy_em_eeprom.c ****                         uint32 dstOffset = (startAddr > addr) ? (startAddr - addr): (0u);
 1716              		.loc 1 321 25 is_stmt 1 view .LVU529
 321:Generated_Source\PSoC4/cy_em_eeprom.c ****                         uint32 dstOffset = (startAddr > addr) ? (startAddr - addr): (0u);
 1717              		.loc 1 321 70 is_stmt 0 view .LVU530
 1718 01b6 9E42     		cmp	r6, r3
 1719 01b8 DFD3     		bcc	.L101
 321:Generated_Source\PSoC4/cy_em_eeprom.c ****                         uint32 dstOffset = (startAddr > addr) ? (startAddr - addr): (0u);
 1720              		.loc 1 321 70 discriminator 1 view .LVU531
 1721 01ba F21A     		subs	r2, r6, r3
 1722 01bc 9246     		mov	r10, r2
 1723              	.L88:
 1724              	.LVL212:
 322:Generated_Source\PSoC4/cy_em_eeprom.c ****                         rdAddr = (startAddr > addr) ? (startAddr) : (addr);
 1725              		.loc 1 322 25 is_stmt 1 discriminator 4 view .LVU532
 322:Generated_Source\PSoC4/cy_em_eeprom.c ****                         rdAddr = (startAddr > addr) ? (startAddr) : (addr);
 1726              		.loc 1 322 83 is_stmt 0 discriminator 4 view .LVU533
 1727 01be 9E42     		cmp	r6, r3
 1728 01c0 DED2     		bcs	.L102
 322:Generated_Source\PSoC4/cy_em_eeprom.c ****                         rdAddr = (startAddr > addr) ? (startAddr) : (addr);
 1729              		.loc 1 322 83 discriminator 1 view .LVU534
 1730 01c2 9A1B     		subs	r2, r3, r6
 1731 01c4 9446     		mov	ip, r2
 1732              	.L89:
 1733              	.LVL213:
 323:Generated_Source\PSoC4/cy_em_eeprom.c **** 
 1734              		.loc 1 323 25 is_stmt 1 discriminator 4 view .LVU535
 323:Generated_Source\PSoC4/cy_em_eeprom.c **** 
 1735              		.loc 1 323 32 is_stmt 0 discriminator 4 view .LVU536
 1736 01c6 3200     		movs	r2, r6
 1737 01c8 9E42     		cmp	r6, r3
 1738 01ca 00D2     		bcs	.L90
 1739 01cc 1A00     		movs	r2, r3
 1740              	.L90:
 1741              	.LVL214:
 325:Generated_Source\PSoC4/cy_em_eeprom.c **** 
 1742              		.loc 1 325 25 is_stmt 1 discriminator 4 view .LVU537
 325:Generated_Source\PSoC4/cy_em_eeprom.c **** 
 1743              		.loc 1 325 35 is_stmt 0 discriminator 4 view .LVU538
ARM GAS  C:\Users\EDULU~1.DES\AppData\Local\Temp\cc9dcV7d.s 			page 63


 1744 01ce 0C23     		movs	r3, #12
 1745              	.LVL215:
 325:Generated_Source\PSoC4/cy_em_eeprom.c **** 
 1746              		.loc 1 325 35 discriminator 4 view .LVU539
 1747 01d0 9946     		mov	r9, r3
 1748 01d2 CA44     		add	r10, r10, r9
 1749              	.LVL216:
 328:Generated_Source\PSoC4/cy_em_eeprom.c **** 
 1750              		.loc 1 328 25 is_stmt 1 discriminator 4 view .LVU540
 328:Generated_Source\PSoC4/cy_em_eeprom.c **** 
 1751              		.loc 1 328 79 is_stmt 0 discriminator 4 view .LVU541
 1752 01d4 4346     		mov	r3, r8
 1753 01d6 8845     		cmp	r8, r1
 1754 01d8 00D9     		bls	.L91
 1755 01da 0B00     		movs	r3, r1
 1756              	.L91:
 328:Generated_Source\PSoC4/cy_em_eeprom.c **** 
 1757              		.loc 1 328 40 discriminator 4 view .LVU542
 1758 01dc 9A1A     		subs	r2, r3, r2
 1759              	.LVL217:
 331:Generated_Source\PSoC4/cy_em_eeprom.c **** 
 1760              		.loc 1 331 25 is_stmt 1 discriminator 4 view .LVU543
 331:Generated_Source\PSoC4/cy_em_eeprom.c **** 
 1761              		.loc 1 331 32 is_stmt 0 discriminator 4 view .LVU544
 1762 01de 069B     		ldr	r3, [sp, #24]
 1763 01e0 9946     		mov	r9, r3
 1764 01e2 CC44     		add	ip, ip, r9
 1765              	.LVL218:
 338:Generated_Source\PSoC4/cy_em_eeprom.c ****                         {
 1766              		.loc 1 338 25 is_stmt 1 discriminator 4 view .LVU545
 338:Generated_Source\PSoC4/cy_em_eeprom.c ****                         {
 1767              		.loc 1 338 41 is_stmt 0 discriminator 4 view .LVU546
 1768 01e4 3B7D     		ldrb	r3, [r7, #20]
 338:Generated_Source\PSoC4/cy_em_eeprom.c ****                         {
 1769              		.loc 1 338 27 discriminator 4 view .LVU547
 1770 01e6 002B     		cmp	r3, #0
 1771 01e8 CDD0     		beq	.L92
 340:Generated_Source\PSoC4/cy_em_eeprom.c **** 
 1772              		.loc 1 340 29 is_stmt 1 view .LVU548
 340:Generated_Source\PSoC4/cy_em_eeprom.c **** 
 1773              		.loc 1 340 35 is_stmt 0 view .LVU549
 1774 01ea 0097     		str	r7, [sp]
 1775              	.LVL219:
 340:Generated_Source\PSoC4/cy_em_eeprom.c **** 
 1776              		.loc 1 340 35 view .LVU550
 1777 01ec 1300     		movs	r3, r2
 1778 01ee 5246     		mov	r2, r10
 1779              	.LVL220:
 340:Generated_Source\PSoC4/cy_em_eeprom.c **** 
 1780              		.loc 1 340 35 view .LVU551
 1781 01f0 6146     		mov	r1, ip
 1782              	.LVL221:
 340:Generated_Source\PSoC4/cy_em_eeprom.c **** 
 1783              		.loc 1 340 35 view .LVU552
 1784 01f2 FFF7FEFF 		bl	CheckCrcAndCopy
 1785              	.LVL222:
 340:Generated_Source\PSoC4/cy_em_eeprom.c **** 
ARM GAS  C:\Users\EDULU~1.DES\AppData\Local\Temp\cc9dcV7d.s 			page 64


 1786              		.loc 1 340 35 view .LVU553
 1787 01f6 8346     		mov	fp, r0
 1788              	.LVL223:
 342:Generated_Source\PSoC4/cy_em_eeprom.c ****                             {
 1789              		.loc 1 342 29 is_stmt 1 view .LVU554
 342:Generated_Source\PSoC4/cy_em_eeprom.c ****                             {
 1790              		.loc 1 342 31 is_stmt 0 view .LVU555
 1791 01f8 0028     		cmp	r0, #0
 1792 01fa C9D0     		beq	.L85
 1793 01fc 01E0     		b	.L70
 1794              	.LVL224:
 1795              	.L94:
 342:Generated_Source\PSoC4/cy_em_eeprom.c ****                             {
 1796              		.loc 1 342 31 view .LVU556
 1797              	.LBE7:
 1798              	.LBE8:
 1799              	.LBE10:
 174:Generated_Source\PSoC4/cy_em_eeprom.c ****     uint32 i;
 1800              		.loc 1 174 30 view .LVU557
 1801 01fe 0123     		movs	r3, #1
 1802 0200 9B46     		mov	fp, r3
 1803              	.LVL225:
 1804              	.L70:
 357:Generated_Source\PSoC4/cy_em_eeprom.c **** }
 1805              		.loc 1 357 5 is_stmt 1 view .LVU558
 358:Generated_Source\PSoC4/cy_em_eeprom.c **** 
 1806              		.loc 1 358 1 is_stmt 0 view .LVU559
 1807 0202 5846     		mov	r0, fp
 1808 0204 0BB0     		add	sp, sp, #44
 1809              		@ sp needed
 1810              	.LVL226:
 1811              	.LVL227:
 358:Generated_Source\PSoC4/cy_em_eeprom.c **** 
 1812              		.loc 1 358 1 view .LVU560
 1813 0206 3CBC     		pop	{r2, r3, r4, r5}
 1814 0208 9046     		mov	r8, r2
 1815 020a 9946     		mov	r9, r3
 1816 020c A246     		mov	r10, r4
 1817 020e AB46     		mov	fp, r5
 1818 0210 F0BD     		pop	{r4, r5, r6, r7, pc}
 1819              	.LVL228:
 1820              	.L95:
 174:Generated_Source\PSoC4/cy_em_eeprom.c ****     uint32 i;
 1821              		.loc 1 174 30 view .LVU561
 1822 0212 0123     		movs	r3, #1
 1823 0214 9B46     		mov	fp, r3
 1824 0216 F4E7     		b	.L70
 1825              	.L96:
 1826 0218 0123     		movs	r3, #1
 1827 021a 9B46     		mov	fp, r3
 1828 021c F1E7     		b	.L70
 1829              		.cfi_endproc
 1830              	.LFE1:
 1831              		.size	Cy_Em_EEPROM_Read, .-Cy_Em_EEPROM_Read
 1832              		.global	__aeabi_uidivmod
 1833              		.section	.text.Cy_Em_EEPROM_Write,"ax",%progbits
 1834              		.align	1
ARM GAS  C:\Users\EDULU~1.DES\AppData\Local\Temp\cc9dcV7d.s 			page 65


 1835              		.global	Cy_Em_EEPROM_Write
 1836              		.syntax unified
 1837              		.code	16
 1838              		.thumb_func
 1839              		.fpu softvfp
 1840              		.type	Cy_Em_EEPROM_Write, %function
 1841              	Cy_Em_EEPROM_Write:
 1842              	.LVL229:
 1843              	.LFB2:
 415:Generated_Source\PSoC4/cy_em_eeprom.c ****     cy_en_em_eeprom_status_t ret = CY_EM_EEPROM_BAD_PARAM;
 1844              		.loc 1 415 1 is_stmt 1 view -0
 1845              		.cfi_startproc
 1846              		@ args = 0, pretend = 0, frame = 168
 1847              		@ frame_needed = 0, uses_anonymous_args = 0
 415:Generated_Source\PSoC4/cy_em_eeprom.c ****     cy_en_em_eeprom_status_t ret = CY_EM_EEPROM_BAD_PARAM;
 1848              		.loc 1 415 1 is_stmt 0 view .LVU563
 1849 0000 F0B5     		push	{r4, r5, r6, r7, lr}
 1850              		.cfi_def_cfa_offset 20
 1851              		.cfi_offset 4, -20
 1852              		.cfi_offset 5, -16
 1853              		.cfi_offset 6, -12
 1854              		.cfi_offset 7, -8
 1855              		.cfi_offset 14, -4
 1856 0002 DE46     		mov	lr, fp
 1857 0004 5746     		mov	r7, r10
 1858 0006 4E46     		mov	r6, r9
 1859 0008 4546     		mov	r5, r8
 1860 000a E0B5     		push	{r5, r6, r7, lr}
 1861              		.cfi_def_cfa_offset 36
 1862              		.cfi_offset 8, -36
 1863              		.cfi_offset 9, -32
 1864              		.cfi_offset 10, -28
 1865              		.cfi_offset 11, -24
 1866 000c ADB0     		sub	sp, sp, #180
 1867              		.cfi_def_cfa_offset 216
 1868 000e 8246     		mov	r10, r0
 1869 0010 9346     		mov	fp, r2
 1870 0012 1D00     		movs	r5, r3
 416:Generated_Source\PSoC4/cy_em_eeprom.c ****     uint32 i;
 1871              		.loc 1 416 5 is_stmt 1 view .LVU564
 1872              	.LVL230:
 417:Generated_Source\PSoC4/cy_em_eeprom.c ****     uint32 wrCnt;
 1873              		.loc 1 417 5 view .LVU565
 418:Generated_Source\PSoC4/cy_em_eeprom.c ****     uint32 actEmEepromRowNum;
 1874              		.loc 1 418 5 view .LVU566
 419:Generated_Source\PSoC4/cy_em_eeprom.c ****     uint32 writeRamBuffer[CY_EM_EEPROM_FLASH_SIZEOF_ROW / CY_EM_EEPROM_U32_DIV];
 1875              		.loc 1 419 5 view .LVU567
 420:Generated_Source\PSoC4/cy_em_eeprom.c ****     uint32 startAddr = 0u;
 1876              		.loc 1 420 5 view .LVU568
 421:Generated_Source\PSoC4/cy_em_eeprom.c ****     uint32 endAddr = 0u;
 1877              		.loc 1 421 5 view .LVU569
 421:Generated_Source\PSoC4/cy_em_eeprom.c ****     uint32 endAddr = 0u;
 1878              		.loc 1 421 12 is_stmt 0 view .LVU570
 1879 0014 0023     		movs	r3, #0
 1880              	.LVL231:
 421:Generated_Source\PSoC4/cy_em_eeprom.c ****     uint32 endAddr = 0u;
 1881              		.loc 1 421 12 view .LVU571
ARM GAS  C:\Users\EDULU~1.DES\AppData\Local\Temp\cc9dcV7d.s 			page 66


 1882 0016 0B93     		str	r3, [sp, #44]
 422:Generated_Source\PSoC4/cy_em_eeprom.c ****     uint32 tmpRowAddr;
 1883              		.loc 1 422 5 is_stmt 1 view .LVU572
 422:Generated_Source\PSoC4/cy_em_eeprom.c ****     uint32 tmpRowAddr;
 1884              		.loc 1 422 12 is_stmt 0 view .LVU573
 1885 0018 0A93     		str	r3, [sp, #40]
 423:Generated_Source\PSoC4/cy_em_eeprom.c ****     uint32 emEepromRowAddr = context->lastWrRowAddr;
 1886              		.loc 1 423 5 is_stmt 1 view .LVU574
 424:Generated_Source\PSoC4/cy_em_eeprom.c ****     uint32 emEepromRowRdAddr;
 1887              		.loc 1 424 5 view .LVU575
 424:Generated_Source\PSoC4/cy_em_eeprom.c ****     uint32 emEepromRowRdAddr;
 1888              		.loc 1 424 12 is_stmt 0 view .LVU576
 1889 001a AB68     		ldr	r3, [r5, #8]
 1890 001c 0993     		str	r3, [sp, #36]
 425:Generated_Source\PSoC4/cy_em_eeprom.c ****     void * tmpData;
 1891              		.loc 1 425 5 is_stmt 1 view .LVU577
 426:Generated_Source\PSoC4/cy_em_eeprom.c ****     uint32 eeData = (uint32) eepromData; /* To avoid the pointer arithmetic with void */
 1892              		.loc 1 426 5 view .LVU578
 427:Generated_Source\PSoC4/cy_em_eeprom.c **** 
 1893              		.loc 1 427 5 view .LVU579
 427:Generated_Source\PSoC4/cy_em_eeprom.c **** 
 1894              		.loc 1 427 12 is_stmt 0 view .LVU580
 1895 001e 0391     		str	r1, [sp, #12]
 1896              	.LVL232:
 430:Generated_Source\PSoC4/cy_em_eeprom.c ****     {
 1897              		.loc 1 430 5 is_stmt 1 view .LVU581
 430:Generated_Source\PSoC4/cy_em_eeprom.c ****     {
 1898              		.loc 1 430 7 is_stmt 0 view .LVU582
 1899 0020 131E     		subs	r3, r2, #0
 1900 0022 00D1     		bne	.LCB1904
 1901 0024 AAE0     		b	.L124	@long jump
 1902              	.LCB1904:
 430:Generated_Source\PSoC4/cy_em_eeprom.c ****     {
 1903              		.loc 1 430 31 discriminator 1 view .LVU583
 1904 0026 5344     		add	r3, r3, r10
 430:Generated_Source\PSoC4/cy_em_eeprom.c ****     {
 1905              		.loc 1 430 21 discriminator 1 view .LVU584
 1906 0028 EA68     		ldr	r2, [r5, #12]
 1907              	.LVL233:
 430:Generated_Source\PSoC4/cy_em_eeprom.c ****     {
 1908              		.loc 1 430 21 discriminator 1 view .LVU585
 1909 002a 9342     		cmp	r3, r2
 1910 002c 00D9     		bls	.LCB1910
 1911 002e ADE0     		b	.L125	@long jump
 1912              	.LCB1910:
 430:Generated_Source\PSoC4/cy_em_eeprom.c ****     {
 1913              		.loc 1 430 65 discriminator 2 view .LVU586
 1914 0030 0029     		cmp	r1, #0
 1915 0032 00D1     		bne	.LCB1912
 1916 0034 ACE0     		b	.L126	@long jump
 1917              	.LCB1912:
 1918              	.LBB11:
 432:Generated_Source\PSoC4/cy_em_eeprom.c ****         uint32 eeHeaderDataOffset = 0u;
 1919              		.loc 1 432 9 is_stmt 1 view .LVU587
 432:Generated_Source\PSoC4/cy_em_eeprom.c ****         uint32 eeHeaderDataOffset = 0u;
 1920              		.loc 1 432 35 is_stmt 0 view .LVU588
 1921 0036 5B46     		mov	r3, fp
ARM GAS  C:\Users\EDULU~1.DES\AppData\Local\Temp\cc9dcV7d.s 			page 67


 1922 0038 581E     		subs	r0, r3, #1
 1923              	.LVL234:
 432:Generated_Source\PSoC4/cy_em_eeprom.c ****         uint32 eeHeaderDataOffset = 0u;
 1924              		.loc 1 432 41 view .LVU589
 1925 003a 3021     		movs	r1, #48
 1926              	.LVL235:
 432:Generated_Source\PSoC4/cy_em_eeprom.c ****         uint32 eeHeaderDataOffset = 0u;
 1927              		.loc 1 432 41 view .LVU590
 1928 003c FFF7FEFF 		bl	__aeabi_uidiv
 1929              	.LVL236:
 1930 0040 0300     		movs	r3, r0
 1931 0042 0590     		str	r0, [sp, #20]
 432:Generated_Source\PSoC4/cy_em_eeprom.c ****         uint32 eeHeaderDataOffset = 0u;
 1932              		.loc 1 432 16 view .LVU591
 1933 0044 0133     		adds	r3, r3, #1
 1934 0046 0493     		str	r3, [sp, #16]
 1935              	.LVL237:
 433:Generated_Source\PSoC4/cy_em_eeprom.c **** 
 1936              		.loc 1 433 9 is_stmt 1 view .LVU592
 433:Generated_Source\PSoC4/cy_em_eeprom.c **** 
 1937              		.loc 1 433 16 is_stmt 0 view .LVU593
 1938 0048 0023     		movs	r3, #0
 1939              	.LVL238:
 433:Generated_Source\PSoC4/cy_em_eeprom.c **** 
 1940              		.loc 1 433 16 view .LVU594
 1941 004a 0793     		str	r3, [sp, #28]
 435:Generated_Source\PSoC4/cy_em_eeprom.c ****         {
 1942              		.loc 1 435 9 is_stmt 1 view .LVU595
 1943              	.LVL239:
 435:Generated_Source\PSoC4/cy_em_eeprom.c ****         {
 1944              		.loc 1 435 19 is_stmt 0 view .LVU596
 1945 004c 9946     		mov	r9, r3
 1946              	.LBE11:
 416:Generated_Source\PSoC4/cy_em_eeprom.c ****     uint32 i;
 1947              		.loc 1 416 30 view .LVU597
 1948 004e 0120     		movs	r0, #1
 1949              	.LBB15:
 435:Generated_Source\PSoC4/cy_em_eeprom.c ****         {
 1950              		.loc 1 435 9 view .LVU598
 1951 0050 55E0     		b	.L108
 1952              	.LVL240:
 1953              	.L135:
 1954              	.LBB12:
 461:Generated_Source\PSoC4/cy_em_eeprom.c ****             }
 1955              		.loc 1 461 17 is_stmt 1 view .LVU599
 461:Generated_Source\PSoC4/cy_em_eeprom.c ****             }
 1956              		.loc 1 461 68 is_stmt 0 view .LVU600
 1957 0052 5B46     		mov	r3, fp
 1958 0054 0E93     		str	r3, [sp, #56]
 1959 0056 75E0     		b	.L110
 1960              	.LVL241:
 1961              	.L136:
 483:Generated_Source\PSoC4/cy_em_eeprom.c ****                              (void *)(emEepromRowRdAddr + CY_EM_EEPROM_EEPROM_DATA_LEN),
 1962              		.loc 1 483 17 is_stmt 1 view .LVU601
 484:Generated_Source\PSoC4/cy_em_eeprom.c ****                              CY_EM_EEPROM_EEPROM_DATA_LEN);
 1963              		.loc 1 484 57 is_stmt 0 view .LVU602
 1964 0058 4031     		adds	r1, r1, #64
ARM GAS  C:\Users\EDULU~1.DES\AppData\Local\Temp\cc9dcV7d.s 			page 68


 483:Generated_Source\PSoC4/cy_em_eeprom.c ****                              (void *)(emEepromRowRdAddr + CY_EM_EEPROM_EEPROM_DATA_LEN),
 1965              		.loc 1 483 23 view .LVU603
 1966 005a 4022     		movs	r2, #64
 1967 005c 1CA8     		add	r0, sp, #112
 1968 005e FFF7FEFF 		bl	memcpy
 1969              	.LVL242:
 1970 0062 76E0     		b	.L111
 1971              	.LVL243:
 1972              	.L133:
 502:Generated_Source\PSoC4/cy_em_eeprom.c ****                 }
 1973              		.loc 1 502 21 is_stmt 1 view .LVU604
 502:Generated_Source\PSoC4/cy_em_eeprom.c ****                 }
 1974              		.loc 1 502 32 is_stmt 0 view .LVU605
 1975 0064 0CAE     		add	r6, sp, #48
 1976              	.LVL244:
 1977              	.L114:
 512:Generated_Source\PSoC4/cy_em_eeprom.c ****                                                                            context->numberOfRows,
 1978              		.loc 1 512 17 is_stmt 1 view .LVU606
 512:Generated_Source\PSoC4/cy_em_eeprom.c ****                                                                            context->numberOfRows,
 1979              		.loc 1 512 37 is_stmt 0 view .LVU607
 1980 0066 099B     		ldr	r3, [sp, #36]
 1981 0068 AA69     		ldr	r2, [r5, #24]
 1982 006a 981A     		subs	r0, r3, r2
 1983 006c C009     		lsrs	r0, r0, #7
 512:Generated_Source\PSoC4/cy_em_eeprom.c ****                                                                            context->numberOfRows,
 1984              		.loc 1 512 35 view .LVU608
 1985 006e 6968     		ldr	r1, [r5, #4]
 1986 0070 FFF7FEFF 		bl	__aeabi_uidivmod
 1987              	.LVL245:
 515:Generated_Source\PSoC4/cy_em_eeprom.c ****                 {
 1988              		.loc 1 515 17 is_stmt 1 view .LVU609
 515:Generated_Source\PSoC4/cy_em_eeprom.c ****                 {
 1989              		.loc 1 515 19 is_stmt 0 view .LVU610
 1990 0074 002E     		cmp	r6, #0
 1991 0076 0FD1     		bne	.L129
 529:Generated_Source\PSoC4/cy_em_eeprom.c ****                 }
 1992              		.loc 1 529 21 is_stmt 1 view .LVU611
 529:Generated_Source\PSoC4/cy_em_eeprom.c ****                 }
 1993              		.loc 1 529 34 is_stmt 0 view .LVU612
 1994 0078 0137     		adds	r7, r7, #1
 1995              	.LVL246:
 1996              	.L116:
 533:Generated_Source\PSoC4/cy_em_eeprom.c ****                 {
 1997              		.loc 1 533 17 is_stmt 1 view .LVU613
 533:Generated_Source\PSoC4/cy_em_eeprom.c ****                 {
 1998              		.loc 1 533 19 is_stmt 0 view .LVU614
 1999 007a 002F     		cmp	r7, #0
 2000 007c 18D0     		beq	.L130
 2001              	.LVL247:
 2002              	.L117:
 545:Generated_Source\PSoC4/cy_em_eeprom.c ****                 {
 2003              		.loc 1 545 17 is_stmt 1 view .LVU615
 545:Generated_Source\PSoC4/cy_em_eeprom.c ****                 {
 2004              		.loc 1 545 33 is_stmt 0 view .LVU616
 2005 007e 2B7D     		ldrb	r3, [r5, #20]
 545:Generated_Source\PSoC4/cy_em_eeprom.c ****                 {
 2006              		.loc 1 545 19 view .LVU617
ARM GAS  C:\Users\EDULU~1.DES\AppData\Local\Temp\cc9dcV7d.s 			page 69


 2007 0080 002B     		cmp	r3, #0
 2008 0082 22D1     		bne	.L131
 2009              	.L118:
 494:Generated_Source\PSoC4/cy_em_eeprom.c ****             {
 2010              		.loc 1 494 33 view .LVU618
 2011 0084 0134     		adds	r4, r4, #1
 2012              	.LVL248:
 2013              	.L119:
 494:Generated_Source\PSoC4/cy_em_eeprom.c ****             {
 2014              		.loc 1 494 13 discriminator 1 view .LVU619
 2015 0086 4445     		cmp	r4, r8
 2016 0088 27D8     		bhi	.L132
 496:Generated_Source\PSoC4/cy_em_eeprom.c ****                 {
 2017              		.loc 1 496 17 is_stmt 1 view .LVU620
 496:Generated_Source\PSoC4/cy_em_eeprom.c ****                 {
 2018              		.loc 1 496 19 is_stmt 0 view .LVU621
 2019 008a EBD0     		beq	.L133
 509:Generated_Source\PSoC4/cy_em_eeprom.c ****                 }
