ARM GAS  C:\Users\EDULU~1.DES\AppData\Local\Temp\cc6B1O7j.s 			page 1


   1              		.cpu cortex-m0
   2              		.eabi_attribute 20, 1
   3              		.eabi_attribute 21, 1
   4              		.eabi_attribute 23, 3
   5              		.eabi_attribute 24, 1
   6              		.eabi_attribute 25, 1
   7              		.eabi_attribute 26, 1
   8              		.eabi_attribute 30, 1
   9              		.eabi_attribute 34, 0
  10              		.eabi_attribute 18, 4
  11              		.file	"cyfitter_cfg.c"
  12              		.text
  13              	.Ltext0:
  14              		.cfi_sections	.debug_frame
  15              		.section	.text.cfg_write_bytes32,"ax",%progbits
  16              		.align	1
  17              		.arch armv6s-m
  18              		.syntax unified
  19              		.code	16
  20              		.thumb_func
  21              		.fpu softvfp
  22              		.type	cfg_write_bytes32, %function
  23              	cfg_write_bytes32:
  24              	.LVL0:
  25              	.LFB3:
  26              		.file 1 "Generated_Source\\PSoC4\\cyfitter_cfg.c"
   1:Generated_Source\PSoC4/cyfitter_cfg.c **** 
   2:Generated_Source\PSoC4/cyfitter_cfg.c **** /*******************************************************************************
   3:Generated_Source\PSoC4/cyfitter_cfg.c **** * File Name: cyfitter_cfg.c
   4:Generated_Source\PSoC4/cyfitter_cfg.c **** * 
   5:Generated_Source\PSoC4/cyfitter_cfg.c **** * PSoC Creator  4.2
   6:Generated_Source\PSoC4/cyfitter_cfg.c **** *
   7:Generated_Source\PSoC4/cyfitter_cfg.c **** * Description:
   8:Generated_Source\PSoC4/cyfitter_cfg.c **** * This file contains device initialization code.
   9:Generated_Source\PSoC4/cyfitter_cfg.c **** * Except for the user defined sections in CyClockStartupError(), this file should not be modified.
  10:Generated_Source\PSoC4/cyfitter_cfg.c **** * This file is automatically generated by PSoC Creator.
  11:Generated_Source\PSoC4/cyfitter_cfg.c **** *
  12:Generated_Source\PSoC4/cyfitter_cfg.c **** ********************************************************************************
  13:Generated_Source\PSoC4/cyfitter_cfg.c **** * Copyright (c) 2007-2018 Cypress Semiconductor.  All rights reserved.
  14:Generated_Source\PSoC4/cyfitter_cfg.c **** * You may use this file only in accordance with the license, terms, conditions, 
  15:Generated_Source\PSoC4/cyfitter_cfg.c **** * disclaimers, and limitations in the end user license agreement accompanying 
  16:Generated_Source\PSoC4/cyfitter_cfg.c **** * the software package with which this file was provided.
  17:Generated_Source\PSoC4/cyfitter_cfg.c **** ********************************************************************************/
  18:Generated_Source\PSoC4/cyfitter_cfg.c **** 
  19:Generated_Source\PSoC4/cyfitter_cfg.c **** #include <string.h>
  20:Generated_Source\PSoC4/cyfitter_cfg.c **** #include "cytypes.h"
  21:Generated_Source\PSoC4/cyfitter_cfg.c **** #include "cydevice_trm.h"
  22:Generated_Source\PSoC4/cyfitter_cfg.c **** #include "cyfitter.h"
  23:Generated_Source\PSoC4/cyfitter_cfg.c **** #include "CyLib.h"
  24:Generated_Source\PSoC4/cyfitter_cfg.c **** #include "CyLFClk.h"
  25:Generated_Source\PSoC4/cyfitter_cfg.c **** #include "cyfitter_cfg.h"
  26:Generated_Source\PSoC4/cyfitter_cfg.c **** 
  27:Generated_Source\PSoC4/cyfitter_cfg.c **** 
  28:Generated_Source\PSoC4/cyfitter_cfg.c **** #if defined(__GNUC__) || defined(__ARMCC_VERSION)
  29:Generated_Source\PSoC4/cyfitter_cfg.c ****     #define CYPACKED 
  30:Generated_Source\PSoC4/cyfitter_cfg.c ****     #define CYPACKED_ATTR __attribute__ ((packed))
  31:Generated_Source\PSoC4/cyfitter_cfg.c ****     #define CYALIGNED __attribute__ ((aligned))
ARM GAS  C:\Users\EDULU~1.DES\AppData\Local\Temp\cc6B1O7j.s 			page 2


  32:Generated_Source\PSoC4/cyfitter_cfg.c ****     #define CY_CFG_UNUSED __attribute__ ((unused))
  33:Generated_Source\PSoC4/cyfitter_cfg.c ****     #ifndef CY_CFG_SECTION
  34:Generated_Source\PSoC4/cyfitter_cfg.c ****         #define CY_CFG_SECTION __attribute__ ((section(".psocinit")))
  35:Generated_Source\PSoC4/cyfitter_cfg.c ****     #endif
  36:Generated_Source\PSoC4/cyfitter_cfg.c ****     
  37:Generated_Source\PSoC4/cyfitter_cfg.c ****     #if defined(__ARMCC_VERSION)
  38:Generated_Source\PSoC4/cyfitter_cfg.c ****         #define CY_CFG_MEMORY_BARRIER() __memory_changed()
  39:Generated_Source\PSoC4/cyfitter_cfg.c ****     #else
  40:Generated_Source\PSoC4/cyfitter_cfg.c ****         #define CY_CFG_MEMORY_BARRIER() __sync_synchronize()
  41:Generated_Source\PSoC4/cyfitter_cfg.c ****     #endif
  42:Generated_Source\PSoC4/cyfitter_cfg.c ****     
  43:Generated_Source\PSoC4/cyfitter_cfg.c **** #elif defined(__ICCARM__)
  44:Generated_Source\PSoC4/cyfitter_cfg.c ****     #include <intrinsics.h>
  45:Generated_Source\PSoC4/cyfitter_cfg.c **** 
  46:Generated_Source\PSoC4/cyfitter_cfg.c ****     #define CYPACKED __packed
  47:Generated_Source\PSoC4/cyfitter_cfg.c ****     #define CYPACKED_ATTR 
  48:Generated_Source\PSoC4/cyfitter_cfg.c ****     #define CYALIGNED _Pragma("data_alignment=4")
  49:Generated_Source\PSoC4/cyfitter_cfg.c ****     #define CY_CFG_UNUSED _Pragma("diag_suppress=Pe177")
  50:Generated_Source\PSoC4/cyfitter_cfg.c ****     #define CY_CFG_SECTION _Pragma("location=\".psocinit\"")
  51:Generated_Source\PSoC4/cyfitter_cfg.c ****     
  52:Generated_Source\PSoC4/cyfitter_cfg.c ****     #define CY_CFG_MEMORY_BARRIER() __DMB()
  53:Generated_Source\PSoC4/cyfitter_cfg.c ****     
  54:Generated_Source\PSoC4/cyfitter_cfg.c **** #else
  55:Generated_Source\PSoC4/cyfitter_cfg.c ****     #error Unsupported toolchain
  56:Generated_Source\PSoC4/cyfitter_cfg.c **** #endif
  57:Generated_Source\PSoC4/cyfitter_cfg.c **** 
  58:Generated_Source\PSoC4/cyfitter_cfg.c **** #ifndef CYCODE
  59:Generated_Source\PSoC4/cyfitter_cfg.c ****     #define CYCODE
  60:Generated_Source\PSoC4/cyfitter_cfg.c **** #endif
  61:Generated_Source\PSoC4/cyfitter_cfg.c **** #ifndef CYDATA
  62:Generated_Source\PSoC4/cyfitter_cfg.c ****     #define CYDATA
  63:Generated_Source\PSoC4/cyfitter_cfg.c **** #endif
  64:Generated_Source\PSoC4/cyfitter_cfg.c **** #ifndef CYFAR
  65:Generated_Source\PSoC4/cyfitter_cfg.c ****     #define CYFAR
  66:Generated_Source\PSoC4/cyfitter_cfg.c **** #endif
  67:Generated_Source\PSoC4/cyfitter_cfg.c **** #ifndef CYXDATA
  68:Generated_Source\PSoC4/cyfitter_cfg.c ****     #define CYXDATA
  69:Generated_Source\PSoC4/cyfitter_cfg.c **** #endif
  70:Generated_Source\PSoC4/cyfitter_cfg.c **** 
  71:Generated_Source\PSoC4/cyfitter_cfg.c **** 
  72:Generated_Source\PSoC4/cyfitter_cfg.c **** CY_CFG_UNUSED
  73:Generated_Source\PSoC4/cyfitter_cfg.c **** static void CYMEMZERO(void *s, size_t n);
  74:Generated_Source\PSoC4/cyfitter_cfg.c **** CY_CFG_UNUSED
  75:Generated_Source\PSoC4/cyfitter_cfg.c **** static void CYMEMZERO(void *s, size_t n)
  76:Generated_Source\PSoC4/cyfitter_cfg.c **** {
  77:Generated_Source\PSoC4/cyfitter_cfg.c **** 	(void)memset(s, 0, n);
  78:Generated_Source\PSoC4/cyfitter_cfg.c **** }
  79:Generated_Source\PSoC4/cyfitter_cfg.c **** CY_CFG_UNUSED
  80:Generated_Source\PSoC4/cyfitter_cfg.c **** static void CYCONFIGCPY(void *dest, const void *src, size_t n);
  81:Generated_Source\PSoC4/cyfitter_cfg.c **** CY_CFG_UNUSED
  82:Generated_Source\PSoC4/cyfitter_cfg.c **** static void CYCONFIGCPY(void *dest, const void *src, size_t n)
  83:Generated_Source\PSoC4/cyfitter_cfg.c **** {
  84:Generated_Source\PSoC4/cyfitter_cfg.c **** 	(void)memcpy(dest, src, n);
  85:Generated_Source\PSoC4/cyfitter_cfg.c **** }
  86:Generated_Source\PSoC4/cyfitter_cfg.c **** CY_CFG_UNUSED
  87:Generated_Source\PSoC4/cyfitter_cfg.c **** static void CYCONFIGCPYCODE(void *dest, const void *src, size_t n);
  88:Generated_Source\PSoC4/cyfitter_cfg.c **** CY_CFG_UNUSED
ARM GAS  C:\Users\EDULU~1.DES\AppData\Local\Temp\cc6B1O7j.s 			page 3


  89:Generated_Source\PSoC4/cyfitter_cfg.c **** static void CYCONFIGCPYCODE(void *dest, const void *src, size_t n)
  90:Generated_Source\PSoC4/cyfitter_cfg.c **** {
  91:Generated_Source\PSoC4/cyfitter_cfg.c **** 	(void)memcpy(dest, src, n);
  92:Generated_Source\PSoC4/cyfitter_cfg.c **** }
  93:Generated_Source\PSoC4/cyfitter_cfg.c **** 
  94:Generated_Source\PSoC4/cyfitter_cfg.c **** 
  95:Generated_Source\PSoC4/cyfitter_cfg.c **** 
  96:Generated_Source\PSoC4/cyfitter_cfg.c **** 
  97:Generated_Source\PSoC4/cyfitter_cfg.c **** /* Clock startup error codes                                                   */
  98:Generated_Source\PSoC4/cyfitter_cfg.c **** #define CYCLOCKSTART_NO_ERROR    0u
  99:Generated_Source\PSoC4/cyfitter_cfg.c **** #define CYCLOCKSTART_XTAL_ERROR  1u
 100:Generated_Source\PSoC4/cyfitter_cfg.c **** #define CYCLOCKSTART_32KHZ_ERROR 2u
 101:Generated_Source\PSoC4/cyfitter_cfg.c **** #define CYCLOCKSTART_PLL_ERROR   3u
 102:Generated_Source\PSoC4/cyfitter_cfg.c **** #define CYCLOCKSTART_FLL_ERROR   4u
 103:Generated_Source\PSoC4/cyfitter_cfg.c **** #define CYCLOCKSTART_WCO_ERROR   5u
 104:Generated_Source\PSoC4/cyfitter_cfg.c **** 
 105:Generated_Source\PSoC4/cyfitter_cfg.c **** 
 106:Generated_Source\PSoC4/cyfitter_cfg.c **** #ifdef CY_NEED_CYCLOCKSTARTUPERROR
 107:Generated_Source\PSoC4/cyfitter_cfg.c **** /*******************************************************************************
 108:Generated_Source\PSoC4/cyfitter_cfg.c **** * Function Name: CyClockStartupError
 109:Generated_Source\PSoC4/cyfitter_cfg.c **** ********************************************************************************
 110:Generated_Source\PSoC4/cyfitter_cfg.c **** * Summary:
 111:Generated_Source\PSoC4/cyfitter_cfg.c **** *  If an error is encountered during clock configuration (crystal startup error,
 112:Generated_Source\PSoC4/cyfitter_cfg.c **** *  PLL lock error, etc.), the system will end up here.  Unless reimplemented by
 113:Generated_Source\PSoC4/cyfitter_cfg.c **** *  the customer, this function will stop in an infinite loop.
 114:Generated_Source\PSoC4/cyfitter_cfg.c **** *
 115:Generated_Source\PSoC4/cyfitter_cfg.c **** * Parameters:
 116:Generated_Source\PSoC4/cyfitter_cfg.c **** *   void
 117:Generated_Source\PSoC4/cyfitter_cfg.c **** *
 118:Generated_Source\PSoC4/cyfitter_cfg.c **** * Return:
 119:Generated_Source\PSoC4/cyfitter_cfg.c **** *   void
 120:Generated_Source\PSoC4/cyfitter_cfg.c **** *
 121:Generated_Source\PSoC4/cyfitter_cfg.c **** *******************************************************************************/
 122:Generated_Source\PSoC4/cyfitter_cfg.c **** CY_CFG_UNUSED
 123:Generated_Source\PSoC4/cyfitter_cfg.c **** static void CyClockStartupError(uint8 errorCode);
 124:Generated_Source\PSoC4/cyfitter_cfg.c **** CY_CFG_UNUSED
 125:Generated_Source\PSoC4/cyfitter_cfg.c **** static void CyClockStartupError(uint8 errorCode)
 126:Generated_Source\PSoC4/cyfitter_cfg.c **** {
 127:Generated_Source\PSoC4/cyfitter_cfg.c ****     /* To remove the compiler warning if errorCode not used.                */
 128:Generated_Source\PSoC4/cyfitter_cfg.c ****     errorCode = errorCode;
 129:Generated_Source\PSoC4/cyfitter_cfg.c **** 
 130:Generated_Source\PSoC4/cyfitter_cfg.c ****     /* If we have a clock startup error (bad MHz crystal, PLL lock, etc.),  */
 131:Generated_Source\PSoC4/cyfitter_cfg.c ****     /* we will end up here to allow the customer to implement something to  */
 132:Generated_Source\PSoC4/cyfitter_cfg.c ****     /* deal with the clock condition.                                       */
 133:Generated_Source\PSoC4/cyfitter_cfg.c **** 
 134:Generated_Source\PSoC4/cyfitter_cfg.c **** #ifdef CY_CFG_CLOCK_STARTUP_ERROR_CALLBACK
 135:Generated_Source\PSoC4/cyfitter_cfg.c ****     CY_CFG_Clock_Startup_ErrorCallback();
 136:Generated_Source\PSoC4/cyfitter_cfg.c **** #else
 137:Generated_Source\PSoC4/cyfitter_cfg.c ****     /*  If not using CY_CFG_CLOCK_STARTUP_ERROR_CALLBACK, place your clock startup code here. */
 138:Generated_Source\PSoC4/cyfitter_cfg.c ****     /* `#START CyClockStartupError` */
 139:Generated_Source\PSoC4/cyfitter_cfg.c **** 
 140:Generated_Source\PSoC4/cyfitter_cfg.c **** 
 141:Generated_Source\PSoC4/cyfitter_cfg.c **** 
 142:Generated_Source\PSoC4/cyfitter_cfg.c ****     /* `#END` */
 143:Generated_Source\PSoC4/cyfitter_cfg.c **** 
 144:Generated_Source\PSoC4/cyfitter_cfg.c ****     while(1) {}
 145:Generated_Source\PSoC4/cyfitter_cfg.c **** #endif /* CY_CFG_CLOCK_STARTUP_ERROR_CALLBACK */
ARM GAS  C:\Users\EDULU~1.DES\AppData\Local\Temp\cc6B1O7j.s 			page 4


 146:Generated_Source\PSoC4/cyfitter_cfg.c **** }
 147:Generated_Source\PSoC4/cyfitter_cfg.c **** #endif
 148:Generated_Source\PSoC4/cyfitter_cfg.c **** 
 149:Generated_Source\PSoC4/cyfitter_cfg.c **** #define CY_CFG_BASE_ADDR_COUNT 9u
 150:Generated_Source\PSoC4/cyfitter_cfg.c **** CYPACKED typedef struct
 151:Generated_Source\PSoC4/cyfitter_cfg.c **** {
 152:Generated_Source\PSoC4/cyfitter_cfg.c **** 	uint8 offset;
 153:Generated_Source\PSoC4/cyfitter_cfg.c **** 	uint8 value;
 154:Generated_Source\PSoC4/cyfitter_cfg.c **** } CYPACKED_ATTR cy_cfg_addrvalue_t;
 155:Generated_Source\PSoC4/cyfitter_cfg.c **** 
 156:Generated_Source\PSoC4/cyfitter_cfg.c **** 
 157:Generated_Source\PSoC4/cyfitter_cfg.c **** 
 158:Generated_Source\PSoC4/cyfitter_cfg.c **** /*******************************************************************************
 159:Generated_Source\PSoC4/cyfitter_cfg.c **** * Function Name: cfg_write_bytes32
 160:Generated_Source\PSoC4/cyfitter_cfg.c **** ********************************************************************************
 161:Generated_Source\PSoC4/cyfitter_cfg.c **** * Summary:
 162:Generated_Source\PSoC4/cyfitter_cfg.c **** *  This function is used for setting up the chip configuration areas that
 163:Generated_Source\PSoC4/cyfitter_cfg.c **** *  contain relatively sparse data.
 164:Generated_Source\PSoC4/cyfitter_cfg.c **** *
 165:Generated_Source\PSoC4/cyfitter_cfg.c **** * Parameters:
 166:Generated_Source\PSoC4/cyfitter_cfg.c **** *   void
 167:Generated_Source\PSoC4/cyfitter_cfg.c **** *
 168:Generated_Source\PSoC4/cyfitter_cfg.c **** * Return:
 169:Generated_Source\PSoC4/cyfitter_cfg.c **** *   void
 170:Generated_Source\PSoC4/cyfitter_cfg.c **** *
 171:Generated_Source\PSoC4/cyfitter_cfg.c **** *******************************************************************************/
 172:Generated_Source\PSoC4/cyfitter_cfg.c **** static void cfg_write_bytes32(const uint32 addr_table[], const cy_cfg_addrvalue_t data_table[]);
 173:Generated_Source\PSoC4/cyfitter_cfg.c **** static void cfg_write_bytes32(const uint32 addr_table[], const cy_cfg_addrvalue_t data_table[])
 174:Generated_Source\PSoC4/cyfitter_cfg.c **** {
  27              		.loc 1 174 1 view -0
  28              		.cfi_startproc
  29              		@ args = 0, pretend = 0, frame = 0
  30              		@ frame_needed = 0, uses_anonymous_args = 0
  31              		.loc 1 174 1 is_stmt 0 view .LVU1
  32 0000 F0B5     		push	{r4, r5, r6, r7, lr}
  33              		.cfi_def_cfa_offset 20
  34              		.cfi_offset 4, -20
  35              		.cfi_offset 5, -16
  36              		.cfi_offset 6, -12
  37              		.cfi_offset 7, -8
  38              		.cfi_offset 14, -4
 175:Generated_Source\PSoC4/cyfitter_cfg.c **** 	/* For 32-bit little-endian architectures */
 176:Generated_Source\PSoC4/cyfitter_cfg.c **** 	uint32 i, j = 0u;
  39              		.loc 1 176 2 is_stmt 1 view .LVU2
  40              	.LVL1:
 177:Generated_Source\PSoC4/cyfitter_cfg.c **** 	for (i = 0u; i < CY_CFG_BASE_ADDR_COUNT; i++)
  41              		.loc 1 177 2 view .LVU3
 176:Generated_Source\PSoC4/cyfitter_cfg.c **** 	for (i = 0u; i < CY_CFG_BASE_ADDR_COUNT; i++)
  42              		.loc 1 176 12 is_stmt 0 view .LVU4
  43 0002 0025     		movs	r5, #0
  44              		.loc 1 177 9 view .LVU5
  45 0004 0027     		movs	r7, #0
  46              		.loc 1 177 2 view .LVU6
  47 0006 00E0     		b	.L2
  48              	.LVL2:
  49              	.L7:
  50              		.loc 1 177 44 discriminator 2 view .LVU7
ARM GAS  C:\Users\EDULU~1.DES\AppData\Local\Temp\cc6B1O7j.s 			page 5


  51 0008 0137     		adds	r7, r7, #1
  52              	.LVL3:
  53              	.L2:
  54              		.loc 1 177 2 discriminator 1 view .LVU8
  55 000a 082F     		cmp	r7, #8
  56 000c 10D8     		bhi	.L6
  57              	.LBB2:
 178:Generated_Source\PSoC4/cyfitter_cfg.c **** 	{
 179:Generated_Source\PSoC4/cyfitter_cfg.c **** 		uint32 baseAddr = addr_table[i];
  58              		.loc 1 179 3 is_stmt 1 view .LVU9
  59              		.loc 1 179 31 is_stmt 0 view .LVU10
  60 000e BB00     		lsls	r3, r7, #2
  61              		.loc 1 179 10 view .LVU11
  62 0010 C658     		ldr	r6, [r0, r3]
  63              	.LVL4:
 180:Generated_Source\PSoC4/cyfitter_cfg.c **** 		uint8 count = (uint8)baseAddr;
  64              		.loc 1 180 3 is_stmt 1 view .LVU12
  65              		.loc 1 180 9 is_stmt 0 view .LVU13
  66 0012 F3B2     		uxtb	r3, r6
  67              	.LVL5:
 181:Generated_Source\PSoC4/cyfitter_cfg.c **** 		baseAddr &= 0xFFFFFF00u;
  68              		.loc 1 181 3 is_stmt 1 view .LVU14
  69              		.loc 1 181 12 is_stmt 0 view .LVU15
  70 0014 FF22     		movs	r2, #255
  71 0016 9643     		bics	r6, r2
  72              	.LVL6:
 182:Generated_Source\PSoC4/cyfitter_cfg.c **** 		while (count != 0u)
  73              		.loc 1 182 3 is_stmt 1 view .LVU16
  74              	.L3:
  75              		.loc 1 182 9 is_stmt 0 view .LVU17
  76 0018 002B     		cmp	r3, #0
  77 001a F5D0     		beq	.L7
 183:Generated_Source\PSoC4/cyfitter_cfg.c **** 		{
 184:Generated_Source\PSoC4/cyfitter_cfg.c **** 			CY_SET_REG8((void *)(baseAddr + data_table[j].offset), data_table[j].value);
  78              		.loc 1 184 4 is_stmt 1 view .LVU18
  79 001c 6A00     		lsls	r2, r5, #1
  80 001e 8A18     		adds	r2, r1, r2
  81 0020 1478     		ldrb	r4, [r2]
  82 0022 A419     		adds	r4, r4, r6
  83 0024 5278     		ldrb	r2, [r2, #1]
  84 0026 2270     		strb	r2, [r4]
 185:Generated_Source\PSoC4/cyfitter_cfg.c **** 			j++;
  85              		.loc 1 185 4 view .LVU19
  86              		.loc 1 185 5 is_stmt 0 view .LVU20
  87 0028 0135     		adds	r5, r5, #1
  88              	.LVL7:
 186:Generated_Source\PSoC4/cyfitter_cfg.c **** 			count--;
  89              		.loc 1 186 4 is_stmt 1 view .LVU21
  90              		.loc 1 186 9 is_stmt 0 view .LVU22
  91 002a 013B     		subs	r3, r3, #1
  92              	.LVL8:
  93              		.loc 1 186 9 view .LVU23
  94 002c DBB2     		uxtb	r3, r3
  95              	.LVL9:
  96              		.loc 1 186 9 view .LVU24
  97 002e F3E7     		b	.L3
  98              	.LVL10:
ARM GAS  C:\Users\EDULU~1.DES\AppData\Local\Temp\cc6B1O7j.s 			page 6


  99              	.L6:
 100              		.loc 1 186 9 view .LVU25
 101              	.LBE2:
 187:Generated_Source\PSoC4/cyfitter_cfg.c **** 		}
 188:Generated_Source\PSoC4/cyfitter_cfg.c **** 	}
 189:Generated_Source\PSoC4/cyfitter_cfg.c **** }
 102              		.loc 1 189 1 view .LVU26
 103              		@ sp needed
 104              	.LVL11:
 105              	.LVL12:
 106              		.loc 1 189 1 view .LVU27
 107 0030 F0BD     		pop	{r4, r5, r6, r7, pc}
 108              		.cfi_endproc
 109              	.LFE3:
 110              		.size	cfg_write_bytes32, .-cfg_write_bytes32
 111              		.section	.text.CYMEMZERO,"ax",%progbits
 112              		.align	1
 113              		.syntax unified
 114              		.code	16
 115              		.thumb_func
 116              		.fpu softvfp
 117              		.type	CYMEMZERO, %function
 118              	CYMEMZERO:
 119              	.LVL13:
 120              	.LFB0:
  76:Generated_Source\PSoC4/cyfitter_cfg.c **** 	(void)memset(s, 0, n);
 121              		.loc 1 76 1 is_stmt 1 view -0
 122              		.cfi_startproc
 123              		@ args = 0, pretend = 0, frame = 0
 124              		@ frame_needed = 0, uses_anonymous_args = 0
  76:Generated_Source\PSoC4/cyfitter_cfg.c **** 	(void)memset(s, 0, n);
 125              		.loc 1 76 1 is_stmt 0 view .LVU29
 126 0000 10B5     		push	{r4, lr}
 127              		.cfi_def_cfa_offset 8
 128              		.cfi_offset 4, -8
 129              		.cfi_offset 14, -4
 130 0002 0A00     		movs	r2, r1
  77:Generated_Source\PSoC4/cyfitter_cfg.c **** }
 131              		.loc 1 77 2 is_stmt 1 view .LVU30
  77:Generated_Source\PSoC4/cyfitter_cfg.c **** }
 132              		.loc 1 77 8 is_stmt 0 view .LVU31
 133 0004 0021     		movs	r1, #0
 134              	.LVL14:
  77:Generated_Source\PSoC4/cyfitter_cfg.c **** }
 135              		.loc 1 77 8 view .LVU32
 136 0006 FFF7FEFF 		bl	memset
 137              	.LVL15:
  78:Generated_Source\PSoC4/cyfitter_cfg.c **** CY_CFG_UNUSED
 138              		.loc 1 78 1 view .LVU33
 139              		@ sp needed
 140 000a 10BD     		pop	{r4, pc}
 141              		.cfi_endproc
 142              	.LFE0:
 143              		.size	CYMEMZERO, .-CYMEMZERO
 144              		.section	.psocinit,"ax",%progbits
 145              		.align	1
 146              		.syntax unified
ARM GAS  C:\Users\EDULU~1.DES\AppData\Local\Temp\cc6B1O7j.s 			page 7


 147              		.code	16
 148              		.thumb_func
 149              		.fpu softvfp
 150              		.type	ClockSetup, %function
 151              	ClockSetup:
 152              	.LFB4:
 190:Generated_Source\PSoC4/cyfitter_cfg.c **** 
 191:Generated_Source\PSoC4/cyfitter_cfg.c **** 
 192:Generated_Source\PSoC4/cyfitter_cfg.c **** /*******************************************************************************
 193:Generated_Source\PSoC4/cyfitter_cfg.c **** * Function Name: ClockSetup
 194:Generated_Source\PSoC4/cyfitter_cfg.c **** ********************************************************************************
 195:Generated_Source\PSoC4/cyfitter_cfg.c **** *
 196:Generated_Source\PSoC4/cyfitter_cfg.c **** * Summary:
 197:Generated_Source\PSoC4/cyfitter_cfg.c **** *   Performs the initialization of all of the clocks in the device based on the
 198:Generated_Source\PSoC4/cyfitter_cfg.c **** *   settings in the Clock tab of the DWR.  This includes enabling the requested
 199:Generated_Source\PSoC4/cyfitter_cfg.c **** *   clocks and setting the necessary dividers to produce the desired frequency. 
 200:Generated_Source\PSoC4/cyfitter_cfg.c **** *
 201:Generated_Source\PSoC4/cyfitter_cfg.c **** * Parameters:
 202:Generated_Source\PSoC4/cyfitter_cfg.c **** *   void
 203:Generated_Source\PSoC4/cyfitter_cfg.c **** *
 204:Generated_Source\PSoC4/cyfitter_cfg.c **** * Return:
 205:Generated_Source\PSoC4/cyfitter_cfg.c **** *   void
 206:Generated_Source\PSoC4/cyfitter_cfg.c **** *
 207:Generated_Source\PSoC4/cyfitter_cfg.c **** *******************************************************************************/
 208:Generated_Source\PSoC4/cyfitter_cfg.c **** static void ClockSetup(void);
 209:Generated_Source\PSoC4/cyfitter_cfg.c **** CY_CFG_SECTION
 210:Generated_Source\PSoC4/cyfitter_cfg.c **** static void ClockSetup(void)
 211:Generated_Source\PSoC4/cyfitter_cfg.c **** {
 153              		.loc 1 211 1 is_stmt 1 view -0
 154              		.cfi_startproc
 155              		@ args = 0, pretend = 0, frame = 0
 156              		@ frame_needed = 0, uses_anonymous_args = 0
 157 0000 70B5     		push	{r4, r5, r6, lr}
 158              		.cfi_def_cfa_offset 16
 159              		.cfi_offset 4, -16
 160              		.cfi_offset 5, -12
 161              		.cfi_offset 6, -8
 162              		.cfi_offset 14, -4
 212:Generated_Source\PSoC4/cyfitter_cfg.c **** 	/* Enable HALF_EN before trimming for the flash accelerator. */
 213:Generated_Source\PSoC4/cyfitter_cfg.c **** 	CY_SET_REG32((void CYXDATA *)(CYREG_CLK_SELECT), (CY_GET_REG32((void *)CYREG_CLK_SELECT) | 0x00040
 163              		.loc 1 213 2 view .LVU35
 164 0002 1C4C     		ldr	r4, .L10
 165 0004 2368     		ldr	r3, [r4]
 166 0006 8025     		movs	r5, #128
 167 0008 ED02     		lsls	r5, r5, #11
 168 000a 2B43     		orrs	r3, r5
 169 000c 2360     		str	r3, [r4]
 214:Generated_Source\PSoC4/cyfitter_cfg.c **** 
 215:Generated_Source\PSoC4/cyfitter_cfg.c **** 	/* Setup and trim IMO based on desired frequency. */
 216:Generated_Source\PSoC4/cyfitter_cfg.c **** 	CySysClkWriteImoFreq(48u);
 170              		.loc 1 216 2 view .LVU36
 171 000e 3020     		movs	r0, #48
 172 0010 FFF7FEFF 		bl	CySysClkWriteImoFreq
 173              	.LVL16:
 217:Generated_Source\PSoC4/cyfitter_cfg.c **** 	/* CYDEV_CLK_ILO_CONFIG Starting address: CYDEV_CLK_ILO_CONFIG */
 218:Generated_Source\PSoC4/cyfitter_cfg.c **** 	CY_SET_REG32((void *)(CYREG_CLK_ILO_CONFIG), 0x80000006u);
 174              		.loc 1 218 2 view .LVU37
ARM GAS  C:\Users\EDULU~1.DES\AppData\Local\Temp\cc6B1O7j.s 			page 8


 175 0014 184B     		ldr	r3, .L10+4
 176 0016 194A     		ldr	r2, .L10+8
 177 0018 1A60     		str	r2, [r3]
 219:Generated_Source\PSoC4/cyfitter_cfg.c **** 
 220:Generated_Source\PSoC4/cyfitter_cfg.c **** 
 221:Generated_Source\PSoC4/cyfitter_cfg.c **** 	/* CYDEV_CLK_SELECT00 Starting address: CYDEV_CLK_SELECT00 */
 222:Generated_Source\PSoC4/cyfitter_cfg.c **** 	CY_SET_REG32((void *)(CYREG_CLK_SELECT02), 0x00000020u);
 178              		.loc 1 222 2 view .LVU38
 179 001a 194B     		ldr	r3, .L10+12
 180 001c 2022     		movs	r2, #32
 181 001e 1A60     		str	r2, [r3]
 223:Generated_Source\PSoC4/cyfitter_cfg.c **** 	CY_SET_REG32((void *)(CYREG_CLK_SELECT07), 0x00000030u);
 182              		.loc 1 223 2 view .LVU39
 183 0020 184B     		ldr	r3, .L10+16
 184 0022 1032     		adds	r2, r2, #16
 185 0024 1A60     		str	r2, [r3]
 224:Generated_Source\PSoC4/cyfitter_cfg.c **** 	CY_SET_REG32((void *)(CYREG_CLK_SELECT08), 0x00000010u);
 186              		.loc 1 224 2 view .LVU40
 187 0026 1023     		movs	r3, #16
 188 0028 174A     		ldr	r2, .L10+20
 189 002a 1360     		str	r3, [r2]
 225:Generated_Source\PSoC4/cyfitter_cfg.c **** 	CY_SET_REG32((void *)(CYREG_CLK_SELECT09), 0x00000010u);
 190              		.loc 1 225 2 view .LVU41
 191 002c 174A     		ldr	r2, .L10+24
 192 002e 1360     		str	r3, [r2]
 226:Generated_Source\PSoC4/cyfitter_cfg.c **** 	CY_SET_REG32((void *)(CYREG_CLK_SELECT10), 0x00000010u);
 193              		.loc 1 226 2 view .LVU42
 194 0030 174A     		ldr	r2, .L10+28
 195 0032 1360     		str	r3, [r2]
 227:Generated_Source\PSoC4/cyfitter_cfg.c **** 	CY_SET_REG32((void *)(CYREG_CLK_SELECT12), 0x00000011u);
 196              		.loc 1 227 2 view .LVU43
 197 0034 174B     		ldr	r3, .L10+32
 198 0036 1122     		movs	r2, #17
 199 0038 1A60     		str	r2, [r3]
 228:Generated_Source\PSoC4/cyfitter_cfg.c **** 
 229:Generated_Source\PSoC4/cyfitter_cfg.c **** 	/* CYDEV_CLK_IMO_CONFIG Starting address: CYDEV_CLK_IMO_CONFIG */
 230:Generated_Source\PSoC4/cyfitter_cfg.c **** 	CY_SET_REG32((void *)(CYREG_CLK_IMO_CONFIG), 0x82000000u);
 200              		.loc 1 230 2 view .LVU44
 201 003a 174B     		ldr	r3, .L10+36
 202 003c 8222     		movs	r2, #130
 203 003e 1206     		lsls	r2, r2, #24
 204 0040 1A60     		str	r2, [r3]
 231:Generated_Source\PSoC4/cyfitter_cfg.c **** 
 232:Generated_Source\PSoC4/cyfitter_cfg.c **** 	/* CYDEV_CLK_SELECT Starting address: CYDEV_CLK_SELECT */
 233:Generated_Source\PSoC4/cyfitter_cfg.c **** 	CY_SET_REG32((void *)(CYREG_CLK_SELECT), 0x00040000u);
 205              		.loc 1 233 2 view .LVU45
 206 0042 2560     		str	r5, [r4]
 234:Generated_Source\PSoC4/cyfitter_cfg.c **** 
 235:Generated_Source\PSoC4/cyfitter_cfg.c **** 	/* CYDEV_CLK_DIVIDER_A00 Starting address: CYDEV_CLK_DIVIDER_A00 */
 236:Generated_Source\PSoC4/cyfitter_cfg.c **** 	CY_SET_REG32((void *)(CYREG_CLK_DIVIDER_A00), 0x80000003u);
 207              		.loc 1 236 2 view .LVU46
 208 0044 154B     		ldr	r3, .L10+40
 209 0046 164A     		ldr	r2, .L10+44
 210 0048 1A60     		str	r2, [r3]
 237:Generated_Source\PSoC4/cyfitter_cfg.c **** 
 238:Generated_Source\PSoC4/cyfitter_cfg.c **** 	/* CYDEV_CLK_DIVIDER_B00 Starting address: CYDEV_CLK_DIVIDER_B00 */
 239:Generated_Source\PSoC4/cyfitter_cfg.c **** 	CY_SET_REG32((void *)(CYREG_CLK_DIVIDER_B00), 0x8000001Du);
ARM GAS  C:\Users\EDULU~1.DES\AppData\Local\Temp\cc6B1O7j.s 			page 9


 211              		.loc 1 239 2 view .LVU47
 212 004a 164B     		ldr	r3, .L10+48
 213 004c 164A     		ldr	r2, .L10+52
 214 004e 1A60     		str	r2, [r3]
 240:Generated_Source\PSoC4/cyfitter_cfg.c **** 
 241:Generated_Source\PSoC4/cyfitter_cfg.c **** 	/* CYDEV_CLK_DIVIDER_C00 Starting address: CYDEV_CLK_DIVIDER_C00 */
 242:Generated_Source\PSoC4/cyfitter_cfg.c **** 	CY_SET_REG32((void *)(CYREG_CLK_DIVIDER_C00), 0x8000002Fu);
 215              		.loc 1 242 2 view .LVU48
 216 0050 164B     		ldr	r3, .L10+56
 217 0052 174A     		ldr	r2, .L10+60
 218 0054 1A60     		str	r2, [r3]
 243:Generated_Source\PSoC4/cyfitter_cfg.c **** 
 244:Generated_Source\PSoC4/cyfitter_cfg.c **** 	/* CYDEV_CLK_DIVIDER_A01 Starting address: CYDEV_CLK_DIVIDER_A01 */
 245:Generated_Source\PSoC4/cyfitter_cfg.c **** 	CY_SET_REG32((void *)(CYREG_CLK_DIVIDER_A01), 0x800000EFu);
 219              		.loc 1 245 2 view .LVU49
 220 0056 174B     		ldr	r3, .L10+64
 221 0058 174A     		ldr	r2, .L10+68
 222 005a 1A60     		str	r2, [r3]
 246:Generated_Source\PSoC4/cyfitter_cfg.c **** 
 247:Generated_Source\PSoC4/cyfitter_cfg.c **** 	(void)CyIntSetVector(9u, &CySysWdtIsr);
 223              		.loc 1 247 2 view .LVU50
 224              		.loc 1 247 8 is_stmt 0 view .LVU51
 225 005c 1749     		ldr	r1, .L10+72
 226 005e 0920     		movs	r0, #9
 227 0060 FFF7FEFF 		bl	CyIntSetVector
 228              	.LVL17:
 248:Generated_Source\PSoC4/cyfitter_cfg.c **** 	CyIntEnable(9u);
 229              		.loc 1 248 2 is_stmt 1 view .LVU52
 230 0064 0920     		movs	r0, #9
 231 0066 FFF7FEFF 		bl	CyIntEnable
 232              	.LVL18:
 249:Generated_Source\PSoC4/cyfitter_cfg.c **** 	CY_SET_REG32((void *)(CYREG_WDT_CONFIG), 0x00000000u);
 233              		.loc 1 249 2 view .LVU53
 234 006a 154B     		ldr	r3, .L10+76
 235 006c 0022     		movs	r2, #0
 236 006e 1A60     		str	r2, [r3]
 250:Generated_Source\PSoC4/cyfitter_cfg.c **** }
 237              		.loc 1 250 1 is_stmt 0 view .LVU54
 238              		@ sp needed
 239 0070 70BD     		pop	{r4, r5, r6, pc}
 240              	.L11:
 241 0072 C046     		.align	2
 242              	.L10:
 243 0074 00010B40 		.word	1074462976
 244 0078 04010B40 		.word	1074462980
 245 007c 06000080 		.word	-2147483642
 246 0080 08020240 		.word	1073873416
 247 0084 1C020240 		.word	1073873436
 248 0088 20020240 		.word	1073873440
 249 008c 24020240 		.word	1073873444
 250 0090 28020240 		.word	1073873448
 251 0094 30020240 		.word	1073873456
 252 0098 08010B40 		.word	1074462984
 253 009c 00000240 		.word	1073872896
 254 00a0 03000080 		.word	-2147483645
 255 00a4 40000240 		.word	1073872960
 256 00a8 1D000080 		.word	-2147483619
ARM GAS  C:\Users\EDULU~1.DES\AppData\Local\Temp\cc6B1O7j.s 			page 10


 257 00ac 80000240 		.word	1073873024
 258 00b0 2F000080 		.word	-2147483601
 259 00b4 04000240 		.word	1073872900
 260 00b8 EF000080 		.word	-2147483409
 261 00bc 00000000 		.word	CySysWdtIsr
 262 00c0 0C020B40 		.word	1074463244
 263              		.cfi_endproc
 264              	.LFE4:
 265              		.size	ClockSetup, .-ClockSetup
 266              		.section	.text.SetAnalogRoutingPumps,"ax",%progbits
 267              		.align	1
 268              		.global	SetAnalogRoutingPumps
 269              		.syntax unified
 270              		.code	16
 271              		.thumb_func
 272              		.fpu softvfp
 273              		.type	SetAnalogRoutingPumps, %function
 274              	SetAnalogRoutingPumps:
 275              	.LVL19:
 276              	.LFB6:
 251:Generated_Source\PSoC4/cyfitter_cfg.c **** 
 252:Generated_Source\PSoC4/cyfitter_cfg.c **** 
 253:Generated_Source\PSoC4/cyfitter_cfg.c **** /* Analog API Functions */
 254:Generated_Source\PSoC4/cyfitter_cfg.c **** 
 255:Generated_Source\PSoC4/cyfitter_cfg.c **** 
 256:Generated_Source\PSoC4/cyfitter_cfg.c **** /*******************************************************************************
 257:Generated_Source\PSoC4/cyfitter_cfg.c **** * Function Name: AnalogSetDefault
 258:Generated_Source\PSoC4/cyfitter_cfg.c **** ********************************************************************************
 259:Generated_Source\PSoC4/cyfitter_cfg.c **** *
 260:Generated_Source\PSoC4/cyfitter_cfg.c **** * Summary:
 261:Generated_Source\PSoC4/cyfitter_cfg.c **** *  Sets up the analog portions of the chip to default values based on chip
 262:Generated_Source\PSoC4/cyfitter_cfg.c **** *  configuration options from the project.
 263:Generated_Source\PSoC4/cyfitter_cfg.c **** *
 264:Generated_Source\PSoC4/cyfitter_cfg.c **** * Parameters:
 265:Generated_Source\PSoC4/cyfitter_cfg.c **** *  void
 266:Generated_Source\PSoC4/cyfitter_cfg.c **** *
 267:Generated_Source\PSoC4/cyfitter_cfg.c **** * Return:
 268:Generated_Source\PSoC4/cyfitter_cfg.c **** *  void
 269:Generated_Source\PSoC4/cyfitter_cfg.c **** *
 270:Generated_Source\PSoC4/cyfitter_cfg.c **** *******************************************************************************/
 271:Generated_Source\PSoC4/cyfitter_cfg.c **** static void AnalogSetDefault(void);
 272:Generated_Source\PSoC4/cyfitter_cfg.c **** static void AnalogSetDefault(void)
 273:Generated_Source\PSoC4/cyfitter_cfg.c **** {
 274:Generated_Source\PSoC4/cyfitter_cfg.c **** 	CY_SET_XTND_REG32((void CYFAR *)CYREG_CTBM_OA0_SW, 0x00240104u);
 275:Generated_Source\PSoC4/cyfitter_cfg.c **** 	CY_SET_XTND_REG32((void CYFAR *)CYREG_SAR_MUX_SWITCH0, 0x01080080u);
 276:Generated_Source\PSoC4/cyfitter_cfg.c **** 	SetAnalogRoutingPumps(1);
 277:Generated_Source\PSoC4/cyfitter_cfg.c **** }
 278:Generated_Source\PSoC4/cyfitter_cfg.c **** 
 279:Generated_Source\PSoC4/cyfitter_cfg.c **** 
 280:Generated_Source\PSoC4/cyfitter_cfg.c **** /*******************************************************************************
 281:Generated_Source\PSoC4/cyfitter_cfg.c **** * Function Name: SetAnalogRoutingPumps
 282:Generated_Source\PSoC4/cyfitter_cfg.c **** ********************************************************************************
 283:Generated_Source\PSoC4/cyfitter_cfg.c **** *
 284:Generated_Source\PSoC4/cyfitter_cfg.c **** * Summary:
 285:Generated_Source\PSoC4/cyfitter_cfg.c **** * Enables or disables the analog pumps feeding analog routing switches.
 286:Generated_Source\PSoC4/cyfitter_cfg.c **** * Intended to be called at startup, based on the Vdda system configuration;
 287:Generated_Source\PSoC4/cyfitter_cfg.c **** * may be called during operation when the user informs us that the Vdda voltage crossed the pump th
ARM GAS  C:\Users\EDULU~1.DES\AppData\Local\Temp\cc6B1O7j.s 			page 11


 288:Generated_Source\PSoC4/cyfitter_cfg.c **** *
 289:Generated_Source\PSoC4/cyfitter_cfg.c **** * Parameters:
 290:Generated_Source\PSoC4/cyfitter_cfg.c **** *  enabled - 1 to enable the pumps, 0 to disable the pumps
 291:Generated_Source\PSoC4/cyfitter_cfg.c **** *
 292:Generated_Source\PSoC4/cyfitter_cfg.c **** * Return:
 293:Generated_Source\PSoC4/cyfitter_cfg.c **** *  void
 294:Generated_Source\PSoC4/cyfitter_cfg.c **** *
 295:Generated_Source\PSoC4/cyfitter_cfg.c **** *******************************************************************************/
 296:Generated_Source\PSoC4/cyfitter_cfg.c **** void SetAnalogRoutingPumps(uint8 enabled)
 297:Generated_Source\PSoC4/cyfitter_cfg.c **** {
 277              		.loc 1 297 1 is_stmt 1 view -0
 278              		.cfi_startproc
 279              		@ args = 0, pretend = 0, frame = 0
 280              		@ frame_needed = 0, uses_anonymous_args = 0
 281              		@ link register save eliminated.
 298:Generated_Source\PSoC4/cyfitter_cfg.c **** 	uint32 regValue = CY_GET_XTND_REG32((void *)(CYREG_SAR_PUMP_CTRL));
 282              		.loc 1 298 2 view .LVU56
 283              		.loc 1 298 9 is_stmt 0 view .LVU57
 284 0000 064B     		ldr	r3, .L15
 285 0002 1B68     		ldr	r3, [r3]
 286              	.LVL20:
 299:Generated_Source\PSoC4/cyfitter_cfg.c **** 	if (enabled != 0u)
 287              		.loc 1 299 2 is_stmt 1 view .LVU58
 288              		.loc 1 299 5 is_stmt 0 view .LVU59
 289 0004 0028     		cmp	r0, #0
 290 0006 05D0     		beq	.L13
 300:Generated_Source\PSoC4/cyfitter_cfg.c **** 	{
 301:Generated_Source\PSoC4/cyfitter_cfg.c **** 		regValue |= 0x80000000u;
 291              		.loc 1 301 3 is_stmt 1 view .LVU60
 292              		.loc 1 301 12 is_stmt 0 view .LVU61
 293 0008 8022     		movs	r2, #128
 294 000a 1206     		lsls	r2, r2, #24
 295 000c 1343     		orrs	r3, r2
 296              	.LVL21:
 297              	.L14:
 302:Generated_Source\PSoC4/cyfitter_cfg.c **** 	}
 303:Generated_Source\PSoC4/cyfitter_cfg.c **** 	else
 304:Generated_Source\PSoC4/cyfitter_cfg.c **** 	{
 305:Generated_Source\PSoC4/cyfitter_cfg.c **** 		regValue &= ~0x80000000u;
 306:Generated_Source\PSoC4/cyfitter_cfg.c **** 	}
 307:Generated_Source\PSoC4/cyfitter_cfg.c **** 	CY_SET_XTND_REG32((void *)(CYREG_SAR_PUMP_CTRL), regValue);
 298              		.loc 1 307 2 is_stmt 1 view .LVU62
 299 000e 034A     		ldr	r2, .L15
 300 0010 1360     		str	r3, [r2]
 308:Generated_Source\PSoC4/cyfitter_cfg.c **** }
 301              		.loc 1 308 1 is_stmt 0 view .LVU63
 302              		@ sp needed
 303 0012 7047     		bx	lr
 304              	.L13:
 305:Generated_Source\PSoC4/cyfitter_cfg.c **** 	}
 305              		.loc 1 305 3 is_stmt 1 view .LVU64
 305:Generated_Source\PSoC4/cyfitter_cfg.c **** 	}
 306              		.loc 1 305 12 is_stmt 0 view .LVU65
 307 0014 5B00     		lsls	r3, r3, #1
 308              	.LVL22:
 305:Generated_Source\PSoC4/cyfitter_cfg.c **** 	}
 309              		.loc 1 305 12 view .LVU66
ARM GAS  C:\Users\EDULU~1.DES\AppData\Local\Temp\cc6B1O7j.s 			page 12


 310 0016 5B08     		lsrs	r3, r3, #1
 311              	.LVL23:
 305:Generated_Source\PSoC4/cyfitter_cfg.c **** 	}
 312              		.loc 1 305 12 view .LVU67
 313 0018 F9E7     		b	.L14
 314              	.L16:
 315 001a C046     		.align	2
 316              	.L15:
 317 001c 80031A40 		.word	1075446656
 318              		.cfi_endproc
 319              	.LFE6:
 320              		.size	SetAnalogRoutingPumps, .-SetAnalogRoutingPumps
 321              		.section	.text.AnalogSetDefault,"ax",%progbits
 322              		.align	1
 323              		.syntax unified
 324              		.code	16
 325              		.thumb_func
 326              		.fpu softvfp
 327              		.type	AnalogSetDefault, %function
 328              	AnalogSetDefault:
 329              	.LFB5:
 273:Generated_Source\PSoC4/cyfitter_cfg.c **** 	CY_SET_XTND_REG32((void CYFAR *)CYREG_CTBM_OA0_SW, 0x00240104u);
 330              		.loc 1 273 1 is_stmt 1 view -0
 331              		.cfi_startproc
 332              		@ args = 0, pretend = 0, frame = 0
 333              		@ frame_needed = 0, uses_anonymous_args = 0
 334 0000 10B5     		push	{r4, lr}
 335              		.cfi_def_cfa_offset 8
 336              		.cfi_offset 4, -8
 337              		.cfi_offset 14, -4
 274:Generated_Source\PSoC4/cyfitter_cfg.c **** 	CY_SET_XTND_REG32((void CYFAR *)CYREG_SAR_MUX_SWITCH0, 0x01080080u);
 338              		.loc 1 274 2 view .LVU69
 339 0002 054B     		ldr	r3, .L18
 340 0004 054A     		ldr	r2, .L18+4
 341 0006 1A60     		str	r2, [r3]
 275:Generated_Source\PSoC4/cyfitter_cfg.c **** 	SetAnalogRoutingPumps(1);
 342              		.loc 1 275 2 view .LVU70
 343 0008 054B     		ldr	r3, .L18+8
 344 000a 064A     		ldr	r2, .L18+12
 345 000c 1A60     		str	r2, [r3]
 276:Generated_Source\PSoC4/cyfitter_cfg.c **** }
 346              		.loc 1 276 2 view .LVU71
 347 000e 0120     		movs	r0, #1
 348 0010 FFF7FEFF 		bl	SetAnalogRoutingPumps
 349              	.LVL24:
 277:Generated_Source\PSoC4/cyfitter_cfg.c **** 
 350              		.loc 1 277 1 is_stmt 0 view .LVU72
 351              		@ sp needed
 352 0014 10BD     		pop	{r4, pc}
 353              	.L19:
 354 0016 C046     		.align	2
 355              	.L18:
 356 0018 80001040 		.word	1074790528
 357 001c 04012400 		.word	2359556
 358 0020 00031A40 		.word	1075446528
 359 0024 80000801 		.word	17301632
 360              		.cfi_endproc
ARM GAS  C:\Users\EDULU~1.DES\AppData\Local\Temp\cc6B1O7j.s 			page 13


 361              	.LFE5:
 362              		.size	AnalogSetDefault, .-AnalogSetDefault
 363              		.section	.psocinit
 364              		.align	1
 365              		.global	cyfitter_cfg
 366              		.syntax unified
 367              		.code	16
 368              		.thumb_func
 369              		.fpu softvfp
 370              		.type	cyfitter_cfg, %function
 371              	cyfitter_cfg:
 372              	.LFB7:
 309:Generated_Source\PSoC4/cyfitter_cfg.c **** 
 310:Generated_Source\PSoC4/cyfitter_cfg.c **** 
 311:Generated_Source\PSoC4/cyfitter_cfg.c **** 
 312:Generated_Source\PSoC4/cyfitter_cfg.c **** 
 313:Generated_Source\PSoC4/cyfitter_cfg.c **** /*******************************************************************************
 314:Generated_Source\PSoC4/cyfitter_cfg.c **** * Function Name: cyfitter_cfg
 315:Generated_Source\PSoC4/cyfitter_cfg.c **** ********************************************************************************
 316:Generated_Source\PSoC4/cyfitter_cfg.c **** * Summary:
 317:Generated_Source\PSoC4/cyfitter_cfg.c **** *  This function is called by the start-up code for the selected device. It
 318:Generated_Source\PSoC4/cyfitter_cfg.c **** *  performs all of the necessary device configuration based on the design
 319:Generated_Source\PSoC4/cyfitter_cfg.c **** *  settings.  This includes settings from the Design Wide Resources (DWR) such
 320:Generated_Source\PSoC4/cyfitter_cfg.c **** *  as Clocks and Pins as well as any component configuration that is necessary.
 321:Generated_Source\PSoC4/cyfitter_cfg.c **** *
 322:Generated_Source\PSoC4/cyfitter_cfg.c **** * Parameters:
 323:Generated_Source\PSoC4/cyfitter_cfg.c **** *   void
 324:Generated_Source\PSoC4/cyfitter_cfg.c **** *
 325:Generated_Source\PSoC4/cyfitter_cfg.c **** * Return:
 326:Generated_Source\PSoC4/cyfitter_cfg.c **** *   void
 327:Generated_Source\PSoC4/cyfitter_cfg.c **** *
 328:Generated_Source\PSoC4/cyfitter_cfg.c **** *******************************************************************************/
 329:Generated_Source\PSoC4/cyfitter_cfg.c **** CY_CFG_SECTION
 330:Generated_Source\PSoC4/cyfitter_cfg.c **** void cyfitter_cfg(void)
 331:Generated_Source\PSoC4/cyfitter_cfg.c **** {
 373              		.loc 1 331 1 is_stmt 1 view -0
 374              		.cfi_startproc
 375              		@ args = 0, pretend = 0, frame = 0
 376              		@ frame_needed = 0, uses_anonymous_args = 0
 377 00c4 70B5     		push	{r4, r5, r6, lr}
 378              		.cfi_def_cfa_offset 16
 379              		.cfi_offset 4, -16
 380              		.cfi_offset 5, -12
 381              		.cfi_offset 6, -8
 382              		.cfi_offset 14, -4
 332:Generated_Source\PSoC4/cyfitter_cfg.c **** 	/* Disable interrupts by default. Let user enable if/when they want. */
 333:Generated_Source\PSoC4/cyfitter_cfg.c **** 	CyGlobalIntDisable;
 383              		.loc 1 333 2 view .LVU74
 384              		.loc 1 333 2 view .LVU75
 385              		.syntax divided
 386              	@ 333 "Generated_Source\PSoC4\cyfitter_cfg.c" 1
 387 00c6 72B6     		CPSID   i
 388              	@ 0 "" 2
 334:Generated_Source\PSoC4/cyfitter_cfg.c **** 
 335:Generated_Source\PSoC4/cyfitter_cfg.c **** 	/* Enable the clock in the interrupt controller for the routed interrupts */
 336:Generated_Source\PSoC4/cyfitter_cfg.c **** 	CY_SET_REG8((void *)CYREG_UDB_UDBIF_INT_CLK_CTL, 0x01u);
 389              		.loc 1 336 2 view .LVU76
ARM GAS  C:\Users\EDULU~1.DES\AppData\Local\Temp\cc6B1O7j.s 			page 14


 390              		.thumb
 391              		.syntax unified
 392 00c8 464B     		ldr	r3, .L23
 393 00ca 0122     		movs	r2, #1
 394 00cc 1A70     		strb	r2, [r3]
 395              	.LBB3:
 337:Generated_Source\PSoC4/cyfitter_cfg.c **** 	{
 338:Generated_Source\PSoC4/cyfitter_cfg.c **** 		static const uint32 CYCODE cy_cfg_addr_table[] = {
 396              		.loc 1 338 3 view .LVU77
 339:Generated_Source\PSoC4/cyfitter_cfg.c **** 			0x400F300Fu, /* Base address: 0x400F3000 Count: 15 */
 340:Generated_Source\PSoC4/cyfitter_cfg.c **** 			0x400F310Au, /* Base address: 0x400F3100 Count: 10 */
 341:Generated_Source\PSoC4/cyfitter_cfg.c **** 			0x400F3262u, /* Base address: 0x400F3200 Count: 98 */
 342:Generated_Source\PSoC4/cyfitter_cfg.c **** 			0x400F3331u, /* Base address: 0x400F3300 Count: 49 */
 343:Generated_Source\PSoC4/cyfitter_cfg.c **** 			0x400F4006u, /* Base address: 0x400F4000 Count: 6 */
 344:Generated_Source\PSoC4/cyfitter_cfg.c **** 			0x400F4111u, /* Base address: 0x400F4100 Count: 17 */
 345:Generated_Source\PSoC4/cyfitter_cfg.c **** 			0x400F4202u, /* Base address: 0x400F4200 Count: 2 */
 346:Generated_Source\PSoC4/cyfitter_cfg.c **** 			0x400F4306u, /* Base address: 0x400F4300 Count: 6 */
 347:Generated_Source\PSoC4/cyfitter_cfg.c **** 			0x400F6002u, /* Base address: 0x400F6000 Count: 2 */
 348:Generated_Source\PSoC4/cyfitter_cfg.c **** 		};
 349:Generated_Source\PSoC4/cyfitter_cfg.c **** 
 350:Generated_Source\PSoC4/cyfitter_cfg.c **** 		static const cy_cfg_addrvalue_t CYCODE cy_cfg_data_table[] = {
 397              		.loc 1 350 3 view .LVU78
 351:Generated_Source\PSoC4/cyfitter_cfg.c **** 			{0x80u, 0x02u},
 352:Generated_Source\PSoC4/cyfitter_cfg.c **** 			{0x82u, 0x01u},
 353:Generated_Source\PSoC4/cyfitter_cfg.c **** 			{0x8Eu, 0x08u},
 354:Generated_Source\PSoC4/cyfitter_cfg.c **** 			{0x98u, 0x01u},
 355:Generated_Source\PSoC4/cyfitter_cfg.c **** 			{0x9Au, 0x06u},
 356:Generated_Source\PSoC4/cyfitter_cfg.c **** 			{0x9Eu, 0x10u},
 357:Generated_Source\PSoC4/cyfitter_cfg.c **** 			{0xB0u, 0x04u},
 358:Generated_Source\PSoC4/cyfitter_cfg.c **** 			{0xB2u, 0x10u},
 359:Generated_Source\PSoC4/cyfitter_cfg.c **** 			{0xB4u, 0x08u},
 360:Generated_Source\PSoC4/cyfitter_cfg.c **** 			{0xB5u, 0x01u},
 361:Generated_Source\PSoC4/cyfitter_cfg.c **** 			{0xB6u, 0x03u},
 362:Generated_Source\PSoC4/cyfitter_cfg.c **** 			{0xBFu, 0x10u},
 363:Generated_Source\PSoC4/cyfitter_cfg.c **** 			{0xD8u, 0x04u},
 364:Generated_Source\PSoC4/cyfitter_cfg.c **** 			{0xD9u, 0x04u},
 365:Generated_Source\PSoC4/cyfitter_cfg.c **** 			{0xDFu, 0x01u},
 366:Generated_Source\PSoC4/cyfitter_cfg.c **** 			{0x05u, 0x01u},
 367:Generated_Source\PSoC4/cyfitter_cfg.c **** 			{0x07u, 0x01u},
 368:Generated_Source\PSoC4/cyfitter_cfg.c **** 			{0x0Du, 0x20u},
 369:Generated_Source\PSoC4/cyfitter_cfg.c **** 			{0x0Fu, 0x01u},
 370:Generated_Source\PSoC4/cyfitter_cfg.c **** 			{0x1Du, 0x25u},
 371:Generated_Source\PSoC4/cyfitter_cfg.c **** 			{0x1Eu, 0x01u},
 372:Generated_Source\PSoC4/cyfitter_cfg.c **** 			{0x27u, 0x04u},
 373:Generated_Source\PSoC4/cyfitter_cfg.c **** 			{0x83u, 0x04u},
 374:Generated_Source\PSoC4/cyfitter_cfg.c **** 			{0xC0u, 0x90u},
 375:Generated_Source\PSoC4/cyfitter_cfg.c **** 			{0xC2u, 0xC0u},
 376:Generated_Source\PSoC4/cyfitter_cfg.c **** 			{0x00u, 0x2Au},
 377:Generated_Source\PSoC4/cyfitter_cfg.c **** 			{0x02u, 0x55u},
 378:Generated_Source\PSoC4/cyfitter_cfg.c **** 			{0x04u, 0x11u},
 379:Generated_Source\PSoC4/cyfitter_cfg.c **** 			{0x05u, 0x01u},
 380:Generated_Source\PSoC4/cyfitter_cfg.c **** 			{0x06u, 0x0Au},
 381:Generated_Source\PSoC4/cyfitter_cfg.c **** 			{0x07u, 0x02u},
 382:Generated_Source\PSoC4/cyfitter_cfg.c **** 			{0x08u, 0x40u},
 383:Generated_Source\PSoC4/cyfitter_cfg.c **** 			{0x09u, 0x08u},
 384:Generated_Source\PSoC4/cyfitter_cfg.c **** 			{0x0Bu, 0x10u},
 385:Generated_Source\PSoC4/cyfitter_cfg.c **** 			{0x11u, 0x1Bu},
ARM GAS  C:\Users\EDULU~1.DES\AppData\Local\Temp\cc6B1O7j.s 			page 15


 386:Generated_Source\PSoC4/cyfitter_cfg.c **** 			{0x13u, 0x64u},
 387:Generated_Source\PSoC4/cyfitter_cfg.c **** 			{0x14u, 0x35u},
 388:Generated_Source\PSoC4/cyfitter_cfg.c **** 			{0x15u, 0x02u},
 389:Generated_Source\PSoC4/cyfitter_cfg.c **** 			{0x16u, 0xCAu},
 390:Generated_Source\PSoC4/cyfitter_cfg.c **** 			{0x17u, 0x25u},
 391:Generated_Source\PSoC4/cyfitter_cfg.c **** 			{0x18u, 0x36u},
 392:Generated_Source\PSoC4/cyfitter_cfg.c **** 			{0x19u, 0x14u},
 393:Generated_Source\PSoC4/cyfitter_cfg.c **** 			{0x1Au, 0x80u},
 394:Generated_Source\PSoC4/cyfitter_cfg.c **** 			{0x1Bu, 0x48u},
 395:Generated_Source\PSoC4/cyfitter_cfg.c **** 			{0x1Eu, 0x20u},
 396:Generated_Source\PSoC4/cyfitter_cfg.c **** 			{0x22u, 0x20u},
 397:Generated_Source\PSoC4/cyfitter_cfg.c **** 			{0x24u, 0x40u},
 398:Generated_Source\PSoC4/cyfitter_cfg.c **** 			{0x25u, 0x7Fu},
 399:Generated_Source\PSoC4/cyfitter_cfg.c **** 			{0x28u, 0x0Au},
 400:Generated_Source\PSoC4/cyfitter_cfg.c **** 			{0x29u, 0x1Bu},
 401:Generated_Source\PSoC4/cyfitter_cfg.c **** 			{0x2Au, 0x11u},
 402:Generated_Source\PSoC4/cyfitter_cfg.c **** 			{0x2Bu, 0x64u},
 403:Generated_Source\PSoC4/cyfitter_cfg.c **** 			{0x2Fu, 0x1Bu},
 404:Generated_Source\PSoC4/cyfitter_cfg.c **** 			{0x30u, 0x06u},
 405:Generated_Source\PSoC4/cyfitter_cfg.c **** 			{0x32u, 0x01u},
 406:Generated_Source\PSoC4/cyfitter_cfg.c **** 			{0x33u, 0x78u},
 407:Generated_Source\PSoC4/cyfitter_cfg.c **** 			{0x34u, 0xF8u},
 408:Generated_Source\PSoC4/cyfitter_cfg.c **** 			{0x35u, 0x07u},
 409:Generated_Source\PSoC4/cyfitter_cfg.c **** 			{0x36u, 0x01u},
 410:Generated_Source\PSoC4/cyfitter_cfg.c **** 			{0x3Au, 0x20u},
 411:Generated_Source\PSoC4/cyfitter_cfg.c **** 			{0x3Bu, 0x28u},
 412:Generated_Source\PSoC4/cyfitter_cfg.c **** 			{0x3Eu, 0x44u},
 413:Generated_Source\PSoC4/cyfitter_cfg.c **** 			{0x40u, 0x42u},
 414:Generated_Source\PSoC4/cyfitter_cfg.c **** 			{0x42u, 0x11u},
 415:Generated_Source\PSoC4/cyfitter_cfg.c **** 			{0x49u, 0xFFu},
 416:Generated_Source\PSoC4/cyfitter_cfg.c **** 			{0x4Au, 0xFFu},
 417:Generated_Source\PSoC4/cyfitter_cfg.c **** 			{0x4Bu, 0xFFu},
 418:Generated_Source\PSoC4/cyfitter_cfg.c **** 			{0x4Fu, 0x09u},
 419:Generated_Source\PSoC4/cyfitter_cfg.c **** 			{0x52u, 0x87u},
 420:Generated_Source\PSoC4/cyfitter_cfg.c **** 			{0x58u, 0x04u},
 421:Generated_Source\PSoC4/cyfitter_cfg.c **** 			{0x59u, 0x04u},
 422:Generated_Source\PSoC4/cyfitter_cfg.c **** 			{0x5Au, 0x04u},
 423:Generated_Source\PSoC4/cyfitter_cfg.c **** 			{0x5Bu, 0x04u},
 424:Generated_Source\PSoC4/cyfitter_cfg.c **** 			{0x5Fu, 0x01u},
 425:Generated_Source\PSoC4/cyfitter_cfg.c **** 			{0x60u, 0x50u},
 426:Generated_Source\PSoC4/cyfitter_cfg.c **** 			{0x61u, 0xA8u},
 427:Generated_Source\PSoC4/cyfitter_cfg.c **** 			{0x62u, 0x10u},
 428:Generated_Source\PSoC4/cyfitter_cfg.c **** 			{0x63u, 0x30u},
 429:Generated_Source\PSoC4/cyfitter_cfg.c **** 			{0x64u, 0x40u},
 430:Generated_Source\PSoC4/cyfitter_cfg.c **** 			{0x65u, 0x20u},
 431:Generated_Source\PSoC4/cyfitter_cfg.c **** 			{0x66u, 0x50u},
 432:Generated_Source\PSoC4/cyfitter_cfg.c **** 			{0x67u, 0xA8u},
 433:Generated_Source\PSoC4/cyfitter_cfg.c **** 			{0x80u, 0x0Au},
 434:Generated_Source\PSoC4/cyfitter_cfg.c **** 			{0x82u, 0x04u},
 435:Generated_Source\PSoC4/cyfitter_cfg.c **** 			{0x84u, 0x08u},
 436:Generated_Source\PSoC4/cyfitter_cfg.c **** 			{0x90u, 0x04u},
 437:Generated_Source\PSoC4/cyfitter_cfg.c **** 			{0x92u, 0x08u},
 438:Generated_Source\PSoC4/cyfitter_cfg.c **** 			{0x94u, 0x04u},
 439:Generated_Source\PSoC4/cyfitter_cfg.c **** 			{0x96u, 0x08u},
 440:Generated_Source\PSoC4/cyfitter_cfg.c **** 			{0x98u, 0x08u},
 441:Generated_Source\PSoC4/cyfitter_cfg.c **** 			{0xA2u, 0x04u},
 442:Generated_Source\PSoC4/cyfitter_cfg.c **** 			{0xA4u, 0x0Fu},
ARM GAS  C:\Users\EDULU~1.DES\AppData\Local\Temp\cc6B1O7j.s 			page 16


 443:Generated_Source\PSoC4/cyfitter_cfg.c **** 			{0xA8u, 0x03u},
 444:Generated_Source\PSoC4/cyfitter_cfg.c **** 			{0xB0u, 0x0Cu},
 445:Generated_Source\PSoC4/cyfitter_cfg.c **** 			{0xB4u, 0x01u},
 446:Generated_Source\PSoC4/cyfitter_cfg.c **** 			{0xB6u, 0x02u},
 447:Generated_Source\PSoC4/cyfitter_cfg.c **** 			{0xB8u, 0xA0u},
 448:Generated_Source\PSoC4/cyfitter_cfg.c **** 			{0xBAu, 0x02u},
 449:Generated_Source\PSoC4/cyfitter_cfg.c **** 			{0xBEu, 0x50u},
 450:Generated_Source\PSoC4/cyfitter_cfg.c **** 			{0xC0u, 0x42u},
 451:Generated_Source\PSoC4/cyfitter_cfg.c **** 			{0xC2u, 0x33u},
 452:Generated_Source\PSoC4/cyfitter_cfg.c **** 			{0xC5u, 0x03u},
 453:Generated_Source\PSoC4/cyfitter_cfg.c **** 			{0xC7u, 0x07u},
 454:Generated_Source\PSoC4/cyfitter_cfg.c **** 			{0xC8u, 0x11u},
 455:Generated_Source\PSoC4/cyfitter_cfg.c **** 			{0xC9u, 0xFFu},
 456:Generated_Source\PSoC4/cyfitter_cfg.c **** 			{0xCAu, 0xFFu},
 457:Generated_Source\PSoC4/cyfitter_cfg.c **** 			{0xCBu, 0xFFu},
 458:Generated_Source\PSoC4/cyfitter_cfg.c **** 			{0xCDu, 0x0Fu},
 459:Generated_Source\PSoC4/cyfitter_cfg.c **** 			{0xCEu, 0x73u},
 460:Generated_Source\PSoC4/cyfitter_cfg.c **** 			{0xCFu, 0x09u},
 461:Generated_Source\PSoC4/cyfitter_cfg.c **** 			{0xD4u, 0x03u},
 462:Generated_Source\PSoC4/cyfitter_cfg.c **** 			{0xD8u, 0x04u},
 463:Generated_Source\PSoC4/cyfitter_cfg.c **** 			{0xDAu, 0x04u},
 464:Generated_Source\PSoC4/cyfitter_cfg.c **** 			{0xDBu, 0x04u},
 465:Generated_Source\PSoC4/cyfitter_cfg.c **** 			{0xDFu, 0x01u},
 466:Generated_Source\PSoC4/cyfitter_cfg.c **** 			{0xE0u, 0x50u},
 467:Generated_Source\PSoC4/cyfitter_cfg.c **** 			{0xE1u, 0xA8u},
 468:Generated_Source\PSoC4/cyfitter_cfg.c **** 			{0xE2u, 0x10u},
 469:Generated_Source\PSoC4/cyfitter_cfg.c **** 			{0xE3u, 0x30u},
 470:Generated_Source\PSoC4/cyfitter_cfg.c **** 			{0xE4u, 0x40u},
 471:Generated_Source\PSoC4/cyfitter_cfg.c **** 			{0xE5u, 0x20u},
 472:Generated_Source\PSoC4/cyfitter_cfg.c **** 			{0xE6u, 0x50u},
 473:Generated_Source\PSoC4/cyfitter_cfg.c **** 			{0xE7u, 0xA8u},
 474:Generated_Source\PSoC4/cyfitter_cfg.c **** 			{0x01u, 0x02u},
 475:Generated_Source\PSoC4/cyfitter_cfg.c **** 			{0x03u, 0x10u},
 476:Generated_Source\PSoC4/cyfitter_cfg.c **** 			{0x04u, 0x20u},
 477:Generated_Source\PSoC4/cyfitter_cfg.c **** 			{0x05u, 0x05u},
 478:Generated_Source\PSoC4/cyfitter_cfg.c **** 			{0x08u, 0x04u},
 479:Generated_Source\PSoC4/cyfitter_cfg.c **** 			{0x09u, 0x12u},
 480:Generated_Source\PSoC4/cyfitter_cfg.c **** 			{0x0Cu, 0x24u},
 481:Generated_Source\PSoC4/cyfitter_cfg.c **** 			{0x0Eu, 0x01u},
 482:Generated_Source\PSoC4/cyfitter_cfg.c **** 			{0x10u, 0x28u},
 483:Generated_Source\PSoC4/cyfitter_cfg.c **** 			{0x12u, 0x40u},
 484:Generated_Source\PSoC4/cyfitter_cfg.c **** 			{0x16u, 0x40u},
 485:Generated_Source\PSoC4/cyfitter_cfg.c **** 			{0x17u, 0x28u},
 486:Generated_Source\PSoC4/cyfitter_cfg.c **** 			{0x19u, 0x92u},
 487:Generated_Source\PSoC4/cyfitter_cfg.c **** 			{0x1Cu, 0x10u},
 488:Generated_Source\PSoC4/cyfitter_cfg.c **** 			{0x1Du, 0xA3u},
 489:Generated_Source\PSoC4/cyfitter_cfg.c **** 			{0x24u, 0x20u},
 490:Generated_Source\PSoC4/cyfitter_cfg.c **** 			{0x25u, 0x10u},
 491:Generated_Source\PSoC4/cyfitter_cfg.c **** 			{0x27u, 0x18u},
 492:Generated_Source\PSoC4/cyfitter_cfg.c **** 			{0x2Cu, 0x24u},
 493:Generated_Source\PSoC4/cyfitter_cfg.c **** 			{0x2Eu, 0x80u},
 494:Generated_Source\PSoC4/cyfitter_cfg.c **** 			{0x35u, 0x01u},
 495:Generated_Source\PSoC4/cyfitter_cfg.c **** 			{0x37u, 0x18u},
 496:Generated_Source\PSoC4/cyfitter_cfg.c **** 			{0x3Eu, 0x14u},
 497:Generated_Source\PSoC4/cyfitter_cfg.c **** 			{0x40u, 0x10u},
 498:Generated_Source\PSoC4/cyfitter_cfg.c **** 			{0x41u, 0x22u},
 499:Generated_Source\PSoC4/cyfitter_cfg.c **** 			{0x44u, 0x04u},
ARM GAS  C:\Users\EDULU~1.DES\AppData\Local\Temp\cc6B1O7j.s 			page 17


 500:Generated_Source\PSoC4/cyfitter_cfg.c **** 			{0x45u, 0xA2u},
 501:Generated_Source\PSoC4/cyfitter_cfg.c **** 			{0x48u, 0x20u},
 502:Generated_Source\PSoC4/cyfitter_cfg.c **** 			{0x50u, 0x08u},
 503:Generated_Source\PSoC4/cyfitter_cfg.c **** 			{0x59u, 0x90u},
 504:Generated_Source\PSoC4/cyfitter_cfg.c **** 			{0x6Eu, 0x14u},
 505:Generated_Source\PSoC4/cyfitter_cfg.c **** 			{0x6Fu, 0x01u},
 506:Generated_Source\PSoC4/cyfitter_cfg.c **** 			{0x76u, 0xC0u},
 507:Generated_Source\PSoC4/cyfitter_cfg.c **** 			{0x83u, 0x21u},
 508:Generated_Source\PSoC4/cyfitter_cfg.c **** 			{0x85u, 0x80u},
 509:Generated_Source\PSoC4/cyfitter_cfg.c **** 			{0x92u, 0x01u},
 510:Generated_Source\PSoC4/cyfitter_cfg.c **** 			{0x97u, 0x01u},
 511:Generated_Source\PSoC4/cyfitter_cfg.c **** 			{0x99u, 0x04u},
 512:Generated_Source\PSoC4/cyfitter_cfg.c **** 			{0x9Fu, 0x01u},
 513:Generated_Source\PSoC4/cyfitter_cfg.c **** 			{0xAEu, 0x01u},
 514:Generated_Source\PSoC4/cyfitter_cfg.c **** 			{0xC0u, 0x7Cu},
 515:Generated_Source\PSoC4/cyfitter_cfg.c **** 			{0xC2u, 0xEEu},
 516:Generated_Source\PSoC4/cyfitter_cfg.c **** 			{0xC4u, 0x7Eu},
 517:Generated_Source\PSoC4/cyfitter_cfg.c **** 			{0xCAu, 0x70u},
 518:Generated_Source\PSoC4/cyfitter_cfg.c **** 			{0xCCu, 0xE0u},
 519:Generated_Source\PSoC4/cyfitter_cfg.c **** 			{0xCEu, 0x60u},
 520:Generated_Source\PSoC4/cyfitter_cfg.c **** 			{0xD0u, 0xB7u},
 521:Generated_Source\PSoC4/cyfitter_cfg.c **** 			{0xD6u, 0x0Cu},
 522:Generated_Source\PSoC4/cyfitter_cfg.c **** 			{0xE2u, 0x80u},
 523:Generated_Source\PSoC4/cyfitter_cfg.c **** 			{0x61u, 0x40u},
 524:Generated_Source\PSoC4/cyfitter_cfg.c **** 			{0x6Fu, 0x02u},
 525:Generated_Source\PSoC4/cyfitter_cfg.c **** 			{0x82u, 0x80u},
 526:Generated_Source\PSoC4/cyfitter_cfg.c **** 			{0xD6u, 0x40u},
 527:Generated_Source\PSoC4/cyfitter_cfg.c **** 			{0xDAu, 0x80u},
 528:Generated_Source\PSoC4/cyfitter_cfg.c **** 			{0xE2u, 0x80u},
 529:Generated_Source\PSoC4/cyfitter_cfg.c **** 			{0x0Au, 0x10u},
 530:Generated_Source\PSoC4/cyfitter_cfg.c **** 			{0x56u, 0x80u},
 531:Generated_Source\PSoC4/cyfitter_cfg.c **** 			{0x5Du, 0x01u},
 532:Generated_Source\PSoC4/cyfitter_cfg.c **** 			{0x82u, 0x10u},
 533:Generated_Source\PSoC4/cyfitter_cfg.c **** 			{0x87u, 0x02u},
 534:Generated_Source\PSoC4/cyfitter_cfg.c **** 			{0x89u, 0x40u},
 535:Generated_Source\PSoC4/cyfitter_cfg.c **** 			{0x91u, 0x01u},
 536:Generated_Source\PSoC4/cyfitter_cfg.c **** 			{0x9Au, 0x80u},
 537:Generated_Source\PSoC4/cyfitter_cfg.c **** 			{0x9Du, 0x40u},
 538:Generated_Source\PSoC4/cyfitter_cfg.c **** 			{0xA7u, 0x02u},
 539:Generated_Source\PSoC4/cyfitter_cfg.c **** 			{0xADu, 0x01u},
 540:Generated_Source\PSoC4/cyfitter_cfg.c **** 			{0xC2u, 0x10u},
 541:Generated_Source\PSoC4/cyfitter_cfg.c **** 			{0xD4u, 0x40u},
 542:Generated_Source\PSoC4/cyfitter_cfg.c **** 			{0xD6u, 0x80u},
 543:Generated_Source\PSoC4/cyfitter_cfg.c **** 			{0xE0u, 0x80u},
 544:Generated_Source\PSoC4/cyfitter_cfg.c **** 			{0xE2u, 0x10u},
 545:Generated_Source\PSoC4/cyfitter_cfg.c **** 			{0xEAu, 0x10u},
 546:Generated_Source\PSoC4/cyfitter_cfg.c **** 			{0x60u, 0x01u},
 547:Generated_Source\PSoC4/cyfitter_cfg.c **** 			{0xD6u, 0x02u},
 548:Generated_Source\PSoC4/cyfitter_cfg.c **** 			{0x20u, 0x02u},
 549:Generated_Source\PSoC4/cyfitter_cfg.c **** 			{0x24u, 0x01u},
 550:Generated_Source\PSoC4/cyfitter_cfg.c **** 			{0x88u, 0x01u},
 551:Generated_Source\PSoC4/cyfitter_cfg.c **** 			{0x94u, 0x01u},
 552:Generated_Source\PSoC4/cyfitter_cfg.c **** 			{0xC8u, 0x0Cu},
 553:Generated_Source\PSoC4/cyfitter_cfg.c **** 			{0xE2u, 0x01u},
 554:Generated_Source\PSoC4/cyfitter_cfg.c **** 			{0x10u, 0x01u},
 555:Generated_Source\PSoC4/cyfitter_cfg.c **** 			{0x11u, 0x01u},
 556:Generated_Source\PSoC4/cyfitter_cfg.c **** 		};
ARM GAS  C:\Users\EDULU~1.DES\AppData\Local\Temp\cc6B1O7j.s 			page 18


 557:Generated_Source\PSoC4/cyfitter_cfg.c **** 
 558:Generated_Source\PSoC4/cyfitter_cfg.c **** 
 559:Generated_Source\PSoC4/cyfitter_cfg.c **** 
 560:Generated_Source\PSoC4/cyfitter_cfg.c **** 		CYPACKED typedef struct {
 398              		.loc 1 560 12 view .LVU79
 561:Generated_Source\PSoC4/cyfitter_cfg.c **** 			void CYFAR *address;
 562:Generated_Source\PSoC4/cyfitter_cfg.c **** 			uint16 size;
 563:Generated_Source\PSoC4/cyfitter_cfg.c **** 		} CYPACKED_ATTR cfg_memset_t;
 564:Generated_Source\PSoC4/cyfitter_cfg.c **** 
 565:Generated_Source\PSoC4/cyfitter_cfg.c **** 		static const cfg_memset_t CYCODE cfg_memset_list[] = {
 399              		.loc 1 565 3 view .LVU80
 566:Generated_Source\PSoC4/cyfitter_cfg.c **** 			/* address, size */
 567:Generated_Source\PSoC4/cyfitter_cfg.c **** 			{(void CYFAR *)(CYDEV_UDB_P0_U0_BASE), 1024u},
 568:Generated_Source\PSoC4/cyfitter_cfg.c **** 			{(void CYFAR *)(CYDEV_UDB_DSI0_BASE), 1024u},
 569:Generated_Source\PSoC4/cyfitter_cfg.c **** 		};
 570:Generated_Source\PSoC4/cyfitter_cfg.c **** 
 571:Generated_Source\PSoC4/cyfitter_cfg.c **** 		uint8 CYDATA i;
 400              		.loc 1 571 3 view .LVU81
 572:Generated_Source\PSoC4/cyfitter_cfg.c **** 
 573:Generated_Source\PSoC4/cyfitter_cfg.c **** 		/* Zero out critical memory blocks before beginning configuration */
 574:Generated_Source\PSoC4/cyfitter_cfg.c **** 		for (i = 0u; i < (sizeof(cfg_memset_list)/sizeof(cfg_memset_list[0])); i++)
 401              		.loc 1 574 3 view .LVU82
 402              	.LVL25:
 403              		.loc 1 574 10 is_stmt 0 view .LVU83
 404 00ce 0024     		movs	r4, #0
 405              		.loc 1 574 3 view .LVU84
 406 00d0 0FE0     		b	.L21
 407              	.LVL26:
 408              	.L22:
 409              	.LBB4:
 575:Generated_Source\PSoC4/cyfitter_cfg.c **** 		{
 576:Generated_Source\PSoC4/cyfitter_cfg.c **** 			const cfg_memset_t CYCODE * CYDATA ms = &cfg_memset_list[i];
 410              		.loc 1 576 4 is_stmt 1 discriminator 3 view .LVU85
 577:Generated_Source\PSoC4/cyfitter_cfg.c **** 			CYMEMZERO(ms->address, (size_t)(uint32)(ms->size));
 411              		.loc 1 577 4 discriminator 3 view .LVU86
 412              		.loc 1 577 46 is_stmt 0 discriminator 3 view .LVU87
 413 00d2 454B     		ldr	r3, .L23+4
 414 00d4 6200     		lsls	r2, r4, #1
 415 00d6 1019     		adds	r0, r2, r4
 416 00d8 4100     		lsls	r1, r0, #1
 417 00da 0800     		movs	r0, r1
 418 00dc 5918     		adds	r1, r3, r1
 419 00de 8988     		ldrh	r1, [r1, #4]
 420              		.loc 1 577 4 discriminator 3 view .LVU88
 421 00e0 C25A     		ldrh	r2, [r0, r3]
 422 00e2 1B18     		adds	r3, r3, r0
 423 00e4 5888     		ldrh	r0, [r3, #2]
 424 00e6 0004     		lsls	r0, r0, #16
 425 00e8 1043     		orrs	r0, r2
 426 00ea FFF7FEFF 		bl	CYMEMZERO
 427              	.LVL27:
 428              	.LBE4:
 574:Generated_Source\PSoC4/cyfitter_cfg.c **** 		{
 429              		.loc 1 574 75 discriminator 3 view .LVU89
 430 00ee 0134     		adds	r4, r4, #1
 431              	.LVL28:
 574:Generated_Source\PSoC4/cyfitter_cfg.c **** 		{
ARM GAS  C:\Users\EDULU~1.DES\AppData\Local\Temp\cc6B1O7j.s 			page 19


 432              		.loc 1 574 75 discriminator 3 view .LVU90
 433 00f0 E4B2     		uxtb	r4, r4
 434              	.LVL29:
 435              	.L21:
 574:Generated_Source\PSoC4/cyfitter_cfg.c **** 		{
 436              		.loc 1 574 3 discriminator 1 view .LVU91
 437 00f2 012C     		cmp	r4, #1
 438 00f4 EDD9     		bls	.L22
 578:Generated_Source\PSoC4/cyfitter_cfg.c **** 		}
 579:Generated_Source\PSoC4/cyfitter_cfg.c **** 
 580:Generated_Source\PSoC4/cyfitter_cfg.c **** 		cfg_write_bytes32(cy_cfg_addr_table, cy_cfg_data_table);
 439              		.loc 1 580 3 is_stmt 1 view .LVU92
 440 00f6 3C48     		ldr	r0, .L23+4
 441 00f8 3C49     		ldr	r1, .L23+8
 442 00fa 0C30     		adds	r0, r0, #12
 443 00fc FFF7FEFF 		bl	cfg_write_bytes32
 444              	.LVL30:
 581:Generated_Source\PSoC4/cyfitter_cfg.c **** 
 582:Generated_Source\PSoC4/cyfitter_cfg.c **** 		/* Perform normal device configuration. Order is not critical for these items. */
 583:Generated_Source\PSoC4/cyfitter_cfg.c **** 		CY_SET_REG16((void *)(CYREG_UDB_BCTL0_DRV), 0x0100u);
 445              		.loc 1 583 3 view .LVU93
 446 0100 3B4B     		ldr	r3, .L23+12
 447 0102 8022     		movs	r2, #128
 448 0104 5200     		lsls	r2, r2, #1
 449 0106 1A80     		strh	r2, [r3]
 584:Generated_Source\PSoC4/cyfitter_cfg.c **** 		CY_SET_REG8((void *)(CYREG_UDB_BCTL0_DRV + 0x2u), 0x01u);
 450              		.loc 1 584 3 view .LVU94
 451 0108 FF3A     		subs	r2, r2, #255
 452 010a 3A4B     		ldr	r3, .L23+16
 453 010c 1A70     		strb	r2, [r3]
 585:Generated_Source\PSoC4/cyfitter_cfg.c **** 
 586:Generated_Source\PSoC4/cyfitter_cfg.c **** 		/* HSIOM Starting address: CYDEV_HSIOM_BASE */
 587:Generated_Source\PSoC4/cyfitter_cfg.c **** 		CY_SET_REG32((void *)(CYDEV_HSIOM_BASE), 0x03000000u);
 454              		.loc 1 587 3 view .LVU95
 455 010e C023     		movs	r3, #192
 456 0110 9B04     		lsls	r3, r3, #18
 457 0112 3949     		ldr	r1, .L23+20
 458 0114 0B60     		str	r3, [r1]
 588:Generated_Source\PSoC4/cyfitter_cfg.c **** 		CY_SET_REG32((void *)(CYREG_HSIOM_PORT_SEL1), 0x00300070u);
 459              		.loc 1 588 3 view .LVU96
 460 0116 3949     		ldr	r1, .L23+24
 461 0118 3948     		ldr	r0, .L23+28
 462 011a 0860     		str	r0, [r1]
 589:Generated_Source\PSoC4/cyfitter_cfg.c **** 		CY_SET_REG32((void *)(CYREG_HSIOM_PORT_SEL2), 0x03000000u);
 463              		.loc 1 589 3 view .LVU97
 464 011c 3949     		ldr	r1, .L23+32
 465 011e 0B60     		str	r3, [r1]
 590:Generated_Source\PSoC4/cyfitter_cfg.c **** 		CY_SET_REG32((void *)(CYREG_HSIOM_PORT_SEL3), 0x0080EE00u);
 466              		.loc 1 590 3 view .LVU98
 467 0120 394B     		ldr	r3, .L23+36
 468 0122 3A49     		ldr	r1, .L23+40
 469 0124 1960     		str	r1, [r3]
 591:Generated_Source\PSoC4/cyfitter_cfg.c **** 		CY_SET_REG32((void *)(CYREG_HSIOM_PORT_SEL4), 0x000000EEu);
 470              		.loc 1 591 3 view .LVU99
 471 0126 3A4B     		ldr	r3, .L23+44
 472 0128 EE21     		movs	r1, #238
 473 012a 1960     		str	r1, [r3]
ARM GAS  C:\Users\EDULU~1.DES\AppData\Local\Temp\cc6B1O7j.s 			page 20


 592:Generated_Source\PSoC4/cyfitter_cfg.c **** 
 593:Generated_Source\PSoC4/cyfitter_cfg.c **** 		/* UDB_PA_0 Starting address: CYDEV_UDB_PA0_BASE */
 594:Generated_Source\PSoC4/cyfitter_cfg.c **** 		CY_SET_REG32((void *)(CYDEV_UDB_PA0_BASE), 0x00990000u);
 474              		.loc 1 594 3 view .LVU100
 475 012c 9923     		movs	r3, #153
 476 012e 1B04     		lsls	r3, r3, #16
 477 0130 3849     		ldr	r1, .L23+48
 478 0132 0B60     		str	r3, [r1]
 595:Generated_Source\PSoC4/cyfitter_cfg.c **** 		CY_SET_REG32((void *)(CYREG_UDB_PA0_CFG4), 0x80000000u);
 479              		.loc 1 595 3 view .LVU101
 480 0134 3849     		ldr	r1, .L23+52
 481 0136 8020     		movs	r0, #128
 482 0138 0006     		lsls	r0, r0, #24
 483 013a 0860     		str	r0, [r1]
 596:Generated_Source\PSoC4/cyfitter_cfg.c **** 		CY_SET_REG32((void *)(CYREG_UDB_PA0_CFG8), 0x45000000u);
 484              		.loc 1 596 3 view .LVU102
 485 013c 8A21     		movs	r1, #138
 486 013e C905     		lsls	r1, r1, #23
 487 0140 3648     		ldr	r0, .L23+56
 488 0142 0160     		str	r1, [r0]
 597:Generated_Source\PSoC4/cyfitter_cfg.c **** 
 598:Generated_Source\PSoC4/cyfitter_cfg.c **** 		/* UDB_PA_1 Starting address: CYDEV_UDB_PA1_BASE */
 599:Generated_Source\PSoC4/cyfitter_cfg.c **** 		CY_SET_REG32((void *)(CYDEV_UDB_PA1_BASE), 0x00990004u);
 489              		.loc 1 599 3 view .LVU103
 490 0144 3648     		ldr	r0, .L23+60
 491 0146 374C     		ldr	r4, .L23+64
 492              	.LVL31:
 493              		.loc 1 599 3 is_stmt 0 view .LVU104
 494 0148 0460     		str	r4, [r0]
 600:Generated_Source\PSoC4/cyfitter_cfg.c **** 		CY_SET_REG32((void *)(CYREG_UDB_PA1_CFG4), 0x02000000u);
 495              		.loc 1 600 3 is_stmt 1 view .LVU105
 496 014a 3748     		ldr	r0, .L23+68
 497 014c 8024     		movs	r4, #128
 498 014e A404     		lsls	r4, r4, #18
 499 0150 0460     		str	r4, [r0]
 601:Generated_Source\PSoC4/cyfitter_cfg.c **** 		CY_SET_REG32((void *)(CYREG_UDB_PA1_CFG8), 0x04040000u);
 500              		.loc 1 601 3 view .LVU106
 501 0152 3648     		ldr	r0, .L23+72
 502 0154 364C     		ldr	r4, .L23+76
 503 0156 0460     		str	r4, [r0]
 602:Generated_Source\PSoC4/cyfitter_cfg.c **** 
 603:Generated_Source\PSoC4/cyfitter_cfg.c **** 		/* UDB_PA_2 Starting address: CYDEV_UDB_PA2_BASE */
 604:Generated_Source\PSoC4/cyfitter_cfg.c **** 		CY_SET_REG32((void *)(CYDEV_UDB_PA2_BASE), 0x00990000u);
 504              		.loc 1 604 3 view .LVU107
 505 0158 3648     		ldr	r0, .L23+80
 506 015a 0360     		str	r3, [r0]
 605:Generated_Source\PSoC4/cyfitter_cfg.c **** 		CY_SET_REG32((void *)(CYREG_UDB_PA2_CFG8), 0x45000000u);
 507              		.loc 1 605 3 view .LVU108
 508 015c 3648     		ldr	r0, .L23+84
 509 015e 0160     		str	r1, [r0]
 606:Generated_Source\PSoC4/cyfitter_cfg.c **** 
 607:Generated_Source\PSoC4/cyfitter_cfg.c **** 		/* UDB_PA_3 Starting address: CYDEV_UDB_PA3_BASE */
 608:Generated_Source\PSoC4/cyfitter_cfg.c **** 		CY_SET_REG32((void *)(CYDEV_UDB_PA3_BASE), 0x00990000u);
 510              		.loc 1 608 3 view .LVU109
 511 0160 3649     		ldr	r1, .L23+88
 512 0162 0B60     		str	r3, [r1]
 609:Generated_Source\PSoC4/cyfitter_cfg.c **** 
ARM GAS  C:\Users\EDULU~1.DES\AppData\Local\Temp\cc6B1O7j.s 			page 21


 610:Generated_Source\PSoC4/cyfitter_cfg.c **** 		/* INT_SELECT Starting address: CYDEV_CPUSS_INTR_SELECT */
 611:Generated_Source\PSoC4/cyfitter_cfg.c **** 		CY_SET_REG32((void *)(CYREG_CPUSS_INTR_SELECT), 0x00000001u);
 513              		.loc 1 611 3 view .LVU110
 514 0164 364B     		ldr	r3, .L23+92
 515 0166 1A60     		str	r2, [r3]
 612:Generated_Source\PSoC4/cyfitter_cfg.c **** 
 613:Generated_Source\PSoC4/cyfitter_cfg.c **** 		/* INT_CONFIG Starting address: CYDEV_UDB_INT_CFG */
 614:Generated_Source\PSoC4/cyfitter_cfg.c **** 		CY_SET_REG32((void *)(CYREG_UDB_INT_CFG), 0x00000002u);
 516              		.loc 1 614 3 view .LVU111
 517 0168 364B     		ldr	r3, .L23+96
 518 016a 0132     		adds	r2, r2, #1
 519 016c 1A60     		str	r2, [r3]
 615:Generated_Source\PSoC4/cyfitter_cfg.c **** 
 616:Generated_Source\PSoC4/cyfitter_cfg.c **** 		/* Enable UDB array and digital routing */
 617:Generated_Source\PSoC4/cyfitter_cfg.c **** 		CY_SET_XTND_REG8((void *)CYREG_UDB_UDBIF_WAIT_CFG, (uint8)((CY_GET_XTND_REG8((void *)CYREG_UDB_UD
 520              		.loc 1 617 3 view .LVU112
 521 016e 364A     		ldr	r2, .L23+100
 522 0170 1378     		ldrb	r3, [r2]
 523 0172 3C21     		movs	r1, #60
 524 0174 8B43     		bics	r3, r1
 525 0176 1421     		movs	r1, #20
 526 0178 0B43     		orrs	r3, r1
 527 017a 1370     		strb	r3, [r2]
 618:Generated_Source\PSoC4/cyfitter_cfg.c **** 		CY_SET_XTND_REG8((void *)CYREG_UDB_UDBIF_BANK_CTL, (uint8)(CY_GET_XTND_REG8((void *)CYREG_UDB_UDB
 528              		.loc 1 618 3 view .LVU113
 529 017c 334A     		ldr	r2, .L23+104
 530 017e 1378     		ldrb	r3, [r2]
 531 0180 1621     		movs	r1, #22
 532 0182 0B43     		orrs	r3, r1
 533 0184 1370     		strb	r3, [r2]
 534              	.LBE3:
 619:Generated_Source\PSoC4/cyfitter_cfg.c **** 	}
 620:Generated_Source\PSoC4/cyfitter_cfg.c **** 
 621:Generated_Source\PSoC4/cyfitter_cfg.c **** 	/* Perform second pass device configuration. These items must be configured in specific order afte
 622:Generated_Source\PSoC4/cyfitter_cfg.c **** 	/* IOPINS0_0 Starting address: CYDEV_PRT0_BASE */
 623:Generated_Source\PSoC4/cyfitter_cfg.c **** 	CY_SET_REG32((void *)(CYDEV_PRT0_BASE), 0x000000C0u);
 535              		.loc 1 623 2 view .LVU114
 536 0186 C023     		movs	r3, #192
 537 0188 314A     		ldr	r2, .L23+108
 538 018a 1360     		str	r3, [r2]
 624:Generated_Source\PSoC4/cyfitter_cfg.c **** 	CY_SET_REG32((void *)(CYREG_PRT0_PC), 0x00580000u);
 539              		.loc 1 624 2 view .LVU115
 540 018c 314A     		ldr	r2, .L23+112
 541 018e B021     		movs	r1, #176
 542 0190 C903     		lsls	r1, r1, #15
 543 0192 1160     		str	r1, [r2]
 625:Generated_Source\PSoC4/cyfitter_cfg.c **** 
 626:Generated_Source\PSoC4/cyfitter_cfg.c **** 	/* IOPINS0_1 Starting address: CYDEV_PRT1_BASE */
 627:Generated_Source\PSoC4/cyfitter_cfg.c **** 	CY_SET_REG32((void *)(CYDEV_PRT1_BASE), 0x00000025u);
 544              		.loc 1 627 2 view .LVU116
 545 0194 304A     		ldr	r2, .L23+116
 546 0196 2521     		movs	r1, #37
 547 0198 1160     		str	r1, [r2]
 628:Generated_Source\PSoC4/cyfitter_cfg.c **** 	CY_SET_REG32((void *)(CYREG_PRT1_PC), 0x00071000u);
 548              		.loc 1 628 2 view .LVU117
 549 019a 304A     		ldr	r2, .L23+120
 550 019c E221     		movs	r1, #226
ARM GAS  C:\Users\EDULU~1.DES\AppData\Local\Temp\cc6B1O7j.s 			page 22


 551 019e C902     		lsls	r1, r1, #11
 552 01a0 1160     		str	r1, [r2]
 629:Generated_Source\PSoC4/cyfitter_cfg.c **** 	CY_SET_REG32((void *)(CYREG_PRT1_INTCFG), 0x00001000u);
 553              		.loc 1 629 2 view .LVU118
 554 01a2 2F4A     		ldr	r2, .L23+124
 555 01a4 8021     		movs	r1, #128
 556 01a6 4901     		lsls	r1, r1, #5
 557 01a8 1160     		str	r1, [r2]
 630:Generated_Source\PSoC4/cyfitter_cfg.c **** 	CY_SET_REG32((void *)(CYREG_PRT1_PC2), 0x00000005u);
 558              		.loc 1 630 2 view .LVU119
 559 01aa 2E4A     		ldr	r2, .L23+128
 560 01ac 0521     		movs	r1, #5
 561 01ae 1160     		str	r1, [r2]
 631:Generated_Source\PSoC4/cyfitter_cfg.c **** 
 632:Generated_Source\PSoC4/cyfitter_cfg.c **** 	/* IOPINS0_2 Starting address: CYDEV_PRT2_BASE */
 633:Generated_Source\PSoC4/cyfitter_cfg.c **** 	CY_SET_REG32((void *)(CYDEV_PRT2_BASE), 0x000000C0u);
 562              		.loc 1 633 2 view .LVU120
 563 01b0 2D4A     		ldr	r2, .L23+132
 564 01b2 1360     		str	r3, [r2]
 634:Generated_Source\PSoC4/cyfitter_cfg.c **** 	CY_SET_REG32((void *)(CYREG_PRT2_PC), 0x00180000u);
 565              		.loc 1 634 2 view .LVU121
 566 01b4 2D4B     		ldr	r3, .L23+136
 567 01b6 C022     		movs	r2, #192
 568 01b8 5203     		lsls	r2, r2, #13
 569 01ba 1A60     		str	r2, [r3]
 635:Generated_Source\PSoC4/cyfitter_cfg.c **** 	CY_SET_REG32((void *)(CYREG_PRT2_PC2), 0x00000080u);
 570              		.loc 1 635 2 view .LVU122
 571 01bc 2C4B     		ldr	r3, .L23+140
 572 01be 8022     		movs	r2, #128
 573 01c0 1A60     		str	r2, [r3]
 636:Generated_Source\PSoC4/cyfitter_cfg.c **** 
 637:Generated_Source\PSoC4/cyfitter_cfg.c **** 	/* IOPINS0_3 Starting address: CYDEV_PRT3_BASE */
 638:Generated_Source\PSoC4/cyfitter_cfg.c **** 	CY_SET_REG32((void *)(CYDEV_PRT3_BASE), 0x00000020u);
 574              		.loc 1 638 2 view .LVU123
 575 01c2 2C4B     		ldr	r3, .L23+144
 576 01c4 603A     		subs	r2, r2, #96
 577 01c6 1A60     		str	r2, [r3]
 639:Generated_Source\PSoC4/cyfitter_cfg.c **** 	CY_SET_REG32((void *)(CYREG_PRT3_PC), 0x00030D80u);
 578              		.loc 1 639 2 view .LVU124
 579 01c8 2B4B     		ldr	r3, .L23+148
 580 01ca 2C4A     		ldr	r2, .L23+152
 581 01cc 1A60     		str	r2, [r3]
 640:Generated_Source\PSoC4/cyfitter_cfg.c **** 
 641:Generated_Source\PSoC4/cyfitter_cfg.c **** 	/* IOPINS0_4 Starting address: CYDEV_PRT4_BASE */
 642:Generated_Source\PSoC4/cyfitter_cfg.c **** 	CY_SET_REG32((void *)(CYDEV_PRT4_BASE), 0x00000003u);
 582              		.loc 1 642 2 view .LVU125
 583 01ce 2C4B     		ldr	r3, .L23+156
 584 01d0 0322     		movs	r2, #3
 585 01d2 1A60     		str	r2, [r3]
 643:Generated_Source\PSoC4/cyfitter_cfg.c **** 	CY_SET_REG32((void *)(CYREG_PRT4_PC), 0x00000024u);
 586              		.loc 1 643 2 view .LVU126
 587 01d4 2B4B     		ldr	r3, .L23+160
 588 01d6 2132     		adds	r2, r2, #33
 589 01d8 1A60     		str	r2, [r3]
 644:Generated_Source\PSoC4/cyfitter_cfg.c **** 
 645:Generated_Source\PSoC4/cyfitter_cfg.c **** 
 646:Generated_Source\PSoC4/cyfitter_cfg.c **** 	/* Setup clocks based on selections from Clock DWR */
ARM GAS  C:\Users\EDULU~1.DES\AppData\Local\Temp\cc6B1O7j.s 			page 23


 647:Generated_Source\PSoC4/cyfitter_cfg.c **** 	ClockSetup();
 590              		.loc 1 647 2 view .LVU127
 591 01da FFF711FF 		bl	ClockSetup
 592              	.LVL32:
 648:Generated_Source\PSoC4/cyfitter_cfg.c **** 
 649:Generated_Source\PSoC4/cyfitter_cfg.c **** 	/* Perform basic analog initialization to defaults */
 650:Generated_Source\PSoC4/cyfitter_cfg.c **** 	AnalogSetDefault();
 593              		.loc 1 650 2 view .LVU128
 594 01de FFF7FEFF 		bl	AnalogSetDefault
 595              	.LVL33:
 651:Generated_Source\PSoC4/cyfitter_cfg.c **** 
 652:Generated_Source\PSoC4/cyfitter_cfg.c **** }
 596              		.loc 1 652 1 is_stmt 0 view .LVU129
 597              		@ sp needed
 598 01e2 70BD     		pop	{r4, r5, r6, pc}
 599              	.L24:
 600              		.align	2
 601              	.L23:
 602 01e4 1C700F40 		.word	1074753564
 603 01e8 00000000 		.word	.LANCHOR0
 604 01ec 30000000 		.word	cy_cfg_data_table.5005
 605 01f0 00600F40 		.word	1074749440
 606 01f4 02600F40 		.word	1074749442
 607 01f8 00000140 		.word	1073807360
 608 01fc 04000140 		.word	1073807364
 609 0200 70003000 		.word	3145840
 610 0204 08000140 		.word	1073807368
 611 0208 0C000140 		.word	1073807372
 612 020c 00EE8000 		.word	8449536
 613 0210 10000140 		.word	1073807376
 614 0214 00500F40 		.word	1074745344
 615 0218 04500F40 		.word	1074745348
 616 021c 08500F40 		.word	1074745352
 617 0220 10500F40 		.word	1074745360
 618 0224 04009900 		.word	10027012
 619 0228 14500F40 		.word	1074745364
 620 022c 18500F40 		.word	1074745368
 621 0230 00000404 		.word	67371008
 622 0234 20500F40 		.word	1074745376
 623 0238 28500F40 		.word	1074745384
 624 023c 30500F40 		.word	1074745392
 625 0240 20000040 		.word	1073741856
 626 0244 00800F40 		.word	1074757632
 627 0248 01700F40 		.word	1074753537
 628 024c 00700F40 		.word	1074753536
 629 0250 00000440 		.word	1074003968
 630 0254 08000440 		.word	1074003976
 631 0258 00010440 		.word	1074004224
 632 025c 08010440 		.word	1074004232
 633 0260 0C010440 		.word	1074004236
 634 0264 18010440 		.word	1074004248
 635 0268 00020440 		.word	1074004480
 636 026c 08020440 		.word	1074004488
 637 0270 18020440 		.word	1074004504
 638 0274 00030440 		.word	1074004736
 639 0278 08030440 		.word	1074004744
 640 027c 800D0300 		.word	200064
ARM GAS  C:\Users\EDULU~1.DES\AppData\Local\Temp\cc6B1O7j.s 			page 24


 641 0280 00040440 		.word	1074004992
 642 0284 08040440 		.word	1074005000
 643              		.cfi_endproc
 644              	.LFE7:
 645              		.size	cyfitter_cfg, .-cyfitter_cfg
 646              		.section	.rodata
 647              		.align	2
 648              		.set	.LANCHOR0,. + 0
 649              		.type	cfg_memset_list.5010, %object
 650              		.size	cfg_memset_list.5010, 12
 651              	cfg_memset_list.5010:
 652 0000 00300F40 		.word	1074737152
 653 0004 0004     		.short	1024
 654 0006 00400F40 		.4byte	1074741248
 655 000a 0004     		.short	1024
 656              		.type	cy_cfg_addr_table.5004, %object
 657              		.size	cy_cfg_addr_table.5004, 36
 658              	cy_cfg_addr_table.5004:
 659 000c 0F300F40 		.word	1074737167
 660 0010 0A310F40 		.word	1074737418
 661 0014 62320F40 		.word	1074737762
 662 0018 31330F40 		.word	1074737969
 663 001c 06400F40 		.word	1074741254
 664 0020 11410F40 		.word	1074741521
 665 0024 02420F40 		.word	1074741762
 666 0028 06430F40 		.word	1074742022
 667 002c 02600F40 		.word	1074749442
 668              		.type	cy_cfg_data_table.5005, %object
 669              		.size	cy_cfg_data_table.5005, 410
 670              	cy_cfg_data_table.5005:
 671 0030 80       		.byte	-128
 672 0031 02       		.byte	2
 673 0032 82       		.byte	-126
 674 0033 01       		.byte	1
 675 0034 8E       		.byte	-114
 676 0035 08       		.byte	8
 677 0036 98       		.byte	-104
 678 0037 01       		.byte	1
 679 0038 9A       		.byte	-102
 680 0039 06       		.byte	6
 681 003a 9E       		.byte	-98
 682 003b 10       		.byte	16
 683 003c B0       		.byte	-80
 684 003d 04       		.byte	4
 685 003e B2       		.byte	-78
 686 003f 10       		.byte	16
 687 0040 B4       		.byte	-76
 688 0041 08       		.byte	8
 689 0042 B5       		.byte	-75
 690 0043 01       		.byte	1
 691 0044 B6       		.byte	-74
 692 0045 03       		.byte	3
 693 0046 BF       		.byte	-65
 694 0047 10       		.byte	16
 695 0048 D8       		.byte	-40
 696 0049 04       		.byte	4
 697 004a D9       		.byte	-39
ARM GAS  C:\Users\EDULU~1.DES\AppData\Local\Temp\cc6B1O7j.s 			page 25


 698 004b 04       		.byte	4
 699 004c DF       		.byte	-33
 700 004d 01       		.byte	1
 701 004e 05       		.byte	5
 702 004f 01       		.byte	1
 703 0050 07       		.byte	7
 704 0051 01       		.byte	1
 705 0052 0D       		.byte	13
 706 0053 20       		.byte	32
 707 0054 0F       		.byte	15
 708 0055 01       		.byte	1
 709 0056 1D       		.byte	29
 710 0057 25       		.byte	37
 711 0058 1E       		.byte	30
 712 0059 01       		.byte	1
 713 005a 27       		.byte	39
 714 005b 04       		.byte	4
 715 005c 83       		.byte	-125
 716 005d 04       		.byte	4
 717 005e C0       		.byte	-64
 718 005f 90       		.byte	-112
 719 0060 C2       		.byte	-62
 720 0061 C0       		.byte	-64
 721 0062 00       		.byte	0
 722 0063 2A       		.byte	42
 723 0064 02       		.byte	2
 724 0065 55       		.byte	85
 725 0066 04       		.byte	4
 726 0067 11       		.byte	17
 727 0068 05       		.byte	5
 728 0069 01       		.byte	1
 729 006a 06       		.byte	6
 730 006b 0A       		.byte	10
 731 006c 07       		.byte	7
 732 006d 02       		.byte	2
 733 006e 08       		.byte	8
 734 006f 40       		.byte	64
 735 0070 09       		.byte	9
 736 0071 08       		.byte	8
 737 0072 0B       		.byte	11
 738 0073 10       		.byte	16
 739 0074 11       		.byte	17
 740 0075 1B       		.byte	27
 741 0076 13       		.byte	19
 742 0077 64       		.byte	100
 743 0078 14       		.byte	20
 744 0079 35       		.byte	53
 745 007a 15       		.byte	21
 746 007b 02       		.byte	2
 747 007c 16       		.byte	22
 748 007d CA       		.byte	-54
 749 007e 17       		.byte	23
 750 007f 25       		.byte	37
 751 0080 18       		.byte	24
 752 0081 36       		.byte	54
 753 0082 19       		.byte	25
 754 0083 14       		.byte	20
ARM GAS  C:\Users\EDULU~1.DES\AppData\Local\Temp\cc6B1O7j.s 			page 26


 755 0084 1A       		.byte	26
 756 0085 80       		.byte	-128
 757 0086 1B       		.byte	27
 758 0087 48       		.byte	72
 759 0088 1E       		.byte	30
 760 0089 20       		.byte	32
 761 008a 22       		.byte	34
 762 008b 20       		.byte	32
 763 008c 24       		.byte	36
 764 008d 40       		.byte	64
 765 008e 25       		.byte	37
 766 008f 7F       		.byte	127
 767 0090 28       		.byte	40
 768 0091 0A       		.byte	10
 769 0092 29       		.byte	41
 770 0093 1B       		.byte	27
 771 0094 2A       		.byte	42
 772 0095 11       		.byte	17
 773 0096 2B       		.byte	43
 774 0097 64       		.byte	100
 775 0098 2F       		.byte	47
 776 0099 1B       		.byte	27
 777 009a 30       		.byte	48
 778 009b 06       		.byte	6
 779 009c 32       		.byte	50
 780 009d 01       		.byte	1
 781 009e 33       		.byte	51
 782 009f 78       		.byte	120
 783 00a0 34       		.byte	52
 784 00a1 F8       		.byte	-8
 785 00a2 35       		.byte	53
 786 00a3 07       		.byte	7
 787 00a4 36       		.byte	54
 788 00a5 01       		.byte	1
 789 00a6 3A       		.byte	58
 790 00a7 20       		.byte	32
 791 00a8 3B       		.byte	59
 792 00a9 28       		.byte	40
 793 00aa 3E       		.byte	62
 794 00ab 44       		.byte	68
 795 00ac 40       		.byte	64
 796 00ad 42       		.byte	66
 797 00ae 42       		.byte	66
 798 00af 11       		.byte	17
 799 00b0 49       		.byte	73
 800 00b1 FF       		.byte	-1
 801 00b2 4A       		.byte	74
 802 00b3 FF       		.byte	-1
 803 00b4 4B       		.byte	75
 804 00b5 FF       		.byte	-1
 805 00b6 4F       		.byte	79
 806 00b7 09       		.byte	9
 807 00b8 52       		.byte	82
 808 00b9 87       		.byte	-121
 809 00ba 58       		.byte	88
 810 00bb 04       		.byte	4
 811 00bc 59       		.byte	89
ARM GAS  C:\Users\EDULU~1.DES\AppData\Local\Temp\cc6B1O7j.s 			page 27


 812 00bd 04       		.byte	4
 813 00be 5A       		.byte	90
 814 00bf 04       		.byte	4
 815 00c0 5B       		.byte	91
 816 00c1 04       		.byte	4
 817 00c2 5F       		.byte	95
 818 00c3 01       		.byte	1
 819 00c4 60       		.byte	96
 820 00c5 50       		.byte	80
 821 00c6 61       		.byte	97
 822 00c7 A8       		.byte	-88
 823 00c8 62       		.byte	98
 824 00c9 10       		.byte	16
 825 00ca 63       		.byte	99
 826 00cb 30       		.byte	48
 827 00cc 64       		.byte	100
 828 00cd 40       		.byte	64
 829 00ce 65       		.byte	101
 830 00cf 20       		.byte	32
 831 00d0 66       		.byte	102
 832 00d1 50       		.byte	80
 833 00d2 67       		.byte	103
 834 00d3 A8       		.byte	-88
 835 00d4 80       		.byte	-128
 836 00d5 0A       		.byte	10
 837 00d6 82       		.byte	-126
 838 00d7 04       		.byte	4
 839 00d8 84       		.byte	-124
 840 00d9 08       		.byte	8
 841 00da 90       		.byte	-112
 842 00db 04       		.byte	4
 843 00dc 92       		.byte	-110
 844 00dd 08       		.byte	8
 845 00de 94       		.byte	-108
 846 00df 04       		.byte	4
 847 00e0 96       		.byte	-106
 848 00e1 08       		.byte	8
 849 00e2 98       		.byte	-104
 850 00e3 08       		.byte	8
 851 00e4 A2       		.byte	-94
 852 00e5 04       		.byte	4
 853 00e6 A4       		.byte	-92
 854 00e7 0F       		.byte	15
 855 00e8 A8       		.byte	-88
 856 00e9 03       		.byte	3
 857 00ea B0       		.byte	-80
 858 00eb 0C       		.byte	12
 859 00ec B4       		.byte	-76
 860 00ed 01       		.byte	1
 861 00ee B6       		.byte	-74
 862 00ef 02       		.byte	2
 863 00f0 B8       		.byte	-72
 864 00f1 A0       		.byte	-96
 865 00f2 BA       		.byte	-70
 866 00f3 02       		.byte	2
 867 00f4 BE       		.byte	-66
 868 00f5 50       		.byte	80
ARM GAS  C:\Users\EDULU~1.DES\AppData\Local\Temp\cc6B1O7j.s 			page 28


 869 00f6 C0       		.byte	-64
 870 00f7 42       		.byte	66
 871 00f8 C2       		.byte	-62
 872 00f9 33       		.byte	51
 873 00fa C5       		.byte	-59
 874 00fb 03       		.byte	3
 875 00fc C7       		.byte	-57
 876 00fd 07       		.byte	7
 877 00fe C8       		.byte	-56
 878 00ff 11       		.byte	17
 879 0100 C9       		.byte	-55
 880 0101 FF       		.byte	-1
 881 0102 CA       		.byte	-54
 882 0103 FF       		.byte	-1
 883 0104 CB       		.byte	-53
 884 0105 FF       		.byte	-1
 885 0106 CD       		.byte	-51
 886 0107 0F       		.byte	15
 887 0108 CE       		.byte	-50
 888 0109 73       		.byte	115
 889 010a CF       		.byte	-49
 890 010b 09       		.byte	9
 891 010c D4       		.byte	-44
 892 010d 03       		.byte	3
 893 010e D8       		.byte	-40
 894 010f 04       		.byte	4
 895 0110 DA       		.byte	-38
 896 0111 04       		.byte	4
 897 0112 DB       		.byte	-37
 898 0113 04       		.byte	4
 899 0114 DF       		.byte	-33
 900 0115 01       		.byte	1
 901 0116 E0       		.byte	-32
 902 0117 50       		.byte	80
 903 0118 E1       		.byte	-31
 904 0119 A8       		.byte	-88
 905 011a E2       		.byte	-30
 906 011b 10       		.byte	16
 907 011c E3       		.byte	-29
 908 011d 30       		.byte	48
 909 011e E4       		.byte	-28
 910 011f 40       		.byte	64
 911 0120 E5       		.byte	-27
 912 0121 20       		.byte	32
 913 0122 E6       		.byte	-26
 914 0123 50       		.byte	80
 915 0124 E7       		.byte	-25
 916 0125 A8       		.byte	-88
 917 0126 01       		.byte	1
 918 0127 02       		.byte	2
 919 0128 03       		.byte	3
 920 0129 10       		.byte	16
 921 012a 04       		.byte	4
 922 012b 20       		.byte	32
 923 012c 05       		.byte	5
 924 012d 05       		.byte	5
 925 012e 08       		.byte	8
ARM GAS  C:\Users\EDULU~1.DES\AppData\Local\Temp\cc6B1O7j.s 			page 29


 926 012f 04       		.byte	4
 927 0130 09       		.byte	9
 928 0131 12       		.byte	18
 929 0132 0C       		.byte	12
 930 0133 24       		.byte	36
 931 0134 0E       		.byte	14
 932 0135 01       		.byte	1
 933 0136 10       		.byte	16
 934 0137 28       		.byte	40
 935 0138 12       		.byte	18
 936 0139 40       		.byte	64
 937 013a 16       		.byte	22
 938 013b 40       		.byte	64
 939 013c 17       		.byte	23
 940 013d 28       		.byte	40
 941 013e 19       		.byte	25
 942 013f 92       		.byte	-110
 943 0140 1C       		.byte	28
 944 0141 10       		.byte	16
 945 0142 1D       		.byte	29
 946 0143 A3       		.byte	-93
 947 0144 24       		.byte	36
 948 0145 20       		.byte	32
 949 0146 25       		.byte	37
 950 0147 10       		.byte	16
 951 0148 27       		.byte	39
 952 0149 18       		.byte	24
 953 014a 2C       		.byte	44
 954 014b 24       		.byte	36
 955 014c 2E       		.byte	46
 956 014d 80       		.byte	-128
 957 014e 35       		.byte	53
 958 014f 01       		.byte	1
 959 0150 37       		.byte	55
 960 0151 18       		.byte	24
 961 0152 3E       		.byte	62
 962 0153 14       		.byte	20
 963 0154 40       		.byte	64
 964 0155 10       		.byte	16
 965 0156 41       		.byte	65
 966 0157 22       		.byte	34
 967 0158 44       		.byte	68
 968 0159 04       		.byte	4
 969 015a 45       		.byte	69
 970 015b A2       		.byte	-94
 971 015c 48       		.byte	72
 972 015d 20       		.byte	32
 973 015e 50       		.byte	80
 974 015f 08       		.byte	8
 975 0160 59       		.byte	89
 976 0161 90       		.byte	-112
 977 0162 6E       		.byte	110
 978 0163 14       		.byte	20
 979 0164 6F       		.byte	111
 980 0165 01       		.byte	1
 981 0166 76       		.byte	118
 982 0167 C0       		.byte	-64
ARM GAS  C:\Users\EDULU~1.DES\AppData\Local\Temp\cc6B1O7j.s 			page 30


 983 0168 83       		.byte	-125
 984 0169 21       		.byte	33
 985 016a 85       		.byte	-123
 986 016b 80       		.byte	-128
 987 016c 92       		.byte	-110
 988 016d 01       		.byte	1
 989 016e 97       		.byte	-105
 990 016f 01       		.byte	1
 991 0170 99       		.byte	-103
 992 0171 04       		.byte	4
 993 0172 9F       		.byte	-97
 994 0173 01       		.byte	1
 995 0174 AE       		.byte	-82
 996 0175 01       		.byte	1
 997 0176 C0       		.byte	-64
 998 0177 7C       		.byte	124
 999 0178 C2       		.byte	-62
 1000 0179 EE       		.byte	-18
 1001 017a C4       		.byte	-60
 1002 017b 7E       		.byte	126
 1003 017c CA       		.byte	-54
 1004 017d 70       		.byte	112
 1005 017e CC       		.byte	-52
 1006 017f E0       		.byte	-32
 1007 0180 CE       		.byte	-50
 1008 0181 60       		.byte	96
 1009 0182 D0       		.byte	-48
 1010 0183 B7       		.byte	-73
 1011 0184 D6       		.byte	-42
 1012 0185 0C       		.byte	12
 1013 0186 E2       		.byte	-30
 1014 0187 80       		.byte	-128
 1015 0188 61       		.byte	97
 1016 0189 40       		.byte	64
 1017 018a 6F       		.byte	111
 1018 018b 02       		.byte	2
 1019 018c 82       		.byte	-126
 1020 018d 80       		.byte	-128
 1021 018e D6       		.byte	-42
 1022 018f 40       		.byte	64
 1023 0190 DA       		.byte	-38
 1024 0191 80       		.byte	-128
 1025 0192 E2       		.byte	-30
 1026 0193 80       		.byte	-128
 1027 0194 0A       		.byte	10
 1028 0195 10       		.byte	16
 1029 0196 56       		.byte	86
 1030 0197 80       		.byte	-128
 1031 0198 5D       		.byte	93
 1032 0199 01       		.byte	1
 1033 019a 82       		.byte	-126
 1034 019b 10       		.byte	16
 1035 019c 87       		.byte	-121
 1036 019d 02       		.byte	2
 1037 019e 89       		.byte	-119
 1038 019f 40       		.byte	64
 1039 01a0 91       		.byte	-111
ARM GAS  C:\Users\EDULU~1.DES\AppData\Local\Temp\cc6B1O7j.s 			page 31


 1040 01a1 01       		.byte	1
 1041 01a2 9A       		.byte	-102
 1042 01a3 80       		.byte	-128
 1043 01a4 9D       		.byte	-99
 1044 01a5 40       		.byte	64
 1045 01a6 A7       		.byte	-89
 1046 01a7 02       		.byte	2
 1047 01a8 AD       		.byte	-83
 1048 01a9 01       		.byte	1
 1049 01aa C2       		.byte	-62
 1050 01ab 10       		.byte	16
 1051 01ac D4       		.byte	-44
 1052 01ad 40       		.byte	64
 1053 01ae D6       		.byte	-42
 1054 01af 80       		.byte	-128
 1055 01b0 E0       		.byte	-32
 1056 01b1 80       		.byte	-128
 1057 01b2 E2       		.byte	-30
 1058 01b3 10       		.byte	16
 1059 01b4 EA       		.byte	-22
 1060 01b5 10       		.byte	16
 1061 01b6 60       		.byte	96
 1062 01b7 01       		.byte	1
 1063 01b8 D6       		.byte	-42
 1064 01b9 02       		.byte	2
 1065 01ba 20       		.byte	32
 1066 01bb 02       		.byte	2
 1067 01bc 24       		.byte	36
 1068 01bd 01       		.byte	1
 1069 01be 88       		.byte	-120
 1070 01bf 01       		.byte	1
 1071 01c0 94       		.byte	-108
 1072 01c1 01       		.byte	1
 1073 01c2 C8       		.byte	-56
 1074 01c3 0C       		.byte	12
 1075 01c4 E2       		.byte	-30
 1076 01c5 01       		.byte	1
 1077 01c6 10       		.byte	16
 1078 01c7 01       		.byte	1
 1079 01c8 11       		.byte	17
 1080 01c9 01       		.byte	1
 1081              		.text
 1082              	.Letext0:
 1083              		.file 2 "c:\\program files (x86)\\gnu tools arm embedded\\8 2018-q4-major\\lib\\gcc\\arm-none-eabi
 1084              		.file 3 "c:\\program files (x86)\\gnu tools arm embedded\\8 2018-q4-major\\arm-none-eabi\\include\
 1085              		.file 4 "c:\\program files (x86)\\gnu tools arm embedded\\8 2018-q4-major\\arm-none-eabi\\include\
 1086              		.file 5 "c:\\program files (x86)\\gnu tools arm embedded\\8 2018-q4-major\\arm-none-eabi\\include\
 1087              		.file 6 "Generated_Source\\PSoC4\\cytypes.h"
 1088              		.file 7 "c:\\program files (x86)\\gnu tools arm embedded\\8 2018-q4-major\\arm-none-eabi\\include\
 1089              		.file 8 "Generated_Source\\PSoC4\\CyLib.h"
 1090              		.file 9 "<built-in>"