ARM GAS  C:\Users\EDULU~1.DES\AppData\Local\Temp\cczTUetw.s 			page 1


   1              		.cpu cortex-m0
   2              		.eabi_attribute 20, 1
   3              		.eabi_attribute 21, 1
   4              		.eabi_attribute 23, 3
   5              		.eabi_attribute 24, 1
   6              		.eabi_attribute 25, 1
   7              		.eabi_attribute 26, 1
   8              		.eabi_attribute 30, 1
   9              		.eabi_attribute 34, 0
  10              		.eabi_attribute 18, 4
  11              		.file	"I2C_PM.c"
  12              		.text
  13              	.Ltext0:
  14              		.cfi_sections	.debug_frame
  15              		.section	.text.I2C_Sleep,"ax",%progbits
  16              		.align	1
  17              		.global	I2C_Sleep
  18              		.arch armv6s-m
  19              		.syntax unified
  20              		.code	16
  21              		.thumb_func
  22              		.fpu softvfp
  23              		.type	I2C_Sleep, %function
  24              	I2C_Sleep:
  25              	.LFB0:
  26              		.file 1 "Generated_Source\\PSoC4\\I2C_PM.c"
   1:Generated_Source\PSoC4/I2C_PM.c **** /***************************************************************************//**
   2:Generated_Source\PSoC4/I2C_PM.c **** * \file I2C_PM.c
   3:Generated_Source\PSoC4/I2C_PM.c **** * \version 4.0
   4:Generated_Source\PSoC4/I2C_PM.c **** *
   5:Generated_Source\PSoC4/I2C_PM.c **** * \brief
   6:Generated_Source\PSoC4/I2C_PM.c **** *  This file provides the source code to the Power Management support for
   7:Generated_Source\PSoC4/I2C_PM.c **** *  the SCB Component.
   8:Generated_Source\PSoC4/I2C_PM.c **** *
   9:Generated_Source\PSoC4/I2C_PM.c **** * Note:
  10:Generated_Source\PSoC4/I2C_PM.c **** *
  11:Generated_Source\PSoC4/I2C_PM.c **** ********************************************************************************
  12:Generated_Source\PSoC4/I2C_PM.c **** * \copyright
  13:Generated_Source\PSoC4/I2C_PM.c **** * Copyright 2013-2017, Cypress Semiconductor Corporation.  All rights reserved.
  14:Generated_Source\PSoC4/I2C_PM.c **** * You may use this file only in accordance with the license, terms, conditions,
  15:Generated_Source\PSoC4/I2C_PM.c **** * disclaimers, and limitations in the end user license agreement accompanying
  16:Generated_Source\PSoC4/I2C_PM.c **** * the software package with which this file was provided.
  17:Generated_Source\PSoC4/I2C_PM.c **** *******************************************************************************/
  18:Generated_Source\PSoC4/I2C_PM.c **** 
  19:Generated_Source\PSoC4/I2C_PM.c **** #include "I2C.h"
  20:Generated_Source\PSoC4/I2C_PM.c **** #include "I2C_PVT.h"
  21:Generated_Source\PSoC4/I2C_PM.c **** 
  22:Generated_Source\PSoC4/I2C_PM.c **** #if(I2C_SCB_MODE_I2C_INC)
  23:Generated_Source\PSoC4/I2C_PM.c ****     #include "I2C_I2C_PVT.h"
  24:Generated_Source\PSoC4/I2C_PM.c **** #endif /* (I2C_SCB_MODE_I2C_INC) */
  25:Generated_Source\PSoC4/I2C_PM.c **** 
  26:Generated_Source\PSoC4/I2C_PM.c **** #if(I2C_SCB_MODE_EZI2C_INC)
  27:Generated_Source\PSoC4/I2C_PM.c ****     #include "I2C_EZI2C_PVT.h"
  28:Generated_Source\PSoC4/I2C_PM.c **** #endif /* (I2C_SCB_MODE_EZI2C_INC) */
  29:Generated_Source\PSoC4/I2C_PM.c **** 
  30:Generated_Source\PSoC4/I2C_PM.c **** #if(I2C_SCB_MODE_SPI_INC || I2C_SCB_MODE_UART_INC)
  31:Generated_Source\PSoC4/I2C_PM.c ****     #include "I2C_SPI_UART_PVT.h"
ARM GAS  C:\Users\EDULU~1.DES\AppData\Local\Temp\cczTUetw.s 			page 2


  32:Generated_Source\PSoC4/I2C_PM.c **** #endif /* (I2C_SCB_MODE_SPI_INC || I2C_SCB_MODE_UART_INC) */
  33:Generated_Source\PSoC4/I2C_PM.c **** 
  34:Generated_Source\PSoC4/I2C_PM.c **** 
  35:Generated_Source\PSoC4/I2C_PM.c **** /***************************************
  36:Generated_Source\PSoC4/I2C_PM.c **** *   Backup Structure declaration
  37:Generated_Source\PSoC4/I2C_PM.c **** ***************************************/
  38:Generated_Source\PSoC4/I2C_PM.c **** 
  39:Generated_Source\PSoC4/I2C_PM.c **** #if(I2C_SCB_MODE_UNCONFIG_CONST_CFG || \
  40:Generated_Source\PSoC4/I2C_PM.c ****    (I2C_SCB_MODE_I2C_CONST_CFG   && (!I2C_I2C_WAKE_ENABLE_CONST))   || \
  41:Generated_Source\PSoC4/I2C_PM.c ****    (I2C_SCB_MODE_EZI2C_CONST_CFG && (!I2C_EZI2C_WAKE_ENABLE_CONST)) || \
  42:Generated_Source\PSoC4/I2C_PM.c ****    (I2C_SCB_MODE_SPI_CONST_CFG   && (!I2C_SPI_WAKE_ENABLE_CONST))   || \
  43:Generated_Source\PSoC4/I2C_PM.c ****    (I2C_SCB_MODE_UART_CONST_CFG  && (!I2C_UART_WAKE_ENABLE_CONST)))
  44:Generated_Source\PSoC4/I2C_PM.c **** 
  45:Generated_Source\PSoC4/I2C_PM.c ****     I2C_BACKUP_STRUCT I2C_backup =
  46:Generated_Source\PSoC4/I2C_PM.c ****     {
  47:Generated_Source\PSoC4/I2C_PM.c ****         0u, /* enableState */
  48:Generated_Source\PSoC4/I2C_PM.c ****     };
  49:Generated_Source\PSoC4/I2C_PM.c **** #endif
  50:Generated_Source\PSoC4/I2C_PM.c **** 
  51:Generated_Source\PSoC4/I2C_PM.c **** 
  52:Generated_Source\PSoC4/I2C_PM.c **** /*******************************************************************************
  53:Generated_Source\PSoC4/I2C_PM.c **** * Function Name: I2C_Sleep
  54:Generated_Source\PSoC4/I2C_PM.c **** ****************************************************************************//**
  55:Generated_Source\PSoC4/I2C_PM.c **** *
  56:Generated_Source\PSoC4/I2C_PM.c **** *  Prepares the I2C component to enter Deep Sleep.
  57:Generated_Source\PSoC4/I2C_PM.c **** *  The “Enable wakeup from Deep Sleep Mode” selection has an influence on this 
  58:Generated_Source\PSoC4/I2C_PM.c **** *  function implementation:
  59:Generated_Source\PSoC4/I2C_PM.c **** *  - Checked: configures the component to be wakeup source from Deep Sleep.
  60:Generated_Source\PSoC4/I2C_PM.c **** *  - Unchecked: stores the current component state (enabled or disabled) and 
  61:Generated_Source\PSoC4/I2C_PM.c **** *    disables the component. See SCB_Stop() function for details about component 
  62:Generated_Source\PSoC4/I2C_PM.c **** *    disabling.
  63:Generated_Source\PSoC4/I2C_PM.c **** *
  64:Generated_Source\PSoC4/I2C_PM.c **** *  Call the I2C_Sleep() function before calling the 
  65:Generated_Source\PSoC4/I2C_PM.c **** *  CyPmSysDeepSleep() function. 
  66:Generated_Source\PSoC4/I2C_PM.c **** *  Refer to the PSoC Creator System Reference Guide for more information about 
  67:Generated_Source\PSoC4/I2C_PM.c **** *  power management functions and Low power section of this document for the 
  68:Generated_Source\PSoC4/I2C_PM.c **** *  selected mode.
  69:Generated_Source\PSoC4/I2C_PM.c **** *
  70:Generated_Source\PSoC4/I2C_PM.c **** *  This function should not be called before entering Sleep.
  71:Generated_Source\PSoC4/I2C_PM.c **** *
  72:Generated_Source\PSoC4/I2C_PM.c **** *******************************************************************************/
  73:Generated_Source\PSoC4/I2C_PM.c **** void I2C_Sleep(void)
  74:Generated_Source\PSoC4/I2C_PM.c **** {
  27              		.loc 1 74 1 view -0
  28              		.cfi_startproc
  29              		@ args = 0, pretend = 0, frame = 0
  30              		@ frame_needed = 0, uses_anonymous_args = 0
  31 0000 10B5     		push	{r4, lr}
  32              		.cfi_def_cfa_offset 8
  33              		.cfi_offset 4, -8
  34              		.cfi_offset 14, -4
  75:Generated_Source\PSoC4/I2C_PM.c **** #if(I2C_SCB_MODE_UNCONFIG_CONST_CFG)
  76:Generated_Source\PSoC4/I2C_PM.c **** 
  77:Generated_Source\PSoC4/I2C_PM.c ****     if(I2C_SCB_WAKE_ENABLE_CHECK)
  78:Generated_Source\PSoC4/I2C_PM.c ****     {
  79:Generated_Source\PSoC4/I2C_PM.c ****         if(I2C_SCB_MODE_I2C_RUNTM_CFG)
  80:Generated_Source\PSoC4/I2C_PM.c ****         {
ARM GAS  C:\Users\EDULU~1.DES\AppData\Local\Temp\cczTUetw.s 			page 3


  81:Generated_Source\PSoC4/I2C_PM.c ****             I2C_I2CSaveConfig();
  82:Generated_Source\PSoC4/I2C_PM.c ****         }
  83:Generated_Source\PSoC4/I2C_PM.c ****         else if(I2C_SCB_MODE_EZI2C_RUNTM_CFG)
  84:Generated_Source\PSoC4/I2C_PM.c ****         {
  85:Generated_Source\PSoC4/I2C_PM.c ****             I2C_EzI2CSaveConfig();
  86:Generated_Source\PSoC4/I2C_PM.c ****         }
  87:Generated_Source\PSoC4/I2C_PM.c ****     #if(!I2C_CY_SCBIP_V1)
  88:Generated_Source\PSoC4/I2C_PM.c ****         else if(I2C_SCB_MODE_SPI_RUNTM_CFG)
  89:Generated_Source\PSoC4/I2C_PM.c ****         {
  90:Generated_Source\PSoC4/I2C_PM.c ****             I2C_SpiSaveConfig();
  91:Generated_Source\PSoC4/I2C_PM.c ****         }
  92:Generated_Source\PSoC4/I2C_PM.c ****         else if(I2C_SCB_MODE_UART_RUNTM_CFG)
  93:Generated_Source\PSoC4/I2C_PM.c ****         {
  94:Generated_Source\PSoC4/I2C_PM.c ****             I2C_UartSaveConfig();
  95:Generated_Source\PSoC4/I2C_PM.c ****         }
  96:Generated_Source\PSoC4/I2C_PM.c ****     #endif /* (!I2C_CY_SCBIP_V1) */
  97:Generated_Source\PSoC4/I2C_PM.c ****         else
  98:Generated_Source\PSoC4/I2C_PM.c ****         {
  99:Generated_Source\PSoC4/I2C_PM.c ****             /* Unknown mode */
 100:Generated_Source\PSoC4/I2C_PM.c ****         }
 101:Generated_Source\PSoC4/I2C_PM.c ****     }
 102:Generated_Source\PSoC4/I2C_PM.c ****     else
 103:Generated_Source\PSoC4/I2C_PM.c ****     {
 104:Generated_Source\PSoC4/I2C_PM.c ****         I2C_backup.enableState = (uint8) I2C_GET_CTRL_ENABLED;
 105:Generated_Source\PSoC4/I2C_PM.c **** 
 106:Generated_Source\PSoC4/I2C_PM.c ****         if(0u != I2C_backup.enableState)
 107:Generated_Source\PSoC4/I2C_PM.c ****         {
 108:Generated_Source\PSoC4/I2C_PM.c ****             I2C_Stop();
 109:Generated_Source\PSoC4/I2C_PM.c ****         }
 110:Generated_Source\PSoC4/I2C_PM.c ****     }
 111:Generated_Source\PSoC4/I2C_PM.c **** 
 112:Generated_Source\PSoC4/I2C_PM.c **** #else
 113:Generated_Source\PSoC4/I2C_PM.c **** 
 114:Generated_Source\PSoC4/I2C_PM.c ****     #if (I2C_SCB_MODE_I2C_CONST_CFG && I2C_I2C_WAKE_ENABLE_CONST)
 115:Generated_Source\PSoC4/I2C_PM.c ****         I2C_I2CSaveConfig();
 116:Generated_Source\PSoC4/I2C_PM.c **** 
 117:Generated_Source\PSoC4/I2C_PM.c ****     #elif (I2C_SCB_MODE_EZI2C_CONST_CFG && I2C_EZI2C_WAKE_ENABLE_CONST)
 118:Generated_Source\PSoC4/I2C_PM.c ****         I2C_EzI2CSaveConfig();
 119:Generated_Source\PSoC4/I2C_PM.c **** 
 120:Generated_Source\PSoC4/I2C_PM.c ****     #elif (I2C_SCB_MODE_SPI_CONST_CFG && I2C_SPI_WAKE_ENABLE_CONST)
 121:Generated_Source\PSoC4/I2C_PM.c ****         I2C_SpiSaveConfig();
 122:Generated_Source\PSoC4/I2C_PM.c **** 
 123:Generated_Source\PSoC4/I2C_PM.c ****     #elif (I2C_SCB_MODE_UART_CONST_CFG && I2C_UART_WAKE_ENABLE_CONST)
 124:Generated_Source\PSoC4/I2C_PM.c ****         I2C_UartSaveConfig();
 125:Generated_Source\PSoC4/I2C_PM.c **** 
 126:Generated_Source\PSoC4/I2C_PM.c ****     #else
 127:Generated_Source\PSoC4/I2C_PM.c **** 
 128:Generated_Source\PSoC4/I2C_PM.c ****         I2C_backup.enableState = (uint8) I2C_GET_CTRL_ENABLED;
  35              		.loc 1 128 9 view .LVU1
  36              		.loc 1 128 42 is_stmt 0 view .LVU2
  37 0002 054B     		ldr	r3, .L4
  38 0004 1B68     		ldr	r3, [r3]
  39              		.loc 1 128 34 view .LVU3
  40 0006 DB0F     		lsrs	r3, r3, #31
  41              		.loc 1 128 32 view .LVU4
  42 0008 044A     		ldr	r2, .L4+4
  43 000a 1370     		strb	r3, [r2]
ARM GAS  C:\Users\EDULU~1.DES\AppData\Local\Temp\cczTUetw.s 			page 4


 129:Generated_Source\PSoC4/I2C_PM.c **** 
 130:Generated_Source\PSoC4/I2C_PM.c ****         if(0u != I2C_backup.enableState)
  44              		.loc 1 130 9 is_stmt 1 view .LVU5
  45              		.loc 1 130 11 is_stmt 0 view .LVU6
  46 000c 00D1     		bne	.L3
  47              	.L1:
 131:Generated_Source\PSoC4/I2C_PM.c ****         {
 132:Generated_Source\PSoC4/I2C_PM.c ****             I2C_Stop();
 133:Generated_Source\PSoC4/I2C_PM.c ****         }
 134:Generated_Source\PSoC4/I2C_PM.c **** 
 135:Generated_Source\PSoC4/I2C_PM.c ****     #endif /* defined (I2C_SCB_MODE_I2C_CONST_CFG) && (I2C_I2C_WAKE_ENABLE_CONST) */
 136:Generated_Source\PSoC4/I2C_PM.c **** 
 137:Generated_Source\PSoC4/I2C_PM.c **** #endif /* (I2C_SCB_MODE_UNCONFIG_CONST_CFG) */
 138:Generated_Source\PSoC4/I2C_PM.c **** }
  48              		.loc 1 138 1 view .LVU7
  49              		@ sp needed
  50 000e 10BD     		pop	{r4, pc}
  51              	.L3:
 132:Generated_Source\PSoC4/I2C_PM.c ****         }
  52              		.loc 1 132 13 is_stmt 1 view .LVU8
  53 0010 FFF7FEFF 		bl	I2C_Stop
  54              	.LVL0:
  55              		.loc 1 138 1 is_stmt 0 view .LVU9
  56 0014 FBE7     		b	.L1
  57              	.L5:
  58 0016 C046     		.align	2
  59              	.L4:
  60 0018 00000640 		.word	1074135040
  61 001c 00000000 		.word	.LANCHOR0
  62              		.cfi_endproc
  63              	.LFE0:
  64              		.size	I2C_Sleep, .-I2C_Sleep
  65              		.section	.text.I2C_Wakeup,"ax",%progbits
  66              		.align	1
  67              		.global	I2C_Wakeup
  68              		.syntax unified
  69              		.code	16
  70              		.thumb_func
  71              		.fpu softvfp
  72              		.type	I2C_Wakeup, %function
  73              	I2C_Wakeup:
  74              	.LFB1:
 139:Generated_Source\PSoC4/I2C_PM.c **** 
 140:Generated_Source\PSoC4/I2C_PM.c **** 
 141:Generated_Source\PSoC4/I2C_PM.c **** /*******************************************************************************
 142:Generated_Source\PSoC4/I2C_PM.c **** * Function Name: I2C_Wakeup
 143:Generated_Source\PSoC4/I2C_PM.c **** ****************************************************************************//**
 144:Generated_Source\PSoC4/I2C_PM.c **** *
 145:Generated_Source\PSoC4/I2C_PM.c **** *  Prepares the I2C component for Active mode operation after 
 146:Generated_Source\PSoC4/I2C_PM.c **** *  Deep Sleep.
 147:Generated_Source\PSoC4/I2C_PM.c **** *  The “Enable wakeup from Deep Sleep Mode” selection has influence on this 
 148:Generated_Source\PSoC4/I2C_PM.c **** *  function implementation:
 149:Generated_Source\PSoC4/I2C_PM.c **** *  - Checked: restores the component Active mode configuration.
 150:Generated_Source\PSoC4/I2C_PM.c **** *  - Unchecked: enables the component if it was enabled before enter Deep Sleep.
 151:Generated_Source\PSoC4/I2C_PM.c **** *
 152:Generated_Source\PSoC4/I2C_PM.c **** *  This function should not be called after exiting Sleep.
 153:Generated_Source\PSoC4/I2C_PM.c **** *
ARM GAS  C:\Users\EDULU~1.DES\AppData\Local\Temp\cczTUetw.s 			page 5


 154:Generated_Source\PSoC4/I2C_PM.c **** *  \sideeffect
 155:Generated_Source\PSoC4/I2C_PM.c **** *   Calling the I2C_Wakeup() function without first calling the 
 156:Generated_Source\PSoC4/I2C_PM.c **** *   I2C_Sleep() function may produce unexpected behavior.
 157:Generated_Source\PSoC4/I2C_PM.c **** *
 158:Generated_Source\PSoC4/I2C_PM.c **** *******************************************************************************/
 159:Generated_Source\PSoC4/I2C_PM.c **** void I2C_Wakeup(void)
 160:Generated_Source\PSoC4/I2C_PM.c **** {
  75              		.loc 1 160 1 is_stmt 1 view -0
  76              		.cfi_startproc
  77              		@ args = 0, pretend = 0, frame = 0
  78              		@ frame_needed = 0, uses_anonymous_args = 0
  79 0000 10B5     		push	{r4, lr}
  80              		.cfi_def_cfa_offset 8
  81              		.cfi_offset 4, -8
  82              		.cfi_offset 14, -4
 161:Generated_Source\PSoC4/I2C_PM.c **** #if(I2C_SCB_MODE_UNCONFIG_CONST_CFG)
 162:Generated_Source\PSoC4/I2C_PM.c **** 
 163:Generated_Source\PSoC4/I2C_PM.c ****     if(I2C_SCB_WAKE_ENABLE_CHECK)
 164:Generated_Source\PSoC4/I2C_PM.c ****     {
 165:Generated_Source\PSoC4/I2C_PM.c ****         if(I2C_SCB_MODE_I2C_RUNTM_CFG)
 166:Generated_Source\PSoC4/I2C_PM.c ****         {
 167:Generated_Source\PSoC4/I2C_PM.c ****             I2C_I2CRestoreConfig();
 168:Generated_Source\PSoC4/I2C_PM.c ****         }
 169:Generated_Source\PSoC4/I2C_PM.c ****         else if(I2C_SCB_MODE_EZI2C_RUNTM_CFG)
 170:Generated_Source\PSoC4/I2C_PM.c ****         {
 171:Generated_Source\PSoC4/I2C_PM.c ****             I2C_EzI2CRestoreConfig();
 172:Generated_Source\PSoC4/I2C_PM.c ****         }
 173:Generated_Source\PSoC4/I2C_PM.c ****     #if(!I2C_CY_SCBIP_V1)
 174:Generated_Source\PSoC4/I2C_PM.c ****         else if(I2C_SCB_MODE_SPI_RUNTM_CFG)
 175:Generated_Source\PSoC4/I2C_PM.c ****         {
 176:Generated_Source\PSoC4/I2C_PM.c ****             I2C_SpiRestoreConfig();
 177:Generated_Source\PSoC4/I2C_PM.c ****         }
 178:Generated_Source\PSoC4/I2C_PM.c ****         else if(I2C_SCB_MODE_UART_RUNTM_CFG)
 179:Generated_Source\PSoC4/I2C_PM.c ****         {
 180:Generated_Source\PSoC4/I2C_PM.c ****             I2C_UartRestoreConfig();
 181:Generated_Source\PSoC4/I2C_PM.c ****         }
 182:Generated_Source\PSoC4/I2C_PM.c ****     #endif /* (!I2C_CY_SCBIP_V1) */
 183:Generated_Source\PSoC4/I2C_PM.c ****         else
 184:Generated_Source\PSoC4/I2C_PM.c ****         {
 185:Generated_Source\PSoC4/I2C_PM.c ****             /* Unknown mode */
 186:Generated_Source\PSoC4/I2C_PM.c ****         }
 187:Generated_Source\PSoC4/I2C_PM.c ****     }
 188:Generated_Source\PSoC4/I2C_PM.c ****     else
 189:Generated_Source\PSoC4/I2C_PM.c ****     {
 190:Generated_Source\PSoC4/I2C_PM.c ****         if(0u != I2C_backup.enableState)
 191:Generated_Source\PSoC4/I2C_PM.c ****         {
 192:Generated_Source\PSoC4/I2C_PM.c ****             I2C_Enable();
 193:Generated_Source\PSoC4/I2C_PM.c ****         }
 194:Generated_Source\PSoC4/I2C_PM.c ****     }
 195:Generated_Source\PSoC4/I2C_PM.c **** 
 196:Generated_Source\PSoC4/I2C_PM.c **** #else
 197:Generated_Source\PSoC4/I2C_PM.c **** 
 198:Generated_Source\PSoC4/I2C_PM.c ****     #if (I2C_SCB_MODE_I2C_CONST_CFG  && I2C_I2C_WAKE_ENABLE_CONST)
 199:Generated_Source\PSoC4/I2C_PM.c ****         I2C_I2CRestoreConfig();
 200:Generated_Source\PSoC4/I2C_PM.c **** 
 201:Generated_Source\PSoC4/I2C_PM.c ****     #elif (I2C_SCB_MODE_EZI2C_CONST_CFG && I2C_EZI2C_WAKE_ENABLE_CONST)
 202:Generated_Source\PSoC4/I2C_PM.c ****         I2C_EzI2CRestoreConfig();
ARM GAS  C:\Users\EDULU~1.DES\AppData\Local\Temp\cczTUetw.s 			page 6


 203:Generated_Source\PSoC4/I2C_PM.c **** 
 204:Generated_Source\PSoC4/I2C_PM.c ****     #elif (I2C_SCB_MODE_SPI_CONST_CFG && I2C_SPI_WAKE_ENABLE_CONST)
 205:Generated_Source\PSoC4/I2C_PM.c ****         I2C_SpiRestoreConfig();
 206:Generated_Source\PSoC4/I2C_PM.c **** 
 207:Generated_Source\PSoC4/I2C_PM.c ****     #elif (I2C_SCB_MODE_UART_CONST_CFG && I2C_UART_WAKE_ENABLE_CONST)
 208:Generated_Source\PSoC4/I2C_PM.c ****         I2C_UartRestoreConfig();
 209:Generated_Source\PSoC4/I2C_PM.c **** 
 210:Generated_Source\PSoC4/I2C_PM.c ****     #else
 211:Generated_Source\PSoC4/I2C_PM.c **** 
 212:Generated_Source\PSoC4/I2C_PM.c ****         if(0u != I2C_backup.enableState)
  83              		.loc 1 212 9 view .LVU11
  84              		.loc 1 212 28 is_stmt 0 view .LVU12
  85 0002 044B     		ldr	r3, .L9
  86 0004 1B78     		ldrb	r3, [r3]
  87              		.loc 1 212 11 view .LVU13
  88 0006 002B     		cmp	r3, #0
  89 0008 00D1     		bne	.L8
  90              	.L6:
 213:Generated_Source\PSoC4/I2C_PM.c ****         {
 214:Generated_Source\PSoC4/I2C_PM.c ****             I2C_Enable();
 215:Generated_Source\PSoC4/I2C_PM.c ****         }
 216:Generated_Source\PSoC4/I2C_PM.c **** 
 217:Generated_Source\PSoC4/I2C_PM.c ****     #endif /* (I2C_I2C_WAKE_ENABLE_CONST) */
 218:Generated_Source\PSoC4/I2C_PM.c **** 
 219:Generated_Source\PSoC4/I2C_PM.c **** #endif /* (I2C_SCB_MODE_UNCONFIG_CONST_CFG) */
 220:Generated_Source\PSoC4/I2C_PM.c **** }
  91              		.loc 1 220 1 view .LVU14
  92              		@ sp needed
  93 000a 10BD     		pop	{r4, pc}
  94              	.L8:
 214:Generated_Source\PSoC4/I2C_PM.c ****         }
  95              		.loc 1 214 13 is_stmt 1 view .LVU15
  96 000c FFF7FEFF 		bl	I2C_Enable
  97              	.LVL1:
  98              		.loc 1 220 1 is_stmt 0 view .LVU16
  99 0010 FBE7     		b	.L6
 100              	.L10:
 101 0012 C046     		.align	2
 102              	.L9:
 103 0014 00000000 		.word	.LANCHOR0
 104              		.cfi_endproc
 105              	.LFE1:
 106              		.size	I2C_Wakeup, .-I2C_Wakeup
 107              		.global	I2C_backup
 108              		.bss
 109              		.align	2
 110              		.set	.LANCHOR0,. + 0
 111              		.type	I2C_backup, %object
 112              		.size	I2C_backup, 1
 113              	I2C_backup:
 114 0000 00       		.space	1
 115              		.text
 116              	.Letext0:
 117              		.file 2 "Generated_Source\\PSoC4/cytypes.h"
 118              		.file 3 "c:\\program files (x86)\\gnu tools arm embedded\\8 2018-q4-major\\arm-none-eabi\\include\
 119              		.file 4 "c:\\program files (x86)\\gnu tools arm embedded\\8 2018-q4-major\\arm-none-eabi\\include\
 120              		.file 5 "c:\\program files (x86)\\gnu tools arm embedded\\8 2018-q4-major\\lib\\gcc\\arm-none-eabi
ARM GAS  C:\Users\EDULU~1.DES\AppData\Local\Temp\cczTUetw.s 			page 7


 121              		.file 6 "c:\\program files (x86)\\gnu tools arm embedded\\8 2018-q4-major\\arm-none-eabi\\include\
 122              		.file 7 "c:\\program files (x86)\\gnu tools arm embedded\\8 2018-q4-major\\arm-none-eabi\\include\
 123              		.file 8 "Generated_Source\\PSoC4/CyLib.h"
 124              		.file 9 "Generated_Source\\PSoC4\\I2C.h"
 125              		.file 10 "Generated_Source\\PSoC4\\I2C_PVT.h"
 126              		.file 11 "Generated_Source\\PSoC4\\I2C_I2C_PVT.h"