ARM GAS  C:\Users\EDULU~1.DES\AppData\Local\Temp\ccOPPFV9.s 			page 1


   1              		.cpu cortex-m0
   2              		.eabi_attribute 20, 1
   3              		.eabi_attribute 21, 1
   4              		.eabi_attribute 23, 3
   5              		.eabi_attribute 24, 1
   6              		.eabi_attribute 25, 1
   7              		.eabi_attribute 26, 1
   8              		.eabi_attribute 30, 1
   9              		.eabi_attribute 34, 0
  10              		.eabi_attribute 18, 4
  11              		.file	"I2C_I2C_MASTER.c"
  12              		.text
  13              	.Ltext0:
  14              		.cfi_sections	.debug_frame
  15              		.section	.text.I2C_I2CMasterWaitOneUnit,"ax",%progbits
  16              		.align	1
  17              		.arch armv6s-m
  18              		.syntax unified
  19              		.code	16
  20              		.thumb_func
  21              		.fpu softvfp
  22              		.type	I2C_I2CMasterWaitOneUnit, %function
  23              	I2C_I2CMasterWaitOneUnit:
  24              	.LVL0:
  25              	.LFB15:
  26              		.file 1 "Generated_Source\\PSoC4\\I2C_I2C_MASTER.c"
   1:Generated_Source\PSoC4/I2C_I2C_MASTER.c **** /***************************************************************************//**
   2:Generated_Source\PSoC4/I2C_I2C_MASTER.c **** * \file I2C_I2C_MASTER.c
   3:Generated_Source\PSoC4/I2C_I2C_MASTER.c **** * \version 4.0
   4:Generated_Source\PSoC4/I2C_I2C_MASTER.c **** *
   5:Generated_Source\PSoC4/I2C_I2C_MASTER.c **** * \brief
   6:Generated_Source\PSoC4/I2C_I2C_MASTER.c **** *  This file provides the source code to the API for the SCB Component in
   7:Generated_Source\PSoC4/I2C_I2C_MASTER.c **** *  I2C Master mode.
   8:Generated_Source\PSoC4/I2C_I2C_MASTER.c **** *
   9:Generated_Source\PSoC4/I2C_I2C_MASTER.c **** * Note:
  10:Generated_Source\PSoC4/I2C_I2C_MASTER.c **** *
  11:Generated_Source\PSoC4/I2C_I2C_MASTER.c **** *******************************************************************************
  12:Generated_Source\PSoC4/I2C_I2C_MASTER.c **** * \copyright
  13:Generated_Source\PSoC4/I2C_I2C_MASTER.c **** * Copyright 2013-2017, Cypress Semiconductor Corporation.  All rights reserved.
  14:Generated_Source\PSoC4/I2C_I2C_MASTER.c **** * You may use this file only in accordance with the license, terms, conditions,
  15:Generated_Source\PSoC4/I2C_I2C_MASTER.c **** * disclaimers, and limitations in the end user license agreement accompanying
  16:Generated_Source\PSoC4/I2C_I2C_MASTER.c **** * the software package with which this file was provided.
  17:Generated_Source\PSoC4/I2C_I2C_MASTER.c **** *******************************************************************************/
  18:Generated_Source\PSoC4/I2C_I2C_MASTER.c **** 
  19:Generated_Source\PSoC4/I2C_I2C_MASTER.c **** #include "I2C_PVT.h"
  20:Generated_Source\PSoC4/I2C_I2C_MASTER.c **** #include "I2C_I2C_PVT.h"
  21:Generated_Source\PSoC4/I2C_I2C_MASTER.c **** 
  22:Generated_Source\PSoC4/I2C_I2C_MASTER.c **** #if(I2C_I2C_MASTER_CONST)
  23:Generated_Source\PSoC4/I2C_I2C_MASTER.c **** 
  24:Generated_Source\PSoC4/I2C_I2C_MASTER.c **** /***************************************
  25:Generated_Source\PSoC4/I2C_I2C_MASTER.c **** *      I2C Master Private Vars
  26:Generated_Source\PSoC4/I2C_I2C_MASTER.c **** ***************************************/
  27:Generated_Source\PSoC4/I2C_I2C_MASTER.c **** 
  28:Generated_Source\PSoC4/I2C_I2C_MASTER.c **** /* Master variables */
  29:Generated_Source\PSoC4/I2C_I2C_MASTER.c **** volatile uint16 I2C_mstrStatus;      /* Master Status byte  */
  30:Generated_Source\PSoC4/I2C_I2C_MASTER.c **** volatile uint8  I2C_mstrControl;     /* Master Control byte */
  31:Generated_Source\PSoC4/I2C_I2C_MASTER.c **** 
ARM GAS  C:\Users\EDULU~1.DES\AppData\Local\Temp\ccOPPFV9.s 			page 2


  32:Generated_Source\PSoC4/I2C_I2C_MASTER.c **** /* Receive buffer variables */
  33:Generated_Source\PSoC4/I2C_I2C_MASTER.c **** volatile uint8 * I2C_mstrRdBufPtr;   /* Pointer to Master Read buffer */
  34:Generated_Source\PSoC4/I2C_I2C_MASTER.c **** volatile uint32  I2C_mstrRdBufSize;  /* Master Read buffer size       */
  35:Generated_Source\PSoC4/I2C_I2C_MASTER.c **** volatile uint32  I2C_mstrRdBufIndex; /* Master Read buffer Index      */
  36:Generated_Source\PSoC4/I2C_I2C_MASTER.c **** 
  37:Generated_Source\PSoC4/I2C_I2C_MASTER.c **** /* Transmit buffer variables */
  38:Generated_Source\PSoC4/I2C_I2C_MASTER.c **** volatile uint8 * I2C_mstrWrBufPtr;   /* Pointer to Master Write buffer */
  39:Generated_Source\PSoC4/I2C_I2C_MASTER.c **** volatile uint32  I2C_mstrWrBufSize;  /* Master Write buffer size       */
  40:Generated_Source\PSoC4/I2C_I2C_MASTER.c **** volatile uint32  I2C_mstrWrBufIndex; /* Master Write buffer Index      */
  41:Generated_Source\PSoC4/I2C_I2C_MASTER.c **** volatile uint32  I2C_mstrWrBufIndexTmp; /* Master Write buffer Index Tmp */
  42:Generated_Source\PSoC4/I2C_I2C_MASTER.c **** 
  43:Generated_Source\PSoC4/I2C_I2C_MASTER.c **** #if (!I2C_CY_SCBIP_V0 && \
  44:Generated_Source\PSoC4/I2C_I2C_MASTER.c ****     I2C_I2C_MULTI_MASTER_SLAVE_CONST && I2C_I2C_WAKE_ENABLE_CONST)
  45:Generated_Source\PSoC4/I2C_I2C_MASTER.c ****     static void I2C_I2CMasterDisableEcAm(void);
  46:Generated_Source\PSoC4/I2C_I2C_MASTER.c **** #else
  47:Generated_Source\PSoC4/I2C_I2C_MASTER.c ****     #define I2C_I2CMasterDisableEcAm()     do{ /* Empty */ }while(0)
  48:Generated_Source\PSoC4/I2C_I2C_MASTER.c **** #endif /* (!I2C_CY_SCBIP_V0) */
  49:Generated_Source\PSoC4/I2C_I2C_MASTER.c **** 
  50:Generated_Source\PSoC4/I2C_I2C_MASTER.c **** static uint32 I2C_I2CMasterHandleStatus(uint32 status);
  51:Generated_Source\PSoC4/I2C_I2C_MASTER.c **** static uint32 I2C_I2CMasterWaitOneUnit(uint32 *timeout);
  52:Generated_Source\PSoC4/I2C_I2C_MASTER.c **** 
  53:Generated_Source\PSoC4/I2C_I2C_MASTER.c **** 
  54:Generated_Source\PSoC4/I2C_I2C_MASTER.c **** /*******************************************************************************
  55:Generated_Source\PSoC4/I2C_I2C_MASTER.c **** * Function Name: I2C_I2CMasterWriteBuf
  56:Generated_Source\PSoC4/I2C_I2C_MASTER.c **** ****************************************************************************//**
  57:Generated_Source\PSoC4/I2C_I2C_MASTER.c **** *
  58:Generated_Source\PSoC4/I2C_I2C_MASTER.c **** *  Automatically writes an entire buffer of data to a slave device.
  59:Generated_Source\PSoC4/I2C_I2C_MASTER.c **** *  Once the data transfer is initiated by this function, further data transfer
  60:Generated_Source\PSoC4/I2C_I2C_MASTER.c **** *  is handled by the included ISR.
  61:Generated_Source\PSoC4/I2C_I2C_MASTER.c **** *  Enables the I2C interrupt and clears I2C_I2C_MSTAT_WR_CMPLT
  62:Generated_Source\PSoC4/I2C_I2C_MASTER.c **** *  status.
  63:Generated_Source\PSoC4/I2C_I2C_MASTER.c **** *
  64:Generated_Source\PSoC4/I2C_I2C_MASTER.c **** *  \param slaveAddr: 7-bit slave address.
  65:Generated_Source\PSoC4/I2C_I2C_MASTER.c **** *  \param xferData: Pointer to buffer of data to be sent.
  66:Generated_Source\PSoC4/I2C_I2C_MASTER.c **** *  \param cnt: Size of buffer to send.
  67:Generated_Source\PSoC4/I2C_I2C_MASTER.c **** *  \param mode: Transfer mode defines:
  68:Generated_Source\PSoC4/I2C_I2C_MASTER.c **** *  (1) Whether a start or restart condition is generated at the beginning
  69:Generated_Source\PSoC4/I2C_I2C_MASTER.c **** *  of the transfer, and
  70:Generated_Source\PSoC4/I2C_I2C_MASTER.c **** *  (2) Whether the transfer is completed or halted before the stop
  71:Generated_Source\PSoC4/I2C_I2C_MASTER.c **** *  condition is generated on the bus.Transfer mode, mode constants
  72:Generated_Source\PSoC4/I2C_I2C_MASTER.c **** *  may be ORed together.
  73:Generated_Source\PSoC4/I2C_I2C_MASTER.c **** *  - I2C_I2C_MODE_COMPLETE_XFER - Perform complete transfer
  74:Generated_Source\PSoC4/I2C_I2C_MASTER.c **** *    from Start to Stop.
  75:Generated_Source\PSoC4/I2C_I2C_MASTER.c **** *  - I2C_I2C_MODE_REPEAT_START - Send Repeat Start instead
  76:Generated_Source\PSoC4/I2C_I2C_MASTER.c **** *    of Start. A Stop is generated after transfer is completed unless
  77:Generated_Source\PSoC4/I2C_I2C_MASTER.c **** *    NO_STOP is specified.
  78:Generated_Source\PSoC4/I2C_I2C_MASTER.c **** *  - I2C_I2C_MODE_NO_STOP Execute transfer without a Stop.
  79:Generated_Source\PSoC4/I2C_I2C_MASTER.c **** *    The following transfer expected to perform ReStart.
  80:Generated_Source\PSoC4/I2C_I2C_MASTER.c **** *
  81:Generated_Source\PSoC4/I2C_I2C_MASTER.c **** * \return
  82:Generated_Source\PSoC4/I2C_I2C_MASTER.c **** *  Error status.
  83:Generated_Source\PSoC4/I2C_I2C_MASTER.c **** *  - I2C_I2C_MSTR_NO_ERROR - Function complete without error.
  84:Generated_Source\PSoC4/I2C_I2C_MASTER.c **** *    The master started the transfer.
  85:Generated_Source\PSoC4/I2C_I2C_MASTER.c **** *  - I2C_I2C_MSTR_BUS_BUSY - Bus is busy. Nothing was sent on
  86:Generated_Source\PSoC4/I2C_I2C_MASTER.c **** *    the bus. The attempt has to be retried.
  87:Generated_Source\PSoC4/I2C_I2C_MASTER.c **** *  - I2C_I2C_MSTR_NOT_READY - Master is not ready for to start
  88:Generated_Source\PSoC4/I2C_I2C_MASTER.c **** *    transfer. A master still has not completed previous transaction or a
ARM GAS  C:\Users\EDULU~1.DES\AppData\Local\Temp\ccOPPFV9.s 			page 3


  89:Generated_Source\PSoC4/I2C_I2C_MASTER.c **** *    slave operation is in progress (in multi-master-slave configuration).
  90:Generated_Source\PSoC4/I2C_I2C_MASTER.c **** *    Nothing was sent on the bus. The attempt has to be retried.
  91:Generated_Source\PSoC4/I2C_I2C_MASTER.c **** *
  92:Generated_Source\PSoC4/I2C_I2C_MASTER.c **** * \globalvars
  93:Generated_Source\PSoC4/I2C_I2C_MASTER.c **** *  I2C_mstrStatus  - used to store current status of I2C Master.
  94:Generated_Source\PSoC4/I2C_I2C_MASTER.c **** *  I2C_state       - used to store current state of software FSM.
  95:Generated_Source\PSoC4/I2C_I2C_MASTER.c **** *  I2C_mstrControl - used to control master end of transaction with
  96:Generated_Source\PSoC4/I2C_I2C_MASTER.c **** *  or without the Stop generation.
  97:Generated_Source\PSoC4/I2C_I2C_MASTER.c **** *  I2C_mstrWrBufPtr - used to store pointer to master write buffer.
  98:Generated_Source\PSoC4/I2C_I2C_MASTER.c **** *  I2C_mstrWrBufIndex - used to current index within master write
  99:Generated_Source\PSoC4/I2C_I2C_MASTER.c **** *  buffer.
 100:Generated_Source\PSoC4/I2C_I2C_MASTER.c **** *  I2C_mstrWrBufSize - used to store master write buffer size.
 101:Generated_Source\PSoC4/I2C_I2C_MASTER.c **** *
 102:Generated_Source\PSoC4/I2C_I2C_MASTER.c **** *******************************************************************************/
 103:Generated_Source\PSoC4/I2C_I2C_MASTER.c **** uint32 I2C_I2CMasterWriteBuf(uint32 slaveAddress, uint8 * wrData, uint32 cnt, uint32 mode)
 104:Generated_Source\PSoC4/I2C_I2C_MASTER.c **** {
 105:Generated_Source\PSoC4/I2C_I2C_MASTER.c ****     uint32 errStatus;
 106:Generated_Source\PSoC4/I2C_I2C_MASTER.c **** 
 107:Generated_Source\PSoC4/I2C_I2C_MASTER.c ****     errStatus = I2C_I2C_MSTR_NOT_READY;
 108:Generated_Source\PSoC4/I2C_I2C_MASTER.c **** 
 109:Generated_Source\PSoC4/I2C_I2C_MASTER.c ****     if(NULL != wrData)  /* Check buffer pointer */
 110:Generated_Source\PSoC4/I2C_I2C_MASTER.c ****     {
 111:Generated_Source\PSoC4/I2C_I2C_MASTER.c ****         /* Check FSM state and bus before generating Start/ReStart condition */
 112:Generated_Source\PSoC4/I2C_I2C_MASTER.c ****         if(I2C_CHECK_I2C_FSM_IDLE)
 113:Generated_Source\PSoC4/I2C_I2C_MASTER.c ****         {
 114:Generated_Source\PSoC4/I2C_I2C_MASTER.c ****             I2C_DisableInt();  /* Lock from interruption */
 115:Generated_Source\PSoC4/I2C_I2C_MASTER.c **** 
 116:Generated_Source\PSoC4/I2C_I2C_MASTER.c ****             /* Check bus state */
 117:Generated_Source\PSoC4/I2C_I2C_MASTER.c ****             errStatus = I2C_CHECK_I2C_STATUS(I2C_I2C_STATUS_BUS_BUSY) ?
 118:Generated_Source\PSoC4/I2C_I2C_MASTER.c ****                             I2C_I2C_MSTR_BUS_BUSY : I2C_I2C_MSTR_NO_ERROR;
 119:Generated_Source\PSoC4/I2C_I2C_MASTER.c ****         }
 120:Generated_Source\PSoC4/I2C_I2C_MASTER.c ****         else if(I2C_CHECK_I2C_FSM_HALT)
 121:Generated_Source\PSoC4/I2C_I2C_MASTER.c ****         {
 122:Generated_Source\PSoC4/I2C_I2C_MASTER.c ****             I2C_mstrStatus &= (uint16) ~I2C_I2C_MSTAT_XFER_HALT;
 123:Generated_Source\PSoC4/I2C_I2C_MASTER.c ****                               errStatus  = I2C_I2C_MSTR_NO_ERROR;
 124:Generated_Source\PSoC4/I2C_I2C_MASTER.c ****         }
 125:Generated_Source\PSoC4/I2C_I2C_MASTER.c ****         else
 126:Generated_Source\PSoC4/I2C_I2C_MASTER.c ****         {
 127:Generated_Source\PSoC4/I2C_I2C_MASTER.c ****             /* Unexpected FSM state: exit */
 128:Generated_Source\PSoC4/I2C_I2C_MASTER.c ****         }
 129:Generated_Source\PSoC4/I2C_I2C_MASTER.c ****     }
 130:Generated_Source\PSoC4/I2C_I2C_MASTER.c **** 
 131:Generated_Source\PSoC4/I2C_I2C_MASTER.c ****     /* Check if master is ready to start  */
 132:Generated_Source\PSoC4/I2C_I2C_MASTER.c ****     if(I2C_I2C_MSTR_NO_ERROR == errStatus) /* No error proceed */
 133:Generated_Source\PSoC4/I2C_I2C_MASTER.c ****     {
 134:Generated_Source\PSoC4/I2C_I2C_MASTER.c ****         /* Non-empty for master-slave mode when wakeup enabled */
 135:Generated_Source\PSoC4/I2C_I2C_MASTER.c ****         I2C_I2CMasterDisableEcAm();
 136:Generated_Source\PSoC4/I2C_I2C_MASTER.c **** 
 137:Generated_Source\PSoC4/I2C_I2C_MASTER.c ****         /* Set up write transaction */
 138:Generated_Source\PSoC4/I2C_I2C_MASTER.c ****         I2C_state = I2C_I2C_FSM_MSTR_WR_ADDR;
 139:Generated_Source\PSoC4/I2C_I2C_MASTER.c ****         I2C_mstrWrBufIndexTmp = 0u;
 140:Generated_Source\PSoC4/I2C_I2C_MASTER.c ****         I2C_mstrWrBufIndex    = 0u;
 141:Generated_Source\PSoC4/I2C_I2C_MASTER.c ****         I2C_mstrWrBufSize     = cnt;
 142:Generated_Source\PSoC4/I2C_I2C_MASTER.c ****         I2C_mstrWrBufPtr      = (volatile uint8 *) wrData;
 143:Generated_Source\PSoC4/I2C_I2C_MASTER.c ****         I2C_mstrControl       = (uint8) mode;
 144:Generated_Source\PSoC4/I2C_I2C_MASTER.c **** 
 145:Generated_Source\PSoC4/I2C_I2C_MASTER.c ****         slaveAddress = I2C_GET_I2C_8BIT_ADDRESS(slaveAddress);
ARM GAS  C:\Users\EDULU~1.DES\AppData\Local\Temp\ccOPPFV9.s 			page 4


 146:Generated_Source\PSoC4/I2C_I2C_MASTER.c **** 
 147:Generated_Source\PSoC4/I2C_I2C_MASTER.c ****         I2C_mstrStatus &= (uint16) ~I2C_I2C_MSTAT_WR_CMPLT;
 148:Generated_Source\PSoC4/I2C_I2C_MASTER.c **** 
 149:Generated_Source\PSoC4/I2C_I2C_MASTER.c ****         I2C_ClearTxInterruptSource    (I2C_INTR_TX_UNDERFLOW);
 150:Generated_Source\PSoC4/I2C_I2C_MASTER.c ****         I2C_ClearMasterInterruptSource(I2C_INTR_MASTER_ALL);
 151:Generated_Source\PSoC4/I2C_I2C_MASTER.c ****         I2C_SetMasterInterruptMode    (I2C_I2C_INTR_MASTER_MASK);
 152:Generated_Source\PSoC4/I2C_I2C_MASTER.c **** 
 153:Generated_Source\PSoC4/I2C_I2C_MASTER.c ****         /* The TX and RX FIFO have to be EMPTY */
 154:Generated_Source\PSoC4/I2C_I2C_MASTER.c **** 
 155:Generated_Source\PSoC4/I2C_I2C_MASTER.c ****         /* Enable interrupt source to catch when address is sent */
 156:Generated_Source\PSoC4/I2C_I2C_MASTER.c ****         I2C_SetTxInterruptMode(I2C_INTR_TX_UNDERFLOW);
 157:Generated_Source\PSoC4/I2C_I2C_MASTER.c **** 
 158:Generated_Source\PSoC4/I2C_I2C_MASTER.c ****         /* Generate Start or ReStart */
 159:Generated_Source\PSoC4/I2C_I2C_MASTER.c ****         if(I2C_CHECK_I2C_MODE_RESTART(mode))
 160:Generated_Source\PSoC4/I2C_I2C_MASTER.c ****         {
 161:Generated_Source\PSoC4/I2C_I2C_MASTER.c ****             I2C_I2C_MASTER_GENERATE_RESTART;
 162:Generated_Source\PSoC4/I2C_I2C_MASTER.c ****             I2C_TX_FIFO_WR_REG = slaveAddress;
 163:Generated_Source\PSoC4/I2C_I2C_MASTER.c ****         }
 164:Generated_Source\PSoC4/I2C_I2C_MASTER.c ****         else
 165:Generated_Source\PSoC4/I2C_I2C_MASTER.c ****         {
 166:Generated_Source\PSoC4/I2C_I2C_MASTER.c ****             I2C_TX_FIFO_WR_REG = slaveAddress;
 167:Generated_Source\PSoC4/I2C_I2C_MASTER.c ****             I2C_I2C_MASTER_GENERATE_START;
 168:Generated_Source\PSoC4/I2C_I2C_MASTER.c ****         }
 169:Generated_Source\PSoC4/I2C_I2C_MASTER.c ****     }
 170:Generated_Source\PSoC4/I2C_I2C_MASTER.c **** 
 171:Generated_Source\PSoC4/I2C_I2C_MASTER.c ****     I2C_EnableInt();   /* Release lock */
 172:Generated_Source\PSoC4/I2C_I2C_MASTER.c **** 
 173:Generated_Source\PSoC4/I2C_I2C_MASTER.c ****     return(errStatus);
 174:Generated_Source\PSoC4/I2C_I2C_MASTER.c **** }
 175:Generated_Source\PSoC4/I2C_I2C_MASTER.c **** 
 176:Generated_Source\PSoC4/I2C_I2C_MASTER.c **** 
 177:Generated_Source\PSoC4/I2C_I2C_MASTER.c **** /*******************************************************************************
 178:Generated_Source\PSoC4/I2C_I2C_MASTER.c **** * Function Name: I2C_I2CMasterReadBuf
 179:Generated_Source\PSoC4/I2C_I2C_MASTER.c **** ****************************************************************************//**
 180:Generated_Source\PSoC4/I2C_I2C_MASTER.c **** *
 181:Generated_Source\PSoC4/I2C_I2C_MASTER.c **** *  Automatically reads an entire buffer of data from a slave device.
 182:Generated_Source\PSoC4/I2C_I2C_MASTER.c **** *  Once the data transfer is initiated by this function, further data transfer
 183:Generated_Source\PSoC4/I2C_I2C_MASTER.c **** *  is handled by the included ISR.
 184:Generated_Source\PSoC4/I2C_I2C_MASTER.c **** *  Enables the I2C interrupt and clears I2C_I2C_MSTAT_RD_CMPLT
 185:Generated_Source\PSoC4/I2C_I2C_MASTER.c **** *  status.
 186:Generated_Source\PSoC4/I2C_I2C_MASTER.c **** *
 187:Generated_Source\PSoC4/I2C_I2C_MASTER.c **** *  \param slaveAddr: 7-bit slave address.
 188:Generated_Source\PSoC4/I2C_I2C_MASTER.c **** *  \param xferData: Pointer to buffer of data to be sent.
 189:Generated_Source\PSoC4/I2C_I2C_MASTER.c **** *  \param cnt: Size of buffer to send.
 190:Generated_Source\PSoC4/I2C_I2C_MASTER.c **** *  \param mode: Transfer mode defines:
 191:Generated_Source\PSoC4/I2C_I2C_MASTER.c **** *  (1) Whether a start or restart condition is generated at the beginning
 192:Generated_Source\PSoC4/I2C_I2C_MASTER.c **** *  of the transfer, and
 193:Generated_Source\PSoC4/I2C_I2C_MASTER.c **** *  (2) Whether the transfer is completed or halted before the stop
 194:Generated_Source\PSoC4/I2C_I2C_MASTER.c **** *  condition is generated on the bus.Transfer mode, mode constants may
 195:Generated_Source\PSoC4/I2C_I2C_MASTER.c **** *  be ORed together. See I2C_I2CMasterWriteBuf()
 196:Generated_Source\PSoC4/I2C_I2C_MASTER.c **** *  function for constants.
 197:Generated_Source\PSoC4/I2C_I2C_MASTER.c **** *
 198:Generated_Source\PSoC4/I2C_I2C_MASTER.c **** * \return
 199:Generated_Source\PSoC4/I2C_I2C_MASTER.c **** *  Error status.See I2C_I2CMasterWriteBuf()
 200:Generated_Source\PSoC4/I2C_I2C_MASTER.c **** *  function for constants.
 201:Generated_Source\PSoC4/I2C_I2C_MASTER.c **** *
 202:Generated_Source\PSoC4/I2C_I2C_MASTER.c **** * \globalvars
ARM GAS  C:\Users\EDULU~1.DES\AppData\Local\Temp\ccOPPFV9.s 			page 5


 203:Generated_Source\PSoC4/I2C_I2C_MASTER.c **** *  I2C_mstrStatus  - used to store current status of I2C Master.
 204:Generated_Source\PSoC4/I2C_I2C_MASTER.c **** *  I2C_state       - used to store current state of software FSM.
 205:Generated_Source\PSoC4/I2C_I2C_MASTER.c **** *  I2C_mstrControl - used to control master end of transaction with
 206:Generated_Source\PSoC4/I2C_I2C_MASTER.c **** *  or without the Stop generation.
 207:Generated_Source\PSoC4/I2C_I2C_MASTER.c **** *  I2C_mstrRdBufPtr - used to store pointer to master read buffer.
 208:Generated_Source\PSoC4/I2C_I2C_MASTER.c **** *  I2C_mstrRdBufIndex - used to current index within master read
 209:Generated_Source\PSoC4/I2C_I2C_MASTER.c **** *  buffer.
 210:Generated_Source\PSoC4/I2C_I2C_MASTER.c **** *  I2C_mstrRdBufSize - used to store master read buffer size.
 211:Generated_Source\PSoC4/I2C_I2C_MASTER.c **** *
 212:Generated_Source\PSoC4/I2C_I2C_MASTER.c **** *******************************************************************************/
 213:Generated_Source\PSoC4/I2C_I2C_MASTER.c **** uint32 I2C_I2CMasterReadBuf(uint32 slaveAddress, uint8 * rdData, uint32 cnt, uint32 mode)
 214:Generated_Source\PSoC4/I2C_I2C_MASTER.c **** {
 215:Generated_Source\PSoC4/I2C_I2C_MASTER.c ****     uint32 errStatus;
 216:Generated_Source\PSoC4/I2C_I2C_MASTER.c **** 
 217:Generated_Source\PSoC4/I2C_I2C_MASTER.c ****     errStatus = I2C_I2C_MSTR_NOT_READY;
 218:Generated_Source\PSoC4/I2C_I2C_MASTER.c **** 
 219:Generated_Source\PSoC4/I2C_I2C_MASTER.c ****     if(NULL != rdData)
 220:Generated_Source\PSoC4/I2C_I2C_MASTER.c ****     {
 221:Generated_Source\PSoC4/I2C_I2C_MASTER.c ****         /* Check FSM state and bus before generating Start/ReStart condition */
 222:Generated_Source\PSoC4/I2C_I2C_MASTER.c ****         if(I2C_CHECK_I2C_FSM_IDLE)
 223:Generated_Source\PSoC4/I2C_I2C_MASTER.c ****         {
 224:Generated_Source\PSoC4/I2C_I2C_MASTER.c ****             I2C_DisableInt();  /* Lock from interruption */
 225:Generated_Source\PSoC4/I2C_I2C_MASTER.c **** 
 226:Generated_Source\PSoC4/I2C_I2C_MASTER.c ****             /* Check bus state */
 227:Generated_Source\PSoC4/I2C_I2C_MASTER.c ****             errStatus = I2C_CHECK_I2C_STATUS(I2C_I2C_STATUS_BUS_BUSY) ?
 228:Generated_Source\PSoC4/I2C_I2C_MASTER.c ****                             I2C_I2C_MSTR_BUS_BUSY : I2C_I2C_MSTR_NO_ERROR;
 229:Generated_Source\PSoC4/I2C_I2C_MASTER.c ****         }
 230:Generated_Source\PSoC4/I2C_I2C_MASTER.c ****         else if(I2C_CHECK_I2C_FSM_HALT)
 231:Generated_Source\PSoC4/I2C_I2C_MASTER.c ****         {
 232:Generated_Source\PSoC4/I2C_I2C_MASTER.c ****             I2C_mstrStatus &= (uint16) ~I2C_I2C_MSTAT_XFER_HALT;
 233:Generated_Source\PSoC4/I2C_I2C_MASTER.c ****                               errStatus  =  I2C_I2C_MSTR_NO_ERROR;
 234:Generated_Source\PSoC4/I2C_I2C_MASTER.c ****         }
 235:Generated_Source\PSoC4/I2C_I2C_MASTER.c ****         else
 236:Generated_Source\PSoC4/I2C_I2C_MASTER.c ****         {
 237:Generated_Source\PSoC4/I2C_I2C_MASTER.c ****             /* Unexpected FSM state: exit */
 238:Generated_Source\PSoC4/I2C_I2C_MASTER.c ****         }
 239:Generated_Source\PSoC4/I2C_I2C_MASTER.c ****     }
 240:Generated_Source\PSoC4/I2C_I2C_MASTER.c **** 
 241:Generated_Source\PSoC4/I2C_I2C_MASTER.c ****     /* Check master ready to proceed */
 242:Generated_Source\PSoC4/I2C_I2C_MASTER.c ****     if(I2C_I2C_MSTR_NO_ERROR == errStatus) /* No error proceed */
 243:Generated_Source\PSoC4/I2C_I2C_MASTER.c ****     {
 244:Generated_Source\PSoC4/I2C_I2C_MASTER.c ****         /* Non-empty for master-slave mode when wakeup enabled */
 245:Generated_Source\PSoC4/I2C_I2C_MASTER.c ****         I2C_I2CMasterDisableEcAm();
 246:Generated_Source\PSoC4/I2C_I2C_MASTER.c **** 
 247:Generated_Source\PSoC4/I2C_I2C_MASTER.c ****         /* Set up read transaction */
 248:Generated_Source\PSoC4/I2C_I2C_MASTER.c ****         I2C_state = I2C_I2C_FSM_MSTR_RD_ADDR;
 249:Generated_Source\PSoC4/I2C_I2C_MASTER.c ****         I2C_mstrRdBufIndex = 0u;
 250:Generated_Source\PSoC4/I2C_I2C_MASTER.c ****         I2C_mstrRdBufSize  = cnt;
 251:Generated_Source\PSoC4/I2C_I2C_MASTER.c ****         I2C_mstrRdBufPtr   = (volatile uint8 *) rdData;
 252:Generated_Source\PSoC4/I2C_I2C_MASTER.c ****         I2C_mstrControl    = (uint8) mode;
 253:Generated_Source\PSoC4/I2C_I2C_MASTER.c **** 
 254:Generated_Source\PSoC4/I2C_I2C_MASTER.c ****         slaveAddress = (I2C_GET_I2C_8BIT_ADDRESS(slaveAddress) | I2C_I2C_READ_FLAG);
 255:Generated_Source\PSoC4/I2C_I2C_MASTER.c **** 
 256:Generated_Source\PSoC4/I2C_I2C_MASTER.c ****         I2C_mstrStatus &= (uint16) ~I2C_I2C_MSTAT_RD_CMPLT;
 257:Generated_Source\PSoC4/I2C_I2C_MASTER.c **** 
 258:Generated_Source\PSoC4/I2C_I2C_MASTER.c ****         I2C_ClearMasterInterruptSource(I2C_INTR_MASTER_ALL);
 259:Generated_Source\PSoC4/I2C_I2C_MASTER.c ****         I2C_SetMasterInterruptMode    (I2C_I2C_INTR_MASTER_MASK);
ARM GAS  C:\Users\EDULU~1.DES\AppData\Local\Temp\ccOPPFV9.s 			page 6


 260:Generated_Source\PSoC4/I2C_I2C_MASTER.c **** 
 261:Generated_Source\PSoC4/I2C_I2C_MASTER.c ****         /* TX and RX FIFO have to be EMPTY */
 262:Generated_Source\PSoC4/I2C_I2C_MASTER.c **** 
 263:Generated_Source\PSoC4/I2C_I2C_MASTER.c ****         /* Prepare reading */
 264:Generated_Source\PSoC4/I2C_I2C_MASTER.c ****         if(I2C_mstrRdBufSize < I2C_I2C_FIFO_SIZE)
 265:Generated_Source\PSoC4/I2C_I2C_MASTER.c ****         {
 266:Generated_Source\PSoC4/I2C_I2C_MASTER.c ****             /* Reading byte-by-byte */
 267:Generated_Source\PSoC4/I2C_I2C_MASTER.c ****             I2C_SetRxInterruptMode(I2C_INTR_RX_NOT_EMPTY);
 268:Generated_Source\PSoC4/I2C_I2C_MASTER.c ****         }
 269:Generated_Source\PSoC4/I2C_I2C_MASTER.c ****         else
 270:Generated_Source\PSoC4/I2C_I2C_MASTER.c ****         {
 271:Generated_Source\PSoC4/I2C_I2C_MASTER.c ****             /* Receive RX FIFO chunks */
 272:Generated_Source\PSoC4/I2C_I2C_MASTER.c ****             I2C_ENABLE_MASTER_AUTO_DATA_ACK;
 273:Generated_Source\PSoC4/I2C_I2C_MASTER.c ****             I2C_SetRxInterruptMode(I2C_INTR_RX_FULL);
 274:Generated_Source\PSoC4/I2C_I2C_MASTER.c ****         }
 275:Generated_Source\PSoC4/I2C_I2C_MASTER.c **** 
 276:Generated_Source\PSoC4/I2C_I2C_MASTER.c ****         /* Generate Start or ReStart */
 277:Generated_Source\PSoC4/I2C_I2C_MASTER.c ****         if(I2C_CHECK_I2C_MODE_RESTART(mode))
 278:Generated_Source\PSoC4/I2C_I2C_MASTER.c ****         {
 279:Generated_Source\PSoC4/I2C_I2C_MASTER.c ****             I2C_I2C_MASTER_GENERATE_RESTART;
 280:Generated_Source\PSoC4/I2C_I2C_MASTER.c ****             I2C_TX_FIFO_WR_REG = slaveAddress;
 281:Generated_Source\PSoC4/I2C_I2C_MASTER.c ****         }
 282:Generated_Source\PSoC4/I2C_I2C_MASTER.c ****         else
 283:Generated_Source\PSoC4/I2C_I2C_MASTER.c ****         {
 284:Generated_Source\PSoC4/I2C_I2C_MASTER.c ****             I2C_TX_FIFO_WR_REG = slaveAddress;
 285:Generated_Source\PSoC4/I2C_I2C_MASTER.c ****             I2C_I2C_MASTER_GENERATE_START;
 286:Generated_Source\PSoC4/I2C_I2C_MASTER.c ****         }
 287:Generated_Source\PSoC4/I2C_I2C_MASTER.c ****     }
 288:Generated_Source\PSoC4/I2C_I2C_MASTER.c **** 
 289:Generated_Source\PSoC4/I2C_I2C_MASTER.c ****     I2C_EnableInt();   /* Release lock */
 290:Generated_Source\PSoC4/I2C_I2C_MASTER.c **** 
 291:Generated_Source\PSoC4/I2C_I2C_MASTER.c ****     return(errStatus);
 292:Generated_Source\PSoC4/I2C_I2C_MASTER.c **** }
 293:Generated_Source\PSoC4/I2C_I2C_MASTER.c **** 
 294:Generated_Source\PSoC4/I2C_I2C_MASTER.c **** 
 295:Generated_Source\PSoC4/I2C_I2C_MASTER.c **** /*******************************************************************************
 296:Generated_Source\PSoC4/I2C_I2C_MASTER.c **** * Function Name: I2C_I2CMasterSendStart
 297:Generated_Source\PSoC4/I2C_I2C_MASTER.c **** ****************************************************************************//**
 298:Generated_Source\PSoC4/I2C_I2C_MASTER.c **** *
 299:Generated_Source\PSoC4/I2C_I2C_MASTER.c **** * Generates Start condition and sends slave address with read/write bit.
 300:Generated_Source\PSoC4/I2C_I2C_MASTER.c **** * Disables the I2C interrupt.
 301:Generated_Source\PSoC4/I2C_I2C_MASTER.c **** * This function is blocking and does not return until start condition and
 302:Generated_Source\PSoC4/I2C_I2C_MASTER.c **** * address byte are sent and ACK/NACK response is received or errors occurred.
 303:Generated_Source\PSoC4/I2C_I2C_MASTER.c **** *
 304:Generated_Source\PSoC4/I2C_I2C_MASTER.c **** * \param slaveAddress
 305:Generated_Source\PSoC4/I2C_I2C_MASTER.c **** * Right justified 7-bit Slave address (valid range 8 to 120).
 306:Generated_Source\PSoC4/I2C_I2C_MASTER.c **** *
 307:Generated_Source\PSoC4/I2C_I2C_MASTER.c **** * \param bitRnW
 308:Generated_Source\PSoC4/I2C_I2C_MASTER.c **** * Direction of the following transfer. It is defined by read/write bit within
 309:Generated_Source\PSoC4/I2C_I2C_MASTER.c **** * address byte.
 310:Generated_Source\PSoC4/I2C_I2C_MASTER.c **** *  - I2C_I2C_WRITE_XFER_MODE - Set write direction for the
 311:Generated_Source\PSoC4/I2C_I2C_MASTER.c **** *    following transfer.
 312:Generated_Source\PSoC4/I2C_I2C_MASTER.c **** *  - I2C_I2C_READ_XFER_MODE - Set read direction for the
 313:Generated_Source\PSoC4/I2C_I2C_MASTER.c **** *    following transfer.
 314:Generated_Source\PSoC4/I2C_I2C_MASTER.c **** *
 315:Generated_Source\PSoC4/I2C_I2C_MASTER.c **** * \param timeoutMs
 316:Generated_Source\PSoC4/I2C_I2C_MASTER.c **** * Defines in milliseconds the time that this function can block for.
ARM GAS  C:\Users\EDULU~1.DES\AppData\Local\Temp\ccOPPFV9.s 			page 7


 317:Generated_Source\PSoC4/I2C_I2C_MASTER.c **** * If that time expires, the function returns. If a zero is passed,
 318:Generated_Source\PSoC4/I2C_I2C_MASTER.c **** * the function waits forever for the action to complete. If a timeout occurs,
 319:Generated_Source\PSoC4/I2C_I2C_MASTER.c **** * the SCB block is reset. Note The maximum value is (maximum uint32)/1000.
 320:Generated_Source\PSoC4/I2C_I2C_MASTER.c **** *
 321:Generated_Source\PSoC4/I2C_I2C_MASTER.c **** * \return
 322:Generated_Source\PSoC4/I2C_I2C_MASTER.c **** * Error status.
 323:Generated_Source\PSoC4/I2C_I2C_MASTER.c **** *  - I2C_I2C_MSTR_NO_ERROR - Function complete without error.
 324:Generated_Source\PSoC4/I2C_I2C_MASTER.c **** *  - I2C_I2C_MSTR_BUS_BUSY - Bus is busy.
 325:Generated_Source\PSoC4/I2C_I2C_MASTER.c **** *    Nothing was sent on the bus. The attempt has to be retried.
 326:Generated_Source\PSoC4/I2C_I2C_MASTER.c **** *  - I2C_I2C_MSTR_NOT_READY - Master is not ready for to
 327:Generated_Source\PSoC4/I2C_I2C_MASTER.c **** *    start transfer.
 328:Generated_Source\PSoC4/I2C_I2C_MASTER.c **** *    A master still has not completed previous transaction or a slave
 329:Generated_Source\PSoC4/I2C_I2C_MASTER.c **** *    operation is in progress (in multi-master-slave configuration).
 330:Generated_Source\PSoC4/I2C_I2C_MASTER.c **** *    Nothing was sent on the bus. The attempt has to be retried.
 331:Generated_Source\PSoC4/I2C_I2C_MASTER.c **** *  - I2C_I2C_MSTR_ERR_LB_NAK - Error condition: Last byte was
 332:Generated_Source\PSoC4/I2C_I2C_MASTER.c **** *    NAKed.
 333:Generated_Source\PSoC4/I2C_I2C_MASTER.c **** *  - I2C_I2C_MSTR_ERR_ARB_LOST - Error condition: Master lost
 334:Generated_Source\PSoC4/I2C_I2C_MASTER.c **** *    arbitration.
 335:Generated_Source\PSoC4/I2C_I2C_MASTER.c **** *  - I2C_I2C_MSTR_ERR_BUS_ERR - Error condition: Master
 336:Generated_Source\PSoC4/I2C_I2C_MASTER.c **** *    encountered a bus error. Bus error is misplaced start or stop detection.
 337:Generated_Source\PSoC4/I2C_I2C_MASTER.c **** *  - I2C_I2C_MSTR_ERR_ABORT_START - Error condition: The start
 338:Generated_Source\PSoC4/I2C_I2C_MASTER.c **** *    condition generation was aborted due to beginning of Slave operation.
 339:Generated_Source\PSoC4/I2C_I2C_MASTER.c **** *    This error condition is only applicable for Multi-Master-Slave mode.
 340:Generated_Source\PSoC4/I2C_I2C_MASTER.c **** *
 341:Generated_Source\PSoC4/I2C_I2C_MASTER.c **** * \globalvars
 342:Generated_Source\PSoC4/I2C_I2C_MASTER.c **** * I2C_state - used to store current state of software FSM.
 343:Generated_Source\PSoC4/I2C_I2C_MASTER.c **** *
 344:Generated_Source\PSoC4/I2C_I2C_MASTER.c **** *******************************************************************************/
 345:Generated_Source\PSoC4/I2C_I2C_MASTER.c **** uint32 I2C_I2CMasterSendStart(uint32 slaveAddress, uint32 bitRnW, uint32 timeoutMs)
 346:Generated_Source\PSoC4/I2C_I2C_MASTER.c **** {
 347:Generated_Source\PSoC4/I2C_I2C_MASTER.c ****     uint32 errStatus = I2C_I2C_MSTR_NOT_READY;
 348:Generated_Source\PSoC4/I2C_I2C_MASTER.c **** 
 349:Generated_Source\PSoC4/I2C_I2C_MASTER.c ****     if(I2C_CHECK_I2C_FSM_IDLE)
 350:Generated_Source\PSoC4/I2C_I2C_MASTER.c ****     {
 351:Generated_Source\PSoC4/I2C_I2C_MASTER.c ****         I2C_DisableInt();  /* Lock from interruption */
 352:Generated_Source\PSoC4/I2C_I2C_MASTER.c **** 
 353:Generated_Source\PSoC4/I2C_I2C_MASTER.c ****         if(I2C_CHECK_I2C_STATUS(I2C_I2C_STATUS_BUS_BUSY))
 354:Generated_Source\PSoC4/I2C_I2C_MASTER.c ****         {
 355:Generated_Source\PSoC4/I2C_I2C_MASTER.c ****             errStatus = I2C_I2C_MSTR_BUS_BUSY;
 356:Generated_Source\PSoC4/I2C_I2C_MASTER.c ****         }
 357:Generated_Source\PSoC4/I2C_I2C_MASTER.c ****         else
 358:Generated_Source\PSoC4/I2C_I2C_MASTER.c ****         {
 359:Generated_Source\PSoC4/I2C_I2C_MASTER.c ****             uint32 locStatus;
 360:Generated_Source\PSoC4/I2C_I2C_MASTER.c ****             uint32 timeout = I2C_I2C_CONVERT_TIMEOUT_TO_US(timeoutMs);
 361:Generated_Source\PSoC4/I2C_I2C_MASTER.c **** 
 362:Generated_Source\PSoC4/I2C_I2C_MASTER.c ****             /* Non-empty for master-slave mode when wakeup enabled */
 363:Generated_Source\PSoC4/I2C_I2C_MASTER.c ****             I2C_I2CMasterDisableEcAm();
 364:Generated_Source\PSoC4/I2C_I2C_MASTER.c **** 
 365:Generated_Source\PSoC4/I2C_I2C_MASTER.c ****             /* Clean up the hardware before a transaction. */
 366:Generated_Source\PSoC4/I2C_I2C_MASTER.c ****             I2C_SetMasterInterruptMode    (I2C_NO_INTR_SOURCES);
 367:Generated_Source\PSoC4/I2C_I2C_MASTER.c ****             I2C_ClearMasterInterruptSource(I2C_INTR_MASTER_ALL);
 368:Generated_Source\PSoC4/I2C_I2C_MASTER.c ****             I2C_ClearRxInterruptSource    (I2C_INTR_RX_ALL);
 369:Generated_Source\PSoC4/I2C_I2C_MASTER.c **** 
 370:Generated_Source\PSoC4/I2C_I2C_MASTER.c ****             slaveAddress = I2C_GET_I2C_8BIT_ADDRESS(slaveAddress);
 371:Generated_Source\PSoC4/I2C_I2C_MASTER.c **** 
 372:Generated_Source\PSoC4/I2C_I2C_MASTER.c ****             if(0u == bitRnW) /* Write direction */
 373:Generated_Source\PSoC4/I2C_I2C_MASTER.c ****             {
ARM GAS  C:\Users\EDULU~1.DES\AppData\Local\Temp\ccOPPFV9.s 			page 8


 374:Generated_Source\PSoC4/I2C_I2C_MASTER.c ****                 I2C_state = I2C_I2C_FSM_MSTR_WR_DATA;
 375:Generated_Source\PSoC4/I2C_I2C_MASTER.c ****             }
 376:Generated_Source\PSoC4/I2C_I2C_MASTER.c ****             else             /* Read direction */
 377:Generated_Source\PSoC4/I2C_I2C_MASTER.c ****             {
 378:Generated_Source\PSoC4/I2C_I2C_MASTER.c ****                 I2C_state = I2C_I2C_FSM_MSTR_RD_DATA;
 379:Generated_Source\PSoC4/I2C_I2C_MASTER.c ****                          slaveAddress |= I2C_I2C_READ_FLAG;
 380:Generated_Source\PSoC4/I2C_I2C_MASTER.c ****             }
 381:Generated_Source\PSoC4/I2C_I2C_MASTER.c **** 
 382:Generated_Source\PSoC4/I2C_I2C_MASTER.c ****             /* TX and RX FIFO have to be empty at here */
 383:Generated_Source\PSoC4/I2C_I2C_MASTER.c **** 
 384:Generated_Source\PSoC4/I2C_I2C_MASTER.c ****              /* Generate Start and send address */
 385:Generated_Source\PSoC4/I2C_I2C_MASTER.c ****             I2C_TX_FIFO_WR_REG = slaveAddress;
 386:Generated_Source\PSoC4/I2C_I2C_MASTER.c ****             I2C_I2C_MASTER_GENERATE_START;
 387:Generated_Source\PSoC4/I2C_I2C_MASTER.c **** 
 388:Generated_Source\PSoC4/I2C_I2C_MASTER.c ****             /* Wait until address has been transferred. Note that for master reads at least one byt
 389:Generated_Source\PSoC4/I2C_I2C_MASTER.c ****             do
 390:Generated_Source\PSoC4/I2C_I2C_MASTER.c ****             {
 391:Generated_Source\PSoC4/I2C_I2C_MASTER.c ****                 locStatus  = I2C_GetMasterInterruptSource() & I2C_INTR_MASTER_SEND_BYTE;
 392:Generated_Source\PSoC4/I2C_I2C_MASTER.c ****                 locStatus |= I2C_GetSlaveInterruptSource() & I2C_SLAVE_INTR_I2C_ADDR;
 393:Generated_Source\PSoC4/I2C_I2C_MASTER.c ****                 locStatus |= I2C_I2CMasterWaitOneUnit(&timeout);
 394:Generated_Source\PSoC4/I2C_I2C_MASTER.c ****             }
 395:Generated_Source\PSoC4/I2C_I2C_MASTER.c ****             while (0u == locStatus);
 396:Generated_Source\PSoC4/I2C_I2C_MASTER.c **** 
 397:Generated_Source\PSoC4/I2C_I2C_MASTER.c ****             /* Handle completion event and convert to status */
 398:Generated_Source\PSoC4/I2C_I2C_MASTER.c ****             errStatus = I2C_I2CMasterHandleStatus(locStatus);
 399:Generated_Source\PSoC4/I2C_I2C_MASTER.c ****         }
 400:Generated_Source\PSoC4/I2C_I2C_MASTER.c **** 
 401:Generated_Source\PSoC4/I2C_I2C_MASTER.c ****         I2C_EnableInt();  /* Release lock */
 402:Generated_Source\PSoC4/I2C_I2C_MASTER.c ****     }
 403:Generated_Source\PSoC4/I2C_I2C_MASTER.c **** 
 404:Generated_Source\PSoC4/I2C_I2C_MASTER.c ****     return(errStatus);
 405:Generated_Source\PSoC4/I2C_I2C_MASTER.c **** }
 406:Generated_Source\PSoC4/I2C_I2C_MASTER.c **** 
 407:Generated_Source\PSoC4/I2C_I2C_MASTER.c **** 
 408:Generated_Source\PSoC4/I2C_I2C_MASTER.c **** /*******************************************************************************
 409:Generated_Source\PSoC4/I2C_I2C_MASTER.c **** * Function Name: I2C_I2CMasterSendRestart
 410:Generated_Source\PSoC4/I2C_I2C_MASTER.c **** ****************************************************************************//**
 411:Generated_Source\PSoC4/I2C_I2C_MASTER.c **** *
 412:Generated_Source\PSoC4/I2C_I2C_MASTER.c **** * Generates Restart condition and sends slave address with read/write bit.
 413:Generated_Source\PSoC4/I2C_I2C_MASTER.c **** * This function is blocking and does not return until start condition and
 414:Generated_Source\PSoC4/I2C_I2C_MASTER.c **** * address are sent and ACK/NACK response is received or errors occurred.
 415:Generated_Source\PSoC4/I2C_I2C_MASTER.c **** *
 416:Generated_Source\PSoC4/I2C_I2C_MASTER.c **** * \param slaveAddress
 417:Generated_Source\PSoC4/I2C_I2C_MASTER.c **** * Right justified 7-bit Slave address (valid range 8 to 120).
 418:Generated_Source\PSoC4/I2C_I2C_MASTER.c **** *
 419:Generated_Source\PSoC4/I2C_I2C_MASTER.c **** * \param bitRnW
 420:Generated_Source\PSoC4/I2C_I2C_MASTER.c **** * Direction of the following transfer. It is defined by read/write bit within
 421:Generated_Source\PSoC4/I2C_I2C_MASTER.c **** * address byte.See I2C_I2CMasterSendStart() function for constants.
 422:Generated_Source\PSoC4/I2C_I2C_MASTER.c **** *
 423:Generated_Source\PSoC4/I2C_I2C_MASTER.c **** * \param timeoutMs
 424:Generated_Source\PSoC4/I2C_I2C_MASTER.c **** * Defines in milliseconds the time that this function can block for.
 425:Generated_Source\PSoC4/I2C_I2C_MASTER.c **** * If that time expires, the function returns. If a zero is passed,
 426:Generated_Source\PSoC4/I2C_I2C_MASTER.c **** * the function waits forever for the action to complete. If a timeout occurs,
 427:Generated_Source\PSoC4/I2C_I2C_MASTER.c **** * the SCB block is reset. Note The maximum value is (maximum uint32)/1000.
 428:Generated_Source\PSoC4/I2C_I2C_MASTER.c **** *
 429:Generated_Source\PSoC4/I2C_I2C_MASTER.c **** * \return
 430:Generated_Source\PSoC4/I2C_I2C_MASTER.c **** * Error status.
ARM GAS  C:\Users\EDULU~1.DES\AppData\Local\Temp\ccOPPFV9.s 			page 9


 431:Generated_Source\PSoC4/I2C_I2C_MASTER.c **** * See I2C_I2CMasterSendStart() function for constants.
 432:Generated_Source\PSoC4/I2C_I2C_MASTER.c **** *
 433:Generated_Source\PSoC4/I2C_I2C_MASTER.c **** * \sideeffect
 434:Generated_Source\PSoC4/I2C_I2C_MASTER.c **** * A valid Start or ReStart condition must be generated before calling
 435:Generated_Source\PSoC4/I2C_I2C_MASTER.c **** * this function. This function does nothing if Start or ReStart conditions
 436:Generated_Source\PSoC4/I2C_I2C_MASTER.c **** * failed before this function was called.
 437:Generated_Source\PSoC4/I2C_I2C_MASTER.c **** * For read transaction, at least one byte has to be read before ReStart
 438:Generated_Source\PSoC4/I2C_I2C_MASTER.c **** * generation.
 439:Generated_Source\PSoC4/I2C_I2C_MASTER.c **** *
 440:Generated_Source\PSoC4/I2C_I2C_MASTER.c **** * \globalvars
 441:Generated_Source\PSoC4/I2C_I2C_MASTER.c **** * I2C_state - used to store current state of software FSM.
 442:Generated_Source\PSoC4/I2C_I2C_MASTER.c **** *
 443:Generated_Source\PSoC4/I2C_I2C_MASTER.c **** *******************************************************************************/
 444:Generated_Source\PSoC4/I2C_I2C_MASTER.c **** uint32 I2C_I2CMasterSendRestart(uint32 slaveAddress, uint32 bitRnW, uint32 timeoutMs)
 445:Generated_Source\PSoC4/I2C_I2C_MASTER.c **** {
 446:Generated_Source\PSoC4/I2C_I2C_MASTER.c ****     uint32 errStatus = I2C_I2C_MSTR_NOT_READY;
 447:Generated_Source\PSoC4/I2C_I2C_MASTER.c **** 
 448:Generated_Source\PSoC4/I2C_I2C_MASTER.c ****     /* Check FSM state before generating ReStart condition */
 449:Generated_Source\PSoC4/I2C_I2C_MASTER.c ****     if(I2C_CHECK_I2C_MASTER_ACTIVE)
 450:Generated_Source\PSoC4/I2C_I2C_MASTER.c ****     {
 451:Generated_Source\PSoC4/I2C_I2C_MASTER.c ****         uint32 locStatus;
 452:Generated_Source\PSoC4/I2C_I2C_MASTER.c ****         uint32 timeout = I2C_I2C_CONVERT_TIMEOUT_TO_US(timeoutMs);
 453:Generated_Source\PSoC4/I2C_I2C_MASTER.c **** 
 454:Generated_Source\PSoC4/I2C_I2C_MASTER.c ****         slaveAddress = I2C_GET_I2C_8BIT_ADDRESS(slaveAddress);
 455:Generated_Source\PSoC4/I2C_I2C_MASTER.c **** 
 456:Generated_Source\PSoC4/I2C_I2C_MASTER.c ****         if(0u == bitRnW) /* Write direction */
 457:Generated_Source\PSoC4/I2C_I2C_MASTER.c ****         {
 458:Generated_Source\PSoC4/I2C_I2C_MASTER.c ****             I2C_state = I2C_I2C_FSM_MSTR_WR_DATA;
 459:Generated_Source\PSoC4/I2C_I2C_MASTER.c ****         }
 460:Generated_Source\PSoC4/I2C_I2C_MASTER.c ****         else             /* Read direction */
 461:Generated_Source\PSoC4/I2C_I2C_MASTER.c ****         {
 462:Generated_Source\PSoC4/I2C_I2C_MASTER.c ****             I2C_state  = I2C_I2C_FSM_MSTR_RD_DATA;
 463:Generated_Source\PSoC4/I2C_I2C_MASTER.c ****                       slaveAddress |= I2C_I2C_READ_FLAG;
 464:Generated_Source\PSoC4/I2C_I2C_MASTER.c ****         }
 465:Generated_Source\PSoC4/I2C_I2C_MASTER.c **** 
 466:Generated_Source\PSoC4/I2C_I2C_MASTER.c ****         /* TX and RX FIFO have to be empty at here */
 467:Generated_Source\PSoC4/I2C_I2C_MASTER.c **** 
 468:Generated_Source\PSoC4/I2C_I2C_MASTER.c ****         /* A proper ReStart sequence is: set command to generate ReStart, then put an address byte 
 469:Generated_Source\PSoC4/I2C_I2C_MASTER.c ****         * Put address into the TX FIFO the 1st makes scb IP think that this data byte for current w
 470:Generated_Source\PSoC4/I2C_I2C_MASTER.c ****         */
 471:Generated_Source\PSoC4/I2C_I2C_MASTER.c ****         I2C_I2C_MASTER_GENERATE_RESTART;
 472:Generated_Source\PSoC4/I2C_I2C_MASTER.c ****         I2C_TX_FIFO_WR_REG = slaveAddress;
 473:Generated_Source\PSoC4/I2C_I2C_MASTER.c **** 
 474:Generated_Source\PSoC4/I2C_I2C_MASTER.c ****         /* Wait until address has been transferred. Note that for master reads at least one byte. *
 475:Generated_Source\PSoC4/I2C_I2C_MASTER.c ****         do
 476:Generated_Source\PSoC4/I2C_I2C_MASTER.c ****         {
 477:Generated_Source\PSoC4/I2C_I2C_MASTER.c ****             locStatus  = I2C_GetMasterInterruptSource() & I2C_INTR_MASTER_SEND_BYTE;
 478:Generated_Source\PSoC4/I2C_I2C_MASTER.c ****             locStatus |= I2C_I2CMasterWaitOneUnit(&timeout);
 479:Generated_Source\PSoC4/I2C_I2C_MASTER.c ****         }
 480:Generated_Source\PSoC4/I2C_I2C_MASTER.c ****         while (0u == locStatus);
 481:Generated_Source\PSoC4/I2C_I2C_MASTER.c **** 
 482:Generated_Source\PSoC4/I2C_I2C_MASTER.c **** 
 483:Generated_Source\PSoC4/I2C_I2C_MASTER.c ****         /* Handle completion event and convert to status */
 484:Generated_Source\PSoC4/I2C_I2C_MASTER.c ****         errStatus = I2C_I2CMasterHandleStatus(locStatus);
 485:Generated_Source\PSoC4/I2C_I2C_MASTER.c ****     }
 486:Generated_Source\PSoC4/I2C_I2C_MASTER.c **** 
 487:Generated_Source\PSoC4/I2C_I2C_MASTER.c ****     return(errStatus);
ARM GAS  C:\Users\EDULU~1.DES\AppData\Local\Temp\ccOPPFV9.s 			page 10


 488:Generated_Source\PSoC4/I2C_I2C_MASTER.c **** }
 489:Generated_Source\PSoC4/I2C_I2C_MASTER.c **** 
 490:Generated_Source\PSoC4/I2C_I2C_MASTER.c **** 
 491:Generated_Source\PSoC4/I2C_I2C_MASTER.c **** /*******************************************************************************
 492:Generated_Source\PSoC4/I2C_I2C_MASTER.c **** * Function Name: I2C_I2CMasterSendStop
 493:Generated_Source\PSoC4/I2C_I2C_MASTER.c **** ****************************************************************************//**
 494:Generated_Source\PSoC4/I2C_I2C_MASTER.c **** *
 495:Generated_Source\PSoC4/I2C_I2C_MASTER.c **** * Generates Stop condition on the bus.
 496:Generated_Source\PSoC4/I2C_I2C_MASTER.c **** * The NAK is generated before Stop in case of a read transaction.
 497:Generated_Source\PSoC4/I2C_I2C_MASTER.c **** * At least one byte has to be read if a Start or ReStart condition with read
 498:Generated_Source\PSoC4/I2C_I2C_MASTER.c **** * direction was generated before.
 499:Generated_Source\PSoC4/I2C_I2C_MASTER.c **** * This function is blocking and does not return until a Stop condition is
 500:Generated_Source\PSoC4/I2C_I2C_MASTER.c **** * generated or error occurred.
 501:Generated_Source\PSoC4/I2C_I2C_MASTER.c **** *
 502:Generated_Source\PSoC4/I2C_I2C_MASTER.c **** * \param timeoutMs
 503:Generated_Source\PSoC4/I2C_I2C_MASTER.c **** * Defines in milliseconds the time that this function can block for.
 504:Generated_Source\PSoC4/I2C_I2C_MASTER.c **** * If that time expires, the function returns. If a zero is passed,
 505:Generated_Source\PSoC4/I2C_I2C_MASTER.c **** * the function waits forever for the action to complete. If a timeout occurs,
 506:Generated_Source\PSoC4/I2C_I2C_MASTER.c **** * the SCB block is reset. Note The maximum value is (maximum uint32)/1000.
 507:Generated_Source\PSoC4/I2C_I2C_MASTER.c **** *
 508:Generated_Source\PSoC4/I2C_I2C_MASTER.c **** * \return
 509:Generated_Source\PSoC4/I2C_I2C_MASTER.c **** * Error status.
 510:Generated_Source\PSoC4/I2C_I2C_MASTER.c **** * See I2C_I2CMasterSendStart() function for constants.
 511:Generated_Source\PSoC4/I2C_I2C_MASTER.c **** *
 512:Generated_Source\PSoC4/I2C_I2C_MASTER.c **** * \sideeffect
 513:Generated_Source\PSoC4/I2C_I2C_MASTER.c **** * A valid Start or ReStart condition must be generated before calling
 514:Generated_Source\PSoC4/I2C_I2C_MASTER.c **** * this function. This function does nothing if Start or ReStart conditions
 515:Generated_Source\PSoC4/I2C_I2C_MASTER.c **** * failed before this function was called.
 516:Generated_Source\PSoC4/I2C_I2C_MASTER.c **** * For read transaction, at least one byte has to be read before ReStart
 517:Generated_Source\PSoC4/I2C_I2C_MASTER.c **** * generation.
 518:Generated_Source\PSoC4/I2C_I2C_MASTER.c **** *
 519:Generated_Source\PSoC4/I2C_I2C_MASTER.c **** * \globalvars
 520:Generated_Source\PSoC4/I2C_I2C_MASTER.c **** * I2C_state - used to store current state of software FSM.
 521:Generated_Source\PSoC4/I2C_I2C_MASTER.c **** *
 522:Generated_Source\PSoC4/I2C_I2C_MASTER.c **** *******************************************************************************/
 523:Generated_Source\PSoC4/I2C_I2C_MASTER.c **** uint32 I2C_I2CMasterSendStop(uint32 timeoutMs)
 524:Generated_Source\PSoC4/I2C_I2C_MASTER.c **** {
 525:Generated_Source\PSoC4/I2C_I2C_MASTER.c ****     uint32 errStatus = I2C_I2C_MSTR_NOT_READY;
 526:Generated_Source\PSoC4/I2C_I2C_MASTER.c **** 
 527:Generated_Source\PSoC4/I2C_I2C_MASTER.c ****     /* Check FSM state before generating Stop condition */
 528:Generated_Source\PSoC4/I2C_I2C_MASTER.c ****     if(I2C_CHECK_I2C_MASTER_ACTIVE)
 529:Generated_Source\PSoC4/I2C_I2C_MASTER.c ****     {
 530:Generated_Source\PSoC4/I2C_I2C_MASTER.c ****         uint32 locStatus;
 531:Generated_Source\PSoC4/I2C_I2C_MASTER.c ****         uint32 timeout = I2C_I2C_CONVERT_TIMEOUT_TO_US(timeoutMs);
 532:Generated_Source\PSoC4/I2C_I2C_MASTER.c **** 
 533:Generated_Source\PSoC4/I2C_I2C_MASTER.c ****         /* Write direction: generates Stop; Read  direction: generates NACK and Stop; */
 534:Generated_Source\PSoC4/I2C_I2C_MASTER.c ****         I2C_I2C_MASTER_GENERATE_STOP;
 535:Generated_Source\PSoC4/I2C_I2C_MASTER.c **** 
 536:Generated_Source\PSoC4/I2C_I2C_MASTER.c ****         /* Wait for a completion event from the master */
 537:Generated_Source\PSoC4/I2C_I2C_MASTER.c ****         do
 538:Generated_Source\PSoC4/I2C_I2C_MASTER.c ****         {
 539:Generated_Source\PSoC4/I2C_I2C_MASTER.c ****             locStatus  = I2C_GetMasterInterruptSource() & I2C_INTR_MASTER_SEND_STOP;
 540:Generated_Source\PSoC4/I2C_I2C_MASTER.c ****             locStatus |= I2C_I2CMasterWaitOneUnit(&timeout);
 541:Generated_Source\PSoC4/I2C_I2C_MASTER.c ****         }
 542:Generated_Source\PSoC4/I2C_I2C_MASTER.c ****         while (0u == locStatus);
 543:Generated_Source\PSoC4/I2C_I2C_MASTER.c **** 
 544:Generated_Source\PSoC4/I2C_I2C_MASTER.c ****         /* Handle completion event and convert to status */
ARM GAS  C:\Users\EDULU~1.DES\AppData\Local\Temp\ccOPPFV9.s 			page 11


 545:Generated_Source\PSoC4/I2C_I2C_MASTER.c ****         errStatus = I2C_I2CMasterHandleStatus(locStatus);
 546:Generated_Source\PSoC4/I2C_I2C_MASTER.c ****     }
 547:Generated_Source\PSoC4/I2C_I2C_MASTER.c **** 
 548:Generated_Source\PSoC4/I2C_I2C_MASTER.c ****     return(errStatus);
 549:Generated_Source\PSoC4/I2C_I2C_MASTER.c **** }
 550:Generated_Source\PSoC4/I2C_I2C_MASTER.c **** 
 551:Generated_Source\PSoC4/I2C_I2C_MASTER.c **** 
 552:Generated_Source\PSoC4/I2C_I2C_MASTER.c **** /*******************************************************************************
 553:Generated_Source\PSoC4/I2C_I2C_MASTER.c **** * Function Name: I2C_I2CMasterWriteByte
 554:Generated_Source\PSoC4/I2C_I2C_MASTER.c **** ****************************************************************************//**
 555:Generated_Source\PSoC4/I2C_I2C_MASTER.c **** *
 556:Generated_Source\PSoC4/I2C_I2C_MASTER.c **** * Sends one byte to a slave.
 557:Generated_Source\PSoC4/I2C_I2C_MASTER.c **** * This function is blocking and does not return until byte is transmitted
 558:Generated_Source\PSoC4/I2C_I2C_MASTER.c **** * or error occurred.
 559:Generated_Source\PSoC4/I2C_I2C_MASTER.c **** *
 560:Generated_Source\PSoC4/I2C_I2C_MASTER.c **** * \param wrByte
 561:Generated_Source\PSoC4/I2C_I2C_MASTER.c **** * The data byte to send to the slave.
 562:Generated_Source\PSoC4/I2C_I2C_MASTER.c **** *
 563:Generated_Source\PSoC4/I2C_I2C_MASTER.c **** * \param timeoutMs
 564:Generated_Source\PSoC4/I2C_I2C_MASTER.c **** * Defines in milliseconds the time that this function can block for.
 565:Generated_Source\PSoC4/I2C_I2C_MASTER.c **** * If that time expires, the function returns. If a zero is passed,
 566:Generated_Source\PSoC4/I2C_I2C_MASTER.c **** * the function waits forever for the action to complete. If a timeout occurs,
 567:Generated_Source\PSoC4/I2C_I2C_MASTER.c **** * the SCB block is reset. Note The maximum value is (maximum uint32)/1000.
 568:Generated_Source\PSoC4/I2C_I2C_MASTER.c **** *
 569:Generated_Source\PSoC4/I2C_I2C_MASTER.c **** * \return
 570:Generated_Source\PSoC4/I2C_I2C_MASTER.c **** * Error status.
 571:Generated_Source\PSoC4/I2C_I2C_MASTER.c **** * See I2C_I2CMasterSendStart() function for constants.
 572:Generated_Source\PSoC4/I2C_I2C_MASTER.c **** *
 573:Generated_Source\PSoC4/I2C_I2C_MASTER.c **** * \sideeffect
 574:Generated_Source\PSoC4/I2C_I2C_MASTER.c **** * A valid Start or ReStart condition must be generated before calling
 575:Generated_Source\PSoC4/I2C_I2C_MASTER.c **** * this function. This function does nothing if Start or ReStart condition
 576:Generated_Source\PSoC4/I2C_I2C_MASTER.c **** * failed before this function was called.
 577:Generated_Source\PSoC4/I2C_I2C_MASTER.c **** *
 578:Generated_Source\PSoC4/I2C_I2C_MASTER.c **** * \globalvars
 579:Generated_Source\PSoC4/I2C_I2C_MASTER.c **** * I2C_state - used to store current state of software FSM.
 580:Generated_Source\PSoC4/I2C_I2C_MASTER.c **** *
 581:Generated_Source\PSoC4/I2C_I2C_MASTER.c **** *******************************************************************************/
 582:Generated_Source\PSoC4/I2C_I2C_MASTER.c **** uint32 I2C_I2CMasterWriteByte(uint32 wrByte, uint32 timeoutMs)
 583:Generated_Source\PSoC4/I2C_I2C_MASTER.c **** {
 584:Generated_Source\PSoC4/I2C_I2C_MASTER.c ****     uint32 errStatus = I2C_I2C_MSTR_NOT_READY;
 585:Generated_Source\PSoC4/I2C_I2C_MASTER.c **** 
 586:Generated_Source\PSoC4/I2C_I2C_MASTER.c ****     /* Check FSM state before write byte */
 587:Generated_Source\PSoC4/I2C_I2C_MASTER.c ****     if(I2C_CHECK_I2C_MASTER_ACTIVE)
 588:Generated_Source\PSoC4/I2C_I2C_MASTER.c ****     {
 589:Generated_Source\PSoC4/I2C_I2C_MASTER.c ****         uint32 locStatus;
 590:Generated_Source\PSoC4/I2C_I2C_MASTER.c ****         uint32 timeout = I2C_I2C_CONVERT_TIMEOUT_TO_US(timeoutMs);
 591:Generated_Source\PSoC4/I2C_I2C_MASTER.c **** 
 592:Generated_Source\PSoC4/I2C_I2C_MASTER.c ****         I2C_TX_FIFO_WR_REG = wrByte;
 593:Generated_Source\PSoC4/I2C_I2C_MASTER.c **** 
 594:Generated_Source\PSoC4/I2C_I2C_MASTER.c ****         /* Wait for a completion event from the master */
 595:Generated_Source\PSoC4/I2C_I2C_MASTER.c ****         do
 596:Generated_Source\PSoC4/I2C_I2C_MASTER.c ****         {
 597:Generated_Source\PSoC4/I2C_I2C_MASTER.c ****             locStatus  = I2C_GetMasterInterruptSource() & I2C_INTR_MASTER_SEND_BYTE;
 598:Generated_Source\PSoC4/I2C_I2C_MASTER.c ****             locStatus |= I2C_I2CMasterWaitOneUnit(&timeout);
 599:Generated_Source\PSoC4/I2C_I2C_MASTER.c ****         }
 600:Generated_Source\PSoC4/I2C_I2C_MASTER.c ****         while (0u == locStatus);
 601:Generated_Source\PSoC4/I2C_I2C_MASTER.c **** 
ARM GAS  C:\Users\EDULU~1.DES\AppData\Local\Temp\ccOPPFV9.s 			page 12


 602:Generated_Source\PSoC4/I2C_I2C_MASTER.c ****         /* Handle completion event and convert to status */
 603:Generated_Source\PSoC4/I2C_I2C_MASTER.c ****         errStatus = I2C_I2CMasterHandleStatus(locStatus);
 604:Generated_Source\PSoC4/I2C_I2C_MASTER.c ****     }
 605:Generated_Source\PSoC4/I2C_I2C_MASTER.c **** 
 606:Generated_Source\PSoC4/I2C_I2C_MASTER.c ****     return(errStatus);
 607:Generated_Source\PSoC4/I2C_I2C_MASTER.c **** }
 608:Generated_Source\PSoC4/I2C_I2C_MASTER.c **** 
 609:Generated_Source\PSoC4/I2C_I2C_MASTER.c **** 
 610:Generated_Source\PSoC4/I2C_I2C_MASTER.c **** 
 611:Generated_Source\PSoC4/I2C_I2C_MASTER.c **** /*******************************************************************************
 612:Generated_Source\PSoC4/I2C_I2C_MASTER.c **** * Function Name: I2C_I2CMasterReadByte
 613:Generated_Source\PSoC4/I2C_I2C_MASTER.c **** ****************************************************************************//**
 614:Generated_Source\PSoC4/I2C_I2C_MASTER.c **** *
 615:Generated_Source\PSoC4/I2C_I2C_MASTER.c **** * Reads one byte from a slave and generates ACK or prepares to generate NAK.
 616:Generated_Source\PSoC4/I2C_I2C_MASTER.c **** * The NAK will be generated before Stop or ReStart condition by
 617:Generated_Source\PSoC4/I2C_I2C_MASTER.c **** * I2C_I2CMasterSendStop() or
 618:Generated_Source\PSoC4/I2C_I2C_MASTER.c **** * I2C_I2CMasterSendRestart() function appropriately.
 619:Generated_Source\PSoC4/I2C_I2C_MASTER.c **** * This function is blocking. It does not return until a byte is received or
 620:Generated_Source\PSoC4/I2C_I2C_MASTER.c **** * an error occurs.
 621:Generated_Source\PSoC4/I2C_I2C_MASTER.c **** *
 622:Generated_Source\PSoC4/I2C_I2C_MASTER.c **** * \param ackNack
 623:Generated_Source\PSoC4/I2C_I2C_MASTER.c **** * Response to received byte.
 624:Generated_Source\PSoC4/I2C_I2C_MASTER.c **** *  - I2C_I2C_ACK_DATA - Generates ACK.
 625:Generated_Source\PSoC4/I2C_I2C_MASTER.c **** *     The master notifies slave that transfer continues.
 626:Generated_Source\PSoC4/I2C_I2C_MASTER.c **** *  - I2C_I2C_NAK_DATA - Prepares to generate NAK.
 627:Generated_Source\PSoC4/I2C_I2C_MASTER.c **** *     The master will notify slave that transfer is completed.
 628:Generated_Source\PSoC4/I2C_I2C_MASTER.c **** *
 629:Generated_Source\PSoC4/I2C_I2C_MASTER.c **** * \param rdByte
 630:Generated_Source\PSoC4/I2C_I2C_MASTER.c **** * The pointer to the location to store the data byte that was read from
 631:Generated_Source\PSoC4/I2C_I2C_MASTER.c **** * the slave.
 632:Generated_Source\PSoC4/I2C_I2C_MASTER.c **** * Note that the byte should be ignored if error status is returned.
 633:Generated_Source\PSoC4/I2C_I2C_MASTER.c **** *
 634:Generated_Source\PSoC4/I2C_I2C_MASTER.c **** * \param timeoutMs
 635:Generated_Source\PSoC4/I2C_I2C_MASTER.c **** * Defines in milliseconds the time that this function can block for.
 636:Generated_Source\PSoC4/I2C_I2C_MASTER.c **** * If that time expires, the function returns. If a zero is passed,
 637:Generated_Source\PSoC4/I2C_I2C_MASTER.c **** * the function waits forever for the action to complete. If a timeout occurs,
 638:Generated_Source\PSoC4/I2C_I2C_MASTER.c **** * the SCB block is reset. Note The maximum value is (maximum uint32)/1000.
 639:Generated_Source\PSoC4/I2C_I2C_MASTER.c **** *
 640:Generated_Source\PSoC4/I2C_I2C_MASTER.c **** * \return
 641:Generated_Source\PSoC4/I2C_I2C_MASTER.c **** * Error status.
 642:Generated_Source\PSoC4/I2C_I2C_MASTER.c **** * See I2C_I2CMasterSendStart() function for constants.
 643:Generated_Source\PSoC4/I2C_I2C_MASTER.c **** *
 644:Generated_Source\PSoC4/I2C_I2C_MASTER.c **** * \sideeffect
 645:Generated_Source\PSoC4/I2C_I2C_MASTER.c **** * A valid Start or ReStart condition must be generated before calling
 646:Generated_Source\PSoC4/I2C_I2C_MASTER.c **** * this function. This function does nothing if Start or ReStart condition
 647:Generated_Source\PSoC4/I2C_I2C_MASTER.c **** * failed before this function was called.
 648:Generated_Source\PSoC4/I2C_I2C_MASTER.c **** *
 649:Generated_Source\PSoC4/I2C_I2C_MASTER.c **** * \globalvars
 650:Generated_Source\PSoC4/I2C_I2C_MASTER.c **** * I2C_state - used to store current state of software FSM.
 651:Generated_Source\PSoC4/I2C_I2C_MASTER.c **** *
 652:Generated_Source\PSoC4/I2C_I2C_MASTER.c **** *******************************************************************************/
 653:Generated_Source\PSoC4/I2C_I2C_MASTER.c **** uint32 I2C_I2CMasterReadByte(uint32 ackNack, uint8 *rdByte, uint32 timeoutMs)
 654:Generated_Source\PSoC4/I2C_I2C_MASTER.c **** {
 655:Generated_Source\PSoC4/I2C_I2C_MASTER.c ****     uint32 errStatus = I2C_I2C_MSTR_NOT_READY;
 656:Generated_Source\PSoC4/I2C_I2C_MASTER.c **** 
 657:Generated_Source\PSoC4/I2C_I2C_MASTER.c ****     /* Check FSM state before read byte */
 658:Generated_Source\PSoC4/I2C_I2C_MASTER.c ****     if(I2C_CHECK_I2C_MASTER_ACTIVE)
ARM GAS  C:\Users\EDULU~1.DES\AppData\Local\Temp\ccOPPFV9.s 			page 13


 659:Generated_Source\PSoC4/I2C_I2C_MASTER.c ****     {
 660:Generated_Source\PSoC4/I2C_I2C_MASTER.c ****         uint32 locStatus;
 661:Generated_Source\PSoC4/I2C_I2C_MASTER.c ****         uint32 rxNotEmpty;
 662:Generated_Source\PSoC4/I2C_I2C_MASTER.c ****         uint32 timeout = I2C_I2C_CONVERT_TIMEOUT_TO_US(timeoutMs);
 663:Generated_Source\PSoC4/I2C_I2C_MASTER.c **** 
 664:Generated_Source\PSoC4/I2C_I2C_MASTER.c ****         /* Wait for a completion event from the master */
 665:Generated_Source\PSoC4/I2C_I2C_MASTER.c ****         do
 666:Generated_Source\PSoC4/I2C_I2C_MASTER.c ****         {
 667:Generated_Source\PSoC4/I2C_I2C_MASTER.c ****             locStatus  = I2C_GetMasterInterruptSource() & I2C_INTR_MASTER_RECEIVE_BYTE;
 668:Generated_Source\PSoC4/I2C_I2C_MASTER.c ****             rxNotEmpty = I2C_GetRxInterruptSource() & I2C_INTR_RX_NOT_EMPTY;
 669:Generated_Source\PSoC4/I2C_I2C_MASTER.c ****             locStatus |= I2C_I2CMasterWaitOneUnit(&timeout);
 670:Generated_Source\PSoC4/I2C_I2C_MASTER.c ****         }
 671:Generated_Source\PSoC4/I2C_I2C_MASTER.c ****         while ((0u == locStatus) && (0u == rxNotEmpty));
 672:Generated_Source\PSoC4/I2C_I2C_MASTER.c **** 
 673:Generated_Source\PSoC4/I2C_I2C_MASTER.c ****         /* Get byte from RX FIFO */
 674:Generated_Source\PSoC4/I2C_I2C_MASTER.c ****         if (0u != rxNotEmpty)
 675:Generated_Source\PSoC4/I2C_I2C_MASTER.c ****         {
 676:Generated_Source\PSoC4/I2C_I2C_MASTER.c ****             *rdByte = (uint8)I2C_RX_FIFO_RD_REG;
 677:Generated_Source\PSoC4/I2C_I2C_MASTER.c ****             I2C_ClearRxInterruptSource(I2C_INTR_RX_ALL);
 678:Generated_Source\PSoC4/I2C_I2C_MASTER.c ****         }
 679:Generated_Source\PSoC4/I2C_I2C_MASTER.c **** 
 680:Generated_Source\PSoC4/I2C_I2C_MASTER.c ****         /* Handle completion event and convert to status */
 681:Generated_Source\PSoC4/I2C_I2C_MASTER.c ****         errStatus = I2C_I2CMasterHandleStatus(locStatus);
 682:Generated_Source\PSoC4/I2C_I2C_MASTER.c **** 
 683:Generated_Source\PSoC4/I2C_I2C_MASTER.c ****         if (I2C_I2C_MSTR_NO_ERROR == errStatus)
 684:Generated_Source\PSoC4/I2C_I2C_MASTER.c ****         {
 685:Generated_Source\PSoC4/I2C_I2C_MASTER.c ****             if(I2C_I2C_ACK_DATA == ackNack)
 686:Generated_Source\PSoC4/I2C_I2C_MASTER.c ****             {
 687:Generated_Source\PSoC4/I2C_I2C_MASTER.c ****                 I2C_I2C_MASTER_GENERATE_ACK;
 688:Generated_Source\PSoC4/I2C_I2C_MASTER.c ****             }
 689:Generated_Source\PSoC4/I2C_I2C_MASTER.c ****             else
 690:Generated_Source\PSoC4/I2C_I2C_MASTER.c ****             {
 691:Generated_Source\PSoC4/I2C_I2C_MASTER.c ****                 /* NACK is generated by Stop or ReStart command */
 692:Generated_Source\PSoC4/I2C_I2C_MASTER.c ****             }
 693:Generated_Source\PSoC4/I2C_I2C_MASTER.c ****         }
 694:Generated_Source\PSoC4/I2C_I2C_MASTER.c ****     }
 695:Generated_Source\PSoC4/I2C_I2C_MASTER.c **** 
 696:Generated_Source\PSoC4/I2C_I2C_MASTER.c ****     return(errStatus);
 697:Generated_Source\PSoC4/I2C_I2C_MASTER.c **** }
 698:Generated_Source\PSoC4/I2C_I2C_MASTER.c **** 
 699:Generated_Source\PSoC4/I2C_I2C_MASTER.c **** 
 700:Generated_Source\PSoC4/I2C_I2C_MASTER.c **** /*******************************************************************************
 701:Generated_Source\PSoC4/I2C_I2C_MASTER.c **** * Function Name: I2C_I2CMasterGetReadBufSize
 702:Generated_Source\PSoC4/I2C_I2C_MASTER.c **** ****************************************************************************//**
 703:Generated_Source\PSoC4/I2C_I2C_MASTER.c **** *
 704:Generated_Source\PSoC4/I2C_I2C_MASTER.c **** *  Returns the number of bytes that has been transferred with an
 705:Generated_Source\PSoC4/I2C_I2C_MASTER.c **** *  I2C_I2CMasterReadBuf() function.
 706:Generated_Source\PSoC4/I2C_I2C_MASTER.c **** *
 707:Generated_Source\PSoC4/I2C_I2C_MASTER.c **** * \return
 708:Generated_Source\PSoC4/I2C_I2C_MASTER.c **** *  Byte count of transfer. If the transfer is not yet complete, it returns
 709:Generated_Source\PSoC4/I2C_I2C_MASTER.c **** *  the byte count transferred so far.
 710:Generated_Source\PSoC4/I2C_I2C_MASTER.c **** *
 711:Generated_Source\PSoC4/I2C_I2C_MASTER.c **** * \sideeffect
 712:Generated_Source\PSoC4/I2C_I2C_MASTER.c **** *  This function returns not valid value if
 713:Generated_Source\PSoC4/I2C_I2C_MASTER.c **** *  I2C_I2C_MSTAT_ERR_ARB_LOST or
 714:Generated_Source\PSoC4/I2C_I2C_MASTER.c **** *  I2C_I2C_MSTAT_ERR_BUS_ERROR occurred while read transfer.
 715:Generated_Source\PSoC4/I2C_I2C_MASTER.c **** *
ARM GAS  C:\Users\EDULU~1.DES\AppData\Local\Temp\ccOPPFV9.s 			page 14


 716:Generated_Source\PSoC4/I2C_I2C_MASTER.c **** * \globalvars
 717:Generated_Source\PSoC4/I2C_I2C_MASTER.c **** *  I2C_mstrRdBufIndex - used to current index within master read
 718:Generated_Source\PSoC4/I2C_I2C_MASTER.c **** *  buffer.
 719:Generated_Source\PSoC4/I2C_I2C_MASTER.c **** *
 720:Generated_Source\PSoC4/I2C_I2C_MASTER.c **** *******************************************************************************/
 721:Generated_Source\PSoC4/I2C_I2C_MASTER.c **** uint32 I2C_I2CMasterGetReadBufSize(void)
 722:Generated_Source\PSoC4/I2C_I2C_MASTER.c **** {
 723:Generated_Source\PSoC4/I2C_I2C_MASTER.c ****     return(I2C_mstrRdBufIndex);
 724:Generated_Source\PSoC4/I2C_I2C_MASTER.c **** }
 725:Generated_Source\PSoC4/I2C_I2C_MASTER.c **** 
 726:Generated_Source\PSoC4/I2C_I2C_MASTER.c **** 
 727:Generated_Source\PSoC4/I2C_I2C_MASTER.c **** /*******************************************************************************
 728:Generated_Source\PSoC4/I2C_I2C_MASTER.c **** * Function Name: I2C_I2CMasterGetWriteBufSize
 729:Generated_Source\PSoC4/I2C_I2C_MASTER.c **** ****************************************************************************//**
 730:Generated_Source\PSoC4/I2C_I2C_MASTER.c **** *
 731:Generated_Source\PSoC4/I2C_I2C_MASTER.c **** *  Returns the number of bytes that have been transferred with an
 732:Generated_Source\PSoC4/I2C_I2C_MASTER.c **** *  SCB_I2CMasterWriteBuf() function.
 733:Generated_Source\PSoC4/I2C_I2C_MASTER.c **** *
 734:Generated_Source\PSoC4/I2C_I2C_MASTER.c **** * \return
 735:Generated_Source\PSoC4/I2C_I2C_MASTER.c **** *   Byte count of transfer. If the transfer is not yet complete, it returns
 736:Generated_Source\PSoC4/I2C_I2C_MASTER.c **** *   zero unit transfer completion.
 737:Generated_Source\PSoC4/I2C_I2C_MASTER.c **** *
 738:Generated_Source\PSoC4/I2C_I2C_MASTER.c **** * \sideeffect
 739:Generated_Source\PSoC4/I2C_I2C_MASTER.c **** *   This function returns not valid value if
 740:Generated_Source\PSoC4/I2C_I2C_MASTER.c **** *   I2C_I2C_MSTAT_ERR_ARB_LOST or
 741:Generated_Source\PSoC4/I2C_I2C_MASTER.c **** *   I2C_I2C_MSTAT_ERR_BUS_ERROR occurred while read transfer.
 742:Generated_Source\PSoC4/I2C_I2C_MASTER.c **** *
 743:Generated_Source\PSoC4/I2C_I2C_MASTER.c **** * \globalvars
 744:Generated_Source\PSoC4/I2C_I2C_MASTER.c **** *  I2C_mstrWrBufIndex - used to current index within master write
 745:Generated_Source\PSoC4/I2C_I2C_MASTER.c **** *  buffer.
 746:Generated_Source\PSoC4/I2C_I2C_MASTER.c **** *
 747:Generated_Source\PSoC4/I2C_I2C_MASTER.c **** *******************************************************************************/
 748:Generated_Source\PSoC4/I2C_I2C_MASTER.c **** uint32 I2C_I2CMasterGetWriteBufSize(void)
 749:Generated_Source\PSoC4/I2C_I2C_MASTER.c **** {
 750:Generated_Source\PSoC4/I2C_I2C_MASTER.c ****     return(I2C_mstrWrBufIndex);
 751:Generated_Source\PSoC4/I2C_I2C_MASTER.c **** }
 752:Generated_Source\PSoC4/I2C_I2C_MASTER.c **** 
 753:Generated_Source\PSoC4/I2C_I2C_MASTER.c **** 
 754:Generated_Source\PSoC4/I2C_I2C_MASTER.c **** /*******************************************************************************
 755:Generated_Source\PSoC4/I2C_I2C_MASTER.c **** * Function Name: I2C_I2CMasterClearReadBuf
 756:Generated_Source\PSoC4/I2C_I2C_MASTER.c **** ****************************************************************************//**
 757:Generated_Source\PSoC4/I2C_I2C_MASTER.c **** *
 758:Generated_Source\PSoC4/I2C_I2C_MASTER.c **** *  Resets the read buffer pointer back to the first byte in the buffer.
 759:Generated_Source\PSoC4/I2C_I2C_MASTER.c **** *
 760:Generated_Source\PSoC4/I2C_I2C_MASTER.c **** * \globalvars
 761:Generated_Source\PSoC4/I2C_I2C_MASTER.c **** *  I2C_mstrRdBufIndex - used to current index within master read
 762:Generated_Source\PSoC4/I2C_I2C_MASTER.c **** *   buffer.
 763:Generated_Source\PSoC4/I2C_I2C_MASTER.c **** *  I2C_mstrStatus - used to store current status of I2C Master.
 764:Generated_Source\PSoC4/I2C_I2C_MASTER.c **** *
 765:Generated_Source\PSoC4/I2C_I2C_MASTER.c **** *******************************************************************************/
 766:Generated_Source\PSoC4/I2C_I2C_MASTER.c **** void I2C_I2CMasterClearReadBuf(void)
 767:Generated_Source\PSoC4/I2C_I2C_MASTER.c **** {
 768:Generated_Source\PSoC4/I2C_I2C_MASTER.c ****     I2C_DisableInt();  /* Lock from interruption */
 769:Generated_Source\PSoC4/I2C_I2C_MASTER.c **** 
 770:Generated_Source\PSoC4/I2C_I2C_MASTER.c ****     I2C_mstrRdBufIndex = 0u;
 771:Generated_Source\PSoC4/I2C_I2C_MASTER.c ****     I2C_mstrStatus    &= (uint16) ~I2C_I2C_MSTAT_RD_CMPLT;
 772:Generated_Source\PSoC4/I2C_I2C_MASTER.c **** 
ARM GAS  C:\Users\EDULU~1.DES\AppData\Local\Temp\ccOPPFV9.s 			page 15


 773:Generated_Source\PSoC4/I2C_I2C_MASTER.c ****     I2C_EnableInt();   /* Release lock */
 774:Generated_Source\PSoC4/I2C_I2C_MASTER.c **** }
 775:Generated_Source\PSoC4/I2C_I2C_MASTER.c **** 
 776:Generated_Source\PSoC4/I2C_I2C_MASTER.c **** 
 777:Generated_Source\PSoC4/I2C_I2C_MASTER.c **** /*******************************************************************************
 778:Generated_Source\PSoC4/I2C_I2C_MASTER.c **** * Function Name: I2C_I2CMasterClearWriteBuf
 779:Generated_Source\PSoC4/I2C_I2C_MASTER.c **** ****************************************************************************//**
 780:Generated_Source\PSoC4/I2C_I2C_MASTER.c **** *
 781:Generated_Source\PSoC4/I2C_I2C_MASTER.c **** *  Resets the write buffer pointer back to the first byte in the buffer.
 782:Generated_Source\PSoC4/I2C_I2C_MASTER.c **** *
 783:Generated_Source\PSoC4/I2C_I2C_MASTER.c **** * \globalvars
 784:Generated_Source\PSoC4/I2C_I2C_MASTER.c **** *  I2C_mstrRdBufIndex - used to current index within master read
 785:Generated_Source\PSoC4/I2C_I2C_MASTER.c **** *   buffer.
 786:Generated_Source\PSoC4/I2C_I2C_MASTER.c **** *  I2C_mstrStatus - used to store current status of I2C Master.
 787:Generated_Source\PSoC4/I2C_I2C_MASTER.c **** *
 788:Generated_Source\PSoC4/I2C_I2C_MASTER.c **** *******************************************************************************/
 789:Generated_Source\PSoC4/I2C_I2C_MASTER.c **** void I2C_I2CMasterClearWriteBuf(void)
 790:Generated_Source\PSoC4/I2C_I2C_MASTER.c **** {
 791:Generated_Source\PSoC4/I2C_I2C_MASTER.c ****     I2C_DisableInt();  /* Lock from interruption */
 792:Generated_Source\PSoC4/I2C_I2C_MASTER.c **** 
 793:Generated_Source\PSoC4/I2C_I2C_MASTER.c ****     I2C_mstrWrBufIndex = 0u;
 794:Generated_Source\PSoC4/I2C_I2C_MASTER.c ****     I2C_mstrStatus    &= (uint16) ~I2C_I2C_MSTAT_WR_CMPLT;
 795:Generated_Source\PSoC4/I2C_I2C_MASTER.c **** 
 796:Generated_Source\PSoC4/I2C_I2C_MASTER.c ****     I2C_EnableInt();   /* Release lock */
 797:Generated_Source\PSoC4/I2C_I2C_MASTER.c **** }
 798:Generated_Source\PSoC4/I2C_I2C_MASTER.c **** 
 799:Generated_Source\PSoC4/I2C_I2C_MASTER.c **** 
 800:Generated_Source\PSoC4/I2C_I2C_MASTER.c **** /*******************************************************************************
 801:Generated_Source\PSoC4/I2C_I2C_MASTER.c **** * Function Name: I2C_I2CMasterStatus
 802:Generated_Source\PSoC4/I2C_I2C_MASTER.c **** ****************************************************************************//**
 803:Generated_Source\PSoC4/I2C_I2C_MASTER.c **** *
 804:Generated_Source\PSoC4/I2C_I2C_MASTER.c **** *  Returns the master's communication status.
 805:Generated_Source\PSoC4/I2C_I2C_MASTER.c **** *
 806:Generated_Source\PSoC4/I2C_I2C_MASTER.c **** * \return
 807:Generated_Source\PSoC4/I2C_I2C_MASTER.c **** *  Current status of I2C master. This status incorporates status constants.
 808:Generated_Source\PSoC4/I2C_I2C_MASTER.c **** *  Each constant is a bit field value. The value returned may have multiple
 809:Generated_Source\PSoC4/I2C_I2C_MASTER.c **** *  bits set to indicate the status of the read or write transfer.
 810:Generated_Source\PSoC4/I2C_I2C_MASTER.c **** *  - I2C_I2C_MSTAT_RD_CMPLT - Read transfer complete.
 811:Generated_Source\PSoC4/I2C_I2C_MASTER.c **** *    The error condition status bits must be checked to ensure that
 812:Generated_Source\PSoC4/I2C_I2C_MASTER.c **** *    read transfer was completed successfully.
 813:Generated_Source\PSoC4/I2C_I2C_MASTER.c **** *  - I2C_I2C_MSTAT_WR_CMPLT - Write transfer complete.
 814:Generated_Source\PSoC4/I2C_I2C_MASTER.c **** *    The error condition status bits must be checked to ensure that write
 815:Generated_Source\PSoC4/I2C_I2C_MASTER.c **** *    transfer was completed successfully.
 816:Generated_Source\PSoC4/I2C_I2C_MASTER.c **** *  - I2C_I2C_MSTAT_XFER_INP - Transfer in progress.
 817:Generated_Source\PSoC4/I2C_I2C_MASTER.c **** *  - I2C_I2C_MSTAT_XFER_HALT - Transfer has been halted.
 818:Generated_Source\PSoC4/I2C_I2C_MASTER.c **** *    The I2C bus is waiting for ReStart or Stop condition generation.
 819:Generated_Source\PSoC4/I2C_I2C_MASTER.c **** *  - I2C_I2C_MSTAT_ERR_SHORT_XFER - Error condition: Write
 820:Generated_Source\PSoC4/I2C_I2C_MASTER.c **** *    transfer completed before all bytes were transferred. The slave NAKed
 821:Generated_Source\PSoC4/I2C_I2C_MASTER.c **** *    the byte which was expected to be ACKed.
 822:Generated_Source\PSoC4/I2C_I2C_MASTER.c **** *  - I2C_I2C_MSTAT_ERR_ADDR_NAK - Error condition: Slave did
 823:Generated_Source\PSoC4/I2C_I2C_MASTER.c **** *    not acknowledge address.
 824:Generated_Source\PSoC4/I2C_I2C_MASTER.c **** *  - I2C_I2C_MSTAT_ERR_ARB_LOST - Error condition: Master lost
 825:Generated_Source\PSoC4/I2C_I2C_MASTER.c **** *    arbitration during communications with slave.
 826:Generated_Source\PSoC4/I2C_I2C_MASTER.c **** *  - I2C_I2C_MSTAT_ERR_BUS_ERROR - Error condition: bus error
 827:Generated_Source\PSoC4/I2C_I2C_MASTER.c **** *    occurred during master transfer due to misplaced Start or Stop
 828:Generated_Source\PSoC4/I2C_I2C_MASTER.c **** *    condition on the bus.
 829:Generated_Source\PSoC4/I2C_I2C_MASTER.c **** *  - I2C_I2C_MSTAT_ERR_ABORT_XFER - Error condition: Slave was
ARM GAS  C:\Users\EDULU~1.DES\AppData\Local\Temp\ccOPPFV9.s 			page 16


 830:Generated_Source\PSoC4/I2C_I2C_MASTER.c **** *    addressed by another master while master performed the start condition
 831:Generated_Source\PSoC4/I2C_I2C_MASTER.c **** *    generation. As a result, master has automatically switched to slave
 832:Generated_Source\PSoC4/I2C_I2C_MASTER.c **** *    mode and is responding. The master transaction has not taken place
 833:Generated_Source\PSoC4/I2C_I2C_MASTER.c **** *    This error condition only applicable for Multi-Master-Slave mode.
 834:Generated_Source\PSoC4/I2C_I2C_MASTER.c **** *  - I2C_I2C_MSTAT_ERR_XFER - Error condition: This is the
 835:Generated_Source\PSoC4/I2C_I2C_MASTER.c **** *    ORed value of all error conditions provided above.
 836:Generated_Source\PSoC4/I2C_I2C_MASTER.c **** *
 837:Generated_Source\PSoC4/I2C_I2C_MASTER.c **** * \globalvars
 838:Generated_Source\PSoC4/I2C_I2C_MASTER.c **** *  I2C_mstrStatus - used to store current status of I2C Master.
 839:Generated_Source\PSoC4/I2C_I2C_MASTER.c **** *
 840:Generated_Source\PSoC4/I2C_I2C_MASTER.c **** *******************************************************************************/
 841:Generated_Source\PSoC4/I2C_I2C_MASTER.c **** uint32 I2C_I2CMasterStatus(void)
 842:Generated_Source\PSoC4/I2C_I2C_MASTER.c **** {
 843:Generated_Source\PSoC4/I2C_I2C_MASTER.c ****     uint32 status;
 844:Generated_Source\PSoC4/I2C_I2C_MASTER.c **** 
 845:Generated_Source\PSoC4/I2C_I2C_MASTER.c ****     I2C_DisableInt();  /* Lock from interruption */
 846:Generated_Source\PSoC4/I2C_I2C_MASTER.c **** 
 847:Generated_Source\PSoC4/I2C_I2C_MASTER.c ****     status = (uint32) I2C_mstrStatus;
 848:Generated_Source\PSoC4/I2C_I2C_MASTER.c **** 
 849:Generated_Source\PSoC4/I2C_I2C_MASTER.c ****     if (I2C_CHECK_I2C_MASTER_ACTIVE)
 850:Generated_Source\PSoC4/I2C_I2C_MASTER.c ****     {
 851:Generated_Source\PSoC4/I2C_I2C_MASTER.c ****         /* Add status of master pending transaction: MSTAT_XFER_INP */
 852:Generated_Source\PSoC4/I2C_I2C_MASTER.c ****         status |= (uint32) I2C_I2C_MSTAT_XFER_INP;
 853:Generated_Source\PSoC4/I2C_I2C_MASTER.c ****     }
 854:Generated_Source\PSoC4/I2C_I2C_MASTER.c **** 
 855:Generated_Source\PSoC4/I2C_I2C_MASTER.c ****     I2C_EnableInt();   /* Release lock */
 856:Generated_Source\PSoC4/I2C_I2C_MASTER.c **** 
 857:Generated_Source\PSoC4/I2C_I2C_MASTER.c ****     return(status);
 858:Generated_Source\PSoC4/I2C_I2C_MASTER.c **** }
 859:Generated_Source\PSoC4/I2C_I2C_MASTER.c **** 
 860:Generated_Source\PSoC4/I2C_I2C_MASTER.c **** 
 861:Generated_Source\PSoC4/I2C_I2C_MASTER.c **** /*******************************************************************************
 862:Generated_Source\PSoC4/I2C_I2C_MASTER.c **** * Function Name: I2C_I2CMasterClearStatus
 863:Generated_Source\PSoC4/I2C_I2C_MASTER.c **** ****************************************************************************//**
 864:Generated_Source\PSoC4/I2C_I2C_MASTER.c **** *
 865:Generated_Source\PSoC4/I2C_I2C_MASTER.c **** *  Clears all status flags and returns the master status.
 866:Generated_Source\PSoC4/I2C_I2C_MASTER.c **** *
 867:Generated_Source\PSoC4/I2C_I2C_MASTER.c **** * \return
 868:Generated_Source\PSoC4/I2C_I2C_MASTER.c **** *  Current status of master. See the I2C_I2CMasterStatus()
 869:Generated_Source\PSoC4/I2C_I2C_MASTER.c **** *  function for constants.
 870:Generated_Source\PSoC4/I2C_I2C_MASTER.c **** *
 871:Generated_Source\PSoC4/I2C_I2C_MASTER.c **** * \globalvars
 872:Generated_Source\PSoC4/I2C_I2C_MASTER.c **** *  I2C_mstrStatus - used to store current status of I2C Master.
 873:Generated_Source\PSoC4/I2C_I2C_MASTER.c **** *
 874:Generated_Source\PSoC4/I2C_I2C_MASTER.c **** *******************************************************************************/
 875:Generated_Source\PSoC4/I2C_I2C_MASTER.c **** uint32 I2C_I2CMasterClearStatus(void)
 876:Generated_Source\PSoC4/I2C_I2C_MASTER.c **** {
 877:Generated_Source\PSoC4/I2C_I2C_MASTER.c ****     uint32 status;
 878:Generated_Source\PSoC4/I2C_I2C_MASTER.c **** 
 879:Generated_Source\PSoC4/I2C_I2C_MASTER.c ****     I2C_DisableInt();  /* Lock from interruption */
 880:Generated_Source\PSoC4/I2C_I2C_MASTER.c **** 
 881:Generated_Source\PSoC4/I2C_I2C_MASTER.c ****     /* Read and clear master status */
 882:Generated_Source\PSoC4/I2C_I2C_MASTER.c ****     status = (uint32) I2C_mstrStatus;
 883:Generated_Source\PSoC4/I2C_I2C_MASTER.c ****     I2C_mstrStatus = I2C_I2C_MSTAT_CLEAR;
 884:Generated_Source\PSoC4/I2C_I2C_MASTER.c **** 
 885:Generated_Source\PSoC4/I2C_I2C_MASTER.c ****     I2C_EnableInt();   /* Release lock */
 886:Generated_Source\PSoC4/I2C_I2C_MASTER.c **** 
ARM GAS  C:\Users\EDULU~1.DES\AppData\Local\Temp\ccOPPFV9.s 			page 17


 887:Generated_Source\PSoC4/I2C_I2C_MASTER.c ****     return(status);
 888:Generated_Source\PSoC4/I2C_I2C_MASTER.c **** }
 889:Generated_Source\PSoC4/I2C_I2C_MASTER.c **** 
 890:Generated_Source\PSoC4/I2C_I2C_MASTER.c **** 
 891:Generated_Source\PSoC4/I2C_I2C_MASTER.c **** /*******************************************************************************
 892:Generated_Source\PSoC4/I2C_I2C_MASTER.c **** * Function Name: I2C_I2CReStartGeneration
 893:Generated_Source\PSoC4/I2C_I2C_MASTER.c **** ****************************************************************************//**
 894:Generated_Source\PSoC4/I2C_I2C_MASTER.c **** *
 895:Generated_Source\PSoC4/I2C_I2C_MASTER.c **** *  Generates a ReStart condition:
 896:Generated_Source\PSoC4/I2C_I2C_MASTER.c **** *  - SCB IP V1 and later: Generates ReStart using the scb IP functionality
 897:Generated_Source\PSoC4/I2C_I2C_MASTER.c **** *    Sets the I2C_MASTER_CMD_M_START and I2C_MASTER_CMD_M_NACK (if the previous
 898:Generated_Source\PSoC4/I2C_I2C_MASTER.c **** *    transaction was read) bits in the SCB.I2C_MASTER_CMD register.
 899:Generated_Source\PSoC4/I2C_I2C_MASTER.c **** *    This combination forces the master to generate ReStart.
 900:Generated_Source\PSoC4/I2C_I2C_MASTER.c **** *
 901:Generated_Source\PSoC4/I2C_I2C_MASTER.c **** *  - SCB IP V0: Generates Restart using the GPIO and scb IP functionality.
 902:Generated_Source\PSoC4/I2C_I2C_MASTER.c **** *    After the master completes write or read, the SCL is stretched.
 903:Generated_Source\PSoC4/I2C_I2C_MASTER.c **** *    The master waits until SDA line is released by the slave. Then the GPIO
 904:Generated_Source\PSoC4/I2C_I2C_MASTER.c **** *    function is enabled and the scb IP disabled as it already does not drive
 905:Generated_Source\PSoC4/I2C_I2C_MASTER.c **** *    the bus. In case of the previous transfer was read, the NACK is generated
 906:Generated_Source\PSoC4/I2C_I2C_MASTER.c **** *    by the GPIO. The delay of tLOW is added to manage the hold time.
 907:Generated_Source\PSoC4/I2C_I2C_MASTER.c **** *    Set I2C_M_CMD.START and enable the scb IP. The ReStart generation
 908:Generated_Source\PSoC4/I2C_I2C_MASTER.c **** *    is started after the I2C function is enabled for the SCL.
 909:Generated_Source\PSoC4/I2C_I2C_MASTER.c **** *    Note1: the scb IP due re-enable generates Start but on the I2C bus it
 910:Generated_Source\PSoC4/I2C_I2C_MASTER.c **** *           appears as ReStart.
 911:Generated_Source\PSoC4/I2C_I2C_MASTER.c **** *    Note2: the I2C_M_CMD.START is queued if scb IP is disabled.
 912:Generated_Source\PSoC4/I2C_I2C_MASTER.c **** *    Note3: the I2C_STATUS_M_READ is cleared is address was NACKed before.
 913:Generated_Source\PSoC4/I2C_I2C_MASTER.c **** *
 914:Generated_Source\PSoC4/I2C_I2C_MASTER.c **** * \sideeffect
 915:Generated_Source\PSoC4/I2C_I2C_MASTER.c **** *  SCB IP V0: The NACK generation by the GPIO may cause a greater SCL period
 916:Generated_Source\PSoC4/I2C_I2C_MASTER.c **** *             than expected for the selected master data rate.
 917:Generated_Source\PSoC4/I2C_I2C_MASTER.c **** *
 918:Generated_Source\PSoC4/I2C_I2C_MASTER.c **** *******************************************************************************/
 919:Generated_Source\PSoC4/I2C_I2C_MASTER.c **** void I2C_I2CReStartGeneration(void)
 920:Generated_Source\PSoC4/I2C_I2C_MASTER.c **** {
 921:Generated_Source\PSoC4/I2C_I2C_MASTER.c **** #if(I2C_CY_SCBIP_V0)
 922:Generated_Source\PSoC4/I2C_I2C_MASTER.c ****     /* Generates Restart use GPIO and scb IP functionality. Ticket ID#143715,
 923:Generated_Source\PSoC4/I2C_I2C_MASTER.c ****     * ID#145238 and ID#173656.
 924:Generated_Source\PSoC4/I2C_I2C_MASTER.c ****     * In case of timeout the I2C_I2CMasterSendRestart handles this
 925:Generated_Source\PSoC4/I2C_I2C_MASTER.c ****     * case using own timeout and execute appropriate recovery.
 926:Generated_Source\PSoC4/I2C_I2C_MASTER.c ****     */
 927:Generated_Source\PSoC4/I2C_I2C_MASTER.c **** 
 928:Generated_Source\PSoC4/I2C_I2C_MASTER.c ****     const uint16 oneUnit = 1u;
 929:Generated_Source\PSoC4/I2C_I2C_MASTER.c ****     uint32 timeout = I2C_I2C_PHASE_GEN_TIMEOUT;
 930:Generated_Source\PSoC4/I2C_I2C_MASTER.c **** 
 931:Generated_Source\PSoC4/I2C_I2C_MASTER.c ****     /* Store direction of transfer */
 932:Generated_Source\PSoC4/I2C_I2C_MASTER.c ****     uint32 readDirection = I2C_I2C_STATUS_REG & I2C_I2C_STATUS_M_READ;
 933:Generated_Source\PSoC4/I2C_I2C_MASTER.c **** 
 934:Generated_Source\PSoC4/I2C_I2C_MASTER.c ****     /* Wait until slave releases SDA line: SCL tHIGH is complete */
 935:Generated_Source\PSoC4/I2C_I2C_MASTER.c ****     while ((I2C_WAIT_SDA_SET_HIGH) && (timeout > 0u))
 936:Generated_Source\PSoC4/I2C_I2C_MASTER.c ****     {
 937:Generated_Source\PSoC4/I2C_I2C_MASTER.c ****         CyDelayUs(oneUnit);
 938:Generated_Source\PSoC4/I2C_I2C_MASTER.c ****         --timeout;
 939:Generated_Source\PSoC4/I2C_I2C_MASTER.c ****     }
 940:Generated_Source\PSoC4/I2C_I2C_MASTER.c **** 
 941:Generated_Source\PSoC4/I2C_I2C_MASTER.c ****     if (timeout > 0u)
 942:Generated_Source\PSoC4/I2C_I2C_MASTER.c ****     {
 943:Generated_Source\PSoC4/I2C_I2C_MASTER.c ****         /* Refill timeout */
ARM GAS  C:\Users\EDULU~1.DES\AppData\Local\Temp\ccOPPFV9.s 			page 18


 944:Generated_Source\PSoC4/I2C_I2C_MASTER.c ****         timeout = I2C_I2C_PHASE_GEN_TIMEOUT;
 945:Generated_Source\PSoC4/I2C_I2C_MASTER.c **** 
 946:Generated_Source\PSoC4/I2C_I2C_MASTER.c ****         /* Drive SCL line use GPIO */
 947:Generated_Source\PSoC4/I2C_I2C_MASTER.c ****         I2C_SET_I2C_SCL_DR       (I2C_I2C_SCL_LOW);
 948:Generated_Source\PSoC4/I2C_I2C_MASTER.c ****         I2C_SET_I2C_SCL_HSIOM_SEL(I2C_HSIOM_GPIO_SEL);
 949:Generated_Source\PSoC4/I2C_I2C_MASTER.c **** 
 950:Generated_Source\PSoC4/I2C_I2C_MASTER.c ****         /* Disable SCB block */
 951:Generated_Source\PSoC4/I2C_I2C_MASTER.c ****         I2C_CTRL_REG &= (uint32) ~I2C_CTRL_ENABLED;
 952:Generated_Source\PSoC4/I2C_I2C_MASTER.c **** 
 953:Generated_Source\PSoC4/I2C_I2C_MASTER.c ****         if (0u != readDirection)
 954:Generated_Source\PSoC4/I2C_I2C_MASTER.c ****         {
 955:Generated_Source\PSoC4/I2C_I2C_MASTER.c ****             /* Generate NACK for read transactions use GPIO functionality */
 956:Generated_Source\PSoC4/I2C_I2C_MASTER.c **** 
 957:Generated_Source\PSoC4/I2C_I2C_MASTER.c ****             /* Drive tLOW: SCL low phase */
 958:Generated_Source\PSoC4/I2C_I2C_MASTER.c ****             I2C_SET_I2C_SCL_DR(I2C_I2C_SCL_LOW);
 959:Generated_Source\PSoC4/I2C_I2C_MASTER.c ****             CyDelayUs(I2C_I2C_TLOW_TIME);
 960:Generated_Source\PSoC4/I2C_I2C_MASTER.c **** 
 961:Generated_Source\PSoC4/I2C_I2C_MASTER.c ****             /* Drive tHIGH: SCL high phase */
 962:Generated_Source\PSoC4/I2C_I2C_MASTER.c ****             I2C_SET_I2C_SCL_DR(I2C_I2C_SCL_HIGH);
 963:Generated_Source\PSoC4/I2C_I2C_MASTER.c ****             CyDelayUs(I2C_I2C_THIGH_TIME);
 964:Generated_Source\PSoC4/I2C_I2C_MASTER.c **** 
 965:Generated_Source\PSoC4/I2C_I2C_MASTER.c ****             /* Wait until slave releases SDA line: SCL tHIGH is complete */
 966:Generated_Source\PSoC4/I2C_I2C_MASTER.c ****             while ((I2C_WAIT_SCL_SET_HIGH) && (timeout > 0u))
 967:Generated_Source\PSoC4/I2C_I2C_MASTER.c ****             {
 968:Generated_Source\PSoC4/I2C_I2C_MASTER.c ****                 CyDelayUs(oneUnit);
 969:Generated_Source\PSoC4/I2C_I2C_MASTER.c ****                 --timeout;
 970:Generated_Source\PSoC4/I2C_I2C_MASTER.c ****             }
 971:Generated_Source\PSoC4/I2C_I2C_MASTER.c ****         }
 972:Generated_Source\PSoC4/I2C_I2C_MASTER.c **** 
 973:Generated_Source\PSoC4/I2C_I2C_MASTER.c ****         if (timeout > 0u)
 974:Generated_Source\PSoC4/I2C_I2C_MASTER.c ****         {
 975:Generated_Source\PSoC4/I2C_I2C_MASTER.c ****             /* Drive tLOW: hold time for write and read */
 976:Generated_Source\PSoC4/I2C_I2C_MASTER.c ****             I2C_SET_I2C_SCL_DR(I2C_I2C_SCL_LOW);
 977:Generated_Source\PSoC4/I2C_I2C_MASTER.c ****             CyDelayUs(I2C_I2C_TLOW_TIME);
 978:Generated_Source\PSoC4/I2C_I2C_MASTER.c **** 
 979:Generated_Source\PSoC4/I2C_I2C_MASTER.c ****             /* Set Start command, it will appear as ReStart on the bus */
 980:Generated_Source\PSoC4/I2C_I2C_MASTER.c ****             I2C_I2C_MASTER_CMD_REG  = I2C_I2C_MASTER_CMD_M_START;
 981:Generated_Source\PSoC4/I2C_I2C_MASTER.c ****         }
 982:Generated_Source\PSoC4/I2C_I2C_MASTER.c **** 
 983:Generated_Source\PSoC4/I2C_I2C_MASTER.c ****         /* Enable SCB block: ReStart will appear on the bus as soon as SCL
 984:Generated_Source\PSoC4/I2C_I2C_MASTER.c ****         * configuration is restored and bus busy cleared.
 985:Generated_Source\PSoC4/I2C_I2C_MASTER.c ****         */
 986:Generated_Source\PSoC4/I2C_I2C_MASTER.c ****         I2C_CTRL_REG |= I2C_CTRL_ENABLED;
 987:Generated_Source\PSoC4/I2C_I2C_MASTER.c **** 
 988:Generated_Source\PSoC4/I2C_I2C_MASTER.c ****         /* Restore SCL configuration */
 989:Generated_Source\PSoC4/I2C_I2C_MASTER.c ****         I2C_SET_I2C_SCL_HSIOM_SEL(I2C_HSIOM_I2C_SEL);
 990:Generated_Source\PSoC4/I2C_I2C_MASTER.c ****         I2C_SET_I2C_SCL_DR       (I2C_I2C_SCL_HIGH);
 991:Generated_Source\PSoC4/I2C_I2C_MASTER.c ****     }
 992:Generated_Source\PSoC4/I2C_I2C_MASTER.c **** #else
 993:Generated_Source\PSoC4/I2C_I2C_MASTER.c ****     uint32 cmd;
 994:Generated_Source\PSoC4/I2C_I2C_MASTER.c **** 
 995:Generated_Source\PSoC4/I2C_I2C_MASTER.c ****     /* Generates ReStart use scb IP functionality */
 996:Generated_Source\PSoC4/I2C_I2C_MASTER.c ****     cmd  = I2C_I2C_MASTER_CMD_M_START;
 997:Generated_Source\PSoC4/I2C_I2C_MASTER.c ****     cmd |= I2C_CHECK_I2C_STATUS(I2C_I2C_STATUS_M_READ) ?
 998:Generated_Source\PSoC4/I2C_I2C_MASTER.c ****                 (I2C_I2C_MASTER_CMD_M_NACK) : (0u);
 999:Generated_Source\PSoC4/I2C_I2C_MASTER.c **** 
1000:Generated_Source\PSoC4/I2C_I2C_MASTER.c ****     I2C_I2C_MASTER_CMD_REG = cmd;
ARM GAS  C:\Users\EDULU~1.DES\AppData\Local\Temp\ccOPPFV9.s 			page 19


1001:Generated_Source\PSoC4/I2C_I2C_MASTER.c **** #endif /* (I2C_CY_SCBIP_V1) */
1002:Generated_Source\PSoC4/I2C_I2C_MASTER.c **** }
1003:Generated_Source\PSoC4/I2C_I2C_MASTER.c **** 
1004:Generated_Source\PSoC4/I2C_I2C_MASTER.c **** #endif /* (I2C_I2C_MASTER_CONST) */
1005:Generated_Source\PSoC4/I2C_I2C_MASTER.c **** 
1006:Generated_Source\PSoC4/I2C_I2C_MASTER.c **** 
1007:Generated_Source\PSoC4/I2C_I2C_MASTER.c **** #if (!I2C_CY_SCBIP_V0 && \
1008:Generated_Source\PSoC4/I2C_I2C_MASTER.c ****     I2C_I2C_MULTI_MASTER_SLAVE_CONST && I2C_I2C_WAKE_ENABLE_CONST)
1009:Generated_Source\PSoC4/I2C_I2C_MASTER.c ****     /*******************************************************************************
1010:Generated_Source\PSoC4/I2C_I2C_MASTER.c ****     * Function Name: I2C_I2CMasterDisableEcAm
1011:Generated_Source\PSoC4/I2C_I2C_MASTER.c ****     ****************************************************************************//**
1012:Generated_Source\PSoC4/I2C_I2C_MASTER.c ****     *
1013:Generated_Source\PSoC4/I2C_I2C_MASTER.c ****     *  Disables externally clocked address match logic to enable master operation
1014:Generated_Source\PSoC4/I2C_I2C_MASTER.c ****     *  in active mode.
1015:Generated_Source\PSoC4/I2C_I2C_MASTER.c ****     *
1016:Generated_Source\PSoC4/I2C_I2C_MASTER.c ****     *******************************************************************************/
1017:Generated_Source\PSoC4/I2C_I2C_MASTER.c ****     static void I2C_I2CMasterDisableEcAm(void)
1018:Generated_Source\PSoC4/I2C_I2C_MASTER.c ****     {
1019:Generated_Source\PSoC4/I2C_I2C_MASTER.c ****         /* Disables externally clocked address match logic to enable master operation
1020:Generated_Source\PSoC4/I2C_I2C_MASTER.c ****         * in active mode. This applicable only for Multi-Master-Slave when wakeup is
1021:Generated_Source\PSoC4/I2C_I2C_MASTER.c ****         * enabled. Ticket ID#192742.
1022:Generated_Source\PSoC4/I2C_I2C_MASTER.c ****         */
1023:Generated_Source\PSoC4/I2C_I2C_MASTER.c ****         if (0u != (I2C_CTRL_REG & I2C_CTRL_EC_AM_MODE))
1024:Generated_Source\PSoC4/I2C_I2C_MASTER.c ****         {
1025:Generated_Source\PSoC4/I2C_I2C_MASTER.c ****             /* Enable external address match logic */
1026:Generated_Source\PSoC4/I2C_I2C_MASTER.c ****             I2C_Stop();
1027:Generated_Source\PSoC4/I2C_I2C_MASTER.c ****             I2C_CTRL_REG &= (uint32) ~I2C_CTRL_EC_AM_MODE;
1028:Generated_Source\PSoC4/I2C_I2C_MASTER.c ****             I2C_Enable();
1029:Generated_Source\PSoC4/I2C_I2C_MASTER.c ****         }
1030:Generated_Source\PSoC4/I2C_I2C_MASTER.c ****     }
1031:Generated_Source\PSoC4/I2C_I2C_MASTER.c **** #endif /* (!I2C_CY_SCBIP_V0) */
1032:Generated_Source\PSoC4/I2C_I2C_MASTER.c **** 
1033:Generated_Source\PSoC4/I2C_I2C_MASTER.c **** 
1034:Generated_Source\PSoC4/I2C_I2C_MASTER.c **** /*******************************************************************************
1035:Generated_Source\PSoC4/I2C_I2C_MASTER.c **** * Function Name: I2C_I2CMasterHandleStatus
1036:Generated_Source\PSoC4/I2C_I2C_MASTER.c **** ****************************************************************************//**
1037:Generated_Source\PSoC4/I2C_I2C_MASTER.c **** *
1038:Generated_Source\PSoC4/I2C_I2C_MASTER.c **** * Converts hardware status to firmware status and executes required processing.
1039:Generated_Source\PSoC4/I2C_I2C_MASTER.c **** *
1040:Generated_Source\PSoC4/I2C_I2C_MASTER.c **** * \param status
1041:Generated_Source\PSoC4/I2C_I2C_MASTER.c **** * Hardware I2C master status to handle. It also includes
1042:Generated_Source\PSoC4/I2C_I2C_MASTER.c **** * I2C_I2C_MASTER_TIMEOUT and I2C_SLAVE_INTR_I2C_ADDR.
1043:Generated_Source\PSoC4/I2C_I2C_MASTER.c **** *
1044:Generated_Source\PSoC4/I2C_I2C_MASTER.c **** * \return
1045:Generated_Source\PSoC4/I2C_I2C_MASTER.c **** * Error status.
1046:Generated_Source\PSoC4/I2C_I2C_MASTER.c **** * See I2C_I2CMasterSendStart() function for constants.
1047:Generated_Source\PSoC4/I2C_I2C_MASTER.c **** *
1048:Generated_Source\PSoC4/I2C_I2C_MASTER.c **** *******************************************************************************/
1049:Generated_Source\PSoC4/I2C_I2C_MASTER.c **** static uint32 I2C_I2CMasterHandleStatus(uint32 status)
1050:Generated_Source\PSoC4/I2C_I2C_MASTER.c **** {
1051:Generated_Source\PSoC4/I2C_I2C_MASTER.c ****     uint32 retStatus;
1052:Generated_Source\PSoC4/I2C_I2C_MASTER.c ****     uint32 resetBlock = 0u;
1053:Generated_Source\PSoC4/I2C_I2C_MASTER.c **** 
1054:Generated_Source\PSoC4/I2C_I2C_MASTER.c ****     if (0u != (status & I2C_I2C_MASTER_TIMEOUT))
1055:Generated_Source\PSoC4/I2C_I2C_MASTER.c ****     {
1056:Generated_Source\PSoC4/I2C_I2C_MASTER.c ****         retStatus  = I2C_I2C_MASTER_TIMEOUT;
1057:Generated_Source\PSoC4/I2C_I2C_MASTER.c ****         resetBlock = I2C_I2C_RESET_ERROR;
ARM GAS  C:\Users\EDULU~1.DES\AppData\Local\Temp\ccOPPFV9.s 			page 20


1058:Generated_Source\PSoC4/I2C_I2C_MASTER.c ****     }
1059:Generated_Source\PSoC4/I2C_I2C_MASTER.c ****     else if (0u != (I2C_SLAVE_INTR_I2C_ADDR & status))
1060:Generated_Source\PSoC4/I2C_I2C_MASTER.c ****     {
1061:Generated_Source\PSoC4/I2C_I2C_MASTER.c ****         /* Abort the master operation, the slave was addressed first */
1062:Generated_Source\PSoC4/I2C_I2C_MASTER.c ****         retStatus = I2C_I2C_MSTR_ERR_ABORT_START;
1063:Generated_Source\PSoC4/I2C_I2C_MASTER.c **** 
1064:Generated_Source\PSoC4/I2C_I2C_MASTER.c ****         I2C_I2C_MASTER_CMD_REG = 0u;
1065:Generated_Source\PSoC4/I2C_I2C_MASTER.c **** 
1066:Generated_Source\PSoC4/I2C_I2C_MASTER.c ****         I2C_state = I2C_I2C_FSM_IDLE;
1067:Generated_Source\PSoC4/I2C_I2C_MASTER.c ****     }
1068:Generated_Source\PSoC4/I2C_I2C_MASTER.c ****     else if (0u != (status & I2C_INTR_MASTER_I2C_ARB_LOST))
1069:Generated_Source\PSoC4/I2C_I2C_MASTER.c ****     {
1070:Generated_Source\PSoC4/I2C_I2C_MASTER.c ****         retStatus  = I2C_I2C_MSTR_ERR_ARB_LOST;
1071:Generated_Source\PSoC4/I2C_I2C_MASTER.c **** 
1072:Generated_Source\PSoC4/I2C_I2C_MASTER.c ****         if (I2C_CHECK_I2C_FSM_ADDR)
1073:Generated_Source\PSoC4/I2C_I2C_MASTER.c ****         {
1074:Generated_Source\PSoC4/I2C_I2C_MASTER.c ****             /* If slave is not enabled reset IP, otherwise give it a chance to match address */
1075:Generated_Source\PSoC4/I2C_I2C_MASTER.c ****             if (0u == (I2C_I2C_CTRL_REG & I2C_I2C_CTRL_SLAVE_MODE))
1076:Generated_Source\PSoC4/I2C_I2C_MASTER.c ****             {
1077:Generated_Source\PSoC4/I2C_I2C_MASTER.c ****                 resetBlock = I2C_I2C_RESET_ERROR;
1078:Generated_Source\PSoC4/I2C_I2C_MASTER.c ****             }
1079:Generated_Source\PSoC4/I2C_I2C_MASTER.c **** 
1080:Generated_Source\PSoC4/I2C_I2C_MASTER.c ****             I2C_state = I2C_I2C_FSM_IDLE;
1081:Generated_Source\PSoC4/I2C_I2C_MASTER.c ****         }
1082:Generated_Source\PSoC4/I2C_I2C_MASTER.c ****         else
1083:Generated_Source\PSoC4/I2C_I2C_MASTER.c ****         {
1084:Generated_Source\PSoC4/I2C_I2C_MASTER.c ****             /* Reset IP block when on address stage */
1085:Generated_Source\PSoC4/I2C_I2C_MASTER.c ****             resetBlock = I2C_I2C_RESET_ERROR;
1086:Generated_Source\PSoC4/I2C_I2C_MASTER.c ****         }
1087:Generated_Source\PSoC4/I2C_I2C_MASTER.c ****     }
1088:Generated_Source\PSoC4/I2C_I2C_MASTER.c ****     else if (0u != (status & I2C_INTR_MASTER_I2C_BUS_ERROR))
1089:Generated_Source\PSoC4/I2C_I2C_MASTER.c ****     {
1090:Generated_Source\PSoC4/I2C_I2C_MASTER.c ****         retStatus  = I2C_I2C_MSTR_ERR_BUS_ERR;
1091:Generated_Source\PSoC4/I2C_I2C_MASTER.c ****         resetBlock = I2C_I2C_RESET_ERROR;
1092:Generated_Source\PSoC4/I2C_I2C_MASTER.c ****     }
1093:Generated_Source\PSoC4/I2C_I2C_MASTER.c ****     else if (0u != (status & I2C_INTR_MASTER_I2C_NACK))
1094:Generated_Source\PSoC4/I2C_I2C_MASTER.c ****     {
1095:Generated_Source\PSoC4/I2C_I2C_MASTER.c ****         retStatus = I2C_I2C_MSTR_ERR_LB_NAK;
1096:Generated_Source\PSoC4/I2C_I2C_MASTER.c ****     }
1097:Generated_Source\PSoC4/I2C_I2C_MASTER.c ****     else /* Includes: INTR_MASTER_I2C_STOP and INTR_MASTER_I2C_ACK */
1098:Generated_Source\PSoC4/I2C_I2C_MASTER.c ****     {
1099:Generated_Source\PSoC4/I2C_I2C_MASTER.c ****         retStatus = I2C_I2C_MSTR_NO_ERROR;
1100:Generated_Source\PSoC4/I2C_I2C_MASTER.c **** 
1101:Generated_Source\PSoC4/I2C_I2C_MASTER.c ****         if (0u != (status & I2C_INTR_MASTER_I2C_STOP))
1102:Generated_Source\PSoC4/I2C_I2C_MASTER.c ****         {
1103:Generated_Source\PSoC4/I2C_I2C_MASTER.c ****             /* Stop: end of transaction, go to idle state */
1104:Generated_Source\PSoC4/I2C_I2C_MASTER.c ****             I2C_state = I2C_I2C_FSM_IDLE;
1105:Generated_Source\PSoC4/I2C_I2C_MASTER.c ****         }
1106:Generated_Source\PSoC4/I2C_I2C_MASTER.c ****         else
1107:Generated_Source\PSoC4/I2C_I2C_MASTER.c ****         {
1108:Generated_Source\PSoC4/I2C_I2C_MASTER.c ****             /* ACK: continue transaction */
1109:Generated_Source\PSoC4/I2C_I2C_MASTER.c ****             if (I2C_CHECK_I2C_FSM_ADDR)
1110:Generated_Source\PSoC4/I2C_I2C_MASTER.c ****             {
1111:Generated_Source\PSoC4/I2C_I2C_MASTER.c ****                 /* Move from address state to data */
1112:Generated_Source\PSoC4/I2C_I2C_MASTER.c ****                 I2C_state = (I2C_CHECK_I2C_FSM_RD) ?
1113:Generated_Source\PSoC4/I2C_I2C_MASTER.c ****                                           I2C_I2C_FSM_MSTR_RD_DATA : I2C_I2C_FSM_MSTR_WR_DATA;
1114:Generated_Source\PSoC4/I2C_I2C_MASTER.c ****             }
ARM GAS  C:\Users\EDULU~1.DES\AppData\Local\Temp\ccOPPFV9.s 			page 21


1115:Generated_Source\PSoC4/I2C_I2C_MASTER.c ****         }
1116:Generated_Source\PSoC4/I2C_I2C_MASTER.c ****     }
1117:Generated_Source\PSoC4/I2C_I2C_MASTER.c **** 
1118:Generated_Source\PSoC4/I2C_I2C_MASTER.c ****     if (I2C_I2C_RESET_ERROR == resetBlock)
1119:Generated_Source\PSoC4/I2C_I2C_MASTER.c ****     {
1120:Generated_Source\PSoC4/I2C_I2C_MASTER.c ****         I2C_I2CFwBlockReset();
1121:Generated_Source\PSoC4/I2C_I2C_MASTER.c ****     }
1122:Generated_Source\PSoC4/I2C_I2C_MASTER.c ****     else
1123:Generated_Source\PSoC4/I2C_I2C_MASTER.c ****     {
1124:Generated_Source\PSoC4/I2C_I2C_MASTER.c ****         I2C_ClearMasterInterruptSource(I2C_INTR_MASTER_ALL);
1125:Generated_Source\PSoC4/I2C_I2C_MASTER.c ****     }
1126:Generated_Source\PSoC4/I2C_I2C_MASTER.c **** 
1127:Generated_Source\PSoC4/I2C_I2C_MASTER.c ****     return (retStatus);
1128:Generated_Source\PSoC4/I2C_I2C_MASTER.c **** }
1129:Generated_Source\PSoC4/I2C_I2C_MASTER.c **** 
1130:Generated_Source\PSoC4/I2C_I2C_MASTER.c **** 
1131:Generated_Source\PSoC4/I2C_I2C_MASTER.c **** /******************************************************************************
1132:Generated_Source\PSoC4/I2C_I2C_MASTER.c **** * Function Name: I2CMasterWaitOneUnit
1133:Generated_Source\PSoC4/I2C_I2C_MASTER.c **** ****************************************************************************//**
1134:Generated_Source\PSoC4/I2C_I2C_MASTER.c **** *
1135:Generated_Source\PSoC4/I2C_I2C_MASTER.c **** * Waits for one unit before unblock code execution.
1136:Generated_Source\PSoC4/I2C_I2C_MASTER.c **** * Note If a timeout value is 0, this function does nothing and returns 0.
1137:Generated_Source\PSoC4/I2C_I2C_MASTER.c **** *
1138:Generated_Source\PSoC4/I2C_I2C_MASTER.c **** * \param timeout
1139:Generated_Source\PSoC4/I2C_I2C_MASTER.c **** * The pointer to a timeout value.
1140:Generated_Source\PSoC4/I2C_I2C_MASTER.c **** *
1141:Generated_Source\PSoC4/I2C_I2C_MASTER.c **** * \return
1142:Generated_Source\PSoC4/I2C_I2C_MASTER.c **** * Returns 0 if a timeout does not expire or the timeout mask.
1143:Generated_Source\PSoC4/I2C_I2C_MASTER.c **** *
1144:Generated_Source\PSoC4/I2C_I2C_MASTER.c **** *******************************************************************************/
1145:Generated_Source\PSoC4/I2C_I2C_MASTER.c **** static uint32 I2C_I2CMasterWaitOneUnit(uint32 *timeout)
1146:Generated_Source\PSoC4/I2C_I2C_MASTER.c **** {
  27              		.loc 1 1146 1 view -0
  28              		.cfi_startproc
  29              		@ args = 0, pretend = 0, frame = 0
  30              		@ frame_needed = 0, uses_anonymous_args = 0
  31              		.loc 1 1146 1 is_stmt 0 view .LVU1
  32 0000 10B5     		push	{r4, lr}
  33              		.cfi_def_cfa_offset 8
  34              		.cfi_offset 4, -8
  35              		.cfi_offset 14, -4
  36 0002 0400     		movs	r4, r0
1147:Generated_Source\PSoC4/I2C_I2C_MASTER.c ****     const uint16 oneUnit = 1u;
  37              		.loc 1 1147 5 is_stmt 1 view .LVU2
  38              	.LVL1:
1148:Generated_Source\PSoC4/I2C_I2C_MASTER.c ****     uint32 status = 0u;
  39              		.loc 1 1148 5 view .LVU3
1149:Generated_Source\PSoC4/I2C_I2C_MASTER.c **** 
1150:Generated_Source\PSoC4/I2C_I2C_MASTER.c ****     /* If the timeout equal to 0. Ignore the timeout */
1151:Generated_Source\PSoC4/I2C_I2C_MASTER.c ****     if (*timeout > 0u)
  40              		.loc 1 1151 5 view .LVU4
  41              		.loc 1 1151 9 is_stmt 0 view .LVU5
  42 0004 0068     		ldr	r0, [r0]
  43              	.LVL2:
  44              		.loc 1 1151 8 view .LVU6
  45 0006 0028     		cmp	r0, #0
  46 0008 00D1     		bne	.L4
ARM GAS  C:\Users\EDULU~1.DES\AppData\Local\Temp\ccOPPFV9.s 			page 22


  47              	.LVL3:
  48              	.L1:
1152:Generated_Source\PSoC4/I2C_I2C_MASTER.c ****     {
1153:Generated_Source\PSoC4/I2C_I2C_MASTER.c ****         CyDelayUs(oneUnit);
1154:Generated_Source\PSoC4/I2C_I2C_MASTER.c ****         --(*timeout);
1155:Generated_Source\PSoC4/I2C_I2C_MASTER.c **** 
1156:Generated_Source\PSoC4/I2C_I2C_MASTER.c ****         if (0u == *timeout)
1157:Generated_Source\PSoC4/I2C_I2C_MASTER.c ****         {
1158:Generated_Source\PSoC4/I2C_I2C_MASTER.c ****             status = I2C_I2C_MASTER_TIMEOUT;
1159:Generated_Source\PSoC4/I2C_I2C_MASTER.c ****         }
1160:Generated_Source\PSoC4/I2C_I2C_MASTER.c ****     }
1161:Generated_Source\PSoC4/I2C_I2C_MASTER.c **** 
1162:Generated_Source\PSoC4/I2C_I2C_MASTER.c ****     return (status);
1163:Generated_Source\PSoC4/I2C_I2C_MASTER.c **** }
  49              		.loc 1 1163 1 view .LVU7
  50              		@ sp needed
  51              	.LVL4:
  52              		.loc 1 1163 1 view .LVU8
  53 000a 10BD     		pop	{r4, pc}
  54              	.LVL5:
  55              	.L4:
1153:Generated_Source\PSoC4/I2C_I2C_MASTER.c ****         --(*timeout);
  56              		.loc 1 1153 9 is_stmt 1 view .LVU9
  57 000c 0120     		movs	r0, #1
  58 000e FFF7FEFF 		bl	CyDelayUs
  59              	.LVL6:
1154:Generated_Source\PSoC4/I2C_I2C_MASTER.c **** 
  60              		.loc 1 1154 9 view .LVU10
  61 0012 2368     		ldr	r3, [r4]
  62 0014 013B     		subs	r3, r3, #1
  63 0016 2360     		str	r3, [r4]
1156:Generated_Source\PSoC4/I2C_I2C_MASTER.c ****         {
  64              		.loc 1 1156 9 view .LVU11
1156:Generated_Source\PSoC4/I2C_I2C_MASTER.c ****         {
  65              		.loc 1 1156 12 is_stmt 0 view .LVU12
  66 0018 002B     		cmp	r3, #0
  67 001a 01D0     		beq	.L3
1148:Generated_Source\PSoC4/I2C_I2C_MASTER.c **** 
  68              		.loc 1 1148 12 view .LVU13
  69 001c 0020     		movs	r0, #0
  70 001e F4E7     		b	.L1
  71              	.L3:
1158:Generated_Source\PSoC4/I2C_I2C_MASTER.c ****         }
  72              		.loc 1 1158 20 view .LVU14
  73 0020 8020     		movs	r0, #128
  74 0022 0006     		lsls	r0, r0, #24
  75              	.LVL7:
1162:Generated_Source\PSoC4/I2C_I2C_MASTER.c **** }
  76              		.loc 1 1162 5 is_stmt 1 view .LVU15
1162:Generated_Source\PSoC4/I2C_I2C_MASTER.c **** }
  77              		.loc 1 1162 12 is_stmt 0 view .LVU16
  78 0024 F1E7     		b	.L1
  79              		.cfi_endproc
  80              	.LFE15:
  81              		.size	I2C_I2CMasterWaitOneUnit, .-I2C_I2CMasterWaitOneUnit
  82              		.section	.text.I2C_I2CMasterHandleStatus,"ax",%progbits
  83              		.align	1
ARM GAS  C:\Users\EDULU~1.DES\AppData\Local\Temp\ccOPPFV9.s 			page 23


  84              		.syntax unified
  85              		.code	16
  86              		.thumb_func
  87              		.fpu softvfp
  88              		.type	I2C_I2CMasterHandleStatus, %function
  89              	I2C_I2CMasterHandleStatus:
  90              	.LVL8:
  91              	.LFB14:
1050:Generated_Source\PSoC4/I2C_I2C_MASTER.c ****     uint32 retStatus;
  92              		.loc 1 1050 1 is_stmt 1 view -0
  93              		.cfi_startproc
  94              		@ args = 0, pretend = 0, frame = 0
  95              		@ frame_needed = 0, uses_anonymous_args = 0
1050:Generated_Source\PSoC4/I2C_I2C_MASTER.c ****     uint32 retStatus;
  96              		.loc 1 1050 1 is_stmt 0 view .LVU18
  97 0000 10B5     		push	{r4, lr}
  98              		.cfi_def_cfa_offset 8
  99              		.cfi_offset 4, -8
 100              		.cfi_offset 14, -4
1051:Generated_Source\PSoC4/I2C_I2C_MASTER.c ****     uint32 resetBlock = 0u;
 101              		.loc 1 1051 5 is_stmt 1 view .LVU19
1052:Generated_Source\PSoC4/I2C_I2C_MASTER.c **** 
 102              		.loc 1 1052 5 view .LVU20
 103              	.LVL9:
1054:Generated_Source\PSoC4/I2C_I2C_MASTER.c ****     {
 104              		.loc 1 1054 5 view .LVU21
1054:Generated_Source\PSoC4/I2C_I2C_MASTER.c ****     {
 105              		.loc 1 1054 8 is_stmt 0 view .LVU22
 106 0002 0028     		cmp	r0, #0
 107 0004 3CDB     		blt	.L14
1059:Generated_Source\PSoC4/I2C_I2C_MASTER.c ****     {
 108              		.loc 1 1059 10 is_stmt 1 view .LVU23
1059:Generated_Source\PSoC4/I2C_I2C_MASTER.c ****     {
 109              		.loc 1 1059 45 is_stmt 0 view .LVU24
 110 0006 C023     		movs	r3, #192
1059:Generated_Source\PSoC4/I2C_I2C_MASTER.c ****     {
 111              		.loc 1 1059 13 view .LVU25
 112 0008 0342     		tst	r3, r0
 113 000a 0BD0     		beq	.L7
1062:Generated_Source\PSoC4/I2C_I2C_MASTER.c **** 
 114              		.loc 1 1062 9 is_stmt 1 view .LVU26
 115              	.LVL10:
1064:Generated_Source\PSoC4/I2C_I2C_MASTER.c **** 
 116              		.loc 1 1064 9 view .LVU27
1064:Generated_Source\PSoC4/I2C_I2C_MASTER.c **** 
 117              		.loc 1 1064 32 is_stmt 0 view .LVU28
 118 000c 234B     		ldr	r3, .L21
 119 000e 0022     		movs	r2, #0
 120 0010 1A60     		str	r2, [r3]
1066:Generated_Source\PSoC4/I2C_I2C_MASTER.c ****     }
 121              		.loc 1 1066 9 is_stmt 1 view .LVU29
1066:Generated_Source\PSoC4/I2C_I2C_MASTER.c ****     }
 122              		.loc 1 1066 19 is_stmt 0 view .LVU30
 123 0012 234B     		ldr	r3, .L21+4
 124 0014 1032     		adds	r2, r2, #16
 125 0016 1A70     		strb	r2, [r3]
1118:Generated_Source\PSoC4/I2C_I2C_MASTER.c ****     {
ARM GAS  C:\Users\EDULU~1.DES\AppData\Local\Temp\ccOPPFV9.s 			page 24


 126              		.loc 1 1118 5 is_stmt 1 view .LVU31
1062:Generated_Source\PSoC4/I2C_I2C_MASTER.c **** 
 127              		.loc 1 1062 19 is_stmt 0 view .LVU32
 128 0018 1024     		movs	r4, #16
 129              	.LVL11:
 130              	.L8:
1124:Generated_Source\PSoC4/I2C_I2C_MASTER.c ****     }
 131              		.loc 1 1124 9 is_stmt 1 view .LVU33
1124:Generated_Source\PSoC4/I2C_I2C_MASTER.c ****     }
 132              		.loc 1 1124 9 view .LVU34
 133 001a 224B     		ldr	r3, .L21+8
 134 001c 224A     		ldr	r2, .L21+12
 135 001e 1A60     		str	r2, [r3]
1127:Generated_Source\PSoC4/I2C_I2C_MASTER.c **** }
 136              		.loc 1 1127 5 view .LVU35
 137              	.LVL12:
 138              	.L5:
1128:Generated_Source\PSoC4/I2C_I2C_MASTER.c **** 
 139              		.loc 1 1128 1 is_stmt 0 view .LVU36
 140 0020 2000     		movs	r0, r4
 141              		@ sp needed
 142 0022 10BD     		pop	{r4, pc}
 143              	.LVL13:
 144              	.L7:
1068:Generated_Source\PSoC4/I2C_I2C_MASTER.c ****     {
 145              		.loc 1 1068 10 is_stmt 1 view .LVU37
1068:Generated_Source\PSoC4/I2C_I2C_MASTER.c ****     {
 146              		.loc 1 1068 13 is_stmt 0 view .LVU38
 147 0024 C307     		lsls	r3, r0, #31
 148 0026 11D5     		bpl	.L9
1070:Generated_Source\PSoC4/I2C_I2C_MASTER.c **** 
 149              		.loc 1 1070 9 is_stmt 1 view .LVU39
 150              	.LVL14:
1072:Generated_Source\PSoC4/I2C_I2C_MASTER.c ****         {
 151              		.loc 1 1072 9 view .LVU40
1072:Generated_Source\PSoC4/I2C_I2C_MASTER.c ****         {
 152              		.loc 1 1072 13 is_stmt 0 view .LVU41
 153 0028 1D4B     		ldr	r3, .L21+4
 154 002a 1B78     		ldrb	r3, [r3]
1072:Generated_Source\PSoC4/I2C_I2C_MASTER.c ****         {
 155              		.loc 1 1072 12 view .LVU42
 156 002c 1B07     		lsls	r3, r3, #28
 157 002e 2CD5     		bpl	.L15
1075:Generated_Source\PSoC4/I2C_I2C_MASTER.c ****             {
 158              		.loc 1 1075 13 is_stmt 1 view .LVU43
1075:Generated_Source\PSoC4/I2C_I2C_MASTER.c ****             {
 159              		.loc 1 1075 24 is_stmt 0 view .LVU44
 160 0030 1E4B     		ldr	r3, .L21+16
 161 0032 1B68     		ldr	r3, [r3]
1075:Generated_Source\PSoC4/I2C_I2C_MASTER.c ****             {
 162              		.loc 1 1075 16 view .LVU45
 163 0034 5B00     		lsls	r3, r3, #1
 164 0036 07D5     		bpl	.L16
1052:Generated_Source\PSoC4/I2C_I2C_MASTER.c **** 
 165              		.loc 1 1052 12 view .LVU46
 166 0038 0024     		movs	r4, #0
 167              	.L10:
ARM GAS  C:\Users\EDULU~1.DES\AppData\Local\Temp\ccOPPFV9.s 			page 25


 168              	.LVL15:
1080:Generated_Source\PSoC4/I2C_I2C_MASTER.c ****         }
 169              		.loc 1 1080 13 is_stmt 1 view .LVU47
1080:Generated_Source\PSoC4/I2C_I2C_MASTER.c ****         }
 170              		.loc 1 1080 23 is_stmt 0 view .LVU48
 171 003a 194B     		ldr	r3, .L21+4
 172 003c 1022     		movs	r2, #16
 173 003e 1A70     		strb	r2, [r3]
1118:Generated_Source\PSoC4/I2C_I2C_MASTER.c ****     {
 174              		.loc 1 1118 5 is_stmt 1 view .LVU49
1118:Generated_Source\PSoC4/I2C_I2C_MASTER.c ****     {
 175              		.loc 1 1118 8 is_stmt 0 view .LVU50
 176 0040 012C     		cmp	r4, #1
 177 0042 1FD0     		beq	.L6
1070:Generated_Source\PSoC4/I2C_I2C_MASTER.c **** 
 178              		.loc 1 1070 20 view .LVU51
 179 0044 0124     		movs	r4, #1
 180              	.LVL16:
1070:Generated_Source\PSoC4/I2C_I2C_MASTER.c **** 
 181              		.loc 1 1070 20 view .LVU52
 182 0046 E8E7     		b	.L8
 183              	.LVL17:
 184              	.L16:
1077:Generated_Source\PSoC4/I2C_I2C_MASTER.c ****             }
 185              		.loc 1 1077 28 view .LVU53
 186 0048 0124     		movs	r4, #1
 187 004a F6E7     		b	.L10
 188              	.LVL18:
 189              	.L9:
1088:Generated_Source\PSoC4/I2C_I2C_MASTER.c ****     {
 190              		.loc 1 1088 10 is_stmt 1 view .LVU54
1088:Generated_Source\PSoC4/I2C_I2C_MASTER.c ****     {
 191              		.loc 1 1088 13 is_stmt 0 view .LVU55
 192 004c C305     		lsls	r3, r0, #23
 193 004e 1ED4     		bmi	.L17
1093:Generated_Source\PSoC4/I2C_I2C_MASTER.c ****     {
 194              		.loc 1 1093 10 is_stmt 1 view .LVU56
1093:Generated_Source\PSoC4/I2C_I2C_MASTER.c ****     {
 195              		.loc 1 1093 13 is_stmt 0 view .LVU57
 196 0050 8307     		lsls	r3, r0, #30
 197 0052 1FD4     		bmi	.L18
1099:Generated_Source\PSoC4/I2C_I2C_MASTER.c **** 
 198              		.loc 1 1099 9 is_stmt 1 view .LVU58
 199              	.LVL19:
1101:Generated_Source\PSoC4/I2C_I2C_MASTER.c ****         {
 200              		.loc 1 1101 9 view .LVU59
1101:Generated_Source\PSoC4/I2C_I2C_MASTER.c ****         {
 201              		.loc 1 1101 12 is_stmt 0 view .LVU60
 202 0054 C306     		lsls	r3, r0, #27
 203 0056 04D5     		bpl	.L11
1104:Generated_Source\PSoC4/I2C_I2C_MASTER.c ****         }
 204              		.loc 1 1104 13 is_stmt 1 view .LVU61
1104:Generated_Source\PSoC4/I2C_I2C_MASTER.c ****         }
 205              		.loc 1 1104 23 is_stmt 0 view .LVU62
 206 0058 114B     		ldr	r3, .L21+4
 207 005a 1022     		movs	r2, #16
 208 005c 1A70     		strb	r2, [r3]
ARM GAS  C:\Users\EDULU~1.DES\AppData\Local\Temp\ccOPPFV9.s 			page 26


1118:Generated_Source\PSoC4/I2C_I2C_MASTER.c ****     {
 209              		.loc 1 1118 5 is_stmt 1 view .LVU63
1099:Generated_Source\PSoC4/I2C_I2C_MASTER.c **** 
 210              		.loc 1 1099 19 is_stmt 0 view .LVU64
 211 005e 0024     		movs	r4, #0
 212 0060 DBE7     		b	.L8
 213              	.L11:
1109:Generated_Source\PSoC4/I2C_I2C_MASTER.c ****             {
 214              		.loc 1 1109 13 is_stmt 1 view .LVU65
1109:Generated_Source\PSoC4/I2C_I2C_MASTER.c ****             {
 215              		.loc 1 1109 17 is_stmt 0 view .LVU66
 216 0062 0F4B     		ldr	r3, .L21+4
 217 0064 1B78     		ldrb	r3, [r3]
1109:Generated_Source\PSoC4/I2C_I2C_MASTER.c ****             {
 218              		.loc 1 1109 16 view .LVU67
 219 0066 1B07     		lsls	r3, r3, #28
 220 0068 16D5     		bpl	.L19
1112:Generated_Source\PSoC4/I2C_I2C_MASTER.c ****                                           I2C_I2C_FSM_MSTR_RD_DATA : I2C_I2C_FSM_MSTR_WR_DATA;
 221              		.loc 1 1112 17 is_stmt 1 view .LVU68
1112:Generated_Source\PSoC4/I2C_I2C_MASTER.c ****                                           I2C_I2C_FSM_MSTR_RD_DATA : I2C_I2C_FSM_MSTR_WR_DATA;
 222              		.loc 1 1112 30 is_stmt 0 view .LVU69
 223 006a 0D4B     		ldr	r3, .L21+4
 224 006c 1B78     		ldrb	r3, [r3]
1112:Generated_Source\PSoC4/I2C_I2C_MASTER.c ****                                           I2C_I2C_FSM_MSTR_RD_DATA : I2C_I2C_FSM_MSTR_WR_DATA;
 225              		.loc 1 1112 27 view .LVU70
 226 006e DB07     		lsls	r3, r3, #31
 227 0070 04D5     		bpl	.L20
 228 0072 2522     		movs	r2, #37
 229              	.L12:
1112:Generated_Source\PSoC4/I2C_I2C_MASTER.c ****                                           I2C_I2C_FSM_MSTR_RD_DATA : I2C_I2C_FSM_MSTR_WR_DATA;
 230              		.loc 1 1112 27 discriminator 4 view .LVU71
 231 0074 0A4B     		ldr	r3, .L21+4
 232 0076 1A70     		strb	r2, [r3]
1118:Generated_Source\PSoC4/I2C_I2C_MASTER.c ****     {
 233              		.loc 1 1118 5 is_stmt 1 discriminator 4 view .LVU72
1099:Generated_Source\PSoC4/I2C_I2C_MASTER.c **** 
 234              		.loc 1 1099 19 is_stmt 0 discriminator 4 view .LVU73
 235 0078 0024     		movs	r4, #0
 236 007a CEE7     		b	.L8
 237              	.L20:
1112:Generated_Source\PSoC4/I2C_I2C_MASTER.c ****                                           I2C_I2C_FSM_MSTR_RD_DATA : I2C_I2C_FSM_MSTR_WR_DATA;
 238              		.loc 1 1112 27 view .LVU74
 239 007c 2422     		movs	r2, #36
 240 007e F9E7     		b	.L12
 241              	.LVL20:
 242              	.L14:
1056:Generated_Source\PSoC4/I2C_I2C_MASTER.c ****         resetBlock = I2C_I2C_RESET_ERROR;
 243              		.loc 1 1056 20 view .LVU75
 244 0080 8024     		movs	r4, #128
 245 0082 2406     		lsls	r4, r4, #24
 246              	.LVL21:
 247              	.L6:
1120:Generated_Source\PSoC4/I2C_I2C_MASTER.c ****     }
 248              		.loc 1 1120 9 is_stmt 1 view .LVU76
 249 0084 FFF7FEFF 		bl	I2C_I2CFwBlockReset
 250              	.LVL22:
1120:Generated_Source\PSoC4/I2C_I2C_MASTER.c ****     }
ARM GAS  C:\Users\EDULU~1.DES\AppData\Local\Temp\ccOPPFV9.s 			page 27


 251              		.loc 1 1120 9 is_stmt 0 view .LVU77
 252 0088 CAE7     		b	.L5
 253              	.LVL23:
 254              	.L15:
1070:Generated_Source\PSoC4/I2C_I2C_MASTER.c **** 
 255              		.loc 1 1070 20 view .LVU78
 256 008a 0124     		movs	r4, #1
 257 008c FAE7     		b	.L6
 258              	.LVL24:
 259              	.L17:
1090:Generated_Source\PSoC4/I2C_I2C_MASTER.c ****         resetBlock = I2C_I2C_RESET_ERROR;
 260              		.loc 1 1090 20 view .LVU79
 261 008e 8024     		movs	r4, #128
 262 0090 6400     		lsls	r4, r4, #1
 263 0092 F7E7     		b	.L6
 264              	.L18:
1095:Generated_Source\PSoC4/I2C_I2C_MASTER.c ****     }
 265              		.loc 1 1095 19 view .LVU80
 266 0094 0224     		movs	r4, #2
 267 0096 C0E7     		b	.L8
 268              	.LVL25:
 269              	.L19:
1099:Generated_Source\PSoC4/I2C_I2C_MASTER.c **** 
 270              		.loc 1 1099 19 view .LVU81
 271 0098 0024     		movs	r4, #0
 272 009a BEE7     		b	.L8
 273              	.L22:
 274              		.align	2
 275              	.L21:
 276 009c 68000640 		.word	1074135144
 277 00a0 00000000 		.word	I2C_state
 278 00a4 000F0640 		.word	1074138880
 279 00a8 17030000 		.word	791
 280 00ac 60000640 		.word	1074135136
 281              		.cfi_endproc
 282              	.LFE14:
 283              		.size	I2C_I2CMasterHandleStatus, .-I2C_I2CMasterHandleStatus
 284              		.section	.text.I2C_I2CMasterSendStart,"ax",%progbits
 285              		.align	1
 286              		.global	I2C_I2CMasterSendStart
 287              		.syntax unified
 288              		.code	16
 289              		.thumb_func
 290              		.fpu softvfp
 291              		.type	I2C_I2CMasterSendStart, %function
 292              	I2C_I2CMasterSendStart:
 293              	.LVL26:
 294              	.LFB2:
 346:Generated_Source\PSoC4/I2C_I2C_MASTER.c ****     uint32 errStatus = I2C_I2C_MSTR_NOT_READY;
 295              		.loc 1 346 1 is_stmt 1 view -0
 296              		.cfi_startproc
 297              		@ args = 0, pretend = 0, frame = 8
 298              		@ frame_needed = 0, uses_anonymous_args = 0
 346:Generated_Source\PSoC4/I2C_I2C_MASTER.c ****     uint32 errStatus = I2C_I2C_MSTR_NOT_READY;
 299              		.loc 1 346 1 is_stmt 0 view .LVU83
 300 0000 70B5     		push	{r4, r5, r6, lr}
 301              		.cfi_def_cfa_offset 16
ARM GAS  C:\Users\EDULU~1.DES\AppData\Local\Temp\ccOPPFV9.s 			page 28


 302              		.cfi_offset 4, -16
 303              		.cfi_offset 5, -12
 304              		.cfi_offset 6, -8
 305              		.cfi_offset 14, -4
 306 0002 82B0     		sub	sp, sp, #8
 307              		.cfi_def_cfa_offset 24
 308 0004 0400     		movs	r4, r0
 309 0006 0E00     		movs	r6, r1
 310 0008 1500     		movs	r5, r2
 347:Generated_Source\PSoC4/I2C_I2C_MASTER.c **** 
 311              		.loc 1 347 5 is_stmt 1 view .LVU84
 312              	.LVL27:
 349:Generated_Source\PSoC4/I2C_I2C_MASTER.c ****     {
 313              		.loc 1 349 5 view .LVU85
 349:Generated_Source\PSoC4/I2C_I2C_MASTER.c ****     {
 314              		.loc 1 349 8 is_stmt 0 view .LVU86
 315 000a 244B     		ldr	r3, .L32
 316 000c 1B78     		ldrb	r3, [r3]
 349:Generated_Source\PSoC4/I2C_I2C_MASTER.c ****     {
 317              		.loc 1 349 7 view .LVU87
 318 000e 102B     		cmp	r3, #16
 319 0010 03D0     		beq	.L31
 347:Generated_Source\PSoC4/I2C_I2C_MASTER.c **** 
 320              		.loc 1 347 12 view .LVU88
 321 0012 0424     		movs	r4, #4
 404:Generated_Source\PSoC4/I2C_I2C_MASTER.c **** }
 322              		.loc 1 404 5 is_stmt 1 view .LVU89
 323              	.LVL28:
 324              	.L23:
 405:Generated_Source\PSoC4/I2C_I2C_MASTER.c **** 
 325              		.loc 1 405 1 is_stmt 0 view .LVU90
 326 0014 2000     		movs	r0, r4
 327 0016 02B0     		add	sp, sp, #8
 328              		@ sp needed
 329              	.LVL29:
 405:Generated_Source\PSoC4/I2C_I2C_MASTER.c **** 
 330              		.loc 1 405 1 view .LVU91
 331 0018 70BD     		pop	{r4, r5, r6, pc}
 332              	.LVL30:
 333              	.L31:
 351:Generated_Source\PSoC4/I2C_I2C_MASTER.c **** 
 334              		.loc 1 351 9 is_stmt 1 view .LVU92
 335 001a 0A20     		movs	r0, #10
 336              	.LVL31:
 351:Generated_Source\PSoC4/I2C_I2C_MASTER.c **** 
 337              		.loc 1 351 9 is_stmt 0 view .LVU93
 338 001c FFF7FEFF 		bl	CyIntDisable
 339              	.LVL32:
 353:Generated_Source\PSoC4/I2C_I2C_MASTER.c ****         {
 340              		.loc 1 353 9 is_stmt 1 view .LVU94
 353:Generated_Source\PSoC4/I2C_I2C_MASTER.c ****         {
 341              		.loc 1 353 12 is_stmt 0 view .LVU95
 342 0020 1F4B     		ldr	r3, .L32+4
 343 0022 1B68     		ldr	r3, [r3]
 353:Generated_Source\PSoC4/I2C_I2C_MASTER.c ****         {
 344              		.loc 1 353 11 view .LVU96
 345 0024 DB07     		lsls	r3, r3, #31
ARM GAS  C:\Users\EDULU~1.DES\AppData\Local\Temp\ccOPPFV9.s 			page 29


 346 0026 37D4     		bmi	.L30
 347              	.LBB2:
 359:Generated_Source\PSoC4/I2C_I2C_MASTER.c ****             uint32 timeout = I2C_I2C_CONVERT_TIMEOUT_TO_US(timeoutMs);
 348              		.loc 1 359 13 is_stmt 1 view .LVU97
 360:Generated_Source\PSoC4/I2C_I2C_MASTER.c **** 
 349              		.loc 1 360 13 view .LVU98
 360:Generated_Source\PSoC4/I2C_I2C_MASTER.c **** 
 350              		.loc 1 360 30 is_stmt 0 view .LVU99
 351 0028 6B01     		lsls	r3, r5, #5
 352 002a 5B1B     		subs	r3, r3, r5
 353 002c 9B00     		lsls	r3, r3, #2
 354 002e 5D19     		adds	r5, r3, r5
 355              	.LVL33:
 360:Generated_Source\PSoC4/I2C_I2C_MASTER.c **** 
 356              		.loc 1 360 30 view .LVU100
 357 0030 EB00     		lsls	r3, r5, #3
 360:Generated_Source\PSoC4/I2C_I2C_MASTER.c **** 
 358              		.loc 1 360 20 view .LVU101
 359 0032 0193     		str	r3, [sp, #4]
 363:Generated_Source\PSoC4/I2C_I2C_MASTER.c **** 
 360              		.loc 1 363 13 is_stmt 1 view .LVU102
 363:Generated_Source\PSoC4/I2C_I2C_MASTER.c **** 
 361              		.loc 1 363 13 view .LVU103
 366:Generated_Source\PSoC4/I2C_I2C_MASTER.c ****             I2C_ClearMasterInterruptSource(I2C_INTR_MASTER_ALL);
 362              		.loc 1 366 13 view .LVU104
 366:Generated_Source\PSoC4/I2C_I2C_MASTER.c ****             I2C_ClearMasterInterruptSource(I2C_INTR_MASTER_ALL);
 363              		.loc 1 366 13 view .LVU105
 364 0034 1B4B     		ldr	r3, .L32+8
 365 0036 0022     		movs	r2, #0
 366 0038 1A60     		str	r2, [r3]
 367:Generated_Source\PSoC4/I2C_I2C_MASTER.c ****             I2C_ClearRxInterruptSource    (I2C_INTR_RX_ALL);
 367              		.loc 1 367 13 view .LVU106
 367:Generated_Source\PSoC4/I2C_I2C_MASTER.c ****             I2C_ClearRxInterruptSource    (I2C_INTR_RX_ALL);
 368              		.loc 1 367 13 view .LVU107
 369 003a 1B4B     		ldr	r3, .L32+12
 370 003c 1B4A     		ldr	r2, .L32+16
 371 003e 1A60     		str	r2, [r3]
 368:Generated_Source\PSoC4/I2C_I2C_MASTER.c **** 
 372              		.loc 1 368 13 view .LVU108
 368:Generated_Source\PSoC4/I2C_I2C_MASTER.c **** 
 373              		.loc 1 368 13 view .LVU109
 374 0040 1B4B     		ldr	r3, .L32+20
 375 0042 1C4A     		ldr	r2, .L32+24
 376 0044 1A60     		str	r2, [r3]
 370:Generated_Source\PSoC4/I2C_I2C_MASTER.c **** 
 377              		.loc 1 370 13 view .LVU110
 370:Generated_Source\PSoC4/I2C_I2C_MASTER.c **** 
 378              		.loc 1 370 28 is_stmt 0 view .LVU111
 379 0046 6400     		lsls	r4, r4, #1
 380              	.LVL34:
 370:Generated_Source\PSoC4/I2C_I2C_MASTER.c **** 
 381              		.loc 1 370 26 view .LVU112
 382 0048 FF23     		movs	r3, #255
 383 004a 1C40     		ands	r4, r3
 384              	.LVL35:
 372:Generated_Source\PSoC4/I2C_I2C_MASTER.c ****             {
 385              		.loc 1 372 13 is_stmt 1 view .LVU113
ARM GAS  C:\Users\EDULU~1.DES\AppData\Local\Temp\ccOPPFV9.s 			page 30


 372:Generated_Source\PSoC4/I2C_I2C_MASTER.c ****             {
 386              		.loc 1 372 15 is_stmt 0 view .LVU114
 387 004c 002E     		cmp	r6, #0
 388 004e 1DD1     		bne	.L26
 374:Generated_Source\PSoC4/I2C_I2C_MASTER.c ****             }
 389              		.loc 1 374 17 is_stmt 1 view .LVU115
 374:Generated_Source\PSoC4/I2C_I2C_MASTER.c ****             }
 390              		.loc 1 374 27 is_stmt 0 view .LVU116
 391 0050 124B     		ldr	r3, .L32
 392 0052 2422     		movs	r2, #36
 393 0054 1A70     		strb	r2, [r3]
 394              	.L27:
 385:Generated_Source\PSoC4/I2C_I2C_MASTER.c ****             I2C_I2C_MASTER_GENERATE_START;
 395              		.loc 1 385 13 is_stmt 1 view .LVU117
 385:Generated_Source\PSoC4/I2C_I2C_MASTER.c ****             I2C_I2C_MASTER_GENERATE_START;
 396              		.loc 1 385 32 is_stmt 0 view .LVU118
 397 0056 184B     		ldr	r3, .L32+28
 398 0058 1C60     		str	r4, [r3]
 386:Generated_Source\PSoC4/I2C_I2C_MASTER.c **** 
 399              		.loc 1 386 13 is_stmt 1 view .LVU119
 386:Generated_Source\PSoC4/I2C_I2C_MASTER.c **** 
 400              		.loc 1 386 13 view .LVU120
 401 005a 184B     		ldr	r3, .L32+32
 402 005c 0222     		movs	r2, #2
 403 005e 1A60     		str	r2, [r3]
 404              	.LVL36:
 405              	.L28:
 389:Generated_Source\PSoC4/I2C_I2C_MASTER.c ****             {
 406              		.loc 1 389 13 discriminator 1 view .LVU121
 391:Generated_Source\PSoC4/I2C_I2C_MASTER.c ****                 locStatus |= I2C_GetSlaveInterruptSource() & I2C_SLAVE_INTR_I2C_ADDR;
 407              		.loc 1 391 17 discriminator 1 view .LVU122
 391:Generated_Source\PSoC4/I2C_I2C_MASTER.c ****                 locStatus |= I2C_GetSlaveInterruptSource() & I2C_SLAVE_INTR_I2C_ADDR;
 408              		.loc 1 391 30 is_stmt 0 discriminator 1 view .LVU123
 409 0060 114B     		ldr	r3, .L32+12
 410 0062 1868     		ldr	r0, [r3]
 391:Generated_Source\PSoC4/I2C_I2C_MASTER.c ****                 locStatus |= I2C_GetSlaveInterruptSource() & I2C_SLAVE_INTR_I2C_ADDR;
 411              		.loc 1 391 28 discriminator 1 view .LVU124
 412 0064 0824     		movs	r4, #8
 413 0066 FF34     		adds	r4, r4, #255
 414 0068 2040     		ands	r0, r4
 415              	.LVL37:
 392:Generated_Source\PSoC4/I2C_I2C_MASTER.c ****                 locStatus |= I2C_I2CMasterWaitOneUnit(&timeout);
 416              		.loc 1 392 17 is_stmt 1 discriminator 1 view .LVU125
 392:Generated_Source\PSoC4/I2C_I2C_MASTER.c ****                 locStatus |= I2C_I2CMasterWaitOneUnit(&timeout);
 417              		.loc 1 392 30 is_stmt 0 discriminator 1 view .LVU126
 418 006a 154B     		ldr	r3, .L32+36
 419 006c 1B68     		ldr	r3, [r3]
 392:Generated_Source\PSoC4/I2C_I2C_MASTER.c ****                 locStatus |= I2C_I2CMasterWaitOneUnit(&timeout);
 420              		.loc 1 392 60 discriminator 1 view .LVU127
 421 006e 473C     		subs	r4, r4, #71
 422 0070 1C40     		ands	r4, r3
 392:Generated_Source\PSoC4/I2C_I2C_MASTER.c ****                 locStatus |= I2C_I2CMasterWaitOneUnit(&timeout);
 423              		.loc 1 392 27 discriminator 1 view .LVU128
 424 0072 0443     		orrs	r4, r0
 425              	.LVL38:
 393:Generated_Source\PSoC4/I2C_I2C_MASTER.c ****             }
 426              		.loc 1 393 17 is_stmt 1 discriminator 1 view .LVU129
ARM GAS  C:\Users\EDULU~1.DES\AppData\Local\Temp\ccOPPFV9.s 			page 31


 393:Generated_Source\PSoC4/I2C_I2C_MASTER.c ****             }
 427              		.loc 1 393 30 is_stmt 0 discriminator 1 view .LVU130
 428 0074 01A8     		add	r0, sp, #4
 429 0076 FFF7FEFF 		bl	I2C_I2CMasterWaitOneUnit
 430              	.LVL39:
 393:Generated_Source\PSoC4/I2C_I2C_MASTER.c ****             }
 431              		.loc 1 393 27 discriminator 1 view .LVU131
 432 007a 2043     		orrs	r0, r4
 433              	.LVL40:
 395:Generated_Source\PSoC4/I2C_I2C_MASTER.c **** 
 434              		.loc 1 395 13 discriminator 1 view .LVU132
 435 007c F0D0     		beq	.L28
 398:Generated_Source\PSoC4/I2C_I2C_MASTER.c ****         }
 436              		.loc 1 398 13 is_stmt 1 view .LVU133
 398:Generated_Source\PSoC4/I2C_I2C_MASTER.c ****         }
 437              		.loc 1 398 25 is_stmt 0 view .LVU134
 438 007e FFF7FEFF 		bl	I2C_I2CMasterHandleStatus
 439              	.LVL41:
 398:Generated_Source\PSoC4/I2C_I2C_MASTER.c ****         }
 440              		.loc 1 398 25 view .LVU135
 441 0082 0400     		movs	r4, r0
 442              	.LVL42:
 443              	.L25:
 398:Generated_Source\PSoC4/I2C_I2C_MASTER.c ****         }
 444              		.loc 1 398 25 view .LVU136
 445              	.LBE2:
 401:Generated_Source\PSoC4/I2C_I2C_MASTER.c ****     }
 446              		.loc 1 401 9 is_stmt 1 view .LVU137
 447 0084 0A20     		movs	r0, #10
 448 0086 FFF7FEFF 		bl	CyIntEnable
 449              	.LVL43:
 450 008a C3E7     		b	.L23
 451              	.LVL44:
 452              	.L26:
 453              	.LBB3:
 378:Generated_Source\PSoC4/I2C_I2C_MASTER.c ****                          slaveAddress |= I2C_I2C_READ_FLAG;
 454              		.loc 1 378 17 view .LVU138
 378:Generated_Source\PSoC4/I2C_I2C_MASTER.c ****                          slaveAddress |= I2C_I2C_READ_FLAG;
 455              		.loc 1 378 27 is_stmt 0 view .LVU139
 456 008c 034B     		ldr	r3, .L32
 457 008e 2522     		movs	r2, #37
 458 0090 1A70     		strb	r2, [r3]
 379:Generated_Source\PSoC4/I2C_I2C_MASTER.c ****             }
 459              		.loc 1 379 26 is_stmt 1 view .LVU140
 379:Generated_Source\PSoC4/I2C_I2C_MASTER.c ****             }
 460              		.loc 1 379 39 is_stmt 0 view .LVU141
 461 0092 0123     		movs	r3, #1
 462 0094 1C43     		orrs	r4, r3
 463              	.LVL45:
 379:Generated_Source\PSoC4/I2C_I2C_MASTER.c ****             }
 464              		.loc 1 379 39 view .LVU142
 465 0096 DEE7     		b	.L27
 466              	.LVL46:
 467              	.L30:
 379:Generated_Source\PSoC4/I2C_I2C_MASTER.c ****             }
 468              		.loc 1 379 39 view .LVU143
 469              	.LBE3:
ARM GAS  C:\Users\EDULU~1.DES\AppData\Local\Temp\ccOPPFV9.s 			page 32


 355:Generated_Source\PSoC4/I2C_I2C_MASTER.c ****         }
 470              		.loc 1 355 23 view .LVU144
 471 0098 0824     		movs	r4, #8
 472              	.LVL47:
 355:Generated_Source\PSoC4/I2C_I2C_MASTER.c ****         }
 473              		.loc 1 355 23 view .LVU145
 474 009a F3E7     		b	.L25
 475              	.L33:
 476              		.align	2
 477              	.L32:
 478 009c 00000000 		.word	I2C_state
 479 00a0 64000640 		.word	1074135140
 480 00a4 080F0640 		.word	1074138888
 481 00a8 000F0640 		.word	1074138880
 482 00ac 17030000 		.word	791
 483 00b0 C00F0640 		.word	1074139072
 484 00b4 ED0F0000 		.word	4077
 485 00b8 40020640 		.word	1074135616
 486 00bc 68000640 		.word	1074135144
 487 00c0 400F0640 		.word	1074138944
 488              		.cfi_endproc
 489              	.LFE2:
 490              		.size	I2C_I2CMasterSendStart, .-I2C_I2CMasterSendStart
 491              		.section	.text.I2C_I2CMasterSendStop,"ax",%progbits
 492              		.align	1
 493              		.global	I2C_I2CMasterSendStop
 494              		.syntax unified
 495              		.code	16
 496              		.thumb_func
 497              		.fpu softvfp
 498              		.type	I2C_I2CMasterSendStop, %function
 499              	I2C_I2CMasterSendStop:
 500              	.LVL48:
 501              	.LFB4:
 524:Generated_Source\PSoC4/I2C_I2C_MASTER.c ****     uint32 errStatus = I2C_I2C_MSTR_NOT_READY;
 502              		.loc 1 524 1 is_stmt 1 view -0
 503              		.cfi_startproc
 504              		@ args = 0, pretend = 0, frame = 8
 505              		@ frame_needed = 0, uses_anonymous_args = 0
 524:Generated_Source\PSoC4/I2C_I2C_MASTER.c ****     uint32 errStatus = I2C_I2C_MSTR_NOT_READY;
 506              		.loc 1 524 1 is_stmt 0 view .LVU147
 507 0000 10B5     		push	{r4, lr}
 508              		.cfi_def_cfa_offset 8
 509              		.cfi_offset 4, -8
 510              		.cfi_offset 14, -4
 511 0002 82B0     		sub	sp, sp, #8
 512              		.cfi_def_cfa_offset 16
 525:Generated_Source\PSoC4/I2C_I2C_MASTER.c **** 
 513              		.loc 1 525 5 is_stmt 1 view .LVU148
 514              	.LVL49:
 528:Generated_Source\PSoC4/I2C_I2C_MASTER.c ****     {
 515              		.loc 1 528 5 view .LVU149
 528:Generated_Source\PSoC4/I2C_I2C_MASTER.c ****     {
 516              		.loc 1 528 8 is_stmt 0 view .LVU150
 517 0004 114B     		ldr	r3, .L40
 518 0006 1B78     		ldrb	r3, [r3]
 528:Generated_Source\PSoC4/I2C_I2C_MASTER.c ****     {
ARM GAS  C:\Users\EDULU~1.DES\AppData\Local\Temp\ccOPPFV9.s 			page 33


 519              		.loc 1 528 7 view .LVU151
 520 0008 9B06     		lsls	r3, r3, #26
 521 000a 1CD5     		bpl	.L38
 522              	.LBB4:
 530:Generated_Source\PSoC4/I2C_I2C_MASTER.c ****         uint32 timeout = I2C_I2C_CONVERT_TIMEOUT_TO_US(timeoutMs);
 523              		.loc 1 530 9 is_stmt 1 view .LVU152
 531:Generated_Source\PSoC4/I2C_I2C_MASTER.c **** 
 524              		.loc 1 531 9 view .LVU153
 531:Generated_Source\PSoC4/I2C_I2C_MASTER.c **** 
 525              		.loc 1 531 26 is_stmt 0 view .LVU154
 526 000c 4301     		lsls	r3, r0, #5
 527 000e 1B1A     		subs	r3, r3, r0
 528 0010 9B00     		lsls	r3, r3, #2
 529 0012 1818     		adds	r0, r3, r0
 530              	.LVL50:
 531:Generated_Source\PSoC4/I2C_I2C_MASTER.c **** 
 531              		.loc 1 531 26 view .LVU155
 532 0014 C300     		lsls	r3, r0, #3
 531:Generated_Source\PSoC4/I2C_I2C_MASTER.c **** 
 533              		.loc 1 531 16 view .LVU156
 534 0016 0193     		str	r3, [sp, #4]
 534:Generated_Source\PSoC4/I2C_I2C_MASTER.c **** 
 535              		.loc 1 534 9 is_stmt 1 view .LVU157
 534:Generated_Source\PSoC4/I2C_I2C_MASTER.c **** 
 536              		.loc 1 534 9 view .LVU158
 537 0018 0D4B     		ldr	r3, .L40+4
 538 001a 1B68     		ldr	r3, [r3]
 539 001c 9B06     		lsls	r3, r3, #26
 540 001e 10D5     		bpl	.L39
 541 0020 1822     		movs	r2, #24
 542              	.L36:
 534:Generated_Source\PSoC4/I2C_I2C_MASTER.c **** 
 543              		.loc 1 534 9 is_stmt 0 discriminator 4 view .LVU159
 544 0022 0C4B     		ldr	r3, .L40+8
 545 0024 1A60     		str	r2, [r3]
 546              	.L37:
 537:Generated_Source\PSoC4/I2C_I2C_MASTER.c ****         {
 547              		.loc 1 537 9 is_stmt 1 discriminator 1 view .LVU160
 539:Generated_Source\PSoC4/I2C_I2C_MASTER.c ****             locStatus |= I2C_I2CMasterWaitOneUnit(&timeout);
 548              		.loc 1 539 13 discriminator 1 view .LVU161
 539:Generated_Source\PSoC4/I2C_I2C_MASTER.c ****             locStatus |= I2C_I2CMasterWaitOneUnit(&timeout);
 549              		.loc 1 539 26 is_stmt 0 discriminator 1 view .LVU162
 550 0026 0C4B     		ldr	r3, .L40+12
 551 0028 1868     		ldr	r0, [r3]
 539:Generated_Source\PSoC4/I2C_I2C_MASTER.c ****             locStatus |= I2C_I2CMasterWaitOneUnit(&timeout);
 552              		.loc 1 539 24 discriminator 1 view .LVU163
 553 002a 1224     		movs	r4, #18
 554 002c FF34     		adds	r4, r4, #255
 555 002e 0440     		ands	r4, r0
 556              	.LVL51:
 540:Generated_Source\PSoC4/I2C_I2C_MASTER.c ****         }
 557              		.loc 1 540 13 is_stmt 1 discriminator 1 view .LVU164
 540:Generated_Source\PSoC4/I2C_I2C_MASTER.c ****         }
 558              		.loc 1 540 26 is_stmt 0 discriminator 1 view .LVU165
 559 0030 01A8     		add	r0, sp, #4
 560 0032 FFF7FEFF 		bl	I2C_I2CMasterWaitOneUnit
 561              	.LVL52:
ARM GAS  C:\Users\EDULU~1.DES\AppData\Local\Temp\ccOPPFV9.s 			page 34


 540:Generated_Source\PSoC4/I2C_I2C_MASTER.c ****         }
 562              		.loc 1 540 23 discriminator 1 view .LVU166
 563 0036 2043     		orrs	r0, r4
 564              	.LVL53:
 542:Generated_Source\PSoC4/I2C_I2C_MASTER.c **** 
 565              		.loc 1 542 9 discriminator 1 view .LVU167
 566 0038 F5D0     		beq	.L37
 545:Generated_Source\PSoC4/I2C_I2C_MASTER.c ****     }
 567              		.loc 1 545 9 is_stmt 1 view .LVU168
 545:Generated_Source\PSoC4/I2C_I2C_MASTER.c ****     }
 568              		.loc 1 545 21 is_stmt 0 view .LVU169
 569 003a FFF7FEFF 		bl	I2C_I2CMasterHandleStatus
 570              	.LVL54:
 571              	.L34:
 545:Generated_Source\PSoC4/I2C_I2C_MASTER.c ****     }
 572              		.loc 1 545 21 view .LVU170
 573              	.LBE4:
 549:Generated_Source\PSoC4/I2C_I2C_MASTER.c **** 
 574              		.loc 1 549 1 view .LVU171
 575 003e 02B0     		add	sp, sp, #8
 576              		@ sp needed
 577 0040 10BD     		pop	{r4, pc}
 578              	.LVL55:
 579              	.L39:
 580              	.LBB5:
 534:Generated_Source\PSoC4/I2C_I2C_MASTER.c **** 
 581              		.loc 1 534 9 view .LVU172
 582 0042 1022     		movs	r2, #16
 583 0044 EDE7     		b	.L36
 584              	.LVL56:
 585              	.L38:
 534:Generated_Source\PSoC4/I2C_I2C_MASTER.c **** 
 586              		.loc 1 534 9 view .LVU173
 587              	.LBE5:
 525:Generated_Source\PSoC4/I2C_I2C_MASTER.c **** 
 588              		.loc 1 525 12 view .LVU174
 589 0046 0420     		movs	r0, #4
 590              	.LVL57:
 548:Generated_Source\PSoC4/I2C_I2C_MASTER.c **** }
 591              		.loc 1 548 5 is_stmt 1 view .LVU175
 548:Generated_Source\PSoC4/I2C_I2C_MASTER.c **** }
 592              		.loc 1 548 11 is_stmt 0 view .LVU176
 593 0048 F9E7     		b	.L34
 594              	.L41:
 595 004a C046     		.align	2
 596              	.L40:
 597 004c 00000000 		.word	I2C_state
 598 0050 64000640 		.word	1074135140
 599 0054 68000640 		.word	1074135144
 600 0058 000F0640 		.word	1074138880
 601              		.cfi_endproc
 602              	.LFE4:
 603              		.size	I2C_I2CMasterSendStop, .-I2C_I2CMasterSendStop
 604              		.section	.text.I2C_I2CMasterWriteByte,"ax",%progbits
 605              		.align	1
 606              		.global	I2C_I2CMasterWriteByte
 607              		.syntax unified
ARM GAS  C:\Users\EDULU~1.DES\AppData\Local\Temp\ccOPPFV9.s 			page 35


 608              		.code	16
 609              		.thumb_func
 610              		.fpu softvfp
 611              		.type	I2C_I2CMasterWriteByte, %function
 612              	I2C_I2CMasterWriteByte:
 613              	.LVL58:
 614              	.LFB5:
 583:Generated_Source\PSoC4/I2C_I2C_MASTER.c ****     uint32 errStatus = I2C_I2C_MSTR_NOT_READY;
 615              		.loc 1 583 1 is_stmt 1 view -0
 616              		.cfi_startproc
 617              		@ args = 0, pretend = 0, frame = 8
 618              		@ frame_needed = 0, uses_anonymous_args = 0
 583:Generated_Source\PSoC4/I2C_I2C_MASTER.c ****     uint32 errStatus = I2C_I2C_MSTR_NOT_READY;
 619              		.loc 1 583 1 is_stmt 0 view .LVU178
 620 0000 10B5     		push	{r4, lr}
 621              		.cfi_def_cfa_offset 8
 622              		.cfi_offset 4, -8
 623              		.cfi_offset 14, -4
 624 0002 82B0     		sub	sp, sp, #8
 625              		.cfi_def_cfa_offset 16
 584:Generated_Source\PSoC4/I2C_I2C_MASTER.c **** 
 626              		.loc 1 584 5 is_stmt 1 view .LVU179
 627              	.LVL59:
 587:Generated_Source\PSoC4/I2C_I2C_MASTER.c ****     {
 628              		.loc 1 587 5 view .LVU180
 587:Generated_Source\PSoC4/I2C_I2C_MASTER.c ****     {
 629              		.loc 1 587 8 is_stmt 0 view .LVU181
 630 0004 0D4B     		ldr	r3, .L46
 631 0006 1B78     		ldrb	r3, [r3]
 587:Generated_Source\PSoC4/I2C_I2C_MASTER.c ****     {
 632              		.loc 1 587 7 view .LVU182
 633 0008 9B06     		lsls	r3, r3, #26
 634 000a 15D5     		bpl	.L45
 635              	.LBB6:
 589:Generated_Source\PSoC4/I2C_I2C_MASTER.c ****         uint32 timeout = I2C_I2C_CONVERT_TIMEOUT_TO_US(timeoutMs);
 636              		.loc 1 589 9 is_stmt 1 view .LVU183
 590:Generated_Source\PSoC4/I2C_I2C_MASTER.c **** 
 637              		.loc 1 590 9 view .LVU184
 590:Generated_Source\PSoC4/I2C_I2C_MASTER.c **** 
 638              		.loc 1 590 26 is_stmt 0 view .LVU185
 639 000c 4B01     		lsls	r3, r1, #5
 640 000e 5B1A     		subs	r3, r3, r1
 641 0010 9B00     		lsls	r3, r3, #2
 642 0012 5918     		adds	r1, r3, r1
 643              	.LVL60:
 590:Generated_Source\PSoC4/I2C_I2C_MASTER.c **** 
 644              		.loc 1 590 26 view .LVU186
 645 0014 CB00     		lsls	r3, r1, #3
 590:Generated_Source\PSoC4/I2C_I2C_MASTER.c **** 
 646              		.loc 1 590 16 view .LVU187
 647 0016 0193     		str	r3, [sp, #4]
 592:Generated_Source\PSoC4/I2C_I2C_MASTER.c **** 
 648              		.loc 1 592 9 is_stmt 1 view .LVU188
 592:Generated_Source\PSoC4/I2C_I2C_MASTER.c **** 
 649              		.loc 1 592 28 is_stmt 0 view .LVU189
 650 0018 094B     		ldr	r3, .L46+4
 651 001a 1860     		str	r0, [r3]
ARM GAS  C:\Users\EDULU~1.DES\AppData\Local\Temp\ccOPPFV9.s 			page 36


 652              	.LVL61:
 653              	.L44:
 595:Generated_Source\PSoC4/I2C_I2C_MASTER.c ****         {
 654              		.loc 1 595 9 is_stmt 1 discriminator 1 view .LVU190
 597:Generated_Source\PSoC4/I2C_I2C_MASTER.c ****             locStatus |= I2C_I2CMasterWaitOneUnit(&timeout);
 655              		.loc 1 597 13 discriminator 1 view .LVU191
 597:Generated_Source\PSoC4/I2C_I2C_MASTER.c ****             locStatus |= I2C_I2CMasterWaitOneUnit(&timeout);
 656              		.loc 1 597 26 is_stmt 0 discriminator 1 view .LVU192
 657 001c 094B     		ldr	r3, .L46+8
 658 001e 1868     		ldr	r0, [r3]
 597:Generated_Source\PSoC4/I2C_I2C_MASTER.c ****             locStatus |= I2C_I2CMasterWaitOneUnit(&timeout);
 659              		.loc 1 597 24 discriminator 1 view .LVU193
 660 0020 0824     		movs	r4, #8
 661 0022 FF34     		adds	r4, r4, #255
 662 0024 0440     		ands	r4, r0
 663              	.LVL62:
 598:Generated_Source\PSoC4/I2C_I2C_MASTER.c ****         }
 664              		.loc 1 598 13 is_stmt 1 discriminator 1 view .LVU194
 598:Generated_Source\PSoC4/I2C_I2C_MASTER.c ****         }
 665              		.loc 1 598 26 is_stmt 0 discriminator 1 view .LVU195
 666 0026 01A8     		add	r0, sp, #4
 667 0028 FFF7FEFF 		bl	I2C_I2CMasterWaitOneUnit
 668              	.LVL63:
 598:Generated_Source\PSoC4/I2C_I2C_MASTER.c ****         }
 669              		.loc 1 598 23 discriminator 1 view .LVU196
 670 002c 2043     		orrs	r0, r4
 671              	.LVL64:
 600:Generated_Source\PSoC4/I2C_I2C_MASTER.c **** 
 672              		.loc 1 600 9 discriminator 1 view .LVU197
 673 002e F5D0     		beq	.L44
 603:Generated_Source\PSoC4/I2C_I2C_MASTER.c ****     }
 674              		.loc 1 603 9 is_stmt 1 view .LVU198
 603:Generated_Source\PSoC4/I2C_I2C_MASTER.c ****     }
 675              		.loc 1 603 21 is_stmt 0 view .LVU199
 676 0030 FFF7FEFF 		bl	I2C_I2CMasterHandleStatus
 677              	.LVL65:
 678              	.L42:
 603:Generated_Source\PSoC4/I2C_I2C_MASTER.c ****     }
 679              		.loc 1 603 21 view .LVU200
 680              	.LBE6:
 607:Generated_Source\PSoC4/I2C_I2C_MASTER.c **** 
 681              		.loc 1 607 1 view .LVU201
 682 0034 02B0     		add	sp, sp, #8
 683              		@ sp needed
 684 0036 10BD     		pop	{r4, pc}
 685              	.LVL66:
 686              	.L45:
 584:Generated_Source\PSoC4/I2C_I2C_MASTER.c **** 
 687              		.loc 1 584 12 view .LVU202
 688 0038 0420     		movs	r0, #4
 689              	.LVL67:
 606:Generated_Source\PSoC4/I2C_I2C_MASTER.c **** }
 690              		.loc 1 606 5 is_stmt 1 view .LVU203
 606:Generated_Source\PSoC4/I2C_I2C_MASTER.c **** }
 691              		.loc 1 606 11 is_stmt 0 view .LVU204
 692 003a FBE7     		b	.L42
 693              	.L47:
ARM GAS  C:\Users\EDULU~1.DES\AppData\Local\Temp\ccOPPFV9.s 			page 37


 694              		.align	2
 695              	.L46:
 696 003c 00000000 		.word	I2C_state
 697 0040 40020640 		.word	1074135616
 698 0044 000F0640 		.word	1074138880
 699              		.cfi_endproc
 700              	.LFE5:
 701              		.size	I2C_I2CMasterWriteByte, .-I2C_I2CMasterWriteByte
 702              		.section	.text.I2C_I2CMasterReadByte,"ax",%progbits
 703              		.align	1
 704              		.global	I2C_I2CMasterReadByte
 705              		.syntax unified
 706              		.code	16
 707              		.thumb_func
 708              		.fpu softvfp
 709              		.type	I2C_I2CMasterReadByte, %function
 710              	I2C_I2CMasterReadByte:
 711              	.LVL68:
 712              	.LFB6:
 654:Generated_Source\PSoC4/I2C_I2C_MASTER.c ****     uint32 errStatus = I2C_I2C_MSTR_NOT_READY;
 713              		.loc 1 654 1 is_stmt 1 view -0
 714              		.cfi_startproc
 715              		@ args = 0, pretend = 0, frame = 8
 716              		@ frame_needed = 0, uses_anonymous_args = 0
 654:Generated_Source\PSoC4/I2C_I2C_MASTER.c ****     uint32 errStatus = I2C_I2C_MSTR_NOT_READY;
 717              		.loc 1 654 1 is_stmt 0 view .LVU206
 718 0000 F0B5     		push	{r4, r5, r6, r7, lr}
 719              		.cfi_def_cfa_offset 20
 720              		.cfi_offset 4, -20
 721              		.cfi_offset 5, -16
 722              		.cfi_offset 6, -12
 723              		.cfi_offset 7, -8
 724              		.cfi_offset 14, -4
 725 0002 83B0     		sub	sp, sp, #12
 726              		.cfi_def_cfa_offset 32
 727 0004 0500     		movs	r5, r0
 728 0006 0E00     		movs	r6, r1
 655:Generated_Source\PSoC4/I2C_I2C_MASTER.c **** 
 729              		.loc 1 655 5 is_stmt 1 view .LVU207
 730              	.LVL69:
 658:Generated_Source\PSoC4/I2C_I2C_MASTER.c ****     {
 731              		.loc 1 658 5 view .LVU208
 658:Generated_Source\PSoC4/I2C_I2C_MASTER.c ****     {
 732              		.loc 1 658 8 is_stmt 0 view .LVU209
 733 0008 174B     		ldr	r3, .L54
 734 000a 1B78     		ldrb	r3, [r3]
 658:Generated_Source\PSoC4/I2C_I2C_MASTER.c ****     {
 735              		.loc 1 658 7 view .LVU210
 736 000c 9B06     		lsls	r3, r3, #26
 737 000e 27D5     		bpl	.L53
 738              	.LBB7:
 660:Generated_Source\PSoC4/I2C_I2C_MASTER.c ****         uint32 rxNotEmpty;
 739              		.loc 1 660 9 is_stmt 1 view .LVU211
 661:Generated_Source\PSoC4/I2C_I2C_MASTER.c ****         uint32 timeout = I2C_I2C_CONVERT_TIMEOUT_TO_US(timeoutMs);
 740              		.loc 1 661 9 view .LVU212
 662:Generated_Source\PSoC4/I2C_I2C_MASTER.c **** 
 741              		.loc 1 662 9 view .LVU213
ARM GAS  C:\Users\EDULU~1.DES\AppData\Local\Temp\ccOPPFV9.s 			page 38


 662:Generated_Source\PSoC4/I2C_I2C_MASTER.c **** 
 742              		.loc 1 662 26 is_stmt 0 view .LVU214
 743 0010 5301     		lsls	r3, r2, #5
 744 0012 9B1A     		subs	r3, r3, r2
 745 0014 9B00     		lsls	r3, r3, #2
 746 0016 9A18     		adds	r2, r3, r2
 747              	.LVL70:
 662:Generated_Source\PSoC4/I2C_I2C_MASTER.c **** 
 748              		.loc 1 662 26 view .LVU215
 749 0018 D300     		lsls	r3, r2, #3
 662:Generated_Source\PSoC4/I2C_I2C_MASTER.c **** 
 750              		.loc 1 662 16 view .LVU216
 751 001a 0193     		str	r3, [sp, #4]
 752              	.LVL71:
 753              	.L50:
 665:Generated_Source\PSoC4/I2C_I2C_MASTER.c ****         {
 754              		.loc 1 665 9 is_stmt 1 discriminator 1 view .LVU217
 667:Generated_Source\PSoC4/I2C_I2C_MASTER.c ****             rxNotEmpty = I2C_GetRxInterruptSource() & I2C_INTR_RX_NOT_EMPTY;
 755              		.loc 1 667 13 discriminator 1 view .LVU218
 667:Generated_Source\PSoC4/I2C_I2C_MASTER.c ****             rxNotEmpty = I2C_GetRxInterruptSource() & I2C_INTR_RX_NOT_EMPTY;
 756              		.loc 1 667 26 is_stmt 0 discriminator 1 view .LVU219
 757 001c 134B     		ldr	r3, .L54+4
 758 001e 1868     		ldr	r0, [r3]
 667:Generated_Source\PSoC4/I2C_I2C_MASTER.c ****             rxNotEmpty = I2C_GetRxInterruptSource() & I2C_INTR_RX_NOT_EMPTY;
 759              		.loc 1 667 24 discriminator 1 view .LVU220
 760 0020 0224     		movs	r4, #2
 761 0022 FF34     		adds	r4, r4, #255
 762 0024 0440     		ands	r4, r0
 763              	.LVL72:
 668:Generated_Source\PSoC4/I2C_I2C_MASTER.c ****             locStatus |= I2C_I2CMasterWaitOneUnit(&timeout);
 764              		.loc 1 668 13 is_stmt 1 discriminator 1 view .LVU221
 668:Generated_Source\PSoC4/I2C_I2C_MASTER.c ****             locStatus |= I2C_I2CMasterWaitOneUnit(&timeout);
 765              		.loc 1 668 26 is_stmt 0 discriminator 1 view .LVU222
 766 0026 124B     		ldr	r3, .L54+8
 767 0028 1B68     		ldr	r3, [r3]
 668:Generated_Source\PSoC4/I2C_I2C_MASTER.c ****             locStatus |= I2C_I2CMasterWaitOneUnit(&timeout);
 768              		.loc 1 668 24 discriminator 1 view .LVU223
 769 002a 0427     		movs	r7, #4
 770 002c 1F40     		ands	r7, r3
 771              	.LVL73:
 669:Generated_Source\PSoC4/I2C_I2C_MASTER.c ****         }
 772              		.loc 1 669 13 is_stmt 1 discriminator 1 view .LVU224
 669:Generated_Source\PSoC4/I2C_I2C_MASTER.c ****         }
 773              		.loc 1 669 26 is_stmt 0 discriminator 1 view .LVU225
 774 002e 01A8     		add	r0, sp, #4
 775 0030 FFF7FEFF 		bl	I2C_I2CMasterWaitOneUnit
 776              	.LVL74:
 669:Generated_Source\PSoC4/I2C_I2C_MASTER.c ****         }
 777              		.loc 1 669 23 discriminator 1 view .LVU226
 778 0034 2043     		orrs	r0, r4
 779              	.LVL75:
 671:Generated_Source\PSoC4/I2C_I2C_MASTER.c **** 
 780              		.loc 1 671 34 discriminator 1 view .LVU227
 781 0036 3B00     		movs	r3, r7
 782 0038 0343     		orrs	r3, r0
 671:Generated_Source\PSoC4/I2C_I2C_MASTER.c **** 
 783              		.loc 1 671 9 discriminator 1 view .LVU228
ARM GAS  C:\Users\EDULU~1.DES\AppData\Local\Temp\ccOPPFV9.s 			page 39


 784 003a EFD0     		beq	.L50
 674:Generated_Source\PSoC4/I2C_I2C_MASTER.c ****         {
 785              		.loc 1 674 9 is_stmt 1 view .LVU229
 674:Generated_Source\PSoC4/I2C_I2C_MASTER.c ****         {
 786              		.loc 1 674 12 is_stmt 0 view .LVU230
 787 003c 002F     		cmp	r7, #0
 788 003e 05D0     		beq	.L51
 676:Generated_Source\PSoC4/I2C_I2C_MASTER.c ****             I2C_ClearRxInterruptSource(I2C_INTR_RX_ALL);
 789              		.loc 1 676 13 is_stmt 1 view .LVU231
 676:Generated_Source\PSoC4/I2C_I2C_MASTER.c ****             I2C_ClearRxInterruptSource(I2C_INTR_RX_ALL);
 790              		.loc 1 676 30 is_stmt 0 view .LVU232
 791 0040 0C4B     		ldr	r3, .L54+12
 792 0042 1B68     		ldr	r3, [r3]
 676:Generated_Source\PSoC4/I2C_I2C_MASTER.c ****             I2C_ClearRxInterruptSource(I2C_INTR_RX_ALL);
 793              		.loc 1 676 21 view .LVU233
 794 0044 3370     		strb	r3, [r6]
 677:Generated_Source\PSoC4/I2C_I2C_MASTER.c ****         }
 795              		.loc 1 677 13 is_stmt 1 view .LVU234
 677:Generated_Source\PSoC4/I2C_I2C_MASTER.c ****         }
 796              		.loc 1 677 13 view .LVU235
 797 0046 0A4B     		ldr	r3, .L54+8
 798 0048 0B4A     		ldr	r2, .L54+16
 799 004a 1A60     		str	r2, [r3]
 800              	.L51:
 681:Generated_Source\PSoC4/I2C_I2C_MASTER.c **** 
 801              		.loc 1 681 9 view .LVU236
 681:Generated_Source\PSoC4/I2C_I2C_MASTER.c **** 
 802              		.loc 1 681 21 is_stmt 0 view .LVU237
 803 004c FFF7FEFF 		bl	I2C_I2CMasterHandleStatus
 804              	.LVL76:
 683:Generated_Source\PSoC4/I2C_I2C_MASTER.c ****         {
 805              		.loc 1 683 9 is_stmt 1 view .LVU238
 683:Generated_Source\PSoC4/I2C_I2C_MASTER.c ****         {
 806              		.loc 1 683 12 is_stmt 0 view .LVU239
 807 0050 0028     		cmp	r0, #0
 808 0052 06D1     		bne	.L48
 685:Generated_Source\PSoC4/I2C_I2C_MASTER.c ****             {
 809              		.loc 1 685 13 is_stmt 1 view .LVU240
 685:Generated_Source\PSoC4/I2C_I2C_MASTER.c ****             {
 810              		.loc 1 685 15 is_stmt 0 view .LVU241
 811 0054 002D     		cmp	r5, #0
 812 0056 04D1     		bne	.L48
 687:Generated_Source\PSoC4/I2C_I2C_MASTER.c ****             }
 813              		.loc 1 687 17 is_stmt 1 view .LVU242
 687:Generated_Source\PSoC4/I2C_I2C_MASTER.c ****             }
 814              		.loc 1 687 17 view .LVU243
 815 0058 084B     		ldr	r3, .L54+20
 816 005a 0422     		movs	r2, #4
 817 005c 1A60     		str	r2, [r3]
 692:Generated_Source\PSoC4/I2C_I2C_MASTER.c ****         }
 818              		.loc 1 692 13 view .LVU244
 819 005e 00E0     		b	.L48
 820              	.LVL77:
 821              	.L53:
 692:Generated_Source\PSoC4/I2C_I2C_MASTER.c ****         }
 822              		.loc 1 692 13 is_stmt 0 view .LVU245
 823              	.LBE7:
ARM GAS  C:\Users\EDULU~1.DES\AppData\Local\Temp\ccOPPFV9.s 			page 40


 655:Generated_Source\PSoC4/I2C_I2C_MASTER.c **** 
 824              		.loc 1 655 12 view .LVU246
 825 0060 0420     		movs	r0, #4
 826              	.LVL78:
 696:Generated_Source\PSoC4/I2C_I2C_MASTER.c **** }
 827              		.loc 1 696 5 is_stmt 1 view .LVU247
 828              	.L48:
 697:Generated_Source\PSoC4/I2C_I2C_MASTER.c **** 
 829              		.loc 1 697 1 is_stmt 0 view .LVU248
 830 0062 03B0     		add	sp, sp, #12
 831              		@ sp needed
 832              	.LVL79:
 833              	.LVL80:
 697:Generated_Source\PSoC4/I2C_I2C_MASTER.c **** 
 834              		.loc 1 697 1 view .LVU249
 835 0064 F0BD     		pop	{r4, r5, r6, r7, pc}
 836              	.L55:
 837 0066 C046     		.align	2
 838              	.L54:
 839 0068 00000000 		.word	I2C_state
 840 006c 000F0640 		.word	1074138880
 841 0070 C00F0640 		.word	1074139072
 842 0074 40030640 		.word	1074135872
 843 0078 ED0F0000 		.word	4077
 844 007c 68000640 		.word	1074135144
 845              		.cfi_endproc
 846              	.LFE6:
 847              		.size	I2C_I2CMasterReadByte, .-I2C_I2CMasterReadByte
 848              		.section	.text.I2C_I2CMasterGetReadBufSize,"ax",%progbits
 849              		.align	1
 850              		.global	I2C_I2CMasterGetReadBufSize
 851              		.syntax unified
 852              		.code	16
 853              		.thumb_func
 854              		.fpu softvfp
 855              		.type	I2C_I2CMasterGetReadBufSize, %function
 856              	I2C_I2CMasterGetReadBufSize:
 857              	.LFB7:
 722:Generated_Source\PSoC4/I2C_I2C_MASTER.c ****     return(I2C_mstrRdBufIndex);
 858              		.loc 1 722 1 is_stmt 1 view -0
 859              		.cfi_startproc
 860              		@ args = 0, pretend = 0, frame = 0
 861              		@ frame_needed = 0, uses_anonymous_args = 0
 862              		@ link register save eliminated.
 723:Generated_Source\PSoC4/I2C_I2C_MASTER.c **** }
 863              		.loc 1 723 5 view .LVU251
 723:Generated_Source\PSoC4/I2C_I2C_MASTER.c **** }
 864              		.loc 1 723 11 is_stmt 0 view .LVU252
 865 0000 014B     		ldr	r3, .L57
 866 0002 1868     		ldr	r0, [r3]
 724:Generated_Source\PSoC4/I2C_I2C_MASTER.c **** 
 867              		.loc 1 724 1 view .LVU253
 868              		@ sp needed
 869 0004 7047     		bx	lr
 870              	.L58:
 871 0006 C046     		.align	2
 872              	.L57:
ARM GAS  C:\Users\EDULU~1.DES\AppData\Local\Temp\ccOPPFV9.s 			page 41


 873 0008 00000000 		.word	I2C_mstrRdBufIndex
 874              		.cfi_endproc
 875              	.LFE7:
 876              		.size	I2C_I2CMasterGetReadBufSize, .-I2C_I2CMasterGetReadBufSize
 877              		.section	.text.I2C_I2CMasterGetWriteBufSize,"ax",%progbits
 878              		.align	1
 879              		.global	I2C_I2CMasterGetWriteBufSize
 880              		.syntax unified
 881              		.code	16
 882              		.thumb_func
 883              		.fpu softvfp
 884              		.type	I2C_I2CMasterGetWriteBufSize, %function
 885              	I2C_I2CMasterGetWriteBufSize:
 886              	.LFB8:
 749:Generated_Source\PSoC4/I2C_I2C_MASTER.c ****     return(I2C_mstrWrBufIndex);
 887              		.loc 1 749 1 is_stmt 1 view -0
 888              		.cfi_startproc
 889              		@ args = 0, pretend = 0, frame = 0
 890              		@ frame_needed = 0, uses_anonymous_args = 0
 891              		@ link register save eliminated.
 750:Generated_Source\PSoC4/I2C_I2C_MASTER.c **** }
 892              		.loc 1 750 5 view .LVU255
 750:Generated_Source\PSoC4/I2C_I2C_MASTER.c **** }
 893              		.loc 1 750 11 is_stmt 0 view .LVU256
 894 0000 014B     		ldr	r3, .L60
 895 0002 1868     		ldr	r0, [r3]
 751:Generated_Source\PSoC4/I2C_I2C_MASTER.c **** 
 896              		.loc 1 751 1 view .LVU257
 897              		@ sp needed
 898 0004 7047     		bx	lr
 899              	.L61:
 900 0006 C046     		.align	2
 901              	.L60:
 902 0008 00000000 		.word	I2C_mstrWrBufIndex
 903              		.cfi_endproc
 904              	.LFE8:
 905              		.size	I2C_I2CMasterGetWriteBufSize, .-I2C_I2CMasterGetWriteBufSize
 906              		.section	.text.I2C_I2CMasterClearReadBuf,"ax",%progbits
 907              		.align	1
 908              		.global	I2C_I2CMasterClearReadBuf
 909              		.syntax unified
 910              		.code	16
 911              		.thumb_func
 912              		.fpu softvfp
 913              		.type	I2C_I2CMasterClearReadBuf, %function
 914              	I2C_I2CMasterClearReadBuf:
 915              	.LFB9:
 767:Generated_Source\PSoC4/I2C_I2C_MASTER.c ****     I2C_DisableInt();  /* Lock from interruption */
 916              		.loc 1 767 1 is_stmt 1 view -0
 917              		.cfi_startproc
 918              		@ args = 0, pretend = 0, frame = 0
 919              		@ frame_needed = 0, uses_anonymous_args = 0
 920 0000 10B5     		push	{r4, lr}
 921              		.cfi_def_cfa_offset 8
 922              		.cfi_offset 4, -8
 923              		.cfi_offset 14, -4
 768:Generated_Source\PSoC4/I2C_I2C_MASTER.c **** 
ARM GAS  C:\Users\EDULU~1.DES\AppData\Local\Temp\ccOPPFV9.s 			page 42


 924              		.loc 1 768 5 view .LVU259
 925 0002 0A20     		movs	r0, #10
 926 0004 FFF7FEFF 		bl	CyIntDisable
 927              	.LVL81:
 770:Generated_Source\PSoC4/I2C_I2C_MASTER.c ****     I2C_mstrStatus    &= (uint16) ~I2C_I2C_MSTAT_RD_CMPLT;
 928              		.loc 1 770 5 view .LVU260
 770:Generated_Source\PSoC4/I2C_I2C_MASTER.c ****     I2C_mstrStatus    &= (uint16) ~I2C_I2C_MSTAT_RD_CMPLT;
 929              		.loc 1 770 24 is_stmt 0 view .LVU261
 930 0008 054B     		ldr	r3, .L63
 931 000a 0022     		movs	r2, #0
 932 000c 1A60     		str	r2, [r3]
 771:Generated_Source\PSoC4/I2C_I2C_MASTER.c **** 
 933              		.loc 1 771 5 is_stmt 1 view .LVU262
 771:Generated_Source\PSoC4/I2C_I2C_MASTER.c **** 
 934              		.loc 1 771 23 is_stmt 0 view .LVU263
 935 000e 054A     		ldr	r2, .L63+4
 936 0010 1388     		ldrh	r3, [r2]
 937 0012 0121     		movs	r1, #1
 938 0014 8B43     		bics	r3, r1
 939 0016 1380     		strh	r3, [r2]
 773:Generated_Source\PSoC4/I2C_I2C_MASTER.c **** }
 940              		.loc 1 773 5 is_stmt 1 view .LVU264
 941 0018 0A20     		movs	r0, #10
 942 001a FFF7FEFF 		bl	CyIntEnable
 943              	.LVL82:
 774:Generated_Source\PSoC4/I2C_I2C_MASTER.c **** 
 944              		.loc 1 774 1 is_stmt 0 view .LVU265
 945              		@ sp needed
 946 001e 10BD     		pop	{r4, pc}
 947              	.L64:
 948              		.align	2
 949              	.L63:
 950 0020 00000000 		.word	I2C_mstrRdBufIndex
 951 0024 00000000 		.word	I2C_mstrStatus
 952              		.cfi_endproc
 953              	.LFE9:
 954              		.size	I2C_I2CMasterClearReadBuf, .-I2C_I2CMasterClearReadBuf
 955              		.section	.text.I2C_I2CMasterClearWriteBuf,"ax",%progbits
 956              		.align	1
 957              		.global	I2C_I2CMasterClearWriteBuf
 958              		.syntax unified
 959              		.code	16
 960              		.thumb_func
 961              		.fpu softvfp
 962              		.type	I2C_I2CMasterClearWriteBuf, %function
 963              	I2C_I2CMasterClearWriteBuf:
 964              	.LFB10:
 790:Generated_Source\PSoC4/I2C_I2C_MASTER.c ****     I2C_DisableInt();  /* Lock from interruption */
 965              		.loc 1 790 1 is_stmt 1 view -0
 966              		.cfi_startproc
 967              		@ args = 0, pretend = 0, frame = 0
 968              		@ frame_needed = 0, uses_anonymous_args = 0
 969 0000 10B5     		push	{r4, lr}
 970              		.cfi_def_cfa_offset 8
 971              		.cfi_offset 4, -8
 972              		.cfi_offset 14, -4
 791:Generated_Source\PSoC4/I2C_I2C_MASTER.c **** 
ARM GAS  C:\Users\EDULU~1.DES\AppData\Local\Temp\ccOPPFV9.s 			page 43


 973              		.loc 1 791 5 view .LVU267
 974 0002 0A20     		movs	r0, #10
 975 0004 FFF7FEFF 		bl	CyIntDisable
 976              	.LVL83:
 793:Generated_Source\PSoC4/I2C_I2C_MASTER.c ****     I2C_mstrStatus    &= (uint16) ~I2C_I2C_MSTAT_WR_CMPLT;
 977              		.loc 1 793 5 view .LVU268
 793:Generated_Source\PSoC4/I2C_I2C_MASTER.c ****     I2C_mstrStatus    &= (uint16) ~I2C_I2C_MSTAT_WR_CMPLT;
 978              		.loc 1 793 24 is_stmt 0 view .LVU269
 979 0008 054B     		ldr	r3, .L66
 980 000a 0022     		movs	r2, #0
 981 000c 1A60     		str	r2, [r3]
 794:Generated_Source\PSoC4/I2C_I2C_MASTER.c **** 
 982              		.loc 1 794 5 is_stmt 1 view .LVU270
 794:Generated_Source\PSoC4/I2C_I2C_MASTER.c **** 
 983              		.loc 1 794 23 is_stmt 0 view .LVU271
 984 000e 054A     		ldr	r2, .L66+4
 985 0010 1388     		ldrh	r3, [r2]
 986 0012 0221     		movs	r1, #2
 987 0014 8B43     		bics	r3, r1
 988 0016 1380     		strh	r3, [r2]
 796:Generated_Source\PSoC4/I2C_I2C_MASTER.c **** }
 989              		.loc 1 796 5 is_stmt 1 view .LVU272
 990 0018 0A20     		movs	r0, #10
 991 001a FFF7FEFF 		bl	CyIntEnable
 992              	.LVL84:
 797:Generated_Source\PSoC4/I2C_I2C_MASTER.c **** 
 993              		.loc 1 797 1 is_stmt 0 view .LVU273
 994              		@ sp needed
 995 001e 10BD     		pop	{r4, pc}
 996              	.L67:
 997              		.align	2
 998              	.L66:
 999 0020 00000000 		.word	I2C_mstrWrBufIndex
 1000 0024 00000000 		.word	I2C_mstrStatus
 1001              		.cfi_endproc
 1002              	.LFE10:
 1003              		.size	I2C_I2CMasterClearWriteBuf, .-I2C_I2CMasterClearWriteBuf
 1004              		.section	.text.I2C_I2CMasterStatus,"ax",%progbits
 1005              		.align	1
 1006              		.global	I2C_I2CMasterStatus
 1007              		.syntax unified
 1008              		.code	16
 1009              		.thumb_func
 1010              		.fpu softvfp
 1011              		.type	I2C_I2CMasterStatus, %function
 1012              	I2C_I2CMasterStatus:
 1013              	.LFB11:
 842:Generated_Source\PSoC4/I2C_I2C_MASTER.c ****     uint32 status;
 1014              		.loc 1 842 1 is_stmt 1 view -0
 1015              		.cfi_startproc
 1016              		@ args = 0, pretend = 0, frame = 0
 1017              		@ frame_needed = 0, uses_anonymous_args = 0
 1018 0000 10B5     		push	{r4, lr}
 1019              		.cfi_def_cfa_offset 8
 1020              		.cfi_offset 4, -8
 1021              		.cfi_offset 14, -4
 843:Generated_Source\PSoC4/I2C_I2C_MASTER.c **** 
ARM GAS  C:\Users\EDULU~1.DES\AppData\Local\Temp\ccOPPFV9.s 			page 44


 1022              		.loc 1 843 5 view .LVU275
 845:Generated_Source\PSoC4/I2C_I2C_MASTER.c **** 
 1023              		.loc 1 845 5 view .LVU276
 1024 0002 0A20     		movs	r0, #10
 1025 0004 FFF7FEFF 		bl	CyIntDisable
 1026              	.LVL85:
 847:Generated_Source\PSoC4/I2C_I2C_MASTER.c **** 
 1027              		.loc 1 847 5 view .LVU277
 847:Generated_Source\PSoC4/I2C_I2C_MASTER.c **** 
 1028              		.loc 1 847 14 is_stmt 0 view .LVU278
 1029 0008 074B     		ldr	r3, .L70
 1030 000a 1B88     		ldrh	r3, [r3]
 1031 000c 9BB2     		uxth	r3, r3
 847:Generated_Source\PSoC4/I2C_I2C_MASTER.c **** 
 1032              		.loc 1 847 12 view .LVU279
 1033 000e 1C00     		movs	r4, r3
 1034              	.LVL86:
 849:Generated_Source\PSoC4/I2C_I2C_MASTER.c ****     {
 1035              		.loc 1 849 5 is_stmt 1 view .LVU280
 849:Generated_Source\PSoC4/I2C_I2C_MASTER.c ****     {
 1036              		.loc 1 849 9 is_stmt 0 view .LVU281
 1037 0010 064A     		ldr	r2, .L70+4
 1038 0012 1278     		ldrb	r2, [r2]
 849:Generated_Source\PSoC4/I2C_I2C_MASTER.c ****     {
 1039              		.loc 1 849 8 view .LVU282
 1040 0014 9206     		lsls	r2, r2, #26
 1041 0016 01D5     		bpl	.L69
 852:Generated_Source\PSoC4/I2C_I2C_MASTER.c ****     }
 1042              		.loc 1 852 9 is_stmt 1 view .LVU283
 852:Generated_Source\PSoC4/I2C_I2C_MASTER.c ****     }
 1043              		.loc 1 852 16 is_stmt 0 view .LVU284
 1044 0018 0424     		movs	r4, #4
 1045 001a 1C43     		orrs	r4, r3
 1046              	.LVL87:
 1047              	.L69:
 855:Generated_Source\PSoC4/I2C_I2C_MASTER.c **** 
 1048              		.loc 1 855 5 is_stmt 1 view .LVU285
 1049 001c 0A20     		movs	r0, #10
 1050 001e FFF7FEFF 		bl	CyIntEnable
 1051              	.LVL88:
 857:Generated_Source\PSoC4/I2C_I2C_MASTER.c **** }
 1052              		.loc 1 857 5 view .LVU286
 858:Generated_Source\PSoC4/I2C_I2C_MASTER.c **** 
 1053              		.loc 1 858 1 is_stmt 0 view .LVU287
 1054 0022 2000     		movs	r0, r4
 1055              		@ sp needed
 1056              	.LVL89:
 858:Generated_Source\PSoC4/I2C_I2C_MASTER.c **** 
 1057              		.loc 1 858 1 view .LVU288
 1058 0024 10BD     		pop	{r4, pc}
 1059              	.L71:
 1060 0026 C046     		.align	2
 1061              	.L70:
 1062 0028 00000000 		.word	I2C_mstrStatus
 1063 002c 00000000 		.word	I2C_state
 1064              		.cfi_endproc
 1065              	.LFE11:
ARM GAS  C:\Users\EDULU~1.DES\AppData\Local\Temp\ccOPPFV9.s 			page 45


 1066              		.size	I2C_I2CMasterStatus, .-I2C_I2CMasterStatus
 1067              		.section	.text.I2C_I2CMasterClearStatus,"ax",%progbits
 1068              		.align	1
 1069              		.global	I2C_I2CMasterClearStatus
 1070              		.syntax unified
 1071              		.code	16
 1072              		.thumb_func
 1073              		.fpu softvfp
 1074              		.type	I2C_I2CMasterClearStatus, %function
 1075              	I2C_I2CMasterClearStatus:
 1076              	.LFB12:
 876:Generated_Source\PSoC4/I2C_I2C_MASTER.c ****     uint32 status;
 1077              		.loc 1 876 1 is_stmt 1 view -0
 1078              		.cfi_startproc
 1079              		@ args = 0, pretend = 0, frame = 0
 1080              		@ frame_needed = 0, uses_anonymous_args = 0
 1081 0000 10B5     		push	{r4, lr}
 1082              		.cfi_def_cfa_offset 8
 1083              		.cfi_offset 4, -8
 1084              		.cfi_offset 14, -4
 877:Generated_Source\PSoC4/I2C_I2C_MASTER.c **** 
 1085              		.loc 1 877 5 view .LVU290
 879:Generated_Source\PSoC4/I2C_I2C_MASTER.c **** 
 1086              		.loc 1 879 5 view .LVU291
 1087 0002 0A20     		movs	r0, #10
 1088 0004 FFF7FEFF 		bl	CyIntDisable
 1089              	.LVL90:
 882:Generated_Source\PSoC4/I2C_I2C_MASTER.c ****     I2C_mstrStatus = I2C_I2C_MSTAT_CLEAR;
 1090              		.loc 1 882 5 view .LVU292
 882:Generated_Source\PSoC4/I2C_I2C_MASTER.c ****     I2C_mstrStatus = I2C_I2C_MSTAT_CLEAR;
 1091              		.loc 1 882 14 is_stmt 0 view .LVU293
 1092 0008 044B     		ldr	r3, .L73
 1093 000a 1C88     		ldrh	r4, [r3]
 1094 000c A4B2     		uxth	r4, r4
 1095              	.LVL91:
 883:Generated_Source\PSoC4/I2C_I2C_MASTER.c **** 
 1096              		.loc 1 883 5 is_stmt 1 view .LVU294
 883:Generated_Source\PSoC4/I2C_I2C_MASTER.c **** 
 1097              		.loc 1 883 20 is_stmt 0 view .LVU295
 1098 000e 0022     		movs	r2, #0
 1099 0010 1A80     		strh	r2, [r3]
 885:Generated_Source\PSoC4/I2C_I2C_MASTER.c **** 
 1100              		.loc 1 885 5 is_stmt 1 view .LVU296
 1101 0012 0A20     		movs	r0, #10
 1102 0014 FFF7FEFF 		bl	CyIntEnable
 1103              	.LVL92:
 887:Generated_Source\PSoC4/I2C_I2C_MASTER.c **** }
 1104              		.loc 1 887 5 view .LVU297
 888:Generated_Source\PSoC4/I2C_I2C_MASTER.c **** 
 1105              		.loc 1 888 1 is_stmt 0 view .LVU298
 1106 0018 2000     		movs	r0, r4
 1107              		@ sp needed
 1108              	.LVL93:
 888:Generated_Source\PSoC4/I2C_I2C_MASTER.c **** 
 1109              		.loc 1 888 1 view .LVU299
 1110 001a 10BD     		pop	{r4, pc}
 1111              	.L74:
ARM GAS  C:\Users\EDULU~1.DES\AppData\Local\Temp\ccOPPFV9.s 			page 46


 1112              		.align	2
 1113              	.L73:
 1114 001c 00000000 		.word	I2C_mstrStatus
 1115              		.cfi_endproc
 1116              	.LFE12:
 1117              		.size	I2C_I2CMasterClearStatus, .-I2C_I2CMasterClearStatus
 1118              		.section	.text.I2C_I2CReStartGeneration,"ax",%progbits
 1119              		.align	1
 1120              		.global	I2C_I2CReStartGeneration
 1121              		.syntax unified
 1122              		.code	16
 1123              		.thumb_func
 1124              		.fpu softvfp
 1125              		.type	I2C_I2CReStartGeneration, %function
 1126              	I2C_I2CReStartGeneration:
 1127              	.LFB13:
 920:Generated_Source\PSoC4/I2C_I2C_MASTER.c **** #if(I2C_CY_SCBIP_V0)
 1128              		.loc 1 920 1 is_stmt 1 view -0
 1129              		.cfi_startproc
 1130              		@ args = 0, pretend = 0, frame = 0
 1131              		@ frame_needed = 0, uses_anonymous_args = 0
 1132 0000 70B5     		push	{r4, r5, r6, lr}
 1133              		.cfi_def_cfa_offset 16
 1134              		.cfi_offset 4, -16
 1135              		.cfi_offset 5, -12
 1136              		.cfi_offset 6, -8
 1137              		.cfi_offset 14, -4
 928:Generated_Source\PSoC4/I2C_I2C_MASTER.c ****     uint32 timeout = I2C_I2C_PHASE_GEN_TIMEOUT;
 1138              		.loc 1 928 5 view .LVU301
 1139              	.LVL94:
 929:Generated_Source\PSoC4/I2C_I2C_MASTER.c **** 
 1140              		.loc 1 929 5 view .LVU302
 932:Generated_Source\PSoC4/I2C_I2C_MASTER.c **** 
 1141              		.loc 1 932 5 view .LVU303
 932:Generated_Source\PSoC4/I2C_I2C_MASTER.c **** 
 1142              		.loc 1 932 28 is_stmt 0 view .LVU304
 1143 0002 2B4B     		ldr	r3, .L86
 1144 0004 1D68     		ldr	r5, [r3]
 932:Generated_Source\PSoC4/I2C_I2C_MASTER.c **** 
 1145              		.loc 1 932 12 view .LVU305
 1146 0006 2022     		movs	r2, #32
 1147 0008 1540     		ands	r5, r2
 1148              	.LVL95:
 935:Generated_Source\PSoC4/I2C_I2C_MASTER.c ****     {
 1149              		.loc 1 935 5 is_stmt 1 view .LVU306
 929:Generated_Source\PSoC4/I2C_I2C_MASTER.c **** 
 1150              		.loc 1 929 12 is_stmt 0 view .LVU307
 1151 000a 2A4C     		ldr	r4, .L86+4
 1152              	.LVL96:
 1153              	.L76:
 935:Generated_Source\PSoC4/I2C_I2C_MASTER.c ****     {
 1154              		.loc 1 935 13 view .LVU308
 1155 000c FFF7FEFF 		bl	I2C_sda_Read
 1156              	.LVL97:
 935:Generated_Source\PSoC4/I2C_I2C_MASTER.c ****     {
 1157              		.loc 1 935 11 view .LVU309
 1158 0010 0028     		cmp	r0, #0
ARM GAS  C:\Users\EDULU~1.DES\AppData\Local\Temp\ccOPPFV9.s 			page 47


 1159 0012 06D1     		bne	.L77
 935:Generated_Source\PSoC4/I2C_I2C_MASTER.c ****     {
 1160              		.loc 1 935 36 discriminator 1 view .LVU310
 1161 0014 002C     		cmp	r4, #0
 1162 0016 04D0     		beq	.L77
 937:Generated_Source\PSoC4/I2C_I2C_MASTER.c ****         --timeout;
 1163              		.loc 1 937 9 is_stmt 1 view .LVU311
 1164 0018 0120     		movs	r0, #1
 1165 001a FFF7FEFF 		bl	CyDelayUs
 1166              	.LVL98:
 938:Generated_Source\PSoC4/I2C_I2C_MASTER.c ****     }
 1167              		.loc 1 938 9 view .LVU312
 1168 001e 013C     		subs	r4, r4, #1
 1169              	.LVL99:
 938:Generated_Source\PSoC4/I2C_I2C_MASTER.c ****     }
 1170              		.loc 1 938 9 is_stmt 0 view .LVU313
 1171 0020 F4E7     		b	.L76
 1172              	.L77:
 941:Generated_Source\PSoC4/I2C_I2C_MASTER.c ****     {
 1173              		.loc 1 941 5 is_stmt 1 view .LVU314
 941:Generated_Source\PSoC4/I2C_I2C_MASTER.c ****     {
 1174              		.loc 1 941 8 is_stmt 0 view .LVU315
 1175 0022 002C     		cmp	r4, #0
 1176 0024 00D1     		bne	.L85
 1177              	.LVL100:
 1178              	.L75:
1002:Generated_Source\PSoC4/I2C_I2C_MASTER.c **** 
 1179              		.loc 1 1002 1 view .LVU316
 1180              		@ sp needed
 1181              	.LVL101:
1002:Generated_Source\PSoC4/I2C_I2C_MASTER.c **** 
 1182              		.loc 1 1002 1 view .LVU317
 1183 0026 70BD     		pop	{r4, r5, r6, pc}
 1184              	.LVL102:
 1185              	.L85:
 944:Generated_Source\PSoC4/I2C_I2C_MASTER.c **** 
 1186              		.loc 1 944 9 is_stmt 1 view .LVU318
 947:Generated_Source\PSoC4/I2C_I2C_MASTER.c ****         I2C_SET_I2C_SCL_HSIOM_SEL(I2C_HSIOM_GPIO_SEL);
 1187              		.loc 1 947 9 view .LVU319
 1188 0028 0020     		movs	r0, #0
 1189 002a FFF7FEFF 		bl	I2C_scl_Write
 1190              	.LVL103:
 948:Generated_Source\PSoC4/I2C_I2C_MASTER.c **** 
 1191              		.loc 1 948 9 view .LVU320
 948:Generated_Source\PSoC4/I2C_I2C_MASTER.c **** 
 1192              		.loc 1 948 9 view .LVU321
 1193 002e 224A     		ldr	r2, .L86+8
 1194 0030 1368     		ldr	r3, [r2]
 1195 0032 0F21     		movs	r1, #15
 1196 0034 8B43     		bics	r3, r1
 1197 0036 1360     		str	r3, [r2]
 951:Generated_Source\PSoC4/I2C_I2C_MASTER.c **** 
 1198              		.loc 1 951 9 view .LVU322
 951:Generated_Source\PSoC4/I2C_I2C_MASTER.c **** 
 1199              		.loc 1 951 22 is_stmt 0 view .LVU323
 1200 0038 204A     		ldr	r2, .L86+12
 1201 003a 1368     		ldr	r3, [r2]
ARM GAS  C:\Users\EDULU~1.DES\AppData\Local\Temp\ccOPPFV9.s 			page 48


 1202 003c 5B00     		lsls	r3, r3, #1
 1203 003e 5B08     		lsrs	r3, r3, #1
 1204 0040 1360     		str	r3, [r2]
 953:Generated_Source\PSoC4/I2C_I2C_MASTER.c ****         {
 1205              		.loc 1 953 9 is_stmt 1 view .LVU324
 953:Generated_Source\PSoC4/I2C_I2C_MASTER.c ****         {
 1206              		.loc 1 953 12 is_stmt 0 view .LVU325
 1207 0042 002D     		cmp	r5, #0
 1208 0044 19D0     		beq	.L80
 958:Generated_Source\PSoC4/I2C_I2C_MASTER.c ****             CyDelayUs(I2C_I2C_TLOW_TIME);
 1209              		.loc 1 958 13 is_stmt 1 view .LVU326
 1210 0046 0020     		movs	r0, #0
 1211 0048 FFF7FEFF 		bl	I2C_scl_Write
 1212              	.LVL104:
 959:Generated_Source\PSoC4/I2C_I2C_MASTER.c **** 
 1213              		.loc 1 959 13 view .LVU327
 1214 004c 0A20     		movs	r0, #10
 1215 004e FFF7FEFF 		bl	CyDelayUs
 1216              	.LVL105:
 962:Generated_Source\PSoC4/I2C_I2C_MASTER.c ****             CyDelayUs(I2C_I2C_THIGH_TIME);
 1217              		.loc 1 962 13 view .LVU328
 1218 0052 0120     		movs	r0, #1
 1219 0054 FFF7FEFF 		bl	I2C_scl_Write
 1220              	.LVL106:
 963:Generated_Source\PSoC4/I2C_I2C_MASTER.c **** 
 1221              		.loc 1 963 13 view .LVU329
 1222 0058 0A20     		movs	r0, #10
 1223 005a FFF7FEFF 		bl	CyDelayUs
 1224              	.LVL107:
 966:Generated_Source\PSoC4/I2C_I2C_MASTER.c ****             {
 1225              		.loc 1 966 13 view .LVU330
 944:Generated_Source\PSoC4/I2C_I2C_MASTER.c **** 
 1226              		.loc 1 944 17 is_stmt 0 view .LVU331
 1227 005e 154C     		ldr	r4, .L86+4
 966:Generated_Source\PSoC4/I2C_I2C_MASTER.c ****             {
 1228              		.loc 1 966 19 view .LVU332
 1229 0060 03E0     		b	.L81
 1230              	.LVL108:
 1231              	.L83:
 968:Generated_Source\PSoC4/I2C_I2C_MASTER.c ****                 --timeout;
 1232              		.loc 1 968 17 is_stmt 1 view .LVU333
 1233 0062 0120     		movs	r0, #1
 1234 0064 FFF7FEFF 		bl	CyDelayUs
 1235              	.LVL109:
 969:Generated_Source\PSoC4/I2C_I2C_MASTER.c ****             }
 1236              		.loc 1 969 17 view .LVU334
 1237 0068 013C     		subs	r4, r4, #1
 1238              	.LVL110:
 1239              	.L81:
 966:Generated_Source\PSoC4/I2C_I2C_MASTER.c ****             {
 1240              		.loc 1 966 21 is_stmt 0 view .LVU335
 1241 006a FFF7FEFF 		bl	I2C_scl_Read
 1242              	.LVL111:
 966:Generated_Source\PSoC4/I2C_I2C_MASTER.c ****             {
 1243              		.loc 1 966 19 view .LVU336
 1244 006e 0028     		cmp	r0, #0
 1245 0070 01D1     		bne	.L82
ARM GAS  C:\Users\EDULU~1.DES\AppData\Local\Temp\ccOPPFV9.s 			page 49


 966:Generated_Source\PSoC4/I2C_I2C_MASTER.c ****             {
 1246              		.loc 1 966 44 discriminator 1 view .LVU337
 1247 0072 002C     		cmp	r4, #0
 1248 0074 F5D1     		bne	.L83
 1249              	.L82:
 973:Generated_Source\PSoC4/I2C_I2C_MASTER.c ****         {
 1250              		.loc 1 973 9 is_stmt 1 view .LVU338
 973:Generated_Source\PSoC4/I2C_I2C_MASTER.c ****         {
 1251              		.loc 1 973 12 is_stmt 0 view .LVU339
 1252 0076 002C     		cmp	r4, #0
 1253 0078 08D0     		beq	.L84
 1254              	.LVL112:
 1255              	.L80:
 976:Generated_Source\PSoC4/I2C_I2C_MASTER.c ****             CyDelayUs(I2C_I2C_TLOW_TIME);
 1256              		.loc 1 976 13 is_stmt 1 view .LVU340
 1257 007a 0020     		movs	r0, #0
 1258 007c FFF7FEFF 		bl	I2C_scl_Write
 1259              	.LVL113:
 977:Generated_Source\PSoC4/I2C_I2C_MASTER.c **** 
 1260              		.loc 1 977 13 view .LVU341
 1261 0080 0A20     		movs	r0, #10
 1262 0082 FFF7FEFF 		bl	CyDelayUs
 1263              	.LVL114:
 980:Generated_Source\PSoC4/I2C_I2C_MASTER.c ****         }
 1264              		.loc 1 980 13 view .LVU342
 980:Generated_Source\PSoC4/I2C_I2C_MASTER.c ****         }
 1265              		.loc 1 980 37 is_stmt 0 view .LVU343
 1266 0086 0E4B     		ldr	r3, .L86+16
 1267 0088 0122     		movs	r2, #1
 1268 008a 1A60     		str	r2, [r3]
 1269              	.L84:
 986:Generated_Source\PSoC4/I2C_I2C_MASTER.c **** 
 1270              		.loc 1 986 9 is_stmt 1 view .LVU344
 986:Generated_Source\PSoC4/I2C_I2C_MASTER.c **** 
 1271              		.loc 1 986 22 is_stmt 0 view .LVU345
 1272 008c 0B4A     		ldr	r2, .L86+12
 1273 008e 1168     		ldr	r1, [r2]
 1274 0090 8023     		movs	r3, #128
 1275 0092 1B06     		lsls	r3, r3, #24
 1276 0094 0B43     		orrs	r3, r1
 1277 0096 1360     		str	r3, [r2]
 989:Generated_Source\PSoC4/I2C_I2C_MASTER.c ****         I2C_SET_I2C_SCL_DR       (I2C_I2C_SCL_HIGH);
 1278              		.loc 1 989 9 is_stmt 1 view .LVU346
 989:Generated_Source\PSoC4/I2C_I2C_MASTER.c ****         I2C_SET_I2C_SCL_DR       (I2C_I2C_SCL_HIGH);
 1279              		.loc 1 989 9 view .LVU347
 1280 0098 074A     		ldr	r2, .L86+8
 1281 009a 1368     		ldr	r3, [r2]
 1282 009c 0F21     		movs	r1, #15
 1283 009e 8B43     		bics	r3, r1
 1284 00a0 0139     		subs	r1, r1, #1
 1285 00a2 0B43     		orrs	r3, r1
 1286 00a4 1360     		str	r3, [r2]
 990:Generated_Source\PSoC4/I2C_I2C_MASTER.c ****     }
 1287              		.loc 1 990 9 view .LVU348
 1288 00a6 0120     		movs	r0, #1
 1289 00a8 FFF7FEFF 		bl	I2C_scl_Write
 1290              	.LVL115:
ARM GAS  C:\Users\EDULU~1.DES\AppData\Local\Temp\ccOPPFV9.s 			page 50


1002:Generated_Source\PSoC4/I2C_I2C_MASTER.c **** 
 1291              		.loc 1 1002 1 is_stmt 0 view .LVU349
 1292 00ac BBE7     		b	.L75
 1293              	.L87:
 1294 00ae C046     		.align	2
 1295              	.L86:
 1296 00b0 64000640 		.word	1074135140
 1297 00b4 204E0000 		.word	20000
 1298 00b8 10000140 		.word	1073807376
 1299 00bc 00000640 		.word	1074135040
 1300 00c0 68000640 		.word	1074135144
 1301              		.cfi_endproc
 1302              	.LFE13:
 1303              		.size	I2C_I2CReStartGeneration, .-I2C_I2CReStartGeneration
 1304              		.section	.text.I2C_I2CMasterWriteBuf,"ax",%progbits
 1305              		.align	1
 1306              		.global	I2C_I2CMasterWriteBuf
 1307              		.syntax unified
 1308              		.code	16
 1309              		.thumb_func
 1310              		.fpu softvfp
 1311              		.type	I2C_I2CMasterWriteBuf, %function
 1312              	I2C_I2CMasterWriteBuf:
 1313              	.LVL116:
 1314              	.LFB0:
 104:Generated_Source\PSoC4/I2C_I2C_MASTER.c ****     uint32 errStatus;
 1315              		.loc 1 104 1 is_stmt 1 view -0
 1316              		.cfi_startproc
 1317              		@ args = 0, pretend = 0, frame = 0
 1318              		@ frame_needed = 0, uses_anonymous_args = 0
 104:Generated_Source\PSoC4/I2C_I2C_MASTER.c ****     uint32 errStatus;
 1319              		.loc 1 104 1 is_stmt 0 view .LVU351
 1320 0000 F8B5     		push	{r3, r4, r5, r6, r7, lr}
 1321              		.cfi_def_cfa_offset 24
 1322              		.cfi_offset 3, -24
 1323              		.cfi_offset 4, -20
 1324              		.cfi_offset 5, -16
 1325              		.cfi_offset 6, -12
 1326              		.cfi_offset 7, -8
 1327              		.cfi_offset 14, -4
 1328 0002 0500     		movs	r5, r0
 1329 0004 0C00     		movs	r4, r1
 1330 0006 1700     		movs	r7, r2
 1331 0008 1E00     		movs	r6, r3
 105:Generated_Source\PSoC4/I2C_I2C_MASTER.c **** 
 1332              		.loc 1 105 5 is_stmt 1 view .LVU352
 107:Generated_Source\PSoC4/I2C_I2C_MASTER.c **** 
 1333              		.loc 1 107 5 view .LVU353
 1334              	.LVL117:
 109:Generated_Source\PSoC4/I2C_I2C_MASTER.c ****     {
 1335              		.loc 1 109 5 view .LVU354
 109:Generated_Source\PSoC4/I2C_I2C_MASTER.c ****     {
 1336              		.loc 1 109 7 is_stmt 0 view .LVU355
 1337 000a 0029     		cmp	r1, #0
 1338 000c 4DD0     		beq	.L93
 112:Generated_Source\PSoC4/I2C_I2C_MASTER.c ****         {
 1339              		.loc 1 112 9 is_stmt 1 view .LVU356
ARM GAS  C:\Users\EDULU~1.DES\AppData\Local\Temp\ccOPPFV9.s 			page 51


 112:Generated_Source\PSoC4/I2C_I2C_MASTER.c ****         {
 1340              		.loc 1 112 12 is_stmt 0 view .LVU357
 1341 000e 284B     		ldr	r3, .L99
 1342              	.LVL118:
 112:Generated_Source\PSoC4/I2C_I2C_MASTER.c ****         {
 1343              		.loc 1 112 12 view .LVU358
 1344 0010 1B78     		ldrb	r3, [r3]
 112:Generated_Source\PSoC4/I2C_I2C_MASTER.c ****         {
 1345              		.loc 1 112 11 view .LVU359
 1346 0012 102B     		cmp	r3, #16
 1347 0014 09D0     		beq	.L96
 120:Generated_Source\PSoC4/I2C_I2C_MASTER.c ****         {
 1348              		.loc 1 120 14 is_stmt 1 view .LVU360
 120:Generated_Source\PSoC4/I2C_I2C_MASTER.c ****         {
 1349              		.loc 1 120 17 is_stmt 0 view .LVU361
 1350 0016 264B     		ldr	r3, .L99
 1351 0018 1B78     		ldrb	r3, [r3]
 120:Generated_Source\PSoC4/I2C_I2C_MASTER.c ****         {
 1352              		.loc 1 120 16 view .LVU362
 1353 001a 602B     		cmp	r3, #96
 1354 001c 0ED0     		beq	.L97
 107:Generated_Source\PSoC4/I2C_I2C_MASTER.c **** 
 1355              		.loc 1 107 15 view .LVU363
 1356 001e 0424     		movs	r4, #4
 1357              	.LVL119:
 1358              	.L89:
 171:Generated_Source\PSoC4/I2C_I2C_MASTER.c **** 
 1359              		.loc 1 171 5 is_stmt 1 view .LVU364
 1360 0020 0A20     		movs	r0, #10
 1361 0022 FFF7FEFF 		bl	CyIntEnable
 1362              	.LVL120:
 173:Generated_Source\PSoC4/I2C_I2C_MASTER.c **** }
 1363              		.loc 1 173 5 view .LVU365
 174:Generated_Source\PSoC4/I2C_I2C_MASTER.c **** 
 1364              		.loc 1 174 1 is_stmt 0 view .LVU366
 1365 0026 2000     		movs	r0, r4
 1366              		@ sp needed
 1367              	.LVL121:
 1368              	.LVL122:
 1369              	.LVL123:
 174:Generated_Source\PSoC4/I2C_I2C_MASTER.c **** 
 1370              		.loc 1 174 1 view .LVU367
 1371 0028 F8BD     		pop	{r3, r4, r5, r6, r7, pc}
 1372              	.LVL124:
 1373              	.L96:
 114:Generated_Source\PSoC4/I2C_I2C_MASTER.c **** 
 1374              		.loc 1 114 13 is_stmt 1 view .LVU368
 1375 002a 0A20     		movs	r0, #10
 1376              	.LVL125:
 114:Generated_Source\PSoC4/I2C_I2C_MASTER.c **** 
 1377              		.loc 1 114 13 is_stmt 0 view .LVU369
 1378 002c FFF7FEFF 		bl	CyIntDisable
 1379              	.LVL126:
 117:Generated_Source\PSoC4/I2C_I2C_MASTER.c ****                             I2C_I2C_MSTR_BUS_BUSY : I2C_I2C_MSTR_NO_ERROR;
 1380              		.loc 1 117 13 is_stmt 1 view .LVU370
 117:Generated_Source\PSoC4/I2C_I2C_MASTER.c ****                             I2C_I2C_MSTR_BUS_BUSY : I2C_I2C_MSTR_NO_ERROR;
 1381              		.loc 1 117 25 is_stmt 0 view .LVU371
ARM GAS  C:\Users\EDULU~1.DES\AppData\Local\Temp\ccOPPFV9.s 			page 52


 1382 0030 204B     		ldr	r3, .L99+4
 1383 0032 1B68     		ldr	r3, [r3]
 118:Generated_Source\PSoC4/I2C_I2C_MASTER.c ****         }
 1384              		.loc 1 118 51 view .LVU372
 1385 0034 DB07     		lsls	r3, r3, #31
 1386 0036 06D5     		bpl	.L91
 1387 0038 0824     		movs	r4, #8
 1388              	.LVL127:
 118:Generated_Source\PSoC4/I2C_I2C_MASTER.c ****         }
 1389              		.loc 1 118 51 view .LVU373
 1390 003a F1E7     		b	.L89
 1391              	.LVL128:
 1392              	.L97:
 122:Generated_Source\PSoC4/I2C_I2C_MASTER.c ****                               errStatus  = I2C_I2C_MSTR_NO_ERROR;
 1393              		.loc 1 122 13 is_stmt 1 view .LVU374
 122:Generated_Source\PSoC4/I2C_I2C_MASTER.c ****                               errStatus  = I2C_I2C_MSTR_NO_ERROR;
 1394              		.loc 1 122 28 is_stmt 0 view .LVU375
 1395 003c 1E4A     		ldr	r2, .L99+8
 1396              	.LVL129:
 122:Generated_Source\PSoC4/I2C_I2C_MASTER.c ****                               errStatus  = I2C_I2C_MSTR_NO_ERROR;
 1397              		.loc 1 122 28 view .LVU376
 1398 003e 1388     		ldrh	r3, [r2]
 1399 0040 0821     		movs	r1, #8
 1400              	.LVL130:
 122:Generated_Source\PSoC4/I2C_I2C_MASTER.c ****                               errStatus  = I2C_I2C_MSTR_NO_ERROR;
 1401              		.loc 1 122 28 view .LVU377
 1402 0042 8B43     		bics	r3, r1
 1403 0044 1380     		strh	r3, [r2]
 123:Generated_Source\PSoC4/I2C_I2C_MASTER.c ****         }
 1404              		.loc 1 123 31 is_stmt 1 view .LVU378
 1405              	.LVL131:
 128:Generated_Source\PSoC4/I2C_I2C_MASTER.c ****     }
 1406              		.loc 1 128 9 view .LVU379
 132:Generated_Source\PSoC4/I2C_I2C_MASTER.c ****     {
 1407              		.loc 1 132 5 view .LVU380
 1408              	.L91:
 135:Generated_Source\PSoC4/I2C_I2C_MASTER.c **** 
 1409              		.loc 1 135 9 view .LVU381
 135:Generated_Source\PSoC4/I2C_I2C_MASTER.c **** 
 1410              		.loc 1 135 9 view .LVU382
 138:Generated_Source\PSoC4/I2C_I2C_MASTER.c ****         I2C_mstrWrBufIndexTmp = 0u;
 1411              		.loc 1 138 9 view .LVU383
 138:Generated_Source\PSoC4/I2C_I2C_MASTER.c ****         I2C_mstrWrBufIndexTmp = 0u;
 1412              		.loc 1 138 19 is_stmt 0 view .LVU384
 1413 0046 1A4B     		ldr	r3, .L99
 1414 0048 2822     		movs	r2, #40
 1415 004a 1A70     		strb	r2, [r3]
 139:Generated_Source\PSoC4/I2C_I2C_MASTER.c ****         I2C_mstrWrBufIndex    = 0u;
 1416              		.loc 1 139 9 is_stmt 1 view .LVU385
 139:Generated_Source\PSoC4/I2C_I2C_MASTER.c ****         I2C_mstrWrBufIndex    = 0u;
 1417              		.loc 1 139 31 is_stmt 0 view .LVU386
 1418 004c 0023     		movs	r3, #0
 1419 004e 1B4A     		ldr	r2, .L99+12
 1420 0050 1360     		str	r3, [r2]
 140:Generated_Source\PSoC4/I2C_I2C_MASTER.c ****         I2C_mstrWrBufSize     = cnt;
 1421              		.loc 1 140 9 is_stmt 1 view .LVU387
 140:Generated_Source\PSoC4/I2C_I2C_MASTER.c ****         I2C_mstrWrBufSize     = cnt;
ARM GAS  C:\Users\EDULU~1.DES\AppData\Local\Temp\ccOPPFV9.s 			page 53


 1422              		.loc 1 140 31 is_stmt 0 view .LVU388
 1423 0052 1B4A     		ldr	r2, .L99+16
 1424 0054 1360     		str	r3, [r2]
 141:Generated_Source\PSoC4/I2C_I2C_MASTER.c ****         I2C_mstrWrBufPtr      = (volatile uint8 *) wrData;
 1425              		.loc 1 141 9 is_stmt 1 view .LVU389
 141:Generated_Source\PSoC4/I2C_I2C_MASTER.c ****         I2C_mstrWrBufPtr      = (volatile uint8 *) wrData;
 1426              		.loc 1 141 31 is_stmt 0 view .LVU390
 1427 0056 1B4B     		ldr	r3, .L99+20
 1428 0058 1F60     		str	r7, [r3]
 142:Generated_Source\PSoC4/I2C_I2C_MASTER.c ****         I2C_mstrControl       = (uint8) mode;
 1429              		.loc 1 142 9 is_stmt 1 view .LVU391
 142:Generated_Source\PSoC4/I2C_I2C_MASTER.c ****         I2C_mstrControl       = (uint8) mode;
 1430              		.loc 1 142 31 is_stmt 0 view .LVU392
 1431 005a 1B4B     		ldr	r3, .L99+24
 1432 005c 1C60     		str	r4, [r3]
 143:Generated_Source\PSoC4/I2C_I2C_MASTER.c **** 
 1433              		.loc 1 143 9 is_stmt 1 view .LVU393
 143:Generated_Source\PSoC4/I2C_I2C_MASTER.c **** 
 1434              		.loc 1 143 33 is_stmt 0 view .LVU394
 1435 005e F2B2     		uxtb	r2, r6
 143:Generated_Source\PSoC4/I2C_I2C_MASTER.c **** 
 1436              		.loc 1 143 31 view .LVU395
 1437 0060 1A4B     		ldr	r3, .L99+28
 1438 0062 1A70     		strb	r2, [r3]
 145:Generated_Source\PSoC4/I2C_I2C_MASTER.c **** 
 1439              		.loc 1 145 9 is_stmt 1 view .LVU396
 145:Generated_Source\PSoC4/I2C_I2C_MASTER.c **** 
 1440              		.loc 1 145 24 is_stmt 0 view .LVU397
 1441 0064 6D00     		lsls	r5, r5, #1
 1442              	.LVL132:
 145:Generated_Source\PSoC4/I2C_I2C_MASTER.c **** 
 1443              		.loc 1 145 22 view .LVU398
 1444 0066 FF23     		movs	r3, #255
 1445 0068 1D40     		ands	r5, r3
 1446              	.LVL133:
 147:Generated_Source\PSoC4/I2C_I2C_MASTER.c **** 
 1447              		.loc 1 147 9 is_stmt 1 view .LVU399
 147:Generated_Source\PSoC4/I2C_I2C_MASTER.c **** 
 1448              		.loc 1 147 24 is_stmt 0 view .LVU400
 1449 006a 134A     		ldr	r2, .L99+8
 1450 006c 1388     		ldrh	r3, [r2]
 1451 006e 0221     		movs	r1, #2
 1452 0070 8B43     		bics	r3, r1
 1453 0072 1380     		strh	r3, [r2]
 149:Generated_Source\PSoC4/I2C_I2C_MASTER.c ****         I2C_ClearMasterInterruptSource(I2C_INTR_MASTER_ALL);
 1454              		.loc 1 149 9 is_stmt 1 view .LVU401
 149:Generated_Source\PSoC4/I2C_I2C_MASTER.c ****         I2C_ClearMasterInterruptSource(I2C_INTR_MASTER_ALL);
 1455              		.loc 1 149 9 view .LVU402
 1456 0074 4023     		movs	r3, #64
 1457 0076 164A     		ldr	r2, .L99+32
 1458 0078 1360     		str	r3, [r2]
 150:Generated_Source\PSoC4/I2C_I2C_MASTER.c ****         I2C_SetMasterInterruptMode    (I2C_I2C_INTR_MASTER_MASK);
 1459              		.loc 1 150 9 view .LVU403
 150:Generated_Source\PSoC4/I2C_I2C_MASTER.c ****         I2C_SetMasterInterruptMode    (I2C_I2C_INTR_MASTER_MASK);
 1460              		.loc 1 150 9 view .LVU404
 1461 007a 164A     		ldr	r2, .L99+36
 1462 007c 1649     		ldr	r1, .L99+40
ARM GAS  C:\Users\EDULU~1.DES\AppData\Local\Temp\ccOPPFV9.s 			page 54


 1463 007e 1160     		str	r1, [r2]
 151:Generated_Source\PSoC4/I2C_I2C_MASTER.c **** 
 1464              		.loc 1 151 9 view .LVU405
 151:Generated_Source\PSoC4/I2C_I2C_MASTER.c **** 
 1465              		.loc 1 151 9 view .LVU406
 1466 0080 164A     		ldr	r2, .L99+44
 1467 0082 1421     		movs	r1, #20
 1468 0084 FF31     		adds	r1, r1, #255
 1469 0086 1160     		str	r1, [r2]
 156:Generated_Source\PSoC4/I2C_I2C_MASTER.c **** 
 1470              		.loc 1 156 9 view .LVU407
 156:Generated_Source\PSoC4/I2C_I2C_MASTER.c **** 
 1471              		.loc 1 156 9 view .LVU408
 1472 0088 154A     		ldr	r2, .L99+48
 1473 008a 1360     		str	r3, [r2]
 159:Generated_Source\PSoC4/I2C_I2C_MASTER.c ****         {
 1474              		.loc 1 159 9 view .LVU409
 159:Generated_Source\PSoC4/I2C_I2C_MASTER.c ****         {
 1475              		.loc 1 159 11 is_stmt 0 view .LVU410
 1476 008c F307     		lsls	r3, r6, #31
 1477 008e 06D4     		bmi	.L98
 166:Generated_Source\PSoC4/I2C_I2C_MASTER.c ****             I2C_I2C_MASTER_GENERATE_START;
 1478              		.loc 1 166 13 is_stmt 1 view .LVU411
 166:Generated_Source\PSoC4/I2C_I2C_MASTER.c ****             I2C_I2C_MASTER_GENERATE_START;
 1479              		.loc 1 166 32 is_stmt 0 view .LVU412
 1480 0090 144B     		ldr	r3, .L99+52
 1481 0092 1D60     		str	r5, [r3]
 167:Generated_Source\PSoC4/I2C_I2C_MASTER.c ****         }
 1482              		.loc 1 167 13 is_stmt 1 view .LVU413
 167:Generated_Source\PSoC4/I2C_I2C_MASTER.c ****         }
 1483              		.loc 1 167 13 view .LVU414
 1484 0094 144B     		ldr	r3, .L99+56
 1485 0096 0222     		movs	r2, #2
 1486 0098 1A60     		str	r2, [r3]
 1487 009a 0024     		movs	r4, #0
 1488              	.LVL134:
 167:Generated_Source\PSoC4/I2C_I2C_MASTER.c ****         }
 1489              		.loc 1 167 13 is_stmt 0 view .LVU415
 1490 009c C0E7     		b	.L89
 1491              	.LVL135:
 1492              	.L98:
 161:Generated_Source\PSoC4/I2C_I2C_MASTER.c ****             I2C_TX_FIFO_WR_REG = slaveAddress;
 1493              		.loc 1 161 13 is_stmt 1 view .LVU416
 1494 009e FFF7FEFF 		bl	I2C_I2CReStartGeneration
 1495              	.LVL136:
 162:Generated_Source\PSoC4/I2C_I2C_MASTER.c ****         }
 1496              		.loc 1 162 13 view .LVU417
 162:Generated_Source\PSoC4/I2C_I2C_MASTER.c ****         }
 1497              		.loc 1 162 32 is_stmt 0 view .LVU418
 1498 00a2 104B     		ldr	r3, .L99+52
 1499 00a4 1D60     		str	r5, [r3]
 1500 00a6 0024     		movs	r4, #0
 1501              	.LVL137:
 162:Generated_Source\PSoC4/I2C_I2C_MASTER.c ****         }
 1502              		.loc 1 162 32 view .LVU419
 1503 00a8 BAE7     		b	.L89
 1504              	.LVL138:
ARM GAS  C:\Users\EDULU~1.DES\AppData\Local\Temp\ccOPPFV9.s 			page 55


 1505              	.L93:
 107:Generated_Source\PSoC4/I2C_I2C_MASTER.c **** 
 1506              		.loc 1 107 15 view .LVU420
 1507 00aa 0424     		movs	r4, #4
 1508 00ac B8E7     		b	.L89
 1509              	.L100:
 1510 00ae C046     		.align	2
 1511              	.L99:
 1512 00b0 00000000 		.word	I2C_state
 1513 00b4 64000640 		.word	1074135140
 1514 00b8 00000000 		.word	I2C_mstrStatus
 1515 00bc 00000000 		.word	I2C_mstrWrBufIndexTmp
 1516 00c0 00000000 		.word	I2C_mstrWrBufIndex
 1517 00c4 00000000 		.word	I2C_mstrWrBufSize
 1518 00c8 00000000 		.word	I2C_mstrWrBufPtr
 1519 00cc 00000000 		.word	I2C_mstrControl
 1520 00d0 800F0640 		.word	1074139008
 1521 00d4 000F0640 		.word	1074138880
 1522 00d8 17030000 		.word	791
 1523 00dc 080F0640 		.word	1074138888
 1524 00e0 880F0640 		.word	1074139016
 1525 00e4 40020640 		.word	1074135616
 1526 00e8 68000640 		.word	1074135144
 1527              		.cfi_endproc
 1528              	.LFE0:
 1529              		.size	I2C_I2CMasterWriteBuf, .-I2C_I2CMasterWriteBuf
 1530              		.section	.text.I2C_I2CMasterReadBuf,"ax",%progbits
 1531              		.align	1
 1532              		.global	I2C_I2CMasterReadBuf
 1533              		.syntax unified
 1534              		.code	16
 1535              		.thumb_func
 1536              		.fpu softvfp
 1537              		.type	I2C_I2CMasterReadBuf, %function
 1538              	I2C_I2CMasterReadBuf:
 1539              	.LVL139:
 1540              	.LFB1:
 214:Generated_Source\PSoC4/I2C_I2C_MASTER.c ****     uint32 errStatus;
 1541              		.loc 1 214 1 is_stmt 1 view -0
 1542              		.cfi_startproc
 1543              		@ args = 0, pretend = 0, frame = 0
 1544              		@ frame_needed = 0, uses_anonymous_args = 0
 214:Generated_Source\PSoC4/I2C_I2C_MASTER.c ****     uint32 errStatus;
 1545              		.loc 1 214 1 is_stmt 0 view .LVU422
 1546 0000 F8B5     		push	{r3, r4, r5, r6, r7, lr}
 1547              		.cfi_def_cfa_offset 24
 1548              		.cfi_offset 3, -24
 1549              		.cfi_offset 4, -20
 1550              		.cfi_offset 5, -16
 1551              		.cfi_offset 6, -12
 1552              		.cfi_offset 7, -8
 1553              		.cfi_offset 14, -4
 1554 0002 0600     		movs	r6, r0
 1555 0004 0D00     		movs	r5, r1
 1556 0006 1700     		movs	r7, r2
 1557 0008 1C00     		movs	r4, r3
 215:Generated_Source\PSoC4/I2C_I2C_MASTER.c **** 
ARM GAS  C:\Users\EDULU~1.DES\AppData\Local\Temp\ccOPPFV9.s 			page 56


 1558              		.loc 1 215 5 is_stmt 1 view .LVU423
 217:Generated_Source\PSoC4/I2C_I2C_MASTER.c **** 
 1559              		.loc 1 217 5 view .LVU424
 1560              	.LVL140:
 219:Generated_Source\PSoC4/I2C_I2C_MASTER.c ****     {
 1561              		.loc 1 219 5 view .LVU425
 219:Generated_Source\PSoC4/I2C_I2C_MASTER.c ****     {
 1562              		.loc 1 219 7 is_stmt 0 view .LVU426
 1563 000a 0029     		cmp	r1, #0
 1564 000c 58D0     		beq	.L108
 222:Generated_Source\PSoC4/I2C_I2C_MASTER.c ****         {
 1565              		.loc 1 222 9 is_stmt 1 view .LVU427
 222:Generated_Source\PSoC4/I2C_I2C_MASTER.c ****         {
 1566              		.loc 1 222 12 is_stmt 0 view .LVU428
 1567 000e 2D4B     		ldr	r3, .L114
 1568              	.LVL141:
 222:Generated_Source\PSoC4/I2C_I2C_MASTER.c ****         {
 1569              		.loc 1 222 12 view .LVU429
 1570 0010 1B78     		ldrb	r3, [r3]
 222:Generated_Source\PSoC4/I2C_I2C_MASTER.c ****         {
 1571              		.loc 1 222 11 view .LVU430
 1572 0012 102B     		cmp	r3, #16
 1573 0014 09D0     		beq	.L111
 230:Generated_Source\PSoC4/I2C_I2C_MASTER.c ****         {
 1574              		.loc 1 230 14 is_stmt 1 view .LVU431
 230:Generated_Source\PSoC4/I2C_I2C_MASTER.c ****         {
 1575              		.loc 1 230 17 is_stmt 0 view .LVU432
 1576 0016 2B4B     		ldr	r3, .L114
 1577 0018 1B78     		ldrb	r3, [r3]
 230:Generated_Source\PSoC4/I2C_I2C_MASTER.c ****         {
 1578              		.loc 1 230 16 view .LVU433
 1579 001a 602B     		cmp	r3, #96
 1580 001c 0ED0     		beq	.L112
 217:Generated_Source\PSoC4/I2C_I2C_MASTER.c **** 
 1581              		.loc 1 217 15 view .LVU434
 1582 001e 0424     		movs	r4, #4
 1583              	.LVL142:
 1584              	.L102:
 289:Generated_Source\PSoC4/I2C_I2C_MASTER.c **** 
 1585              		.loc 1 289 5 is_stmt 1 view .LVU435
 1586 0020 0A20     		movs	r0, #10
 1587 0022 FFF7FEFF 		bl	CyIntEnable
 1588              	.LVL143:
 291:Generated_Source\PSoC4/I2C_I2C_MASTER.c **** }
 1589              		.loc 1 291 5 view .LVU436
 292:Generated_Source\PSoC4/I2C_I2C_MASTER.c **** 
 1590              		.loc 1 292 1 is_stmt 0 view .LVU437
 1591 0026 2000     		movs	r0, r4
 1592              		@ sp needed
 1593              	.LVL144:
 292:Generated_Source\PSoC4/I2C_I2C_MASTER.c **** 
 1594              		.loc 1 292 1 view .LVU438
 1595 0028 F8BD     		pop	{r3, r4, r5, r6, r7, pc}
 1596              	.LVL145:
 1597              	.L111:
 224:Generated_Source\PSoC4/I2C_I2C_MASTER.c **** 
 1598              		.loc 1 224 13 is_stmt 1 view .LVU439
ARM GAS  C:\Users\EDULU~1.DES\AppData\Local\Temp\ccOPPFV9.s 			page 57


 1599 002a 0A20     		movs	r0, #10
 1600              	.LVL146:
 224:Generated_Source\PSoC4/I2C_I2C_MASTER.c **** 
 1601              		.loc 1 224 13 is_stmt 0 view .LVU440
 1602 002c FFF7FEFF 		bl	CyIntDisable
 1603              	.LVL147:
 227:Generated_Source\PSoC4/I2C_I2C_MASTER.c ****                             I2C_I2C_MSTR_BUS_BUSY : I2C_I2C_MSTR_NO_ERROR;
 1604              		.loc 1 227 13 is_stmt 1 view .LVU441
 227:Generated_Source\PSoC4/I2C_I2C_MASTER.c ****                             I2C_I2C_MSTR_BUS_BUSY : I2C_I2C_MSTR_NO_ERROR;
 1605              		.loc 1 227 25 is_stmt 0 view .LVU442
 1606 0030 254B     		ldr	r3, .L114+4
 1607 0032 1B68     		ldr	r3, [r3]
 228:Generated_Source\PSoC4/I2C_I2C_MASTER.c ****         }
 1608              		.loc 1 228 51 view .LVU443
 1609 0034 DB07     		lsls	r3, r3, #31
 1610 0036 06D5     		bpl	.L104
 1611 0038 0824     		movs	r4, #8
 1612              	.LVL148:
 228:Generated_Source\PSoC4/I2C_I2C_MASTER.c ****         }
 1613              		.loc 1 228 51 view .LVU444
 1614 003a F1E7     		b	.L102
 1615              	.LVL149:
 1616              	.L112:
 232:Generated_Source\PSoC4/I2C_I2C_MASTER.c ****                               errStatus  =  I2C_I2C_MSTR_NO_ERROR;
 1617              		.loc 1 232 13 is_stmt 1 view .LVU445
 232:Generated_Source\PSoC4/I2C_I2C_MASTER.c ****                               errStatus  =  I2C_I2C_MSTR_NO_ERROR;
 1618              		.loc 1 232 28 is_stmt 0 view .LVU446
 1619 003c 234A     		ldr	r2, .L114+8
 1620              	.LVL150:
 232:Generated_Source\PSoC4/I2C_I2C_MASTER.c ****                               errStatus  =  I2C_I2C_MSTR_NO_ERROR;
 1621              		.loc 1 232 28 view .LVU447
 1622 003e 1388     		ldrh	r3, [r2]
 1623 0040 0821     		movs	r1, #8
 1624              	.LVL151:
 232:Generated_Source\PSoC4/I2C_I2C_MASTER.c ****                               errStatus  =  I2C_I2C_MSTR_NO_ERROR;
 1625              		.loc 1 232 28 view .LVU448
 1626 0042 8B43     		bics	r3, r1
 1627 0044 1380     		strh	r3, [r2]
 233:Generated_Source\PSoC4/I2C_I2C_MASTER.c ****         }
 1628              		.loc 1 233 31 is_stmt 1 view .LVU449
 1629              	.LVL152:
 238:Generated_Source\PSoC4/I2C_I2C_MASTER.c ****     }
 1630              		.loc 1 238 9 view .LVU450
 242:Generated_Source\PSoC4/I2C_I2C_MASTER.c ****     {
 1631              		.loc 1 242 5 view .LVU451
 1632              	.L104:
 245:Generated_Source\PSoC4/I2C_I2C_MASTER.c **** 
 1633              		.loc 1 245 9 view .LVU452
 245:Generated_Source\PSoC4/I2C_I2C_MASTER.c **** 
 1634              		.loc 1 245 9 view .LVU453
 248:Generated_Source\PSoC4/I2C_I2C_MASTER.c ****         I2C_mstrRdBufIndex = 0u;
 1635              		.loc 1 248 9 view .LVU454
 248:Generated_Source\PSoC4/I2C_I2C_MASTER.c ****         I2C_mstrRdBufIndex = 0u;
 1636              		.loc 1 248 19 is_stmt 0 view .LVU455
 1637 0046 1F4B     		ldr	r3, .L114
 1638 0048 2922     		movs	r2, #41
 1639 004a 1A70     		strb	r2, [r3]
ARM GAS  C:\Users\EDULU~1.DES\AppData\Local\Temp\ccOPPFV9.s 			page 58


 249:Generated_Source\PSoC4/I2C_I2C_MASTER.c ****         I2C_mstrRdBufSize  = cnt;
 1640              		.loc 1 249 9 is_stmt 1 view .LVU456
 249:Generated_Source\PSoC4/I2C_I2C_MASTER.c ****         I2C_mstrRdBufSize  = cnt;
 1641              		.loc 1 249 28 is_stmt 0 view .LVU457
 1642 004c 204B     		ldr	r3, .L114+12
 1643 004e 0022     		movs	r2, #0
 1644 0050 1A60     		str	r2, [r3]
 250:Generated_Source\PSoC4/I2C_I2C_MASTER.c ****         I2C_mstrRdBufPtr   = (volatile uint8 *) rdData;
 1645              		.loc 1 250 9 is_stmt 1 view .LVU458
 250:Generated_Source\PSoC4/I2C_I2C_MASTER.c ****         I2C_mstrRdBufPtr   = (volatile uint8 *) rdData;
 1646              		.loc 1 250 28 is_stmt 0 view .LVU459
 1647 0052 204A     		ldr	r2, .L114+16
 1648 0054 1760     		str	r7, [r2]
 251:Generated_Source\PSoC4/I2C_I2C_MASTER.c ****         I2C_mstrControl    = (uint8) mode;
 1649              		.loc 1 251 9 is_stmt 1 view .LVU460
 251:Generated_Source\PSoC4/I2C_I2C_MASTER.c ****         I2C_mstrControl    = (uint8) mode;
 1650              		.loc 1 251 28 is_stmt 0 view .LVU461
 1651 0056 204B     		ldr	r3, .L114+20
 1652 0058 1D60     		str	r5, [r3]
 252:Generated_Source\PSoC4/I2C_I2C_MASTER.c **** 
 1653              		.loc 1 252 9 is_stmt 1 view .LVU462
 252:Generated_Source\PSoC4/I2C_I2C_MASTER.c **** 
 1654              		.loc 1 252 30 is_stmt 0 view .LVU463
 1655 005a E3B2     		uxtb	r3, r4
 252:Generated_Source\PSoC4/I2C_I2C_MASTER.c **** 
 1656              		.loc 1 252 28 view .LVU464
 1657 005c 1F49     		ldr	r1, .L114+24
 1658 005e 0B70     		strb	r3, [r1]
 254:Generated_Source\PSoC4/I2C_I2C_MASTER.c **** 
 1659              		.loc 1 254 9 is_stmt 1 view .LVU465
 254:Generated_Source\PSoC4/I2C_I2C_MASTER.c **** 
 1660              		.loc 1 254 25 is_stmt 0 view .LVU466
 1661 0060 7000     		lsls	r0, r6, #1
 1662 0062 FF23     		movs	r3, #255
 1663 0064 1840     		ands	r0, r3
 254:Generated_Source\PSoC4/I2C_I2C_MASTER.c **** 
 1664              		.loc 1 254 22 view .LVU467
 1665 0066 0126     		movs	r6, #1
 1666              	.LVL153:
 254:Generated_Source\PSoC4/I2C_I2C_MASTER.c **** 
 1667              		.loc 1 254 22 view .LVU468
 1668 0068 3043     		orrs	r0, r6
 1669 006a 0500     		movs	r5, r0
 1670              	.LVL154:
 256:Generated_Source\PSoC4/I2C_I2C_MASTER.c **** 
 1671              		.loc 1 256 9 is_stmt 1 view .LVU469
 256:Generated_Source\PSoC4/I2C_I2C_MASTER.c **** 
 1672              		.loc 1 256 24 is_stmt 0 view .LVU470
 1673 006c 1749     		ldr	r1, .L114+8
 1674 006e 0B88     		ldrh	r3, [r1]
 1675 0070 B343     		bics	r3, r6
 1676 0072 0B80     		strh	r3, [r1]
 258:Generated_Source\PSoC4/I2C_I2C_MASTER.c ****         I2C_SetMasterInterruptMode    (I2C_I2C_INTR_MASTER_MASK);
 1677              		.loc 1 258 9 is_stmt 1 view .LVU471
 258:Generated_Source\PSoC4/I2C_I2C_MASTER.c ****         I2C_SetMasterInterruptMode    (I2C_I2C_INTR_MASTER_MASK);
 1678              		.loc 1 258 9 view .LVU472
 1679 0074 1A4B     		ldr	r3, .L114+28
ARM GAS  C:\Users\EDULU~1.DES\AppData\Local\Temp\ccOPPFV9.s 			page 59


 1680 0076 1B49     		ldr	r1, .L114+32
 1681 0078 1960     		str	r1, [r3]
 1682              	.LVL155:
 259:Generated_Source\PSoC4/I2C_I2C_MASTER.c **** 
 1683              		.loc 1 259 9 view .LVU473
 259:Generated_Source\PSoC4/I2C_I2C_MASTER.c **** 
 1684              		.loc 1 259 9 view .LVU474
 1685 007a 1B4B     		ldr	r3, .L114+36
 1686 007c 1421     		movs	r1, #20
 1687 007e FF31     		adds	r1, r1, #255
 1688 0080 1960     		str	r1, [r3]
 264:Generated_Source\PSoC4/I2C_I2C_MASTER.c ****         {
 1689              		.loc 1 264 9 view .LVU475
 264:Generated_Source\PSoC4/I2C_I2C_MASTER.c ****         {
 1690              		.loc 1 264 30 is_stmt 0 view .LVU476
 1691 0082 1368     		ldr	r3, [r2]
 264:Generated_Source\PSoC4/I2C_I2C_MASTER.c ****         {
 1692              		.loc 1 264 11 view .LVU477
 1693 0084 072B     		cmp	r3, #7
 1694 0086 0BD8     		bhi	.L105
 267:Generated_Source\PSoC4/I2C_I2C_MASTER.c ****         }
 1695              		.loc 1 267 13 is_stmt 1 view .LVU478
 267:Generated_Source\PSoC4/I2C_I2C_MASTER.c ****         }
 1696              		.loc 1 267 13 view .LVU479
 1697 0088 184B     		ldr	r3, .L114+40
 1698 008a 0422     		movs	r2, #4
 1699 008c 1A60     		str	r2, [r3]
 1700              	.L106:
 277:Generated_Source\PSoC4/I2C_I2C_MASTER.c ****         {
 1701              		.loc 1 277 9 view .LVU480
 277:Generated_Source\PSoC4/I2C_I2C_MASTER.c ****         {
 1702              		.loc 1 277 11 is_stmt 0 view .LVU481
 1703 008e E307     		lsls	r3, r4, #31
 1704 0090 10D4     		bmi	.L113
 284:Generated_Source\PSoC4/I2C_I2C_MASTER.c ****             I2C_I2C_MASTER_GENERATE_START;
 1705              		.loc 1 284 13 is_stmt 1 view .LVU482
 284:Generated_Source\PSoC4/I2C_I2C_MASTER.c ****             I2C_I2C_MASTER_GENERATE_START;
 1706              		.loc 1 284 32 is_stmt 0 view .LVU483
 1707 0092 174B     		ldr	r3, .L114+44
 1708 0094 1D60     		str	r5, [r3]
 285:Generated_Source\PSoC4/I2C_I2C_MASTER.c ****         }
 1709              		.loc 1 285 13 is_stmt 1 view .LVU484
 285:Generated_Source\PSoC4/I2C_I2C_MASTER.c ****         }
 1710              		.loc 1 285 13 view .LVU485
 1711 0096 174B     		ldr	r3, .L114+48
 1712 0098 0222     		movs	r2, #2
 1713 009a 1A60     		str	r2, [r3]
 1714 009c 0024     		movs	r4, #0
 1715              	.LVL156:
 285:Generated_Source\PSoC4/I2C_I2C_MASTER.c ****         }
 1716              		.loc 1 285 13 is_stmt 0 view .LVU486
 1717 009e BFE7     		b	.L102
 1718              	.LVL157:
 1719              	.L105:
 272:Generated_Source\PSoC4/I2C_I2C_MASTER.c ****             I2C_SetRxInterruptMode(I2C_INTR_RX_FULL);
 1720              		.loc 1 272 13 is_stmt 1 view .LVU487
 272:Generated_Source\PSoC4/I2C_I2C_MASTER.c ****             I2C_SetRxInterruptMode(I2C_INTR_RX_FULL);
ARM GAS  C:\Users\EDULU~1.DES\AppData\Local\Temp\ccOPPFV9.s 			page 60


 1721              		.loc 1 272 13 view .LVU488
 1722 00a0 154A     		ldr	r2, .L114+52
 1723 00a2 1168     		ldr	r1, [r2]
 1724 00a4 8023     		movs	r3, #128
 1725 00a6 5B00     		lsls	r3, r3, #1
 1726 00a8 0B43     		orrs	r3, r1
 1727 00aa 1360     		str	r3, [r2]
 273:Generated_Source\PSoC4/I2C_I2C_MASTER.c ****         }
 1728              		.loc 1 273 13 view .LVU489
 273:Generated_Source\PSoC4/I2C_I2C_MASTER.c ****         }
 1729              		.loc 1 273 13 view .LVU490
 1730 00ac 0F4B     		ldr	r3, .L114+40
 1731 00ae 0822     		movs	r2, #8
 1732 00b0 1A60     		str	r2, [r3]
 1733 00b2 ECE7     		b	.L106
 1734              	.L113:
 279:Generated_Source\PSoC4/I2C_I2C_MASTER.c ****             I2C_TX_FIFO_WR_REG = slaveAddress;
 1735              		.loc 1 279 13 view .LVU491
 1736 00b4 FFF7FEFF 		bl	I2C_I2CReStartGeneration
 1737              	.LVL158:
 280:Generated_Source\PSoC4/I2C_I2C_MASTER.c ****         }
 1738              		.loc 1 280 13 view .LVU492
 280:Generated_Source\PSoC4/I2C_I2C_MASTER.c ****         }
 1739              		.loc 1 280 32 is_stmt 0 view .LVU493
 1740 00b8 0D4B     		ldr	r3, .L114+44
 1741 00ba 1D60     		str	r5, [r3]
 1742 00bc 0024     		movs	r4, #0
 1743              	.LVL159:
 280:Generated_Source\PSoC4/I2C_I2C_MASTER.c ****         }
 1744              		.loc 1 280 32 view .LVU494
 1745 00be AFE7     		b	.L102
 1746              	.LVL160:
 1747              	.L108:
 217:Generated_Source\PSoC4/I2C_I2C_MASTER.c **** 
 1748              		.loc 1 217 15 view .LVU495
 1749 00c0 0424     		movs	r4, #4
 1750 00c2 ADE7     		b	.L102
 1751              	.L115:
 1752              		.align	2
 1753              	.L114:
 1754 00c4 00000000 		.word	I2C_state
 1755 00c8 64000640 		.word	1074135140
 1756 00cc 00000000 		.word	I2C_mstrStatus
 1757 00d0 00000000 		.word	I2C_mstrRdBufIndex
 1758 00d4 00000000 		.word	I2C_mstrRdBufSize
 1759 00d8 00000000 		.word	I2C_mstrRdBufPtr
 1760 00dc 00000000 		.word	I2C_mstrControl
 1761 00e0 000F0640 		.word	1074138880
 1762 00e4 17030000 		.word	791
 1763 00e8 080F0640 		.word	1074138888
 1764 00ec C80F0640 		.word	1074139080
 1765 00f0 40020640 		.word	1074135616
 1766 00f4 68000640 		.word	1074135144
 1767 00f8 60000640 		.word	1074135136
 1768              		.cfi_endproc
 1769              	.LFE1:
 1770              		.size	I2C_I2CMasterReadBuf, .-I2C_I2CMasterReadBuf
ARM GAS  C:\Users\EDULU~1.DES\AppData\Local\Temp\ccOPPFV9.s 			page 61


 1771              		.section	.text.I2C_I2CMasterSendRestart,"ax",%progbits
 1772              		.align	1
 1773              		.global	I2C_I2CMasterSendRestart
 1774              		.syntax unified
 1775              		.code	16
 1776              		.thumb_func
 1777              		.fpu softvfp
 1778              		.type	I2C_I2CMasterSendRestart, %function
 1779              	I2C_I2CMasterSendRestart:
 1780              	.LVL161:
 1781              	.LFB3:
 445:Generated_Source\PSoC4/I2C_I2C_MASTER.c ****     uint32 errStatus = I2C_I2C_MSTR_NOT_READY;
 1782              		.loc 1 445 1 is_stmt 1 view -0
 1783              		.cfi_startproc
 1784              		@ args = 0, pretend = 0, frame = 8
 1785              		@ frame_needed = 0, uses_anonymous_args = 0
 445:Generated_Source\PSoC4/I2C_I2C_MASTER.c ****     uint32 errStatus = I2C_I2C_MSTR_NOT_READY;
 1786              		.loc 1 445 1 is_stmt 0 view .LVU497
 1787 0000 10B5     		push	{r4, lr}
 1788              		.cfi_def_cfa_offset 8
 1789              		.cfi_offset 4, -8
 1790              		.cfi_offset 14, -4
 1791 0002 82B0     		sub	sp, sp, #8
 1792              		.cfi_def_cfa_offset 16
 446:Generated_Source\PSoC4/I2C_I2C_MASTER.c **** 
 1793              		.loc 1 446 5 is_stmt 1 view .LVU498
 1794              	.LVL162:
 449:Generated_Source\PSoC4/I2C_I2C_MASTER.c ****     {
 1795              		.loc 1 449 5 view .LVU499
 449:Generated_Source\PSoC4/I2C_I2C_MASTER.c ****     {
 1796              		.loc 1 449 8 is_stmt 0 view .LVU500
 1797 0004 154B     		ldr	r3, .L122
 1798 0006 1B78     		ldrb	r3, [r3]
 449:Generated_Source\PSoC4/I2C_I2C_MASTER.c ****     {
 1799              		.loc 1 449 7 view .LVU501
 1800 0008 9B06     		lsls	r3, r3, #26
 1801 000a 25D5     		bpl	.L121
 1802              	.LBB8:
 451:Generated_Source\PSoC4/I2C_I2C_MASTER.c ****         uint32 timeout = I2C_I2C_CONVERT_TIMEOUT_TO_US(timeoutMs);
 1803              		.loc 1 451 9 is_stmt 1 view .LVU502
 452:Generated_Source\PSoC4/I2C_I2C_MASTER.c **** 
 1804              		.loc 1 452 9 view .LVU503
 452:Generated_Source\PSoC4/I2C_I2C_MASTER.c **** 
 1805              		.loc 1 452 26 is_stmt 0 view .LVU504
 1806 000c 5301     		lsls	r3, r2, #5
 1807 000e 9B1A     		subs	r3, r3, r2
 1808 0010 9B00     		lsls	r3, r3, #2
 1809 0012 9A18     		adds	r2, r3, r2
 1810              	.LVL163:
 452:Generated_Source\PSoC4/I2C_I2C_MASTER.c **** 
 1811              		.loc 1 452 26 view .LVU505
 1812 0014 D300     		lsls	r3, r2, #3
 452:Generated_Source\PSoC4/I2C_I2C_MASTER.c **** 
 1813              		.loc 1 452 16 view .LVU506
 1814 0016 0193     		str	r3, [sp, #4]
 454:Generated_Source\PSoC4/I2C_I2C_MASTER.c **** 
 1815              		.loc 1 454 9 is_stmt 1 view .LVU507
ARM GAS  C:\Users\EDULU~1.DES\AppData\Local\Temp\ccOPPFV9.s 			page 62


 454:Generated_Source\PSoC4/I2C_I2C_MASTER.c **** 
 1816              		.loc 1 454 24 is_stmt 0 view .LVU508
 1817 0018 4000     		lsls	r0, r0, #1
 1818              	.LVL164:
 454:Generated_Source\PSoC4/I2C_I2C_MASTER.c **** 
 1819              		.loc 1 454 22 view .LVU509
 1820 001a FF24     		movs	r4, #255
 1821 001c 0440     		ands	r4, r0
 1822              	.LVL165:
 456:Generated_Source\PSoC4/I2C_I2C_MASTER.c ****         {
 1823              		.loc 1 456 9 is_stmt 1 view .LVU510
 456:Generated_Source\PSoC4/I2C_I2C_MASTER.c ****         {
 1824              		.loc 1 456 11 is_stmt 0 view .LVU511
 1825 001e 0029     		cmp	r1, #0
 1826 0020 14D1     		bne	.L118
 458:Generated_Source\PSoC4/I2C_I2C_MASTER.c ****         }
 1827              		.loc 1 458 13 is_stmt 1 view .LVU512
 458:Generated_Source\PSoC4/I2C_I2C_MASTER.c ****         }
 1828              		.loc 1 458 23 is_stmt 0 view .LVU513
 1829 0022 0E4B     		ldr	r3, .L122
 1830 0024 2422     		movs	r2, #36
 1831 0026 1A70     		strb	r2, [r3]
 1832              	.L119:
 471:Generated_Source\PSoC4/I2C_I2C_MASTER.c ****         I2C_TX_FIFO_WR_REG = slaveAddress;
 1833              		.loc 1 471 9 is_stmt 1 view .LVU514
 1834 0028 FFF7FEFF 		bl	I2C_I2CReStartGeneration
 1835              	.LVL166:
 472:Generated_Source\PSoC4/I2C_I2C_MASTER.c **** 
 1836              		.loc 1 472 9 view .LVU515
 472:Generated_Source\PSoC4/I2C_I2C_MASTER.c **** 
 1837              		.loc 1 472 28 is_stmt 0 view .LVU516
 1838 002c 0C4B     		ldr	r3, .L122+4
 1839 002e 1C60     		str	r4, [r3]
 1840              	.LVL167:
 1841              	.L120:
 475:Generated_Source\PSoC4/I2C_I2C_MASTER.c ****         {
 1842              		.loc 1 475 9 is_stmt 1 discriminator 1 view .LVU517
 477:Generated_Source\PSoC4/I2C_I2C_MASTER.c ****             locStatus |= I2C_I2CMasterWaitOneUnit(&timeout);
 1843              		.loc 1 477 13 discriminator 1 view .LVU518
 477:Generated_Source\PSoC4/I2C_I2C_MASTER.c ****             locStatus |= I2C_I2CMasterWaitOneUnit(&timeout);
 1844              		.loc 1 477 26 is_stmt 0 discriminator 1 view .LVU519
 1845 0030 0C4B     		ldr	r3, .L122+8
 1846 0032 1868     		ldr	r0, [r3]
 477:Generated_Source\PSoC4/I2C_I2C_MASTER.c ****             locStatus |= I2C_I2CMasterWaitOneUnit(&timeout);
 1847              		.loc 1 477 24 discriminator 1 view .LVU520
 1848 0034 0824     		movs	r4, #8
 1849 0036 FF34     		adds	r4, r4, #255
 1850 0038 0440     		ands	r4, r0
 1851              	.LVL168:
 478:Generated_Source\PSoC4/I2C_I2C_MASTER.c ****         }
 1852              		.loc 1 478 13 is_stmt 1 discriminator 1 view .LVU521
 478:Generated_Source\PSoC4/I2C_I2C_MASTER.c ****         }
 1853              		.loc 1 478 26 is_stmt 0 discriminator 1 view .LVU522
 1854 003a 01A8     		add	r0, sp, #4
 1855 003c FFF7FEFF 		bl	I2C_I2CMasterWaitOneUnit
 1856              	.LVL169:
 478:Generated_Source\PSoC4/I2C_I2C_MASTER.c ****         }
ARM GAS  C:\Users\EDULU~1.DES\AppData\Local\Temp\ccOPPFV9.s 			page 63


 1857              		.loc 1 478 23 discriminator 1 view .LVU523
 1858 0040 2043     		orrs	r0, r4
 1859              	.LVL170:
 480:Generated_Source\PSoC4/I2C_I2C_MASTER.c **** 
 1860              		.loc 1 480 9 discriminator 1 view .LVU524
 1861 0042 F5D0     		beq	.L120
 484:Generated_Source\PSoC4/I2C_I2C_MASTER.c ****     }
 1862              		.loc 1 484 9 is_stmt 1 view .LVU525
 484:Generated_Source\PSoC4/I2C_I2C_MASTER.c ****     }
 1863              		.loc 1 484 21 is_stmt 0 view .LVU526
 1864 0044 FFF7FEFF 		bl	I2C_I2CMasterHandleStatus
 1865              	.LVL171:
 1866              	.L116:
 484:Generated_Source\PSoC4/I2C_I2C_MASTER.c ****     }
 1867              		.loc 1 484 21 view .LVU527
 1868              	.LBE8:
 488:Generated_Source\PSoC4/I2C_I2C_MASTER.c **** 
 1869              		.loc 1 488 1 view .LVU528
 1870 0048 02B0     		add	sp, sp, #8
 1871              		@ sp needed
 1872 004a 10BD     		pop	{r4, pc}
 1873              	.LVL172:
 1874              	.L118:
 1875              	.LBB9:
 462:Generated_Source\PSoC4/I2C_I2C_MASTER.c ****                       slaveAddress |= I2C_I2C_READ_FLAG;
 1876              		.loc 1 462 13 is_stmt 1 view .LVU529
 462:Generated_Source\PSoC4/I2C_I2C_MASTER.c ****                       slaveAddress |= I2C_I2C_READ_FLAG;
 1877              		.loc 1 462 24 is_stmt 0 view .LVU530
 1878 004c 034B     		ldr	r3, .L122
 1879 004e 2522     		movs	r2, #37
 1880 0050 1A70     		strb	r2, [r3]
 463:Generated_Source\PSoC4/I2C_I2C_MASTER.c ****         }
 1881              		.loc 1 463 23 is_stmt 1 view .LVU531
 463:Generated_Source\PSoC4/I2C_I2C_MASTER.c ****         }
 1882              		.loc 1 463 36 is_stmt 0 view .LVU532
 1883 0052 0123     		movs	r3, #1
 1884 0054 1C43     		orrs	r4, r3
 1885              	.LVL173:
 463:Generated_Source\PSoC4/I2C_I2C_MASTER.c ****         }
 1886              		.loc 1 463 36 view .LVU533
 1887 0056 E7E7     		b	.L119
 1888              	.LVL174:
 1889              	.L121:
 463:Generated_Source\PSoC4/I2C_I2C_MASTER.c ****         }
 1890              		.loc 1 463 36 view .LVU534
 1891              	.LBE9:
 446:Generated_Source\PSoC4/I2C_I2C_MASTER.c **** 
 1892              		.loc 1 446 12 view .LVU535
 1893 0058 0420     		movs	r0, #4
 1894              	.LVL175:
 487:Generated_Source\PSoC4/I2C_I2C_MASTER.c **** }
 1895              		.loc 1 487 5 is_stmt 1 view .LVU536
 487:Generated_Source\PSoC4/I2C_I2C_MASTER.c **** }
 1896              		.loc 1 487 11 is_stmt 0 view .LVU537
 1897 005a F5E7     		b	.L116
 1898              	.L123:
 1899              		.align	2
ARM GAS  C:\Users\EDULU~1.DES\AppData\Local\Temp\ccOPPFV9.s 			page 64


 1900              	.L122:
 1901 005c 00000000 		.word	I2C_state
 1902 0060 40020640 		.word	1074135616
 1903 0064 000F0640 		.word	1074138880
 1904              		.cfi_endproc
 1905              	.LFE3:
 1906              		.size	I2C_I2CMasterSendRestart, .-I2C_I2CMasterSendRestart
 1907              		.comm	I2C_mstrWrBufIndexTmp,4,4
 1908              		.comm	I2C_mstrWrBufIndex,4,4
 1909              		.comm	I2C_mstrWrBufSize,4,4
 1910              		.comm	I2C_mstrWrBufPtr,4,4
 1911              		.comm	I2C_mstrRdBufIndex,4,4
 1912              		.comm	I2C_mstrRdBufSize,4,4
 1913              		.comm	I2C_mstrRdBufPtr,4,4
 1914              		.comm	I2C_mstrControl,1,1
 1915              		.comm	I2C_mstrStatus,2,2
 1916              		.text
 1917              	.Letext0:
 1918              		.file 2 "Generated_Source\\PSoC4/cytypes.h"
 1919              		.file 3 "c:\\program files (x86)\\gnu tools arm embedded\\8 2018-q4-major\\arm-none-eabi\\include\
 1920              		.file 4 "c:\\program files (x86)\\gnu tools arm embedded\\8 2018-q4-major\\arm-none-eabi\\include\
 1921              		.file 5 "c:\\program files (x86)\\gnu tools arm embedded\\8 2018-q4-major\\lib\\gcc\\arm-none-eabi
 1922              		.file 6 "c:\\program files (x86)\\gnu tools arm embedded\\8 2018-q4-major\\arm-none-eabi\\include\
 1923              		.file 7 "c:\\program files (x86)\\gnu tools arm embedded\\8 2018-q4-major\\arm-none-eabi\\include\
 1924              		.file 8 "Generated_Source\\PSoC4/CyLib.h"
 1925              		.file 9 "Generated_Source\\PSoC4\\I2C.h"
 1926              		.file 10 "Generated_Source\\PSoC4\\I2C_PVT.h"
 1927              		.file 11 "Generated_Source\\PSoC4\\I2C_I2C_PVT.h"
 1928              		.file 12 "Generated_Source\\PSoC4\\I2C_sda.h"
 1929              		.file 13 "Generated_Source\\PSoC4\\I2C_scl.h"
 1930              		.section	.debug_info,"",%progbits
 1931              	.Ldebug_info0:
 1932 0000 C4130000 		.4byte	0x13c4
 1933 0004 0400     		.2byte	0x4
 1934 0006 00000000 		.4byte	.Ldebug_abbrev0
 1935 000a 04       		.byte	0x4
 1936 000b 01       		.uleb128 0x1
 1937 000c 84040000 		.4byte	.LASF191
 1938 0010 0C       		.byte	0xc
 1939 0011 C6010000 		.4byte	.LASF192
 1940 0015 04020000 		.4byte	.LASF193
 1941 0019 48000000 		.4byte	.Ldebug_ranges0+0x48
 1942 001d 00000000 		.4byte	0
 1943 0021 00000000 		.4byte	.Ldebug_line0
 1944 0025 02       		.uleb128 0x2
 1945 0026 01       		.byte	0x1
 1946 0027 06       		.byte	0x6
 1947 0028 64010000 		.4byte	.LASF0
 1948 002c 02       		.uleb128 0x2
 1949 002d 01       		.byte	0x1
 1950 002e 08       		.byte	0x8
 1951 002f 90060000 		.4byte	.LASF1
 1952 0033 02       		.uleb128 0x2
 1953 0034 02       		.byte	0x2
 1954 0035 05       		.byte	0x5
 1955 0036 AC060000 		.4byte	.LASF2
 1956 003a 02       		.uleb128 0x2
ARM GAS  C:\Users\EDULU~1.DES\AppData\Local\Temp\ccOPPFV9.s 			page 65


 1957 003b 02       		.byte	0x2
 1958 003c 07       		.byte	0x7
 1959 003d 10040000 		.4byte	.LASF3
 1960 0041 02       		.uleb128 0x2
 1961 0042 04       		.byte	0x4
 1962 0043 05       		.byte	0x5
 1963 0044 B0010000 		.4byte	.LASF4
 1964 0048 02       		.uleb128 0x2
 1965 0049 04       		.byte	0x4
 1966 004a 07       		.byte	0x7
 1967 004b D7030000 		.4byte	.LASF5
 1968 004f 02       		.uleb128 0x2
 1969 0050 08       		.byte	0x8
 1970 0051 05       		.byte	0x5
 1971 0052 56010000 		.4byte	.LASF6
 1972 0056 02       		.uleb128 0x2
 1973 0057 08       		.byte	0x8
 1974 0058 07       		.byte	0x7
 1975 0059 C3000000 		.4byte	.LASF7
 1976 005d 03       		.uleb128 0x3
 1977 005e 04       		.byte	0x4
 1978 005f 05       		.byte	0x5
 1979 0060 696E7400 		.ascii	"int\000"
 1980 0064 02       		.uleb128 0x2
 1981 0065 04       		.byte	0x4
 1982 0066 07       		.byte	0x7
 1983 0067 8B030000 		.4byte	.LASF8
 1984 006b 04       		.uleb128 0x4
 1985 006c 7B020000 		.4byte	.LASF9
 1986 0070 02       		.byte	0x2
 1987 0071 E401     		.2byte	0x1e4
 1988 0073 19       		.byte	0x19
 1989 0074 2C000000 		.4byte	0x2c
 1990 0078 05       		.uleb128 0x5
 1991 0079 6B000000 		.4byte	0x6b
 1992 007d 06       		.uleb128 0x6
 1993 007e 6B000000 		.4byte	0x6b
 1994 0082 04       		.uleb128 0x4
 1995 0083 0C000000 		.4byte	.LASF10
 1996 0087 02       		.byte	0x2
 1997 0088 E501     		.2byte	0x1e5
 1998 008a 19       		.byte	0x19
 1999 008b 3A000000 		.4byte	0x3a
 2000 008f 05       		.uleb128 0x5
 2001 0090 82000000 		.4byte	0x82
 2002 0094 06       		.uleb128 0x6
 2003 0095 82000000 		.4byte	0x82
 2004 0099 04       		.uleb128 0x4
 2005 009a F7020000 		.4byte	.LASF11
 2006 009e 02       		.byte	0x2
 2007 009f E601     		.2byte	0x1e6
 2008 00a1 19       		.byte	0x19
 2009 00a2 48000000 		.4byte	0x48
 2010 00a6 05       		.uleb128 0x5
 2011 00a7 99000000 		.4byte	0x99
 2012 00ab 02       		.uleb128 0x2
 2013 00ac 04       		.byte	0x4
ARM GAS  C:\Users\EDULU~1.DES\AppData\Local\Temp\ccOPPFV9.s 			page 66


 2014 00ad 04       		.byte	0x4
 2015 00ae 40060000 		.4byte	.LASF12
 2016 00b2 02       		.uleb128 0x2
 2017 00b3 08       		.byte	0x8
 2018 00b4 04       		.byte	0x4
 2019 00b5 9A020000 		.4byte	.LASF13
 2020 00b9 02       		.uleb128 0x2
 2021 00ba 01       		.byte	0x1
 2022 00bb 08       		.byte	0x8
 2023 00bc AC070000 		.4byte	.LASF14
 2024 00c0 06       		.uleb128 0x6
 2025 00c1 B9000000 		.4byte	0xb9
 2026 00c5 04       		.uleb128 0x4
 2027 00c6 6E050000 		.4byte	.LASF15
 2028 00ca 02       		.byte	0x2
 2029 00cb 9002     		.2byte	0x290
 2030 00cd 21       		.byte	0x21
 2031 00ce A6000000 		.4byte	0xa6
 2032 00d2 04       		.uleb128 0x4
 2033 00d3 B6070000 		.4byte	.LASF16
 2034 00d7 02       		.byte	0x2
 2035 00d8 A002     		.2byte	0x2a0
 2036 00da 15       		.byte	0x15
 2037 00db DF000000 		.4byte	0xdf
 2038 00df 07       		.uleb128 0x7
 2039 00e0 04       		.byte	0x4
 2040 00e1 E5000000 		.4byte	0xe5
 2041 00e5 08       		.uleb128 0x8
 2042 00e6 02       		.uleb128 0x2
 2043 00e7 08       		.byte	0x8
 2044 00e8 04       		.byte	0x4
 2045 00e9 CA050000 		.4byte	.LASF17
 2046 00ed 09       		.uleb128 0x9
 2047 00ee 75040000 		.4byte	.LASF18
 2048 00f2 03       		.byte	0x3
 2049 00f3 22       		.byte	0x22
 2050 00f4 19       		.byte	0x19
 2051 00f5 F9000000 		.4byte	0xf9
 2052 00f9 07       		.uleb128 0x7
 2053 00fa 04       		.byte	0x4
 2054 00fb FF000000 		.4byte	0xff
 2055 00ff 0A       		.uleb128 0xa
 2056 0100 6F070000 		.4byte	.LASF124
 2057 0104 09       		.uleb128 0x9
 2058 0105 2F060000 		.4byte	.LASF19
 2059 0109 04       		.byte	0x4
 2060 010a 2C       		.byte	0x2c
 2061 010b 0E       		.byte	0xe
 2062 010c 41000000 		.4byte	0x41
 2063 0110 09       		.uleb128 0x9
 2064 0111 90070000 		.4byte	.LASF20
 2065 0115 04       		.byte	0x4
 2066 0116 72       		.byte	0x72
 2067 0117 0E       		.byte	0xe
 2068 0118 41000000 		.4byte	0x41
 2069 011c 04       		.uleb128 0x4
 2070 011d 7D040000 		.4byte	.LASF21
ARM GAS  C:\Users\EDULU~1.DES\AppData\Local\Temp\ccOPPFV9.s 			page 67


 2071 0121 05       		.byte	0x5
 2072 0122 6501     		.2byte	0x165
 2073 0124 17       		.byte	0x17
 2074 0125 64000000 		.4byte	0x64
 2075 0129 0B       		.uleb128 0xb
 2076 012a 04       		.byte	0x4
 2077 012b 04       		.byte	0x4
 2078 012c A6       		.byte	0xa6
 2079 012d 03       		.byte	0x3
 2080 012e 4B010000 		.4byte	0x14b
 2081 0132 0C       		.uleb128 0xc
 2082 0133 6F040000 		.4byte	.LASF22
 2083 0137 04       		.byte	0x4
 2084 0138 A8       		.byte	0xa8
 2085 0139 0C       		.byte	0xc
 2086 013a 1C010000 		.4byte	0x11c
 2087 013e 0C       		.uleb128 0xc
 2088 013f 98030000 		.4byte	.LASF23
 2089 0143 04       		.byte	0x4
 2090 0144 A9       		.byte	0xa9
 2091 0145 13       		.byte	0x13
 2092 0146 4B010000 		.4byte	0x14b
 2093 014a 00       		.byte	0
 2094 014b 0D       		.uleb128 0xd
 2095 014c 2C000000 		.4byte	0x2c
 2096 0150 5B010000 		.4byte	0x15b
 2097 0154 0E       		.uleb128 0xe
 2098 0155 64000000 		.4byte	0x64
 2099 0159 03       		.byte	0x3
 2100 015a 00       		.byte	0
 2101 015b 0F       		.uleb128 0xf
 2102 015c 08       		.byte	0x8
 2103 015d 04       		.byte	0x4
 2104 015e A3       		.byte	0xa3
 2105 015f 09       		.byte	0x9
 2106 0160 7F010000 		.4byte	0x17f
 2107 0164 10       		.uleb128 0x10
 2108 0165 67070000 		.4byte	.LASF24
 2109 0169 04       		.byte	0x4
 2110 016a A5       		.byte	0xa5
 2111 016b 07       		.byte	0x7
 2112 016c 5D000000 		.4byte	0x5d
 2113 0170 00       		.byte	0
 2114 0171 10       		.uleb128 0x10
 2115 0172 76070000 		.4byte	.LASF25
 2116 0176 04       		.byte	0x4
 2117 0177 AA       		.byte	0xaa
 2118 0178 05       		.byte	0x5
 2119 0179 29010000 		.4byte	0x129
 2120 017d 04       		.byte	0x4
 2121 017e 00       		.byte	0
 2122 017f 09       		.uleb128 0x9
 2123 0180 E9060000 		.4byte	.LASF26
 2124 0184 04       		.byte	0x4
 2125 0185 AB       		.byte	0xab
 2126 0186 03       		.byte	0x3
 2127 0187 5B010000 		.4byte	0x15b
ARM GAS  C:\Users\EDULU~1.DES\AppData\Local\Temp\ccOPPFV9.s 			page 68


 2128 018b 09       		.uleb128 0x9
 2129 018c 2F030000 		.4byte	.LASF27
 2130 0190 04       		.byte	0x4
 2131 0191 AF       		.byte	0xaf
 2132 0192 1B       		.byte	0x1b
 2133 0193 ED000000 		.4byte	0xed
 2134 0197 11       		.uleb128 0x11
 2135 0198 04       		.byte	0x4
 2136 0199 07       		.uleb128 0x7
 2137 019a 04       		.byte	0x4
 2138 019b B9000000 		.4byte	0xb9
 2139 019f 09       		.uleb128 0x9
 2140 01a0 19080000 		.4byte	.LASF28
 2141 01a4 06       		.byte	0x6
 2142 01a5 16       		.byte	0x16
 2143 01a6 19       		.byte	0x19
 2144 01a7 48000000 		.4byte	0x48
 2145 01ab 12       		.uleb128 0x12
 2146 01ac 40030000 		.4byte	.LASF33
 2147 01b0 18       		.byte	0x18
 2148 01b1 06       		.byte	0x6
 2149 01b2 2F       		.byte	0x2f
 2150 01b3 08       		.byte	0x8
 2151 01b4 05020000 		.4byte	0x205
 2152 01b8 10       		.uleb128 0x10
 2153 01b9 E6070000 		.4byte	.LASF29
 2154 01bd 06       		.byte	0x6
 2155 01be 31       		.byte	0x31
 2156 01bf 13       		.byte	0x13
 2157 01c0 05020000 		.4byte	0x205
 2158 01c4 00       		.byte	0
 2159 01c5 13       		.uleb128 0x13
 2160 01c6 5F6B00   		.ascii	"_k\000"
 2161 01c9 06       		.byte	0x6
 2162 01ca 32       		.byte	0x32
 2163 01cb 07       		.byte	0x7
 2164 01cc 5D000000 		.4byte	0x5d
 2165 01d0 04       		.byte	0x4
 2166 01d1 10       		.uleb128 0x10
 2167 01d2 52070000 		.4byte	.LASF30
 2168 01d6 06       		.byte	0x6
 2169 01d7 32       		.byte	0x32
 2170 01d8 0B       		.byte	0xb
 2171 01d9 5D000000 		.4byte	0x5d
 2172 01dd 08       		.byte	0x8
 2173 01de 10       		.uleb128 0x10
 2174 01df 1C030000 		.4byte	.LASF31
 2175 01e3 06       		.byte	0x6
 2176 01e4 32       		.byte	0x32
 2177 01e5 14       		.byte	0x14
 2178 01e6 5D000000 		.4byte	0x5d
 2179 01ea 0C       		.byte	0xc
 2180 01eb 10       		.uleb128 0x10
 2181 01ec 9F080000 		.4byte	.LASF32
 2182 01f0 06       		.byte	0x6
 2183 01f1 32       		.byte	0x32
 2184 01f2 1B       		.byte	0x1b
ARM GAS  C:\Users\EDULU~1.DES\AppData\Local\Temp\ccOPPFV9.s 			page 69


 2185 01f3 5D000000 		.4byte	0x5d
 2186 01f7 10       		.byte	0x10
 2187 01f8 13       		.uleb128 0x13
 2188 01f9 5F7800   		.ascii	"_x\000"
 2189 01fc 06       		.byte	0x6
 2190 01fd 33       		.byte	0x33
 2191 01fe 0B       		.byte	0xb
 2192 01ff 0B020000 		.4byte	0x20b
 2193 0203 14       		.byte	0x14
 2194 0204 00       		.byte	0
 2195 0205 07       		.uleb128 0x7
 2196 0206 04       		.byte	0x4
 2197 0207 AB010000 		.4byte	0x1ab
 2198 020b 0D       		.uleb128 0xd
 2199 020c 9F010000 		.4byte	0x19f
 2200 0210 1B020000 		.4byte	0x21b
 2201 0214 0E       		.uleb128 0xe
 2202 0215 64000000 		.4byte	0x64
 2203 0219 00       		.byte	0
 2204 021a 00       		.byte	0
 2205 021b 12       		.uleb128 0x12
 2206 021c 86030000 		.4byte	.LASF34
 2207 0220 24       		.byte	0x24
 2208 0221 06       		.byte	0x6
 2209 0222 37       		.byte	0x37
 2210 0223 08       		.byte	0x8
 2211 0224 9E020000 		.4byte	0x29e
 2212 0228 10       		.uleb128 0x10
 2213 0229 4D010000 		.4byte	.LASF35
 2214 022d 06       		.byte	0x6
 2215 022e 39       		.byte	0x39
 2216 022f 09       		.byte	0x9
 2217 0230 5D000000 		.4byte	0x5d
 2218 0234 00       		.byte	0
 2219 0235 10       		.uleb128 0x10
 2220 0236 C3070000 		.4byte	.LASF36
 2221 023a 06       		.byte	0x6
 2222 023b 3A       		.byte	0x3a
 2223 023c 09       		.byte	0x9
 2224 023d 5D000000 		.4byte	0x5d
 2225 0241 04       		.byte	0x4
 2226 0242 10       		.uleb128 0x10
 2227 0243 83010000 		.4byte	.LASF37
 2228 0247 06       		.byte	0x6
 2229 0248 3B       		.byte	0x3b
 2230 0249 09       		.byte	0x9
 2231 024a 5D000000 		.4byte	0x5d
 2232 024e 08       		.byte	0x8
 2233 024f 10       		.uleb128 0x10
 2234 0250 B4090000 		.4byte	.LASF38
 2235 0254 06       		.byte	0x6
 2236 0255 3C       		.byte	0x3c
 2237 0256 09       		.byte	0x9
 2238 0257 5D000000 		.4byte	0x5d
 2239 025b 0C       		.byte	0xc
 2240 025c 10       		.uleb128 0x10
 2241 025d 13060000 		.4byte	.LASF39
ARM GAS  C:\Users\EDULU~1.DES\AppData\Local\Temp\ccOPPFV9.s 			page 70


 2242 0261 06       		.byte	0x6
 2243 0262 3D       		.byte	0x3d
 2244 0263 09       		.byte	0x9
 2245 0264 5D000000 		.4byte	0x5d
 2246 0268 10       		.byte	0x10
 2247 0269 10       		.uleb128 0x10
 2248 026a 74050000 		.4byte	.LASF40
 2249 026e 06       		.byte	0x6
 2250 026f 3E       		.byte	0x3e
 2251 0270 09       		.byte	0x9
 2252 0271 5D000000 		.4byte	0x5d
 2253 0275 14       		.byte	0x14
 2254 0276 10       		.uleb128 0x10
 2255 0277 A4080000 		.4byte	.LASF41
 2256 027b 06       		.byte	0x6
 2257 027c 3F       		.byte	0x3f
 2258 027d 09       		.byte	0x9
 2259 027e 5D000000 		.4byte	0x5d
 2260 0282 18       		.byte	0x18
 2261 0283 10       		.uleb128 0x10
 2262 0284 B6060000 		.4byte	.LASF42
 2263 0288 06       		.byte	0x6
 2264 0289 40       		.byte	0x40
 2265 028a 09       		.byte	0x9
 2266 028b 5D000000 		.4byte	0x5d
 2267 028f 1C       		.byte	0x1c
 2268 0290 10       		.uleb128 0x10
 2269 0291 27090000 		.4byte	.LASF43
 2270 0295 06       		.byte	0x6
 2271 0296 41       		.byte	0x41
 2272 0297 09       		.byte	0x9
 2273 0298 5D000000 		.4byte	0x5d
 2274 029c 20       		.byte	0x20
 2275 029d 00       		.byte	0
 2276 029e 14       		.uleb128 0x14
 2277 029f 92010000 		.4byte	.LASF44
 2278 02a3 0801     		.2byte	0x108
 2279 02a5 06       		.byte	0x6
 2280 02a6 4A       		.byte	0x4a
 2281 02a7 08       		.byte	0x8
 2282 02a8 E3020000 		.4byte	0x2e3
 2283 02ac 10       		.uleb128 0x10
 2284 02ad 25000000 		.4byte	.LASF45
 2285 02b1 06       		.byte	0x6
 2286 02b2 4B       		.byte	0x4b
 2287 02b3 0A       		.byte	0xa
 2288 02b4 E3020000 		.4byte	0x2e3
 2289 02b8 00       		.byte	0
 2290 02b9 10       		.uleb128 0x10
 2291 02ba 00000000 		.4byte	.LASF46
 2292 02be 06       		.byte	0x6
 2293 02bf 4C       		.byte	0x4c
 2294 02c0 09       		.byte	0x9
 2295 02c1 E3020000 		.4byte	0x2e3
 2296 02c5 80       		.byte	0x80
 2297 02c6 15       		.uleb128 0x15
 2298 02c7 F9070000 		.4byte	.LASF47
ARM GAS  C:\Users\EDULU~1.DES\AppData\Local\Temp\ccOPPFV9.s 			page 71


 2299 02cb 06       		.byte	0x6
 2300 02cc 4E       		.byte	0x4e
 2301 02cd 0A       		.byte	0xa
 2302 02ce 9F010000 		.4byte	0x19f
 2303 02d2 0001     		.2byte	0x100
 2304 02d4 15       		.uleb128 0x15
 2305 02d5 F5010000 		.4byte	.LASF48
 2306 02d9 06       		.byte	0x6
 2307 02da 51       		.byte	0x51
 2308 02db 0A       		.byte	0xa
 2309 02dc 9F010000 		.4byte	0x19f
 2310 02e0 0401     		.2byte	0x104
 2311 02e2 00       		.byte	0
 2312 02e3 0D       		.uleb128 0xd
 2313 02e4 97010000 		.4byte	0x197
 2314 02e8 F3020000 		.4byte	0x2f3
 2315 02ec 0E       		.uleb128 0xe
 2316 02ed 64000000 		.4byte	0x64
 2317 02f1 1F       		.byte	0x1f
 2318 02f2 00       		.byte	0
 2319 02f3 14       		.uleb128 0x14
 2320 02f4 1C060000 		.4byte	.LASF49
 2321 02f8 9001     		.2byte	0x190
 2322 02fa 06       		.byte	0x6
 2323 02fb 5D       		.byte	0x5d
 2324 02fc 08       		.byte	0x8
 2325 02fd 36030000 		.4byte	0x336
 2326 0301 10       		.uleb128 0x10
 2327 0302 E6070000 		.4byte	.LASF29
 2328 0306 06       		.byte	0x6
 2329 0307 5E       		.byte	0x5e
 2330 0308 12       		.byte	0x12
 2331 0309 36030000 		.4byte	0x336
 2332 030d 00       		.byte	0
 2333 030e 10       		.uleb128 0x10
 2334 030f 22070000 		.4byte	.LASF50
 2335 0313 06       		.byte	0x6
 2336 0314 5F       		.byte	0x5f
 2337 0315 06       		.byte	0x6
 2338 0316 5D000000 		.4byte	0x5d
 2339 031a 04       		.byte	0x4
 2340 031b 10       		.uleb128 0x10
 2341 031c 17030000 		.4byte	.LASF51
 2342 0320 06       		.byte	0x6
 2343 0321 61       		.byte	0x61
 2344 0322 09       		.byte	0x9
 2345 0323 3C030000 		.4byte	0x33c
 2346 0327 08       		.byte	0x8
 2347 0328 10       		.uleb128 0x10
 2348 0329 92010000 		.4byte	.LASF44
 2349 032d 06       		.byte	0x6
 2350 032e 62       		.byte	0x62
 2351 032f 1E       		.byte	0x1e
 2352 0330 9E020000 		.4byte	0x29e
 2353 0334 88       		.byte	0x88
 2354 0335 00       		.byte	0
 2355 0336 07       		.uleb128 0x7
ARM GAS  C:\Users\EDULU~1.DES\AppData\Local\Temp\ccOPPFV9.s 			page 72


 2356 0337 04       		.byte	0x4
 2357 0338 F3020000 		.4byte	0x2f3
 2358 033c 0D       		.uleb128 0xd
 2359 033d DF000000 		.4byte	0xdf
 2360 0341 4C030000 		.4byte	0x34c
 2361 0345 0E       		.uleb128 0xe
 2362 0346 64000000 		.4byte	0x64
 2363 034a 1F       		.byte	0x1f
 2364 034b 00       		.byte	0
 2365 034c 12       		.uleb128 0x12
 2366 034d C0060000 		.4byte	.LASF52
 2367 0351 08       		.byte	0x8
 2368 0352 06       		.byte	0x6
 2369 0353 75       		.byte	0x75
 2370 0354 08       		.byte	0x8
 2371 0355 74030000 		.4byte	0x374
 2372 0359 10       		.uleb128 0x10
 2373 035a 7D010000 		.4byte	.LASF53
 2374 035e 06       		.byte	0x6
 2375 035f 76       		.byte	0x76
 2376 0360 11       		.byte	0x11
 2377 0361 74030000 		.4byte	0x374
 2378 0365 00       		.byte	0
 2379 0366 10       		.uleb128 0x10
 2380 0367 1F000000 		.4byte	.LASF54
 2381 036b 06       		.byte	0x6
 2382 036c 77       		.byte	0x77
 2383 036d 06       		.byte	0x6
 2384 036e 5D000000 		.4byte	0x5d
 2385 0372 04       		.byte	0x4
 2386 0373 00       		.byte	0
 2387 0374 07       		.uleb128 0x7
 2388 0375 04       		.byte	0x4
 2389 0376 2C000000 		.4byte	0x2c
 2390 037a 12       		.uleb128 0x12
 2391 037b F4060000 		.4byte	.LASF55
 2392 037f 68       		.byte	0x68
 2393 0380 06       		.byte	0x6
 2394 0381 B5       		.byte	0xb5
 2395 0382 08       		.byte	0x8
 2396 0383 BD040000 		.4byte	0x4bd
 2397 0387 13       		.uleb128 0x13
 2398 0388 5F7000   		.ascii	"_p\000"
 2399 038b 06       		.byte	0x6
 2400 038c B6       		.byte	0xb6
 2401 038d 12       		.byte	0x12
 2402 038e 74030000 		.4byte	0x374
 2403 0392 00       		.byte	0
 2404 0393 13       		.uleb128 0x13
 2405 0394 5F7200   		.ascii	"_r\000"
 2406 0397 06       		.byte	0x6
 2407 0398 B7       		.byte	0xb7
 2408 0399 07       		.byte	0x7
 2409 039a 5D000000 		.4byte	0x5d
 2410 039e 04       		.byte	0x4
 2411 039f 13       		.uleb128 0x13
 2412 03a0 5F7700   		.ascii	"_w\000"
ARM GAS  C:\Users\EDULU~1.DES\AppData\Local\Temp\ccOPPFV9.s 			page 73


 2413 03a3 06       		.byte	0x6
 2414 03a4 B8       		.byte	0xb8
 2415 03a5 07       		.byte	0x7
 2416 03a6 5D000000 		.4byte	0x5d
 2417 03aa 08       		.byte	0x8
 2418 03ab 10       		.uleb128 0x10
 2419 03ac EE010000 		.4byte	.LASF56
 2420 03b0 06       		.byte	0x6
 2421 03b1 B9       		.byte	0xb9
 2422 03b2 09       		.byte	0x9
 2423 03b3 33000000 		.4byte	0x33
 2424 03b7 0C       		.byte	0xc
 2425 03b8 10       		.uleb128 0x10
 2426 03b9 E9030000 		.4byte	.LASF57
 2427 03bd 06       		.byte	0x6
 2428 03be BA       		.byte	0xba
 2429 03bf 09       		.byte	0x9
 2430 03c0 33000000 		.4byte	0x33
 2431 03c4 0E       		.byte	0xe
 2432 03c5 13       		.uleb128 0x13
 2433 03c6 5F626600 		.ascii	"_bf\000"
 2434 03ca 06       		.byte	0x6
 2435 03cb BB       		.byte	0xbb
 2436 03cc 11       		.byte	0x11
 2437 03cd 4C030000 		.4byte	0x34c
 2438 03d1 10       		.byte	0x10
 2439 03d2 10       		.uleb128 0x10
 2440 03d3 DA000000 		.4byte	.LASF58
 2441 03d7 06       		.byte	0x6
 2442 03d8 BC       		.byte	0xbc
 2443 03d9 07       		.byte	0x7
 2444 03da 5D000000 		.4byte	0x5d
 2445 03de 18       		.byte	0x18
 2446 03df 10       		.uleb128 0x10
 2447 03e0 A0010000 		.4byte	.LASF59
 2448 03e4 06       		.byte	0x6
 2449 03e5 C3       		.byte	0xc3
 2450 03e6 0A       		.byte	0xa
 2451 03e7 97010000 		.4byte	0x197
 2452 03eb 1C       		.byte	0x1c
 2453 03ec 10       		.uleb128 0x10
 2454 03ed 76030000 		.4byte	.LASF60
 2455 03f1 06       		.byte	0x6
 2456 03f2 C5       		.byte	0xc5
 2457 03f3 1D       		.byte	0x1d
 2458 03f4 2F060000 		.4byte	0x62f
 2459 03f8 20       		.byte	0x20
 2460 03f9 10       		.uleb128 0x10
 2461 03fa 5E060000 		.4byte	.LASF61
 2462 03fe 06       		.byte	0x6
 2463 03ff C7       		.byte	0xc7
 2464 0400 1D       		.byte	0x1d
 2465 0401 59060000 		.4byte	0x659
 2466 0405 24       		.byte	0x24
 2467 0406 10       		.uleb128 0x10
 2468 0407 7E070000 		.4byte	.LASF62
 2469 040b 06       		.byte	0x6
ARM GAS  C:\Users\EDULU~1.DES\AppData\Local\Temp\ccOPPFV9.s 			page 74


 2470 040c CA       		.byte	0xca
 2471 040d 0D       		.byte	0xd
 2472 040e 7D060000 		.4byte	0x67d
 2473 0412 28       		.byte	0x28
 2474 0413 10       		.uleb128 0x10
 2475 0414 41090000 		.4byte	.LASF63
 2476 0418 06       		.byte	0x6
 2477 0419 CB       		.byte	0xcb
 2478 041a 09       		.byte	0x9
 2479 041b 97060000 		.4byte	0x697
 2480 041f 2C       		.byte	0x2c
 2481 0420 13       		.uleb128 0x13
 2482 0421 5F756200 		.ascii	"_ub\000"
 2483 0425 06       		.byte	0x6
 2484 0426 CE       		.byte	0xce
 2485 0427 11       		.byte	0x11
 2486 0428 4C030000 		.4byte	0x34c
 2487 042c 30       		.byte	0x30
 2488 042d 13       		.uleb128 0x13
 2489 042e 5F757000 		.ascii	"_up\000"
 2490 0432 06       		.byte	0x6
 2491 0433 CF       		.byte	0xcf
 2492 0434 12       		.byte	0x12
 2493 0435 74030000 		.4byte	0x374
 2494 0439 38       		.byte	0x38
 2495 043a 13       		.uleb128 0x13
 2496 043b 5F757200 		.ascii	"_ur\000"
 2497 043f 06       		.byte	0x6
 2498 0440 D0       		.byte	0xd0
 2499 0441 07       		.byte	0x7
 2500 0442 5D000000 		.4byte	0x5d
 2501 0446 3C       		.byte	0x3c
 2502 0447 10       		.uleb128 0x10
 2503 0448 77010000 		.4byte	.LASF64
 2504 044c 06       		.byte	0x6
 2505 044d D3       		.byte	0xd3
 2506 044e 11       		.byte	0x11
 2507 044f 9D060000 		.4byte	0x69d
 2508 0453 40       		.byte	0x40
 2509 0454 10       		.uleb128 0x10
 2510 0455 0E090000 		.4byte	.LASF65
 2511 0459 06       		.byte	0x6
 2512 045a D4       		.byte	0xd4
 2513 045b 11       		.byte	0x11
 2514 045c AD060000 		.4byte	0x6ad
 2515 0460 43       		.byte	0x43
 2516 0461 13       		.uleb128 0x13
 2517 0462 5F6C6200 		.ascii	"_lb\000"
 2518 0466 06       		.byte	0x6
 2519 0467 D7       		.byte	0xd7
 2520 0468 11       		.byte	0x11
 2521 0469 4C030000 		.4byte	0x34c
 2522 046d 44       		.byte	0x44
 2523 046e 10       		.uleb128 0x10
 2524 046f 72020000 		.4byte	.LASF66
 2525 0473 06       		.byte	0x6
 2526 0474 DA       		.byte	0xda
ARM GAS  C:\Users\EDULU~1.DES\AppData\Local\Temp\ccOPPFV9.s 			page 75


 2527 0475 07       		.byte	0x7
 2528 0476 5D000000 		.4byte	0x5d
 2529 047a 4C       		.byte	0x4c
 2530 047b 10       		.uleb128 0x10
 2531 047c A9020000 		.4byte	.LASF67
 2532 0480 06       		.byte	0x6
 2533 0481 DB       		.byte	0xdb
 2534 0482 0A       		.byte	0xa
 2535 0483 04010000 		.4byte	0x104
 2536 0487 50       		.byte	0x50
 2537 0488 10       		.uleb128 0x10
 2538 0489 7D000000 		.4byte	.LASF68
 2539 048d 06       		.byte	0x6
 2540 048e DE       		.byte	0xde
 2541 048f 12       		.byte	0x12
 2542 0490 DB040000 		.4byte	0x4db
 2543 0494 54       		.byte	0x54
 2544 0495 10       		.uleb128 0x10
 2545 0496 2A050000 		.4byte	.LASF69
 2546 049a 06       		.byte	0x6
 2547 049b E2       		.byte	0xe2
 2548 049c 0C       		.byte	0xc
 2549 049d 8B010000 		.4byte	0x18b
 2550 04a1 58       		.byte	0x58
 2551 04a2 10       		.uleb128 0x10
 2552 04a3 FC060000 		.4byte	.LASF70
 2553 04a7 06       		.byte	0x6
 2554 04a8 E4       		.byte	0xe4
 2555 04a9 0E       		.byte	0xe
 2556 04aa 7F010000 		.4byte	0x17f
 2557 04ae 5C       		.byte	0x5c
 2558 04af 10       		.uleb128 0x10
 2559 04b0 46050000 		.4byte	.LASF71
 2560 04b4 06       		.byte	0x6
 2561 04b5 E5       		.byte	0xe5
 2562 04b6 09       		.byte	0x9
 2563 04b7 5D000000 		.4byte	0x5d
 2564 04bb 64       		.byte	0x64
 2565 04bc 00       		.byte	0
 2566 04bd 16       		.uleb128 0x16
 2567 04be 5D000000 		.4byte	0x5d
 2568 04c2 DB040000 		.4byte	0x4db
 2569 04c6 17       		.uleb128 0x17
 2570 04c7 DB040000 		.4byte	0x4db
 2571 04cb 17       		.uleb128 0x17
 2572 04cc 97010000 		.4byte	0x197
 2573 04d0 17       		.uleb128 0x17
 2574 04d1 99010000 		.4byte	0x199
 2575 04d5 17       		.uleb128 0x17
 2576 04d6 5D000000 		.4byte	0x5d
 2577 04da 00       		.byte	0
 2578 04db 07       		.uleb128 0x7
 2579 04dc 04       		.byte	0x4
 2580 04dd E6040000 		.4byte	0x4e6
 2581 04e1 06       		.uleb128 0x6
 2582 04e2 DB040000 		.4byte	0x4db
 2583 04e6 18       		.uleb128 0x18
ARM GAS  C:\Users\EDULU~1.DES\AppData\Local\Temp\ccOPPFV9.s 			page 76


 2584 04e7 5A070000 		.4byte	.LASF72
 2585 04eb 2804     		.2byte	0x428
 2586 04ed 06       		.byte	0x6
 2587 04ee 6002     		.2byte	0x260
 2588 04f0 08       		.byte	0x8
 2589 04f1 2F060000 		.4byte	0x62f
 2590 04f5 19       		.uleb128 0x19
 2591 04f6 A5070000 		.4byte	.LASF73
 2592 04fa 06       		.byte	0x6
 2593 04fb 6202     		.2byte	0x262
 2594 04fd 07       		.byte	0x7
 2595 04fe 5D000000 		.4byte	0x5d
 2596 0502 00       		.byte	0
 2597 0503 19       		.uleb128 0x19
 2598 0504 FD010000 		.4byte	.LASF74
 2599 0508 06       		.byte	0x6
 2600 0509 6702     		.2byte	0x267
 2601 050b 0B       		.byte	0xb
 2602 050c 09070000 		.4byte	0x709
 2603 0510 04       		.byte	0x4
 2604 0511 19       		.uleb128 0x19
 2605 0512 9F030000 		.4byte	.LASF75
 2606 0516 06       		.byte	0x6
 2607 0517 6702     		.2byte	0x267
 2608 0519 14       		.byte	0x14
 2609 051a 09070000 		.4byte	0x709
 2610 051e 08       		.byte	0x8
 2611 051f 19       		.uleb128 0x19
 2612 0520 38030000 		.4byte	.LASF76
 2613 0524 06       		.byte	0x6
 2614 0525 6702     		.2byte	0x267
 2615 0527 1E       		.byte	0x1e
 2616 0528 09070000 		.4byte	0x709
 2617 052c 0C       		.byte	0xc
 2618 052d 19       		.uleb128 0x19
 2619 052e 1D070000 		.4byte	.LASF77
 2620 0532 06       		.byte	0x6
 2621 0533 6902     		.2byte	0x269
 2622 0535 08       		.byte	0x8
 2623 0536 5D000000 		.4byte	0x5d
 2624 053a 10       		.byte	0x10
 2625 053b 19       		.uleb128 0x19
 2626 053c 59000000 		.4byte	.LASF78
 2627 0540 06       		.byte	0x6
 2628 0541 6A02     		.2byte	0x26a
 2629 0543 08       		.byte	0x8
 2630 0544 09090000 		.4byte	0x909
 2631 0548 14       		.byte	0x14
 2632 0549 19       		.uleb128 0x19
 2633 054a 39070000 		.4byte	.LASF79
 2634 054e 06       		.byte	0x6
 2635 054f 6D02     		.2byte	0x26d
 2636 0551 07       		.byte	0x7
 2637 0552 5D000000 		.4byte	0x5d
 2638 0556 30       		.byte	0x30
 2639 0557 19       		.uleb128 0x19
 2640 0558 27070000 		.4byte	.LASF80
ARM GAS  C:\Users\EDULU~1.DES\AppData\Local\Temp\ccOPPFV9.s 			page 77


 2641 055c 06       		.byte	0x6
 2642 055d 6E02     		.2byte	0x26e
 2643 055f 16       		.byte	0x16
 2644 0560 1E090000 		.4byte	0x91e
 2645 0564 34       		.byte	0x34
 2646 0565 19       		.uleb128 0x19
 2647 0566 24060000 		.4byte	.LASF81
 2648 056a 06       		.byte	0x6
 2649 056b 7002     		.2byte	0x270
 2650 056d 07       		.byte	0x7
 2651 056e 5D000000 		.4byte	0x5d
 2652 0572 38       		.byte	0x38
 2653 0573 19       		.uleb128 0x19
 2654 0574 2F070000 		.4byte	.LASF82
 2655 0578 06       		.byte	0x6
 2656 0579 7202     		.2byte	0x272
 2657 057b 0A       		.byte	0xa
 2658 057c 2F090000 		.4byte	0x92f
 2659 0580 3C       		.byte	0x3c
 2660 0581 19       		.uleb128 0x19
 2661 0582 67040000 		.4byte	.LASF83
 2662 0586 06       		.byte	0x6
 2663 0587 7502     		.2byte	0x275
 2664 0589 13       		.byte	0x13
 2665 058a 05020000 		.4byte	0x205
 2666 058e 40       		.byte	0x40
 2667 058f 19       		.uleb128 0x19
 2668 0590 7C030000 		.4byte	.LASF84
 2669 0594 06       		.byte	0x6
 2670 0595 7602     		.2byte	0x276
 2671 0597 07       		.byte	0x7
 2672 0598 5D000000 		.4byte	0x5d
 2673 059c 44       		.byte	0x44
 2674 059d 19       		.uleb128 0x19
 2675 059e 5B090000 		.4byte	.LASF85
 2676 05a2 06       		.byte	0x6
 2677 05a3 7702     		.2byte	0x277
 2678 05a5 13       		.byte	0x13
 2679 05a6 05020000 		.4byte	0x205
 2680 05aa 48       		.byte	0x48
 2681 05ab 19       		.uleb128 0x19
 2682 05ac 46060000 		.4byte	.LASF86
 2683 05b0 06       		.byte	0x6
 2684 05b1 7802     		.2byte	0x278
 2685 05b3 14       		.byte	0x14
 2686 05b4 35090000 		.4byte	0x935
 2687 05b8 4C       		.byte	0x4c
 2688 05b9 19       		.uleb128 0x19
 2689 05ba A7030000 		.4byte	.LASF87
 2690 05be 06       		.byte	0x6
 2691 05bf 7B02     		.2byte	0x27b
 2692 05c1 07       		.byte	0x7
 2693 05c2 5D000000 		.4byte	0x5d
 2694 05c6 50       		.byte	0x50
 2695 05c7 19       		.uleb128 0x19
 2696 05c8 A1020000 		.4byte	.LASF88
 2697 05cc 06       		.byte	0x6
ARM GAS  C:\Users\EDULU~1.DES\AppData\Local\Temp\ccOPPFV9.s 			page 78


 2698 05cd 7C02     		.2byte	0x27c
 2699 05cf 09       		.byte	0x9
 2700 05d0 99010000 		.4byte	0x199
 2701 05d4 54       		.byte	0x54
 2702 05d5 19       		.uleb128 0x19
 2703 05d6 9E060000 		.4byte	.LASF89
 2704 05da 06       		.byte	0x6
 2705 05db 9F02     		.2byte	0x29f
 2706 05dd 07       		.byte	0x7
 2707 05de E4080000 		.4byte	0x8e4
 2708 05e2 58       		.byte	0x58
 2709 05e3 1A       		.uleb128 0x1a
 2710 05e4 1C060000 		.4byte	.LASF49
 2711 05e8 06       		.byte	0x6
 2712 05e9 A302     		.2byte	0x2a3
 2713 05eb 13       		.byte	0x13
 2714 05ec 36030000 		.4byte	0x336
 2715 05f0 4801     		.2byte	0x148
 2716 05f2 1A       		.uleb128 0x1a
 2717 05f3 3E040000 		.4byte	.LASF90
 2718 05f7 06       		.byte	0x6
 2719 05f8 A402     		.2byte	0x2a4
 2720 05fa 12       		.byte	0x12
 2721 05fb F3020000 		.4byte	0x2f3
 2722 05ff 4C01     		.2byte	0x14c
 2723 0601 1A       		.uleb128 0x1a
 2724 0602 DD080000 		.4byte	.LASF91
 2725 0606 06       		.byte	0x6
 2726 0607 A802     		.2byte	0x2a8
 2727 0609 0C       		.byte	0xc
 2728 060a 46090000 		.4byte	0x946
 2729 060e DC02     		.2byte	0x2dc
 2730 0610 1A       		.uleb128 0x1a
 2731 0611 A8010000 		.4byte	.LASF92
 2732 0615 06       		.byte	0x6
 2733 0616 AD02     		.2byte	0x2ad
 2734 0618 10       		.byte	0x10
 2735 0619 CA060000 		.4byte	0x6ca
 2736 061d E002     		.2byte	0x2e0
 2737 061f 1A       		.uleb128 0x1a
 2738 0620 8D010000 		.4byte	.LASF93
 2739 0624 06       		.byte	0x6
 2740 0625 AF02     		.2byte	0x2af
 2741 0627 0A       		.byte	0xa
 2742 0628 52090000 		.4byte	0x952
 2743 062c EC02     		.2byte	0x2ec
 2744 062e 00       		.byte	0
 2745 062f 07       		.uleb128 0x7
 2746 0630 04       		.byte	0x4
 2747 0631 BD040000 		.4byte	0x4bd
 2748 0635 16       		.uleb128 0x16
 2749 0636 5D000000 		.4byte	0x5d
 2750 063a 53060000 		.4byte	0x653
 2751 063e 17       		.uleb128 0x17
 2752 063f DB040000 		.4byte	0x4db
 2753 0643 17       		.uleb128 0x17
 2754 0644 97010000 		.4byte	0x197
ARM GAS  C:\Users\EDULU~1.DES\AppData\Local\Temp\ccOPPFV9.s 			page 79


 2755 0648 17       		.uleb128 0x17
 2756 0649 53060000 		.4byte	0x653
 2757 064d 17       		.uleb128 0x17
 2758 064e 5D000000 		.4byte	0x5d
 2759 0652 00       		.byte	0
 2760 0653 07       		.uleb128 0x7
 2761 0654 04       		.byte	0x4
 2762 0655 C0000000 		.4byte	0xc0
 2763 0659 07       		.uleb128 0x7
 2764 065a 04       		.byte	0x4
 2765 065b 35060000 		.4byte	0x635
 2766 065f 16       		.uleb128 0x16
 2767 0660 10010000 		.4byte	0x110
 2768 0664 7D060000 		.4byte	0x67d
 2769 0668 17       		.uleb128 0x17
 2770 0669 DB040000 		.4byte	0x4db
 2771 066d 17       		.uleb128 0x17
 2772 066e 97010000 		.4byte	0x197
 2773 0672 17       		.uleb128 0x17
 2774 0673 10010000 		.4byte	0x110
 2775 0677 17       		.uleb128 0x17
 2776 0678 5D000000 		.4byte	0x5d
 2777 067c 00       		.byte	0
 2778 067d 07       		.uleb128 0x7
 2779 067e 04       		.byte	0x4
 2780 067f 5F060000 		.4byte	0x65f
 2781 0683 16       		.uleb128 0x16
 2782 0684 5D000000 		.4byte	0x5d
 2783 0688 97060000 		.4byte	0x697
 2784 068c 17       		.uleb128 0x17
 2785 068d DB040000 		.4byte	0x4db
 2786 0691 17       		.uleb128 0x17
 2787 0692 97010000 		.4byte	0x197
 2788 0696 00       		.byte	0
 2789 0697 07       		.uleb128 0x7
 2790 0698 04       		.byte	0x4
 2791 0699 83060000 		.4byte	0x683
 2792 069d 0D       		.uleb128 0xd
 2793 069e 2C000000 		.4byte	0x2c
 2794 06a2 AD060000 		.4byte	0x6ad
 2795 06a6 0E       		.uleb128 0xe
 2796 06a7 64000000 		.4byte	0x64
 2797 06ab 02       		.byte	0x2
 2798 06ac 00       		.byte	0
 2799 06ad 0D       		.uleb128 0xd
 2800 06ae 2C000000 		.4byte	0x2c
 2801 06b2 BD060000 		.4byte	0x6bd
 2802 06b6 0E       		.uleb128 0xe
 2803 06b7 64000000 		.4byte	0x64
 2804 06bb 00       		.byte	0
 2805 06bc 00       		.byte	0
 2806 06bd 04       		.uleb128 0x4
 2807 06be E2060000 		.4byte	.LASF94
 2808 06c2 06       		.byte	0x6
 2809 06c3 1F01     		.2byte	0x11f
 2810 06c5 1A       		.byte	0x1a
 2811 06c6 7A030000 		.4byte	0x37a
ARM GAS  C:\Users\EDULU~1.DES\AppData\Local\Temp\ccOPPFV9.s 			page 80


 2812 06ca 1B       		.uleb128 0x1b
 2813 06cb AE080000 		.4byte	.LASF95
 2814 06cf 0C       		.byte	0xc
 2815 06d0 06       		.byte	0x6
 2816 06d1 2301     		.2byte	0x123
 2817 06d3 08       		.byte	0x8
 2818 06d4 03070000 		.4byte	0x703
 2819 06d8 19       		.uleb128 0x19
 2820 06d9 E6070000 		.4byte	.LASF29
 2821 06dd 06       		.byte	0x6
 2822 06de 2501     		.2byte	0x125
 2823 06e0 11       		.byte	0x11
 2824 06e1 03070000 		.4byte	0x703
 2825 06e5 00       		.byte	0
 2826 06e6 19       		.uleb128 0x19
 2827 06e7 09040000 		.4byte	.LASF96
 2828 06eb 06       		.byte	0x6
 2829 06ec 2601     		.2byte	0x126
 2830 06ee 07       		.byte	0x7
 2831 06ef 5D000000 		.4byte	0x5d
 2832 06f3 04       		.byte	0x4
 2833 06f4 19       		.uleb128 0x19
 2834 06f5 C7060000 		.4byte	.LASF97
 2835 06f9 06       		.byte	0x6
 2836 06fa 2701     		.2byte	0x127
 2837 06fc 0B       		.byte	0xb
 2838 06fd 09070000 		.4byte	0x709
 2839 0701 08       		.byte	0x8
 2840 0702 00       		.byte	0
 2841 0703 07       		.uleb128 0x7
 2842 0704 04       		.byte	0x4
 2843 0705 CA060000 		.4byte	0x6ca
 2844 0709 07       		.uleb128 0x7
 2845 070a 04       		.byte	0x4
 2846 070b BD060000 		.4byte	0x6bd
 2847 070f 1B       		.uleb128 0x1b
 2848 0710 35000000 		.4byte	.LASF98
 2849 0714 0E       		.byte	0xe
 2850 0715 06       		.byte	0x6
 2851 0716 3F01     		.2byte	0x13f
 2852 0718 08       		.byte	0x8
 2853 0719 48070000 		.4byte	0x748
 2854 071d 19       		.uleb128 0x19
 2855 071e 61070000 		.4byte	.LASF99
 2856 0722 06       		.byte	0x6
 2857 0723 4001     		.2byte	0x140
 2858 0725 12       		.byte	0x12
 2859 0726 48070000 		.4byte	0x748
 2860 072a 00       		.byte	0
 2861 072b 19       		.uleb128 0x19
 2862 072c E0070000 		.4byte	.LASF100
 2863 0730 06       		.byte	0x6
 2864 0731 4101     		.2byte	0x141
 2865 0733 12       		.byte	0x12
 2866 0734 48070000 		.4byte	0x748
 2867 0738 06       		.byte	0x6
 2868 0739 19       		.uleb128 0x19
ARM GAS  C:\Users\EDULU~1.DES\AppData\Local\Temp\ccOPPFV9.s 			page 81


 2869 073a 14080000 		.4byte	.LASF101
 2870 073e 06       		.byte	0x6
 2871 073f 4201     		.2byte	0x142
 2872 0741 12       		.byte	0x12
 2873 0742 3A000000 		.4byte	0x3a
 2874 0746 0C       		.byte	0xc
 2875 0747 00       		.byte	0
 2876 0748 0D       		.uleb128 0xd
 2877 0749 3A000000 		.4byte	0x3a
 2878 074d 58070000 		.4byte	0x758
 2879 0751 0E       		.uleb128 0xe
 2880 0752 64000000 		.4byte	0x64
 2881 0756 02       		.byte	0x2
 2882 0757 00       		.byte	0
 2883 0758 1C       		.uleb128 0x1c
 2884 0759 D0       		.byte	0xd0
 2885 075a 06       		.byte	0x6
 2886 075b 8002     		.2byte	0x280
 2887 075d 07       		.byte	0x7
 2888 075e 6D080000 		.4byte	0x86d
 2889 0762 19       		.uleb128 0x19
 2890 0763 6B080000 		.4byte	.LASF102
 2891 0767 06       		.byte	0x6
 2892 0768 8202     		.2byte	0x282
 2893 076a 18       		.byte	0x18
 2894 076b 64000000 		.4byte	0x64
 2895 076f 00       		.byte	0
 2896 0770 19       		.uleb128 0x19
 2897 0771 EC070000 		.4byte	.LASF103
 2898 0775 06       		.byte	0x6
 2899 0776 8302     		.2byte	0x283
 2900 0778 12       		.byte	0x12
 2901 0779 99010000 		.4byte	0x199
 2902 077d 04       		.byte	0x4
 2903 077e 19       		.uleb128 0x19
 2904 077f 53040000 		.4byte	.LASF104
 2905 0783 06       		.byte	0x6
 2906 0784 8402     		.2byte	0x284
 2907 0786 10       		.byte	0x10
 2908 0787 6D080000 		.4byte	0x86d
 2909 078b 08       		.byte	0x8
 2910 078c 19       		.uleb128 0x19
 2911 078d 32090000 		.4byte	.LASF105
 2912 0791 06       		.byte	0x6
 2913 0792 8502     		.2byte	0x285
 2914 0794 17       		.byte	0x17
 2915 0795 1B020000 		.4byte	0x21b
 2916 0799 24       		.byte	0x24
 2917 079a 19       		.uleb128 0x19
 2918 079b 48030000 		.4byte	.LASF106
 2919 079f 06       		.byte	0x6
 2920 07a0 8602     		.2byte	0x286
 2921 07a2 0F       		.byte	0xf
 2922 07a3 5D000000 		.4byte	0x5d
 2923 07a7 48       		.byte	0x48
 2924 07a8 19       		.uleb128 0x19
 2925 07a9 05070000 		.4byte	.LASF107
ARM GAS  C:\Users\EDULU~1.DES\AppData\Local\Temp\ccOPPFV9.s 			page 82


 2926 07ad 06       		.byte	0x6
 2927 07ae 8702     		.2byte	0x287
 2928 07b0 2C       		.byte	0x2c
 2929 07b1 56000000 		.4byte	0x56
 2930 07b5 50       		.byte	0x50
 2931 07b6 19       		.uleb128 0x19
 2932 07b7 48090000 		.4byte	.LASF108
 2933 07bb 06       		.byte	0x6
 2934 07bc 8802     		.2byte	0x288
 2935 07be 1A       		.byte	0x1a
 2936 07bf 0F070000 		.4byte	0x70f
 2937 07c3 58       		.byte	0x58
 2938 07c4 19       		.uleb128 0x19
 2939 07c5 10070000 		.4byte	.LASF109
 2940 07c9 06       		.byte	0x6
 2941 07ca 8902     		.2byte	0x289
 2942 07cc 16       		.byte	0x16
 2943 07cd 7F010000 		.4byte	0x17f
 2944 07d1 68       		.byte	0x68
 2945 07d2 19       		.uleb128 0x19
 2946 07d3 4D090000 		.4byte	.LASF110
 2947 07d7 06       		.byte	0x6
 2948 07d8 8A02     		.2byte	0x28a
 2949 07da 16       		.byte	0x16
 2950 07db 7F010000 		.4byte	0x17f
 2951 07df 70       		.byte	0x70
 2952 07e0 19       		.uleb128 0x19
 2953 07e1 50060000 		.4byte	.LASF111
 2954 07e5 06       		.byte	0x6
 2955 07e6 8B02     		.2byte	0x28b
 2956 07e8 16       		.byte	0x16
 2957 07e9 7F010000 		.4byte	0x17f
 2958 07ed 78       		.byte	0x78
 2959 07ee 19       		.uleb128 0x19
 2960 07ef D3080000 		.4byte	.LASF112
 2961 07f3 06       		.byte	0x6
 2962 07f4 8C02     		.2byte	0x28c
 2963 07f6 10       		.byte	0x10
 2964 07f7 7D080000 		.4byte	0x87d
 2965 07fb 80       		.byte	0x80
 2966 07fc 19       		.uleb128 0x19
 2967 07fd 47040000 		.4byte	.LASF113
 2968 0801 06       		.byte	0x6
 2969 0802 8D02     		.2byte	0x28d
 2970 0804 10       		.byte	0x10
 2971 0805 8D080000 		.4byte	0x88d
 2972 0809 88       		.byte	0x88
 2973 080a 19       		.uleb128 0x19
 2974 080b 21080000 		.4byte	.LASF114
 2975 080f 06       		.byte	0x6
 2976 0810 8E02     		.2byte	0x28e
 2977 0812 0F       		.byte	0xf
 2978 0813 5D000000 		.4byte	0x5d
 2979 0817 A0       		.byte	0xa0
 2980 0818 19       		.uleb128 0x19
 2981 0819 E9020000 		.4byte	.LASF115
 2982 081d 06       		.byte	0x6
ARM GAS  C:\Users\EDULU~1.DES\AppData\Local\Temp\ccOPPFV9.s 			page 83


 2983 081e 8F02     		.2byte	0x28f
 2984 0820 16       		.byte	0x16
 2985 0821 7F010000 		.4byte	0x17f
 2986 0825 A4       		.byte	0xa4
 2987 0826 19       		.uleb128 0x19
 2988 0827 19010000 		.4byte	.LASF116
 2989 082b 06       		.byte	0x6
 2990 082c 9002     		.2byte	0x290
 2991 082e 16       		.byte	0x16
 2992 082f 7F010000 		.4byte	0x17f
 2993 0833 AC       		.byte	0xac
 2994 0834 19       		.uleb128 0x19
 2995 0835 D8020000 		.4byte	.LASF117
 2996 0839 06       		.byte	0x6
 2997 083a 9102     		.2byte	0x291
 2998 083c 16       		.byte	0x16
 2999 083d 7F010000 		.4byte	0x17f
 3000 0841 B4       		.byte	0xb4
 3001 0842 19       		.uleb128 0x19
 3002 0843 90000000 		.4byte	.LASF118
 3003 0847 06       		.byte	0x6
 3004 0848 9202     		.2byte	0x292
 3005 084a 16       		.byte	0x16
 3006 084b 7F010000 		.4byte	0x17f
 3007 084f BC       		.byte	0xbc
 3008 0850 19       		.uleb128 0x19
 3009 0851 B2000000 		.4byte	.LASF119
 3010 0855 06       		.byte	0x6
 3011 0856 9302     		.2byte	0x293
 3012 0858 16       		.byte	0x16
 3013 0859 7F010000 		.4byte	0x17f
 3014 085d C4       		.byte	0xc4
 3015 085e 19       		.uleb128 0x19
 3016 085f A3060000 		.4byte	.LASF120
 3017 0863 06       		.byte	0x6
 3018 0864 9402     		.2byte	0x294
 3019 0866 08       		.byte	0x8
 3020 0867 5D000000 		.4byte	0x5d
 3021 086b CC       		.byte	0xcc
 3022 086c 00       		.byte	0
 3023 086d 0D       		.uleb128 0xd
 3024 086e B9000000 		.4byte	0xb9
 3025 0872 7D080000 		.4byte	0x87d
 3026 0876 0E       		.uleb128 0xe
 3027 0877 64000000 		.4byte	0x64
 3028 087b 19       		.byte	0x19
 3029 087c 00       		.byte	0
 3030 087d 0D       		.uleb128 0xd
 3031 087e B9000000 		.4byte	0xb9
 3032 0882 8D080000 		.4byte	0x88d
 3033 0886 0E       		.uleb128 0xe
 3034 0887 64000000 		.4byte	0x64
 3035 088b 07       		.byte	0x7
 3036 088c 00       		.byte	0
 3037 088d 0D       		.uleb128 0xd
 3038 088e B9000000 		.4byte	0xb9
 3039 0892 9D080000 		.4byte	0x89d
ARM GAS  C:\Users\EDULU~1.DES\AppData\Local\Temp\ccOPPFV9.s 			page 84


 3040 0896 0E       		.uleb128 0xe
 3041 0897 64000000 		.4byte	0x64
 3042 089b 17       		.byte	0x17
 3043 089c 00       		.byte	0
 3044 089d 1C       		.uleb128 0x1c
 3045 089e F0       		.byte	0xf0
 3046 089f 06       		.byte	0x6
 3047 08a0 9902     		.2byte	0x299
 3048 08a2 07       		.byte	0x7
 3049 08a3 C4080000 		.4byte	0x8c4
 3050 08a7 19       		.uleb128 0x19
 3051 08a8 FB050000 		.4byte	.LASF121
 3052 08ac 06       		.byte	0x6
 3053 08ad 9C02     		.2byte	0x29c
 3054 08af 1B       		.byte	0x1b
 3055 08b0 C4080000 		.4byte	0x8c4
 3056 08b4 00       		.byte	0
 3057 08b5 19       		.uleb128 0x19
 3058 08b6 CA080000 		.4byte	.LASF122
 3059 08ba 06       		.byte	0x6
 3060 08bb 9D02     		.2byte	0x29d
 3061 08bd 18       		.byte	0x18
 3062 08be D4080000 		.4byte	0x8d4
 3063 08c2 78       		.byte	0x78
 3064 08c3 00       		.byte	0
 3065 08c4 0D       		.uleb128 0xd
 3066 08c5 74030000 		.4byte	0x374
 3067 08c9 D4080000 		.4byte	0x8d4
 3068 08cd 0E       		.uleb128 0xe
 3069 08ce 64000000 		.4byte	0x64
 3070 08d2 1D       		.byte	0x1d
 3071 08d3 00       		.byte	0
 3072 08d4 0D       		.uleb128 0xd
 3073 08d5 64000000 		.4byte	0x64
 3074 08d9 E4080000 		.4byte	0x8e4
 3075 08dd 0E       		.uleb128 0xe
 3076 08de 64000000 		.4byte	0x64
 3077 08e2 1D       		.byte	0x1d
 3078 08e3 00       		.byte	0
 3079 08e4 1D       		.uleb128 0x1d
 3080 08e5 F0       		.byte	0xf0
 3081 08e6 06       		.byte	0x6
 3082 08e7 7E02     		.2byte	0x27e
 3083 08e9 03       		.byte	0x3
 3084 08ea 09090000 		.4byte	0x909
 3085 08ee 1E       		.uleb128 0x1e
 3086 08ef 5A070000 		.4byte	.LASF72
 3087 08f3 06       		.byte	0x6
 3088 08f4 9502     		.2byte	0x295
 3089 08f6 0B       		.byte	0xb
 3090 08f7 58070000 		.4byte	0x758
 3091 08fb 1E       		.uleb128 0x1e
 3092 08fc 14090000 		.4byte	.LASF123
 3093 0900 06       		.byte	0x6
 3094 0901 9E02     		.2byte	0x29e
 3095 0903 0B       		.byte	0xb
 3096 0904 9D080000 		.4byte	0x89d
ARM GAS  C:\Users\EDULU~1.DES\AppData\Local\Temp\ccOPPFV9.s 			page 85


 3097 0908 00       		.byte	0
 3098 0909 0D       		.uleb128 0xd
 3099 090a B9000000 		.4byte	0xb9
 3100 090e 19090000 		.4byte	0x919
 3101 0912 0E       		.uleb128 0xe
 3102 0913 64000000 		.4byte	0x64
 3103 0917 18       		.byte	0x18
 3104 0918 00       		.byte	0
 3105 0919 0A       		.uleb128 0xa
 3106 091a 0E010000 		.4byte	.LASF125
 3107 091e 07       		.uleb128 0x7
 3108 091f 04       		.byte	0x4
 3109 0920 19090000 		.4byte	0x919
 3110 0924 1F       		.uleb128 0x1f
 3111 0925 2F090000 		.4byte	0x92f
 3112 0929 17       		.uleb128 0x17
 3113 092a DB040000 		.4byte	0x4db
 3114 092e 00       		.byte	0
 3115 092f 07       		.uleb128 0x7
 3116 0930 04       		.byte	0x4
 3117 0931 24090000 		.4byte	0x924
 3118 0935 07       		.uleb128 0x7
 3119 0936 04       		.byte	0x4
 3120 0937 05020000 		.4byte	0x205
 3121 093b 1F       		.uleb128 0x1f
 3122 093c 46090000 		.4byte	0x946
 3123 0940 17       		.uleb128 0x17
 3124 0941 5D000000 		.4byte	0x5d
 3125 0945 00       		.byte	0
 3126 0946 07       		.uleb128 0x7
 3127 0947 04       		.byte	0x4
 3128 0948 4C090000 		.4byte	0x94c
 3129 094c 07       		.uleb128 0x7
 3130 094d 04       		.byte	0x4
 3131 094e 3B090000 		.4byte	0x93b
 3132 0952 0D       		.uleb128 0xd
 3133 0953 BD060000 		.4byte	0x6bd
 3134 0957 62090000 		.4byte	0x962
 3135 095b 0E       		.uleb128 0xe
 3136 095c 64000000 		.4byte	0x64
 3137 0960 02       		.byte	0x2
 3138 0961 00       		.byte	0
 3139 0962 20       		.uleb128 0x20
 3140 0963 84070000 		.4byte	.LASF126
 3141 0967 06       		.byte	0x6
 3142 0968 2E03     		.2byte	0x32e
 3143 096a 17       		.byte	0x17
 3144 096b DB040000 		.4byte	0x4db
 3145 096f 20       		.uleb128 0x20
 3146 0970 2E080000 		.4byte	.LASF127
 3147 0974 06       		.byte	0x6
 3148 0975 2F03     		.2byte	0x32f
 3149 0977 1D       		.byte	0x1d
 3150 0978 E1040000 		.4byte	0x4e1
 3151 097c 0D       		.uleb128 0xd
 3152 097d C0000000 		.4byte	0xc0
 3153 0981 87090000 		.4byte	0x987
ARM GAS  C:\Users\EDULU~1.DES\AppData\Local\Temp\ccOPPFV9.s 			page 86


 3154 0985 21       		.uleb128 0x21
 3155 0986 00       		.byte	0
 3156 0987 06       		.uleb128 0x6
 3157 0988 7C090000 		.4byte	0x97c
 3158 098c 22       		.uleb128 0x22
 3159 098d D8070000 		.4byte	.LASF128
 3160 0991 07       		.byte	0x7
 3161 0992 AE       		.byte	0xae
 3162 0993 1C       		.byte	0x1c
 3163 0994 87090000 		.4byte	0x987
 3164 0998 22       		.uleb128 0x22
 3165 0999 BC050000 		.4byte	.LASF129
 3166 099d 08       		.byte	0x8
 3167 099e D4       		.byte	0xd4
 3168 099f 0F       		.byte	0xf
 3169 09a0 99000000 		.4byte	0x99
 3170 09a4 22       		.uleb128 0x22
 3171 09a5 81020000 		.4byte	.LASF130
 3172 09a9 08       		.byte	0x8
 3173 09aa D5       		.byte	0xd5
 3174 09ab 0F       		.byte	0xf
 3175 09ac 99000000 		.4byte	0x99
 3176 09b0 22       		.uleb128 0x22
 3177 09b1 4B080000 		.4byte	.LASF131
 3178 09b5 08       		.byte	0x8
 3179 09b6 D6       		.byte	0xd6
 3180 09b7 0F       		.byte	0xf
 3181 09b8 6B000000 		.4byte	0x6b
 3182 09bc 22       		.uleb128 0x22
 3183 09bd 83000000 		.4byte	.LASF132
 3184 09c1 08       		.byte	0x8
 3185 09c2 D7       		.byte	0xd7
 3186 09c3 0F       		.byte	0xf
 3187 09c4 99000000 		.4byte	0x99
 3188 09c8 20       		.uleb128 0x20
 3189 09c9 FD000000 		.4byte	.LASF133
 3190 09cd 08       		.byte	0x8
 3191 09ce 0A01     		.2byte	0x10a
 3192 09d0 0F       		.byte	0xf
 3193 09d1 99000000 		.4byte	0x99
 3194 09d5 0D       		.uleb128 0xd
 3195 09d6 7D000000 		.4byte	0x7d
 3196 09da E5090000 		.4byte	0x9e5
 3197 09de 0E       		.uleb128 0xe
 3198 09df 64000000 		.4byte	0x64
 3199 09e3 2D       		.byte	0x2d
 3200 09e4 00       		.byte	0
 3201 09e5 06       		.uleb128 0x6
 3202 09e6 D5090000 		.4byte	0x9d5
 3203 09ea 20       		.uleb128 0x20
 3204 09eb 02060000 		.4byte	.LASF134
 3205 09ef 08       		.byte	0x8
 3206 09f0 2402     		.2byte	0x224
 3207 09f2 1C       		.byte	0x1c
 3208 09f3 E5090000 		.4byte	0x9e5
 3209 09f7 0F       		.uleb128 0xf
 3210 09f8 01       		.byte	0x1
ARM GAS  C:\Users\EDULU~1.DES\AppData\Local\Temp\ccOPPFV9.s 			page 87


 3211 09f9 09       		.byte	0x9
 3212 09fa 60       		.byte	0x60
 3213 09fb 09       		.byte	0x9
 3214 09fc 0E0A0000 		.4byte	0xa0e
 3215 0a00 10       		.uleb128 0x10
 3216 0a01 CC070000 		.4byte	.LASF135
 3217 0a05 09       		.byte	0x9
 3218 0a06 62       		.byte	0x62
 3219 0a07 0B       		.byte	0xb
 3220 0a08 6B000000 		.4byte	0x6b
 3221 0a0c 00       		.byte	0
 3222 0a0d 00       		.byte	0
 3223 0a0e 09       		.uleb128 0x9
 3224 0a0f 02080000 		.4byte	.LASF136
 3225 0a13 09       		.byte	0x9
 3226 0a14 63       		.byte	0x63
 3227 0a15 03       		.byte	0x3
 3228 0a16 F7090000 		.4byte	0x9f7
 3229 0a1a 20       		.uleb128 0x20
 3230 0a1b 13000000 		.4byte	.LASF137
 3231 0a1f 09       		.byte	0x9
 3232 0a20 B502     		.2byte	0x2b5
 3233 0a22 0E       		.byte	0xe
 3234 0a23 6B000000 		.4byte	0x6b
 3235 0a27 22       		.uleb128 0x22
 3236 0a28 7D090000 		.4byte	.LASF138
 3237 0a2c 0A       		.byte	0xa
 3238 0a2d 3B       		.byte	0x3b
 3239 0a2e 19       		.byte	0x19
 3240 0a2f D2000000 		.4byte	0xd2
 3241 0a33 22       		.uleb128 0x22
 3242 0a34 1C090000 		.4byte	.LASF139
 3243 0a38 0A       		.byte	0xa
 3244 0a39 3F       		.byte	0x3f
 3245 0a3a 1A       		.byte	0x1a
 3246 0a3b 0E0A0000 		.4byte	0xa0e
 3247 0a3f 22       		.uleb128 0x22
 3248 0a40 5A080000 		.4byte	.LASF140
 3249 0a44 0B       		.byte	0xb
 3250 0a45 1E       		.byte	0x1e
 3251 0a46 17       		.byte	0x17
 3252 0a47 78000000 		.4byte	0x78
 3253 0a4b 22       		.uleb128 0x22
 3254 0a4c 94050000 		.4byte	.LASF141
 3255 0a50 0B       		.byte	0xb
 3256 0a51 31       		.byte	0x31
 3257 0a52 1C       		.byte	0x1c
 3258 0a53 8F000000 		.4byte	0x8f
 3259 0a57 22       		.uleb128 0x22
 3260 0a58 FE080000 		.4byte	.LASF142
 3261 0a5c 0B       		.byte	0xb
 3262 0a5d 32       		.byte	0x32
 3263 0a5e 1C       		.byte	0x1c
 3264 0a5f 78000000 		.4byte	0x78
 3265 0a63 22       		.uleb128 0x22
 3266 0a64 AF030000 		.4byte	.LASF143
 3267 0a68 0B       		.byte	0xb
ARM GAS  C:\Users\EDULU~1.DES\AppData\Local\Temp\ccOPPFV9.s 			page 88


 3268 0a69 35       		.byte	0x35
 3269 0a6a 1D       		.byte	0x1d
 3270 0a6b 6F0A0000 		.4byte	0xa6f
 3271 0a6f 07       		.uleb128 0x7
 3272 0a70 04       		.byte	0x4
 3273 0a71 78000000 		.4byte	0x78
 3274 0a75 22       		.uleb128 0x22
 3275 0a76 6B000000 		.4byte	.LASF144
 3276 0a7a 0B       		.byte	0xb
 3277 0a7b 36       		.byte	0x36
 3278 0a7c 1D       		.byte	0x1d
 3279 0a7d A6000000 		.4byte	0xa6
 3280 0a81 22       		.uleb128 0x22
 3281 0a82 60090000 		.4byte	.LASF145
 3282 0a86 0B       		.byte	0xb
 3283 0a87 37       		.byte	0x37
 3284 0a88 1D       		.byte	0x1d
 3285 0a89 A6000000 		.4byte	0xa6
 3286 0a8d 22       		.uleb128 0x22
 3287 0a8e B1020000 		.4byte	.LASF146
 3288 0a92 0B       		.byte	0xb
 3289 0a93 3A       		.byte	0x3a
 3290 0a94 1D       		.byte	0x1d
 3291 0a95 6F0A0000 		.4byte	0xa6f
 3292 0a99 22       		.uleb128 0x22
 3293 0a9a 86080000 		.4byte	.LASF147
 3294 0a9e 0B       		.byte	0xb
 3295 0a9f 3B       		.byte	0x3b
 3296 0aa0 1D       		.byte	0x1d
 3297 0aa1 A6000000 		.4byte	0xa6
 3298 0aa5 22       		.uleb128 0x22
 3299 0aa6 9F000000 		.4byte	.LASF148
 3300 0aaa 0B       		.byte	0xb
 3301 0aab 3C       		.byte	0x3c
 3302 0aac 1D       		.byte	0x1d
 3303 0aad A6000000 		.4byte	0xa6
 3304 0ab1 22       		.uleb128 0x22
 3305 0ab2 7E050000 		.4byte	.LASF149
 3306 0ab6 0B       		.byte	0xb
 3307 0ab7 3D       		.byte	0x3d
 3308 0ab8 1D       		.byte	0x1d
 3309 0ab9 A6000000 		.4byte	0xa6
 3310 0abd 23       		.uleb128 0x23
 3311 0abe 4B0A0000 		.4byte	0xa4b
 3312 0ac2 01       		.byte	0x1
 3313 0ac3 1D       		.byte	0x1d
 3314 0ac4 11       		.byte	0x11
 3315 0ac5 05       		.uleb128 0x5
 3316 0ac6 03       		.byte	0x3
 3317 0ac7 00000000 		.4byte	I2C_mstrStatus
 3318 0acb 23       		.uleb128 0x23
 3319 0acc 570A0000 		.4byte	0xa57
 3320 0ad0 01       		.byte	0x1
 3321 0ad1 1E       		.byte	0x1e
 3322 0ad2 11       		.byte	0x11
 3323 0ad3 05       		.uleb128 0x5
 3324 0ad4 03       		.byte	0x3
ARM GAS  C:\Users\EDULU~1.DES\AppData\Local\Temp\ccOPPFV9.s 			page 89


 3325 0ad5 00000000 		.4byte	I2C_mstrControl
 3326 0ad9 23       		.uleb128 0x23
 3327 0ada 630A0000 		.4byte	0xa63
 3328 0ade 01       		.byte	0x1
 3329 0adf 21       		.byte	0x21
 3330 0ae0 12       		.byte	0x12
 3331 0ae1 05       		.uleb128 0x5
 3332 0ae2 03       		.byte	0x3
 3333 0ae3 00000000 		.4byte	I2C_mstrRdBufPtr
 3334 0ae7 23       		.uleb128 0x23
 3335 0ae8 750A0000 		.4byte	0xa75
 3336 0aec 01       		.byte	0x1
 3337 0aed 22       		.byte	0x22
 3338 0aee 12       		.byte	0x12
 3339 0aef 05       		.uleb128 0x5
 3340 0af0 03       		.byte	0x3
 3341 0af1 00000000 		.4byte	I2C_mstrRdBufSize
 3342 0af5 23       		.uleb128 0x23
 3343 0af6 810A0000 		.4byte	0xa81
 3344 0afa 01       		.byte	0x1
 3345 0afb 23       		.byte	0x23
 3346 0afc 12       		.byte	0x12
 3347 0afd 05       		.uleb128 0x5
 3348 0afe 03       		.byte	0x3
 3349 0aff 00000000 		.4byte	I2C_mstrRdBufIndex
 3350 0b03 23       		.uleb128 0x23
 3351 0b04 8D0A0000 		.4byte	0xa8d
 3352 0b08 01       		.byte	0x1
 3353 0b09 26       		.byte	0x26
 3354 0b0a 12       		.byte	0x12
 3355 0b0b 05       		.uleb128 0x5
 3356 0b0c 03       		.byte	0x3
 3357 0b0d 00000000 		.4byte	I2C_mstrWrBufPtr
 3358 0b11 23       		.uleb128 0x23
 3359 0b12 990A0000 		.4byte	0xa99
 3360 0b16 01       		.byte	0x1
 3361 0b17 27       		.byte	0x27
 3362 0b18 12       		.byte	0x12
 3363 0b19 05       		.uleb128 0x5
 3364 0b1a 03       		.byte	0x3
 3365 0b1b 00000000 		.4byte	I2C_mstrWrBufSize
 3366 0b1f 23       		.uleb128 0x23
 3367 0b20 A50A0000 		.4byte	0xaa5
 3368 0b24 01       		.byte	0x1
 3369 0b25 28       		.byte	0x28
 3370 0b26 12       		.byte	0x12
 3371 0b27 05       		.uleb128 0x5
 3372 0b28 03       		.byte	0x3
 3373 0b29 00000000 		.4byte	I2C_mstrWrBufIndex
 3374 0b2d 23       		.uleb128 0x23
 3375 0b2e B10A0000 		.4byte	0xab1
 3376 0b32 01       		.byte	0x1
 3377 0b33 29       		.byte	0x29
 3378 0b34 12       		.byte	0x12
 3379 0b35 05       		.uleb128 0x5
 3380 0b36 03       		.byte	0x3
 3381 0b37 00000000 		.4byte	I2C_mstrWrBufIndexTmp
ARM GAS  C:\Users\EDULU~1.DES\AppData\Local\Temp\ccOPPFV9.s 			page 90


 3382 0b3b 24       		.uleb128 0x24
 3383 0b3c 4E050000 		.4byte	.LASF151
 3384 0b40 01       		.byte	0x1
 3385 0b41 7904     		.2byte	0x479
 3386 0b43 0F       		.byte	0xf
 3387 0b44 99000000 		.4byte	0x99
 3388 0b48 00000000 		.4byte	.LFB15
 3389 0b4c 26000000 		.4byte	.LFE15-.LFB15
 3390 0b50 01       		.uleb128 0x1
 3391 0b51 9C       		.byte	0x9c
 3392 0b52 9E0B0000 		.4byte	0xb9e
 3393 0b56 25       		.uleb128 0x25
 3394 0b57 F7030000 		.4byte	.LASF153
 3395 0b5b 01       		.byte	0x1
 3396 0b5c 7904     		.2byte	0x479
 3397 0b5e 30       		.byte	0x30
 3398 0b5f 9E0B0000 		.4byte	0xb9e
 3399 0b63 08000000 		.4byte	.LLST0
 3400 0b67 00000000 		.4byte	.LVUS0
 3401 0b6b 26       		.uleb128 0x26
 3402 0b6c 2D000000 		.4byte	.LASF156
 3403 0b70 01       		.byte	0x1
 3404 0b71 7B04     		.2byte	0x47b
 3405 0b73 12       		.byte	0x12
 3406 0b74 94000000 		.4byte	0x94
 3407 0b78 01       		.byte	0x1
 3408 0b79 27       		.uleb128 0x27
 3409 0b7a 98080000 		.4byte	.LASF150
 3410 0b7e 01       		.byte	0x1
 3411 0b7f 7C04     		.2byte	0x47c
 3412 0b81 0C       		.byte	0xc
 3413 0b82 99000000 		.4byte	0x99
 3414 0b86 45000000 		.4byte	.LLST1
 3415 0b8a 3F000000 		.4byte	.LVUS1
 3416 0b8e 28       		.uleb128 0x28
 3417 0b8f 12000000 		.4byte	.LVL6
 3418 0b93 73130000 		.4byte	0x1373
 3419 0b97 29       		.uleb128 0x29
 3420 0b98 01       		.uleb128 0x1
 3421 0b99 50       		.byte	0x50
 3422 0b9a 01       		.uleb128 0x1
 3423 0b9b 31       		.byte	0x31
 3424 0b9c 00       		.byte	0
 3425 0b9d 00       		.byte	0
 3426 0b9e 07       		.uleb128 0x7
 3427 0b9f 04       		.byte	0x4
 3428 0ba0 99000000 		.4byte	0x99
 3429 0ba4 24       		.uleb128 0x24
 3430 0ba5 28010000 		.4byte	.LASF152
 3431 0ba9 01       		.byte	0x1
 3432 0baa 1904     		.2byte	0x419
 3433 0bac 0F       		.byte	0xf
 3434 0bad 99000000 		.4byte	0x99
 3435 0bb1 00000000 		.4byte	.LFB14
 3436 0bb5 B0000000 		.4byte	.LFE14-.LFB14
 3437 0bb9 01       		.uleb128 0x1
 3438 0bba 9C       		.byte	0x9c
ARM GAS  C:\Users\EDULU~1.DES\AppData\Local\Temp\ccOPPFV9.s 			page 91


 3439 0bbb 080C0000 		.4byte	0xc08
 3440 0bbf 25       		.uleb128 0x25
 3441 0bc0 98080000 		.4byte	.LASF150
 3442 0bc4 01       		.byte	0x1
 3443 0bc5 1904     		.2byte	0x419
 3444 0bc7 30       		.byte	0x30
 3445 0bc8 99000000 		.4byte	0x99
 3446 0bcc 7E000000 		.4byte	.LLST2
 3447 0bd0 74000000 		.4byte	.LVUS2
 3448 0bd4 27       		.uleb128 0x27
 3449 0bd5 73090000 		.4byte	.LASF154
 3450 0bd9 01       		.byte	0x1
 3451 0bda 1B04     		.2byte	0x41b
 3452 0bdc 0C       		.byte	0xc
 3453 0bdd 99000000 		.4byte	0x99
 3454 0be1 CD000000 		.4byte	.LLST3
 3455 0be5 C3000000 		.4byte	.LVUS3
 3456 0be9 27       		.uleb128 0x27
 3457 0bea 6B030000 		.4byte	.LASF155
 3458 0bee 01       		.byte	0x1
 3459 0bef 1C04     		.2byte	0x41c
 3460 0bf1 0C       		.byte	0xc
 3461 0bf2 99000000 		.4byte	0x99
 3462 0bf6 1B010000 		.4byte	.LLST4
 3463 0bfa 11010000 		.4byte	.LVUS4
 3464 0bfe 2A       		.uleb128 0x2a
 3465 0bff 88000000 		.4byte	.LVL22
 3466 0c03 7F130000 		.4byte	0x137f
 3467 0c07 00       		.byte	0
 3468 0c08 2B       		.uleb128 0x2b
 3469 0c09 D6050000 		.4byte	.LASF160
 3470 0c0d 01       		.byte	0x1
 3471 0c0e 9703     		.2byte	0x397
 3472 0c10 06       		.byte	0x6
 3473 0c11 00000000 		.4byte	.LFB13
 3474 0c15 C4000000 		.4byte	.LFE13-.LFB13
 3475 0c19 01       		.uleb128 0x1
 3476 0c1a 9C       		.byte	0x9c
 3477 0c1b 240D0000 		.4byte	0xd24
 3478 0c1f 26       		.uleb128 0x26
 3479 0c20 2D000000 		.4byte	.LASF156
 3480 0c24 01       		.byte	0x1
 3481 0c25 A003     		.2byte	0x3a0
 3482 0c27 12       		.byte	0x12
 3483 0c28 94000000 		.4byte	0x94
 3484 0c2c 01       		.byte	0x1
 3485 0c2d 27       		.uleb128 0x27
 3486 0c2e F7030000 		.4byte	.LASF153
 3487 0c32 01       		.byte	0x1
 3488 0c33 A103     		.2byte	0x3a1
 3489 0c35 0C       		.byte	0xc
 3490 0c36 99000000 		.4byte	0x99
 3491 0c3a 68010000 		.4byte	.LLST25
 3492 0c3e 5E010000 		.4byte	.LVUS25
 3493 0c42 27       		.uleb128 0x27
 3494 0c43 65060000 		.4byte	.LASF157
 3495 0c47 01       		.byte	0x1
ARM GAS  C:\Users\EDULU~1.DES\AppData\Local\Temp\ccOPPFV9.s 			page 92


 3496 0c48 A403     		.2byte	0x3a4
 3497 0c4a 0C       		.byte	0xc
 3498 0c4b 99000000 		.4byte	0x99
 3499 0c4f B1010000 		.4byte	.LLST26
 3500 0c53 AD010000 		.4byte	.LVUS26
 3501 0c57 2A       		.uleb128 0x2a
 3502 0c58 10000000 		.4byte	.LVL97
 3503 0c5c 8B130000 		.4byte	0x138b
 3504 0c60 2C       		.uleb128 0x2c
 3505 0c61 1E000000 		.4byte	.LVL98
 3506 0c65 73130000 		.4byte	0x1373
 3507 0c69 730C0000 		.4byte	0xc73
 3508 0c6d 29       		.uleb128 0x29
 3509 0c6e 01       		.uleb128 0x1
 3510 0c6f 50       		.byte	0x50
 3511 0c70 01       		.uleb128 0x1
 3512 0c71 31       		.byte	0x31
 3513 0c72 00       		.byte	0
 3514 0c73 2C       		.uleb128 0x2c
 3515 0c74 2E000000 		.4byte	.LVL103
 3516 0c78 97130000 		.4byte	0x1397
 3517 0c7c 860C0000 		.4byte	0xc86
 3518 0c80 29       		.uleb128 0x29
 3519 0c81 01       		.uleb128 0x1
 3520 0c82 50       		.byte	0x50
 3521 0c83 01       		.uleb128 0x1
 3522 0c84 30       		.byte	0x30
 3523 0c85 00       		.byte	0
 3524 0c86 2C       		.uleb128 0x2c
 3525 0c87 4C000000 		.4byte	.LVL104
 3526 0c8b 97130000 		.4byte	0x1397
 3527 0c8f 990C0000 		.4byte	0xc99
 3528 0c93 29       		.uleb128 0x29
 3529 0c94 01       		.uleb128 0x1
 3530 0c95 50       		.byte	0x50
 3531 0c96 01       		.uleb128 0x1
 3532 0c97 30       		.byte	0x30
 3533 0c98 00       		.byte	0
 3534 0c99 2C       		.uleb128 0x2c
 3535 0c9a 52000000 		.4byte	.LVL105
 3536 0c9e 73130000 		.4byte	0x1373
 3537 0ca2 AC0C0000 		.4byte	0xcac
 3538 0ca6 29       		.uleb128 0x29
 3539 0ca7 01       		.uleb128 0x1
 3540 0ca8 50       		.byte	0x50
 3541 0ca9 01       		.uleb128 0x1
 3542 0caa 3A       		.byte	0x3a
 3543 0cab 00       		.byte	0
 3544 0cac 2C       		.uleb128 0x2c
 3545 0cad 58000000 		.4byte	.LVL106
 3546 0cb1 97130000 		.4byte	0x1397
 3547 0cb5 BF0C0000 		.4byte	0xcbf
 3548 0cb9 29       		.uleb128 0x29
 3549 0cba 01       		.uleb128 0x1
 3550 0cbb 50       		.byte	0x50
 3551 0cbc 01       		.uleb128 0x1
 3552 0cbd 31       		.byte	0x31
ARM GAS  C:\Users\EDULU~1.DES\AppData\Local\Temp\ccOPPFV9.s 			page 93


 3553 0cbe 00       		.byte	0
 3554 0cbf 2C       		.uleb128 0x2c
 3555 0cc0 5E000000 		.4byte	.LVL107
 3556 0cc4 73130000 		.4byte	0x1373
 3557 0cc8 D20C0000 		.4byte	0xcd2
 3558 0ccc 29       		.uleb128 0x29
 3559 0ccd 01       		.uleb128 0x1
 3560 0cce 50       		.byte	0x50
 3561 0ccf 01       		.uleb128 0x1
 3562 0cd0 3A       		.byte	0x3a
 3563 0cd1 00       		.byte	0
 3564 0cd2 2C       		.uleb128 0x2c
 3565 0cd3 68000000 		.4byte	.LVL109
 3566 0cd7 73130000 		.4byte	0x1373
 3567 0cdb E50C0000 		.4byte	0xce5
 3568 0cdf 29       		.uleb128 0x29
 3569 0ce0 01       		.uleb128 0x1
 3570 0ce1 50       		.byte	0x50
 3571 0ce2 01       		.uleb128 0x1
 3572 0ce3 31       		.byte	0x31
 3573 0ce4 00       		.byte	0
 3574 0ce5 2A       		.uleb128 0x2a
 3575 0ce6 6E000000 		.4byte	.LVL111
 3576 0cea A3130000 		.4byte	0x13a3
 3577 0cee 2C       		.uleb128 0x2c
 3578 0cef 80000000 		.4byte	.LVL113
 3579 0cf3 97130000 		.4byte	0x1397
 3580 0cf7 010D0000 		.4byte	0xd01
 3581 0cfb 29       		.uleb128 0x29
 3582 0cfc 01       		.uleb128 0x1
 3583 0cfd 50       		.byte	0x50
 3584 0cfe 01       		.uleb128 0x1
 3585 0cff 30       		.byte	0x30
 3586 0d00 00       		.byte	0
 3587 0d01 2C       		.uleb128 0x2c
 3588 0d02 86000000 		.4byte	.LVL114
 3589 0d06 73130000 		.4byte	0x1373
 3590 0d0a 140D0000 		.4byte	0xd14
 3591 0d0e 29       		.uleb128 0x29
 3592 0d0f 01       		.uleb128 0x1
 3593 0d10 50       		.byte	0x50
 3594 0d11 01       		.uleb128 0x1
 3595 0d12 3A       		.byte	0x3a
 3596 0d13 00       		.byte	0
 3597 0d14 28       		.uleb128 0x28
 3598 0d15 AC000000 		.4byte	.LVL115
 3599 0d19 97130000 		.4byte	0x1397
 3600 0d1d 29       		.uleb128 0x29
 3601 0d1e 01       		.uleb128 0x1
 3602 0d1f 50       		.byte	0x50
 3603 0d20 01       		.uleb128 0x1
 3604 0d21 31       		.byte	0x31
 3605 0d22 00       		.byte	0
 3606 0d23 00       		.byte	0
 3607 0d24 2D       		.uleb128 0x2d
 3608 0d25 A3050000 		.4byte	.LASF158
 3609 0d29 01       		.byte	0x1
ARM GAS  C:\Users\EDULU~1.DES\AppData\Local\Temp\ccOPPFV9.s 			page 94


 3610 0d2a 6B03     		.2byte	0x36b
 3611 0d2c 08       		.byte	0x8
 3612 0d2d 99000000 		.4byte	0x99
 3613 0d31 00000000 		.4byte	.LFB12
 3614 0d35 20000000 		.4byte	.LFE12-.LFB12
 3615 0d39 01       		.uleb128 0x1
 3616 0d3a 9C       		.byte	0x9c
 3617 0d3b 770D0000 		.4byte	0xd77
 3618 0d3f 27       		.uleb128 0x27
 3619 0d40 98080000 		.4byte	.LASF150
 3620 0d44 01       		.byte	0x1
 3621 0d45 6D03     		.2byte	0x36d
 3622 0d47 0C       		.byte	0xc
 3623 0d48 99000000 		.4byte	0x99
 3624 0d4c D3010000 		.4byte	.LLST24
 3625 0d50 CF010000 		.4byte	.LVUS24
 3626 0d54 2C       		.uleb128 0x2c
 3627 0d55 08000000 		.4byte	.LVL90
 3628 0d59 AF130000 		.4byte	0x13af
 3629 0d5d 670D0000 		.4byte	0xd67
 3630 0d61 29       		.uleb128 0x29
 3631 0d62 01       		.uleb128 0x1
 3632 0d63 50       		.byte	0x50
 3633 0d64 01       		.uleb128 0x1
 3634 0d65 3A       		.byte	0x3a
 3635 0d66 00       		.byte	0
 3636 0d67 28       		.uleb128 0x28
 3637 0d68 18000000 		.4byte	.LVL92
 3638 0d6c BB130000 		.4byte	0x13bb
 3639 0d70 29       		.uleb128 0x29
 3640 0d71 01       		.uleb128 0x1
 3641 0d72 50       		.byte	0x50
 3642 0d73 01       		.uleb128 0x1
 3643 0d74 3A       		.byte	0x3a
 3644 0d75 00       		.byte	0
 3645 0d76 00       		.byte	0
 3646 0d77 2D       		.uleb128 0x2d
 3647 0d78 57030000 		.4byte	.LASF159
 3648 0d7c 01       		.byte	0x1
 3649 0d7d 4903     		.2byte	0x349
 3650 0d7f 08       		.byte	0x8
 3651 0d80 99000000 		.4byte	0x99
 3652 0d84 00000000 		.4byte	.LFB11
 3653 0d88 30000000 		.4byte	.LFE11-.LFB11
 3654 0d8c 01       		.uleb128 0x1
 3655 0d8d 9C       		.byte	0x9c
 3656 0d8e CA0D0000 		.4byte	0xdca
 3657 0d92 27       		.uleb128 0x27
 3658 0d93 98080000 		.4byte	.LASF150
 3659 0d97 01       		.byte	0x1
 3660 0d98 4B03     		.2byte	0x34b
 3661 0d9a 0C       		.byte	0xc
 3662 0d9b 99000000 		.4byte	0x99
 3663 0d9f F7010000 		.4byte	.LLST23
 3664 0da3 F1010000 		.4byte	.LVUS23
 3665 0da7 2C       		.uleb128 0x2c
 3666 0da8 08000000 		.4byte	.LVL85
ARM GAS  C:\Users\EDULU~1.DES\AppData\Local\Temp\ccOPPFV9.s 			page 95


 3667 0dac AF130000 		.4byte	0x13af
 3668 0db0 BA0D0000 		.4byte	0xdba
 3669 0db4 29       		.uleb128 0x29
 3670 0db5 01       		.uleb128 0x1
 3671 0db6 50       		.byte	0x50
 3672 0db7 01       		.uleb128 0x1
 3673 0db8 3A       		.byte	0x3a
 3674 0db9 00       		.byte	0
 3675 0dba 28       		.uleb128 0x28
 3676 0dbb 22000000 		.4byte	.LVL88
 3677 0dbf BB130000 		.4byte	0x13bb
 3678 0dc3 29       		.uleb128 0x29
 3679 0dc4 01       		.uleb128 0x1
 3680 0dc5 50       		.byte	0x50
 3681 0dc6 01       		.uleb128 0x1
 3682 0dc7 3A       		.byte	0x3a
 3683 0dc8 00       		.byte	0
 3684 0dc9 00       		.byte	0
 3685 0dca 2B       		.uleb128 0x2b
 3686 0dcb 23040000 		.4byte	.LASF161
 3687 0dcf 01       		.byte	0x1
 3688 0dd0 1503     		.2byte	0x315
 3689 0dd2 06       		.byte	0x6
 3690 0dd3 00000000 		.4byte	.LFB10
 3691 0dd7 28000000 		.4byte	.LFE10-.LFB10
 3692 0ddb 01       		.uleb128 0x1
 3693 0ddc 9C       		.byte	0x9c
 3694 0ddd 040E0000 		.4byte	0xe04
 3695 0de1 2C       		.uleb128 0x2c
 3696 0de2 08000000 		.4byte	.LVL83
 3697 0de6 AF130000 		.4byte	0x13af
 3698 0dea F40D0000 		.4byte	0xdf4
 3699 0dee 29       		.uleb128 0x29
 3700 0def 01       		.uleb128 0x1
 3701 0df0 50       		.byte	0x50
 3702 0df1 01       		.uleb128 0x1
 3703 0df2 3A       		.byte	0x3a
 3704 0df3 00       		.byte	0
 3705 0df4 28       		.uleb128 0x28
 3706 0df5 1E000000 		.4byte	.LVL84
 3707 0df9 BB130000 		.4byte	0x13bb
 3708 0dfd 29       		.uleb128 0x29
 3709 0dfe 01       		.uleb128 0x1
 3710 0dff 50       		.byte	0x50
 3711 0e00 01       		.uleb128 0x1
 3712 0e01 3A       		.byte	0x3a
 3713 0e02 00       		.byte	0
 3714 0e03 00       		.byte	0
 3715 0e04 2B       		.uleb128 0x2b
 3716 0e05 E3000000 		.4byte	.LASF162
 3717 0e09 01       		.byte	0x1
 3718 0e0a FE02     		.2byte	0x2fe
 3719 0e0c 06       		.byte	0x6
 3720 0e0d 00000000 		.4byte	.LFB9
 3721 0e11 28000000 		.4byte	.LFE9-.LFB9
 3722 0e15 01       		.uleb128 0x1
 3723 0e16 9C       		.byte	0x9c
ARM GAS  C:\Users\EDULU~1.DES\AppData\Local\Temp\ccOPPFV9.s 			page 96


 3724 0e17 3E0E0000 		.4byte	0xe3e
 3725 0e1b 2C       		.uleb128 0x2c
 3726 0e1c 08000000 		.4byte	.LVL81
 3727 0e20 AF130000 		.4byte	0x13af
 3728 0e24 2E0E0000 		.4byte	0xe2e
 3729 0e28 29       		.uleb128 0x29
 3730 0e29 01       		.uleb128 0x1
 3731 0e2a 50       		.byte	0x50
 3732 0e2b 01       		.uleb128 0x1
 3733 0e2c 3A       		.byte	0x3a
 3734 0e2d 00       		.byte	0
 3735 0e2e 28       		.uleb128 0x28
 3736 0e2f 1E000000 		.4byte	.LVL82
 3737 0e33 BB130000 		.4byte	0x13bb
 3738 0e37 29       		.uleb128 0x29
 3739 0e38 01       		.uleb128 0x1
 3740 0e39 50       		.byte	0x50
 3741 0e3a 01       		.uleb128 0x1
 3742 0e3b 3A       		.byte	0x3a
 3743 0e3c 00       		.byte	0
 3744 0e3d 00       		.byte	0
 3745 0e3e 2E       		.uleb128 0x2e
 3746 0e3f 73060000 		.4byte	.LASF163
 3747 0e43 01       		.byte	0x1
 3748 0e44 EC02     		.2byte	0x2ec
 3749 0e46 08       		.byte	0x8
 3750 0e47 99000000 		.4byte	0x99
 3751 0e4b 00000000 		.4byte	.LFB8
 3752 0e4f 0C000000 		.4byte	.LFE8-.LFB8
 3753 0e53 01       		.uleb128 0x1
 3754 0e54 9C       		.byte	0x9c
 3755 0e55 2E       		.uleb128 0x2e
 3756 0e56 3D000000 		.4byte	.LASF164
 3757 0e5a 01       		.byte	0x1
 3758 0e5b D102     		.2byte	0x2d1
 3759 0e5d 08       		.byte	0x8
 3760 0e5e 99000000 		.4byte	0x99
 3761 0e62 00000000 		.4byte	.LFB7
 3762 0e66 0C000000 		.4byte	.LFE7-.LFB7
 3763 0e6a 01       		.uleb128 0x1
 3764 0e6b 9C       		.byte	0x9c
 3765 0e6c 2D       		.uleb128 0x2d
 3766 0e6d C2020000 		.4byte	.LASF165
 3767 0e71 01       		.byte	0x1
 3768 0e72 8D02     		.2byte	0x28d
 3769 0e74 08       		.byte	0x8
 3770 0e75 99000000 		.4byte	0x99
 3771 0e79 00000000 		.4byte	.LFB6
 3772 0e7d 80000000 		.4byte	.LFE6-.LFB6
 3773 0e81 01       		.uleb128 0x1
 3774 0e82 9C       		.byte	0x9c
 3775 0e83 3D0F0000 		.4byte	0xf3d
 3776 0e87 25       		.uleb128 0x25
 3777 0e88 EF030000 		.4byte	.LASF166
 3778 0e8c 01       		.byte	0x1
 3779 0e8d 8D02     		.2byte	0x28d
 3780 0e8f 25       		.byte	0x25
ARM GAS  C:\Users\EDULU~1.DES\AppData\Local\Temp\ccOPPFV9.s 			page 97


 3781 0e90 99000000 		.4byte	0x99
 3782 0e94 2A020000 		.4byte	.LLST17
 3783 0e98 20020000 		.4byte	.LVUS17
 3784 0e9c 25       		.uleb128 0x25
 3785 0e9d 64000000 		.4byte	.LASF167
 3786 0ea1 01       		.byte	0x1
 3787 0ea2 8D02     		.2byte	0x28d
 3788 0ea4 35       		.byte	0x35
 3789 0ea5 3D0F0000 		.4byte	0xf3d
 3790 0ea9 76020000 		.4byte	.LLST18
 3791 0ead 6C020000 		.4byte	.LVUS18
 3792 0eb1 25       		.uleb128 0x25
 3793 0eb2 41080000 		.4byte	.LASF168
 3794 0eb6 01       		.byte	0x1
 3795 0eb7 8D02     		.2byte	0x28d
 3796 0eb9 44       		.byte	0x44
 3797 0eba 99000000 		.4byte	0x99
 3798 0ebe C0020000 		.4byte	.LLST19
 3799 0ec2 B8020000 		.4byte	.LVUS19
 3800 0ec6 27       		.uleb128 0x27
 3801 0ec7 FF030000 		.4byte	.LASF169
 3802 0ecb 01       		.byte	0x1
 3803 0ecc 8F02     		.2byte	0x28f
 3804 0ece 0C       		.byte	0xc
 3805 0ecf 99000000 		.4byte	0x99
 3806 0ed3 00030000 		.4byte	.LLST20
 3807 0ed7 FA020000 		.4byte	.LVUS20
 3808 0edb 2F       		.uleb128 0x2f
 3809 0edc 10000000 		.4byte	.LBB7
 3810 0ee0 50000000 		.4byte	.LBE7-.LBB7
 3811 0ee4 27       		.uleb128 0x27
 3812 0ee5 36060000 		.4byte	.LASF170
 3813 0ee9 01       		.byte	0x1
 3814 0eea 9402     		.2byte	0x294
 3815 0eec 10       		.byte	0x10
 3816 0eed 99000000 		.4byte	0x99
 3817 0ef1 2F030000 		.4byte	.LLST21
 3818 0ef5 2B030000 		.4byte	.LVUS21
 3819 0ef9 27       		.uleb128 0x27
 3820 0efa 42010000 		.4byte	.LASF171
 3821 0efe 01       		.byte	0x1
 3822 0eff 9502     		.2byte	0x295
 3823 0f01 10       		.byte	0x10
 3824 0f02 99000000 		.4byte	0x99
 3825 0f06 4F030000 		.4byte	.LLST22
 3826 0f0a 4D030000 		.4byte	.LVUS22
 3827 0f0e 30       		.uleb128 0x30
 3828 0f0f F7030000 		.4byte	.LASF153
 3829 0f13 01       		.byte	0x1
 3830 0f14 9602     		.2byte	0x296
 3831 0f16 10       		.byte	0x10
 3832 0f17 99000000 		.4byte	0x99
 3833 0f1b 02       		.uleb128 0x2
 3834 0f1c 91       		.byte	0x91
 3835 0f1d 64       		.sleb128 -28
 3836 0f1e 2C       		.uleb128 0x2c
 3837 0f1f 34000000 		.4byte	.LVL74
ARM GAS  C:\Users\EDULU~1.DES\AppData\Local\Temp\ccOPPFV9.s 			page 98


 3838 0f23 3B0B0000 		.4byte	0xb3b
 3839 0f27 320F0000 		.4byte	0xf32
 3840 0f2b 29       		.uleb128 0x29
 3841 0f2c 01       		.uleb128 0x1
 3842 0f2d 50       		.byte	0x50
 3843 0f2e 02       		.uleb128 0x2
 3844 0f2f 91       		.byte	0x91
 3845 0f30 64       		.sleb128 -28
 3846 0f31 00       		.byte	0
 3847 0f32 2A       		.uleb128 0x2a
 3848 0f33 50000000 		.4byte	.LVL76
 3849 0f37 A40B0000 		.4byte	0xba4
 3850 0f3b 00       		.byte	0
 3851 0f3c 00       		.byte	0
 3852 0f3d 07       		.uleb128 0x7
 3853 0f3e 04       		.byte	0x4
 3854 0f3f 6B000000 		.4byte	0x6b
 3855 0f43 2D       		.uleb128 0x2d
 3856 0f44 E7080000 		.4byte	.LASF172
 3857 0f48 01       		.byte	0x1
 3858 0f49 4602     		.2byte	0x246
 3859 0f4b 08       		.byte	0x8
 3860 0f4c 99000000 		.4byte	0x99
 3861 0f50 00000000 		.4byte	.LFB5
 3862 0f54 48000000 		.4byte	.LFE5-.LFB5
 3863 0f58 01       		.uleb128 0x1
 3864 0f59 9C       		.byte	0x9c
 3865 0f5a EA0F0000 		.4byte	0xfea
 3866 0f5e 25       		.uleb128 0x25
 3867 0f5f 60040000 		.4byte	.LASF173
 3868 0f63 01       		.byte	0x1
 3869 0f64 4602     		.2byte	0x246
 3870 0f66 26       		.byte	0x26
 3871 0f67 99000000 		.4byte	0x99
 3872 0f6b 6A030000 		.4byte	.LLST13
 3873 0f6f 62030000 		.4byte	.LVUS13
 3874 0f73 25       		.uleb128 0x25
 3875 0f74 41080000 		.4byte	.LASF168
 3876 0f78 01       		.byte	0x1
 3877 0f79 4602     		.2byte	0x246
 3878 0f7b 35       		.byte	0x35
 3879 0f7c 99000000 		.4byte	0x99
 3880 0f80 AA030000 		.4byte	.LLST14
 3881 0f84 A4030000 		.4byte	.LVUS14
 3882 0f88 27       		.uleb128 0x27
 3883 0f89 FF030000 		.4byte	.LASF169
 3884 0f8d 01       		.byte	0x1
 3885 0f8e 4802     		.2byte	0x248
 3886 0f90 0C       		.byte	0xc
 3887 0f91 99000000 		.4byte	0x99
 3888 0f95 DA030000 		.4byte	.LLST15
 3889 0f99 D6030000 		.4byte	.LVUS15
 3890 0f9d 2F       		.uleb128 0x2f
 3891 0f9e 0C000000 		.4byte	.LBB6
 3892 0fa2 28000000 		.4byte	.LBE6-.LBB6
 3893 0fa6 27       		.uleb128 0x27
 3894 0fa7 36060000 		.4byte	.LASF170
ARM GAS  C:\Users\EDULU~1.DES\AppData\Local\Temp\ccOPPFV9.s 			page 99


 3895 0fab 01       		.byte	0x1
 3896 0fac 4D02     		.2byte	0x24d
 3897 0fae 10       		.byte	0x10
 3898 0faf 99000000 		.4byte	0x99
 3899 0fb3 FE030000 		.4byte	.LLST16
 3900 0fb7 FA030000 		.4byte	.LVUS16
 3901 0fbb 30       		.uleb128 0x30
 3902 0fbc F7030000 		.4byte	.LASF153
 3903 0fc0 01       		.byte	0x1
 3904 0fc1 4E02     		.2byte	0x24e
 3905 0fc3 10       		.byte	0x10
 3906 0fc4 99000000 		.4byte	0x99
 3907 0fc8 02       		.uleb128 0x2
 3908 0fc9 91       		.byte	0x91
 3909 0fca 74       		.sleb128 -12
 3910 0fcb 2C       		.uleb128 0x2c
 3911 0fcc 2C000000 		.4byte	.LVL63
 3912 0fd0 3B0B0000 		.4byte	0xb3b
 3913 0fd4 DF0F0000 		.4byte	0xfdf
 3914 0fd8 29       		.uleb128 0x29
 3915 0fd9 01       		.uleb128 0x1
 3916 0fda 50       		.byte	0x50
 3917 0fdb 02       		.uleb128 0x2
 3918 0fdc 91       		.byte	0x91
 3919 0fdd 74       		.sleb128 -12
 3920 0fde 00       		.byte	0
 3921 0fdf 2A       		.uleb128 0x2a
 3922 0fe0 34000000 		.4byte	.LVL65
 3923 0fe4 A40B0000 		.4byte	0xba4
 3924 0fe8 00       		.byte	0
 3925 0fe9 00       		.byte	0
 3926 0fea 2D       		.uleb128 0x2d
 3927 0feb 30050000 		.4byte	.LASF174
 3928 0fef 01       		.byte	0x1
 3929 0ff0 0B02     		.2byte	0x20b
 3930 0ff2 08       		.byte	0x8
 3931 0ff3 99000000 		.4byte	0x99
 3932 0ff7 00000000 		.4byte	.LFB4
 3933 0ffb 5C000000 		.4byte	.LFE4-.LFB4
 3934 0fff 01       		.uleb128 0x1
 3935 1000 9C       		.byte	0x9c
 3936 1001 78100000 		.4byte	0x1078
 3937 1005 25       		.uleb128 0x25
 3938 1006 41080000 		.4byte	.LASF168
 3939 100a 01       		.byte	0x1
 3940 100b 0B02     		.2byte	0x20b
 3941 100d 25       		.byte	0x25
 3942 100e 99000000 		.4byte	0x99
 3943 1012 24040000 		.4byte	.LLST10
 3944 1016 1C040000 		.4byte	.LVUS10
 3945 101a 27       		.uleb128 0x27
 3946 101b FF030000 		.4byte	.LASF169
 3947 101f 01       		.byte	0x1
 3948 1020 0D02     		.2byte	0x20d
 3949 1022 0C       		.byte	0xc
 3950 1023 99000000 		.4byte	0x99
 3951 1027 62040000 		.4byte	.LLST11
ARM GAS  C:\Users\EDULU~1.DES\AppData\Local\Temp\ccOPPFV9.s 			page 100


 3952 102b 5E040000 		.4byte	.LVUS11
 3953 102f 31       		.uleb128 0x31
 3954 1030 18000000 		.4byte	.Ldebug_ranges0+0x18
 3955 1034 27       		.uleb128 0x27
 3956 1035 36060000 		.4byte	.LASF170
 3957 1039 01       		.byte	0x1
 3958 103a 1202     		.2byte	0x212
 3959 103c 10       		.byte	0x10
 3960 103d 99000000 		.4byte	0x99
 3961 1041 86040000 		.4byte	.LLST12
 3962 1045 82040000 		.4byte	.LVUS12
 3963 1049 30       		.uleb128 0x30
 3964 104a F7030000 		.4byte	.LASF153
 3965 104e 01       		.byte	0x1
 3966 104f 1302     		.2byte	0x213
 3967 1051 10       		.byte	0x10
 3968 1052 99000000 		.4byte	0x99
 3969 1056 02       		.uleb128 0x2
 3970 1057 91       		.byte	0x91
 3971 1058 74       		.sleb128 -12
 3972 1059 2C       		.uleb128 0x2c
 3973 105a 36000000 		.4byte	.LVL52
 3974 105e 3B0B0000 		.4byte	0xb3b
 3975 1062 6D100000 		.4byte	0x106d
 3976 1066 29       		.uleb128 0x29
 3977 1067 01       		.uleb128 0x1
 3978 1068 50       		.byte	0x50
 3979 1069 02       		.uleb128 0x2
 3980 106a 91       		.byte	0x91
 3981 106b 74       		.sleb128 -12
 3982 106c 00       		.byte	0
 3983 106d 2A       		.uleb128 0x2a
 3984 106e 3E000000 		.4byte	.LVL54
 3985 1072 A40B0000 		.4byte	0xba4
 3986 1076 00       		.byte	0
 3987 1077 00       		.byte	0
 3988 1078 2D       		.uleb128 0x2d
 3989 1079 FE020000 		.4byte	.LASF175
 3990 107d 01       		.byte	0x1
 3991 107e BC01     		.2byte	0x1bc
 3992 1080 08       		.byte	0x8
 3993 1081 99000000 		.4byte	0x99
 3994 1085 00000000 		.4byte	.LFB3
 3995 1089 68000000 		.4byte	.LFE3-.LFB3
 3996 108d 01       		.uleb128 0x1
 3997 108e 9C       		.byte	0x9c
 3998 108f 39110000 		.4byte	0x1139
 3999 1093 25       		.uleb128 0x25
 4000 1094 22030000 		.4byte	.LASF176
 4001 1098 01       		.byte	0x1
 4002 1099 BC01     		.2byte	0x1bc
 4003 109b 28       		.byte	0x28
 4004 109c 99000000 		.4byte	0x99
 4005 10a0 B0040000 		.4byte	.LLST37
 4006 10a4 A4040000 		.4byte	.LVUS37
 4007 10a8 25       		.uleb128 0x25
 4008 10a9 67050000 		.4byte	.LASF177
ARM GAS  C:\Users\EDULU~1.DES\AppData\Local\Temp\ccOPPFV9.s 			page 101


 4009 10ad 01       		.byte	0x1
 4010 10ae BC01     		.2byte	0x1bc
 4011 10b0 3D       		.byte	0x3d
 4012 10b1 99000000 		.4byte	0x99
 4013 10b5 06050000 		.4byte	.LLST38
 4014 10b9 00050000 		.4byte	.LVUS38
 4015 10bd 25       		.uleb128 0x25
 4016 10be 41080000 		.4byte	.LASF168
 4017 10c2 01       		.byte	0x1
 4018 10c3 BC01     		.2byte	0x1bc
 4019 10c5 4C       		.byte	0x4c
 4020 10c6 99000000 		.4byte	0x99
 4021 10ca 38050000 		.4byte	.LLST39
 4022 10ce 32050000 		.4byte	.LVUS39
 4023 10d2 27       		.uleb128 0x27
 4024 10d3 FF030000 		.4byte	.LASF169
 4025 10d7 01       		.byte	0x1
 4026 10d8 BE01     		.2byte	0x1be
 4027 10da 0C       		.byte	0xc
 4028 10db 99000000 		.4byte	0x99
 4029 10df 68050000 		.4byte	.LLST40
 4030 10e3 64050000 		.4byte	.LVUS40
 4031 10e7 31       		.uleb128 0x31
 4032 10e8 30000000 		.4byte	.Ldebug_ranges0+0x30
 4033 10ec 27       		.uleb128 0x27
 4034 10ed 36060000 		.4byte	.LASF170
 4035 10f1 01       		.byte	0x1
 4036 10f2 C301     		.2byte	0x1c3
 4037 10f4 10       		.byte	0x10
 4038 10f5 99000000 		.4byte	0x99
 4039 10f9 8C050000 		.4byte	.LLST41
 4040 10fd 88050000 		.4byte	.LVUS41
 4041 1101 30       		.uleb128 0x30
 4042 1102 F7030000 		.4byte	.LASF153
 4043 1106 01       		.byte	0x1
 4044 1107 C401     		.2byte	0x1c4
 4045 1109 10       		.byte	0x10
 4046 110a 99000000 		.4byte	0x99
 4047 110e 02       		.uleb128 0x2
 4048 110f 91       		.byte	0x91
 4049 1110 74       		.sleb128 -12
 4050 1111 2A       		.uleb128 0x2a
 4051 1112 2C000000 		.4byte	.LVL166
 4052 1116 080C0000 		.4byte	0xc08
 4053 111a 2C       		.uleb128 0x2c
 4054 111b 40000000 		.4byte	.LVL169
 4055 111f 3B0B0000 		.4byte	0xb3b
 4056 1123 2E110000 		.4byte	0x112e
 4057 1127 29       		.uleb128 0x29
 4058 1128 01       		.uleb128 0x1
 4059 1129 50       		.byte	0x50
 4060 112a 02       		.uleb128 0x2
 4061 112b 91       		.byte	0x91
 4062 112c 74       		.sleb128 -12
 4063 112d 00       		.byte	0
 4064 112e 2A       		.uleb128 0x2a
 4065 112f 48000000 		.4byte	.LVL171
ARM GAS  C:\Users\EDULU~1.DES\AppData\Local\Temp\ccOPPFV9.s 			page 102


 4066 1133 A40B0000 		.4byte	0xba4
 4067 1137 00       		.byte	0
 4068 1138 00       		.byte	0
 4069 1139 2D       		.uleb128 0x2d
 4070 113a C0030000 		.4byte	.LASF178
 4071 113e 01       		.byte	0x1
 4072 113f 5901     		.2byte	0x159
 4073 1141 08       		.byte	0x8
 4074 1142 99000000 		.4byte	0x99
 4075 1146 00000000 		.4byte	.LFB2
 4076 114a C4000000 		.4byte	.LFE2-.LFB2
 4077 114e 01       		.uleb128 0x1
 4078 114f 9C       		.byte	0x9c
 4079 1150 17120000 		.4byte	0x1217
 4080 1154 25       		.uleb128 0x25
 4081 1155 22030000 		.4byte	.LASF176
 4082 1159 01       		.byte	0x1
 4083 115a 5901     		.2byte	0x159
 4084 115c 26       		.byte	0x26
 4085 115d 99000000 		.4byte	0x99
 4086 1161 B8050000 		.4byte	.LLST5
 4087 1165 AA050000 		.4byte	.LVUS5
 4088 1169 25       		.uleb128 0x25
 4089 116a 67050000 		.4byte	.LASF177
 4090 116e 01       		.byte	0x1
 4091 116f 5901     		.2byte	0x159
 4092 1171 3B       		.byte	0x3b
 4093 1172 99000000 		.4byte	0x99
 4094 1176 1D060000 		.4byte	.LLST6
 4095 117a 13060000 		.4byte	.LVUS6
 4096 117e 25       		.uleb128 0x25
 4097 117f 41080000 		.4byte	.LASF168
 4098 1183 01       		.byte	0x1
 4099 1184 5901     		.2byte	0x159
 4100 1186 4A       		.byte	0x4a
 4101 1187 99000000 		.4byte	0x99
 4102 118b 6B060000 		.4byte	.LLST7
 4103 118f 5F060000 		.4byte	.LVUS7
 4104 1193 27       		.uleb128 0x27
 4105 1194 FF030000 		.4byte	.LASF169
 4106 1198 01       		.byte	0x1
 4107 1199 5B01     		.2byte	0x15b
 4108 119b 0C       		.byte	0xc
 4109 119c 99000000 		.4byte	0x99
 4110 11a0 C3060000 		.4byte	.LLST8
 4111 11a4 BB060000 		.4byte	.LVUS8
 4112 11a8 32       		.uleb128 0x32
 4113 11a9 00000000 		.4byte	.Ldebug_ranges0+0
 4114 11ad F4110000 		.4byte	0x11f4
 4115 11b1 27       		.uleb128 0x27
 4116 11b2 36060000 		.4byte	.LASF170
 4117 11b6 01       		.byte	0x1
 4118 11b7 6701     		.2byte	0x167
 4119 11b9 14       		.byte	0x14
 4120 11ba 99000000 		.4byte	0x99
 4121 11be 00070000 		.4byte	.LLST9
 4122 11c2 FA060000 		.4byte	.LVUS9
ARM GAS  C:\Users\EDULU~1.DES\AppData\Local\Temp\ccOPPFV9.s 			page 103


 4123 11c6 30       		.uleb128 0x30
 4124 11c7 F7030000 		.4byte	.LASF153
 4125 11cb 01       		.byte	0x1
 4126 11cc 6801     		.2byte	0x168
 4127 11ce 14       		.byte	0x14
 4128 11cf 99000000 		.4byte	0x99
 4129 11d3 02       		.uleb128 0x2
 4130 11d4 91       		.byte	0x91
 4131 11d5 6C       		.sleb128 -20
 4132 11d6 2C       		.uleb128 0x2c
 4133 11d7 7A000000 		.4byte	.LVL39
 4134 11db 3B0B0000 		.4byte	0xb3b
 4135 11df EA110000 		.4byte	0x11ea
 4136 11e3 29       		.uleb128 0x29
 4137 11e4 01       		.uleb128 0x1
 4138 11e5 50       		.byte	0x50
 4139 11e6 02       		.uleb128 0x2
 4140 11e7 91       		.byte	0x91
 4141 11e8 6C       		.sleb128 -20
 4142 11e9 00       		.byte	0
 4143 11ea 2A       		.uleb128 0x2a
 4144 11eb 82000000 		.4byte	.LVL41
 4145 11ef A40B0000 		.4byte	0xba4
 4146 11f3 00       		.byte	0
 4147 11f4 2C       		.uleb128 0x2c
 4148 11f5 20000000 		.4byte	.LVL32
 4149 11f9 AF130000 		.4byte	0x13af
 4150 11fd 07120000 		.4byte	0x1207
 4151 1201 29       		.uleb128 0x29
 4152 1202 01       		.uleb128 0x1
 4153 1203 50       		.byte	0x50
 4154 1204 01       		.uleb128 0x1
 4155 1205 3A       		.byte	0x3a
 4156 1206 00       		.byte	0
 4157 1207 28       		.uleb128 0x28
 4158 1208 8A000000 		.4byte	.LVL43
 4159 120c BB130000 		.4byte	0x13bb
 4160 1210 29       		.uleb128 0x29
 4161 1211 01       		.uleb128 0x1
 4162 1212 50       		.byte	0x50
 4163 1213 01       		.uleb128 0x1
 4164 1214 3A       		.byte	0x3a
 4165 1215 00       		.byte	0
 4166 1216 00       		.byte	0
 4167 1217 33       		.uleb128 0x33
 4168 1218 CD060000 		.4byte	.LASF179
 4169 121c 01       		.byte	0x1
 4170 121d D5       		.byte	0xd5
 4171 121e 08       		.byte	0x8
 4172 121f 99000000 		.4byte	0x99
 4173 1223 00000000 		.4byte	.LFB1
 4174 1227 FC000000 		.4byte	.LFE1-.LFB1
 4175 122b 01       		.uleb128 0x1
 4176 122c 9C       		.byte	0x9c
 4177 122d C5120000 		.4byte	0x12c5
 4178 1231 34       		.uleb128 0x34
 4179 1232 22030000 		.4byte	.LASF176
ARM GAS  C:\Users\EDULU~1.DES\AppData\Local\Temp\ccOPPFV9.s 			page 104


 4180 1236 01       		.byte	0x1
 4181 1237 D5       		.byte	0xd5
 4182 1238 24       		.byte	0x24
 4183 1239 99000000 		.4byte	0x99
 4184 123d 3B070000 		.4byte	.LLST32
 4185 1241 29070000 		.4byte	.LVUS32
 4186 1245 34       		.uleb128 0x34
 4187 1246 70010000 		.4byte	.LASF180
 4188 124a 01       		.byte	0x1
 4189 124b D5       		.byte	0xd5
 4190 124c 3A       		.byte	0x3a
 4191 124d 3D0F0000 		.4byte	0xf3d
 4192 1251 BB070000 		.4byte	.LLST33
 4193 1255 A9070000 		.4byte	.LVUS33
 4194 1259 35       		.uleb128 0x35
 4195 125a 636E7400 		.ascii	"cnt\000"
 4196 125e 01       		.byte	0x1
 4197 125f D5       		.byte	0xd5
 4198 1260 49       		.byte	0x49
 4199 1261 99000000 		.4byte	0x99
 4200 1265 40080000 		.4byte	.LLST34
 4201 1269 30080000 		.4byte	.LVUS34
 4202 126d 34       		.uleb128 0x34
 4203 126e B1070000 		.4byte	.LASF181
 4204 1272 01       		.byte	0x1
 4205 1273 D5       		.byte	0xd5
 4206 1274 55       		.byte	0x55
 4207 1275 99000000 		.4byte	0x99
 4208 1279 B7080000 		.4byte	.LLST35
 4209 127d A3080000 		.4byte	.LVUS35
 4210 1281 36       		.uleb128 0x36
 4211 1282 FF030000 		.4byte	.LASF169
 4212 1286 01       		.byte	0x1
 4213 1287 D7       		.byte	0xd7
 4214 1288 0C       		.byte	0xc
 4215 1289 99000000 		.4byte	0x99
 4216 128d 41090000 		.4byte	.LLST36
 4217 1291 39090000 		.4byte	.LVUS36
 4218 1295 2C       		.uleb128 0x2c
 4219 1296 26000000 		.4byte	.LVL143
 4220 129a BB130000 		.4byte	0x13bb
 4221 129e A8120000 		.4byte	0x12a8
 4222 12a2 29       		.uleb128 0x29
 4223 12a3 01       		.uleb128 0x1
 4224 12a4 50       		.byte	0x50
 4225 12a5 01       		.uleb128 0x1
 4226 12a6 3A       		.byte	0x3a
 4227 12a7 00       		.byte	0
 4228 12a8 2C       		.uleb128 0x2c
 4229 12a9 30000000 		.4byte	.LVL147
 4230 12ad AF130000 		.4byte	0x13af
 4231 12b1 BB120000 		.4byte	0x12bb
 4232 12b5 29       		.uleb128 0x29
 4233 12b6 01       		.uleb128 0x1
 4234 12b7 50       		.byte	0x50
 4235 12b8 01       		.uleb128 0x1
 4236 12b9 3A       		.byte	0x3a
ARM GAS  C:\Users\EDULU~1.DES\AppData\Local\Temp\ccOPPFV9.s 			page 105


 4237 12ba 00       		.byte	0
 4238 12bb 2A       		.uleb128 0x2a
 4239 12bc B8000000 		.4byte	.LVL158
 4240 12c0 080C0000 		.4byte	0xc08
 4241 12c4 00       		.byte	0
 4242 12c5 33       		.uleb128 0x33
 4243 12c6 B4080000 		.4byte	.LASF182
 4244 12ca 01       		.byte	0x1
 4245 12cb 67       		.byte	0x67
 4246 12cc 08       		.byte	0x8
 4247 12cd 99000000 		.4byte	0x99
 4248 12d1 00000000 		.4byte	.LFB0
 4249 12d5 EC000000 		.4byte	.LFE0-.LFB0
 4250 12d9 01       		.uleb128 0x1
 4251 12da 9C       		.byte	0x9c
 4252 12db 73130000 		.4byte	0x1373
 4253 12df 34       		.uleb128 0x34
 4254 12e0 22030000 		.4byte	.LASF176
 4255 12e4 01       		.byte	0x1
 4256 12e5 67       		.byte	0x67
 4257 12e6 25       		.byte	0x25
 4258 12e7 99000000 		.4byte	0x99
 4259 12eb 8B090000 		.4byte	.LLST27
 4260 12ef 79090000 		.4byte	.LVUS27
 4261 12f3 34       		.uleb128 0x34
 4262 12f4 64080000 		.4byte	.LASF183
 4263 12f8 01       		.byte	0x1
 4264 12f9 67       		.byte	0x67
 4265 12fa 3B       		.byte	0x3b
 4266 12fb 3D0F0000 		.4byte	0xf3d
 4267 12ff 0F0A0000 		.4byte	.LLST28
 4268 1303 F9090000 		.4byte	.LVUS28
 4269 1307 35       		.uleb128 0x35
 4270 1308 636E7400 		.ascii	"cnt\000"
 4271 130c 01       		.byte	0x1
 4272 130d 67       		.byte	0x67
 4273 130e 4A       		.byte	0x4a
 4274 130f 99000000 		.4byte	0x99
 4275 1313 AC0A0000 		.4byte	.LLST29
 4276 1317 9C0A0000 		.4byte	.LVUS29
 4277 131b 34       		.uleb128 0x34
 4278 131c B1070000 		.4byte	.LASF181
 4279 1320 01       		.byte	0x1
 4280 1321 67       		.byte	0x67
 4281 1322 56       		.byte	0x56
 4282 1323 99000000 		.4byte	0x99
 4283 1327 190B0000 		.4byte	.LLST30
 4284 132b 0F0B0000 		.4byte	.LVUS30
 4285 132f 36       		.uleb128 0x36
 4286 1330 FF030000 		.4byte	.LASF169
 4287 1334 01       		.byte	0x1
 4288 1335 69       		.byte	0x69
 4289 1336 0C       		.byte	0xc
 4290 1337 99000000 		.4byte	0x99
 4291 133b 630B0000 		.4byte	.LLST31
 4292 133f 5B0B0000 		.4byte	.LVUS31
 4293 1343 2C       		.uleb128 0x2c
ARM GAS  C:\Users\EDULU~1.DES\AppData\Local\Temp\ccOPPFV9.s 			page 106


 4294 1344 26000000 		.4byte	.LVL120
 4295 1348 BB130000 		.4byte	0x13bb
 4296 134c 56130000 		.4byte	0x1356
 4297 1350 29       		.uleb128 0x29
 4298 1351 01       		.uleb128 0x1
 4299 1352 50       		.byte	0x50
 4300 1353 01       		.uleb128 0x1
 4301 1354 3A       		.byte	0x3a
 4302 1355 00       		.byte	0
 4303 1356 2C       		.uleb128 0x2c
 4304 1357 30000000 		.4byte	.LVL126
 4305 135b AF130000 		.4byte	0x13af
 4306 135f 69130000 		.4byte	0x1369
 4307 1363 29       		.uleb128 0x29
 4308 1364 01       		.uleb128 0x1
 4309 1365 50       		.byte	0x50
 4310 1366 01       		.uleb128 0x1
 4311 1367 3A       		.byte	0x3a
 4312 1368 00       		.byte	0
 4313 1369 2A       		.uleb128 0x2a
 4314 136a A2000000 		.4byte	.LVL136
 4315 136e 080C0000 		.4byte	0xc08
 4316 1372 00       		.byte	0
 4317 1373 37       		.uleb128 0x37
 4318 1374 90020000 		.4byte	.LASF184
 4319 1378 90020000 		.4byte	.LASF184
 4320 137c 08       		.byte	0x8
 4321 137d DA       		.byte	0xda
 4322 137e 07       		.byte	0x7
 4323 137f 37       		.uleb128 0x37
 4324 1380 A0090000 		.4byte	.LASF185
 4325 1384 A0090000 		.4byte	.LASF185
 4326 1388 0B       		.byte	0xb
 4327 1389 4D       		.byte	0x4d
 4328 138a 06       		.byte	0x6
 4329 138b 37       		.uleb128 0x37
 4330 138c 98070000 		.4byte	.LASF186
 4331 1390 98070000 		.4byte	.LASF186
 4332 1394 0C       		.byte	0xc
 4333 1395 32       		.byte	0x32
 4334 1396 09       		.byte	0x9
 4335 1397 37       		.uleb128 0x37
 4336 1398 78080000 		.4byte	.LASF187
 4337 139c 78080000 		.4byte	.LASF187
 4338 13a0 0D       		.byte	0xd
 4339 13a1 33       		.byte	0x33
 4340 13a2 09       		.byte	0x9
 4341 13a3 37       		.uleb128 0x37
 4342 13a4 93090000 		.4byte	.LASF188
 4343 13a8 93090000 		.4byte	.LASF188
 4344 13ac 0D       		.byte	0xd
 4345 13ad 32       		.byte	0x32
 4346 13ae 09       		.byte	0x9
 4347 13af 37       		.uleb128 0x37
 4348 13b0 B9010000 		.4byte	.LASF189
 4349 13b4 B9010000 		.4byte	.LASF189
 4350 13b8 08       		.byte	0x8
ARM GAS  C:\Users\EDULU~1.DES\AppData\Local\Temp\ccOPPFV9.s 			page 107


 4351 13b9 C5       		.byte	0xc5
 4352 13ba 08       		.byte	0x8
 4353 13bb 37       		.uleb128 0x37
 4354 13bc EF050000 		.4byte	.LASF190
 4355 13c0 EF050000 		.4byte	.LASF190
 4356 13c4 08       		.byte	0x8
 4357 13c5 C3       		.byte	0xc3
 4358 13c6 08       		.byte	0x8
 4359 13c7 00       		.byte	0
 4360              		.section	.debug_abbrev,"",%progbits
 4361              	.Ldebug_abbrev0:
 4362 0000 01       		.uleb128 0x1
 4363 0001 11       		.uleb128 0x11
 4364 0002 01       		.byte	0x1
 4365 0003 25       		.uleb128 0x25
 4366 0004 0E       		.uleb128 0xe
 4367 0005 13       		.uleb128 0x13
 4368 0006 0B       		.uleb128 0xb
 4369 0007 03       		.uleb128 0x3
 4370 0008 0E       		.uleb128 0xe
 4371 0009 1B       		.uleb128 0x1b
 4372 000a 0E       		.uleb128 0xe
 4373 000b 55       		.uleb128 0x55
 4374 000c 17       		.uleb128 0x17
 4375 000d 11       		.uleb128 0x11
 4376 000e 01       		.uleb128 0x1
 4377 000f 10       		.uleb128 0x10
 4378 0010 17       		.uleb128 0x17
 4379 0011 00       		.byte	0
 4380 0012 00       		.byte	0
 4381 0013 02       		.uleb128 0x2
 4382 0014 24       		.uleb128 0x24
 4383 0015 00       		.byte	0
 4384 0016 0B       		.uleb128 0xb
 4385 0017 0B       		.uleb128 0xb
 4386 0018 3E       		.uleb128 0x3e
 4387 0019 0B       		.uleb128 0xb
 4388 001a 03       		.uleb128 0x3
 4389 001b 0E       		.uleb128 0xe
 4390 001c 00       		.byte	0
 4391 001d 00       		.byte	0
 4392 001e 03       		.uleb128 0x3
 4393 001f 24       		.uleb128 0x24
 4394 0020 00       		.byte	0
 4395 0021 0B       		.uleb128 0xb
 4396 0022 0B       		.uleb128 0xb
 4397 0023 3E       		.uleb128 0x3e
 4398 0024 0B       		.uleb128 0xb
 4399 0025 03       		.uleb128 0x3
 4400 0026 08       		.uleb128 0x8
 4401 0027 00       		.byte	0
 4402 0028 00       		.byte	0
 4403 0029 04       		.uleb128 0x4
 4404 002a 16       		.uleb128 0x16
 4405 002b 00       		.byte	0
 4406 002c 03       		.uleb128 0x3
 4407 002d 0E       		.uleb128 0xe
ARM GAS  C:\Users\EDULU~1.DES\AppData\Local\Temp\ccOPPFV9.s 			page 108


 4408 002e 3A       		.uleb128 0x3a
 4409 002f 0B       		.uleb128 0xb
 4410 0030 3B       		.uleb128 0x3b
 4411 0031 05       		.uleb128 0x5
 4412 0032 39       		.uleb128 0x39
 4413 0033 0B       		.uleb128 0xb
 4414 0034 49       		.uleb128 0x49
 4415 0035 13       		.uleb128 0x13
 4416 0036 00       		.byte	0
 4417 0037 00       		.byte	0
 4418 0038 05       		.uleb128 0x5
 4419 0039 35       		.uleb128 0x35
 4420 003a 00       		.byte	0
 4421 003b 49       		.uleb128 0x49
 4422 003c 13       		.uleb128 0x13
 4423 003d 00       		.byte	0
 4424 003e 00       		.byte	0
 4425 003f 06       		.uleb128 0x6
 4426 0040 26       		.uleb128 0x26
 4427 0041 00       		.byte	0
 4428 0042 49       		.uleb128 0x49
 4429 0043 13       		.uleb128 0x13
 4430 0044 00       		.byte	0
 4431 0045 00       		.byte	0
 4432 0046 07       		.uleb128 0x7
 4433 0047 0F       		.uleb128 0xf
 4434 0048 00       		.byte	0
 4435 0049 0B       		.uleb128 0xb
 4436 004a 0B       		.uleb128 0xb
 4437 004b 49       		.uleb128 0x49
 4438 004c 13       		.uleb128 0x13
 4439 004d 00       		.byte	0
 4440 004e 00       		.byte	0
 4441 004f 08       		.uleb128 0x8
 4442 0050 15       		.uleb128 0x15
 4443 0051 00       		.byte	0
 4444 0052 27       		.uleb128 0x27
 4445 0053 19       		.uleb128 0x19
 4446 0054 00       		.byte	0
 4447 0055 00       		.byte	0
 4448 0056 09       		.uleb128 0x9
 4449 0057 16       		.uleb128 0x16
 4450 0058 00       		.byte	0
 4451 0059 03       		.uleb128 0x3
 4452 005a 0E       		.uleb128 0xe
 4453 005b 3A       		.uleb128 0x3a
 4454 005c 0B       		.uleb128 0xb
 4455 005d 3B       		.uleb128 0x3b
 4456 005e 0B       		.uleb128 0xb
 4457 005f 39       		.uleb128 0x39
 4458 0060 0B       		.uleb128 0xb
 4459 0061 49       		.uleb128 0x49
 4460 0062 13       		.uleb128 0x13
 4461 0063 00       		.byte	0
 4462 0064 00       		.byte	0
 4463 0065 0A       		.uleb128 0xa
 4464 0066 13       		.uleb128 0x13
ARM GAS  C:\Users\EDULU~1.DES\AppData\Local\Temp\ccOPPFV9.s 			page 109


 4465 0067 00       		.byte	0
 4466 0068 03       		.uleb128 0x3
 4467 0069 0E       		.uleb128 0xe
 4468 006a 3C       		.uleb128 0x3c
 4469 006b 19       		.uleb128 0x19
 4470 006c 00       		.byte	0
 4471 006d 00       		.byte	0
 4472 006e 0B       		.uleb128 0xb
 4473 006f 17       		.uleb128 0x17
 4474 0070 01       		.byte	0x1
 4475 0071 0B       		.uleb128 0xb
 4476 0072 0B       		.uleb128 0xb
 4477 0073 3A       		.uleb128 0x3a
 4478 0074 0B       		.uleb128 0xb
 4479 0075 3B       		.uleb128 0x3b
 4480 0076 0B       		.uleb128 0xb
 4481 0077 39       		.uleb128 0x39
 4482 0078 0B       		.uleb128 0xb
 4483 0079 01       		.uleb128 0x1
 4484 007a 13       		.uleb128 0x13
 4485 007b 00       		.byte	0
 4486 007c 00       		.byte	0
 4487 007d 0C       		.uleb128 0xc
 4488 007e 0D       		.uleb128 0xd
 4489 007f 00       		.byte	0
 4490 0080 03       		.uleb128 0x3
 4491 0081 0E       		.uleb128 0xe
 4492 0082 3A       		.uleb128 0x3a
 4493 0083 0B       		.uleb128 0xb
 4494 0084 3B       		.uleb128 0x3b
 4495 0085 0B       		.uleb128 0xb
 4496 0086 39       		.uleb128 0x39
 4497 0087 0B       		.uleb128 0xb
 4498 0088 49       		.uleb128 0x49
 4499 0089 13       		.uleb128 0x13
 4500 008a 00       		.byte	0
 4501 008b 00       		.byte	0
 4502 008c 0D       		.uleb128 0xd
 4503 008d 01       		.uleb128 0x1
 4504 008e 01       		.byte	0x1
 4505 008f 49       		.uleb128 0x49
 4506 0090 13       		.uleb128 0x13
 4507 0091 01       		.uleb128 0x1
 4508 0092 13       		.uleb128 0x13
 4509 0093 00       		.byte	0
 4510 0094 00       		.byte	0
 4511 0095 0E       		.uleb128 0xe
 4512 0096 21       		.uleb128 0x21
 4513 0097 00       		.byte	0
 4514 0098 49       		.uleb128 0x49
 4515 0099 13       		.uleb128 0x13
 4516 009a 2F       		.uleb128 0x2f
 4517 009b 0B       		.uleb128 0xb
 4518 009c 00       		.byte	0
 4519 009d 00       		.byte	0
 4520 009e 0F       		.uleb128 0xf
 4521 009f 13       		.uleb128 0x13
ARM GAS  C:\Users\EDULU~1.DES\AppData\Local\Temp\ccOPPFV9.s 			page 110


 4522 00a0 01       		.byte	0x1
 4523 00a1 0B       		.uleb128 0xb
 4524 00a2 0B       		.uleb128 0xb
 4525 00a3 3A       		.uleb128 0x3a
 4526 00a4 0B       		.uleb128 0xb
 4527 00a5 3B       		.uleb128 0x3b
 4528 00a6 0B       		.uleb128 0xb
 4529 00a7 39       		.uleb128 0x39
 4530 00a8 0B       		.uleb128 0xb
 4531 00a9 01       		.uleb128 0x1
 4532 00aa 13       		.uleb128 0x13
 4533 00ab 00       		.byte	0
 4534 00ac 00       		.byte	0
 4535 00ad 10       		.uleb128 0x10
 4536 00ae 0D       		.uleb128 0xd
 4537 00af 00       		.byte	0
 4538 00b0 03       		.uleb128 0x3
 4539 00b1 0E       		.uleb128 0xe
 4540 00b2 3A       		.uleb128 0x3a
 4541 00b3 0B       		.uleb128 0xb
 4542 00b4 3B       		.uleb128 0x3b
 4543 00b5 0B       		.uleb128 0xb
 4544 00b6 39       		.uleb128 0x39
 4545 00b7 0B       		.uleb128 0xb
 4546 00b8 49       		.uleb128 0x49
 4547 00b9 13       		.uleb128 0x13
 4548 00ba 38       		.uleb128 0x38
 4549 00bb 0B       		.uleb128 0xb
 4550 00bc 00       		.byte	0
 4551 00bd 00       		.byte	0
 4552 00be 11       		.uleb128 0x11
 4553 00bf 0F       		.uleb128 0xf
 4554 00c0 00       		.byte	0
 4555 00c1 0B       		.uleb128 0xb
 4556 00c2 0B       		.uleb128 0xb
 4557 00c3 00       		.byte	0
 4558 00c4 00       		.byte	0
 4559 00c5 12       		.uleb128 0x12
 4560 00c6 13       		.uleb128 0x13
 4561 00c7 01       		.byte	0x1
 4562 00c8 03       		.uleb128 0x3
 4563 00c9 0E       		.uleb128 0xe
 4564 00ca 0B       		.uleb128 0xb
 4565 00cb 0B       		.uleb128 0xb
 4566 00cc 3A       		.uleb128 0x3a
 4567 00cd 0B       		.uleb128 0xb
 4568 00ce 3B       		.uleb128 0x3b
 4569 00cf 0B       		.uleb128 0xb
 4570 00d0 39       		.uleb128 0x39
 4571 00d1 0B       		.uleb128 0xb
 4572 00d2 01       		.uleb128 0x1
 4573 00d3 13       		.uleb128 0x13
 4574 00d4 00       		.byte	0
 4575 00d5 00       		.byte	0
 4576 00d6 13       		.uleb128 0x13
 4577 00d7 0D       		.uleb128 0xd
 4578 00d8 00       		.byte	0
ARM GAS  C:\Users\EDULU~1.DES\AppData\Local\Temp\ccOPPFV9.s 			page 111


 4579 00d9 03       		.uleb128 0x3
 4580 00da 08       		.uleb128 0x8
 4581 00db 3A       		.uleb128 0x3a
 4582 00dc 0B       		.uleb128 0xb
 4583 00dd 3B       		.uleb128 0x3b
 4584 00de 0B       		.uleb128 0xb
 4585 00df 39       		.uleb128 0x39
 4586 00e0 0B       		.uleb128 0xb
 4587 00e1 49       		.uleb128 0x49
 4588 00e2 13       		.uleb128 0x13
 4589 00e3 38       		.uleb128 0x38
 4590 00e4 0B       		.uleb128 0xb
 4591 00e5 00       		.byte	0
 4592 00e6 00       		.byte	0
 4593 00e7 14       		.uleb128 0x14
 4594 00e8 13       		.uleb128 0x13
 4595 00e9 01       		.byte	0x1
 4596 00ea 03       		.uleb128 0x3
 4597 00eb 0E       		.uleb128 0xe
 4598 00ec 0B       		.uleb128 0xb
 4599 00ed 05       		.uleb128 0x5
 4600 00ee 3A       		.uleb128 0x3a
 4601 00ef 0B       		.uleb128 0xb
 4602 00f0 3B       		.uleb128 0x3b
 4603 00f1 0B       		.uleb128 0xb
 4604 00f2 39       		.uleb128 0x39
 4605 00f3 0B       		.uleb128 0xb
 4606 00f4 01       		.uleb128 0x1
 4607 00f5 13       		.uleb128 0x13
 4608 00f6 00       		.byte	0
 4609 00f7 00       		.byte	0
 4610 00f8 15       		.uleb128 0x15
 4611 00f9 0D       		.uleb128 0xd
 4612 00fa 00       		.byte	0
 4613 00fb 03       		.uleb128 0x3
 4614 00fc 0E       		.uleb128 0xe
 4615 00fd 3A       		.uleb128 0x3a
 4616 00fe 0B       		.uleb128 0xb
 4617 00ff 3B       		.uleb128 0x3b
 4618 0100 0B       		.uleb128 0xb
 4619 0101 39       		.uleb128 0x39
 4620 0102 0B       		.uleb128 0xb
 4621 0103 49       		.uleb128 0x49
 4622 0104 13       		.uleb128 0x13
 4623 0105 38       		.uleb128 0x38
 4624 0106 05       		.uleb128 0x5
 4625 0107 00       		.byte	0
 4626 0108 00       		.byte	0
 4627 0109 16       		.uleb128 0x16
 4628 010a 15       		.uleb128 0x15
 4629 010b 01       		.byte	0x1
 4630 010c 27       		.uleb128 0x27
 4631 010d 19       		.uleb128 0x19
 4632 010e 49       		.uleb128 0x49
 4633 010f 13       		.uleb128 0x13
 4634 0110 01       		.uleb128 0x1
 4635 0111 13       		.uleb128 0x13
ARM GAS  C:\Users\EDULU~1.DES\AppData\Local\Temp\ccOPPFV9.s 			page 112


 4636 0112 00       		.byte	0
 4637 0113 00       		.byte	0
 4638 0114 17       		.uleb128 0x17
 4639 0115 05       		.uleb128 0x5
 4640 0116 00       		.byte	0
 4641 0117 49       		.uleb128 0x49
 4642 0118 13       		.uleb128 0x13
 4643 0119 00       		.byte	0
 4644 011a 00       		.byte	0
 4645 011b 18       		.uleb128 0x18
 4646 011c 13       		.uleb128 0x13
 4647 011d 01       		.byte	0x1
 4648 011e 03       		.uleb128 0x3
 4649 011f 0E       		.uleb128 0xe
 4650 0120 0B       		.uleb128 0xb
 4651 0121 05       		.uleb128 0x5
 4652 0122 3A       		.uleb128 0x3a
 4653 0123 0B       		.uleb128 0xb
 4654 0124 3B       		.uleb128 0x3b
 4655 0125 05       		.uleb128 0x5
 4656 0126 39       		.uleb128 0x39
 4657 0127 0B       		.uleb128 0xb
 4658 0128 01       		.uleb128 0x1
 4659 0129 13       		.uleb128 0x13
 4660 012a 00       		.byte	0
 4661 012b 00       		.byte	0
 4662 012c 19       		.uleb128 0x19
 4663 012d 0D       		.uleb128 0xd
 4664 012e 00       		.byte	0
 4665 012f 03       		.uleb128 0x3
 4666 0130 0E       		.uleb128 0xe
 4667 0131 3A       		.uleb128 0x3a
 4668 0132 0B       		.uleb128 0xb
 4669 0133 3B       		.uleb128 0x3b
 4670 0134 05       		.uleb128 0x5
 4671 0135 39       		.uleb128 0x39
 4672 0136 0B       		.uleb128 0xb
 4673 0137 49       		.uleb128 0x49
 4674 0138 13       		.uleb128 0x13
 4675 0139 38       		.uleb128 0x38
 4676 013a 0B       		.uleb128 0xb
 4677 013b 00       		.byte	0
 4678 013c 00       		.byte	0
 4679 013d 1A       		.uleb128 0x1a
 4680 013e 0D       		.uleb128 0xd
 4681 013f 00       		.byte	0
 4682 0140 03       		.uleb128 0x3
 4683 0141 0E       		.uleb128 0xe
 4684 0142 3A       		.uleb128 0x3a
 4685 0143 0B       		.uleb128 0xb
 4686 0144 3B       		.uleb128 0x3b
 4687 0145 05       		.uleb128 0x5
 4688 0146 39       		.uleb128 0x39
 4689 0147 0B       		.uleb128 0xb
 4690 0148 49       		.uleb128 0x49
 4691 0149 13       		.uleb128 0x13
 4692 014a 38       		.uleb128 0x38
ARM GAS  C:\Users\EDULU~1.DES\AppData\Local\Temp\ccOPPFV9.s 			page 113


 4693 014b 05       		.uleb128 0x5
 4694 014c 00       		.byte	0
 4695 014d 00       		.byte	0
 4696 014e 1B       		.uleb128 0x1b
 4697 014f 13       		.uleb128 0x13
 4698 0150 01       		.byte	0x1
 4699 0151 03       		.uleb128 0x3
 4700 0152 0E       		.uleb128 0xe
 4701 0153 0B       		.uleb128 0xb
 4702 0154 0B       		.uleb128 0xb
 4703 0155 3A       		.uleb128 0x3a
 4704 0156 0B       		.uleb128 0xb
 4705 0157 3B       		.uleb128 0x3b
 4706 0158 05       		.uleb128 0x5
 4707 0159 39       		.uleb128 0x39
 4708 015a 0B       		.uleb128 0xb
 4709 015b 01       		.uleb128 0x1
 4710 015c 13       		.uleb128 0x13
 4711 015d 00       		.byte	0
 4712 015e 00       		.byte	0
 4713 015f 1C       		.uleb128 0x1c
 4714 0160 13       		.uleb128 0x13
 4715 0161 01       		.byte	0x1
 4716 0162 0B       		.uleb128 0xb
 4717 0163 0B       		.uleb128 0xb
 4718 0164 3A       		.uleb128 0x3a
 4719 0165 0B       		.uleb128 0xb
 4720 0166 3B       		.uleb128 0x3b
 4721 0167 05       		.uleb128 0x5
 4722 0168 39       		.uleb128 0x39
 4723 0169 0B       		.uleb128 0xb
 4724 016a 01       		.uleb128 0x1
 4725 016b 13       		.uleb128 0x13
 4726 016c 00       		.byte	0
 4727 016d 00       		.byte	0
 4728 016e 1D       		.uleb128 0x1d
 4729 016f 17       		.uleb128 0x17
 4730 0170 01       		.byte	0x1
 4731 0171 0B       		.uleb128 0xb
 4732 0172 0B       		.uleb128 0xb
 4733 0173 3A       		.uleb128 0x3a
 4734 0174 0B       		.uleb128 0xb
 4735 0175 3B       		.uleb128 0x3b
 4736 0176 05       		.uleb128 0x5
 4737 0177 39       		.uleb128 0x39
 4738 0178 0B       		.uleb128 0xb
 4739 0179 01       		.uleb128 0x1
 4740 017a 13       		.uleb128 0x13
 4741 017b 00       		.byte	0
 4742 017c 00       		.byte	0
 4743 017d 1E       		.uleb128 0x1e
 4744 017e 0D       		.uleb128 0xd
 4745 017f 00       		.byte	0
 4746 0180 03       		.uleb128 0x3
 4747 0181 0E       		.uleb128 0xe
 4748 0182 3A       		.uleb128 0x3a
 4749 0183 0B       		.uleb128 0xb
ARM GAS  C:\Users\EDULU~1.DES\AppData\Local\Temp\ccOPPFV9.s 			page 114


 4750 0184 3B       		.uleb128 0x3b
 4751 0185 05       		.uleb128 0x5
 4752 0186 39       		.uleb128 0x39
 4753 0187 0B       		.uleb128 0xb
 4754 0188 49       		.uleb128 0x49
 4755 0189 13       		.uleb128 0x13
 4756 018a 00       		.byte	0
 4757 018b 00       		.byte	0
 4758 018c 1F       		.uleb128 0x1f
 4759 018d 15       		.uleb128 0x15
 4760 018e 01       		.byte	0x1
 4761 018f 27       		.uleb128 0x27
 4762 0190 19       		.uleb128 0x19
 4763 0191 01       		.uleb128 0x1
 4764 0192 13       		.uleb128 0x13
 4765 0193 00       		.byte	0
 4766 0194 00       		.byte	0
 4767 0195 20       		.uleb128 0x20
 4768 0196 34       		.uleb128 0x34
 4769 0197 00       		.byte	0
 4770 0198 03       		.uleb128 0x3
 4771 0199 0E       		.uleb128 0xe
 4772 019a 3A       		.uleb128 0x3a
 4773 019b 0B       		.uleb128 0xb
 4774 019c 3B       		.uleb128 0x3b
 4775 019d 05       		.uleb128 0x5
 4776 019e 39       		.uleb128 0x39
 4777 019f 0B       		.uleb128 0xb
 4778 01a0 49       		.uleb128 0x49
 4779 01a1 13       		.uleb128 0x13
 4780 01a2 3F       		.uleb128 0x3f
 4781 01a3 19       		.uleb128 0x19
 4782 01a4 3C       		.uleb128 0x3c
 4783 01a5 19       		.uleb128 0x19
 4784 01a6 00       		.byte	0
 4785 01a7 00       		.byte	0
 4786 01a8 21       		.uleb128 0x21
 4787 01a9 21       		.uleb128 0x21
 4788 01aa 00       		.byte	0
 4789 01ab 00       		.byte	0
 4790 01ac 00       		.byte	0
 4791 01ad 22       		.uleb128 0x22
 4792 01ae 34       		.uleb128 0x34
 4793 01af 00       		.byte	0
 4794 01b0 03       		.uleb128 0x3
 4795 01b1 0E       		.uleb128 0xe
 4796 01b2 3A       		.uleb128 0x3a
 4797 01b3 0B       		.uleb128 0xb
 4798 01b4 3B       		.uleb128 0x3b
 4799 01b5 0B       		.uleb128 0xb
 4800 01b6 39       		.uleb128 0x39
 4801 01b7 0B       		.uleb128 0xb
 4802 01b8 49       		.uleb128 0x49
 4803 01b9 13       		.uleb128 0x13
 4804 01ba 3F       		.uleb128 0x3f
 4805 01bb 19       		.uleb128 0x19
 4806 01bc 3C       		.uleb128 0x3c
ARM GAS  C:\Users\EDULU~1.DES\AppData\Local\Temp\ccOPPFV9.s 			page 115


 4807 01bd 19       		.uleb128 0x19
 4808 01be 00       		.byte	0
 4809 01bf 00       		.byte	0
 4810 01c0 23       		.uleb128 0x23
 4811 01c1 34       		.uleb128 0x34
 4812 01c2 00       		.byte	0
 4813 01c3 47       		.uleb128 0x47
 4814 01c4 13       		.uleb128 0x13
 4815 01c5 3A       		.uleb128 0x3a
 4816 01c6 0B       		.uleb128 0xb
 4817 01c7 3B       		.uleb128 0x3b
 4818 01c8 0B       		.uleb128 0xb
 4819 01c9 39       		.uleb128 0x39
 4820 01ca 0B       		.uleb128 0xb
 4821 01cb 02       		.uleb128 0x2
 4822 01cc 18       		.uleb128 0x18
 4823 01cd 00       		.byte	0
 4824 01ce 00       		.byte	0
 4825 01cf 24       		.uleb128 0x24
 4826 01d0 2E       		.uleb128 0x2e
 4827 01d1 01       		.byte	0x1
 4828 01d2 03       		.uleb128 0x3
 4829 01d3 0E       		.uleb128 0xe
 4830 01d4 3A       		.uleb128 0x3a
 4831 01d5 0B       		.uleb128 0xb
 4832 01d6 3B       		.uleb128 0x3b
 4833 01d7 05       		.uleb128 0x5
 4834 01d8 39       		.uleb128 0x39
 4835 01d9 0B       		.uleb128 0xb
 4836 01da 27       		.uleb128 0x27
 4837 01db 19       		.uleb128 0x19
 4838 01dc 49       		.uleb128 0x49
 4839 01dd 13       		.uleb128 0x13
 4840 01de 11       		.uleb128 0x11
 4841 01df 01       		.uleb128 0x1
 4842 01e0 12       		.uleb128 0x12
 4843 01e1 06       		.uleb128 0x6
 4844 01e2 40       		.uleb128 0x40
 4845 01e3 18       		.uleb128 0x18
 4846 01e4 9742     		.uleb128 0x2117
 4847 01e6 19       		.uleb128 0x19
 4848 01e7 01       		.uleb128 0x1
 4849 01e8 13       		.uleb128 0x13
 4850 01e9 00       		.byte	0
 4851 01ea 00       		.byte	0
 4852 01eb 25       		.uleb128 0x25
 4853 01ec 05       		.uleb128 0x5
 4854 01ed 00       		.byte	0
 4855 01ee 03       		.uleb128 0x3
 4856 01ef 0E       		.uleb128 0xe
 4857 01f0 3A       		.uleb128 0x3a
 4858 01f1 0B       		.uleb128 0xb
 4859 01f2 3B       		.uleb128 0x3b
 4860 01f3 05       		.uleb128 0x5
 4861 01f4 39       		.uleb128 0x39
 4862 01f5 0B       		.uleb128 0xb
 4863 01f6 49       		.uleb128 0x49
ARM GAS  C:\Users\EDULU~1.DES\AppData\Local\Temp\ccOPPFV9.s 			page 116


 4864 01f7 13       		.uleb128 0x13
 4865 01f8 02       		.uleb128 0x2
 4866 01f9 17       		.uleb128 0x17
 4867 01fa B742     		.uleb128 0x2137
 4868 01fc 17       		.uleb128 0x17
 4869 01fd 00       		.byte	0
 4870 01fe 00       		.byte	0
 4871 01ff 26       		.uleb128 0x26
 4872 0200 34       		.uleb128 0x34
 4873 0201 00       		.byte	0
 4874 0202 03       		.uleb128 0x3
 4875 0203 0E       		.uleb128 0xe
 4876 0204 3A       		.uleb128 0x3a
 4877 0205 0B       		.uleb128 0xb
 4878 0206 3B       		.uleb128 0x3b
 4879 0207 05       		.uleb128 0x5
 4880 0208 39       		.uleb128 0x39
 4881 0209 0B       		.uleb128 0xb
 4882 020a 49       		.uleb128 0x49
 4883 020b 13       		.uleb128 0x13
 4884 020c 1C       		.uleb128 0x1c
 4885 020d 0B       		.uleb128 0xb
 4886 020e 00       		.byte	0
 4887 020f 00       		.byte	0
 4888 0210 27       		.uleb128 0x27
 4889 0211 34       		.uleb128 0x34
 4890 0212 00       		.byte	0
 4891 0213 03       		.uleb128 0x3
 4892 0214 0E       		.uleb128 0xe
 4893 0215 3A       		.uleb128 0x3a
 4894 0216 0B       		.uleb128 0xb
 4895 0217 3B       		.uleb128 0x3b
 4896 0218 05       		.uleb128 0x5
 4897 0219 39       		.uleb128 0x39
 4898 021a 0B       		.uleb128 0xb
 4899 021b 49       		.uleb128 0x49
 4900 021c 13       		.uleb128 0x13
 4901 021d 02       		.uleb128 0x2
 4902 021e 17       		.uleb128 0x17
 4903 021f B742     		.uleb128 0x2137
 4904 0221 17       		.uleb128 0x17
 4905 0222 00       		.byte	0
 4906 0223 00       		.byte	0
 4907 0224 28       		.uleb128 0x28
 4908 0225 898201   		.uleb128 0x4109
 4909 0228 01       		.byte	0x1
 4910 0229 11       		.uleb128 0x11
 4911 022a 01       		.uleb128 0x1
 4912 022b 31       		.uleb128 0x31
 4913 022c 13       		.uleb128 0x13
 4914 022d 00       		.byte	0
 4915 022e 00       		.byte	0
 4916 022f 29       		.uleb128 0x29
 4917 0230 8A8201   		.uleb128 0x410a
 4918 0233 00       		.byte	0
 4919 0234 02       		.uleb128 0x2
 4920 0235 18       		.uleb128 0x18
ARM GAS  C:\Users\EDULU~1.DES\AppData\Local\Temp\ccOPPFV9.s 			page 117


 4921 0236 9142     		.uleb128 0x2111
 4922 0238 18       		.uleb128 0x18
 4923 0239 00       		.byte	0
 4924 023a 00       		.byte	0
 4925 023b 2A       		.uleb128 0x2a
 4926 023c 898201   		.uleb128 0x4109
 4927 023f 00       		.byte	0
 4928 0240 11       		.uleb128 0x11
 4929 0241 01       		.uleb128 0x1
 4930 0242 31       		.uleb128 0x31
 4931 0243 13       		.uleb128 0x13
 4932 0244 00       		.byte	0
 4933 0245 00       		.byte	0
 4934 0246 2B       		.uleb128 0x2b
 4935 0247 2E       		.uleb128 0x2e
 4936 0248 01       		.byte	0x1
 4937 0249 3F       		.uleb128 0x3f
 4938 024a 19       		.uleb128 0x19
 4939 024b 03       		.uleb128 0x3
 4940 024c 0E       		.uleb128 0xe
 4941 024d 3A       		.uleb128 0x3a
 4942 024e 0B       		.uleb128 0xb
 4943 024f 3B       		.uleb128 0x3b
 4944 0250 05       		.uleb128 0x5
 4945 0251 39       		.uleb128 0x39
 4946 0252 0B       		.uleb128 0xb
 4947 0253 27       		.uleb128 0x27
 4948 0254 19       		.uleb128 0x19
 4949 0255 11       		.uleb128 0x11
 4950 0256 01       		.uleb128 0x1
 4951 0257 12       		.uleb128 0x12
 4952 0258 06       		.uleb128 0x6
 4953 0259 40       		.uleb128 0x40
 4954 025a 18       		.uleb128 0x18
 4955 025b 9742     		.uleb128 0x2117
 4956 025d 19       		.uleb128 0x19
 4957 025e 01       		.uleb128 0x1
 4958 025f 13       		.uleb128 0x13
 4959 0260 00       		.byte	0
 4960 0261 00       		.byte	0
 4961 0262 2C       		.uleb128 0x2c
 4962 0263 898201   		.uleb128 0x4109
 4963 0266 01       		.byte	0x1
 4964 0267 11       		.uleb128 0x11
 4965 0268 01       		.uleb128 0x1
 4966 0269 31       		.uleb128 0x31
 4967 026a 13       		.uleb128 0x13
 4968 026b 01       		.uleb128 0x1
 4969 026c 13       		.uleb128 0x13
 4970 026d 00       		.byte	0
 4971 026e 00       		.byte	0
 4972 026f 2D       		.uleb128 0x2d
 4973 0270 2E       		.uleb128 0x2e
 4974 0271 01       		.byte	0x1
 4975 0272 3F       		.uleb128 0x3f
 4976 0273 19       		.uleb128 0x19
 4977 0274 03       		.uleb128 0x3
ARM GAS  C:\Users\EDULU~1.DES\AppData\Local\Temp\ccOPPFV9.s 			page 118


 4978 0275 0E       		.uleb128 0xe
 4979 0276 3A       		.uleb128 0x3a
 4980 0277 0B       		.uleb128 0xb
 4981 0278 3B       		.uleb128 0x3b
 4982 0279 05       		.uleb128 0x5
 4983 027a 39       		.uleb128 0x39
 4984 027b 0B       		.uleb128 0xb
 4985 027c 27       		.uleb128 0x27
 4986 027d 19       		.uleb128 0x19
 4987 027e 49       		.uleb128 0x49
 4988 027f 13       		.uleb128 0x13
 4989 0280 11       		.uleb128 0x11
 4990 0281 01       		.uleb128 0x1
 4991 0282 12       		.uleb128 0x12
 4992 0283 06       		.uleb128 0x6
 4993 0284 40       		.uleb128 0x40
 4994 0285 18       		.uleb128 0x18
 4995 0286 9742     		.uleb128 0x2117
 4996 0288 19       		.uleb128 0x19
 4997 0289 01       		.uleb128 0x1
 4998 028a 13       		.uleb128 0x13
 4999 028b 00       		.byte	0
 5000 028c 00       		.byte	0
 5001 028d 2E       		.uleb128 0x2e
 5002 028e 2E       		.uleb128 0x2e
 5003 028f 00       		.byte	0
 5004 0290 3F       		.uleb128 0x3f
 5005 0291 19       		.uleb128 0x19
 5006 0292 03       		.uleb128 0x3
 5007 0293 0E       		.uleb128 0xe
 5008 0294 3A       		.uleb128 0x3a
 5009 0295 0B       		.uleb128 0xb
 5010 0296 3B       		.uleb128 0x3b
 5011 0297 05       		.uleb128 0x5
 5012 0298 39       		.uleb128 0x39
 5013 0299 0B       		.uleb128 0xb
 5014 029a 27       		.uleb128 0x27
 5015 029b 19       		.uleb128 0x19
 5016 029c 49       		.uleb128 0x49
 5017 029d 13       		.uleb128 0x13
 5018 029e 11       		.uleb128 0x11
 5019 029f 01       		.uleb128 0x1
 5020 02a0 12       		.uleb128 0x12
 5021 02a1 06       		.uleb128 0x6
 5022 02a2 40       		.uleb128 0x40
 5023 02a3 18       		.uleb128 0x18
 5024 02a4 9742     		.uleb128 0x2117
 5025 02a6 19       		.uleb128 0x19
 5026 02a7 00       		.byte	0
 5027 02a8 00       		.byte	0
 5028 02a9 2F       		.uleb128 0x2f
 5029 02aa 0B       		.uleb128 0xb
 5030 02ab 01       		.byte	0x1
 5031 02ac 11       		.uleb128 0x11
 5032 02ad 01       		.uleb128 0x1
 5033 02ae 12       		.uleb128 0x12
 5034 02af 06       		.uleb128 0x6
ARM GAS  C:\Users\EDULU~1.DES\AppData\Local\Temp\ccOPPFV9.s 			page 119


 5035 02b0 00       		.byte	0
 5036 02b1 00       		.byte	0
 5037 02b2 30       		.uleb128 0x30
 5038 02b3 34       		.uleb128 0x34
 5039 02b4 00       		.byte	0
 5040 02b5 03       		.uleb128 0x3
 5041 02b6 0E       		.uleb128 0xe
 5042 02b7 3A       		.uleb128 0x3a
 5043 02b8 0B       		.uleb128 0xb
 5044 02b9 3B       		.uleb128 0x3b
 5045 02ba 05       		.uleb128 0x5
 5046 02bb 39       		.uleb128 0x39
 5047 02bc 0B       		.uleb128 0xb
 5048 02bd 49       		.uleb128 0x49
 5049 02be 13       		.uleb128 0x13
 5050 02bf 02       		.uleb128 0x2
 5051 02c0 18       		.uleb128 0x18
 5052 02c1 00       		.byte	0
 5053 02c2 00       		.byte	0
 5054 02c3 31       		.uleb128 0x31
 5055 02c4 0B       		.uleb128 0xb
 5056 02c5 01       		.byte	0x1
 5057 02c6 55       		.uleb128 0x55
 5058 02c7 17       		.uleb128 0x17
 5059 02c8 00       		.byte	0
 5060 02c9 00       		.byte	0
 5061 02ca 32       		.uleb128 0x32
 5062 02cb 0B       		.uleb128 0xb
 5063 02cc 01       		.byte	0x1
 5064 02cd 55       		.uleb128 0x55
 5065 02ce 17       		.uleb128 0x17
 5066 02cf 01       		.uleb128 0x1
 5067 02d0 13       		.uleb128 0x13
 5068 02d1 00       		.byte	0
 5069 02d2 00       		.byte	0
 5070 02d3 33       		.uleb128 0x33
 5071 02d4 2E       		.uleb128 0x2e
 5072 02d5 01       		.byte	0x1
 5073 02d6 3F       		.uleb128 0x3f
 5074 02d7 19       		.uleb128 0x19
 5075 02d8 03       		.uleb128 0x3
 5076 02d9 0E       		.uleb128 0xe
 5077 02da 3A       		.uleb128 0x3a
 5078 02db 0B       		.uleb128 0xb
 5079 02dc 3B       		.uleb128 0x3b
 5080 02dd 0B       		.uleb128 0xb
 5081 02de 39       		.uleb128 0x39
 5082 02df 0B       		.uleb128 0xb
 5083 02e0 27       		.uleb128 0x27
 5084 02e1 19       		.uleb128 0x19
 5085 02e2 49       		.uleb128 0x49
 5086 02e3 13       		.uleb128 0x13
 5087 02e4 11       		.uleb128 0x11
 5088 02e5 01       		.uleb128 0x1
 5089 02e6 12       		.uleb128 0x12
 5090 02e7 06       		.uleb128 0x6
 5091 02e8 40       		.uleb128 0x40
ARM GAS  C:\Users\EDULU~1.DES\AppData\Local\Temp\ccOPPFV9.s 			page 120


 5092 02e9 18       		.uleb128 0x18
 5093 02ea 9742     		.uleb128 0x2117
 5094 02ec 19       		.uleb128 0x19
 5095 02ed 01       		.uleb128 0x1
 5096 02ee 13       		.uleb128 0x13
 5097 02ef 00       		.byte	0
 5098 02f0 00       		.byte	0
 5099 02f1 34       		.uleb128 0x34
 5100 02f2 05       		.uleb128 0x5
 5101 02f3 00       		.byte	0
 5102 02f4 03       		.uleb128 0x3
 5103 02f5 0E       		.uleb128 0xe
 5104 02f6 3A       		.uleb128 0x3a
 5105 02f7 0B       		.uleb128 0xb
 5106 02f8 3B       		.uleb128 0x3b
 5107 02f9 0B       		.uleb128 0xb
 5108 02fa 39       		.uleb128 0x39
 5109 02fb 0B       		.uleb128 0xb
 5110 02fc 49       		.uleb128 0x49
 5111 02fd 13       		.uleb128 0x13
 5112 02fe 02       		.uleb128 0x2
 5113 02ff 17       		.uleb128 0x17
 5114 0300 B742     		.uleb128 0x2137
 5115 0302 17       		.uleb128 0x17
 5116 0303 00       		.byte	0
 5117 0304 00       		.byte	0
 5118 0305 35       		.uleb128 0x35
 5119 0306 05       		.uleb128 0x5
 5120 0307 00       		.byte	0
 5121 0308 03       		.uleb128 0x3
 5122 0309 08       		.uleb128 0x8
 5123 030a 3A       		.uleb128 0x3a
 5124 030b 0B       		.uleb128 0xb
 5125 030c 3B       		.uleb128 0x3b
 5126 030d 0B       		.uleb128 0xb
 5127 030e 39       		.uleb128 0x39
 5128 030f 0B       		.uleb128 0xb
 5129 0310 49       		.uleb128 0x49
 5130 0311 13       		.uleb128 0x13
 5131 0312 02       		.uleb128 0x2
 5132 0313 17       		.uleb128 0x17
 5133 0314 B742     		.uleb128 0x2137
 5134 0316 17       		.uleb128 0x17
 5135 0317 00       		.byte	0
 5136 0318 00       		.byte	0
 5137 0319 36       		.uleb128 0x36
 5138 031a 34       		.uleb128 0x34
 5139 031b 00       		.byte	0
 5140 031c 03       		.uleb128 0x3
 5141 031d 0E       		.uleb128 0xe
 5142 031e 3A       		.uleb128 0x3a
 5143 031f 0B       		.uleb128 0xb
 5144 0320 3B       		.uleb128 0x3b
 5145 0321 0B       		.uleb128 0xb
 5146 0322 39       		.uleb128 0x39
 5147 0323 0B       		.uleb128 0xb
 5148 0324 49       		.uleb128 0x49
ARM GAS  C:\Users\EDULU~1.DES\AppData\Local\Temp\ccOPPFV9.s 			page 121


 5149 0325 13       		.uleb128 0x13
 5150 0326 02       		.uleb128 0x2
 5151 0327 17       		.uleb128 0x17
 5152 0328 B742     		.uleb128 0x2137
 5153 032a 17       		.uleb128 0x17
 5154 032b 00       		.byte	0
 5155 032c 00       		.byte	0
 5156 032d 37       		.uleb128 0x37
 5157 032e 2E       		.uleb128 0x2e
 5158 032f 00       		.byte	0
 5159 0330 3F       		.uleb128 0x3f
 5160 0331 19       		.uleb128 0x19
 5161 0332 3C       		.uleb128 0x3c
 5162 0333 19       		.uleb128 0x19
 5163 0334 6E       		.uleb128 0x6e
 5164 0335 0E       		.uleb128 0xe
 5165 0336 03       		.uleb128 0x3
 5166 0337 0E       		.uleb128 0xe
 5167 0338 3A       		.uleb128 0x3a
 5168 0339 0B       		.uleb128 0xb
 5169 033a 3B       		.uleb128 0x3b
 5170 033b 0B       		.uleb128 0xb
 5171 033c 39       		.uleb128 0x39
 5172 033d 0B       		.uleb128 0xb
 5173 033e 00       		.byte	0
 5174 033f 00       		.byte	0
 5175 0340 00       		.byte	0
 5176              		.section	.debug_loc,"",%progbits
 5177              	.Ldebug_loc0:
 5178              	.LVUS0:
 5179 0000 00       		.uleb128 0
 5180 0001 00       		.uleb128 .LVU6
 5181 0002 00       		.uleb128 .LVU6
 5182 0003 01       		.uleb128 .LVU8
 5183 0004 01       		.uleb128 .LVU8
 5184 0005 00       		.uleb128 .LVU9
 5185 0006 00       		.uleb128 .LVU9
 5186 0007 00       		.uleb128 0
 5187              	.LLST0:
 5188 0008 00000000 		.4byte	.LVL0
 5189 000c 06000000 		.4byte	.LVL2
 5190 0010 0100     		.2byte	0x1
 5191 0012 50       		.byte	0x50
 5192 0013 06000000 		.4byte	.LVL2
 5193 0017 0A000000 		.4byte	.LVL4
 5194 001b 0100     		.2byte	0x1
 5195 001d 54       		.byte	0x54
 5196 001e 0A000000 		.4byte	.LVL4
 5197 0022 0C000000 		.4byte	.LVL5
 5198 0026 0400     		.2byte	0x4
 5199 0028 F3       		.byte	0xf3
 5200 0029 01       		.uleb128 0x1
 5201 002a 50       		.byte	0x50
 5202 002b 9F       		.byte	0x9f
 5203 002c 0C000000 		.4byte	.LVL5
 5204 0030 26000000 		.4byte	.LFE15
 5205 0034 0100     		.2byte	0x1
ARM GAS  C:\Users\EDULU~1.DES\AppData\Local\Temp\ccOPPFV9.s 			page 122


 5206 0036 54       		.byte	0x54
 5207 0037 00000000 		.4byte	0
 5208 003b 00000000 		.4byte	0
 5209              	.LVUS1:
 5210 003f 02       		.uleb128 .LVU4
 5211 0040 00       		.uleb128 .LVU7
 5212 0041 00       		.uleb128 .LVU9
 5213 0042 00       		.uleb128 .LVU15
 5214 0043 00       		.uleb128 .LVU15
 5215 0044 00       		.uleb128 0
 5216              	.LLST1:
 5217 0045 04000000 		.4byte	.LVL1
 5218 0049 0A000000 		.4byte	.LVL3
 5219 004d 0200     		.2byte	0x2
 5220 004f 30       		.byte	0x30
 5221 0050 9F       		.byte	0x9f
 5222 0051 0C000000 		.4byte	.LVL5
 5223 0055 24000000 		.4byte	.LVL7
 5224 0059 0200     		.2byte	0x2
 5225 005b 30       		.byte	0x30
 5226 005c 9F       		.byte	0x9f
 5227 005d 24000000 		.4byte	.LVL7
 5228 0061 26000000 		.4byte	.LFE15
 5229 0065 0500     		.2byte	0x5
 5230 0067 40       		.byte	0x40
 5231 0068 4B       		.byte	0x4b
 5232 0069 24       		.byte	0x24
 5233 006a 1F       		.byte	0x1f
 5234 006b 9F       		.byte	0x9f
 5235 006c 00000000 		.4byte	0
 5236 0070 00000000 		.4byte	0
 5237              	.LVUS2:
 5238 0074 00       		.uleb128 0
 5239 0075 01       		.uleb128 .LVU36
 5240 0076 01       		.uleb128 .LVU36
 5241 0077 00       		.uleb128 .LVU37
 5242 0078 00       		.uleb128 .LVU37
 5243 0079 00       		.uleb128 .LVU77
 5244 007a 00       		.uleb128 .LVU77
 5245 007b 00       		.uleb128 .LVU78
 5246 007c 00       		.uleb128 .LVU78
 5247 007d 00       		.uleb128 0
 5248              	.LLST2:
 5249 007e 00000000 		.4byte	.LVL8
 5250 0082 20000000 		.4byte	.LVL12
 5251 0086 0100     		.2byte	0x1
 5252 0088 50       		.byte	0x50
 5253 0089 20000000 		.4byte	.LVL12
 5254 008d 24000000 		.4byte	.LVL13
 5255 0091 0400     		.2byte	0x4
 5256 0093 F3       		.byte	0xf3
 5257 0094 01       		.uleb128 0x1
 5258 0095 50       		.byte	0x50
 5259 0096 9F       		.byte	0x9f
 5260 0097 24000000 		.4byte	.LVL13
 5261 009b 87000000 		.4byte	.LVL22-1
 5262 009f 0100     		.2byte	0x1
ARM GAS  C:\Users\EDULU~1.DES\AppData\Local\Temp\ccOPPFV9.s 			page 123


 5263 00a1 50       		.byte	0x50
 5264 00a2 87000000 		.4byte	.LVL22-1
 5265 00a6 8A000000 		.4byte	.LVL23
 5266 00aa 0400     		.2byte	0x4
 5267 00ac F3       		.byte	0xf3
 5268 00ad 01       		.uleb128 0x1
 5269 00ae 50       		.byte	0x50
 5270 00af 9F       		.byte	0x9f
 5271 00b0 8A000000 		.4byte	.LVL23
 5272 00b4 B0000000 		.4byte	.LFE14
 5273 00b8 0100     		.2byte	0x1
 5274 00ba 50       		.byte	0x50
 5275 00bb 00000000 		.4byte	0
 5276 00bf 00000000 		.4byte	0
 5277              	.LVUS3:
 5278 00c3 01       		.uleb128 .LVU27
 5279 00c4 00       		.uleb128 .LVU33
 5280 00c5 01       		.uleb128 .LVU40
 5281 00c6 00       		.uleb128 .LVU54
 5282 00c7 01       		.uleb128 .LVU59
 5283 00c8 00       		.uleb128 .LVU75
 5284 00c9 00       		.uleb128 .LVU78
 5285 00ca 00       		.uleb128 .LVU79
 5286 00cb 00       		.uleb128 .LVU81
 5287 00cc 00       		.uleb128 0
 5288              	.LLST3:
 5289 00cd 0C000000 		.4byte	.LVL10
 5290 00d1 1A000000 		.4byte	.LVL11
 5291 00d5 0200     		.2byte	0x2
 5292 00d7 40       		.byte	0x40
 5293 00d8 9F       		.byte	0x9f
 5294 00d9 28000000 		.4byte	.LVL14
 5295 00dd 4C000000 		.4byte	.LVL18
 5296 00e1 0200     		.2byte	0x2
 5297 00e3 31       		.byte	0x31
 5298 00e4 9F       		.byte	0x9f
 5299 00e5 54000000 		.4byte	.LVL19
 5300 00e9 80000000 		.4byte	.LVL20
 5301 00ed 0200     		.2byte	0x2
 5302 00ef 30       		.byte	0x30
 5303 00f0 9F       		.byte	0x9f
 5304 00f1 8A000000 		.4byte	.LVL23
 5305 00f5 8E000000 		.4byte	.LVL24
 5306 00f9 0200     		.2byte	0x2
 5307 00fb 31       		.byte	0x31
 5308 00fc 9F       		.byte	0x9f
 5309 00fd 98000000 		.4byte	.LVL25
 5310 0101 B0000000 		.4byte	.LFE14
 5311 0105 0200     		.2byte	0x2
 5312 0107 30       		.byte	0x30
 5313 0108 9F       		.byte	0x9f
 5314 0109 00000000 		.4byte	0
 5315 010d 00000000 		.4byte	0
 5316              	.LVUS4:
 5317 0111 02       		.uleb128 .LVU21
 5318 0112 00       		.uleb128 .LVU33
 5319 0113 00       		.uleb128 .LVU37
ARM GAS  C:\Users\EDULU~1.DES\AppData\Local\Temp\ccOPPFV9.s 			page 124


 5320 0114 00       		.uleb128 .LVU47
 5321 0115 00       		.uleb128 .LVU47
 5322 0116 00       		.uleb128 .LVU52
 5323 0117 00       		.uleb128 .LVU53
 5324 0118 00       		.uleb128 .LVU76
 5325 0119 00       		.uleb128 .LVU78
 5326 011a 00       		.uleb128 0
 5327              	.LLST4:
 5328 011b 02000000 		.4byte	.LVL9
 5329 011f 1A000000 		.4byte	.LVL11
 5330 0123 0200     		.2byte	0x2
 5331 0125 30       		.byte	0x30
 5332 0126 9F       		.byte	0x9f
 5333 0127 24000000 		.4byte	.LVL13
 5334 012b 3A000000 		.4byte	.LVL15
 5335 012f 0200     		.2byte	0x2
 5336 0131 30       		.byte	0x30
 5337 0132 9F       		.byte	0x9f
 5338 0133 3A000000 		.4byte	.LVL15
 5339 0137 46000000 		.4byte	.LVL16
 5340 013b 0100     		.2byte	0x1
 5341 013d 54       		.byte	0x54
 5342 013e 48000000 		.4byte	.LVL17
 5343 0142 84000000 		.4byte	.LVL21
 5344 0146 0200     		.2byte	0x2
 5345 0148 30       		.byte	0x30
 5346 0149 9F       		.byte	0x9f
 5347 014a 8A000000 		.4byte	.LVL23
 5348 014e B0000000 		.4byte	.LFE14
 5349 0152 0200     		.2byte	0x2
 5350 0154 30       		.byte	0x30
 5351 0155 9F       		.byte	0x9f
 5352 0156 00000000 		.4byte	0
 5353 015a 00000000 		.4byte	0
 5354              	.LVUS25:
 5355 015e 02       		.uleb128 .LVU303
 5356 015f 00       		.uleb128 .LVU308
 5357 0160 00       		.uleb128 .LVU308
 5358 0161 00       		.uleb128 .LVU316
 5359 0162 00       		.uleb128 .LVU318
 5360 0163 01       		.uleb128 .LVU319
 5361 0164 01       		.uleb128 .LVU319
 5362 0165 00       		.uleb128 .LVU333
 5363 0166 00       		.uleb128 .LVU333
 5364 0167 00       		.uleb128 .LVU340
 5365              	.LLST25:
 5366 0168 02000000 		.4byte	.LVL94
 5367 016c 0C000000 		.4byte	.LVL96
 5368 0170 0400     		.2byte	0x4
 5369 0172 0A       		.byte	0xa
 5370 0173 204E     		.2byte	0x4e20
 5371 0175 9F       		.byte	0x9f
 5372 0176 0C000000 		.4byte	.LVL96
 5373 017a 26000000 		.4byte	.LVL100
 5374 017e 0100     		.2byte	0x1
 5375 0180 54       		.byte	0x54
 5376 0181 28000000 		.4byte	.LVL102
ARM GAS  C:\Users\EDULU~1.DES\AppData\Local\Temp\ccOPPFV9.s 			page 125


 5377 0185 28000000 		.4byte	.LVL102
 5378 0189 0100     		.2byte	0x1
 5379 018b 54       		.byte	0x54
 5380 018c 28000000 		.4byte	.LVL102
 5381 0190 62000000 		.4byte	.LVL108
 5382 0194 0400     		.2byte	0x4
 5383 0196 0A       		.byte	0xa
 5384 0197 204E     		.2byte	0x4e20
 5385 0199 9F       		.byte	0x9f
 5386 019a 62000000 		.4byte	.LVL108
 5387 019e 7A000000 		.4byte	.LVL112
 5388 01a2 0100     		.2byte	0x1
 5389 01a4 54       		.byte	0x54
 5390 01a5 00000000 		.4byte	0
 5391 01a9 00000000 		.4byte	0
 5392              	.LVUS26:
 5393 01ad 00       		.uleb128 .LVU306
 5394 01ae 01       		.uleb128 .LVU317
 5395 01af 00       		.uleb128 .LVU318
 5396 01b0 00       		.uleb128 0
 5397              	.LLST26:
 5398 01b1 0A000000 		.4byte	.LVL95
 5399 01b5 26000000 		.4byte	.LVL101
 5400 01b9 0100     		.2byte	0x1
 5401 01bb 55       		.byte	0x55
 5402 01bc 28000000 		.4byte	.LVL102
 5403 01c0 C4000000 		.4byte	.LFE13
 5404 01c4 0100     		.2byte	0x1
 5405 01c6 55       		.byte	0x55
 5406 01c7 00000000 		.4byte	0
 5407 01cb 00000000 		.4byte	0
 5408              	.LVUS24:
 5409 01cf 00       		.uleb128 .LVU294
 5410 01d0 00       		.uleb128 .LVU299
 5411 01d1 00       		.uleb128 .LVU299
 5412 01d2 00       		.uleb128 0
 5413              	.LLST24:
 5414 01d3 0E000000 		.4byte	.LVL91
 5415 01d7 1A000000 		.4byte	.LVL93
 5416 01db 0100     		.2byte	0x1
 5417 01dd 54       		.byte	0x54
 5418 01de 1A000000 		.4byte	.LVL93
 5419 01e2 20000000 		.4byte	.LFE12
 5420 01e6 0100     		.2byte	0x1
 5421 01e8 50       		.byte	0x50
 5422 01e9 00000000 		.4byte	0
 5423 01ed 00000000 		.4byte	0
 5424              	.LVUS23:
 5425 01f1 00       		.uleb128 .LVU280
 5426 01f2 00       		.uleb128 .LVU285
 5427 01f3 00       		.uleb128 .LVU285
 5428 01f4 00       		.uleb128 .LVU288
 5429 01f5 00       		.uleb128 .LVU288
 5430 01f6 00       		.uleb128 0
 5431              	.LLST23:
 5432 01f7 10000000 		.4byte	.LVL86
 5433 01fb 1C000000 		.4byte	.LVL87
ARM GAS  C:\Users\EDULU~1.DES\AppData\Local\Temp\ccOPPFV9.s 			page 126


 5434 01ff 0100     		.2byte	0x1
 5435 0201 53       		.byte	0x53
 5436 0202 1C000000 		.4byte	.LVL87
 5437 0206 24000000 		.4byte	.LVL89
 5438 020a 0100     		.2byte	0x1
 5439 020c 54       		.byte	0x54
 5440 020d 24000000 		.4byte	.LVL89
 5441 0211 30000000 		.4byte	.LFE11
 5442 0215 0100     		.2byte	0x1
 5443 0217 50       		.byte	0x50
 5444 0218 00000000 		.4byte	0
 5445 021c 00000000 		.4byte	0
 5446              	.LVUS17:
 5447 0220 00       		.uleb128 0
 5448 0221 00       		.uleb128 .LVU217
 5449 0222 00       		.uleb128 .LVU217
 5450 0223 00       		.uleb128 .LVU245
 5451 0224 00       		.uleb128 .LVU245
 5452 0225 00       		.uleb128 .LVU247
 5453 0226 00       		.uleb128 .LVU247
 5454 0227 00       		.uleb128 .LVU249
 5455 0228 00       		.uleb128 .LVU249
 5456 0229 00       		.uleb128 0
 5457              	.LLST17:
 5458 022a 00000000 		.4byte	.LVL68
 5459 022e 1C000000 		.4byte	.LVL71
 5460 0232 0100     		.2byte	0x1
 5461 0234 50       		.byte	0x50
 5462 0235 1C000000 		.4byte	.LVL71
 5463 0239 60000000 		.4byte	.LVL77
 5464 023d 0100     		.2byte	0x1
 5465 023f 55       		.byte	0x55
 5466 0240 60000000 		.4byte	.LVL77
 5467 0244 62000000 		.4byte	.LVL78
 5468 0248 0100     		.2byte	0x1
 5469 024a 50       		.byte	0x50
 5470 024b 62000000 		.4byte	.LVL78
 5471 024f 64000000 		.4byte	.LVL79
 5472 0253 0100     		.2byte	0x1
 5473 0255 55       		.byte	0x55
 5474 0256 64000000 		.4byte	.LVL79
 5475 025a 80000000 		.4byte	.LFE6
 5476 025e 0400     		.2byte	0x4
 5477 0260 F3       		.byte	0xf3
 5478 0261 01       		.uleb128 0x1
 5479 0262 50       		.byte	0x50
 5480 0263 9F       		.byte	0x9f
 5481 0264 00000000 		.4byte	0
 5482 0268 00000000 		.4byte	0
 5483              	.LVUS18:
 5484 026c 00       		.uleb128 0
 5485 026d 00       		.uleb128 .LVU217
 5486 026e 00       		.uleb128 .LVU217
 5487 026f 00       		.uleb128 .LVU245
 5488 0270 00       		.uleb128 .LVU245
 5489 0271 01       		.uleb128 .LVU248
 5490 0272 01       		.uleb128 .LVU248
ARM GAS  C:\Users\EDULU~1.DES\AppData\Local\Temp\ccOPPFV9.s 			page 127


 5491 0273 00       		.uleb128 .LVU249
 5492 0274 00       		.uleb128 .LVU249
 5493 0275 00       		.uleb128 0
 5494              	.LLST18:
 5495 0276 00000000 		.4byte	.LVL68
 5496 027a 1C000000 		.4byte	.LVL71
 5497 027e 0100     		.2byte	0x1
 5498 0280 51       		.byte	0x51
 5499 0281 1C000000 		.4byte	.LVL71
 5500 0285 60000000 		.4byte	.LVL77
 5501 0289 0100     		.2byte	0x1
 5502 028b 56       		.byte	0x56
 5503 028c 60000000 		.4byte	.LVL77
 5504 0290 62000000 		.4byte	.LVL78
 5505 0294 0100     		.2byte	0x1
 5506 0296 51       		.byte	0x51
 5507 0297 62000000 		.4byte	.LVL78
 5508 029b 64000000 		.4byte	.LVL80
 5509 029f 0100     		.2byte	0x1
 5510 02a1 56       		.byte	0x56
 5511 02a2 64000000 		.4byte	.LVL80
 5512 02a6 80000000 		.4byte	.LFE6
 5513 02aa 0400     		.2byte	0x4
 5514 02ac F3       		.byte	0xf3
 5515 02ad 01       		.uleb128 0x1
 5516 02ae 51       		.byte	0x51
 5517 02af 9F       		.byte	0x9f
 5518 02b0 00000000 		.4byte	0
 5519 02b4 00000000 		.4byte	0
 5520              	.LVUS19:
 5521 02b8 00       		.uleb128 0
 5522 02b9 00       		.uleb128 .LVU215
 5523 02ba 00       		.uleb128 .LVU215
 5524 02bb 00       		.uleb128 .LVU245
 5525 02bc 00       		.uleb128 .LVU245
 5526 02bd 01       		.uleb128 .LVU248
 5527 02be 01       		.uleb128 .LVU248
 5528 02bf 00       		.uleb128 0
 5529              	.LLST19:
 5530 02c0 00000000 		.4byte	.LVL68
 5531 02c4 18000000 		.4byte	.LVL70
 5532 02c8 0100     		.2byte	0x1
 5533 02ca 52       		.byte	0x52
 5534 02cb 18000000 		.4byte	.LVL70
 5535 02cf 60000000 		.4byte	.LVL77
 5536 02d3 0400     		.2byte	0x4
 5537 02d5 F3       		.byte	0xf3
 5538 02d6 01       		.uleb128 0x1
 5539 02d7 52       		.byte	0x52
 5540 02d8 9F       		.byte	0x9f
 5541 02d9 60000000 		.4byte	.LVL77
 5542 02dd 62000000 		.4byte	.LVL78
 5543 02e1 0100     		.2byte	0x1
 5544 02e3 52       		.byte	0x52
 5545 02e4 62000000 		.4byte	.LVL78
 5546 02e8 80000000 		.4byte	.LFE6
 5547 02ec 0400     		.2byte	0x4
ARM GAS  C:\Users\EDULU~1.DES\AppData\Local\Temp\ccOPPFV9.s 			page 128


 5548 02ee F3       		.byte	0xf3
 5549 02ef 01       		.uleb128 0x1
 5550 02f0 52       		.byte	0x52
 5551 02f1 9F       		.byte	0x9f
 5552 02f2 00000000 		.4byte	0
 5553 02f6 00000000 		.4byte	0
 5554              	.LVUS20:
 5555 02fa 01       		.uleb128 .LVU208
 5556 02fb 00       		.uleb128 .LVU238
 5557 02fc 00       		.uleb128 .LVU238
 5558 02fd 00       		.uleb128 .LVU245
 5559 02fe 00       		.uleb128 .LVU245
 5560 02ff 01       		.uleb128 .LVU248
 5561              	.LLST20:
 5562 0300 08000000 		.4byte	.LVL69
 5563 0304 50000000 		.4byte	.LVL76
 5564 0308 0200     		.2byte	0x2
 5565 030a 34       		.byte	0x34
 5566 030b 9F       		.byte	0x9f
 5567 030c 50000000 		.4byte	.LVL76
 5568 0310 60000000 		.4byte	.LVL77
 5569 0314 0100     		.2byte	0x1
 5570 0316 50       		.byte	0x50
 5571 0317 60000000 		.4byte	.LVL77
 5572 031b 62000000 		.4byte	.LVL78
 5573 031f 0200     		.2byte	0x2
 5574 0321 34       		.byte	0x34
 5575 0322 9F       		.byte	0x9f
 5576 0323 00000000 		.4byte	0
 5577 0327 00000000 		.4byte	0
 5578              	.LVUS21:
 5579 032b 00       		.uleb128 .LVU221
 5580 032c 00       		.uleb128 .LVU227
 5581 032d 00       		.uleb128 .LVU227
 5582 032e 00       		.uleb128 .LVU238
 5583              	.LLST21:
 5584 032f 26000000 		.4byte	.LVL72
 5585 0333 36000000 		.4byte	.LVL75
 5586 0337 0100     		.2byte	0x1
 5587 0339 54       		.byte	0x54
 5588 033a 36000000 		.4byte	.LVL75
 5589 033e 4F000000 		.4byte	.LVL76-1
 5590 0342 0100     		.2byte	0x1
 5591 0344 50       		.byte	0x50
 5592 0345 00000000 		.4byte	0
 5593 0349 00000000 		.4byte	0
 5594              	.LVUS22:
 5595 034d 00       		.uleb128 .LVU224
 5596 034e 00       		.uleb128 .LVU245
 5597              	.LLST22:
 5598 034f 2E000000 		.4byte	.LVL73
 5599 0353 60000000 		.4byte	.LVL77
 5600 0357 0100     		.2byte	0x1
 5601 0359 57       		.byte	0x57
 5602 035a 00000000 		.4byte	0
 5603 035e 00000000 		.4byte	0
 5604              	.LVUS13:
ARM GAS  C:\Users\EDULU~1.DES\AppData\Local\Temp\ccOPPFV9.s 			page 129


 5605 0362 00       		.uleb128 0
 5606 0363 00       		.uleb128 .LVU190
 5607 0364 00       		.uleb128 .LVU190
 5608 0365 00       		.uleb128 .LVU202
 5609 0366 00       		.uleb128 .LVU202
 5610 0367 00       		.uleb128 .LVU203
 5611 0368 00       		.uleb128 .LVU203
 5612 0369 00       		.uleb128 0
 5613              	.LLST13:
 5614 036a 00000000 		.4byte	.LVL58
 5615 036e 1C000000 		.4byte	.LVL61
 5616 0372 0100     		.2byte	0x1
 5617 0374 50       		.byte	0x50
 5618 0375 1C000000 		.4byte	.LVL61
 5619 0379 38000000 		.4byte	.LVL66
 5620 037d 0400     		.2byte	0x4
 5621 037f F3       		.byte	0xf3
 5622 0380 01       		.uleb128 0x1
 5623 0381 50       		.byte	0x50
 5624 0382 9F       		.byte	0x9f
 5625 0383 38000000 		.4byte	.LVL66
 5626 0387 3A000000 		.4byte	.LVL67
 5627 038b 0100     		.2byte	0x1
 5628 038d 50       		.byte	0x50
 5629 038e 3A000000 		.4byte	.LVL67
 5630 0392 48000000 		.4byte	.LFE5
 5631 0396 0400     		.2byte	0x4
 5632 0398 F3       		.byte	0xf3
 5633 0399 01       		.uleb128 0x1
 5634 039a 50       		.byte	0x50
 5635 039b 9F       		.byte	0x9f
 5636 039c 00000000 		.4byte	0
 5637 03a0 00000000 		.4byte	0
 5638              	.LVUS14:
 5639 03a4 00       		.uleb128 0
 5640 03a5 00       		.uleb128 .LVU186
 5641 03a6 00       		.uleb128 .LVU186
 5642 03a7 00       		.uleb128 .LVU202
 5643 03a8 00       		.uleb128 .LVU202
 5644 03a9 00       		.uleb128 0
 5645              	.LLST14:
 5646 03aa 00000000 		.4byte	.LVL58
 5647 03ae 14000000 		.4byte	.LVL60
 5648 03b2 0100     		.2byte	0x1
 5649 03b4 51       		.byte	0x51
 5650 03b5 14000000 		.4byte	.LVL60
 5651 03b9 38000000 		.4byte	.LVL66
 5652 03bd 0400     		.2byte	0x4
 5653 03bf F3       		.byte	0xf3
 5654 03c0 01       		.uleb128 0x1
 5655 03c1 51       		.byte	0x51
 5656 03c2 9F       		.byte	0x9f
 5657 03c3 38000000 		.4byte	.LVL66
 5658 03c7 48000000 		.4byte	.LFE5
 5659 03cb 0100     		.2byte	0x1
 5660 03cd 51       		.byte	0x51
 5661 03ce 00000000 		.4byte	0
ARM GAS  C:\Users\EDULU~1.DES\AppData\Local\Temp\ccOPPFV9.s 			page 130


 5662 03d2 00000000 		.4byte	0
 5663              	.LVUS15:
 5664 03d6 01       		.uleb128 .LVU180
 5665 03d7 00       		.uleb128 .LVU200
 5666 03d8 00       		.uleb128 .LVU202
 5667 03d9 00       		.uleb128 0
 5668              	.LLST15:
 5669 03da 04000000 		.4byte	.LVL59
 5670 03de 34000000 		.4byte	.LVL65
 5671 03e2 0200     		.2byte	0x2
 5672 03e4 34       		.byte	0x34
 5673 03e5 9F       		.byte	0x9f
 5674 03e6 38000000 		.4byte	.LVL66
 5675 03ea 48000000 		.4byte	.LFE5
 5676 03ee 0200     		.2byte	0x2
 5677 03f0 34       		.byte	0x34
 5678 03f1 9F       		.byte	0x9f
 5679 03f2 00000000 		.4byte	0
 5680 03f6 00000000 		.4byte	0
 5681              	.LVUS16:
 5682 03fa 00       		.uleb128 .LVU194
 5683 03fb 00       		.uleb128 .LVU197
 5684 03fc 00       		.uleb128 .LVU197
 5685 03fd 00       		.uleb128 .LVU200
 5686              	.LLST16:
 5687 03fe 26000000 		.4byte	.LVL62
 5688 0402 2E000000 		.4byte	.LVL64
 5689 0406 0100     		.2byte	0x1
 5690 0408 54       		.byte	0x54
 5691 0409 2E000000 		.4byte	.LVL64
 5692 040d 33000000 		.4byte	.LVL65-1
 5693 0411 0100     		.2byte	0x1
 5694 0413 50       		.byte	0x50
 5695 0414 00000000 		.4byte	0
 5696 0418 00000000 		.4byte	0
 5697              	.LVUS10:
 5698 041c 00       		.uleb128 0
 5699 041d 00       		.uleb128 .LVU155
 5700 041e 00       		.uleb128 .LVU155
 5701 041f 00       		.uleb128 .LVU173
 5702 0420 00       		.uleb128 .LVU173
 5703 0421 00       		.uleb128 .LVU175
 5704 0422 00       		.uleb128 .LVU175
 5705 0423 00       		.uleb128 0
 5706              	.LLST10:
 5707 0424 00000000 		.4byte	.LVL48
 5708 0428 14000000 		.4byte	.LVL50
 5709 042c 0100     		.2byte	0x1
 5710 042e 50       		.byte	0x50
 5711 042f 14000000 		.4byte	.LVL50
 5712 0433 46000000 		.4byte	.LVL56
 5713 0437 0400     		.2byte	0x4
 5714 0439 F3       		.byte	0xf3
 5715 043a 01       		.uleb128 0x1
 5716 043b 50       		.byte	0x50
 5717 043c 9F       		.byte	0x9f
 5718 043d 46000000 		.4byte	.LVL56
ARM GAS  C:\Users\EDULU~1.DES\AppData\Local\Temp\ccOPPFV9.s 			page 131


 5719 0441 48000000 		.4byte	.LVL57
 5720 0445 0100     		.2byte	0x1
 5721 0447 50       		.byte	0x50
 5722 0448 48000000 		.4byte	.LVL57
 5723 044c 5C000000 		.4byte	.LFE4
 5724 0450 0400     		.2byte	0x4
 5725 0452 F3       		.byte	0xf3
 5726 0453 01       		.uleb128 0x1
 5727 0454 50       		.byte	0x50
 5728 0455 9F       		.byte	0x9f
 5729 0456 00000000 		.4byte	0
 5730 045a 00000000 		.4byte	0
 5731              	.LVUS11:
 5732 045e 01       		.uleb128 .LVU149
 5733 045f 00       		.uleb128 .LVU170
 5734 0460 00       		.uleb128 .LVU172
 5735 0461 00       		.uleb128 0
 5736              	.LLST11:
 5737 0462 04000000 		.4byte	.LVL49
 5738 0466 3E000000 		.4byte	.LVL54
 5739 046a 0200     		.2byte	0x2
 5740 046c 34       		.byte	0x34
 5741 046d 9F       		.byte	0x9f
 5742 046e 42000000 		.4byte	.LVL55
 5743 0472 5C000000 		.4byte	.LFE4
 5744 0476 0200     		.2byte	0x2
 5745 0478 34       		.byte	0x34
 5746 0479 9F       		.byte	0x9f
 5747 047a 00000000 		.4byte	0
 5748 047e 00000000 		.4byte	0
 5749              	.LVUS12:
 5750 0482 00       		.uleb128 .LVU164
 5751 0483 00       		.uleb128 .LVU167
 5752 0484 00       		.uleb128 .LVU167
 5753 0485 00       		.uleb128 .LVU170
 5754              	.LLST12:
 5755 0486 30000000 		.4byte	.LVL51
 5756 048a 38000000 		.4byte	.LVL53
 5757 048e 0100     		.2byte	0x1
 5758 0490 54       		.byte	0x54
 5759 0491 38000000 		.4byte	.LVL53
 5760 0495 3D000000 		.4byte	.LVL54-1
 5761 0499 0100     		.2byte	0x1
 5762 049b 50       		.byte	0x50
 5763 049c 00000000 		.4byte	0
 5764 04a0 00000000 		.4byte	0
 5765              	.LVUS37:
 5766 04a4 00       		.uleb128 0
 5767 04a5 00       		.uleb128 .LVU509
 5768 04a6 00       		.uleb128 .LVU509
 5769 04a7 00       		.uleb128 .LVU510
 5770 04a8 00       		.uleb128 .LVU510
 5771 04a9 00       		.uleb128 .LVU517
 5772 04aa 00       		.uleb128 .LVU529
 5773 04ab 00       		.uleb128 .LVU534
 5774 04ac 00       		.uleb128 .LVU534
 5775 04ad 00       		.uleb128 .LVU536
ARM GAS  C:\Users\EDULU~1.DES\AppData\Local\Temp\ccOPPFV9.s 			page 132


 5776 04ae 00       		.uleb128 .LVU536
 5777 04af 00       		.uleb128 0
 5778              	.LLST37:
 5779 04b0 00000000 		.4byte	.LVL161
 5780 04b4 1A000000 		.4byte	.LVL164
 5781 04b8 0100     		.2byte	0x1
 5782 04ba 50       		.byte	0x50
 5783 04bb 1A000000 		.4byte	.LVL164
 5784 04bf 1E000000 		.4byte	.LVL165
 5785 04c3 0400     		.2byte	0x4
 5786 04c5 F3       		.byte	0xf3
 5787 04c6 01       		.uleb128 0x1
 5788 04c7 50       		.byte	0x50
 5789 04c8 9F       		.byte	0x9f
 5790 04c9 1E000000 		.4byte	.LVL165
 5791 04cd 30000000 		.4byte	.LVL167
 5792 04d1 0100     		.2byte	0x1
 5793 04d3 54       		.byte	0x54
 5794 04d4 4C000000 		.4byte	.LVL172
 5795 04d8 58000000 		.4byte	.LVL174
 5796 04dc 0100     		.2byte	0x1
 5797 04de 54       		.byte	0x54
 5798 04df 58000000 		.4byte	.LVL174
 5799 04e3 5A000000 		.4byte	.LVL175
 5800 04e7 0100     		.2byte	0x1
 5801 04e9 50       		.byte	0x50
 5802 04ea 5A000000 		.4byte	.LVL175
 5803 04ee 68000000 		.4byte	.LFE3
 5804 04f2 0400     		.2byte	0x4
 5805 04f4 F3       		.byte	0xf3
 5806 04f5 01       		.uleb128 0x1
 5807 04f6 50       		.byte	0x50
 5808 04f7 9F       		.byte	0x9f
 5809 04f8 00000000 		.4byte	0
 5810 04fc 00000000 		.4byte	0
 5811              	.LVUS38:
 5812 0500 00       		.uleb128 0
 5813 0501 00       		.uleb128 .LVU515
 5814 0502 00       		.uleb128 .LVU515
 5815 0503 00       		.uleb128 .LVU529
 5816 0504 00       		.uleb128 .LVU529
 5817 0505 00       		.uleb128 0
 5818              	.LLST38:
 5819 0506 00000000 		.4byte	.LVL161
 5820 050a 2B000000 		.4byte	.LVL166-1
 5821 050e 0100     		.2byte	0x1
 5822 0510 51       		.byte	0x51
 5823 0511 2B000000 		.4byte	.LVL166-1
 5824 0515 4C000000 		.4byte	.LVL172
 5825 0519 0400     		.2byte	0x4
 5826 051b F3       		.byte	0xf3
 5827 051c 01       		.uleb128 0x1
 5828 051d 51       		.byte	0x51
 5829 051e 9F       		.byte	0x9f
 5830 051f 4C000000 		.4byte	.LVL172
 5831 0523 68000000 		.4byte	.LFE3
 5832 0527 0100     		.2byte	0x1
ARM GAS  C:\Users\EDULU~1.DES\AppData\Local\Temp\ccOPPFV9.s 			page 133


 5833 0529 51       		.byte	0x51
 5834 052a 00000000 		.4byte	0
 5835 052e 00000000 		.4byte	0
 5836              	.LVUS39:
 5837 0532 00       		.uleb128 0
 5838 0533 00       		.uleb128 .LVU505
 5839 0534 00       		.uleb128 .LVU505
 5840 0535 00       		.uleb128 .LVU534
 5841 0536 00       		.uleb128 .LVU534
 5842 0537 00       		.uleb128 0
 5843              	.LLST39:
 5844 0538 00000000 		.4byte	.LVL161
 5845 053c 14000000 		.4byte	.LVL163
 5846 0540 0100     		.2byte	0x1
 5847 0542 52       		.byte	0x52
 5848 0543 14000000 		.4byte	.LVL163
 5849 0547 58000000 		.4byte	.LVL174
 5850 054b 0400     		.2byte	0x4
 5851 054d F3       		.byte	0xf3
 5852 054e 01       		.uleb128 0x1
 5853 054f 52       		.byte	0x52
 5854 0550 9F       		.byte	0x9f
 5855 0551 58000000 		.4byte	.LVL174
 5856 0555 68000000 		.4byte	.LFE3
 5857 0559 0100     		.2byte	0x1
 5858 055b 52       		.byte	0x52
 5859 055c 00000000 		.4byte	0
 5860 0560 00000000 		.4byte	0
 5861              	.LVUS40:
 5862 0564 01       		.uleb128 .LVU499
 5863 0565 00       		.uleb128 .LVU527
 5864 0566 00       		.uleb128 .LVU529
 5865 0567 00       		.uleb128 0
 5866              	.LLST40:
 5867 0568 04000000 		.4byte	.LVL162
 5868 056c 48000000 		.4byte	.LVL171
 5869 0570 0200     		.2byte	0x2
 5870 0572 34       		.byte	0x34
 5871 0573 9F       		.byte	0x9f
 5872 0574 4C000000 		.4byte	.LVL172
 5873 0578 68000000 		.4byte	.LFE3
 5874 057c 0200     		.2byte	0x2
 5875 057e 34       		.byte	0x34
 5876 057f 9F       		.byte	0x9f
 5877 0580 00000000 		.4byte	0
 5878 0584 00000000 		.4byte	0
 5879              	.LVUS41:
 5880 0588 00       		.uleb128 .LVU521
 5881 0589 00       		.uleb128 .LVU524
 5882 058a 00       		.uleb128 .LVU524
 5883 058b 00       		.uleb128 .LVU527
 5884              	.LLST41:
 5885 058c 3A000000 		.4byte	.LVL168
 5886 0590 42000000 		.4byte	.LVL170
 5887 0594 0100     		.2byte	0x1
 5888 0596 54       		.byte	0x54
 5889 0597 42000000 		.4byte	.LVL170
ARM GAS  C:\Users\EDULU~1.DES\AppData\Local\Temp\ccOPPFV9.s 			page 134


 5890 059b 47000000 		.4byte	.LVL171-1
 5891 059f 0100     		.2byte	0x1
 5892 05a1 50       		.byte	0x50
 5893 05a2 00000000 		.4byte	0
 5894 05a6 00000000 		.4byte	0
 5895              	.LVUS5:
 5896 05aa 00       		.uleb128 0
 5897 05ab 01       		.uleb128 .LVU90
 5898 05ac 00       		.uleb128 .LVU92
 5899 05ad 00       		.uleb128 .LVU93
 5900 05ae 00       		.uleb128 .LVU93
 5901 05af 00       		.uleb128 .LVU112
 5902 05b0 00       		.uleb128 .LVU112
 5903 05b1 00       		.uleb128 .LVU113
 5904 05b2 00       		.uleb128 .LVU113
 5905 05b3 00       		.uleb128 .LVU121
 5906 05b4 00       		.uleb128 .LVU138
 5907 05b5 00       		.uleb128 .LVU145
 5908 05b6 00       		.uleb128 .LVU145
 5909 05b7 00       		.uleb128 0
 5910              	.LLST5:
 5911 05b8 00000000 		.4byte	.LVL26
 5912 05bc 14000000 		.4byte	.LVL28
 5913 05c0 0100     		.2byte	0x1
 5914 05c2 50       		.byte	0x50
 5915 05c3 1A000000 		.4byte	.LVL30
 5916 05c7 1C000000 		.4byte	.LVL31
 5917 05cb 0100     		.2byte	0x1
 5918 05cd 50       		.byte	0x50
 5919 05ce 1C000000 		.4byte	.LVL31
 5920 05d2 48000000 		.4byte	.LVL34
 5921 05d6 0100     		.2byte	0x1
 5922 05d8 54       		.byte	0x54
 5923 05d9 48000000 		.4byte	.LVL34
 5924 05dd 4C000000 		.4byte	.LVL35
 5925 05e1 0400     		.2byte	0x4
 5926 05e3 F3       		.byte	0xf3
 5927 05e4 01       		.uleb128 0x1
 5928 05e5 50       		.byte	0x50
 5929 05e6 9F       		.byte	0x9f
 5930 05e7 4C000000 		.4byte	.LVL35
 5931 05eb 60000000 		.4byte	.LVL36
 5932 05ef 0100     		.2byte	0x1
 5933 05f1 54       		.byte	0x54
 5934 05f2 8C000000 		.4byte	.LVL44
 5935 05f6 9A000000 		.4byte	.LVL47
 5936 05fa 0100     		.2byte	0x1
 5937 05fc 54       		.byte	0x54
 5938 05fd 9A000000 		.4byte	.LVL47
 5939 0601 C4000000 		.4byte	.LFE2
 5940 0605 0400     		.2byte	0x4
 5941 0607 F3       		.byte	0xf3
 5942 0608 01       		.uleb128 0x1
 5943 0609 50       		.byte	0x50
 5944 060a 9F       		.byte	0x9f
 5945 060b 00000000 		.4byte	0
 5946 060f 00000000 		.4byte	0
ARM GAS  C:\Users\EDULU~1.DES\AppData\Local\Temp\ccOPPFV9.s 			page 135


 5947              	.LVUS6:
 5948 0613 00       		.uleb128 0
 5949 0614 01       		.uleb128 .LVU90
 5950 0615 01       		.uleb128 .LVU90
 5951 0616 00       		.uleb128 .LVU91
 5952 0617 00       		.uleb128 .LVU91
 5953 0618 00       		.uleb128 .LVU92
 5954 0619 00       		.uleb128 .LVU92
 5955 061a 00       		.uleb128 .LVU94
 5956 061b 00       		.uleb128 .LVU94
 5957 061c 00       		.uleb128 0
 5958              	.LLST6:
 5959 061d 00000000 		.4byte	.LVL26
 5960 0621 14000000 		.4byte	.LVL28
 5961 0625 0100     		.2byte	0x1
 5962 0627 51       		.byte	0x51
 5963 0628 14000000 		.4byte	.LVL28
 5964 062c 18000000 		.4byte	.LVL29
 5965 0630 0100     		.2byte	0x1
 5966 0632 56       		.byte	0x56
 5967 0633 18000000 		.4byte	.LVL29
 5968 0637 1A000000 		.4byte	.LVL30
 5969 063b 0400     		.2byte	0x4
 5970 063d F3       		.byte	0xf3
 5971 063e 01       		.uleb128 0x1
 5972 063f 51       		.byte	0x51
 5973 0640 9F       		.byte	0x9f
 5974 0641 1A000000 		.4byte	.LVL30
 5975 0645 1F000000 		.4byte	.LVL32-1
 5976 0649 0100     		.2byte	0x1
 5977 064b 51       		.byte	0x51
 5978 064c 1F000000 		.4byte	.LVL32-1
 5979 0650 C4000000 		.4byte	.LFE2
 5980 0654 0100     		.2byte	0x1
 5981 0656 56       		.byte	0x56
 5982 0657 00000000 		.4byte	0
 5983 065b 00000000 		.4byte	0
 5984              	.LVUS7:
 5985 065f 00       		.uleb128 0
 5986 0660 01       		.uleb128 .LVU90
 5987 0661 01       		.uleb128 .LVU90
 5988 0662 00       		.uleb128 .LVU92
 5989 0663 00       		.uleb128 .LVU92
 5990 0664 00       		.uleb128 .LVU94
 5991 0665 00       		.uleb128 .LVU94
 5992 0666 00       		.uleb128 .LVU100
 5993 0667 00       		.uleb128 .LVU100
 5994 0668 00       		.uleb128 .LVU143
 5995 0669 00       		.uleb128 .LVU143
 5996 066a 00       		.uleb128 0
 5997              	.LLST7:
 5998 066b 00000000 		.4byte	.LVL26
 5999 066f 14000000 		.4byte	.LVL28
 6000 0673 0100     		.2byte	0x1
 6001 0675 52       		.byte	0x52
 6002 0676 14000000 		.4byte	.LVL28
 6003 067a 1A000000 		.4byte	.LVL30
ARM GAS  C:\Users\EDULU~1.DES\AppData\Local\Temp\ccOPPFV9.s 			page 136


 6004 067e 0400     		.2byte	0x4
 6005 0680 F3       		.byte	0xf3
 6006 0681 01       		.uleb128 0x1
 6007 0682 52       		.byte	0x52
 6008 0683 9F       		.byte	0x9f
 6009 0684 1A000000 		.4byte	.LVL30
 6010 0688 1F000000 		.4byte	.LVL32-1
 6011 068c 0100     		.2byte	0x1
 6012 068e 52       		.byte	0x52
 6013 068f 1F000000 		.4byte	.LVL32-1
 6014 0693 30000000 		.4byte	.LVL33
 6015 0697 0100     		.2byte	0x1
 6016 0699 55       		.byte	0x55
 6017 069a 30000000 		.4byte	.LVL33
 6018 069e 98000000 		.4byte	.LVL46
 6019 06a2 0400     		.2byte	0x4
 6020 06a4 F3       		.byte	0xf3
 6021 06a5 01       		.uleb128 0x1
 6022 06a6 52       		.byte	0x52
 6023 06a7 9F       		.byte	0x9f
 6024 06a8 98000000 		.4byte	.LVL46
 6025 06ac C4000000 		.4byte	.LFE2
 6026 06b0 0100     		.2byte	0x1
 6027 06b2 55       		.byte	0x55
 6028 06b3 00000000 		.4byte	0
 6029 06b7 00000000 		.4byte	0
 6030              	.LVUS8:
 6031 06bb 01       		.uleb128 .LVU85
 6032 06bc 01       		.uleb128 .LVU90
 6033 06bd 00       		.uleb128 .LVU92
 6034 06be 00       		.uleb128 .LVU136
 6035 06bf 00       		.uleb128 .LVU136
 6036 06c0 00       		.uleb128 .LVU138
 6037 06c1 00       		.uleb128 .LVU138
 6038 06c2 00       		.uleb128 0
 6039              	.LLST8:
 6040 06c3 0A000000 		.4byte	.LVL27
 6041 06c7 14000000 		.4byte	.LVL28
 6042 06cb 0200     		.2byte	0x2
 6043 06cd 34       		.byte	0x34
 6044 06ce 9F       		.byte	0x9f
 6045 06cf 1A000000 		.4byte	.LVL30
 6046 06d3 84000000 		.4byte	.LVL42
 6047 06d7 0200     		.2byte	0x2
 6048 06d9 34       		.byte	0x34
 6049 06da 9F       		.byte	0x9f
 6050 06db 84000000 		.4byte	.LVL42
 6051 06df 8C000000 		.4byte	.LVL44
 6052 06e3 0100     		.2byte	0x1
 6053 06e5 54       		.byte	0x54
 6054 06e6 8C000000 		.4byte	.LVL44
 6055 06ea C4000000 		.4byte	.LFE2
 6056 06ee 0200     		.2byte	0x2
 6057 06f0 34       		.byte	0x34
 6058 06f1 9F       		.byte	0x9f
 6059 06f2 00000000 		.4byte	0
 6060 06f6 00000000 		.4byte	0
ARM GAS  C:\Users\EDULU~1.DES\AppData\Local\Temp\ccOPPFV9.s 			page 137


 6061              	.LVUS9:
 6062 06fa 00       		.uleb128 .LVU125
 6063 06fb 00       		.uleb128 .LVU129
 6064 06fc 00       		.uleb128 .LVU129
 6065 06fd 00       		.uleb128 .LVU132
 6066 06fe 00       		.uleb128 .LVU132
 6067 06ff 00       		.uleb128 .LVU135
 6068              	.LLST9:
 6069 0700 6A000000 		.4byte	.LVL37
 6070 0704 74000000 		.4byte	.LVL38
 6071 0708 0100     		.2byte	0x1
 6072 070a 50       		.byte	0x50
 6073 070b 74000000 		.4byte	.LVL38
 6074 070f 7C000000 		.4byte	.LVL40
 6075 0713 0100     		.2byte	0x1
 6076 0715 54       		.byte	0x54
 6077 0716 7C000000 		.4byte	.LVL40
 6078 071a 81000000 		.4byte	.LVL41-1
 6079 071e 0100     		.2byte	0x1
 6080 0720 50       		.byte	0x50
 6081 0721 00000000 		.4byte	0
 6082 0725 00000000 		.4byte	0
 6083              	.LVUS32:
 6084 0729 00       		.uleb128 0
 6085 072a 00       		.uleb128 .LVU435
 6086 072b 00       		.uleb128 .LVU439
 6087 072c 00       		.uleb128 .LVU440
 6088 072d 00       		.uleb128 .LVU440
 6089 072e 00       		.uleb128 .LVU445
 6090 072f 00       		.uleb128 .LVU445
 6091 0730 03       		.uleb128 .LVU452
 6092 0731 03       		.uleb128 .LVU452
 6093 0732 00       		.uleb128 .LVU468
 6094 0733 00       		.uleb128 .LVU468
 6095 0734 00       		.uleb128 .LVU469
 6096 0735 00       		.uleb128 .LVU469
 6097 0736 00       		.uleb128 .LVU492
 6098 0737 00       		.uleb128 .LVU492
 6099 0738 00       		.uleb128 .LVU495
 6100 0739 00       		.uleb128 .LVU495
 6101 073a 00       		.uleb128 0
 6102              	.LLST32:
 6103 073b 00000000 		.4byte	.LVL139
 6104 073f 20000000 		.4byte	.LVL142
 6105 0743 0100     		.2byte	0x1
 6106 0745 50       		.byte	0x50
 6107 0746 2A000000 		.4byte	.LVL145
 6108 074a 2C000000 		.4byte	.LVL146
 6109 074e 0100     		.2byte	0x1
 6110 0750 50       		.byte	0x50
 6111 0751 2C000000 		.4byte	.LVL146
 6112 0755 3C000000 		.4byte	.LVL149
 6113 0759 0100     		.2byte	0x1
 6114 075b 56       		.byte	0x56
 6115 075c 3C000000 		.4byte	.LVL149
 6116 0760 46000000 		.4byte	.LVL152
 6117 0764 0100     		.2byte	0x1
ARM GAS  C:\Users\EDULU~1.DES\AppData\Local\Temp\ccOPPFV9.s 			page 138


 6118 0766 50       		.byte	0x50
 6119 0767 46000000 		.4byte	.LVL152
 6120 076b 68000000 		.4byte	.LVL153
 6121 076f 0100     		.2byte	0x1
 6122 0771 56       		.byte	0x56
 6123 0772 68000000 		.4byte	.LVL153
 6124 0776 6C000000 		.4byte	.LVL154
 6125 077a 0400     		.2byte	0x4
 6126 077c F3       		.byte	0xf3
 6127 077d 01       		.uleb128 0x1
 6128 077e 50       		.byte	0x50
 6129 077f 9F       		.byte	0x9f
 6130 0780 6C000000 		.4byte	.LVL154
 6131 0784 B7000000 		.4byte	.LVL158-1
 6132 0788 0100     		.2byte	0x1
 6133 078a 50       		.byte	0x50
 6134 078b B7000000 		.4byte	.LVL158-1
 6135 078f C0000000 		.4byte	.LVL160
 6136 0793 0100     		.2byte	0x1
 6137 0795 55       		.byte	0x55
 6138 0796 C0000000 		.4byte	.LVL160
 6139 079a FC000000 		.4byte	.LFE1
 6140 079e 0100     		.2byte	0x1
 6141 07a0 50       		.byte	0x50
 6142 07a1 00000000 		.4byte	0
 6143 07a5 00000000 		.4byte	0
 6144              	.LVUS33:
 6145 07a9 00       		.uleb128 0
 6146 07aa 00       		.uleb128 .LVU435
 6147 07ab 00       		.uleb128 .LVU435
 6148 07ac 00       		.uleb128 .LVU439
 6149 07ad 00       		.uleb128 .LVU439
 6150 07ae 00       		.uleb128 .LVU441
 6151 07af 00       		.uleb128 .LVU441
 6152 07b0 00       		.uleb128 .LVU445
 6153 07b1 00       		.uleb128 .LVU445
 6154 07b2 00       		.uleb128 .LVU448
 6155 07b3 00       		.uleb128 .LVU448
 6156 07b4 00       		.uleb128 .LVU469
 6157 07b5 00       		.uleb128 .LVU469
 6158 07b6 00       		.uleb128 .LVU473
 6159 07b7 00       		.uleb128 .LVU473
 6160 07b8 00       		.uleb128 .LVU495
 6161 07b9 00       		.uleb128 .LVU495
 6162 07ba 00       		.uleb128 0
 6163              	.LLST33:
 6164 07bb 00000000 		.4byte	.LVL139
 6165 07bf 20000000 		.4byte	.LVL142
 6166 07c3 0100     		.2byte	0x1
 6167 07c5 51       		.byte	0x51
 6168 07c6 20000000 		.4byte	.LVL142
 6169 07ca 2A000000 		.4byte	.LVL145
 6170 07ce 0400     		.2byte	0x4
 6171 07d0 F3       		.byte	0xf3
 6172 07d1 01       		.uleb128 0x1
 6173 07d2 51       		.byte	0x51
 6174 07d3 9F       		.byte	0x9f
ARM GAS  C:\Users\EDULU~1.DES\AppData\Local\Temp\ccOPPFV9.s 			page 139


 6175 07d4 2A000000 		.4byte	.LVL145
 6176 07d8 2F000000 		.4byte	.LVL147-1
 6177 07dc 0100     		.2byte	0x1
 6178 07de 51       		.byte	0x51
 6179 07df 2F000000 		.4byte	.LVL147-1
 6180 07e3 3C000000 		.4byte	.LVL149
 6181 07e7 0100     		.2byte	0x1
 6182 07e9 55       		.byte	0x55
 6183 07ea 3C000000 		.4byte	.LVL149
 6184 07ee 42000000 		.4byte	.LVL151
 6185 07f2 0100     		.2byte	0x1
 6186 07f4 51       		.byte	0x51
 6187 07f5 42000000 		.4byte	.LVL151
 6188 07f9 6C000000 		.4byte	.LVL154
 6189 07fd 0100     		.2byte	0x1
 6190 07ff 55       		.byte	0x55
 6191 0800 6C000000 		.4byte	.LVL154
 6192 0804 7A000000 		.4byte	.LVL155
 6193 0808 0500     		.2byte	0x5
 6194 080a 03       		.byte	0x3
 6195 080b 00000000 		.4byte	I2C_mstrRdBufPtr
 6196 080f 7A000000 		.4byte	.LVL155
 6197 0813 C0000000 		.4byte	.LVL160
 6198 0817 0400     		.2byte	0x4
 6199 0819 F3       		.byte	0xf3
 6200 081a 01       		.uleb128 0x1
 6201 081b 51       		.byte	0x51
 6202 081c 9F       		.byte	0x9f
 6203 081d C0000000 		.4byte	.LVL160
 6204 0821 FC000000 		.4byte	.LFE1
 6205 0825 0100     		.2byte	0x1
 6206 0827 51       		.byte	0x51
 6207 0828 00000000 		.4byte	0
 6208 082c 00000000 		.4byte	0
 6209              	.LVUS34:
 6210 0830 00       		.uleb128 0
 6211 0831 00       		.uleb128 .LVU435
 6212 0832 00       		.uleb128 .LVU435
 6213 0833 00       		.uleb128 .LVU438
 6214 0834 00       		.uleb128 .LVU438
 6215 0835 00       		.uleb128 .LVU439
 6216 0836 00       		.uleb128 .LVU439
 6217 0837 00       		.uleb128 .LVU441
 6218 0838 00       		.uleb128 .LVU441
 6219 0839 00       		.uleb128 .LVU445
 6220 083a 00       		.uleb128 .LVU445
 6221 083b 00       		.uleb128 .LVU447
 6222 083c 00       		.uleb128 .LVU447
 6223 083d 00       		.uleb128 .LVU495
 6224 083e 00       		.uleb128 .LVU495
 6225 083f 00       		.uleb128 0
 6226              	.LLST34:
 6227 0840 00000000 		.4byte	.LVL139
 6228 0844 20000000 		.4byte	.LVL142
 6229 0848 0100     		.2byte	0x1
 6230 084a 52       		.byte	0x52
 6231 084b 20000000 		.4byte	.LVL142
ARM GAS  C:\Users\EDULU~1.DES\AppData\Local\Temp\ccOPPFV9.s 			page 140


 6232 084f 28000000 		.4byte	.LVL144
 6233 0853 0100     		.2byte	0x1
 6234 0855 57       		.byte	0x57
 6235 0856 28000000 		.4byte	.LVL144
 6236 085a 2A000000 		.4byte	.LVL145
 6237 085e 0400     		.2byte	0x4
 6238 0860 F3       		.byte	0xf3
 6239 0861 01       		.uleb128 0x1
 6240 0862 52       		.byte	0x52
 6241 0863 9F       		.byte	0x9f
 6242 0864 2A000000 		.4byte	.LVL145
 6243 0868 2F000000 		.4byte	.LVL147-1
 6244 086c 0100     		.2byte	0x1
 6245 086e 52       		.byte	0x52
 6246 086f 2F000000 		.4byte	.LVL147-1
 6247 0873 3C000000 		.4byte	.LVL149
 6248 0877 0100     		.2byte	0x1
 6249 0879 57       		.byte	0x57
 6250 087a 3C000000 		.4byte	.LVL149
 6251 087e 3E000000 		.4byte	.LVL150
 6252 0882 0100     		.2byte	0x1
 6253 0884 52       		.byte	0x52
 6254 0885 3E000000 		.4byte	.LVL150
 6255 0889 C0000000 		.4byte	.LVL160
 6256 088d 0100     		.2byte	0x1
 6257 088f 57       		.byte	0x57
 6258 0890 C0000000 		.4byte	.LVL160
 6259 0894 FC000000 		.4byte	.LFE1
 6260 0898 0100     		.2byte	0x1
 6261 089a 52       		.byte	0x52
 6262 089b 00000000 		.4byte	0
 6263 089f 00000000 		.4byte	0
 6264              	.LVUS35:
 6265 08a3 00       		.uleb128 0
 6266 08a4 00       		.uleb128 .LVU429
 6267 08a5 00       		.uleb128 .LVU429
 6268 08a6 00       		.uleb128 .LVU435
 6269 08a7 00       		.uleb128 .LVU435
 6270 08a8 00       		.uleb128 .LVU439
 6271 08a9 00       		.uleb128 .LVU439
 6272 08aa 00       		.uleb128 .LVU444
 6273 08ab 00       		.uleb128 .LVU444
 6274 08ac 00       		.uleb128 .LVU445
 6275 08ad 00       		.uleb128 .LVU445
 6276 08ae 00       		.uleb128 .LVU486
 6277 08af 00       		.uleb128 .LVU486
 6278 08b0 00       		.uleb128 .LVU487
 6279 08b1 00       		.uleb128 .LVU487
 6280 08b2 00       		.uleb128 .LVU494
 6281 08b3 00       		.uleb128 .LVU494
 6282 08b4 00       		.uleb128 .LVU495
 6283 08b5 00       		.uleb128 .LVU495
 6284 08b6 00       		.uleb128 0
 6285              	.LLST35:
 6286 08b7 00000000 		.4byte	.LVL139
 6287 08bb 10000000 		.4byte	.LVL141
 6288 08bf 0100     		.2byte	0x1
ARM GAS  C:\Users\EDULU~1.DES\AppData\Local\Temp\ccOPPFV9.s 			page 141


 6289 08c1 53       		.byte	0x53
 6290 08c2 10000000 		.4byte	.LVL141
 6291 08c6 20000000 		.4byte	.LVL142
 6292 08ca 0100     		.2byte	0x1
 6293 08cc 54       		.byte	0x54
 6294 08cd 20000000 		.4byte	.LVL142
 6295 08d1 2A000000 		.4byte	.LVL145
 6296 08d5 0400     		.2byte	0x4
 6297 08d7 F3       		.byte	0xf3
 6298 08d8 01       		.uleb128 0x1
 6299 08d9 53       		.byte	0x53
 6300 08da 9F       		.byte	0x9f
 6301 08db 2A000000 		.4byte	.LVL145
 6302 08df 3A000000 		.4byte	.LVL148
 6303 08e3 0100     		.2byte	0x1
 6304 08e5 54       		.byte	0x54
 6305 08e6 3A000000 		.4byte	.LVL148
 6306 08ea 3C000000 		.4byte	.LVL149
 6307 08ee 0400     		.2byte	0x4
 6308 08f0 F3       		.byte	0xf3
 6309 08f1 01       		.uleb128 0x1
 6310 08f2 53       		.byte	0x53
 6311 08f3 9F       		.byte	0x9f
 6312 08f4 3C000000 		.4byte	.LVL149
 6313 08f8 9E000000 		.4byte	.LVL156
 6314 08fc 0100     		.2byte	0x1
 6315 08fe 54       		.byte	0x54
 6316 08ff 9E000000 		.4byte	.LVL156
 6317 0903 A0000000 		.4byte	.LVL157
 6318 0907 0400     		.2byte	0x4
 6319 0909 F3       		.byte	0xf3
 6320 090a 01       		.uleb128 0x1
 6321 090b 53       		.byte	0x53
 6322 090c 9F       		.byte	0x9f
 6323 090d A0000000 		.4byte	.LVL157
 6324 0911 BE000000 		.4byte	.LVL159
 6325 0915 0100     		.2byte	0x1
 6326 0917 54       		.byte	0x54
 6327 0918 BE000000 		.4byte	.LVL159
 6328 091c C0000000 		.4byte	.LVL160
 6329 0920 0400     		.2byte	0x4
 6330 0922 F3       		.byte	0xf3
 6331 0923 01       		.uleb128 0x1
 6332 0924 53       		.byte	0x53
 6333 0925 9F       		.byte	0x9f
 6334 0926 C0000000 		.4byte	.LVL160
 6335 092a FC000000 		.4byte	.LFE1
 6336 092e 0100     		.2byte	0x1
 6337 0930 53       		.byte	0x53
 6338 0931 00000000 		.4byte	0
 6339 0935 00000000 		.4byte	0
 6340              	.LVUS36:
 6341 0939 02       		.uleb128 .LVU425
 6342 093a 00       		.uleb128 .LVU435
 6343 093b 00       		.uleb128 .LVU439
 6344 093c 01       		.uleb128 .LVU450
 6345 093d 01       		.uleb128 .LVU450
ARM GAS  C:\Users\EDULU~1.DES\AppData\Local\Temp\ccOPPFV9.s 			page 142


 6346 093e 03       		.uleb128 .LVU452
 6347 093f 00       		.uleb128 .LVU495
 6348 0940 00       		.uleb128 0
 6349              	.LLST36:
 6350 0941 0A000000 		.4byte	.LVL140
 6351 0945 20000000 		.4byte	.LVL142
 6352 0949 0200     		.2byte	0x2
 6353 094b 34       		.byte	0x34
 6354 094c 9F       		.byte	0x9f
 6355 094d 2A000000 		.4byte	.LVL145
 6356 0951 46000000 		.4byte	.LVL152
 6357 0955 0200     		.2byte	0x2
 6358 0957 34       		.byte	0x34
 6359 0958 9F       		.byte	0x9f
 6360 0959 46000000 		.4byte	.LVL152
 6361 095d 46000000 		.4byte	.LVL152
 6362 0961 0200     		.2byte	0x2
 6363 0963 30       		.byte	0x30
 6364 0964 9F       		.byte	0x9f
 6365 0965 C0000000 		.4byte	.LVL160
 6366 0969 FC000000 		.4byte	.LFE1
 6367 096d 0200     		.2byte	0x2
 6368 096f 34       		.byte	0x34
 6369 0970 9F       		.byte	0x9f
 6370 0971 00000000 		.4byte	0
 6371 0975 00000000 		.4byte	0
 6372              	.LVUS27:
 6373 0979 00       		.uleb128 0
 6374 097a 00       		.uleb128 .LVU364
 6375 097b 00       		.uleb128 .LVU364
 6376 097c 00       		.uleb128 .LVU367
 6377 097d 00       		.uleb128 .LVU368
 6378 097e 00       		.uleb128 .LVU369
 6379 097f 00       		.uleb128 .LVU369
 6380 0980 00       		.uleb128 .LVU374
 6381 0981 00       		.uleb128 .LVU374
 6382 0982 03       		.uleb128 .LVU381
 6383 0983 03       		.uleb128 .LVU381
 6384 0984 00       		.uleb128 .LVU398
 6385 0985 00       		.uleb128 .LVU398
 6386 0986 00       		.uleb128 .LVU399
 6387 0987 00       		.uleb128 .LVU399
 6388 0988 00       		.uleb128 .LVU420
 6389 0989 00       		.uleb128 .LVU420
 6390 098a 00       		.uleb128 0
 6391              	.LLST27:
 6392 098b 00000000 		.4byte	.LVL116
 6393 098f 20000000 		.4byte	.LVL119
 6394 0993 0100     		.2byte	0x1
 6395 0995 50       		.byte	0x50
 6396 0996 20000000 		.4byte	.LVL119
 6397 099a 28000000 		.4byte	.LVL121
 6398 099e 0100     		.2byte	0x1
 6399 09a0 55       		.byte	0x55
 6400 09a1 2A000000 		.4byte	.LVL124
 6401 09a5 2C000000 		.4byte	.LVL125
 6402 09a9 0100     		.2byte	0x1
ARM GAS  C:\Users\EDULU~1.DES\AppData\Local\Temp\ccOPPFV9.s 			page 143


 6403 09ab 50       		.byte	0x50
 6404 09ac 2C000000 		.4byte	.LVL125
 6405 09b0 3C000000 		.4byte	.LVL128
 6406 09b4 0100     		.2byte	0x1
 6407 09b6 55       		.byte	0x55
 6408 09b7 3C000000 		.4byte	.LVL128
 6409 09bb 46000000 		.4byte	.LVL131
 6410 09bf 0100     		.2byte	0x1
 6411 09c1 50       		.byte	0x50
 6412 09c2 46000000 		.4byte	.LVL131
 6413 09c6 66000000 		.4byte	.LVL132
 6414 09ca 0100     		.2byte	0x1
 6415 09cc 55       		.byte	0x55
 6416 09cd 66000000 		.4byte	.LVL132
 6417 09d1 6A000000 		.4byte	.LVL133
 6418 09d5 0400     		.2byte	0x4
 6419 09d7 F3       		.byte	0xf3
 6420 09d8 01       		.uleb128 0x1
 6421 09d9 50       		.byte	0x50
 6422 09da 9F       		.byte	0x9f
 6423 09db 6A000000 		.4byte	.LVL133
 6424 09df AA000000 		.4byte	.LVL138
 6425 09e3 0100     		.2byte	0x1
 6426 09e5 55       		.byte	0x55
 6427 09e6 AA000000 		.4byte	.LVL138
 6428 09ea EC000000 		.4byte	.LFE0
 6429 09ee 0100     		.2byte	0x1
 6430 09f0 50       		.byte	0x50
 6431 09f1 00000000 		.4byte	0
 6432 09f5 00000000 		.4byte	0
 6433              	.LVUS28:
 6434 09f9 00       		.uleb128 0
 6435 09fa 00       		.uleb128 .LVU364
 6436 09fb 00       		.uleb128 .LVU364
 6437 09fc 00       		.uleb128 .LVU368
 6438 09fd 00       		.uleb128 .LVU368
 6439 09fe 00       		.uleb128 .LVU370
 6440 09ff 00       		.uleb128 .LVU370
 6441 0a00 00       		.uleb128 .LVU373
 6442 0a01 00       		.uleb128 .LVU373
 6443 0a02 00       		.uleb128 .LVU374
 6444 0a03 00       		.uleb128 .LVU374
 6445 0a04 00       		.uleb128 .LVU377
 6446 0a05 00       		.uleb128 .LVU377
 6447 0a06 00       		.uleb128 .LVU415
 6448 0a07 00       		.uleb128 .LVU415
 6449 0a08 00       		.uleb128 .LVU416
 6450 0a09 00       		.uleb128 .LVU416
 6451 0a0a 00       		.uleb128 .LVU419
 6452 0a0b 00       		.uleb128 .LVU419
 6453 0a0c 00       		.uleb128 .LVU420
 6454 0a0d 00       		.uleb128 .LVU420
 6455 0a0e 00       		.uleb128 0
 6456              	.LLST28:
 6457 0a0f 00000000 		.4byte	.LVL116
 6458 0a13 20000000 		.4byte	.LVL119
 6459 0a17 0100     		.2byte	0x1
ARM GAS  C:\Users\EDULU~1.DES\AppData\Local\Temp\ccOPPFV9.s 			page 144


 6460 0a19 51       		.byte	0x51
 6461 0a1a 20000000 		.4byte	.LVL119
 6462 0a1e 2A000000 		.4byte	.LVL124
 6463 0a22 0400     		.2byte	0x4
 6464 0a24 F3       		.byte	0xf3
 6465 0a25 01       		.uleb128 0x1
 6466 0a26 51       		.byte	0x51
 6467 0a27 9F       		.byte	0x9f
 6468 0a28 2A000000 		.4byte	.LVL124
 6469 0a2c 2F000000 		.4byte	.LVL126-1
 6470 0a30 0100     		.2byte	0x1
 6471 0a32 51       		.byte	0x51
 6472 0a33 2F000000 		.4byte	.LVL126-1
 6473 0a37 3A000000 		.4byte	.LVL127
 6474 0a3b 0100     		.2byte	0x1
 6475 0a3d 54       		.byte	0x54
 6476 0a3e 3A000000 		.4byte	.LVL127
 6477 0a42 3C000000 		.4byte	.LVL128
 6478 0a46 0400     		.2byte	0x4
 6479 0a48 F3       		.byte	0xf3
 6480 0a49 01       		.uleb128 0x1
 6481 0a4a 51       		.byte	0x51
 6482 0a4b 9F       		.byte	0x9f
 6483 0a4c 3C000000 		.4byte	.LVL128
 6484 0a50 42000000 		.4byte	.LVL130
 6485 0a54 0100     		.2byte	0x1
 6486 0a56 51       		.byte	0x51
 6487 0a57 42000000 		.4byte	.LVL130
 6488 0a5b 9C000000 		.4byte	.LVL134
 6489 0a5f 0100     		.2byte	0x1
 6490 0a61 54       		.byte	0x54
 6491 0a62 9C000000 		.4byte	.LVL134
 6492 0a66 9E000000 		.4byte	.LVL135
 6493 0a6a 0400     		.2byte	0x4
 6494 0a6c F3       		.byte	0xf3
 6495 0a6d 01       		.uleb128 0x1
 6496 0a6e 51       		.byte	0x51
 6497 0a6f 9F       		.byte	0x9f
 6498 0a70 9E000000 		.4byte	.LVL135
 6499 0a74 A8000000 		.4byte	.LVL137
 6500 0a78 0100     		.2byte	0x1
 6501 0a7a 54       		.byte	0x54
 6502 0a7b A8000000 		.4byte	.LVL137
 6503 0a7f AA000000 		.4byte	.LVL138
 6504 0a83 0400     		.2byte	0x4
 6505 0a85 F3       		.byte	0xf3
 6506 0a86 01       		.uleb128 0x1
 6507 0a87 51       		.byte	0x51
 6508 0a88 9F       		.byte	0x9f
 6509 0a89 AA000000 		.4byte	.LVL138
 6510 0a8d EC000000 		.4byte	.LFE0
 6511 0a91 0100     		.2byte	0x1
 6512 0a93 51       		.byte	0x51
 6513 0a94 00000000 		.4byte	0
 6514 0a98 00000000 		.4byte	0
 6515              	.LVUS29:
 6516 0a9c 00       		.uleb128 0
ARM GAS  C:\Users\EDULU~1.DES\AppData\Local\Temp\ccOPPFV9.s 			page 145


 6517 0a9d 00       		.uleb128 .LVU364
 6518 0a9e 00       		.uleb128 .LVU364
 6519 0a9f 00       		.uleb128 .LVU367
 6520 0aa0 00       		.uleb128 .LVU367
 6521 0aa1 00       		.uleb128 .LVU368
 6522 0aa2 00       		.uleb128 .LVU368
 6523 0aa3 00       		.uleb128 .LVU370
 6524 0aa4 00       		.uleb128 .LVU370
 6525 0aa5 00       		.uleb128 .LVU374
 6526 0aa6 00       		.uleb128 .LVU374
 6527 0aa7 00       		.uleb128 .LVU376
 6528 0aa8 00       		.uleb128 .LVU376
 6529 0aa9 00       		.uleb128 .LVU420
 6530 0aaa 00       		.uleb128 .LVU420
 6531 0aab 00       		.uleb128 0
 6532              	.LLST29:
 6533 0aac 00000000 		.4byte	.LVL116
 6534 0ab0 20000000 		.4byte	.LVL119
 6535 0ab4 0100     		.2byte	0x1
 6536 0ab6 52       		.byte	0x52
 6537 0ab7 20000000 		.4byte	.LVL119
 6538 0abb 28000000 		.4byte	.LVL123
 6539 0abf 0100     		.2byte	0x1
 6540 0ac1 57       		.byte	0x57
 6541 0ac2 28000000 		.4byte	.LVL123
 6542 0ac6 2A000000 		.4byte	.LVL124
 6543 0aca 0400     		.2byte	0x4
 6544 0acc F3       		.byte	0xf3
 6545 0acd 01       		.uleb128 0x1
 6546 0ace 52       		.byte	0x52
 6547 0acf 9F       		.byte	0x9f
 6548 0ad0 2A000000 		.4byte	.LVL124
 6549 0ad4 2F000000 		.4byte	.LVL126-1
 6550 0ad8 0100     		.2byte	0x1
 6551 0ada 52       		.byte	0x52
 6552 0adb 2F000000 		.4byte	.LVL126-1
 6553 0adf 3C000000 		.4byte	.LVL128
 6554 0ae3 0100     		.2byte	0x1
 6555 0ae5 57       		.byte	0x57
 6556 0ae6 3C000000 		.4byte	.LVL128
 6557 0aea 3E000000 		.4byte	.LVL129
 6558 0aee 0100     		.2byte	0x1
 6559 0af0 52       		.byte	0x52
 6560 0af1 3E000000 		.4byte	.LVL129
 6561 0af5 AA000000 		.4byte	.LVL138
 6562 0af9 0100     		.2byte	0x1
 6563 0afb 57       		.byte	0x57
 6564 0afc AA000000 		.4byte	.LVL138
 6565 0b00 EC000000 		.4byte	.LFE0
 6566 0b04 0100     		.2byte	0x1
 6567 0b06 52       		.byte	0x52
 6568 0b07 00000000 		.4byte	0
 6569 0b0b 00000000 		.4byte	0
 6570              	.LVUS30:
 6571 0b0f 00       		.uleb128 0
 6572 0b10 00       		.uleb128 .LVU358
 6573 0b11 00       		.uleb128 .LVU358
ARM GAS  C:\Users\EDULU~1.DES\AppData\Local\Temp\ccOPPFV9.s 			page 146


 6574 0b12 00       		.uleb128 .LVU367
 6575 0b13 00       		.uleb128 .LVU367
 6576 0b14 00       		.uleb128 .LVU368
 6577 0b15 00       		.uleb128 .LVU368
 6578 0b16 00       		.uleb128 .LVU420
 6579 0b17 00       		.uleb128 .LVU420
 6580 0b18 00       		.uleb128 0
 6581              	.LLST30:
 6582 0b19 00000000 		.4byte	.LVL116
 6583 0b1d 10000000 		.4byte	.LVL118
 6584 0b21 0100     		.2byte	0x1
 6585 0b23 53       		.byte	0x53
 6586 0b24 10000000 		.4byte	.LVL118
 6587 0b28 28000000 		.4byte	.LVL122
 6588 0b2c 0100     		.2byte	0x1
 6589 0b2e 56       		.byte	0x56
 6590 0b2f 28000000 		.4byte	.LVL122
 6591 0b33 2A000000 		.4byte	.LVL124
 6592 0b37 0400     		.2byte	0x4
 6593 0b39 F3       		.byte	0xf3
 6594 0b3a 01       		.uleb128 0x1
 6595 0b3b 53       		.byte	0x53
 6596 0b3c 9F       		.byte	0x9f
 6597 0b3d 2A000000 		.4byte	.LVL124
 6598 0b41 AA000000 		.4byte	.LVL138
 6599 0b45 0100     		.2byte	0x1
 6600 0b47 56       		.byte	0x56
 6601 0b48 AA000000 		.4byte	.LVL138
 6602 0b4c EC000000 		.4byte	.LFE0
 6603 0b50 0100     		.2byte	0x1
 6604 0b52 53       		.byte	0x53
 6605 0b53 00000000 		.4byte	0
 6606 0b57 00000000 		.4byte	0
 6607              	.LVUS31:
 6608 0b5b 02       		.uleb128 .LVU354
 6609 0b5c 00       		.uleb128 .LVU364
 6610 0b5d 00       		.uleb128 .LVU368
 6611 0b5e 01       		.uleb128 .LVU379
 6612 0b5f 01       		.uleb128 .LVU379
 6613 0b60 03       		.uleb128 .LVU381
 6614 0b61 00       		.uleb128 .LVU420
 6615 0b62 00       		.uleb128 0
 6616              	.LLST31:
 6617 0b63 0A000000 		.4byte	.LVL117
 6618 0b67 20000000 		.4byte	.LVL119
 6619 0b6b 0200     		.2byte	0x2
 6620 0b6d 34       		.byte	0x34
 6621 0b6e 9F       		.byte	0x9f
 6622 0b6f 2A000000 		.4byte	.LVL124
 6623 0b73 46000000 		.4byte	.LVL131
 6624 0b77 0200     		.2byte	0x2
 6625 0b79 34       		.byte	0x34
 6626 0b7a 9F       		.byte	0x9f
 6627 0b7b 46000000 		.4byte	.LVL131
 6628 0b7f 46000000 		.4byte	.LVL131
 6629 0b83 0200     		.2byte	0x2
 6630 0b85 30       		.byte	0x30
ARM GAS  C:\Users\EDULU~1.DES\AppData\Local\Temp\ccOPPFV9.s 			page 147


 6631 0b86 9F       		.byte	0x9f
 6632 0b87 AA000000 		.4byte	.LVL138
 6633 0b8b EC000000 		.4byte	.LFE0
 6634 0b8f 0200     		.2byte	0x2
 6635 0b91 34       		.byte	0x34
 6636 0b92 9F       		.byte	0x9f
 6637 0b93 00000000 		.4byte	0
 6638 0b97 00000000 		.4byte	0
 6639              		.section	.debug_aranges,"",%progbits
 6640 0000 94000000 		.4byte	0x94
 6641 0004 0200     		.2byte	0x2
 6642 0006 00000000 		.4byte	.Ldebug_info0
 6643 000a 04       		.byte	0x4
 6644 000b 00       		.byte	0
 6645 000c 0000     		.2byte	0
 6646 000e 0000     		.2byte	0
 6647 0010 00000000 		.4byte	.LFB15
 6648 0014 26000000 		.4byte	.LFE15-.LFB15
 6649 0018 00000000 		.4byte	.LFB14
 6650 001c B0000000 		.4byte	.LFE14-.LFB14
 6651 0020 00000000 		.4byte	.LFB2
 6652 0024 C4000000 		.4byte	.LFE2-.LFB2
 6653 0028 00000000 		.4byte	.LFB4
 6654 002c 5C000000 		.4byte	.LFE4-.LFB4
 6655 0030 00000000 		.4byte	.LFB5
 6656 0034 48000000 		.4byte	.LFE5-.LFB5
 6657 0038 00000000 		.4byte	.LFB6
 6658 003c 80000000 		.4byte	.LFE6-.LFB6
 6659 0040 00000000 		.4byte	.LFB7
 6660 0044 0C000000 		.4byte	.LFE7-.LFB7
 6661 0048 00000000 		.4byte	.LFB8
 6662 004c 0C000000 		.4byte	.LFE8-.LFB8
 6663 0050 00000000 		.4byte	.LFB9
 6664 0054 28000000 		.4byte	.LFE9-.LFB9
 6665 0058 00000000 		.4byte	.LFB10
 6666 005c 28000000 		.4byte	.LFE10-.LFB10
 6667 0060 00000000 		.4byte	.LFB11
 6668 0064 30000000 		.4byte	.LFE11-.LFB11
 6669 0068 00000000 		.4byte	.LFB12
 6670 006c 20000000 		.4byte	.LFE12-.LFB12
 6671 0070 00000000 		.4byte	.LFB13
 6672 0074 C4000000 		.4byte	.LFE13-.LFB13
 6673 0078 00000000 		.4byte	.LFB0
 6674 007c EC000000 		.4byte	.LFE0-.LFB0
 6675 0080 00000000 		.4byte	.LFB1
 6676 0084 FC000000 		.4byte	.LFE1-.LFB1
 6677 0088 00000000 		.4byte	.LFB3
 6678 008c 68000000 		.4byte	.LFE3-.LFB3
 6679 0090 00000000 		.4byte	0
 6680 0094 00000000 		.4byte	0
 6681              		.section	.debug_ranges,"",%progbits
 6682              	.Ldebug_ranges0:
 6683 0000 28000000 		.4byte	.LBB2
 6684 0004 84000000 		.4byte	.LBE2
 6685 0008 8C000000 		.4byte	.LBB3
 6686 000c 98000000 		.4byte	.LBE3
 6687 0010 00000000 		.4byte	0
ARM GAS  C:\Users\EDULU~1.DES\AppData\Local\Temp\ccOPPFV9.s 			page 148


 6688 0014 00000000 		.4byte	0
 6689 0018 0C000000 		.4byte	.LBB4
 6690 001c 3E000000 		.4byte	.LBE4
 6691 0020 42000000 		.4byte	.LBB5
 6692 0024 46000000 		.4byte	.LBE5
 6693 0028 00000000 		.4byte	0
 6694 002c 00000000 		.4byte	0
 6695 0030 0C000000 		.4byte	.LBB8
 6696 0034 48000000 		.4byte	.LBE8
 6697 0038 4C000000 		.4byte	.LBB9
 6698 003c 58000000 		.4byte	.LBE9
 6699 0040 00000000 		.4byte	0
 6700 0044 00000000 		.4byte	0
 6701 0048 00000000 		.4byte	.LFB15
 6702 004c 26000000 		.4byte	.LFE15
 6703 0050 00000000 		.4byte	.LFB14
 6704 0054 B0000000 		.4byte	.LFE14
 6705 0058 00000000 		.4byte	.LFB2
 6706 005c C4000000 		.4byte	.LFE2
 6707 0060 00000000 		.4byte	.LFB4
 6708 0064 5C000000 		.4byte	.LFE4
 6709 0068 00000000 		.4byte	.LFB5
 6710 006c 48000000 		.4byte	.LFE5
 6711 0070 00000000 		.4byte	.LFB6
 6712 0074 80000000 		.4byte	.LFE6
 6713 0078 00000000 		.4byte	.LFB7
 6714 007c 0C000000 		.4byte	.LFE7
 6715 0080 00000000 		.4byte	.LFB8
 6716 0084 0C000000 		.4byte	.LFE8
 6717 0088 00000000 		.4byte	.LFB9
 6718 008c 28000000 		.4byte	.LFE9
 6719 0090 00000000 		.4byte	.LFB10
 6720 0094 28000000 		.4byte	.LFE10
 6721 0098 00000000 		.4byte	.LFB11
 6722 009c 30000000 		.4byte	.LFE11
 6723 00a0 00000000 		.4byte	.LFB12
 6724 00a4 20000000 		.4byte	.LFE12
 6725 00a8 00000000 		.4byte	.LFB13
 6726 00ac C4000000 		.4byte	.LFE13
 6727 00b0 00000000 		.4byte	.LFB0
 6728 00b4 EC000000 		.4byte	.LFE0
 6729 00b8 00000000 		.4byte	.LFB1
 6730 00bc FC000000 		.4byte	.LFE1
 6731 00c0 00000000 		.4byte	.LFB3
 6732 00c4 68000000 		.4byte	.LFE3
 6733 00c8 00000000 		.4byte	0
 6734 00cc 00000000 		.4byte	0
 6735              		.section	.debug_line,"",%progbits
 6736              	.Ldebug_line0:
 6737 0000 490A0000 		.section	.debug_str,"MS",%progbits,1
 6737      0300DD01 
 6737      00000201 
 6737      FB0E0D00 
 6737      01010101 
 6738              	.LASF46:
 6739 0000 5F64736F 		.ascii	"_dso_handle\000"
 6739      5F68616E 
ARM GAS  C:\Users\EDULU~1.DES\AppData\Local\Temp\ccOPPFV9.s 			page 149


 6739      646C6500 
 6740              	.LASF10:
 6741 000c 75696E74 		.ascii	"uint16\000"
 6741      313600
 6742              	.LASF137:
 6743 0013 4932435F 		.ascii	"I2C_initVar\000"
 6743      696E6974 
 6743      56617200 
 6744              	.LASF54:
 6745 001f 5F73697A 		.ascii	"_size\000"
 6745      6500
 6746              	.LASF45:
 6747 0025 5F666E61 		.ascii	"_fnargs\000"
 6747      72677300 
 6748              	.LASF156:
 6749 002d 6F6E6555 		.ascii	"oneUnit\000"
 6749      6E697400 
 6750              	.LASF98:
 6751 0035 5F72616E 		.ascii	"_rand48\000"
 6751      64343800 
 6752              	.LASF164:
 6753 003d 4932435F 		.ascii	"I2C_I2CMasterGetReadBufSize\000"
 6753      4932434D 
 6753      61737465 
 6753      72476574 
 6753      52656164 
 6754              	.LASF78:
 6755 0059 5F656D65 		.ascii	"_emergency\000"
 6755      7267656E 
 6755      637900
 6756              	.LASF167:
 6757 0064 72644279 		.ascii	"rdByte\000"
 6757      746500
 6758              	.LASF144:
 6759 006b 4932435F 		.ascii	"I2C_mstrRdBufSize\000"
 6759      6D737472 
 6759      52644275 
 6759      6653697A 
 6759      6500
 6760              	.LASF68:
 6761 007d 5F646174 		.ascii	"_data\000"
 6761      6100
 6762              	.LASF132:
 6763 0083 63796465 		.ascii	"cydelay32kMs\000"
 6763      6C617933 
 6763      326B4D73 
 6763      00
 6764              	.LASF118:
 6765 0090 5F776372 		.ascii	"_wcrtomb_state\000"
 6765      746F6D62 
 6765      5F737461 
 6765      746500
 6766              	.LASF148:
 6767 009f 4932435F 		.ascii	"I2C_mstrWrBufIndex\000"
 6767      6D737472 
 6767      57724275 
 6767      66496E64 
ARM GAS  C:\Users\EDULU~1.DES\AppData\Local\Temp\ccOPPFV9.s 			page 150


 6767      657800
 6768              	.LASF119:
 6769 00b2 5F776373 		.ascii	"_wcsrtombs_state\000"
 6769      72746F6D 
 6769      62735F73 
 6769      74617465 
 6769      00
 6770              	.LASF7:
 6771 00c3 6C6F6E67 		.ascii	"long long unsigned int\000"
 6771      206C6F6E 
 6771      6720756E 
 6771      7369676E 
 6771      65642069 
 6772              	.LASF58:
 6773 00da 5F6C6266 		.ascii	"_lbfsize\000"
 6773      73697A65 
 6773      00
 6774              	.LASF162:
 6775 00e3 4932435F 		.ascii	"I2C_I2CMasterClearReadBuf\000"
 6775      4932434D 
 6775      61737465 
 6775      72436C65 
 6775      61725265 
 6776              	.LASF133:
 6777 00fd 43795379 		.ascii	"CySysTickInitVar\000"
 6777      73546963 
 6777      6B496E69 
 6777      74566172 
 6777      00
 6778              	.LASF125:
 6779 010e 5F5F6C6F 		.ascii	"__locale_t\000"
 6779      63616C65 
 6779      5F7400
 6780              	.LASF116:
 6781 0119 5F6D6272 		.ascii	"_mbrtowc_state\000"
 6781      746F7763 
 6781      5F737461 
 6781      746500
 6782              	.LASF152:
 6783 0128 4932435F 		.ascii	"I2C_I2CMasterHandleStatus\000"
 6783      4932434D 
 6783      61737465 
 6783      7248616E 
 6783      646C6553 
 6784              	.LASF171:
 6785 0142 72784E6F 		.ascii	"rxNotEmpty\000"
 6785      74456D70 
 6785      747900
 6786              	.LASF35:
 6787 014d 5F5F746D 		.ascii	"__tm_sec\000"
 6787      5F736563 
 6787      00
 6788              	.LASF6:
 6789 0156 6C6F6E67 		.ascii	"long long int\000"
 6789      206C6F6E 
 6789      6720696E 
 6789      7400
ARM GAS  C:\Users\EDULU~1.DES\AppData\Local\Temp\ccOPPFV9.s 			page 151


 6790              	.LASF0:
 6791 0164 7369676E 		.ascii	"signed char\000"
 6791      65642063 
 6791      68617200 
 6792              	.LASF180:
 6793 0170 72644461 		.ascii	"rdData\000"
 6793      746100
 6794              	.LASF64:
 6795 0177 5F756275 		.ascii	"_ubuf\000"
 6795      6600
 6796              	.LASF53:
 6797 017d 5F626173 		.ascii	"_base\000"
 6797      6500
 6798              	.LASF37:
 6799 0183 5F5F746D 		.ascii	"__tm_hour\000"
 6799      5F686F75 
 6799      7200
 6800              	.LASF93:
 6801 018d 5F5F7366 		.ascii	"__sf\000"
 6801      00
 6802              	.LASF44:
 6803 0192 5F6F6E5F 		.ascii	"_on_exit_args\000"
 6803      65786974 
 6803      5F617267 
 6803      7300
 6804              	.LASF59:
 6805 01a0 5F636F6F 		.ascii	"_cookie\000"
 6805      6B696500 
 6806              	.LASF92:
 6807 01a8 5F5F7367 		.ascii	"__sglue\000"
 6807      6C756500 
 6808              	.LASF4:
 6809 01b0 6C6F6E67 		.ascii	"long int\000"
 6809      20696E74 
 6809      00
 6810              	.LASF189:
 6811 01b9 4379496E 		.ascii	"CyIntDisable\000"
 6811      74446973 
 6811      61626C65 
 6811      00
 6812              	.LASF192:
 6813 01c6 47656E65 		.ascii	"Generated_Source\\PSoC4\\I2C_I2C_MASTER.c\000"
 6813      72617465 
 6813      645F536F 
 6813      75726365 
 6813      5C50536F 
 6814              	.LASF56:
 6815 01ee 5F666C61 		.ascii	"_flags\000"
 6815      677300
 6816              	.LASF48:
 6817 01f5 5F69735F 		.ascii	"_is_cxa\000"
 6817      63786100 
 6818              	.LASF74:
 6819 01fd 5F737464 		.ascii	"_stdin\000"
 6819      696E00
 6820              	.LASF193:
 6821 0204 433A5C55 		.ascii	"C:\\Users\\edulu.DESKTOP-961TG4K\\Documents\\PSoC C"
ARM GAS  C:\Users\EDULU~1.DES\AppData\Local\Temp\ccOPPFV9.s 			page 152


 6821      73657273 
 6821      5C656475 
 6821      6C752E44 
 6821      45534B54 
 6822 0233 72656174 		.ascii	"reator\\Micrium\\Examples\\Cypress\\CY8CKIT-044\\OS"
 6822      6F725C4D 
 6822      69637269 
 6822      756D5C45 
 6822      78616D70 
 6823 0261 335C5053 		.ascii	"3\\PSoC\\OS3.cydsn\000"
 6823      6F435C4F 
 6823      53332E63 
 6823      7964736E 
 6823      00
 6824              	.LASF66:
 6825 0272 5F626C6B 		.ascii	"_blksize\000"
 6825      73697A65 
 6825      00
 6826              	.LASF9:
 6827 027b 75696E74 		.ascii	"uint8\000"
 6827      3800
 6828              	.LASF130:
 6829 0281 63796465 		.ascii	"cydelayFreqKhz\000"
 6829      6C617946 
 6829      7265714B 
 6829      687A00
 6830              	.LASF184:
 6831 0290 43794465 		.ascii	"CyDelayUs\000"
 6831      6C617955 
 6831      7300
 6832              	.LASF13:
 6833 029a 646F7562 		.ascii	"double\000"
 6833      6C6500
 6834              	.LASF88:
 6835 02a1 5F637674 		.ascii	"_cvtbuf\000"
 6835      62756600 
 6836              	.LASF67:
 6837 02a9 5F6F6666 		.ascii	"_offset\000"
 6837      73657400 
 6838              	.LASF146:
 6839 02b1 4932435F 		.ascii	"I2C_mstrWrBufPtr\000"
 6839      6D737472 
 6839      57724275 
 6839      66507472 
 6839      00
 6840              	.LASF165:
 6841 02c2 4932435F 		.ascii	"I2C_I2CMasterReadByte\000"
 6841      4932434D 
 6841      61737465 
 6841      72526561 
 6841      64427974 
 6842              	.LASF117:
 6843 02d8 5F6D6273 		.ascii	"_mbsrtowcs_state\000"
 6843      72746F77 
 6843      63735F73 
 6843      74617465 
 6843      00
ARM GAS  C:\Users\EDULU~1.DES\AppData\Local\Temp\ccOPPFV9.s 			page 153


 6844              	.LASF115:
 6845 02e9 5F6D6272 		.ascii	"_mbrlen_state\000"
 6845      6C656E5F 
 6845      73746174 
 6845      6500
 6846              	.LASF11:
 6847 02f7 75696E74 		.ascii	"uint32\000"
 6847      333200
 6848              	.LASF175:
 6849 02fe 4932435F 		.ascii	"I2C_I2CMasterSendRestart\000"
 6849      4932434D 
 6849      61737465 
 6849      7253656E 
 6849      64526573 
 6850              	.LASF51:
 6851 0317 5F666E73 		.ascii	"_fns\000"
 6851      00
 6852              	.LASF31:
 6853 031c 5F736967 		.ascii	"_sign\000"
 6853      6E00
 6854              	.LASF176:
 6855 0322 736C6176 		.ascii	"slaveAddress\000"
 6855      65416464 
 6855      72657373 
 6855      00
 6856              	.LASF27:
 6857 032f 5F666C6F 		.ascii	"_flock_t\000"
 6857      636B5F74 
 6857      00
 6858              	.LASF76:
 6859 0338 5F737464 		.ascii	"_stderr\000"
 6859      65727200 
 6860              	.LASF33:
 6861 0340 5F426967 		.ascii	"_Bigint\000"
 6861      696E7400 
 6862              	.LASF106:
 6863 0348 5F67616D 		.ascii	"_gamma_signgam\000"
 6863      6D615F73 
 6863      69676E67 
 6863      616D00
 6864              	.LASF159:
 6865 0357 4932435F 		.ascii	"I2C_I2CMasterStatus\000"
 6865      4932434D 
 6865      61737465 
 6865      72537461 
 6865      74757300 
 6866              	.LASF155:
 6867 036b 72657365 		.ascii	"resetBlock\000"
 6867      74426C6F 
 6867      636B00
 6868              	.LASF60:
 6869 0376 5F726561 		.ascii	"_read\000"
 6869      6400
 6870              	.LASF84:
 6871 037c 5F726573 		.ascii	"_result_k\000"
 6871      756C745F 
 6871      6B00
ARM GAS  C:\Users\EDULU~1.DES\AppData\Local\Temp\ccOPPFV9.s 			page 154


 6872              	.LASF34:
 6873 0386 5F5F746D 		.ascii	"__tm\000"
 6873      00
 6874              	.LASF8:
 6875 038b 756E7369 		.ascii	"unsigned int\000"
 6875      676E6564 
 6875      20696E74 
 6875      00
 6876              	.LASF23:
 6877 0398 5F5F7763 		.ascii	"__wchb\000"
 6877      686200
 6878              	.LASF75:
 6879 039f 5F737464 		.ascii	"_stdout\000"
 6879      6F757400 
 6880              	.LASF87:
 6881 03a7 5F637674 		.ascii	"_cvtlen\000"
 6881      6C656E00 
 6882              	.LASF143:
 6883 03af 4932435F 		.ascii	"I2C_mstrRdBufPtr\000"
 6883      6D737472 
 6883      52644275 
 6883      66507472 
 6883      00
 6884              	.LASF178:
 6885 03c0 4932435F 		.ascii	"I2C_I2CMasterSendStart\000"
 6885      4932434D 
 6885      61737465 
 6885      7253656E 
 6885      64537461 
 6886              	.LASF5:
 6887 03d7 6C6F6E67 		.ascii	"long unsigned int\000"
 6887      20756E73 
 6887      69676E65 
 6887      6420696E 
 6887      7400
 6888              	.LASF57:
 6889 03e9 5F66696C 		.ascii	"_file\000"
 6889      6500
 6890              	.LASF166:
 6891 03ef 61636B4E 		.ascii	"ackNack\000"
 6891      61636B00 
 6892              	.LASF153:
 6893 03f7 74696D65 		.ascii	"timeout\000"
 6893      6F757400 
 6894              	.LASF169:
 6895 03ff 65727253 		.ascii	"errStatus\000"
 6895      74617475 
 6895      7300
 6896              	.LASF96:
 6897 0409 5F6E696F 		.ascii	"_niobs\000"
 6897      627300
 6898              	.LASF3:
 6899 0410 73686F72 		.ascii	"short unsigned int\000"
 6899      7420756E 
 6899      7369676E 
 6899      65642069 
 6899      6E7400
ARM GAS  C:\Users\EDULU~1.DES\AppData\Local\Temp\ccOPPFV9.s 			page 155


 6900              	.LASF161:
 6901 0423 4932435F 		.ascii	"I2C_I2CMasterClearWriteBuf\000"
 6901      4932434D 
 6901      61737465 
 6901      72436C65 
 6901      61725772 
 6902              	.LASF90:
 6903 043e 5F617465 		.ascii	"_atexit0\000"
 6903      78697430 
 6903      00
 6904              	.LASF113:
 6905 0447 5F736967 		.ascii	"_signal_buf\000"
 6905      6E616C5F 
 6905      62756600 
 6906              	.LASF104:
 6907 0453 5F617363 		.ascii	"_asctime_buf\000"
 6907      74696D65 
 6907      5F627566 
 6907      00
 6908              	.LASF173:
 6909 0460 77724279 		.ascii	"wrByte\000"
 6909      746500
 6910              	.LASF83:
 6911 0467 5F726573 		.ascii	"_result\000"
 6911      756C7400 
 6912              	.LASF22:
 6913 046f 5F5F7763 		.ascii	"__wch\000"
 6913      6800
 6914              	.LASF18:
 6915 0475 5F4C4F43 		.ascii	"_LOCK_T\000"
 6915      4B5F5400 
 6916              	.LASF21:
 6917 047d 77696E74 		.ascii	"wint_t\000"
 6917      5F7400
 6918              	.LASF191:
 6919 0484 474E5520 		.ascii	"GNU C17 8.2.1 20181213 (release) [gcc-8-branch revi"
 6919      43313720 
 6919      382E322E 
 6919      31203230 
 6919      31383132 
 6920 04b7 73696F6E 		.ascii	"sion 267074] -mcpu=cortex-m0 -mthumb -mfloat-abi=so"
 6920      20323637 
 6920      3037345D 
 6920      202D6D63 
 6920      70753D63 
 6921 04ea 6674202D 		.ascii	"ft -march=armv6s-m -g -Og -ffunction-sections -ffat"
 6921      6D617263 
 6921      683D6172 
 6921      6D763673 
 6921      2D6D202D 
 6922 051d 2D6C746F 		.ascii	"-lto-objects\000"
 6922      2D6F626A 
 6922      65637473 
 6922      00
 6923              	.LASF69:
 6924 052a 5F6C6F63 		.ascii	"_lock\000"
 6924      6B00
ARM GAS  C:\Users\EDULU~1.DES\AppData\Local\Temp\ccOPPFV9.s 			page 156


 6925              	.LASF174:
 6926 0530 4932435F 		.ascii	"I2C_I2CMasterSendStop\000"
 6926      4932434D 
 6926      61737465 
 6926      7253656E 
 6926      6453746F 
 6927              	.LASF71:
 6928 0546 5F666C61 		.ascii	"_flags2\000"
 6928      67733200 
 6929              	.LASF151:
 6930 054e 4932435F 		.ascii	"I2C_I2CMasterWaitOneUnit\000"
 6930      4932434D 
 6930      61737465 
 6930      72576169 
 6930      744F6E65 
 6931              	.LASF177:
 6932 0567 62697452 		.ascii	"bitRnW\000"
 6932      6E5700
 6933              	.LASF15:
 6934 056e 72656733 		.ascii	"reg32\000"
 6934      3200
 6935              	.LASF40:
 6936 0574 5F5F746D 		.ascii	"__tm_year\000"
 6936      5F796561 
 6936      7200
 6937              	.LASF149:
 6938 057e 4932435F 		.ascii	"I2C_mstrWrBufIndexTmp\000"
 6938      6D737472 
 6938      57724275 
 6938      66496E64 
 6938      6578546D 
 6939              	.LASF141:
 6940 0594 4932435F 		.ascii	"I2C_mstrStatus\000"
 6940      6D737472 
 6940      53746174 
 6940      757300
 6941              	.LASF158:
 6942 05a3 4932435F 		.ascii	"I2C_I2CMasterClearStatus\000"
 6942      4932434D 
 6942      61737465 
 6942      72436C65 
 6942      61725374 
 6943              	.LASF129:
 6944 05bc 63796465 		.ascii	"cydelayFreqHz\000"
 6944      6C617946 
 6944      72657148 
 6944      7A00
 6945              	.LASF17:
 6946 05ca 6C6F6E67 		.ascii	"long double\000"
 6946      20646F75 
 6946      626C6500 
 6947              	.LASF160:
 6948 05d6 4932435F 		.ascii	"I2C_I2CReStartGeneration\000"
 6948      49324352 
 6948      65537461 
 6948      72744765 
 6948      6E657261 
ARM GAS  C:\Users\EDULU~1.DES\AppData\Local\Temp\ccOPPFV9.s 			page 157


 6949              	.LASF190:
 6950 05ef 4379496E 		.ascii	"CyIntEnable\000"
 6950      74456E61 
 6950      626C6500 
 6951              	.LASF121:
 6952 05fb 5F6E6578 		.ascii	"_nextf\000"
 6952      746600
 6953              	.LASF134:
 6954 0602 6379496D 		.ascii	"cyImoFreqMhz2Reg\000"
 6954      6F467265 
 6954      714D687A 
 6954      32526567 
 6954      00
 6955              	.LASF39:
 6956 0613 5F5F746D 		.ascii	"__tm_mon\000"
 6956      5F6D6F6E 
 6956      00
 6957              	.LASF49:
 6958 061c 5F617465 		.ascii	"_atexit\000"
 6958      78697400 
 6959              	.LASF81:
 6960 0624 5F5F7364 		.ascii	"__sdidinit\000"
 6960      6964696E 
 6960      697400
 6961              	.LASF19:
 6962 062f 5F6F6666 		.ascii	"_off_t\000"
 6962      5F7400
 6963              	.LASF170:
 6964 0636 6C6F6353 		.ascii	"locStatus\000"
 6964      74617475 
 6964      7300
 6965              	.LASF12:
 6966 0640 666C6F61 		.ascii	"float\000"
 6966      7400
 6967              	.LASF86:
 6968 0646 5F667265 		.ascii	"_freelist\000"
 6968      656C6973 
 6968      7400
 6969              	.LASF111:
 6970 0650 5F776374 		.ascii	"_wctomb_state\000"
 6970      6F6D625F 
 6970      73746174 
 6970      6500
 6971              	.LASF61:
 6972 065e 5F777269 		.ascii	"_write\000"
 6972      746500
 6973              	.LASF157:
 6974 0665 72656164 		.ascii	"readDirection\000"
 6974      44697265 
 6974      6374696F 
 6974      6E00
 6975              	.LASF163:
 6976 0673 4932435F 		.ascii	"I2C_I2CMasterGetWriteBufSize\000"
 6976      4932434D 
 6976      61737465 
 6976      72476574 
 6976      57726974 
ARM GAS  C:\Users\EDULU~1.DES\AppData\Local\Temp\ccOPPFV9.s 			page 158


 6977              	.LASF1:
 6978 0690 756E7369 		.ascii	"unsigned char\000"
 6978      676E6564 
 6978      20636861 
 6978      7200
 6979              	.LASF89:
 6980 069e 5F6E6577 		.ascii	"_new\000"
 6980      00
 6981              	.LASF120:
 6982 06a3 5F685F65 		.ascii	"_h_errno\000"
 6982      72726E6F 
 6982      00
 6983              	.LASF2:
 6984 06ac 73686F72 		.ascii	"short int\000"
 6984      7420696E 
 6984      7400
 6985              	.LASF42:
 6986 06b6 5F5F746D 		.ascii	"__tm_yday\000"
 6986      5F796461 
 6986      7900
 6987              	.LASF52:
 6988 06c0 5F5F7362 		.ascii	"__sbuf\000"
 6988      756600
 6989              	.LASF97:
 6990 06c7 5F696F62 		.ascii	"_iobs\000"
 6990      7300
 6991              	.LASF179:
 6992 06cd 4932435F 		.ascii	"I2C_I2CMasterReadBuf\000"
 6992      4932434D 
 6992      61737465 
 6992      72526561 
 6992      64427566 
 6993              	.LASF94:
 6994 06e2 5F5F4649 		.ascii	"__FILE\000"
 6994      4C4500
 6995              	.LASF26:
 6996 06e9 5F6D6273 		.ascii	"_mbstate_t\000"
 6996      74617465 
 6996      5F7400
 6997              	.LASF55:
 6998 06f4 5F5F7346 		.ascii	"__sFILE\000"
 6998      494C4500 
 6999              	.LASF70:
 7000 06fc 5F6D6273 		.ascii	"_mbstate\000"
 7000      74617465 
 7000      00
 7001              	.LASF107:
 7002 0705 5F72616E 		.ascii	"_rand_next\000"
 7002      645F6E65 
 7002      787400
 7003              	.LASF109:
 7004 0710 5F6D626C 		.ascii	"_mblen_state\000"
 7004      656E5F73 
 7004      74617465 
 7004      00
 7005              	.LASF77:
 7006 071d 5F696E63 		.ascii	"_inc\000"
ARM GAS  C:\Users\EDULU~1.DES\AppData\Local\Temp\ccOPPFV9.s 			page 159


 7006      00
 7007              	.LASF50:
 7008 0722 5F696E64 		.ascii	"_ind\000"
 7008      00
 7009              	.LASF80:
 7010 0727 5F6C6F63 		.ascii	"_locale\000"
 7010      616C6500 
 7011              	.LASF82:
 7012 072f 5F5F636C 		.ascii	"__cleanup\000"
 7012      65616E75 
 7012      7000
 7013              	.LASF79:
 7014 0739 5F756E73 		.ascii	"_unspecified_locale_info\000"
 7014      70656369 
 7014      66696564 
 7014      5F6C6F63 
 7014      616C655F 
 7015              	.LASF30:
 7016 0752 5F6D6178 		.ascii	"_maxwds\000"
 7016      77647300 
 7017              	.LASF72:
 7018 075a 5F726565 		.ascii	"_reent\000"
 7018      6E7400
 7019              	.LASF99:
 7020 0761 5F736565 		.ascii	"_seed\000"
 7020      6400
 7021              	.LASF24:
 7022 0767 5F5F636F 		.ascii	"__count\000"
 7022      756E7400 
 7023              	.LASF124:
 7024 076f 5F5F6C6F 		.ascii	"__lock\000"
 7024      636B00
 7025              	.LASF25:
 7026 0776 5F5F7661 		.ascii	"__value\000"
 7026      6C756500 
 7027              	.LASF62:
 7028 077e 5F736565 		.ascii	"_seek\000"
 7028      6B00
 7029              	.LASF126:
 7030 0784 5F696D70 		.ascii	"_impure_ptr\000"
 7030      7572655F 
 7030      70747200 
 7031              	.LASF20:
 7032 0790 5F66706F 		.ascii	"_fpos_t\000"
 7032      735F7400 
 7033              	.LASF186:
 7034 0798 4932435F 		.ascii	"I2C_sda_Read\000"
 7034      7364615F 
 7034      52656164 
 7034      00
 7035              	.LASF73:
 7036 07a5 5F657272 		.ascii	"_errno\000"
 7036      6E6F00
 7037              	.LASF14:
 7038 07ac 63686172 		.ascii	"char\000"
 7038      00
 7039              	.LASF181:
ARM GAS  C:\Users\EDULU~1.DES\AppData\Local\Temp\ccOPPFV9.s 			page 160


 7040 07b1 6D6F6465 		.ascii	"mode\000"
 7040      00
 7041              	.LASF16:
 7042 07b6 63796973 		.ascii	"cyisraddress\000"
 7042      72616464 
 7042      72657373 
 7042      00
 7043              	.LASF36:
 7044 07c3 5F5F746D 		.ascii	"__tm_min\000"
 7044      5F6D696E 
 7044      00
 7045              	.LASF135:
 7046 07cc 656E6162 		.ascii	"enableState\000"
 7046      6C655374 
 7046      61746500 
 7047              	.LASF128:
 7048 07d8 5F637479 		.ascii	"_ctype_\000"
 7048      70655F00 
 7049              	.LASF100:
 7050 07e0 5F6D756C 		.ascii	"_mult\000"
 7050      7400
 7051              	.LASF29:
 7052 07e6 5F6E6578 		.ascii	"_next\000"
 7052      7400
 7053              	.LASF103:
 7054 07ec 5F737472 		.ascii	"_strtok_last\000"
 7054      746F6B5F 
 7054      6C617374 
 7054      00
 7055              	.LASF47:
 7056 07f9 5F666E74 		.ascii	"_fntypes\000"
 7056      79706573 
 7056      00
 7057              	.LASF136:
 7058 0802 4932435F 		.ascii	"I2C_BACKUP_STRUCT\000"
 7058      4241434B 
 7058      55505F53 
 7058      54525543 
 7058      5400
 7059              	.LASF101:
 7060 0814 5F616464 		.ascii	"_add\000"
 7060      00
 7061              	.LASF28:
 7062 0819 5F5F554C 		.ascii	"__ULong\000"
 7062      6F6E6700 
 7063              	.LASF114:
 7064 0821 5F676574 		.ascii	"_getdate_err\000"
 7064      64617465 
 7064      5F657272 
 7064      00
 7065              	.LASF127:
 7066 082e 5F676C6F 		.ascii	"_global_impure_ptr\000"
 7066      62616C5F 
 7066      696D7075 
 7066      72655F70 
 7066      747200
 7067              	.LASF168:
ARM GAS  C:\Users\EDULU~1.DES\AppData\Local\Temp\ccOPPFV9.s 			page 161


 7068 0841 74696D65 		.ascii	"timeoutMs\000"
 7068      6F75744D 
 7068      7300
 7069              	.LASF131:
 7070 084b 63796465 		.ascii	"cydelayFreqMhz\000"
 7070      6C617946 
 7070      7265714D 
 7070      687A00
 7071              	.LASF140:
 7072 085a 4932435F 		.ascii	"I2C_state\000"
 7072      73746174 
 7072      6500
 7073              	.LASF183:
 7074 0864 77724461 		.ascii	"wrData\000"
 7074      746100
 7075              	.LASF102:
 7076 086b 5F756E75 		.ascii	"_unused_rand\000"
 7076      7365645F 
 7076      72616E64 
 7076      00
 7077              	.LASF187:
 7078 0878 4932435F 		.ascii	"I2C_scl_Write\000"
 7078      73636C5F 
 7078      57726974 
 7078      6500
 7079              	.LASF147:
 7080 0886 4932435F 		.ascii	"I2C_mstrWrBufSize\000"
 7080      6D737472 
 7080      57724275 
 7080      6653697A 
 7080      6500
 7081              	.LASF150:
 7082 0898 73746174 		.ascii	"status\000"
 7082      757300
 7083              	.LASF32:
 7084 089f 5F776473 		.ascii	"_wds\000"
 7084      00
 7085              	.LASF41:
 7086 08a4 5F5F746D 		.ascii	"__tm_wday\000"
 7086      5F776461 
 7086      7900
 7087              	.LASF95:
 7088 08ae 5F676C75 		.ascii	"_glue\000"
 7088      6500
 7089              	.LASF182:
 7090 08b4 4932435F 		.ascii	"I2C_I2CMasterWriteBuf\000"
 7090      4932434D 
 7090      61737465 
 7090      72577269 
 7090      74654275 
 7091              	.LASF122:
 7092 08ca 5F6E6D61 		.ascii	"_nmalloc\000"
 7092      6C6C6F63 
 7092      00
 7093              	.LASF112:
 7094 08d3 5F6C3634 		.ascii	"_l64a_buf\000"
 7094      615F6275 
ARM GAS  C:\Users\EDULU~1.DES\AppData\Local\Temp\ccOPPFV9.s 			page 162


 7094      6600
 7095              	.LASF91:
 7096 08dd 5F736967 		.ascii	"_sig_func\000"
 7096      5F66756E 
 7096      6300
 7097              	.LASF172:
 7098 08e7 4932435F 		.ascii	"I2C_I2CMasterWriteByte\000"
 7098      4932434D 
 7098      61737465 
 7098      72577269 
 7098      74654279 
 7099              	.LASF142:
 7100 08fe 4932435F 		.ascii	"I2C_mstrControl\000"
 7100      6D737472 
 7100      436F6E74 
 7100      726F6C00 
 7101              	.LASF65:
 7102 090e 5F6E6275 		.ascii	"_nbuf\000"
 7102      6600
 7103              	.LASF123:
 7104 0914 5F756E75 		.ascii	"_unused\000"
 7104      73656400 
 7105              	.LASF139:
 7106 091c 4932435F 		.ascii	"I2C_backup\000"
 7106      6261636B 
 7106      757000
 7107              	.LASF43:
 7108 0927 5F5F746D 		.ascii	"__tm_isdst\000"
 7108      5F697364 
 7108      737400
 7109              	.LASF105:
 7110 0932 5F6C6F63 		.ascii	"_localtime_buf\000"
 7110      616C7469 
 7110      6D655F62 
 7110      756600
 7111              	.LASF63:
 7112 0941 5F636C6F 		.ascii	"_close\000"
 7112      736500
 7113              	.LASF108:
 7114 0948 5F723438 		.ascii	"_r48\000"
 7114      00
 7115              	.LASF110:
 7116 094d 5F6D6274 		.ascii	"_mbtowc_state\000"
 7116      6F77635F 
 7116      73746174 
 7116      6500
 7117              	.LASF85:
 7118 095b 5F703573 		.ascii	"_p5s\000"
 7118      00
 7119              	.LASF145:
 7120 0960 4932435F 		.ascii	"I2C_mstrRdBufIndex\000"
 7120      6D737472 
 7120      52644275 
 7120      66496E64 
 7120      657800
 7121              	.LASF154:
 7122 0973 72657453 		.ascii	"retStatus\000"
ARM GAS  C:\Users\EDULU~1.DES\AppData\Local\Temp\ccOPPFV9.s 			page 163


 7122      74617475 
 7122      7300
 7123              	.LASF138:
 7124 097d 4932435F 		.ascii	"I2C_customIntrHandler\000"
 7124      63757374 
 7124      6F6D496E 
 7124      74724861 
 7124      6E646C65 
 7125              	.LASF188:
 7126 0993 4932435F 		.ascii	"I2C_scl_Read\000"
 7126      73636C5F 
 7126      52656164 
 7126      00
 7127              	.LASF185:
 7128 09a0 4932435F 		.ascii	"I2C_I2CFwBlockReset\000"
 7128      49324346 
 7128      77426C6F 
 7128      636B5265 
 7128      73657400 
 7129              	.LASF38:
 7130 09b4 5F5F746D 		.ascii	"__tm_mday\000"
 7130      5F6D6461 
 7130      7900
 7131              		.ident	"GCC: (GNU Tools for Arm Embedded Processors 8-2018-q4-major) 8.2.1 20181213 (release) [gcc
