ARM GAS  C:\Users\EDULU~1.DES\AppData\Local\Temp\ccCvlrIh.s 			page 1


   1              		.cpu cortex-m0
   2              		.eabi_attribute 20, 1
   3              		.eabi_attribute 21, 1
   4              		.eabi_attribute 23, 3
   5              		.eabi_attribute 24, 1
   6              		.eabi_attribute 25, 1
   7              		.eabi_attribute 26, 1
   8              		.eabi_attribute 30, 1
   9              		.eabi_attribute 34, 0
  10              		.eabi_attribute 18, 4
  11              		.file	"I2C_sda.c"
  12              		.text
  13              	.Ltext0:
  14              		.cfi_sections	.debug_frame
  15              		.section	.text.I2C_sda_SetDriveMode,"ax",%progbits
  16              		.align	1
  17              		.global	I2C_sda_SetDriveMode
  18              		.arch armv6s-m
  19              		.syntax unified
  20              		.code	16
  21              		.thumb_func
  22              		.fpu softvfp
  23              		.type	I2C_sda_SetDriveMode, %function
  24              	I2C_sda_SetDriveMode:
  25              	.LVL0:
  26              	.LFB0:
  27              		.file 1 "Generated_Source\\PSoC4\\I2C_sda.c"
   1:Generated_Source\PSoC4/I2C_sda.c **** /*******************************************************************************
   2:Generated_Source\PSoC4/I2C_sda.c **** * File Name: I2C_sda.c  
   3:Generated_Source\PSoC4/I2C_sda.c **** * Version 2.20
   4:Generated_Source\PSoC4/I2C_sda.c **** *
   5:Generated_Source\PSoC4/I2C_sda.c **** * Description:
   6:Generated_Source\PSoC4/I2C_sda.c **** *  This file contains API to enable firmware control of a Pins component.
   7:Generated_Source\PSoC4/I2C_sda.c **** *
   8:Generated_Source\PSoC4/I2C_sda.c **** ********************************************************************************
   9:Generated_Source\PSoC4/I2C_sda.c **** * Copyright 2008-2015, Cypress Semiconductor Corporation.  All rights reserved.
  10:Generated_Source\PSoC4/I2C_sda.c **** * You may use this file only in accordance with the license, terms, conditions, 
  11:Generated_Source\PSoC4/I2C_sda.c **** * disclaimers, and limitations in the end user license agreement accompanying 
  12:Generated_Source\PSoC4/I2C_sda.c **** * the software package with which this file was provided.
  13:Generated_Source\PSoC4/I2C_sda.c **** *******************************************************************************/
  14:Generated_Source\PSoC4/I2C_sda.c **** 
  15:Generated_Source\PSoC4/I2C_sda.c **** #include "cytypes.h"
  16:Generated_Source\PSoC4/I2C_sda.c **** #include "I2C_sda.h"
  17:Generated_Source\PSoC4/I2C_sda.c **** 
  18:Generated_Source\PSoC4/I2C_sda.c **** 
  19:Generated_Source\PSoC4/I2C_sda.c **** #if defined(I2C_sda__PC)
  20:Generated_Source\PSoC4/I2C_sda.c ****     #define I2C_sda_SetP4PinDriveMode(shift, mode)  \
  21:Generated_Source\PSoC4/I2C_sda.c ****     do { \
  22:Generated_Source\PSoC4/I2C_sda.c ****         I2C_sda_PC =   (I2C_sda_PC & \
  23:Generated_Source\PSoC4/I2C_sda.c ****                                 (uint32)(~(uint32)(I2C_sda_DRIVE_MODE_IND_MASK << \
  24:Generated_Source\PSoC4/I2C_sda.c ****                                 (I2C_sda_DRIVE_MODE_BITS * (shift))))) | \
  25:Generated_Source\PSoC4/I2C_sda.c ****                                 (uint32)((uint32)(mode) << \
  26:Generated_Source\PSoC4/I2C_sda.c ****                                 (I2C_sda_DRIVE_MODE_BITS * (shift))); \
  27:Generated_Source\PSoC4/I2C_sda.c ****     } while (0)
  28:Generated_Source\PSoC4/I2C_sda.c **** #else
  29:Generated_Source\PSoC4/I2C_sda.c ****     #if (CY_PSOC4_4200L)
  30:Generated_Source\PSoC4/I2C_sda.c ****         #define I2C_sda_SetP4PinDriveMode(shift, mode)  \
ARM GAS  C:\Users\EDULU~1.DES\AppData\Local\Temp\ccCvlrIh.s 			page 2


  31:Generated_Source\PSoC4/I2C_sda.c ****         do { \
  32:Generated_Source\PSoC4/I2C_sda.c ****             I2C_sda_USBIO_CTRL_REG = (I2C_sda_USBIO_CTRL_REG & \
  33:Generated_Source\PSoC4/I2C_sda.c ****                                     (uint32)(~(uint32)(I2C_sda_DRIVE_MODE_IND_MASK << \
  34:Generated_Source\PSoC4/I2C_sda.c ****                                     (I2C_sda_DRIVE_MODE_BITS * (shift))))) | \
  35:Generated_Source\PSoC4/I2C_sda.c ****                                     (uint32)((uint32)(mode) << \
  36:Generated_Source\PSoC4/I2C_sda.c ****                                     (I2C_sda_DRIVE_MODE_BITS * (shift))); \
  37:Generated_Source\PSoC4/I2C_sda.c ****         } while (0)
  38:Generated_Source\PSoC4/I2C_sda.c ****     #endif
  39:Generated_Source\PSoC4/I2C_sda.c **** #endif
  40:Generated_Source\PSoC4/I2C_sda.c ****   
  41:Generated_Source\PSoC4/I2C_sda.c **** 
  42:Generated_Source\PSoC4/I2C_sda.c **** #if defined(I2C_sda__PC) || (CY_PSOC4_4200L) 
  43:Generated_Source\PSoC4/I2C_sda.c ****     /*******************************************************************************
  44:Generated_Source\PSoC4/I2C_sda.c ****     * Function Name: I2C_sda_SetDriveMode
  45:Generated_Source\PSoC4/I2C_sda.c ****     ****************************************************************************//**
  46:Generated_Source\PSoC4/I2C_sda.c ****     *
  47:Generated_Source\PSoC4/I2C_sda.c ****     * \brief Sets the drive mode for each of the Pins component's pins.
  48:Generated_Source\PSoC4/I2C_sda.c ****     * 
  49:Generated_Source\PSoC4/I2C_sda.c ****     * <b>Note</b> This affects all pins in the Pins component instance. Use the
  50:Generated_Source\PSoC4/I2C_sda.c ****     * Per-Pin APIs if you wish to control individual pin's drive modes.
  51:Generated_Source\PSoC4/I2C_sda.c ****     *
  52:Generated_Source\PSoC4/I2C_sda.c ****     * <b>Note</b> USBIOs have limited drive functionality. Refer to the Drive Mode
  53:Generated_Source\PSoC4/I2C_sda.c ****     * parameter for more information.
  54:Generated_Source\PSoC4/I2C_sda.c ****     *
  55:Generated_Source\PSoC4/I2C_sda.c ****     * \param mode
  56:Generated_Source\PSoC4/I2C_sda.c ****     *  Mode for the selected signals. Valid options are documented in 
  57:Generated_Source\PSoC4/I2C_sda.c ****     *  \ref driveMode.
  58:Generated_Source\PSoC4/I2C_sda.c ****     *
  59:Generated_Source\PSoC4/I2C_sda.c ****     * \return
  60:Generated_Source\PSoC4/I2C_sda.c ****     *  None
  61:Generated_Source\PSoC4/I2C_sda.c ****     *
  62:Generated_Source\PSoC4/I2C_sda.c ****     * \sideeffect
  63:Generated_Source\PSoC4/I2C_sda.c ****     *  If you use read-modify-write operations that are not atomic, the ISR can
  64:Generated_Source\PSoC4/I2C_sda.c ****     *  cause corruption of this function. An ISR that interrupts this function 
  65:Generated_Source\PSoC4/I2C_sda.c ****     *  and performs writes to the Pins component Drive Mode registers can cause 
  66:Generated_Source\PSoC4/I2C_sda.c ****     *  corrupted port data. To avoid this issue, you should either use the Per-Pin
  67:Generated_Source\PSoC4/I2C_sda.c ****     *  APIs (primary method) or disable interrupts around this function.
  68:Generated_Source\PSoC4/I2C_sda.c ****     *
  69:Generated_Source\PSoC4/I2C_sda.c ****     * \funcusage
  70:Generated_Source\PSoC4/I2C_sda.c ****     *  \snippet I2C_sda_SUT.c usage_I2C_sda_SetDriveMode
  71:Generated_Source\PSoC4/I2C_sda.c ****     *******************************************************************************/
  72:Generated_Source\PSoC4/I2C_sda.c ****     void I2C_sda_SetDriveMode(uint8 mode)
  73:Generated_Source\PSoC4/I2C_sda.c ****     {
  28              		.loc 1 73 5 view -0
  29              		.cfi_startproc
  30              		@ args = 0, pretend = 0, frame = 0
  31              		@ frame_needed = 0, uses_anonymous_args = 0
  32              		@ link register save eliminated.
  74:Generated_Source\PSoC4/I2C_sda.c **** 		I2C_sda_SetP4PinDriveMode(I2C_sda__0__SHIFT, mode);
  33              		.loc 1 74 3 view .LVU1
  34              		.loc 1 74 3 view .LVU2
  35 0000 034A     		ldr	r2, .L2
  36 0002 1368     		ldr	r3, [r2]
  37 0004 3821     		movs	r1, #56
  38 0006 8B43     		bics	r3, r1
  39 0008 C000     		lsls	r0, r0, #3
  40              	.LVL1:
ARM GAS  C:\Users\EDULU~1.DES\AppData\Local\Temp\ccCvlrIh.s 			page 3


  41              		.loc 1 74 3 is_stmt 0 view .LVU3
  42 000a 0343     		orrs	r3, r0
  43 000c 1360     		str	r3, [r2]
  75:Generated_Source\PSoC4/I2C_sda.c ****     }
  44              		.loc 1 75 5 view .LVU4
  45              		@ sp needed
  46 000e 7047     		bx	lr
  47              	.L3:
  48              		.align	2
  49              	.L2:
  50 0010 08040440 		.word	1074005000
  51              		.cfi_endproc
  52              	.LFE0:
  53              		.size	I2C_sda_SetDriveMode, .-I2C_sda_SetDriveMode
  54              		.section	.text.I2C_sda_Write,"ax",%progbits
  55              		.align	1
  56              		.global	I2C_sda_Write
  57              		.syntax unified
  58              		.code	16
  59              		.thumb_func
  60              		.fpu softvfp
  61              		.type	I2C_sda_Write, %function
  62              	I2C_sda_Write:
  63              	.LVL2:
  64              	.LFB1:
  76:Generated_Source\PSoC4/I2C_sda.c **** #endif
  77:Generated_Source\PSoC4/I2C_sda.c **** 
  78:Generated_Source\PSoC4/I2C_sda.c **** 
  79:Generated_Source\PSoC4/I2C_sda.c **** /*******************************************************************************
  80:Generated_Source\PSoC4/I2C_sda.c **** * Function Name: I2C_sda_Write
  81:Generated_Source\PSoC4/I2C_sda.c **** ****************************************************************************//**
  82:Generated_Source\PSoC4/I2C_sda.c **** *
  83:Generated_Source\PSoC4/I2C_sda.c **** * \brief Writes the value to the physical port (data output register), masking
  84:Generated_Source\PSoC4/I2C_sda.c **** *  and shifting the bits appropriately. 
  85:Generated_Source\PSoC4/I2C_sda.c **** *
  86:Generated_Source\PSoC4/I2C_sda.c **** * The data output register controls the signal applied to the physical pin in 
  87:Generated_Source\PSoC4/I2C_sda.c **** * conjunction with the drive mode parameter. This function avoids changing 
  88:Generated_Source\PSoC4/I2C_sda.c **** * other bits in the port by using the appropriate method (read-modify-write or
  89:Generated_Source\PSoC4/I2C_sda.c **** * bit banding).
  90:Generated_Source\PSoC4/I2C_sda.c **** *
  91:Generated_Source\PSoC4/I2C_sda.c **** * <b>Note</b> This function should not be used on a hardware digital output pin 
  92:Generated_Source\PSoC4/I2C_sda.c **** * as it is driven by the hardware signal attached to it.
  93:Generated_Source\PSoC4/I2C_sda.c **** *
  94:Generated_Source\PSoC4/I2C_sda.c **** * \param value
  95:Generated_Source\PSoC4/I2C_sda.c **** *  Value to write to the component instance.
  96:Generated_Source\PSoC4/I2C_sda.c **** *
  97:Generated_Source\PSoC4/I2C_sda.c **** * \return 
  98:Generated_Source\PSoC4/I2C_sda.c **** *  None 
  99:Generated_Source\PSoC4/I2C_sda.c **** *
 100:Generated_Source\PSoC4/I2C_sda.c **** * \sideeffect
 101:Generated_Source\PSoC4/I2C_sda.c **** *  If you use read-modify-write operations that are not atomic; the Interrupt 
 102:Generated_Source\PSoC4/I2C_sda.c **** *  Service Routines (ISR) can cause corruption of this function. An ISR that 
 103:Generated_Source\PSoC4/I2C_sda.c **** *  interrupts this function and performs writes to the Pins component data 
 104:Generated_Source\PSoC4/I2C_sda.c **** *  register can cause corrupted port data. To avoid this issue, you should 
 105:Generated_Source\PSoC4/I2C_sda.c **** *  either use the Per-Pin APIs (primary method) or disable interrupts around 
 106:Generated_Source\PSoC4/I2C_sda.c **** *  this function.
 107:Generated_Source\PSoC4/I2C_sda.c **** *
ARM GAS  C:\Users\EDULU~1.DES\AppData\Local\Temp\ccCvlrIh.s 			page 4


 108:Generated_Source\PSoC4/I2C_sda.c **** * \funcusage
 109:Generated_Source\PSoC4/I2C_sda.c **** *  \snippet I2C_sda_SUT.c usage_I2C_sda_Write
 110:Generated_Source\PSoC4/I2C_sda.c **** *******************************************************************************/
 111:Generated_Source\PSoC4/I2C_sda.c **** void I2C_sda_Write(uint8 value)
 112:Generated_Source\PSoC4/I2C_sda.c **** {
  65              		.loc 1 112 1 is_stmt 1 view -0
  66              		.cfi_startproc
  67              		@ args = 0, pretend = 0, frame = 0
  68              		@ frame_needed = 0, uses_anonymous_args = 0
  69              		@ link register save eliminated.
 113:Generated_Source\PSoC4/I2C_sda.c ****     uint8 drVal = (uint8)(I2C_sda_DR & (uint8)(~I2C_sda_MASK));
  70              		.loc 1 113 5 view .LVU6
  71              		.loc 1 113 27 is_stmt 0 view .LVU7
  72 0000 044A     		ldr	r2, .L5
  73 0002 1368     		ldr	r3, [r2]
  74              		.loc 1 113 19 view .LVU8
  75 0004 DBB2     		uxtb	r3, r3
  76              		.loc 1 113 11 view .LVU9
  77 0006 0221     		movs	r1, #2
  78 0008 8B43     		bics	r3, r1
  79              	.LVL3:
 114:Generated_Source\PSoC4/I2C_sda.c ****     drVal = (drVal | ((uint8)(value << I2C_sda_SHIFT) & I2C_sda_MASK));
  80              		.loc 1 114 5 is_stmt 1 view .LVU10
  81              		.loc 1 114 23 is_stmt 0 view .LVU11
  82 000a 4000     		lsls	r0, r0, #1
  83              	.LVL4:
  84              		.loc 1 114 55 view .LVU12
  85 000c 0840     		ands	r0, r1
  86              		.loc 1 114 11 view .LVU13
  87 000e 1843     		orrs	r0, r3
  88              	.LVL5:
 115:Generated_Source\PSoC4/I2C_sda.c ****     I2C_sda_DR = (uint32)drVal;
  89              		.loc 1 115 5 is_stmt 1 view .LVU14
  90              		.loc 1 115 16 is_stmt 0 view .LVU15
  91 0010 1060     		str	r0, [r2]
 116:Generated_Source\PSoC4/I2C_sda.c **** }
  92              		.loc 1 116 1 view .LVU16
  93              		@ sp needed
  94 0012 7047     		bx	lr
  95              	.L6:
  96              		.align	2
  97              	.L5:
  98 0014 00040440 		.word	1074004992
  99              		.cfi_endproc
 100              	.LFE1:
 101              		.size	I2C_sda_Write, .-I2C_sda_Write
 102              		.section	.text.I2C_sda_Read,"ax",%progbits
 103              		.align	1
 104              		.global	I2C_sda_Read
 105              		.syntax unified
 106              		.code	16
 107              		.thumb_func
 108              		.fpu softvfp
 109              		.type	I2C_sda_Read, %function
 110              	I2C_sda_Read:
 111              	.LFB2:
 117:Generated_Source\PSoC4/I2C_sda.c **** 
ARM GAS  C:\Users\EDULU~1.DES\AppData\Local\Temp\ccCvlrIh.s 			page 5


 118:Generated_Source\PSoC4/I2C_sda.c **** 
 119:Generated_Source\PSoC4/I2C_sda.c **** /*******************************************************************************
 120:Generated_Source\PSoC4/I2C_sda.c **** * Function Name: I2C_sda_Read
 121:Generated_Source\PSoC4/I2C_sda.c **** ****************************************************************************//**
 122:Generated_Source\PSoC4/I2C_sda.c **** *
 123:Generated_Source\PSoC4/I2C_sda.c **** * \brief Reads the associated physical port (pin status register) and masks 
 124:Generated_Source\PSoC4/I2C_sda.c **** *  the required bits according to the width and bit position of the component
 125:Generated_Source\PSoC4/I2C_sda.c **** *  instance. 
 126:Generated_Source\PSoC4/I2C_sda.c **** *
 127:Generated_Source\PSoC4/I2C_sda.c **** * The pin's status register returns the current logic level present on the 
 128:Generated_Source\PSoC4/I2C_sda.c **** * physical pin.
 129:Generated_Source\PSoC4/I2C_sda.c **** *
 130:Generated_Source\PSoC4/I2C_sda.c **** * \return 
 131:Generated_Source\PSoC4/I2C_sda.c **** *  The current value for the pins in the component as a right justified number.
 132:Generated_Source\PSoC4/I2C_sda.c **** *
 133:Generated_Source\PSoC4/I2C_sda.c **** * \funcusage
 134:Generated_Source\PSoC4/I2C_sda.c **** *  \snippet I2C_sda_SUT.c usage_I2C_sda_Read  
 135:Generated_Source\PSoC4/I2C_sda.c **** *******************************************************************************/
 136:Generated_Source\PSoC4/I2C_sda.c **** uint8 I2C_sda_Read(void)
 137:Generated_Source\PSoC4/I2C_sda.c **** {
 112              		.loc 1 137 1 is_stmt 1 view -0
 113              		.cfi_startproc
 114              		@ args = 0, pretend = 0, frame = 0
 115              		@ frame_needed = 0, uses_anonymous_args = 0
 116              		@ link register save eliminated.
 138:Generated_Source\PSoC4/I2C_sda.c ****     return (uint8)((I2C_sda_PS & I2C_sda_MASK) >> I2C_sda_SHIFT);
 117              		.loc 1 138 5 view .LVU18
 118              		.loc 1 138 21 is_stmt 0 view .LVU19
 119 0000 024B     		ldr	r3, .L8
 120 0002 1B68     		ldr	r3, [r3]
 121              		.loc 1 138 48 view .LVU20
 122 0004 5B08     		lsrs	r3, r3, #1
 123              		.loc 1 138 12 view .LVU21
 124 0006 0120     		movs	r0, #1
 125 0008 1840     		ands	r0, r3
 139:Generated_Source\PSoC4/I2C_sda.c **** }
 126              		.loc 1 139 1 view .LVU22
 127              		@ sp needed
 128 000a 7047     		bx	lr
 129              	.L9:
 130              		.align	2
 131              	.L8:
 132 000c 04040440 		.word	1074004996
 133              		.cfi_endproc
 134              	.LFE2:
 135              		.size	I2C_sda_Read, .-I2C_sda_Read
 136              		.section	.text.I2C_sda_ReadDataReg,"ax",%progbits
 137              		.align	1
 138              		.global	I2C_sda_ReadDataReg
 139              		.syntax unified
 140              		.code	16
 141              		.thumb_func
 142              		.fpu softvfp
 143              		.type	I2C_sda_ReadDataReg, %function
 144              	I2C_sda_ReadDataReg:
 145              	.LFB3:
 140:Generated_Source\PSoC4/I2C_sda.c **** 
ARM GAS  C:\Users\EDULU~1.DES\AppData\Local\Temp\ccCvlrIh.s 			page 6


 141:Generated_Source\PSoC4/I2C_sda.c **** 
 142:Generated_Source\PSoC4/I2C_sda.c **** /*******************************************************************************
 143:Generated_Source\PSoC4/I2C_sda.c **** * Function Name: I2C_sda_ReadDataReg
 144:Generated_Source\PSoC4/I2C_sda.c **** ****************************************************************************//**
 145:Generated_Source\PSoC4/I2C_sda.c **** *
 146:Generated_Source\PSoC4/I2C_sda.c **** * \brief Reads the associated physical port's data output register and masks 
 147:Generated_Source\PSoC4/I2C_sda.c **** *  the correct bits according to the width and bit position of the component 
 148:Generated_Source\PSoC4/I2C_sda.c **** *  instance. 
 149:Generated_Source\PSoC4/I2C_sda.c **** *
 150:Generated_Source\PSoC4/I2C_sda.c **** * The data output register controls the signal applied to the physical pin in 
 151:Generated_Source\PSoC4/I2C_sda.c **** * conjunction with the drive mode parameter. This is not the same as the 
 152:Generated_Source\PSoC4/I2C_sda.c **** * preferred I2C_sda_Read() API because the 
 153:Generated_Source\PSoC4/I2C_sda.c **** * I2C_sda_ReadDataReg() reads the data register instead of the status 
 154:Generated_Source\PSoC4/I2C_sda.c **** * register. For output pins this is a useful function to determine the value 
 155:Generated_Source\PSoC4/I2C_sda.c **** * just written to the pin.
 156:Generated_Source\PSoC4/I2C_sda.c **** *
 157:Generated_Source\PSoC4/I2C_sda.c **** * \return 
 158:Generated_Source\PSoC4/I2C_sda.c **** *  The current value of the data register masked and shifted into a right 
 159:Generated_Source\PSoC4/I2C_sda.c **** *  justified number for the component instance.
 160:Generated_Source\PSoC4/I2C_sda.c **** *
 161:Generated_Source\PSoC4/I2C_sda.c **** * \funcusage
 162:Generated_Source\PSoC4/I2C_sda.c **** *  \snippet I2C_sda_SUT.c usage_I2C_sda_ReadDataReg 
 163:Generated_Source\PSoC4/I2C_sda.c **** *******************************************************************************/
 164:Generated_Source\PSoC4/I2C_sda.c **** uint8 I2C_sda_ReadDataReg(void)
 165:Generated_Source\PSoC4/I2C_sda.c **** {
 146              		.loc 1 165 1 is_stmt 1 view -0
 147              		.cfi_startproc
 148              		@ args = 0, pretend = 0, frame = 0
 149              		@ frame_needed = 0, uses_anonymous_args = 0
 150              		@ link register save eliminated.
 166:Generated_Source\PSoC4/I2C_sda.c ****     return (uint8)((I2C_sda_DR & I2C_sda_MASK) >> I2C_sda_SHIFT);
 151              		.loc 1 166 5 view .LVU24
 152              		.loc 1 166 21 is_stmt 0 view .LVU25
 153 0000 024B     		ldr	r3, .L11
 154 0002 1B68     		ldr	r3, [r3]
 155              		.loc 1 166 48 view .LVU26
 156 0004 5B08     		lsrs	r3, r3, #1
 157              		.loc 1 166 12 view .LVU27
 158 0006 0120     		movs	r0, #1
 159 0008 1840     		ands	r0, r3
 167:Generated_Source\PSoC4/I2C_sda.c **** }
 160              		.loc 1 167 1 view .LVU28
 161              		@ sp needed
 162 000a 7047     		bx	lr
 163              	.L12:
 164              		.align	2
 165              	.L11:
 166 000c 00040440 		.word	1074004992
 167              		.cfi_endproc
 168              	.LFE3:
 169              		.size	I2C_sda_ReadDataReg, .-I2C_sda_ReadDataReg
 170              		.section	.text.I2C_sda_SetInterruptMode,"ax",%progbits
 171              		.align	1
 172              		.global	I2C_sda_SetInterruptMode
 173              		.syntax unified
 174              		.code	16
 175              		.thumb_func
ARM GAS  C:\Users\EDULU~1.DES\AppData\Local\Temp\ccCvlrIh.s 			page 7


 176              		.fpu softvfp
 177              		.type	I2C_sda_SetInterruptMode, %function
 178              	I2C_sda_SetInterruptMode:
 179              	.LVL6:
 180              	.LFB4:
 168:Generated_Source\PSoC4/I2C_sda.c **** 
 169:Generated_Source\PSoC4/I2C_sda.c **** 
 170:Generated_Source\PSoC4/I2C_sda.c **** /*******************************************************************************
 171:Generated_Source\PSoC4/I2C_sda.c **** * Function Name: I2C_sda_SetInterruptMode
 172:Generated_Source\PSoC4/I2C_sda.c **** ****************************************************************************//**
 173:Generated_Source\PSoC4/I2C_sda.c **** *
 174:Generated_Source\PSoC4/I2C_sda.c **** * \brief Configures the interrupt mode for each of the Pins component's
 175:Generated_Source\PSoC4/I2C_sda.c **** *  pins. Alternatively you may set the interrupt mode for all the pins
 176:Generated_Source\PSoC4/I2C_sda.c **** *  specified in the Pins component.
 177:Generated_Source\PSoC4/I2C_sda.c **** *
 178:Generated_Source\PSoC4/I2C_sda.c **** *  <b>Note</b> The interrupt is port-wide and therefore any enabled pin
 179:Generated_Source\PSoC4/I2C_sda.c **** *  interrupt may trigger it.
 180:Generated_Source\PSoC4/I2C_sda.c **** *
 181:Generated_Source\PSoC4/I2C_sda.c **** * \param position
 182:Generated_Source\PSoC4/I2C_sda.c **** *  The pin position as listed in the Pins component. You may OR these to be 
 183:Generated_Source\PSoC4/I2C_sda.c **** *  able to configure the interrupt mode of multiple pins within a Pins 
 184:Generated_Source\PSoC4/I2C_sda.c **** *  component. Or you may use I2C_sda_INTR_ALL to configure the
 185:Generated_Source\PSoC4/I2C_sda.c **** *  interrupt mode of all the pins in the Pins component.       
 186:Generated_Source\PSoC4/I2C_sda.c **** *  - I2C_sda_0_INTR       (First pin in the list)
 187:Generated_Source\PSoC4/I2C_sda.c **** *  - I2C_sda_1_INTR       (Second pin in the list)
 188:Generated_Source\PSoC4/I2C_sda.c **** *  - ...
 189:Generated_Source\PSoC4/I2C_sda.c **** *  - I2C_sda_INTR_ALL     (All pins in Pins component)
 190:Generated_Source\PSoC4/I2C_sda.c **** *
 191:Generated_Source\PSoC4/I2C_sda.c **** * \param mode
 192:Generated_Source\PSoC4/I2C_sda.c **** *  Interrupt mode for the selected pins. Valid options are documented in
 193:Generated_Source\PSoC4/I2C_sda.c **** *  \ref intrMode.
 194:Generated_Source\PSoC4/I2C_sda.c **** *
 195:Generated_Source\PSoC4/I2C_sda.c **** * \return 
 196:Generated_Source\PSoC4/I2C_sda.c **** *  None
 197:Generated_Source\PSoC4/I2C_sda.c **** *  
 198:Generated_Source\PSoC4/I2C_sda.c **** * \sideeffect
 199:Generated_Source\PSoC4/I2C_sda.c **** *  It is recommended that the interrupt be disabled before calling this 
 200:Generated_Source\PSoC4/I2C_sda.c **** *  function to avoid unintended interrupt requests. Note that the interrupt
 201:Generated_Source\PSoC4/I2C_sda.c **** *  type is port wide, and therefore will trigger for any enabled pin on the 
 202:Generated_Source\PSoC4/I2C_sda.c **** *  port.
 203:Generated_Source\PSoC4/I2C_sda.c **** *
 204:Generated_Source\PSoC4/I2C_sda.c **** * \funcusage
 205:Generated_Source\PSoC4/I2C_sda.c **** *  \snippet I2C_sda_SUT.c usage_I2C_sda_SetInterruptMode
 206:Generated_Source\PSoC4/I2C_sda.c **** *******************************************************************************/
 207:Generated_Source\PSoC4/I2C_sda.c **** void I2C_sda_SetInterruptMode(uint16 position, uint16 mode)
 208:Generated_Source\PSoC4/I2C_sda.c **** {
 181              		.loc 1 208 1 is_stmt 1 view -0
 182              		.cfi_startproc
 183              		@ args = 0, pretend = 0, frame = 0
 184              		@ frame_needed = 0, uses_anonymous_args = 0
 185              		@ link register save eliminated.
 209:Generated_Source\PSoC4/I2C_sda.c ****     uint32 intrCfg;
 186              		.loc 1 209 5 view .LVU30
 210:Generated_Source\PSoC4/I2C_sda.c ****     
 211:Generated_Source\PSoC4/I2C_sda.c ****     intrCfg =  I2C_sda_INTCFG & (uint32)(~(uint32)position);
 187              		.loc 1 211 5 view .LVU31
 188              		.loc 1 211 16 is_stmt 0 view .LVU32
ARM GAS  C:\Users\EDULU~1.DES\AppData\Local\Temp\ccCvlrIh.s 			page 8


 189 0000 034A     		ldr	r2, .L14
 190 0002 1368     		ldr	r3, [r2]
 191              		.loc 1 211 13 view .LVU33
 192 0004 8343     		bics	r3, r0
 193              	.LVL7:
 212:Generated_Source\PSoC4/I2C_sda.c ****     I2C_sda_INTCFG = intrCfg | ((uint32)position & (uint32)mode);
 194              		.loc 1 212 5 is_stmt 1 view .LVU34
 195              		.loc 1 212 50 is_stmt 0 view .LVU35
 196 0006 0140     		ands	r1, r0
 197              	.LVL8:
 198              		.loc 1 212 30 view .LVU36
 199 0008 1943     		orrs	r1, r3
 200              		.loc 1 212 20 view .LVU37
 201 000a 1160     		str	r1, [r2]
 213:Generated_Source\PSoC4/I2C_sda.c **** }
 202              		.loc 1 213 1 view .LVU38
 203              		@ sp needed
 204 000c 7047     		bx	lr
 205              	.L15:
 206 000e C046     		.align	2
 207              	.L14:
 208 0010 0C040440 		.word	1074005004
 209              		.cfi_endproc
 210              	.LFE4:
 211              		.size	I2C_sda_SetInterruptMode, .-I2C_sda_SetInterruptMode
 212              		.section	.text.I2C_sda_ClearInterrupt,"ax",%progbits
 213              		.align	1
 214              		.global	I2C_sda_ClearInterrupt
 215              		.syntax unified
 216              		.code	16
 217              		.thumb_func
 218              		.fpu softvfp
 219              		.type	I2C_sda_ClearInterrupt, %function
 220              	I2C_sda_ClearInterrupt:
 221              	.LFB5:
 214:Generated_Source\PSoC4/I2C_sda.c **** 
 215:Generated_Source\PSoC4/I2C_sda.c **** 
 216:Generated_Source\PSoC4/I2C_sda.c **** /*******************************************************************************
 217:Generated_Source\PSoC4/I2C_sda.c **** * Function Name: I2C_sda_ClearInterrupt
 218:Generated_Source\PSoC4/I2C_sda.c **** ****************************************************************************//**
 219:Generated_Source\PSoC4/I2C_sda.c **** *
 220:Generated_Source\PSoC4/I2C_sda.c **** * \brief Clears any active interrupts attached with the component and returns 
 221:Generated_Source\PSoC4/I2C_sda.c **** *  the value of the interrupt status register allowing determination of which
 222:Generated_Source\PSoC4/I2C_sda.c **** *  pins generated an interrupt event.
 223:Generated_Source\PSoC4/I2C_sda.c **** *
 224:Generated_Source\PSoC4/I2C_sda.c **** * \return 
 225:Generated_Source\PSoC4/I2C_sda.c **** *  The right-shifted current value of the interrupt status register. Each pin 
 226:Generated_Source\PSoC4/I2C_sda.c **** *  has one bit set if it generated an interrupt event. For example, bit 0 is 
 227:Generated_Source\PSoC4/I2C_sda.c **** *  for pin 0 and bit 1 is for pin 1 of the Pins component.
 228:Generated_Source\PSoC4/I2C_sda.c **** *  
 229:Generated_Source\PSoC4/I2C_sda.c **** * \sideeffect
 230:Generated_Source\PSoC4/I2C_sda.c **** *  Clears all bits of the physical port's interrupt status register, not just
 231:Generated_Source\PSoC4/I2C_sda.c **** *  those associated with the Pins component.
 232:Generated_Source\PSoC4/I2C_sda.c **** *
 233:Generated_Source\PSoC4/I2C_sda.c **** * \funcusage
 234:Generated_Source\PSoC4/I2C_sda.c **** *  \snippet I2C_sda_SUT.c usage_I2C_sda_ClearInterrupt
 235:Generated_Source\PSoC4/I2C_sda.c **** *******************************************************************************/
ARM GAS  C:\Users\EDULU~1.DES\AppData\Local\Temp\ccCvlrIh.s 			page 9


 236:Generated_Source\PSoC4/I2C_sda.c **** uint8 I2C_sda_ClearInterrupt(void)
 237:Generated_Source\PSoC4/I2C_sda.c **** {
 222              		.loc 1 237 1 is_stmt 1 view -0
 223              		.cfi_startproc
 224              		@ args = 0, pretend = 0, frame = 0
 225              		@ frame_needed = 0, uses_anonymous_args = 0
 226              		@ link register save eliminated.
 238:Generated_Source\PSoC4/I2C_sda.c **** 	uint8 maskedStatus = (uint8)(I2C_sda_INTSTAT & I2C_sda_MASK);
 227              		.loc 1 238 2 view .LVU40
 228              		.loc 1 238 31 is_stmt 0 view .LVU41
 229 0000 034B     		ldr	r3, .L17
 230 0002 1868     		ldr	r0, [r3]
 231              		.loc 1 238 8 view .LVU42
 232 0004 0222     		movs	r2, #2
 233 0006 1040     		ands	r0, r2
 234              	.LVL9:
 239:Generated_Source\PSoC4/I2C_sda.c **** 	I2C_sda_INTSTAT = maskedStatus;
 235              		.loc 1 239 2 is_stmt 1 view .LVU43
 236              		.loc 1 239 18 is_stmt 0 view .LVU44
 237 0008 1860     		str	r0, [r3]
 240:Generated_Source\PSoC4/I2C_sda.c ****     return maskedStatus >> I2C_sda_SHIFT;
 238              		.loc 1 240 5 is_stmt 1 view .LVU45
 239              		.loc 1 240 25 is_stmt 0 view .LVU46
 240 000a 4008     		lsrs	r0, r0, #1
 241              	.LVL10:
 241:Generated_Source\PSoC4/I2C_sda.c **** }
 242              		.loc 1 241 1 view .LVU47
 243              		@ sp needed
 244 000c 7047     		bx	lr
 245              	.L18:
 246 000e C046     		.align	2
 247              	.L17:
 248 0010 10040440 		.word	1074005008
 249              		.cfi_endproc
 250              	.LFE5:
 251              		.size	I2C_sda_ClearInterrupt, .-I2C_sda_ClearInterrupt
 252              		.text
 253              	.Letext0:
 254              		.file 2 "Generated_Source\\PSoC4\\cytypes.h"