ARM GAS  C:\Users\EDULU~1.DES\AppData\Local\Temp\cc7a6i6m.s 			page 1


   1              		.cpu cortex-m0
   2              		.eabi_attribute 20, 1
   3              		.eabi_attribute 21, 1
   4              		.eabi_attribute 23, 3
   5              		.eabi_attribute 24, 1
   6              		.eabi_attribute 25, 1
   7              		.eabi_attribute 26, 1
   8              		.eabi_attribute 30, 1
   9              		.eabi_attribute 34, 0
  10              		.eabi_attribute 18, 4
  11              		.file	"os_app_hooks.c"
  12              		.text
  13              	.Ltext0:
  14              		.cfi_sections	.debug_frame
  15              		.section	.text.App_OS_SetAllHooks,"ax",%progbits
  16              		.align	1
  17              		.global	App_OS_SetAllHooks
  18              		.arch armv6s-m
  19              		.syntax unified
  20              		.code	16
  21              		.thumb_func
  22              		.fpu softvfp
  23              		.type	App_OS_SetAllHooks, %function
  24              	App_OS_SetAllHooks:
  25              	.LFB3:
  26              		.file 1 "..\\..\\os_app_hooks.c"
   1:..\../os_app_hooks.c **** /*
   2:..\../os_app_hooks.c **** ***************************************************************************************************
   3:..\../os_app_hooks.c **** *                                                      uC/OS-III
   4:..\../os_app_hooks.c **** *                                                 The Real-Time Kernel
   5:..\../os_app_hooks.c **** *
   6:..\../os_app_hooks.c **** *                                  (c) Copyright 2009-2015; Micrium, Inc.; Weston, FL
   7:..\../os_app_hooks.c **** *                           All rights reserved.  Protected by international copyright laws.
   8:..\../os_app_hooks.c **** *
   9:..\../os_app_hooks.c **** *                                                  APPLICATION HOOKS
  10:..\../os_app_hooks.c **** *
  11:..\../os_app_hooks.c **** * File    : OS_APP_HOOKS.C
  12:..\../os_app_hooks.c **** * By      : JJL
  13:..\../os_app_hooks.c **** * Version : V3.05.01
  14:..\../os_app_hooks.c **** *
  15:..\../os_app_hooks.c **** * LICENSING TERMS:
  16:..\../os_app_hooks.c **** * ---------------
  17:..\../os_app_hooks.c **** *           uC/OS-III is provided in source form for FREE short-term evaluation, for educational us
  18:..\../os_app_hooks.c **** *           for peaceful research.  If you plan or intend to use uC/OS-III in a commercial applicat
  19:..\../os_app_hooks.c **** *           product then, you need to contact Micrium to properly license uC/OS-III for its use in 
  20:..\../os_app_hooks.c **** *           application/product.   We provide ALL the source code for your convenience and to help 
  21:..\../os_app_hooks.c **** *           experience uC/OS-III.  The fact that the source is provided does NOT mean that you can 
  22:..\../os_app_hooks.c **** *           it commercially without paying a licensing fee.
  23:..\../os_app_hooks.c **** *
  24:..\../os_app_hooks.c **** *           Knowledge of the source code may NOT be used to develop a similar product.
  25:..\../os_app_hooks.c **** *
  26:..\../os_app_hooks.c **** *           Please help us continue to provide the embedded community with the finest software avai
  27:..\../os_app_hooks.c **** *           Your honesty is greatly appreciated.
  28:..\../os_app_hooks.c **** *
  29:..\../os_app_hooks.c **** *           You can find our product's user manual, API reference, release notes and
  30:..\../os_app_hooks.c **** *           more information at https://doc.micrium.com.
  31:..\../os_app_hooks.c **** *           You can contact us at www.micrium.com.
ARM GAS  C:\Users\EDULU~1.DES\AppData\Local\Temp\cc7a6i6m.s 			page 2


  32:..\../os_app_hooks.c **** ***************************************************************************************************
  33:..\../os_app_hooks.c **** */
  34:..\../os_app_hooks.c **** 
  35:..\../os_app_hooks.c **** #define   MICRIUM_SOURCE
  36:..\../os_app_hooks.c **** #include  <os.h>
  37:..\../os_app_hooks.c **** #include  "os_app_hooks.h"
  38:..\../os_app_hooks.c **** 
  39:..\../os_app_hooks.c **** 
  40:..\../os_app_hooks.c **** /*
  41:..\../os_app_hooks.c **** ***************************************************************************************************
  42:..\../os_app_hooks.c **** *                                              SET ALL APPLICATION HOOKS
  43:..\../os_app_hooks.c **** *
  44:..\../os_app_hooks.c **** * Description: Set ALL application hooks.
  45:..\../os_app_hooks.c **** *
  46:..\../os_app_hooks.c **** * Arguments  : none.
  47:..\../os_app_hooks.c **** *
  48:..\../os_app_hooks.c **** * Note(s)    : none
  49:..\../os_app_hooks.c **** ***************************************************************************************************
  50:..\../os_app_hooks.c **** */
  51:..\../os_app_hooks.c **** 
  52:..\../os_app_hooks.c **** void  App_OS_SetAllHooks (void)
  53:..\../os_app_hooks.c **** {
  27              		.loc 1 53 1 view -0
  28              		.cfi_startproc
  29              		@ args = 0, pretend = 0, frame = 0
  30              		@ frame_needed = 0, uses_anonymous_args = 0
  31              		@ link register save eliminated.
  54:..\../os_app_hooks.c **** #if OS_CFG_APP_HOOKS_EN > 0u
  55:..\../os_app_hooks.c ****     CPU_SR_ALLOC();
  56:..\../os_app_hooks.c **** 
  57:..\../os_app_hooks.c **** 
  58:..\../os_app_hooks.c ****     CPU_CRITICAL_ENTER();
  59:..\../os_app_hooks.c ****     OS_AppIdleTaskHookPtr   = App_OS_IdleTaskHook;
  60:..\../os_app_hooks.c **** 
  61:..\../os_app_hooks.c **** #if (OS_CFG_TASK_STK_REDZONE_EN == DEF_ENABLED)
  62:..\../os_app_hooks.c ****     OS_AppRedzoneHitHookPtr = App_OS_RedzoneHitHook;
  63:..\../os_app_hooks.c **** #endif
  64:..\../os_app_hooks.c **** 
  65:..\../os_app_hooks.c ****     OS_AppStatTaskHookPtr   = App_OS_StatTaskHook;
  66:..\../os_app_hooks.c **** 
  67:..\../os_app_hooks.c ****     OS_AppTaskCreateHookPtr = App_OS_TaskCreateHook;
  68:..\../os_app_hooks.c **** 
  69:..\../os_app_hooks.c ****     OS_AppTaskDelHookPtr    = App_OS_TaskDelHook;
  70:..\../os_app_hooks.c **** 
  71:..\../os_app_hooks.c ****     OS_AppTaskReturnHookPtr = App_OS_TaskReturnHook;
  72:..\../os_app_hooks.c **** 
  73:..\../os_app_hooks.c ****     OS_AppTaskSwHookPtr     = App_OS_TaskSwHook;
  74:..\../os_app_hooks.c **** 
  75:..\../os_app_hooks.c ****     OS_AppTimeTickHookPtr   = App_OS_TimeTickHook;
  76:..\../os_app_hooks.c ****     CPU_CRITICAL_EXIT();
  77:..\../os_app_hooks.c **** #endif
  78:..\../os_app_hooks.c **** }
  32              		.loc 1 78 1 view .LVU1
  33              		@ sp needed
  34 0000 7047     		bx	lr
  35              		.cfi_endproc
  36              	.LFE3:
ARM GAS  C:\Users\EDULU~1.DES\AppData\Local\Temp\cc7a6i6m.s 			page 3


  37              		.size	App_OS_SetAllHooks, .-App_OS_SetAllHooks
  38              		.section	.text.App_OS_ClrAllHooks,"ax",%progbits
  39              		.align	1
  40              		.global	App_OS_ClrAllHooks
  41              		.syntax unified
  42              		.code	16
  43              		.thumb_func
  44              		.fpu softvfp
  45              		.type	App_OS_ClrAllHooks, %function
  46              	App_OS_ClrAllHooks:
  47              	.LFB4:
  79:..\../os_app_hooks.c **** 
  80:..\../os_app_hooks.c **** 
  81:..\../os_app_hooks.c **** /*
  82:..\../os_app_hooks.c **** ***************************************************************************************************
  83:..\../os_app_hooks.c **** *                                             CLEAR ALL APPLICATION HOOKS
  84:..\../os_app_hooks.c **** *
  85:..\../os_app_hooks.c **** * Description: Clear ALL application hooks.
  86:..\../os_app_hooks.c **** *
  87:..\../os_app_hooks.c **** * Arguments  : none.
  88:..\../os_app_hooks.c **** *
  89:..\../os_app_hooks.c **** * Note(s)    : none
  90:..\../os_app_hooks.c **** ***************************************************************************************************
  91:..\../os_app_hooks.c **** */
  92:..\../os_app_hooks.c **** 
  93:..\../os_app_hooks.c **** void  App_OS_ClrAllHooks (void)
  94:..\../os_app_hooks.c **** {
  48              		.loc 1 94 1 view -0
  49              		.cfi_startproc
  50              		@ args = 0, pretend = 0, frame = 0
  51              		@ frame_needed = 0, uses_anonymous_args = 0
  52              		@ link register save eliminated.
  95:..\../os_app_hooks.c **** #if OS_CFG_APP_HOOKS_EN > 0u
  96:..\../os_app_hooks.c ****     CPU_SR_ALLOC();
  97:..\../os_app_hooks.c **** 
  98:..\../os_app_hooks.c **** 
  99:..\../os_app_hooks.c ****     CPU_CRITICAL_ENTER();
 100:..\../os_app_hooks.c ****     OS_AppIdleTaskHookPtr   = (OS_APP_HOOK_VOID)0;
 101:..\../os_app_hooks.c **** 
 102:..\../os_app_hooks.c **** #if (OS_CFG_TASK_STK_REDZONE_EN == DEF_ENABLED)
 103:..\../os_app_hooks.c ****     OS_AppRedzoneHitHookPtr = (OS_APP_HOOK_TCB)0;
 104:..\../os_app_hooks.c **** #endif
 105:..\../os_app_hooks.c **** 
 106:..\../os_app_hooks.c ****     OS_AppStatTaskHookPtr   = (OS_APP_HOOK_VOID)0;
 107:..\../os_app_hooks.c **** 
 108:..\../os_app_hooks.c ****     OS_AppTaskCreateHookPtr = (OS_APP_HOOK_TCB)0;
 109:..\../os_app_hooks.c **** 
 110:..\../os_app_hooks.c ****     OS_AppTaskDelHookPtr    = (OS_APP_HOOK_TCB)0;
 111:..\../os_app_hooks.c **** 
 112:..\../os_app_hooks.c ****     OS_AppTaskReturnHookPtr = (OS_APP_HOOK_TCB)0;
 113:..\../os_app_hooks.c **** 
 114:..\../os_app_hooks.c ****     OS_AppTaskSwHookPtr     = (OS_APP_HOOK_VOID)0;
 115:..\../os_app_hooks.c **** 
 116:..\../os_app_hooks.c ****     OS_AppTimeTickHookPtr   = (OS_APP_HOOK_VOID)0;
 117:..\../os_app_hooks.c ****     CPU_CRITICAL_EXIT();
 118:..\../os_app_hooks.c **** #endif
 119:..\../os_app_hooks.c **** }
ARM GAS  C:\Users\EDULU~1.DES\AppData\Local\Temp\cc7a6i6m.s 			page 4


  53              		.loc 1 119 1 view .LVU3
  54              		@ sp needed
  55 0000 7047     		bx	lr
  56              		.cfi_endproc
  57              	.LFE4:
  58              		.size	App_OS_ClrAllHooks, .-App_OS_ClrAllHooks
  59              		.section	.text.App_OS_IdleTaskHook,"ax",%progbits
  60              		.align	1
  61              		.global	App_OS_IdleTaskHook
  62              		.syntax unified
  63              		.code	16
  64              		.thumb_func
  65              		.fpu softvfp
  66              		.type	App_OS_IdleTaskHook, %function
  67              	App_OS_IdleTaskHook:
  68              	.LFB5:
 120:..\../os_app_hooks.c **** 
 121:..\../os_app_hooks.c **** /*
 122:..\../os_app_hooks.c **** ***************************************************************************************************
 123:..\../os_app_hooks.c **** *                                              APPLICATION IDLE TASK HOOK
 124:..\../os_app_hooks.c **** *
 125:..\../os_app_hooks.c **** * Description: This function is called by the idle task.  This hook has been added to allow you to 
 126:..\../os_app_hooks.c **** *              STOP the CPU to conserve power.
 127:..\../os_app_hooks.c **** *
 128:..\../os_app_hooks.c **** * Arguments  : none
 129:..\../os_app_hooks.c **** *
 130:..\../os_app_hooks.c **** * Note(s)    : none
 131:..\../os_app_hooks.c **** ***************************************************************************************************
 132:..\../os_app_hooks.c **** */
 133:..\../os_app_hooks.c **** 
 134:..\../os_app_hooks.c **** void  App_OS_IdleTaskHook (void)
 135:..\../os_app_hooks.c **** {
  69              		.loc 1 135 1 view -0
  70              		.cfi_startproc
  71              		@ args = 0, pretend = 0, frame = 0
  72              		@ frame_needed = 0, uses_anonymous_args = 0
  73              		@ link register save eliminated.
 136:..\../os_app_hooks.c **** 
 137:..\../os_app_hooks.c **** }
  74              		.loc 1 137 1 view .LVU5
  75              		@ sp needed
  76 0000 7047     		bx	lr
  77              		.cfi_endproc
  78              	.LFE5:
  79              		.size	App_OS_IdleTaskHook, .-App_OS_IdleTaskHook
  80              		.section	.text.App_OS_StatTaskHook,"ax",%progbits
  81              		.align	1
  82              		.global	App_OS_StatTaskHook
  83              		.syntax unified
  84              		.code	16
  85              		.thumb_func
  86              		.fpu softvfp
  87              		.type	App_OS_StatTaskHook, %function
  88              	App_OS_StatTaskHook:
  89              	.LFB6:
 138:..\../os_app_hooks.c **** 
 139:..\../os_app_hooks.c **** /*
ARM GAS  C:\Users\EDULU~1.DES\AppData\Local\Temp\cc7a6i6m.s 			page 5


 140:..\../os_app_hooks.c **** ***************************************************************************************************
 141:..\../os_app_hooks.c **** *                                             APPLICATION REDZONE HIT HOOK
 142:..\../os_app_hooks.c **** *
 143:..\../os_app_hooks.c **** * Description: This function is called when a task's stack overflowed.
 144:..\../os_app_hooks.c **** *
 145:..\../os_app_hooks.c **** * Arguments  : p_tcb   is a pointer to the task control block of the offending task. NULL if ISR.
 146:..\../os_app_hooks.c **** *
 147:..\../os_app_hooks.c **** * Note(s)    : None.
 148:..\../os_app_hooks.c **** ***************************************************************************************************
 149:..\../os_app_hooks.c **** */
 150:..\../os_app_hooks.c **** #if (OS_CFG_TASK_STK_REDZONE_EN == DEF_ENABLED)
 151:..\../os_app_hooks.c **** void  App_OS_RedzoneHitHook (OS_TCB  *p_tcb)
 152:..\../os_app_hooks.c **** {
 153:..\../os_app_hooks.c ****     (void)&p_tcb;
 154:..\../os_app_hooks.c ****     CPU_SW_EXCEPTION(;);
 155:..\../os_app_hooks.c **** }
 156:..\../os_app_hooks.c **** #endif
 157:..\../os_app_hooks.c **** 
 158:..\../os_app_hooks.c **** 
 159:..\../os_app_hooks.c **** /*
 160:..\../os_app_hooks.c **** ***************************************************************************************************
 161:..\../os_app_hooks.c **** *                                           APPLICATION STATISTIC TASK HOOK
 162:..\../os_app_hooks.c **** *
 163:..\../os_app_hooks.c **** * Description: This function is called every second by uC/OS-III's statistics task.  This allows yo
 164:..\../os_app_hooks.c **** *              functionality to the statistics task.
 165:..\../os_app_hooks.c **** *
 166:..\../os_app_hooks.c **** * Arguments  : none
 167:..\../os_app_hooks.c **** *
 168:..\../os_app_hooks.c **** * Note(s)    : none
 169:..\../os_app_hooks.c **** ***************************************************************************************************
 170:..\../os_app_hooks.c **** */
 171:..\../os_app_hooks.c **** 
 172:..\../os_app_hooks.c **** void  App_OS_StatTaskHook (void)
 173:..\../os_app_hooks.c **** {
  90              		.loc 1 173 1 view -0
  91              		.cfi_startproc
  92              		@ args = 0, pretend = 0, frame = 0
  93              		@ frame_needed = 0, uses_anonymous_args = 0
  94              		@ link register save eliminated.
 174:..\../os_app_hooks.c **** 
 175:..\../os_app_hooks.c **** }
  95              		.loc 1 175 1 view .LVU7
  96              		@ sp needed
  97 0000 7047     		bx	lr
  98              		.cfi_endproc
  99              	.LFE6:
 100              		.size	App_OS_StatTaskHook, .-App_OS_StatTaskHook
 101              		.section	.text.App_OS_TaskCreateHook,"ax",%progbits
 102              		.align	1
 103              		.global	App_OS_TaskCreateHook
 104              		.syntax unified
 105              		.code	16
 106              		.thumb_func
 107              		.fpu softvfp
 108              		.type	App_OS_TaskCreateHook, %function
 109              	App_OS_TaskCreateHook:
 110              	.LVL0:
ARM GAS  C:\Users\EDULU~1.DES\AppData\Local\Temp\cc7a6i6m.s 			page 6


 111              	.LFB7:
 176:..\../os_app_hooks.c **** 
 177:..\../os_app_hooks.c **** 
 178:..\../os_app_hooks.c **** /*
 179:..\../os_app_hooks.c **** ***************************************************************************************************
 180:..\../os_app_hooks.c **** *                                            APPLICATION TASK CREATION HOOK
 181:..\../os_app_hooks.c **** *
 182:..\../os_app_hooks.c **** * Description: This function is called when a task is created.
 183:..\../os_app_hooks.c **** *
 184:..\../os_app_hooks.c **** * Arguments  : p_tcb   is a pointer to the task control block of the task being created.
 185:..\../os_app_hooks.c **** *
 186:..\../os_app_hooks.c **** * Note(s)    : none
 187:..\../os_app_hooks.c **** ***************************************************************************************************
 188:..\../os_app_hooks.c **** */
 189:..\../os_app_hooks.c **** 
 190:..\../os_app_hooks.c **** void  App_OS_TaskCreateHook (OS_TCB  *p_tcb)
 191:..\../os_app_hooks.c **** {
 112              		.loc 1 191 1 view -0
 113              		.cfi_startproc
 114              		@ args = 0, pretend = 0, frame = 0
 115              		@ frame_needed = 0, uses_anonymous_args = 0
 116              		@ link register save eliminated.
 192:..\../os_app_hooks.c ****     (void)&p_tcb;
 117              		.loc 1 192 5 view .LVU9
 193:..\../os_app_hooks.c **** }
 118              		.loc 1 193 1 is_stmt 0 view .LVU10
 119              		@ sp needed
 120 0000 7047     		bx	lr
 121              		.cfi_endproc
 122              	.LFE7:
 123              		.size	App_OS_TaskCreateHook, .-App_OS_TaskCreateHook
 124              		.section	.text.App_OS_TaskDelHook,"ax",%progbits
 125              		.align	1
 126              		.global	App_OS_TaskDelHook
 127              		.syntax unified
 128              		.code	16
 129              		.thumb_func
 130              		.fpu softvfp
 131              		.type	App_OS_TaskDelHook, %function
 132              	App_OS_TaskDelHook:
 133              	.LVL1:
 134              	.LFB8:
 194:..\../os_app_hooks.c **** 
 195:..\../os_app_hooks.c **** 
 196:..\../os_app_hooks.c **** /*
 197:..\../os_app_hooks.c **** ***************************************************************************************************
 198:..\../os_app_hooks.c **** *                                            APPLICATION TASK DELETION HOOK
 199:..\../os_app_hooks.c **** *
 200:..\../os_app_hooks.c **** * Description: This function is called when a task is deleted.
 201:..\../os_app_hooks.c **** *
 202:..\../os_app_hooks.c **** * Arguments  : p_tcb   is a pointer to the task control block of the task being deleted.
 203:..\../os_app_hooks.c **** *
 204:..\../os_app_hooks.c **** * Note(s)    : none
 205:..\../os_app_hooks.c **** ***************************************************************************************************
 206:..\../os_app_hooks.c **** */
 207:..\../os_app_hooks.c **** 
 208:..\../os_app_hooks.c **** void  App_OS_TaskDelHook (OS_TCB  *p_tcb)
ARM GAS  C:\Users\EDULU~1.DES\AppData\Local\Temp\cc7a6i6m.s 			page 7


 209:..\../os_app_hooks.c **** {
 135              		.loc 1 209 1 is_stmt 1 view -0
 136              		.cfi_startproc
 137              		@ args = 0, pretend = 0, frame = 0
 138              		@ frame_needed = 0, uses_anonymous_args = 0
 139              		@ link register save eliminated.
 210:..\../os_app_hooks.c ****     (void)&p_tcb;
 140              		.loc 1 210 5 view .LVU12
 211:..\../os_app_hooks.c **** }
 141              		.loc 1 211 1 is_stmt 0 view .LVU13
 142              		@ sp needed
 143 0000 7047     		bx	lr
 144              		.cfi_endproc
 145              	.LFE8:
 146              		.size	App_OS_TaskDelHook, .-App_OS_TaskDelHook
 147              		.section	.text.App_OS_TaskReturnHook,"ax",%progbits
 148              		.align	1
 149              		.global	App_OS_TaskReturnHook
 150              		.syntax unified
 151              		.code	16
 152              		.thumb_func
 153              		.fpu softvfp
 154              		.type	App_OS_TaskReturnHook, %function
 155              	App_OS_TaskReturnHook:
 156              	.LVL2:
 157              	.LFB9:
 212:..\../os_app_hooks.c **** 
 213:..\../os_app_hooks.c **** 
 214:..\../os_app_hooks.c **** /*
 215:..\../os_app_hooks.c **** ***************************************************************************************************
 216:..\../os_app_hooks.c **** *                                             APPLICATION TASK RETURN HOOK
 217:..\../os_app_hooks.c **** *
 218:..\../os_app_hooks.c **** * Description: This function is called if a task accidentally returns.  In other words, a task shou
 219:..\../os_app_hooks.c **** *              infinite loop or delete itself when done.
 220:..\../os_app_hooks.c **** *
 221:..\../os_app_hooks.c **** * Arguments  : p_tcb     is a pointer to the OS_TCB of the task that is returning.
 222:..\../os_app_hooks.c **** *
 223:..\../os_app_hooks.c **** * Note(s)    : none
 224:..\../os_app_hooks.c **** ***************************************************************************************************
 225:..\../os_app_hooks.c **** */
 226:..\../os_app_hooks.c **** 
 227:..\../os_app_hooks.c **** void  App_OS_TaskReturnHook (OS_TCB  *p_tcb)
 228:..\../os_app_hooks.c **** {
 158              		.loc 1 228 1 is_stmt 1 view -0
 159              		.cfi_startproc
 160              		@ args = 0, pretend = 0, frame = 0
 161              		@ frame_needed = 0, uses_anonymous_args = 0
 162              		@ link register save eliminated.
 229:..\../os_app_hooks.c ****     (void)&p_tcb;
 163              		.loc 1 229 5 view .LVU15
 230:..\../os_app_hooks.c **** }
 164              		.loc 1 230 1 is_stmt 0 view .LVU16
 165              		@ sp needed
 166 0000 7047     		bx	lr
 167              		.cfi_endproc
 168              	.LFE9:
 169              		.size	App_OS_TaskReturnHook, .-App_OS_TaskReturnHook
ARM GAS  C:\Users\EDULU~1.DES\AppData\Local\Temp\cc7a6i6m.s 			page 8


 170              		.section	.text.App_OS_TaskSwHook,"ax",%progbits
 171              		.align	1
 172              		.global	App_OS_TaskSwHook
 173              		.syntax unified
 174              		.code	16
 175              		.thumb_func
 176              		.fpu softvfp
 177              		.type	App_OS_TaskSwHook, %function
 178              	App_OS_TaskSwHook:
 179              	.LFB10:
 231:..\../os_app_hooks.c **** 
 232:..\../os_app_hooks.c **** 
 233:..\../os_app_hooks.c **** /*
 234:..\../os_app_hooks.c **** ***************************************************************************************************
 235:..\../os_app_hooks.c **** *                                             APPLICATION TASK SWITCH HOOK
 236:..\../os_app_hooks.c **** *
 237:..\../os_app_hooks.c **** * Description: This function is called when a task switch is performed.  This allows you to perform
 238:..\../os_app_hooks.c **** *              during a context switch.
 239:..\../os_app_hooks.c **** *
 240:..\../os_app_hooks.c **** * Arguments  : none
 241:..\../os_app_hooks.c **** *
 242:..\../os_app_hooks.c **** * Note(s)    : 1) Interrupts are disabled during this call.
 243:..\../os_app_hooks.c **** *              2) It is assumed that the global pointer 'OSTCBHighRdyPtr' points to the TCB of the 
 244:..\../os_app_hooks.c **** *                 'switched in' (i.e. the highest priority task) and, 'OSTCBCurPtr' points to the t
 245:..\../os_app_hooks.c **** *                 (i.e. the preempted task).
 246:..\../os_app_hooks.c **** ***************************************************************************************************
 247:..\../os_app_hooks.c **** */
 248:..\../os_app_hooks.c **** 
 249:..\../os_app_hooks.c **** void  App_OS_TaskSwHook (void)
 250:..\../os_app_hooks.c **** {
 180              		.loc 1 250 1 is_stmt 1 view -0
 181              		.cfi_startproc
 182              		@ args = 0, pretend = 0, frame = 0
 183              		@ frame_needed = 0, uses_anonymous_args = 0
 184              		@ link register save eliminated.
 251:..\../os_app_hooks.c **** 
 252:..\../os_app_hooks.c **** }
 185              		.loc 1 252 1 view .LVU18
 186              		@ sp needed
 187 0000 7047     		bx	lr
 188              		.cfi_endproc
 189              	.LFE10:
 190              		.size	App_OS_TaskSwHook, .-App_OS_TaskSwHook
 191              		.section	.text.App_OS_TimeTickHook,"ax",%progbits
 192              		.align	1
 193              		.global	App_OS_TimeTickHook
 194              		.syntax unified
 195              		.code	16
 196              		.thumb_func
 197              		.fpu softvfp
 198              		.type	App_OS_TimeTickHook, %function
 199              	App_OS_TimeTickHook:
 200              	.LFB11:
 253:..\../os_app_hooks.c **** 
 254:..\../os_app_hooks.c **** 
 255:..\../os_app_hooks.c **** /*
 256:..\../os_app_hooks.c **** ***************************************************************************************************
ARM GAS  C:\Users\EDULU~1.DES\AppData\Local\Temp\cc7a6i6m.s 			page 9


 257:..\../os_app_hooks.c **** *                                                APPLICATION TICK HOOK
 258:..\../os_app_hooks.c **** *
 259:..\../os_app_hooks.c **** * Description: This function is called every tick.
 260:..\../os_app_hooks.c **** *
 261:..\../os_app_hooks.c **** * Arguments  : none
 262:..\../os_app_hooks.c **** *
 263:..\../os_app_hooks.c **** * Note(s)    : 1) This function is assumed to be called from the Tick ISR.
 264:..\../os_app_hooks.c **** ***************************************************************************************************
 265:..\../os_app_hooks.c **** */
 266:..\../os_app_hooks.c **** 
 267:..\../os_app_hooks.c **** void  App_OS_TimeTickHook (void)
 268:..\../os_app_hooks.c **** {
 201              		.loc 1 268 1 view -0
 202              		.cfi_startproc
 203              		@ args = 0, pretend = 0, frame = 0
 204              		@ frame_needed = 0, uses_anonymous_args = 0
 205              		@ link register save eliminated.
 269:..\../os_app_hooks.c **** 
 270:..\../os_app_hooks.c **** }
 206              		.loc 1 270 1 view .LVU20
 207              		@ sp needed
 208 0000 7047     		bx	lr
 209              		.cfi_endproc
 210              	.LFE11:
 211              		.size	App_OS_TimeTickHook, .-App_OS_TimeTickHook
 212              		.text
 213              	.Letext0:
 214              		.file 2 "..\\..\\..\\..\\..\\..\\Software\\uC-CPU\\ARM-Cortex-M0\\GNU/cpu.h"
 215              		.file 3 "c:\\program files (x86)\\gnu tools arm embedded\\8 2018-q4-major\\arm-none-eabi\\include\
 216              		.file 4 "c:\\program files (x86)\\gnu tools arm embedded\\8 2018-q4-major\\arm-none-eabi\\include\
 217              		.file 5 "c:\\program files (x86)\\gnu tools arm embedded\\8 2018-q4-major\\lib\\gcc\\arm-none-eabi
 218              		.file 6 "c:\\program files (x86)\\gnu tools arm embedded\\8 2018-q4-major\\arm-none-eabi\\include\
 219              		.file 7 "..\\..\\..\\..\\..\\..\\Software\\uC-CPU/cpu_core.h"
 220              		.file 8 "..\\..\\..\\..\\..\\..\\Software\\uCOS-III\\Source/os_type.h"
 221              		.file 9 "..\\..\\..\\..\\..\\..\\Software\\uCOS-III\\Ports\\ARM-Cortex-M0\\Generic\\GNU/os_cpu.h"
 222              		.file 10 "..\\..\\..\\..\\..\\..\\Software\\uCOS-III\\Source/os.h"