ARM GAS  C:\Users\EDULU~1.DES\AppData\Local\Temp\ccWcrZzh.s 			page 1


   1              		.cpu cortex-m0
   2              		.eabi_attribute 20, 1
   3              		.eabi_attribute 21, 1
   4              		.eabi_attribute 23, 3
   5              		.eabi_attribute 24, 1
   6              		.eabi_attribute 25, 1
   7              		.eabi_attribute 26, 1
   8              		.eabi_attribute 30, 1
   9              		.eabi_attribute 34, 0
  10              		.eabi_attribute 18, 4
  11              		.file	"os_cpu_c.c"
  12              		.text
  13              	.Ltext0:
  14              		.cfi_sections	.debug_frame
  15              		.section	.text.OSIdleTaskHook,"ax",%progbits
  16              		.align	1
  17              		.global	OSIdleTaskHook
  18              		.arch armv6s-m
  19              		.syntax unified
  20              		.code	16
  21              		.thumb_func
  22              		.fpu softvfp
  23              		.type	OSIdleTaskHook, %function
  24              	OSIdleTaskHook:
  25              	.LFB3:
  26              		.file 1 "..\\..\\..\\..\\..\\..\\Software\\uCOS-III\\Ports\\ARM-Cortex-M0\\Generic\\GNU\\os_cpu_c.
   1:..\..\..\..\..\..\Software\uCOS-III\Ports\ARM-Cortex-M0\Generic\GNU/os_cpu_c.c **** /*
   2:..\..\..\..\..\..\Software\uCOS-III\Ports\ARM-Cortex-M0\Generic\GNU/os_cpu_c.c **** ***************************************************************************************************
   3:..\..\..\..\..\..\Software\uCOS-III\Ports\ARM-Cortex-M0\Generic\GNU/os_cpu_c.c **** *                                                uC/OS-III
   4:..\..\..\..\..\..\Software\uCOS-III\Ports\ARM-Cortex-M0\Generic\GNU/os_cpu_c.c **** *                                          The Real-Time Kernel
   5:..\..\..\..\..\..\Software\uCOS-III\Ports\ARM-Cortex-M0\Generic\GNU/os_cpu_c.c **** *
   6:..\..\..\..\..\..\Software\uCOS-III\Ports\ARM-Cortex-M0\Generic\GNU/os_cpu_c.c **** *
   7:..\..\..\..\..\..\Software\uCOS-III\Ports\ARM-Cortex-M0\Generic\GNU/os_cpu_c.c **** *                           (c) Copyright 2009-2015; Micrium, Inc.; Weston, FL
   8:..\..\..\..\..\..\Software\uCOS-III\Ports\ARM-Cortex-M0\Generic\GNU/os_cpu_c.c **** *                    All rights reserved.  Protected by international copyright laws.
   9:..\..\..\..\..\..\Software\uCOS-III\Ports\ARM-Cortex-M0\Generic\GNU/os_cpu_c.c **** *
  10:..\..\..\..\..\..\Software\uCOS-III\Ports\ARM-Cortex-M0\Generic\GNU/os_cpu_c.c **** *                                           ARM Cortex-M0 Port
  11:..\..\..\..\..\..\Software\uCOS-III\Ports\ARM-Cortex-M0\Generic\GNU/os_cpu_c.c **** *
  12:..\..\..\..\..\..\Software\uCOS-III\Ports\ARM-Cortex-M0\Generic\GNU/os_cpu_c.c **** * File      : OS_CPU_C.C
  13:..\..\..\..\..\..\Software\uCOS-III\Ports\ARM-Cortex-M0\Generic\GNU/os_cpu_c.c **** * Version   : V3.05.01
  14:..\..\..\..\..\..\Software\uCOS-III\Ports\ARM-Cortex-M0\Generic\GNU/os_cpu_c.c **** * By        : JJL
  15:..\..\..\..\..\..\Software\uCOS-III\Ports\ARM-Cortex-M0\Generic\GNU/os_cpu_c.c **** *             BAN
  16:..\..\..\..\..\..\Software\uCOS-III\Ports\ARM-Cortex-M0\Generic\GNU/os_cpu_c.c **** *             MD
  17:..\..\..\..\..\..\Software\uCOS-III\Ports\ARM-Cortex-M0\Generic\GNU/os_cpu_c.c **** *             FF
  18:..\..\..\..\..\..\Software\uCOS-III\Ports\ARM-Cortex-M0\Generic\GNU/os_cpu_c.c **** *
  19:..\..\..\..\..\..\Software\uCOS-III\Ports\ARM-Cortex-M0\Generic\GNU/os_cpu_c.c **** * LICENSING TERMS:
  20:..\..\..\..\..\..\Software\uCOS-III\Ports\ARM-Cortex-M0\Generic\GNU/os_cpu_c.c **** * ---------------
  21:..\..\..\..\..\..\Software\uCOS-III\Ports\ARM-Cortex-M0\Generic\GNU/os_cpu_c.c **** *           uC/OS-III is provided in source form for FREE short-term evaluation, for educational us
  22:..\..\..\..\..\..\Software\uCOS-III\Ports\ARM-Cortex-M0\Generic\GNU/os_cpu_c.c **** *           for peaceful research.  If you plan or intend to use uC/OS-III in a commercial applicat
  23:..\..\..\..\..\..\Software\uCOS-III\Ports\ARM-Cortex-M0\Generic\GNU/os_cpu_c.c **** *           product then, you need to contact Micrium to properly license uC/OS-III for its use in 
  24:..\..\..\..\..\..\Software\uCOS-III\Ports\ARM-Cortex-M0\Generic\GNU/os_cpu_c.c **** *           application/product.   We provide ALL the source code for your convenience and to help 
  25:..\..\..\..\..\..\Software\uCOS-III\Ports\ARM-Cortex-M0\Generic\GNU/os_cpu_c.c **** *           experience uC/OS-III.  The fact that the source is provided does NOT mean that you can 
  26:..\..\..\..\..\..\Software\uCOS-III\Ports\ARM-Cortex-M0\Generic\GNU/os_cpu_c.c **** *           it commercially without paying a licensing fee.
  27:..\..\..\..\..\..\Software\uCOS-III\Ports\ARM-Cortex-M0\Generic\GNU/os_cpu_c.c **** *
  28:..\..\..\..\..\..\Software\uCOS-III\Ports\ARM-Cortex-M0\Generic\GNU/os_cpu_c.c **** *           Knowledge of the source code may NOT be used to develop a similar product.
  29:..\..\..\..\..\..\Software\uCOS-III\Ports\ARM-Cortex-M0\Generic\GNU/os_cpu_c.c **** *
  30:..\..\..\..\..\..\Software\uCOS-III\Ports\ARM-Cortex-M0\Generic\GNU/os_cpu_c.c **** *           Please help us continue to provide the embedded community with the finest software avai
  31:..\..\..\..\..\..\Software\uCOS-III\Ports\ARM-Cortex-M0\Generic\GNU/os_cpu_c.c **** *           Your honesty is greatly appreciated.
ARM GAS  C:\Users\EDULU~1.DES\AppData\Local\Temp\ccWcrZzh.s 			page 2


  32:..\..\..\..\..\..\Software\uCOS-III\Ports\ARM-Cortex-M0\Generic\GNU/os_cpu_c.c **** *
  33:..\..\..\..\..\..\Software\uCOS-III\Ports\ARM-Cortex-M0\Generic\GNU/os_cpu_c.c **** *           You can find our product's user manual, API reference, release notes and
  34:..\..\..\..\..\..\Software\uCOS-III\Ports\ARM-Cortex-M0\Generic\GNU/os_cpu_c.c **** *           more information at https://doc.micrium.com.
  35:..\..\..\..\..\..\Software\uCOS-III\Ports\ARM-Cortex-M0\Generic\GNU/os_cpu_c.c **** *           You can contact us at www.micrium.com, or by phone at +1 (954) 217-2036.
  36:..\..\..\..\..\..\Software\uCOS-III\Ports\ARM-Cortex-M0\Generic\GNU/os_cpu_c.c **** *
  37:..\..\..\..\..\..\Software\uCOS-III\Ports\ARM-Cortex-M0\Generic\GNU/os_cpu_c.c **** * For       : ARMv6M Cortex-M0 or Cortex-M0+
  38:..\..\..\..\..\..\Software\uCOS-III\Ports\ARM-Cortex-M0\Generic\GNU/os_cpu_c.c **** * Mode      : Thumb2
  39:..\..\..\..\..\..\Software\uCOS-III\Ports\ARM-Cortex-M0\Generic\GNU/os_cpu_c.c **** * Toolchain : GNU C Compiler
  40:..\..\..\..\..\..\Software\uCOS-III\Ports\ARM-Cortex-M0\Generic\GNU/os_cpu_c.c **** *
  41:..\..\..\..\..\..\Software\uCOS-III\Ports\ARM-Cortex-M0\Generic\GNU/os_cpu_c.c **** * Note(s)   : (1) This port supports the ARM Cortex-M0 and Cortex-M0+ architectures.
  42:..\..\..\..\..\..\Software\uCOS-III\Ports\ARM-Cortex-M0\Generic\GNU/os_cpu_c.c **** ***************************************************************************************************
  43:..\..\..\..\..\..\Software\uCOS-III\Ports\ARM-Cortex-M0\Generic\GNU/os_cpu_c.c **** */
  44:..\..\..\..\..\..\Software\uCOS-III\Ports\ARM-Cortex-M0\Generic\GNU/os_cpu_c.c **** 
  45:..\..\..\..\..\..\Software\uCOS-III\Ports\ARM-Cortex-M0\Generic\GNU/os_cpu_c.c **** #define   OS_CPU_GLOBALS
  46:..\..\..\..\..\..\Software\uCOS-III\Ports\ARM-Cortex-M0\Generic\GNU/os_cpu_c.c **** 
  47:..\..\..\..\..\..\Software\uCOS-III\Ports\ARM-Cortex-M0\Generic\GNU/os_cpu_c.c **** #ifdef VSC_INCLUDE_SOURCE_FILE_NAMES
  48:..\..\..\..\..\..\Software\uCOS-III\Ports\ARM-Cortex-M0\Generic\GNU/os_cpu_c.c **** const  CPU_CHAR  *os_cpu_c__c = "$Id: $";
  49:..\..\..\..\..\..\Software\uCOS-III\Ports\ARM-Cortex-M0\Generic\GNU/os_cpu_c.c **** #endif
  50:..\..\..\..\..\..\Software\uCOS-III\Ports\ARM-Cortex-M0\Generic\GNU/os_cpu_c.c **** 
  51:..\..\..\..\..\..\Software\uCOS-III\Ports\ARM-Cortex-M0\Generic\GNU/os_cpu_c.c **** 
  52:..\..\..\..\..\..\Software\uCOS-III\Ports\ARM-Cortex-M0\Generic\GNU/os_cpu_c.c **** /*
  53:..\..\..\..\..\..\Software\uCOS-III\Ports\ARM-Cortex-M0\Generic\GNU/os_cpu_c.c **** ***************************************************************************************************
  54:..\..\..\..\..\..\Software\uCOS-III\Ports\ARM-Cortex-M0\Generic\GNU/os_cpu_c.c **** *                                             INCLUDE FILES
  55:..\..\..\..\..\..\Software\uCOS-III\Ports\ARM-Cortex-M0\Generic\GNU/os_cpu_c.c **** ***************************************************************************************************
  56:..\..\..\..\..\..\Software\uCOS-III\Ports\ARM-Cortex-M0\Generic\GNU/os_cpu_c.c **** */
  57:..\..\..\..\..\..\Software\uCOS-III\Ports\ARM-Cortex-M0\Generic\GNU/os_cpu_c.c **** 
  58:..\..\..\..\..\..\Software\uCOS-III\Ports\ARM-Cortex-M0\Generic\GNU/os_cpu_c.c **** #include  "../../../../Source/os.h"
  59:..\..\..\..\..\..\Software\uCOS-III\Ports\ARM-Cortex-M0\Generic\GNU/os_cpu_c.c **** 
  60:..\..\..\..\..\..\Software\uCOS-III\Ports\ARM-Cortex-M0\Generic\GNU/os_cpu_c.c **** 
  61:..\..\..\..\..\..\Software\uCOS-III\Ports\ARM-Cortex-M0\Generic\GNU/os_cpu_c.c **** #ifdef __cplusplus
  62:..\..\..\..\..\..\Software\uCOS-III\Ports\ARM-Cortex-M0\Generic\GNU/os_cpu_c.c **** extern  "C" {
  63:..\..\..\..\..\..\Software\uCOS-III\Ports\ARM-Cortex-M0\Generic\GNU/os_cpu_c.c **** #endif
  64:..\..\..\..\..\..\Software\uCOS-III\Ports\ARM-Cortex-M0\Generic\GNU/os_cpu_c.c **** 
  65:..\..\..\..\..\..\Software\uCOS-III\Ports\ARM-Cortex-M0\Generic\GNU/os_cpu_c.c **** 
  66:..\..\..\..\..\..\Software\uCOS-III\Ports\ARM-Cortex-M0\Generic\GNU/os_cpu_c.c **** /*
  67:..\..\..\..\..\..\Software\uCOS-III\Ports\ARM-Cortex-M0\Generic\GNU/os_cpu_c.c **** ***************************************************************************************************
  68:..\..\..\..\..\..\Software\uCOS-III\Ports\ARM-Cortex-M0\Generic\GNU/os_cpu_c.c **** *                                           IDLE TASK HOOK
  69:..\..\..\..\..\..\Software\uCOS-III\Ports\ARM-Cortex-M0\Generic\GNU/os_cpu_c.c **** *
  70:..\..\..\..\..\..\Software\uCOS-III\Ports\ARM-Cortex-M0\Generic\GNU/os_cpu_c.c **** * Description: This function is called by the idle task.  This hook has been added to allow you to 
  71:..\..\..\..\..\..\Software\uCOS-III\Ports\ARM-Cortex-M0\Generic\GNU/os_cpu_c.c **** *              such things as STOP the CPU to conserve power.
  72:..\..\..\..\..\..\Software\uCOS-III\Ports\ARM-Cortex-M0\Generic\GNU/os_cpu_c.c **** *
  73:..\..\..\..\..\..\Software\uCOS-III\Ports\ARM-Cortex-M0\Generic\GNU/os_cpu_c.c **** * Arguments  : None.
  74:..\..\..\..\..\..\Software\uCOS-III\Ports\ARM-Cortex-M0\Generic\GNU/os_cpu_c.c **** *
  75:..\..\..\..\..\..\Software\uCOS-III\Ports\ARM-Cortex-M0\Generic\GNU/os_cpu_c.c **** * Note(s)    : None.
  76:..\..\..\..\..\..\Software\uCOS-III\Ports\ARM-Cortex-M0\Generic\GNU/os_cpu_c.c **** ***************************************************************************************************
  77:..\..\..\..\..\..\Software\uCOS-III\Ports\ARM-Cortex-M0\Generic\GNU/os_cpu_c.c **** */
  78:..\..\..\..\..\..\Software\uCOS-III\Ports\ARM-Cortex-M0\Generic\GNU/os_cpu_c.c **** 
  79:..\..\..\..\..\..\Software\uCOS-III\Ports\ARM-Cortex-M0\Generic\GNU/os_cpu_c.c **** void  OSIdleTaskHook (void)
  80:..\..\..\..\..\..\Software\uCOS-III\Ports\ARM-Cortex-M0\Generic\GNU/os_cpu_c.c **** {
  27              		.loc 1 80 1 view -0
  28              		.cfi_startproc
  29              		@ args = 0, pretend = 0, frame = 0
  30              		@ frame_needed = 0, uses_anonymous_args = 0
  31              		@ link register save eliminated.
  81:..\..\..\..\..\..\Software\uCOS-III\Ports\ARM-Cortex-M0\Generic\GNU/os_cpu_c.c **** #if OS_CFG_APP_HOOKS_EN > 0u
  82:..\..\..\..\..\..\Software\uCOS-III\Ports\ARM-Cortex-M0\Generic\GNU/os_cpu_c.c ****     if (OS_AppIdleTaskHookPtr != (OS_APP_HOOK_VOID)0) {
  83:..\..\..\..\..\..\Software\uCOS-III\Ports\ARM-Cortex-M0\Generic\GNU/os_cpu_c.c ****         (*OS_AppIdleTaskHookPtr)();
ARM GAS  C:\Users\EDULU~1.DES\AppData\Local\Temp\ccWcrZzh.s 			page 3


  84:..\..\..\..\..\..\Software\uCOS-III\Ports\ARM-Cortex-M0\Generic\GNU/os_cpu_c.c ****     }
  85:..\..\..\..\..\..\Software\uCOS-III\Ports\ARM-Cortex-M0\Generic\GNU/os_cpu_c.c **** #endif
  86:..\..\..\..\..\..\Software\uCOS-III\Ports\ARM-Cortex-M0\Generic\GNU/os_cpu_c.c **** }
  32              		.loc 1 86 1 view .LVU1
  33              		@ sp needed
  34 0000 7047     		bx	lr
  35              		.cfi_endproc
  36              	.LFE3:
  37              		.size	OSIdleTaskHook, .-OSIdleTaskHook
  38              		.section	.text.OSInitHook,"ax",%progbits
  39              		.align	1
  40              		.global	OSInitHook
  41              		.syntax unified
  42              		.code	16
  43              		.thumb_func
  44              		.fpu softvfp
  45              		.type	OSInitHook, %function
  46              	OSInitHook:
  47              	.LFB4:
  87:..\..\..\..\..\..\Software\uCOS-III\Ports\ARM-Cortex-M0\Generic\GNU/os_cpu_c.c **** 
  88:..\..\..\..\..\..\Software\uCOS-III\Ports\ARM-Cortex-M0\Generic\GNU/os_cpu_c.c **** 
  89:..\..\..\..\..\..\Software\uCOS-III\Ports\ARM-Cortex-M0\Generic\GNU/os_cpu_c.c **** /*
  90:..\..\..\..\..\..\Software\uCOS-III\Ports\ARM-Cortex-M0\Generic\GNU/os_cpu_c.c **** ***************************************************************************************************
  91:..\..\..\..\..\..\Software\uCOS-III\Ports\ARM-Cortex-M0\Generic\GNU/os_cpu_c.c **** *                                       OS INITIALIZATION HOOK
  92:..\..\..\..\..\..\Software\uCOS-III\Ports\ARM-Cortex-M0\Generic\GNU/os_cpu_c.c **** *
  93:..\..\..\..\..\..\Software\uCOS-III\Ports\ARM-Cortex-M0\Generic\GNU/os_cpu_c.c **** * Description: This function is called by OSInit() at the beginning of OSInit().
  94:..\..\..\..\..\..\Software\uCOS-III\Ports\ARM-Cortex-M0\Generic\GNU/os_cpu_c.c **** *
  95:..\..\..\..\..\..\Software\uCOS-III\Ports\ARM-Cortex-M0\Generic\GNU/os_cpu_c.c **** * Arguments  : None.
  96:..\..\..\..\..\..\Software\uCOS-III\Ports\ARM-Cortex-M0\Generic\GNU/os_cpu_c.c **** *
  97:..\..\..\..\..\..\Software\uCOS-III\Ports\ARM-Cortex-M0\Generic\GNU/os_cpu_c.c **** * Note(s)    : None.
  98:..\..\..\..\..\..\Software\uCOS-III\Ports\ARM-Cortex-M0\Generic\GNU/os_cpu_c.c **** ***************************************************************************************************
  99:..\..\..\..\..\..\Software\uCOS-III\Ports\ARM-Cortex-M0\Generic\GNU/os_cpu_c.c **** */
 100:..\..\..\..\..\..\Software\uCOS-III\Ports\ARM-Cortex-M0\Generic\GNU/os_cpu_c.c **** 
 101:..\..\..\..\..\..\Software\uCOS-III\Ports\ARM-Cortex-M0\Generic\GNU/os_cpu_c.c **** void  OSInitHook (void)
 102:..\..\..\..\..\..\Software\uCOS-III\Ports\ARM-Cortex-M0\Generic\GNU/os_cpu_c.c **** {
  48              		.loc 1 102 1 view -0
  49              		.cfi_startproc
  50              		@ args = 0, pretend = 0, frame = 0
  51              		@ frame_needed = 0, uses_anonymous_args = 0
  52              		@ link register save eliminated.
 103:..\..\..\..\..\..\Software\uCOS-III\Ports\ARM-Cortex-M0\Generic\GNU/os_cpu_c.c ****                                                                 /* 8-byte align the ISR stack.     
 104:..\..\..\..\..\..\Software\uCOS-III\Ports\ARM-Cortex-M0\Generic\GNU/os_cpu_c.c ****     OS_CPU_ExceptStkBase = (CPU_STK *)(OSCfg_ISRStkBasePtr + OSCfg_ISRStkSize);
  53              		.loc 1 104 5 view .LVU3
  54              		.loc 1 104 60 is_stmt 0 view .LVU4
  55 0000 054B     		ldr	r3, .L3
  56 0002 1A68     		ldr	r2, [r3]
  57 0004 9200     		lsls	r2, r2, #2
  58 0006 054B     		ldr	r3, .L3+4
  59 0008 1B68     		ldr	r3, [r3]
  60 000a 9B18     		adds	r3, r3, r2
 105:..\..\..\..\..\..\Software\uCOS-III\Ports\ARM-Cortex-M0\Generic\GNU/os_cpu_c.c ****     OS_CPU_ExceptStkBase = (CPU_STK *)((CPU_STK)(OS_CPU_ExceptStkBase) & 0xFFFFFFF8);
  61              		.loc 1 105 5 is_stmt 1 view .LVU5
  62              		.loc 1 105 72 is_stmt 0 view .LVU6
  63 000c 0722     		movs	r2, #7
  64 000e 9343     		bics	r3, r2
  65              		.loc 1 105 26 view .LVU7
  66 0010 034A     		ldr	r2, .L3+8
ARM GAS  C:\Users\EDULU~1.DES\AppData\Local\Temp\ccWcrZzh.s 			page 4


  67 0012 1360     		str	r3, [r2]
 106:..\..\..\..\..\..\Software\uCOS-III\Ports\ARM-Cortex-M0\Generic\GNU/os_cpu_c.c **** 
 107:..\..\..\..\..\..\Software\uCOS-III\Ports\ARM-Cortex-M0\Generic\GNU/os_cpu_c.c **** }
  68              		.loc 1 107 1 view .LVU8
  69              		@ sp needed
  70 0014 7047     		bx	lr
  71              	.L4:
  72 0016 C046     		.align	2
  73              	.L3:
  74 0018 00000000 		.word	OSCfg_ISRStkSize
  75 001c 00000000 		.word	OSCfg_ISRStkBasePtr
  76 0020 00000000 		.word	OS_CPU_ExceptStkBase
  77              		.cfi_endproc
  78              	.LFE4:
  79              		.size	OSInitHook, .-OSInitHook
  80              		.section	.text.OSStatTaskHook,"ax",%progbits
  81              		.align	1
  82              		.global	OSStatTaskHook
  83              		.syntax unified
  84              		.code	16
  85              		.thumb_func
  86              		.fpu softvfp
  87              		.type	OSStatTaskHook, %function
  88              	OSStatTaskHook:
  89              	.LFB5:
 108:..\..\..\..\..\..\Software\uCOS-III\Ports\ARM-Cortex-M0\Generic\GNU/os_cpu_c.c **** 
 109:..\..\..\..\..\..\Software\uCOS-III\Ports\ARM-Cortex-M0\Generic\GNU/os_cpu_c.c **** 
 110:..\..\..\..\..\..\Software\uCOS-III\Ports\ARM-Cortex-M0\Generic\GNU/os_cpu_c.c **** /*
 111:..\..\..\..\..\..\Software\uCOS-III\Ports\ARM-Cortex-M0\Generic\GNU/os_cpu_c.c **** ***************************************************************************************************
 112:..\..\..\..\..\..\Software\uCOS-III\Ports\ARM-Cortex-M0\Generic\GNU/os_cpu_c.c **** *                                           REDZONE HIT HOOK
 113:..\..\..\..\..\..\Software\uCOS-III\Ports\ARM-Cortex-M0\Generic\GNU/os_cpu_c.c **** *
 114:..\..\..\..\..\..\Software\uCOS-III\Ports\ARM-Cortex-M0\Generic\GNU/os_cpu_c.c **** * Description: This function is called when a task's stack overflowed.
 115:..\..\..\..\..\..\Software\uCOS-III\Ports\ARM-Cortex-M0\Generic\GNU/os_cpu_c.c **** *
 116:..\..\..\..\..\..\Software\uCOS-III\Ports\ARM-Cortex-M0\Generic\GNU/os_cpu_c.c **** * Arguments  : p_tcb        Pointer to the task control block of the offending task. NULL if ISR.
 117:..\..\..\..\..\..\Software\uCOS-III\Ports\ARM-Cortex-M0\Generic\GNU/os_cpu_c.c **** *
 118:..\..\..\..\..\..\Software\uCOS-III\Ports\ARM-Cortex-M0\Generic\GNU/os_cpu_c.c **** * Note(s)    : None.
 119:..\..\..\..\..\..\Software\uCOS-III\Ports\ARM-Cortex-M0\Generic\GNU/os_cpu_c.c **** ***************************************************************************************************
 120:..\..\..\..\..\..\Software\uCOS-III\Ports\ARM-Cortex-M0\Generic\GNU/os_cpu_c.c **** */
 121:..\..\..\..\..\..\Software\uCOS-III\Ports\ARM-Cortex-M0\Generic\GNU/os_cpu_c.c **** #if (OS_CFG_TASK_STK_REDZONE_EN == DEF_ENABLED)
 122:..\..\..\..\..\..\Software\uCOS-III\Ports\ARM-Cortex-M0\Generic\GNU/os_cpu_c.c **** void  OSRedzoneHitHook (OS_TCB  *p_tcb)
 123:..\..\..\..\..\..\Software\uCOS-III\Ports\ARM-Cortex-M0\Generic\GNU/os_cpu_c.c **** {
 124:..\..\..\..\..\..\Software\uCOS-III\Ports\ARM-Cortex-M0\Generic\GNU/os_cpu_c.c **** #if OS_CFG_APP_HOOKS_EN > 0u
 125:..\..\..\..\..\..\Software\uCOS-III\Ports\ARM-Cortex-M0\Generic\GNU/os_cpu_c.c ****     if (OS_AppRedzoneHitHookPtr != (OS_APP_HOOK_TCB)0) {
 126:..\..\..\..\..\..\Software\uCOS-III\Ports\ARM-Cortex-M0\Generic\GNU/os_cpu_c.c ****         (*OS_AppRedzoneHitHookPtr)(p_tcb);
 127:..\..\..\..\..\..\Software\uCOS-III\Ports\ARM-Cortex-M0\Generic\GNU/os_cpu_c.c ****     } else {
 128:..\..\..\..\..\..\Software\uCOS-III\Ports\ARM-Cortex-M0\Generic\GNU/os_cpu_c.c ****         CPU_SW_EXCEPTION(;);
 129:..\..\..\..\..\..\Software\uCOS-III\Ports\ARM-Cortex-M0\Generic\GNU/os_cpu_c.c ****     }
 130:..\..\..\..\..\..\Software\uCOS-III\Ports\ARM-Cortex-M0\Generic\GNU/os_cpu_c.c **** #else
 131:..\..\..\..\..\..\Software\uCOS-III\Ports\ARM-Cortex-M0\Generic\GNU/os_cpu_c.c ****     (void)p_tcb;                                                /* Prevent compiler warning        
 132:..\..\..\..\..\..\Software\uCOS-III\Ports\ARM-Cortex-M0\Generic\GNU/os_cpu_c.c ****     CPU_SW_EXCEPTION(;);
 133:..\..\..\..\..\..\Software\uCOS-III\Ports\ARM-Cortex-M0\Generic\GNU/os_cpu_c.c **** #endif
 134:..\..\..\..\..\..\Software\uCOS-III\Ports\ARM-Cortex-M0\Generic\GNU/os_cpu_c.c **** }
 135:..\..\..\..\..\..\Software\uCOS-III\Ports\ARM-Cortex-M0\Generic\GNU/os_cpu_c.c **** #endif
 136:..\..\..\..\..\..\Software\uCOS-III\Ports\ARM-Cortex-M0\Generic\GNU/os_cpu_c.c **** 
 137:..\..\..\..\..\..\Software\uCOS-III\Ports\ARM-Cortex-M0\Generic\GNU/os_cpu_c.c **** 
 138:..\..\..\..\..\..\Software\uCOS-III\Ports\ARM-Cortex-M0\Generic\GNU/os_cpu_c.c **** /*
 139:..\..\..\..\..\..\Software\uCOS-III\Ports\ARM-Cortex-M0\Generic\GNU/os_cpu_c.c **** ***************************************************************************************************
ARM GAS  C:\Users\EDULU~1.DES\AppData\Local\Temp\ccWcrZzh.s 			page 5


 140:..\..\..\..\..\..\Software\uCOS-III\Ports\ARM-Cortex-M0\Generic\GNU/os_cpu_c.c **** *                                         STATISTIC TASK HOOK
 141:..\..\..\..\..\..\Software\uCOS-III\Ports\ARM-Cortex-M0\Generic\GNU/os_cpu_c.c **** *
 142:..\..\..\..\..\..\Software\uCOS-III\Ports\ARM-Cortex-M0\Generic\GNU/os_cpu_c.c **** * Description: This function is called every second by uC/OS-III's statistics task.  This allows yo
 143:..\..\..\..\..\..\Software\uCOS-III\Ports\ARM-Cortex-M0\Generic\GNU/os_cpu_c.c **** *              application to add functionality to the statistics task.
 144:..\..\..\..\..\..\Software\uCOS-III\Ports\ARM-Cortex-M0\Generic\GNU/os_cpu_c.c **** *
 145:..\..\..\..\..\..\Software\uCOS-III\Ports\ARM-Cortex-M0\Generic\GNU/os_cpu_c.c **** * Arguments  : None.
 146:..\..\..\..\..\..\Software\uCOS-III\Ports\ARM-Cortex-M0\Generic\GNU/os_cpu_c.c **** *
 147:..\..\..\..\..\..\Software\uCOS-III\Ports\ARM-Cortex-M0\Generic\GNU/os_cpu_c.c **** * Note(s)    : None.
 148:..\..\..\..\..\..\Software\uCOS-III\Ports\ARM-Cortex-M0\Generic\GNU/os_cpu_c.c **** ***************************************************************************************************
 149:..\..\..\..\..\..\Software\uCOS-III\Ports\ARM-Cortex-M0\Generic\GNU/os_cpu_c.c **** */
 150:..\..\..\..\..\..\Software\uCOS-III\Ports\ARM-Cortex-M0\Generic\GNU/os_cpu_c.c **** 
 151:..\..\..\..\..\..\Software\uCOS-III\Ports\ARM-Cortex-M0\Generic\GNU/os_cpu_c.c **** void  OSStatTaskHook (void)
 152:..\..\..\..\..\..\Software\uCOS-III\Ports\ARM-Cortex-M0\Generic\GNU/os_cpu_c.c **** {
  90              		.loc 1 152 1 is_stmt 1 view -0
  91              		.cfi_startproc
  92              		@ args = 0, pretend = 0, frame = 0
  93              		@ frame_needed = 0, uses_anonymous_args = 0
  94              		@ link register save eliminated.
 153:..\..\..\..\..\..\Software\uCOS-III\Ports\ARM-Cortex-M0\Generic\GNU/os_cpu_c.c **** #if OS_CFG_APP_HOOKS_EN > 0u
 154:..\..\..\..\..\..\Software\uCOS-III\Ports\ARM-Cortex-M0\Generic\GNU/os_cpu_c.c ****     if (OS_AppStatTaskHookPtr != (OS_APP_HOOK_VOID)0) {
 155:..\..\..\..\..\..\Software\uCOS-III\Ports\ARM-Cortex-M0\Generic\GNU/os_cpu_c.c ****         (*OS_AppStatTaskHookPtr)();
 156:..\..\..\..\..\..\Software\uCOS-III\Ports\ARM-Cortex-M0\Generic\GNU/os_cpu_c.c ****     }
 157:..\..\..\..\..\..\Software\uCOS-III\Ports\ARM-Cortex-M0\Generic\GNU/os_cpu_c.c **** #endif
 158:..\..\..\..\..\..\Software\uCOS-III\Ports\ARM-Cortex-M0\Generic\GNU/os_cpu_c.c **** }
  95              		.loc 1 158 1 view .LVU10
  96              		@ sp needed
  97 0000 7047     		bx	lr
  98              		.cfi_endproc
  99              	.LFE5:
 100              		.size	OSStatTaskHook, .-OSStatTaskHook
 101              		.section	.text.OSTaskCreateHook,"ax",%progbits
 102              		.align	1
 103              		.global	OSTaskCreateHook
 104              		.syntax unified
 105              		.code	16
 106              		.thumb_func
 107              		.fpu softvfp
 108              		.type	OSTaskCreateHook, %function
 109              	OSTaskCreateHook:
 110              	.LVL0:
 111              	.LFB6:
 159:..\..\..\..\..\..\Software\uCOS-III\Ports\ARM-Cortex-M0\Generic\GNU/os_cpu_c.c **** 
 160:..\..\..\..\..\..\Software\uCOS-III\Ports\ARM-Cortex-M0\Generic\GNU/os_cpu_c.c **** 
 161:..\..\..\..\..\..\Software\uCOS-III\Ports\ARM-Cortex-M0\Generic\GNU/os_cpu_c.c **** /*
 162:..\..\..\..\..\..\Software\uCOS-III\Ports\ARM-Cortex-M0\Generic\GNU/os_cpu_c.c **** ***************************************************************************************************
 163:..\..\..\..\..\..\Software\uCOS-III\Ports\ARM-Cortex-M0\Generic\GNU/os_cpu_c.c **** *                                          TASK CREATION HOOK
 164:..\..\..\..\..\..\Software\uCOS-III\Ports\ARM-Cortex-M0\Generic\GNU/os_cpu_c.c **** *
 165:..\..\..\..\..\..\Software\uCOS-III\Ports\ARM-Cortex-M0\Generic\GNU/os_cpu_c.c **** * Description: This function is called when a task is created.
 166:..\..\..\..\..\..\Software\uCOS-III\Ports\ARM-Cortex-M0\Generic\GNU/os_cpu_c.c **** *
 167:..\..\..\..\..\..\Software\uCOS-III\Ports\ARM-Cortex-M0\Generic\GNU/os_cpu_c.c **** * Arguments  : p_tcb        Pointer to the task control block of the task being created.
 168:..\..\..\..\..\..\Software\uCOS-III\Ports\ARM-Cortex-M0\Generic\GNU/os_cpu_c.c **** *
 169:..\..\..\..\..\..\Software\uCOS-III\Ports\ARM-Cortex-M0\Generic\GNU/os_cpu_c.c **** * Note(s)    : None.
 170:..\..\..\..\..\..\Software\uCOS-III\Ports\ARM-Cortex-M0\Generic\GNU/os_cpu_c.c **** ***************************************************************************************************
 171:..\..\..\..\..\..\Software\uCOS-III\Ports\ARM-Cortex-M0\Generic\GNU/os_cpu_c.c **** */
 172:..\..\..\..\..\..\Software\uCOS-III\Ports\ARM-Cortex-M0\Generic\GNU/os_cpu_c.c **** 
 173:..\..\..\..\..\..\Software\uCOS-III\Ports\ARM-Cortex-M0\Generic\GNU/os_cpu_c.c **** void  OSTaskCreateHook (OS_TCB  *p_tcb)
 174:..\..\..\..\..\..\Software\uCOS-III\Ports\ARM-Cortex-M0\Generic\GNU/os_cpu_c.c **** {
ARM GAS  C:\Users\EDULU~1.DES\AppData\Local\Temp\ccWcrZzh.s 			page 6


 112              		.loc 1 174 1 view -0
 113              		.cfi_startproc
 114              		@ args = 0, pretend = 0, frame = 0
 115              		@ frame_needed = 0, uses_anonymous_args = 0
 116              		@ link register save eliminated.
 175:..\..\..\..\..\..\Software\uCOS-III\Ports\ARM-Cortex-M0\Generic\GNU/os_cpu_c.c **** #if OS_CFG_APP_HOOKS_EN > 0u
 176:..\..\..\..\..\..\Software\uCOS-III\Ports\ARM-Cortex-M0\Generic\GNU/os_cpu_c.c ****     if (OS_AppTaskCreateHookPtr != (OS_APP_HOOK_TCB)0) {
 177:..\..\..\..\..\..\Software\uCOS-III\Ports\ARM-Cortex-M0\Generic\GNU/os_cpu_c.c ****         (*OS_AppTaskCreateHookPtr)(p_tcb);
 178:..\..\..\..\..\..\Software\uCOS-III\Ports\ARM-Cortex-M0\Generic\GNU/os_cpu_c.c ****     }
 179:..\..\..\..\..\..\Software\uCOS-III\Ports\ARM-Cortex-M0\Generic\GNU/os_cpu_c.c **** #else
 180:..\..\..\..\..\..\Software\uCOS-III\Ports\ARM-Cortex-M0\Generic\GNU/os_cpu_c.c ****     (void)p_tcb;                                                /* Prevent compiler warning        
 117              		.loc 1 180 5 view .LVU12
 181:..\..\..\..\..\..\Software\uCOS-III\Ports\ARM-Cortex-M0\Generic\GNU/os_cpu_c.c **** #endif
 182:..\..\..\..\..\..\Software\uCOS-III\Ports\ARM-Cortex-M0\Generic\GNU/os_cpu_c.c **** }
 118              		.loc 1 182 1 is_stmt 0 view .LVU13
 119              		@ sp needed
 120 0000 7047     		bx	lr
 121              		.cfi_endproc
 122              	.LFE6:
 123              		.size	OSTaskCreateHook, .-OSTaskCreateHook
 124              		.section	.text.OSTaskDelHook,"ax",%progbits
 125              		.align	1
 126              		.global	OSTaskDelHook
 127              		.syntax unified
 128              		.code	16
 129              		.thumb_func
 130              		.fpu softvfp
 131              		.type	OSTaskDelHook, %function
 132              	OSTaskDelHook:
 133              	.LVL1:
 134              	.LFB7:
 183:..\..\..\..\..\..\Software\uCOS-III\Ports\ARM-Cortex-M0\Generic\GNU/os_cpu_c.c **** 
 184:..\..\..\..\..\..\Software\uCOS-III\Ports\ARM-Cortex-M0\Generic\GNU/os_cpu_c.c **** 
 185:..\..\..\..\..\..\Software\uCOS-III\Ports\ARM-Cortex-M0\Generic\GNU/os_cpu_c.c **** /*
 186:..\..\..\..\..\..\Software\uCOS-III\Ports\ARM-Cortex-M0\Generic\GNU/os_cpu_c.c **** ***************************************************************************************************
 187:..\..\..\..\..\..\Software\uCOS-III\Ports\ARM-Cortex-M0\Generic\GNU/os_cpu_c.c **** *                                           TASK DELETION HOOK
 188:..\..\..\..\..\..\Software\uCOS-III\Ports\ARM-Cortex-M0\Generic\GNU/os_cpu_c.c **** *
 189:..\..\..\..\..\..\Software\uCOS-III\Ports\ARM-Cortex-M0\Generic\GNU/os_cpu_c.c **** * Description: This function is called when a task is deleted.
 190:..\..\..\..\..\..\Software\uCOS-III\Ports\ARM-Cortex-M0\Generic\GNU/os_cpu_c.c **** *
 191:..\..\..\..\..\..\Software\uCOS-III\Ports\ARM-Cortex-M0\Generic\GNU/os_cpu_c.c **** * Arguments  : p_tcb        Pointer to the task control block of the task being deleted.
 192:..\..\..\..\..\..\Software\uCOS-III\Ports\ARM-Cortex-M0\Generic\GNU/os_cpu_c.c **** *
 193:..\..\..\..\..\..\Software\uCOS-III\Ports\ARM-Cortex-M0\Generic\GNU/os_cpu_c.c **** * Note(s)    : None.
 194:..\..\..\..\..\..\Software\uCOS-III\Ports\ARM-Cortex-M0\Generic\GNU/os_cpu_c.c **** ***************************************************************************************************
 195:..\..\..\..\..\..\Software\uCOS-III\Ports\ARM-Cortex-M0\Generic\GNU/os_cpu_c.c **** */
 196:..\..\..\..\..\..\Software\uCOS-III\Ports\ARM-Cortex-M0\Generic\GNU/os_cpu_c.c **** 
 197:..\..\..\..\..\..\Software\uCOS-III\Ports\ARM-Cortex-M0\Generic\GNU/os_cpu_c.c **** void  OSTaskDelHook (OS_TCB  *p_tcb)
 198:..\..\..\..\..\..\Software\uCOS-III\Ports\ARM-Cortex-M0\Generic\GNU/os_cpu_c.c **** {
 135              		.loc 1 198 1 is_stmt 1 view -0
 136              		.cfi_startproc
 137              		@ args = 0, pretend = 0, frame = 0
 138              		@ frame_needed = 0, uses_anonymous_args = 0
 139              		@ link register save eliminated.
 199:..\..\..\..\..\..\Software\uCOS-III\Ports\ARM-Cortex-M0\Generic\GNU/os_cpu_c.c **** #if OS_CFG_APP_HOOKS_EN > 0u
 200:..\..\..\..\..\..\Software\uCOS-III\Ports\ARM-Cortex-M0\Generic\GNU/os_cpu_c.c ****     if (OS_AppTaskDelHookPtr != (OS_APP_HOOK_TCB)0) {
 201:..\..\..\..\..\..\Software\uCOS-III\Ports\ARM-Cortex-M0\Generic\GNU/os_cpu_c.c ****         (*OS_AppTaskDelHookPtr)(p_tcb);
 202:..\..\..\..\..\..\Software\uCOS-III\Ports\ARM-Cortex-M0\Generic\GNU/os_cpu_c.c ****     }
 203:..\..\..\..\..\..\Software\uCOS-III\Ports\ARM-Cortex-M0\Generic\GNU/os_cpu_c.c **** #else
ARM GAS  C:\Users\EDULU~1.DES\AppData\Local\Temp\ccWcrZzh.s 			page 7


 204:..\..\..\..\..\..\Software\uCOS-III\Ports\ARM-Cortex-M0\Generic\GNU/os_cpu_c.c ****     (void)p_tcb;                                                /* Prevent compiler warning        
 140              		.loc 1 204 5 view .LVU15
 205:..\..\..\..\..\..\Software\uCOS-III\Ports\ARM-Cortex-M0\Generic\GNU/os_cpu_c.c **** #endif
 206:..\..\..\..\..\..\Software\uCOS-III\Ports\ARM-Cortex-M0\Generic\GNU/os_cpu_c.c **** }
 141              		.loc 1 206 1 is_stmt 0 view .LVU16
 142              		@ sp needed
 143 0000 7047     		bx	lr
 144              		.cfi_endproc
 145              	.LFE7:
 146              		.size	OSTaskDelHook, .-OSTaskDelHook
 147              		.section	.text.OSTaskReturnHook,"ax",%progbits
 148              		.align	1
 149              		.global	OSTaskReturnHook
 150              		.syntax unified
 151              		.code	16
 152              		.thumb_func
 153              		.fpu softvfp
 154              		.type	OSTaskReturnHook, %function
 155              	OSTaskReturnHook:
 156              	.LVL2:
 157              	.LFB8:
 207:..\..\..\..\..\..\Software\uCOS-III\Ports\ARM-Cortex-M0\Generic\GNU/os_cpu_c.c **** 
 208:..\..\..\..\..\..\Software\uCOS-III\Ports\ARM-Cortex-M0\Generic\GNU/os_cpu_c.c **** 
 209:..\..\..\..\..\..\Software\uCOS-III\Ports\ARM-Cortex-M0\Generic\GNU/os_cpu_c.c **** /*
 210:..\..\..\..\..\..\Software\uCOS-III\Ports\ARM-Cortex-M0\Generic\GNU/os_cpu_c.c **** ***************************************************************************************************
 211:..\..\..\..\..\..\Software\uCOS-III\Ports\ARM-Cortex-M0\Generic\GNU/os_cpu_c.c **** *                                            TASK RETURN HOOK
 212:..\..\..\..\..\..\Software\uCOS-III\Ports\ARM-Cortex-M0\Generic\GNU/os_cpu_c.c **** *
 213:..\..\..\..\..\..\Software\uCOS-III\Ports\ARM-Cortex-M0\Generic\GNU/os_cpu_c.c **** * Description: This function is called if a task accidentally returns.  In other words, a task shou
 214:..\..\..\..\..\..\Software\uCOS-III\Ports\ARM-Cortex-M0\Generic\GNU/os_cpu_c.c **** *              either be an infinite loop or delete itself when done.
 215:..\..\..\..\..\..\Software\uCOS-III\Ports\ARM-Cortex-M0\Generic\GNU/os_cpu_c.c **** *
 216:..\..\..\..\..\..\Software\uCOS-III\Ports\ARM-Cortex-M0\Generic\GNU/os_cpu_c.c **** * Arguments  : p_tcb        Pointer to the task control block of the task that is returning.
 217:..\..\..\..\..\..\Software\uCOS-III\Ports\ARM-Cortex-M0\Generic\GNU/os_cpu_c.c **** *
 218:..\..\..\..\..\..\Software\uCOS-III\Ports\ARM-Cortex-M0\Generic\GNU/os_cpu_c.c **** * Note(s)    : None.
 219:..\..\..\..\..\..\Software\uCOS-III\Ports\ARM-Cortex-M0\Generic\GNU/os_cpu_c.c **** ***************************************************************************************************
 220:..\..\..\..\..\..\Software\uCOS-III\Ports\ARM-Cortex-M0\Generic\GNU/os_cpu_c.c **** */
 221:..\..\..\..\..\..\Software\uCOS-III\Ports\ARM-Cortex-M0\Generic\GNU/os_cpu_c.c **** 
 222:..\..\..\..\..\..\Software\uCOS-III\Ports\ARM-Cortex-M0\Generic\GNU/os_cpu_c.c **** void  OSTaskReturnHook (OS_TCB  *p_tcb)
 223:..\..\..\..\..\..\Software\uCOS-III\Ports\ARM-Cortex-M0\Generic\GNU/os_cpu_c.c **** {
 158              		.loc 1 223 1 is_stmt 1 view -0
 159              		.cfi_startproc
 160              		@ args = 0, pretend = 0, frame = 0
 161              		@ frame_needed = 0, uses_anonymous_args = 0
 162              		@ link register save eliminated.
 224:..\..\..\..\..\..\Software\uCOS-III\Ports\ARM-Cortex-M0\Generic\GNU/os_cpu_c.c **** #if OS_CFG_APP_HOOKS_EN > 0u
 225:..\..\..\..\..\..\Software\uCOS-III\Ports\ARM-Cortex-M0\Generic\GNU/os_cpu_c.c ****     if (OS_AppTaskReturnHookPtr != (OS_APP_HOOK_TCB)0) {
 226:..\..\..\..\..\..\Software\uCOS-III\Ports\ARM-Cortex-M0\Generic\GNU/os_cpu_c.c ****         (*OS_AppTaskReturnHookPtr)(p_tcb);
 227:..\..\..\..\..\..\Software\uCOS-III\Ports\ARM-Cortex-M0\Generic\GNU/os_cpu_c.c ****     }
 228:..\..\..\..\..\..\Software\uCOS-III\Ports\ARM-Cortex-M0\Generic\GNU/os_cpu_c.c **** #else
 229:..\..\..\..\..\..\Software\uCOS-III\Ports\ARM-Cortex-M0\Generic\GNU/os_cpu_c.c ****     (void)p_tcb;                                                /* Prevent compiler warning        
 163              		.loc 1 229 5 view .LVU18
 230:..\..\..\..\..\..\Software\uCOS-III\Ports\ARM-Cortex-M0\Generic\GNU/os_cpu_c.c **** #endif
 231:..\..\..\..\..\..\Software\uCOS-III\Ports\ARM-Cortex-M0\Generic\GNU/os_cpu_c.c **** }
 164              		.loc 1 231 1 is_stmt 0 view .LVU19
 165              		@ sp needed
 166 0000 7047     		bx	lr
 167              		.cfi_endproc
 168              	.LFE8:
ARM GAS  C:\Users\EDULU~1.DES\AppData\Local\Temp\ccWcrZzh.s 			page 8


 169              		.size	OSTaskReturnHook, .-OSTaskReturnHook
 170              		.section	.text.OSTaskStkInit,"ax",%progbits
 171              		.align	1
 172              		.global	OSTaskStkInit
 173              		.syntax unified
 174              		.code	16
 175              		.thumb_func
 176              		.fpu softvfp
 177              		.type	OSTaskStkInit, %function
 178              	OSTaskStkInit:
 179              	.LVL3:
 180              	.LFB9:
 232:..\..\..\..\..\..\Software\uCOS-III\Ports\ARM-Cortex-M0\Generic\GNU/os_cpu_c.c **** 
 233:..\..\..\..\..\..\Software\uCOS-III\Ports\ARM-Cortex-M0\Generic\GNU/os_cpu_c.c **** 
 234:..\..\..\..\..\..\Software\uCOS-III\Ports\ARM-Cortex-M0\Generic\GNU/os_cpu_c.c **** /*
 235:..\..\..\..\..\..\Software\uCOS-III\Ports\ARM-Cortex-M0\Generic\GNU/os_cpu_c.c **** ***************************************************************************************************
 236:..\..\..\..\..\..\Software\uCOS-III\Ports\ARM-Cortex-M0\Generic\GNU/os_cpu_c.c **** *                                        INITIALIZE A TASK'S STACK
 237:..\..\..\..\..\..\Software\uCOS-III\Ports\ARM-Cortex-M0\Generic\GNU/os_cpu_c.c **** *
 238:..\..\..\..\..\..\Software\uCOS-III\Ports\ARM-Cortex-M0\Generic\GNU/os_cpu_c.c **** * Description: This function is called by either OSTaskCreate() or OSTaskCreateExt() to initialize 
 239:..\..\..\..\..\..\Software\uCOS-III\Ports\ARM-Cortex-M0\Generic\GNU/os_cpu_c.c **** *              stack frame of the task being created.  This function is highly processor specific.
 240:..\..\..\..\..\..\Software\uCOS-III\Ports\ARM-Cortex-M0\Generic\GNU/os_cpu_c.c **** *
 241:..\..\..\..\..\..\Software\uCOS-III\Ports\ARM-Cortex-M0\Generic\GNU/os_cpu_c.c **** * Arguments  : p_task       Pointer to the task entry point address.
 242:..\..\..\..\..\..\Software\uCOS-III\Ports\ARM-Cortex-M0\Generic\GNU/os_cpu_c.c **** *
 243:..\..\..\..\..\..\Software\uCOS-III\Ports\ARM-Cortex-M0\Generic\GNU/os_cpu_c.c **** *              p_arg        Pointer to a user supplied data area that will be passed to the task
 244:..\..\..\..\..\..\Software\uCOS-III\Ports\ARM-Cortex-M0\Generic\GNU/os_cpu_c.c **** *                               when the task first executes.
 245:..\..\..\..\..\..\Software\uCOS-III\Ports\ARM-Cortex-M0\Generic\GNU/os_cpu_c.c **** *
 246:..\..\..\..\..\..\Software\uCOS-III\Ports\ARM-Cortex-M0\Generic\GNU/os_cpu_c.c **** *              p_stk_base   Pointer to the base address of the stack.
 247:..\..\..\..\..\..\Software\uCOS-III\Ports\ARM-Cortex-M0\Generic\GNU/os_cpu_c.c **** *
 248:..\..\..\..\..\..\Software\uCOS-III\Ports\ARM-Cortex-M0\Generic\GNU/os_cpu_c.c **** *              stk_size     Size of the stack, in number of CPU_STK elements.
 249:..\..\..\..\..\..\Software\uCOS-III\Ports\ARM-Cortex-M0\Generic\GNU/os_cpu_c.c **** *
 250:..\..\..\..\..\..\Software\uCOS-III\Ports\ARM-Cortex-M0\Generic\GNU/os_cpu_c.c **** *              opt          Options used to alter the behavior of OS_Task_StkInit().
 251:..\..\..\..\..\..\Software\uCOS-III\Ports\ARM-Cortex-M0\Generic\GNU/os_cpu_c.c **** *                            (see OS.H for OS_TASK_OPT_xxx).
 252:..\..\..\..\..\..\Software\uCOS-III\Ports\ARM-Cortex-M0\Generic\GNU/os_cpu_c.c **** *
 253:..\..\..\..\..\..\Software\uCOS-III\Ports\ARM-Cortex-M0\Generic\GNU/os_cpu_c.c **** * Returns    : Always returns the location of the new top-of-stack once the processor registers hav
 254:..\..\..\..\..\..\Software\uCOS-III\Ports\ARM-Cortex-M0\Generic\GNU/os_cpu_c.c **** *              been placed on the stack in the proper order.
 255:..\..\..\..\..\..\Software\uCOS-III\Ports\ARM-Cortex-M0\Generic\GNU/os_cpu_c.c **** *
 256:..\..\..\..\..\..\Software\uCOS-III\Ports\ARM-Cortex-M0\Generic\GNU/os_cpu_c.c **** * Note(s)    : (1) Interrupts are enabled when task starts executing.
 257:..\..\..\..\..\..\Software\uCOS-III\Ports\ARM-Cortex-M0\Generic\GNU/os_cpu_c.c **** *
 258:..\..\..\..\..\..\Software\uCOS-III\Ports\ARM-Cortex-M0\Generic\GNU/os_cpu_c.c **** *              (2) All tasks run in Thread mode, using process stack.
 259:..\..\..\..\..\..\Software\uCOS-III\Ports\ARM-Cortex-M0\Generic\GNU/os_cpu_c.c **** *
 260:..\..\..\..\..\..\Software\uCOS-III\Ports\ARM-Cortex-M0\Generic\GNU/os_cpu_c.c **** *             (3) The SP must be 8-byte aligned in conforming to the Procedure Call Standard for th
 261:..\..\..\..\..\..\Software\uCOS-III\Ports\ARM-Cortex-M0\Generic\GNU/os_cpu_c.c **** *
 262:..\..\..\..\..\..\Software\uCOS-III\Ports\ARM-Cortex-M0\Generic\GNU/os_cpu_c.c **** *                    (a) Section 2.1 of the  ABI for the ARM Architecture Advisory Note. SP must be
 263:..\..\..\..\..\..\Software\uCOS-III\Ports\ARM-Cortex-M0\Generic\GNU/os_cpu_c.c **** *                        on entry to AAPCS-Conforming functions states :
 264:..\..\..\..\..\..\Software\uCOS-III\Ports\ARM-Cortex-M0\Generic\GNU/os_cpu_c.c **** *
 265:..\..\..\..\..\..\Software\uCOS-III\Ports\ARM-Cortex-M0\Generic\GNU/os_cpu_c.c **** *                        The Procedure Call Standard for the ARM Architecture [AAPCS] requires prim
 266:..\..\..\..\..\..\Software\uCOS-III\Ports\ARM-Cortex-M0\Generic\GNU/os_cpu_c.c **** *                        data types to be naturally aligned according to their sizes (for size = 1,
 267:..\..\..\..\..\..\Software\uCOS-III\Ports\ARM-Cortex-M0\Generic\GNU/os_cpu_c.c **** *                        Doing otherwise creates more problems than it solves.
 268:..\..\..\..\..\..\Software\uCOS-III\Ports\ARM-Cortex-M0\Generic\GNU/os_cpu_c.c **** *
 269:..\..\..\..\..\..\Software\uCOS-III\Ports\ARM-Cortex-M0\Generic\GNU/os_cpu_c.c **** *                        In return for preserving the natural alignment of data, conforming code is
 270:..\..\..\..\..\..\Software\uCOS-III\Ports\ARM-Cortex-M0\Generic\GNU/os_cpu_c.c **** *                        to rely on that alignment. To support aligning data allocated on the stack
 271:..\..\..\..\..\..\Software\uCOS-III\Ports\ARM-Cortex-M0\Generic\GNU/os_cpu_c.c **** *                        pointer (SP) is required to be 8-byte aligned on entry to a conforming fun
 272:..\..\..\..\..\..\Software\uCOS-III\Ports\ARM-Cortex-M0\Generic\GNU/os_cpu_c.c **** *                        practice this requirement is met if:
 273:..\..\..\..\..\..\Software\uCOS-III\Ports\ARM-Cortex-M0\Generic\GNU/os_cpu_c.c **** *
 274:..\..\..\..\..\..\Software\uCOS-III\Ports\ARM-Cortex-M0\Generic\GNU/os_cpu_c.c **** *                           (1) At each call site, the current size of the calling function’s stack
 275:..\..\..\..\..\..\Software\uCOS-III\Ports\ARM-Cortex-M0\Generic\GNU/os_cpu_c.c **** *                               This places an obligation on compilers and assembly language progra
 276:..\..\..\..\..\..\Software\uCOS-III\Ports\ARM-Cortex-M0\Generic\GNU/os_cpu_c.c **** *
ARM GAS  C:\Users\EDULU~1.DES\AppData\Local\Temp\ccWcrZzh.s 			page 9


 277:..\..\..\..\..\..\Software\uCOS-III\Ports\ARM-Cortex-M0\Generic\GNU/os_cpu_c.c **** *                           (2) SP is a multiple of 8 when control first enters a program.
 278:..\..\..\..\..\..\Software\uCOS-III\Ports\ARM-Cortex-M0\Generic\GNU/os_cpu_c.c **** *                               This places an obligation on authors of low level OS, RTOS, and run
 279:..\..\..\..\..\..\Software\uCOS-III\Ports\ARM-Cortex-M0\Generic\GNU/os_cpu_c.c **** *                               code to align SP at all points at which control first enters
 280:..\..\..\..\..\..\Software\uCOS-III\Ports\ARM-Cortex-M0\Generic\GNU/os_cpu_c.c **** *                               a body of (AAPCS-conforming) code.
 281:..\..\..\..\..\..\Software\uCOS-III\Ports\ARM-Cortex-M0\Generic\GNU/os_cpu_c.c **** *
 282:..\..\..\..\..\..\Software\uCOS-III\Ports\ARM-Cortex-M0\Generic\GNU/os_cpu_c.c **** *                       In turn, this requires the value of SP to be aligned to 0 modulo 8:
 283:..\..\..\..\..\..\Software\uCOS-III\Ports\ARM-Cortex-M0\Generic\GNU/os_cpu_c.c **** *
 284:..\..\..\..\..\..\Software\uCOS-III\Ports\ARM-Cortex-M0\Generic\GNU/os_cpu_c.c **** *                           (3) By exception handlers, before calling AAPCS-conforming code.
 285:..\..\..\..\..\..\Software\uCOS-III\Ports\ARM-Cortex-M0\Generic\GNU/os_cpu_c.c **** *
 286:..\..\..\..\..\..\Software\uCOS-III\Ports\ARM-Cortex-M0\Generic\GNU/os_cpu_c.c **** *                           (4) By OS/RTOS/run-time system code, before giving control to an applic
 287:..\..\..\..\..\..\Software\uCOS-III\Ports\ARM-Cortex-M0\Generic\GNU/os_cpu_c.c **** *
 288:..\..\..\..\..\..\Software\uCOS-III\Ports\ARM-Cortex-M0\Generic\GNU/os_cpu_c.c **** *                 (b) Section 2.3.1 corrective steps from the the SP must be 8-byte aligned on entr
 289:..\..\..\..\..\..\Software\uCOS-III\Ports\ARM-Cortex-M0\Generic\GNU/os_cpu_c.c **** *                     to AAPCS-conforming functions advisory note also states.
 290:..\..\..\..\..\..\Software\uCOS-III\Ports\ARM-Cortex-M0\Generic\GNU/os_cpu_c.c **** *
 291:..\..\..\..\..\..\Software\uCOS-III\Ports\ARM-Cortex-M0\Generic\GNU/os_cpu_c.c **** *                     " This requirement extends to operating systems and run-time code for all arc
 292:..\..\..\..\..\..\Software\uCOS-III\Ports\ARM-Cortex-M0\Generic\GNU/os_cpu_c.c **** *                       prior to ARMV7 and to the A, R and M architecture profiles thereafter. Spec
 293:..\..\..\..\..\..\Software\uCOS-III\Ports\ARM-Cortex-M0\Generic\GNU/os_cpu_c.c **** *                       associated with ARMV7M are discussed in §2.3.3"
 294:..\..\..\..\..\..\Software\uCOS-III\Ports\ARM-Cortex-M0\Generic\GNU/os_cpu_c.c **** *
 295:..\..\..\..\..\..\Software\uCOS-III\Ports\ARM-Cortex-M0\Generic\GNU/os_cpu_c.c **** *                     (1) Even if the SP 8-byte aligment is not a requirement for the ARMv7M profil
 296:..\..\..\..\..\..\Software\uCOS-III\Ports\ARM-Cortex-M0\Generic\GNU/os_cpu_c.c **** *                         to 8-byte boundaries to support legacy execution enviroments.
 297:..\..\..\..\..\..\Software\uCOS-III\Ports\ARM-Cortex-M0\Generic\GNU/os_cpu_c.c **** *
 298:..\..\..\..\..\..\Software\uCOS-III\Ports\ARM-Cortex-M0\Generic\GNU/os_cpu_c.c **** *                 (c) Section 5.2.1.2 from the Procedure Call Standard for the ARM
 299:..\..\..\..\..\..\Software\uCOS-III\Ports\ARM-Cortex-M0\Generic\GNU/os_cpu_c.c **** *                     architecture states :  "The stack must also conform to the following
 300:..\..\..\..\..\..\Software\uCOS-III\Ports\ARM-Cortex-M0\Generic\GNU/os_cpu_c.c **** *                     constraint at a public interface:
 301:..\..\..\..\..\..\Software\uCOS-III\Ports\ARM-Cortex-M0\Generic\GNU/os_cpu_c.c **** *
 302:..\..\..\..\..\..\Software\uCOS-III\Ports\ARM-Cortex-M0\Generic\GNU/os_cpu_c.c **** *                     (1) SP mod 8 = 0. The stack must be double-word aligned"
 303:..\..\..\..\..\..\Software\uCOS-III\Ports\ARM-Cortex-M0\Generic\GNU/os_cpu_c.c **** *
 304:..\..\..\..\..\..\Software\uCOS-III\Ports\ARM-Cortex-M0\Generic\GNU/os_cpu_c.c **** *                 (d) From the ARM Technical Support Knowledge Base. 8 Byte stack aligment.
 305:..\..\..\..\..\..\Software\uCOS-III\Ports\ARM-Cortex-M0\Generic\GNU/os_cpu_c.c **** *
 306:..\..\..\..\..\..\Software\uCOS-III\Ports\ARM-Cortex-M0\Generic\GNU/os_cpu_c.c **** *                     "8 byte stack alignment is a requirement of the ARM Architecture Procedure
 307:..\..\..\..\..\..\Software\uCOS-III\Ports\ARM-Cortex-M0\Generic\GNU/os_cpu_c.c **** *                      Call Standard [AAPCS]. This specifies that functions must maintain an 8 byte
 308:..\..\..\..\..\..\Software\uCOS-III\Ports\ARM-Cortex-M0\Generic\GNU/os_cpu_c.c **** *                      aligned stack address (e.g. 0x00, 0x08, 0x10, 0x18, 0x20) on all external
 309:..\..\..\..\..\..\Software\uCOS-III\Ports\ARM-Cortex-M0\Generic\GNU/os_cpu_c.c **** *                      interfaces. In practice this requirement is met if:
 310:..\..\..\..\..\..\Software\uCOS-III\Ports\ARM-Cortex-M0\Generic\GNU/os_cpu_c.c **** *
 311:..\..\..\..\..\..\Software\uCOS-III\Ports\ARM-Cortex-M0\Generic\GNU/os_cpu_c.c **** *                      (1) At each external interface, the current stack pointer
 312:..\..\..\..\..\..\Software\uCOS-III\Ports\ARM-Cortex-M0\Generic\GNU/os_cpu_c.c **** *                          is a multiple of 8 bytes.
 313:..\..\..\..\..\..\Software\uCOS-III\Ports\ARM-Cortex-M0\Generic\GNU/os_cpu_c.c **** *
 314:..\..\..\..\..\..\Software\uCOS-III\Ports\ARM-Cortex-M0\Generic\GNU/os_cpu_c.c **** *                      (2) Your OS maintains 8 byte stack alignment on its external interfaces
 315:..\..\..\..\..\..\Software\uCOS-III\Ports\ARM-Cortex-M0\Generic\GNU/os_cpu_c.c **** *                          e.g. on task switches"
 316:..\..\..\..\..\..\Software\uCOS-III\Ports\ARM-Cortex-M0\Generic\GNU/os_cpu_c.c **** *
 317:..\..\..\..\..\..\Software\uCOS-III\Ports\ARM-Cortex-M0\Generic\GNU/os_cpu_c.c **** *              (4) Exception Return Behavior(EXEC_RETURN)
 318:..\..\..\..\..\..\Software\uCOS-III\Ports\ARM-Cortex-M0\Generic\GNU/os_cpu_c.c **** *                  0xFFFFFFF1      Return to Thread mode. Exception return gets state from the Main
 319:..\..\..\..\..\..\Software\uCOS-III\Ports\ARM-Cortex-M0\Generic\GNU/os_cpu_c.c **** *                                  On Return execution uses the Main Stack.
 320:..\..\..\..\..\..\Software\uCOS-III\Ports\ARM-Cortex-M0\Generic\GNU/os_cpu_c.c **** *
 321:..\..\..\..\..\..\Software\uCOS-III\Ports\ARM-Cortex-M0\Generic\GNU/os_cpu_c.c **** *                  0xFFFFFFF9      Return to Thread mode. Exception return gets state from the Main
 322:..\..\..\..\..\..\Software\uCOS-III\Ports\ARM-Cortex-M0\Generic\GNU/os_cpu_c.c **** *                                  On Return execution uses the Main Stack.
 323:..\..\..\..\..\..\Software\uCOS-III\Ports\ARM-Cortex-M0\Generic\GNU/os_cpu_c.c **** *
 324:..\..\..\..\..\..\Software\uCOS-III\Ports\ARM-Cortex-M0\Generic\GNU/os_cpu_c.c **** *                  0xFFFFFFFD      Return to Thread mode. Exception return gets state from the Proc
 325:..\..\..\..\..\..\Software\uCOS-III\Ports\ARM-Cortex-M0\Generic\GNU/os_cpu_c.c **** *                                  On Return execution uses the Process Stack.
 326:..\..\..\..\..\..\Software\uCOS-III\Ports\ARM-Cortex-M0\Generic\GNU/os_cpu_c.c **** ***************************************************************************************************
 327:..\..\..\..\..\..\Software\uCOS-III\Ports\ARM-Cortex-M0\Generic\GNU/os_cpu_c.c **** */
 328:..\..\..\..\..\..\Software\uCOS-III\Ports\ARM-Cortex-M0\Generic\GNU/os_cpu_c.c **** 
 329:..\..\..\..\..\..\Software\uCOS-III\Ports\ARM-Cortex-M0\Generic\GNU/os_cpu_c.c **** CPU_STK  *OSTaskStkInit (OS_TASK_PTR    p_task,
 330:..\..\..\..\..\..\Software\uCOS-III\Ports\ARM-Cortex-M0\Generic\GNU/os_cpu_c.c ****                          void          *p_arg,
 331:..\..\..\..\..\..\Software\uCOS-III\Ports\ARM-Cortex-M0\Generic\GNU/os_cpu_c.c ****                          CPU_STK       *p_stk_base,
 332:..\..\..\..\..\..\Software\uCOS-III\Ports\ARM-Cortex-M0\Generic\GNU/os_cpu_c.c ****                          CPU_STK       *p_stk_limit,
 333:..\..\..\..\..\..\Software\uCOS-III\Ports\ARM-Cortex-M0\Generic\GNU/os_cpu_c.c ****                          CPU_STK_SIZE   stk_size,
ARM GAS  C:\Users\EDULU~1.DES\AppData\Local\Temp\ccWcrZzh.s 			page 10


 334:..\..\..\..\..\..\Software\uCOS-III\Ports\ARM-Cortex-M0\Generic\GNU/os_cpu_c.c ****                          OS_OPT         opt)
 335:..\..\..\..\..\..\Software\uCOS-III\Ports\ARM-Cortex-M0\Generic\GNU/os_cpu_c.c **** {
 181              		.loc 1 335 1 is_stmt 1 view -0
 182              		.cfi_startproc
 183              		@ args = 8, pretend = 0, frame = 0
 184              		@ frame_needed = 0, uses_anonymous_args = 0
 185              		.loc 1 335 1 is_stmt 0 view .LVU21
 186 0000 30B5     		push	{r4, r5, lr}
 187              		.cfi_def_cfa_offset 12
 188              		.cfi_offset 4, -12
 189              		.cfi_offset 5, -8
 190              		.cfi_offset 14, -4
 336:..\..\..\..\..\..\Software\uCOS-III\Ports\ARM-Cortex-M0\Generic\GNU/os_cpu_c.c ****     CPU_STK    *p_stk;
 191              		.loc 1 336 5 is_stmt 1 view .LVU22
 337:..\..\..\..\..\..\Software\uCOS-III\Ports\ARM-Cortex-M0\Generic\GNU/os_cpu_c.c **** 
 338:..\..\..\..\..\..\Software\uCOS-III\Ports\ARM-Cortex-M0\Generic\GNU/os_cpu_c.c **** 
 339:..\..\..\..\..\..\Software\uCOS-III\Ports\ARM-Cortex-M0\Generic\GNU/os_cpu_c.c ****     (void)opt;                                                  /* 'opt' is not used, prevent warni
 192              		.loc 1 339 5 view .LVU23
 340:..\..\..\..\..\..\Software\uCOS-III\Ports\ARM-Cortex-M0\Generic\GNU/os_cpu_c.c **** 
 341:..\..\..\..\..\..\Software\uCOS-III\Ports\ARM-Cortex-M0\Generic\GNU/os_cpu_c.c ****     p_stk = &p_stk_base[stk_size];                              /* Load stack pointer              
 193              		.loc 1 341 5 view .LVU24
 194              		.loc 1 341 24 is_stmt 0 view .LVU25
 195 0002 039C     		ldr	r4, [sp, #12]
 196 0004 A400     		lsls	r4, r4, #2
 197              		.loc 1 341 11 view .LVU26
 198 0006 1219     		adds	r2, r2, r4
 199              	.LVL4:
 342:..\..\..\..\..\..\Software\uCOS-III\Ports\ARM-Cortex-M0\Generic\GNU/os_cpu_c.c ****                                                                 /* Align the stack to 8-bytes.     
 343:..\..\..\..\..\..\Software\uCOS-III\Ports\ARM-Cortex-M0\Generic\GNU/os_cpu_c.c ****     p_stk = (CPU_STK *)((CPU_STK)(p_stk) & 0xFFFFFFF8u);
 200              		.loc 1 343 5 is_stmt 1 view .LVU27
 201              		.loc 1 343 42 is_stmt 0 view .LVU28
 202 0008 0724     		movs	r4, #7
 203 000a A243     		bics	r2, r4
 204              	.LVL5:
 344:..\..\..\..\..\..\Software\uCOS-III\Ports\ARM-Cortex-M0\Generic\GNU/os_cpu_c.c ****                                                                 /* Registers stacked as if auto-sav
 345:..\..\..\..\..\..\Software\uCOS-III\Ports\ARM-Cortex-M0\Generic\GNU/os_cpu_c.c ****     *(--p_stk) = (CPU_STK)0x01000000u;                          /* xPSR                            
 205              		.loc 1 345 5 is_stmt 1 view .LVU29
 206              		.loc 1 345 16 is_stmt 0 view .LVU30
 207 000c 141F     		subs	r4, r2, #4
 208              	.LVL6:
 209              		.loc 1 345 16 view .LVU31
 210 000e 8025     		movs	r5, #128
 211 0010 6D04     		lsls	r5, r5, #17
 212 0012 2560     		str	r5, [r4]
 346:..\..\..\..\..\..\Software\uCOS-III\Ports\ARM-Cortex-M0\Generic\GNU/os_cpu_c.c ****     *(--p_stk) = (CPU_STK)p_task;                               /* Entry Point                     
 213              		.loc 1 346 5 is_stmt 1 view .LVU32
 214              	.LVL7:
 215              		.loc 1 346 16 is_stmt 0 view .LVU33
 216 0014 043C     		subs	r4, r4, #4
 217 0016 2060     		str	r0, [r4]
 347:..\..\..\..\..\..\Software\uCOS-III\Ports\ARM-Cortex-M0\Generic\GNU/os_cpu_c.c ****     *(--p_stk) = (CPU_STK)OS_TaskReturn;                        /* R14 (LR)                        
 218              		.loc 1 347 5 is_stmt 1 view .LVU34
 219              	.LVL8:
 220              		.loc 1 347 16 is_stmt 0 view .LVU35
 221 0018 1000     		movs	r0, r2
 222              	.LVL9:
 223              		.loc 1 347 16 view .LVU36
ARM GAS  C:\Users\EDULU~1.DES\AppData\Local\Temp\ccWcrZzh.s 			page 11


 224 001a 0C38     		subs	r0, r0, #12
 225              	.LVL10:
 226              		.loc 1 347 16 view .LVU37
 227 001c 164C     		ldr	r4, .L10
 228              	.LVL11:
 229              		.loc 1 347 16 view .LVU38
 230 001e 0460     		str	r4, [r0]
 348:..\..\..\..\..\..\Software\uCOS-III\Ports\ARM-Cortex-M0\Generic\GNU/os_cpu_c.c ****     *(--p_stk) = (CPU_STK)0x12121212u;                          /* R12                             
 231              		.loc 1 348 5 is_stmt 1 view .LVU39
 232              	.LVL12:
 233              		.loc 1 348 16 is_stmt 0 view .LVU40
 234 0020 0438     		subs	r0, r0, #4
 235 0022 164C     		ldr	r4, .L10+4
 236 0024 0460     		str	r4, [r0]
 349:..\..\..\..\..\..\Software\uCOS-III\Ports\ARM-Cortex-M0\Generic\GNU/os_cpu_c.c ****     *(--p_stk) = (CPU_STK)0x03030303u;                          /* R3                              
 237              		.loc 1 349 5 is_stmt 1 view .LVU41
 238              	.LVL13:
 239              		.loc 1 349 16 is_stmt 0 view .LVU42
 240 0026 0438     		subs	r0, r0, #4
 241 0028 154C     		ldr	r4, .L10+8
 242 002a 0460     		str	r4, [r0]
 350:..\..\..\..\..\..\Software\uCOS-III\Ports\ARM-Cortex-M0\Generic\GNU/os_cpu_c.c ****     *(--p_stk) = (CPU_STK)0x02020202u;                          /* R2                              
 243              		.loc 1 350 5 is_stmt 1 view .LVU43
 244              	.LVL14:
 245              		.loc 1 350 16 is_stmt 0 view .LVU44
 246 002c 0438     		subs	r0, r0, #4
 247 002e 154C     		ldr	r4, .L10+12
 248 0030 0460     		str	r4, [r0]
 351:..\..\..\..\..\..\Software\uCOS-III\Ports\ARM-Cortex-M0\Generic\GNU/os_cpu_c.c ****     *(--p_stk) = (CPU_STK)p_stk_limit;                          /* R1                              
 249              		.loc 1 351 5 is_stmt 1 view .LVU45
 250              	.LVL15:
 251              		.loc 1 351 16 is_stmt 0 view .LVU46
 252 0032 0438     		subs	r0, r0, #4
 253 0034 0360     		str	r3, [r0]
 352:..\..\..\..\..\..\Software\uCOS-III\Ports\ARM-Cortex-M0\Generic\GNU/os_cpu_c.c ****     *(--p_stk) = (CPU_STK)p_arg;                                /* R0 : argument                   
 254              		.loc 1 352 5 is_stmt 1 view .LVU47
 255              	.LVL16:
 256              		.loc 1 352 16 is_stmt 0 view .LVU48
 257 0036 1300     		movs	r3, r2
 258              	.LVL17:
 259              		.loc 1 352 16 view .LVU49
 260 0038 203B     		subs	r3, r3, #32
 261              	.LVL18:
 262              		.loc 1 352 16 view .LVU50
 263 003a 1960     		str	r1, [r3]
 353:..\..\..\..\..\..\Software\uCOS-III\Ports\ARM-Cortex-M0\Generic\GNU/os_cpu_c.c ****                                                                 /* Remaining registers saved on pro
 354:..\..\..\..\..\..\Software\uCOS-III\Ports\ARM-Cortex-M0\Generic\GNU/os_cpu_c.c ****     *(--p_stk) = (CPU_STK)0xFFFFFFFDuL;                         /* R14: EXEC_RETURN; See Note 4    
 264              		.loc 1 354 5 is_stmt 1 view .LVU51
 265              	.LVL19:
 266              		.loc 1 354 16 is_stmt 0 view .LVU52
 267 003c 043B     		subs	r3, r3, #4
 268 003e 0321     		movs	r1, #3
 269              	.LVL20:
 270              		.loc 1 354 16 view .LVU53
 271 0040 4942     		rsbs	r1, r1, #0
 272 0042 1960     		str	r1, [r3]
 355:..\..\..\..\..\..\Software\uCOS-III\Ports\ARM-Cortex-M0\Generic\GNU/os_cpu_c.c ****     *(--p_stk) = (CPU_STK)0x11111111uL;                         /* R11                             
ARM GAS  C:\Users\EDULU~1.DES\AppData\Local\Temp\ccWcrZzh.s 			page 12


 273              		.loc 1 355 5 is_stmt 1 view .LVU54
 274              	.LVL21:
 275              		.loc 1 355 16 is_stmt 0 view .LVU55
 276 0044 043B     		subs	r3, r3, #4
 277              	.LVL22:
 278              		.loc 1 355 16 view .LVU56
 279 0046 1049     		ldr	r1, .L10+16
 280 0048 1960     		str	r1, [r3]
 356:..\..\..\..\..\..\Software\uCOS-III\Ports\ARM-Cortex-M0\Generic\GNU/os_cpu_c.c ****     *(--p_stk) = (CPU_STK)0x10101010uL;                         /* R10                             
 281              		.loc 1 356 5 is_stmt 1 view .LVU57
 282              	.LVL23:
 283              		.loc 1 356 16 is_stmt 0 view .LVU58
 284 004a 043B     		subs	r3, r3, #4
 285              	.LVL24:
 286              		.loc 1 356 16 view .LVU59
 287 004c 0F49     		ldr	r1, .L10+20
 288 004e 1960     		str	r1, [r3]
 357:..\..\..\..\..\..\Software\uCOS-III\Ports\ARM-Cortex-M0\Generic\GNU/os_cpu_c.c ****     *(--p_stk) = (CPU_STK)0x09090909uL;                         /* R9                              
 289              		.loc 1 357 5 is_stmt 1 view .LVU60
 290              	.LVL25:
 291              		.loc 1 357 16 is_stmt 0 view .LVU61
 292 0050 043B     		subs	r3, r3, #4
 293              	.LVL26:
 294              		.loc 1 357 16 view .LVU62
 295 0052 0F49     		ldr	r1, .L10+24
 296 0054 1960     		str	r1, [r3]
 358:..\..\..\..\..\..\Software\uCOS-III\Ports\ARM-Cortex-M0\Generic\GNU/os_cpu_c.c ****     *(--p_stk) = (CPU_STK)0x08080808uL;                         /* R8                              
 297              		.loc 1 358 5 is_stmt 1 view .LVU63
 298              	.LVL27:
 299              		.loc 1 358 16 is_stmt 0 view .LVU64
 300 0056 043B     		subs	r3, r3, #4
 301              	.LVL28:
 302              		.loc 1 358 16 view .LVU65
 303 0058 0E49     		ldr	r1, .L10+28
 304 005a 1960     		str	r1, [r3]
 359:..\..\..\..\..\..\Software\uCOS-III\Ports\ARM-Cortex-M0\Generic\GNU/os_cpu_c.c ****     *(--p_stk) = (CPU_STK)0x07070707uL;                         /* R7                              
 305              		.loc 1 359 5 is_stmt 1 view .LVU66
 306              	.LVL29:
 307              		.loc 1 359 16 is_stmt 0 view .LVU67
 308 005c 043B     		subs	r3, r3, #4
 309              	.LVL30:
 310              		.loc 1 359 16 view .LVU68
 311 005e 0E49     		ldr	r1, .L10+32
 312 0060 1960     		str	r1, [r3]
 360:..\..\..\..\..\..\Software\uCOS-III\Ports\ARM-Cortex-M0\Generic\GNU/os_cpu_c.c ****     *(--p_stk) = (CPU_STK)0x06060606uL;                         /* R6                              
 313              		.loc 1 360 5 is_stmt 1 view .LVU69
 314              	.LVL31:
 315              		.loc 1 360 16 is_stmt 0 view .LVU70
 316 0062 043B     		subs	r3, r3, #4
 317              	.LVL32:
 318              		.loc 1 360 16 view .LVU71
 319 0064 0D49     		ldr	r1, .L10+36
 320 0066 1960     		str	r1, [r3]
 361:..\..\..\..\..\..\Software\uCOS-III\Ports\ARM-Cortex-M0\Generic\GNU/os_cpu_c.c ****     *(--p_stk) = (CPU_STK)0x05050505uL;                         /* R5                              
 321              		.loc 1 361 5 is_stmt 1 view .LVU72
 322              	.LVL33:
 323              		.loc 1 361 16 is_stmt 0 view .LVU73
ARM GAS  C:\Users\EDULU~1.DES\AppData\Local\Temp\ccWcrZzh.s 			page 13


 324 0068 043B     		subs	r3, r3, #4
 325              	.LVL34:
 326              		.loc 1 361 16 view .LVU74
 327 006a 0D49     		ldr	r1, .L10+40
 328 006c 1960     		str	r1, [r3]
 362:..\..\..\..\..\..\Software\uCOS-III\Ports\ARM-Cortex-M0\Generic\GNU/os_cpu_c.c ****     *(--p_stk) = (CPU_STK)0x04040404uL;                         /* R4                              
 329              		.loc 1 362 5 is_stmt 1 view .LVU75
 330              		.loc 1 362 16 is_stmt 0 view .LVU76
 331 006e 443A     		subs	r2, r2, #68
 332              	.LVL35:
 333              		.loc 1 362 16 view .LVU77
 334 0070 1000     		movs	r0, r2
 335              	.LVL36:
 336              		.loc 1 362 16 view .LVU78
 337 0072 0C4B     		ldr	r3, .L10+44
 338              	.LVL37:
 339              		.loc 1 362 16 view .LVU79
 340 0074 1360     		str	r3, [r2]
 363:..\..\..\..\..\..\Software\uCOS-III\Ports\ARM-Cortex-M0\Generic\GNU/os_cpu_c.c **** 
 364:..\..\..\..\..\..\Software\uCOS-III\Ports\ARM-Cortex-M0\Generic\GNU/os_cpu_c.c ****     return (p_stk);
 341              		.loc 1 364 5 is_stmt 1 view .LVU80
 365:..\..\..\..\..\..\Software\uCOS-III\Ports\ARM-Cortex-M0\Generic\GNU/os_cpu_c.c **** }
 342              		.loc 1 365 1 is_stmt 0 view .LVU81
 343              		@ sp needed
 344 0076 30BD     		pop	{r4, r5, pc}
 345              	.L11:
 346              		.align	2
 347              	.L10:
 348 0078 00000000 		.word	OS_TaskReturn
 349 007c 12121212 		.word	303174162
 350 0080 03030303 		.word	50529027
 351 0084 02020202 		.word	33686018
 352 0088 11111111 		.word	286331153
 353 008c 10101010 		.word	269488144
 354 0090 09090909 		.word	151587081
 355 0094 08080808 		.word	134744072
 356 0098 07070707 		.word	117901063
 357 009c 06060606 		.word	101058054
 358 00a0 05050505 		.word	84215045
 359 00a4 04040404 		.word	67372036
 360              		.cfi_endproc
 361              	.LFE9:
 362              		.size	OSTaskStkInit, .-OSTaskStkInit
 363              		.section	.text.OSTaskSwHook,"ax",%progbits
 364              		.align	1
 365              		.global	OSTaskSwHook
 366              		.syntax unified
 367              		.code	16
 368              		.thumb_func
 369              		.fpu softvfp
 370              		.type	OSTaskSwHook, %function
 371              	OSTaskSwHook:
 372              	.LFB10:
 366:..\..\..\..\..\..\Software\uCOS-III\Ports\ARM-Cortex-M0\Generic\GNU/os_cpu_c.c **** 
 367:..\..\..\..\..\..\Software\uCOS-III\Ports\ARM-Cortex-M0\Generic\GNU/os_cpu_c.c **** 
 368:..\..\..\..\..\..\Software\uCOS-III\Ports\ARM-Cortex-M0\Generic\GNU/os_cpu_c.c **** /*
 369:..\..\..\..\..\..\Software\uCOS-III\Ports\ARM-Cortex-M0\Generic\GNU/os_cpu_c.c **** ***************************************************************************************************
ARM GAS  C:\Users\EDULU~1.DES\AppData\Local\Temp\ccWcrZzh.s 			page 14


 370:..\..\..\..\..\..\Software\uCOS-III\Ports\ARM-Cortex-M0\Generic\GNU/os_cpu_c.c **** *                                           TASK SWITCH HOOK
 371:..\..\..\..\..\..\Software\uCOS-III\Ports\ARM-Cortex-M0\Generic\GNU/os_cpu_c.c **** *
 372:..\..\..\..\..\..\Software\uCOS-III\Ports\ARM-Cortex-M0\Generic\GNU/os_cpu_c.c **** * Description: This function is called when a task switch is performed.  This allows you to perform
 373:..\..\..\..\..\..\Software\uCOS-III\Ports\ARM-Cortex-M0\Generic\GNU/os_cpu_c.c **** *              operations during a context switch.
 374:..\..\..\..\..\..\Software\uCOS-III\Ports\ARM-Cortex-M0\Generic\GNU/os_cpu_c.c **** *
 375:..\..\..\..\..\..\Software\uCOS-III\Ports\ARM-Cortex-M0\Generic\GNU/os_cpu_c.c **** * Arguments  : None.
 376:..\..\..\..\..\..\Software\uCOS-III\Ports\ARM-Cortex-M0\Generic\GNU/os_cpu_c.c **** *
 377:..\..\..\..\..\..\Software\uCOS-III\Ports\ARM-Cortex-M0\Generic\GNU/os_cpu_c.c **** * Note(s)    : 1) Interrupts are disabled during this call.
 378:..\..\..\..\..\..\Software\uCOS-III\Ports\ARM-Cortex-M0\Generic\GNU/os_cpu_c.c **** *              2) It is assumed that the global pointer 'OSTCBHighRdyPtr' points to the TCB of the 
 379:..\..\..\..\..\..\Software\uCOS-III\Ports\ARM-Cortex-M0\Generic\GNU/os_cpu_c.c **** *                 that will be 'switched in' (i.e. the highest priority task) and, 'OSTCBCurPtr' po
 380:..\..\..\..\..\..\Software\uCOS-III\Ports\ARM-Cortex-M0\Generic\GNU/os_cpu_c.c **** *                 to the task being switched out (i.e. the preempted task).
 381:..\..\..\..\..\..\Software\uCOS-III\Ports\ARM-Cortex-M0\Generic\GNU/os_cpu_c.c **** ***************************************************************************************************
 382:..\..\..\..\..\..\Software\uCOS-III\Ports\ARM-Cortex-M0\Generic\GNU/os_cpu_c.c **** */
 383:..\..\..\..\..\..\Software\uCOS-III\Ports\ARM-Cortex-M0\Generic\GNU/os_cpu_c.c **** 
 384:..\..\..\..\..\..\Software\uCOS-III\Ports\ARM-Cortex-M0\Generic\GNU/os_cpu_c.c **** void  OSTaskSwHook (void)
 385:..\..\..\..\..\..\Software\uCOS-III\Ports\ARM-Cortex-M0\Generic\GNU/os_cpu_c.c **** {
 373              		.loc 1 385 1 is_stmt 1 view -0
 374              		.cfi_startproc
 375              		@ args = 0, pretend = 0, frame = 0
 376              		@ frame_needed = 0, uses_anonymous_args = 0
 377 0000 10B5     		push	{r4, lr}
 378              		.cfi_def_cfa_offset 8
 379              		.cfi_offset 4, -8
 380              		.cfi_offset 14, -4
 386:..\..\..\..\..\..\Software\uCOS-III\Ports\ARM-Cortex-M0\Generic\GNU/os_cpu_c.c **** #if OS_CFG_TASK_PROFILE_EN > 0u
 387:..\..\..\..\..\..\Software\uCOS-III\Ports\ARM-Cortex-M0\Generic\GNU/os_cpu_c.c ****     CPU_TS  ts;
 388:..\..\..\..\..\..\Software\uCOS-III\Ports\ARM-Cortex-M0\Generic\GNU/os_cpu_c.c **** #endif
 389:..\..\..\..\..\..\Software\uCOS-III\Ports\ARM-Cortex-M0\Generic\GNU/os_cpu_c.c **** #ifdef  CPU_CFG_INT_DIS_MEAS_EN
 390:..\..\..\..\..\..\Software\uCOS-III\Ports\ARM-Cortex-M0\Generic\GNU/os_cpu_c.c ****     CPU_TS  int_dis_time;
 381              		.loc 1 390 5 view .LVU83
 391:..\..\..\..\..\..\Software\uCOS-III\Ports\ARM-Cortex-M0\Generic\GNU/os_cpu_c.c **** #endif
 392:..\..\..\..\..\..\Software\uCOS-III\Ports\ARM-Cortex-M0\Generic\GNU/os_cpu_c.c **** #if (OS_CFG_TASK_STK_REDZONE_EN == DEF_ENABLED)
 393:..\..\..\..\..\..\Software\uCOS-III\Ports\ARM-Cortex-M0\Generic\GNU/os_cpu_c.c ****     CPU_BOOLEAN  stk_status;
 394:..\..\..\..\..\..\Software\uCOS-III\Ports\ARM-Cortex-M0\Generic\GNU/os_cpu_c.c **** #endif
 395:..\..\..\..\..\..\Software\uCOS-III\Ports\ARM-Cortex-M0\Generic\GNU/os_cpu_c.c **** 
 396:..\..\..\..\..\..\Software\uCOS-III\Ports\ARM-Cortex-M0\Generic\GNU/os_cpu_c.c **** #if OS_CFG_APP_HOOKS_EN > 0u
 397:..\..\..\..\..\..\Software\uCOS-III\Ports\ARM-Cortex-M0\Generic\GNU/os_cpu_c.c ****     if (OS_AppTaskSwHookPtr != (OS_APP_HOOK_VOID)0) {
 398:..\..\..\..\..\..\Software\uCOS-III\Ports\ARM-Cortex-M0\Generic\GNU/os_cpu_c.c ****         (*OS_AppTaskSwHookPtr)();
 399:..\..\..\..\..\..\Software\uCOS-III\Ports\ARM-Cortex-M0\Generic\GNU/os_cpu_c.c ****     }
 400:..\..\..\..\..\..\Software\uCOS-III\Ports\ARM-Cortex-M0\Generic\GNU/os_cpu_c.c **** #endif
 401:..\..\..\..\..\..\Software\uCOS-III\Ports\ARM-Cortex-M0\Generic\GNU/os_cpu_c.c **** 
 402:..\..\..\..\..\..\Software\uCOS-III\Ports\ARM-Cortex-M0\Generic\GNU/os_cpu_c.c **** #if (defined(TRACE_CFG_EN) && (TRACE_CFG_EN > 0u))
 403:..\..\..\..\..\..\Software\uCOS-III\Ports\ARM-Cortex-M0\Generic\GNU/os_cpu_c.c ****     TRACE_OS_TASK_SWITCHED_IN(OSTCBHighRdyPtr);                 /* Record the event.               
 404:..\..\..\..\..\..\Software\uCOS-III\Ports\ARM-Cortex-M0\Generic\GNU/os_cpu_c.c **** #endif
 405:..\..\..\..\..\..\Software\uCOS-III\Ports\ARM-Cortex-M0\Generic\GNU/os_cpu_c.c **** 
 406:..\..\..\..\..\..\Software\uCOS-III\Ports\ARM-Cortex-M0\Generic\GNU/os_cpu_c.c **** #if OS_CFG_TASK_PROFILE_EN > 0u
 407:..\..\..\..\..\..\Software\uCOS-III\Ports\ARM-Cortex-M0\Generic\GNU/os_cpu_c.c ****     ts = OS_TS_GET();
 408:..\..\..\..\..\..\Software\uCOS-III\Ports\ARM-Cortex-M0\Generic\GNU/os_cpu_c.c ****     if (OSTCBCurPtr != OSTCBHighRdyPtr) {
 409:..\..\..\..\..\..\Software\uCOS-III\Ports\ARM-Cortex-M0\Generic\GNU/os_cpu_c.c ****         OSTCBCurPtr->CyclesDelta  = ts - OSTCBCurPtr->CyclesStart;
 410:..\..\..\..\..\..\Software\uCOS-III\Ports\ARM-Cortex-M0\Generic\GNU/os_cpu_c.c ****         OSTCBCurPtr->CyclesTotal += (OS_CYCLES)OSTCBCurPtr->CyclesDelta;
 411:..\..\..\..\..\..\Software\uCOS-III\Ports\ARM-Cortex-M0\Generic\GNU/os_cpu_c.c ****     }
 412:..\..\..\..\..\..\Software\uCOS-III\Ports\ARM-Cortex-M0\Generic\GNU/os_cpu_c.c **** 
 413:..\..\..\..\..\..\Software\uCOS-III\Ports\ARM-Cortex-M0\Generic\GNU/os_cpu_c.c ****     OSTCBHighRdyPtr->CyclesStart = ts;
 414:..\..\..\..\..\..\Software\uCOS-III\Ports\ARM-Cortex-M0\Generic\GNU/os_cpu_c.c **** #endif
 415:..\..\..\..\..\..\Software\uCOS-III\Ports\ARM-Cortex-M0\Generic\GNU/os_cpu_c.c **** 
 416:..\..\..\..\..\..\Software\uCOS-III\Ports\ARM-Cortex-M0\Generic\GNU/os_cpu_c.c **** #ifdef  CPU_CFG_INT_DIS_MEAS_EN
 417:..\..\..\..\..\..\Software\uCOS-III\Ports\ARM-Cortex-M0\Generic\GNU/os_cpu_c.c ****     int_dis_time = CPU_IntDisMeasMaxCurReset();                 /* Keep track of per-task interrupt
ARM GAS  C:\Users\EDULU~1.DES\AppData\Local\Temp\ccWcrZzh.s 			page 15


 382              		.loc 1 417 5 view .LVU84
 383              		.loc 1 417 20 is_stmt 0 view .LVU85
 384 0002 FFF7FEFF 		bl	CPU_IntDisMeasMaxCurReset
 385              	.LVL38:
 418:..\..\..\..\..\..\Software\uCOS-III\Ports\ARM-Cortex-M0\Generic\GNU/os_cpu_c.c ****     if (OSTCBCurPtr->IntDisTimeMax < int_dis_time) {
 386              		.loc 1 418 5 is_stmt 1 view .LVU86
 387              		.loc 1 418 20 is_stmt 0 view .LVU87
 388 0006 034B     		ldr	r3, .L14
 389 0008 1B68     		ldr	r3, [r3]
 390              		.loc 1 418 8 view .LVU88
 391 000a DA6E     		ldr	r2, [r3, #108]
 392 000c 8242     		cmp	r2, r0
 393 000e 00D2     		bcs	.L12
 419:..\..\..\..\..\..\Software\uCOS-III\Ports\ARM-Cortex-M0\Generic\GNU/os_cpu_c.c ****         OSTCBCurPtr->IntDisTimeMax = int_dis_time;
 394              		.loc 1 419 9 is_stmt 1 view .LVU89
 395              		.loc 1 419 36 is_stmt 0 view .LVU90
 396 0010 D866     		str	r0, [r3, #108]
 397              	.L12:
 420:..\..\..\..\..\..\Software\uCOS-III\Ports\ARM-Cortex-M0\Generic\GNU/os_cpu_c.c ****     }
 421:..\..\..\..\..\..\Software\uCOS-III\Ports\ARM-Cortex-M0\Generic\GNU/os_cpu_c.c **** #endif
 422:..\..\..\..\..\..\Software\uCOS-III\Ports\ARM-Cortex-M0\Generic\GNU/os_cpu_c.c **** 
 423:..\..\..\..\..\..\Software\uCOS-III\Ports\ARM-Cortex-M0\Generic\GNU/os_cpu_c.c **** #if OS_CFG_SCHED_LOCK_TIME_MEAS_EN > 0u
 424:..\..\..\..\..\..\Software\uCOS-III\Ports\ARM-Cortex-M0\Generic\GNU/os_cpu_c.c ****                                                                 /* Keep track of per-task scheduler
 425:..\..\..\..\..\..\Software\uCOS-III\Ports\ARM-Cortex-M0\Generic\GNU/os_cpu_c.c ****     if (OSTCBCurPtr->SchedLockTimeMax < OSSchedLockTimeMaxCur) {
 426:..\..\..\..\..\..\Software\uCOS-III\Ports\ARM-Cortex-M0\Generic\GNU/os_cpu_c.c ****         OSTCBCurPtr->SchedLockTimeMax = OSSchedLockTimeMaxCur;
 427:..\..\..\..\..\..\Software\uCOS-III\Ports\ARM-Cortex-M0\Generic\GNU/os_cpu_c.c ****     }
 428:..\..\..\..\..\..\Software\uCOS-III\Ports\ARM-Cortex-M0\Generic\GNU/os_cpu_c.c ****     OSSchedLockTimeMaxCur = (CPU_TS)0;                          /* Reset the per-task value        
 429:..\..\..\..\..\..\Software\uCOS-III\Ports\ARM-Cortex-M0\Generic\GNU/os_cpu_c.c **** #endif
 430:..\..\..\..\..\..\Software\uCOS-III\Ports\ARM-Cortex-M0\Generic\GNU/os_cpu_c.c **** 
 431:..\..\..\..\..\..\Software\uCOS-III\Ports\ARM-Cortex-M0\Generic\GNU/os_cpu_c.c **** #if (OS_CFG_TASK_STK_REDZONE_EN == DEF_ENABLED)
 432:..\..\..\..\..\..\Software\uCOS-III\Ports\ARM-Cortex-M0\Generic\GNU/os_cpu_c.c ****                                                                 /* Check if stack overflowed.      
 433:..\..\..\..\..\..\Software\uCOS-III\Ports\ARM-Cortex-M0\Generic\GNU/os_cpu_c.c ****     stk_status = OSTaskStkRedzoneChk(DEF_NULL);
 434:..\..\..\..\..\..\Software\uCOS-III\Ports\ARM-Cortex-M0\Generic\GNU/os_cpu_c.c ****     if (stk_status != DEF_OK) {
 435:..\..\..\..\..\..\Software\uCOS-III\Ports\ARM-Cortex-M0\Generic\GNU/os_cpu_c.c ****         OSRedzoneHitHook(OSTCBCurPtr);
 436:..\..\..\..\..\..\Software\uCOS-III\Ports\ARM-Cortex-M0\Generic\GNU/os_cpu_c.c ****     }
 437:..\..\..\..\..\..\Software\uCOS-III\Ports\ARM-Cortex-M0\Generic\GNU/os_cpu_c.c **** #endif
 438:..\..\..\..\..\..\Software\uCOS-III\Ports\ARM-Cortex-M0\Generic\GNU/os_cpu_c.c **** }
 398              		.loc 1 438 1 view .LVU91
 399              		@ sp needed
 400 0012 10BD     		pop	{r4, pc}
 401              	.L15:
 402              		.align	2
 403              	.L14:
 404 0014 00000000 		.word	OSTCBCurPtr
 405              		.cfi_endproc
 406              	.LFE10:
 407              		.size	OSTaskSwHook, .-OSTaskSwHook
 408              		.section	.text.OSTimeTickHook,"ax",%progbits
 409              		.align	1
 410              		.global	OSTimeTickHook
 411              		.syntax unified
 412              		.code	16
 413              		.thumb_func
 414              		.fpu softvfp
 415              		.type	OSTimeTickHook, %function
 416              	OSTimeTickHook:
 417              	.LFB11:
ARM GAS  C:\Users\EDULU~1.DES\AppData\Local\Temp\ccWcrZzh.s 			page 16


 439:..\..\..\..\..\..\Software\uCOS-III\Ports\ARM-Cortex-M0\Generic\GNU/os_cpu_c.c **** 
 440:..\..\..\..\..\..\Software\uCOS-III\Ports\ARM-Cortex-M0\Generic\GNU/os_cpu_c.c **** 
 441:..\..\..\..\..\..\Software\uCOS-III\Ports\ARM-Cortex-M0\Generic\GNU/os_cpu_c.c **** /*
 442:..\..\..\..\..\..\Software\uCOS-III\Ports\ARM-Cortex-M0\Generic\GNU/os_cpu_c.c **** ***************************************************************************************************
 443:..\..\..\..\..\..\Software\uCOS-III\Ports\ARM-Cortex-M0\Generic\GNU/os_cpu_c.c **** *                                              TICK HOOK
 444:..\..\..\..\..\..\Software\uCOS-III\Ports\ARM-Cortex-M0\Generic\GNU/os_cpu_c.c **** *
 445:..\..\..\..\..\..\Software\uCOS-III\Ports\ARM-Cortex-M0\Generic\GNU/os_cpu_c.c **** * Description: This function is called every tick.
 446:..\..\..\..\..\..\Software\uCOS-III\Ports\ARM-Cortex-M0\Generic\GNU/os_cpu_c.c **** *
 447:..\..\..\..\..\..\Software\uCOS-III\Ports\ARM-Cortex-M0\Generic\GNU/os_cpu_c.c **** * Arguments  : None.
 448:..\..\..\..\..\..\Software\uCOS-III\Ports\ARM-Cortex-M0\Generic\GNU/os_cpu_c.c **** *
 449:..\..\..\..\..\..\Software\uCOS-III\Ports\ARM-Cortex-M0\Generic\GNU/os_cpu_c.c **** * Note(s)    : 1) This function is assumed to be called from the Tick ISR.
 450:..\..\..\..\..\..\Software\uCOS-III\Ports\ARM-Cortex-M0\Generic\GNU/os_cpu_c.c **** ***************************************************************************************************
 451:..\..\..\..\..\..\Software\uCOS-III\Ports\ARM-Cortex-M0\Generic\GNU/os_cpu_c.c **** */
 452:..\..\..\..\..\..\Software\uCOS-III\Ports\ARM-Cortex-M0\Generic\GNU/os_cpu_c.c **** 
 453:..\..\..\..\..\..\Software\uCOS-III\Ports\ARM-Cortex-M0\Generic\GNU/os_cpu_c.c **** void  OSTimeTickHook (void)
 454:..\..\..\..\..\..\Software\uCOS-III\Ports\ARM-Cortex-M0\Generic\GNU/os_cpu_c.c **** {
 418              		.loc 1 454 1 is_stmt 1 view -0
 419              		.cfi_startproc
 420              		@ args = 0, pretend = 0, frame = 0
 421              		@ frame_needed = 0, uses_anonymous_args = 0
 422              		@ link register save eliminated.
 455:..\..\..\..\..\..\Software\uCOS-III\Ports\ARM-Cortex-M0\Generic\GNU/os_cpu_c.c **** #if OS_CFG_APP_HOOKS_EN > 0u
 456:..\..\..\..\..\..\Software\uCOS-III\Ports\ARM-Cortex-M0\Generic\GNU/os_cpu_c.c ****     if (OS_AppTimeTickHookPtr != (OS_APP_HOOK_VOID)0) {
 457:..\..\..\..\..\..\Software\uCOS-III\Ports\ARM-Cortex-M0\Generic\GNU/os_cpu_c.c ****         (*OS_AppTimeTickHookPtr)();
 458:..\..\..\..\..\..\Software\uCOS-III\Ports\ARM-Cortex-M0\Generic\GNU/os_cpu_c.c ****     }
 459:..\..\..\..\..\..\Software\uCOS-III\Ports\ARM-Cortex-M0\Generic\GNU/os_cpu_c.c **** #endif
 460:..\..\..\..\..\..\Software\uCOS-III\Ports\ARM-Cortex-M0\Generic\GNU/os_cpu_c.c **** }
 423              		.loc 1 460 1 view .LVU93
 424              		@ sp needed
 425 0000 7047     		bx	lr
 426              		.cfi_endproc
 427              	.LFE11:
 428              		.size	OSTimeTickHook, .-OSTimeTickHook
 429              		.section	.text.SysTick_Handler,"ax",%progbits
 430              		.align	1
 431              		.global	SysTick_Handler
 432              		.syntax unified
 433              		.code	16
 434              		.thumb_func
 435              		.fpu softvfp
 436              		.type	SysTick_Handler, %function
 437              	SysTick_Handler:
 438              	.LFB12:
 461:..\..\..\..\..\..\Software\uCOS-III\Ports\ARM-Cortex-M0\Generic\GNU/os_cpu_c.c **** 
 462:..\..\..\..\..\..\Software\uCOS-III\Ports\ARM-Cortex-M0\Generic\GNU/os_cpu_c.c **** 
 463:..\..\..\..\..\..\Software\uCOS-III\Ports\ARM-Cortex-M0\Generic\GNU/os_cpu_c.c **** /*
 464:..\..\..\..\..\..\Software\uCOS-III\Ports\ARM-Cortex-M0\Generic\GNU/os_cpu_c.c **** ***************************************************************************************************
 465:..\..\..\..\..\..\Software\uCOS-III\Ports\ARM-Cortex-M0\Generic\GNU/os_cpu_c.c **** *                                          SYS TICK HANDLER
 466:..\..\..\..\..\..\Software\uCOS-III\Ports\ARM-Cortex-M0\Generic\GNU/os_cpu_c.c **** *
 467:..\..\..\..\..\..\Software\uCOS-III\Ports\ARM-Cortex-M0\Generic\GNU/os_cpu_c.c **** * Description: Handle the system tick (SysTick) interrupt, which is used to generate the uC/OS-II t
 468:..\..\..\..\..\..\Software\uCOS-III\Ports\ARM-Cortex-M0\Generic\GNU/os_cpu_c.c **** *              interrupt.
 469:..\..\..\..\..\..\Software\uCOS-III\Ports\ARM-Cortex-M0\Generic\GNU/os_cpu_c.c **** *
 470:..\..\..\..\..\..\Software\uCOS-III\Ports\ARM-Cortex-M0\Generic\GNU/os_cpu_c.c **** * Arguments  : None.
 471:..\..\..\..\..\..\Software\uCOS-III\Ports\ARM-Cortex-M0\Generic\GNU/os_cpu_c.c **** *
 472:..\..\..\..\..\..\Software\uCOS-III\Ports\ARM-Cortex-M0\Generic\GNU/os_cpu_c.c **** * Note(s)    : 1) This function MUST be placed on entry 15 of the Cortex-M0 vector table.
 473:..\..\..\..\..\..\Software\uCOS-III\Ports\ARM-Cortex-M0\Generic\GNU/os_cpu_c.c **** ***************************************************************************************************
 474:..\..\..\..\..\..\Software\uCOS-III\Ports\ARM-Cortex-M0\Generic\GNU/os_cpu_c.c **** */
ARM GAS  C:\Users\EDULU~1.DES\AppData\Local\Temp\ccWcrZzh.s 			page 17


 475:..\..\..\..\..\..\Software\uCOS-III\Ports\ARM-Cortex-M0\Generic\GNU/os_cpu_c.c **** 
 476:..\..\..\..\..\..\Software\uCOS-III\Ports\ARM-Cortex-M0\Generic\GNU/os_cpu_c.c **** void  SysTick_Handler (void)
 477:..\..\..\..\..\..\Software\uCOS-III\Ports\ARM-Cortex-M0\Generic\GNU/os_cpu_c.c **** {
 439              		.loc 1 477 1 view -0
 440              		.cfi_startproc
 441              		@ args = 0, pretend = 0, frame = 0
 442              		@ frame_needed = 0, uses_anonymous_args = 0
 443 0000 10B5     		push	{r4, lr}
 444              		.cfi_def_cfa_offset 8
 445              		.cfi_offset 4, -8
 446              		.cfi_offset 14, -4
 478:..\..\..\..\..\..\Software\uCOS-III\Ports\ARM-Cortex-M0\Generic\GNU/os_cpu_c.c ****     CPU_SR_ALLOC();
 447              		.loc 1 478 5 view .LVU95
 448              	.LVL39:
 479:..\..\..\..\..\..\Software\uCOS-III\Ports\ARM-Cortex-M0\Generic\GNU/os_cpu_c.c **** 
 480:..\..\..\..\..\..\Software\uCOS-III\Ports\ARM-Cortex-M0\Generic\GNU/os_cpu_c.c **** 
 481:..\..\..\..\..\..\Software\uCOS-III\Ports\ARM-Cortex-M0\Generic\GNU/os_cpu_c.c ****     CPU_CRITICAL_ENTER();
 449              		.loc 1 481 5 view .LVU96
 450              		.loc 1 481 5 view .LVU97
 451              		.loc 1 481 5 view .LVU98
 452 0002 FFF7FEFF 		bl	CPU_SR_Save
 453              	.LVL40:
 454 0006 0400     		movs	r4, r0
 455              	.LVL41:
 456              		.loc 1 481 5 view .LVU99
 457 0008 FFF7FEFF 		bl	CPU_IntDisMeasStart
 458              	.LVL42:
 482:..\..\..\..\..\..\Software\uCOS-III\Ports\ARM-Cortex-M0\Generic\GNU/os_cpu_c.c ****     OSIntEnter();                                               /* Tell uC/OS-III that we are start
 459              		.loc 1 482 5 view .LVU100
 460 000c FFF7FEFF 		bl	OSIntEnter
 461              	.LVL43:
 483:..\..\..\..\..\..\Software\uCOS-III\Ports\ARM-Cortex-M0\Generic\GNU/os_cpu_c.c ****     CPU_CRITICAL_EXIT();
 462              		.loc 1 483 5 view .LVU101
 463              		.loc 1 483 5 view .LVU102
 464 0010 FFF7FEFF 		bl	CPU_IntDisMeasStop
 465              	.LVL44:
 466              		.loc 1 483 5 view .LVU103
 467              		.loc 1 483 5 view .LVU104
 468 0014 2000     		movs	r0, r4
 469 0016 FFF7FEFF 		bl	CPU_SR_Restore
 470              	.LVL45:
 484:..\..\..\..\..\..\Software\uCOS-III\Ports\ARM-Cortex-M0\Generic\GNU/os_cpu_c.c **** 
 485:..\..\..\..\..\..\Software\uCOS-III\Ports\ARM-Cortex-M0\Generic\GNU/os_cpu_c.c ****     OSTimeTick();                                               /* Call uC/OS-III's OSTimeTick()   
 471              		.loc 1 485 5 view .LVU105
 472 001a FFF7FEFF 		bl	OSTimeTick
 473              	.LVL46:
 486:..\..\..\..\..\..\Software\uCOS-III\Ports\ARM-Cortex-M0\Generic\GNU/os_cpu_c.c **** 
 487:..\..\..\..\..\..\Software\uCOS-III\Ports\ARM-Cortex-M0\Generic\GNU/os_cpu_c.c ****     OSIntExit();                                                /* Tell uC/OS-III that we are leavi
 474              		.loc 1 487 5 view .LVU106
 475 001e FFF7FEFF 		bl	OSIntExit
 476              	.LVL47:
 488:..\..\..\..\..\..\Software\uCOS-III\Ports\ARM-Cortex-M0\Generic\GNU/os_cpu_c.c **** }
 477              		.loc 1 488 1 is_stmt 0 view .LVU107
 478              		@ sp needed
 479              	.LVL48:
 480              		.loc 1 488 1 view .LVU108
 481 0022 10BD     		pop	{r4, pc}
ARM GAS  C:\Users\EDULU~1.DES\AppData\Local\Temp\ccWcrZzh.s 			page 18


 482              		.cfi_endproc
 483              	.LFE12:
 484              		.size	SysTick_Handler, .-SysTick_Handler
 485              		.global	__aeabi_uidiv
 486              		.section	.text.OS_CPU_SysTickInit,"ax",%progbits
 487              		.align	1
 488              		.global	OS_CPU_SysTickInit
 489              		.syntax unified
 490              		.code	16
 491              		.thumb_func
 492              		.fpu softvfp
 493              		.type	OS_CPU_SysTickInit, %function
 494              	OS_CPU_SysTickInit:
 495              	.LVL49:
 496              	.LFB13:
 489:..\..\..\..\..\..\Software\uCOS-III\Ports\ARM-Cortex-M0\Generic\GNU/os_cpu_c.c **** 
 490:..\..\..\..\..\..\Software\uCOS-III\Ports\ARM-Cortex-M0\Generic\GNU/os_cpu_c.c **** 
 491:..\..\..\..\..\..\Software\uCOS-III\Ports\ARM-Cortex-M0\Generic\GNU/os_cpu_c.c **** /*
 492:..\..\..\..\..\..\Software\uCOS-III\Ports\ARM-Cortex-M0\Generic\GNU/os_cpu_c.c **** ***************************************************************************************************
 493:..\..\..\..\..\..\Software\uCOS-III\Ports\ARM-Cortex-M0\Generic\GNU/os_cpu_c.c **** *                                         INITIALIZE SYS TICK
 494:..\..\..\..\..\..\Software\uCOS-III\Ports\ARM-Cortex-M0\Generic\GNU/os_cpu_c.c **** *
 495:..\..\..\..\..\..\Software\uCOS-III\Ports\ARM-Cortex-M0\Generic\GNU/os_cpu_c.c **** * Description: Initialize the SysTick.
 496:..\..\..\..\..\..\Software\uCOS-III\Ports\ARM-Cortex-M0\Generic\GNU/os_cpu_c.c **** *
 497:..\..\..\..\..\..\Software\uCOS-III\Ports\ARM-Cortex-M0\Generic\GNU/os_cpu_c.c **** * Arguments  : cpu_freq         CPU clock frequency.
 498:..\..\..\..\..\..\Software\uCOS-III\Ports\ARM-Cortex-M0\Generic\GNU/os_cpu_c.c **** *
 499:..\..\..\..\..\..\Software\uCOS-III\Ports\ARM-Cortex-M0\Generic\GNU/os_cpu_c.c **** * Note(s)    : 1) This function MUST be called after OSStart() & after processor initialization.
 500:..\..\..\..\..\..\Software\uCOS-III\Ports\ARM-Cortex-M0\Generic\GNU/os_cpu_c.c **** ***************************************************************************************************
 501:..\..\..\..\..\..\Software\uCOS-III\Ports\ARM-Cortex-M0\Generic\GNU/os_cpu_c.c **** */
 502:..\..\..\..\..\..\Software\uCOS-III\Ports\ARM-Cortex-M0\Generic\GNU/os_cpu_c.c **** 
 503:..\..\..\..\..\..\Software\uCOS-III\Ports\ARM-Cortex-M0\Generic\GNU/os_cpu_c.c **** void  OS_CPU_SysTickInit (CPU_INT32U  cpu_freq)
 504:..\..\..\..\..\..\Software\uCOS-III\Ports\ARM-Cortex-M0\Generic\GNU/os_cpu_c.c **** {
 497              		.loc 1 504 1 is_stmt 1 view -0
 498              		.cfi_startproc
 499              		@ args = 0, pretend = 0, frame = 0
 500              		@ frame_needed = 0, uses_anonymous_args = 0
 501              		.loc 1 504 1 is_stmt 0 view .LVU110
 502 0000 10B5     		push	{r4, lr}
 503              		.cfi_def_cfa_offset 8
 504              		.cfi_offset 4, -8
 505              		.cfi_offset 14, -4
 505:..\..\..\..\..\..\Software\uCOS-III\Ports\ARM-Cortex-M0\Generic\GNU/os_cpu_c.c ****     CPU_INT32U  prio;
 506              		.loc 1 505 5 is_stmt 1 view .LVU111
 506:..\..\..\..\..\..\Software\uCOS-III\Ports\ARM-Cortex-M0\Generic\GNU/os_cpu_c.c ****     CPU_INT32U  cnts;
 507              		.loc 1 506 5 view .LVU112
 507:..\..\..\..\..\..\Software\uCOS-III\Ports\ARM-Cortex-M0\Generic\GNU/os_cpu_c.c **** 
 508:..\..\..\..\..\..\Software\uCOS-III\Ports\ARM-Cortex-M0\Generic\GNU/os_cpu_c.c **** 
 509:..\..\..\..\..\..\Software\uCOS-III\Ports\ARM-Cortex-M0\Generic\GNU/os_cpu_c.c ****     cnts = (cpu_freq / (CPU_INT32U)OSCfg_TickRate_Hz);          /* Determine nbr SysTick cnts betwe
 508              		.loc 1 509 5 view .LVU113
 509              		.loc 1 509 24 is_stmt 0 view .LVU114
 510 0002 0B4B     		ldr	r3, .L19
 511 0004 1968     		ldr	r1, [r3]
 512              		.loc 1 509 10 view .LVU115
 513 0006 FFF7FEFF 		bl	__aeabi_uidiv
 514              	.LVL50:
 510:..\..\..\..\..\..\Software\uCOS-III\Ports\ARM-Cortex-M0\Generic\GNU/os_cpu_c.c **** 
 511:..\..\..\..\..\..\Software\uCOS-III\Ports\ARM-Cortex-M0\Generic\GNU/os_cpu_c.c ****     CPU_REG_NVIC_ST_RELOAD = cnts - 1u;
 515              		.loc 1 511 5 is_stmt 1 view .LVU116
ARM GAS  C:\Users\EDULU~1.DES\AppData\Local\Temp\ccWcrZzh.s 			page 19


 516              		.loc 1 511 35 is_stmt 0 view .LVU117
 517 000a 0138     		subs	r0, r0, #1
 518              	.LVL51:
 519              		.loc 1 511 28 view .LVU118
 520 000c 094B     		ldr	r3, .L19+4
 521 000e 1860     		str	r0, [r3]
 512:..\..\..\..\..\..\Software\uCOS-III\Ports\ARM-Cortex-M0\Generic\GNU/os_cpu_c.c **** 
 513:..\..\..\..\..\..\Software\uCOS-III\Ports\ARM-Cortex-M0\Generic\GNU/os_cpu_c.c ****                                                                 /* Set SysTick handler prio.       
 514:..\..\..\..\..\..\Software\uCOS-III\Ports\ARM-Cortex-M0\Generic\GNU/os_cpu_c.c ****     prio                  =  CPU_REG_NVIC_SHPRI3;
 522              		.loc 1 514 5 is_stmt 1 view .LVU119
 523              		.loc 1 514 27 is_stmt 0 view .LVU120
 524 0010 094A     		ldr	r2, .L19+8
 525 0012 1368     		ldr	r3, [r2]
 526              	.LVL52:
 515:..\..\..\..\..\..\Software\uCOS-III\Ports\ARM-Cortex-M0\Generic\GNU/os_cpu_c.c ****     prio                 &=  0x00FFFFFFu;
 527              		.loc 1 515 5 is_stmt 1 view .LVU121
 528              		.loc 1 515 26 is_stmt 0 view .LVU122
 529 0014 1B02     		lsls	r3, r3, #8
 530              	.LVL53:
 531              		.loc 1 515 26 view .LVU123
 532 0016 1B0A     		lsrs	r3, r3, #8
 533              	.LVL54:
 516:..\..\..\..\..\..\Software\uCOS-III\Ports\ARM-Cortex-M0\Generic\GNU/os_cpu_c.c ****     prio                 |= (OS_CPU_CFG_SYSTICK_PRIO << 24u);
 534              		.loc 1 516 5 is_stmt 1 view .LVU124
 517:..\..\..\..\..\..\Software\uCOS-III\Ports\ARM-Cortex-M0\Generic\GNU/os_cpu_c.c **** 
 518:..\..\..\..\..\..\Software\uCOS-III\Ports\ARM-Cortex-M0\Generic\GNU/os_cpu_c.c ****     CPU_REG_NVIC_SHPRI3   = prio;
 535              		.loc 1 518 5 view .LVU125
 536              		.loc 1 518 27 is_stmt 0 view .LVU126
 537 0018 1360     		str	r3, [r2]
 519:..\..\..\..\..\..\Software\uCOS-III\Ports\ARM-Cortex-M0\Generic\GNU/os_cpu_c.c **** 
 520:..\..\..\..\..\..\Software\uCOS-III\Ports\ARM-Cortex-M0\Generic\GNU/os_cpu_c.c ****                                                                 /* Enable timer.                   
 521:..\..\..\..\..\..\Software\uCOS-III\Ports\ARM-Cortex-M0\Generic\GNU/os_cpu_c.c ****     CPU_REG_NVIC_ST_CTRL |= CPU_REG_NVIC_ST_CTRL_CLKSOURCE |
 538              		.loc 1 521 5 is_stmt 1 view .LVU127
 539              		.loc 1 521 26 is_stmt 0 view .LVU128
 540 001a 084B     		ldr	r3, .L19+12
 541              	.LVL55:
 542              		.loc 1 521 26 view .LVU129
 543 001c 1A68     		ldr	r2, [r3]
 544              	.LVL56:
 545              		.loc 1 521 26 view .LVU130
 546 001e 0521     		movs	r1, #5
 547 0020 0A43     		orrs	r2, r1
 548 0022 1A60     		str	r2, [r3]
 549              	.LVL57:
 522:..\..\..\..\..\..\Software\uCOS-III\Ports\ARM-Cortex-M0\Generic\GNU/os_cpu_c.c ****                             CPU_REG_NVIC_ST_CTRL_ENABLE;
 523:..\..\..\..\..\..\Software\uCOS-III\Ports\ARM-Cortex-M0\Generic\GNU/os_cpu_c.c ****                                                                 /* Enable timer interrupt.         
 524:..\..\..\..\..\..\Software\uCOS-III\Ports\ARM-Cortex-M0\Generic\GNU/os_cpu_c.c ****     CPU_REG_NVIC_ST_CTRL |= CPU_REG_NVIC_ST_CTRL_TICKINT;
 550              		.loc 1 524 5 is_stmt 1 view .LVU131
 551              		.loc 1 524 26 is_stmt 0 view .LVU132
 552 0024 1A68     		ldr	r2, [r3]
 553 0026 0339     		subs	r1, r1, #3
 554 0028 0A43     		orrs	r2, r1
 555 002a 1A60     		str	r2, [r3]
 525:..\..\..\..\..\..\Software\uCOS-III\Ports\ARM-Cortex-M0\Generic\GNU/os_cpu_c.c **** }
 556              		.loc 1 525 1 view .LVU133
 557              		@ sp needed
 558 002c 10BD     		pop	{r4, pc}
ARM GAS  C:\Users\EDULU~1.DES\AppData\Local\Temp\ccWcrZzh.s 			page 20


 559              	.L20:
 560 002e C046     		.align	2
 561              	.L19:
 562 0030 00000000 		.word	OSCfg_TickRate_Hz
 563 0034 14E000E0 		.word	-536813548
 564 0038 20ED00E0 		.word	-536810208
 565 003c 10E000E0 		.word	-536813552
 566              		.cfi_endproc
 567              	.LFE13:
 568              		.size	OS_CPU_SysTickInit, .-OS_CPU_SysTickInit
 569              		.comm	OS_CPU_ExceptStkBase,4,4
 570              		.text
 571              	.Letext0:
 572              		.file 2 "..\\..\\..\\..\\..\\..\\Software\\uC-CPU\\ARM-Cortex-M0\\GNU/cpu.h"
 573              		.file 3 "c:\\program files (x86)\\gnu tools arm embedded\\8 2018-q4-major\\arm-none-eabi\\include\
 574              		.file 4 "c:\\program files (x86)\\gnu tools arm embedded\\8 2018-q4-major\\arm-none-eabi\\include\
 575              		.file 5 "c:\\program files (x86)\\gnu tools arm embedded\\8 2018-q4-major\\lib\\gcc\\arm-none-eabi
 576              		.file 6 "c:\\program files (x86)\\gnu tools arm embedded\\8 2018-q4-major\\arm-none-eabi\\include\
 577              		.file 7 "..\\..\\..\\..\\..\\..\\Software\\uC-CPU/cpu_core.h"
 578              		.file 8 "..\\..\\..\\..\\..\\..\\Software\\uCOS-III\\Source/os_type.h"
 579              		.file 9 "..\\..\\..\\..\\..\\..\\Software\\uCOS-III\\Ports\\ARM-Cortex-M0\\Generic\\GNU/os_cpu.h"
 580              		.file 10 "..\\..\\..\\..\\..\\..\\Software\\uCOS-III\\Ports\\ARM-Cortex-M0\\Generic\\GNU\\../../..