ARM GAS  C:\Users\EDULU~1.DES\AppData\Local\Temp\ccOzoQ6e.s 			page 1


   1              		.cpu cortex-m0
   2              		.eabi_attribute 20, 1
   3              		.eabi_attribute 21, 1
   4              		.eabi_attribute 23, 3
   5              		.eabi_attribute 24, 1
   6              		.eabi_attribute 25, 1
   7              		.eabi_attribute 26, 1
   8              		.eabi_attribute 30, 1
   9              		.eabi_attribute 34, 0
  10              		.eabi_attribute 18, 4
  11              		.file	"os_prio.c"
  12              		.text
  13              	.Ltext0:
  14              		.cfi_sections	.debug_frame
  15              		.section	.text.OS_PrioInit,"ax",%progbits
  16              		.align	1
  17              		.global	OS_PrioInit
  18              		.arch armv6s-m
  19              		.syntax unified
  20              		.code	16
  21              		.thumb_func
  22              		.fpu softvfp
  23              		.type	OS_PrioInit, %function
  24              	OS_PrioInit:
  25              	.LFB3:
  26              		.file 1 "..\\..\\..\\..\\..\\..\\Software\\uCOS-III\\Source\\os_prio.c"
   1:..\..\..\..\..\..\Software\uCOS-III\Source/os_prio.c **** /*
   2:..\..\..\..\..\..\Software\uCOS-III\Source/os_prio.c **** ***************************************************************************************************
   3:..\..\..\..\..\..\Software\uCOS-III\Source/os_prio.c **** *                                                      uC/OS-III
   4:..\..\..\..\..\..\Software\uCOS-III\Source/os_prio.c **** *                                                 The Real-Time Kernel
   5:..\..\..\..\..\..\Software\uCOS-III\Source/os_prio.c **** *
   6:..\..\..\..\..\..\Software\uCOS-III\Source/os_prio.c **** *                                  (c) Copyright 2009-2012; Micrium, Inc.; Weston, FL
   7:..\..\..\..\..\..\Software\uCOS-III\Source/os_prio.c **** *                           All rights reserved.  Protected by international copyright laws.
   8:..\..\..\..\..\..\Software\uCOS-III\Source/os_prio.c **** *
   9:..\..\..\..\..\..\Software\uCOS-III\Source/os_prio.c **** *                                                 PRIORITY MANAGEMENT
  10:..\..\..\..\..\..\Software\uCOS-III\Source/os_prio.c **** *
  11:..\..\..\..\..\..\Software\uCOS-III\Source/os_prio.c **** * File    : OS_PRIO.C
  12:..\..\..\..\..\..\Software\uCOS-III\Source/os_prio.c **** * By      : JJL
  13:..\..\..\..\..\..\Software\uCOS-III\Source/os_prio.c **** * Version : V3.03.01
  14:..\..\..\..\..\..\Software\uCOS-III\Source/os_prio.c **** *
  15:..\..\..\..\..\..\Software\uCOS-III\Source/os_prio.c **** * LICENSING TERMS:
  16:..\..\..\..\..\..\Software\uCOS-III\Source/os_prio.c **** * ---------------
  17:..\..\..\..\..\..\Software\uCOS-III\Source/os_prio.c **** *           uC/OS-III is provided in source form for FREE short-term evaluation, for educational us
  18:..\..\..\..\..\..\Software\uCOS-III\Source/os_prio.c **** *           for peaceful research.  If you plan or intend to use uC/OS-III in a commercial applicat
  19:..\..\..\..\..\..\Software\uCOS-III\Source/os_prio.c **** *           product then, you need to contact Micrium to properly license uC/OS-III for its use in 
  20:..\..\..\..\..\..\Software\uCOS-III\Source/os_prio.c **** *           application/product.   We provide ALL the source code for your convenience and to help 
  21:..\..\..\..\..\..\Software\uCOS-III\Source/os_prio.c **** *           experience uC/OS-III.  The fact that the source is provided does NOT mean that you can 
  22:..\..\..\..\..\..\Software\uCOS-III\Source/os_prio.c **** *           it commercially without paying a licensing fee.
  23:..\..\..\..\..\..\Software\uCOS-III\Source/os_prio.c **** *
  24:..\..\..\..\..\..\Software\uCOS-III\Source/os_prio.c **** *           Knowledge of the source code may NOT be used to develop a similar product.
  25:..\..\..\..\..\..\Software\uCOS-III\Source/os_prio.c **** *
  26:..\..\..\..\..\..\Software\uCOS-III\Source/os_prio.c **** *           Please help us continue to provide the embedded community with the finest software avai
  27:..\..\..\..\..\..\Software\uCOS-III\Source/os_prio.c **** *           Your honesty is greatly appreciated.
  28:..\..\..\..\..\..\Software\uCOS-III\Source/os_prio.c **** *
  29:..\..\..\..\..\..\Software\uCOS-III\Source/os_prio.c **** *           You can contact us at www.micrium.com, or by phone at +1 (954) 217-2036.
  30:..\..\..\..\..\..\Software\uCOS-III\Source/os_prio.c **** ***************************************************************************************************
  31:..\..\..\..\..\..\Software\uCOS-III\Source/os_prio.c **** */
ARM GAS  C:\Users\EDULU~1.DES\AppData\Local\Temp\ccOzoQ6e.s 			page 2


  32:..\..\..\..\..\..\Software\uCOS-III\Source/os_prio.c **** 
  33:..\..\..\..\..\..\Software\uCOS-III\Source/os_prio.c **** #define  MICRIUM_SOURCE
  34:..\..\..\..\..\..\Software\uCOS-III\Source/os_prio.c **** #include <os.h>
  35:..\..\..\..\..\..\Software\uCOS-III\Source/os_prio.c **** 
  36:..\..\..\..\..\..\Software\uCOS-III\Source/os_prio.c **** #ifdef VSC_INCLUDE_SOURCE_FILE_NAMES
  37:..\..\..\..\..\..\Software\uCOS-III\Source/os_prio.c **** const  CPU_CHAR  *os_prio__c = "$Id: $";
  38:..\..\..\..\..\..\Software\uCOS-III\Source/os_prio.c **** #endif
  39:..\..\..\..\..\..\Software\uCOS-III\Source/os_prio.c **** 
  40:..\..\..\..\..\..\Software\uCOS-III\Source/os_prio.c **** 
  41:..\..\..\..\..\..\Software\uCOS-III\Source/os_prio.c **** CPU_DATA   OSPrioTbl[OS_PRIO_TBL_SIZE];                     /* Declare the array local to this file
  42:..\..\..\..\..\..\Software\uCOS-III\Source/os_prio.c ****                                                             /* ... optimization.  In other words, t
  43:..\..\..\..\..\..\Software\uCOS-III\Source/os_prio.c ****                                                             /* ... table to be located in fast memo
  44:..\..\..\..\..\..\Software\uCOS-III\Source/os_prio.c **** 
  45:..\..\..\..\..\..\Software\uCOS-III\Source/os_prio.c **** /*
  46:..\..\..\..\..\..\Software\uCOS-III\Source/os_prio.c **** ***************************************************************************************************
  47:..\..\..\..\..\..\Software\uCOS-III\Source/os_prio.c **** *                                               INITIALIZE THE PRIORITY LIST
  48:..\..\..\..\..\..\Software\uCOS-III\Source/os_prio.c **** *
  49:..\..\..\..\..\..\Software\uCOS-III\Source/os_prio.c **** * Description: This function is called by uC/OS-III to initialize the list of ready priorities.
  50:..\..\..\..\..\..\Software\uCOS-III\Source/os_prio.c **** *
  51:..\..\..\..\..\..\Software\uCOS-III\Source/os_prio.c **** * Arguments  : none
  52:..\..\..\..\..\..\Software\uCOS-III\Source/os_prio.c **** *
  53:..\..\..\..\..\..\Software\uCOS-III\Source/os_prio.c **** * Returns    : none
  54:..\..\..\..\..\..\Software\uCOS-III\Source/os_prio.c **** *
  55:..\..\..\..\..\..\Software\uCOS-III\Source/os_prio.c **** * Note       : This function is INTERNAL to uC/OS-III and your application should not call it.
  56:..\..\..\..\..\..\Software\uCOS-III\Source/os_prio.c **** ***************************************************************************************************
  57:..\..\..\..\..\..\Software\uCOS-III\Source/os_prio.c **** */
  58:..\..\..\..\..\..\Software\uCOS-III\Source/os_prio.c **** 
  59:..\..\..\..\..\..\Software\uCOS-III\Source/os_prio.c **** void  OS_PrioInit (void)
  60:..\..\..\..\..\..\Software\uCOS-III\Source/os_prio.c **** {
  27              		.loc 1 60 1 view -0
  28              		.cfi_startproc
  29              		@ args = 0, pretend = 0, frame = 0
  30              		@ frame_needed = 0, uses_anonymous_args = 0
  31              		@ link register save eliminated.
  61:..\..\..\..\..\..\Software\uCOS-III\Source/os_prio.c ****     CPU_DATA  i;
  32              		.loc 1 61 5 view .LVU1
  62:..\..\..\..\..\..\Software\uCOS-III\Source/os_prio.c **** 
  63:..\..\..\..\..\..\Software\uCOS-III\Source/os_prio.c **** 
  64:..\..\..\..\..\..\Software\uCOS-III\Source/os_prio.c ****                                                             /* Clear the bitmap table ... no task i
  65:..\..\..\..\..\..\Software\uCOS-III\Source/os_prio.c ****     for (i = 0u; i < OS_PRIO_TBL_SIZE; i++) {
  33              		.loc 1 65 5 view .LVU2
  34              	.LVL0:
  35              		.loc 1 65 12 is_stmt 0 view .LVU3
  36 0000 0023     		movs	r3, #0
  37              	.LVL1:
  38              	.L2:
  39              		.loc 1 65 5 discriminator 1 view .LVU4
  40 0002 002B     		cmp	r3, #0
  41 0004 00D0     		beq	.L3
  66:..\..\..\..\..\..\Software\uCOS-III\Source/os_prio.c ****          OSPrioTbl[i] = (CPU_DATA)0;
  67:..\..\..\..\..\..\Software\uCOS-III\Source/os_prio.c ****     }
  68:..\..\..\..\..\..\Software\uCOS-III\Source/os_prio.c **** }
  42              		.loc 1 68 1 view .LVU5
  43              		@ sp needed
  44 0006 7047     		bx	lr
  45              	.L3:
  66:..\..\..\..\..\..\Software\uCOS-III\Source/os_prio.c ****          OSPrioTbl[i] = (CPU_DATA)0;
ARM GAS  C:\Users\EDULU~1.DES\AppData\Local\Temp\ccOzoQ6e.s 			page 3


  46              		.loc 1 66 10 is_stmt 1 discriminator 3 view .LVU6
  66:..\..\..\..\..\..\Software\uCOS-III\Source/os_prio.c ****          OSPrioTbl[i] = (CPU_DATA)0;
  47              		.loc 1 66 23 is_stmt 0 discriminator 3 view .LVU7
  48 0008 9900     		lsls	r1, r3, #2
  49 000a 024A     		ldr	r2, .L4
  50 000c 0020     		movs	r0, #0
  51 000e 8850     		str	r0, [r1, r2]
  65:..\..\..\..\..\..\Software\uCOS-III\Source/os_prio.c ****          OSPrioTbl[i] = (CPU_DATA)0;
  52              		.loc 1 65 41 discriminator 3 view .LVU8
  53 0010 0133     		adds	r3, r3, #1
  54              	.LVL2:
  65:..\..\..\..\..\..\Software\uCOS-III\Source/os_prio.c ****          OSPrioTbl[i] = (CPU_DATA)0;
  55              		.loc 1 65 41 discriminator 3 view .LVU9
  56 0012 F6E7     		b	.L2
  57              	.L5:
  58              		.align	2
  59              	.L4:
  60 0014 00000000 		.word	OSPrioTbl
  61              		.cfi_endproc
  62              	.LFE3:
  63              		.size	OS_PrioInit, .-OS_PrioInit
  64              		.section	.text.OS_PrioGetHighest,"ax",%progbits
  65              		.align	1
  66              		.global	OS_PrioGetHighest
  67              		.syntax unified
  68              		.code	16
  69              		.thumb_func
  70              		.fpu softvfp
  71              		.type	OS_PrioGetHighest, %function
  72              	OS_PrioGetHighest:
  73              	.LFB4:
  69:..\..\..\..\..\..\Software\uCOS-III\Source/os_prio.c **** 
  70:..\..\..\..\..\..\Software\uCOS-III\Source/os_prio.c **** /*
  71:..\..\..\..\..\..\Software\uCOS-III\Source/os_prio.c **** ***************************************************************************************************
  72:..\..\..\..\..\..\Software\uCOS-III\Source/os_prio.c **** *                                           GET HIGHEST PRIORITY TASK WAITING
  73:..\..\..\..\..\..\Software\uCOS-III\Source/os_prio.c **** *
  74:..\..\..\..\..\..\Software\uCOS-III\Source/os_prio.c **** * Description: This function is called by other uC/OS-III services to determine the highest priorit
  75:..\..\..\..\..\..\Software\uCOS-III\Source/os_prio.c **** *              waiting on the event.
  76:..\..\..\..\..\..\Software\uCOS-III\Source/os_prio.c **** *
  77:..\..\..\..\..\..\Software\uCOS-III\Source/os_prio.c **** * Arguments  : none
  78:..\..\..\..\..\..\Software\uCOS-III\Source/os_prio.c **** *
  79:..\..\..\..\..\..\Software\uCOS-III\Source/os_prio.c **** * Returns    : The priority of the Highest Priority Task (HPT) waiting for the event
  80:..\..\..\..\..\..\Software\uCOS-III\Source/os_prio.c **** *
  81:..\..\..\..\..\..\Software\uCOS-III\Source/os_prio.c **** * Note(s)    : 1) This function is INTERNAL to uC/OS-III and your application MUST NOT call it.
  82:..\..\..\..\..\..\Software\uCOS-III\Source/os_prio.c **** ***************************************************************************************************
  83:..\..\..\..\..\..\Software\uCOS-III\Source/os_prio.c **** */
  84:..\..\..\..\..\..\Software\uCOS-III\Source/os_prio.c **** 
  85:..\..\..\..\..\..\Software\uCOS-III\Source/os_prio.c **** OS_PRIO  OS_PrioGetHighest (void)
  86:..\..\..\..\..\..\Software\uCOS-III\Source/os_prio.c **** {
  74              		.loc 1 86 1 is_stmt 1 view -0
  75              		.cfi_startproc
  76              		@ args = 0, pretend = 0, frame = 0
  77              		@ frame_needed = 0, uses_anonymous_args = 0
  78 0000 10B5     		push	{r4, lr}
  79              		.cfi_def_cfa_offset 8
  80              		.cfi_offset 4, -8
  81              		.cfi_offset 14, -4
ARM GAS  C:\Users\EDULU~1.DES\AppData\Local\Temp\ccOzoQ6e.s 			page 4


  87:..\..\..\..\..\..\Software\uCOS-III\Source/os_prio.c ****     CPU_DATA  *p_tbl;
  82              		.loc 1 87 5 view .LVU11
  88:..\..\..\..\..\..\Software\uCOS-III\Source/os_prio.c ****     OS_PRIO    prio;
  83              		.loc 1 88 5 view .LVU12
  89:..\..\..\..\..\..\Software\uCOS-III\Source/os_prio.c **** 
  90:..\..\..\..\..\..\Software\uCOS-III\Source/os_prio.c **** 
  91:..\..\..\..\..\..\Software\uCOS-III\Source/os_prio.c ****     prio  = (OS_PRIO)0;
  84              		.loc 1 91 5 view .LVU13
  85              	.LVL3:
  92:..\..\..\..\..\..\Software\uCOS-III\Source/os_prio.c ****     p_tbl = &OSPrioTbl[0];
  86              		.loc 1 92 5 view .LVU14
  93:..\..\..\..\..\..\Software\uCOS-III\Source/os_prio.c ****     while (*p_tbl == (CPU_DATA)0) {                         /* Search the bitmap table for the high
  87              		.loc 1 93 5 view .LVU15
  91:..\..\..\..\..\..\Software\uCOS-III\Source/os_prio.c ****     p_tbl = &OSPrioTbl[0];
  88              		.loc 1 91 11 is_stmt 0 view .LVU16
  89 0002 0024     		movs	r4, #0
  92:..\..\..\..\..\..\Software\uCOS-III\Source/os_prio.c ****     p_tbl = &OSPrioTbl[0];
  90              		.loc 1 92 11 view .LVU17
  91 0004 064B     		ldr	r3, .L10
  92              	.LVL4:
  93              	.L7:
  94              		.loc 1 93 12 view .LVU18
  95 0006 1868     		ldr	r0, [r3]
  96              		.loc 1 93 11 view .LVU19
  97 0008 0028     		cmp	r0, #0
  98 000a 03D1     		bne	.L9
  94:..\..\..\..\..\..\Software\uCOS-III\Source/os_prio.c ****         prio += DEF_INT_CPU_NBR_BITS;                       /* Compute the step of each CPU_DATA en
  99              		.loc 1 94 9 is_stmt 1 view .LVU20
 100              		.loc 1 94 14 is_stmt 0 view .LVU21
 101 000c 2034     		adds	r4, r4, #32
 102              	.LVL5:
 103              		.loc 1 94 14 view .LVU22
 104 000e E4B2     		uxtb	r4, r4
 105              	.LVL6:
  95:..\..\..\..\..\..\Software\uCOS-III\Source/os_prio.c ****         p_tbl++;
 106              		.loc 1 95 9 is_stmt 1 view .LVU23
 107              		.loc 1 95 14 is_stmt 0 view .LVU24
 108 0010 0433     		adds	r3, r3, #4
 109              	.LVL7:
 110              		.loc 1 95 14 view .LVU25
 111 0012 F8E7     		b	.L7
 112              	.L9:
  96:..\..\..\..\..\..\Software\uCOS-III\Source/os_prio.c ****     }
  97:..\..\..\..\..\..\Software\uCOS-III\Source/os_prio.c ****     prio += (OS_PRIO)CPU_CntLeadZeros(*p_tbl);              /* Find the position of the first bit s
 113              		.loc 1 97 5 is_stmt 1 view .LVU26
 114              		.loc 1 97 22 is_stmt 0 view .LVU27
 115 0014 FFF7FEFF 		bl	CPU_CntLeadZeros
 116              	.LVL8:
 117              		.loc 1 97 13 view .LVU28
 118 0018 C0B2     		uxtb	r0, r0
 119              		.loc 1 97 10 view .LVU29
 120 001a 2018     		adds	r0, r4, r0
 121 001c C0B2     		uxtb	r0, r0
 122              	.LVL9:
  98:..\..\..\..\..\..\Software\uCOS-III\Source/os_prio.c ****     return (prio);
 123              		.loc 1 98 5 is_stmt 1 view .LVU30
  99:..\..\..\..\..\..\Software\uCOS-III\Source/os_prio.c **** }
ARM GAS  C:\Users\EDULU~1.DES\AppData\Local\Temp\ccOzoQ6e.s 			page 5


 124              		.loc 1 99 1 is_stmt 0 view .LVU31
 125              		@ sp needed
 126 001e 10BD     		pop	{r4, pc}
 127              	.L11:
 128              		.align	2
 129              	.L10:
 130 0020 00000000 		.word	OSPrioTbl
 131              		.cfi_endproc
 132              	.LFE4:
 133              		.size	OS_PrioGetHighest, .-OS_PrioGetHighest
 134              		.section	.text.OS_PrioInsert,"ax",%progbits
 135              		.align	1
 136              		.global	OS_PrioInsert
 137              		.syntax unified
 138              		.code	16
 139              		.thumb_func
 140              		.fpu softvfp
 141              		.type	OS_PrioInsert, %function
 142              	OS_PrioInsert:
 143              	.LVL10:
 144              	.LFB5:
 100:..\..\..\..\..\..\Software\uCOS-III\Source/os_prio.c **** 
 101:..\..\..\..\..\..\Software\uCOS-III\Source/os_prio.c **** /*
 102:..\..\..\..\..\..\Software\uCOS-III\Source/os_prio.c **** ***************************************************************************************************
 103:..\..\..\..\..\..\Software\uCOS-III\Source/os_prio.c **** *                                                  INSERT PRIORITY
 104:..\..\..\..\..\..\Software\uCOS-III\Source/os_prio.c **** *
 105:..\..\..\..\..\..\Software\uCOS-III\Source/os_prio.c **** * Description: This function is called to insert a priority in the priority table.
 106:..\..\..\..\..\..\Software\uCOS-III\Source/os_prio.c **** *
 107:..\..\..\..\..\..\Software\uCOS-III\Source/os_prio.c **** * Arguments  : prio     is the priority to insert
 108:..\..\..\..\..\..\Software\uCOS-III\Source/os_prio.c **** *
 109:..\..\..\..\..\..\Software\uCOS-III\Source/os_prio.c **** * Returns    : none
 110:..\..\..\..\..\..\Software\uCOS-III\Source/os_prio.c **** *
 111:..\..\..\..\..\..\Software\uCOS-III\Source/os_prio.c **** * Note(s)    : 1) This function is INTERNAL to uC/OS-III and your application MUST NOT call it.
 112:..\..\..\..\..\..\Software\uCOS-III\Source/os_prio.c **** ***************************************************************************************************
 113:..\..\..\..\..\..\Software\uCOS-III\Source/os_prio.c **** */
 114:..\..\..\..\..\..\Software\uCOS-III\Source/os_prio.c **** 
 115:..\..\..\..\..\..\Software\uCOS-III\Source/os_prio.c **** void  OS_PrioInsert (OS_PRIO  prio)
 116:..\..\..\..\..\..\Software\uCOS-III\Source/os_prio.c **** {
 145              		.loc 1 116 1 is_stmt 1 view -0
 146              		.cfi_startproc
 147              		@ args = 0, pretend = 0, frame = 0
 148              		@ frame_needed = 0, uses_anonymous_args = 0
 149              		@ link register save eliminated.
 117:..\..\..\..\..\..\Software\uCOS-III\Source/os_prio.c ****     CPU_DATA  bit;
 150              		.loc 1 117 5 view .LVU33
 118:..\..\..\..\..\..\Software\uCOS-III\Source/os_prio.c ****     CPU_DATA  bit_nbr;
 151              		.loc 1 118 5 view .LVU34
 119:..\..\..\..\..\..\Software\uCOS-III\Source/os_prio.c ****     OS_PRIO   ix;
 152              		.loc 1 119 5 view .LVU35
 120:..\..\..\..\..\..\Software\uCOS-III\Source/os_prio.c **** 
 121:..\..\..\..\..\..\Software\uCOS-III\Source/os_prio.c **** 
 122:..\..\..\..\..\..\Software\uCOS-III\Source/os_prio.c ****     ix             = prio / DEF_INT_CPU_NBR_BITS;
 153              		.loc 1 122 5 view .LVU36
 154              		.loc 1 122 20 is_stmt 0 view .LVU37
 155 0000 4309     		lsrs	r3, r0, #5
 156              	.LVL11:
 123:..\..\..\..\..\..\Software\uCOS-III\Source/os_prio.c ****     bit_nbr        = (CPU_DATA)prio & (DEF_INT_CPU_NBR_BITS - 1u);
ARM GAS  C:\Users\EDULU~1.DES\AppData\Local\Temp\ccOzoQ6e.s 			page 6


 157              		.loc 1 123 5 is_stmt 1 view .LVU38
 158              		.loc 1 123 20 is_stmt 0 view .LVU39
 159 0002 1F22     		movs	r2, #31
 160 0004 1040     		ands	r0, r2
 161              	.LVL12:
 124:..\..\..\..\..\..\Software\uCOS-III\Source/os_prio.c ****     bit            = 1u;
 162              		.loc 1 124 5 is_stmt 1 view .LVU40
 125:..\..\..\..\..\..\Software\uCOS-III\Source/os_prio.c ****     bit          <<= (DEF_INT_CPU_NBR_BITS - 1u) - bit_nbr;
 163              		.loc 1 125 5 view .LVU41
 164              		.loc 1 125 18 is_stmt 0 view .LVU42
 165 0006 8022     		movs	r2, #128
 166 0008 1206     		lsls	r2, r2, #24
 167 000a C240     		lsrs	r2, r2, r0
 168              	.LVL13:
 126:..\..\..\..\..\..\Software\uCOS-III\Source/os_prio.c ****     OSPrioTbl[ix] |= bit;
 169              		.loc 1 126 5 is_stmt 1 view .LVU43
 170              		.loc 1 126 19 is_stmt 0 view .LVU44
 171 000c 0249     		ldr	r1, .L13
 172 000e 9B00     		lsls	r3, r3, #2
 173              	.LVL14:
 174              		.loc 1 126 19 view .LVU45
 175 0010 5858     		ldr	r0, [r3, r1]
 176              	.LVL15:
 177              		.loc 1 126 19 view .LVU46
 178 0012 0243     		orrs	r2, r0
 179              	.LVL16:
 180              		.loc 1 126 19 view .LVU47
 181 0014 5A50     		str	r2, [r3, r1]
 127:..\..\..\..\..\..\Software\uCOS-III\Source/os_prio.c **** }
 182              		.loc 1 127 1 view .LVU48
 183              		@ sp needed
 184 0016 7047     		bx	lr
 185              	.L14:
 186              		.align	2
 187              	.L13:
 188 0018 00000000 		.word	OSPrioTbl
 189              		.cfi_endproc
 190              	.LFE5:
 191              		.size	OS_PrioInsert, .-OS_PrioInsert
 192              		.section	.text.OS_PrioRemove,"ax",%progbits
 193              		.align	1
 194              		.global	OS_PrioRemove
 195              		.syntax unified
 196              		.code	16
 197              		.thumb_func
 198              		.fpu softvfp
 199              		.type	OS_PrioRemove, %function
 200              	OS_PrioRemove:
 201              	.LVL17:
 202              	.LFB6:
 128:..\..\..\..\..\..\Software\uCOS-III\Source/os_prio.c **** 
 129:..\..\..\..\..\..\Software\uCOS-III\Source/os_prio.c **** /*
 130:..\..\..\..\..\..\Software\uCOS-III\Source/os_prio.c **** ***************************************************************************************************
 131:..\..\..\..\..\..\Software\uCOS-III\Source/os_prio.c **** *                                                   REMOVE PRIORITY
 132:..\..\..\..\..\..\Software\uCOS-III\Source/os_prio.c **** *
 133:..\..\..\..\..\..\Software\uCOS-III\Source/os_prio.c **** * Description: This function is called to remove a priority in the priority table.
 134:..\..\..\..\..\..\Software\uCOS-III\Source/os_prio.c **** *
ARM GAS  C:\Users\EDULU~1.DES\AppData\Local\Temp\ccOzoQ6e.s 			page 7


 135:..\..\..\..\..\..\Software\uCOS-III\Source/os_prio.c **** * Arguments  : prio     is the priority to remove
 136:..\..\..\..\..\..\Software\uCOS-III\Source/os_prio.c **** *
 137:..\..\..\..\..\..\Software\uCOS-III\Source/os_prio.c **** * Returns    : none
 138:..\..\..\..\..\..\Software\uCOS-III\Source/os_prio.c **** *
 139:..\..\..\..\..\..\Software\uCOS-III\Source/os_prio.c **** * Note(s)    : 1) This function is INTERNAL to uC/OS-III and your application MUST NOT call it.
 140:..\..\..\..\..\..\Software\uCOS-III\Source/os_prio.c **** ***************************************************************************************************
 141:..\..\..\..\..\..\Software\uCOS-III\Source/os_prio.c **** */
 142:..\..\..\..\..\..\Software\uCOS-III\Source/os_prio.c **** 
 143:..\..\..\..\..\..\Software\uCOS-III\Source/os_prio.c **** void  OS_PrioRemove (OS_PRIO  prio)
 144:..\..\..\..\..\..\Software\uCOS-III\Source/os_prio.c **** {
 203              		.loc 1 144 1 is_stmt 1 view -0
 204              		.cfi_startproc
 205              		@ args = 0, pretend = 0, frame = 0
 206              		@ frame_needed = 0, uses_anonymous_args = 0
 207              		@ link register save eliminated.
 145:..\..\..\..\..\..\Software\uCOS-III\Source/os_prio.c ****     CPU_DATA  bit;
 208              		.loc 1 145 5 view .LVU50
 146:..\..\..\..\..\..\Software\uCOS-III\Source/os_prio.c ****     CPU_DATA  bit_nbr;
 209              		.loc 1 146 5 view .LVU51
 147:..\..\..\..\..\..\Software\uCOS-III\Source/os_prio.c ****     OS_PRIO   ix;
 210              		.loc 1 147 5 view .LVU52
 148:..\..\..\..\..\..\Software\uCOS-III\Source/os_prio.c **** 
 149:..\..\..\..\..\..\Software\uCOS-III\Source/os_prio.c **** 
 150:..\..\..\..\..\..\Software\uCOS-III\Source/os_prio.c ****     ix             = prio / DEF_INT_CPU_NBR_BITS;
 211              		.loc 1 150 5 view .LVU53
 212              		.loc 1 150 20 is_stmt 0 view .LVU54
 213 0000 4309     		lsrs	r3, r0, #5
 214              	.LVL18:
 151:..\..\..\..\..\..\Software\uCOS-III\Source/os_prio.c ****     bit_nbr        = (CPU_DATA)prio & (DEF_INT_CPU_NBR_BITS - 1u);
 215              		.loc 1 151 5 is_stmt 1 view .LVU55
 216              		.loc 1 151 20 is_stmt 0 view .LVU56
 217 0002 1F22     		movs	r2, #31
 218 0004 1040     		ands	r0, r2
 219              	.LVL19:
 152:..\..\..\..\..\..\Software\uCOS-III\Source/os_prio.c ****     bit            = 1u;
 220              		.loc 1 152 5 is_stmt 1 view .LVU57
 153:..\..\..\..\..\..\Software\uCOS-III\Source/os_prio.c ****     bit          <<= (DEF_INT_CPU_NBR_BITS - 1u) - bit_nbr;
 221              		.loc 1 153 5 view .LVU58
 222              		.loc 1 153 18 is_stmt 0 view .LVU59
 223 0006 8022     		movs	r2, #128
 224 0008 1206     		lsls	r2, r2, #24
 225 000a C240     		lsrs	r2, r2, r0
 226              	.LVL20:
 154:..\..\..\..\..\..\Software\uCOS-III\Source/os_prio.c ****     OSPrioTbl[ix] &= ~bit;
 227              		.loc 1 154 5 is_stmt 1 view .LVU60
 228              		.loc 1 154 19 is_stmt 0 view .LVU61
 229 000c 0249     		ldr	r1, .L16
 230 000e 9B00     		lsls	r3, r3, #2
 231              	.LVL21:
 232              		.loc 1 154 19 view .LVU62
 233 0010 5858     		ldr	r0, [r3, r1]
 234              	.LVL22:
 235              		.loc 1 154 19 view .LVU63
 236 0012 9043     		bics	r0, r2
 237 0014 5850     		str	r0, [r3, r1]
 155:..\..\..\..\..\..\Software\uCOS-III\Source/os_prio.c **** }
 238              		.loc 1 155 1 view .LVU64
ARM GAS  C:\Users\EDULU~1.DES\AppData\Local\Temp\ccOzoQ6e.s 			page 8


 239              		@ sp needed
 240 0016 7047     		bx	lr
 241              	.L17:
 242              		.align	2
 243              	.L16:
 244 0018 00000000 		.word	OSPrioTbl
 245              		.cfi_endproc
 246              	.LFE6:
 247              		.size	OS_PrioRemove, .-OS_PrioRemove
 248              		.comm	OSPrioTbl,4,4
 249              		.text
 250              	.Letext0:
 251              		.file 2 "..\\..\\..\\..\\..\\..\\Software\\uC-CPU\\ARM-Cortex-M0\\GNU/cpu.h"
 252              		.file 3 "c:\\program files (x86)\\gnu tools arm embedded\\8 2018-q4-major\\arm-none-eabi\\include\
 253              		.file 4 "c:\\program files (x86)\\gnu tools arm embedded\\8 2018-q4-major\\arm-none-eabi\\include\
 254              		.file 5 "c:\\program files (x86)\\gnu tools arm embedded\\8 2018-q4-major\\lib\\gcc\\arm-none-eabi
 255              		.file 6 "c:\\program files (x86)\\gnu tools arm embedded\\8 2018-q4-major\\arm-none-eabi\\include\
 256              		.file 7 "..\\..\\..\\..\\..\\..\\Software\\uC-CPU/cpu_core.h"
 257              		.file 8 "..\\..\\..\\..\\..\\..\\Software\\uCOS-III\\Source/os_type.h"
 258              		.file 9 "..\\..\\..\\..\\..\\..\\Software\\uCOS-III\\Ports\\ARM-Cortex-M0\\Generic\\GNU/os_cpu.h"
 259              		.file 10 "..\\..\\..\\..\\..\\..\\Software\\uCOS-III\\Source/os.h"