ARM GAS  C:\Users\EDULU~1.DES\AppData\Local\Temp\ccVS5xnG.s 			page 1


   1              		.cpu cortex-m0
   2              		.eabi_attribute 20, 1
   3              		.eabi_attribute 21, 1
   4              		.eabi_attribute 23, 3
   5              		.eabi_attribute 24, 1
   6              		.eabi_attribute 25, 1
   7              		.eabi_attribute 26, 1
   8              		.eabi_attribute 30, 1
   9              		.eabi_attribute 34, 0
  10              		.eabi_attribute 18, 4
  11              		.file	"os_stat.c"
  12              		.text
  13              	.Ltext0:
  14              		.cfi_sections	.debug_frame
  15              		.section	.text.OSStatReset,"ax",%progbits
  16              		.align	1
  17              		.global	OSStatReset
  18              		.arch armv6s-m
  19              		.syntax unified
  20              		.code	16
  21              		.thumb_func
  22              		.fpu softvfp
  23              		.type	OSStatReset, %function
  24              	OSStatReset:
  25              	.LVL0:
  26              	.LFB3:
  27              		.file 1 "..\\..\\..\\..\\..\\..\\Software\\uCOS-III\\Source\\os_stat.c"
   1:..\..\..\..\..\..\Software\uCOS-III\Source/os_stat.c **** /*
   2:..\..\..\..\..\..\Software\uCOS-III\Source/os_stat.c **** ***************************************************************************************************
   3:..\..\..\..\..\..\Software\uCOS-III\Source/os_stat.c **** *                                                      uC/OS-III
   4:..\..\..\..\..\..\Software\uCOS-III\Source/os_stat.c **** *                                                 The Real-Time Kernel
   5:..\..\..\..\..\..\Software\uCOS-III\Source/os_stat.c **** *
   6:..\..\..\..\..\..\Software\uCOS-III\Source/os_stat.c **** *                                  (c) Copyright 2009-2012; Micrium, Inc.; Weston, FL
   7:..\..\..\..\..\..\Software\uCOS-III\Source/os_stat.c **** *                           All rights reserved.  Protected by international copyright laws.
   8:..\..\..\..\..\..\Software\uCOS-III\Source/os_stat.c **** *
   9:..\..\..\..\..\..\Software\uCOS-III\Source/os_stat.c **** *                                                  STATISTICS MODULE
  10:..\..\..\..\..\..\Software\uCOS-III\Source/os_stat.c **** *
  11:..\..\..\..\..\..\Software\uCOS-III\Source/os_stat.c **** * File    : OS_STAT.C
  12:..\..\..\..\..\..\Software\uCOS-III\Source/os_stat.c **** * By      : JJL
  13:..\..\..\..\..\..\Software\uCOS-III\Source/os_stat.c **** * Version : V3.03.01
  14:..\..\..\..\..\..\Software\uCOS-III\Source/os_stat.c **** *
  15:..\..\..\..\..\..\Software\uCOS-III\Source/os_stat.c **** * LICENSING TERMS:
  16:..\..\..\..\..\..\Software\uCOS-III\Source/os_stat.c **** * ---------------
  17:..\..\..\..\..\..\Software\uCOS-III\Source/os_stat.c **** *           uC/OS-III is provided in source form for FREE short-term evaluation, for educational us
  18:..\..\..\..\..\..\Software\uCOS-III\Source/os_stat.c **** *           for peaceful research.  If you plan or intend to use uC/OS-III in a commercial applicat
  19:..\..\..\..\..\..\Software\uCOS-III\Source/os_stat.c **** *           product then, you need to contact Micrium to properly license uC/OS-III for its use in 
  20:..\..\..\..\..\..\Software\uCOS-III\Source/os_stat.c **** *           application/product.   We provide ALL the source code for your convenience and to help 
  21:..\..\..\..\..\..\Software\uCOS-III\Source/os_stat.c **** *           experience uC/OS-III.  The fact that the source is provided does NOT mean that you can 
  22:..\..\..\..\..\..\Software\uCOS-III\Source/os_stat.c **** *           it commercially without paying a licensing fee.
  23:..\..\..\..\..\..\Software\uCOS-III\Source/os_stat.c **** *
  24:..\..\..\..\..\..\Software\uCOS-III\Source/os_stat.c **** *           Knowledge of the source code may NOT be used to develop a similar product.
  25:..\..\..\..\..\..\Software\uCOS-III\Source/os_stat.c **** *
  26:..\..\..\..\..\..\Software\uCOS-III\Source/os_stat.c **** *           Please help us continue to provide the embedded community with the finest software avai
  27:..\..\..\..\..\..\Software\uCOS-III\Source/os_stat.c **** *           Your honesty is greatly appreciated.
  28:..\..\..\..\..\..\Software\uCOS-III\Source/os_stat.c **** *
  29:..\..\..\..\..\..\Software\uCOS-III\Source/os_stat.c **** *           You can contact us at www.micrium.com, or by phone at +1 (954) 217-2036.
  30:..\..\..\..\..\..\Software\uCOS-III\Source/os_stat.c **** ***************************************************************************************************
ARM GAS  C:\Users\EDULU~1.DES\AppData\Local\Temp\ccVS5xnG.s 			page 2


  31:..\..\..\..\..\..\Software\uCOS-III\Source/os_stat.c **** */
  32:..\..\..\..\..\..\Software\uCOS-III\Source/os_stat.c **** 
  33:..\..\..\..\..\..\Software\uCOS-III\Source/os_stat.c **** #define  MICRIUM_SOURCE
  34:..\..\..\..\..\..\Software\uCOS-III\Source/os_stat.c **** #include <os.h>
  35:..\..\..\..\..\..\Software\uCOS-III\Source/os_stat.c **** 
  36:..\..\..\..\..\..\Software\uCOS-III\Source/os_stat.c **** #ifdef VSC_INCLUDE_SOURCE_FILE_NAMES
  37:..\..\..\..\..\..\Software\uCOS-III\Source/os_stat.c **** const  CPU_CHAR  *os_stat__c = "$Id: $";
  38:..\..\..\..\..\..\Software\uCOS-III\Source/os_stat.c **** #endif
  39:..\..\..\..\..\..\Software\uCOS-III\Source/os_stat.c **** 
  40:..\..\..\..\..\..\Software\uCOS-III\Source/os_stat.c **** 
  41:..\..\..\..\..\..\Software\uCOS-III\Source/os_stat.c **** #if OS_CFG_STAT_TASK_EN > 0u
  42:..\..\..\..\..\..\Software\uCOS-III\Source/os_stat.c **** 
  43:..\..\..\..\..\..\Software\uCOS-III\Source/os_stat.c **** /*
  44:..\..\..\..\..\..\Software\uCOS-III\Source/os_stat.c **** ***************************************************************************************************
  45:..\..\..\..\..\..\Software\uCOS-III\Source/os_stat.c **** *                                                   RESET STATISTICS
  46:..\..\..\..\..\..\Software\uCOS-III\Source/os_stat.c **** *
  47:..\..\..\..\..\..\Software\uCOS-III\Source/os_stat.c **** * Description: This function is called by your application to reset the statistics.
  48:..\..\..\..\..\..\Software\uCOS-III\Source/os_stat.c **** *
  49:..\..\..\..\..\..\Software\uCOS-III\Source/os_stat.c **** * Argument(s): p_err      is a pointer to a variable that will contain an error code returned by th
  50:..\..\..\..\..\..\Software\uCOS-III\Source/os_stat.c **** *
  51:..\..\..\..\..\..\Software\uCOS-III\Source/os_stat.c **** *                             OS_ERR_NONE
  52:..\..\..\..\..\..\Software\uCOS-III\Source/os_stat.c **** *
  53:..\..\..\..\..\..\Software\uCOS-III\Source/os_stat.c **** * Returns    : none
  54:..\..\..\..\..\..\Software\uCOS-III\Source/os_stat.c **** ***************************************************************************************************
  55:..\..\..\..\..\..\Software\uCOS-III\Source/os_stat.c **** */
  56:..\..\..\..\..\..\Software\uCOS-III\Source/os_stat.c **** 
  57:..\..\..\..\..\..\Software\uCOS-III\Source/os_stat.c **** void  OSStatReset (OS_ERR  *p_err)
  58:..\..\..\..\..\..\Software\uCOS-III\Source/os_stat.c **** {
  28              		.loc 1 58 1 view -0
  29              		.cfi_startproc
  30              		@ args = 0, pretend = 0, frame = 0
  31              		@ frame_needed = 0, uses_anonymous_args = 0
  32              		.loc 1 58 1 is_stmt 0 view .LVU1
  33 0000 70B5     		push	{r4, r5, r6, lr}
  34              		.cfi_def_cfa_offset 16
  35              		.cfi_offset 4, -16
  36              		.cfi_offset 5, -12
  37              		.cfi_offset 6, -8
  38              		.cfi_offset 14, -4
  39 0002 0600     		movs	r6, r0
  59:..\..\..\..\..\..\Software\uCOS-III\Source/os_stat.c **** #if (OS_CFG_DBG_EN > 0u)
  60:..\..\..\..\..\..\Software\uCOS-III\Source/os_stat.c ****     OS_TCB      *p_tcb;
  40              		.loc 1 60 5 is_stmt 1 view .LVU2
  61:..\..\..\..\..\..\Software\uCOS-III\Source/os_stat.c **** #if (OS_MSG_EN > 0u)
  62:..\..\..\..\..\..\Software\uCOS-III\Source/os_stat.c ****     OS_MSG_Q    *p_msg_q;
  63:..\..\..\..\..\..\Software\uCOS-III\Source/os_stat.c **** #endif
  64:..\..\..\..\..\..\Software\uCOS-III\Source/os_stat.c **** #if (OS_CFG_Q_EN > 0u)
  65:..\..\..\..\..\..\Software\uCOS-III\Source/os_stat.c ****     OS_Q        *p_q;
  66:..\..\..\..\..\..\Software\uCOS-III\Source/os_stat.c **** #endif
  67:..\..\..\..\..\..\Software\uCOS-III\Source/os_stat.c **** #endif
  68:..\..\..\..\..\..\Software\uCOS-III\Source/os_stat.c ****     CPU_SR_ALLOC();
  41              		.loc 1 68 5 view .LVU3
  42              	.LVL1:
  69:..\..\..\..\..\..\Software\uCOS-III\Source/os_stat.c **** 
  70:..\..\..\..\..\..\Software\uCOS-III\Source/os_stat.c **** 
  71:..\..\..\..\..\..\Software\uCOS-III\Source/os_stat.c **** 
  72:..\..\..\..\..\..\Software\uCOS-III\Source/os_stat.c **** #ifdef OS_SAFETY_CRITICAL
ARM GAS  C:\Users\EDULU~1.DES\AppData\Local\Temp\ccVS5xnG.s 			page 3


  73:..\..\..\..\..\..\Software\uCOS-III\Source/os_stat.c ****     if (p_err == (OS_ERR *)0) {
  74:..\..\..\..\..\..\Software\uCOS-III\Source/os_stat.c ****         OS_SAFETY_CRITICAL_EXCEPTION();
  75:..\..\..\..\..\..\Software\uCOS-III\Source/os_stat.c ****         return;
  76:..\..\..\..\..\..\Software\uCOS-III\Source/os_stat.c ****     }
  77:..\..\..\..\..\..\Software\uCOS-III\Source/os_stat.c **** #endif
  78:..\..\..\..\..\..\Software\uCOS-III\Source/os_stat.c **** 
  79:..\..\..\..\..\..\Software\uCOS-III\Source/os_stat.c ****     CPU_CRITICAL_ENTER();
  43              		.loc 1 79 5 view .LVU4
  44              		.loc 1 79 5 view .LVU5
  45              		.loc 1 79 5 view .LVU6
  46 0004 FFF7FEFF 		bl	CPU_SR_Save
  47              	.LVL2:
  48              		.loc 1 79 5 is_stmt 0 view .LVU7
  49 0008 0400     		movs	r4, r0
  50              	.LVL3:
  51              		.loc 1 79 5 is_stmt 1 view .LVU8
  52 000a FFF7FEFF 		bl	CPU_IntDisMeasStart
  53              	.LVL4:
  80:..\..\..\..\..\..\Software\uCOS-III\Source/os_stat.c **** #if OS_CFG_ISR_POST_DEFERRED_EN > 0u
  81:..\..\..\..\..\..\Software\uCOS-III\Source/os_stat.c ****     OSIntQTaskTimeMax     = (CPU_TS    )0;                  /* Reset the task execution times      
  82:..\..\..\..\..\..\Software\uCOS-III\Source/os_stat.c ****     OSIntQNbrEntriesMax   = (OS_OBJ_QTY)0;                  /* Reset the queue maximum number of en
  83:..\..\..\..\..\..\Software\uCOS-III\Source/os_stat.c **** #endif
  84:..\..\..\..\..\..\Software\uCOS-III\Source/os_stat.c **** 
  85:..\..\..\..\..\..\Software\uCOS-III\Source/os_stat.c **** #if OS_CFG_STAT_TASK_EN > 0u
  86:..\..\..\..\..\..\Software\uCOS-III\Source/os_stat.c ****     OSStatTaskCPUUsageMax = 0u;
  54              		.loc 1 86 5 view .LVU9
  55              		.loc 1 86 27 is_stmt 0 view .LVU10
  56 000e 0023     		movs	r3, #0
  57 0010 184A     		ldr	r2, .L5
  58 0012 1380     		strh	r3, [r2]
  87:..\..\..\..\..\..\Software\uCOS-III\Source/os_stat.c ****     OSStatTaskTimeMax     = (CPU_TS)0;
  59              		.loc 1 87 5 is_stmt 1 view .LVU11
  60              		.loc 1 87 27 is_stmt 0 view .LVU12
  61 0014 184A     		ldr	r2, .L5+4
  62 0016 1360     		str	r3, [r2]
  88:..\..\..\..\..\..\Software\uCOS-III\Source/os_stat.c **** #endif
  89:..\..\..\..\..\..\Software\uCOS-III\Source/os_stat.c **** 
  90:..\..\..\..\..\..\Software\uCOS-III\Source/os_stat.c ****     OSTickTaskTimeMax     = (CPU_TS)0;
  63              		.loc 1 90 5 is_stmt 1 view .LVU13
  64              		.loc 1 90 27 is_stmt 0 view .LVU14
  65 0018 184A     		ldr	r2, .L5+8
  66 001a 1360     		str	r3, [r2]
  91:..\..\..\..\..\..\Software\uCOS-III\Source/os_stat.c **** 
  92:..\..\..\..\..\..\Software\uCOS-III\Source/os_stat.c **** #if OS_CFG_TMR_EN > 0u
  93:..\..\..\..\..\..\Software\uCOS-III\Source/os_stat.c ****     OSTmrTaskTimeMax      = (CPU_TS)0;
  67              		.loc 1 93 5 is_stmt 1 view .LVU15
  68              		.loc 1 93 27 is_stmt 0 view .LVU16
  69 001c 184A     		ldr	r2, .L5+12
  70 001e 1360     		str	r3, [r2]
  94:..\..\..\..\..\..\Software\uCOS-III\Source/os_stat.c **** #endif
  95:..\..\..\..\..\..\Software\uCOS-III\Source/os_stat.c **** 
  96:..\..\..\..\..\..\Software\uCOS-III\Source/os_stat.c **** #ifdef CPU_CFG_INT_DIS_MEAS_EN
  97:..\..\..\..\..\..\Software\uCOS-III\Source/os_stat.c ****     OSIntDisTimeMax       = (CPU_TS)0;                      /* Reset the maximum interrupt disable 
  71              		.loc 1 97 5 is_stmt 1 view .LVU17
  72              		.loc 1 97 27 is_stmt 0 view .LVU18
  73 0020 184A     		ldr	r2, .L5+16
  74 0022 1360     		str	r3, [r2]
ARM GAS  C:\Users\EDULU~1.DES\AppData\Local\Temp\ccVS5xnG.s 			page 4


  98:..\..\..\..\..\..\Software\uCOS-III\Source/os_stat.c **** #endif
  99:..\..\..\..\..\..\Software\uCOS-III\Source/os_stat.c **** 
 100:..\..\..\..\..\..\Software\uCOS-III\Source/os_stat.c **** #if OS_CFG_SCHED_LOCK_TIME_MEAS_EN > 0u
 101:..\..\..\..\..\..\Software\uCOS-III\Source/os_stat.c ****     OSSchedLockTimeMax    = (CPU_TS)0;                      /* Reset the maximum scheduler lock tim
 102:..\..\..\..\..\..\Software\uCOS-III\Source/os_stat.c **** #endif
 103:..\..\..\..\..\..\Software\uCOS-III\Source/os_stat.c **** 
 104:..\..\..\..\..\..\Software\uCOS-III\Source/os_stat.c **** #if OS_MSG_EN > 0u
 105:..\..\..\..\..\..\Software\uCOS-III\Source/os_stat.c ****     OSMsgPool.NbrUsedMax  = 0u;
 106:..\..\..\..\..\..\Software\uCOS-III\Source/os_stat.c **** #endif
 107:..\..\..\..\..\..\Software\uCOS-III\Source/os_stat.c ****     CPU_CRITICAL_EXIT();
  75              		.loc 1 107 5 is_stmt 1 view .LVU19
  76              		.loc 1 107 5 view .LVU20
  77 0024 FFF7FEFF 		bl	CPU_IntDisMeasStop
  78              	.LVL5:
  79              		.loc 1 107 5 view .LVU21
  80              		.loc 1 107 5 view .LVU22
  81 0028 2000     		movs	r0, r4
  82 002a FFF7FEFF 		bl	CPU_SR_Restore
  83              	.LVL6:
 108:..\..\..\..\..\..\Software\uCOS-III\Source/os_stat.c **** 
 109:..\..\..\..\..\..\Software\uCOS-III\Source/os_stat.c **** #if OS_CFG_DBG_EN > 0u
 110:..\..\..\..\..\..\Software\uCOS-III\Source/os_stat.c ****     CPU_CRITICAL_ENTER();
  84              		.loc 1 110 5 view .LVU23
  85              		.loc 1 110 5 view .LVU24
  86              		.loc 1 110 5 view .LVU25
  87 002e FFF7FEFF 		bl	CPU_SR_Save
  88              	.LVL7:
  89 0032 0500     		movs	r5, r0
  90              	.LVL8:
  91              		.loc 1 110 5 view .LVU26
  92 0034 FFF7FEFF 		bl	CPU_IntDisMeasStart
  93              	.LVL9:
 111:..\..\..\..\..\..\Software\uCOS-III\Source/os_stat.c ****     p_tcb = OSTaskDbgListPtr;
  94              		.loc 1 111 5 view .LVU27
  95              		.loc 1 111 11 is_stmt 0 view .LVU28
  96 0038 134B     		ldr	r3, .L5+20
  97 003a 1C68     		ldr	r4, [r3]
  98              	.LVL10:
 112:..\..\..\..\..\..\Software\uCOS-III\Source/os_stat.c ****     CPU_CRITICAL_EXIT();
  99              		.loc 1 112 5 is_stmt 1 view .LVU29
 100              		.loc 1 112 5 view .LVU30
 101 003c FFF7FEFF 		bl	CPU_IntDisMeasStop
 102              	.LVL11:
 103              		.loc 1 112 5 view .LVU31
 104              		.loc 1 112 5 view .LVU32
 105 0040 2800     		movs	r0, r5
 106 0042 FFF7FEFF 		bl	CPU_SR_Restore
 107              	.LVL12:
 113:..\..\..\..\..\..\Software\uCOS-III\Source/os_stat.c ****     while (p_tcb != (OS_TCB *)0) {                          /* Reset per-Task statistics           
 108              		.loc 1 113 5 view .LVU33
 109              	.L2:
 110              		.loc 1 113 11 is_stmt 0 view .LVU34
 111 0046 002C     		cmp	r4, #0
 112 0048 0DD0     		beq	.L4
 114:..\..\..\..\..\..\Software\uCOS-III\Source/os_stat.c ****         CPU_CRITICAL_ENTER();
 113              		.loc 1 114 9 is_stmt 1 view .LVU35
 114              		.loc 1 114 9 view .LVU36
ARM GAS  C:\Users\EDULU~1.DES\AppData\Local\Temp\ccVS5xnG.s 			page 5


 115              		.loc 1 114 9 view .LVU37
 116 004a FFF7FEFF 		bl	CPU_SR_Save
 117              	.LVL13:
 118 004e 0500     		movs	r5, r0
 119              	.LVL14:
 120              		.loc 1 114 9 view .LVU38
 121 0050 FFF7FEFF 		bl	CPU_IntDisMeasStart
 122              	.LVL15:
 115:..\..\..\..\..\..\Software\uCOS-III\Source/os_stat.c **** 
 116:..\..\..\..\..\..\Software\uCOS-III\Source/os_stat.c **** #ifdef CPU_CFG_INT_DIS_MEAS_EN
 117:..\..\..\..\..\..\Software\uCOS-III\Source/os_stat.c ****         p_tcb->IntDisTimeMax    = (CPU_TS      )0;
 123              		.loc 1 117 9 view .LVU39
 124              		.loc 1 117 33 is_stmt 0 view .LVU40
 125 0054 0023     		movs	r3, #0
 126 0056 E366     		str	r3, [r4, #108]
 118:..\..\..\..\..\..\Software\uCOS-III\Source/os_stat.c **** #endif
 119:..\..\..\..\..\..\Software\uCOS-III\Source/os_stat.c **** 
 120:..\..\..\..\..\..\Software\uCOS-III\Source/os_stat.c **** #if OS_CFG_SCHED_LOCK_TIME_MEAS_EN > 0u
 121:..\..\..\..\..\..\Software\uCOS-III\Source/os_stat.c ****         p_tcb->SchedLockTimeMax = (CPU_TS      )0;
 122:..\..\..\..\..\..\Software\uCOS-III\Source/os_stat.c **** #endif
 123:..\..\..\..\..\..\Software\uCOS-III\Source/os_stat.c **** 
 124:..\..\..\..\..\..\Software\uCOS-III\Source/os_stat.c **** #if OS_CFG_TASK_PROFILE_EN > 0u
 125:..\..\..\..\..\..\Software\uCOS-III\Source/os_stat.c **** #if OS_CFG_TASK_Q_EN > 0u
 126:..\..\..\..\..\..\Software\uCOS-III\Source/os_stat.c ****         p_tcb->MsgQPendTimeMax  = (CPU_TS      )0;
 127:..\..\..\..\..\..\Software\uCOS-III\Source/os_stat.c **** #endif
 128:..\..\..\..\..\..\Software\uCOS-III\Source/os_stat.c ****         p_tcb->SemPendTimeMax   = (CPU_TS      )0;
 129:..\..\..\..\..\..\Software\uCOS-III\Source/os_stat.c ****         p_tcb->CtxSwCtr         = (OS_CTR      )0;
 130:..\..\..\..\..\..\Software\uCOS-III\Source/os_stat.c ****         p_tcb->CPUUsage         = (OS_CPU_USAGE)0;
 131:..\..\..\..\..\..\Software\uCOS-III\Source/os_stat.c ****         p_tcb->CPUUsageMax      = (OS_CPU_USAGE)0;
 132:..\..\..\..\..\..\Software\uCOS-III\Source/os_stat.c ****         p_tcb->CyclesTotal      = (OS_CYCLES   )0;
 133:..\..\..\..\..\..\Software\uCOS-III\Source/os_stat.c ****         p_tcb->CyclesTotalPrev  = (OS_CYCLES   )0;
 134:..\..\..\..\..\..\Software\uCOS-III\Source/os_stat.c ****         p_tcb->CyclesStart      =  OS_TS_GET();
 135:..\..\..\..\..\..\Software\uCOS-III\Source/os_stat.c **** #endif
 136:..\..\..\..\..\..\Software\uCOS-III\Source/os_stat.c **** 
 137:..\..\..\..\..\..\Software\uCOS-III\Source/os_stat.c **** #if OS_CFG_TASK_Q_EN > 0u
 138:..\..\..\..\..\..\Software\uCOS-III\Source/os_stat.c ****         p_msg_q                 = &p_tcb->MsgQ;
 139:..\..\..\..\..\..\Software\uCOS-III\Source/os_stat.c ****         p_msg_q->NbrEntriesMax  = (OS_MSG_QTY  )0;
 140:..\..\..\..\..\..\Software\uCOS-III\Source/os_stat.c **** #endif
 141:..\..\..\..\..\..\Software\uCOS-III\Source/os_stat.c ****         p_tcb                   = p_tcb->DbgNextPtr;
 127              		.loc 1 141 9 is_stmt 1 view .LVU41
 128              		.loc 1 141 33 is_stmt 0 view .LVU42
 129 0058 646F     		ldr	r4, [r4, #116]
 130              	.LVL16:
 142:..\..\..\..\..\..\Software\uCOS-III\Source/os_stat.c ****         CPU_CRITICAL_EXIT();
 131              		.loc 1 142 9 is_stmt 1 view .LVU43
 132              		.loc 1 142 9 view .LVU44
 133 005a FFF7FEFF 		bl	CPU_IntDisMeasStop
 134              	.LVL17:
 135              		.loc 1 142 9 view .LVU45
 136              		.loc 1 142 9 view .LVU46
 137 005e 2800     		movs	r0, r5
 138 0060 FFF7FEFF 		bl	CPU_SR_Restore
 139              	.LVL18:
 140 0064 EFE7     		b	.L2
 141              	.L4:
 143:..\..\..\..\..\..\Software\uCOS-III\Source/os_stat.c ****     }
 144:..\..\..\..\..\..\Software\uCOS-III\Source/os_stat.c **** #endif
ARM GAS  C:\Users\EDULU~1.DES\AppData\Local\Temp\ccVS5xnG.s 			page 6


 145:..\..\..\..\..\..\Software\uCOS-III\Source/os_stat.c **** 
 146:..\..\..\..\..\..\Software\uCOS-III\Source/os_stat.c **** #if (OS_CFG_Q_EN > 0u) && (OS_CFG_DBG_EN > 0u)
 147:..\..\..\..\..\..\Software\uCOS-III\Source/os_stat.c ****     CPU_CRITICAL_ENTER();
 148:..\..\..\..\..\..\Software\uCOS-III\Source/os_stat.c ****     p_q = OSQDbgListPtr;
 149:..\..\..\..\..\..\Software\uCOS-III\Source/os_stat.c ****     CPU_CRITICAL_EXIT();
 150:..\..\..\..\..\..\Software\uCOS-III\Source/os_stat.c ****     while (p_q != (OS_Q *)0) {                              /* Reset message queues statistics     
 151:..\..\..\..\..\..\Software\uCOS-III\Source/os_stat.c ****         CPU_CRITICAL_ENTER();
 152:..\..\..\..\..\..\Software\uCOS-III\Source/os_stat.c ****         p_msg_q                = &p_q->MsgQ;
 153:..\..\..\..\..\..\Software\uCOS-III\Source/os_stat.c ****         p_msg_q->NbrEntriesMax = (OS_MSG_QTY)0;
 154:..\..\..\..\..\..\Software\uCOS-III\Source/os_stat.c ****         p_q                    = p_q->DbgNextPtr;
 155:..\..\..\..\..\..\Software\uCOS-III\Source/os_stat.c ****         CPU_CRITICAL_EXIT();
 156:..\..\..\..\..\..\Software\uCOS-III\Source/os_stat.c ****     }
 157:..\..\..\..\..\..\Software\uCOS-III\Source/os_stat.c **** #endif
 158:..\..\..\..\..\..\Software\uCOS-III\Source/os_stat.c **** 
 159:..\..\..\..\..\..\Software\uCOS-III\Source/os_stat.c ****     OS_TickListResetPeak();                                 /* Reset tick wheel statistics         
 142              		.loc 1 159 5 view .LVU47
 143 0066 FFF7FEFF 		bl	OS_TickListResetPeak
 144              	.LVL19:
 160:..\..\..\..\..\..\Software\uCOS-III\Source/os_stat.c **** 
 161:..\..\..\..\..\..\Software\uCOS-III\Source/os_stat.c **** #if OS_CFG_TMR_EN > 0u
 162:..\..\..\..\..\..\Software\uCOS-III\Source/os_stat.c ****     OS_TmrResetPeak();
 145              		.loc 1 162 5 view .LVU48
 146 006a FFF7FEFF 		bl	OS_TmrResetPeak
 147              	.LVL20:
 163:..\..\..\..\..\..\Software\uCOS-III\Source/os_stat.c **** #endif
 164:..\..\..\..\..\..\Software\uCOS-III\Source/os_stat.c **** 
 165:..\..\..\..\..\..\Software\uCOS-III\Source/os_stat.c **** 
 166:..\..\..\..\..\..\Software\uCOS-III\Source/os_stat.c ****    *p_err = OS_ERR_NONE;
 148              		.loc 1 166 4 view .LVU49
 149              		.loc 1 166 11 is_stmt 0 view .LVU50
 150 006e 0023     		movs	r3, #0
 151 0070 3380     		strh	r3, [r6]
 167:..\..\..\..\..\..\Software\uCOS-III\Source/os_stat.c **** }
 152              		.loc 1 167 1 view .LVU51
 153              		@ sp needed
 154              	.LVL21:
 155              	.LVL22:
 156              	.LVL23:
 157              		.loc 1 167 1 view .LVU52
 158 0072 70BD     		pop	{r4, r5, r6, pc}
 159              	.L6:
 160              		.align	2
 161              	.L5:
 162 0074 00000000 		.word	OSStatTaskCPUUsageMax
 163 0078 00000000 		.word	OSStatTaskTimeMax
 164 007c 00000000 		.word	OSTickTaskTimeMax
 165 0080 00000000 		.word	OSTmrTaskTimeMax
 166 0084 00000000 		.word	OSIntDisTimeMax
 167 0088 00000000 		.word	OSTaskDbgListPtr
 168              		.cfi_endproc
 169              	.LFE3:
 170              		.size	OSStatReset, .-OSStatReset
 171              		.global	__aeabi_uidiv
 172              		.section	.text.OS_StatTask,"ax",%progbits
 173              		.align	1
 174              		.global	OS_StatTask
 175              		.syntax unified
ARM GAS  C:\Users\EDULU~1.DES\AppData\Local\Temp\ccVS5xnG.s 			page 7


 176              		.code	16
 177              		.thumb_func
 178              		.fpu softvfp
 179              		.type	OS_StatTask, %function
 180              	OS_StatTask:
 181              	.LVL24:
 182              	.LFB5:
 168:..\..\..\..\..\..\Software\uCOS-III\Source/os_stat.c **** 
 169:..\..\..\..\..\..\Software\uCOS-III\Source/os_stat.c **** /*$PAGE*/
 170:..\..\..\..\..\..\Software\uCOS-III\Source/os_stat.c **** /*
 171:..\..\..\..\..\..\Software\uCOS-III\Source/os_stat.c **** ***************************************************************************************************
 172:..\..\..\..\..\..\Software\uCOS-III\Source/os_stat.c **** *                                                DETERMINE THE CPU CAPACITY
 173:..\..\..\..\..\..\Software\uCOS-III\Source/os_stat.c **** *
 174:..\..\..\..\..\..\Software\uCOS-III\Source/os_stat.c **** * Description: This function is called by your application to establish CPU usage by first determin
 175:..\..\..\..\..\..\Software\uCOS-III\Source/os_stat.c **** *              counter would count to in 1/10 second if no other tasks were to execute during that 
 176:..\..\..\..\..\..\Software\uCOS-III\Source/os_stat.c **** *              then determined by a low priority task which keeps track of this 32-bit counter ever
 177:..\..\..\..\..\..\Software\uCOS-III\Source/os_stat.c **** *              time, with other tasks running.  CPU usage is determined by:
 178:..\..\..\..\..\..\Software\uCOS-III\Source/os_stat.c **** *
 179:..\..\..\..\..\..\Software\uCOS-III\Source/os_stat.c **** *                                             OS_Stat_IdleCtr
 180:..\..\..\..\..\..\Software\uCOS-III\Source/os_stat.c **** *                 CPU Usage (%) = 100 * (1 - ------------------)
 181:..\..\..\..\..\..\Software\uCOS-III\Source/os_stat.c **** *                                            OS_Stat_IdleCtrMax
 182:..\..\..\..\..\..\Software\uCOS-III\Source/os_stat.c **** *
 183:..\..\..\..\..\..\Software\uCOS-III\Source/os_stat.c **** * Argument(s): p_err      is a pointer to a variable that will contain an error code returned by th
 184:..\..\..\..\..\..\Software\uCOS-III\Source/os_stat.c **** *
 185:..\..\..\..\..\..\Software\uCOS-III\Source/os_stat.c **** *                             OS_ERR_NONE
 186:..\..\..\..\..\..\Software\uCOS-III\Source/os_stat.c **** *
 187:..\..\..\..\..\..\Software\uCOS-III\Source/os_stat.c **** * Returns    : none
 188:..\..\..\..\..\..\Software\uCOS-III\Source/os_stat.c **** ***************************************************************************************************
 189:..\..\..\..\..\..\Software\uCOS-III\Source/os_stat.c **** */
 190:..\..\..\..\..\..\Software\uCOS-III\Source/os_stat.c **** 
 191:..\..\..\..\..\..\Software\uCOS-III\Source/os_stat.c **** void  OSStatTaskCPUUsageInit (OS_ERR  *p_err)
 192:..\..\..\..\..\..\Software\uCOS-III\Source/os_stat.c **** {
 193:..\..\..\..\..\..\Software\uCOS-III\Source/os_stat.c ****     OS_ERR   err;
 194:..\..\..\..\..\..\Software\uCOS-III\Source/os_stat.c ****     OS_TICK  dly;
 195:..\..\..\..\..\..\Software\uCOS-III\Source/os_stat.c ****     CPU_SR_ALLOC();
 196:..\..\..\..\..\..\Software\uCOS-III\Source/os_stat.c **** 
 197:..\..\..\..\..\..\Software\uCOS-III\Source/os_stat.c **** 
 198:..\..\..\..\..\..\Software\uCOS-III\Source/os_stat.c **** 
 199:..\..\..\..\..\..\Software\uCOS-III\Source/os_stat.c **** #ifdef OS_SAFETY_CRITICAL
 200:..\..\..\..\..\..\Software\uCOS-III\Source/os_stat.c ****     if (p_err == (OS_ERR *)0) {
 201:..\..\..\..\..\..\Software\uCOS-III\Source/os_stat.c ****         OS_SAFETY_CRITICAL_EXCEPTION();
 202:..\..\..\..\..\..\Software\uCOS-III\Source/os_stat.c ****         return;
 203:..\..\..\..\..\..\Software\uCOS-III\Source/os_stat.c ****     }
 204:..\..\..\..\..\..\Software\uCOS-III\Source/os_stat.c **** #endif
 205:..\..\..\..\..\..\Software\uCOS-III\Source/os_stat.c **** 
 206:..\..\..\..\..\..\Software\uCOS-III\Source/os_stat.c **** #if (OS_CFG_TMR_EN > 0u)
 207:..\..\..\..\..\..\Software\uCOS-III\Source/os_stat.c ****     OSTaskSuspend(&OSTmrTaskTCB, &err);
 208:..\..\..\..\..\..\Software\uCOS-III\Source/os_stat.c ****     if (err != OS_ERR_NONE) {
 209:..\..\..\..\..\..\Software\uCOS-III\Source/os_stat.c ****        *p_err = err;
 210:..\..\..\..\..\..\Software\uCOS-III\Source/os_stat.c ****         return;
 211:..\..\..\..\..\..\Software\uCOS-III\Source/os_stat.c ****     }
 212:..\..\..\..\..\..\Software\uCOS-III\Source/os_stat.c **** #endif
 213:..\..\..\..\..\..\Software\uCOS-III\Source/os_stat.c **** 
 214:..\..\..\..\..\..\Software\uCOS-III\Source/os_stat.c ****     OSTimeDly((OS_TICK )2,                                  /* Synchronize with clock tick         
 215:..\..\..\..\..\..\Software\uCOS-III\Source/os_stat.c ****               (OS_OPT  )OS_OPT_TIME_DLY,
 216:..\..\..\..\..\..\Software\uCOS-III\Source/os_stat.c ****               (OS_ERR *)&err);
 217:..\..\..\..\..\..\Software\uCOS-III\Source/os_stat.c ****     if (err != OS_ERR_NONE) {
ARM GAS  C:\Users\EDULU~1.DES\AppData\Local\Temp\ccVS5xnG.s 			page 8


 218:..\..\..\..\..\..\Software\uCOS-III\Source/os_stat.c ****        *p_err = err;
 219:..\..\..\..\..\..\Software\uCOS-III\Source/os_stat.c ****         return;
 220:..\..\..\..\..\..\Software\uCOS-III\Source/os_stat.c ****     }
 221:..\..\..\..\..\..\Software\uCOS-III\Source/os_stat.c ****     CPU_CRITICAL_ENTER();
 222:..\..\..\..\..\..\Software\uCOS-III\Source/os_stat.c ****     OSStatTaskCtr = (OS_TICK)0;                             /* Clear idle counter                  
 223:..\..\..\..\..\..\Software\uCOS-III\Source/os_stat.c ****     CPU_CRITICAL_EXIT();
 224:..\..\..\..\..\..\Software\uCOS-III\Source/os_stat.c **** 
 225:..\..\..\..\..\..\Software\uCOS-III\Source/os_stat.c ****     dly = (OS_TICK)0;
 226:..\..\..\..\..\..\Software\uCOS-III\Source/os_stat.c ****     if (OSCfg_TickRate_Hz > OSCfg_StatTaskRate_Hz) {
 227:..\..\..\..\..\..\Software\uCOS-III\Source/os_stat.c ****         dly = (OS_TICK)(OSCfg_TickRate_Hz / OSCfg_StatTaskRate_Hz);
 228:..\..\..\..\..\..\Software\uCOS-III\Source/os_stat.c ****     }
 229:..\..\..\..\..\..\Software\uCOS-III\Source/os_stat.c ****     if (dly == (OS_TICK)0) {
 230:..\..\..\..\..\..\Software\uCOS-III\Source/os_stat.c ****         dly =  (OS_TICK)(OSCfg_TickRate_Hz / (OS_RATE_HZ)10);
 231:..\..\..\..\..\..\Software\uCOS-III\Source/os_stat.c ****     }
 232:..\..\..\..\..\..\Software\uCOS-III\Source/os_stat.c **** 
 233:..\..\..\..\..\..\Software\uCOS-III\Source/os_stat.c ****     OSTimeDly(dly,                                          /* Determine MAX. idle counter value   
 234:..\..\..\..\..\..\Software\uCOS-III\Source/os_stat.c ****               OS_OPT_TIME_DLY,
 235:..\..\..\..\..\..\Software\uCOS-III\Source/os_stat.c ****               &err);
 236:..\..\..\..\..\..\Software\uCOS-III\Source/os_stat.c **** 
 237:..\..\..\..\..\..\Software\uCOS-III\Source/os_stat.c **** #if (OS_CFG_TMR_EN > 0u)
 238:..\..\..\..\..\..\Software\uCOS-III\Source/os_stat.c ****     OSTaskResume(&OSTmrTaskTCB, &err);
 239:..\..\..\..\..\..\Software\uCOS-III\Source/os_stat.c ****     if (err != OS_ERR_NONE) {
 240:..\..\..\..\..\..\Software\uCOS-III\Source/os_stat.c ****        *p_err = err;
 241:..\..\..\..\..\..\Software\uCOS-III\Source/os_stat.c ****         return;
 242:..\..\..\..\..\..\Software\uCOS-III\Source/os_stat.c ****     }
 243:..\..\..\..\..\..\Software\uCOS-III\Source/os_stat.c **** #endif
 244:..\..\..\..\..\..\Software\uCOS-III\Source/os_stat.c **** 
 245:..\..\..\..\..\..\Software\uCOS-III\Source/os_stat.c ****     CPU_CRITICAL_ENTER();
 246:..\..\..\..\..\..\Software\uCOS-III\Source/os_stat.c ****     OSStatTaskTimeMax = (CPU_TS)0;
 247:..\..\..\..\..\..\Software\uCOS-III\Source/os_stat.c **** 
 248:..\..\..\..\..\..\Software\uCOS-III\Source/os_stat.c ****     OSStatTaskCtrMax  = OSStatTaskCtr;                      /* Store maximum idle counter count    
 249:..\..\..\..\..\..\Software\uCOS-III\Source/os_stat.c ****     OSStatTaskRdy     = OS_STATE_RDY;
 250:..\..\..\..\..\..\Software\uCOS-III\Source/os_stat.c ****     CPU_CRITICAL_EXIT();
 251:..\..\..\..\..\..\Software\uCOS-III\Source/os_stat.c ****    *p_err             = OS_ERR_NONE;
 252:..\..\..\..\..\..\Software\uCOS-III\Source/os_stat.c **** }
 253:..\..\..\..\..\..\Software\uCOS-III\Source/os_stat.c **** 
 254:..\..\..\..\..\..\Software\uCOS-III\Source/os_stat.c **** /*$PAGE*/
 255:..\..\..\..\..\..\Software\uCOS-III\Source/os_stat.c **** /*
 256:..\..\..\..\..\..\Software\uCOS-III\Source/os_stat.c **** ***************************************************************************************************
 257:..\..\..\..\..\..\Software\uCOS-III\Source/os_stat.c **** *                                                    STATISTICS TASK
 258:..\..\..\..\..\..\Software\uCOS-III\Source/os_stat.c **** *
 259:..\..\..\..\..\..\Software\uCOS-III\Source/os_stat.c **** * Description: This task is internal to uC/OS-III and is used to compute some statistics about the 
 260:..\..\..\..\..\..\Software\uCOS-III\Source/os_stat.c **** *              environment.  Specifically, OS_StatTask() computes the CPU usage.  CPU usage is dete
 261:..\..\..\..\..\..\Software\uCOS-III\Source/os_stat.c **** *
 262:..\..\..\..\..\..\Software\uCOS-III\Source/os_stat.c **** *                                                   OSStatTaskCtr
 263:..\..\..\..\..\..\Software\uCOS-III\Source/os_stat.c **** *                 OSStatTaskCPUUsage = 100 * (1 - ------------------)     (units are in %)
 264:..\..\..\..\..\..\Software\uCOS-III\Source/os_stat.c **** *                                                  OSStatTaskCtrMax
 265:..\..\..\..\..\..\Software\uCOS-III\Source/os_stat.c **** *
 266:..\..\..\..\..\..\Software\uCOS-III\Source/os_stat.c **** * Arguments  : p_arg     this pointer is not used at this time.
 267:..\..\..\..\..\..\Software\uCOS-III\Source/os_stat.c **** *
 268:..\..\..\..\..\..\Software\uCOS-III\Source/os_stat.c **** * Returns    : none
 269:..\..\..\..\..\..\Software\uCOS-III\Source/os_stat.c **** *
 270:..\..\..\..\..\..\Software\uCOS-III\Source/os_stat.c **** * Note(s)    : 1) This task runs at a priority level higher than the idle task.
 271:..\..\..\..\..\..\Software\uCOS-III\Source/os_stat.c **** *
 272:..\..\..\..\..\..\Software\uCOS-III\Source/os_stat.c **** *              2) You can disable this task by setting the configuration #define OS_CFG_STAT_TASK_E
 273:..\..\..\..\..\..\Software\uCOS-III\Source/os_stat.c **** *
 274:..\..\..\..\..\..\Software\uCOS-III\Source/os_stat.c **** *              3) You MUST have at least a delay of 2/10 seconds to allow for the system to establi
ARM GAS  C:\Users\EDULU~1.DES\AppData\Local\Temp\ccVS5xnG.s 			page 9


 275:..\..\..\..\..\..\Software\uCOS-III\Source/os_stat.c **** *                 for the idle counter.
 276:..\..\..\..\..\..\Software\uCOS-III\Source/os_stat.c **** *
 277:..\..\..\..\..\..\Software\uCOS-III\Source/os_stat.c **** *              4) This function is INTERNAL to uC/OS-III and your application should not call it.
 278:..\..\..\..\..\..\Software\uCOS-III\Source/os_stat.c **** ***************************************************************************************************
 279:..\..\..\..\..\..\Software\uCOS-III\Source/os_stat.c **** */
 280:..\..\..\..\..\..\Software\uCOS-III\Source/os_stat.c **** 
 281:..\..\..\..\..\..\Software\uCOS-III\Source/os_stat.c **** void  OS_StatTask (void  *p_arg)
 282:..\..\..\..\..\..\Software\uCOS-III\Source/os_stat.c **** {
 183              		.loc 1 282 1 is_stmt 1 view -0
 184              		.cfi_startproc
 185              		@ args = 0, pretend = 0, frame = 8
 186              		@ frame_needed = 0, uses_anonymous_args = 0
 187              		.loc 1 282 1 is_stmt 0 view .LVU54
 188 0000 F0B5     		push	{r4, r5, r6, r7, lr}
 189              		.cfi_def_cfa_offset 20
 190              		.cfi_offset 4, -20
 191              		.cfi_offset 5, -16
 192              		.cfi_offset 6, -12
 193              		.cfi_offset 7, -8
 194              		.cfi_offset 14, -4
 195 0002 83B0     		sub	sp, sp, #12
 196              		.cfi_def_cfa_offset 32
 283:..\..\..\..\..\..\Software\uCOS-III\Source/os_stat.c **** #if OS_CFG_DBG_EN > 0u
 284:..\..\..\..\..\..\Software\uCOS-III\Source/os_stat.c **** #if OS_CFG_TASK_PROFILE_EN > 0u
 285:..\..\..\..\..\..\Software\uCOS-III\Source/os_stat.c ****     OS_CPU_USAGE usage;
 286:..\..\..\..\..\..\Software\uCOS-III\Source/os_stat.c ****     OS_CYCLES    cycles_total;
 287:..\..\..\..\..\..\Software\uCOS-III\Source/os_stat.c ****     OS_CYCLES    cycles_div;
 288:..\..\..\..\..\..\Software\uCOS-III\Source/os_stat.c ****     OS_CYCLES    cycles_mult;
 289:..\..\..\..\..\..\Software\uCOS-III\Source/os_stat.c ****     OS_CYCLES    cycles_max;
 290:..\..\..\..\..\..\Software\uCOS-III\Source/os_stat.c **** #endif
 291:..\..\..\..\..\..\Software\uCOS-III\Source/os_stat.c ****     OS_TCB      *p_tcb;
 197              		.loc 1 291 5 is_stmt 1 view .LVU55
 292:..\..\..\..\..\..\Software\uCOS-III\Source/os_stat.c **** #endif
 293:..\..\..\..\..\..\Software\uCOS-III\Source/os_stat.c ****     OS_TICK      ctr_max;
 198              		.loc 1 293 5 view .LVU56
 294:..\..\..\..\..\..\Software\uCOS-III\Source/os_stat.c ****     OS_TICK      ctr_mult;
 199              		.loc 1 294 5 view .LVU57
 295:..\..\..\..\..\..\Software\uCOS-III\Source/os_stat.c ****     OS_TICK      ctr_div;
 200              		.loc 1 295 5 view .LVU58
 296:..\..\..\..\..\..\Software\uCOS-III\Source/os_stat.c ****     OS_ERR       err;
 201              		.loc 1 296 5 view .LVU59
 297:..\..\..\..\..\..\Software\uCOS-III\Source/os_stat.c ****     OS_TICK      dly;
 202              		.loc 1 297 5 view .LVU60
 298:..\..\..\..\..\..\Software\uCOS-III\Source/os_stat.c ****     CPU_TS       ts_start;
 203              		.loc 1 298 5 view .LVU61
 299:..\..\..\..\..\..\Software\uCOS-III\Source/os_stat.c ****     CPU_TS       ts_end;
 204              		.loc 1 299 5 view .LVU62
 300:..\..\..\..\..\..\Software\uCOS-III\Source/os_stat.c ****     CPU_SR_ALLOC();
 205              		.loc 1 300 5 view .LVU63
 206              	.LVL25:
 301:..\..\..\..\..\..\Software\uCOS-III\Source/os_stat.c **** 
 302:..\..\..\..\..\..\Software\uCOS-III\Source/os_stat.c **** 
 303:..\..\..\..\..\..\Software\uCOS-III\Source/os_stat.c **** 
 304:..\..\..\..\..\..\Software\uCOS-III\Source/os_stat.c ****     p_arg = p_arg;                                          /* Prevent compiler warning for not usi
 207              		.loc 1 304 5 view .LVU64
 305:..\..\..\..\..\..\Software\uCOS-III\Source/os_stat.c ****     while (OSStatTaskRdy != DEF_TRUE) {
 208              		.loc 1 305 5 view .LVU65
ARM GAS  C:\Users\EDULU~1.DES\AppData\Local\Temp\ccVS5xnG.s 			page 10


 209              		.loc 1 305 11 is_stmt 0 view .LVU66
 210 0004 07E0     		b	.L8
 211              	.LVL26:
 212              	.L9:
 306:..\..\..\..\..\..\Software\uCOS-III\Source/os_stat.c ****         OSTimeDly(2u * OSCfg_StatTaskRate_Hz,               /* Wait until statistic task is ready  
 213              		.loc 1 306 9 is_stmt 1 view .LVU67
 214 0006 574B     		ldr	r3, .L26
 215 0008 1868     		ldr	r0, [r3]
 216 000a 4000     		lsls	r0, r0, #1
 217 000c 6B46     		mov	r3, sp
 218 000e 9A1D     		adds	r2, r3, #6
 219 0010 0021     		movs	r1, #0
 220 0012 FFF7FEFF 		bl	OSTimeDly
 221              	.LVL27:
 222              	.L8:
 305:..\..\..\..\..\..\Software\uCOS-III\Source/os_stat.c ****     while (OSStatTaskRdy != DEF_TRUE) {
 223              		.loc 1 305 26 is_stmt 0 view .LVU68
 224 0016 544B     		ldr	r3, .L26+4
 225 0018 1B78     		ldrb	r3, [r3]
 305:..\..\..\..\..\..\Software\uCOS-III\Source/os_stat.c ****     while (OSStatTaskRdy != DEF_TRUE) {
 226              		.loc 1 305 11 view .LVU69
 227 001a 012B     		cmp	r3, #1
 228 001c F3D1     		bne	.L9
 307:..\..\..\..\..\..\Software\uCOS-III\Source/os_stat.c ****                   OS_OPT_TIME_DLY,
 308:..\..\..\..\..\..\Software\uCOS-III\Source/os_stat.c ****                   &err);
 309:..\..\..\..\..\..\Software\uCOS-III\Source/os_stat.c ****     }
 310:..\..\..\..\..\..\Software\uCOS-III\Source/os_stat.c ****     OSStatReset(&err);                                      /* Reset statistics                    
 229              		.loc 1 310 5 is_stmt 1 view .LVU70
 230 001e 6B46     		mov	r3, sp
 231 0020 981D     		adds	r0, r3, #6
 232 0022 FFF7FEFF 		bl	OSStatReset
 233              	.LVL28:
 311:..\..\..\..\..\..\Software\uCOS-III\Source/os_stat.c **** 
 312:..\..\..\..\..\..\Software\uCOS-III\Source/os_stat.c ****     dly = (OS_TICK)0;                                       /* Compute statistic task sleep delay  
 234              		.loc 1 312 5 view .LVU71
 313:..\..\..\..\..\..\Software\uCOS-III\Source/os_stat.c ****     if (OSCfg_TickRate_Hz > OSCfg_StatTaskRate_Hz) {
 235              		.loc 1 313 5 view .LVU72
 236              		.loc 1 313 27 is_stmt 0 view .LVU73
 237 0026 514B     		ldr	r3, .L26+8
 238 0028 1C68     		ldr	r4, [r3]
 239 002a 4E4B     		ldr	r3, .L26
 240 002c 1968     		ldr	r1, [r3]
 241              		.loc 1 313 8 view .LVU74
 242 002e 8C42     		cmp	r4, r1
 243 0030 04D9     		bls	.L10
 314:..\..\..\..\..\..\Software\uCOS-III\Source/os_stat.c ****         dly = (OS_TICK)(OSCfg_TickRate_Hz / OSCfg_StatTaskRate_Hz);
 244              		.loc 1 314 9 is_stmt 1 view .LVU75
 245              		.loc 1 314 13 is_stmt 0 view .LVU76
 246 0032 2000     		movs	r0, r4
 247 0034 FFF7FEFF 		bl	__aeabi_uidiv
 248              	.LVL29:
 249 0038 061E     		subs	r6, r0, #0
 250              	.LVL30:
 315:..\..\..\..\..\..\Software\uCOS-III\Source/os_stat.c ****     }
 316:..\..\..\..\..\..\Software\uCOS-III\Source/os_stat.c ****     if (dly == (OS_TICK)0) {
 251              		.loc 1 316 5 is_stmt 1 view .LVU77
 252              		.loc 1 316 8 is_stmt 0 view .LVU78
ARM GAS  C:\Users\EDULU~1.DES\AppData\Local\Temp\ccVS5xnG.s 			page 11


 253 003a 5FD1     		bne	.L19
 254              	.LVL31:
 255              	.L10:
 317:..\..\..\..\..\..\Software\uCOS-III\Source/os_stat.c ****         dly =  (OS_TICK)(OSCfg_TickRate_Hz / (OS_RATE_HZ)10);
 256              		.loc 1 317 9 is_stmt 1 view .LVU79
 257              		.loc 1 317 13 is_stmt 0 view .LVU80
 258 003c 0A21     		movs	r1, #10
 259 003e 2000     		movs	r0, r4
 260 0040 FFF7FEFF 		bl	__aeabi_uidiv
 261              	.LVL32:
 262 0044 0600     		movs	r6, r0
 263              	.LVL33:
 264              		.loc 1 317 13 view .LVU81
 265 0046 59E0     		b	.L19
 266              	.LVL34:
 267              	.L20:
 318:..\..\..\..\..\..\Software\uCOS-III\Source/os_stat.c ****     }
 319:..\..\..\..\..\..\Software\uCOS-III\Source/os_stat.c **** 
 320:..\..\..\..\..\..\Software\uCOS-III\Source/os_stat.c ****     while (DEF_ON) {
 321:..\..\..\..\..\..\Software\uCOS-III\Source/os_stat.c ****         ts_start        = OS_TS_GET();
 322:..\..\..\..\..\..\Software\uCOS-III\Source/os_stat.c **** #ifdef  CPU_CFG_INT_DIS_MEAS_EN
 323:..\..\..\..\..\..\Software\uCOS-III\Source/os_stat.c ****         OSIntDisTimeMax = CPU_IntDisMeasMaxGet();
 324:..\..\..\..\..\..\Software\uCOS-III\Source/os_stat.c **** #endif
 325:..\..\..\..\..\..\Software\uCOS-III\Source/os_stat.c **** 
 326:..\..\..\..\..\..\Software\uCOS-III\Source/os_stat.c ****         CPU_CRITICAL_ENTER();                               /* ----------------- OVERALL CPU USAGE 
 327:..\..\..\..\..\..\Software\uCOS-III\Source/os_stat.c ****         OSStatTaskCtrRun   = OSStatTaskCtr;                 /* Obtain the of the stat counter for t
 328:..\..\..\..\..\..\Software\uCOS-III\Source/os_stat.c ****         OSStatTaskCtr      = (OS_TICK)0;                    /* Reset the stat counter for the next 
 329:..\..\..\..\..\..\Software\uCOS-III\Source/os_stat.c ****         CPU_CRITICAL_EXIT();
 330:..\..\..\..\..\..\Software\uCOS-III\Source/os_stat.c **** 
 331:..\..\..\..\..\..\Software\uCOS-III\Source/os_stat.c ****         if (OSStatTaskCtrMax > OSStatTaskCtrRun) {          /* Compute CPU Usage with best resoluti
 332:..\..\..\..\..\..\Software\uCOS-III\Source/os_stat.c ****             if (OSStatTaskCtrMax < 400000u) {                                        /*            
 333:..\..\..\..\..\..\Software\uCOS-III\Source/os_stat.c ****                 ctr_mult = 10000u;
 334:..\..\..\..\..\..\Software\uCOS-III\Source/os_stat.c ****                 ctr_div  =     1u;
 268              		.loc 1 334 26 view .LVU82
 269 0048 0121     		movs	r1, #1
 333:..\..\..\..\..\..\Software\uCOS-III\Source/os_stat.c ****                 ctr_div  =     1u;
 270              		.loc 1 333 26 view .LVU83
 271 004a 494D     		ldr	r5, .L26+12
 272              	.LVL35:
 273              	.L13:
 335:..\..\..\..\..\..\Software\uCOS-III\Source/os_stat.c ****             } else if (OSStatTaskCtrMax <   4000000u) {                              /*      400,00
 336:..\..\..\..\..\..\Software\uCOS-III\Source/os_stat.c ****                 ctr_mult =  1000u;
 337:..\..\..\..\..\..\Software\uCOS-III\Source/os_stat.c ****                 ctr_div  =    10u;
 338:..\..\..\..\..\..\Software\uCOS-III\Source/os_stat.c ****             } else if (OSStatTaskCtrMax <  40000000u) {                              /*    4,000,00
 339:..\..\..\..\..\..\Software\uCOS-III\Source/os_stat.c ****                 ctr_mult =   100u;
 340:..\..\..\..\..\..\Software\uCOS-III\Source/os_stat.c ****                 ctr_div  =   100u;
 341:..\..\..\..\..\..\Software\uCOS-III\Source/os_stat.c ****             } else if (OSStatTaskCtrMax < 400000000u) {                              /*   40,000,00
 342:..\..\..\..\..\..\Software\uCOS-III\Source/os_stat.c ****                 ctr_mult =    10u;
 343:..\..\..\..\..\..\Software\uCOS-III\Source/os_stat.c ****                 ctr_div  =  1000u;
 344:..\..\..\..\..\..\Software\uCOS-III\Source/os_stat.c ****             } else {                                                                 /*  400,000,00
 345:..\..\..\..\..\..\Software\uCOS-III\Source/os_stat.c ****                 ctr_mult =     1u;
 346:..\..\..\..\..\..\Software\uCOS-III\Source/os_stat.c ****                 ctr_div  = 10000u;
 347:..\..\..\..\..\..\Software\uCOS-III\Source/os_stat.c ****             }
 348:..\..\..\..\..\..\Software\uCOS-III\Source/os_stat.c ****             ctr_max            = OSStatTaskCtrMax / ctr_div;
 274              		.loc 1 348 13 is_stmt 1 view .LVU84
 275              		.loc 1 348 32 is_stmt 0 view .LVU85
 276 004c FFF7FEFF 		bl	__aeabi_uidiv
ARM GAS  C:\Users\EDULU~1.DES\AppData\Local\Temp\ccVS5xnG.s 			page 12


 277              	.LVL36:
 278              		.loc 1 348 32 view .LVU86
 279 0050 0100     		movs	r1, r0
 280              	.LVL37:
 349:..\..\..\..\..\..\Software\uCOS-III\Source/os_stat.c ****             OSStatTaskCPUUsage = (OS_CPU_USAGE)((OS_TICK)10000u - ctr_mult * OSStatTaskCtrRun / ctr
 281              		.loc 1 349 13 is_stmt 1 view .LVU87
 282              		.loc 1 349 76 is_stmt 0 view .LVU88
 283 0052 2800     		movs	r0, r5
 284              	.LVL38:
 285              		.loc 1 349 76 view .LVU89
 286 0054 6043     		muls	r0, r4
 287              		.loc 1 349 95 view .LVU90
 288 0056 FFF7FEFF 		bl	__aeabi_uidiv
 289              	.LVL39:
 290              		.loc 1 349 34 view .LVU91
 291 005a 454B     		ldr	r3, .L26+12
 292 005c 181A     		subs	r0, r3, r0
 293 005e 80B2     		uxth	r0, r0
 294              		.loc 1 349 32 view .LVU92
 295 0060 444B     		ldr	r3, .L26+16
 296 0062 1880     		strh	r0, [r3]
 350:..\..\..\..\..\..\Software\uCOS-III\Source/os_stat.c ****             if (OSStatTaskCPUUsageMax < OSStatTaskCPUUsage) {
 297              		.loc 1 350 13 is_stmt 1 view .LVU93
 298              		.loc 1 350 39 is_stmt 0 view .LVU94
 299 0064 444B     		ldr	r3, .L26+20
 300 0066 1B88     		ldrh	r3, [r3]
 301              		.loc 1 350 16 view .LVU95
 302 0068 9842     		cmp	r0, r3
 303 006a 0FD9     		bls	.L14
 351:..\..\..\..\..\..\Software\uCOS-III\Source/os_stat.c ****                 OSStatTaskCPUUsageMax = OSStatTaskCPUUsage;
 304              		.loc 1 351 17 is_stmt 1 view .LVU96
 305              		.loc 1 351 39 is_stmt 0 view .LVU97
 306 006c 424B     		ldr	r3, .L26+20
 307 006e 1880     		strh	r0, [r3]
 308 0070 0CE0     		b	.L14
 309              	.LVL40:
 310              	.L21:
 337:..\..\..\..\..\..\Software\uCOS-III\Source/os_stat.c ****             } else if (OSStatTaskCtrMax <  40000000u) {                              /*    4,000,00
 311              		.loc 1 337 26 view .LVU98
 312 0072 0A21     		movs	r1, #10
 336:..\..\..\..\..\..\Software\uCOS-III\Source/os_stat.c ****                 ctr_div  =    10u;
 313              		.loc 1 336 26 view .LVU99
 314 0074 FA25     		movs	r5, #250
 315              	.LVL41:
 336:..\..\..\..\..\..\Software\uCOS-III\Source/os_stat.c ****                 ctr_div  =    10u;
 316              		.loc 1 336 26 view .LVU100
 317 0076 AD00     		lsls	r5, r5, #2
 318 0078 E8E7     		b	.L13
 319              	.LVL42:
 320              	.L22:
 340:..\..\..\..\..\..\Software\uCOS-III\Source/os_stat.c ****             } else if (OSStatTaskCtrMax < 400000000u) {                              /*   40,000,00
 321              		.loc 1 340 26 view .LVU101
 322 007a 6421     		movs	r1, #100
 339:..\..\..\..\..\..\Software\uCOS-III\Source/os_stat.c ****                 ctr_div  =   100u;
 323              		.loc 1 339 26 view .LVU102
 324 007c 6425     		movs	r5, #100
 325              	.LVL43:
ARM GAS  C:\Users\EDULU~1.DES\AppData\Local\Temp\ccVS5xnG.s 			page 13


 339:..\..\..\..\..\..\Software\uCOS-III\Source/os_stat.c ****                 ctr_div  =   100u;
 326              		.loc 1 339 26 view .LVU103
 327 007e E5E7     		b	.L13
 328              	.LVL44:
 329              	.L23:
 346:..\..\..\..\..\..\Software\uCOS-III\Source/os_stat.c ****             }
 330              		.loc 1 346 26 view .LVU104
 331 0080 3B49     		ldr	r1, .L26+12
 345:..\..\..\..\..\..\Software\uCOS-III\Source/os_stat.c ****                 ctr_div  = 10000u;
 332              		.loc 1 345 26 view .LVU105
 333 0082 0125     		movs	r5, #1
 334              	.LVL45:
 345:..\..\..\..\..\..\Software\uCOS-III\Source/os_stat.c ****                 ctr_div  = 10000u;
 335              		.loc 1 345 26 view .LVU106
 336 0084 E2E7     		b	.L13
 337              	.LVL46:
 338              	.L12:
 352:..\..\..\..\..\..\Software\uCOS-III\Source/os_stat.c ****             }
 353:..\..\..\..\..\..\Software\uCOS-III\Source/os_stat.c ****         } else {
 354:..\..\..\..\..\..\Software\uCOS-III\Source/os_stat.c ****             OSStatTaskCPUUsage = (OS_CPU_USAGE)10000u;
 339              		.loc 1 354 13 is_stmt 1 view .LVU107
 340              		.loc 1 354 32 is_stmt 0 view .LVU108
 341 0086 3B4B     		ldr	r3, .L26+16
 342 0088 394A     		ldr	r2, .L26+12
 343 008a 1A80     		strh	r2, [r3]
 344              	.LVL47:
 345              	.L14:
 355:..\..\..\..\..\..\Software\uCOS-III\Source/os_stat.c ****         }
 356:..\..\..\..\..\..\Software\uCOS-III\Source/os_stat.c **** 
 357:..\..\..\..\..\..\Software\uCOS-III\Source/os_stat.c ****         OSStatTaskHook();                                   /* Invoke user definable hook          
 346              		.loc 1 357 9 is_stmt 1 view .LVU109
 347 008c FFF7FEFF 		bl	OSStatTaskHook
 348              	.LVL48:
 358:..\..\..\..\..\..\Software\uCOS-III\Source/os_stat.c **** 
 359:..\..\..\..\..\..\Software\uCOS-III\Source/os_stat.c **** 
 360:..\..\..\..\..\..\Software\uCOS-III\Source/os_stat.c **** #if OS_CFG_DBG_EN > 0u
 361:..\..\..\..\..\..\Software\uCOS-III\Source/os_stat.c **** #if OS_CFG_TASK_PROFILE_EN > 0u
 362:..\..\..\..\..\..\Software\uCOS-III\Source/os_stat.c ****         cycles_total = (OS_CYCLES)0;
 363:..\..\..\..\..\..\Software\uCOS-III\Source/os_stat.c **** 
 364:..\..\..\..\..\..\Software\uCOS-III\Source/os_stat.c ****         CPU_CRITICAL_ENTER();
 365:..\..\..\..\..\..\Software\uCOS-III\Source/os_stat.c ****         p_tcb = OSTaskDbgListPtr;
 366:..\..\..\..\..\..\Software\uCOS-III\Source/os_stat.c ****         CPU_CRITICAL_EXIT();
 367:..\..\..\..\..\..\Software\uCOS-III\Source/os_stat.c ****         while (p_tcb != (OS_TCB *)0) {                      /* ----------------- TOTAL CYCLES COUNT
 368:..\..\..\..\..\..\Software\uCOS-III\Source/os_stat.c ****             OS_CRITICAL_ENTER();
 369:..\..\..\..\..\..\Software\uCOS-III\Source/os_stat.c ****             p_tcb->CyclesTotalPrev =  p_tcb->CyclesTotal;   /* Save accumulated # cycles into a tem
 370:..\..\..\..\..\..\Software\uCOS-III\Source/os_stat.c ****             p_tcb->CyclesTotal     = (OS_CYCLES)0;          /* Reset total cycles for task for next
 371:..\..\..\..\..\..\Software\uCOS-III\Source/os_stat.c ****             OS_CRITICAL_EXIT();
 372:..\..\..\..\..\..\Software\uCOS-III\Source/os_stat.c **** 
 373:..\..\..\..\..\..\Software\uCOS-III\Source/os_stat.c ****             cycles_total          += p_tcb->CyclesTotalPrev;/* Perform sum of all task # cycles    
 374:..\..\..\..\..\..\Software\uCOS-III\Source/os_stat.c **** 
 375:..\..\..\..\..\..\Software\uCOS-III\Source/os_stat.c ****             CPU_CRITICAL_ENTER();
 376:..\..\..\..\..\..\Software\uCOS-III\Source/os_stat.c ****             p_tcb                  = p_tcb->DbgNextPtr;
 377:..\..\..\..\..\..\Software\uCOS-III\Source/os_stat.c ****             CPU_CRITICAL_EXIT();
 378:..\..\..\..\..\..\Software\uCOS-III\Source/os_stat.c ****         }
 379:..\..\..\..\..\..\Software\uCOS-III\Source/os_stat.c **** #endif
 380:..\..\..\..\..\..\Software\uCOS-III\Source/os_stat.c **** 
 381:..\..\..\..\..\..\Software\uCOS-III\Source/os_stat.c **** 
ARM GAS  C:\Users\EDULU~1.DES\AppData\Local\Temp\ccVS5xnG.s 			page 14


 382:..\..\..\..\..\..\Software\uCOS-III\Source/os_stat.c **** #if OS_CFG_TASK_PROFILE_EN > 0u
 383:..\..\..\..\..\..\Software\uCOS-III\Source/os_stat.c ****                                                             /* ------------- INDIVIDUAL TASK CPU US
 384:..\..\..\..\..\..\Software\uCOS-III\Source/os_stat.c ****         if (cycles_total > (OS_CYCLES)0u) {                                          /* 'cycles_tot
 385:..\..\..\..\..\..\Software\uCOS-III\Source/os_stat.c ****             if (cycles_total < 400000u) {                                            /*            
 386:..\..\..\..\..\..\Software\uCOS-III\Source/os_stat.c ****                 cycles_mult = 10000u;
 387:..\..\..\..\..\..\Software\uCOS-III\Source/os_stat.c ****                 cycles_div  =     1u;
 388:..\..\..\..\..\..\Software\uCOS-III\Source/os_stat.c ****             } else if (cycles_total <   4000000u) {                                  /*      400,00
 389:..\..\..\..\..\..\Software\uCOS-III\Source/os_stat.c ****                 cycles_mult =  1000u;
 390:..\..\..\..\..\..\Software\uCOS-III\Source/os_stat.c ****                 cycles_div  =    10u;
 391:..\..\..\..\..\..\Software\uCOS-III\Source/os_stat.c ****             } else if (cycles_total <  40000000u) {                                  /*    4,000,00
 392:..\..\..\..\..\..\Software\uCOS-III\Source/os_stat.c ****                 cycles_mult =   100u;
 393:..\..\..\..\..\..\Software\uCOS-III\Source/os_stat.c ****                 cycles_div  =   100u;
 394:..\..\..\..\..\..\Software\uCOS-III\Source/os_stat.c ****             } else if (cycles_total < 400000000u) {                                  /*   40,000,00
 395:..\..\..\..\..\..\Software\uCOS-III\Source/os_stat.c ****                 cycles_mult =    10u;
 396:..\..\..\..\..\..\Software\uCOS-III\Source/os_stat.c ****                 cycles_div  =  1000u;
 397:..\..\..\..\..\..\Software\uCOS-III\Source/os_stat.c ****             } else {                                                                 /*  400,000,00
 398:..\..\..\..\..\..\Software\uCOS-III\Source/os_stat.c ****                 cycles_mult =     1u;
 399:..\..\..\..\..\..\Software\uCOS-III\Source/os_stat.c ****                 cycles_div  = 10000u;
 400:..\..\..\..\..\..\Software\uCOS-III\Source/os_stat.c ****             }
 401:..\..\..\..\..\..\Software\uCOS-III\Source/os_stat.c ****             cycles_max  = cycles_total / cycles_div;
 402:..\..\..\..\..\..\Software\uCOS-III\Source/os_stat.c ****         } else {
 403:..\..\..\..\..\..\Software\uCOS-III\Source/os_stat.c ****             cycles_mult = 0u;
 404:..\..\..\..\..\..\Software\uCOS-III\Source/os_stat.c ****             cycles_max  = 1u;
 405:..\..\..\..\..\..\Software\uCOS-III\Source/os_stat.c ****         }
 406:..\..\..\..\..\..\Software\uCOS-III\Source/os_stat.c **** #endif
 407:..\..\..\..\..\..\Software\uCOS-III\Source/os_stat.c ****         CPU_CRITICAL_ENTER();
 349              		.loc 1 407 9 view .LVU110
 350              		.loc 1 407 9 view .LVU111
 351              		.loc 1 407 9 view .LVU112
 352 0090 FFF7FEFF 		bl	CPU_SR_Save
 353              	.LVL49:
 354 0094 0500     		movs	r5, r0
 355              	.LVL50:
 356              		.loc 1 407 9 view .LVU113
 357 0096 FFF7FEFF 		bl	CPU_IntDisMeasStart
 358              	.LVL51:
 408:..\..\..\..\..\..\Software\uCOS-III\Source/os_stat.c ****         p_tcb = OSTaskDbgListPtr;
 359              		.loc 1 408 9 view .LVU114
 360              		.loc 1 408 15 is_stmt 0 view .LVU115
 361 009a 384B     		ldr	r3, .L26+24
 362 009c 1C68     		ldr	r4, [r3]
 363              	.LVL52:
 409:..\..\..\..\..\..\Software\uCOS-III\Source/os_stat.c ****         CPU_CRITICAL_EXIT();
 364              		.loc 1 409 9 is_stmt 1 view .LVU116
 365              		.loc 1 409 9 view .LVU117
 366 009e FFF7FEFF 		bl	CPU_IntDisMeasStop
 367              	.LVL53:
 368              		.loc 1 409 9 view .LVU118
 369              		.loc 1 409 9 view .LVU119
 370 00a2 2800     		movs	r0, r5
 371 00a4 FFF7FEFF 		bl	CPU_SR_Restore
 372              	.LVL54:
 410:..\..\..\..\..\..\Software\uCOS-III\Source/os_stat.c ****         while (p_tcb != (OS_TCB *)0) {
 373              		.loc 1 410 9 view .LVU120
 374              	.L15:
 375              		.loc 1 410 15 is_stmt 0 view .LVU121
 376 00a8 002C     		cmp	r4, #0
ARM GAS  C:\Users\EDULU~1.DES\AppData\Local\Temp\ccVS5xnG.s 			page 15


 377 00aa 14D0     		beq	.L24
 411:..\..\..\..\..\..\Software\uCOS-III\Source/os_stat.c **** #if OS_CFG_TASK_PROFILE_EN > 0u                             /* Compute execution time of each task 
 412:..\..\..\..\..\..\Software\uCOS-III\Source/os_stat.c ****             usage = (OS_CPU_USAGE)(cycles_mult * p_tcb->CyclesTotalPrev / cycles_max);
 413:..\..\..\..\..\..\Software\uCOS-III\Source/os_stat.c ****             if (usage > 10000u) {
 414:..\..\..\..\..\..\Software\uCOS-III\Source/os_stat.c ****                 usage = 10000u;
 415:..\..\..\..\..\..\Software\uCOS-III\Source/os_stat.c ****             }
 416:..\..\..\..\..\..\Software\uCOS-III\Source/os_stat.c ****             p_tcb->CPUUsage = usage;
 417:..\..\..\..\..\..\Software\uCOS-III\Source/os_stat.c ****             if (p_tcb->CPUUsageMax < usage) {               /* Detect peak CPU usage               
 418:..\..\..\..\..\..\Software\uCOS-III\Source/os_stat.c ****                 p_tcb->CPUUsageMax = usage;
 419:..\..\..\..\..\..\Software\uCOS-III\Source/os_stat.c ****             }
 420:..\..\..\..\..\..\Software\uCOS-III\Source/os_stat.c **** #endif
 421:..\..\..\..\..\..\Software\uCOS-III\Source/os_stat.c **** 
 422:..\..\..\..\..\..\Software\uCOS-III\Source/os_stat.c **** #if OS_CFG_STAT_TASK_STK_CHK_EN > 0u
 423:..\..\..\..\..\..\Software\uCOS-III\Source/os_stat.c ****             OSTaskStkChk( p_tcb,                            /* Compute stack usage of active tasks 
 378              		.loc 1 423 13 is_stmt 1 view .LVU122
 379 00ac 2200     		movs	r2, r4
 380 00ae 6432     		adds	r2, r2, #100
 381 00b0 2100     		movs	r1, r4
 382 00b2 6831     		adds	r1, r1, #104
 383 00b4 6B46     		mov	r3, sp
 384 00b6 0633     		adds	r3, r3, #6
 385 00b8 2000     		movs	r0, r4
 386 00ba FFF7FEFF 		bl	OSTaskStkChk
 387              	.LVL55:
 424:..\..\..\..\..\..\Software\uCOS-III\Source/os_stat.c ****                          &p_tcb->StkFree,
 425:..\..\..\..\..\..\Software\uCOS-III\Source/os_stat.c ****                          &p_tcb->StkUsed,
 426:..\..\..\..\..\..\Software\uCOS-III\Source/os_stat.c ****                          &err);
 427:..\..\..\..\..\..\Software\uCOS-III\Source/os_stat.c **** #endif
 428:..\..\..\..\..\..\Software\uCOS-III\Source/os_stat.c **** 
 429:..\..\..\..\..\..\Software\uCOS-III\Source/os_stat.c ****             CPU_CRITICAL_ENTER();
 388              		.loc 1 429 13 view .LVU123
 389              		.loc 1 429 13 view .LVU124
 390              		.loc 1 429 13 view .LVU125
 391 00be FFF7FEFF 		bl	CPU_SR_Save
 392              	.LVL56:
 393 00c2 0500     		movs	r5, r0
 394              	.LVL57:
 395              		.loc 1 429 13 view .LVU126
 396 00c4 FFF7FEFF 		bl	CPU_IntDisMeasStart
 397              	.LVL58:
 430:..\..\..\..\..\..\Software\uCOS-III\Source/os_stat.c ****             p_tcb = p_tcb->DbgNextPtr;
 398              		.loc 1 430 13 view .LVU127
 399              		.loc 1 430 19 is_stmt 0 view .LVU128
 400 00c8 646F     		ldr	r4, [r4, #116]
 401              	.LVL59:
 431:..\..\..\..\..\..\Software\uCOS-III\Source/os_stat.c ****             CPU_CRITICAL_EXIT();
 402              		.loc 1 431 13 is_stmt 1 view .LVU129
 403              		.loc 1 431 13 view .LVU130
 404 00ca FFF7FEFF 		bl	CPU_IntDisMeasStop
 405              	.LVL60:
 406              		.loc 1 431 13 view .LVU131
 407              		.loc 1 431 13 view .LVU132
 408 00ce 2800     		movs	r0, r5
 409 00d0 FFF7FEFF 		bl	CPU_SR_Restore
 410              	.LVL61:
 411 00d4 E8E7     		b	.L15
 412              	.L24:
ARM GAS  C:\Users\EDULU~1.DES\AppData\Local\Temp\ccVS5xnG.s 			page 16


 432:..\..\..\..\..\..\Software\uCOS-III\Source/os_stat.c ****         }
 433:..\..\..\..\..\..\Software\uCOS-III\Source/os_stat.c **** #endif
 434:..\..\..\..\..\..\Software\uCOS-III\Source/os_stat.c **** 
 435:..\..\..\..\..\..\Software\uCOS-III\Source/os_stat.c ****         if (OSStatResetFlag == DEF_TRUE) {                  /* Check if need to reset statistics   
 413              		.loc 1 435 9 view .LVU133
 414              		.loc 1 435 29 is_stmt 0 view .LVU134
 415 00d6 2A4B     		ldr	r3, .L26+28
 416 00d8 1B78     		ldrb	r3, [r3]
 417              		.loc 1 435 12 view .LVU135
 418 00da 012B     		cmp	r3, #1
 419 00dc 3AD0     		beq	.L25
 420              	.L17:
 436:..\..\..\..\..\..\Software\uCOS-III\Source/os_stat.c ****             OSStatResetFlag  = DEF_FALSE;
 437:..\..\..\..\..\..\Software\uCOS-III\Source/os_stat.c ****             OSStatReset(&err);
 438:..\..\..\..\..\..\Software\uCOS-III\Source/os_stat.c ****         }
 439:..\..\..\..\..\..\Software\uCOS-III\Source/os_stat.c **** 
 440:..\..\..\..\..\..\Software\uCOS-III\Source/os_stat.c ****         ts_end = OS_TS_GET() - ts_start;                    /* Measure execution time of statistic 
 421              		.loc 1 440 9 is_stmt 1 view .LVU136
 422              		.loc 1 440 18 is_stmt 0 view .LVU137
 423 00de FFF7FEFF 		bl	CPU_TS_TmrRd
 424              	.LVL62:
 425              		.loc 1 440 16 view .LVU138
 426 00e2 C01B     		subs	r0, r0, r7
 427              	.LVL63:
 441:..\..\..\..\..\..\Software\uCOS-III\Source/os_stat.c ****         if (OSStatTaskTimeMax < ts_end) {
 428              		.loc 1 441 9 is_stmt 1 view .LVU139
 429              		.loc 1 441 31 is_stmt 0 view .LVU140
 430 00e4 274B     		ldr	r3, .L26+32
 431 00e6 1B68     		ldr	r3, [r3]
 432              		.loc 1 441 12 view .LVU141
 433 00e8 8342     		cmp	r3, r0
 434 00ea 01D2     		bcs	.L18
 442:..\..\..\..\..\..\Software\uCOS-III\Source/os_stat.c ****             OSStatTaskTimeMax = ts_end;
 435              		.loc 1 442 13 is_stmt 1 view .LVU142
 436              		.loc 1 442 31 is_stmt 0 view .LVU143
 437 00ec 254B     		ldr	r3, .L26+32
 438 00ee 1860     		str	r0, [r3]
 439              	.L18:
 443:..\..\..\..\..\..\Software\uCOS-III\Source/os_stat.c ****         }
 444:..\..\..\..\..\..\Software\uCOS-III\Source/os_stat.c **** 
 445:..\..\..\..\..\..\Software\uCOS-III\Source/os_stat.c ****         OSTimeDly(dly,
 440              		.loc 1 445 9 is_stmt 1 view .LVU144
 441 00f0 6B46     		mov	r3, sp
 442 00f2 9A1D     		adds	r2, r3, #6
 443 00f4 0021     		movs	r1, #0
 444 00f6 3000     		movs	r0, r6
 445              	.LVL64:
 446              		.loc 1 445 9 is_stmt 0 view .LVU145
 447 00f8 FFF7FEFF 		bl	OSTimeDly
 448              	.LVL65:
 449              	.L19:
 320:..\..\..\..\..\..\Software\uCOS-III\Source/os_stat.c ****         ts_start        = OS_TS_GET();
 450              		.loc 1 320 5 is_stmt 1 view .LVU146
 321:..\..\..\..\..\..\Software\uCOS-III\Source/os_stat.c **** #ifdef  CPU_CFG_INT_DIS_MEAS_EN
 451              		.loc 1 321 9 view .LVU147
 321:..\..\..\..\..\..\Software\uCOS-III\Source/os_stat.c **** #ifdef  CPU_CFG_INT_DIS_MEAS_EN
 452              		.loc 1 321 27 is_stmt 0 view .LVU148
ARM GAS  C:\Users\EDULU~1.DES\AppData\Local\Temp\ccVS5xnG.s 			page 17


 453 00fc FFF7FEFF 		bl	CPU_TS_TmrRd
 454              	.LVL66:
 455 0100 0700     		movs	r7, r0
 456              	.LVL67:
 323:..\..\..\..\..\..\Software\uCOS-III\Source/os_stat.c **** #endif
 457              		.loc 1 323 9 is_stmt 1 view .LVU149
 323:..\..\..\..\..\..\Software\uCOS-III\Source/os_stat.c **** #endif
 458              		.loc 1 323 27 is_stmt 0 view .LVU150
 459 0102 FFF7FEFF 		bl	CPU_IntDisMeasMaxGet
 460              	.LVL68:
 323:..\..\..\..\..\..\Software\uCOS-III\Source/os_stat.c **** #endif
 461              		.loc 1 323 25 view .LVU151
 462 0106 204B     		ldr	r3, .L26+36
 463 0108 1860     		str	r0, [r3]
 326:..\..\..\..\..\..\Software\uCOS-III\Source/os_stat.c ****         OSStatTaskCtrRun   = OSStatTaskCtr;                 /* Obtain the of the stat counter for t
 464              		.loc 1 326 9 is_stmt 1 view .LVU152
 326:..\..\..\..\..\..\Software\uCOS-III\Source/os_stat.c ****         OSStatTaskCtrRun   = OSStatTaskCtr;                 /* Obtain the of the stat counter for t
 465              		.loc 1 326 9 view .LVU153
 326:..\..\..\..\..\..\Software\uCOS-III\Source/os_stat.c ****         OSStatTaskCtrRun   = OSStatTaskCtr;                 /* Obtain the of the stat counter for t
 466              		.loc 1 326 9 view .LVU154
 467 010a FFF7FEFF 		bl	CPU_SR_Save
 468              	.LVL69:
 469 010e 0500     		movs	r5, r0
 470              	.LVL70:
 326:..\..\..\..\..\..\Software\uCOS-III\Source/os_stat.c ****         OSStatTaskCtrRun   = OSStatTaskCtr;                 /* Obtain the of the stat counter for t
 471              		.loc 1 326 9 view .LVU155
 472 0110 FFF7FEFF 		bl	CPU_IntDisMeasStart
 473              	.LVL71:
 327:..\..\..\..\..\..\Software\uCOS-III\Source/os_stat.c ****         OSStatTaskCtr      = (OS_TICK)0;                    /* Reset the stat counter for the next 
 474              		.loc 1 327 9 view .LVU156
 327:..\..\..\..\..\..\Software\uCOS-III\Source/os_stat.c ****         OSStatTaskCtr      = (OS_TICK)0;                    /* Reset the stat counter for the next 
 475              		.loc 1 327 28 is_stmt 0 view .LVU157
 476 0114 1D4C     		ldr	r4, .L26+40
 477 0116 1E4B     		ldr	r3, .L26+44
 478 0118 1A68     		ldr	r2, [r3]
 479 011a 2260     		str	r2, [r4]
 328:..\..\..\..\..\..\Software\uCOS-III\Source/os_stat.c ****         CPU_CRITICAL_EXIT();
 480              		.loc 1 328 9 is_stmt 1 view .LVU158
 328:..\..\..\..\..\..\Software\uCOS-III\Source/os_stat.c ****         CPU_CRITICAL_EXIT();
 481              		.loc 1 328 28 is_stmt 0 view .LVU159
 482 011c 0022     		movs	r2, #0
 483 011e 1A60     		str	r2, [r3]
 329:..\..\..\..\..\..\Software\uCOS-III\Source/os_stat.c **** 
 484              		.loc 1 329 9 is_stmt 1 view .LVU160
 329:..\..\..\..\..\..\Software\uCOS-III\Source/os_stat.c **** 
 485              		.loc 1 329 9 view .LVU161
 486 0120 FFF7FEFF 		bl	CPU_IntDisMeasStop
 487              	.LVL72:
 329:..\..\..\..\..\..\Software\uCOS-III\Source/os_stat.c **** 
 488              		.loc 1 329 9 view .LVU162
 329:..\..\..\..\..\..\Software\uCOS-III\Source/os_stat.c **** 
 489              		.loc 1 329 9 view .LVU163
 490 0124 2800     		movs	r0, r5
 491 0126 FFF7FEFF 		bl	CPU_SR_Restore
 492              	.LVL73:
 331:..\..\..\..\..\..\Software\uCOS-III\Source/os_stat.c ****             if (OSStatTaskCtrMax < 400000u) {                                        /*            
 493              		.loc 1 331 9 view .LVU164
ARM GAS  C:\Users\EDULU~1.DES\AppData\Local\Temp\ccVS5xnG.s 			page 18


 331:..\..\..\..\..\..\Software\uCOS-III\Source/os_stat.c ****             if (OSStatTaskCtrMax < 400000u) {                                        /*            
 494              		.loc 1 331 30 is_stmt 0 view .LVU165
 495 012a 1A4B     		ldr	r3, .L26+48
 496 012c 1868     		ldr	r0, [r3]
 497 012e 2468     		ldr	r4, [r4]
 331:..\..\..\..\..\..\Software\uCOS-III\Source/os_stat.c ****             if (OSStatTaskCtrMax < 400000u) {                                        /*            
 498              		.loc 1 331 12 view .LVU166
 499 0130 A042     		cmp	r0, r4
 500 0132 A8D9     		bls	.L12
 332:..\..\..\..\..\..\Software\uCOS-III\Source/os_stat.c ****                 ctr_mult = 10000u;
 501              		.loc 1 332 13 is_stmt 1 view .LVU167
 332:..\..\..\..\..\..\Software\uCOS-III\Source/os_stat.c ****                 ctr_mult = 10000u;
 502              		.loc 1 332 16 is_stmt 0 view .LVU168
 503 0134 184B     		ldr	r3, .L26+52
 504 0136 9842     		cmp	r0, r3
 505 0138 86D9     		bls	.L20
 335:..\..\..\..\..\..\Software\uCOS-III\Source/os_stat.c ****                 ctr_mult =  1000u;
 506              		.loc 1 335 20 is_stmt 1 view .LVU169
 335:..\..\..\..\..\..\Software\uCOS-III\Source/os_stat.c ****                 ctr_mult =  1000u;
 507              		.loc 1 335 23 is_stmt 0 view .LVU170
 508 013a 184B     		ldr	r3, .L26+56
 509 013c 9842     		cmp	r0, r3
 510 013e 98D9     		bls	.L21
 338:..\..\..\..\..\..\Software\uCOS-III\Source/os_stat.c ****                 ctr_mult =   100u;
 511              		.loc 1 338 20 is_stmt 1 view .LVU171
 338:..\..\..\..\..\..\Software\uCOS-III\Source/os_stat.c ****                 ctr_mult =   100u;
 512              		.loc 1 338 23 is_stmt 0 view .LVU172
 513 0140 174B     		ldr	r3, .L26+60
 514 0142 9842     		cmp	r0, r3
 515 0144 99D9     		bls	.L22
 341:..\..\..\..\..\..\Software\uCOS-III\Source/os_stat.c ****                 ctr_mult =    10u;
 516              		.loc 1 341 20 is_stmt 1 view .LVU173
 341:..\..\..\..\..\..\Software\uCOS-III\Source/os_stat.c ****                 ctr_mult =    10u;
 517              		.loc 1 341 23 is_stmt 0 view .LVU174
 518 0146 174B     		ldr	r3, .L26+64
 519 0148 9842     		cmp	r0, r3
 520 014a 99D8     		bhi	.L23
 343:..\..\..\..\..\..\Software\uCOS-III\Source/os_stat.c ****             } else {                                                                 /*  400,000,00
 521              		.loc 1 343 26 view .LVU175
 522 014c FA21     		movs	r1, #250
 523 014e 8900     		lsls	r1, r1, #2
 342:..\..\..\..\..\..\Software\uCOS-III\Source/os_stat.c ****                 ctr_div  =  1000u;
 524              		.loc 1 342 26 view .LVU176
 525 0150 0A25     		movs	r5, #10
 526              	.LVL74:
 342:..\..\..\..\..\..\Software\uCOS-III\Source/os_stat.c ****                 ctr_div  =  1000u;
 527              		.loc 1 342 26 view .LVU177
 528 0152 7BE7     		b	.L13
 529              	.LVL75:
 530              	.L25:
 436:..\..\..\..\..\..\Software\uCOS-III\Source/os_stat.c ****             OSStatReset(&err);
 531              		.loc 1 436 13 is_stmt 1 view .LVU178
 436:..\..\..\..\..\..\Software\uCOS-III\Source/os_stat.c ****             OSStatReset(&err);
 532              		.loc 1 436 30 is_stmt 0 view .LVU179
 533 0154 0A4B     		ldr	r3, .L26+28
 534 0156 0022     		movs	r2, #0
 535 0158 1A70     		strb	r2, [r3]
ARM GAS  C:\Users\EDULU~1.DES\AppData\Local\Temp\ccVS5xnG.s 			page 19


 437:..\..\..\..\..\..\Software\uCOS-III\Source/os_stat.c ****         }
 536              		.loc 1 437 13 is_stmt 1 view .LVU180
 537 015a 6B46     		mov	r3, sp
 538 015c 981D     		adds	r0, r3, #6
 539 015e FFF7FEFF 		bl	OSStatReset
 540              	.LVL76:
 541 0162 BCE7     		b	.L17
 542              	.L27:
 543              		.align	2
 544              	.L26:
 545 0164 00000000 		.word	OSCfg_StatTaskRate_Hz
 546 0168 00000000 		.word	OSStatTaskRdy
 547 016c 00000000 		.word	OSCfg_TickRate_Hz
 548 0170 10270000 		.word	10000
 549 0174 00000000 		.word	OSStatTaskCPUUsage
 550 0178 00000000 		.word	OSStatTaskCPUUsageMax
 551 017c 00000000 		.word	OSTaskDbgListPtr
 552 0180 00000000 		.word	OSStatResetFlag
 553 0184 00000000 		.word	OSStatTaskTimeMax
 554 0188 00000000 		.word	OSIntDisTimeMax
 555 018c 00000000 		.word	OSStatTaskCtrRun
 556 0190 00000000 		.word	OSStatTaskCtr
 557 0194 00000000 		.word	OSStatTaskCtrMax
 558 0198 7F1A0600 		.word	399999
 559 019c FF083D00 		.word	3999999
 560 01a0 FF596202 		.word	39999999
 561 01a4 FF83D717 		.word	399999999
 562              		.cfi_endproc
 563              	.LFE5:
 564              		.size	OS_StatTask, .-OS_StatTask
 565              		.section	.text.OSStatTaskCPUUsageInit,"ax",%progbits
 566              		.align	1
 567              		.global	OSStatTaskCPUUsageInit
 568              		.syntax unified
 569              		.code	16
 570              		.thumb_func
 571              		.fpu softvfp
 572              		.type	OSStatTaskCPUUsageInit, %function
 573              	OSStatTaskCPUUsageInit:
 574              	.LVL77:
 575              	.LFB4:
 192:..\..\..\..\..\..\Software\uCOS-III\Source/os_stat.c ****     OS_ERR   err;
 576              		.loc 1 192 1 view -0
 577              		.cfi_startproc
 578              		@ args = 0, pretend = 0, frame = 8
 579              		@ frame_needed = 0, uses_anonymous_args = 0
 192:..\..\..\..\..\..\Software\uCOS-III\Source/os_stat.c ****     OS_ERR   err;
 580              		.loc 1 192 1 is_stmt 0 view .LVU182
 581 0000 70B5     		push	{r4, r5, r6, lr}
 582              		.cfi_def_cfa_offset 16
 583              		.cfi_offset 4, -16
 584              		.cfi_offset 5, -12
 585              		.cfi_offset 6, -8
 586              		.cfi_offset 14, -4
 587 0002 82B0     		sub	sp, sp, #8
 588              		.cfi_def_cfa_offset 24
 589 0004 0500     		movs	r5, r0
ARM GAS  C:\Users\EDULU~1.DES\AppData\Local\Temp\ccVS5xnG.s 			page 20


 193:..\..\..\..\..\..\Software\uCOS-III\Source/os_stat.c ****     OS_TICK  dly;
 590              		.loc 1 193 5 is_stmt 1 view .LVU183
 194:..\..\..\..\..\..\Software\uCOS-III\Source/os_stat.c ****     CPU_SR_ALLOC();
 591              		.loc 1 194 5 view .LVU184
 195:..\..\..\..\..\..\Software\uCOS-III\Source/os_stat.c **** 
 592              		.loc 1 195 5 view .LVU185
 593              	.LVL78:
 207:..\..\..\..\..\..\Software\uCOS-III\Source/os_stat.c ****     if (err != OS_ERR_NONE) {
 594              		.loc 1 207 5 view .LVU186
 595 0006 6B46     		mov	r3, sp
 596 0008 9C1D     		adds	r4, r3, #6
 597 000a 2100     		movs	r1, r4
 598 000c 2A48     		ldr	r0, .L36
 599              	.LVL79:
 207:..\..\..\..\..\..\Software\uCOS-III\Source/os_stat.c ****     if (err != OS_ERR_NONE) {
 600              		.loc 1 207 5 is_stmt 0 view .LVU187
 601 000e FFF7FEFF 		bl	OSTaskSuspend
 602              	.LVL80:
 208:..\..\..\..\..\..\Software\uCOS-III\Source/os_stat.c ****        *p_err = err;
 603              		.loc 1 208 5 is_stmt 1 view .LVU188
 208:..\..\..\..\..\..\Software\uCOS-III\Source/os_stat.c ****        *p_err = err;
 604              		.loc 1 208 13 is_stmt 0 view .LVU189
 605 0012 2388     		ldrh	r3, [r4]
 208:..\..\..\..\..\..\Software\uCOS-III\Source/os_stat.c ****        *p_err = err;
 606              		.loc 1 208 8 view .LVU190
 607 0014 002B     		cmp	r3, #0
 608 0016 02D0     		beq	.L29
 209:..\..\..\..\..\..\Software\uCOS-III\Source/os_stat.c ****         return;
 609              		.loc 1 209 8 is_stmt 1 view .LVU191
 209:..\..\..\..\..\..\Software\uCOS-III\Source/os_stat.c ****         return;
 610              		.loc 1 209 15 is_stmt 0 view .LVU192
 611 0018 2B80     		strh	r3, [r5]
 210:..\..\..\..\..\..\Software\uCOS-III\Source/os_stat.c ****     }
 612              		.loc 1 210 9 is_stmt 1 view .LVU193
 613              	.LVL81:
 614              	.L28:
 252:..\..\..\..\..\..\Software\uCOS-III\Source/os_stat.c **** 
 615              		.loc 1 252 1 is_stmt 0 view .LVU194
 616 001a 02B0     		add	sp, sp, #8
 617              		@ sp needed
 618              	.LVL82:
 252:..\..\..\..\..\..\Software\uCOS-III\Source/os_stat.c **** 
 619              		.loc 1 252 1 view .LVU195
 620 001c 70BD     		pop	{r4, r5, r6, pc}
 621              	.LVL83:
 622              	.L29:
 214:..\..\..\..\..\..\Software\uCOS-III\Source/os_stat.c ****               (OS_OPT  )OS_OPT_TIME_DLY,
 623              		.loc 1 214 5 is_stmt 1 view .LVU196
 624 001e 6B46     		mov	r3, sp
 625 0020 9C1D     		adds	r4, r3, #6
 626 0022 2200     		movs	r2, r4
 627 0024 0021     		movs	r1, #0
 628 0026 0220     		movs	r0, #2
 629 0028 FFF7FEFF 		bl	OSTimeDly
 630              	.LVL84:
 217:..\..\..\..\..\..\Software\uCOS-III\Source/os_stat.c ****        *p_err = err;
 631              		.loc 1 217 5 view .LVU197
ARM GAS  C:\Users\EDULU~1.DES\AppData\Local\Temp\ccVS5xnG.s 			page 21


 217:..\..\..\..\..\..\Software\uCOS-III\Source/os_stat.c ****        *p_err = err;
 632              		.loc 1 217 13 is_stmt 0 view .LVU198
 633 002c 2388     		ldrh	r3, [r4]
 217:..\..\..\..\..\..\Software\uCOS-III\Source/os_stat.c ****        *p_err = err;
 634              		.loc 1 217 8 view .LVU199
 635 002e 002B     		cmp	r3, #0
 636 0030 01D0     		beq	.L31
 218:..\..\..\..\..\..\Software\uCOS-III\Source/os_stat.c ****         return;
 637              		.loc 1 218 8 is_stmt 1 view .LVU200
 218:..\..\..\..\..\..\Software\uCOS-III\Source/os_stat.c ****         return;
 638              		.loc 1 218 15 is_stmt 0 view .LVU201
 639 0032 2B80     		strh	r3, [r5]
 219:..\..\..\..\..\..\Software\uCOS-III\Source/os_stat.c ****     }
 640              		.loc 1 219 9 is_stmt 1 view .LVU202
 641 0034 F1E7     		b	.L28
 642              	.L31:
 221:..\..\..\..\..\..\Software\uCOS-III\Source/os_stat.c ****     OSStatTaskCtr = (OS_TICK)0;                             /* Clear idle counter                  
 643              		.loc 1 221 5 view .LVU203
 221:..\..\..\..\..\..\Software\uCOS-III\Source/os_stat.c ****     OSStatTaskCtr = (OS_TICK)0;                             /* Clear idle counter                  
 644              		.loc 1 221 5 view .LVU204
 221:..\..\..\..\..\..\Software\uCOS-III\Source/os_stat.c ****     OSStatTaskCtr = (OS_TICK)0;                             /* Clear idle counter                  
 645              		.loc 1 221 5 view .LVU205
 646 0036 FFF7FEFF 		bl	CPU_SR_Save
 647              	.LVL85:
 648 003a 0400     		movs	r4, r0
 649              	.LVL86:
 221:..\..\..\..\..\..\Software\uCOS-III\Source/os_stat.c ****     OSStatTaskCtr = (OS_TICK)0;                             /* Clear idle counter                  
 650              		.loc 1 221 5 view .LVU206
 651 003c FFF7FEFF 		bl	CPU_IntDisMeasStart
 652              	.LVL87:
 222:..\..\..\..\..\..\Software\uCOS-III\Source/os_stat.c ****     CPU_CRITICAL_EXIT();
 653              		.loc 1 222 5 view .LVU207
 222:..\..\..\..\..\..\Software\uCOS-III\Source/os_stat.c ****     CPU_CRITICAL_EXIT();
 654              		.loc 1 222 19 is_stmt 0 view .LVU208
 655 0040 1E4B     		ldr	r3, .L36+4
 656 0042 0022     		movs	r2, #0
 657 0044 1A60     		str	r2, [r3]
 223:..\..\..\..\..\..\Software\uCOS-III\Source/os_stat.c **** 
 658              		.loc 1 223 5 is_stmt 1 view .LVU209
 223:..\..\..\..\..\..\Software\uCOS-III\Source/os_stat.c **** 
 659              		.loc 1 223 5 view .LVU210
 660 0046 FFF7FEFF 		bl	CPU_IntDisMeasStop
 661              	.LVL88:
 223:..\..\..\..\..\..\Software\uCOS-III\Source/os_stat.c **** 
 662              		.loc 1 223 5 view .LVU211
 223:..\..\..\..\..\..\Software\uCOS-III\Source/os_stat.c **** 
 663              		.loc 1 223 5 view .LVU212
 664 004a 2000     		movs	r0, r4
 665 004c FFF7FEFF 		bl	CPU_SR_Restore
 666              	.LVL89:
 225:..\..\..\..\..\..\Software\uCOS-III\Source/os_stat.c ****     if (OSCfg_TickRate_Hz > OSCfg_StatTaskRate_Hz) {
 667              		.loc 1 225 5 view .LVU213
 226:..\..\..\..\..\..\Software\uCOS-III\Source/os_stat.c ****         dly = (OS_TICK)(OSCfg_TickRate_Hz / OSCfg_StatTaskRate_Hz);
 668              		.loc 1 226 5 view .LVU214
 226:..\..\..\..\..\..\Software\uCOS-III\Source/os_stat.c ****         dly = (OS_TICK)(OSCfg_TickRate_Hz / OSCfg_StatTaskRate_Hz);
 669              		.loc 1 226 27 is_stmt 0 view .LVU215
 670 0050 1B4B     		ldr	r3, .L36+8
ARM GAS  C:\Users\EDULU~1.DES\AppData\Local\Temp\ccVS5xnG.s 			page 22


 671 0052 1C68     		ldr	r4, [r3]
 672              	.LVL90:
 226:..\..\..\..\..\..\Software\uCOS-III\Source/os_stat.c ****         dly = (OS_TICK)(OSCfg_TickRate_Hz / OSCfg_StatTaskRate_Hz);
 673              		.loc 1 226 27 view .LVU216
 674 0054 1B4B     		ldr	r3, .L36+12
 675 0056 1968     		ldr	r1, [r3]
 226:..\..\..\..\..\..\Software\uCOS-III\Source/os_stat.c ****         dly = (OS_TICK)(OSCfg_TickRate_Hz / OSCfg_StatTaskRate_Hz);
 676              		.loc 1 226 8 view .LVU217
 677 0058 8C42     		cmp	r4, r1
 678 005a 04D9     		bls	.L32
 227:..\..\..\..\..\..\Software\uCOS-III\Source/os_stat.c ****     }
 679              		.loc 1 227 9 is_stmt 1 view .LVU218
 227:..\..\..\..\..\..\Software\uCOS-III\Source/os_stat.c ****     }
 680              		.loc 1 227 13 is_stmt 0 view .LVU219
 681 005c 2000     		movs	r0, r4
 682 005e FFF7FEFF 		bl	__aeabi_uidiv
 683              	.LVL91:
 229:..\..\..\..\..\..\Software\uCOS-III\Source/os_stat.c ****         dly =  (OS_TICK)(OSCfg_TickRate_Hz / (OS_RATE_HZ)10);
 684              		.loc 1 229 5 is_stmt 1 view .LVU220
 229:..\..\..\..\..\..\Software\uCOS-III\Source/os_stat.c ****         dly =  (OS_TICK)(OSCfg_TickRate_Hz / (OS_RATE_HZ)10);
 685              		.loc 1 229 8 is_stmt 0 view .LVU221
 686 0062 0028     		cmp	r0, #0
 687 0064 03D1     		bne	.L33
 688              	.LVL92:
 689              	.L32:
 230:..\..\..\..\..\..\Software\uCOS-III\Source/os_stat.c ****     }
 690              		.loc 1 230 9 is_stmt 1 view .LVU222
 230:..\..\..\..\..\..\Software\uCOS-III\Source/os_stat.c ****     }
 691              		.loc 1 230 13 is_stmt 0 view .LVU223
 692 0066 0A21     		movs	r1, #10
 693 0068 2000     		movs	r0, r4
 694 006a FFF7FEFF 		bl	__aeabi_uidiv
 695              	.LVL93:
 696              	.L33:
 233:..\..\..\..\..\..\Software\uCOS-III\Source/os_stat.c ****               OS_OPT_TIME_DLY,
 697              		.loc 1 233 5 is_stmt 1 view .LVU224
 698 006e 6B46     		mov	r3, sp
 699 0070 9C1D     		adds	r4, r3, #6
 700 0072 2200     		movs	r2, r4
 701 0074 0021     		movs	r1, #0
 702 0076 FFF7FEFF 		bl	OSTimeDly
 703              	.LVL94:
 238:..\..\..\..\..\..\Software\uCOS-III\Source/os_stat.c ****     if (err != OS_ERR_NONE) {
 704              		.loc 1 238 5 view .LVU225
 705 007a 2100     		movs	r1, r4
 706 007c 0E48     		ldr	r0, .L36
 707 007e FFF7FEFF 		bl	OSTaskResume
 708              	.LVL95:
 239:..\..\..\..\..\..\Software\uCOS-III\Source/os_stat.c ****        *p_err = err;
 709              		.loc 1 239 5 view .LVU226
 239:..\..\..\..\..\..\Software\uCOS-III\Source/os_stat.c ****        *p_err = err;
 710              		.loc 1 239 13 is_stmt 0 view .LVU227
 711 0082 2388     		ldrh	r3, [r4]
 239:..\..\..\..\..\..\Software\uCOS-III\Source/os_stat.c ****        *p_err = err;
 712              		.loc 1 239 8 view .LVU228
 713 0084 002B     		cmp	r3, #0
 714 0086 01D0     		beq	.L34
ARM GAS  C:\Users\EDULU~1.DES\AppData\Local\Temp\ccVS5xnG.s 			page 23


 240:..\..\..\..\..\..\Software\uCOS-III\Source/os_stat.c ****         return;
 715              		.loc 1 240 8 is_stmt 1 view .LVU229
 240:..\..\..\..\..\..\Software\uCOS-III\Source/os_stat.c ****         return;
 716              		.loc 1 240 15 is_stmt 0 view .LVU230
 717 0088 2B80     		strh	r3, [r5]
 241:..\..\..\..\..\..\Software\uCOS-III\Source/os_stat.c ****     }
 718              		.loc 1 241 9 is_stmt 1 view .LVU231
 719 008a C6E7     		b	.L28
 720              	.L34:
 245:..\..\..\..\..\..\Software\uCOS-III\Source/os_stat.c ****     OSStatTaskTimeMax = (CPU_TS)0;
 721              		.loc 1 245 5 view .LVU232
 245:..\..\..\..\..\..\Software\uCOS-III\Source/os_stat.c ****     OSStatTaskTimeMax = (CPU_TS)0;
 722              		.loc 1 245 5 view .LVU233
 245:..\..\..\..\..\..\Software\uCOS-III\Source/os_stat.c ****     OSStatTaskTimeMax = (CPU_TS)0;
 723              		.loc 1 245 5 view .LVU234
 724 008c FFF7FEFF 		bl	CPU_SR_Save
 725              	.LVL96:
 726 0090 0600     		movs	r6, r0
 727              	.LVL97:
 245:..\..\..\..\..\..\Software\uCOS-III\Source/os_stat.c ****     OSStatTaskTimeMax = (CPU_TS)0;
 728              		.loc 1 245 5 view .LVU235
 729 0092 FFF7FEFF 		bl	CPU_IntDisMeasStart
 730              	.LVL98:
 246:..\..\..\..\..\..\Software\uCOS-III\Source/os_stat.c **** 
 731              		.loc 1 246 5 view .LVU236
 246:..\..\..\..\..\..\Software\uCOS-III\Source/os_stat.c **** 
 732              		.loc 1 246 23 is_stmt 0 view .LVU237
 733 0096 0024     		movs	r4, #0
 734 0098 0B4B     		ldr	r3, .L36+16
 735 009a 1C60     		str	r4, [r3]
 248:..\..\..\..\..\..\Software\uCOS-III\Source/os_stat.c ****     OSStatTaskRdy     = OS_STATE_RDY;
 736              		.loc 1 248 5 is_stmt 1 view .LVU238
 248:..\..\..\..\..\..\Software\uCOS-III\Source/os_stat.c ****     OSStatTaskRdy     = OS_STATE_RDY;
 737              		.loc 1 248 23 is_stmt 0 view .LVU239
 738 009c 074B     		ldr	r3, .L36+4
 739 009e 1A68     		ldr	r2, [r3]
 740 00a0 0A4B     		ldr	r3, .L36+20
 741 00a2 1A60     		str	r2, [r3]
 249:..\..\..\..\..\..\Software\uCOS-III\Source/os_stat.c ****     CPU_CRITICAL_EXIT();
 742              		.loc 1 249 5 is_stmt 1 view .LVU240
 249:..\..\..\..\..\..\Software\uCOS-III\Source/os_stat.c ****     CPU_CRITICAL_EXIT();
 743              		.loc 1 249 23 is_stmt 0 view .LVU241
 744 00a4 0A4B     		ldr	r3, .L36+24
 745 00a6 0122     		movs	r2, #1
 746 00a8 1A70     		strb	r2, [r3]
 250:..\..\..\..\..\..\Software\uCOS-III\Source/os_stat.c ****    *p_err             = OS_ERR_NONE;
 747              		.loc 1 250 5 is_stmt 1 view .LVU242
 250:..\..\..\..\..\..\Software\uCOS-III\Source/os_stat.c ****    *p_err             = OS_ERR_NONE;
 748              		.loc 1 250 5 view .LVU243
 749 00aa FFF7FEFF 		bl	CPU_IntDisMeasStop
 750              	.LVL99:
 250:..\..\..\..\..\..\Software\uCOS-III\Source/os_stat.c ****    *p_err             = OS_ERR_NONE;
 751              		.loc 1 250 5 view .LVU244
 250:..\..\..\..\..\..\Software\uCOS-III\Source/os_stat.c ****    *p_err             = OS_ERR_NONE;
 752              		.loc 1 250 5 view .LVU245
 753 00ae 3000     		movs	r0, r6
 754 00b0 FFF7FEFF 		bl	CPU_SR_Restore
ARM GAS  C:\Users\EDULU~1.DES\AppData\Local\Temp\ccVS5xnG.s 			page 24


 755              	.LVL100:
 251:..\..\..\..\..\..\Software\uCOS-III\Source/os_stat.c **** }
 756              		.loc 1 251 4 view .LVU246
 251:..\..\..\..\..\..\Software\uCOS-III\Source/os_stat.c **** }
 757              		.loc 1 251 23 is_stmt 0 view .LVU247
 758 00b4 2C80     		strh	r4, [r5]
 759 00b6 B0E7     		b	.L28
 760              	.L37:
 761              		.align	2
 762              	.L36:
 763 00b8 00000000 		.word	OSTmrTaskTCB
 764 00bc 00000000 		.word	OSStatTaskCtr
 765 00c0 00000000 		.word	OSCfg_TickRate_Hz
 766 00c4 00000000 		.word	OSCfg_StatTaskRate_Hz
 767 00c8 00000000 		.word	OSStatTaskTimeMax
 768 00cc 00000000 		.word	OSStatTaskCtrMax
 769 00d0 00000000 		.word	OSStatTaskRdy
 770              		.cfi_endproc
 771              	.LFE4:
 772              		.size	OSStatTaskCPUUsageInit, .-OSStatTaskCPUUsageInit
 773              		.section	.text.OS_StatTaskInit,"ax",%progbits
 774              		.align	1
 775              		.global	OS_StatTaskInit
 776              		.syntax unified
 777              		.code	16
 778              		.thumb_func
 779              		.fpu softvfp
 780              		.type	OS_StatTaskInit, %function
 781              	OS_StatTaskInit:
 782              	.LVL101:
 783              	.LFB6:
 446:..\..\..\..\..\..\Software\uCOS-III\Source/os_stat.c ****                   OS_OPT_TIME_DLY,
 447:..\..\..\..\..\..\Software\uCOS-III\Source/os_stat.c ****                   &err);
 448:..\..\..\..\..\..\Software\uCOS-III\Source/os_stat.c ****     }
 449:..\..\..\..\..\..\Software\uCOS-III\Source/os_stat.c **** }
 450:..\..\..\..\..\..\Software\uCOS-III\Source/os_stat.c **** 
 451:..\..\..\..\..\..\Software\uCOS-III\Source/os_stat.c **** /*$PAGE*/
 452:..\..\..\..\..\..\Software\uCOS-III\Source/os_stat.c **** /*
 453:..\..\..\..\..\..\Software\uCOS-III\Source/os_stat.c **** ***************************************************************************************************
 454:..\..\..\..\..\..\Software\uCOS-III\Source/os_stat.c **** *                                              INITIALIZE THE STATISTICS
 455:..\..\..\..\..\..\Software\uCOS-III\Source/os_stat.c **** *
 456:..\..\..\..\..\..\Software\uCOS-III\Source/os_stat.c **** * Description: This function is called by OSInit() to initialize the statistic task.
 457:..\..\..\..\..\..\Software\uCOS-III\Source/os_stat.c **** *
 458:..\..\..\..\..\..\Software\uCOS-III\Source/os_stat.c **** * Argument(s): p_err     is a pointer to a variable that will contain an error code returned by thi
 459:..\..\..\..\..\..\Software\uCOS-III\Source/os_stat.c **** *
 460:..\..\..\..\..\..\Software\uCOS-III\Source/os_stat.c **** *                            OS_ERR_STK_INVALID       If you specified a NULL stack pointer during 
 461:..\..\..\..\..\..\Software\uCOS-III\Source/os_stat.c **** *                            OS_ERR_STK_SIZE_INVALID  If you didn't specify a large enough stack.
 462:..\..\..\..\..\..\Software\uCOS-III\Source/os_stat.c **** *                            OS_ERR_PRIO_INVALID      If you specified a priority for the statistic
 463:..\..\..\..\..\..\Software\uCOS-III\Source/os_stat.c **** *                                                     lower (i.e. higher number) than the idle task
 464:..\..\..\..\..\..\Software\uCOS-III\Source/os_stat.c **** *                            OS_ERR_xxx               An error code returned by OSTaskCreate()
 465:..\..\..\..\..\..\Software\uCOS-III\Source/os_stat.c **** *
 466:..\..\..\..\..\..\Software\uCOS-III\Source/os_stat.c **** * Returns    : none
 467:..\..\..\..\..\..\Software\uCOS-III\Source/os_stat.c **** *
 468:..\..\..\..\..\..\Software\uCOS-III\Source/os_stat.c **** * Note(s)    : This function is INTERNAL to uC/OS-III and your application should not call it.
 469:..\..\..\..\..\..\Software\uCOS-III\Source/os_stat.c **** ***************************************************************************************************
 470:..\..\..\..\..\..\Software\uCOS-III\Source/os_stat.c **** */
 471:..\..\..\..\..\..\Software\uCOS-III\Source/os_stat.c **** 
ARM GAS  C:\Users\EDULU~1.DES\AppData\Local\Temp\ccVS5xnG.s 			page 25


 472:..\..\..\..\..\..\Software\uCOS-III\Source/os_stat.c **** void  OS_StatTaskInit (OS_ERR  *p_err)
 473:..\..\..\..\..\..\Software\uCOS-III\Source/os_stat.c **** {
 784              		.loc 1 473 1 is_stmt 1 view -0
 785              		.cfi_startproc
 786              		@ args = 0, pretend = 0, frame = 0
 787              		@ frame_needed = 0, uses_anonymous_args = 0
 788              		.loc 1 473 1 is_stmt 0 view .LVU249
 789 0000 00B5     		push	{lr}
 790              		.cfi_def_cfa_offset 4
 791              		.cfi_offset 14, -4
 792 0002 8BB0     		sub	sp, sp, #44
 793              		.cfi_def_cfa_offset 48
 474:..\..\..\..\..\..\Software\uCOS-III\Source/os_stat.c **** #ifdef OS_SAFETY_CRITICAL
 475:..\..\..\..\..\..\Software\uCOS-III\Source/os_stat.c ****     if (p_err == (OS_ERR *)0) {
 476:..\..\..\..\..\..\Software\uCOS-III\Source/os_stat.c ****         OS_SAFETY_CRITICAL_EXCEPTION();
 477:..\..\..\..\..\..\Software\uCOS-III\Source/os_stat.c ****         return;
 478:..\..\..\..\..\..\Software\uCOS-III\Source/os_stat.c ****     }
 479:..\..\..\..\..\..\Software\uCOS-III\Source/os_stat.c **** #endif
 480:..\..\..\..\..\..\Software\uCOS-III\Source/os_stat.c **** 
 481:..\..\..\..\..\..\Software\uCOS-III\Source/os_stat.c ****     OSStatTaskCtr    = (OS_TICK)0;
 794              		.loc 1 481 5 is_stmt 1 view .LVU250
 795              		.loc 1 481 22 is_stmt 0 view .LVU251
 796 0004 0023     		movs	r3, #0
 797 0006 1B4A     		ldr	r2, .L45
 798 0008 1360     		str	r3, [r2]
 482:..\..\..\..\..\..\Software\uCOS-III\Source/os_stat.c ****     OSStatTaskCtrRun = (OS_TICK)0;
 799              		.loc 1 482 5 is_stmt 1 view .LVU252
 800              		.loc 1 482 22 is_stmt 0 view .LVU253
 801 000a 1B4A     		ldr	r2, .L45+4
 802 000c 1360     		str	r3, [r2]
 483:..\..\..\..\..\..\Software\uCOS-III\Source/os_stat.c ****     OSStatTaskCtrMax = (OS_TICK)0;
 803              		.loc 1 483 5 is_stmt 1 view .LVU254
 804              		.loc 1 483 22 is_stmt 0 view .LVU255
 805 000e 1B4A     		ldr	r2, .L45+8
 806 0010 1360     		str	r3, [r2]
 484:..\..\..\..\..\..\Software\uCOS-III\Source/os_stat.c ****     OSStatTaskRdy    = OS_STATE_NOT_RDY;                    /* Statistic task is not ready         
 807              		.loc 1 484 5 is_stmt 1 view .LVU256
 808              		.loc 1 484 22 is_stmt 0 view .LVU257
 809 0012 1B4A     		ldr	r2, .L45+12
 810 0014 1370     		strb	r3, [r2]
 485:..\..\..\..\..\..\Software\uCOS-III\Source/os_stat.c ****     OSStatResetFlag  = DEF_FALSE;
 811              		.loc 1 485 5 is_stmt 1 view .LVU258
 812              		.loc 1 485 22 is_stmt 0 view .LVU259
 813 0016 1B4A     		ldr	r2, .L45+16
 814 0018 1370     		strb	r3, [r2]
 486:..\..\..\..\..\..\Software\uCOS-III\Source/os_stat.c **** 
 487:..\..\..\..\..\..\Software\uCOS-III\Source/os_stat.c ****                                                             /* ---------------- CREATE THE STAT TAS
 488:..\..\..\..\..\..\Software\uCOS-III\Source/os_stat.c ****     if (OSCfg_StatTaskStkBasePtr == (CPU_STK *)0) {
 815              		.loc 1 488 5 is_stmt 1 view .LVU260
 816              		.loc 1 488 34 is_stmt 0 view .LVU261
 817 001a 1B4B     		ldr	r3, .L45+20
 818 001c 1B68     		ldr	r3, [r3]
 819              		.loc 1 488 8 view .LVU262
 820 001e 002B     		cmp	r3, #0
 821 0020 0CD0     		beq	.L43
 489:..\..\..\..\..\..\Software\uCOS-III\Source/os_stat.c ****        *p_err = OS_ERR_STAT_STK_INVALID;
 490:..\..\..\..\..\..\Software\uCOS-III\Source/os_stat.c ****         return;
ARM GAS  C:\Users\EDULU~1.DES\AppData\Local\Temp\ccVS5xnG.s 			page 26


 491:..\..\..\..\..\..\Software\uCOS-III\Source/os_stat.c ****     }
 492:..\..\..\..\..\..\Software\uCOS-III\Source/os_stat.c **** 
 493:..\..\..\..\..\..\Software\uCOS-III\Source/os_stat.c ****     if (OSCfg_StatTaskStkSize < OSCfg_StkSizeMin) {
 822              		.loc 1 493 5 is_stmt 1 view .LVU263
 823              		.loc 1 493 31 is_stmt 0 view .LVU264
 824 0022 1A4A     		ldr	r2, .L45+24
 825 0024 1268     		ldr	r2, [r2]
 826 0026 1A49     		ldr	r1, .L45+28
 827 0028 0968     		ldr	r1, [r1]
 828              		.loc 1 493 8 view .LVU265
 829 002a 8A42     		cmp	r2, r1
 830 002c 09D3     		bcc	.L44
 494:..\..\..\..\..\..\Software\uCOS-III\Source/os_stat.c ****        *p_err = OS_ERR_STAT_STK_SIZE_INVALID;
 495:..\..\..\..\..\..\Software\uCOS-III\Source/os_stat.c ****         return;
 496:..\..\..\..\..\..\Software\uCOS-III\Source/os_stat.c ****     }
 497:..\..\..\..\..\..\Software\uCOS-III\Source/os_stat.c **** 
 498:..\..\..\..\..\..\Software\uCOS-III\Source/os_stat.c ****     if (OSCfg_StatTaskPrio >= (OS_CFG_PRIO_MAX - 1u)) {
 831              		.loc 1 498 5 is_stmt 1 view .LVU266
 832              		.loc 1 498 28 is_stmt 0 view .LVU267
 833 002e 1949     		ldr	r1, .L45+32
 834 0030 0978     		ldrb	r1, [r1]
 835              		.loc 1 498 8 view .LVU268
 836 0032 1E29     		cmp	r1, #30
 837 0034 09D9     		bls	.L42
 499:..\..\..\..\..\..\Software\uCOS-III\Source/os_stat.c ****        *p_err = OS_ERR_STAT_PRIO_INVALID;
 838              		.loc 1 499 8 is_stmt 1 view .LVU269
 839              		.loc 1 499 15 is_stmt 0 view .LVU270
 840 0036 184B     		ldr	r3, .L45+36
 841 0038 0380     		strh	r3, [r0]
 500:..\..\..\..\..\..\Software\uCOS-III\Source/os_stat.c ****         return;
 842              		.loc 1 500 9 is_stmt 1 view .LVU271
 843 003a 04E0     		b	.L38
 844              	.L43:
 489:..\..\..\..\..\..\Software\uCOS-III\Source/os_stat.c ****         return;
 845              		.loc 1 489 8 view .LVU272
 489:..\..\..\..\..\..\Software\uCOS-III\Source/os_stat.c ****         return;
 846              		.loc 1 489 15 is_stmt 0 view .LVU273
 847 003c 174B     		ldr	r3, .L45+40
 848 003e 0380     		strh	r3, [r0]
 490:..\..\..\..\..\..\Software\uCOS-III\Source/os_stat.c ****     }
 849              		.loc 1 490 9 is_stmt 1 view .LVU274
 850 0040 01E0     		b	.L38
 851              	.L44:
 494:..\..\..\..\..\..\Software\uCOS-III\Source/os_stat.c ****         return;
 852              		.loc 1 494 8 view .LVU275
 494:..\..\..\..\..\..\Software\uCOS-III\Source/os_stat.c ****         return;
 853              		.loc 1 494 15 is_stmt 0 view .LVU276
 854 0042 174B     		ldr	r3, .L45+44
 855 0044 0380     		strh	r3, [r0]
 495:..\..\..\..\..\..\Software\uCOS-III\Source/os_stat.c ****     }
 856              		.loc 1 495 9 is_stmt 1 view .LVU277
 857              	.LVL102:
 858              	.L38:
 501:..\..\..\..\..\..\Software\uCOS-III\Source/os_stat.c ****     }
 502:..\..\..\..\..\..\Software\uCOS-III\Source/os_stat.c **** 
 503:..\..\..\..\..\..\Software\uCOS-III\Source/os_stat.c ****     OSTaskCreate((OS_TCB     *)&OSStatTaskTCB,
 504:..\..\..\..\..\..\Software\uCOS-III\Source/os_stat.c ****                  (CPU_CHAR   *)((void *)"uC/OS-III Stat Task"),
ARM GAS  C:\Users\EDULU~1.DES\AppData\Local\Temp\ccVS5xnG.s 			page 27


 505:..\..\..\..\..\..\Software\uCOS-III\Source/os_stat.c ****                  (OS_TASK_PTR )OS_StatTask,
 506:..\..\..\..\..\..\Software\uCOS-III\Source/os_stat.c ****                  (void       *)0,
 507:..\..\..\..\..\..\Software\uCOS-III\Source/os_stat.c ****                  (OS_PRIO     )OSCfg_StatTaskPrio,
 508:..\..\..\..\..\..\Software\uCOS-III\Source/os_stat.c ****                  (CPU_STK    *)OSCfg_StatTaskStkBasePtr,
 509:..\..\..\..\..\..\Software\uCOS-III\Source/os_stat.c ****                  (CPU_STK_SIZE)OSCfg_StatTaskStkLimit,
 510:..\..\..\..\..\..\Software\uCOS-III\Source/os_stat.c ****                  (CPU_STK_SIZE)OSCfg_StatTaskStkSize,
 511:..\..\..\..\..\..\Software\uCOS-III\Source/os_stat.c ****                  (OS_MSG_QTY  )0,
 512:..\..\..\..\..\..\Software\uCOS-III\Source/os_stat.c ****                  (OS_TICK     )0,
 513:..\..\..\..\..\..\Software\uCOS-III\Source/os_stat.c ****                  (void       *)0,
 514:..\..\..\..\..\..\Software\uCOS-III\Source/os_stat.c ****                  (OS_OPT      )(OS_OPT_TASK_STK_CHK | OS_OPT_TASK_STK_CLR),
 515:..\..\..\..\..\..\Software\uCOS-III\Source/os_stat.c ****                  (OS_ERR     *)p_err);
 516:..\..\..\..\..\..\Software\uCOS-III\Source/os_stat.c **** }
 859              		.loc 1 516 1 is_stmt 0 view .LVU278
 860 0046 0BB0     		add	sp, sp, #44
 861              		@ sp needed
 862 0048 00BD     		pop	{pc}
 863              	.LVL103:
 864              	.L42:
 503:..\..\..\..\..\..\Software\uCOS-III\Source/os_stat.c ****                  (CPU_CHAR   *)((void *)"uC/OS-III Stat Task"),
 865              		.loc 1 503 5 is_stmt 1 view .LVU279
 866 004a 0890     		str	r0, [sp, #32]
 867 004c 0320     		movs	r0, #3
 868              	.LVL104:
 503:..\..\..\..\..\..\Software\uCOS-III\Source/os_stat.c ****                  (CPU_CHAR   *)((void *)"uC/OS-III Stat Task"),
 869              		.loc 1 503 5 is_stmt 0 view .LVU280
 870 004e 0790     		str	r0, [sp, #28]
 871 0050 0020     		movs	r0, #0
 872 0052 0690     		str	r0, [sp, #24]
 873 0054 0590     		str	r0, [sp, #20]
 874 0056 0490     		str	r0, [sp, #16]
 875 0058 0392     		str	r2, [sp, #12]
 876 005a 124A     		ldr	r2, .L45+48
 877 005c 1268     		ldr	r2, [r2]
 878 005e 0292     		str	r2, [sp, #8]
 879 0060 0193     		str	r3, [sp, #4]
 880 0062 0091     		str	r1, [sp]
 881 0064 0023     		movs	r3, #0
 882 0066 104A     		ldr	r2, .L45+52
 883 0068 1049     		ldr	r1, .L45+56
 884 006a 1148     		ldr	r0, .L45+60
 885 006c FFF7FEFF 		bl	OSTaskCreate
 886              	.LVL105:
 503:..\..\..\..\..\..\Software\uCOS-III\Source/os_stat.c ****                  (CPU_CHAR   *)((void *)"uC/OS-III Stat Task"),
 887              		.loc 1 503 5 view .LVU281
 888 0070 E9E7     		b	.L38
 889              	.L46:
 890 0072 C046     		.align	2
 891              	.L45:
 892 0074 00000000 		.word	OSStatTaskCtr
 893 0078 00000000 		.word	OSStatTaskCtrRun
 894 007c 00000000 		.word	OSStatTaskCtrMax
 895 0080 00000000 		.word	OSStatTaskRdy
 896 0084 00000000 		.word	OSStatResetFlag
 897 0088 00000000 		.word	OSCfg_StatTaskStkBasePtr
 898 008c 00000000 		.word	OSCfg_StatTaskStkSize
 899 0090 00000000 		.word	OSCfg_StkSizeMin
 900 0094 00000000 		.word	OSCfg_StatTaskPrio
ARM GAS  C:\Users\EDULU~1.DES\AppData\Local\Temp\ccVS5xnG.s 			page 28


 901 0098 2A6E0000 		.word	28202
 902 009c 2B6E0000 		.word	28203
 903 00a0 2C6E0000 		.word	28204
 904 00a4 00000000 		.word	OSCfg_StatTaskStkLimit
 905 00a8 00000000 		.word	OS_StatTask
 906 00ac 00000000 		.word	.LC35
 907 00b0 00000000 		.word	OSStatTaskTCB
 908              		.cfi_endproc
 909              	.LFE6:
 910              		.size	OS_StatTaskInit, .-OS_StatTaskInit
 911              		.section	.rodata.str1.4,"aMS",%progbits,1
 912              		.align	2
 913              	.LC35:
 914 0000 75432F4F 		.ascii	"uC/OS-III Stat Task\000"
 914      532D4949 
 914      49205374 
 914      61742054 
 914      61736B00 
 915              		.text
 916              	.Letext0:
 917              		.file 2 "..\\..\\..\\..\\..\\..\\Software\\uC-CPU\\ARM-Cortex-M0\\GNU/cpu.h"
 918              		.file 3 "c:\\program files (x86)\\gnu tools arm embedded\\8 2018-q4-major\\arm-none-eabi\\include\
 919              		.file 4 "c:\\program files (x86)\\gnu tools arm embedded\\8 2018-q4-major\\arm-none-eabi\\include\
 920              		.file 5 "c:\\program files (x86)\\gnu tools arm embedded\\8 2018-q4-major\\lib\\gcc\\arm-none-eabi
 921              		.file 6 "c:\\program files (x86)\\gnu tools arm embedded\\8 2018-q4-major\\arm-none-eabi\\include\
 922              		.file 7 "..\\..\\..\\..\\..\\..\\Software\\uC-CPU/cpu_core.h"
 923              		.file 8 "..\\..\\..\\..\\..\\..\\Software\\uCOS-III\\Source/os_type.h"
 924              		.file 9 "..\\..\\..\\..\\..\\..\\Software\\uCOS-III\\Ports\\ARM-Cortex-M0\\Generic\\GNU/os_cpu.h"
 925              		.file 10 "..\\..\\..\\..\\..\\..\\Software\\uCOS-III\\Source/os.h"