ARM GAS  C:\Users\EDULU~1.DES\AppData\Local\Temp\ccfRue3n.s 			page 1


   1              		.cpu cortex-m0
   2              		.eabi_attribute 20, 1
   3              		.eabi_attribute 21, 1
   4              		.eabi_attribute 23, 3
   5              		.eabi_attribute 24, 1
   6              		.eabi_attribute 25, 1
   7              		.eabi_attribute 26, 1
   8              		.eabi_attribute 30, 1
   9              		.eabi_attribute 34, 0
  10              		.eabi_attribute 18, 4
  11              		.file	"os_sem.c"
  12              		.text
  13              	.Ltext0:
  14              		.cfi_sections	.debug_frame
  15              		.section	.text.OSSemPend,"ax",%progbits
  16              		.align	1
  17              		.global	OSSemPend
  18              		.arch armv6s-m
  19              		.syntax unified
  20              		.code	16
  21              		.thumb_func
  22              		.fpu softvfp
  23              		.type	OSSemPend, %function
  24              	OSSemPend:
  25              	.LVL0:
  26              	.LFB4:
  27              		.file 1 "..\\..\\..\\..\\..\\..\\Software\\uCOS-III\\Source\\os_sem.c"
   1:..\..\..\..\..\..\Software\uCOS-III\Source/os_sem.c **** /*
   2:..\..\..\..\..\..\Software\uCOS-III\Source/os_sem.c **** ***************************************************************************************************
   3:..\..\..\..\..\..\Software\uCOS-III\Source/os_sem.c **** *                                                      uC/OS-III
   4:..\..\..\..\..\..\Software\uCOS-III\Source/os_sem.c **** *                                                 The Real-Time Kernel
   5:..\..\..\..\..\..\Software\uCOS-III\Source/os_sem.c **** *
   6:..\..\..\..\..\..\Software\uCOS-III\Source/os_sem.c **** *                                  (c) Copyright 2009-2012; Micrium, Inc.; Weston, FL
   7:..\..\..\..\..\..\Software\uCOS-III\Source/os_sem.c **** *                           All rights reserved.  Protected by international copyright laws.
   8:..\..\..\..\..\..\Software\uCOS-III\Source/os_sem.c **** *
   9:..\..\..\..\..\..\Software\uCOS-III\Source/os_sem.c **** *                                                 SEMAPHORE MANAGEMENT
  10:..\..\..\..\..\..\Software\uCOS-III\Source/os_sem.c **** *
  11:..\..\..\..\..\..\Software\uCOS-III\Source/os_sem.c **** * File    : OS_SEM.C
  12:..\..\..\..\..\..\Software\uCOS-III\Source/os_sem.c **** * By      : JJL
  13:..\..\..\..\..\..\Software\uCOS-III\Source/os_sem.c **** * Version : V3.03.01
  14:..\..\..\..\..\..\Software\uCOS-III\Source/os_sem.c **** *
  15:..\..\..\..\..\..\Software\uCOS-III\Source/os_sem.c **** * LICENSING TERMS:
  16:..\..\..\..\..\..\Software\uCOS-III\Source/os_sem.c **** * ---------------
  17:..\..\..\..\..\..\Software\uCOS-III\Source/os_sem.c **** *           uC/OS-III is provided in source form for FREE short-term evaluation, for educational us
  18:..\..\..\..\..\..\Software\uCOS-III\Source/os_sem.c **** *           for peaceful research.  If you plan or intend to use uC/OS-III in a commercial applicat
  19:..\..\..\..\..\..\Software\uCOS-III\Source/os_sem.c **** *           product then, you need to contact Micrium to properly license uC/OS-III for its use in 
  20:..\..\..\..\..\..\Software\uCOS-III\Source/os_sem.c **** *           application/product.   We provide ALL the source code for your convenience and to help 
  21:..\..\..\..\..\..\Software\uCOS-III\Source/os_sem.c **** *           experience uC/OS-III.  The fact that the source is provided does NOT mean that you can 
  22:..\..\..\..\..\..\Software\uCOS-III\Source/os_sem.c **** *           it commercially without paying a licensing fee.
  23:..\..\..\..\..\..\Software\uCOS-III\Source/os_sem.c **** *
  24:..\..\..\..\..\..\Software\uCOS-III\Source/os_sem.c **** *           Knowledge of the source code may NOT be used to develop a similar product.
  25:..\..\..\..\..\..\Software\uCOS-III\Source/os_sem.c **** *
  26:..\..\..\..\..\..\Software\uCOS-III\Source/os_sem.c **** *           Please help us continue to provide the embedded community with the finest software avai
  27:..\..\..\..\..\..\Software\uCOS-III\Source/os_sem.c **** *           Your honesty is greatly appreciated.
  28:..\..\..\..\..\..\Software\uCOS-III\Source/os_sem.c **** *
  29:..\..\..\..\..\..\Software\uCOS-III\Source/os_sem.c **** *           You can contact us at www.micrium.com, or by phone at +1 (954) 217-2036.
  30:..\..\..\..\..\..\Software\uCOS-III\Source/os_sem.c **** ***************************************************************************************************
ARM GAS  C:\Users\EDULU~1.DES\AppData\Local\Temp\ccfRue3n.s 			page 2


  31:..\..\..\..\..\..\Software\uCOS-III\Source/os_sem.c **** */
  32:..\..\..\..\..\..\Software\uCOS-III\Source/os_sem.c **** 
  33:..\..\..\..\..\..\Software\uCOS-III\Source/os_sem.c **** #define  MICRIUM_SOURCE
  34:..\..\..\..\..\..\Software\uCOS-III\Source/os_sem.c **** #include <os.h>
  35:..\..\..\..\..\..\Software\uCOS-III\Source/os_sem.c **** 
  36:..\..\..\..\..\..\Software\uCOS-III\Source/os_sem.c **** #ifdef VSC_INCLUDE_SOURCE_FILE_NAMES
  37:..\..\..\..\..\..\Software\uCOS-III\Source/os_sem.c **** const  CPU_CHAR  *os_sem__c = "$Id: $";
  38:..\..\..\..\..\..\Software\uCOS-III\Source/os_sem.c **** #endif
  39:..\..\..\..\..\..\Software\uCOS-III\Source/os_sem.c **** 
  40:..\..\..\..\..\..\Software\uCOS-III\Source/os_sem.c **** 
  41:..\..\..\..\..\..\Software\uCOS-III\Source/os_sem.c **** #if OS_CFG_SEM_EN > 0u
  42:..\..\..\..\..\..\Software\uCOS-III\Source/os_sem.c **** /*
  43:..\..\..\..\..\..\Software\uCOS-III\Source/os_sem.c **** ***************************************************************************************************
  44:..\..\..\..\..\..\Software\uCOS-III\Source/os_sem.c **** *                                                  CREATE A SEMAPHORE
  45:..\..\..\..\..\..\Software\uCOS-III\Source/os_sem.c **** *
  46:..\..\..\..\..\..\Software\uCOS-III\Source/os_sem.c **** * Description: This function creates a semaphore.
  47:..\..\..\..\..\..\Software\uCOS-III\Source/os_sem.c **** *
  48:..\..\..\..\..\..\Software\uCOS-III\Source/os_sem.c **** * Arguments  : p_sem         is a pointer to the semaphore to initialize.  Your application is resp
  49:..\..\..\..\..\..\Software\uCOS-III\Source/os_sem.c **** *                            allocating storage for the semaphore.
  50:..\..\..\..\..\..\Software\uCOS-III\Source/os_sem.c **** *
  51:..\..\..\..\..\..\Software\uCOS-III\Source/os_sem.c **** *              p_name        is a pointer to the name you would like to give the semaphore.
  52:..\..\..\..\..\..\Software\uCOS-III\Source/os_sem.c **** *
  53:..\..\..\..\..\..\Software\uCOS-III\Source/os_sem.c **** *              cnt           is the initial value for the semaphore.
  54:..\..\..\..\..\..\Software\uCOS-III\Source/os_sem.c **** *                            If used to share resources, you should initialize to the number of res
  55:..\..\..\..\..\..\Software\uCOS-III\Source/os_sem.c **** *                            If used to signal the occurrence of event(s) then you should initializ
  56:..\..\..\..\..\..\Software\uCOS-III\Source/os_sem.c **** *
  57:..\..\..\..\..\..\Software\uCOS-III\Source/os_sem.c **** *              p_err         is a pointer to a variable that will contain an error code returned by
  58:..\..\..\..\..\..\Software\uCOS-III\Source/os_sem.c **** *
  59:..\..\..\..\..\..\Software\uCOS-III\Source/os_sem.c **** *                                OS_ERR_NONE                    if the call was successful
  60:..\..\..\..\..\..\Software\uCOS-III\Source/os_sem.c **** *                                OS_ERR_CREATE_ISR              if you called this function from an
  61:..\..\..\..\..\..\Software\uCOS-III\Source/os_sem.c **** *                                OS_ERR_ILLEGAL_CREATE_RUN_TIME if you are trying to create the sem
  62:..\..\..\..\..\..\Software\uCOS-III\Source/os_sem.c **** *                                                                 called OSSafetyCriticalStart().
  63:..\..\..\..\..\..\Software\uCOS-III\Source/os_sem.c **** *                                OS_ERR_NAME                    if 'p_name' is a NULL pointer
  64:..\..\..\..\..\..\Software\uCOS-III\Source/os_sem.c **** *                                OS_ERR_OBJ_CREATED             if the semaphore has already been c
  65:..\..\..\..\..\..\Software\uCOS-III\Source/os_sem.c **** *                                OS_ERR_OBJ_PTR_NULL            if 'p_sem'  is a NULL pointer
  66:..\..\..\..\..\..\Software\uCOS-III\Source/os_sem.c **** *                                OS_ERR_OBJ_TYPE                if 'p_sem' has already been initial
  67:..\..\..\..\..\..\Software\uCOS-III\Source/os_sem.c **** *                                                               object type
  68:..\..\..\..\..\..\Software\uCOS-III\Source/os_sem.c **** *
  69:..\..\..\..\..\..\Software\uCOS-III\Source/os_sem.c **** * Returns    : none
  70:..\..\..\..\..\..\Software\uCOS-III\Source/os_sem.c **** ***************************************************************************************************
  71:..\..\..\..\..\..\Software\uCOS-III\Source/os_sem.c **** */
  72:..\..\..\..\..\..\Software\uCOS-III\Source/os_sem.c **** 
  73:..\..\..\..\..\..\Software\uCOS-III\Source/os_sem.c **** void  OSSemCreate (OS_SEM      *p_sem,
  74:..\..\..\..\..\..\Software\uCOS-III\Source/os_sem.c ****                    CPU_CHAR    *p_name,
  75:..\..\..\..\..\..\Software\uCOS-III\Source/os_sem.c ****                    OS_SEM_CTR   cnt,
  76:..\..\..\..\..\..\Software\uCOS-III\Source/os_sem.c ****                    OS_ERR      *p_err)
  77:..\..\..\..\..\..\Software\uCOS-III\Source/os_sem.c **** {
  78:..\..\..\..\..\..\Software\uCOS-III\Source/os_sem.c ****     CPU_SR_ALLOC();
  79:..\..\..\..\..\..\Software\uCOS-III\Source/os_sem.c **** 
  80:..\..\..\..\..\..\Software\uCOS-III\Source/os_sem.c **** 
  81:..\..\..\..\..\..\Software\uCOS-III\Source/os_sem.c **** 
  82:..\..\..\..\..\..\Software\uCOS-III\Source/os_sem.c **** #ifdef OS_SAFETY_CRITICAL
  83:..\..\..\..\..\..\Software\uCOS-III\Source/os_sem.c ****     if (p_err == (OS_ERR *)0) {
  84:..\..\..\..\..\..\Software\uCOS-III\Source/os_sem.c ****         OS_SAFETY_CRITICAL_EXCEPTION();
  85:..\..\..\..\..\..\Software\uCOS-III\Source/os_sem.c ****         return;
  86:..\..\..\..\..\..\Software\uCOS-III\Source/os_sem.c ****     }
  87:..\..\..\..\..\..\Software\uCOS-III\Source/os_sem.c **** #endif
ARM GAS  C:\Users\EDULU~1.DES\AppData\Local\Temp\ccfRue3n.s 			page 3


  88:..\..\..\..\..\..\Software\uCOS-III\Source/os_sem.c **** 
  89:..\..\..\..\..\..\Software\uCOS-III\Source/os_sem.c **** #ifdef OS_SAFETY_CRITICAL_IEC61508
  90:..\..\..\..\..\..\Software\uCOS-III\Source/os_sem.c ****     if (OSSafetyCriticalStartFlag == DEF_TRUE) {
  91:..\..\..\..\..\..\Software\uCOS-III\Source/os_sem.c ****        *p_err = OS_ERR_ILLEGAL_CREATE_RUN_TIME;
  92:..\..\..\..\..\..\Software\uCOS-III\Source/os_sem.c ****         return;
  93:..\..\..\..\..\..\Software\uCOS-III\Source/os_sem.c ****     }
  94:..\..\..\..\..\..\Software\uCOS-III\Source/os_sem.c **** #endif
  95:..\..\..\..\..\..\Software\uCOS-III\Source/os_sem.c **** 
  96:..\..\..\..\..\..\Software\uCOS-III\Source/os_sem.c **** #if OS_CFG_CALLED_FROM_ISR_CHK_EN > 0u
  97:..\..\..\..\..\..\Software\uCOS-III\Source/os_sem.c ****     if (OSIntNestingCtr > (OS_NESTING_CTR)0) {              /* Not allowed to be called from an ISR
  98:..\..\..\..\..\..\Software\uCOS-III\Source/os_sem.c ****        *p_err = OS_ERR_CREATE_ISR;
  99:..\..\..\..\..\..\Software\uCOS-III\Source/os_sem.c ****         return;
 100:..\..\..\..\..\..\Software\uCOS-III\Source/os_sem.c ****     }
 101:..\..\..\..\..\..\Software\uCOS-III\Source/os_sem.c **** #endif
 102:..\..\..\..\..\..\Software\uCOS-III\Source/os_sem.c **** 
 103:..\..\..\..\..\..\Software\uCOS-III\Source/os_sem.c **** #if OS_CFG_ARG_CHK_EN > 0u
 104:..\..\..\..\..\..\Software\uCOS-III\Source/os_sem.c ****     if (p_sem == (OS_SEM *)0) {                             /* Validate 'p_sem'                    
 105:..\..\..\..\..\..\Software\uCOS-III\Source/os_sem.c ****        *p_err = OS_ERR_OBJ_PTR_NULL;
 106:..\..\..\..\..\..\Software\uCOS-III\Source/os_sem.c ****         return;
 107:..\..\..\..\..\..\Software\uCOS-III\Source/os_sem.c ****     }
 108:..\..\..\..\..\..\Software\uCOS-III\Source/os_sem.c **** #endif
 109:..\..\..\..\..\..\Software\uCOS-III\Source/os_sem.c **** 
 110:..\..\..\..\..\..\Software\uCOS-III\Source/os_sem.c ****     OS_CRITICAL_ENTER();
 111:..\..\..\..\..\..\Software\uCOS-III\Source/os_sem.c ****     p_sem->Type    = OS_OBJ_TYPE_SEM;                       /* Mark the data structure as a semapho
 112:..\..\..\..\..\..\Software\uCOS-III\Source/os_sem.c ****     p_sem->Ctr     = cnt;                                   /* Set semaphore value                 
 113:..\..\..\..\..\..\Software\uCOS-III\Source/os_sem.c ****     p_sem->TS      = (CPU_TS)0;
 114:..\..\..\..\..\..\Software\uCOS-III\Source/os_sem.c ****     p_sem->NamePtr = p_name;                                /* Save the name of the semaphore      
 115:..\..\..\..\..\..\Software\uCOS-III\Source/os_sem.c ****     OS_PendListInit(&p_sem->PendList);                      /* Initialize the waiting list         
 116:..\..\..\..\..\..\Software\uCOS-III\Source/os_sem.c **** 
 117:..\..\..\..\..\..\Software\uCOS-III\Source/os_sem.c **** #if OS_CFG_DBG_EN > 0u
 118:..\..\..\..\..\..\Software\uCOS-III\Source/os_sem.c ****     OS_SemDbgListAdd(p_sem);
 119:..\..\..\..\..\..\Software\uCOS-III\Source/os_sem.c **** #endif
 120:..\..\..\..\..\..\Software\uCOS-III\Source/os_sem.c ****     OSSemQty++;
 121:..\..\..\..\..\..\Software\uCOS-III\Source/os_sem.c **** 
 122:..\..\..\..\..\..\Software\uCOS-III\Source/os_sem.c ****     OS_CRITICAL_EXIT_NO_SCHED();
 123:..\..\..\..\..\..\Software\uCOS-III\Source/os_sem.c ****    *p_err = OS_ERR_NONE;
 124:..\..\..\..\..\..\Software\uCOS-III\Source/os_sem.c **** }
 125:..\..\..\..\..\..\Software\uCOS-III\Source/os_sem.c **** 
 126:..\..\..\..\..\..\Software\uCOS-III\Source/os_sem.c **** /*$PAGE*/
 127:..\..\..\..\..\..\Software\uCOS-III\Source/os_sem.c **** /*
 128:..\..\..\..\..\..\Software\uCOS-III\Source/os_sem.c **** ***************************************************************************************************
 129:..\..\..\..\..\..\Software\uCOS-III\Source/os_sem.c **** *                                                  DELETE A SEMAPHORE
 130:..\..\..\..\..\..\Software\uCOS-III\Source/os_sem.c **** *
 131:..\..\..\..\..\..\Software\uCOS-III\Source/os_sem.c **** * Description: This function deletes a semaphore.
 132:..\..\..\..\..\..\Software\uCOS-III\Source/os_sem.c **** *
 133:..\..\..\..\..\..\Software\uCOS-III\Source/os_sem.c **** * Arguments  : p_sem         is a pointer to the semaphore to delete
 134:..\..\..\..\..\..\Software\uCOS-III\Source/os_sem.c **** *
 135:..\..\..\..\..\..\Software\uCOS-III\Source/os_sem.c **** *              opt           determines delete options as follows:
 136:..\..\..\..\..\..\Software\uCOS-III\Source/os_sem.c **** *
 137:..\..\..\..\..\..\Software\uCOS-III\Source/os_sem.c **** *                                OS_OPT_DEL_NO_PEND          Delete semaphore ONLY if no task pendi
 138:..\..\..\..\..\..\Software\uCOS-III\Source/os_sem.c **** *                                OS_OPT_DEL_ALWAYS           Deletes the semaphore even if tasks ar
 139:..\..\..\..\..\..\Software\uCOS-III\Source/os_sem.c **** *                                                            In this case, all the tasks pending wi
 140:..\..\..\..\..\..\Software\uCOS-III\Source/os_sem.c **** *
 141:..\..\..\..\..\..\Software\uCOS-III\Source/os_sem.c **** *              p_err         is a pointer to a variable that will contain an error code returned by
 142:..\..\..\..\..\..\Software\uCOS-III\Source/os_sem.c **** *
 143:..\..\..\..\..\..\Software\uCOS-III\Source/os_sem.c **** *                                OS_ERR_NONE                 The call was successful and the semaph
 144:..\..\..\..\..\..\Software\uCOS-III\Source/os_sem.c **** *                                OS_ERR_DEL_ISR              If you attempted to delete the semapho
ARM GAS  C:\Users\EDULU~1.DES\AppData\Local\Temp\ccfRue3n.s 			page 4


 145:..\..\..\..\..\..\Software\uCOS-III\Source/os_sem.c **** *                                OS_ERR_OBJ_PTR_NULL         If 'p_sem' is a NULL pointer.
 146:..\..\..\..\..\..\Software\uCOS-III\Source/os_sem.c **** *                                OS_ERR_OBJ_TYPE             If 'p_sem' is not pointing at a semaph
 147:..\..\..\..\..\..\Software\uCOS-III\Source/os_sem.c **** *                                OS_ERR_OPT_INVALID          An invalid option was specified
 148:..\..\..\..\..\..\Software\uCOS-III\Source/os_sem.c **** *                                OS_ERR_TASK_WAITING         One or more tasks were waiting on the 
 149:..\..\..\..\..\..\Software\uCOS-III\Source/os_sem.c **** *
 150:..\..\..\..\..\..\Software\uCOS-III\Source/os_sem.c **** * Returns    : == 0          if no tasks were waiting on the semaphore, or upon error.
 151:..\..\..\..\..\..\Software\uCOS-III\Source/os_sem.c **** *              >  0          if one or more tasks waiting on the semaphore are now readied and info
 152:..\..\..\..\..\..\Software\uCOS-III\Source/os_sem.c **** *
 153:..\..\..\..\..\..\Software\uCOS-III\Source/os_sem.c **** * Note(s)    : 1) This function must be used with care.  Tasks that would normally expect the prese
 154:..\..\..\..\..\..\Software\uCOS-III\Source/os_sem.c **** *                 MUST check the return code of OSSemPend().
 155:..\..\..\..\..\..\Software\uCOS-III\Source/os_sem.c **** *              2) OSSemAccept() callers will not know that the intended semaphore has been deleted.
 156:..\..\..\..\..\..\Software\uCOS-III\Source/os_sem.c **** *              3) Because ALL tasks pending on the semaphore will be readied, you MUST be careful i
 157:..\..\..\..\..\..\Software\uCOS-III\Source/os_sem.c **** *                 the semaphore is used for mutual exclusion because the resource(s) will no longer
 158:..\..\..\..\..\..\Software\uCOS-III\Source/os_sem.c **** *                 semaphore.
 159:..\..\..\..\..\..\Software\uCOS-III\Source/os_sem.c **** ***************************************************************************************************
 160:..\..\..\..\..\..\Software\uCOS-III\Source/os_sem.c **** */
 161:..\..\..\..\..\..\Software\uCOS-III\Source/os_sem.c **** 
 162:..\..\..\..\..\..\Software\uCOS-III\Source/os_sem.c **** #if OS_CFG_SEM_DEL_EN > 0u
 163:..\..\..\..\..\..\Software\uCOS-III\Source/os_sem.c **** OS_OBJ_QTY  OSSemDel (OS_SEM  *p_sem,
 164:..\..\..\..\..\..\Software\uCOS-III\Source/os_sem.c ****                       OS_OPT   opt,
 165:..\..\..\..\..\..\Software\uCOS-III\Source/os_sem.c ****                       OS_ERR  *p_err)
 166:..\..\..\..\..\..\Software\uCOS-III\Source/os_sem.c **** {
 167:..\..\..\..\..\..\Software\uCOS-III\Source/os_sem.c ****     OS_OBJ_QTY     cnt;
 168:..\..\..\..\..\..\Software\uCOS-III\Source/os_sem.c ****     OS_OBJ_QTY     nbr_tasks;
 169:..\..\..\..\..\..\Software\uCOS-III\Source/os_sem.c ****     OS_PEND_DATA  *p_pend_data;
 170:..\..\..\..\..\..\Software\uCOS-III\Source/os_sem.c ****     OS_PEND_LIST  *p_pend_list;
 171:..\..\..\..\..\..\Software\uCOS-III\Source/os_sem.c ****     OS_TCB        *p_tcb;
 172:..\..\..\..\..\..\Software\uCOS-III\Source/os_sem.c ****     CPU_TS         ts;
 173:..\..\..\..\..\..\Software\uCOS-III\Source/os_sem.c ****     CPU_SR_ALLOC();
 174:..\..\..\..\..\..\Software\uCOS-III\Source/os_sem.c **** 
 175:..\..\..\..\..\..\Software\uCOS-III\Source/os_sem.c **** 
 176:..\..\..\..\..\..\Software\uCOS-III\Source/os_sem.c **** 
 177:..\..\..\..\..\..\Software\uCOS-III\Source/os_sem.c **** #ifdef OS_SAFETY_CRITICAL
 178:..\..\..\..\..\..\Software\uCOS-III\Source/os_sem.c ****     if (p_err == (OS_ERR *)0) {
 179:..\..\..\..\..\..\Software\uCOS-III\Source/os_sem.c ****         OS_SAFETY_CRITICAL_EXCEPTION();
 180:..\..\..\..\..\..\Software\uCOS-III\Source/os_sem.c ****         return ((OS_OBJ_QTY)0);
 181:..\..\..\..\..\..\Software\uCOS-III\Source/os_sem.c ****     }
 182:..\..\..\..\..\..\Software\uCOS-III\Source/os_sem.c **** #endif
 183:..\..\..\..\..\..\Software\uCOS-III\Source/os_sem.c **** 
 184:..\..\..\..\..\..\Software\uCOS-III\Source/os_sem.c **** #if OS_CFG_CALLED_FROM_ISR_CHK_EN > 0u
 185:..\..\..\..\..\..\Software\uCOS-III\Source/os_sem.c ****     if (OSIntNestingCtr > (OS_NESTING_CTR)0) {              /* Not allowed to delete a semaphore fr
 186:..\..\..\..\..\..\Software\uCOS-III\Source/os_sem.c ****        *p_err = OS_ERR_DEL_ISR;
 187:..\..\..\..\..\..\Software\uCOS-III\Source/os_sem.c ****         return ((OS_OBJ_QTY)0);
 188:..\..\..\..\..\..\Software\uCOS-III\Source/os_sem.c ****     }
 189:..\..\..\..\..\..\Software\uCOS-III\Source/os_sem.c **** #endif
 190:..\..\..\..\..\..\Software\uCOS-III\Source/os_sem.c **** 
 191:..\..\..\..\..\..\Software\uCOS-III\Source/os_sem.c **** #if OS_CFG_ARG_CHK_EN > 0u
 192:..\..\..\..\..\..\Software\uCOS-III\Source/os_sem.c ****     if (p_sem == (OS_SEM *)0) {                             /* Validate 'p_sem'                    
 193:..\..\..\..\..\..\Software\uCOS-III\Source/os_sem.c ****        *p_err = OS_ERR_OBJ_PTR_NULL;
 194:..\..\..\..\..\..\Software\uCOS-III\Source/os_sem.c ****         return ((OS_OBJ_QTY)0);
 195:..\..\..\..\..\..\Software\uCOS-III\Source/os_sem.c ****     }
 196:..\..\..\..\..\..\Software\uCOS-III\Source/os_sem.c ****     switch (opt) {                                          /* Validate 'opt'                      
 197:..\..\..\..\..\..\Software\uCOS-III\Source/os_sem.c ****         case OS_OPT_DEL_NO_PEND:
 198:..\..\..\..\..\..\Software\uCOS-III\Source/os_sem.c ****         case OS_OPT_DEL_ALWAYS:
 199:..\..\..\..\..\..\Software\uCOS-III\Source/os_sem.c ****              break;
 200:..\..\..\..\..\..\Software\uCOS-III\Source/os_sem.c **** 
 201:..\..\..\..\..\..\Software\uCOS-III\Source/os_sem.c ****         default:
ARM GAS  C:\Users\EDULU~1.DES\AppData\Local\Temp\ccfRue3n.s 			page 5


 202:..\..\..\..\..\..\Software\uCOS-III\Source/os_sem.c ****             *p_err = OS_ERR_OPT_INVALID;
 203:..\..\..\..\..\..\Software\uCOS-III\Source/os_sem.c ****              return ((OS_OBJ_QTY)0);
 204:..\..\..\..\..\..\Software\uCOS-III\Source/os_sem.c ****     }
 205:..\..\..\..\..\..\Software\uCOS-III\Source/os_sem.c **** #endif
 206:..\..\..\..\..\..\Software\uCOS-III\Source/os_sem.c **** 
 207:..\..\..\..\..\..\Software\uCOS-III\Source/os_sem.c **** #if OS_CFG_OBJ_TYPE_CHK_EN > 0u
 208:..\..\..\..\..\..\Software\uCOS-III\Source/os_sem.c ****     if (p_sem->Type != OS_OBJ_TYPE_SEM) {                   /* Make sure semaphore was created     
 209:..\..\..\..\..\..\Software\uCOS-III\Source/os_sem.c ****        *p_err = OS_ERR_OBJ_TYPE;
 210:..\..\..\..\..\..\Software\uCOS-III\Source/os_sem.c ****         return ((OS_OBJ_QTY)0);
 211:..\..\..\..\..\..\Software\uCOS-III\Source/os_sem.c ****     }
 212:..\..\..\..\..\..\Software\uCOS-III\Source/os_sem.c **** #endif
 213:..\..\..\..\..\..\Software\uCOS-III\Source/os_sem.c **** 
 214:..\..\..\..\..\..\Software\uCOS-III\Source/os_sem.c ****     CPU_CRITICAL_ENTER();
 215:..\..\..\..\..\..\Software\uCOS-III\Source/os_sem.c ****     p_pend_list = &p_sem->PendList;
 216:..\..\..\..\..\..\Software\uCOS-III\Source/os_sem.c ****     cnt         = p_pend_list->NbrEntries;
 217:..\..\..\..\..\..\Software\uCOS-III\Source/os_sem.c ****     nbr_tasks   = cnt;
 218:..\..\..\..\..\..\Software\uCOS-III\Source/os_sem.c ****     switch (opt) {
 219:..\..\..\..\..\..\Software\uCOS-III\Source/os_sem.c ****         case OS_OPT_DEL_NO_PEND:                            /* Delete semaphore only if no task wai
 220:..\..\..\..\..\..\Software\uCOS-III\Source/os_sem.c ****              if (nbr_tasks == (OS_OBJ_QTY)0) {
 221:..\..\..\..\..\..\Software\uCOS-III\Source/os_sem.c **** #if OS_CFG_DBG_EN > 0u
 222:..\..\..\..\..\..\Software\uCOS-III\Source/os_sem.c ****                  OS_SemDbgListRemove(p_sem);
 223:..\..\..\..\..\..\Software\uCOS-III\Source/os_sem.c **** #endif
 224:..\..\..\..\..\..\Software\uCOS-III\Source/os_sem.c ****                  OSSemQty--;
 225:..\..\..\..\..\..\Software\uCOS-III\Source/os_sem.c ****                  OS_SemClr(p_sem);
 226:..\..\..\..\..\..\Software\uCOS-III\Source/os_sem.c ****                  CPU_CRITICAL_EXIT();
 227:..\..\..\..\..\..\Software\uCOS-III\Source/os_sem.c ****                 *p_err = OS_ERR_NONE;
 228:..\..\..\..\..\..\Software\uCOS-III\Source/os_sem.c ****              } else {
 229:..\..\..\..\..\..\Software\uCOS-III\Source/os_sem.c ****                  CPU_CRITICAL_EXIT();
 230:..\..\..\..\..\..\Software\uCOS-III\Source/os_sem.c ****                 *p_err = OS_ERR_TASK_WAITING;
 231:..\..\..\..\..\..\Software\uCOS-III\Source/os_sem.c ****              }
 232:..\..\..\..\..\..\Software\uCOS-III\Source/os_sem.c ****              break;
 233:..\..\..\..\..\..\Software\uCOS-III\Source/os_sem.c **** 
 234:..\..\..\..\..\..\Software\uCOS-III\Source/os_sem.c ****         case OS_OPT_DEL_ALWAYS:                             /* Always delete the semaphore         
 235:..\..\..\..\..\..\Software\uCOS-III\Source/os_sem.c ****              OS_CRITICAL_ENTER_CPU_EXIT();
 236:..\..\..\..\..\..\Software\uCOS-III\Source/os_sem.c ****              ts = OS_TS_GET();                              /* Get local time stamp so all tasks ge
 237:..\..\..\..\..\..\Software\uCOS-III\Source/os_sem.c ****              while (cnt > 0u) {                             /* Remove all tasks on the pend list   
 238:..\..\..\..\..\..\Software\uCOS-III\Source/os_sem.c ****                  p_pend_data = p_pend_list->HeadPtr;
 239:..\..\..\..\..\..\Software\uCOS-III\Source/os_sem.c ****                  p_tcb       = p_pend_data->TCBPtr;
 240:..\..\..\..\..\..\Software\uCOS-III\Source/os_sem.c ****                  OS_PendObjDel((OS_PEND_OBJ *)((void *)p_sem),
 241:..\..\..\..\..\..\Software\uCOS-III\Source/os_sem.c ****                                p_tcb,
 242:..\..\..\..\..\..\Software\uCOS-III\Source/os_sem.c ****                                ts);
 243:..\..\..\..\..\..\Software\uCOS-III\Source/os_sem.c ****                  cnt--;
 244:..\..\..\..\..\..\Software\uCOS-III\Source/os_sem.c ****              }
 245:..\..\..\..\..\..\Software\uCOS-III\Source/os_sem.c **** #if OS_CFG_DBG_EN > 0u
 246:..\..\..\..\..\..\Software\uCOS-III\Source/os_sem.c ****              OS_SemDbgListRemove(p_sem);
 247:..\..\..\..\..\..\Software\uCOS-III\Source/os_sem.c **** #endif
 248:..\..\..\..\..\..\Software\uCOS-III\Source/os_sem.c ****              OSSemQty--;
 249:..\..\..\..\..\..\Software\uCOS-III\Source/os_sem.c ****              OS_SemClr(p_sem);
 250:..\..\..\..\..\..\Software\uCOS-III\Source/os_sem.c ****              OS_CRITICAL_EXIT_NO_SCHED();
 251:..\..\..\..\..\..\Software\uCOS-III\Source/os_sem.c ****              OSSched();                                     /* Find highest priority task ready to 
 252:..\..\..\..\..\..\Software\uCOS-III\Source/os_sem.c ****             *p_err = OS_ERR_NONE;
 253:..\..\..\..\..\..\Software\uCOS-III\Source/os_sem.c ****              break;
 254:..\..\..\..\..\..\Software\uCOS-III\Source/os_sem.c **** 
 255:..\..\..\..\..\..\Software\uCOS-III\Source/os_sem.c ****         default:
 256:..\..\..\..\..\..\Software\uCOS-III\Source/os_sem.c ****              CPU_CRITICAL_EXIT();
 257:..\..\..\..\..\..\Software\uCOS-III\Source/os_sem.c ****             *p_err = OS_ERR_OPT_INVALID;
 258:..\..\..\..\..\..\Software\uCOS-III\Source/os_sem.c ****              break;
ARM GAS  C:\Users\EDULU~1.DES\AppData\Local\Temp\ccfRue3n.s 			page 6


 259:..\..\..\..\..\..\Software\uCOS-III\Source/os_sem.c ****     }
 260:..\..\..\..\..\..\Software\uCOS-III\Source/os_sem.c ****     return ((OS_OBJ_QTY)nbr_tasks);
 261:..\..\..\..\..\..\Software\uCOS-III\Source/os_sem.c **** }
 262:..\..\..\..\..\..\Software\uCOS-III\Source/os_sem.c **** #endif
 263:..\..\..\..\..\..\Software\uCOS-III\Source/os_sem.c **** 
 264:..\..\..\..\..\..\Software\uCOS-III\Source/os_sem.c **** /*$PAGE*/
 265:..\..\..\..\..\..\Software\uCOS-III\Source/os_sem.c **** /*
 266:..\..\..\..\..\..\Software\uCOS-III\Source/os_sem.c **** ***************************************************************************************************
 267:..\..\..\..\..\..\Software\uCOS-III\Source/os_sem.c **** *                                                  PEND ON SEMAPHORE
 268:..\..\..\..\..\..\Software\uCOS-III\Source/os_sem.c **** *
 269:..\..\..\..\..\..\Software\uCOS-III\Source/os_sem.c **** * Description: This function waits for a semaphore.
 270:..\..\..\..\..\..\Software\uCOS-III\Source/os_sem.c **** *
 271:..\..\..\..\..\..\Software\uCOS-III\Source/os_sem.c **** * Arguments  : p_sem         is a pointer to the semaphore
 272:..\..\..\..\..\..\Software\uCOS-III\Source/os_sem.c **** *
 273:..\..\..\..\..\..\Software\uCOS-III\Source/os_sem.c **** *              timeout       is an optional timeout period (in clock ticks).  If non-zero, your tas
 274:..\..\..\..\..\..\Software\uCOS-III\Source/os_sem.c **** *                            resource up to the amount of time (in 'ticks') specified by this argum
 275:..\..\..\..\..\..\Software\uCOS-III\Source/os_sem.c **** *                            0, however, your task will wait forever at the specified semaphore or,
 276:..\..\..\..\..\..\Software\uCOS-III\Source/os_sem.c **** *                            becomes available (or the event occurs).
 277:..\..\..\..\..\..\Software\uCOS-III\Source/os_sem.c **** *
 278:..\..\..\..\..\..\Software\uCOS-III\Source/os_sem.c **** *              opt           determines whether the user wants to block if the semaphore is not ava
 279:..\..\..\..\..\..\Software\uCOS-III\Source/os_sem.c **** *
 280:..\..\..\..\..\..\Software\uCOS-III\Source/os_sem.c **** *                                OS_OPT_PEND_BLOCKING
 281:..\..\..\..\..\..\Software\uCOS-III\Source/os_sem.c **** *                                OS_OPT_PEND_NON_BLOCKING
 282:..\..\..\..\..\..\Software\uCOS-III\Source/os_sem.c **** *
 283:..\..\..\..\..\..\Software\uCOS-III\Source/os_sem.c **** *              p_ts          is a pointer to a variable that will receive the timestamp of when the
 284:..\..\..\..\..\..\Software\uCOS-III\Source/os_sem.c **** *                            or pend aborted or the semaphore deleted.  If you pass a NULL pointer 
 285:..\..\..\..\..\..\Software\uCOS-III\Source/os_sem.c **** *                            then you will not get the timestamp.  In other words, passing a NULL p
 286:..\..\..\..\..\..\Software\uCOS-III\Source/os_sem.c **** *                            and indicates that you don't need the timestamp.
 287:..\..\..\..\..\..\Software\uCOS-III\Source/os_sem.c **** *
 288:..\..\..\..\..\..\Software\uCOS-III\Source/os_sem.c **** *              p_err         is a pointer to a variable that will contain an error code returned by
 289:..\..\..\..\..\..\Software\uCOS-III\Source/os_sem.c **** *
 290:..\..\..\..\..\..\Software\uCOS-III\Source/os_sem.c **** *                                OS_ERR_NONE               The call was successful and your task ow
 291:..\..\..\..\..\..\Software\uCOS-III\Source/os_sem.c **** *                                                          or, the event you are waiting for occurr
 292:..\..\..\..\..\..\Software\uCOS-III\Source/os_sem.c **** *                                OS_ERR_OBJ_DEL            If 'p_sem' was deleted
 293:..\..\..\..\..\..\Software\uCOS-III\Source/os_sem.c **** *                                OS_ERR_OBJ_PTR_NULL       If 'p_sem' is a NULL pointer.
 294:..\..\..\..\..\..\Software\uCOS-III\Source/os_sem.c **** *                                OS_ERR_OBJ_TYPE           If 'p_sem' is not pointing at a semaphor
 295:..\..\..\..\..\..\Software\uCOS-III\Source/os_sem.c **** *                                OS_ERR_OPT_INVALID        If you specified an invalid value for 'o
 296:..\..\..\..\..\..\Software\uCOS-III\Source/os_sem.c **** *                                OS_ERR_PEND_ABORT         If the pend was aborted by another task
 297:..\..\..\..\..\..\Software\uCOS-III\Source/os_sem.c **** *                                OS_ERR_PEND_ISR           If you called this function from an ISR 
 298:..\..\..\..\..\..\Software\uCOS-III\Source/os_sem.c **** *                                                          would lead to a suspension.
 299:..\..\..\..\..\..\Software\uCOS-III\Source/os_sem.c **** *                                OS_ERR_PEND_WOULD_BLOCK   If you specified non-blocking but the se
 300:..\..\..\..\..\..\Software\uCOS-III\Source/os_sem.c **** *                                                          available.
 301:..\..\..\..\..\..\Software\uCOS-III\Source/os_sem.c **** *                                OS_ERR_SCHED_LOCKED       If you called this function when the sch
 302:..\..\..\..\..\..\Software\uCOS-III\Source/os_sem.c **** *                                OS_ERR_STATUS_INVALID     Pend status is invalid
 303:..\..\..\..\..\..\Software\uCOS-III\Source/os_sem.c **** *                                OS_ERR_TIMEOUT            The semaphore was not received within th
 304:..\..\..\..\..\..\Software\uCOS-III\Source/os_sem.c **** *                                                          timeout.
 305:..\..\..\..\..\..\Software\uCOS-III\Source/os_sem.c **** *
 306:..\..\..\..\..\..\Software\uCOS-III\Source/os_sem.c **** *
 307:..\..\..\..\..\..\Software\uCOS-III\Source/os_sem.c **** * Returns    : The current value of the semaphore counter or 0 if not available.
 308:..\..\..\..\..\..\Software\uCOS-III\Source/os_sem.c **** ***************************************************************************************************
 309:..\..\..\..\..\..\Software\uCOS-III\Source/os_sem.c **** */
 310:..\..\..\..\..\..\Software\uCOS-III\Source/os_sem.c **** 
 311:..\..\..\..\..\..\Software\uCOS-III\Source/os_sem.c **** OS_SEM_CTR  OSSemPend (OS_SEM   *p_sem,
 312:..\..\..\..\..\..\Software\uCOS-III\Source/os_sem.c ****                        OS_TICK   timeout,
 313:..\..\..\..\..\..\Software\uCOS-III\Source/os_sem.c ****                        OS_OPT    opt,
 314:..\..\..\..\..\..\Software\uCOS-III\Source/os_sem.c ****                        CPU_TS   *p_ts,
 315:..\..\..\..\..\..\Software\uCOS-III\Source/os_sem.c ****                        OS_ERR   *p_err)
ARM GAS  C:\Users\EDULU~1.DES\AppData\Local\Temp\ccfRue3n.s 			page 7


 316:..\..\..\..\..\..\Software\uCOS-III\Source/os_sem.c **** {
  28              		.loc 1 316 1 view -0
  29              		.cfi_startproc
  30              		@ args = 4, pretend = 0, frame = 40
  31              		@ frame_needed = 0, uses_anonymous_args = 0
  32              		.loc 1 316 1 is_stmt 0 view .LVU1
  33 0000 F0B5     		push	{r4, r5, r6, r7, lr}
  34              		.cfi_def_cfa_offset 20
  35              		.cfi_offset 4, -20
  36              		.cfi_offset 5, -16
  37              		.cfi_offset 6, -12
  38              		.cfi_offset 7, -8
  39              		.cfi_offset 14, -4
  40 0002 8BB0     		sub	sp, sp, #44
  41              		.cfi_def_cfa_offset 64
  42 0004 0700     		movs	r7, r0
  43 0006 0091     		str	r1, [sp]
  44 0008 1500     		movs	r5, r2
  45 000a 1E00     		movs	r6, r3
 317:..\..\..\..\..\..\Software\uCOS-III\Source/os_sem.c ****     OS_SEM_CTR    ctr;
  46              		.loc 1 317 5 is_stmt 1 view .LVU2
 318:..\..\..\..\..\..\Software\uCOS-III\Source/os_sem.c ****     OS_PEND_DATA  pend_data;
  47              		.loc 1 318 5 view .LVU3
 319:..\..\..\..\..\..\Software\uCOS-III\Source/os_sem.c ****     CPU_SR_ALLOC();
  48              		.loc 1 319 5 view .LVU4
  49              	.LVL1:
 320:..\..\..\..\..\..\Software\uCOS-III\Source/os_sem.c **** 
 321:..\..\..\..\..\..\Software\uCOS-III\Source/os_sem.c **** 
 322:..\..\..\..\..\..\Software\uCOS-III\Source/os_sem.c **** 
 323:..\..\..\..\..\..\Software\uCOS-III\Source/os_sem.c **** #ifdef OS_SAFETY_CRITICAL
 324:..\..\..\..\..\..\Software\uCOS-III\Source/os_sem.c ****     if (p_err == (OS_ERR *)0) {
 325:..\..\..\..\..\..\Software\uCOS-III\Source/os_sem.c ****         OS_SAFETY_CRITICAL_EXCEPTION();
 326:..\..\..\..\..\..\Software\uCOS-III\Source/os_sem.c ****         return ((OS_SEM_CTR)0);
 327:..\..\..\..\..\..\Software\uCOS-III\Source/os_sem.c ****     }
 328:..\..\..\..\..\..\Software\uCOS-III\Source/os_sem.c **** #endif
 329:..\..\..\..\..\..\Software\uCOS-III\Source/os_sem.c **** 
 330:..\..\..\..\..\..\Software\uCOS-III\Source/os_sem.c **** #if OS_CFG_CALLED_FROM_ISR_CHK_EN > 0u
 331:..\..\..\..\..\..\Software\uCOS-III\Source/os_sem.c ****     if (OSIntNestingCtr > (OS_NESTING_CTR)0) {              /* Not allowed to call from an ISR     
  50              		.loc 1 331 5 view .LVU5
  51              		.loc 1 331 25 is_stmt 0 view .LVU6
  52 000c 4F4B     		ldr	r3, .L27
  53              	.LVL2:
  54              		.loc 1 331 25 view .LVU7
  55 000e 1B78     		ldrb	r3, [r3]
  56              		.loc 1 331 8 view .LVU8
  57 0010 002B     		cmp	r3, #0
  58 0012 0CD1     		bne	.L22
 332:..\..\..\..\..\..\Software\uCOS-III\Source/os_sem.c ****        *p_err = OS_ERR_PEND_ISR;
 333:..\..\..\..\..\..\Software\uCOS-III\Source/os_sem.c ****         return ((OS_SEM_CTR)0);
 334:..\..\..\..\..\..\Software\uCOS-III\Source/os_sem.c ****     }
 335:..\..\..\..\..\..\Software\uCOS-III\Source/os_sem.c **** #endif
 336:..\..\..\..\..\..\Software\uCOS-III\Source/os_sem.c **** 
 337:..\..\..\..\..\..\Software\uCOS-III\Source/os_sem.c **** #if OS_CFG_ARG_CHK_EN > 0u
 338:..\..\..\..\..\..\Software\uCOS-III\Source/os_sem.c ****     if (p_sem == (OS_SEM *)0) {                             /* Validate 'p_sem'                    
  59              		.loc 1 338 5 is_stmt 1 view .LVU9
  60              		.loc 1 338 8 is_stmt 0 view .LVU10
  61 0014 0028     		cmp	r0, #0
ARM GAS  C:\Users\EDULU~1.DES\AppData\Local\Temp\ccfRue3n.s 			page 8


  62 0016 11D0     		beq	.L23
 339:..\..\..\..\..\..\Software\uCOS-III\Source/os_sem.c ****        *p_err = OS_ERR_OBJ_PTR_NULL;
 340:..\..\..\..\..\..\Software\uCOS-III\Source/os_sem.c ****         return ((OS_SEM_CTR)0);
 341:..\..\..\..\..\..\Software\uCOS-III\Source/os_sem.c ****     }
 342:..\..\..\..\..\..\Software\uCOS-III\Source/os_sem.c ****     switch (opt) {                                          /* Validate 'opt'                      
  63              		.loc 1 342 5 is_stmt 1 view .LVU11
  64 0018 002A     		cmp	r2, #0
  65 001a 14D0     		beq	.L5
  66 001c 8023     		movs	r3, #128
  67 001e 1B02     		lsls	r3, r3, #8
  68 0020 9A42     		cmp	r2, r3
  69 0022 10D0     		beq	.L5
 343:..\..\..\..\..\..\Software\uCOS-III\Source/os_sem.c ****         case OS_OPT_PEND_BLOCKING:
 344:..\..\..\..\..\..\Software\uCOS-III\Source/os_sem.c ****         case OS_OPT_PEND_NON_BLOCKING:
 345:..\..\..\..\..\..\Software\uCOS-III\Source/os_sem.c ****              break;
 346:..\..\..\..\..\..\Software\uCOS-III\Source/os_sem.c **** 
 347:..\..\..\..\..\..\Software\uCOS-III\Source/os_sem.c ****         default:
 348:..\..\..\..\..\..\Software\uCOS-III\Source/os_sem.c ****             *p_err = OS_ERR_OPT_INVALID;
  70              		.loc 1 348 13 view .LVU12
  71              		.loc 1 348 20 is_stmt 0 view .LVU13
  72 0024 4A4B     		ldr	r3, .L27+4
  73 0026 109A     		ldr	r2, [sp, #64]
  74              	.LVL3:
  75              		.loc 1 348 20 view .LVU14
  76 0028 1380     		strh	r3, [r2]
 349:..\..\..\..\..\..\Software\uCOS-III\Source/os_sem.c ****              return ((OS_SEM_CTR)0);
  77              		.loc 1 349 14 is_stmt 1 view .LVU15
  78              		.loc 1 349 21 is_stmt 0 view .LVU16
  79 002a 0024     		movs	r4, #0
  80 002c 03E0     		b	.L1
  81              	.LVL4:
  82              	.L22:
 332:..\..\..\..\..\..\Software\uCOS-III\Source/os_sem.c ****         return ((OS_SEM_CTR)0);
  83              		.loc 1 332 8 is_stmt 1 view .LVU17
 332:..\..\..\..\..\..\Software\uCOS-III\Source/os_sem.c ****         return ((OS_SEM_CTR)0);
  84              		.loc 1 332 15 is_stmt 0 view .LVU18
  85 002e 494B     		ldr	r3, .L27+8
  86 0030 109A     		ldr	r2, [sp, #64]
  87              	.LVL5:
 332:..\..\..\..\..\..\Software\uCOS-III\Source/os_sem.c ****         return ((OS_SEM_CTR)0);
  88              		.loc 1 332 15 view .LVU19
  89 0032 1380     		strh	r3, [r2]
 333:..\..\..\..\..\..\Software\uCOS-III\Source/os_sem.c ****     }
  90              		.loc 1 333 9 is_stmt 1 view .LVU20
 333:..\..\..\..\..\..\Software\uCOS-III\Source/os_sem.c ****     }
  91              		.loc 1 333 16 is_stmt 0 view .LVU21
  92 0034 0024     		movs	r4, #0
  93              	.LVL6:
  94              	.L1:
 350:..\..\..\..\..\..\Software\uCOS-III\Source/os_sem.c ****     }
 351:..\..\..\..\..\..\Software\uCOS-III\Source/os_sem.c **** #endif
 352:..\..\..\..\..\..\Software\uCOS-III\Source/os_sem.c **** 
 353:..\..\..\..\..\..\Software\uCOS-III\Source/os_sem.c **** #if OS_CFG_OBJ_TYPE_CHK_EN > 0u
 354:..\..\..\..\..\..\Software\uCOS-III\Source/os_sem.c ****     if (p_sem->Type != OS_OBJ_TYPE_SEM) {                   /* Make sure semaphore was created     
 355:..\..\..\..\..\..\Software\uCOS-III\Source/os_sem.c ****        *p_err = OS_ERR_OBJ_TYPE;
 356:..\..\..\..\..\..\Software\uCOS-III\Source/os_sem.c ****         return ((OS_SEM_CTR)0);
 357:..\..\..\..\..\..\Software\uCOS-III\Source/os_sem.c ****     }
ARM GAS  C:\Users\EDULU~1.DES\AppData\Local\Temp\ccfRue3n.s 			page 9


 358:..\..\..\..\..\..\Software\uCOS-III\Source/os_sem.c **** #endif
 359:..\..\..\..\..\..\Software\uCOS-III\Source/os_sem.c **** 
 360:..\..\..\..\..\..\Software\uCOS-III\Source/os_sem.c ****     if (p_ts != (CPU_TS *)0) {
 361:..\..\..\..\..\..\Software\uCOS-III\Source/os_sem.c ****        *p_ts  = (CPU_TS)0;                                  /* Initialize the returned timestamp   
 362:..\..\..\..\..\..\Software\uCOS-III\Source/os_sem.c ****     }
 363:..\..\..\..\..\..\Software\uCOS-III\Source/os_sem.c ****     CPU_CRITICAL_ENTER();
 364:..\..\..\..\..\..\Software\uCOS-III\Source/os_sem.c ****     if (p_sem->Ctr > (OS_SEM_CTR)0) {                       /* Resource available?                 
 365:..\..\..\..\..\..\Software\uCOS-III\Source/os_sem.c ****         p_sem->Ctr--;                                       /* Yes, caller may proceed             
 366:..\..\..\..\..\..\Software\uCOS-III\Source/os_sem.c ****         if (p_ts != (CPU_TS *)0) {
 367:..\..\..\..\..\..\Software\uCOS-III\Source/os_sem.c ****            *p_ts  = p_sem->TS;                              /*      get timestamp of last post     
 368:..\..\..\..\..\..\Software\uCOS-III\Source/os_sem.c ****         }
 369:..\..\..\..\..\..\Software\uCOS-III\Source/os_sem.c ****         ctr   = p_sem->Ctr;
 370:..\..\..\..\..\..\Software\uCOS-III\Source/os_sem.c ****         CPU_CRITICAL_EXIT();
 371:..\..\..\..\..\..\Software\uCOS-III\Source/os_sem.c ****        *p_err = OS_ERR_NONE;
 372:..\..\..\..\..\..\Software\uCOS-III\Source/os_sem.c ****         return (ctr);
 373:..\..\..\..\..\..\Software\uCOS-III\Source/os_sem.c ****     }
 374:..\..\..\..\..\..\Software\uCOS-III\Source/os_sem.c **** 
 375:..\..\..\..\..\..\Software\uCOS-III\Source/os_sem.c ****     if ((opt & OS_OPT_PEND_NON_BLOCKING) != (OS_OPT)0) {    /* Caller wants to block if not availab
 376:..\..\..\..\..\..\Software\uCOS-III\Source/os_sem.c ****         ctr   = p_sem->Ctr;                                 /* No                                  
 377:..\..\..\..\..\..\Software\uCOS-III\Source/os_sem.c ****         CPU_CRITICAL_EXIT();
 378:..\..\..\..\..\..\Software\uCOS-III\Source/os_sem.c ****        *p_err = OS_ERR_PEND_WOULD_BLOCK;
 379:..\..\..\..\..\..\Software\uCOS-III\Source/os_sem.c ****         return (ctr);
 380:..\..\..\..\..\..\Software\uCOS-III\Source/os_sem.c ****     } else {                                                /* Yes                                 
 381:..\..\..\..\..\..\Software\uCOS-III\Source/os_sem.c ****         if (OSSchedLockNestingCtr > (OS_NESTING_CTR)0) {    /* Can't pend when the scheduler is loc
 382:..\..\..\..\..\..\Software\uCOS-III\Source/os_sem.c ****             CPU_CRITICAL_EXIT();
 383:..\..\..\..\..\..\Software\uCOS-III\Source/os_sem.c ****            *p_err = OS_ERR_SCHED_LOCKED;
 384:..\..\..\..\..\..\Software\uCOS-III\Source/os_sem.c ****             return ((OS_SEM_CTR)0);
 385:..\..\..\..\..\..\Software\uCOS-III\Source/os_sem.c ****         }
 386:..\..\..\..\..\..\Software\uCOS-III\Source/os_sem.c ****     }
 387:..\..\..\..\..\..\Software\uCOS-III\Source/os_sem.c ****                                                             /* Lock the scheduler/re-enable interru
 388:..\..\..\..\..\..\Software\uCOS-III\Source/os_sem.c ****     OS_CRITICAL_ENTER_CPU_EXIT();
 389:..\..\..\..\..\..\Software\uCOS-III\Source/os_sem.c ****     OS_Pend(&pend_data,                                     /* Block task pending on Semaphore     
 390:..\..\..\..\..\..\Software\uCOS-III\Source/os_sem.c ****             (OS_PEND_OBJ *)((void *)p_sem),
 391:..\..\..\..\..\..\Software\uCOS-III\Source/os_sem.c ****             OS_TASK_PEND_ON_SEM,
 392:..\..\..\..\..\..\Software\uCOS-III\Source/os_sem.c ****             timeout);
 393:..\..\..\..\..\..\Software\uCOS-III\Source/os_sem.c **** 
 394:..\..\..\..\..\..\Software\uCOS-III\Source/os_sem.c ****     OS_CRITICAL_EXIT_NO_SCHED();
 395:..\..\..\..\..\..\Software\uCOS-III\Source/os_sem.c **** 
 396:..\..\..\..\..\..\Software\uCOS-III\Source/os_sem.c ****     OSSched();                                              /* Find the next highest priority task 
 397:..\..\..\..\..\..\Software\uCOS-III\Source/os_sem.c **** 
 398:..\..\..\..\..\..\Software\uCOS-III\Source/os_sem.c ****     CPU_CRITICAL_ENTER();
 399:..\..\..\..\..\..\Software\uCOS-III\Source/os_sem.c ****     switch (OSTCBCurPtr->PendStatus) {
 400:..\..\..\..\..\..\Software\uCOS-III\Source/os_sem.c ****         case OS_STATUS_PEND_OK:                             /* We got the semaphore                
 401:..\..\..\..\..\..\Software\uCOS-III\Source/os_sem.c ****              if (p_ts != (CPU_TS *)0) {
 402:..\..\..\..\..\..\Software\uCOS-III\Source/os_sem.c ****                 *p_ts  =  OSTCBCurPtr->TS;
 403:..\..\..\..\..\..\Software\uCOS-III\Source/os_sem.c ****              }
 404:..\..\..\..\..\..\Software\uCOS-III\Source/os_sem.c ****             *p_err = OS_ERR_NONE;
 405:..\..\..\..\..\..\Software\uCOS-III\Source/os_sem.c ****              break;
 406:..\..\..\..\..\..\Software\uCOS-III\Source/os_sem.c **** 
 407:..\..\..\..\..\..\Software\uCOS-III\Source/os_sem.c ****         case OS_STATUS_PEND_ABORT:                          /* Indicate that we aborted            
 408:..\..\..\..\..\..\Software\uCOS-III\Source/os_sem.c ****              if (p_ts != (CPU_TS *)0) {
 409:..\..\..\..\..\..\Software\uCOS-III\Source/os_sem.c ****                 *p_ts  =  OSTCBCurPtr->TS;
 410:..\..\..\..\..\..\Software\uCOS-III\Source/os_sem.c ****              }
 411:..\..\..\..\..\..\Software\uCOS-III\Source/os_sem.c ****             *p_err = OS_ERR_PEND_ABORT;
 412:..\..\..\..\..\..\Software\uCOS-III\Source/os_sem.c ****              break;
 413:..\..\..\..\..\..\Software\uCOS-III\Source/os_sem.c **** 
 414:..\..\..\..\..\..\Software\uCOS-III\Source/os_sem.c ****         case OS_STATUS_PEND_TIMEOUT:                        /* Indicate that we didn't get semaphor
ARM GAS  C:\Users\EDULU~1.DES\AppData\Local\Temp\ccfRue3n.s 			page 10


 415:..\..\..\..\..\..\Software\uCOS-III\Source/os_sem.c ****              if (p_ts != (CPU_TS *)0) {
 416:..\..\..\..\..\..\Software\uCOS-III\Source/os_sem.c ****                 *p_ts  = (CPU_TS  )0;
 417:..\..\..\..\..\..\Software\uCOS-III\Source/os_sem.c ****              }
 418:..\..\..\..\..\..\Software\uCOS-III\Source/os_sem.c ****             *p_err = OS_ERR_TIMEOUT;
 419:..\..\..\..\..\..\Software\uCOS-III\Source/os_sem.c ****              break;
 420:..\..\..\..\..\..\Software\uCOS-III\Source/os_sem.c **** 
 421:..\..\..\..\..\..\Software\uCOS-III\Source/os_sem.c ****         case OS_STATUS_PEND_DEL:                            /* Indicate that object pended on has b
 422:..\..\..\..\..\..\Software\uCOS-III\Source/os_sem.c ****              if (p_ts != (CPU_TS *)0) {
 423:..\..\..\..\..\..\Software\uCOS-III\Source/os_sem.c ****                 *p_ts  =  OSTCBCurPtr->TS;
 424:..\..\..\..\..\..\Software\uCOS-III\Source/os_sem.c ****              }
 425:..\..\..\..\..\..\Software\uCOS-III\Source/os_sem.c ****             *p_err = OS_ERR_OBJ_DEL;
 426:..\..\..\..\..\..\Software\uCOS-III\Source/os_sem.c ****              break;
 427:..\..\..\..\..\..\Software\uCOS-III\Source/os_sem.c **** 
 428:..\..\..\..\..\..\Software\uCOS-III\Source/os_sem.c ****         default:
 429:..\..\..\..\..\..\Software\uCOS-III\Source/os_sem.c ****             *p_err = OS_ERR_STATUS_INVALID;
 430:..\..\..\..\..\..\Software\uCOS-III\Source/os_sem.c ****              CPU_CRITICAL_EXIT();
 431:..\..\..\..\..\..\Software\uCOS-III\Source/os_sem.c ****              return ((OS_SEM_CTR)0);
 432:..\..\..\..\..\..\Software\uCOS-III\Source/os_sem.c ****     }
 433:..\..\..\..\..\..\Software\uCOS-III\Source/os_sem.c ****     ctr = p_sem->Ctr;
 434:..\..\..\..\..\..\Software\uCOS-III\Source/os_sem.c ****     CPU_CRITICAL_EXIT();
 435:..\..\..\..\..\..\Software\uCOS-III\Source/os_sem.c ****     return (ctr);
 436:..\..\..\..\..\..\Software\uCOS-III\Source/os_sem.c **** }
  95              		.loc 1 436 1 view .LVU22
  96 0036 2000     		movs	r0, r4
  97 0038 0BB0     		add	sp, sp, #44
  98              	.LVL7:
  99              		.loc 1 436 1 view .LVU23
 100              		@ sp needed
 101              	.LVL8:
 102              	.LVL9:
 103              		.loc 1 436 1 view .LVU24
 104 003a F0BD     		pop	{r4, r5, r6, r7, pc}
 105              	.LVL10:
 106              	.L23:
 339:..\..\..\..\..\..\Software\uCOS-III\Source/os_sem.c ****         return ((OS_SEM_CTR)0);
 107              		.loc 1 339 8 is_stmt 1 view .LVU25
 339:..\..\..\..\..\..\Software\uCOS-III\Source/os_sem.c ****         return ((OS_SEM_CTR)0);
 108              		.loc 1 339 15 is_stmt 0 view .LVU26
 109 003c 464B     		ldr	r3, .L27+12
 110 003e 109A     		ldr	r2, [sp, #64]
 111              	.LVL11:
 339:..\..\..\..\..\..\Software\uCOS-III\Source/os_sem.c ****         return ((OS_SEM_CTR)0);
 112              		.loc 1 339 15 view .LVU27
 113 0040 1380     		strh	r3, [r2]
 340:..\..\..\..\..\..\Software\uCOS-III\Source/os_sem.c ****     }
 114              		.loc 1 340 9 is_stmt 1 view .LVU28
 340:..\..\..\..\..\..\Software\uCOS-III\Source/os_sem.c ****     }
 115              		.loc 1 340 16 is_stmt 0 view .LVU29
 116 0042 0024     		movs	r4, #0
 117 0044 F7E7     		b	.L1
 118              	.LVL12:
 119              	.L5:
 345:..\..\..\..\..\..\Software\uCOS-III\Source/os_sem.c **** 
 120              		.loc 1 345 14 is_stmt 1 view .LVU30
 360:..\..\..\..\..\..\Software\uCOS-III\Source/os_sem.c ****        *p_ts  = (CPU_TS)0;                                  /* Initialize the returned timestamp   
 121              		.loc 1 360 5 view .LVU31
 360:..\..\..\..\..\..\Software\uCOS-III\Source/os_sem.c ****        *p_ts  = (CPU_TS)0;                                  /* Initialize the returned timestamp   
ARM GAS  C:\Users\EDULU~1.DES\AppData\Local\Temp\ccfRue3n.s 			page 11


 122              		.loc 1 360 8 is_stmt 0 view .LVU32
 123 0046 002E     		cmp	r6, #0
 124 0048 01D0     		beq	.L6
 361:..\..\..\..\..\..\Software\uCOS-III\Source/os_sem.c ****     }
 125              		.loc 1 361 8 is_stmt 1 view .LVU33
 361:..\..\..\..\..\..\Software\uCOS-III\Source/os_sem.c ****     }
 126              		.loc 1 361 15 is_stmt 0 view .LVU34
 127 004a 0023     		movs	r3, #0
 128 004c 3360     		str	r3, [r6]
 129              	.L6:
 363:..\..\..\..\..\..\Software\uCOS-III\Source/os_sem.c ****     if (p_sem->Ctr > (OS_SEM_CTR)0) {                       /* Resource available?                 
 130              		.loc 1 363 5 is_stmt 1 view .LVU35
 363:..\..\..\..\..\..\Software\uCOS-III\Source/os_sem.c ****     if (p_sem->Ctr > (OS_SEM_CTR)0) {                       /* Resource available?                 
 131              		.loc 1 363 5 view .LVU36
 363:..\..\..\..\..\..\Software\uCOS-III\Source/os_sem.c ****     if (p_sem->Ctr > (OS_SEM_CTR)0) {                       /* Resource available?                 
 132              		.loc 1 363 5 view .LVU37
 133 004e FFF7FEFF 		bl	CPU_SR_Save
 134              	.LVL13:
 363:..\..\..\..\..\..\Software\uCOS-III\Source/os_sem.c ****     if (p_sem->Ctr > (OS_SEM_CTR)0) {                       /* Resource available?                 
 135              		.loc 1 363 5 is_stmt 0 view .LVU38
 136 0052 0190     		str	r0, [sp, #4]
 137              	.LVL14:
 363:..\..\..\..\..\..\Software\uCOS-III\Source/os_sem.c ****     if (p_sem->Ctr > (OS_SEM_CTR)0) {                       /* Resource available?                 
 138              		.loc 1 363 5 is_stmt 1 view .LVU39
 139 0054 FFF7FEFF 		bl	CPU_IntDisMeasStart
 140              	.LVL15:
 364:..\..\..\..\..\..\Software\uCOS-III\Source/os_sem.c ****         p_sem->Ctr--;                                       /* Yes, caller may proceed             
 141              		.loc 1 364 5 view .LVU40
 364:..\..\..\..\..\..\Software\uCOS-III\Source/os_sem.c ****         p_sem->Ctr--;                                       /* Yes, caller may proceed             
 142              		.loc 1 364 14 is_stmt 0 view .LVU41
 143 0058 3C6A     		ldr	r4, [r7, #32]
 364:..\..\..\..\..\..\Software\uCOS-III\Source/os_sem.c ****         p_sem->Ctr--;                                       /* Yes, caller may proceed             
 144              		.loc 1 364 8 view .LVU42
 145 005a 002C     		cmp	r4, #0
 146 005c 2DD1     		bne	.L24
 375:..\..\..\..\..\..\Software\uCOS-III\Source/os_sem.c ****         ctr   = p_sem->Ctr;                                 /* No                                  
 147              		.loc 1 375 5 is_stmt 1 view .LVU43
 375:..\..\..\..\..\..\Software\uCOS-III\Source/os_sem.c ****         ctr   = p_sem->Ctr;                                 /* No                                  
 148              		.loc 1 375 42 is_stmt 0 view .LVU44
 149 005e 2DB2     		sxth	r5, r5
 375:..\..\..\..\..\..\Software\uCOS-III\Source/os_sem.c ****         ctr   = p_sem->Ctr;                                 /* No                                  
 150              		.loc 1 375 8 view .LVU45
 151 0060 002D     		cmp	r5, #0
 152 0062 3ADB     		blt	.L25
 381:..\..\..\..\..\..\Software\uCOS-III\Source/os_sem.c ****             CPU_CRITICAL_EXIT();
 153              		.loc 1 381 9 is_stmt 1 view .LVU46
 381:..\..\..\..\..\..\Software\uCOS-III\Source/os_sem.c ****             CPU_CRITICAL_EXIT();
 154              		.loc 1 381 35 is_stmt 0 view .LVU47
 155 0064 3D4B     		ldr	r3, .L27+16
 156 0066 1B78     		ldrb	r3, [r3]
 381:..\..\..\..\..\..\Software\uCOS-III\Source/os_sem.c ****             CPU_CRITICAL_EXIT();
 157              		.loc 1 381 12 view .LVU48
 158 0068 002B     		cmp	r3, #0
 159 006a 3FD1     		bne	.L26
 388:..\..\..\..\..\..\Software\uCOS-III\Source/os_sem.c ****     OS_Pend(&pend_data,                                     /* Block task pending on Semaphore     
 160              		.loc 1 388 33 is_stmt 1 view .LVU49
 389:..\..\..\..\..\..\Software\uCOS-III\Source/os_sem.c ****             (OS_PEND_OBJ *)((void *)p_sem),
ARM GAS  C:\Users\EDULU~1.DES\AppData\Local\Temp\ccfRue3n.s 			page 12


 161              		.loc 1 389 5 view .LVU50
 162 006c 009B     		ldr	r3, [sp]
 163 006e 0622     		movs	r2, #6
 164 0070 3900     		movs	r1, r7
 165 0072 02A8     		add	r0, sp, #8
 166 0074 FFF7FEFF 		bl	OS_Pend
 167              	.LVL16:
 394:..\..\..\..\..\..\Software\uCOS-III\Source/os_sem.c **** 
 168              		.loc 1 394 5 view .LVU51
 394:..\..\..\..\..\..\Software\uCOS-III\Source/os_sem.c **** 
 169              		.loc 1 394 5 view .LVU52
 170 0078 FFF7FEFF 		bl	CPU_IntDisMeasStop
 171              	.LVL17:
 394:..\..\..\..\..\..\Software\uCOS-III\Source/os_sem.c **** 
 172              		.loc 1 394 5 view .LVU53
 394:..\..\..\..\..\..\Software\uCOS-III\Source/os_sem.c **** 
 173              		.loc 1 394 5 view .LVU54
 174 007c 0198     		ldr	r0, [sp, #4]
 175 007e FFF7FEFF 		bl	CPU_SR_Restore
 176              	.LVL18:
 396:..\..\..\..\..\..\Software\uCOS-III\Source/os_sem.c **** 
 177              		.loc 1 396 5 view .LVU55
 178 0082 FFF7FEFF 		bl	OSSched
 179              	.LVL19:
 398:..\..\..\..\..\..\Software\uCOS-III\Source/os_sem.c ****     switch (OSTCBCurPtr->PendStatus) {
 180              		.loc 1 398 5 view .LVU56
 398:..\..\..\..\..\..\Software\uCOS-III\Source/os_sem.c ****     switch (OSTCBCurPtr->PendStatus) {
 181              		.loc 1 398 5 view .LVU57
 398:..\..\..\..\..\..\Software\uCOS-III\Source/os_sem.c ****     switch (OSTCBCurPtr->PendStatus) {
 182              		.loc 1 398 5 view .LVU58
 183 0086 FFF7FEFF 		bl	CPU_SR_Save
 184              	.LVL20:
 185 008a 0500     		movs	r5, r0
 186              	.LVL21:
 398:..\..\..\..\..\..\Software\uCOS-III\Source/os_sem.c ****     switch (OSTCBCurPtr->PendStatus) {
 187              		.loc 1 398 5 view .LVU59
 188 008c FFF7FEFF 		bl	CPU_IntDisMeasStart
 189              	.LVL22:
 399:..\..\..\..\..\..\Software\uCOS-III\Source/os_sem.c ****         case OS_STATUS_PEND_OK:                             /* We got the semaphore                
 190              		.loc 1 399 5 view .LVU60
 399:..\..\..\..\..\..\Software\uCOS-III\Source/os_sem.c ****         case OS_STATUS_PEND_OK:                             /* We got the semaphore                
 191              		.loc 1 399 24 is_stmt 0 view .LVU61
 192 0090 334B     		ldr	r3, .L27+20
 193 0092 1A68     		ldr	r2, [r3]
 194 0094 3523     		movs	r3, #53
 195 0096 D35C     		ldrb	r3, [r2, r3]
 399:..\..\..\..\..\..\Software\uCOS-III\Source/os_sem.c ****         case OS_STATUS_PEND_OK:                             /* We got the semaphore                
 196              		.loc 1 399 5 view .LVU62
 197 0098 012B     		cmp	r3, #1
 198 009a 3ED0     		beq	.L11
 199 009c 002B     		cmp	r3, #0
 200 009e 2ED0     		beq	.L12
 201 00a0 022B     		cmp	r3, #2
 202 00a2 4AD0     		beq	.L13
 203 00a4 032B     		cmp	r3, #3
 204 00a6 40D0     		beq	.L14
 429:..\..\..\..\..\..\Software\uCOS-III\Source/os_sem.c ****              CPU_CRITICAL_EXIT();
ARM GAS  C:\Users\EDULU~1.DES\AppData\Local\Temp\ccfRue3n.s 			page 13


 205              		.loc 1 429 13 is_stmt 1 view .LVU63
 429:..\..\..\..\..\..\Software\uCOS-III\Source/os_sem.c ****              CPU_CRITICAL_EXIT();
 206              		.loc 1 429 20 is_stmt 0 view .LVU64
 207 00a8 2E4B     		ldr	r3, .L27+24
 208 00aa 109A     		ldr	r2, [sp, #64]
 209 00ac 1380     		strh	r3, [r2]
 430:..\..\..\..\..\..\Software\uCOS-III\Source/os_sem.c ****              return ((OS_SEM_CTR)0);
 210              		.loc 1 430 14 is_stmt 1 view .LVU65
 430:..\..\..\..\..\..\Software\uCOS-III\Source/os_sem.c ****              return ((OS_SEM_CTR)0);
 211              		.loc 1 430 14 view .LVU66
 212 00ae FFF7FEFF 		bl	CPU_IntDisMeasStop
 213              	.LVL23:
 430:..\..\..\..\..\..\Software\uCOS-III\Source/os_sem.c ****              return ((OS_SEM_CTR)0);
 214              		.loc 1 430 14 view .LVU67
 430:..\..\..\..\..\..\Software\uCOS-III\Source/os_sem.c ****              return ((OS_SEM_CTR)0);
 215              		.loc 1 430 14 view .LVU68
 216 00b2 2800     		movs	r0, r5
 217 00b4 FFF7FEFF 		bl	CPU_SR_Restore
 218              	.LVL24:
 431:..\..\..\..\..\..\Software\uCOS-III\Source/os_sem.c ****     }
 219              		.loc 1 431 14 view .LVU69
 431:..\..\..\..\..\..\Software\uCOS-III\Source/os_sem.c ****     }
 220              		.loc 1 431 21 is_stmt 0 view .LVU70
 221 00b8 BDE7     		b	.L1
 222              	.LVL25:
 223              	.L24:
 365:..\..\..\..\..\..\Software\uCOS-III\Source/os_sem.c ****         if (p_ts != (CPU_TS *)0) {
 224              		.loc 1 365 9 is_stmt 1 view .LVU71
 365:..\..\..\..\..\..\Software\uCOS-III\Source/os_sem.c ****         if (p_ts != (CPU_TS *)0) {
 225              		.loc 1 365 19 is_stmt 0 view .LVU72
 226 00ba 013C     		subs	r4, r4, #1
 227 00bc 3C62     		str	r4, [r7, #32]
 366:..\..\..\..\..\..\Software\uCOS-III\Source/os_sem.c ****            *p_ts  = p_sem->TS;                              /*      get timestamp of last post     
 228              		.loc 1 366 9 is_stmt 1 view .LVU73
 366:..\..\..\..\..\..\Software\uCOS-III\Source/os_sem.c ****            *p_ts  = p_sem->TS;                              /*      get timestamp of last post     
 229              		.loc 1 366 12 is_stmt 0 view .LVU74
 230 00be 002E     		cmp	r6, #0
 231 00c0 01D0     		beq	.L8
 367:..\..\..\..\..\..\Software\uCOS-III\Source/os_sem.c ****         }
 232              		.loc 1 367 12 is_stmt 1 view .LVU75
 367:..\..\..\..\..\..\Software\uCOS-III\Source/os_sem.c ****         }
 233              		.loc 1 367 19 is_stmt 0 view .LVU76
 234 00c2 7B6A     		ldr	r3, [r7, #36]
 235 00c4 3360     		str	r3, [r6]
 236              	.L8:
 369:..\..\..\..\..\..\Software\uCOS-III\Source/os_sem.c ****         CPU_CRITICAL_EXIT();
 237              		.loc 1 369 9 is_stmt 1 view .LVU77
 369:..\..\..\..\..\..\Software\uCOS-III\Source/os_sem.c ****         CPU_CRITICAL_EXIT();
 238              		.loc 1 369 15 is_stmt 0 view .LVU78
 239 00c6 3C6A     		ldr	r4, [r7, #32]
 240              	.LVL26:
 370:..\..\..\..\..\..\Software\uCOS-III\Source/os_sem.c ****        *p_err = OS_ERR_NONE;
 241              		.loc 1 370 9 is_stmt 1 view .LVU79
 370:..\..\..\..\..\..\Software\uCOS-III\Source/os_sem.c ****        *p_err = OS_ERR_NONE;
 242              		.loc 1 370 9 view .LVU80
 243 00c8 FFF7FEFF 		bl	CPU_IntDisMeasStop
 244              	.LVL27:
ARM GAS  C:\Users\EDULU~1.DES\AppData\Local\Temp\ccfRue3n.s 			page 14


 370:..\..\..\..\..\..\Software\uCOS-III\Source/os_sem.c ****        *p_err = OS_ERR_NONE;
 245              		.loc 1 370 9 view .LVU81
 370:..\..\..\..\..\..\Software\uCOS-III\Source/os_sem.c ****        *p_err = OS_ERR_NONE;
 246              		.loc 1 370 9 view .LVU82
 247 00cc 0198     		ldr	r0, [sp, #4]
 248 00ce FFF7FEFF 		bl	CPU_SR_Restore
 249              	.LVL28:
 371:..\..\..\..\..\..\Software\uCOS-III\Source/os_sem.c ****         return (ctr);
 250              		.loc 1 371 8 view .LVU83
 371:..\..\..\..\..\..\Software\uCOS-III\Source/os_sem.c ****         return (ctr);
 251              		.loc 1 371 15 is_stmt 0 view .LVU84
 252 00d2 0023     		movs	r3, #0
 253 00d4 109A     		ldr	r2, [sp, #64]
 254 00d6 1380     		strh	r3, [r2]
 372:..\..\..\..\..\..\Software\uCOS-III\Source/os_sem.c ****     }
 255              		.loc 1 372 9 is_stmt 1 view .LVU85
 372:..\..\..\..\..\..\Software\uCOS-III\Source/os_sem.c ****     }
 256              		.loc 1 372 16 is_stmt 0 view .LVU86
 257 00d8 ADE7     		b	.L1
 258              	.LVL29:
 259              	.L25:
 376:..\..\..\..\..\..\Software\uCOS-III\Source/os_sem.c ****         CPU_CRITICAL_EXIT();
 260              		.loc 1 376 9 is_stmt 1 view .LVU87
 377:..\..\..\..\..\..\Software\uCOS-III\Source/os_sem.c ****        *p_err = OS_ERR_PEND_WOULD_BLOCK;
 261              		.loc 1 377 9 view .LVU88
 377:..\..\..\..\..\..\Software\uCOS-III\Source/os_sem.c ****        *p_err = OS_ERR_PEND_WOULD_BLOCK;
 262              		.loc 1 377 9 view .LVU89
 263 00da FFF7FEFF 		bl	CPU_IntDisMeasStop
 264              	.LVL30:
 377:..\..\..\..\..\..\Software\uCOS-III\Source/os_sem.c ****        *p_err = OS_ERR_PEND_WOULD_BLOCK;
 265              		.loc 1 377 9 view .LVU90
 377:..\..\..\..\..\..\Software\uCOS-III\Source/os_sem.c ****        *p_err = OS_ERR_PEND_WOULD_BLOCK;
 266              		.loc 1 377 9 view .LVU91
 267 00de 0198     		ldr	r0, [sp, #4]
 268 00e0 FFF7FEFF 		bl	CPU_SR_Restore
 269              	.LVL31:
 378:..\..\..\..\..\..\Software\uCOS-III\Source/os_sem.c ****         return (ctr);
 270              		.loc 1 378 8 view .LVU92
 378:..\..\..\..\..\..\Software\uCOS-III\Source/os_sem.c ****         return (ctr);
 271              		.loc 1 378 15 is_stmt 0 view .LVU93
 272 00e4 204B     		ldr	r3, .L27+28
 273 00e6 109A     		ldr	r2, [sp, #64]
 274 00e8 1380     		strh	r3, [r2]
 379:..\..\..\..\..\..\Software\uCOS-III\Source/os_sem.c ****     } else {                                                /* Yes                                 
 275              		.loc 1 379 9 is_stmt 1 view .LVU94
 379:..\..\..\..\..\..\Software\uCOS-III\Source/os_sem.c ****     } else {                                                /* Yes                                 
 276              		.loc 1 379 16 is_stmt 0 view .LVU95
 277 00ea A4E7     		b	.L1
 278              	.LVL32:
 279              	.L26:
 382:..\..\..\..\..\..\Software\uCOS-III\Source/os_sem.c ****            *p_err = OS_ERR_SCHED_LOCKED;
 280              		.loc 1 382 13 is_stmt 1 view .LVU96
 382:..\..\..\..\..\..\Software\uCOS-III\Source/os_sem.c ****            *p_err = OS_ERR_SCHED_LOCKED;
 281              		.loc 1 382 13 view .LVU97
 282 00ec FFF7FEFF 		bl	CPU_IntDisMeasStop
 283              	.LVL33:
 382:..\..\..\..\..\..\Software\uCOS-III\Source/os_sem.c ****            *p_err = OS_ERR_SCHED_LOCKED;
ARM GAS  C:\Users\EDULU~1.DES\AppData\Local\Temp\ccfRue3n.s 			page 15


 284              		.loc 1 382 13 view .LVU98
 382:..\..\..\..\..\..\Software\uCOS-III\Source/os_sem.c ****            *p_err = OS_ERR_SCHED_LOCKED;
 285              		.loc 1 382 13 view .LVU99
 286 00f0 0198     		ldr	r0, [sp, #4]
 287 00f2 FFF7FEFF 		bl	CPU_SR_Restore
 288              	.LVL34:
 383:..\..\..\..\..\..\Software\uCOS-III\Source/os_sem.c ****             return ((OS_SEM_CTR)0);
 289              		.loc 1 383 12 view .LVU100
 383:..\..\..\..\..\..\Software\uCOS-III\Source/os_sem.c ****             return ((OS_SEM_CTR)0);
 290              		.loc 1 383 19 is_stmt 0 view .LVU101
 291 00f6 1D4B     		ldr	r3, .L27+32
 292 00f8 109A     		ldr	r2, [sp, #64]
 293 00fa 1380     		strh	r3, [r2]
 384:..\..\..\..\..\..\Software\uCOS-III\Source/os_sem.c ****         }
 294              		.loc 1 384 13 is_stmt 1 view .LVU102
 384:..\..\..\..\..\..\Software\uCOS-III\Source/os_sem.c ****         }
 295              		.loc 1 384 20 is_stmt 0 view .LVU103
 296 00fc 9BE7     		b	.L1
 297              	.LVL35:
 298              	.L12:
 401:..\..\..\..\..\..\Software\uCOS-III\Source/os_sem.c ****                 *p_ts  =  OSTCBCurPtr->TS;
 299              		.loc 1 401 14 is_stmt 1 view .LVU104
 401:..\..\..\..\..\..\Software\uCOS-III\Source/os_sem.c ****                 *p_ts  =  OSTCBCurPtr->TS;
 300              		.loc 1 401 17 is_stmt 0 view .LVU105
 301 00fe 002E     		cmp	r6, #0
 302 0100 01D0     		beq	.L16
 402:..\..\..\..\..\..\Software\uCOS-III\Source/os_sem.c ****              }
 303              		.loc 1 402 17 is_stmt 1 view .LVU106
 402:..\..\..\..\..\..\Software\uCOS-III\Source/os_sem.c ****              }
 304              		.loc 1 402 38 is_stmt 0 view .LVU107
 305 0102 136C     		ldr	r3, [r2, #64]
 306 0104 3360     		str	r3, [r6]
 307              	.L16:
 404:..\..\..\..\..\..\Software\uCOS-III\Source/os_sem.c ****              break;
 308              		.loc 1 404 13 is_stmt 1 view .LVU108
 404:..\..\..\..\..\..\Software\uCOS-III\Source/os_sem.c ****              break;
 309              		.loc 1 404 20 is_stmt 0 view .LVU109
 310 0106 0023     		movs	r3, #0
 311 0108 109A     		ldr	r2, [sp, #64]
 312 010a 1380     		strh	r3, [r2]
 405:..\..\..\..\..\..\Software\uCOS-III\Source/os_sem.c **** 
 313              		.loc 1 405 14 is_stmt 1 view .LVU110
 314              	.L17:
 433:..\..\..\..\..\..\Software\uCOS-III\Source/os_sem.c ****     CPU_CRITICAL_EXIT();
 315              		.loc 1 433 5 view .LVU111
 433:..\..\..\..\..\..\Software\uCOS-III\Source/os_sem.c ****     CPU_CRITICAL_EXIT();
 316              		.loc 1 433 9 is_stmt 0 view .LVU112
 317 010c 3C6A     		ldr	r4, [r7, #32]
 318              	.LVL36:
 434:..\..\..\..\..\..\Software\uCOS-III\Source/os_sem.c ****     return (ctr);
 319              		.loc 1 434 5 is_stmt 1 view .LVU113
 434:..\..\..\..\..\..\Software\uCOS-III\Source/os_sem.c ****     return (ctr);
 320              		.loc 1 434 5 view .LVU114
 321 010e FFF7FEFF 		bl	CPU_IntDisMeasStop
 322              	.LVL37:
 434:..\..\..\..\..\..\Software\uCOS-III\Source/os_sem.c ****     return (ctr);
 323              		.loc 1 434 5 view .LVU115
ARM GAS  C:\Users\EDULU~1.DES\AppData\Local\Temp\ccfRue3n.s 			page 16


 434:..\..\..\..\..\..\Software\uCOS-III\Source/os_sem.c ****     return (ctr);
 324              		.loc 1 434 5 view .LVU116
 325 0112 2800     		movs	r0, r5
 326 0114 FFF7FEFF 		bl	CPU_SR_Restore
 327              	.LVL38:
 435:..\..\..\..\..\..\Software\uCOS-III\Source/os_sem.c **** }
 328              		.loc 1 435 5 view .LVU117
 435:..\..\..\..\..\..\Software\uCOS-III\Source/os_sem.c **** }
 329              		.loc 1 435 12 is_stmt 0 view .LVU118
 330 0118 8DE7     		b	.L1
 331              	.LVL39:
 332              	.L11:
 408:..\..\..\..\..\..\Software\uCOS-III\Source/os_sem.c ****                 *p_ts  =  OSTCBCurPtr->TS;
 333              		.loc 1 408 14 is_stmt 1 view .LVU119
 408:..\..\..\..\..\..\Software\uCOS-III\Source/os_sem.c ****                 *p_ts  =  OSTCBCurPtr->TS;
 334              		.loc 1 408 17 is_stmt 0 view .LVU120
 335 011a 002E     		cmp	r6, #0
 336 011c 01D0     		beq	.L18
 409:..\..\..\..\..\..\Software\uCOS-III\Source/os_sem.c ****              }
 337              		.loc 1 409 17 is_stmt 1 view .LVU121
 409:..\..\..\..\..\..\Software\uCOS-III\Source/os_sem.c ****              }
 338              		.loc 1 409 38 is_stmt 0 view .LVU122
 339 011e 136C     		ldr	r3, [r2, #64]
 340 0120 3360     		str	r3, [r6]
 341              	.L18:
 411:..\..\..\..\..\..\Software\uCOS-III\Source/os_sem.c ****              break;
 342              		.loc 1 411 13 is_stmt 1 view .LVU123
 411:..\..\..\..\..\..\Software\uCOS-III\Source/os_sem.c ****              break;
 343              		.loc 1 411 20 is_stmt 0 view .LVU124
 344 0122 134B     		ldr	r3, .L27+36
 345 0124 109A     		ldr	r2, [sp, #64]
 346 0126 1380     		strh	r3, [r2]
 412:..\..\..\..\..\..\Software\uCOS-III\Source/os_sem.c **** 
 347              		.loc 1 412 14 is_stmt 1 view .LVU125
 348 0128 F0E7     		b	.L17
 349              	.L14:
 415:..\..\..\..\..\..\Software\uCOS-III\Source/os_sem.c ****                 *p_ts  = (CPU_TS  )0;
 350              		.loc 1 415 14 view .LVU126
 415:..\..\..\..\..\..\Software\uCOS-III\Source/os_sem.c ****                 *p_ts  = (CPU_TS  )0;
 351              		.loc 1 415 17 is_stmt 0 view .LVU127
 352 012a 002E     		cmp	r6, #0
 353 012c 01D0     		beq	.L19
 416:..\..\..\..\..\..\Software\uCOS-III\Source/os_sem.c ****              }
 354              		.loc 1 416 17 is_stmt 1 view .LVU128
 416:..\..\..\..\..\..\Software\uCOS-III\Source/os_sem.c ****              }
 355              		.loc 1 416 24 is_stmt 0 view .LVU129
 356 012e 0023     		movs	r3, #0
 357 0130 3360     		str	r3, [r6]
 358              	.L19:
 418:..\..\..\..\..\..\Software\uCOS-III\Source/os_sem.c ****              break;
 359              		.loc 1 418 13 is_stmt 1 view .LVU130
 418:..\..\..\..\..\..\Software\uCOS-III\Source/os_sem.c ****              break;
 360              		.loc 1 418 20 is_stmt 0 view .LVU131
 361 0132 104B     		ldr	r3, .L27+40
 362 0134 109A     		ldr	r2, [sp, #64]
 363 0136 1380     		strh	r3, [r2]
 419:..\..\..\..\..\..\Software\uCOS-III\Source/os_sem.c **** 
ARM GAS  C:\Users\EDULU~1.DES\AppData\Local\Temp\ccfRue3n.s 			page 17


 364              		.loc 1 419 14 is_stmt 1 view .LVU132
 365 0138 E8E7     		b	.L17
 366              	.L13:
 422:..\..\..\..\..\..\Software\uCOS-III\Source/os_sem.c ****                 *p_ts  =  OSTCBCurPtr->TS;
 367              		.loc 1 422 14 view .LVU133
 422:..\..\..\..\..\..\Software\uCOS-III\Source/os_sem.c ****                 *p_ts  =  OSTCBCurPtr->TS;
 368              		.loc 1 422 17 is_stmt 0 view .LVU134
 369 013a 002E     		cmp	r6, #0
 370 013c 01D0     		beq	.L20
 423:..\..\..\..\..\..\Software\uCOS-III\Source/os_sem.c ****              }
 371              		.loc 1 423 17 is_stmt 1 view .LVU135
 423:..\..\..\..\..\..\Software\uCOS-III\Source/os_sem.c ****              }
 372              		.loc 1 423 38 is_stmt 0 view .LVU136
 373 013e 136C     		ldr	r3, [r2, #64]
 374 0140 3360     		str	r3, [r6]
 375              	.L20:
 425:..\..\..\..\..\..\Software\uCOS-III\Source/os_sem.c ****              break;
 376              		.loc 1 425 13 is_stmt 1 view .LVU137
 425:..\..\..\..\..\..\Software\uCOS-III\Source/os_sem.c ****              break;
 377              		.loc 1 425 20 is_stmt 0 view .LVU138
 378 0142 0D4B     		ldr	r3, .L27+44
 379 0144 109A     		ldr	r2, [sp, #64]
 380 0146 1380     		strh	r3, [r2]
 426:..\..\..\..\..\..\Software\uCOS-III\Source/os_sem.c **** 
 381              		.loc 1 426 14 is_stmt 1 view .LVU139
 382 0148 E0E7     		b	.L17
 383              	.L28:
 384 014a C046     		.align	2
 385              	.L27:
 386 014c 00000000 		.word	OSIntNestingCtr
 387 0150 255E0000 		.word	24101
 388 0154 AE610000 		.word	25006
 389 0158 C35D0000 		.word	24003
 390 015c 00000000 		.word	OSSchedLockNestingCtr
 391 0160 00000000 		.word	OSTCBCurPtr
 392 0164 2E6E0000 		.word	28206
 393 0168 B0610000 		.word	25008
 394 016c 636D0000 		.word	28003
 395 0170 A9610000 		.word	25001
 396 0174 D9720000 		.word	29401
 397 0178 C25D0000 		.word	24002
 398              		.cfi_endproc
 399              	.LFE4:
 400              		.size	OSSemPend, .-OSSemPend
 401              		.section	.text.OSSemPendAbort,"ax",%progbits
 402              		.align	1
 403              		.global	OSSemPendAbort
 404              		.syntax unified
 405              		.code	16
 406              		.thumb_func
 407              		.fpu softvfp
 408              		.type	OSSemPendAbort, %function
 409              	OSSemPendAbort:
 410              	.LVL40:
 411              	.LFB5:
 437:..\..\..\..\..\..\Software\uCOS-III\Source/os_sem.c **** 
 438:..\..\..\..\..\..\Software\uCOS-III\Source/os_sem.c **** /*$PAGE*/
ARM GAS  C:\Users\EDULU~1.DES\AppData\Local\Temp\ccfRue3n.s 			page 18


 439:..\..\..\..\..\..\Software\uCOS-III\Source/os_sem.c **** /*
 440:..\..\..\..\..\..\Software\uCOS-III\Source/os_sem.c **** ***************************************************************************************************
 441:..\..\..\..\..\..\Software\uCOS-III\Source/os_sem.c **** *                                             ABORT WAITING ON A SEMAPHORE
 442:..\..\..\..\..\..\Software\uCOS-III\Source/os_sem.c **** *
 443:..\..\..\..\..\..\Software\uCOS-III\Source/os_sem.c **** * Description: This function aborts & readies any tasks currently waiting on a semaphore.  This fun
 444:..\..\..\..\..\..\Software\uCOS-III\Source/os_sem.c **** *              to fault-abort the wait on the semaphore, rather than to normally signal the semapho
 445:..\..\..\..\..\..\Software\uCOS-III\Source/os_sem.c **** *
 446:..\..\..\..\..\..\Software\uCOS-III\Source/os_sem.c **** * Arguments  : p_sem     is a pointer to the semaphore
 447:..\..\..\..\..\..\Software\uCOS-III\Source/os_sem.c **** *
 448:..\..\..\..\..\..\Software\uCOS-III\Source/os_sem.c **** *              opt       determines the type of ABORT performed:
 449:..\..\..\..\..\..\Software\uCOS-III\Source/os_sem.c **** *
 450:..\..\..\..\..\..\Software\uCOS-III\Source/os_sem.c **** *                            OS_OPT_PEND_ABORT_1          ABORT wait for a single task (HPT) waitin
 451:..\..\..\..\..\..\Software\uCOS-III\Source/os_sem.c **** *                            OS_OPT_PEND_ABORT_ALL        ABORT wait for ALL tasks that are  waitin
 452:..\..\..\..\..\..\Software\uCOS-III\Source/os_sem.c **** *                            OS_OPT_POST_NO_SCHED         Do not call the scheduler
 453:..\..\..\..\..\..\Software\uCOS-III\Source/os_sem.c **** *
 454:..\..\..\..\..\..\Software\uCOS-III\Source/os_sem.c **** *              p_err     is a pointer to a variable that will contain an error code returned by thi
 455:..\..\..\..\..\..\Software\uCOS-III\Source/os_sem.c **** *
 456:..\..\..\..\..\..\Software\uCOS-III\Source/os_sem.c **** *                            OS_ERR_NONE                  At least one task waiting on the semaphor
 457:..\..\..\..\..\..\Software\uCOS-III\Source/os_sem.c **** *                                                         informed of the aborted wait; check retur
 458:..\..\..\..\..\..\Software\uCOS-III\Source/os_sem.c **** *                                                         number of tasks whose wait on the semapho
 459:..\..\..\..\..\..\Software\uCOS-III\Source/os_sem.c **** *                            OS_ERR_OBJ_PTR_NULL          If 'p_sem' is a NULL pointer.
 460:..\..\..\..\..\..\Software\uCOS-III\Source/os_sem.c **** *                            OS_ERR_OBJ_TYPE              If 'p_sem' is not pointing at a semaphore
 461:..\..\..\..\..\..\Software\uCOS-III\Source/os_sem.c **** *                            OS_ERR_OPT_INVALID           If you specified an invalid option
 462:..\..\..\..\..\..\Software\uCOS-III\Source/os_sem.c **** *                            OS_ERR_PEND_ABORT_ISR        If you called this function from an ISR
 463:..\..\..\..\..\..\Software\uCOS-III\Source/os_sem.c **** *                            OS_ERR_PEND_ABORT_NONE       No task were pending
 464:..\..\..\..\..\..\Software\uCOS-III\Source/os_sem.c **** *
 465:..\..\..\..\..\..\Software\uCOS-III\Source/os_sem.c **** * Returns    : == 0          if no tasks were waiting on the semaphore, or upon error.
 466:..\..\..\..\..\..\Software\uCOS-III\Source/os_sem.c **** *              >  0          if one or more tasks waiting on the semaphore are now readied and info
 467:..\..\..\..\..\..\Software\uCOS-III\Source/os_sem.c **** ***************************************************************************************************
 468:..\..\..\..\..\..\Software\uCOS-III\Source/os_sem.c **** */
 469:..\..\..\..\..\..\Software\uCOS-III\Source/os_sem.c **** 
 470:..\..\..\..\..\..\Software\uCOS-III\Source/os_sem.c **** #if OS_CFG_SEM_PEND_ABORT_EN > 0u
 471:..\..\..\..\..\..\Software\uCOS-III\Source/os_sem.c **** OS_OBJ_QTY  OSSemPendAbort (OS_SEM  *p_sem,
 472:..\..\..\..\..\..\Software\uCOS-III\Source/os_sem.c ****                             OS_OPT   opt,
 473:..\..\..\..\..\..\Software\uCOS-III\Source/os_sem.c ****                             OS_ERR  *p_err)
 474:..\..\..\..\..\..\Software\uCOS-III\Source/os_sem.c **** {
 412              		.loc 1 474 1 view -0
 413              		.cfi_startproc
 414              		@ args = 0, pretend = 0, frame = 8
 415              		@ frame_needed = 0, uses_anonymous_args = 0
 416              		.loc 1 474 1 is_stmt 0 view .LVU141
 417 0000 F0B5     		push	{r4, r5, r6, r7, lr}
 418              		.cfi_def_cfa_offset 20
 419              		.cfi_offset 4, -20
 420              		.cfi_offset 5, -16
 421              		.cfi_offset 6, -12
 422              		.cfi_offset 7, -8
 423              		.cfi_offset 14, -4
 424 0002 83B0     		sub	sp, sp, #12
 425              		.cfi_def_cfa_offset 32
 426 0004 0600     		movs	r6, r0
 427 0006 0D00     		movs	r5, r1
 428 0008 1700     		movs	r7, r2
 475:..\..\..\..\..\..\Software\uCOS-III\Source/os_sem.c ****     OS_PEND_LIST  *p_pend_list;
 429              		.loc 1 475 5 is_stmt 1 view .LVU142
 476:..\..\..\..\..\..\Software\uCOS-III\Source/os_sem.c ****     OS_TCB        *p_tcb;
 430              		.loc 1 476 5 view .LVU143
ARM GAS  C:\Users\EDULU~1.DES\AppData\Local\Temp\ccfRue3n.s 			page 19


 477:..\..\..\..\..\..\Software\uCOS-III\Source/os_sem.c ****     CPU_TS         ts;
 431              		.loc 1 477 5 view .LVU144
 478:..\..\..\..\..\..\Software\uCOS-III\Source/os_sem.c ****     OS_OBJ_QTY     nbr_tasks;
 432              		.loc 1 478 5 view .LVU145
 479:..\..\..\..\..\..\Software\uCOS-III\Source/os_sem.c ****     CPU_SR_ALLOC();
 433              		.loc 1 479 5 view .LVU146
 434              	.LVL41:
 480:..\..\..\..\..\..\Software\uCOS-III\Source/os_sem.c **** 
 481:..\..\..\..\..\..\Software\uCOS-III\Source/os_sem.c **** 
 482:..\..\..\..\..\..\Software\uCOS-III\Source/os_sem.c **** 
 483:..\..\..\..\..\..\Software\uCOS-III\Source/os_sem.c **** #ifdef OS_SAFETY_CRITICAL
 484:..\..\..\..\..\..\Software\uCOS-III\Source/os_sem.c ****     if (p_err == (OS_ERR *)0) {
 485:..\..\..\..\..\..\Software\uCOS-III\Source/os_sem.c ****         OS_SAFETY_CRITICAL_EXCEPTION();
 486:..\..\..\..\..\..\Software\uCOS-III\Source/os_sem.c ****         return ((OS_OBJ_QTY)0u);
 487:..\..\..\..\..\..\Software\uCOS-III\Source/os_sem.c ****     }
 488:..\..\..\..\..\..\Software\uCOS-III\Source/os_sem.c **** #endif
 489:..\..\..\..\..\..\Software\uCOS-III\Source/os_sem.c **** 
 490:..\..\..\..\..\..\Software\uCOS-III\Source/os_sem.c **** #if OS_CFG_CALLED_FROM_ISR_CHK_EN > 0u
 491:..\..\..\..\..\..\Software\uCOS-III\Source/os_sem.c ****     if (OSIntNestingCtr > (OS_NESTING_CTR)0u) {             /* Not allowed to Pend Abort from an IS
 435              		.loc 1 491 5 view .LVU147
 436              		.loc 1 491 25 is_stmt 0 view .LVU148
 437 000a 2A4B     		ldr	r3, .L46
 438 000c 1B78     		ldrb	r3, [r3]
 439              		.loc 1 491 8 view .LVU149
 440 000e 002B     		cmp	r3, #0
 441 0010 34D1     		bne	.L41
 492:..\..\..\..\..\..\Software\uCOS-III\Source/os_sem.c ****        *p_err =  OS_ERR_PEND_ABORT_ISR;
 493:..\..\..\..\..\..\Software\uCOS-III\Source/os_sem.c ****         return ((OS_OBJ_QTY)0u);
 494:..\..\..\..\..\..\Software\uCOS-III\Source/os_sem.c ****     }
 495:..\..\..\..\..\..\Software\uCOS-III\Source/os_sem.c **** #endif
 496:..\..\..\..\..\..\Software\uCOS-III\Source/os_sem.c **** 
 497:..\..\..\..\..\..\Software\uCOS-III\Source/os_sem.c **** #if OS_CFG_ARG_CHK_EN > 0u
 498:..\..\..\..\..\..\Software\uCOS-III\Source/os_sem.c ****     if (p_sem == (OS_SEM *)0) {                             /* Validate 'p_sem'                    
 442              		.loc 1 498 5 is_stmt 1 view .LVU150
 443              		.loc 1 498 8 is_stmt 0 view .LVU151
 444 0012 0028     		cmp	r0, #0
 445 0014 36D0     		beq	.L42
 499:..\..\..\..\..\..\Software\uCOS-III\Source/os_sem.c ****        *p_err =  OS_ERR_OBJ_PTR_NULL;
 500:..\..\..\..\..\..\Software\uCOS-III\Source/os_sem.c ****         return ((OS_OBJ_QTY)0u);
 501:..\..\..\..\..\..\Software\uCOS-III\Source/os_sem.c ****     }
 502:..\..\..\..\..\..\Software\uCOS-III\Source/os_sem.c ****     switch (opt) {                                          /* Validate 'opt'                      
 446              		.loc 1 502 5 is_stmt 1 view .LVU152
 447 0016 8023     		movs	r3, #128
 448 0018 5B00     		lsls	r3, r3, #1
 449 001a 9942     		cmp	r1, r3
 450 001c 08D0     		beq	.L33
 451 001e 35D9     		bls	.L43
 452 0020 8023     		movs	r3, #128
 453 0022 1B02     		lsls	r3, r3, #8
 454 0024 9942     		cmp	r1, r3
 455 0026 03D0     		beq	.L33
 456 0028 0133     		adds	r3, r3, #1
 457 002a FF33     		adds	r3, r3, #255
 458 002c 9942     		cmp	r1, r3
 459 002e 2FD1     		bne	.L35
 460              	.L33:
 503:..\..\..\..\..\..\Software\uCOS-III\Source/os_sem.c ****         case OS_OPT_PEND_ABORT_1:
ARM GAS  C:\Users\EDULU~1.DES\AppData\Local\Temp\ccfRue3n.s 			page 20


 504:..\..\..\..\..\..\Software\uCOS-III\Source/os_sem.c ****         case OS_OPT_PEND_ABORT_ALL:
 505:..\..\..\..\..\..\Software\uCOS-III\Source/os_sem.c ****         case OS_OPT_PEND_ABORT_1   | OS_OPT_POST_NO_SCHED:
 506:..\..\..\..\..\..\Software\uCOS-III\Source/os_sem.c ****         case OS_OPT_PEND_ABORT_ALL | OS_OPT_POST_NO_SCHED:
 507:..\..\..\..\..\..\Software\uCOS-III\Source/os_sem.c ****              break;
 461              		.loc 1 507 14 view .LVU153
 508:..\..\..\..\..\..\Software\uCOS-III\Source/os_sem.c **** 
 509:..\..\..\..\..\..\Software\uCOS-III\Source/os_sem.c ****         default:
 510:..\..\..\..\..\..\Software\uCOS-III\Source/os_sem.c ****             *p_err =  OS_ERR_OPT_INVALID;
 511:..\..\..\..\..\..\Software\uCOS-III\Source/os_sem.c ****              return ((OS_OBJ_QTY)0u);
 512:..\..\..\..\..\..\Software\uCOS-III\Source/os_sem.c ****     }
 513:..\..\..\..\..\..\Software\uCOS-III\Source/os_sem.c **** #endif
 514:..\..\..\..\..\..\Software\uCOS-III\Source/os_sem.c **** 
 515:..\..\..\..\..\..\Software\uCOS-III\Source/os_sem.c **** #if OS_CFG_OBJ_TYPE_CHK_EN > 0u
 516:..\..\..\..\..\..\Software\uCOS-III\Source/os_sem.c ****     if (p_sem->Type != OS_OBJ_TYPE_SEM) {                   /* Make sure semaphore was created     
 517:..\..\..\..\..\..\Software\uCOS-III\Source/os_sem.c ****        *p_err =  OS_ERR_OBJ_TYPE;
 518:..\..\..\..\..\..\Software\uCOS-III\Source/os_sem.c ****         return ((OS_OBJ_QTY)0u);
 519:..\..\..\..\..\..\Software\uCOS-III\Source/os_sem.c ****     }
 520:..\..\..\..\..\..\Software\uCOS-III\Source/os_sem.c **** #endif
 521:..\..\..\..\..\..\Software\uCOS-III\Source/os_sem.c **** 
 522:..\..\..\..\..\..\Software\uCOS-III\Source/os_sem.c ****     CPU_CRITICAL_ENTER();
 462              		.loc 1 522 5 view .LVU154
 463              		.loc 1 522 5 view .LVU155
 464              		.loc 1 522 5 view .LVU156
 465 0030 FFF7FEFF 		bl	CPU_SR_Save
 466              	.LVL42:
 467              		.loc 1 522 5 is_stmt 0 view .LVU157
 468 0034 0190     		str	r0, [sp, #4]
 469              	.LVL43:
 470              		.loc 1 522 5 is_stmt 1 view .LVU158
 471 0036 FFF7FEFF 		bl	CPU_IntDisMeasStart
 472              	.LVL44:
 523:..\..\..\..\..\..\Software\uCOS-III\Source/os_sem.c ****     p_pend_list = &p_sem->PendList;
 473              		.loc 1 523 5 view .LVU159
 524:..\..\..\..\..\..\Software\uCOS-III\Source/os_sem.c ****     if (p_pend_list->NbrEntries == (OS_OBJ_QTY)0u) {        /* Any task waiting on semaphore?      
 474              		.loc 1 524 5 view .LVU160
 475              		.loc 1 524 20 is_stmt 0 view .LVU161
 476 003a 348A     		ldrh	r4, [r6, #16]
 477              		.loc 1 524 8 view .LVU162
 478 003c 002C     		cmp	r4, #0
 479 003e 2DD0     		beq	.L44
 525:..\..\..\..\..\..\Software\uCOS-III\Source/os_sem.c ****         CPU_CRITICAL_EXIT();                                /* No                                  
 526:..\..\..\..\..\..\Software\uCOS-III\Source/os_sem.c ****        *p_err =  OS_ERR_PEND_ABORT_NONE;
 527:..\..\..\..\..\..\Software\uCOS-III\Source/os_sem.c ****         return ((OS_OBJ_QTY)0u);
 528:..\..\..\..\..\..\Software\uCOS-III\Source/os_sem.c ****     }
 529:..\..\..\..\..\..\Software\uCOS-III\Source/os_sem.c **** 
 530:..\..\..\..\..\..\Software\uCOS-III\Source/os_sem.c ****     OS_CRITICAL_ENTER_CPU_EXIT();
 480              		.loc 1 530 33 is_stmt 1 view .LVU163
 531:..\..\..\..\..\..\Software\uCOS-III\Source/os_sem.c ****     nbr_tasks = 0u;
 481              		.loc 1 531 5 view .LVU164
 482              	.LVL45:
 532:..\..\..\..\..\..\Software\uCOS-III\Source/os_sem.c ****     ts        = OS_TS_GET();                                /* Get local time stamp so all tasks ge
 483              		.loc 1 532 5 view .LVU165
 484              		.loc 1 532 17 is_stmt 0 view .LVU166
 485 0040 FFF7FEFF 		bl	CPU_TS_TmrRd
 486              	.LVL46:
 487 0044 0090     		str	r0, [sp]
 488              	.LVL47:
ARM GAS  C:\Users\EDULU~1.DES\AppData\Local\Temp\ccfRue3n.s 			page 21


 533:..\..\..\..\..\..\Software\uCOS-III\Source/os_sem.c ****     while (p_pend_list->NbrEntries > (OS_OBJ_QTY)0u) {
 489              		.loc 1 533 5 is_stmt 1 view .LVU167
 531:..\..\..\..\..\..\Software\uCOS-III\Source/os_sem.c ****     nbr_tasks = 0u;
 490              		.loc 1 531 15 is_stmt 0 view .LVU168
 491 0046 0024     		movs	r4, #0
 492              	.LVL48:
 493              	.L37:
 494              		.loc 1 533 23 view .LVU169
 495 0048 338A     		ldrh	r3, [r6, #16]
 496              		.loc 1 533 11 view .LVU170
 497 004a 002B     		cmp	r3, #0
 498 004c 0BD0     		beq	.L38
 534:..\..\..\..\..\..\Software\uCOS-III\Source/os_sem.c ****         p_tcb = p_pend_list->HeadPtr->TCBPtr;
 499              		.loc 1 534 9 is_stmt 1 view .LVU171
 500              		.loc 1 534 28 is_stmt 0 view .LVU172
 501 004e B368     		ldr	r3, [r6, #8]
 502              		.loc 1 534 15 view .LVU173
 503 0050 9968     		ldr	r1, [r3, #8]
 504              	.LVL49:
 535:..\..\..\..\..\..\Software\uCOS-III\Source/os_sem.c ****         OS_PendAbort((OS_PEND_OBJ *)((void *)p_sem),
 505              		.loc 1 535 9 is_stmt 1 view .LVU174
 506 0052 009A     		ldr	r2, [sp]
 507 0054 3000     		movs	r0, r6
 508 0056 FFF7FEFF 		bl	OS_PendAbort
 509              	.LVL50:
 536:..\..\..\..\..\..\Software\uCOS-III\Source/os_sem.c ****                      p_tcb,
 537:..\..\..\..\..\..\Software\uCOS-III\Source/os_sem.c ****                      ts);
 538:..\..\..\..\..\..\Software\uCOS-III\Source/os_sem.c ****         nbr_tasks++;
 510              		.loc 1 538 9 view .LVU175
 511              		.loc 1 538 18 is_stmt 0 view .LVU176
 512 005a 0134     		adds	r4, r4, #1
 513              	.LVL51:
 514              		.loc 1 538 18 view .LVU177
 515 005c A4B2     		uxth	r4, r4
 516              	.LVL52:
 539:..\..\..\..\..\..\Software\uCOS-III\Source/os_sem.c ****         if (opt != OS_OPT_PEND_ABORT_ALL) {                 /* Pend abort all tasks waiting?       
 517              		.loc 1 539 9 is_stmt 1 view .LVU178
 518              		.loc 1 539 12 is_stmt 0 view .LVU179
 519 005e 8023     		movs	r3, #128
 520 0060 5B00     		lsls	r3, r3, #1
 521 0062 9D42     		cmp	r5, r3
 522 0064 F0D0     		beq	.L37
 523              	.L38:
 540:..\..\..\..\..\..\Software\uCOS-III\Source/os_sem.c ****             break;                                          /* No                                  
 541:..\..\..\..\..\..\Software\uCOS-III\Source/os_sem.c ****         }
 542:..\..\..\..\..\..\Software\uCOS-III\Source/os_sem.c ****     }
 543:..\..\..\..\..\..\Software\uCOS-III\Source/os_sem.c ****     OS_CRITICAL_EXIT_NO_SCHED();
 524              		.loc 1 543 5 is_stmt 1 view .LVU180
 525              		.loc 1 543 5 view .LVU181
 526 0066 FFF7FEFF 		bl	CPU_IntDisMeasStop
 527              	.LVL53:
 528              		.loc 1 543 5 view .LVU182
 529              		.loc 1 543 5 view .LVU183
 530 006a 0198     		ldr	r0, [sp, #4]
 531 006c FFF7FEFF 		bl	CPU_SR_Restore
 532              	.LVL54:
 544:..\..\..\..\..\..\Software\uCOS-III\Source/os_sem.c **** 
ARM GAS  C:\Users\EDULU~1.DES\AppData\Local\Temp\ccfRue3n.s 			page 22


 545:..\..\..\..\..\..\Software\uCOS-III\Source/os_sem.c ****     if ((opt & OS_OPT_POST_NO_SCHED) == (OS_OPT)0u) {
 533              		.loc 1 545 5 view .LVU184
 534              		.loc 1 545 38 is_stmt 0 view .LVU185
 535 0070 2DB2     		sxth	r5, r5
 536              		.loc 1 545 8 view .LVU186
 537 0072 002D     		cmp	r5, #0
 538 0074 1ADA     		bge	.L45
 539              	.L40:
 546:..\..\..\..\..\..\Software\uCOS-III\Source/os_sem.c ****         OSSched();                                          /* Run the scheduler                   
 547:..\..\..\..\..\..\Software\uCOS-III\Source/os_sem.c ****     }
 548:..\..\..\..\..\..\Software\uCOS-III\Source/os_sem.c **** 
 549:..\..\..\..\..\..\Software\uCOS-III\Source/os_sem.c ****    *p_err = OS_ERR_NONE;
 540              		.loc 1 549 4 is_stmt 1 view .LVU187
 541              		.loc 1 549 11 is_stmt 0 view .LVU188
 542 0076 0023     		movs	r3, #0
 543 0078 3B80     		strh	r3, [r7]
 550:..\..\..\..\..\..\Software\uCOS-III\Source/os_sem.c ****     return (nbr_tasks);
 544              		.loc 1 550 5 is_stmt 1 view .LVU189
 545              		.loc 1 550 12 is_stmt 0 view .LVU190
 546 007a 0CE0     		b	.L31
 547              	.LVL55:
 548              	.L41:
 492:..\..\..\..\..\..\Software\uCOS-III\Source/os_sem.c ****         return ((OS_OBJ_QTY)0u);
 549              		.loc 1 492 8 is_stmt 1 view .LVU191
 492:..\..\..\..\..\..\Software\uCOS-III\Source/os_sem.c ****         return ((OS_OBJ_QTY)0u);
 550              		.loc 1 492 15 is_stmt 0 view .LVU192
 551 007c 0E4B     		ldr	r3, .L46+4
 552 007e 1380     		strh	r3, [r2]
 493:..\..\..\..\..\..\Software\uCOS-III\Source/os_sem.c ****     }
 553              		.loc 1 493 9 is_stmt 1 view .LVU193
 493:..\..\..\..\..\..\Software\uCOS-III\Source/os_sem.c ****     }
 554              		.loc 1 493 16 is_stmt 0 view .LVU194
 555 0080 0024     		movs	r4, #0
 556 0082 08E0     		b	.L31
 557              	.L42:
 499:..\..\..\..\..\..\Software\uCOS-III\Source/os_sem.c ****         return ((OS_OBJ_QTY)0u);
 558              		.loc 1 499 8 is_stmt 1 view .LVU195
 499:..\..\..\..\..\..\Software\uCOS-III\Source/os_sem.c ****         return ((OS_OBJ_QTY)0u);
 559              		.loc 1 499 15 is_stmt 0 view .LVU196
 560 0084 0D4B     		ldr	r3, .L46+8
 561 0086 1380     		strh	r3, [r2]
 500:..\..\..\..\..\..\Software\uCOS-III\Source/os_sem.c ****     }
 562              		.loc 1 500 9 is_stmt 1 view .LVU197
 500:..\..\..\..\..\..\Software\uCOS-III\Source/os_sem.c ****     }
 563              		.loc 1 500 16 is_stmt 0 view .LVU198
 564 0088 0024     		movs	r4, #0
 565 008a 04E0     		b	.L31
 566              	.L43:
 502:..\..\..\..\..\..\Software\uCOS-III\Source/os_sem.c ****         case OS_OPT_PEND_ABORT_1:
 567              		.loc 1 502 5 view .LVU199
 568 008c 0029     		cmp	r1, #0
 569 008e CFD0     		beq	.L33
 570              	.L35:
 510:..\..\..\..\..\..\Software\uCOS-III\Source/os_sem.c ****              return ((OS_OBJ_QTY)0u);
 571              		.loc 1 510 13 is_stmt 1 view .LVU200
 510:..\..\..\..\..\..\Software\uCOS-III\Source/os_sem.c ****              return ((OS_OBJ_QTY)0u);
 572              		.loc 1 510 20 is_stmt 0 view .LVU201
ARM GAS  C:\Users\EDULU~1.DES\AppData\Local\Temp\ccfRue3n.s 			page 23


 573 0090 0B4B     		ldr	r3, .L46+12
 574 0092 3B80     		strh	r3, [r7]
 511:..\..\..\..\..\..\Software\uCOS-III\Source/os_sem.c ****     }
 575              		.loc 1 511 14 is_stmt 1 view .LVU202
 511:..\..\..\..\..\..\Software\uCOS-III\Source/os_sem.c ****     }
 576              		.loc 1 511 21 is_stmt 0 view .LVU203
 577 0094 0024     		movs	r4, #0
 578              	.LVL56:
 579              	.L31:
 551:..\..\..\..\..\..\Software\uCOS-III\Source/os_sem.c **** }
 580              		.loc 1 551 1 view .LVU204
 581 0096 2000     		movs	r0, r4
 582 0098 03B0     		add	sp, sp, #12
 583              		@ sp needed
 584              	.LVL57:
 585              	.LVL58:
 586              		.loc 1 551 1 view .LVU205
 587 009a F0BD     		pop	{r4, r5, r6, r7, pc}
 588              	.LVL59:
 589              	.L44:
 525:..\..\..\..\..\..\Software\uCOS-III\Source/os_sem.c ****        *p_err =  OS_ERR_PEND_ABORT_NONE;
 590              		.loc 1 525 9 is_stmt 1 view .LVU206
 525:..\..\..\..\..\..\Software\uCOS-III\Source/os_sem.c ****        *p_err =  OS_ERR_PEND_ABORT_NONE;
 591              		.loc 1 525 9 view .LVU207
 592 009c FFF7FEFF 		bl	CPU_IntDisMeasStop
 593              	.LVL60:
 525:..\..\..\..\..\..\Software\uCOS-III\Source/os_sem.c ****        *p_err =  OS_ERR_PEND_ABORT_NONE;
 594              		.loc 1 525 9 view .LVU208
 525:..\..\..\..\..\..\Software\uCOS-III\Source/os_sem.c ****        *p_err =  OS_ERR_PEND_ABORT_NONE;
 595              		.loc 1 525 9 view .LVU209
 596 00a0 0198     		ldr	r0, [sp, #4]
 597 00a2 FFF7FEFF 		bl	CPU_SR_Restore
 598              	.LVL61:
 526:..\..\..\..\..\..\Software\uCOS-III\Source/os_sem.c ****         return ((OS_OBJ_QTY)0u);
 599              		.loc 1 526 8 view .LVU210
 526:..\..\..\..\..\..\Software\uCOS-III\Source/os_sem.c ****         return ((OS_OBJ_QTY)0u);
 600              		.loc 1 526 15 is_stmt 0 view .LVU211
 601 00a6 074B     		ldr	r3, .L46+16
 602 00a8 3B80     		strh	r3, [r7]
 527:..\..\..\..\..\..\Software\uCOS-III\Source/os_sem.c ****     }
 603              		.loc 1 527 9 is_stmt 1 view .LVU212
 527:..\..\..\..\..\..\Software\uCOS-III\Source/os_sem.c ****     }
 604              		.loc 1 527 16 is_stmt 0 view .LVU213
 605 00aa F4E7     		b	.L31
 606              	.LVL62:
 607              	.L45:
 546:..\..\..\..\..\..\Software\uCOS-III\Source/os_sem.c ****     }
 608              		.loc 1 546 9 is_stmt 1 view .LVU214
 609 00ac FFF7FEFF 		bl	OSSched
 610              	.LVL63:
 611 00b0 E1E7     		b	.L40
 612              	.L47:
 613 00b2 C046     		.align	2
 614              	.L46:
 615 00b4 00000000 		.word	OSIntNestingCtr
 616 00b8 AA610000 		.word	25002
 617 00bc C35D0000 		.word	24003
ARM GAS  C:\Users\EDULU~1.DES\AppData\Local\Temp\ccfRue3n.s 			page 24


 618 00c0 255E0000 		.word	24101
 619 00c4 AB610000 		.word	25003
 620              		.cfi_endproc
 621              	.LFE5:
 622              		.size	OSSemPendAbort, .-OSSemPendAbort
 623              		.section	.text.OSSemSet,"ax",%progbits
 624              		.align	1
 625              		.global	OSSemSet
 626              		.syntax unified
 627              		.code	16
 628              		.thumb_func
 629              		.fpu softvfp
 630              		.type	OSSemSet, %function
 631              	OSSemSet:
 632              	.LVL64:
 633              	.LFB7:
 552:..\..\..\..\..\..\Software\uCOS-III\Source/os_sem.c **** #endif
 553:..\..\..\..\..\..\Software\uCOS-III\Source/os_sem.c **** 
 554:..\..\..\..\..\..\Software\uCOS-III\Source/os_sem.c **** /*$PAGE*/
 555:..\..\..\..\..\..\Software\uCOS-III\Source/os_sem.c **** /*
 556:..\..\..\..\..\..\Software\uCOS-III\Source/os_sem.c **** ***************************************************************************************************
 557:..\..\..\..\..\..\Software\uCOS-III\Source/os_sem.c **** *                                                 POST TO A SEMAPHORE
 558:..\..\..\..\..\..\Software\uCOS-III\Source/os_sem.c **** *
 559:..\..\..\..\..\..\Software\uCOS-III\Source/os_sem.c **** * Description: This function signals a semaphore
 560:..\..\..\..\..\..\Software\uCOS-III\Source/os_sem.c **** *
 561:..\..\..\..\..\..\Software\uCOS-III\Source/os_sem.c **** * Arguments  : p_sem    is a pointer to the semaphore
 562:..\..\..\..\..\..\Software\uCOS-III\Source/os_sem.c **** *
 563:..\..\..\..\..\..\Software\uCOS-III\Source/os_sem.c **** *              opt      determines the type of POST performed:
 564:..\..\..\..\..\..\Software\uCOS-III\Source/os_sem.c **** *
 565:..\..\..\..\..\..\Software\uCOS-III\Source/os_sem.c **** *                           OS_OPT_POST_1            POST and ready only the highest priority task 
 566:..\..\..\..\..\..\Software\uCOS-III\Source/os_sem.c **** *                                                    (if tasks are waiting).
 567:..\..\..\..\..\..\Software\uCOS-III\Source/os_sem.c **** *                           OS_OPT_POST_ALL          POST to ALL tasks that are waiting on the sema
 568:..\..\..\..\..\..\Software\uCOS-III\Source/os_sem.c **** *
 569:..\..\..\..\..\..\Software\uCOS-III\Source/os_sem.c **** *                           OS_OPT_POST_NO_SCHED     Do not call the scheduler
 570:..\..\..\..\..\..\Software\uCOS-III\Source/os_sem.c **** *
 571:..\..\..\..\..\..\Software\uCOS-III\Source/os_sem.c **** *                           Note(s): 1) OS_OPT_POST_NO_SCHED can be added with one of the other opt
 572:..\..\..\..\..\..\Software\uCOS-III\Source/os_sem.c **** *
 573:..\..\..\..\..\..\Software\uCOS-III\Source/os_sem.c **** *              p_err    is a pointer to a variable that will contain an error code returned by this
 574:..\..\..\..\..\..\Software\uCOS-III\Source/os_sem.c **** *
 575:..\..\..\..\..\..\Software\uCOS-III\Source/os_sem.c **** *                           OS_ERR_NONE          The call was successful and the semaphore was sign
 576:..\..\..\..\..\..\Software\uCOS-III\Source/os_sem.c **** *                           OS_ERR_OBJ_PTR_NULL  If 'p_sem' is a NULL pointer.
 577:..\..\..\..\..\..\Software\uCOS-III\Source/os_sem.c **** *                           OS_ERR_OBJ_TYPE      If 'p_sem' is not pointing at a semaphore
 578:..\..\..\..\..\..\Software\uCOS-III\Source/os_sem.c **** *                           OS_ERR_SEM_OVF       If the post would cause the semaphore count to ove
 579:..\..\..\..\..\..\Software\uCOS-III\Source/os_sem.c **** *
 580:..\..\..\..\..\..\Software\uCOS-III\Source/os_sem.c **** * Returns    : The current value of the semaphore counter or 0 upon error.
 581:..\..\..\..\..\..\Software\uCOS-III\Source/os_sem.c **** ***************************************************************************************************
 582:..\..\..\..\..\..\Software\uCOS-III\Source/os_sem.c **** */
 583:..\..\..\..\..\..\Software\uCOS-III\Source/os_sem.c **** 
 584:..\..\..\..\..\..\Software\uCOS-III\Source/os_sem.c **** OS_SEM_CTR  OSSemPost (OS_SEM  *p_sem,
 585:..\..\..\..\..\..\Software\uCOS-III\Source/os_sem.c ****                        OS_OPT   opt,
 586:..\..\..\..\..\..\Software\uCOS-III\Source/os_sem.c ****                        OS_ERR  *p_err)
 587:..\..\..\..\..\..\Software\uCOS-III\Source/os_sem.c **** {
 588:..\..\..\..\..\..\Software\uCOS-III\Source/os_sem.c ****     OS_SEM_CTR  ctr;
 589:..\..\..\..\..\..\Software\uCOS-III\Source/os_sem.c ****     CPU_TS      ts;
 590:..\..\..\..\..\..\Software\uCOS-III\Source/os_sem.c **** 
 591:..\..\..\..\..\..\Software\uCOS-III\Source/os_sem.c **** 
 592:..\..\..\..\..\..\Software\uCOS-III\Source/os_sem.c **** 
ARM GAS  C:\Users\EDULU~1.DES\AppData\Local\Temp\ccfRue3n.s 			page 25


 593:..\..\..\..\..\..\Software\uCOS-III\Source/os_sem.c **** #ifdef OS_SAFETY_CRITICAL
 594:..\..\..\..\..\..\Software\uCOS-III\Source/os_sem.c ****     if (p_err == (OS_ERR *)0) {
 595:..\..\..\..\..\..\Software\uCOS-III\Source/os_sem.c ****         OS_SAFETY_CRITICAL_EXCEPTION();
 596:..\..\..\..\..\..\Software\uCOS-III\Source/os_sem.c ****         return ((OS_SEM_CTR)0);
 597:..\..\..\..\..\..\Software\uCOS-III\Source/os_sem.c ****     }
 598:..\..\..\..\..\..\Software\uCOS-III\Source/os_sem.c **** #endif
 599:..\..\..\..\..\..\Software\uCOS-III\Source/os_sem.c **** 
 600:..\..\..\..\..\..\Software\uCOS-III\Source/os_sem.c **** #if OS_CFG_ARG_CHK_EN > 0u
 601:..\..\..\..\..\..\Software\uCOS-III\Source/os_sem.c ****     if (p_sem == (OS_SEM *)0) {                             /* Validate 'p_sem'                    
 602:..\..\..\..\..\..\Software\uCOS-III\Source/os_sem.c ****        *p_err  = OS_ERR_OBJ_PTR_NULL;
 603:..\..\..\..\..\..\Software\uCOS-III\Source/os_sem.c ****         return ((OS_SEM_CTR)0);
 604:..\..\..\..\..\..\Software\uCOS-III\Source/os_sem.c ****     }
 605:..\..\..\..\..\..\Software\uCOS-III\Source/os_sem.c ****     switch (opt) {                                          /* Validate 'opt'                      
 606:..\..\..\..\..\..\Software\uCOS-III\Source/os_sem.c ****         case OS_OPT_POST_1:
 607:..\..\..\..\..\..\Software\uCOS-III\Source/os_sem.c ****         case OS_OPT_POST_ALL:
 608:..\..\..\..\..\..\Software\uCOS-III\Source/os_sem.c ****         case OS_OPT_POST_1   | OS_OPT_POST_NO_SCHED:
 609:..\..\..\..\..\..\Software\uCOS-III\Source/os_sem.c ****         case OS_OPT_POST_ALL | OS_OPT_POST_NO_SCHED:
 610:..\..\..\..\..\..\Software\uCOS-III\Source/os_sem.c ****              break;
 611:..\..\..\..\..\..\Software\uCOS-III\Source/os_sem.c **** 
 612:..\..\..\..\..\..\Software\uCOS-III\Source/os_sem.c ****         default:
 613:..\..\..\..\..\..\Software\uCOS-III\Source/os_sem.c ****             *p_err =  OS_ERR_OPT_INVALID;
 614:..\..\..\..\..\..\Software\uCOS-III\Source/os_sem.c ****              return ((OS_SEM_CTR)0u);
 615:..\..\..\..\..\..\Software\uCOS-III\Source/os_sem.c ****     }
 616:..\..\..\..\..\..\Software\uCOS-III\Source/os_sem.c **** #endif
 617:..\..\..\..\..\..\Software\uCOS-III\Source/os_sem.c **** 
 618:..\..\..\..\..\..\Software\uCOS-III\Source/os_sem.c **** #if OS_CFG_OBJ_TYPE_CHK_EN > 0u
 619:..\..\..\..\..\..\Software\uCOS-III\Source/os_sem.c ****     if (p_sem->Type != OS_OBJ_TYPE_SEM) {                   /* Make sure semaphore was created     
 620:..\..\..\..\..\..\Software\uCOS-III\Source/os_sem.c ****        *p_err = OS_ERR_OBJ_TYPE;
 621:..\..\..\..\..\..\Software\uCOS-III\Source/os_sem.c ****         return ((OS_SEM_CTR)0);
 622:..\..\..\..\..\..\Software\uCOS-III\Source/os_sem.c ****     }
 623:..\..\..\..\..\..\Software\uCOS-III\Source/os_sem.c **** #endif
 624:..\..\..\..\..\..\Software\uCOS-III\Source/os_sem.c **** 
 625:..\..\..\..\..\..\Software\uCOS-III\Source/os_sem.c ****     ts = OS_TS_GET();                                       /* Get timestamp                       
 626:..\..\..\..\..\..\Software\uCOS-III\Source/os_sem.c **** 
 627:..\..\..\..\..\..\Software\uCOS-III\Source/os_sem.c **** #if OS_CFG_ISR_POST_DEFERRED_EN > 0u
 628:..\..\..\..\..\..\Software\uCOS-III\Source/os_sem.c ****     if (OSIntNestingCtr > (OS_NESTING_CTR)0) {              /* See if called from an ISR           
 629:..\..\..\..\..\..\Software\uCOS-III\Source/os_sem.c ****         OS_IntQPost((OS_OBJ_TYPE)OS_OBJ_TYPE_SEM,           /* Post to ISR queue                   
 630:..\..\..\..\..\..\Software\uCOS-III\Source/os_sem.c ****                     (void      *)p_sem,
 631:..\..\..\..\..\..\Software\uCOS-III\Source/os_sem.c ****                     (void      *)0,
 632:..\..\..\..\..\..\Software\uCOS-III\Source/os_sem.c ****                     (OS_MSG_SIZE)0,
 633:..\..\..\..\..\..\Software\uCOS-III\Source/os_sem.c ****                     (OS_FLAGS   )0,
 634:..\..\..\..\..\..\Software\uCOS-III\Source/os_sem.c ****                     (OS_OPT     )opt,
 635:..\..\..\..\..\..\Software\uCOS-III\Source/os_sem.c ****                     (CPU_TS     )ts,
 636:..\..\..\..\..\..\Software\uCOS-III\Source/os_sem.c ****                     (OS_ERR    *)p_err);
 637:..\..\..\..\..\..\Software\uCOS-III\Source/os_sem.c ****         return ((OS_SEM_CTR)0);
 638:..\..\..\..\..\..\Software\uCOS-III\Source/os_sem.c ****     }
 639:..\..\..\..\..\..\Software\uCOS-III\Source/os_sem.c **** #endif
 640:..\..\..\..\..\..\Software\uCOS-III\Source/os_sem.c **** 
 641:..\..\..\..\..\..\Software\uCOS-III\Source/os_sem.c ****     ctr = OS_SemPost(p_sem,                                 /* Post to semaphore                   
 642:..\..\..\..\..\..\Software\uCOS-III\Source/os_sem.c ****                      opt,
 643:..\..\..\..\..\..\Software\uCOS-III\Source/os_sem.c ****                      ts,
 644:..\..\..\..\..\..\Software\uCOS-III\Source/os_sem.c ****                      p_err);
 645:..\..\..\..\..\..\Software\uCOS-III\Source/os_sem.c **** 
 646:..\..\..\..\..\..\Software\uCOS-III\Source/os_sem.c ****     return (ctr);
 647:..\..\..\..\..\..\Software\uCOS-III\Source/os_sem.c **** }
 648:..\..\..\..\..\..\Software\uCOS-III\Source/os_sem.c **** 
 649:..\..\..\..\..\..\Software\uCOS-III\Source/os_sem.c **** /*$PAGE*/
ARM GAS  C:\Users\EDULU~1.DES\AppData\Local\Temp\ccfRue3n.s 			page 26


 650:..\..\..\..\..\..\Software\uCOS-III\Source/os_sem.c **** /*
 651:..\..\..\..\..\..\Software\uCOS-III\Source/os_sem.c **** ***************************************************************************************************
 652:..\..\..\..\..\..\Software\uCOS-III\Source/os_sem.c **** *                                                    SET SEMAPHORE
 653:..\..\..\..\..\..\Software\uCOS-III\Source/os_sem.c **** *
 654:..\..\..\..\..\..\Software\uCOS-III\Source/os_sem.c **** * Description: This function sets the semaphore count to the value specified as an argument.  Typic
 655:..\..\..\..\..\..\Software\uCOS-III\Source/os_sem.c **** *              would be 0 but of course, we can set the semaphore to any value.
 656:..\..\..\..\..\..\Software\uCOS-III\Source/os_sem.c **** *
 657:..\..\..\..\..\..\Software\uCOS-III\Source/os_sem.c **** *              You would typically use this function when a semaphore is used as a signaling mechan
 658:..\..\..\..\..\..\Software\uCOS-III\Source/os_sem.c **** *              and, you want to reset the count value.
 659:..\..\..\..\..\..\Software\uCOS-III\Source/os_sem.c **** *
 660:..\..\..\..\..\..\Software\uCOS-III\Source/os_sem.c **** * Arguments  : p_sem     is a pointer to the semaphore
 661:..\..\..\..\..\..\Software\uCOS-III\Source/os_sem.c **** *
 662:..\..\..\..\..\..\Software\uCOS-III\Source/os_sem.c **** *              cnt       is the new value for the semaphore count.  You would pass 0 to reset the s
 663:..\..\..\..\..\..\Software\uCOS-III\Source/os_sem.c **** *
 664:..\..\..\..\..\..\Software\uCOS-III\Source/os_sem.c **** *              p_err     is a pointer to a variable that will contain an error code returned by thi
 665:..\..\..\..\..\..\Software\uCOS-III\Source/os_sem.c **** *
 666:..\..\..\..\..\..\Software\uCOS-III\Source/os_sem.c **** *                            OS_ERR_NONE           The call was successful and the semaphore value 
 667:..\..\..\..\..\..\Software\uCOS-III\Source/os_sem.c **** *                            OS_ERR_OBJ_PTR_NULL   If 'p_sem' is a NULL pointer.
 668:..\..\..\..\..\..\Software\uCOS-III\Source/os_sem.c **** *                            OS_ERR_OBJ_TYPE       If 'p_sem' is not pointing to a semaphore.
 669:..\..\..\..\..\..\Software\uCOS-III\Source/os_sem.c **** *                            OS_ERR_TASK_WAITING   If tasks are waiting on the semaphore.
 670:..\..\..\..\..\..\Software\uCOS-III\Source/os_sem.c **** *
 671:..\..\..\..\..\..\Software\uCOS-III\Source/os_sem.c **** * Returns    : None
 672:..\..\..\..\..\..\Software\uCOS-III\Source/os_sem.c **** ***************************************************************************************************
 673:..\..\..\..\..\..\Software\uCOS-III\Source/os_sem.c **** */
 674:..\..\..\..\..\..\Software\uCOS-III\Source/os_sem.c **** 
 675:..\..\..\..\..\..\Software\uCOS-III\Source/os_sem.c **** #if OS_CFG_SEM_SET_EN > 0u
 676:..\..\..\..\..\..\Software\uCOS-III\Source/os_sem.c **** void  OSSemSet (OS_SEM      *p_sem,
 677:..\..\..\..\..\..\Software\uCOS-III\Source/os_sem.c ****                 OS_SEM_CTR   cnt,
 678:..\..\..\..\..\..\Software\uCOS-III\Source/os_sem.c ****                 OS_ERR      *p_err)
 679:..\..\..\..\..\..\Software\uCOS-III\Source/os_sem.c **** {
 634              		.loc 1 679 1 view -0
 635              		.cfi_startproc
 636              		@ args = 0, pretend = 0, frame = 0
 637              		@ frame_needed = 0, uses_anonymous_args = 0
 638              		.loc 1 679 1 is_stmt 0 view .LVU216
 639 0000 F8B5     		push	{r3, r4, r5, r6, r7, lr}
 640              		.cfi_def_cfa_offset 24
 641              		.cfi_offset 3, -24
 642              		.cfi_offset 4, -20
 643              		.cfi_offset 5, -16
 644              		.cfi_offset 6, -12
 645              		.cfi_offset 7, -8
 646              		.cfi_offset 14, -4
 647 0002 0400     		movs	r4, r0
 648 0004 0E00     		movs	r6, r1
 649 0006 1500     		movs	r5, r2
 680:..\..\..\..\..\..\Software\uCOS-III\Source/os_sem.c ****     OS_PEND_LIST  *p_pend_list;
 650              		.loc 1 680 5 is_stmt 1 view .LVU217
 681:..\..\..\..\..\..\Software\uCOS-III\Source/os_sem.c ****     CPU_SR_ALLOC();
 651              		.loc 1 681 5 view .LVU218
 652              	.LVL65:
 682:..\..\..\..\..\..\Software\uCOS-III\Source/os_sem.c **** 
 683:..\..\..\..\..\..\Software\uCOS-III\Source/os_sem.c **** 
 684:..\..\..\..\..\..\Software\uCOS-III\Source/os_sem.c **** 
 685:..\..\..\..\..\..\Software\uCOS-III\Source/os_sem.c **** #ifdef OS_SAFETY_CRITICAL
 686:..\..\..\..\..\..\Software\uCOS-III\Source/os_sem.c ****     if (p_err == (OS_ERR *)0) {
 687:..\..\..\..\..\..\Software\uCOS-III\Source/os_sem.c ****         OS_SAFETY_CRITICAL_EXCEPTION();
ARM GAS  C:\Users\EDULU~1.DES\AppData\Local\Temp\ccfRue3n.s 			page 27


 688:..\..\..\..\..\..\Software\uCOS-III\Source/os_sem.c ****         return;
 689:..\..\..\..\..\..\Software\uCOS-III\Source/os_sem.c ****     }
 690:..\..\..\..\..\..\Software\uCOS-III\Source/os_sem.c **** #endif
 691:..\..\..\..\..\..\Software\uCOS-III\Source/os_sem.c **** 
 692:..\..\..\..\..\..\Software\uCOS-III\Source/os_sem.c **** #if OS_CFG_CALLED_FROM_ISR_CHK_EN > 0u
 693:..\..\..\..\..\..\Software\uCOS-III\Source/os_sem.c ****     if (OSIntNestingCtr > (OS_NESTING_CTR)0) {              /* Can't call this function from an ISR
 653              		.loc 1 693 5 view .LVU219
 654              		.loc 1 693 25 is_stmt 0 view .LVU220
 655 0008 124B     		ldr	r3, .L57
 656 000a 1B78     		ldrb	r3, [r3]
 657              		.loc 1 693 8 view .LVU221
 658 000c 002B     		cmp	r3, #0
 659 000e 12D1     		bne	.L55
 694:..\..\..\..\..\..\Software\uCOS-III\Source/os_sem.c ****        *p_err = OS_ERR_SET_ISR;
 695:..\..\..\..\..\..\Software\uCOS-III\Source/os_sem.c ****         return;
 696:..\..\..\..\..\..\Software\uCOS-III\Source/os_sem.c ****     }
 697:..\..\..\..\..\..\Software\uCOS-III\Source/os_sem.c **** #endif
 698:..\..\..\..\..\..\Software\uCOS-III\Source/os_sem.c **** 
 699:..\..\..\..\..\..\Software\uCOS-III\Source/os_sem.c **** #if OS_CFG_ARG_CHK_EN > 0u
 700:..\..\..\..\..\..\Software\uCOS-III\Source/os_sem.c ****     if (p_sem == (OS_SEM *)0) {                             /* Validate 'p_sem'                    
 660              		.loc 1 700 5 is_stmt 1 view .LVU222
 661              		.loc 1 700 8 is_stmt 0 view .LVU223
 662 0010 0028     		cmp	r0, #0
 663 0012 13D0     		beq	.L56
 701:..\..\..\..\..\..\Software\uCOS-III\Source/os_sem.c ****        *p_err = OS_ERR_OBJ_PTR_NULL;
 702:..\..\..\..\..\..\Software\uCOS-III\Source/os_sem.c ****         return;
 703:..\..\..\..\..\..\Software\uCOS-III\Source/os_sem.c ****     }
 704:..\..\..\..\..\..\Software\uCOS-III\Source/os_sem.c **** #endif
 705:..\..\..\..\..\..\Software\uCOS-III\Source/os_sem.c **** 
 706:..\..\..\..\..\..\Software\uCOS-III\Source/os_sem.c **** #if OS_CFG_OBJ_TYPE_CHK_EN > 0u
 707:..\..\..\..\..\..\Software\uCOS-III\Source/os_sem.c ****     if (p_sem->Type != OS_OBJ_TYPE_SEM) {                   /* Make sure semaphore was created     
 708:..\..\..\..\..\..\Software\uCOS-III\Source/os_sem.c ****        *p_err = OS_ERR_OBJ_TYPE;
 709:..\..\..\..\..\..\Software\uCOS-III\Source/os_sem.c ****         return;
 710:..\..\..\..\..\..\Software\uCOS-III\Source/os_sem.c ****     }
 711:..\..\..\..\..\..\Software\uCOS-III\Source/os_sem.c **** #endif
 712:..\..\..\..\..\..\Software\uCOS-III\Source/os_sem.c **** 
 713:..\..\..\..\..\..\Software\uCOS-III\Source/os_sem.c ****    *p_err = OS_ERR_NONE;
 664              		.loc 1 713 4 is_stmt 1 view .LVU224
 665              		.loc 1 713 11 is_stmt 0 view .LVU225
 666 0014 0023     		movs	r3, #0
 667 0016 1380     		strh	r3, [r2]
 714:..\..\..\..\..\..\Software\uCOS-III\Source/os_sem.c ****     CPU_CRITICAL_ENTER();
 668              		.loc 1 714 5 is_stmt 1 view .LVU226
 669              		.loc 1 714 5 view .LVU227
 670              		.loc 1 714 5 view .LVU228
 671 0018 FFF7FEFF 		bl	CPU_SR_Save
 672              	.LVL66:
 673              		.loc 1 714 5 is_stmt 0 view .LVU229
 674 001c 0700     		movs	r7, r0
 675              	.LVL67:
 676              		.loc 1 714 5 is_stmt 1 view .LVU230
 677 001e FFF7FEFF 		bl	CPU_IntDisMeasStart
 678              	.LVL68:
 715:..\..\..\..\..\..\Software\uCOS-III\Source/os_sem.c ****     if (p_sem->Ctr > (OS_SEM_CTR)0) {                       /* See if semaphore already has a count
 679              		.loc 1 715 5 view .LVU231
 680              		.loc 1 715 8 is_stmt 0 view .LVU232
 681 0022 236A     		ldr	r3, [r4, #32]
ARM GAS  C:\Users\EDULU~1.DES\AppData\Local\Temp\ccfRue3n.s 			page 28


 682 0024 002B     		cmp	r3, #0
 683 0026 0CD0     		beq	.L52
 716:..\..\..\..\..\..\Software\uCOS-III\Source/os_sem.c ****         p_sem->Ctr = cnt;                                   /* Yes, set it to the new value specifi
 684              		.loc 1 716 9 is_stmt 1 view .LVU233
 685              		.loc 1 716 20 is_stmt 0 view .LVU234
 686 0028 2662     		str	r6, [r4, #32]
 687              	.L53:
 717:..\..\..\..\..\..\Software\uCOS-III\Source/os_sem.c ****     } else {
 718:..\..\..\..\..\..\Software\uCOS-III\Source/os_sem.c ****         p_pend_list = &p_sem->PendList;                     /* No                                  
 719:..\..\..\..\..\..\Software\uCOS-III\Source/os_sem.c ****         if (p_pend_list->NbrEntries == (OS_OBJ_QTY)0) {     /*      See if task(s) waiting?        
 720:..\..\..\..\..\..\Software\uCOS-III\Source/os_sem.c ****             p_sem->Ctr = cnt;                               /*      No, OK to set the value        
 721:..\..\..\..\..\..\Software\uCOS-III\Source/os_sem.c ****         } else {
 722:..\..\..\..\..\..\Software\uCOS-III\Source/os_sem.c ****            *p_err      = OS_ERR_TASK_WAITING;
 723:..\..\..\..\..\..\Software\uCOS-III\Source/os_sem.c ****         }
 724:..\..\..\..\..\..\Software\uCOS-III\Source/os_sem.c ****     }
 725:..\..\..\..\..\..\Software\uCOS-III\Source/os_sem.c ****     CPU_CRITICAL_EXIT();
 688              		.loc 1 725 5 is_stmt 1 view .LVU235
 689              		.loc 1 725 5 view .LVU236
 690 002a FFF7FEFF 		bl	CPU_IntDisMeasStop
 691              	.LVL69:
 692              		.loc 1 725 5 view .LVU237
 693              		.loc 1 725 5 view .LVU238
 694 002e 3800     		movs	r0, r7
 695 0030 FFF7FEFF 		bl	CPU_SR_Restore
 696              	.LVL70:
 697              	.L48:
 726:..\..\..\..\..\..\Software\uCOS-III\Source/os_sem.c **** }
 698              		.loc 1 726 1 is_stmt 0 view .LVU239
 699              		@ sp needed
 700              	.LVL71:
 701              	.LVL72:
 702              	.LVL73:
 703              		.loc 1 726 1 view .LVU240
 704 0034 F8BD     		pop	{r3, r4, r5, r6, r7, pc}
 705              	.LVL74:
 706              	.L55:
 694:..\..\..\..\..\..\Software\uCOS-III\Source/os_sem.c ****         return;
 707              		.loc 1 694 8 is_stmt 1 view .LVU241
 694:..\..\..\..\..\..\Software\uCOS-III\Source/os_sem.c ****         return;
 708              		.loc 1 694 15 is_stmt 0 view .LVU242
 709 0036 084B     		ldr	r3, .L57+4
 710 0038 1380     		strh	r3, [r2]
 695:..\..\..\..\..\..\Software\uCOS-III\Source/os_sem.c ****     }
 711              		.loc 1 695 9 is_stmt 1 view .LVU243
 712 003a FBE7     		b	.L48
 713              	.L56:
 701:..\..\..\..\..\..\Software\uCOS-III\Source/os_sem.c ****         return;
 714              		.loc 1 701 8 view .LVU244
 701:..\..\..\..\..\..\Software\uCOS-III\Source/os_sem.c ****         return;
 715              		.loc 1 701 15 is_stmt 0 view .LVU245
 716 003c 074B     		ldr	r3, .L57+8
 717 003e 1380     		strh	r3, [r2]
 702:..\..\..\..\..\..\Software\uCOS-III\Source/os_sem.c ****     }
 718              		.loc 1 702 9 is_stmt 1 view .LVU246
 719 0040 F8E7     		b	.L48
 720              	.LVL75:
 721              	.L52:
ARM GAS  C:\Users\EDULU~1.DES\AppData\Local\Temp\ccfRue3n.s 			page 29


 718:..\..\..\..\..\..\Software\uCOS-III\Source/os_sem.c ****         if (p_pend_list->NbrEntries == (OS_OBJ_QTY)0) {     /*      See if task(s) waiting?        
 722              		.loc 1 718 9 view .LVU247
 719:..\..\..\..\..\..\Software\uCOS-III\Source/os_sem.c ****             p_sem->Ctr = cnt;                               /*      No, OK to set the value        
 723              		.loc 1 719 9 view .LVU248
 719:..\..\..\..\..\..\Software\uCOS-III\Source/os_sem.c ****             p_sem->Ctr = cnt;                               /*      No, OK to set the value        
 724              		.loc 1 719 24 is_stmt 0 view .LVU249
 725 0042 238A     		ldrh	r3, [r4, #16]
 719:..\..\..\..\..\..\Software\uCOS-III\Source/os_sem.c ****             p_sem->Ctr = cnt;                               /*      No, OK to set the value        
 726              		.loc 1 719 12 view .LVU250
 727 0044 002B     		cmp	r3, #0
 728 0046 01D1     		bne	.L54
 720:..\..\..\..\..\..\Software\uCOS-III\Source/os_sem.c ****         } else {
 729              		.loc 1 720 13 is_stmt 1 view .LVU251
 720:..\..\..\..\..\..\Software\uCOS-III\Source/os_sem.c ****         } else {
 730              		.loc 1 720 24 is_stmt 0 view .LVU252
 731 0048 2662     		str	r6, [r4, #32]
 732 004a EEE7     		b	.L53
 733              	.L54:
 722:..\..\..\..\..\..\Software\uCOS-III\Source/os_sem.c ****         }
 734              		.loc 1 722 12 is_stmt 1 view .LVU253
 722:..\..\..\..\..\..\Software\uCOS-III\Source/os_sem.c ****         }
 735              		.loc 1 722 24 is_stmt 0 view .LVU254
 736 004c 044B     		ldr	r3, .L57+12
 737 004e 2B80     		strh	r3, [r5]
 738 0050 EBE7     		b	.L53
 739              	.L58:
 740 0052 C046     		.align	2
 741              	.L57:
 742 0054 00000000 		.word	OSIntNestingCtr
 743 0058 C66D0000 		.word	28102
 744 005c C35D0000 		.word	24003
 745 0060 5F710000 		.word	29023
 746              		.cfi_endproc
 747              	.LFE7:
 748              		.size	OSSemSet, .-OSSemSet
 749              		.section	.text.OS_SemClr,"ax",%progbits
 750              		.align	1
 751              		.global	OS_SemClr
 752              		.syntax unified
 753              		.code	16
 754              		.thumb_func
 755              		.fpu softvfp
 756              		.type	OS_SemClr, %function
 757              	OS_SemClr:
 758              	.LVL76:
 759              	.LFB8:
 727:..\..\..\..\..\..\Software\uCOS-III\Source/os_sem.c **** #endif
 728:..\..\..\..\..\..\Software\uCOS-III\Source/os_sem.c **** 
 729:..\..\..\..\..\..\Software\uCOS-III\Source/os_sem.c **** /*$PAGE*/
 730:..\..\..\..\..\..\Software\uCOS-III\Source/os_sem.c **** /*
 731:..\..\..\..\..\..\Software\uCOS-III\Source/os_sem.c **** ***************************************************************************************************
 732:..\..\..\..\..\..\Software\uCOS-III\Source/os_sem.c **** *                                           CLEAR THE CONTENTS OF A SEMAPHORE
 733:..\..\..\..\..\..\Software\uCOS-III\Source/os_sem.c **** *
 734:..\..\..\..\..\..\Software\uCOS-III\Source/os_sem.c **** * Description: This function is called by OSSemDel() to clear the contents of a semaphore
 735:..\..\..\..\..\..\Software\uCOS-III\Source/os_sem.c **** *
 736:..\..\..\..\..\..\Software\uCOS-III\Source/os_sem.c **** 
 737:..\..\..\..\..\..\Software\uCOS-III\Source/os_sem.c **** * Argument(s): p_sem      is a pointer to the semaphore to clear
ARM GAS  C:\Users\EDULU~1.DES\AppData\Local\Temp\ccfRue3n.s 			page 30


 738:..\..\..\..\..\..\Software\uCOS-III\Source/os_sem.c **** *              -----
 739:..\..\..\..\..\..\Software\uCOS-III\Source/os_sem.c **** *
 740:..\..\..\..\..\..\Software\uCOS-III\Source/os_sem.c **** * Returns    : none
 741:..\..\..\..\..\..\Software\uCOS-III\Source/os_sem.c **** *
 742:..\..\..\..\..\..\Software\uCOS-III\Source/os_sem.c **** * Note(s)    : 1) This function is INTERNAL to uC/OS-III and your application MUST NOT call it.
 743:..\..\..\..\..\..\Software\uCOS-III\Source/os_sem.c **** ***************************************************************************************************
 744:..\..\..\..\..\..\Software\uCOS-III\Source/os_sem.c **** */
 745:..\..\..\..\..\..\Software\uCOS-III\Source/os_sem.c **** 
 746:..\..\..\..\..\..\Software\uCOS-III\Source/os_sem.c **** void  OS_SemClr (OS_SEM  *p_sem)
 747:..\..\..\..\..\..\Software\uCOS-III\Source/os_sem.c **** {
 760              		.loc 1 747 1 is_stmt 1 view -0
 761              		.cfi_startproc
 762              		@ args = 0, pretend = 0, frame = 0
 763              		@ frame_needed = 0, uses_anonymous_args = 0
 764              		.loc 1 747 1 is_stmt 0 view .LVU256
 765 0000 10B5     		push	{r4, lr}
 766              		.cfi_def_cfa_offset 8
 767              		.cfi_offset 4, -8
 768              		.cfi_offset 14, -4
 748:..\..\..\..\..\..\Software\uCOS-III\Source/os_sem.c ****     p_sem->Type    = OS_OBJ_TYPE_NONE;                      /* Mark the data structure as a NONE   
 769              		.loc 1 748 5 is_stmt 1 view .LVU257
 770              		.loc 1 748 20 is_stmt 0 view .LVU258
 771 0002 054B     		ldr	r3, .L60
 772 0004 0360     		str	r3, [r0]
 749:..\..\..\..\..\..\Software\uCOS-III\Source/os_sem.c ****     p_sem->Ctr     = (OS_SEM_CTR)0;                         /* Set semaphore value                 
 773              		.loc 1 749 5 is_stmt 1 view .LVU259
 774              		.loc 1 749 20 is_stmt 0 view .LVU260
 775 0006 0023     		movs	r3, #0
 776 0008 0362     		str	r3, [r0, #32]
 750:..\..\..\..\..\..\Software\uCOS-III\Source/os_sem.c ****     p_sem->TS      = (CPU_TS    )0;                         /* Clear the time stamp                
 777              		.loc 1 750 5 is_stmt 1 view .LVU261
 778              		.loc 1 750 20 is_stmt 0 view .LVU262
 779 000a 4362     		str	r3, [r0, #36]
 751:..\..\..\..\..\..\Software\uCOS-III\Source/os_sem.c ****     p_sem->NamePtr = (CPU_CHAR *)((void *)"?SEM");
 780              		.loc 1 751 5 is_stmt 1 view .LVU263
 781              		.loc 1 751 20 is_stmt 0 view .LVU264
 782 000c 034B     		ldr	r3, .L60+4
 783 000e 4360     		str	r3, [r0, #4]
 752:..\..\..\..\..\..\Software\uCOS-III\Source/os_sem.c ****     OS_PendListInit(&p_sem->PendList);                      /* Initialize the waiting list         
 784              		.loc 1 752 5 is_stmt 1 view .LVU265
 785 0010 0830     		adds	r0, r0, #8
 786              	.LVL77:
 787              		.loc 1 752 5 is_stmt 0 view .LVU266
 788 0012 FFF7FEFF 		bl	OS_PendListInit
 789              	.LVL78:
 753:..\..\..\..\..\..\Software\uCOS-III\Source/os_sem.c **** }
 790              		.loc 1 753 1 view .LVU267
 791              		@ sp needed
 792 0016 10BD     		pop	{r4, pc}
 793              	.L61:
 794              		.align	2
 795              	.L60:
 796 0018 4E4F4E45 		.word	1162760014
 797 001c 00000000 		.word	.LC5
 798              		.cfi_endproc
 799              	.LFE8:
 800              		.size	OS_SemClr, .-OS_SemClr
ARM GAS  C:\Users\EDULU~1.DES\AppData\Local\Temp\ccfRue3n.s 			page 31


 801              		.section	.text.OS_SemDbgListAdd,"ax",%progbits
 802              		.align	1
 803              		.global	OS_SemDbgListAdd
 804              		.syntax unified
 805              		.code	16
 806              		.thumb_func
 807              		.fpu softvfp
 808              		.type	OS_SemDbgListAdd, %function
 809              	OS_SemDbgListAdd:
 810              	.LVL79:
 811              	.LFB9:
 754:..\..\..\..\..\..\Software\uCOS-III\Source/os_sem.c **** 
 755:..\..\..\..\..\..\Software\uCOS-III\Source/os_sem.c **** /*$PAGE*/
 756:..\..\..\..\..\..\Software\uCOS-III\Source/os_sem.c **** /*
 757:..\..\..\..\..\..\Software\uCOS-III\Source/os_sem.c **** ***************************************************************************************************
 758:..\..\..\..\..\..\Software\uCOS-III\Source/os_sem.c **** *                                        ADD/REMOVE SEMAPHORE TO/FROM DEBUG LIST
 759:..\..\..\..\..\..\Software\uCOS-III\Source/os_sem.c **** *
 760:..\..\..\..\..\..\Software\uCOS-III\Source/os_sem.c **** * Description: These functions are called by uC/OS-III to add or remove a semaphore to/from the deb
 761:..\..\..\..\..\..\Software\uCOS-III\Source/os_sem.c **** *
 762:..\..\..\..\..\..\Software\uCOS-III\Source/os_sem.c **** * Arguments  : p_sem     is a pointer to the semaphore to add/remove
 763:..\..\..\..\..\..\Software\uCOS-III\Source/os_sem.c **** *
 764:..\..\..\..\..\..\Software\uCOS-III\Source/os_sem.c **** * Returns    : none
 765:..\..\..\..\..\..\Software\uCOS-III\Source/os_sem.c **** *
 766:..\..\..\..\..\..\Software\uCOS-III\Source/os_sem.c **** * Note(s)    : These functions are INTERNAL to uC/OS-III and your application should not call it.
 767:..\..\..\..\..\..\Software\uCOS-III\Source/os_sem.c **** ***************************************************************************************************
 768:..\..\..\..\..\..\Software\uCOS-III\Source/os_sem.c **** */
 769:..\..\..\..\..\..\Software\uCOS-III\Source/os_sem.c **** 
 770:..\..\..\..\..\..\Software\uCOS-III\Source/os_sem.c **** 
 771:..\..\..\..\..\..\Software\uCOS-III\Source/os_sem.c **** #if OS_CFG_DBG_EN > 0u
 772:..\..\..\..\..\..\Software\uCOS-III\Source/os_sem.c **** void  OS_SemDbgListAdd (OS_SEM  *p_sem)
 773:..\..\..\..\..\..\Software\uCOS-III\Source/os_sem.c **** {
 812              		.loc 1 773 1 is_stmt 1 view -0
 813              		.cfi_startproc
 814              		@ args = 0, pretend = 0, frame = 0
 815              		@ frame_needed = 0, uses_anonymous_args = 0
 816              		@ link register save eliminated.
 774:..\..\..\..\..\..\Software\uCOS-III\Source/os_sem.c ****     p_sem->DbgNamePtr               = (CPU_CHAR *)((void *)" ");
 817              		.loc 1 774 5 view .LVU269
 818              		.loc 1 774 37 is_stmt 0 view .LVU270
 819 0000 074B     		ldr	r3, .L66
 820 0002 C361     		str	r3, [r0, #28]
 775:..\..\..\..\..\..\Software\uCOS-III\Source/os_sem.c ****     p_sem->DbgPrevPtr               = (OS_SEM   *)0;
 821              		.loc 1 775 5 is_stmt 1 view .LVU271
 822              		.loc 1 775 37 is_stmt 0 view .LVU272
 823 0004 0023     		movs	r3, #0
 824 0006 4361     		str	r3, [r0, #20]
 776:..\..\..\..\..\..\Software\uCOS-III\Source/os_sem.c ****     if (OSSemDbgListPtr == (OS_SEM *)0) {
 825              		.loc 1 776 5 is_stmt 1 view .LVU273
 826              		.loc 1 776 25 is_stmt 0 view .LVU274
 827 0008 064B     		ldr	r3, .L66+4
 828 000a 1B68     		ldr	r3, [r3]
 829              		.loc 1 776 8 view .LVU275
 830 000c 002B     		cmp	r3, #0
 831 000e 04D0     		beq	.L65
 777:..\..\..\..\..\..\Software\uCOS-III\Source/os_sem.c ****         p_sem->DbgNextPtr           = (OS_SEM   *)0;
 778:..\..\..\..\..\..\Software\uCOS-III\Source/os_sem.c ****     } else {
 779:..\..\..\..\..\..\Software\uCOS-III\Source/os_sem.c ****         p_sem->DbgNextPtr           =  OSSemDbgListPtr;
ARM GAS  C:\Users\EDULU~1.DES\AppData\Local\Temp\ccfRue3n.s 			page 32


 832              		.loc 1 779 9 is_stmt 1 view .LVU276
 833              		.loc 1 779 37 is_stmt 0 view .LVU277
 834 0010 8361     		str	r3, [r0, #24]
 780:..\..\..\..\..\..\Software\uCOS-III\Source/os_sem.c ****         OSSemDbgListPtr->DbgPrevPtr =  p_sem;
 835              		.loc 1 780 9 is_stmt 1 view .LVU278
 836              		.loc 1 780 37 is_stmt 0 view .LVU279
 837 0012 5861     		str	r0, [r3, #20]
 838              	.L64:
 781:..\..\..\..\..\..\Software\uCOS-III\Source/os_sem.c ****     }
 782:..\..\..\..\..\..\Software\uCOS-III\Source/os_sem.c ****     OSSemDbgListPtr                 =  p_sem;
 839              		.loc 1 782 5 is_stmt 1 view .LVU280
 840              		.loc 1 782 37 is_stmt 0 view .LVU281
 841 0014 034B     		ldr	r3, .L66+4
 842 0016 1860     		str	r0, [r3]
 783:..\..\..\..\..\..\Software\uCOS-III\Source/os_sem.c **** }
 843              		.loc 1 783 1 view .LVU282
 844              		@ sp needed
 845 0018 7047     		bx	lr
 846              	.L65:
 777:..\..\..\..\..\..\Software\uCOS-III\Source/os_sem.c ****     } else {
 847              		.loc 1 777 9 is_stmt 1 view .LVU283
 777:..\..\..\..\..\..\Software\uCOS-III\Source/os_sem.c ****     } else {
 848              		.loc 1 777 37 is_stmt 0 view .LVU284
 849 001a 8361     		str	r3, [r0, #24]
 850 001c FAE7     		b	.L64
 851              	.L67:
 852 001e C046     		.align	2
 853              	.L66:
 854 0020 08000000 		.word	.LC7
 855 0024 00000000 		.word	OSSemDbgListPtr
 856              		.cfi_endproc
 857              	.LFE9:
 858              		.size	OS_SemDbgListAdd, .-OS_SemDbgListAdd
 859              		.section	.text.OSSemCreate,"ax",%progbits
 860              		.align	1
 861              		.global	OSSemCreate
 862              		.syntax unified
 863              		.code	16
 864              		.thumb_func
 865              		.fpu softvfp
 866              		.type	OSSemCreate, %function
 867              	OSSemCreate:
 868              	.LVL80:
 869              	.LFB3:
  77:..\..\..\..\..\..\Software\uCOS-III\Source/os_sem.c ****     CPU_SR_ALLOC();
 870              		.loc 1 77 1 is_stmt 1 view -0
 871              		.cfi_startproc
 872              		@ args = 0, pretend = 0, frame = 8
 873              		@ frame_needed = 0, uses_anonymous_args = 0
  77:..\..\..\..\..\..\Software\uCOS-III\Source/os_sem.c ****     CPU_SR_ALLOC();
 874              		.loc 1 77 1 is_stmt 0 view .LVU286
 875 0000 F0B5     		push	{r4, r5, r6, r7, lr}
 876              		.cfi_def_cfa_offset 20
 877              		.cfi_offset 4, -20
 878              		.cfi_offset 5, -16
 879              		.cfi_offset 6, -12
 880              		.cfi_offset 7, -8
ARM GAS  C:\Users\EDULU~1.DES\AppData\Local\Temp\ccfRue3n.s 			page 33


 881              		.cfi_offset 14, -4
 882 0002 83B0     		sub	sp, sp, #12
 883              		.cfi_def_cfa_offset 32
 884 0004 0400     		movs	r4, r0
 885 0006 0D00     		movs	r5, r1
 886 0008 1600     		movs	r6, r2
 887 000a 1F00     		movs	r7, r3
  78:..\..\..\..\..\..\Software\uCOS-III\Source/os_sem.c **** 
 888              		.loc 1 78 5 is_stmt 1 view .LVU287
 889              	.LVL81:
  97:..\..\..\..\..\..\Software\uCOS-III\Source/os_sem.c ****        *p_err = OS_ERR_CREATE_ISR;
 890              		.loc 1 97 5 view .LVU288
  97:..\..\..\..\..\..\Software\uCOS-III\Source/os_sem.c ****        *p_err = OS_ERR_CREATE_ISR;
 891              		.loc 1 97 25 is_stmt 0 view .LVU289
 892 000c 154B     		ldr	r3, .L74
 893              	.LVL82:
  97:..\..\..\..\..\..\Software\uCOS-III\Source/os_sem.c ****        *p_err = OS_ERR_CREATE_ISR;
 894              		.loc 1 97 25 view .LVU290
 895 000e 1B78     		ldrb	r3, [r3]
  97:..\..\..\..\..\..\Software\uCOS-III\Source/os_sem.c ****        *p_err = OS_ERR_CREATE_ISR;
 896              		.loc 1 97 8 view .LVU291
 897 0010 002B     		cmp	r3, #0
 898 0012 20D1     		bne	.L72
 104:..\..\..\..\..\..\Software\uCOS-III\Source/os_sem.c ****        *p_err = OS_ERR_OBJ_PTR_NULL;
 899              		.loc 1 104 5 is_stmt 1 view .LVU292
 104:..\..\..\..\..\..\Software\uCOS-III\Source/os_sem.c ****        *p_err = OS_ERR_OBJ_PTR_NULL;
 900              		.loc 1 104 8 is_stmt 0 view .LVU293
 901 0014 0028     		cmp	r0, #0
 902 0016 21D0     		beq	.L73
 110:..\..\..\..\..\..\Software\uCOS-III\Source/os_sem.c ****     p_sem->Type    = OS_OBJ_TYPE_SEM;                       /* Mark the data structure as a semapho
 903              		.loc 1 110 5 is_stmt 1 view .LVU294
 110:..\..\..\..\..\..\Software\uCOS-III\Source/os_sem.c ****     p_sem->Type    = OS_OBJ_TYPE_SEM;                       /* Mark the data structure as a semapho
 904              		.loc 1 110 5 view .LVU295
 110:..\..\..\..\..\..\Software\uCOS-III\Source/os_sem.c ****     p_sem->Type    = OS_OBJ_TYPE_SEM;                       /* Mark the data structure as a semapho
 905              		.loc 1 110 5 view .LVU296
 906 0018 FFF7FEFF 		bl	CPU_SR_Save
 907              	.LVL83:
 110:..\..\..\..\..\..\Software\uCOS-III\Source/os_sem.c ****     p_sem->Type    = OS_OBJ_TYPE_SEM;                       /* Mark the data structure as a semapho
 908              		.loc 1 110 5 is_stmt 0 view .LVU297
 909 001c 0190     		str	r0, [sp, #4]
 910              	.LVL84:
 110:..\..\..\..\..\..\Software\uCOS-III\Source/os_sem.c ****     p_sem->Type    = OS_OBJ_TYPE_SEM;                       /* Mark the data structure as a semapho
 911              		.loc 1 110 5 is_stmt 1 view .LVU298
 912 001e FFF7FEFF 		bl	CPU_IntDisMeasStart
 913              	.LVL85:
 111:..\..\..\..\..\..\Software\uCOS-III\Source/os_sem.c ****     p_sem->Ctr     = cnt;                                   /* Set semaphore value                 
 914              		.loc 1 111 5 view .LVU299
 111:..\..\..\..\..\..\Software\uCOS-III\Source/os_sem.c ****     p_sem->Ctr     = cnt;                                   /* Set semaphore value                 
 915              		.loc 1 111 20 is_stmt 0 view .LVU300
 916 0022 114B     		ldr	r3, .L74+4
 917 0024 2360     		str	r3, [r4]
 112:..\..\..\..\..\..\Software\uCOS-III\Source/os_sem.c ****     p_sem->TS      = (CPU_TS)0;
 918              		.loc 1 112 5 is_stmt 1 view .LVU301
 112:..\..\..\..\..\..\Software\uCOS-III\Source/os_sem.c ****     p_sem->TS      = (CPU_TS)0;
 919              		.loc 1 112 20 is_stmt 0 view .LVU302
 920 0026 2662     		str	r6, [r4, #32]
 113:..\..\..\..\..\..\Software\uCOS-III\Source/os_sem.c ****     p_sem->NamePtr = p_name;                                /* Save the name of the semaphore      
ARM GAS  C:\Users\EDULU~1.DES\AppData\Local\Temp\ccfRue3n.s 			page 34


 921              		.loc 1 113 5 is_stmt 1 view .LVU303
 113:..\..\..\..\..\..\Software\uCOS-III\Source/os_sem.c ****     p_sem->NamePtr = p_name;                                /* Save the name of the semaphore      
 922              		.loc 1 113 20 is_stmt 0 view .LVU304
 923 0028 0026     		movs	r6, #0
 924              	.LVL86:
 113:..\..\..\..\..\..\Software\uCOS-III\Source/os_sem.c ****     p_sem->NamePtr = p_name;                                /* Save the name of the semaphore      
 925              		.loc 1 113 20 view .LVU305
 926 002a 6662     		str	r6, [r4, #36]
 114:..\..\..\..\..\..\Software\uCOS-III\Source/os_sem.c ****     OS_PendListInit(&p_sem->PendList);                      /* Initialize the waiting list         
 927              		.loc 1 114 5 is_stmt 1 view .LVU306
 114:..\..\..\..\..\..\Software\uCOS-III\Source/os_sem.c ****     OS_PendListInit(&p_sem->PendList);                      /* Initialize the waiting list         
 928              		.loc 1 114 20 is_stmt 0 view .LVU307
 929 002c 6560     		str	r5, [r4, #4]
 115:..\..\..\..\..\..\Software\uCOS-III\Source/os_sem.c **** 
 930              		.loc 1 115 5 is_stmt 1 view .LVU308
 931 002e 2300     		movs	r3, r4
 932 0030 0833     		adds	r3, r3, #8
 933 0032 1800     		movs	r0, r3
 934 0034 FFF7FEFF 		bl	OS_PendListInit
 935              	.LVL87:
 118:..\..\..\..\..\..\Software\uCOS-III\Source/os_sem.c **** #endif
 936              		.loc 1 118 5 view .LVU309
 937 0038 2000     		movs	r0, r4
 938 003a FFF7FEFF 		bl	OS_SemDbgListAdd
 939              	.LVL88:
 120:..\..\..\..\..\..\Software\uCOS-III\Source/os_sem.c **** 
 940              		.loc 1 120 5 view .LVU310
 120:..\..\..\..\..\..\Software\uCOS-III\Source/os_sem.c **** 
 941              		.loc 1 120 13 is_stmt 0 view .LVU311
 942 003e 0B4A     		ldr	r2, .L74+8
 943 0040 1388     		ldrh	r3, [r2]
 944 0042 0133     		adds	r3, r3, #1
 945 0044 1380     		strh	r3, [r2]
 122:..\..\..\..\..\..\Software\uCOS-III\Source/os_sem.c ****    *p_err = OS_ERR_NONE;
 946              		.loc 1 122 5 is_stmt 1 view .LVU312
 122:..\..\..\..\..\..\Software\uCOS-III\Source/os_sem.c ****    *p_err = OS_ERR_NONE;
 947              		.loc 1 122 5 view .LVU313
 948 0046 FFF7FEFF 		bl	CPU_IntDisMeasStop
 949              	.LVL89:
 122:..\..\..\..\..\..\Software\uCOS-III\Source/os_sem.c ****    *p_err = OS_ERR_NONE;
 950              		.loc 1 122 5 view .LVU314
 122:..\..\..\..\..\..\Software\uCOS-III\Source/os_sem.c ****    *p_err = OS_ERR_NONE;
 951              		.loc 1 122 5 view .LVU315
 952 004a 0198     		ldr	r0, [sp, #4]
 953 004c FFF7FEFF 		bl	CPU_SR_Restore
 954              	.LVL90:
 123:..\..\..\..\..\..\Software\uCOS-III\Source/os_sem.c **** }
 955              		.loc 1 123 4 view .LVU316
 123:..\..\..\..\..\..\Software\uCOS-III\Source/os_sem.c **** }
 956              		.loc 1 123 11 is_stmt 0 view .LVU317
 957 0050 3E80     		strh	r6, [r7]
 958              	.LVL91:
 959              	.L68:
 124:..\..\..\..\..\..\Software\uCOS-III\Source/os_sem.c **** 
 960              		.loc 1 124 1 view .LVU318
 961 0052 03B0     		add	sp, sp, #12
 962              		@ sp needed
ARM GAS  C:\Users\EDULU~1.DES\AppData\Local\Temp\ccfRue3n.s 			page 35


 963              	.LVL92:
 964              	.LVL93:
 965              	.LVL94:
 124:..\..\..\..\..\..\Software\uCOS-III\Source/os_sem.c **** 
 966              		.loc 1 124 1 view .LVU319
 967 0054 F0BD     		pop	{r4, r5, r6, r7, pc}
 968              	.LVL95:
 969              	.L72:
  98:..\..\..\..\..\..\Software\uCOS-III\Source/os_sem.c ****         return;
 970              		.loc 1 98 8 is_stmt 1 view .LVU320
  98:..\..\..\..\..\..\Software\uCOS-III\Source/os_sem.c ****         return;
 971              		.loc 1 98 15 is_stmt 0 view .LVU321
 972 0056 064B     		ldr	r3, .L74+12
 973 0058 3B80     		strh	r3, [r7]
  99:..\..\..\..\..\..\Software\uCOS-III\Source/os_sem.c ****     }
 974              		.loc 1 99 9 is_stmt 1 view .LVU322
 975 005a FAE7     		b	.L68
 976              	.L73:
 105:..\..\..\..\..\..\Software\uCOS-III\Source/os_sem.c ****         return;
 977              		.loc 1 105 8 view .LVU323
 105:..\..\..\..\..\..\Software\uCOS-III\Source/os_sem.c ****         return;
 978              		.loc 1 105 15 is_stmt 0 view .LVU324
 979 005c 054B     		ldr	r3, .L74+16
 980 005e 3B80     		strh	r3, [r7]
 106:..\..\..\..\..\..\Software\uCOS-III\Source/os_sem.c ****     }
 981              		.loc 1 106 9 is_stmt 1 view .LVU325
 982 0060 F7E7     		b	.L68
 983              	.L75:
 984 0062 C046     		.align	2
 985              	.L74:
 986 0064 00000000 		.word	OSIntNestingCtr
 987 0068 53454D41 		.word	1095583059
 988 006c 00000000 		.word	OSSemQty
 989 0070 E12E0000 		.word	12001
 990 0074 C35D0000 		.word	24003
 991              		.cfi_endproc
 992              	.LFE3:
 993              		.size	OSSemCreate, .-OSSemCreate
 994              		.section	.text.OS_SemDbgListRemove,"ax",%progbits
 995              		.align	1
 996              		.global	OS_SemDbgListRemove
 997              		.syntax unified
 998              		.code	16
 999              		.thumb_func
 1000              		.fpu softvfp
 1001              		.type	OS_SemDbgListRemove, %function
 1002              	OS_SemDbgListRemove:
 1003              	.LVL96:
 1004              	.LFB10:
 784:..\..\..\..\..\..\Software\uCOS-III\Source/os_sem.c **** 
 785:..\..\..\..\..\..\Software\uCOS-III\Source/os_sem.c **** 
 786:..\..\..\..\..\..\Software\uCOS-III\Source/os_sem.c **** 
 787:..\..\..\..\..\..\Software\uCOS-III\Source/os_sem.c **** void  OS_SemDbgListRemove (OS_SEM  *p_sem)
 788:..\..\..\..\..\..\Software\uCOS-III\Source/os_sem.c **** {
 1005              		.loc 1 788 1 view -0
 1006              		.cfi_startproc
 1007              		@ args = 0, pretend = 0, frame = 0
ARM GAS  C:\Users\EDULU~1.DES\AppData\Local\Temp\ccfRue3n.s 			page 36


 1008              		@ frame_needed = 0, uses_anonymous_args = 0
 1009              		@ link register save eliminated.
 789:..\..\..\..\..\..\Software\uCOS-III\Source/os_sem.c ****     OS_SEM  *p_sem_next;
 1010              		.loc 1 789 5 view .LVU327
 790:..\..\..\..\..\..\Software\uCOS-III\Source/os_sem.c ****     OS_SEM  *p_sem_prev;
 1011              		.loc 1 790 5 view .LVU328
 791:..\..\..\..\..\..\Software\uCOS-III\Source/os_sem.c **** 
 792:..\..\..\..\..\..\Software\uCOS-III\Source/os_sem.c **** 
 793:..\..\..\..\..\..\Software\uCOS-III\Source/os_sem.c ****     p_sem_prev = p_sem->DbgPrevPtr;
 1012              		.loc 1 793 5 view .LVU329
 1013              		.loc 1 793 16 is_stmt 0 view .LVU330
 1014 0000 4269     		ldr	r2, [r0, #20]
 1015              	.LVL97:
 794:..\..\..\..\..\..\Software\uCOS-III\Source/os_sem.c ****     p_sem_next = p_sem->DbgNextPtr;
 1016              		.loc 1 794 5 is_stmt 1 view .LVU331
 1017              		.loc 1 794 16 is_stmt 0 view .LVU332
 1018 0002 8369     		ldr	r3, [r0, #24]
 1019              	.LVL98:
 795:..\..\..\..\..\..\Software\uCOS-III\Source/os_sem.c **** 
 796:..\..\..\..\..\..\Software\uCOS-III\Source/os_sem.c ****     if (p_sem_prev == (OS_SEM *)0) {
 1020              		.loc 1 796 5 is_stmt 1 view .LVU333
 1021              		.loc 1 796 8 is_stmt 0 view .LVU334
 1022 0004 002A     		cmp	r2, #0
 1023 0006 07D0     		beq	.L81
 797:..\..\..\..\..\..\Software\uCOS-III\Source/os_sem.c ****         OSSemDbgListPtr = p_sem_next;
 798:..\..\..\..\..\..\Software\uCOS-III\Source/os_sem.c ****         if (p_sem_next != (OS_SEM *)0) {
 799:..\..\..\..\..\..\Software\uCOS-III\Source/os_sem.c ****             p_sem_next->DbgPrevPtr = (OS_SEM *)0;
 800:..\..\..\..\..\..\Software\uCOS-III\Source/os_sem.c ****         }
 801:..\..\..\..\..\..\Software\uCOS-III\Source/os_sem.c ****         p_sem->DbgNextPtr = (OS_SEM *)0;
 802:..\..\..\..\..\..\Software\uCOS-III\Source/os_sem.c **** 
 803:..\..\..\..\..\..\Software\uCOS-III\Source/os_sem.c ****     } else if (p_sem_next == (OS_SEM *)0) {
 1024              		.loc 1 803 12 is_stmt 1 view .LVU335
 1025              		.loc 1 803 15 is_stmt 0 view .LVU336
 1026 0008 002B     		cmp	r3, #0
 1027 000a 0ED0     		beq	.L82
 804:..\..\..\..\..\..\Software\uCOS-III\Source/os_sem.c ****         p_sem_prev->DbgNextPtr = (OS_SEM *)0;
 805:..\..\..\..\..\..\Software\uCOS-III\Source/os_sem.c ****         p_sem->DbgPrevPtr      = (OS_SEM *)0;
 806:..\..\..\..\..\..\Software\uCOS-III\Source/os_sem.c **** 
 807:..\..\..\..\..\..\Software\uCOS-III\Source/os_sem.c ****     } else {
 808:..\..\..\..\..\..\Software\uCOS-III\Source/os_sem.c ****         p_sem_prev->DbgNextPtr =  p_sem_next;
 1028              		.loc 1 808 9 is_stmt 1 view .LVU337
 1029              		.loc 1 808 32 is_stmt 0 view .LVU338
 1030 000c 9361     		str	r3, [r2, #24]
 809:..\..\..\..\..\..\Software\uCOS-III\Source/os_sem.c ****         p_sem_next->DbgPrevPtr =  p_sem_prev;
 1031              		.loc 1 809 9 is_stmt 1 view .LVU339
 1032              		.loc 1 809 32 is_stmt 0 view .LVU340
 1033 000e 5A61     		str	r2, [r3, #20]
 810:..\..\..\..\..\..\Software\uCOS-III\Source/os_sem.c ****         p_sem->DbgNextPtr      = (OS_SEM *)0;
 1034              		.loc 1 810 9 is_stmt 1 view .LVU341
 1035              		.loc 1 810 32 is_stmt 0 view .LVU342
 1036 0010 0023     		movs	r3, #0
 1037              	.LVL99:
 1038              		.loc 1 810 32 view .LVU343
 1039 0012 8361     		str	r3, [r0, #24]
 811:..\..\..\..\..\..\Software\uCOS-III\Source/os_sem.c ****         p_sem->DbgPrevPtr      = (OS_SEM *)0;
 1040              		.loc 1 811 9 is_stmt 1 view .LVU344
 1041              		.loc 1 811 32 is_stmt 0 view .LVU345
ARM GAS  C:\Users\EDULU~1.DES\AppData\Local\Temp\ccfRue3n.s 			page 37


 1042 0014 4361     		str	r3, [r0, #20]
 1043              	.LVL100:
 1044              	.L76:
 812:..\..\..\..\..\..\Software\uCOS-III\Source/os_sem.c ****     }
 813:..\..\..\..\..\..\Software\uCOS-III\Source/os_sem.c **** }
 1045              		.loc 1 813 1 view .LVU346
 1046              		@ sp needed
 1047 0016 7047     		bx	lr
 1048              	.LVL101:
 1049              	.L81:
 797:..\..\..\..\..\..\Software\uCOS-III\Source/os_sem.c ****         if (p_sem_next != (OS_SEM *)0) {
 1050              		.loc 1 797 9 is_stmt 1 view .LVU347
 797:..\..\..\..\..\..\Software\uCOS-III\Source/os_sem.c ****         if (p_sem_next != (OS_SEM *)0) {
 1051              		.loc 1 797 25 is_stmt 0 view .LVU348
 1052 0018 054A     		ldr	r2, .L83
 1053              	.LVL102:
 797:..\..\..\..\..\..\Software\uCOS-III\Source/os_sem.c ****         if (p_sem_next != (OS_SEM *)0) {
 1054              		.loc 1 797 25 view .LVU349
 1055 001a 1360     		str	r3, [r2]
 798:..\..\..\..\..\..\Software\uCOS-III\Source/os_sem.c ****             p_sem_next->DbgPrevPtr = (OS_SEM *)0;
 1056              		.loc 1 798 9 is_stmt 1 view .LVU350
 798:..\..\..\..\..\..\Software\uCOS-III\Source/os_sem.c ****             p_sem_next->DbgPrevPtr = (OS_SEM *)0;
 1057              		.loc 1 798 12 is_stmt 0 view .LVU351
 1058 001c 002B     		cmp	r3, #0
 1059 001e 01D0     		beq	.L78
 799:..\..\..\..\..\..\Software\uCOS-III\Source/os_sem.c ****         }
 1060              		.loc 1 799 13 is_stmt 1 view .LVU352
 799:..\..\..\..\..\..\Software\uCOS-III\Source/os_sem.c ****         }
 1061              		.loc 1 799 36 is_stmt 0 view .LVU353
 1062 0020 0022     		movs	r2, #0
 1063 0022 5A61     		str	r2, [r3, #20]
 1064              	.LVL103:
 1065              	.L78:
 801:..\..\..\..\..\..\Software\uCOS-III\Source/os_sem.c **** 
 1066              		.loc 1 801 9 is_stmt 1 view .LVU354
 801:..\..\..\..\..\..\Software\uCOS-III\Source/os_sem.c **** 
 1067              		.loc 1 801 27 is_stmt 0 view .LVU355
 1068 0024 0023     		movs	r3, #0
 1069              	.LVL104:
 801:..\..\..\..\..\..\Software\uCOS-III\Source/os_sem.c **** 
 1070              		.loc 1 801 27 view .LVU356
 1071 0026 8361     		str	r3, [r0, #24]
 1072 0028 F5E7     		b	.L76
 1073              	.LVL105:
 1074              	.L82:
 804:..\..\..\..\..\..\Software\uCOS-III\Source/os_sem.c ****         p_sem->DbgPrevPtr      = (OS_SEM *)0;
 1075              		.loc 1 804 9 is_stmt 1 view .LVU357
 804:..\..\..\..\..\..\Software\uCOS-III\Source/os_sem.c ****         p_sem->DbgPrevPtr      = (OS_SEM *)0;
 1076              		.loc 1 804 32 is_stmt 0 view .LVU358
 1077 002a 9361     		str	r3, [r2, #24]
 805:..\..\..\..\..\..\Software\uCOS-III\Source/os_sem.c **** 
 1078              		.loc 1 805 9 is_stmt 1 view .LVU359
 805:..\..\..\..\..\..\Software\uCOS-III\Source/os_sem.c **** 
 1079              		.loc 1 805 32 is_stmt 0 view .LVU360
 1080 002c 4361     		str	r3, [r0, #20]
 1081 002e F2E7     		b	.L76
 1082              	.L84:
ARM GAS  C:\Users\EDULU~1.DES\AppData\Local\Temp\ccfRue3n.s 			page 38


 1083              		.align	2
 1084              	.L83:
 1085 0030 00000000 		.word	OSSemDbgListPtr
 1086              		.cfi_endproc
 1087              	.LFE10:
 1088              		.size	OS_SemDbgListRemove, .-OS_SemDbgListRemove
 1089              		.section	.text.OS_SemInit,"ax",%progbits
 1090              		.align	1
 1091              		.global	OS_SemInit
 1092              		.syntax unified
 1093              		.code	16
 1094              		.thumb_func
 1095              		.fpu softvfp
 1096              		.type	OS_SemInit, %function
 1097              	OS_SemInit:
 1098              	.LVL106:
 1099              	.LFB11:
 814:..\..\..\..\..\..\Software\uCOS-III\Source/os_sem.c **** #endif
 815:..\..\..\..\..\..\Software\uCOS-III\Source/os_sem.c **** 
 816:..\..\..\..\..\..\Software\uCOS-III\Source/os_sem.c **** /*$PAGE*/
 817:..\..\..\..\..\..\Software\uCOS-III\Source/os_sem.c **** /*
 818:..\..\..\..\..\..\Software\uCOS-III\Source/os_sem.c **** ***************************************************************************************************
 819:..\..\..\..\..\..\Software\uCOS-III\Source/os_sem.c **** *                                                SEMAPHORE INITIALIZATION
 820:..\..\..\..\..\..\Software\uCOS-III\Source/os_sem.c **** *
 821:..\..\..\..\..\..\Software\uCOS-III\Source/os_sem.c **** * Description: This function is called by OSInit() to initialize the semaphore management.
 822:..\..\..\..\..\..\Software\uCOS-III\Source/os_sem.c **** *
 823:..\..\..\..\..\..\Software\uCOS-III\Source/os_sem.c **** 
 824:..\..\..\..\..\..\Software\uCOS-III\Source/os_sem.c **** * Argument(s): p_err        is a pointer to a variable that will contain an error code returned by 
 825:..\..\..\..\..\..\Software\uCOS-III\Source/os_sem.c **** *
 826:..\..\..\..\..\..\Software\uCOS-III\Source/os_sem.c **** *                                OS_ERR_NONE     the call was successful
 827:..\..\..\..\..\..\Software\uCOS-III\Source/os_sem.c **** *
 828:..\..\..\..\..\..\Software\uCOS-III\Source/os_sem.c **** * Returns    : none
 829:..\..\..\..\..\..\Software\uCOS-III\Source/os_sem.c **** *
 830:..\..\..\..\..\..\Software\uCOS-III\Source/os_sem.c **** * Note(s)    : 1) This function is INTERNAL to uC/OS-III and your application MUST NOT call it.
 831:..\..\..\..\..\..\Software\uCOS-III\Source/os_sem.c **** ***************************************************************************************************
 832:..\..\..\..\..\..\Software\uCOS-III\Source/os_sem.c **** */
 833:..\..\..\..\..\..\Software\uCOS-III\Source/os_sem.c **** 
 834:..\..\..\..\..\..\Software\uCOS-III\Source/os_sem.c **** void  OS_SemInit (OS_ERR  *p_err)
 835:..\..\..\..\..\..\Software\uCOS-III\Source/os_sem.c **** {
 1100              		.loc 1 835 1 is_stmt 1 view -0
 1101              		.cfi_startproc
 1102              		@ args = 0, pretend = 0, frame = 0
 1103              		@ frame_needed = 0, uses_anonymous_args = 0
 1104              		@ link register save eliminated.
 836:..\..\..\..\..\..\Software\uCOS-III\Source/os_sem.c **** #ifdef OS_SAFETY_CRITICAL
 837:..\..\..\..\..\..\Software\uCOS-III\Source/os_sem.c ****     if (p_err == (OS_ERR *)0) {
 838:..\..\..\..\..\..\Software\uCOS-III\Source/os_sem.c ****         OS_SAFETY_CRITICAL_EXCEPTION();
 839:..\..\..\..\..\..\Software\uCOS-III\Source/os_sem.c ****         return;
 840:..\..\..\..\..\..\Software\uCOS-III\Source/os_sem.c ****     }
 841:..\..\..\..\..\..\Software\uCOS-III\Source/os_sem.c **** #endif
 842:..\..\..\..\..\..\Software\uCOS-III\Source/os_sem.c **** 
 843:..\..\..\..\..\..\Software\uCOS-III\Source/os_sem.c **** #if OS_CFG_DBG_EN > 0u
 844:..\..\..\..\..\..\Software\uCOS-III\Source/os_sem.c ****     OSSemDbgListPtr = (OS_SEM *)0;
 1105              		.loc 1 844 5 view .LVU362
 1106              		.loc 1 844 21 is_stmt 0 view .LVU363
 1107 0000 0023     		movs	r3, #0
 1108 0002 034A     		ldr	r2, .L86
ARM GAS  C:\Users\EDULU~1.DES\AppData\Local\Temp\ccfRue3n.s 			page 39


 1109 0004 1360     		str	r3, [r2]
 845:..\..\..\..\..\..\Software\uCOS-III\Source/os_sem.c **** #endif
 846:..\..\..\..\..\..\Software\uCOS-III\Source/os_sem.c **** 
 847:..\..\..\..\..\..\Software\uCOS-III\Source/os_sem.c ****     OSSemQty        = (OS_OBJ_QTY)0;
 1110              		.loc 1 847 5 is_stmt 1 view .LVU364
 1111              		.loc 1 847 21 is_stmt 0 view .LVU365
 1112 0006 034A     		ldr	r2, .L86+4
 1113 0008 1380     		strh	r3, [r2]
 848:..\..\..\..\..\..\Software\uCOS-III\Source/os_sem.c ****    *p_err           = OS_ERR_NONE;
 1114              		.loc 1 848 4 is_stmt 1 view .LVU366
 1115              		.loc 1 848 21 is_stmt 0 view .LVU367
 1116 000a 0380     		strh	r3, [r0]
 849:..\..\..\..\..\..\Software\uCOS-III\Source/os_sem.c **** }
 1117              		.loc 1 849 1 view .LVU368
 1118              		@ sp needed
 1119 000c 7047     		bx	lr
 1120              	.L87:
 1121 000e C046     		.align	2
 1122              	.L86:
 1123 0010 00000000 		.word	OSSemDbgListPtr
 1124 0014 00000000 		.word	OSSemQty
 1125              		.cfi_endproc
 1126              	.LFE11:
 1127              		.size	OS_SemInit, .-OS_SemInit
 1128              		.section	.text.OS_SemPost,"ax",%progbits
 1129              		.align	1
 1130              		.global	OS_SemPost
 1131              		.syntax unified
 1132              		.code	16
 1133              		.thumb_func
 1134              		.fpu softvfp
 1135              		.type	OS_SemPost, %function
 1136              	OS_SemPost:
 1137              	.LVL107:
 1138              	.LFB12:
 850:..\..\..\..\..\..\Software\uCOS-III\Source/os_sem.c **** 
 851:..\..\..\..\..\..\Software\uCOS-III\Source/os_sem.c **** /*$PAGE*/
 852:..\..\..\..\..\..\Software\uCOS-III\Source/os_sem.c **** /*
 853:..\..\..\..\..\..\Software\uCOS-III\Source/os_sem.c **** ***************************************************************************************************
 854:..\..\..\..\..\..\Software\uCOS-III\Source/os_sem.c **** *                                                 POST TO A SEMAPHORE
 855:..\..\..\..\..\..\Software\uCOS-III\Source/os_sem.c **** *
 856:..\..\..\..\..\..\Software\uCOS-III\Source/os_sem.c **** * Description: This function signals a semaphore
 857:..\..\..\..\..\..\Software\uCOS-III\Source/os_sem.c **** *
 858:..\..\..\..\..\..\Software\uCOS-III\Source/os_sem.c **** * Arguments  : p_sem    is a pointer to the semaphore
 859:..\..\..\..\..\..\Software\uCOS-III\Source/os_sem.c **** *
 860:..\..\..\..\..\..\Software\uCOS-III\Source/os_sem.c **** *              opt      determines the type of POST performed:
 861:..\..\..\..\..\..\Software\uCOS-III\Source/os_sem.c **** *
 862:..\..\..\..\..\..\Software\uCOS-III\Source/os_sem.c **** *                           OS_OPT_POST_1            POST to a single waiting task
 863:..\..\..\..\..\..\Software\uCOS-III\Source/os_sem.c **** *                           OS_OPT_POST_ALL          POST to ALL tasks that are waiting on the sema
 864:..\..\..\..\..\..\Software\uCOS-III\Source/os_sem.c **** *
 865:..\..\..\..\..\..\Software\uCOS-III\Source/os_sem.c **** *                           OS_OPT_POST_NO_SCHED     Do not call the scheduler
 866:..\..\..\..\..\..\Software\uCOS-III\Source/os_sem.c **** *
 867:..\..\..\..\..\..\Software\uCOS-III\Source/os_sem.c **** *                           Note(s): 1) OS_OPT_POST_NO_SCHED can be added with one of the other opt
 868:..\..\..\..\..\..\Software\uCOS-III\Source/os_sem.c **** *
 869:..\..\..\..\..\..\Software\uCOS-III\Source/os_sem.c **** *              ts       is a timestamp indicating when the post occurred.
 870:..\..\..\..\..\..\Software\uCOS-III\Source/os_sem.c **** *
 871:..\..\..\..\..\..\Software\uCOS-III\Source/os_sem.c **** *              p_err    is a pointer to a variable that will contain an error code returned by this
ARM GAS  C:\Users\EDULU~1.DES\AppData\Local\Temp\ccfRue3n.s 			page 40


 872:..\..\..\..\..\..\Software\uCOS-III\Source/os_sem.c **** *
 873:..\..\..\..\..\..\Software\uCOS-III\Source/os_sem.c **** *                           OS_ERR_NONE          The call was successful and the semaphore was sign
 874:..\..\..\..\..\..\Software\uCOS-III\Source/os_sem.c **** *                           OS_ERR_OBJ_PTR_NULL  If 'p_sem' is a NULL pointer.
 875:..\..\..\..\..\..\Software\uCOS-III\Source/os_sem.c **** *                           OS_ERR_OBJ_TYPE      If 'p_sem' is not pointing at a semaphore
 876:..\..\..\..\..\..\Software\uCOS-III\Source/os_sem.c **** *                           OS_ERR_SEM_OVF       If the post would cause the semaphore count to ove
 877:..\..\..\..\..\..\Software\uCOS-III\Source/os_sem.c **** *
 878:..\..\..\..\..\..\Software\uCOS-III\Source/os_sem.c **** * Returns    : The current value of the semaphore counter or 0 upon error.
 879:..\..\..\..\..\..\Software\uCOS-III\Source/os_sem.c **** *
 880:..\..\..\..\..\..\Software\uCOS-III\Source/os_sem.c **** * Note(s)    : This function is INTERNAL to uC/OS-III and your application should not call it.
 881:..\..\..\..\..\..\Software\uCOS-III\Source/os_sem.c **** ***************************************************************************************************
 882:..\..\..\..\..\..\Software\uCOS-III\Source/os_sem.c **** */
 883:..\..\..\..\..\..\Software\uCOS-III\Source/os_sem.c **** 
 884:..\..\..\..\..\..\Software\uCOS-III\Source/os_sem.c **** OS_SEM_CTR  OS_SemPost (OS_SEM  *p_sem,
 885:..\..\..\..\..\..\Software\uCOS-III\Source/os_sem.c ****                         OS_OPT   opt,
 886:..\..\..\..\..\..\Software\uCOS-III\Source/os_sem.c ****                         CPU_TS   ts,
 887:..\..\..\..\..\..\Software\uCOS-III\Source/os_sem.c ****                         OS_ERR  *p_err)
 888:..\..\..\..\..\..\Software\uCOS-III\Source/os_sem.c **** {
 1139              		.loc 1 888 1 is_stmt 1 view -0
 1140              		.cfi_startproc
 1141              		@ args = 0, pretend = 0, frame = 8
 1142              		@ frame_needed = 0, uses_anonymous_args = 0
 1143              		.loc 1 888 1 is_stmt 0 view .LVU370
 1144 0000 F0B5     		push	{r4, r5, r6, r7, lr}
 1145              		.cfi_def_cfa_offset 20
 1146              		.cfi_offset 4, -20
 1147              		.cfi_offset 5, -16
 1148              		.cfi_offset 6, -12
 1149              		.cfi_offset 7, -8
 1150              		.cfi_offset 14, -4
 1151 0002 C646     		mov	lr, r8
 1152 0004 00B5     		push	{lr}
 1153              		.cfi_def_cfa_offset 24
 1154              		.cfi_offset 8, -24
 1155 0006 84B0     		sub	sp, sp, #16
 1156              		.cfi_def_cfa_offset 40
 1157 0008 0500     		movs	r5, r0
 1158 000a 0291     		str	r1, [sp, #8]
 1159 000c 1600     		movs	r6, r2
 1160 000e 9846     		mov	r8, r3
 889:..\..\..\..\..\..\Software\uCOS-III\Source/os_sem.c ****     OS_OBJ_QTY     cnt;
 1161              		.loc 1 889 5 is_stmt 1 view .LVU371
 890:..\..\..\..\..\..\Software\uCOS-III\Source/os_sem.c ****     OS_SEM_CTR     ctr;
 1162              		.loc 1 890 5 view .LVU372
 891:..\..\..\..\..\..\Software\uCOS-III\Source/os_sem.c ****     OS_PEND_LIST  *p_pend_list;
 1163              		.loc 1 891 5 view .LVU373
 892:..\..\..\..\..\..\Software\uCOS-III\Source/os_sem.c ****     OS_PEND_DATA  *p_pend_data;
 1164              		.loc 1 892 5 view .LVU374
 893:..\..\..\..\..\..\Software\uCOS-III\Source/os_sem.c ****     OS_PEND_DATA  *p_pend_data_next;
 1165              		.loc 1 893 5 view .LVU375
 894:..\..\..\..\..\..\Software\uCOS-III\Source/os_sem.c ****     OS_TCB        *p_tcb;
 1166              		.loc 1 894 5 view .LVU376
 895:..\..\..\..\..\..\Software\uCOS-III\Source/os_sem.c ****     CPU_SR_ALLOC();
 1167              		.loc 1 895 5 view .LVU377
 1168              	.LVL108:
 896:..\..\..\..\..\..\Software\uCOS-III\Source/os_sem.c **** 
 897:..\..\..\..\..\..\Software\uCOS-III\Source/os_sem.c **** 
 898:..\..\..\..\..\..\Software\uCOS-III\Source/os_sem.c **** 
ARM GAS  C:\Users\EDULU~1.DES\AppData\Local\Temp\ccfRue3n.s 			page 41


 899:..\..\..\..\..\..\Software\uCOS-III\Source/os_sem.c ****     CPU_CRITICAL_ENTER();
 1169              		.loc 1 899 5 view .LVU378
 1170              		.loc 1 899 5 view .LVU379
 1171              		.loc 1 899 5 view .LVU380
 1172 0010 FFF7FEFF 		bl	CPU_SR_Save
 1173              	.LVL109:
 1174              		.loc 1 899 5 is_stmt 0 view .LVU381
 1175 0014 0390     		str	r0, [sp, #12]
 1176              	.LVL110:
 1177              		.loc 1 899 5 is_stmt 1 view .LVU382
 1178 0016 FFF7FEFF 		bl	CPU_IntDisMeasStart
 1179              	.LVL111:
 900:..\..\..\..\..\..\Software\uCOS-III\Source/os_sem.c ****     p_pend_list = &p_sem->PendList;
 1180              		.loc 1 900 5 view .LVU383
 901:..\..\..\..\..\..\Software\uCOS-III\Source/os_sem.c ****     if (p_pend_list->NbrEntries == (OS_OBJ_QTY)0) {         /* Any task waiting on semaphore?      
 1181              		.loc 1 901 5 view .LVU384
 1182              		.loc 1 901 20 is_stmt 0 view .LVU385
 1183 001a 2C8A     		ldrh	r4, [r5, #16]
 1184              		.loc 1 901 8 view .LVU386
 1185 001c 002C     		cmp	r4, #0
 1186 001e 18D1     		bne	.L89
 902:..\..\..\..\..\..\Software\uCOS-III\Source/os_sem.c ****         switch (sizeof(OS_SEM_CTR)) {
 1187              		.loc 1 902 9 is_stmt 1 view .LVU387
 903:..\..\..\..\..\..\Software\uCOS-III\Source/os_sem.c ****             case 1u:
 904:..\..\..\..\..\..\Software\uCOS-III\Source/os_sem.c ****                  if (p_sem->Ctr == DEF_INT_08U_MAX_VAL) {
 905:..\..\..\..\..\..\Software\uCOS-III\Source/os_sem.c ****                      CPU_CRITICAL_EXIT();
 906:..\..\..\..\..\..\Software\uCOS-III\Source/os_sem.c ****                     *p_err = OS_ERR_SEM_OVF;
 907:..\..\..\..\..\..\Software\uCOS-III\Source/os_sem.c ****                      return ((OS_SEM_CTR)0);
 908:..\..\..\..\..\..\Software\uCOS-III\Source/os_sem.c ****                  }
 909:..\..\..\..\..\..\Software\uCOS-III\Source/os_sem.c ****                  break;
 910:..\..\..\..\..\..\Software\uCOS-III\Source/os_sem.c **** 
 911:..\..\..\..\..\..\Software\uCOS-III\Source/os_sem.c ****             case 2u:
 912:..\..\..\..\..\..\Software\uCOS-III\Source/os_sem.c ****                  if (p_sem->Ctr == DEF_INT_16U_MAX_VAL) {
 913:..\..\..\..\..\..\Software\uCOS-III\Source/os_sem.c ****                      CPU_CRITICAL_EXIT();
 914:..\..\..\..\..\..\Software\uCOS-III\Source/os_sem.c ****                     *p_err = OS_ERR_SEM_OVF;
 915:..\..\..\..\..\..\Software\uCOS-III\Source/os_sem.c ****                      return ((OS_SEM_CTR)0);
 916:..\..\..\..\..\..\Software\uCOS-III\Source/os_sem.c ****                  }
 917:..\..\..\..\..\..\Software\uCOS-III\Source/os_sem.c ****                  break;
 918:..\..\..\..\..\..\Software\uCOS-III\Source/os_sem.c **** 
 919:..\..\..\..\..\..\Software\uCOS-III\Source/os_sem.c ****             case 4u:
 920:..\..\..\..\..\..\Software\uCOS-III\Source/os_sem.c ****                  if (p_sem->Ctr == DEF_INT_32U_MAX_VAL) {
 1188              		.loc 1 920 18 view .LVU388
 1189              		.loc 1 920 27 is_stmt 0 view .LVU389
 1190 0020 2C6A     		ldr	r4, [r5, #32]
 1191              		.loc 1 920 21 view .LVU390
 1192 0022 631C     		adds	r3, r4, #1
 1193 0024 0BD0     		beq	.L96
 921:..\..\..\..\..\..\Software\uCOS-III\Source/os_sem.c ****                      CPU_CRITICAL_EXIT();
 922:..\..\..\..\..\..\Software\uCOS-III\Source/os_sem.c ****                     *p_err = OS_ERR_SEM_OVF;
 923:..\..\..\..\..\..\Software\uCOS-III\Source/os_sem.c ****                      return ((OS_SEM_CTR)0);
 924:..\..\..\..\..\..\Software\uCOS-III\Source/os_sem.c ****                  }
 925:..\..\..\..\..\..\Software\uCOS-III\Source/os_sem.c ****                  break;
 1194              		.loc 1 925 18 is_stmt 1 view .LVU391
 926:..\..\..\..\..\..\Software\uCOS-III\Source/os_sem.c **** 
 927:..\..\..\..\..\..\Software\uCOS-III\Source/os_sem.c ****             default:
 928:..\..\..\..\..\..\Software\uCOS-III\Source/os_sem.c ****                  break;
 929:..\..\..\..\..\..\Software\uCOS-III\Source/os_sem.c ****         }
ARM GAS  C:\Users\EDULU~1.DES\AppData\Local\Temp\ccfRue3n.s 			page 42


 930:..\..\..\..\..\..\Software\uCOS-III\Source/os_sem.c ****         p_sem->Ctr++;                                       /* No                                  
 1195              		.loc 1 930 9 view .LVU392
 1196              		.loc 1 930 19 is_stmt 0 view .LVU393
 1197 0026 0134     		adds	r4, r4, #1
 1198 0028 2C62     		str	r4, [r5, #32]
 931:..\..\..\..\..\..\Software\uCOS-III\Source/os_sem.c ****         ctr       = p_sem->Ctr;
 1199              		.loc 1 931 9 is_stmt 1 view .LVU394
 1200              	.LVL112:
 932:..\..\..\..\..\..\Software\uCOS-III\Source/os_sem.c ****         p_sem->TS = ts;                                     /* Save timestamp in semaphore control 
 1201              		.loc 1 932 9 view .LVU395
 1202              		.loc 1 932 19 is_stmt 0 view .LVU396
 1203 002a 6E62     		str	r6, [r5, #36]
 933:..\..\..\..\..\..\Software\uCOS-III\Source/os_sem.c ****         CPU_CRITICAL_EXIT();
 1204              		.loc 1 933 9 is_stmt 1 view .LVU397
 1205              		.loc 1 933 9 view .LVU398
 1206 002c FFF7FEFF 		bl	CPU_IntDisMeasStop
 1207              	.LVL113:
 1208              		.loc 1 933 9 view .LVU399
 1209              		.loc 1 933 9 view .LVU400
 1210 0030 0398     		ldr	r0, [sp, #12]
 1211 0032 FFF7FEFF 		bl	CPU_SR_Restore
 1212              	.LVL114:
 934:..\..\..\..\..\..\Software\uCOS-III\Source/os_sem.c ****        *p_err     = OS_ERR_NONE;
 1213              		.loc 1 934 8 view .LVU401
 1214              		.loc 1 934 19 is_stmt 0 view .LVU402
 1215 0036 0023     		movs	r3, #0
 1216 0038 4246     		mov	r2, r8
 1217 003a 1380     		strh	r3, [r2]
 935:..\..\..\..\..\..\Software\uCOS-III\Source/os_sem.c ****         return (ctr);
 1218              		.loc 1 935 9 is_stmt 1 view .LVU403
 1219              		.loc 1 935 16 is_stmt 0 view .LVU404
 1220 003c 29E0     		b	.L88
 1221              	.LVL115:
 1222              	.L96:
 921:..\..\..\..\..\..\Software\uCOS-III\Source/os_sem.c ****                     *p_err = OS_ERR_SEM_OVF;
 1223              		.loc 1 921 22 is_stmt 1 view .LVU405
 921:..\..\..\..\..\..\Software\uCOS-III\Source/os_sem.c ****                     *p_err = OS_ERR_SEM_OVF;
 1224              		.loc 1 921 22 view .LVU406
 1225 003e FFF7FEFF 		bl	CPU_IntDisMeasStop
 1226              	.LVL116:
 921:..\..\..\..\..\..\Software\uCOS-III\Source/os_sem.c ****                     *p_err = OS_ERR_SEM_OVF;
 1227              		.loc 1 921 22 view .LVU407
 921:..\..\..\..\..\..\Software\uCOS-III\Source/os_sem.c ****                     *p_err = OS_ERR_SEM_OVF;
 1228              		.loc 1 921 22 view .LVU408
 1229 0042 0398     		ldr	r0, [sp, #12]
 1230 0044 FFF7FEFF 		bl	CPU_SR_Restore
 1231              	.LVL117:
 922:..\..\..\..\..\..\Software\uCOS-III\Source/os_sem.c ****                      return ((OS_SEM_CTR)0);
 1232              		.loc 1 922 21 view .LVU409
 922:..\..\..\..\..\..\Software\uCOS-III\Source/os_sem.c ****                      return ((OS_SEM_CTR)0);
 1233              		.loc 1 922 28 is_stmt 0 view .LVU410
 1234 0048 164B     		ldr	r3, .L99
 1235 004a 4246     		mov	r2, r8
 1236 004c 1380     		strh	r3, [r2]
 923:..\..\..\..\..\..\Software\uCOS-III\Source/os_sem.c ****                  }
 1237              		.loc 1 923 22 is_stmt 1 view .LVU411
 923:..\..\..\..\..\..\Software\uCOS-III\Source/os_sem.c ****                  }
ARM GAS  C:\Users\EDULU~1.DES\AppData\Local\Temp\ccfRue3n.s 			page 43


 1238              		.loc 1 923 29 is_stmt 0 view .LVU412
 1239 004e 0024     		movs	r4, #0
 1240 0050 1FE0     		b	.L88
 1241              	.L89:
 936:..\..\..\..\..\..\Software\uCOS-III\Source/os_sem.c ****     }
 937:..\..\..\..\..\..\Software\uCOS-III\Source/os_sem.c **** 
 938:..\..\..\..\..\..\Software\uCOS-III\Source/os_sem.c ****     OS_CRITICAL_ENTER_CPU_EXIT();
 1242              		.loc 1 938 33 is_stmt 1 view .LVU413
 939:..\..\..\..\..\..\Software\uCOS-III\Source/os_sem.c ****     if ((opt & OS_OPT_POST_ALL) != (OS_OPT)0) {             /* Post message to all tasks waiting?  
 1243              		.loc 1 939 5 view .LVU414
 1244              		.loc 1 939 8 is_stmt 0 view .LVU415
 1245 0052 029B     		ldr	r3, [sp, #8]
 1246 0054 9B05     		lsls	r3, r3, #22
 1247 0056 00D4     		bmi	.L92
 940:..\..\..\..\..\..\Software\uCOS-III\Source/os_sem.c ****         cnt = p_pend_list->NbrEntries;                      /* Yes                                 
 941:..\..\..\..\..\..\Software\uCOS-III\Source/os_sem.c ****     } else {
 942:..\..\..\..\..\..\Software\uCOS-III\Source/os_sem.c ****         cnt = (OS_OBJ_QTY)1;                                /* No                                  
 1248              		.loc 1 942 13 view .LVU416
 1249 0058 0124     		movs	r4, #1
 1250              	.L92:
 1251              	.LVL118:
 943:..\..\..\..\..\..\Software\uCOS-III\Source/os_sem.c ****     }
 944:..\..\..\..\..\..\Software\uCOS-III\Source/os_sem.c ****     p_pend_data = p_pend_list->HeadPtr;
 1252              		.loc 1 944 5 is_stmt 1 view .LVU417
 1253              		.loc 1 944 17 is_stmt 0 view .LVU418
 1254 005a AF68     		ldr	r7, [r5, #8]
 1255              	.LVL119:
 945:..\..\..\..\..\..\Software\uCOS-III\Source/os_sem.c ****     while (cnt > 0u) {
 1256              		.loc 1 945 5 is_stmt 1 view .LVU419
 1257              	.L93:
 1258              		.loc 1 945 11 is_stmt 0 view .LVU420
 1259 005c 002C     		cmp	r4, #0
 1260 005e 0AD0     		beq	.L97
 946:..\..\..\..\..\..\Software\uCOS-III\Source/os_sem.c ****         p_tcb            = p_pend_data->TCBPtr;
 1261              		.loc 1 946 9 is_stmt 1 view .LVU421
 1262              		.loc 1 946 26 is_stmt 0 view .LVU422
 1263 0060 B968     		ldr	r1, [r7, #8]
 1264              	.LVL120:
 947:..\..\..\..\..\..\Software\uCOS-III\Source/os_sem.c ****         p_pend_data_next = p_pend_data->NextPtr;
 1265              		.loc 1 947 9 is_stmt 1 view .LVU423
 1266              		.loc 1 947 26 is_stmt 0 view .LVU424
 1267 0062 7F68     		ldr	r7, [r7, #4]
 1268              	.LVL121:
 948:..\..\..\..\..\..\Software\uCOS-III\Source/os_sem.c ****         OS_Post((OS_PEND_OBJ *)((void *)p_sem),
 1269              		.loc 1 948 9 is_stmt 1 view .LVU425
 1270 0064 0096     		str	r6, [sp]
 1271 0066 0023     		movs	r3, #0
 1272 0068 0022     		movs	r2, #0
 1273 006a 2800     		movs	r0, r5
 1274 006c FFF7FEFF 		bl	OS_Post
 1275              	.LVL122:
 949:..\..\..\..\..\..\Software\uCOS-III\Source/os_sem.c ****                 p_tcb,
 950:..\..\..\..\..\..\Software\uCOS-III\Source/os_sem.c ****                 (void      *)0,
 951:..\..\..\..\..\..\Software\uCOS-III\Source/os_sem.c ****                 (OS_MSG_SIZE)0,
 952:..\..\..\..\..\..\Software\uCOS-III\Source/os_sem.c ****                 ts);
 953:..\..\..\..\..\..\Software\uCOS-III\Source/os_sem.c ****         p_pend_data = p_pend_data_next;
 1276              		.loc 1 953 9 view .LVU426
ARM GAS  C:\Users\EDULU~1.DES\AppData\Local\Temp\ccfRue3n.s 			page 44


 954:..\..\..\..\..\..\Software\uCOS-III\Source/os_sem.c ****         cnt--;
 1277              		.loc 1 954 9 view .LVU427
 1278              		.loc 1 954 12 is_stmt 0 view .LVU428
 1279 0070 013C     		subs	r4, r4, #1
 1280              	.LVL123:
 1281              		.loc 1 954 12 view .LVU429
 1282 0072 A4B2     		uxth	r4, r4
 1283              	.LVL124:
 1284              		.loc 1 954 12 view .LVU430
 1285 0074 F2E7     		b	.L93
 1286              	.LVL125:
 1287              	.L97:
 955:..\..\..\..\..\..\Software\uCOS-III\Source/os_sem.c ****     }
 956:..\..\..\..\..\..\Software\uCOS-III\Source/os_sem.c ****     ctr = p_sem->Ctr;
 1288              		.loc 1 956 5 is_stmt 1 view .LVU431
 1289              		.loc 1 956 9 is_stmt 0 view .LVU432
 1290 0076 2C6A     		ldr	r4, [r5, #32]
 1291              	.LVL126:
 957:..\..\..\..\..\..\Software\uCOS-III\Source/os_sem.c ****     OS_CRITICAL_EXIT_NO_SCHED();
 1292              		.loc 1 957 5 is_stmt 1 view .LVU433
 1293              		.loc 1 957 5 view .LVU434
 1294 0078 FFF7FEFF 		bl	CPU_IntDisMeasStop
 1295              	.LVL127:
 1296              		.loc 1 957 5 view .LVU435
 1297              		.loc 1 957 5 view .LVU436
 1298 007c 0398     		ldr	r0, [sp, #12]
 1299 007e FFF7FEFF 		bl	CPU_SR_Restore
 1300              	.LVL128:
 958:..\..\..\..\..\..\Software\uCOS-III\Source/os_sem.c ****     if ((opt & OS_OPT_POST_NO_SCHED) == (OS_OPT)0) {
 1301              		.loc 1 958 5 view .LVU437
 1302              		.loc 1 958 38 is_stmt 0 view .LVU438
 1303 0082 6B46     		mov	r3, sp
 1304 0084 0825     		movs	r5, #8
 1305 0086 5D5F     		ldrsh	r5, [r3, r5]
 1306              	.LVL129:
 1307              		.loc 1 958 8 view .LVU439
 1308 0088 002D     		cmp	r5, #0
 1309 008a 07DA     		bge	.L98
 1310              	.L95:
 959:..\..\..\..\..\..\Software\uCOS-III\Source/os_sem.c ****         OSSched();                                          /* Run the scheduler                   
 960:..\..\..\..\..\..\Software\uCOS-III\Source/os_sem.c ****     }
 961:..\..\..\..\..\..\Software\uCOS-III\Source/os_sem.c ****    *p_err = OS_ERR_NONE;
 1311              		.loc 1 961 4 is_stmt 1 view .LVU440
 1312              		.loc 1 961 11 is_stmt 0 view .LVU441
 1313 008c 0023     		movs	r3, #0
 1314 008e 4246     		mov	r2, r8
 1315 0090 1380     		strh	r3, [r2]
 962:..\..\..\..\..\..\Software\uCOS-III\Source/os_sem.c ****     return (ctr);
 1316              		.loc 1 962 5 is_stmt 1 view .LVU442
 1317              	.LVL130:
 1318              	.L88:
 963:..\..\..\..\..\..\Software\uCOS-III\Source/os_sem.c **** }
 1319              		.loc 1 963 1 is_stmt 0 view .LVU443
 1320 0092 2000     		movs	r0, r4
 1321 0094 04B0     		add	sp, sp, #16
 1322              		@ sp needed
 1323              	.LVL131:
ARM GAS  C:\Users\EDULU~1.DES\AppData\Local\Temp\ccfRue3n.s 			page 45


 1324              		.loc 1 963 1 view .LVU444
 1325 0096 04BC     		pop	{r2}
 1326 0098 9046     		mov	r8, r2
 1327 009a F0BD     		pop	{r4, r5, r6, r7, pc}
 1328              	.LVL132:
 1329              	.L98:
 959:..\..\..\..\..\..\Software\uCOS-III\Source/os_sem.c ****         OSSched();                                          /* Run the scheduler                   
 1330              		.loc 1 959 9 is_stmt 1 view .LVU445
 1331 009c FFF7FEFF 		bl	OSSched
 1332              	.LVL133:
 1333 00a0 F4E7     		b	.L95
 1334              	.L100:
 1335 00a2 C046     		.align	2
 1336              	.L99:
 1337 00a4 C56D0000 		.word	28101
 1338              		.cfi_endproc
 1339              	.LFE12:
 1340              		.size	OS_SemPost, .-OS_SemPost
 1341              		.section	.text.OSSemPost,"ax",%progbits
 1342              		.align	1
 1343              		.global	OSSemPost
 1344              		.syntax unified
 1345              		.code	16
 1346              		.thumb_func
 1347              		.fpu softvfp
 1348              		.type	OSSemPost, %function
 1349              	OSSemPost:
 1350              	.LVL134:
 1351              	.LFB6:
 587:..\..\..\..\..\..\Software\uCOS-III\Source/os_sem.c ****     OS_SEM_CTR  ctr;
 1352              		.loc 1 587 1 view -0
 1353              		.cfi_startproc
 1354              		@ args = 0, pretend = 0, frame = 0
 1355              		@ frame_needed = 0, uses_anonymous_args = 0
 587:..\..\..\..\..\..\Software\uCOS-III\Source/os_sem.c ****     OS_SEM_CTR  ctr;
 1356              		.loc 1 587 1 is_stmt 0 view .LVU447
 1357 0000 70B5     		push	{r4, r5, r6, lr}
 1358              		.cfi_def_cfa_offset 16
 1359              		.cfi_offset 4, -16
 1360              		.cfi_offset 5, -12
 1361              		.cfi_offset 6, -8
 1362              		.cfi_offset 14, -4
 1363 0002 0500     		movs	r5, r0
 1364 0004 0C00     		movs	r4, r1
 1365 0006 1600     		movs	r6, r2
 588:..\..\..\..\..\..\Software\uCOS-III\Source/os_sem.c ****     CPU_TS      ts;
 1366              		.loc 1 588 5 is_stmt 1 view .LVU448
 589:..\..\..\..\..\..\Software\uCOS-III\Source/os_sem.c **** 
 1367              		.loc 1 589 5 view .LVU449
 601:..\..\..\..\..\..\Software\uCOS-III\Source/os_sem.c ****        *p_err  = OS_ERR_OBJ_PTR_NULL;
 1368              		.loc 1 601 5 view .LVU450
 601:..\..\..\..\..\..\Software\uCOS-III\Source/os_sem.c ****        *p_err  = OS_ERR_OBJ_PTR_NULL;
 1369              		.loc 1 601 8 is_stmt 0 view .LVU451
 1370 0008 0028     		cmp	r0, #0
 1371 000a 15D0     		beq	.L107
 605:..\..\..\..\..\..\Software\uCOS-III\Source/os_sem.c ****         case OS_OPT_POST_1:
 1372              		.loc 1 605 5 is_stmt 1 view .LVU452
ARM GAS  C:\Users\EDULU~1.DES\AppData\Local\Temp\ccfRue3n.s 			page 46


 1373 000c 8023     		movs	r3, #128
 1374 000e 9B00     		lsls	r3, r3, #2
 1375 0010 9942     		cmp	r1, r3
 1376 0012 08D0     		beq	.L104
 1377 0014 14D9     		bls	.L108
 1378 0016 8023     		movs	r3, #128
 1379 0018 1B02     		lsls	r3, r3, #8
 1380 001a 9942     		cmp	r1, r3
 1381 001c 03D0     		beq	.L104
 1382 001e 8223     		movs	r3, #130
 1383 0020 1B02     		lsls	r3, r3, #8
 1384 0022 9942     		cmp	r1, r3
 1385 0024 0ED1     		bne	.L106
 1386              	.L104:
 610:..\..\..\..\..\..\Software\uCOS-III\Source/os_sem.c **** 
 1387              		.loc 1 610 14 view .LVU453
 625:..\..\..\..\..\..\Software\uCOS-III\Source/os_sem.c **** 
 1388              		.loc 1 625 5 view .LVU454
 625:..\..\..\..\..\..\Software\uCOS-III\Source/os_sem.c **** 
 1389              		.loc 1 625 10 is_stmt 0 view .LVU455
 1390 0026 FFF7FEFF 		bl	CPU_TS_TmrRd
 1391              	.LVL135:
 625:..\..\..\..\..\..\Software\uCOS-III\Source/os_sem.c **** 
 1392              		.loc 1 625 10 view .LVU456
 1393 002a 0200     		movs	r2, r0
 1394              	.LVL136:
 641:..\..\..\..\..\..\Software\uCOS-III\Source/os_sem.c ****                      opt,
 1395              		.loc 1 641 5 is_stmt 1 view .LVU457
 641:..\..\..\..\..\..\Software\uCOS-III\Source/os_sem.c ****                      opt,
 1396              		.loc 1 641 11 is_stmt 0 view .LVU458
 1397 002c 3300     		movs	r3, r6
 1398 002e 2100     		movs	r1, r4
 1399 0030 2800     		movs	r0, r5
 1400              	.LVL137:
 641:..\..\..\..\..\..\Software\uCOS-III\Source/os_sem.c ****                      opt,
 1401              		.loc 1 641 11 view .LVU459
 1402 0032 FFF7FEFF 		bl	OS_SemPost
 1403              	.LVL138:
 646:..\..\..\..\..\..\Software\uCOS-III\Source/os_sem.c **** }
 1404              		.loc 1 646 5 is_stmt 1 view .LVU460
 646:..\..\..\..\..\..\Software\uCOS-III\Source/os_sem.c **** }
 1405              		.loc 1 646 12 is_stmt 0 view .LVU461
 1406 0036 08E0     		b	.L101
 1407              	.LVL139:
 1408              	.L107:
 602:..\..\..\..\..\..\Software\uCOS-III\Source/os_sem.c ****         return ((OS_SEM_CTR)0);
 1409              		.loc 1 602 8 is_stmt 1 view .LVU462
 602:..\..\..\..\..\..\Software\uCOS-III\Source/os_sem.c ****         return ((OS_SEM_CTR)0);
 1410              		.loc 1 602 16 is_stmt 0 view .LVU463
 1411 0038 044B     		ldr	r3, .L109
 1412 003a 1380     		strh	r3, [r2]
 603:..\..\..\..\..\..\Software\uCOS-III\Source/os_sem.c ****     }
 1413              		.loc 1 603 9 is_stmt 1 view .LVU464
 603:..\..\..\..\..\..\Software\uCOS-III\Source/os_sem.c ****     }
 1414              		.loc 1 603 16 is_stmt 0 view .LVU465
 1415 003c 0020     		movs	r0, #0
 1416              	.LVL140:
ARM GAS  C:\Users\EDULU~1.DES\AppData\Local\Temp\ccfRue3n.s 			page 47


 603:..\..\..\..\..\..\Software\uCOS-III\Source/os_sem.c ****     }
 1417              		.loc 1 603 16 view .LVU466
 1418 003e 04E0     		b	.L101
 1419              	.LVL141:
 1420              	.L108:
 605:..\..\..\..\..\..\Software\uCOS-III\Source/os_sem.c ****         case OS_OPT_POST_1:
 1421              		.loc 1 605 5 view .LVU467
 1422 0040 0029     		cmp	r1, #0
 1423 0042 F0D0     		beq	.L104
 1424              	.L106:
 613:..\..\..\..\..\..\Software\uCOS-III\Source/os_sem.c ****              return ((OS_SEM_CTR)0u);
 1425              		.loc 1 613 13 is_stmt 1 view .LVU468
 613:..\..\..\..\..\..\Software\uCOS-III\Source/os_sem.c ****              return ((OS_SEM_CTR)0u);
 1426              		.loc 1 613 20 is_stmt 0 view .LVU469
 1427 0044 024B     		ldr	r3, .L109+4
 1428 0046 3380     		strh	r3, [r6]
 614:..\..\..\..\..\..\Software\uCOS-III\Source/os_sem.c ****     }
 1429              		.loc 1 614 14 is_stmt 1 view .LVU470
 614:..\..\..\..\..\..\Software\uCOS-III\Source/os_sem.c ****     }
 1430              		.loc 1 614 21 is_stmt 0 view .LVU471
 1431 0048 0020     		movs	r0, #0
 1432              	.LVL142:
 1433              	.L101:
 647:..\..\..\..\..\..\Software\uCOS-III\Source/os_sem.c **** 
 1434              		.loc 1 647 1 view .LVU472
 1435              		@ sp needed
 1436              	.LVL143:
 1437              	.LVL144:
 647:..\..\..\..\..\..\Software\uCOS-III\Source/os_sem.c **** 
 1438              		.loc 1 647 1 view .LVU473
 1439 004a 70BD     		pop	{r4, r5, r6, pc}
 1440              	.L110:
 1441              		.align	2
 1442              	.L109:
 1443 004c C35D0000 		.word	24003
 1444 0050 255E0000 		.word	24101
 1445              		.cfi_endproc
 1446              	.LFE6:
 1447              		.size	OSSemPost, .-OSSemPost
 1448              		.section	.rodata.str1.4,"aMS",%progbits,1
 1449              		.align	2
 1450              	.LC5:
 1451 0000 3F53454D 		.ascii	"?SEM\000"
 1451      00
 1452 0005 000000   		.space	3
 1453              	.LC7:
 1454 0008 2000     		.ascii	" \000"
 1455              		.text
 1456              	.Letext0:
 1457              		.file 2 "..\\..\\..\\..\\..\\..\\Software\\uC-CPU\\ARM-Cortex-M0\\GNU/cpu.h"
 1458              		.file 3 "c:\\program files (x86)\\gnu tools arm embedded\\8 2018-q4-major\\arm-none-eabi\\include\
 1459              		.file 4 "c:\\program files (x86)\\gnu tools arm embedded\\8 2018-q4-major\\arm-none-eabi\\include\
 1460              		.file 5 "c:\\program files (x86)\\gnu tools arm embedded\\8 2018-q4-major\\lib\\gcc\\arm-none-eabi
 1461              		.file 6 "c:\\program files (x86)\\gnu tools arm embedded\\8 2018-q4-major\\arm-none-eabi\\include\
 1462              		.file 7 "..\\..\\..\\..\\..\\..\\Software\\uC-CPU/cpu_core.h"
 1463              		.file 8 "..\\..\\..\\..\\..\\..\\Software\\uCOS-III\\Source/os_type.h"
 1464              		.file 9 "..\\..\\..\\..\\..\\..\\Software\\uCOS-III\\Ports\\ARM-Cortex-M0\\Generic\\GNU/os_cpu.h"
ARM GAS  C:\Users\EDULU~1.DES\AppData\Local\Temp\ccfRue3n.s 			page 48


 1465              		.file 10 "..\\..\\..\\..\\..\\..\\Software\\uCOS-III\\Source/os.h"