ARM GAS  C:\Users\EDULU~1.DES\AppData\Local\Temp\ccfRue3n.s 			page 1


   1              		.cpu cortex-m0
   2              		.eabi_attribute 20, 1
   3              		.eabi_attribute 21, 1
   4              		.eabi_attribute 23, 3
   5              		.eabi_attribute 24, 1
   6              		.eabi_attribute 25, 1
   7              		.eabi_attribute 26, 1
   8              		.eabi_attribute 30, 1
   9              		.eabi_attribute 34, 0
  10              		.eabi_attribute 18, 4
  11              		.file	"os_sem.c"
  12              		.text
  13              	.Ltext0:
  14              		.cfi_sections	.debug_frame
  15              		.section	.text.OSSemPend,"ax",%progbits
  16              		.align	1
  17              		.global	OSSemPend
  18              		.arch armv6s-m
  19              		.syntax unified
  20              		.code	16
  21              		.thumb_func
  22              		.fpu softvfp
  23              		.type	OSSemPend, %function
  24              	OSSemPend:
  25              	.LVL0:
  26              	.LFB4:
  27              		.file 1 "..\\..\\..\\..\\..\\..\\Software\\uCOS-III\\Source\\os_sem.c"
   1:..\..\..\..\..\..\Software\uCOS-III\Source/os_sem.c **** /*
   2:..\..\..\..\..\..\Software\uCOS-III\Source/os_sem.c **** ***************************************************************************************************
   3:..\..\..\..\..\..\Software\uCOS-III\Source/os_sem.c **** *                                                      uC/OS-III
   4:..\..\..\..\..\..\Software\uCOS-III\Source/os_sem.c **** *                                                 The Real-Time Kernel
   5:..\..\..\..\..\..\Software\uCOS-III\Source/os_sem.c **** *
   6:..\..\..\..\..\..\Software\uCOS-III\Source/os_sem.c **** *                                  (c) Copyright 2009-2012; Micrium, Inc.; Weston, FL
   7:..\..\..\..\..\..\Software\uCOS-III\Source/os_sem.c **** *                           All rights reserved.  Protected by international copyright laws.
   8:..\..\..\..\..\..\Software\uCOS-III\Source/os_sem.c **** *
   9:..\..\..\..\..\..\Software\uCOS-III\Source/os_sem.c **** *                                                 SEMAPHORE MANAGEMENT
  10:..\..\..\..\..\..\Software\uCOS-III\Source/os_sem.c **** *
  11:..\..\..\..\..\..\Software\uCOS-III\Source/os_sem.c **** * File    : OS_SEM.C
  12:..\..\..\..\..\..\Software\uCOS-III\Source/os_sem.c **** * By      : JJL
  13:..\..\..\..\..\..\Software\uCOS-III\Source/os_sem.c **** * Version : V3.03.01
  14:..\..\..\..\..\..\Software\uCOS-III\Source/os_sem.c **** *
  15:..\..\..\..\..\..\Software\uCOS-III\Source/os_sem.c **** * LICENSING TERMS:
  16:..\..\..\..\..\..\Software\uCOS-III\Source/os_sem.c **** * ---------------
  17:..\..\..\..\..\..\Software\uCOS-III\Source/os_sem.c **** *           uC/OS-III is provided in source form for FREE short-term evaluation, for educational us
  18:..\..\..\..\..\..\Software\uCOS-III\Source/os_sem.c **** *           for peaceful research.  If you plan or intend to use uC/OS-III in a commercial applicat
  19:..\..\..\..\..\..\Software\uCOS-III\Source/os_sem.c **** *           product then, you need to contact Micrium to properly license uC/OS-III for its use in 
  20:..\..\..\..\..\..\Software\uCOS-III\Source/os_sem.c **** *           application/product.   We provide ALL the source code for your convenience and to help 
  21:..\..\..\..\..\..\Software\uCOS-III\Source/os_sem.c **** *           experience uC/OS-III.  The fact that the source is provided does NOT mean that you can 
  22:..\..\..\..\..\..\Software\uCOS-III\Source/os_sem.c **** *           it commercially without paying a licensing fee.
  23:..\..\..\..\..\..\Software\uCOS-III\Source/os_sem.c **** *
  24:..\..\..\..\..\..\Software\uCOS-III\Source/os_sem.c **** *           Knowledge of the source code may NOT be used to develop a similar product.
  25:..\..\..\..\..\..\Software\uCOS-III\Source/os_sem.c **** *
  26:..\..\..\..\..\..\Software\uCOS-III\Source/os_sem.c **** *           Please help us continue to provide the embedded community with the finest software avai
  27:..\..\..\..\..\..\Software\uCOS-III\Source/os_sem.c **** *           Your honesty is greatly appreciated.
  28:..\..\..\..\..\..\Software\uCOS-III\Source/os_sem.c **** *
  29:..\..\..\..\..\..\Software\uCOS-III\Source/os_sem.c **** *           You can contact us at www.micrium.com, or by phone at +1 (954) 217-2036.
  30:..\..\..\..\..\..\Software\uCOS-III\Source/os_sem.c **** ***************************************************************************************************
ARM GAS  C:\Users\EDULU~1.DES\AppData\Local\Temp\ccfRue3n.s 			page 2


  31:..\..\..\..\..\..\Software\uCOS-III\Source/os_sem.c **** */
  32:..\..\..\..\..\..\Software\uCOS-III\Source/os_sem.c **** 
  33:..\..\..\..\..\..\Software\uCOS-III\Source/os_sem.c **** #define  MICRIUM_SOURCE
  34:..\..\..\..\..\..\Software\uCOS-III\Source/os_sem.c **** #include <os.h>
  35:..\..\..\..\..\..\Software\uCOS-III\Source/os_sem.c **** 
  36:..\..\..\..\..\..\Software\uCOS-III\Source/os_sem.c **** #ifdef VSC_INCLUDE_SOURCE_FILE_NAMES
  37:..\..\..\..\..\..\Software\uCOS-III\Source/os_sem.c **** const  CPU_CHAR  *os_sem__c = "$Id: $";
  38:..\..\..\..\..\..\Software\uCOS-III\Source/os_sem.c **** #endif
  39:..\..\..\..\..\..\Software\uCOS-III\Source/os_sem.c **** 
  40:..\..\..\..\..\..\Software\uCOS-III\Source/os_sem.c **** 
  41:..\..\..\..\..\..\Software\uCOS-III\Source/os_sem.c **** #if OS_CFG_SEM_EN > 0u
  42:..\..\..\..\..\..\Software\uCOS-III\Source/os_sem.c **** /*
  43:..\..\..\..\..\..\Software\uCOS-III\Source/os_sem.c **** ***************************************************************************************************
  44:..\..\..\..\..\..\Software\uCOS-III\Source/os_sem.c **** *                                                  CREATE A SEMAPHORE
  45:..\..\..\..\..\..\Software\uCOS-III\Source/os_sem.c **** *
  46:..\..\..\..\..\..\Software\uCOS-III\Source/os_sem.c **** * Description: This function creates a semaphore.
  47:..\..\..\..\..\..\Software\uCOS-III\Source/os_sem.c **** *
  48:..\..\..\..\..\..\Software\uCOS-III\Source/os_sem.c **** * Arguments  : p_sem         is a pointer to the semaphore to initialize.  Your application is resp
  49:..\..\..\..\..\..\Software\uCOS-III\Source/os_sem.c **** *                            allocating storage for the semaphore.
  50:..\..\..\..\..\..\Software\uCOS-III\Source/os_sem.c **** *
  51:..\..\..\..\..\..\Software\uCOS-III\Source/os_sem.c **** *              p_name        is a pointer to the name you would like to give the semaphore.
  52:..\..\..\..\..\..\Software\uCOS-III\Source/os_sem.c **** *
  53:..\..\..\..\..\..\Software\uCOS-III\Source/os_sem.c **** *              cnt           is the initial value for the semaphore.
  54:..\..\..\..\..\..\Software\uCOS-III\Source/os_sem.c **** *                            If used to share resources, you should initialize to the number of res
  55:..\..\..\..\..\..\Software\uCOS-III\Source/os_sem.c **** *                            If used to signal the occurrence of event(s) then you should initializ
  56:..\..\..\..\..\..\Software\uCOS-III\Source/os_sem.c **** *
  57:..\..\..\..\..\..\Software\uCOS-III\Source/os_sem.c **** *              p_err         is a pointer to a variable that will contain an error code returned by
  58:..\..\..\..\..\..\Software\uCOS-III\Source/os_sem.c **** *
  59:..\..\..\..\..\..\Software\uCOS-III\Source/os_sem.c **** *                                OS_ERR_NONE                    if the call was successful
  60:..\..\..\..\..\..\Software\uCOS-III\Source/os_sem.c **** *                                OS_ERR_CREATE_ISR              if you called this function from an
  61:..\..\..\..\..\..\Software\uCOS-III\Source/os_sem.c **** *                                OS_ERR_ILLEGAL_CREATE_RUN_TIME if you are trying to create the sem
  62:..\..\..\..\..\..\Software\uCOS-III\Source/os_sem.c **** *                                                                 called OSSafetyCriticalStart().
  63:..\..\..\..\..\..\Software\uCOS-III\Source/os_sem.c **** *                                OS_ERR_NAME                    if 'p_name' is a NULL pointer
  64:..\..\..\..\..\..\Software\uCOS-III\Source/os_sem.c **** *                                OS_ERR_OBJ_CREATED             if the semaphore has already been c
  65:..\..\..\..\..\..\Software\uCOS-III\Source/os_sem.c **** *                                OS_ERR_OBJ_PTR_NULL            if 'p_sem'  is a NULL pointer
  66:..\..\..\..\..\..\Software\uCOS-III\Source/os_sem.c **** *                                OS_ERR_OBJ_TYPE                if 'p_sem' has already been initial
  67:..\..\..\..\..\..\Software\uCOS-III\Source/os_sem.c **** *                                                               object type
  68:..\..\..\..\..\..\Software\uCOS-III\Source/os_sem.c **** *
  69:..\..\..\..\..\..\Software\uCOS-III\Source/os_sem.c **** * Returns    : none
  70:..\..\..\..\..\..\Software\uCOS-III\Source/os_sem.c **** ***************************************************************************************************
  71:..\..\..\..\..\..\Software\uCOS-III\Source/os_sem.c **** */
  72:..\..\..\..\..\..\Software\uCOS-III\Source/os_sem.c **** 
  73:..\..\..\..\..\..\Software\uCOS-III\Source/os_sem.c **** void  OSSemCreate (OS_SEM      *p_sem,
  74:..\..\..\..\..\..\Software\uCOS-III\Source/os_sem.c ****                    CPU_CHAR    *p_name,
  75:..\..\..\..\..\..\Software\uCOS-III\Source/os_sem.c ****                    OS_SEM_CTR   cnt,
  76:..\..\..\..\..\..\Software\uCOS-III\Source/os_sem.c ****                    OS_ERR      *p_err)
  77:..\..\..\..\..\..\Software\uCOS-III\Source/os_sem.c **** {
  78:..\..\..\..\..\..\Software\uCOS-III\Source/os_sem.c ****     CPU_SR_ALLOC();
  79:..\..\..\..\..\..\Software\uCOS-III\Source/os_sem.c **** 
  80:..\..\..\..\..\..\Software\uCOS-III\Source/os_sem.c **** 
  81:..\..\..\..\..\..\Software\uCOS-III\Source/os_sem.c **** 
  82:..\..\..\..\..\..\Software\uCOS-III\Source/os_sem.c **** #ifdef OS_SAFETY_CRITICAL
  83:..\..\..\..\..\..\Software\uCOS-III\Source/os_sem.c ****     if (p_err == (OS_ERR *)0) {
  84:..\..\..\..\..\..\Software\uCOS-III\Source/os_sem.c ****         OS_SAFETY_CRITICAL_EXCEPTION();
  85:..\..\..\..\..\..\Software\uCOS-III\Source/os_sem.c ****         return;
  86:..\..\..\..\..\..\Software\uCOS-III\Source/os_sem.c ****     }
  87:..\..\..\..\..\..\Software\uCOS-III\Source/os_sem.c **** #endif
ARM GAS  C:\Users\EDULU~1.DES\AppData\Local\Temp\ccfRue3n.s 			page 3


  88:..\..\..\..\..\..\Software\uCOS-III\Source/os_sem.c **** 
  89:..\..\..\..\..\..\Software\uCOS-III\Source/os_sem.c **** #ifdef OS_SAFETY_CRITICAL_IEC61508
  90:..\..\..\..\..\..\Software\uCOS-III\Source/os_sem.c ****     if (OSSafetyCriticalStartFlag == DEF_TRUE) {
  91:..\..\..\..\..\..\Software\uCOS-III\Source/os_sem.c ****        *p_err = OS_ERR_ILLEGAL_CREATE_RUN_TIME;
  92:..\..\..\..\..\..\Software\uCOS-III\Source/os_sem.c ****         return;
  93:..\..\..\..\..\..\Software\uCOS-III\Source/os_sem.c ****     }
  94:..\..\..\..\..\..\Software\uCOS-III\Source/os_sem.c **** #endif
  95:..\..\..\..\..\..\Software\uCOS-III\Source/os_sem.c **** 
  96:..\..\..\..\..\..\Software\uCOS-III\Source/os_sem.c **** #if OS_CFG_CALLED_FROM_ISR_CHK_EN > 0u
  97:..\..\..\..\..\..\Software\uCOS-III\Source/os_sem.c ****     if (OSIntNestingCtr > (OS_NESTING_CTR)0) {              /* Not allowed to be called from an ISR
  98:..\..\..\..\..\..\Software\uCOS-III\Source/os_sem.c ****        *p_err = OS_ERR_CREATE_ISR;
  99:..\..\..\..\..\..\Software\uCOS-III\Source/os_sem.c ****         return;
 100:..\..\..\..\..\..\Software\uCOS-III\Source/os_sem.c ****     }
 101:..\..\..\..\..\..\Software\uCOS-III\Source/os_sem.c **** #endif
 102:..\..\..\..\..\..\Software\uCOS-III\Source/os_sem.c **** 
 103:..\..\..\..\..\..\Software\uCOS-III\Source/os_sem.c **** #if OS_CFG_ARG_CHK_EN > 0u
 104:..\..\..\..\..\..\Software\uCOS-III\Source/os_sem.c ****     if (p_sem == (OS_SEM *)0) {                             /* Validate 'p_sem'                    
 105:..\..\..\..\..\..\Software\uCOS-III\Source/os_sem.c ****        *p_err = OS_ERR_OBJ_PTR_NULL;
 106:..\..\..\..\..\..\Software\uCOS-III\Source/os_sem.c ****         return;
 107:..\..\..\..\..\..\Software\uCOS-III\Source/os_sem.c ****     }
 108:..\..\..\..\..\..\Software\uCOS-III\Source/os_sem.c **** #endif
 109:..\..\..\..\..\..\Software\uCOS-III\Source/os_sem.c **** 
 110:..\..\..\..\..\..\Software\uCOS-III\Source/os_sem.c ****     OS_CRITICAL_ENTER();
 111:..\..\..\..\..\..\Software\uCOS-III\Source/os_sem.c ****     p_sem->Type    = OS_OBJ_TYPE_SEM;                       /* Mark the data structure as a semapho
 112:..\..\..\..\..\..\Software\uCOS-III\Source/os_sem.c ****     p_sem->Ctr     = cnt;                                   /* Set semaphore value                 
 113:..\..\..\..\..\..\Software\uCOS-III\Source/os_sem.c ****     p_sem->TS      = (CPU_TS)0;
 114:..\..\..\..\..\..\Software\uCOS-III\Source/os_sem.c ****     p_sem->NamePtr = p_name;                                /* Save the name of the semaphore      
 115:..\..\..\..\..\..\Software\uCOS-III\Source/os_sem.c ****     OS_PendListInit(&p_sem->PendList);                      /* Initialize the waiting list         
 116:..\..\..\..\..\..\Software\uCOS-III\Source/os_sem.c **** 
 117:..\..\..\..\..\..\Software\uCOS-III\Source/os_sem.c **** #if OS_CFG_DBG_EN > 0u
 118:..\..\..\..\..\..\Software\uCOS-III\Source/os_sem.c ****     OS_SemDbgListAdd(p_sem);
 119:..\..\..\..\..\..\Software\uCOS-III\Source/os_sem.c **** #endif
 120:..\..\..\..\..\..\Software\uCOS-III\Source/os_sem.c ****     OSSemQty++;
 121:..\..\..\..\..\..\Software\uCOS-III\Source/os_sem.c **** 
 122:..\..\..\..\..\..\Software\uCOS-III\Source/os_sem.c ****     OS_CRITICAL_EXIT_NO_SCHED();
 123:..\..\..\..\..\..\Software\uCOS-III\Source/os_sem.c ****    *p_err = OS_ERR_NONE;
 124:..\..\..\..\..\..\Software\uCOS-III\Source/os_sem.c **** }
 125:..\..\..\..\..\..\Software\uCOS-III\Source/os_sem.c **** 
 126:..\..\..\..\..\..\Software\uCOS-III\Source/os_sem.c **** /*$PAGE*/
 127:..\..\..\..\..\..\Software\uCOS-III\Source/os_sem.c **** /*
 128:..\..\..\..\..\..\Software\uCOS-III\Source/os_sem.c **** ***************************************************************************************************
 129:..\..\..\..\..\..\Software\uCOS-III\Source/os_sem.c **** *                                                  DELETE A SEMAPHORE
 130:..\..\..\..\..\..\Software\uCOS-III\Source/os_sem.c **** *
 131:..\..\..\..\..\..\Software\uCOS-III\Source/os_sem.c **** * Description: This function deletes a semaphore.
 132:..\..\..\..\..\..\Software\uCOS-III\Source/os_sem.c **** *
 133:..\..\..\..\..\..\Software\uCOS-III\Source/os_sem.c **** * Arguments  : p_sem         is a pointer to the semaphore to delete
 134:..\..\..\..\..\..\Software\uCOS-III\Source/os_sem.c **** *
 135:..\..\..\..\..\..\Software\uCOS-III\Source/os_sem.c **** *              opt           determines delete options as follows:
 136:..\..\..\..\..\..\Software\uCOS-III\Source/os_sem.c **** *
 137:..\..\..\..\..\..\Software\uCOS-III\Source/os_sem.c **** *                                OS_OPT_DEL_NO_PEND          Delete semaphore ONLY if no task pendi
 138:..\..\..\..\..\..\Software\uCOS-III\Source/os_sem.c **** *                                OS_OPT_DEL_ALWAYS           Deletes the semaphore even if tasks ar
 139:..\..\..\..\..\..\Software\uCOS-III\Source/os_sem.c **** *                                                            In this case, all the tasks pending wi
 140:..\..\..\..\..\..\Software\uCOS-III\Source/os_sem.c **** *
 141:..\..\..\..\..\..\Software\uCOS-III\Source/os_sem.c **** *              p_err         is a pointer to a variable that will contain an error code returned by
 142:..\..\..\..\..\..\Software\uCOS-III\Source/os_sem.c **** *
 143:..\..\..\..\..\..\Software\uCOS-III\Source/os_sem.c **** *                                OS_ERR_NONE                 The call was successful and the semaph
 144:..\..\..\..\..\..\Software\uCOS-III\Source/os_sem.c **** *                                OS_ERR_DEL_ISR              If you attempted to delete the semapho
ARM GAS  C:\Users\EDULU~1.DES\AppData\Local\Temp\ccfRue3n.s 			page 4


 145:..\..\..\..\..\..\Software\uCOS-III\Source/os_sem.c **** *                                OS_ERR_OBJ_PTR_NULL         If 'p_sem' is a NULL pointer.
 146:..\..\..\..\..\..\Software\uCOS-III\Source/os_sem.c **** *                                OS_ERR_OBJ_TYPE             If 'p_sem' is not pointing at a semaph
 147:..\..\..\..\..\..\Software\uCOS-III\Source/os_sem.c **** *                                OS_ERR_OPT_INVALID          An invalid option was specified
 148:..\..\..\..\..\..\Software\uCOS-III\Source/os_sem.c **** *                                OS_ERR_TASK_WAITING         One or more tasks were waiting on the 
 149:..\..\..\..\..\..\Software\uCOS-III\Source/os_sem.c **** *
 150:..\..\..\..\..\..\Software\uCOS-III\Source/os_sem.c **** * Returns    : == 0          if no tasks were waiting on the semaphore, or upon error.
 151:..\..\..\..\..\..\Software\uCOS-III\Source/os_sem.c **** *              >  0          if one or more tasks waiting on the semaphore are now readied and info
 152:..\..\..\..\..\..\Software\uCOS-III\Source/os_sem.c **** *
 153:..\..\..\..\..\..\Software\uCOS-III\Source/os_sem.c **** * Note(s)    : 1) This function must be used with care.  Tasks that would normally expect the prese
 154:..\..\..\..\..\..\Software\uCOS-III\Source/os_sem.c **** *                 MUST check the return code of OSSemPend().
 155:..\..\..\..\..\..\Software\uCOS-III\Source/os_sem.c **** *              2) OSSemAccept() callers will not know that the intended semaphore has been deleted.
 156:..\..\..\..\..\..\Software\uCOS-III\Source/os_sem.c **** *              3) Because ALL tasks pending on the semaphore will be readied, you MUST be careful i
 157:..\..\..\..\..\..\Software\uCOS-III\Source/os_sem.c **** *                 the semaphore is used for mutual exclusion because the resource(s) will no longer
 158:..\..\..\..\..\..\Software\uCOS-III\Source/os_sem.c **** *                 semaphore.
 159:..\..\..\..\..\..\Software\uCOS-III\Source/os_sem.c **** ***************************************************************************************************
 160:..\..\..\..\..\..\Software\uCOS-III\Source/os_sem.c **** */
 161:..\..\..\..\..\..\Software\uCOS-III\Source/os_sem.c **** 
 162:..\..\..\..\..\..\Software\uCOS-III\Source/os_sem.c **** #if OS_CFG_SEM_DEL_EN > 0u
 163:..\..\..\..\..\..\Software\uCOS-III\Source/os_sem.c **** OS_OBJ_QTY  OSSemDel (OS_SEM  *p_sem,
 164:..\..\..\..\..\..\Software\uCOS-III\Source/os_sem.c ****                       OS_OPT   opt,
 165:..\..\..\..\..\..\Software\uCOS-III\Source/os_sem.c ****                       OS_ERR  *p_err)
 166:..\..\..\..\..\..\Software\uCOS-III\Source/os_sem.c **** {
 167:..\..\..\..\..\..\Software\uCOS-III\Source/os_sem.c ****     OS_OBJ_QTY     cnt;
 168:..\..\..\..\..\..\Software\uCOS-III\Source/os_sem.c ****     OS_OBJ_QTY     nbr_tasks;
 169:..\..\..\..\..\..\Software\uCOS-III\Source/os_sem.c ****     OS_PEND_DATA  *p_pend_data;
 170:..\..\..\..\..\..\Software\uCOS-III\Source/os_sem.c ****     OS_PEND_LIST  *p_pend_list;
 171:..\..\..\..\..\..\Software\uCOS-III\Source/os_sem.c ****     OS_TCB        *p_tcb;
 172:..\..\..\..\..\..\Software\uCOS-III\Source/os_sem.c ****     CPU_TS         ts;
 173:..\..\..\..\..\..\Software\uCOS-III\Source/os_sem.c ****     CPU_SR_ALLOC();
 174:..\..\..\..\..\..\Software\uCOS-III\Source/os_sem.c **** 
 175:..\..\..\..\..\..\Software\uCOS-III\Source/os_sem.c **** 
 176:..\..\..\..\..\..\Software\uCOS-III\Source/os_sem.c **** 
 177:..\..\..\..\..\..\Software\uCOS-III\Source/os_sem.c **** #ifdef OS_SAFETY_CRITICAL
 178:..\..\..\..\..\..\Software\uCOS-III\Source/os_sem.c ****     if (p_err == (OS_ERR *)0) {
 179:..\..\..\..\..\..\Software\uCOS-III\Source/os_sem.c ****         OS_SAFETY_CRITICAL_EXCEPTION();
 180:..\..\..\..\..\..\Software\uCOS-III\Source/os_sem.c ****         return ((OS_OBJ_QTY)0);
 181:..\..\..\..\..\..\Software\uCOS-III\Source/os_sem.c ****     }
 182:..\..\..\..\..\..\Software\uCOS-III\Source/os_sem.c **** #endif
 183:..\..\..\..\..\..\Software\uCOS-III\Source/os_sem.c **** 
 184:..\..\..\..\..\..\Software\uCOS-III\Source/os_sem.c **** #if OS_CFG_CALLED_FROM_ISR_CHK_EN > 0u
 185:..\..\..\..\..\..\Software\uCOS-III\Source/os_sem.c ****     if (OSIntNestingCtr > (OS_NESTING_CTR)0) {              /* Not allowed to delete a semaphore fr
 186:..\..\..\..\..\..\Software\uCOS-III\Source/os_sem.c ****        *p_err = OS_ERR_DEL_ISR;
 187:..\..\..\..\..\..\Software\uCOS-III\Source/os_sem.c ****         return ((OS_OBJ_QTY)0);
 188:..\..\..\..\..\..\Software\uCOS-III\Source/os_sem.c ****     }
 189:..\..\..\..\..\..\Software\uCOS-III\Source/os_sem.c **** #endif
 190:..\..\..\..\..\..\Software\uCOS-III\Source/os_sem.c **** 
 191:..\..\..\..\..\..\Software\uCOS-III\Source/os_sem.c **** #if OS_CFG_ARG_CHK_EN > 0u
 192:..\..\..\..\..\..\Software\uCOS-III\Source/os_sem.c ****     if (p_sem == (OS_SEM *)0) {                             /* Validate 'p_sem'                    
 193:..\..\..\..\..\..\Software\uCOS-III\Source/os_sem.c ****        *p_err = OS_ERR_OBJ_PTR_NULL;
 194:..\..\..\..\..\..\Software\uCOS-III\Source/os_sem.c ****         return ((OS_OBJ_QTY)0);
 195:..\..\..\..\..\..\Software\uCOS-III\Source/os_sem.c ****     }
 196:..\..\..\..\..\..\Software\uCOS-III\Source/os_sem.c ****     switch (opt) {                                          /* Validate 'opt'                      
 197:..\..\..\..\..\..\Software\uCOS-III\Source/os_sem.c ****         case OS_OPT_DEL_NO_PEND:
 198:..\..\..\..\..\..\Software\uCOS-III\Source/os_sem.c ****         case OS_OPT_DEL_ALWAYS:
 199:..\..\..\..\..\..\Software\uCOS-III\Source/os_sem.c ****              break;
 200:..\..\..\..\..\..\Software\uCOS-III\Source/os_sem.c **** 
 201:..\..\..\..\..\..\Software\uCOS-III\Source/os_sem.c ****         default:
ARM GAS  C:\Users\EDULU~1.DES\AppData\Local\Temp\ccfRue3n.s 			page 5


 202:..\..\..\..\..\..\Software\uCOS-III\Source/os_sem.c ****             *p_err = OS_ERR_OPT_INVALID;
 203:..\..\..\..\..\..\Software\uCOS-III\Source/os_sem.c ****              return ((OS_OBJ_QTY)0);
 204:..\..\..\..\..\..\Software\uCOS-III\Source/os_sem.c ****     }
 205:..\..\..\..\..\..\Software\uCOS-III\Source/os_sem.c **** #endif
 206:..\..\..\..\..\..\Software\uCOS-III\Source/os_sem.c **** 
 207:..\..\..\..\..\..\Software\uCOS-III\Source/os_sem.c **** #if OS_CFG_OBJ_TYPE_CHK_EN > 0u
 208:..\..\..\..\..\..\Software\uCOS-III\Source/os_sem.c ****     if (p_sem->Type != OS_OBJ_TYPE_SEM) {                   /* Make sure semaphore was created     
 209:..\..\..\..\..\..\Software\uCOS-III\Source/os_sem.c ****        *p_err = OS_ERR_OBJ_TYPE;
 210:..\..\..\..\..\..\Software\uCOS-III\Source/os_sem.c ****         return ((OS_OBJ_QTY)0);
 211:..\..\..\..\..\..\Software\uCOS-III\Source/os_sem.c ****     }
 212:..\..\..\..\..\..\Software\uCOS-III\Source/os_sem.c **** #endif
 213:..\..\..\..\..\..\Software\uCOS-III\Source/os_sem.c **** 
 214:..\..\..\..\..\..\Software\uCOS-III\Source/os_sem.c ****     CPU_CRITICAL_ENTER();
 215:..\..\..\..\..\..\Software\uCOS-III\Source/os_sem.c ****     p_pend_list = &p_sem->PendList;
 216:..\..\..\..\..\..\Software\uCOS-III\Source/os_sem.c ****     cnt         = p_pend_list->NbrEntries;
 217:..\..\..\..\..\..\Software\uCOS-III\Source/os_sem.c ****     nbr_tasks   = cnt;
 218:..\..\..\..\..\..\Software\uCOS-III\Source/os_sem.c ****     switch (opt) {
 219:..\..\..\..\..\..\Software\uCOS-III\Source/os_sem.c ****         case OS_OPT_DEL_NO_PEND:                            /* Delete semaphore only if no task wai
 220:..\..\..\..\..\..\Software\uCOS-III\Source/os_sem.c ****              if (nbr_tasks == (OS_OBJ_QTY)0) {
 221:..\..\..\..\..\..\Software\uCOS-III\Source/os_sem.c **** #if OS_CFG_DBG_EN > 0u
 222:..\..\..\..\..\..\Software\uCOS-III\Source/os_sem.c ****                  OS_SemDbgListRemove(p_sem);
 223:..\..\..\..\..\..\Software\uCOS-III\Source/os_sem.c **** #endif
 224:..\..\..\..\..\..\Software\uCOS-III\Source/os_sem.c ****                  OSSemQty--;
 225:..\..\..\..\..\..\Software\uCOS-III\Source/os_sem.c ****                  OS_SemClr(p_sem);
 226:..\..\..\..\..\..\Software\uCOS-III\Source/os_sem.c ****                  CPU_CRITICAL_EXIT();
 227:..\..\..\..\..\..\Software\uCOS-III\Source/os_sem.c ****                 *p_err = OS_ERR_NONE;
 228:..\..\..\..\..\..\Software\uCOS-III\Source/os_sem.c ****              } else {
 229:..\..\..\..\..\..\Software\uCOS-III\Source/os_sem.c ****                  CPU_CRITICAL_EXIT();
 230:..\..\..\..\..\..\Software\uCOS-III\Source/os_sem.c ****                 *p_err = OS_ERR_TASK_WAITING;
 231:..\..\..\..\..\..\Software\uCOS-III\Source/os_sem.c ****              }
 232:..\..\..\..\..\..\Software\uCOS-III\Source/os_sem.c ****              break;
 233:..\..\..\..\..\..\Software\uCOS-III\Source/os_sem.c **** 
 234:..\..\..\..\..\..\Software\uCOS-III\Source/os_sem.c ****         case OS_OPT_DEL_ALWAYS:                             /* Always delete the semaphore         
 235:..\..\..\..\..\..\Software\uCOS-III\Source/os_sem.c ****              OS_CRITICAL_ENTER_CPU_EXIT();
 236:..\..\..\..\..\..\Software\uCOS-III\Source/os_sem.c ****              ts = OS_TS_GET();                              /* Get local time stamp so all tasks ge
 237:..\..\..\..\..\..\Software\uCOS-III\Source/os_sem.c ****              while (cnt > 0u) {                             /* Remove all tasks on the pend list   
 238:..\..\..\..\..\..\Software\uCOS-III\Source/os_sem.c ****                  p_pend_data = p_pend_list->HeadPtr;
 239:..\..\..\..\..\..\Software\uCOS-III\Source/os_sem.c ****                  p_tcb       = p_pend_data->TCBPtr;
 240:..\..\..\..\..\..\Software\uCOS-III\Source/os_sem.c ****                  OS_PendObjDel((OS_PEND_OBJ *)((void *)p_sem),
 241:..\..\..\..\..\..\Software\uCOS-III\Source/os_sem.c ****                                p_tcb,
 242:..\..\..\..\..\..\Software\uCOS-III\Source/os_sem.c ****                                ts);
 243:..\..\..\..\..\..\Software\uCOS-III\Source/os_sem.c ****                  cnt--;
 244:..\..\..\..\..\..\Software\uCOS-III\Source/os_sem.c ****              }
 245:..\..\..\..\..\..\Software\uCOS-III\Source/os_sem.c **** #if OS_CFG_DBG_EN > 0u
 246:..\..\..\..\..\..\Software\uCOS-III\Source/os_sem.c ****              OS_SemDbgListRemove(p_sem);
 247:..\..\..\..\..\..\Software\uCOS-III\Source/os_sem.c **** #endif
 248:..\..\..\..\..\..\Software\uCOS-III\Source/os_sem.c ****              OSSemQty--;
 249:..\..\..\..\..\..\Software\uCOS-III\Source/os_sem.c ****              OS_SemClr(p_sem);
 250:..\..\..\..\..\..\Software\uCOS-III\Source/os_sem.c ****              OS_CRITICAL_EXIT_NO_SCHED();
 251:..\..\..\..\..\..\Software\uCOS-III\Source/os_sem.c ****              OSSched();                                     /* Find highest priority task ready to 
 252:..\..\..\..\..\..\Software\uCOS-III\Source/os_sem.c ****             *p_err = OS_ERR_NONE;
 253:..\..\..\..\..\..\Software\uCOS-III\Source/os_sem.c ****              break;
 254:..\..\..\..\..\..\Software\uCOS-III\Source/os_sem.c **** 
 255:..\..\..\..\..\..\Software\uCOS-III\Source/os_sem.c ****         default:
 256:..\..\..\..\..\..\Software\uCOS-III\Source/os_sem.c ****              CPU_CRITICAL_EXIT();
 257:..\..\..\..\..\..\Software\uCOS-III\Source/os_sem.c ****             *p_err = OS_ERR_OPT_INVALID;
 258:..\..\..\..\..\..\Software\uCOS-III\Source/os_sem.c ****              break;
ARM GAS  C:\Users\EDULU~1.DES\AppData\Local\Temp\ccfRue3n.s 			page 6


 259:..\..\..\..\..\..\Software\uCOS-III\Source/os_sem.c ****     }
 260:..\..\..\..\..\..\Software\uCOS-III\Source/os_sem.c ****     return ((OS_OBJ_QTY)nbr_tasks);
 261:..\..\..\..\..\..\Software\uCOS-III\Source/os_sem.c **** }
 262:..\..\..\..\..\..\Software\uCOS-III\Source/os_sem.c **** #endif
 263:..\..\..\..\..\..\Software\uCOS-III\Source/os_sem.c **** 
 264:..\..\..\..\..\..\Software\uCOS-III\Source/os_sem.c **** /*$PAGE*/
 265:..\..\..\..\..\..\Software\uCOS-III\Source/os_sem.c **** /*
 266:..\..\..\..\..\..\Software\uCOS-III\Source/os_sem.c **** ***************************************************************************************************
 267:..\..\..\..\..\..\Software\uCOS-III\Source/os_sem.c **** *                                                  PEND ON SEMAPHORE
 268:..\..\..\..\..\..\Software\uCOS-III\Source/os_sem.c **** *
 269:..\..\..\..\..\..\Software\uCOS-III\Source/os_sem.c **** * Description: This function waits for a semaphore.
 270:..\..\..\..\..\..\Software\uCOS-III\Source/os_sem.c **** *
 271:..\..\..\..\..\..\Software\uCOS-III\Source/os_sem.c **** * Arguments  : p_sem         is a pointer to the semaphore
 272:..\..\..\..\..\..\Software\uCOS-III\Source/os_sem.c **** *
 273:..\..\..\..\..\..\Software\uCOS-III\Source/os_sem.c **** *              timeout       is an optional timeout period (in clock ticks).  If non-zero, your tas
 274:..\..\..\..\..\..\Software\uCOS-III\Source/os_sem.c **** *                            resource up to the amount of time (in 'ticks') specified by this argum
 275:..\..\..\..\..\..\Software\uCOS-III\Source/os_sem.c **** *                            0, however, your task will wait forever at the specified semaphore or,
 276:..\..\..\..\..\..\Software\uCOS-III\Source/os_sem.c **** *                            becomes available (or the event occurs).
 277:..\..\..\..\..\..\Software\uCOS-III\Source/os_sem.c **** *
 278:..\..\..\..\..\..\Software\uCOS-III\Source/os_sem.c **** *              opt           determines whether the user wants to block if the semaphore is not ava
 279:..\..\..\..\..\..\Software\uCOS-III\Source/os_sem.c **** *
 280:..\..\..\..\..\..\Software\uCOS-III\Source/os_sem.c **** *                                OS_OPT_PEND_BLOCKING
 281:..\..\..\..\..\..\Software\uCOS-III\Source/os_sem.c **** *                                OS_OPT_PEND_NON_BLOCKING
 282:..\..\..\..\..\..\Software\uCOS-III\Source/os_sem.c **** *
 283:..\..\..\..\..\..\Software\uCOS-III\Source/os_sem.c **** *              p_ts          is a pointer to a variable that will receive the timestamp of when the
 284:..\..\..\..\..\..\Software\uCOS-III\Source/os_sem.c **** *                            or pend aborted or the semaphore deleted.  If you pass a NULL pointer 
 285:..\..\..\..\..\..\Software\uCOS-III\Source/os_sem.c **** *                            then you will not get the timestamp.  In other words, passing a NULL p
 286:..\..\..\..\..\..\Software\uCOS-III\Source/os_sem.c **** *                            and indicates that you don't need the timestamp.
 287:..\..\..\..\..\..\Software\uCOS-III\Source/os_sem.c **** *
 288:..\..\..\..\..\..\Software\uCOS-III\Source/os_sem.c **** *              p_err         is a pointer to a variable that will contain an error code returned by
 289:..\..\..\..\..\..\Software\uCOS-III\Source/os_sem.c **** *
 290:..\..\..\..\..\..\Software\uCOS-III\Source/os_sem.c **** *                                OS_ERR_NONE               The call was successful and your task ow
 291:..\..\..\..\..\..\Software\uCOS-III\Source/os_sem.c **** *                                                          or, the event you are waiting for occurr
 292:..\..\..\..\..\..\Software\uCOS-III\Source/os_sem.c **** *                                OS_ERR_OBJ_DEL            If 'p_sem' was deleted
 293:..\..\..\..\..\..\Software\uCOS-III\Source/os_sem.c **** *                                OS_ERR_OBJ_PTR_NULL       If 'p_sem' is a NULL pointer.
 294:..\..\..\..\..\..\Software\uCOS-III\Source/os_sem.c **** *                                OS_ERR_OBJ_TYPE           If 'p_sem' is not pointing at a semaphor
 295:..\..\..\..\..\..\Software\uCOS-III\Source/os_sem.c **** *                                OS_ERR_OPT_INVALID        If you specified an invalid value for 'o
 296:..\..\..\..\..\..\Software\uCOS-III\Source/os_sem.c **** *                                OS_ERR_PEND_ABORT         If the pend was aborted by another task
 297:..\..\..\..\..\..\Software\uCOS-III\Source/os_sem.c **** *                                OS_ERR_PEND_ISR           If you called this function from an ISR 
 298:..\..\..\..\..\..\Software\uCOS-III\Source/os_sem.c **** *                                                          would lead to a suspension.
 299:..\..\..\..\..\..\Software\uCOS-III\Source/os_sem.c **** *                                OS_ERR_PEND_WOULD_BLOCK   If you specified non-blocking but the se
 300:..\..\..\..\..\..\Software\uCOS-III\Source/os_sem.c **** *                                                          available.
 301:..\..\..\..\..\..\Software\uCOS-III\Source/os_sem.c **** *                                OS_ERR_SCHED_LOCKED       If you called this function when the sch
 302:..\..\..\..\..\..\Software\uCOS-III\Source/os_sem.c **** *                                OS_ERR_STATUS_INVALID     Pend status is invalid
 303:..\..\..\..\..\..\Software\uCOS-III\Source/os_sem.c **** *                                OS_ERR_TIMEOUT            The semaphore was not received within th
 304:..\..\..\..\..\..\Software\uCOS-III\Source/os_sem.c **** *                                                          timeout.
 305:..\..\..\..\..\..\Software\uCOS-III\Source/os_sem.c **** *
 306:..\..\..\..\..\..\Software\uCOS-III\Source/os_sem.c **** *
 307:..\..\..\..\..\..\Software\uCOS-III\Source/os_sem.c **** * Returns    : The current value of the semaphore counter or 0 if not available.
 308:..\..\..\..\..\..\Software\uCOS-III\Source/os_sem.c **** ***************************************************************************************************
 309:..\..\..\..\..\..\Software\uCOS-III\Source/os_sem.c **** */
 310:..\..\..\..\..\..\Software\uCOS-III\Source/os_sem.c **** 
 311:..\..\..\..\..\..\Software\uCOS-III\Source/os_sem.c **** OS_SEM_CTR  OSSemPend (OS_SEM   *p_sem,
 312:..\..\..\..\..\..\Software\uCOS-III\Source/os_sem.c ****                        OS_TICK   timeout,
 313:..\..\..\..\..\..\Software\uCOS-III\Source/os_sem.c ****                        OS_OPT    opt,
 314:..\..\..\..\..\..\Software\uCOS-III\Source/os_sem.c ****                        CPU_TS   *p_ts,
 315:..\..\..\..\..\..\Software\uCOS-III\Source/os_sem.c ****                        OS_ERR   *p_err)
ARM GAS  C:\Users\EDULU~1.DES\AppData\Local\Temp\ccfRue3n.s 			page 7


 316:..\..\..\..\..\..\Software\uCOS-III\Source/os_sem.c **** {
  28              		.loc 1 316 1 view -0
  29              		.cfi_startproc
  30              		@ args = 4, pretend = 0, frame = 40
  31              		@ frame_needed = 0, uses_anonymous_args = 0
  32              		.loc 1 316 1 is_stmt 0 view .LVU1
  33 0000 F0B5     		push	{r4, r5, r6, r7, lr}
  34              		.cfi_def_cfa_offset 20
  35              		.cfi_offset 4, -20
  36              		.cfi_offset 5, -16
  37              		.cfi_offset 6, -12
  38              		.cfi_offset 7, -8
  39              		.cfi_offset 14, -4
  40 0002 8BB0     		sub	sp, sp, #44
  41              		.cfi_def_cfa_offset 64
  42 0004 0700     		movs	r7, r0
  43 0006 0091     		str	r1, [sp]
  44 0008 1500     		movs	r5, r2
  45 000a 1E00     		movs	r6, r3
 317:..\..\..\..\..\..\Software\uCOS-III\Source/os_sem.c ****     OS_SEM_CTR    ctr;
  46              		.loc 1 317 5 is_stmt 1 view .LVU2
 318:..\..\..\..\..\..\Software\uCOS-III\Source/os_sem.c ****     OS_PEND_DATA  pend_data;
  47              		.loc 1 318 5 view .LVU3
 319:..\..\..\..\..\..\Software\uCOS-III\Source/os_sem.c ****     CPU_SR_ALLOC();
  48              		.loc 1 319 5 view .LVU4
  49              	.LVL1:
 320:..\..\..\..\..\..\Software\uCOS-III\Source/os_sem.c **** 
 321:..\..\..\..\..\..\Software\uCOS-III\Source/os_sem.c **** 
 322:..\..\..\..\..\..\Software\uCOS-III\Source/os_sem.c **** 
 323:..\..\..\..\..\..\Software\uCOS-III\Source/os_sem.c **** #ifdef OS_SAFETY_CRITICAL
 324:..\..\..\..\..\..\Software\uCOS-III\Source/os_sem.c ****     if (p_err == (OS_ERR *)0) {
 325:..\..\..\..\..\..\Software\uCOS-III\Source/os_sem.c ****         OS_SAFETY_CRITICAL_EXCEPTION();
 326:..\..\..\..\..\..\Software\uCOS-III\Source/os_sem.c ****         return ((OS_SEM_CTR)0);
 327:..\..\..\..\..\..\Software\uCOS-III\Source/os_sem.c ****     }
 328:..\..\..\..\..\..\Software\uCOS-III\Source/os_sem.c **** #endif
 329:..\..\..\..\..\..\Software\uCOS-III\Source/os_sem.c **** 
 330:..\..\..\..\..\..\Software\uCOS-III\Source/os_sem.c **** #if OS_CFG_CALLED_FROM_ISR_CHK_EN > 0u
 331:..\..\..\..\..\..\Software\uCOS-III\Source/os_sem.c ****     if (OSIntNestingCtr > (OS_NESTING_CTR)0) {              /* Not allowed to call from an ISR     
  50              		.loc 1 331 5 view .LVU5
  51              		.loc 1 331 25 is_stmt 0 view .LVU6
  52 000c 4F4B     		ldr	r3, .L27
  53              	.LVL2:
  54              		.loc 1 331 25 view .LVU7
  55 000e 1B78     		ldrb	r3, [r3]
  56              		.loc 1 331 8 view .LVU8
  57 0010 002B     		cmp	r3, #0
  58 0012 0CD1     		bne	.L22
 332:..\..\..\..\..\..\Software\uCOS-III\Source/os_sem.c ****        *p_err = OS_ERR_PEND_ISR;
 333:..\..\..\..\..\..\Software\uCOS-III\Source/os_sem.c ****         return ((OS_SEM_CTR)0);
 334:..\..\..\..\..\..\Software\uCOS-III\Source/os_sem.c ****     }
 335:..\..\..\..\..\..\Software\uCOS-III\Source/os_sem.c **** #endif
 336:..\..\..\..\..\..\Software\uCOS-III\Source/os_sem.c **** 
 337:..\..\..\..\..\..\Software\uCOS-III\Source/os_sem.c **** #if OS_CFG_ARG_CHK_EN > 0u
 338:..\..\..\..\..\..\Software\uCOS-III\Source/os_sem.c ****     if (p_sem == (OS_SEM *)0) {                             /* Validate 'p_sem'                    
  59              		.loc 1 338 5 is_stmt 1 view .LVU9
  60              		.loc 1 338 8 is_stmt 0 view .LVU10
  61 0014 0028     		cmp	r0, #0
ARM GAS  C:\Users\EDULU~1.DES\AppData\Local\Temp\ccfRue3n.s 			page 8


  62 0016 11D0     		beq	.L23
 339:..\..\..\..\..\..\Software\uCOS-III\Source/os_sem.c ****        *p_err = OS_ERR_OBJ_PTR_NULL;
 340:..\..\..\..\..\..\Software\uCOS-III\Source/os_sem.c ****         return ((OS_SEM_CTR)0);
 341:..\..\..\..\..\..\Software\uCOS-III\Source/os_sem.c ****     }
 342:..\..\..\..\..\..\Software\uCOS-III\Source/os_sem.c ****     switch (opt) {                                          /* Validate 'opt'                      
  63              		.loc 1 342 5 is_stmt 1 view .LVU11
  64 0018 002A     		cmp	r2, #0
  65 001a 14D0     		beq	.L5
  66 001c 8023     		movs	r3, #128
  67 001e 1B02     		lsls	r3, r3, #8
  68 0020 9A42     		cmp	r2, r3
  69 0022 10D0     		beq	.L5
 343:..\..\..\..\..\..\Software\uCOS-III\Source/os_sem.c ****         case OS_OPT_PEND_BLOCKING:
 344:..\..\..\..\..\..\Software\uCOS-III\Source/os_sem.c ****         case OS_OPT_PEND_NON_BLOCKING:
 345:..\..\..\..\..\..\Software\uCOS-III\Source/os_sem.c ****              break;
 346:..\..\..\..\..\..\Software\uCOS-III\Source/os_sem.c **** 
 347:..\..\..\..\..\..\Software\uCOS-III\Source/os_sem.c ****         default:
 348:..\..\..\..\..\..\Software\uCOS-III\Source/os_sem.c ****             *p_err = OS_ERR_OPT_INVALID;
  70              		.loc 1 348 13 view .LVU12
  71              		.loc 1 348 20 is_stmt 0 view .LVU13
  72 0024 4A4B     		ldr	r3, .L27+4
  73 0026 109A     		ldr	r2, [sp, #64]
  74              	.LVL3:
  75              		.loc 1 348 20 view .LVU14
  76 0028 1380     		strh	r3, [r2]
 349:..\..\..\..\..\..\Software\uCOS-III\Source/os_sem.c ****              return ((OS_SEM_CTR)0);
  77              		.loc 1 349 14 is_stmt 1 view .LVU15
  78              		.loc 1 349 21 is_stmt 0 view .LVU16
  79 002a 0024     		movs	r4, #0
  80 002c 03E0     		b	.L1
  81              	.LVL4:
  82              	.L22:
 332:..\..\..\..\..\..\Software\uCOS-III\Source/os_sem.c ****         return ((OS_SEM_CTR)0);
  83              		.loc 1 332 8 is_stmt 1 view .LVU17
 332:..\..\..\..\..\..\Software\uCOS-III\Source/os_sem.c ****         return ((OS_SEM_CTR)0);
  84              		.loc 1 332 15 is_stmt 0 view .LVU18
  85 002e 494B     		ldr	r3, .L27+8
  86 0030 109A     		ldr	r2, [sp, #64]
  87              	.LVL5:
 332:..\..\..\..\..\..\Software\uCOS-III\Source/os_sem.c ****         return ((OS_SEM_CTR)0);
  88              		.loc 1 332 15 view .LVU19
  89 0032 1380     		strh	r3, [r2]
 333:..\..\..\..\..\..\Software\uCOS-III\Source/os_sem.c ****     }
  90              		.loc 1 333 9 is_stmt 1 view .LVU20
 333:..\..\..\..\..\..\Software\uCOS-III\Source/os_sem.c ****     }
  91              		.loc 1 333 16 is_stmt 0 view .LVU21
  92 0034 0024     		movs	r4, #0
  93              	.LVL6:
  94              	.L1:
 350:..\..\..\..\..\..\Software\uCOS-III\Source/os_sem.c ****     }
 351:..\..\..\..\..\..\Software\uCOS-III\Source/os_sem.c **** #endif
 352:..\..\..\..\..\..\Software\uCOS-III\Source/os_sem.c **** 
 353:..\..\..\..\..\..\Software\uCOS-III\Source/os_sem.c **** #if OS_CFG_OBJ_TYPE_CHK_EN > 0u
 354:..\..\..\..\..\..\Software\uCOS-III\Source/os_sem.c ****     if (p_sem->Type != OS_OBJ_TYPE_SEM) {                   /* Make sure semaphore was created     
 355:..\..\..\..\..\..\Software\uCOS-III\Source/os_sem.c ****        *p_err = OS_ERR_OBJ_TYPE;
 356:..\..\..\..\..\..\Software\uCOS-III\Source/os_sem.c ****         return ((OS_SEM_CTR)0);
 357:..\..\..\..\..\..\Software\uCOS-III\Source/os_sem.c ****     }
ARM GAS  C:\Users\EDULU~1.DES\AppData\Local\Temp\ccfRue3n.s 			page 9


 358:..\..\..\..\..\..\Software\uCOS-III\Source/os_sem.c **** #endif
 359:..\..\..\..\..\..\Software\uCOS-III\Source/os_sem.c **** 
 360:..\..\..\..\..\..\Software\uCOS-III\Source/os_sem.c ****     if (p_ts != (CPU_TS *)0) {
 361:..\..\..\..\..\..\Software\uCOS-III\Source/os_sem.c ****        *p_ts  = (CPU_TS)0;                                  /* Initialize the returned timestamp   
 362:..\..\..\..\..\..\Software\uCOS-III\Source/os_sem.c ****     }
 363:..\..\..\..\..\..\Software\uCOS-III\Source/os_sem.c ****     CPU_CRITICAL_ENTER();
 364:..\..\..\..\..\..\Software\uCOS-III\Source/os_sem.c ****     if (p_sem->Ctr > (OS_SEM_CTR)0) {                       /* Resource available?                 
 365:..\..\..\..\..\..\Software\uCOS-III\Source/os_sem.c ****         p_sem->Ctr--;                                       /* Yes, caller may proceed             
 366:..\..\..\..\..\..\Software\uCOS-III\Source/os_sem.c ****         if (p_ts != (CPU_TS *)0) {
 367:..\..\..\..\..\..\Software\uCOS-III\Source/os_sem.c ****            *p_ts  = p_sem->TS;                              /*      get timestamp of last post     
 368:..\..\..\..\..\..\Software\uCOS-III\Source/os_sem.c ****         }
 369:..\..\..\..\..\..\Software\uCOS-III\Source/os_sem.c ****         ctr   = p_sem->Ctr;
 370:..\..\..\..\..\..\Software\uCOS-III\Source/os_sem.c ****         CPU_CRITICAL_EXIT();
 371:..\..\..\..\..\..\Software\uCOS-III\Source/os_sem.c ****        *p_err = OS_ERR_NONE;
 372:..\..\..\..\..\..\Software\uCOS-III\Source/os_sem.c ****         return (ctr);
 373:..\..\..\..\..\..\Software\uCOS-III\Source/os_sem.c ****     }
 374:..\..\..\..\..\..\Software\uCOS-III\Source/os_sem.c **** 
 375:..\..\..\..\..\..\Software\uCOS-III\Source/os_sem.c ****     if ((opt & OS_OPT_PEND_NON_BLOCKING) != (OS_OPT)0) {    /* Caller wants to block if not availab
 376:..\..\..\..\..\..\Software\uCOS-III\Source/os_sem.c ****         ctr   = p_sem->Ctr;                                 /* No                                  
 377:..\..\..\..\..\..\Software\uCOS-III\Source/os_sem.c ****         CPU_CRITICAL_EXIT();
 378:..\..\..\..\..\..\Software\uCOS-III\Source/os_sem.c ****        *p_err = OS_ERR_PEND_WOULD_BLOCK;
 379:..\..\..\..\..\..\Software\uCOS-III\Source/os_sem.c ****         return (ctr);
 380:..\..\..\..\..\..\Software\uCOS-III\Source/os_sem.c ****     } else {                                                /* Yes                                 
 381:..\..\..\..\..\..\Software\uCOS-III\Source/os_sem.c ****         if (OSSchedLockNestingCtr > (OS_NESTING_CTR)0) {    /* Can't pend when the scheduler is loc
 382:..\..\..\..\..\..\Software\uCOS-III\Source/os_sem.c ****             CPU_CRITICAL_EXIT();
 383:..\..\..\..\..\..\Software\uCOS-III\Source/os_sem.c ****            *p_err = OS_ERR_SCHED_LOCKED;
 384:..\..\..\..\..\..\Software\uCOS-III\Source/os_sem.c ****             return ((OS_SEM_CTR)0);
 385:..\..\..\..\..\..\Software\uCOS-III\Source/os_sem.c ****         }
 386:..\..\..\..\..\..\Software\uCOS-III\Source/os_sem.c ****     }
 387:..\..\..\..\..\..\Software\uCOS-III\Source/os_sem.c ****                                                             /* Lock the scheduler/re-enable interru
 388:..\..\..\..\..\..\Software\uCOS-III\Source/os_sem.c ****     OS_CRITICAL_ENTER_CPU_EXIT();
 389:..\..\..\..\..\..\Software\uCOS-III\Source/os_sem.c ****     OS_Pend(&pend_data,                                     /* Block task pending on Semaphore     
 390:..\..\..\..\..\..\Software\uCOS-III\Source/os_sem.c ****             (OS_PEND_OBJ *)((void *)p_sem),
 391:..\..\..\..\..\..\Software\uCOS-III\Source/os_sem.c ****             OS_TASK_PEND_ON_SEM,
 392:..\..\..\..\..\..\Software\uCOS-III\Source/os_sem.c ****             timeout);
 393:..\..\..\..\..\..\Software\uCOS-III\Source/os_sem.c **** 
 394:..\..\..\..\..\..\Software\uCOS-III\Source/os_sem.c ****     OS_CRITICAL_EXIT_NO_SCHED();
 395:..\..\..\..\..\..\Software\uCOS-III\Source/os_sem.c **** 
 396:..\..\..\..\..\..\Software\uCOS-III\Source/os_sem.c ****     OSSched();                                              /* Find the next highest priority task 
 397:..\..\..\..\..\..\Software\uCOS-III\Source/os_sem.c **** 
 398:..\..\..\..\..\..\Software\uCOS-III\Source/os_sem.c ****     CPU_CRITICAL_ENTER();
 399:..\..\..\..\..\..\Software\uCOS-III\Source/os_sem.c ****     switch (OSTCBCurPtr->PendStatus) {
 400:..\..\..\..\..\..\Software\uCOS-III\Source/os_sem.c ****         case OS_STATUS_PEND_OK:                             /* We got the semaphore                
 401:..\..\..\..\..\..\Software\uCOS-III\Source/os_sem.c ****              if (p_ts != (CPU_TS *)0) {
 402:..\..\..\..\..\..\Software\uCOS-III\Source/os_sem.c ****                 *p_ts  =  OSTCBCurPtr->TS;
 403:..\..\..\..\..\..\Software\uCOS-III\Source/os_sem.c ****              }
 404:..\..\..\..\..\..\Software\uCOS-III\Source/os_sem.c ****             *p_err = OS_ERR_NONE;
 405:..\..\..\..\..\..\Software\uCOS-III\Source/os_sem.c ****              break;
 406:..\..\..\..\..\..\Software\uCOS-III\Source/os_sem.c **** 
 407:..\..\..\..\..\..\Software\uCOS-III\Source/os_sem.c ****         case OS_STATUS_PEND_ABORT:                          /* Indicate that we aborted            
 408:..\..\..\..\..\..\Software\uCOS-III\Source/os_sem.c ****              if (p_ts != (CPU_TS *)0) {
 409:..\..\..\..\..\..\Software\uCOS-III\Source/os_sem.c ****                 *p_ts  =  OSTCBCurPtr->TS;
 410:..\..\..\..\..\..\Software\uCOS-III\Source/os_sem.c ****              }
 411:..\..\..\..\..\..\Software\uCOS-III\Source/os_sem.c ****             *p_err = OS_ERR_PEND_ABORT;
 412:..\..\..\..\..\..\Software\uCOS-III\Source/os_sem.c ****              break;
 413:..\..\..\..\..\..\Software\uCOS-III\Source/os_sem.c **** 
 414:..\..\..\..\..\..\Software\uCOS-III\Source/os_sem.c ****         case OS_STATUS_PEND_TIMEOUT:                        /* Indicate that we didn't get semaphor
ARM GAS  C:\Users\EDULU~1.DES\AppData\Local\Temp\ccfRue3n.s 			page 10


 415:..\..\..\..\..\..\Software\uCOS-III\Source/os_sem.c ****              if (p_ts != (CPU_TS *)0) {
 416:..\..\..\..\..\..\Software\uCOS-III\Source/os_sem.c ****                 *p_ts  = (CPU_TS  )0;
 417:..\..\..\..\..\..\Software\uCOS-III\Source/os_sem.c ****              }
 418:..\..\..\..\..\..\Software\uCOS-III\Source/os_sem.c ****             *p_err = OS_ERR_TIMEOUT;
 419:..\..\..\..\..\..\Software\uCOS-III\Source/os_sem.c ****              break;
 420:..\..\..\..\..\..\Software\uCOS-III\Source/os_sem.c **** 
 421:..\..\..\..\..\..\Software\uCOS-III\Source/os_sem.c ****         case OS_STATUS_PEND_DEL:                            /* Indicate that object pended on has b
 422:..\..\..\..\..\..\Software\uCOS-III\Source/os_sem.c ****              if (p_ts != (CPU_TS *)0) {
 423:..\..\..\..\..\..\Software\uCOS-III\Source/os_sem.c ****                 *p_ts  =  OSTCBCurPtr->TS;
 424:..\..\..\..\..\..\Software\uCOS-III\Source/os_sem.c ****              }
 425:..\..\..\..\..\..\Software\uCOS-III\Source/os_sem.c ****             *p_err = OS_ERR_OBJ_DEL;
 426:..\..\..\..\..\..\Software\uCOS-III\Source/os_sem.c ****              break;
 427:..\..\..\..\..\..\Software\uCOS-III\Source/os_sem.c **** 
 428:..\..\..\..\..\..\Software\uCOS-III\Source/os_sem.c ****         default:
 429:..\..\..\..\..\..\Software\uCOS-III\Source/os_sem.c ****             *p_err = OS_ERR_STATUS_INVALID;
 430:..\..\..\..\..\..\Software\uCOS-III\Source/os_sem.c ****              CPU_CRITICAL_EXIT();
 431:..\..\..\..\..\..\Software\uCOS-III\Source/os_sem.c ****              return ((OS_SEM_CTR)0);
 432:..\..\..\..\..\..\Software\uCOS-III\Source/os_sem.c ****     }
 433:..\..\..\..\..\..\Software\uCOS-III\Source/os_sem.c ****     ctr = p_sem->Ctr;
 434:..\..\..\..\..\..\Software\uCOS-III\Source/os_sem.c ****     CPU_CRITICAL_EXIT();
 435:..\..\..\..\..\..\Software\uCOS-III\Source/os_sem.c ****     return (ctr);
 436:..\..\..\..\..\..\Software\uCOS-III\Source/os_sem.c **** }
  95              		.loc 1 436 1 view .LVU22
  96 0036 2000     		movs	r0, r4
  97 0038 0BB0     		add	sp, sp, #44
  98              	.LVL7:
  99              		.loc 1 436 1 view .LVU23
 100              		@ sp needed
 101              	.LVL8:
 102              	.LVL9:
 103              		.loc 1 436 1 view .LVU24
 104 003a F0BD     		pop	{r4, r5, r6, r7, pc}
 105              	.LVL10:
 106              	.L23:
 339:..\..\..\..\..\..\Software\uCOS-III\Source/os_sem.c ****         return ((OS_SEM_CTR)0);
 107              		.loc 1 339 8 is_stmt 1 view .LVU25
 339:..\..\..\..\..\..\Software\uCOS-III\Source/os_sem.c ****         return ((OS_SEM_CTR)0);
 108              		.loc 1 339 15 is_stmt 0 view .LVU26
 109 003c 464B     		ldr	r3, .L27+12
 110 003e 109A     		ldr	r2, [sp, #64]
 111              	.LVL11:
 339:..\..\..\..\..\..\Software\uCOS-III\Source/os_sem.c ****         return ((OS_SEM_CTR)0);
 112              		.loc 1 339 15 view .LVU27
 113 0040 1380     		strh	r3, [r2]
 340:..\..\..\..\..\..\Software\uCOS-III\Source/os_sem.c ****     }
 114              		.loc 1 340 9 is_stmt 1 view .LVU28
 340:..\..\..\..\..\..\Software\uCOS-III\Source/os_sem.c ****     }
 115              		.loc 1 340 16 is_stmt 0 view .LVU29
 116 0042 0024     		movs	r4, #0
 117 0044 F7E7     		b	.L1
 118              	.LVL12:
 119              	.L5:
 345:..\..\..\..\..\..\Software\uCOS-III\Source/os_sem.c **** 
 120              		.loc 1 345 14 is_stmt 1 view .LVU30
 360:..\..\..\..\..\..\Software\uCOS-III\Source/os_sem.c ****        *p_ts  = (CPU_TS)0;                                  /* Initialize the returned timestamp   
 121              		.loc 1 360 5 view .LVU31
 360:..\..\..\..\..\..\Software\uCOS-III\Source/os_sem.c ****        *p_ts  = (CPU_TS)0;                                  /* Initialize the returned timestamp   
ARM GAS  C:\Users\EDULU~1.DES\AppData\Local\Temp\ccfRue3n.s 			page 11


 122              		.loc 1 360 8 is_stmt 0 view .LVU32
 123 0046 002E     		cmp	r6, #0
 124 0048 01D0     		beq	.L6
 361:..\..\..\..\..\..\Software\uCOS-III\Source/os_sem.c ****     }
 125              		.loc 1 361 8 is_stmt 1 view .LVU33
 361:..\..\..\..\..\..\Software\uCOS-III\Source/os_sem.c ****     }
 126              		.loc 1 361 15 is_stmt 0 view .LVU34
 127 004a 0023     		movs	r3, #0
 128 004c 3360     		str	r3, [r6]
 129              	.L6:
 363:..\..\..\..\..\..\Software\uCOS-III\Source/os_sem.c ****     if (p_sem->Ctr > (OS_SEM_CTR)0) {                       /* Resource available?                 
 130              		.loc 1 363 5 is_stmt 1 view .LVU35
 363:..\..\..\..\..\..\Software\uCOS-III\Source/os_sem.c ****     if (p_sem->Ctr > (OS_SEM_CTR)0) {                       /* Resource available?                 
 131              		.loc 1 363 5 view .LVU36
 363:..\..\..\..\..\..\Software\uCOS-III\Source/os_sem.c ****     if (p_sem->Ctr > (OS_SEM_CTR)0) {                       /* Resource available?                 
 132              		.loc 1 363 5 view .LVU37
 133 004e FFF7FEFF 		bl	CPU_SR_Save
 134              	.LVL13:
 363:..\..\..\..\..\..\Software\uCOS-III\Source/os_sem.c ****     if (p_sem->Ctr > (OS_SEM_CTR)0) {                       /* Resource available?                 
 135              		.loc 1 363 5 is_stmt 0 view .LVU38
 136 0052 0190     		str	r0, [sp, #4]
 137              	.LVL14:
 363:..\..\..\..\..\..\Software\uCOS-III\Source/os_sem.c ****     if (p_sem->Ctr > (OS_SEM_CTR)0) {                       /* Resource available?                 
 138              		.loc 1 363 5 is_stmt 1 view .LVU39
 139 0054 FFF7FEFF 		bl	CPU_IntDisMeasStart
 140              	.LVL15:
 364:..\..\..\..\..\..\Software\uCOS-III\Source/os_sem.c ****         p_sem->Ctr--;                                       /* Yes, caller may proceed             
 141              		.loc 1 364 5 view .LVU40
 364:..\..\..\..\..\..\Software\uCOS-III\Source/os_sem.c ****         p_sem->Ctr--;                                       /* Yes, caller may proceed             
 142              		.loc 1 364 14 is_stmt 0 view .LVU41
 143 0058 3C6A     		ldr	r4, [r7, #32]
 364:..\..\..\..\..\..\Software\uCOS-III\Source/os_sem.c ****         p_sem->Ctr--;                                       /* Yes, caller may proceed             
 144              		.loc 1 364 8 view .LVU42
 145 005a 002C     		cmp	r4, #0
 146 005c 2DD1     		bne	.L24
 375:..\..\..\..\..\..\Software\uCOS-III\Source/os_sem.c ****         ctr   = p_sem->Ctr;                                 /* No                                  
 147              		.loc 1 375 5 is_stmt 1 view .LVU43
 375:..\..\..\..\..\..\Software\uCOS-III\Source/os_sem.c ****         ctr   = p_sem->Ctr;                                 /* No                                  
 148              		.loc 1 375 42 is_stmt 0 view .LVU44
 149 005e 2DB2     		sxth	r5, r5
 375:..\..\..\..\..\..\Software\uCOS-III\Source/os_sem.c ****         ctr   = p_sem->Ctr;                                 /* No                                  
 150              		.loc 1 375 8 view .LVU45
 151 0060 002D     		cmp	r5, #0
 152 0062 3ADB     		blt	.L25
 381:..\..\..\..\..\..\Software\uCOS-III\Source/os_sem.c ****             CPU_CRITICAL_EXIT();
 153              		.loc 1 381 9 is_stmt 1 view .LVU46
 381:..\..\..\..\..\..\Software\uCOS-III\Source/os_sem.c ****             CPU_CRITICAL_EXIT();
 154              		.loc 1 381 35 is_stmt 0 view .LVU47
 155 0064 3D4B     		ldr	r3, .L27+16
 156 0066 1B78     		ldrb	r3, [r3]
 381:..\..\..\..\..\..\Software\uCOS-III\Source/os_sem.c ****             CPU_CRITICAL_EXIT();
 157              		.loc 1 381 12 view .LVU48
 158 0068 002B     		cmp	r3, #0
 159 006a 3FD1     		bne	.L26
 388:..\..\..\..\..\..\Software\uCOS-III\Source/os_sem.c ****     OS_Pend(&pend_data,                                     /* Block task pending on Semaphore     
 160              		.loc 1 388 33 is_stmt 1 view .LVU49
 389:..\..\..\..\..\..\Software\uCOS-III\Source/os_sem.c ****             (OS_PEND_OBJ *)((void *)p_sem),
ARM GAS  C:\Users\EDULU~1.DES\AppData\Local\Temp\ccfRue3n.s 			page 12


 161              		.loc 1 389 5 view .LVU50
 162 006c 009B     		ldr	r3, [sp]
 163 006e 0622     		movs	r2, #6
 164 0070 3900     		movs	r1, r7
 165 0072 02A8     		add	r0, sp, #8
 166 0074 FFF7FEFF 		bl	OS_Pend
 167              	.LVL16:
 394:..\..\..\..\..\..\Software\uCOS-III\Source/os_sem.c **** 
 168              		.loc 1 394 5 view .LVU51
 394:..\..\..\..\..\..\Software\uCOS-III\Source/os_sem.c **** 
 169              		.loc 1 394 5 view .LVU52
 170 0078 FFF7FEFF 		bl	CPU_IntDisMeasStop
 171              	.LVL17:
 394:..\..\..\..\..\..\Software\uCOS-III\Source/os_sem.c **** 
 172              		.loc 1 394 5 view .LVU53
 394:..\..\..\..\..\..\Software\uCOS-III\Source/os_sem.c **** 
 173              		.loc 1 394 5 view .LVU54
 174 007c 0198     		ldr	r0, [sp, #4]
 175 007e FFF7FEFF 		bl	CPU_SR_Restore
 176              	.LVL18:
 396:..\..\..\..\..\..\Software\uCOS-III\Source/os_sem.c **** 
 177              		.loc 1 396 5 view .LVU55
 178 0082 FFF7FEFF 		bl	OSSched
 179              	.LVL19:
 398:..\..\..\..\..\..\Software\uCOS-III\Source/os_sem.c ****     switch (OSTCBCurPtr->PendStatus) {
 180              		.loc 1 398 5 view .LVU56
 398:..\..\..\..\..\..\Software\uCOS-III\Source/os_sem.c ****     switch (OSTCBCurPtr->PendStatus) {
 181              		.loc 1 398 5 view .LVU57
 398:..\..\..\..\..\..\Software\uCOS-III\Source/os_sem.c ****     switch (OSTCBCurPtr->PendStatus) {
 182              		.loc 1 398 5 view .LVU58
 183 0086 FFF7FEFF 		bl	CPU_SR_Save
 184              	.LVL20:
 185 008a 0500     		movs	r5, r0
 186              	.LVL21:
 398:..\..\..\..\..\..\Software\uCOS-III\Source/os_sem.c ****     switch (OSTCBCurPtr->PendStatus) {
 187              		.loc 1 398 5 view .LVU59
 188 008c FFF7FEFF 		bl	CPU_IntDisMeasStart
 189              	.LVL22:
 399:..\..\..\..\..\..\Software\uCOS-III\Source/os_sem.c ****         case OS_STATUS_PEND_OK:                             /* We got the semaphore                
 190              		.loc 1 399 5 view .LVU60
 399:..\..\..\..\..\..\Software\uCOS-III\Source/os_sem.c ****         case OS_STATUS_PEND_OK:                             /* We got the semaphore                
 191              		.loc 1 399 24 is_stmt 0 view .LVU61
 192 0090 334B     		ldr	r3, .L27+20
 193 0092 1A68     		ldr	r2, [r3]
 194 0094 3523     		movs	r3, #53
 195 0096 D35C     		ldrb	r3, [r2, r3]
 399:..\..\..\..\..\..\Software\uCOS-III\Source/os_sem.c ****         case OS_STATUS_PEND_OK:                             /* We got the semaphore                
 196              		.loc 1 399 5 view .LVU62
 197 0098 012B     		cmp	r3, #1
 198 009a 3ED0     		beq	.L11
 199 009c 002B     		cmp	r3, #0
 200 009e 2ED0     		beq	.L12
 201 00a0 022B     		cmp	r3, #2
 202 00a2 4AD0     		beq	.L13
 203 00a4 032B     		cmp	r3, #3
 204 00a6 40D0     		beq	.L14
 429:..\..\..\..\..\..\Software\uCOS-III\Source/os_sem.c ****              CPU_CRITICAL_EXIT();
ARM GAS  C:\Users\EDULU~1.DES\AppData\Local\Temp\ccfRue3n.s 			page 13


 205              		.loc 1 429 13 is_stmt 1 view .LVU63
 429:..\..\..\..\..\..\Software\uCOS-III\Source/os_sem.c ****              CPU_CRITICAL_EXIT();
 206              		.loc 1 429 20 is_stmt 0 view .LVU64
 207 00a8 2E4B     		ldr	r3, .L27+24
 208 00aa 109A     		ldr	r2, [sp, #64]
 209 00ac 1380     		strh	r3, [r2]
 430:..\..\..\..\..\..\Software\uCOS-III\Source/os_sem.c ****              return ((OS_SEM_CTR)0);
 210              		.loc 1 430 14 is_stmt 1 view .LVU65
 430:..\..\..\..\..\..\Software\uCOS-III\Source/os_sem.c ****              return ((OS_SEM_CTR)0);
 211              		.loc 1 430 14 view .LVU66
 212 00ae FFF7FEFF 		bl	CPU_IntDisMeasStop
 213              	.LVL23:
 430:..\..\..\..\..\..\Software\uCOS-III\Source/os_sem.c ****              return ((OS_SEM_CTR)0);
 214              		.loc 1 430 14 view .LVU67
 430:..\..\..\..\..\..\Software\uCOS-III\Source/os_sem.c ****              return ((OS_SEM_CTR)0);
 215              		.loc 1 430 14 view .LVU68
 216 00b2 2800     		movs	r0, r5
 217 00b4 FFF7FEFF 		bl	CPU_SR_Restore
 218              	.LVL24:
 431:..\..\..\..\..\..\Software\uCOS-III\Source/os_sem.c ****     }
 219              		.loc 1 431 14 view .LVU69
 431:..\..\..\..\..\..\Software\uCOS-III\Source/os_sem.c ****     }
 220              		.loc 1 431 21 is_stmt 0 view .LVU70
 221 00b8 BDE7     		b	.L1
 222              	.LVL25:
 223              	.L24:
 365:..\..\..\..\..\..\Software\uCOS-III\Source/os_sem.c ****         if (p_ts != (CPU_TS *)0) {
 224              		.loc 1 365 9 is_stmt 1 view .LVU71
 365:..\..\..\..\..\..\Software\uCOS-III\Source/os_sem.c ****         if (p_ts != (CPU_TS *)0) {
 225              		.loc 1 365 19 is_stmt 0 view .LVU72
 226 00ba 013C     		subs	r4, r4, #1
 227 00bc 3C62     		str	r4, [r7, #32]
 366:..\..\..\..\..\..\Software\uCOS-III\Source/os_sem.c ****            *p_ts  = p_sem->TS;                              /*      get timestamp of last post     
 228              		.loc 1 366 9 is_stmt 1 view .LVU73
 366:..\..\..\..\..\..\Software\uCOS-III\Source/os_sem.c ****            *p_ts  = p_sem->TS;                              /*      get timestamp of last post     
 229              		.loc 1 366 12 is_stmt 0 view .LVU74
 230 00be 002E     		cmp	r6, #0
 231 00c0 01D0     		beq	.L8
 367:..\..\..\..\..\..\Software\uCOS-III\Source/os_sem.c ****         }
 232              		.loc 1 367 12 is_stmt 1 view .LVU75
 367:..\..\..\..\..\..\Software\uCOS-III\Source/os_sem.c ****         }
 233              		.loc 1 367 19 is_stmt 0 view .LVU76
 234 00c2 7B6A     		ldr	r3, [r7, #36]
 235 00c4 3360     		str	r3, [r6]
 236              	.L8:
 369:..\..\..\..\..\..\Software\uCOS-III\Source/os_sem.c ****         CPU_CRITICAL_EXIT();
 237              		.loc 1 369 9 is_stmt 1 view .LVU77
 369:..\..\..\..\..\..\Software\uCOS-III\Source/os_sem.c ****         CPU_CRITICAL_EXIT();
 238              		.loc 1 369 15 is_stmt 0 view .LVU78
 239 00c6 3C6A     		ldr	r4, [r7, #32]
 240              	.LVL26:
 370:..\..\..\..\..\..\Software\uCOS-III\Source/os_sem.c ****        *p_err = OS_ERR_NONE;
 241              		.loc 1 370 9 is_stmt 1 view .LVU79
 370:..\..\..\..\..\..\Software\uCOS-III\Source/os_sem.c ****        *p_err = OS_ERR_NONE;
 242              		.loc 1 370 9 view .LVU80
 243 00c8 FFF7FEFF 		bl	CPU_IntDisMeasStop
 244              	.LVL27:
ARM GAS  C:\Users\EDULU~1.DES\AppData\Local\Temp\ccfRue3n.s 			page 14


 370:..\..\..\..\..\..\Software\uCOS-III\Source/os_sem.c ****        *p_err = OS_ERR_NONE;
 245              		.loc 1 370 9 view .LVU81
 370:..\..\..\..\..\..\Software\uCOS-III\Source/os_sem.c ****        *p_err = OS_ERR_NONE;
 246              		.loc 1 370 9 view .LVU82
 247 00cc 0198     		ldr	r0, [sp, #4]
 248 00ce FFF7FEFF 		bl	CPU_SR_Restore
 249              	.LVL28:
 371:..\..\..\..\..\..\Software\uCOS-III\Source/os_sem.c ****         return (ctr);
 250              		.loc 1 371 8 view .LVU83
 371:..\..\..\..\..\..\Software\uCOS-III\Source/os_sem.c ****         return (ctr);
 251              		.loc 1 371 15 is_stmt 0 view .LVU84
 252 00d2 0023     		movs	r3, #0
 253 00d4 109A     		ldr	r2, [sp, #64]
 254 00d6 1380     		strh	r3, [r2]
 372:..\..\..\..\..\..\Software\uCOS-III\Source/os_sem.c ****     }
 255              		.loc 1 372 9 is_stmt 1 view .LVU85
 372:..\..\..\..\..\..\Software\uCOS-III\Source/os_sem.c ****     }
 256              		.loc 1 372 16 is_stmt 0 view .LVU86
 257 00d8 ADE7     		b	.L1
 258              	.LVL29:
 259              	.L25:
 376:..\..\..\..\..\..\Software\uCOS-III\Source/os_sem.c ****         CPU_CRITICAL_EXIT();
 260              		.loc 1 376 9 is_stmt 1 view .LVU87
 377:..\..\..\..\..\..\Software\uCOS-III\Source/os_sem.c ****        *p_err = OS_ERR_PEND_WOULD_BLOCK;
 261              		.loc 1 377 9 view .LVU88
 377:..\..\..\..\..\..\Software\uCOS-III\Source/os_sem.c ****        *p_err = OS_ERR_PEND_WOULD_BLOCK;
 262              		.loc 1 377 9 view .LVU89
 263 00da FFF7FEFF 		bl	CPU_IntDisMeasStop
 264              	.LVL30:
 377:..\..\..\..\..\..\Software\uCOS-III\Source/os_sem.c ****        *p_err = OS_ERR_PEND_WOULD_BLOCK;
 265              		.loc 1 377 9 view .LVU90
 377:..\..\..\..\..\..\Software\uCOS-III\Source/os_sem.c ****        *p_err = OS_ERR_PEND_WOULD_BLOCK;
 266              		.loc 1 377 9 view .LVU91
 267 00de 0198     		ldr	r0, [sp, #4]
 268 00e0 FFF7FEFF 		bl	CPU_SR_Restore
 269              	.LVL31:
 378:..\..\..\..\..\..\Software\uCOS-III\Source/os_sem.c ****         return (ctr);
 270              		.loc 1 378 8 view .LVU92
 378:..\..\..\..\..\..\Software\uCOS-III\Source/os_sem.c ****         return (ctr);
 271              		.loc 1 378 15 is_stmt 0 view .LVU93
 272 00e4 204B     		ldr	r3, .L27+28
 273 00e6 109A     		ldr	r2, [sp, #64]
 274 00e8 1380     		strh	r3, [r2]
 379:..\..\..\..\..\..\Software\uCOS-III\Source/os_sem.c ****     } else {                                                /* Yes                                 
 275              		.loc 1 379 9 is_stmt 1 view .LVU94
 379:..\..\..\..\..\..\Software\uCOS-III\Source/os_sem.c ****     } else {                                                /* Yes                                 
 276              		.loc 1 379 16 is_stmt 0 view .LVU95
 277 00ea A4E7     		b	.L1
 278              	.LVL32:
 279              	.L26:
 382:..\..\..\..\..\..\Software\uCOS-III\Source/os_sem.c ****            *p_err = OS_ERR_SCHED_LOCKED;
 280              		.loc 1 382 13 is_stmt 1 view .LVU96
 382:..\..\..\..\..\..\Software\uCOS-III\Source/os_sem.c ****            *p_err = OS_ERR_SCHED_LOCKED;
 281              		.loc 1 382 13 view .LVU97
 282 00ec FFF7FEFF 		bl	CPU_IntDisMeasStop
 283              	.LVL33:
 382:..\..\..\..\..\..\Software\uCOS-III\Source/os_sem.c ****            *p_err = OS_ERR_SCHED_LOCKED;
ARM GAS  C:\Users\EDULU~1.DES\AppData\Local\Temp\ccfRue3n.s 			page 15


 284              		.loc 1 382 13 view .LVU98
 382:..\..\..\..\..\..\Software\uCOS-III\Source/os_sem.c ****            *p_err = OS_ERR_SCHED_LOCKED;
 285              		.loc 1 382 13 view .LVU99
 286 00f0 0198     		ldr	r0, [sp, #4]
 287 00f2 FFF7FEFF 		bl	CPU_SR_Restore
 288              	.LVL34:
 383:..\..\..\..\..\..\Software\uCOS-III\Source/os_sem.c ****             return ((OS_SEM_CTR)0);
 289              		.loc 1 383 12 view .LVU100
 383:..\..\..\..\..\..\Software\uCOS-III\Source/os_sem.c ****             return ((OS_SEM_CTR)0);
 290              		.loc 1 383 19 is_stmt 0 view .LVU101
 291 00f6 1D4B     		ldr	r3, .L27+32
 292 00f8 109A     		ldr	r2, [sp, #64]
 293 00fa 1380     		strh	r3, [r2]
 384:..\..\..\..\..\..\Software\uCOS-III\Source/os_sem.c ****         }
 294              		.loc 1 384 13 is_stmt 1 view .LVU102
 384:..\..\..\..\..\..\Software\uCOS-III\Source/os_sem.c ****         }
 295              		.loc 1 384 20 is_stmt 0 view .LVU103
 296 00fc 9BE7     		b	.L1
 297              	.LVL35:
 298              	.L12:
 401:..\..\..\..\..\..\Software\uCOS-III\Source/os_sem.c ****                 *p_ts  =  OSTCBCurPtr->TS;
 299              		.loc 1 401 14 is_stmt 1 view .LVU104
 401:..\..\..\..\..\..\Software\uCOS-III\Source/os_sem.c ****                 *p_ts  =  OSTCBCurPtr->TS;
 300              		.loc 1 401 17 is_stmt 0 view .LVU105
 301 00fe 002E     		cmp	r6, #0
 302 0100 01D0     		beq	.L16
 402:..\..\..\..\..\..\Software\uCOS-III\Source/os_sem.c ****              }
 303              		.loc 1 402 17 is_stmt 1 view .LVU106
 402:..\..\..\..\..\..\Software\uCOS-III\Source/os_sem.c ****              }
 304              		.loc 1 402 38 is_stmt 0 view .LVU107
 305 0102 136C     		ldr	r3, [r2, #64]
 306 0104 3360     		str	r3, [r6]
 307              	.L16:
 404:..\..\..\..\..\..\Software\uCOS-III\Source/os_sem.c ****              break;
 308              		.loc 1 404 13 is_stmt 1 view .LVU108
 404:..\..\..\..\..\..\Software\uCOS-III\Source/os_sem.c ****              break;
 309              		.loc 1 404 20 is_stmt 0 view .LVU109
 310 0106 0023     		movs	r3, #0
 311 0108 109A     		ldr	r2, [sp, #64]
 312 010a 1380     		strh	r3, [r2]
 405:..\..\..\..\..\..\Software\uCOS-III\Source/os_sem.c **** 
 313              		.loc 1 405 14 is_stmt 1 view .LVU110
 314              	.L17:
 433:..\..\..\..\..\..\Software\uCOS-III\Source/os_sem.c ****     CPU_CRITICAL_EXIT();
 315              		.loc 1 433 5 view .LVU111
 433:..\..\..\..\..\..\Software\uCOS-III\Source/os_sem.c ****     CPU_CRITICAL_EXIT();
 316              		.loc 1 433 9 is_stmt 0 view .LVU112
 317 010c 3C6A     		ldr	r4, [r7, #32]
 318              	.LVL36:
 434:..\..\..\..\..\..\Software\uCOS-III\Source/os_sem.c ****     return (ctr);
 319              		.loc 1 434 5 is_stmt 1 view .LVU113
 434:..\..\..\..\..\..\Software\uCOS-III\Source/os_sem.c ****     return (ctr);
 320              		.loc 1 434 5 view .LVU114
 321 010e FFF7FEFF 		bl	CPU_IntDisMeasStop
 322              	.LVL37:
 434:..\..\..\..\..\..\Software\uCOS-III\Source/os_sem.c ****     return (ctr);
 323              		.loc 1 434 5 view .LVU115
ARM GAS  C:\Users\EDULU~1.DES\AppData\Local\Temp\ccfRue3n.s 			page 16


 434:..\..\..\..\..\..\Software\uCOS-III\Source/os_sem.c ****     return (ctr);
 324              		.loc 1 434 5 view .LVU116
 325 0112 2800     		movs	r0, r5
 326 0114 FFF7FEFF 		bl	CPU_SR_Restore
 327              	.LVL38:
 435:..\..\..\..\..\..\Software\uCOS-III\Source/os_sem.c **** }
 328              		.loc 1 435 5 view .LVU117
 435:..\..\..\..\..\..\Software\uCOS-III\Source/os_sem.c **** }
 329              		.loc 1 435 12 is_stmt 0 view .LVU118
 330 0118 8DE7     		b	.L1
 331              	.LVL39:
 332              	.L11:
 408:..\..\..\..\..\..\Software\uCOS-III\Source/os_sem.c ****                 *p_ts  =  OSTCBCurPtr->TS;
 333              		.loc 1 408 14 is_stmt 1 view .LVU119
 408:..\..\..\..\..\..\Software\uCOS-III\Source/os_sem.c ****                 *p_ts  =  OSTCBCurPtr->TS;
 334              		.loc 1 408 17 is_stmt 0 view .LVU120
 335 011a 002E     		cmp	r6, #0
 336 011c 01D0     		beq	.L18
 409:..\..\..\..\..\..\Software\uCOS-III\Source/os_sem.c ****              }
 337              		.loc 1 409 17 is_stmt 1 view .LVU121
 409:..\..\..\..\..\..\Software\uCOS-III\Source/os_sem.c ****              }
 338              		.loc 1 409 38 is_stmt 0 view .LVU122
 339 011e 136C     		ldr	r3, [r2, #64]
 340 0120 3360     		str	r3, [r6]
 341              	.L18:
 411:..\..\..\..\..\..\Software\uCOS-III\Source/os_sem.c ****              break;
 342              		.loc 1 411 13 is_stmt 1 view .LVU123
 411:..\..\..\..\..\..\Software\uCOS-III\Source/os_sem.c ****              break;
 343              		.loc 1 411 20 is_stmt 0 view .LVU124
 344 0122 134B     		ldr	r3, .L27+36
 345 0124 109A     		ldr	r2, [sp, #64]
 346 0126 1380     		strh	r3, [r2]
 412:..\..\..\..\..\..\Software\uCOS-III\Source/os_sem.c **** 
 347              		.loc 1 412 14 is_stmt 1 view .LVU125
 348 0128 F0E7     		b	.L17
 349              	.L14:
 415:..\..\..\..\..\..\Software\uCOS-III\Source/os_sem.c ****                 *p_ts  = (CPU_TS  )0;
 350              		.loc 1 415 14 view .LVU126
 415:..\..\..\..\..\..\Software\uCOS-III\Source/os_sem.c ****                 *p_ts  = (CPU_TS  )0;
 351              		.loc 1 415 17 is_stmt 0 view .LVU127
 352 012a 002E     		cmp	r6, #0
 353 012c 01D0     		beq	.L19
 416:..\..\..\..\..\..\Software\uCOS-III\Source/os_sem.c ****              }
 354              		.loc 1 416 17 is_stmt 1 view .LVU128
 416:..\..\..\..\..\..\Software\uCOS-III\Source/os_sem.c ****              }
 355              		.loc 1 416 24 is_stmt 0 view .LVU129
 356 012e 0023     		movs	r3, #0
 357 0130 3360     		str	r3, [r6]
 358              	.L19:
 418:..\..\..\..\..\..\Software\uCOS-III\Source/os_sem.c ****              break;
 359              		.loc 1 418 13 is_stmt 1 view .LVU130
 418:..\..\..\..\..\..\Software\uCOS-III\Source/os_sem.c ****              break;
 360              		.loc 1 418 20 is_stmt 0 view .LVU131
 361 0132 104B     		ldr	r3, .L27+40
 362 0134 109A     		ldr	r2, [sp, #64]
 363 0136 1380     		strh	r3, [r2]
 419:..\..\..\..\..\..\Software\uCOS-III\Source/os_sem.c **** 
ARM GAS  C:\Users\EDULU~1.DES\AppData\Local\Temp\ccfRue3n.s 			page 17


 364              		.loc 1 419 14 is_stmt 1 view .LVU132
 365 0138 E8E7     		b	.L17
 366              	.L13:
 422:..\..\..\..\..\..\Software\uCOS-III\Source/os_sem.c ****                 *p_ts  =  OSTCBCurPtr->TS;
 367              		.loc 1 422 14 view .LVU133
 422:..\..\..\..\..\..\Software\uCOS-III\Source/os_sem.c ****                 *p_ts  =  OSTCBCurPtr->TS;
 368              		.loc 1 422 17 is_stmt 0 view .LVU134
 369 013a 002E     		cmp	r6, #0
 370 013c 01D0     		beq	.L20
 423:..\..\..\..\..\..\Software\uCOS-III\Source/os_sem.c ****              }
 371              		.loc 1 423 17 is_stmt 1 view .LVU135
 423:..\..\..\..\..\..\Software\uCOS-III\Source/os_sem.c ****              }
 372              		.loc 1 423 38 is_stmt 0 view .LVU136
 373 013e 136C     		ldr	r3, [r2, #64]
 374 0140 3360     		str	r3, [r6]
 375              	.L20:
 425:..\..\..\..\..\..\Software\uCOS-III\Source/os_sem.c ****              break;
 376              		.loc 1 425 13 is_stmt 1 view .LVU137
 425:..\..\..\..\..\..\Software\uCOS-III\Source/os_sem.c ****              break;
 377              		.loc 1 425 20 is_stmt 0 view .LVU138
 378 0142 0D4B     		ldr	r3, .L27+44
 379 0144 109A     		ldr	r2, [sp, #64]
 380 0146 1380     		strh	r3, [r2]
 426:..\..\..\..\..\..\Software\uCOS-III\Source/os_sem.c **** 
 381              		.loc 1 426 14 is_stmt 1 view .LVU139
 382 0148 E0E7     		b	.L17
 383              	.L28:
 384 014a C046     		.align	2
 385              	.L27:
 386 014c 00000000 		.word	OSIntNestingCtr
 387 0150 255E0000 		.word	24101
 388 0154 AE610000 		.word	25006
 389 0158 C35D0000 		.word	24003
 390 015c 00000000 		.word	OSSchedLockNestingCtr
 391 0160 00000000 		.word	OSTCBCurPtr
 392 0164 2E6E0000 		.word	28206
 393 0168 B0610000 		.word	25008
 394 016c 636D0000 		.word	28003
 395 0170 A9610000 		.word	25001
 396 0174 D9720000 		.word	29401
 397 0178 C25D0000 		.word	24002
 398              		.cfi_endproc
 399              	.LFE4:
 400              		.size	OSSemPend, .-OSSemPend
 401              		.section	.text.OSSemPendAbort,"ax",%progbits
 402              		.align	1
 403              		.global	OSSemPendAbort
 404              		.syntax unified
 405              		.code	16
 406              		.thumb_func
 407              		.fpu softvfp
 408              		.type	OSSemPendAbort, %function
 409              	OSSemPendAbort:
 410              	.LVL40:
 411              	.LFB5:
 437:..\..\..\..\..\..\Software\uCOS-III\Source/os_sem.c **** 
 438:..\..\..\..\..\..\Software\uCOS-III\Source/os_sem.c **** /*$PAGE*/
ARM GAS  C:\Users\EDULU~1.DES\AppData\Local\Temp\ccfRue3n.s 			page 18


 439:..\..\..\..\..\..\Software\uCOS-III\Source/os_sem.c **** /*
 440:..\..\..\..\..\..\Software\uCOS-III\Source/os_sem.c **** ***************************************************************************************************
 441:..\..\..\..\..\..\Software\uCOS-III\Source/os_sem.c **** *                                             ABORT WAITING ON A SEMAPHORE
 442:..\..\..\..\..\..\Software\uCOS-III\Source/os_sem.c **** *
 443:..\..\..\..\..\..\Software\uCOS-III\Source/os_sem.c **** * Description: This function aborts & readies any tasks currently waiting on a semaphore.  This fun
 444:..\..\..\..\..\..\Software\uCOS-III\Source/os_sem.c **** *              to fault-abort the wait on the semaphore, rather than to normally signal the semapho
 445:..\..\..\..\..\..\Software\uCOS-III\Source/os_sem.c **** *
 446:..\..\..\..\..\..\Software\uCOS-III\Source/os_sem.c **** * Arguments  : p_sem     is a pointer to the semaphore
 447:..\..\..\..\..\..\Software\uCOS-III\Source/os_sem.c **** *
 448:..\..\..\..\..\..\Software\uCOS-III\Source/os_sem.c **** *              opt       determines the type of ABORT performed:
 449:..\..\..\..\..\..\Software\uCOS-III\Source/os_sem.c **** *
 450:..\..\..\..\..\..\Software\uCOS-III\Source/os_sem.c **** *                            OS_OPT_PEND_ABORT_1          ABORT wait for a single task (HPT) waitin
 451:..\..\..\..\..\..\Software\uCOS-III\Source/os_sem.c **** *                            OS_OPT_PEND_ABORT_ALL        ABORT wait for ALL tasks that are  waitin
 452:..\..\..\..\..\..\Software\uCOS-III\Source/os_sem.c **** *                            OS_OPT_POST_NO_SCHED         Do not call the scheduler
 453:..\..\..\..\..\..\Software\uCOS-III\Source/os_sem.c **** *
 454:..\..\..\..\..\..\Software\uCOS-III\Source/os_sem.c **** *              p_err     is a pointer to a variable that will contain an error code returned by thi
 455:..\..\..\..\..\..\Software\uCOS-III\Source/os_sem.c **** *
 456:..\..\..\..\..\..\Software\uCOS-III\Source/os_sem.c **** *                            OS_ERR_NONE                  At least one task waiting on the semaphor
 457:..\..\..\..\..\..\Software\uCOS-III\Source/os_sem.c **** *                                                         informed of the aborted wait; check retur
 458:..\..\..\..\..\..\Software\uCOS-III\Source/os_sem.c **** *                                                         number of tasks whose wait on the semapho
 459:..\..\..\..\..\..\Software\uCOS-III\Source/os_sem.c **** *                            OS_ERR_OBJ_PTR_NULL          If 'p_sem' is a NULL pointer.
 460:..\..\..\..\..\..\Software\uCOS-III\Source/os_sem.c **** *                            OS_ERR_OBJ_TYPE              If 'p_sem' is not pointing at a semaphore
 461:..\..\..\..\..\..\Software\uCOS-III\Source/os_sem.c **** *                            OS_ERR_OPT_INVALID           If you specified an invalid option
 462:..\..\..\..\..\..\Software\uCOS-III\Source/os_sem.c **** *                            OS_ERR_PEND_ABORT_ISR        If you called this function from an ISR
 463:..\..\..\..\..\..\Software\uCOS-III\Source/os_sem.c **** *                            OS_ERR_PEND_ABORT_NONE       No task were pending
 464:..\..\..\..\..\..\Software\uCOS-III\Source/os_sem.c **** *
 465:..\..\..\..\..\..\Software\uCOS-III\Source/os_sem.c **** * Returns    : == 0          if no tasks were waiting on the semaphore, or upon error.
 466:..\..\..\..\..\..\Software\uCOS-III\Source/os_sem.c **** *              >  0          if one or more tasks waiting on the semaphore are now readied and info
 467:..\..\..\..\..\..\Software\uCOS-III\Source/os_sem.c **** ***************************************************************************************************
 468:..\..\..\..\..\..\Software\uCOS-III\Source/os_sem.c **** */
 469:..\..\..\..\..\..\Software\uCOS-III\Source/os_sem.c **** 
 470:..\..\..\..\..\..\Software\uCOS-III\Source/os_sem.c **** #if OS_CFG_SEM_PEND_ABORT_EN > 0u
 471:..\..\..\..\..\..\Software\uCOS-III\Source/os_sem.c **** OS_OBJ_QTY  OSSemPendAbort (OS_SEM  *p_sem,
 472:..\..\..\..\..\..\Software\uCOS-III\Source/os_sem.c ****                             OS_OPT   opt,
 473:..\..\..\..\..\..\Software\uCOS-III\Source/os_sem.c ****                             OS_ERR  *p_err)
 474:..\..\..\..\..\..\Software\uCOS-III\Source/os_sem.c **** {
 412              		.loc 1 474 1 view -0
 413              		.cfi_startproc
 414              		@ args = 0, pretend = 0, frame = 8
 415              		@ frame_needed = 0, uses_anonymous_args = 0
 416              		.loc 1 474 1 is_stmt 0 view .LVU141
 417 0000 F0B5     		push	{r4, r5, r6, r7, lr}
 418              		.cfi_def_cfa_offset 20
 419              		.cfi_offset 4, -20
 420              		.cfi_offset 5, -16
 421              		.cfi_offset 6, -12
 422              		.cfi_offset 7, -8
 423              		.cfi_offset 14, -4
 424 0002 83B0     		sub	sp, sp, #12
 425              		.cfi_def_cfa_offset 32
 426 0004 0600     		movs	r6, r0
 427 0006 0D00     		movs	r5, r1
 428 0008 1700     		movs	r7, r2
 475:..\..\..\..\..\..\Software\uCOS-III\Source/os_sem.c ****     OS_PEND_LIST  *p_pend_list;
 429              		.loc 1 475 5 is_stmt 1 view .LVU142
 476:..\..\..\..\..\..\Software\uCOS-III\Source/os_sem.c ****     OS_TCB        *p_tcb;
 430              		.loc 1 476 5 view .LVU143
ARM GAS  C:\Users\EDULU~1.DES\AppData\Local\Temp\ccfRue3n.s 			page 19


 477:..\..\..\..\..\..\Software\uCOS-III\Source/os_sem.c ****     CPU_TS         ts;
 431              		.loc 1 477 5 view .LVU144
 478:..\..\..\..\..\..\Software\uCOS-III\Source/os_sem.c ****     OS_OBJ_QTY     nbr_tasks;
 432              		.loc 1 478 5 view .LVU145
 479:..\..\..\..\..\..\Software\uCOS-III\Source/os_sem.c ****     CPU_SR_ALLOC();
 433              		.loc 1 479 5 view .LVU146
 434              	.LVL41:
 480:..\..\..\..\..\..\Software\uCOS-III\Source/os_sem.c **** 
 481:..\..\..\..\..\..\Software\uCOS-III\Source/os_sem.c **** 
 482:..\..\..\..\..\..\Software\uCOS-III\Source/os_sem.c **** 
 483:..\..\..\..\..\..\Software\uCOS-III\Source/os_sem.c **** #ifdef OS_SAFETY_CRITICAL
 484:..\..\..\..\..\..\Software\uCOS-III\Source/os_sem.c ****     if (p_err == (OS_ERR *)0) {
 485:..\..\..\..\..\..\Software\uCOS-III\Source/os_sem.c ****         OS_SAFETY_CRITICAL_EXCEPTION();
 486:..\..\..\..\..\..\Software\uCOS-III\Source/os_sem.c ****         return ((OS_OBJ_QTY)0u);
 487:..\..\..\..\..\..\Software\uCOS-III\Source/os_sem.c ****     }
 488:..\..\..\..\..\..\Software\uCOS-III\Source/os_sem.c **** #endif
 489:..\..\..\..\..\..\Software\uCOS-III\Source/os_sem.c **** 
 490:..\..\..\..\..\..\Software\uCOS-III\Source/os_sem.c **** #if OS_CFG_CALLED_FROM_ISR_CHK_EN > 0u
 491:..\..\..\..\..\..\Software\uCOS-III\Source/os_sem.c ****     if (OSIntNestingCtr > (OS_NESTING_CTR)0u) {             /* Not allowed to Pend Abort from an IS
 435              		.loc 1 491 5 view .LVU147
 436              		.loc 1 491 25 is_stmt 0 view .LVU148
 437 000a 2A4B     		ldr	r3, .L46
 438 000c 1B78     		ldrb	r3, [r3]
 439              		.loc 1 491 8 view .LVU149
 440 000e 002B     		cmp	r3, #0
 441 0010 34D1     		bne	.L41
 492:..\..\..\..\..\..\Software\uCOS-III\Source/os_sem.c ****        *p_err =  OS_ERR_PEND_ABORT_ISR;
 493:..\..\..\..\..\..\Software\uCOS-III\Source/os_sem.c ****         return ((OS_OBJ_QTY)0u);
 494:..\..\..\..\..\..\Software\uCOS-III\Source/os_sem.c ****     }
 495:..\..\..\..\..\..\Software\uCOS-III\Source/os_sem.c **** #endif
 496:..\..\..\..\..\..\Software\uCOS-III\Source/os_sem.c **** 
 497:..\..\..\..\..\..\Software\uCOS-III\Source/os_sem.c **** #if OS_CFG_ARG_CHK_EN > 0u
 498:..\..\..\..\..\..\Software\uCOS-III\Source/os_sem.c ****     if (p_sem == (OS_SEM *)0) {                             /* Validate 'p_sem'                    
 442              		.loc 1 498 5 is_stmt 1 view .LVU150
 443              		.loc 1 498 8 is_stmt 0 view .LVU151
 444 0012 0028     		cmp	r0, #0
 445 0014 36D0     		beq	.L42
 499:..\..\..\..\..\..\Software\uCOS-III\Source/os_sem.c ****        *p_err =  OS_ERR_OBJ_PTR_NULL;
 500:..\..\..\..\..\..\Software\uCOS-III\Source/os_sem.c ****         return ((OS_OBJ_QTY)0u);
 501:..\..\..\..\..\..\Software\uCOS-III\Source/os_sem.c ****     }
 502:..\..\..\..\..\..\Software\uCOS-III\Source/os_sem.c ****     switch (opt) {                                          /* Validate 'opt'                      
 446              		.loc 1 502 5 is_stmt 1 view .LVU152
 447 0016 8023     		movs	r3, #128
 448 0018 5B00     		lsls	r3, r3, #1
 449 001a 9942     		cmp	r1, r3
 450 001c 08D0     		beq	.L33
 451 001e 35D9     		bls	.L43
 452 0020 8023     		movs	r3, #128
 453 0022 1B02     		lsls	r3, r3, #8
 454 0024 9942     		cmp	r1, r3
 455 0026 03D0     		beq	.L33
 456 0028 0133     		adds	r3, r3, #1
 457 002a FF33     		adds	r3, r3, #255
 458 002c 9942     		cmp	r1, r3
 459 002e 2FD1     		bne	.L35
 460              	.L33:
 503:..\..\..\..\..\..\Software\uCOS-III\Source/os_sem.c ****         case OS_OPT_PEND_ABORT_1:
ARM GAS  C:\Users\EDULU~1.DES\AppData\Local\Temp\ccfRue3n.s 			page 20


 504:..\..\..\..\..\..\Software\uCOS-III\Source/os_sem.c ****         case OS_OPT_PEND_ABORT_ALL:
 505:..\..\..\..\..\..\Software\uCOS-III\Source/os_sem.c ****         case OS_OPT_PEND_ABORT_1   | OS_OPT_POST_NO_SCHED:
 506:..\..\..\..\..\..\Software\uCOS-III\Source/os_sem.c ****         case OS_OPT_PEND_ABORT_ALL | OS_OPT_POST_NO_SCHED:
 507:..\..\..\..\..\..\Software\uCOS-III\Source/os_sem.c ****              break;
 461              		.loc 1 507 14 view .LVU153
 508:..\..\..\..\..\..\Software\uCOS-III\Source/os_sem.c **** 
 509:..\..\..\..\..\..\Software\uCOS-III\Source/os_sem.c ****         default:
 510:..\..\..\..\..\..\Software\uCOS-III\Source/os_sem.c ****             *p_err =  OS_ERR_OPT_INVALID;
 511:..\..\..\..\..\..\Software\uCOS-III\Source/os_sem.c ****              return ((OS_OBJ_QTY)0u);
 512:..\..\..\..\..\..\Software\uCOS-III\Source/os_sem.c ****     }
 513:..\..\..\..\..\..\Software\uCOS-III\Source/os_sem.c **** #endif
 514:..\..\..\..\..\..\Software\uCOS-III\Source/os_sem.c **** 
 515:..\..\..\..\..\..\Software\uCOS-III\Source/os_sem.c **** #if OS_CFG_OBJ_TYPE_CHK_EN > 0u
 516:..\..\..\..\..\..\Software\uCOS-III\Source/os_sem.c ****     if (p_sem->Type != OS_OBJ_TYPE_SEM) {                   /* Make sure semaphore was created     
 517:..\..\..\..\..\..\Software\uCOS-III\Source/os_sem.c ****        *p_err =  OS_ERR_OBJ_TYPE;
 518:..\..\..\..\..\..\Software\uCOS-III\Source/os_sem.c ****         return ((OS_OBJ_QTY)0u);
 519:..\..\..\..\..\..\Software\uCOS-III\Source/os_sem.c ****     }
 520:..\..\..\..\..\..\Software\uCOS-III\Source/os_sem.c **** #endif
 521:..\..\..\..\..\..\Software\uCOS-III\Source/os_sem.c **** 
 522:..\..\..\..\..\..\Software\uCOS-III\Source/os_sem.c ****     CPU_CRITICAL_ENTER();
 462              		.loc 1 522 5 view .LVU154
 463              		.loc 1 522 5 view .LVU155
 464              		.loc 1 522 5 view .LVU156
 465 0030 FFF7FEFF 		bl	CPU_SR_Save
 466              	.LVL42:
 467              		.loc 1 522 5 is_stmt 0 view .LVU157
 468 0034 0190     		str	r0, [sp, #4]
 469              	.LVL43:
 470              		.loc 1 522 5 is_stmt 1 view .LVU158
 471 0036 FFF7FEFF 		bl	CPU_IntDisMeasStart
 472              	.LVL44:
 523:..\..\..\..\..\..\Software\uCOS-III\Source/os_sem.c ****     p_pend_list = &p_sem->PendList;
 473              		.loc 1 523 5 view .LVU159
 524:..\..\..\..\..\..\Software\uCOS-III\Source/os_sem.c ****     if (p_pend_list->NbrEntries == (OS_OBJ_QTY)0u) {        /* Any task waiting on semaphore?      
 474              		.loc 1 524 5 view .LVU160
 475              		.loc 1 524 20 is_stmt 0 view .LVU161
 476 003a 348A     		ldrh	r4, [r6, #16]
 477              		.loc 1 524 8 view .LVU162
 478 003c 002C     		cmp	r4, #0
 479 003e 2DD0     		beq	.L44
 525:..\..\..\..\..\..\Software\uCOS-III\Source/os_sem.c ****         CPU_CRITICAL_EXIT();                                /* No                                  
 526:..\..\..\..\..\..\Software\uCOS-III\Source/os_sem.c ****        *p_err =  OS_ERR_PEND_ABORT_NONE;
 527:..\..\..\..\..\..\Software\uCOS-III\Source/os_sem.c ****         return ((OS_OBJ_QTY)0u);
 528:..\..\..\..\..\..\Software\uCOS-III\Source/os_sem.c ****     }
 529:..\..\..\..\..\..\Software\uCOS-III\Source/os_sem.c **** 
 530:..\..\..\..\..\..\Software\uCOS-III\Source/os_sem.c ****     OS_CRITICAL_ENTER_CPU_EXIT();
 480              		.loc 1 530 33 is_stmt 1 view .LVU163
 531:..\..\..\..\..\..\Software\uCOS-III\Source/os_sem.c ****     nbr_tasks = 0u;
 481              		.loc 1 531 5 view .LVU164
 482              	.LVL45:
 532:..\..\..\..\..\..\Software\uCOS-III\Source/os_sem.c ****     ts        = OS_TS_GET();                                /* Get local time stamp so all tasks ge
 483              		.loc 1 532 5 view .LVU165
 484              		.loc 1 532 17 is_stmt 0 view .LVU166
 485 0040 FFF7FEFF 		bl	CPU_TS_TmrRd
 486              	.LVL46:
 487 0044 0090     		str	r0, [sp]
 488              	.LVL47:
ARM GAS  C:\Users\EDULU~1.DES\AppData\Local\Temp\ccfRue3n.s 			page 21


 533:..\..\..\..\..\..\Software\uCOS-III\Source/os_sem.c ****     while (p_pend_list->NbrEntries > (OS_OBJ_QTY)0u) {
 489              		.loc 1 533 5 is_stmt 1 view .LVU167
 531:..\..\..\..\..\..\Software\uCOS-III\Source/os_sem.c ****     nbr_tasks = 0u;
 490              		.loc 1 531 15 is_stmt 0 view .LVU168
 491 0046 0024     		movs	r4, #0
 492              	.LVL48:
 493              	.L37:
 494              		.loc 1 533 23 view .LVU169
 495 0048 338A     		ldrh	r3, [r6, #16]
 496              		.loc 1 533 11 view .LVU170
 497 004a 002B     		cmp	r3, #0
 498 004c 0BD0     		beq	.L38
 534:..\..\..\..\..\..\Software\uCOS-III\Source/os_sem.c ****         p_tcb = p_pend_list->HeadPtr->TCBPtr;
 499              		.loc 1 534 9 is_stmt 1 view .LVU171
 500              		.loc 1 534 28 is_stmt 0 view .LVU172
 501 004e B368     		ldr	r3, [r6, #8]
 502              		.loc 1 534 15 view .LVU173
 503 0050 9968     		ldr	r1, [r3, #8]
 504              	.LVL49:
 535:..\..\..\..\..\..\Software\uCOS-III\Source/os_sem.c ****         OS_PendAbort((OS_PEND_OBJ *)((void *)p_sem),
 505              		.loc 1 535 9 is_stmt 1 view .LVU174
 506 0052 009A     		ldr	r2, [sp]
 507 0054 3000     		movs	r0, r6
 508 0056 FFF7FEFF 		bl	OS_PendAbort
 509              	.LVL50:
 536:..\..\..\..\..\..\Software\uCOS-III\Source/os_sem.c ****                      p_tcb,
 537:..\..\..\..\..\..\Software\uCOS-III\Source/os_sem.c ****                      ts);
 538:..\..\..\..\..\..\Software\uCOS-III\Source/os_sem.c ****         nbr_tasks++;
 510              		.loc 1 538 9 view .LVU175
 511              		.loc 1 538 18 is_stmt 0 view .LVU176
 512 005a 0134     		adds	r4, r4, #1
 513              	.LVL51:
 514              		.loc 1 538 18 view .LVU177
 515 005c A4B2     		uxth	r4, r4
 516              	.LVL52:
 539:..\..\..\..\..\..\Software\uCOS-III\Source/os_sem.c ****         if (opt != OS_OPT_PEND_ABORT_ALL) {                 /* Pend abort all tasks waiting?       
 517              		.loc 1 539 9 is_stmt 1 view .LVU178
 518              		.loc 1 539 12 is_stmt 0 view .LVU179
 519 005e 8023     		movs	r3, #128
 520 0060 5B00     		lsls	r3, r3, #1
 521 0062 9D42     		cmp	r5, r3
 522 0064 F0D0     		beq	.L37
 523              	.L38:
 540:..\..\..\..\..\..\Software\uCOS-III\Source/os_sem.c ****             break;                                          /* No                                  
 541:..\..\..\..\..\..\Software\uCOS-III\Source/os_sem.c ****         }
 542:..\..\..\..\..\..\Software\uCOS-III\Source/os_sem.c ****     }
 543:..\..\..\..\..\..\Software\uCOS-III\Source/os_sem.c ****     OS_CRITICAL_EXIT_NO_SCHED();
 524              		.loc 1 543 5 is_stmt 1 view .LVU180
 525              		.loc 1 543 5 view .LVU181
 526 0066 FFF7FEFF 		bl	CPU_IntDisMeasStop
 527              	.LVL53:
 528              		.loc 1 543 5 view .LVU182
 529              		.loc 1 543 5 view .LVU183
 530 006a 0198     		ldr	r0, [sp, #4]
 531 006c FFF7FEFF 		bl	CPU_SR_Restore
 532              	.LVL54:
 544:..\..\..\..\..\..\Software\uCOS-III\Source/os_sem.c **** 
ARM GAS  C:\Users\EDULU~1.DES\AppData\Local\Temp\ccfRue3n.s 			page 22


 545:..\..\..\..\..\..\Software\uCOS-III\Source/os_sem.c ****     if ((opt & OS_OPT_POST_NO_SCHED) == (OS_OPT)0u) {
 533              		.loc 1 545 5 view .LVU184
 534              		.loc 1 545 38 is_stmt 0 view .LVU185
 535 0070 2DB2     		sxth	r5, r5
 536              		.loc 1 545 8 view .LVU186
 537 0072 002D     		cmp	r5, #0
 538 0074 1ADA     		bge	.L45
 539              	.L40:
 546:..\..\..\..\..\..\Software\uCOS-III\Source/os_sem.c ****         OSSched();                                          /* Run the scheduler                   
 547:..\..\..\..\..\..\Software\uCOS-III\Source/os_sem.c ****     }
 548:..\..\..\..\..\..\Software\uCOS-III\Source/os_sem.c **** 
 549:..\..\..\..\..\..\Software\uCOS-III\Source/os_sem.c ****    *p_err = OS_ERR_NONE;
 540              		.loc 1 549 4 is_stmt 1 view .LVU187
 541              		.loc 1 549 11 is_stmt 0 view .LVU188
 542 0076 0023     		movs	r3, #0
 543 0078 3B80     		strh	r3, [r7]
 550:..\..\..\..\..\..\Software\uCOS-III\Source/os_sem.c ****     return (nbr_tasks);
 544              		.loc 1 550 5 is_stmt 1 view .LVU189
 545              		.loc 1 550 12 is_stmt 0 view .LVU190
 546 007a 0CE0     		b	.L31
 547              	.LVL55:
 548              	.L41:
 492:..\..\..\..\..\..\Software\uCOS-III\Source/os_sem.c ****         return ((OS_OBJ_QTY)0u);
 549              		.loc 1 492 8 is_stmt 1 view .LVU191
 492:..\..\..\..\..\..\Software\uCOS-III\Source/os_sem.c ****         return ((OS_OBJ_QTY)0u);
 550              		.loc 1 492 15 is_stmt 0 view .LVU192
 551 007c 0E4B     		ldr	r3, .L46+4
 552 007e 1380     		strh	r3, [r2]
 493:..\..\..\..\..\..\Software\uCOS-III\Source/os_sem.c ****     }
 553              		.loc 1 493 9 is_stmt 1 view .LVU193
 493:..\..\..\..\..\..\Software\uCOS-III\Source/os_sem.c ****     }
 554              		.loc 1 493 16 is_stmt 0 view .LVU194
 555 0080 0024     		movs	r4, #0
 556 0082 08E0     		b	.L31
 557              	.L42:
 499:..\..\..\..\..\..\Software\uCOS-III\Source/os_sem.c ****         return ((OS_OBJ_QTY)0u);
 558              		.loc 1 499 8 is_stmt 1 view .LVU195
 499:..\..\..\..\..\..\Software\uCOS-III\Source/os_sem.c ****         return ((OS_OBJ_QTY)0u);
 559              		.loc 1 499 15 is_stmt 0 view .LVU196
 560 0084 0D4B     		ldr	r3, .L46+8
 561 0086 1380     		strh	r3, [r2]
 500:..\..\..\..\..\..\Software\uCOS-III\Source/os_sem.c ****     }
 562              		.loc 1 500 9 is_stmt 1 view .LVU197
 500:..\..\..\..\..\..\Software\uCOS-III\Source/os_sem.c ****     }
 563              		.loc 1 500 16 is_stmt 0 view .LVU198
 564 0088 0024     		movs	r4, #0
 565 008a 04E0     		b	.L31
 566              	.L43:
 502:..\..\..\..\..\..\Software\uCOS-III\Source/os_sem.c ****         case OS_OPT_PEND_ABORT_1:
 567              		.loc 1 502 5 view .LVU199
 568 008c 0029     		cmp	r1, #0
 569 008e CFD0     		beq	.L33
 570              	.L35:
 510:..\..\..\..\..\..\Software\uCOS-III\Source/os_sem.c ****              return ((OS_OBJ_QTY)0u);
 571              		.loc 1 510 13 is_stmt 1 view .LVU200
 510:..\..\..\..\..\..\Software\uCOS-III\Source/os_sem.c ****              return ((OS_OBJ_QTY)0u);
 572              		.loc 1 510 20 is_stmt 0 view .LVU201
ARM GAS  C:\Users\EDULU~1.DES\AppData\Local\Temp\ccfRue3n.s 			page 23


 573 0090 0B4B     		ldr	r3, .L46+12
 574 0092 3B80     		strh	r3, [r7]
 511:..\..\..\..\..\..\Software\uCOS-III\Source/os_sem.c ****     }
 575              		.loc 1 511 14 is_stmt 1 view .LVU202
 511:..\..\..\..\..\..\Software\uCOS-III\Source/os_sem.c ****     }
 576              		.loc 1 511 21 is_stmt 0 view .LVU203
 577 0094 0024     		movs	r4, #0
 578              	.LVL56:
 579              	.L31:
 551:..\..\..\..\..\..\Software\uCOS-III\Source/os_sem.c **** }
 580              		.loc 1 551 1 view .LVU204
 581 0096 2000     		movs	r0, r4
 582 0098 03B0     		add	sp, sp, #12
 583              		@ sp needed
 584              	.LVL57:
 585              	.LVL58:
 586              		.loc 1 551 1 view .LVU205
 587 009a F0BD     		pop	{r4, r5, r6, r7, pc}
 588              	.LVL59:
 589              	.L44:
 525:..\..\..\..\..\..\Software\uCOS-III\Source/os_sem.c ****        *p_err =  OS_ERR_PEND_ABORT_NONE;
 590              		.loc 1 525 9 is_stmt 1 view .LVU206
 525:..\..\..\..\..\..\Software\uCOS-III\Source/os_sem.c ****        *p_err =  OS_ERR_PEND_ABORT_NONE;
 591              		.loc 1 525 9 view .LVU207
 592 009c FFF7FEFF 		bl	CPU_IntDisMeasStop
 593              	.LVL60:
 525:..\..\..\..\..\..\Software\uCOS-III\Source/os_sem.c ****        *p_err =  OS_ERR_PEND_ABORT_NONE;
 594              		.loc 1 525 9 view .LVU208
 525:..\..\..\..\..\..\Software\uCOS-III\Source/os_sem.c ****        *p_err =  OS_ERR_PEND_ABORT_NONE;
 595              		.loc 1 525 9 view .LVU209
 596 00a0 0198     		ldr	r0, [sp, #4]
 597 00a2 FFF7FEFF 		bl	CPU_SR_Restore
 598              	.LVL61:
 526:..\..\..\..\..\..\Software\uCOS-III\Source/os_sem.c ****         return ((OS_OBJ_QTY)0u);
 599              		.loc 1 526 8 view .LVU210
 526:..\..\..\..\..\..\Software\uCOS-III\Source/os_sem.c ****         return ((OS_OBJ_QTY)0u);
 600              		.loc 1 526 15 is_stmt 0 view .LVU211
 601 00a6 074B     		ldr	r3, .L46+16
 602 00a8 3B80     		strh	r3, [r7]
 527:..\..\..\..\..\..\Software\uCOS-III\Source/os_sem.c ****     }
 603              		.loc 1 527 9 is_stmt 1 view .LVU212
 527:..\..\..\..\..\..\Software\uCOS-III\Source/os_sem.c ****     }
 604              		.loc 1 527 16 is_stmt 0 view .LVU213
 605 00aa F4E7     		b	.L31
 606              	.LVL62:
 607              	.L45:
 546:..\..\..\..\..\..\Software\uCOS-III\Source/os_sem.c ****     }
 608              		.loc 1 546 9 is_stmt 1 view .LVU214
 609 00ac FFF7FEFF 		bl	OSSched
 610              	.LVL63:
 611 00b0 E1E7     		b	.L40
 612              	.L47:
 613 00b2 C046     		.align	2
 614              	.L46:
 615 00b4 00000000 		.word	OSIntNestingCtr
 616 00b8 AA610000 		.word	25002
 617 00bc C35D0000 		.word	24003
ARM GAS  C:\Users\EDULU~1.DES\AppData\Local\Temp\ccfRue3n.s 			page 24


 618 00c0 255E0000 		.word	24101
 619 00c4 AB610000 		.word	25003
 620              		.cfi_endproc
 621              	.LFE5:
 622              		.size	OSSemPendAbort, .-OSSemPendAbort
 623              		.section	.text.OSSemSet,"ax",%progbits
 624              		.align	1
 625              		.global	OSSemSet
 626              		.syntax unified
 627              		.code	16
 628              		.thumb_func
 629              		.fpu softvfp
 630              		.type	OSSemSet, %function
 631              	OSSemSet:
 632              	.LVL64:
 633              	.LFB7:
 552:..\..\..\..\..\..\Software\uCOS-III\Source/os_sem.c **** #endif
 553:..\..\..\..\..\..\Software\uCOS-III\Source/os_sem.c **** 
 554:..\..\..\..\..\..\Software\uCOS-III\Source/os_sem.c **** /*$PAGE*/
 555:..\..\..\..\..\..\Software\uCOS-III\Source/os_sem.c **** /*
 556:..\..\..\..\..\..\Software\uCOS-III\Source/os_sem.c **** ***************************************************************************************************
 557:..\..\..\..\..\..\Software\uCOS-III\Source/os_sem.c **** *                                                 POST TO A SEMAPHORE
 558:..\..\..\..\..\..\Software\uCOS-III\Source/os_sem.c **** *
 559:..\..\..\..\..\..\Software\uCOS-III\Source/os_sem.c **** * Description: This function signals a semaphore
 560:..\..\..\..\..\..\Software\uCOS-III\Source/os_sem.c **** *
 561:..\..\..\..\..\..\Software\uCOS-III\Source/os_sem.c **** * Arguments  : p_sem    is a pointer to the semaphore
 562:..\..\..\..\..\..\Software\uCOS-III\Source/os_sem.c **** *
 563:..\..\..\..\..\..\Software\uCOS-III\Source/os_sem.c **** *              opt      determines the type of POST performed:
 564:..\..\..\..\..\..\Software\uCOS-III\Source/os_sem.c **** *
 565:..\..\..\..\..\..\Software\uCOS-III\Source/os_sem.c **** *                           OS_OPT_POST_1            POST and ready only the highest priority task 
 566:..\..\..\..\..\..\Software\uCOS-III\Source/os_sem.c **** *                                                    (if tasks are waiting).
 567:..\..\..\..\..\..\Software\uCOS-III\Source/os_sem.c **** *                           OS_OPT_POST_ALL          POST to ALL tasks that are waiting on the sema
 568:..\..\..\..\..\..\Software\uCOS-III\Source/os_sem.c **** *
 569:..\..\..\..\..\..\Software\uCOS-III\Source/os_sem.c **** *                           OS_OPT_POST_NO_SCHED     Do not call the scheduler
 570:..\..\..\..\..\..\Software\uCOS-III\Source/os_sem.c **** *
 571:..\..\..\..\..\..\Software\uCOS-III\Source/os_sem.c **** *                           Note(s): 1) OS_OPT_POST_NO_SCHED can be added with one of the other opt
 572:..\..\..\..\..\..\Software\uCOS-III\Source/os_sem.c **** *
 573:..\..\..\..\..\..\Software\uCOS-III\Source/os_sem.c **** *              p_err    is a pointer to a variable that will contain an error code returned by this
 574:..\..\..\..\..\..\Software\uCOS-III\Source/os_sem.c **** *
 575:..\..\..\..\..\..\Software\uCOS-III\Source/os_sem.c **** *                           OS_ERR_NONE          The call was successful and the semaphore was sign
 576:..\..\..\..\..\..\Software\uCOS-III\Source/os_sem.c **** *                           OS_ERR_OBJ_PTR_NULL  If 'p_sem' is a NULL pointer.
 577:..\..\..\..\..\..\Software\uCOS-III\Source/os_sem.c **** *                           OS_ERR_OBJ_TYPE      If 'p_sem' is not pointing at a semaphore
 578:..\..\..\..\..\..\Software\uCOS-III\Source/os_sem.c **** *                           OS_ERR_SEM_OVF       If the post would cause the semaphore count to ove
 579:..\..\..\..\..\..\Software\uCOS-III\Source/os_sem.c **** *
 580:..\..\..\..\..\..\Software\uCOS-III\Source/os_sem.c **** * Returns    : The current value of the semaphore counter or 0 upon error.
 581:..\..\..\..\..\..\Software\uCOS-III\Source/os_sem.c **** ***************************************************************************************************
 582:..\..\..\..\..\..\Software\uCOS-III\Source/os_sem.c **** */
 583:..\..\..\..\..\..\Software\uCOS-III\Source/os_sem.c **** 
 584:..\..\..\..\..\..\Software\uCOS-III\Source/os_sem.c **** OS_SEM_CTR  OSSemPost (OS_SEM  *p_sem,
 585:..\..\..\..\..\..\Software\uCOS-III\Source/os_sem.c ****                        OS_OPT   opt,
 586:..\..\..\..\..\..\Software\uCOS-III\Source/os_sem.c ****                        OS_ERR  *p_err)
 587:..\..\..\..\..\..\Software\uCOS-III\Source/os_sem.c **** {
 588:..\..\..\..\..\..\Software\uCOS-III\Source/os_sem.c ****     OS_SEM_CTR  ctr;
 589:..\..\..\..\..\..\Software\uCOS-III\Source/os_sem.c ****     CPU_TS      ts;
 590:..\..\..\..\..\..\Software\uCOS-III\Source/os_sem.c **** 
 591:..\..\..\..\..\..\Software\uCOS-III\Source/os_sem.c **** 
 592:..\..\..\..\..\..\Software\uCOS-III\Source/os_sem.c **** 
ARM GAS  C:\Users\EDULU~1.DES\AppData\Local\Temp\ccfRue3n.s 			page 25


 593:..\..\..\..\..\..\Software\uCOS-III\Source/os_sem.c **** #ifdef OS_SAFETY_CRITICAL
 594:..\..\..\..\..\..\Software\uCOS-III\Source/os_sem.c ****     if (p_err == (OS_ERR *)0) {
 595:..\..\..\..\..\..\Software\uCOS-III\Source/os_sem.c ****         OS_SAFETY_CRITICAL_EXCEPTION();
 596:..\..\..\..\..\..\Software\uCOS-III\Source/os_sem.c ****         return ((OS_SEM_CTR)0);
 597:..\..\..\..\..\..\Software\uCOS-III\Source/os_sem.c ****     }
 598:..\..\..\..\..\..\Software\uCOS-III\Source/os_sem.c **** #endif
 599:..\..\..\..\..\..\Software\uCOS-III\Source/os_sem.c **** 
 600:..\..\..\..\..\..\Software\uCOS-III\Source/os_sem.c **** #if OS_CFG_ARG_CHK_EN > 0u
 601:..\..\..\..\..\..\Software\uCOS-III\Source/os_sem.c ****     if (p_sem == (OS_SEM *)0) {                             /* Validate 'p_sem'                    
 602:..\..\..\..\..\..\Software\uCOS-III\Source/os_sem.c ****        *p_err  = OS_ERR_OBJ_PTR_NULL;
 603:..\..\..\..\..\..\Software\uCOS-III\Source/os_sem.c ****         return ((OS_SEM_CTR)0);
 604:..\..\..\..\..\..\Software\uCOS-III\Source/os_sem.c ****     }
 605:..\..\..\..\..\..\Software\uCOS-III\Source/os_sem.c ****     switch (opt) {                                          /* Validate 'opt'                      
 606:..\..\..\..\..\..\Software\uCOS-III\Source/os_sem.c ****         case OS_OPT_POST_1:
 607:..\..\..\..\..\..\Software\uCOS-III\Source/os_sem.c ****         case OS_OPT_POST_ALL:
 608:..\..\..\..\..\..\Software\uCOS-III\Source/os_sem.c ****         case OS_OPT_POST_1   | OS_OPT_POST_NO_SCHED:
 609:..\..\..\..\..\..\Software\uCOS-III\Source/os_sem.c ****         case OS_OPT_POST_ALL | OS_OPT_POST_NO_SCHED:
 610:..\..\..\..\..\..\Software\uCOS-III\Source/os_sem.c ****              break;
 611:..\..\..\..\..\..\Software\uCOS-III\Source/os_sem.c **** 
 612:..\..\..\..\..\..\Software\uCOS-III\Source/os_sem.c ****         default:
 613:..\..\..\..\..\..\Software\uCOS-III\Source/os_sem.c ****             *p_err =  OS_ERR_OPT_INVALID;
 614:..\..\..\..\..\..\Software\uCOS-III\Source/os_sem.c ****              return ((OS_SEM_CTR)0u);
 615:..\..\..\..\..\..\Software\uCOS-III\Source/os_sem.c ****     }
 616:..\..\..\..\..\..\Software\uCOS-III\Source/os_sem.c **** #endif
 617:..\..\..\..\..\..\Software\uCOS-III\Source/os_sem.c **** 
 618:..\..\..\..\..\..\Software\uCOS-III\Source/os_sem.c **** #if OS_CFG_OBJ_TYPE_CHK_EN > 0u
 619:..\..\..\..\..\..\Software\uCOS-III\Source/os_sem.c ****     if (p_sem->Type != OS_OBJ_TYPE_SEM) {                   /* Make sure semaphore was created     
 620:..\..\..\..\..\..\Software\uCOS-III\Source/os_sem.c ****        *p_err = OS_ERR_OBJ_TYPE;
 621:..\..\..\..\..\..\Software\uCOS-III\Source/os_sem.c ****         return ((OS_SEM_CTR)0);
 622:..\..\..\..\..\..\Software\uCOS-III\Source/os_sem.c ****     }
 623:..\..\..\..\..\..\Software\uCOS-III\Source/os_sem.c **** #endif
 624:..\..\..\..\..\..\Software\uCOS-III\Source/os_sem.c **** 
 625:..\..\..\..\..\..\Software\uCOS-III\Source/os_sem.c ****     ts = OS_TS_GET();                                       /* Get timestamp                       
 626:..\..\..\..\..\..\Software\uCOS-III\Source/os_sem.c **** 
 627:..\..\..\..\..\..\Software\uCOS-III\Source/os_sem.c **** #if OS_CFG_ISR_POST_DEFERRED_EN > 0u
 628:..\..\..\..\..\..\Software\uCOS-III\Source/os_sem.c ****     if (OSIntNestingCtr > (OS_NESTING_CTR)0) {              /* See if called from an ISR           
 629:..\..\..\..\..\..\Software\uCOS-III\Source/os_sem.c ****         OS_IntQPost((OS_OBJ_TYPE)OS_OBJ_TYPE_SEM,           /* Post to ISR queue                   
 630:..\..\..\..\..\..\Software\uCOS-III\Source/os_sem.c ****                     (void      *)p_sem,
 631:..\..\..\..\..\..\Software\uCOS-III\Source/os_sem.c ****                     (void      *)0,
 632:..\..\..\..\..\..\Software\uCOS-III\Source/os_sem.c ****                     (OS_MSG_SIZE)0,
 633:..\..\..\..\..\..\Software\uCOS-III\Source/os_sem.c ****                     (OS_FLAGS   )0,
 634:..\..\..\..\..\..\Software\uCOS-III\Source/os_sem.c ****                     (OS_OPT     )opt,
 635:..\..\..\..\..\..\Software\uCOS-III\Source/os_sem.c ****                     (CPU_TS     )ts,
 636:..\..\..\..\..\..\Software\uCOS-III\Source/os_sem.c ****                     (OS_ERR    *)p_err);
 637:..\..\..\..\..\..\Software\uCOS-III\Source/os_sem.c ****         return ((OS_SEM_CTR)0);
 638:..\..\..\..\..\..\Software\uCOS-III\Source/os_sem.c ****     }
 639:..\..\..\..\..\..\Software\uCOS-III\Source/os_sem.c **** #endif
 640:..\..\..\..\..\..\Software\uCOS-III\Source/os_sem.c **** 
 641:..\..\..\..\..\..\Software\uCOS-III\Source/os_sem.c ****     ctr = OS_SemPost(p_sem,                                 /* Post to semaphore                   
 642:..\..\..\..\..\..\Software\uCOS-III\Source/os_sem.c ****                      opt,
 643:..\..\..\..\..\..\Software\uCOS-III\Source/os_sem.c ****                      ts,
 644:..\..\..\..\..\..\Software\uCOS-III\Source/os_sem.c ****                      p_err);
 645:..\..\..\..\..\..\Software\uCOS-III\Source/os_sem.c **** 
 646:..\..\..\..\..\..\Software\uCOS-III\Source/os_sem.c ****     return (ctr);
 647:..\..\..\..\..\..\Software\uCOS-III\Source/os_sem.c **** }
 648:..\..\..\..\..\..\Software\uCOS-III\Source/os_sem.c **** 
 649:..\..\..\..\..\..\Software\uCOS-III\Source/os_sem.c **** /*$PAGE*/
ARM GAS  C:\Users\EDULU~1.DES\AppData\Local\Temp\ccfRue3n.s 			page 26


 650:..\..\..\..\..\..\Software\uCOS-III\Source/os_sem.c **** /*
 651:..\..\..\..\..\..\Software\uCOS-III\Source/os_sem.c **** ***************************************************************************************************
 652:..\..\..\..\..\..\Software\uCOS-III\Source/os_sem.c **** *                                                    SET SEMAPHORE
 653:..\..\..\..\..\..\Software\uCOS-III\Source/os_sem.c **** *
 654:..\..\..\..\..\..\Software\uCOS-III\Source/os_sem.c **** * Description: This function sets the semaphore count to the value specified as an argument.  Typic
 655:..\..\..\..\..\..\Software\uCOS-III\Source/os_sem.c **** *              would be 0 but of course, we can set the semaphore to any value.
 656:..\..\..\..\..\..\Software\uCOS-III\Source/os_sem.c **** *
 657:..\..\..\..\..\..\Software\uCOS-III\Source/os_sem.c **** *              You would typically use this function when a semaphore is used as a signaling mechan
 658:..\..\..\..\..\..\Software\uCOS-III\Source/os_sem.c **** *              and, you want to reset the count value.
 659:..\..\..\..\..\..\Software\uCOS-III\Source/os_sem.c **** *
 660:..\..\..\..\..\..\Software\uCOS-III\Source/os_sem.c **** * Arguments  : p_sem     is a pointer to the semaphore
 661:..\..\..\..\..\..\Software\uCOS-III\Source/os_sem.c **** *
 662:..\..\..\..\..\..\Software\uCOS-III\Source/os_sem.c **** *              cnt       is the new value for the semaphore count.  You would pass 0 to reset the s
 663:..\..\..\..\..\..\Software\uCOS-III\Source/os_sem.c **** *
 664:..\..\..\..\..\..\Software\uCOS-III\Source/os_sem.c **** *              p_err     is a pointer to a variable that will contain an error code returned by thi
 665:..\..\..\..\..\..\Software\uCOS-III\Source/os_sem.c **** *
 666:..\..\..\..\..\..\Software\uCOS-III\Source/os_sem.c **** *                            OS_ERR_NONE           The call was successful and the semaphore value 
 667:..\..\..\..\..\..\Software\uCOS-III\Source/os_sem.c **** *                            OS_ERR_OBJ_PTR_NULL   If 'p_sem' is a NULL pointer.
 668:..\..\..\..\..\..\Software\uCOS-III\Source/os_sem.c **** *                            OS_ERR_OBJ_TYPE       If 'p_sem' is not pointing to a semaphore.
 669:..\..\..\..\..\..\Software\uCOS-III\Source/os_sem.c **** *                            OS_ERR_TASK_WAITING   If tasks are waiting on the semaphore.
 670:..\..\..\..\..\..\Software\uCOS-III\Source/os_sem.c **** *
 671:..\..\..\..\..\..\Software\uCOS-III\Source/os_sem.c **** * Returns    : None
 672:..\..\..\..\..\..\Software\uCOS-III\Source/os_sem.c **** ***************************************************************************************************
 673:..\..\..\..\..\..\Software\uCOS-III\Source/os_sem.c **** */
 674:..\..\..\..\..\..\Software\uCOS-III\Source/os_sem.c **** 
 675:..\..\..\..\..\..\Software\uCOS-III\Source/os_sem.c **** #if OS_CFG_SEM_SET_EN > 0u
 676:..\..\..\..\..\..\Software\uCOS-III\Source/os_sem.c **** void  OSSemSet (OS_SEM      *p_sem,
 677:..\..\..\..\..\..\Software\uCOS-III\Source/os_sem.c ****                 OS_SEM_CTR   cnt,
 678:..\..\..\..\..\..\Software\uCOS-III\Source/os_sem.c ****                 OS_ERR      *p_err)
 679:..\..\..\..\..\..\Software\uCOS-III\Source/os_sem.c **** {
 634              		.loc 1 679 1 view -0
 635              		.cfi_startproc
 636              		@ args = 0, pretend = 0, frame = 0
 637              		@ frame_needed = 0, uses_anonymous_args = 0
 638              		.loc 1 679 1 is_stmt 0 view .LVU216
 639 0000 F8B5     		push	{r3, r4, r5, r6, r7, lr}
 640              		.cfi_def_cfa_offset 24
 641              		.cfi_offset 3, -24
 642              		.cfi_offset 4, -20
 643              		.cfi_offset 5, -16
 644              		.cfi_offset 6, -12
 645              		.cfi_offset 7, -8
 646              		.cfi_offset 14, -4
 647 0002 0400     		movs	r4, r0
 648 0004 0E00     		movs	r6, r1
 649 0006 1500     		movs	r5, r2
 680:..\..\..\..\..\..\Software\uCOS-III\Source/os_sem.c ****     OS_PEND_LIST  *p_pend_list;
 650              		.loc 1 680 5 is_stmt 1 view .LVU217
 681:..\..\..\..\..\..\Software\uCOS-III\Source/os_sem.c ****     CPU_SR_ALLOC();
 651              		.loc 1 681 5 view .LVU218
 652              	.LVL65:
 682:..\..\..\..\..\..\Software\uCOS-III\Source/os_sem.c **** 
 683:..\..\..\..\..\..\Software\uCOS-III\Source/os_sem.c **** 
 684:..\..\..\..\..\..\Software\uCOS-III\Source/os_sem.c **** 
 685:..\..\..\..\..\..\Software\uCOS-III\Source/os_sem.c **** #ifdef OS_SAFETY_CRITICAL
 686:..\..\..\..\..\..\Software\uCOS-III\Source/os_sem.c ****     if (p_err == (OS_ERR *)0) {
 687:..\..\..\..\..\..\Software\uCOS-III\Source/os_sem.c ****         OS_SAFETY_CRITICAL_EXCEPTION();
ARM GAS  C:\Users\EDULU~1.DES\AppData\Local\Temp\ccfRue3n.s 			page 27


 688:..\..\..\..\..\..\Software\uCOS-III\Source/os_sem.c ****         return;
 689:..\..\..\..\..\..\Software\uCOS-III\Source/os_sem.c ****     }
 690:..\..\..\..\..\..\Software\uCOS-III\Source/os_sem.c **** #endif
 691:..\..\..\..\..\..\Software\uCOS-III\Source/os_sem.c **** 
 692:..\..\..\..\..\..\Software\uCOS-III\Source/os_sem.c **** #if OS_CFG_CALLED_FROM_ISR_CHK_EN > 0u
 693:..\..\..\..\..\..\Software\uCOS-III\Source/os_sem.c ****     if (OSIntNestingCtr > (OS_NESTING_CTR)0) {              /* Can't call this function from an ISR
 653              		.loc 1 693 5 view .LVU219
 654              		.loc 1 693 25 is_stmt 0 view .LVU220
 655 0008 124B     		ldr	r3, .L57
 656 000a 1B78     		ldrb	r3, [r3]
 657              		.loc 1 693 8 view .LVU221
 658 000c 002B     		cmp	r3, #0
 659 000e 12D1     		bne	.L55
 694:..\..\..\..\..\..\Software\uCOS-III\Source/os_sem.c ****        *p_err = OS_ERR_SET_ISR;
 695:..\..\..\..\..\..\Software\uCOS-III\Source/os_sem.c ****         return;
 696:..\..\..\..\..\..\Software\uCOS-III\Source/os_sem.c ****     }
 697:..\..\..\..\..\..\Software\uCOS-III\Source/os_sem.c **** #endif
 698:..\..\..\..\..\..\Software\uCOS-III\Source/os_sem.c **** 
 699:..\..\..\..\..\..\Software\uCOS-III\Source/os_sem.c **** #if OS_CFG_ARG_CHK_EN > 0u
 700:..\..\..\..\..\..\Software\uCOS-III\Source/os_sem.c ****     if (p_sem == (OS_SEM *)0) {                             /* Validate 'p_sem'                    
 660              		.loc 1 700 5 is_stmt 1 view .LVU222
 661              		.loc 1 700 8 is_stmt 0 view .LVU223
 662 0010 0028     		cmp	r0, #0
 663 0012 13D0     		beq	.L56
 701:..\..\..\..\..\..\Software\uCOS-III\Source/os_sem.c ****        *p_err = OS_ERR_OBJ_PTR_NULL;
 702:..\..\..\..\..\..\Software\uCOS-III\Source/os_sem.c ****         return;
 703:..\..\..\..\..\..\Software\uCOS-III\Source/os_sem.c ****     }
 704:..\..\..\..\..\..\Software\uCOS-III\Source/os_sem.c **** #endif
 705:..\..\..\..\..\..\Software\uCOS-III\Source/os_sem.c **** 
 706:..\..\..\..\..\..\Software\uCOS-III\Source/os_sem.c **** #if OS_CFG_OBJ_TYPE_CHK_EN > 0u
 707:..\..\..\..\..\..\Software\uCOS-III\Source/os_sem.c ****     if (p_sem->Type != OS_OBJ_TYPE_SEM) {                   /* Make sure semaphore was created     
 708:..\..\..\..\..\..\Software\uCOS-III\Source/os_sem.c ****        *p_err = OS_ERR_OBJ_TYPE;
 709:..\..\..\..\..\..\Software\uCOS-III\Source/os_sem.c ****         return;
 710:..\..\..\..\..\..\Software\uCOS-III\Source/os_sem.c ****     }
 711:..\..\..\..\..\..\Software\uCOS-III\Source/os_sem.c **** #endif
 712:..\..\..\..\..\..\Software\uCOS-III\Source/os_sem.c **** 
 713:..\..\..\..\..\..\Software\uCOS-III\Source/os_sem.c ****    *p_err = OS_ERR_NONE;
 664              		.loc 1 713 4 is_stmt 1 view .LVU224
 665              		.loc 1 713 11 is_stmt 0 view .LVU225
 666 0014 0023     		movs	r3, #0
 667 0016 1380     		strh	r3, [r2]
 714:..\..\..\..\..\..\Software\uCOS-III\Source/os_sem.c ****     CPU_CRITICAL_ENTER();
 668              		.loc 1 714 5 is_stmt 1 view .LVU226
 669              		.loc 1 714 5 view .LVU227
 670              		.loc 1 714 5 view .LVU228
 671 0018 FFF7FEFF 		bl	CPU_SR_Save
 672              	.LVL66:
 673              		.loc 1 714 5 is_stmt 0 view .LVU229
 674 001c 0700     		movs	r7, r0
 675              	.LVL67:
 676              		.loc 1 714 5 is_stmt 1 view .LVU230
 677 001e FFF7FEFF 		bl	CPU_IntDisMeasStart
 678              	.LVL68:
 715:..\..\..\..\..\..\Software\uCOS-III\Source/os_sem.c ****     if (p_sem->Ctr > (OS_SEM_CTR)0) {                       /* See if semaphore already has a count
 679              		.loc 1 715 5 view .LVU231
 680              		.loc 1 715 8 is_stmt 0 view .LVU232
 681 0022 236A     		ldr	r3, [r4, #32]
ARM GAS  C:\Users\EDULU~1.DES\AppData\Local\Temp\ccfRue3n.s 			page 28


 682 0024 002B     		cmp	r3, #0
 683 0026 0CD0     		beq	.L52
 716:..\..\..\..\..\..\Software\uCOS-III\Source/os_sem.c ****         p_sem->Ctr = cnt;                                   /* Yes, set it to the new value specifi
 684              		.loc 1 716 9 is_stmt 1 view .LVU233
 685              		.loc 1 716 20 is_stmt 0 view .LVU234
 686 0028 2662     		str	r6, [r4, #32]
 687              	.L53:
 717:..\..\..\..\..\..\Software\uCOS-III\Source/os_sem.c ****     } else {
 718:..\..\..\..\..\..\Software\uCOS-III\Source/os_sem.c ****         p_pend_list = &p_sem->PendList;                     /* No                                  
 719:..\..\..\..\..\..\Software\uCOS-III\Source/os_sem.c ****         if (p_pend_list->NbrEntries == (OS_OBJ_QTY)0) {     /*      See if task(s) waiting?        
 720:..\..\..\..\..\..\Software\uCOS-III\Source/os_sem.c ****             p_sem->Ctr = cnt;                               /*      No, OK to set the value        
 721:..\..\..\..\..\..\Software\uCOS-III\Source/os_sem.c ****         } else {
 722:..\..\..\..\..\..\Software\uCOS-III\Source/os_sem.c ****            *p_err      = OS_ERR_TASK_WAITING;
 723:..\..\..\..\..\..\Software\uCOS-III\Source/os_sem.c ****         }
 724:..\..\..\..\..\..\Software\uCOS-III\Source/os_sem.c ****     }
 725:..\..\..\..\..\..\Software\uCOS-III\Source/os_sem.c ****     CPU_CRITICAL_EXIT();
 688              		.loc 1 725 5 is_stmt 1 view .LVU235
 689              		.loc 1 725 5 view .LVU236
 690 002a FFF7FEFF 		bl	CPU_IntDisMeasStop
 691              	.LVL69:
 692              		.loc 1 725 5 view .LVU237
 693              		.loc 1 725 5 view .LVU238
 694 002e 3800     		movs	r0, r7
 695 0030 FFF7FEFF 		bl	CPU_SR_Restore
 696              	.LVL70:
 697              	.L48:
 726:..\..\..\..\..\..\Software\uCOS-III\Source/os_sem.c **** }
 698              		.loc 1 726 1 is_stmt 0 view .LVU239
 699              		@ sp needed
 700              	.LVL71:
 701              	.LVL72:
 702              	.LVL73:
 703              		.loc 1 726 1 view .LVU240
 704 0034 F8BD     		pop	{r3, r4, r5, r6, r7, pc}
 705              	.LVL74:
 706              	.L55:
 694:..\..\..\..\..\..\Software\uCOS-III\Source/os_sem.c ****         return;
 707              		.loc 1 694 8 is_stmt 1 view .LVU241
 694:..\..\..\..\..\..\Software\uCOS-III\Source/os_sem.c ****         return;
 708              		.loc 1 694 15 is_stmt 0 view .LVU242
 709 0036 084B     		ldr	r3, .L57+4
 710 0038 1380     		strh	r3, [r2]
 695:..\..\..\..\..\..\Software\uCOS-III\Source/os_sem.c ****     }
 711              		.loc 1 695 9 is_stmt 1 view .LVU243
 712 003a FBE7     		b	.L48
 713              	.L56:
 701:..\..\..\..\..\..\Software\uCOS-III\Source/os_sem.c ****         return;
 714              		.loc 1 701 8 view .LVU244
 701:..\..\..\..\..\..\Software\uCOS-III\Source/os_sem.c ****         return;
 715              		.loc 1 701 15 is_stmt 0 view .LVU245
 716 003c 074B     		ldr	r3, .L57+8
 717 003e 1380     		strh	r3, [r2]
 702:..\..\..\..\..\..\Software\uCOS-III\Source/os_sem.c ****     }
 718              		.loc 1 702 9 is_stmt 1 view .LVU246
 719 0040 F8E7     		b	.L48
 720              	.LVL75:
 721              	.L52:
ARM GAS  C:\Users\EDULU~1.DES\AppData\Local\Temp\ccfRue3n.s 			page 29


 718:..\..\..\..\..\..\Software\uCOS-III\Source/os_sem.c ****         if (p_pend_list->NbrEntries == (OS_OBJ_QTY)0) {     /*      See if task(s) waiting?        
 722              		.loc 1 718 9 view .LVU247
 719:..\..\..\..\..\..\Software\uCOS-III\Source/os_sem.c ****             p_sem->Ctr = cnt;                               /*      No, OK to set the value        
 723              		.loc 1 719 9 view .LVU248
 719:..\..\..\..\..\..\Software\uCOS-III\Source/os_sem.c ****             p_sem->Ctr = cnt;                               /*      No, OK to set the value        
 724              		.loc 1 719 24 is_stmt 0 view .LVU249
 725 0042 238A     		ldrh	r3, [r4, #16]
 719:..\..\..\..\..\..\Software\uCOS-III\Source/os_sem.c ****             p_sem->Ctr = cnt;                               /*      No, OK to set the value        
 726              		.loc 1 719 12 view .LVU250
 727 0044 002B     		cmp	r3, #0
 728 0046 01D1     		bne	.L54
 720:..\..\..\..\..\..\Software\uCOS-III\Source/os_sem.c ****         } else {
 729              		.loc 1 720 13 is_stmt 1 view .LVU251
 720:..\..\..\..\..\..\Software\uCOS-III\Source/os_sem.c ****         } else {
 730              		.loc 1 720 24 is_stmt 0 view .LVU252
 731 0048 2662     		str	r6, [r4, #32]
 732 004a EEE7     		b	.L53
 733              	.L54:
 722:..\..\..\..\..\..\Software\uCOS-III\Source/os_sem.c ****         }
 734              		.loc 1 722 12 is_stmt 1 view .LVU253
 722:..\..\..\..\..\..\Software\uCOS-III\Source/os_sem.c ****         }
 735              		.loc 1 722 24 is_stmt 0 view .LVU254
 736 004c 044B     		ldr	r3, .L57+12
 737 004e 2B80     		strh	r3, [r5]
 738 0050 EBE7     		b	.L53
 739              	.L58:
 740 0052 C046     		.align	2
 741              	.L57:
 742 0054 00000000 		.word	OSIntNestingCtr
 743 0058 C66D0000 		.word	28102
 744 005c C35D0000 		.word	24003
 745 0060 5F710000 		.word	29023
 746              		.cfi_endproc
 747              	.LFE7:
 748              		.size	OSSemSet, .-OSSemSet
 749              		.section	.text.OS_SemClr,"ax",%progbits
 750              		.align	1
 751              		.global	OS_SemClr
 752              		.syntax unified
 753              		.code	16
 754              		.thumb_func
 755              		.fpu softvfp
 756              		.type	OS_SemClr, %function
 757              	OS_SemClr:
 758              	.LVL76:
 759              	.LFB8:
 727:..\..\..\..\..\..\Software\uCOS-III\Source/os_sem.c **** #endif
 728:..\..\..\..\..\..\Software\uCOS-III\Source/os_sem.c **** 
 729:..\..\..\..\..\..\Software\uCOS-III\Source/os_sem.c **** /*$PAGE*/
 730:..\..\..\..\..\..\Software\uCOS-III\Source/os_sem.c **** /*
 731:..\..\..\..\..\..\Software\uCOS-III\Source/os_sem.c **** ***************************************************************************************************
 732:..\..\..\..\..\..\Software\uCOS-III\Source/os_sem.c **** *                                           CLEAR THE CONTENTS OF A SEMAPHORE
 733:..\..\..\..\..\..\Software\uCOS-III\Source/os_sem.c **** *
 734:..\..\..\..\..\..\Software\uCOS-III\Source/os_sem.c **** * Description: This function is called by OSSemDel() to clear the contents of a semaphore
 735:..\..\..\..\..\..\Software\uCOS-III\Source/os_sem.c **** *
 736:..\..\..\..\..\..\Software\uCOS-III\Source/os_sem.c **** 
 737:..\..\..\..\..\..\Software\uCOS-III\Source/os_sem.c **** * Argument(s): p_sem      is a pointer to the semaphore to clear
ARM GAS  C:\Users\EDULU~1.DES\AppData\Local\Temp\ccfRue3n.s 			page 30


 738:..\..\..\..\..\..\Software\uCOS-III\Source/os_sem.c **** *              -----
 739:..\..\..\..\..\..\Software\uCOS-III\Source/os_sem.c **** *
 740:..\..\..\..\..\..\Software\uCOS-III\Source/os_sem.c **** * Returns    : none
 741:..\..\..\..\..\..\Software\uCOS-III\Source/os_sem.c **** *
 742:..\..\..\..\..\..\Software\uCOS-III\Source/os_sem.c **** * Note(s)    : 1) This function is INTERNAL to uC/OS-III and your application MUST NOT call it.
 743:..\..\..\..\..\..\Software\uCOS-III\Source/os_sem.c **** ***************************************************************************************************
 744:..\..\..\..\..\..\Software\uCOS-III\Source/os_sem.c **** */
 745:..\..\..\..\..\..\Software\uCOS-III\Source/os_sem.c **** 
 746:..\..\..\..\..\..\Software\uCOS-III\Source/os_sem.c **** void  OS_SemClr (OS_SEM  *p_sem)
 747:..\..\..\..\..\..\Software\uCOS-III\Source/os_sem.c **** {
 760              		.loc 1 747 1 is_stmt 1 view -0
 761              		.cfi_startproc
 762              		@ args = 0, pretend = 0, frame = 0
 763              		@ frame_needed = 0, uses_anonymous_args = 0
 764              		.loc 1 747 1 is_stmt 0 view .LVU256
 765 0000 10B5     		push	{r4, lr}
 766              		.cfi_def_cfa_offset 8
 767              		.cfi_offset 4, -8
 768              		.cfi_offset 14, -4
 748:..\..\..\..\..\..\Software\uCOS-III\Source/os_sem.c ****     p_sem->Type    = OS_OBJ_TYPE_NONE;                      /* Mark the data structure as a NONE   
 769              		.loc 1 748 5 is_stmt 1 view .LVU257
 770              		.loc 1 748 20 is_stmt 0 view .LVU258
 771 0002 054B     		ldr	r3, .L60
 772 0004 0360     		str	r3, [r0]
 749:..\..\..\..\..\..\Software\uCOS-III\Source/os_sem.c ****     p_sem->Ctr     = (OS_SEM_CTR)0;                         /* Set semaphore value                 
 773              		.loc 1 749 5 is_stmt 1 view .LVU259
 774              		.loc 1 749 20 is_stmt 0 view .LVU260
 775 0006 0023     		movs	r3, #0
 776 0008 0362     		str	r3, [r0, #32]
 750:..\..\..\..\..\..\Software\uCOS-III\Source/os_sem.c ****     p_sem->TS      = (CPU_TS    )0;                         /* Clear the time stamp                
 777              		.loc 1 750 5 is_stmt 1 view .LVU261
 778              		.loc 1 750 20 is_stmt 0 view .LVU262
 779 000a 4362     		str	r3, [r0, #36]
 751:..\..\..\..\..\..\Software\uCOS-III\Source/os_sem.c ****     p_sem->NamePtr = (CPU_CHAR *)((void *)"?SEM");
 780              		.loc 1 751 5 is_stmt 1 view .LVU263
 781              		.loc 1 751 20 is_stmt 0 view .LVU264
 782 000c 034B     		ldr	r3, .L60+4
 783 000e 4360     		str	r3, [r0, #4]
 752:..\..\..\..\..\..\Software\uCOS-III\Source/os_sem.c ****     OS_PendListInit(&p_sem->PendList);                      /* Initialize the waiting list         
 784              		.loc 1 752 5 is_stmt 1 view .LVU265
 785 0010 0830     		adds	r0, r0, #8
 786              	.LVL77:
 787              		.loc 1 752 5 is_stmt 0 view .LVU266
 788 0012 FFF7FEFF 		bl	OS_PendListInit
 789              	.LVL78:
 753:..\..\..\..\..\..\Software\uCOS-III\Source/os_sem.c **** }
 790              		.loc 1 753 1 view .LVU267
 791              		@ sp needed
 792 0016 10BD     		pop	{r4, pc}
 793              	.L61:
 794              		.align	2
 795              	.L60:
 796 0018 4E4F4E45 		.word	1162760014
 797 001c 00000000 		.word	.LC5
 798              		.cfi_endproc
 799              	.LFE8:
 800              		.size	OS_SemClr, .-OS_SemClr
ARM GAS  C:\Users\EDULU~1.DES\AppData\Local\Temp\ccfRue3n.s 			page 31


 801              		.section	.text.OS_SemDbgListAdd,"ax",%progbits
 802              		.align	1
 803              		.global	OS_SemDbgListAdd
 804              		.syntax unified
 805              		.code	16
 806              		.thumb_func
 807              		.fpu softvfp
 808              		.type	OS_SemDbgListAdd, %function
 809              	OS_SemDbgListAdd:
 810              	.LVL79:
 811              	.LFB9:
 754:..\..\..\..\..\..\Software\uCOS-III\Source/os_sem.c **** 
 755:..\..\..\..\..\..\Software\uCOS-III\Source/os_sem.c **** /*$PAGE*/
 756:..\..\..\..\..\..\Software\uCOS-III\Source/os_sem.c **** /*
 757:..\..\..\..\..\..\Software\uCOS-III\Source/os_sem.c **** ***************************************************************************************************
 758:..\..\..\..\..\..\Software\uCOS-III\Source/os_sem.c **** *                                        ADD/REMOVE SEMAPHORE TO/FROM DEBUG LIST
 759:..\..\..\..\..\..\Software\uCOS-III\Source/os_sem.c **** *
 760:..\..\..\..\..\..\Software\uCOS-III\Source/os_sem.c **** * Description: These functions are called by uC/OS-III to add or remove a semaphore to/from the deb
 761:..\..\..\..\..\..\Software\uCOS-III\Source/os_sem.c **** *
 762:..\..\..\..\..\..\Software\uCOS-III\Source/os_sem.c **** * Arguments  : p_sem     is a pointer to the semaphore to add/remove
 763:..\..\..\..\..\..\Software\uCOS-III\Source/os_sem.c **** *
 764:..\..\..\..\..\..\Software\uCOS-III\Source/os_sem.c **** * Returns    : none
 765:..\..\..\..\..\..\Software\uCOS-III\Source/os_sem.c **** *
 766:..\..\..\..\..\..\Software\uCOS-III\Source/os_sem.c **** * Note(s)    : These functions are INTERNAL to uC/OS-III and your application should not call it.
 767:..\..\..\..\..\..\Software\uCOS-III\Source/os_sem.c **** ***************************************************************************************************
 768:..\..\..\..\..\..\Software\uCOS-III\Source/os_sem.c **** */
 769:..\..\..\..\..\..\Software\uCOS-III\Source/os_sem.c **** 
 770:..\..\..\..\..\..\Software\uCOS-III\Source/os_sem.c **** 
 771:..\..\..\..\..\..\Software\uCOS-III\Source/os_sem.c **** #if OS_CFG_DBG_EN > 0u
 772:..\..\..\..\..\..\Software\uCOS-III\Source/os_sem.c **** void  OS_SemDbgListAdd (OS_SEM  *p_sem)
 773:..\..\..\..\..\..\Software\uCOS-III\Source/os_sem.c **** {
 812              		.loc 1 773 1 is_stmt 1 view -0
 813              		.cfi_startproc
 814              		@ args = 0, pretend = 0, frame = 0
 815              		@ frame_needed = 0, uses_anonymous_args = 0
 816              		@ link register save eliminated.
 774:..\..\..\..\..\..\Software\uCOS-III\Source/os_sem.c ****     p_sem->DbgNamePtr               = (CPU_CHAR *)((void *)" ");
 817              		.loc 1 774 5 view .LVU269
 818              		.loc 1 774 37 is_stmt 0 view .LVU270
 819 0000 074B     		ldr	r3, .L66
 820 0002 C361     		str	r3, [r0, #28]
 775:..\..\..\..\..\..\Software\uCOS-III\Source/os_sem.c ****     p_sem->DbgPrevPtr               = (OS_SEM   *)0;
 821              		.loc 1 775 5 is_stmt 1 view .LVU271
 822              		.loc 1 775 37 is_stmt 0 view .LVU272
 823 0004 0023     		movs	r3, #0
 824 0006 4361     		str	r3, [r0, #20]
 776:..\..\..\..\..\..\Software\uCOS-III\Source/os_sem.c ****     if (OSSemDbgListPtr == (OS_SEM *)0) {
 825              		.loc 1 776 5 is_stmt 1 view .LVU273
 826              		.loc 1 776 25 is_stmt 0 view .LVU274
 827 0008 064B     		ldr	r3, .L66+4
 828 000a 1B68     		ldr	r3, [r3]
 829              		.loc 1 776 8 view .LVU275
 830 000c 002B     		cmp	r3, #0
 831 000e 04D0     		beq	.L65
 777:..\..\..\..\..\..\Software\uCOS-III\Source/os_sem.c ****         p_sem->DbgNextPtr           = (OS_SEM   *)0;
 778:..\..\..\..\..\..\Software\uCOS-III\Source/os_sem.c ****     } else {
 779:..\..\..\..\..\..\Software\uCOS-III\Source/os_sem.c ****         p_sem->DbgNextPtr           =  OSSemDbgListPtr;
ARM GAS  C:\Users\EDULU~1.DES\AppData\Local\Temp\ccfRue3n.s 			page 32


 832              		.loc 1 779 9 is_stmt 1 view .LVU276
 833              		.loc 1 779 37 is_stmt 0 view .LVU277
 834 0010 8361     		str	r3, [r0, #24]
 780:..\..\..\..\..\..\Software\uCOS-III\Source/os_sem.c ****         OSSemDbgListPtr->DbgPrevPtr =  p_sem;
 835              		.loc 1 780 9 is_stmt 1 view .LVU278
 836              		.loc 1 780 37 is_stmt 0 view .LVU279
 837 0012 5861     		str	r0, [r3, #20]
 838              	.L64:
 781:..\..\..\..\..\..\Software\uCOS-III\Source/os_sem.c ****     }
 782:..\..\..\..\..\..\Software\uCOS-III\Source/os_sem.c ****     OSSemDbgListPtr                 =  p_sem;
 839              		.loc 1 782 5 is_stmt 1 view .LVU280
 840              		.loc 1 782 37 is_stmt 0 view .LVU281
 841 0014 034B     		ldr	r3, .L66+4
 842 0016 1860     		str	r0, [r3]
 783:..\..\..\..\..\..\Software\uCOS-III\Source/os_sem.c **** }
 843              		.loc 1 783 1 view .LVU282
 844              		@ sp needed
 845 0018 7047     		bx	lr
 846              	.L65:
 777:..\..\..\..\..\..\Software\uCOS-III\Source/os_sem.c ****     } else {
 847              		.loc 1 777 9 is_stmt 1 view .LVU283
 777:..\..\..\..\..\..\Software\uCOS-III\Source/os_sem.c ****     } else {
 848              		.loc 1 777 37 is_stmt 0 view .LVU284
 849 001a 8361     		str	r3, [r0, #24]
 850 001c FAE7     		b	.L64
 851              	.L67:
 852 001e C046     		.align	2
 853              	.L66:
 854 0020 08000000 		.word	.LC7
 855 0024 00000000 		.word	OSSemDbgListPtr
 856              		.cfi_endproc
 857              	.LFE9:
 858              		.size	OS_SemDbgListAdd, .-OS_SemDbgListAdd
 859              		.section	.text.OSSemCreate,"ax",%progbits
 860              		.align	1
 861              		.global	OSSemCreate
 862              		.syntax unified
 863              		.code	16
 864              		.thumb_func
 865              		.fpu softvfp
 866              		.type	OSSemCreate, %function
 867              	OSSemCreate:
 868              	.LVL80:
 869              	.LFB3:
  77:..\..\..\..\..\..\Software\uCOS-III\Source/os_sem.c ****     CPU_SR_ALLOC();
 870              		.loc 1 77 1 is_stmt 1 view -0
 871              		.cfi_startproc
 872              		@ args = 0, pretend = 0, frame = 8
 873              		@ frame_needed = 0, uses_anonymous_args = 0
  77:..\..\..\..\..\..\Software\uCOS-III\Source/os_sem.c ****     CPU_SR_ALLOC();
 874              		.loc 1 77 1 is_stmt 0 view .LVU286
 875 0000 F0B5     		push	{r4, r5, r6, r7, lr}
 876              		.cfi_def_cfa_offset 20
 877              		.cfi_offset 4, -20
 878              		.cfi_offset 5, -16
 879              		.cfi_offset 6, -12
 880              		.cfi_offset 7, -8
ARM GAS  C:\Users\EDULU~1.DES\AppData\Local\Temp\ccfRue3n.s 			page 33


 881              		.cfi_offset 14, -4
 882 0002 83B0     		sub	sp, sp, #12
 883              		.cfi_def_cfa_offset 32
 884 0004 0400     		movs	r4, r0
 885 0006 0D00     		movs	r5, r1
 886 0008 1600     		movs	r6, r2
 887 000a 1F00     		movs	r7, r3
  78:..\..\..\..\..\..\Software\uCOS-III\Source/os_sem.c **** 
 888              		.loc 1 78 5 is_stmt 1 view .LVU287
 889              	.LVL81:
  97:..\..\..\..\..\..\Software\uCOS-III\Source/os_sem.c ****        *p_err = OS_ERR_CREATE_ISR;
 890              		.loc 1 97 5 view .LVU288
  97:..\..\..\..\..\..\Software\uCOS-III\Source/os_sem.c ****        *p_err = OS_ERR_CREATE_ISR;
 891              		.loc 1 97 25 is_stmt 0 view .LVU289
 892 000c 154B     		ldr	r3, .L74
 893              	.LVL82:
  97:..\..\..\..\..\..\Software\uCOS-III\Source/os_sem.c ****        *p_err = OS_ERR_CREATE_ISR;
 894              		.loc 1 97 25 view .LVU290
 895 000e 1B78     		ldrb	r3, [r3]
  97:..\..\..\..\..\..\Software\uCOS-III\Source/os_sem.c ****        *p_err = OS_ERR_CREATE_ISR;
 896              		.loc 1 97 8 view .LVU291
 897 0010 002B     		cmp	r3, #0
 898 0012 20D1     		bne	.L72
 104:..\..\..\..\..\..\Software\uCOS-III\Source/os_sem.c ****        *p_err = OS_ERR_OBJ_PTR_NULL;
 899              		.loc 1 104 5 is_stmt 1 view .LVU292
 104:..\..\..\..\..\..\Software\uCOS-III\Source/os_sem.c ****        *p_err = OS_ERR_OBJ_PTR_NULL;
 900              		.loc 1 104 8 is_stmt 0 view .LVU293
 901 0014 0028     		cmp	r0, #0
 902 0016 21D0     		beq	.L73
 110:..\..\..\..\..\..\Software\uCOS-III\Source/os_sem.c ****     p_sem->Type    = OS_OBJ_TYPE_SEM;                       /* Mark the data structure as a semapho
 903              		.loc 1 110 5 is_stmt 1 view .LVU294
 110:..\..\..\..\..\..\Software\uCOS-III\Source/os_sem.c ****     p_sem->Type    = OS_OBJ_TYPE_SEM;                       /* Mark the data structure as a semapho
 904              		.loc 1 110 5 view .LVU295
 110:..\..\..\..\..\..\Software\uCOS-III\Source/os_sem.c ****     p_sem->Type    = OS_OBJ_TYPE_SEM;                       /* Mark the data structure as a semapho
 905              		.loc 1 110 5 view .LVU296
 906 0018 FFF7FEFF 		bl	CPU_SR_Save
 907              	.LVL83:
 110:..\..\..\..\..\..\Software\uCOS-III\Source/os_sem.c ****     p_sem->Type    = OS_OBJ_TYPE_SEM;                       /* Mark the data structure as a semapho
 908              		.loc 1 110 5 is_stmt 0 view .LVU297
 909 001c 0190     		str	r0, [sp, #4]
 910              	.LVL84:
 110:..\..\..\..\..\..\Software\uCOS-III\Source/os_sem.c ****     p_sem->Type    = OS_OBJ_TYPE_SEM;                       /* Mark the data structure as a semapho
 911              		.loc 1 110 5 is_stmt 1 view .LVU298
 912 001e FFF7FEFF 		bl	CPU_IntDisMeasStart
 913              	.LVL85:
 111:..\..\..\..\..\..\Software\uCOS-III\Source/os_sem.c ****     p_sem->Ctr     = cnt;                                   /* Set semaphore value                 
 914              		.loc 1 111 5 view .LVU299
 111:..\..\..\..\..\..\Software\uCOS-III\Source/os_sem.c ****     p_sem->Ctr     = cnt;                                   /* Set semaphore value                 
 915              		.loc 1 111 20 is_stmt 0 view .LVU300
 916 0022 114B     		ldr	r3, .L74+4
 917 0024 2360     		str	r3, [r4]
 112:..\..\..\..\..\..\Software\uCOS-III\Source/os_sem.c ****     p_sem->TS      = (CPU_TS)0;
 918              		.loc 1 112 5 is_stmt 1 view .LVU301
 112:..\..\..\..\..\..\Software\uCOS-III\Source/os_sem.c ****     p_sem->TS      = (CPU_TS)0;
 919              		.loc 1 112 20 is_stmt 0 view .LVU302
 920 0026 2662     		str	r6, [r4, #32]
 113:..\..\..\..\..\..\Software\uCOS-III\Source/os_sem.c ****     p_sem->NamePtr = p_name;                                /* Save the name of the semaphore      
ARM GAS  C:\Users\EDULU~1.DES\AppData\Local\Temp\ccfRue3n.s 			page 34


 921              		.loc 1 113 5 is_stmt 1 view .LVU303
 113:..\..\..\..\..\..\Software\uCOS-III\Source/os_sem.c ****     p_sem->NamePtr = p_name;                                /* Save the name of the semaphore      
 922              		.loc 1 113 20 is_stmt 0 view .LVU304
 923 0028 0026     		movs	r6, #0
 924              	.LVL86:
 113:..\..\..\..\..\..\Software\uCOS-III\Source/os_sem.c ****     p_sem->NamePtr = p_name;                                /* Save the name of the semaphore      
 925              		.loc 1 113 20 view .LVU305
 926 002a 6662     		str	r6, [r4, #36]
 114:..\..\..\..\..\..\Software\uCOS-III\Source/os_sem.c ****     OS_PendListInit(&p_sem->PendList);                      /* Initialize the waiting list         
 927              		.loc 1 114 5 is_stmt 1 view .LVU306
 114:..\..\..\..\..\..\Software\uCOS-III\Source/os_sem.c ****     OS_PendListInit(&p_sem->PendList);                      /* Initialize the waiting list         
 928              		.loc 1 114 20 is_stmt 0 view .LVU307
 929 002c 6560     		str	r5, [r4, #4]
 115:..\..\..\..\..\..\Software\uCOS-III\Source/os_sem.c **** 
 930              		.loc 1 115 5 is_stmt 1 view .LVU308
 931 002e 2300     		movs	r3, r4
 932 0030 0833     		adds	r3, r3, #8
 933 0032 1800     		movs	r0, r3
 934 0034 FFF7FEFF 		bl	OS_PendListInit
 935              	.LVL87:
 118:..\..\..\..\..\..\Software\uCOS-III\Source/os_sem.c **** #endif
 936              		.loc 1 118 5 view .LVU309
 937 0038 2000     		movs	r0, r4
 938 003a FFF7FEFF 		bl	OS_SemDbgListAdd
 939              	.LVL88:
 120:..\..\..\..\..\..\Software\uCOS-III\Source/os_sem.c **** 
 940              		.loc 1 120 5 view .LVU310
 120:..\..\..\..\..\..\Software\uCOS-III\Source/os_sem.c **** 
 941              		.loc 1 120 13 is_stmt 0 view .LVU311
 942 003e 0B4A     		ldr	r2, .L74+8
 943 0040 1388     		ldrh	r3, [r2]
 944 0042 0133     		adds	r3, r3, #1
 945 0044 1380     		strh	r3, [r2]
 122:..\..\..\..\..\..\Software\uCOS-III\Source/os_sem.c ****    *p_err = OS_ERR_NONE;
 946              		.loc 1 122 5 is_stmt 1 view .LVU312
 122:..\..\..\..\..\..\Software\uCOS-III\Source/os_sem.c ****    *p_err = OS_ERR_NONE;
 947              		.loc 1 122 5 view .LVU313
 948 0046 FFF7FEFF 		bl	CPU_IntDisMeasStop
 949              	.LVL89:
 122:..\..\..\..\..\..\Software\uCOS-III\Source/os_sem.c ****    *p_err = OS_ERR_NONE;
 950              		.loc 1 122 5 view .LVU314
 122:..\..\..\..\..\..\Software\uCOS-III\Source/os_sem.c ****    *p_err = OS_ERR_NONE;
 951              		.loc 1 122 5 view .LVU315
 952 004a 0198     		ldr	r0, [sp, #4]
 953 004c FFF7FEFF 		bl	CPU_SR_Restore
 954              	.LVL90:
 123:..\..\..\..\..\..\Software\uCOS-III\Source/os_sem.c **** }
 955              		.loc 1 123 4 view .LVU316
 123:..\..\..\..\..\..\Software\uCOS-III\Source/os_sem.c **** }
 956              		.loc 1 123 11 is_stmt 0 view .LVU317
 957 0050 3E80     		strh	r6, [r7]
 958              	.LVL91:
 959              	.L68:
 124:..\..\..\..\..\..\Software\uCOS-III\Source/os_sem.c **** 
 960              		.loc 1 124 1 view .LVU318
 961 0052 03B0     		add	sp, sp, #12
 962              		@ sp needed
ARM GAS  C:\Users\EDULU~1.DES\AppData\Local\Temp\ccfRue3n.s 			page 35


 963              	.LVL92:
 964              	.LVL93:
 965              	.LVL94:
 124:..\..\..\..\..\..\Software\uCOS-III\Source/os_sem.c **** 
 966              		.loc 1 124 1 view .LVU319
 967 0054 F0BD     		pop	{r4, r5, r6, r7, pc}
 968              	.LVL95:
 969              	.L72:
  98:..\..\..\..\..\..\Software\uCOS-III\Source/os_sem.c ****         return;
 970              		.loc 1 98 8 is_stmt 1 view .LVU320
  98:..\..\..\..\..\..\Software\uCOS-III\Source/os_sem.c ****         return;
 971              		.loc 1 98 15 is_stmt 0 view .LVU321
 972 0056 064B     		ldr	r3, .L74+12
 973 0058 3B80     		strh	r3, [r7]
  99:..\..\..\..\..\..\Software\uCOS-III\Source/os_sem.c ****     }
 974              		.loc 1 99 9 is_stmt 1 view .LVU322
 975 005a FAE7     		b	.L68
 976              	.L73:
 105:..\..\..\..\..\..\Software\uCOS-III\Source/os_sem.c ****         return;
 977              		.loc 1 105 8 view .LVU323
 105:..\..\..\..\..\..\Software\uCOS-III\Source/os_sem.c ****         return;
 978              		.loc 1 105 15 is_stmt 0 view .LVU324
 979 005c 054B     		ldr	r3, .L74+16
 980 005e 3B80     		strh	r3, [r7]
 106:..\..\..\..\..\..\Software\uCOS-III\Source/os_sem.c ****     }
 981              		.loc 1 106 9 is_stmt 1 view .LVU325
 982 0060 F7E7     		b	.L68
 983              	.L75:
 984 0062 C046     		.align	2
 985              	.L74:
 986 0064 00000000 		.word	OSIntNestingCtr
 987 0068 53454D41 		.word	1095583059
 988 006c 00000000 		.word	OSSemQty
 989 0070 E12E0000 		.word	12001
 990 0074 C35D0000 		.word	24003
 991              		.cfi_endproc
 992              	.LFE3:
 993              		.size	OSSemCreate, .-OSSemCreate
 994              		.section	.text.OS_SemDbgListRemove,"ax",%progbits
 995              		.align	1
 996              		.global	OS_SemDbgListRemove
 997              		.syntax unified
 998              		.code	16
 999              		.thumb_func
 1000              		.fpu softvfp
 1001              		.type	OS_SemDbgListRemove, %function
 1002              	OS_SemDbgListRemove:
 1003              	.LVL96:
 1004              	.LFB10:
 784:..\..\..\..\..\..\Software\uCOS-III\Source/os_sem.c **** 
 785:..\..\..\..\..\..\Software\uCOS-III\Source/os_sem.c **** 
 786:..\..\..\..\..\..\Software\uCOS-III\Source/os_sem.c **** 
 787:..\..\..\..\..\..\Software\uCOS-III\Source/os_sem.c **** void  OS_SemDbgListRemove (OS_SEM  *p_sem)
 788:..\..\..\..\..\..\Software\uCOS-III\Source/os_sem.c **** {
 1005              		.loc 1 788 1 view -0
 1006              		.cfi_startproc
 1007              		@ args = 0, pretend = 0, frame = 0
ARM GAS  C:\Users\EDULU~1.DES\AppData\Local\Temp\ccfRue3n.s 			page 36


 1008              		@ frame_needed = 0, uses_anonymous_args = 0
 1009              		@ link register save eliminated.
 789:..\..\..\..\..\..\Software\uCOS-III\Source/os_sem.c ****     OS_SEM  *p_sem_next;
 1010              		.loc 1 789 5 view .LVU327
 790:..\..\..\..\..\..\Software\uCOS-III\Source/os_sem.c ****     OS_SEM  *p_sem_prev;
 1011              		.loc 1 790 5 view .LVU328
 791:..\..\..\..\..\..\Software\uCOS-III\Source/os_sem.c **** 
 792:..\..\..\..\..\..\Software\uCOS-III\Source/os_sem.c **** 
 793:..\..\..\..\..\..\Software\uCOS-III\Source/os_sem.c ****     p_sem_prev = p_sem->DbgPrevPtr;
 1012              		.loc 1 793 5 view .LVU329
 1013              		.loc 1 793 16 is_stmt 0 view .LVU330
 1014 0000 4269     		ldr	r2, [r0, #20]
 1015              	.LVL97:
 794:..\..\..\..\..\..\Software\uCOS-III\Source/os_sem.c ****     p_sem_next = p_sem->DbgNextPtr;
 1016              		.loc 1 794 5 is_stmt 1 view .LVU331
 1017              		.loc 1 794 16 is_stmt 0 view .LVU332
 1018 0002 8369     		ldr	r3, [r0, #24]
 1019              	.LVL98:
 795:..\..\..\..\..\..\Software\uCOS-III\Source/os_sem.c **** 
 796:..\..\..\..\..\..\Software\uCOS-III\Source/os_sem.c ****     if (p_sem_prev == (OS_SEM *)0) {
 1020              		.loc 1 796 5 is_stmt 1 view .LVU333
 1021              		.loc 1 796 8 is_stmt 0 view .LVU334
 1022 0004 002A     		cmp	r2, #0
 1023 0006 07D0     		beq	.L81
 797:..\..\..\..\..\..\Software\uCOS-III\Source/os_sem.c ****         OSSemDbgListPtr = p_sem_next;
 798:..\..\..\..\..\..\Software\uCOS-III\Source/os_sem.c ****         if (p_sem_next != (OS_SEM *)0) {
 799:..\..\..\..\..\..\Software\uCOS-III\Source/os_sem.c ****             p_sem_next->DbgPrevPtr = (OS_SEM *)0;
 800:..\..\..\..\..\..\Software\uCOS-III\Source/os_sem.c ****         }
 801:..\..\..\..\..\..\Software\uCOS-III\Source/os_sem.c ****         p_sem->DbgNextPtr = (OS_SEM *)0;
 802:..\..\..\..\..\..\Software\uCOS-III\Source/os_sem.c **** 
 803:..\..\..\..\..\..\Software\uCOS-III\Source/os_sem.c ****     } else if (p_sem_next == (OS_SEM *)0) {
 1024              		.loc 1 803 12 is_stmt 1 view .LVU335
 1025              		.loc 1 803 15 is_stmt 0 view .LVU336
 1026 0008 002B     		cmp	r3, #0
 1027 000a 0ED0     		beq	.L82
 804:..\..\..\..\..\..\Software\uCOS-III\Source/os_sem.c ****         p_sem_prev->DbgNextPtr = (OS_SEM *)0;
 805:..\..\..\..\..\..\Software\uCOS-III\Source/os_sem.c ****         p_sem->DbgPrevPtr      = (OS_SEM *)0;
 806:..\..\..\..\..\..\Software\uCOS-III\Source/os_sem.c **** 
 807:..\..\..\..\..\..\Software\uCOS-III\Source/os_sem.c ****     } else {
 808:..\..\..\..\..\..\Software\uCOS-III\Source/os_sem.c ****         p_sem_prev->DbgNextPtr =  p_sem_next;
 1028              		.loc 1 808 9 is_stmt 1 view .LVU337
 1029              		.loc 1 808 32 is_stmt 0 view .LVU338
 1030 000c 9361     		str	r3, [r2, #24]
 809:..\..\..\..\..\..\Software\uCOS-III\Source/os_sem.c ****         p_sem_next->DbgPrevPtr =  p_sem_prev;
 1031              		.loc 1 809 9 is_stmt 1 view .LVU339
 1032              		.loc 1 809 32 is_stmt 0 view .LVU340
 1033 000e 5A61     		str	r2, [r3, #20]
 810:..\..\..\..\..\..\Software\uCOS-III\Source/os_sem.c ****         p_sem->DbgNextPtr      = (OS_SEM *)0;
 1034              		.loc 1 810 9 is_stmt 1 view .LVU341
 1035              		.loc 1 810 32 is_stmt 0 view .LVU342
 1036 0010 0023     		movs	r3, #0
 1037              	.LVL99:
 1038              		.loc 1 810 32 view .LVU343
 1039 0012 8361     		str	r3, [r0, #24]
 811:..\..\..\..\..\..\Software\uCOS-III\Source/os_sem.c ****         p_sem->DbgPrevPtr      = (OS_SEM *)0;
 1040              		.loc 1 811 9 is_stmt 1 view .LVU344
 1041              		.loc 1 811 32 is_stmt 0 view .LVU345
ARM GAS  C:\Users\EDULU~1.DES\AppData\Local\Temp\ccfRue3n.s 			page 37


 1042 0014 4361     		str	r3, [r0, #20]
 1043              	.LVL100:
 1044              	.L76:
 812:..\..\..\..\..\..\Software\uCOS-III\Source/os_sem.c ****     }
 813:..\..\..\..\..\..\Software\uCOS-III\Source/os_sem.c **** }
 1045              		.loc 1 813 1 view .LVU346
 1046              		@ sp needed
 1047 0016 7047     		bx	lr
 1048              	.LVL101:
 1049              	.L81:
 797:..\..\..\..\..\..\Software\uCOS-III\Source/os_sem.c ****         if (p_sem_next != (OS_SEM *)0) {
 1050              		.loc 1 797 9 is_stmt 1 view .LVU347
 797:..\..\..\..\..\..\Software\uCOS-III\Source/os_sem.c ****         if (p_sem_next != (OS_SEM *)0) {
 1051              		.loc 1 797 25 is_stmt 0 view .LVU348
 1052 0018 054A     		ldr	r2, .L83
 1053              	.LVL102:
 797:..\..\..\..\..\..\Software\uCOS-III\Source/os_sem.c ****         if (p_sem_next != (OS_SEM *)0) {
 1054              		.loc 1 797 25 view .LVU349
 1055 001a 1360     		str	r3, [r2]
 798:..\..\..\..\..\..\Software\uCOS-III\Source/os_sem.c ****             p_sem_next->DbgPrevPtr = (OS_SEM *)0;
 1056              		.loc 1 798 9 is_stmt 1 view .LVU350
 798:..\..\..\..\..\..\Software\uCOS-III\Source/os_sem.c ****             p_sem_next->DbgPrevPtr = (OS_SEM *)0;
 1057              		.loc 1 798 12 is_stmt 0 view .LVU351
 1058 001c 002B     		cmp	r3, #0
 1059 001e 01D0     		beq	.L78
 799:..\..\..\..\..\..\Software\uCOS-III\Source/os_sem.c ****         }
 1060              		.loc 1 799 13 is_stmt 1 view .LVU352
 799:..\..\..\..\..\..\Software\uCOS-III\Source/os_sem.c ****         }
 1061              		.loc 1 799 36 is_stmt 0 view .LVU353
 1062 0020 0022     		movs	r2, #0
 1063 0022 5A61     		str	r2, [r3, #20]
 1064              	.LVL103:
 1065              	.L78:
 801:..\..\..\..\..\..\Software\uCOS-III\Source/os_sem.c **** 
 1066              		.loc 1 801 9 is_stmt 1 view .LVU354
 801:..\..\..\..\..\..\Software\uCOS-III\Source/os_sem.c **** 
 1067              		.loc 1 801 27 is_stmt 0 view .LVU355
 1068 0024 0023     		movs	r3, #0
 1069              	.LVL104:
 801:..\..\..\..\..\..\Software\uCOS-III\Source/os_sem.c **** 
 1070              		.loc 1 801 27 view .LVU356
 1071 0026 8361     		str	r3, [r0, #24]
 1072 0028 F5E7     		b	.L76
 1073              	.LVL105:
 1074              	.L82:
 804:..\..\..\..\..\..\Software\uCOS-III\Source/os_sem.c ****         p_sem->DbgPrevPtr      = (OS_SEM *)0;
 1075              		.loc 1 804 9 is_stmt 1 view .LVU357
 804:..\..\..\..\..\..\Software\uCOS-III\Source/os_sem.c ****         p_sem->DbgPrevPtr      = (OS_SEM *)0;
 1076              		.loc 1 804 32 is_stmt 0 view .LVU358
 1077 002a 9361     		str	r3, [r2, #24]
 805:..\..\..\..\..\..\Software\uCOS-III\Source/os_sem.c **** 
 1078              		.loc 1 805 9 is_stmt 1 view .LVU359
 805:..\..\..\..\..\..\Software\uCOS-III\Source/os_sem.c **** 
 1079              		.loc 1 805 32 is_stmt 0 view .LVU360
 1080 002c 4361     		str	r3, [r0, #20]
 1081 002e F2E7     		b	.L76
 1082              	.L84:
ARM GAS  C:\Users\EDULU~1.DES\AppData\Local\Temp\ccfRue3n.s 			page 38


 1083              		.align	2
 1084              	.L83:
 1085 0030 00000000 		.word	OSSemDbgListPtr
 1086              		.cfi_endproc
 1087              	.LFE10:
 1088              		.size	OS_SemDbgListRemove, .-OS_SemDbgListRemove
 1089              		.section	.text.OS_SemInit,"ax",%progbits
 1090              		.align	1
 1091              		.global	OS_SemInit
 1092              		.syntax unified
 1093              		.code	16
 1094              		.thumb_func
 1095              		.fpu softvfp
 1096              		.type	OS_SemInit, %function
 1097              	OS_SemInit:
 1098              	.LVL106:
 1099              	.LFB11:
 814:..\..\..\..\..\..\Software\uCOS-III\Source/os_sem.c **** #endif
 815:..\..\..\..\..\..\Software\uCOS-III\Source/os_sem.c **** 
 816:..\..\..\..\..\..\Software\uCOS-III\Source/os_sem.c **** /*$PAGE*/
 817:..\..\..\..\..\..\Software\uCOS-III\Source/os_sem.c **** /*
 818:..\..\..\..\..\..\Software\uCOS-III\Source/os_sem.c **** ***************************************************************************************************
 819:..\..\..\..\..\..\Software\uCOS-III\Source/os_sem.c **** *                                                SEMAPHORE INITIALIZATION
 820:..\..\..\..\..\..\Software\uCOS-III\Source/os_sem.c **** *
 821:..\..\..\..\..\..\Software\uCOS-III\Source/os_sem.c **** * Description: This function is called by OSInit() to initialize the semaphore management.
 822:..\..\..\..\..\..\Software\uCOS-III\Source/os_sem.c **** *
 823:..\..\..\..\..\..\Software\uCOS-III\Source/os_sem.c **** 
 824:..\..\..\..\..\..\Software\uCOS-III\Source/os_sem.c **** * Argument(s): p_err        is a pointer to a variable that will contain an error code returned by 
 825:..\..\..\..\..\..\Software\uCOS-III\Source/os_sem.c **** *
 826:..\..\..\..\..\..\Software\uCOS-III\Source/os_sem.c **** *                                OS_ERR_NONE     the call was successful
 827:..\..\..\..\..\..\Software\uCOS-III\Source/os_sem.c **** *
 828:..\..\..\..\..\..\Software\uCOS-III\Source/os_sem.c **** * Returns    : none
 829:..\..\..\..\..\..\Software\uCOS-III\Source/os_sem.c **** *
 830:..\..\..\..\..\..\Software\uCOS-III\Source/os_sem.c **** * Note(s)    : 1) This function is INTERNAL to uC/OS-III and your application MUST NOT call it.
 831:..\..\..\..\..\..\Software\uCOS-III\Source/os_sem.c **** ***************************************************************************************************
 832:..\..\..\..\..\..\Software\uCOS-III\Source/os_sem.c **** */
 833:..\..\..\..\..\..\Software\uCOS-III\Source/os_sem.c **** 
 834:..\..\..\..\..\..\Software\uCOS-III\Source/os_sem.c **** void  OS_SemInit (OS_ERR  *p_err)
 835:..\..\..\..\..\..\Software\uCOS-III\Source/os_sem.c **** {
 1100              		.loc 1 835 1 is_stmt 1 view -0
 1101              		.cfi_startproc
 1102              		@ args = 0, pretend = 0, frame = 0
 1103              		@ frame_needed = 0, uses_anonymous_args = 0
 1104              		@ link register save eliminated.
 836:..\..\..\..\..\..\Software\uCOS-III\Source/os_sem.c **** #ifdef OS_SAFETY_CRITICAL
 837:..\..\..\..\..\..\Software\uCOS-III\Source/os_sem.c ****     if (p_err == (OS_ERR *)0) {
 838:..\..\..\..\..\..\Software\uCOS-III\Source/os_sem.c ****         OS_SAFETY_CRITICAL_EXCEPTION();
 839:..\..\..\..\..\..\Software\uCOS-III\Source/os_sem.c ****         return;
 840:..\..\..\..\..\..\Software\uCOS-III\Source/os_sem.c ****     }
 841:..\..\..\..\..\..\Software\uCOS-III\Source/os_sem.c **** #endif
 842:..\..\..\..\..\..\Software\uCOS-III\Source/os_sem.c **** 
 843:..\..\..\..\..\..\Software\uCOS-III\Source/os_sem.c **** #if OS_CFG_DBG_EN > 0u
 844:..\..\..\..\..\..\Software\uCOS-III\Source/os_sem.c ****     OSSemDbgListPtr = (OS_SEM *)0;
 1105              		.loc 1 844 5 view .LVU362
 1106              		.loc 1 844 21 is_stmt 0 view .LVU363
 1107 0000 0023     		movs	r3, #0
 1108 0002 034A     		ldr	r2, .L86
ARM GAS  C:\Users\EDULU~1.DES\AppData\Local\Temp\ccfRue3n.s 			page 39


 1109 0004 1360     		str	r3, [r2]
 845:..\..\..\..\..\..\Software\uCOS-III\Source/os_sem.c **** #endif
 846:..\..\..\..\..\..\Software\uCOS-III\Source/os_sem.c **** 
 847:..\..\..\..\..\..\Software\uCOS-III\Source/os_sem.c ****     OSSemQty        = (OS_OBJ_QTY)0;
 1110              		.loc 1 847 5 is_stmt 1 view .LVU364
 1111              		.loc 1 847 21 is_stmt 0 view .LVU365
 1112 0006 034A     		ldr	r2, .L86+4
 1113 0008 1380     		strh	r3, [r2]
 848:..\..\..\..\..\..\Software\uCOS-III\Source/os_sem.c ****    *p_err           = OS_ERR_NONE;
 1114              		.loc 1 848 4 is_stmt 1 view .LVU366
 1115              		.loc 1 848 21 is_stmt 0 view .LVU367
 1116 000a 0380     		strh	r3, [r0]
 849:..\..\..\..\..\..\Software\uCOS-III\Source/os_sem.c **** }
 1117              		.loc 1 849 1 view .LVU368
 1118              		@ sp needed
 1119 000c 7047     		bx	lr
 1120              	.L87:
 1121 000e C046     		.align	2
 1122              	.L86:
 1123 0010 00000000 		.word	OSSemDbgListPtr
 1124 0014 00000000 		.word	OSSemQty
 1125              		.cfi_endproc
 1126              	.LFE11:
 1127              		.size	OS_SemInit, .-OS_SemInit
 1128              		.section	.text.OS_SemPost,"ax",%progbits
 1129              		.align	1
 1130              		.global	OS_SemPost
 1131              		.syntax unified
 1132              		.code	16
 1133              		.thumb_func
 1134              		.fpu softvfp
 1135              		.type	OS_SemPost, %function
 1136              	OS_SemPost:
 1137              	.LVL107:
 1138              	.LFB12:
 850:..\..\..\..\..\..\Software\uCOS-III\Source/os_sem.c **** 
 851:..\..\..\..\..\..\Software\uCOS-III\Source/os_sem.c **** /*$PAGE*/
 852:..\..\..\..\..\..\Software\uCOS-III\Source/os_sem.c **** /*
 853:..\..\..\..\..\..\Software\uCOS-III\Source/os_sem.c **** ***************************************************************************************************
 854:..\..\..\..\..\..\Software\uCOS-III\Source/os_sem.c **** *                                                 POST TO A SEMAPHORE
 855:..\..\..\..\..\..\Software\uCOS-III\Source/os_sem.c **** *
 856:..\..\..\..\..\..\Software\uCOS-III\Source/os_sem.c **** * Description: This function signals a semaphore
 857:..\..\..\..\..\..\Software\uCOS-III\Source/os_sem.c **** *
 858:..\..\..\..\..\..\Software\uCOS-III\Source/os_sem.c **** * Arguments  : p_sem    is a pointer to the semaphore
 859:..\..\..\..\..\..\Software\uCOS-III\Source/os_sem.c **** *
 860:..\..\..\..\..\..\Software\uCOS-III\Source/os_sem.c **** *              opt      determines the type of POST performed:
 861:..\..\..\..\..\..\Software\uCOS-III\Source/os_sem.c **** *
 862:..\..\..\..\..\..\Software\uCOS-III\Source/os_sem.c **** *                           OS_OPT_POST_1            POST to a single waiting task
 863:..\..\..\..\..\..\Software\uCOS-III\Source/os_sem.c **** *                           OS_OPT_POST_ALL          POST to ALL tasks that are waiting on the sema
 864:..\..\..\..\..\..\Software\uCOS-III\Source/os_sem.c **** *
 865:..\..\..\..\..\..\Software\uCOS-III\Source/os_sem.c **** *                           OS_OPT_POST_NO_SCHED     Do not call the scheduler
 866:..\..\..\..\..\..\Software\uCOS-III\Source/os_sem.c **** *
 867:..\..\..\..\..\..\Software\uCOS-III\Source/os_sem.c **** *                           Note(s): 1) OS_OPT_POST_NO_SCHED can be added with one of the other opt
 868:..\..\..\..\..\..\Software\uCOS-III\Source/os_sem.c **** *
 869:..\..\..\..\..\..\Software\uCOS-III\Source/os_sem.c **** *              ts       is a timestamp indicating when the post occurred.
 870:..\..\..\..\..\..\Software\uCOS-III\Source/os_sem.c **** *
 871:..\..\..\..\..\..\Software\uCOS-III\Source/os_sem.c **** *              p_err    is a pointer to a variable that will contain an error code returned by this
ARM GAS  C:\Users\EDULU~1.DES\AppData\Local\Temp\ccfRue3n.s 			page 40


 872:..\..\..\..\..\..\Software\uCOS-III\Source/os_sem.c **** *
 873:..\..\..\..\..\..\Software\uCOS-III\Source/os_sem.c **** *                           OS_ERR_NONE          The call was successful and the semaphore was sign
 874:..\..\..\..\..\..\Software\uCOS-III\Source/os_sem.c **** *                           OS_ERR_OBJ_PTR_NULL  If 'p_sem' is a NULL pointer.
 875:..\..\..\..\..\..\Software\uCOS-III\Source/os_sem.c **** *                           OS_ERR_OBJ_TYPE      If 'p_sem' is not pointing at a semaphore
 876:..\..\..\..\..\..\Software\uCOS-III\Source/os_sem.c **** *                           OS_ERR_SEM_OVF       If the post would cause the semaphore count to ove
 877:..\..\..\..\..\..\Software\uCOS-III\Source/os_sem.c **** *
 878:..\..\..\..\..\..\Software\uCOS-III\Source/os_sem.c **** * Returns    : The current value of the semaphore counter or 0 upon error.
 879:..\..\..\..\..\..\Software\uCOS-III\Source/os_sem.c **** *
 880:..\..\..\..\..\..\Software\uCOS-III\Source/os_sem.c **** * Note(s)    : This function is INTERNAL to uC/OS-III and your application should not call it.
 881:..\..\..\..\..\..\Software\uCOS-III\Source/os_sem.c **** ***************************************************************************************************
 882:..\..\..\..\..\..\Software\uCOS-III\Source/os_sem.c **** */
 883:..\..\..\..\..\..\Software\uCOS-III\Source/os_sem.c **** 
 884:..\..\..\..\..\..\Software\uCOS-III\Source/os_sem.c **** OS_SEM_CTR  OS_SemPost (OS_SEM  *p_sem,
 885:..\..\..\..\..\..\Software\uCOS-III\Source/os_sem.c ****                         OS_OPT   opt,
 886:..\..\..\..\..\..\Software\uCOS-III\Source/os_sem.c ****                         CPU_TS   ts,
 887:..\..\..\..\..\..\Software\uCOS-III\Source/os_sem.c ****                         OS_ERR  *p_err)
 888:..\..\..\..\..\..\Software\uCOS-III\Source/os_sem.c **** {
 1139              		.loc 1 888 1 is_stmt 1 view -0
 1140              		.cfi_startproc
 1141              		@ args = 0, pretend = 0, frame = 8
 1142              		@ frame_needed = 0, uses_anonymous_args = 0
 1143              		.loc 1 888 1 is_stmt 0 view .LVU370
 1144 0000 F0B5     		push	{r4, r5, r6, r7, lr}
 1145              		.cfi_def_cfa_offset 20
 1146              		.cfi_offset 4, -20
 1147              		.cfi_offset 5, -16
 1148              		.cfi_offset 6, -12
 1149              		.cfi_offset 7, -8
 1150              		.cfi_offset 14, -4
 1151 0002 C646     		mov	lr, r8
 1152 0004 00B5     		push	{lr}
 1153              		.cfi_def_cfa_offset 24
 1154              		.cfi_offset 8, -24
 1155 0006 84B0     		sub	sp, sp, #16
 1156              		.cfi_def_cfa_offset 40
 1157 0008 0500     		movs	r5, r0
 1158 000a 0291     		str	r1, [sp, #8]
 1159 000c 1600     		movs	r6, r2
 1160 000e 9846     		mov	r8, r3
 889:..\..\..\..\..\..\Software\uCOS-III\Source/os_sem.c ****     OS_OBJ_QTY     cnt;
 1161              		.loc 1 889 5 is_stmt 1 view .LVU371
 890:..\..\..\..\..\..\Software\uCOS-III\Source/os_sem.c ****     OS_SEM_CTR     ctr;
 1162              		.loc 1 890 5 view .LVU372
 891:..\..\..\..\..\..\Software\uCOS-III\Source/os_sem.c ****     OS_PEND_LIST  *p_pend_list;
 1163              		.loc 1 891 5 view .LVU373
 892:..\..\..\..\..\..\Software\uCOS-III\Source/os_sem.c ****     OS_PEND_DATA  *p_pend_data;
 1164              		.loc 1 892 5 view .LVU374
 893:..\..\..\..\..\..\Software\uCOS-III\Source/os_sem.c ****     OS_PEND_DATA  *p_pend_data_next;
 1165              		.loc 1 893 5 view .LVU375
 894:..\..\..\..\..\..\Software\uCOS-III\Source/os_sem.c ****     OS_TCB        *p_tcb;
 1166              		.loc 1 894 5 view .LVU376
 895:..\..\..\..\..\..\Software\uCOS-III\Source/os_sem.c ****     CPU_SR_ALLOC();
 1167              		.loc 1 895 5 view .LVU377
 1168              	.LVL108:
 896:..\..\..\..\..\..\Software\uCOS-III\Source/os_sem.c **** 
 897:..\..\..\..\..\..\Software\uCOS-III\Source/os_sem.c **** 
 898:..\..\..\..\..\..\Software\uCOS-III\Source/os_sem.c **** 
ARM GAS  C:\Users\EDULU~1.DES\AppData\Local\Temp\ccfRue3n.s 			page 41


 899:..\..\..\..\..\..\Software\uCOS-III\Source/os_sem.c ****     CPU_CRITICAL_ENTER();
 1169              		.loc 1 899 5 view .LVU378
 1170              		.loc 1 899 5 view .LVU379
 1171              		.loc 1 899 5 view .LVU380
 1172 0010 FFF7FEFF 		bl	CPU_SR_Save
 1173              	.LVL109:
 1174              		.loc 1 899 5 is_stmt 0 view .LVU381
 1175 0014 0390     		str	r0, [sp, #12]
 1176              	.LVL110:
 1177              		.loc 1 899 5 is_stmt 1 view .LVU382
 1178 0016 FFF7FEFF 		bl	CPU_IntDisMeasStart
 1179              	.LVL111:
 900:..\..\..\..\..\..\Software\uCOS-III\Source/os_sem.c ****     p_pend_list = &p_sem->PendList;
 1180              		.loc 1 900 5 view .LVU383
 901:..\..\..\..\..\..\Software\uCOS-III\Source/os_sem.c ****     if (p_pend_list->NbrEntries == (OS_OBJ_QTY)0) {         /* Any task waiting on semaphore?      
 1181              		.loc 1 901 5 view .LVU384
 1182              		.loc 1 901 20 is_stmt 0 view .LVU385
 1183 001a 2C8A     		ldrh	r4, [r5, #16]
 1184              		.loc 1 901 8 view .LVU386
 1185 001c 002C     		cmp	r4, #0
 1186 001e 18D1     		bne	.L89
 902:..\..\..\..\..\..\Software\uCOS-III\Source/os_sem.c ****         switch (sizeof(OS_SEM_CTR)) {
 1187              		.loc 1 902 9 is_stmt 1 view .LVU387
 903:..\..\..\..\..\..\Software\uCOS-III\Source/os_sem.c ****             case 1u:
 904:..\..\..\..\..\..\Software\uCOS-III\Source/os_sem.c ****                  if (p_sem->Ctr == DEF_INT_08U_MAX_VAL) {
 905:..\..\..\..\..\..\Software\uCOS-III\Source/os_sem.c ****                      CPU_CRITICAL_EXIT();
 906:..\..\..\..\..\..\Software\uCOS-III\Source/os_sem.c ****                     *p_err = OS_ERR_SEM_OVF;
 907:..\..\..\..\..\..\Software\uCOS-III\Source/os_sem.c ****                      return ((OS_SEM_CTR)0);
 908:..\..\..\..\..\..\Software\uCOS-III\Source/os_sem.c ****                  }
 909:..\..\..\..\..\..\Software\uCOS-III\Source/os_sem.c ****                  break;
 910:..\..\..\..\..\..\Software\uCOS-III\Source/os_sem.c **** 
 911:..\..\..\..\..\..\Software\uCOS-III\Source/os_sem.c ****             case 2u:
 912:..\..\..\..\..\..\Software\uCOS-III\Source/os_sem.c ****                  if (p_sem->Ctr == DEF_INT_16U_MAX_VAL) {
 913:..\..\..\..\..\..\Software\uCOS-III\Source/os_sem.c ****                      CPU_CRITICAL_EXIT();
 914:..\..\..\..\..\..\Software\uCOS-III\Source/os_sem.c ****                     *p_err = OS_ERR_SEM_OVF;
 915:..\..\..\..\..\..\Software\uCOS-III\Source/os_sem.c ****                      return ((OS_SEM_CTR)0);
 916:..\..\..\..\..\..\Software\uCOS-III\Source/os_sem.c ****                  }
 917:..\..\..\..\..\..\Software\uCOS-III\Source/os_sem.c ****                  break;
 918:..\..\..\..\..\..\Software\uCOS-III\Source/os_sem.c **** 
 919:..\..\..\..\..\..\Software\uCOS-III\Source/os_sem.c ****             case 4u:
 920:..\..\..\..\..\..\Software\uCOS-III\Source/os_sem.c ****                  if (p_sem->Ctr == DEF_INT_32U_MAX_VAL) {
 1188              		.loc 1 920 18 view .LVU388
 1189              		.loc 1 920 27 is_stmt 0 view .LVU389
 1190 0020 2C6A     		ldr	r4, [r5, #32]
 1191              		.loc 1 920 21 view .LVU390
 1192 0022 631C     		adds	r3, r4, #1
 1193 0024 0BD0     		beq	.L96
 921:..\..\..\..\..\..\Software\uCOS-III\Source/os_sem.c ****                      CPU_CRITICAL_EXIT();
 922:..\..\..\..\..\..\Software\uCOS-III\Source/os_sem.c ****                     *p_err = OS_ERR_SEM_OVF;
 923:..\..\..\..\..\..\Software\uCOS-III\Source/os_sem.c ****                      return ((OS_SEM_CTR)0);
 924:..\..\..\..\..\..\Software\uCOS-III\Source/os_sem.c ****                  }
 925:..\..\..\..\..\..\Software\uCOS-III\Source/os_sem.c ****                  break;
 1194              		.loc 1 925 18 is_stmt 1 view .LVU391
 926:..\..\..\..\..\..\Software\uCOS-III\Source/os_sem.c **** 
 927:..\..\..\..\..\..\Software\uCOS-III\Source/os_sem.c ****             default:
 928:..\..\..\..\..\..\Software\uCOS-III\Source/os_sem.c ****                  break;
 929:..\..\..\..\..\..\Software\uCOS-III\Source/os_sem.c ****         }
ARM GAS  C:\Users\EDULU~1.DES\AppData\Local\Temp\ccfRue3n.s 			page 42


 930:..\..\..\..\..\..\Software\uCOS-III\Source/os_sem.c ****         p_sem->Ctr++;                                       /* No                                  
 1195              		.loc 1 930 9 view .LVU392
 1196              		.loc 1 930 19 is_stmt 0 view .LVU393
 1197 0026 0134     		adds	r4, r4, #1
 1198 0028 2C62     		str	r4, [r5, #32]
 931:..\..\..\..\..\..\Software\uCOS-III\Source/os_sem.c ****         ctr       = p_sem->Ctr;
 1199              		.loc 1 931 9 is_stmt 1 view .LVU394
 1200              	.LVL112:
 932:..\..\..\..\..\..\Software\uCOS-III\Source/os_sem.c ****         p_sem->TS = ts;                                     /* Save timestamp in semaphore control 
 1201              		.loc 1 932 9 view .LVU395
 1202              		.loc 1 932 19 is_stmt 0 view .LVU396
 1203 002a 6E62     		str	r6, [r5, #36]
 933:..\..\..\..\..\..\Software\uCOS-III\Source/os_sem.c ****         CPU_CRITICAL_EXIT();
 1204              		.loc 1 933 9 is_stmt 1 view .LVU397
 1205              		.loc 1 933 9 view .LVU398
 1206 002c FFF7FEFF 		bl	CPU_IntDisMeasStop
 1207              	.LVL113:
 1208              		.loc 1 933 9 view .LVU399
 1209              		.loc 1 933 9 view .LVU400
 1210 0030 0398     		ldr	r0, [sp, #12]
 1211 0032 FFF7FEFF 		bl	CPU_SR_Restore
 1212              	.LVL114:
 934:..\..\..\..\..\..\Software\uCOS-III\Source/os_sem.c ****        *p_err     = OS_ERR_NONE;
 1213              		.loc 1 934 8 view .LVU401
 1214              		.loc 1 934 19 is_stmt 0 view .LVU402
 1215 0036 0023     		movs	r3, #0
 1216 0038 4246     		mov	r2, r8
 1217 003a 1380     		strh	r3, [r2]
 935:..\..\..\..\..\..\Software\uCOS-III\Source/os_sem.c ****         return (ctr);
 1218              		.loc 1 935 9 is_stmt 1 view .LVU403
 1219              		.loc 1 935 16 is_stmt 0 view .LVU404
 1220 003c 29E0     		b	.L88
 1221              	.LVL115:
 1222              	.L96:
 921:..\..\..\..\..\..\Software\uCOS-III\Source/os_sem.c ****                     *p_err = OS_ERR_SEM_OVF;
 1223              		.loc 1 921 22 is_stmt 1 view .LVU405
 921:..\..\..\..\..\..\Software\uCOS-III\Source/os_sem.c ****                     *p_err = OS_ERR_SEM_OVF;
 1224              		.loc 1 921 22 view .LVU406
 1225 003e FFF7FEFF 		bl	CPU_IntDisMeasStop
 1226              	.LVL116:
 921:..\..\..\..\..\..\Software\uCOS-III\Source/os_sem.c ****                     *p_err = OS_ERR_SEM_OVF;
 1227              		.loc 1 921 22 view .LVU407
 921:..\..\..\..\..\..\Software\uCOS-III\Source/os_sem.c ****                     *p_err = OS_ERR_SEM_OVF;
 1228              		.loc 1 921 22 view .LVU408
 1229 0042 0398     		ldr	r0, [sp, #12]
 1230 0044 FFF7FEFF 		bl	CPU_SR_Restore
 1231              	.LVL117:
 922:..\..\..\..\..\..\Software\uCOS-III\Source/os_sem.c ****                      return ((OS_SEM_CTR)0);
 1232              		.loc 1 922 21 view .LVU409
 922:..\..\..\..\..\..\Software\uCOS-III\Source/os_sem.c ****                      return ((OS_SEM_CTR)0);
 1233              		.loc 1 922 28 is_stmt 0 view .LVU410
 1234 0048 164B     		ldr	r3, .L99
 1235 004a 4246     		mov	r2, r8
 1236 004c 1380     		strh	r3, [r2]
 923:..\..\..\..\..\..\Software\uCOS-III\Source/os_sem.c ****                  }
 1237              		.loc 1 923 22 is_stmt 1 view .LVU411
 923:..\..\..\..\..\..\Software\uCOS-III\Source/os_sem.c ****                  }
ARM GAS  C:\Users\EDULU~1.DES\AppData\Local\Temp\ccfRue3n.s 			page 43


 1238              		.loc 1 923 29 is_stmt 0 view .LVU412
 1239 004e 0024     		movs	r4, #0
 1240 0050 1FE0     		b	.L88
 1241              	.L89:
 936:..\..\..\..\..\..\Software\uCOS-III\Source/os_sem.c ****     }
 937:..\..\..\..\..\..\Software\uCOS-III\Source/os_sem.c **** 
 938:..\..\..\..\..\..\Software\uCOS-III\Source/os_sem.c ****     OS_CRITICAL_ENTER_CPU_EXIT();
 1242              		.loc 1 938 33 is_stmt 1 view .LVU413
 939:..\..\..\..\..\..\Software\uCOS-III\Source/os_sem.c ****     if ((opt & OS_OPT_POST_ALL) != (OS_OPT)0) {             /* Post message to all tasks waiting?  
 1243              		.loc 1 939 5 view .LVU414
 1244              		.loc 1 939 8 is_stmt 0 view .LVU415
 1245 0052 029B     		ldr	r3, [sp, #8]
 1246 0054 9B05     		lsls	r3, r3, #22
 1247 0056 00D4     		bmi	.L92
 940:..\..\..\..\..\..\Software\uCOS-III\Source/os_sem.c ****         cnt = p_pend_list->NbrEntries;                      /* Yes                                 
 941:..\..\..\..\..\..\Software\uCOS-III\Source/os_sem.c ****     } else {
 942:..\..\..\..\..\..\Software\uCOS-III\Source/os_sem.c ****         cnt = (OS_OBJ_QTY)1;                                /* No                                  
 1248              		.loc 1 942 13 view .LVU416
 1249 0058 0124     		movs	r4, #1
 1250              	.L92:
 1251              	.LVL118:
 943:..\..\..\..\..\..\Software\uCOS-III\Source/os_sem.c ****     }
 944:..\..\..\..\..\..\Software\uCOS-III\Source/os_sem.c ****     p_pend_data = p_pend_list->HeadPtr;
 1252              		.loc 1 944 5 is_stmt 1 view .LVU417
 1253              		.loc 1 944 17 is_stmt 0 view .LVU418
 1254 005a AF68     		ldr	r7, [r5, #8]
 1255              	.LVL119:
 945:..\..\..\..\..\..\Software\uCOS-III\Source/os_sem.c ****     while (cnt > 0u) {
 1256              		.loc 1 945 5 is_stmt 1 view .LVU419
 1257              	.L93:
 1258              		.loc 1 945 11 is_stmt 0 view .LVU420
 1259 005c 002C     		cmp	r4, #0
 1260 005e 0AD0     		beq	.L97
 946:..\..\..\..\..\..\Software\uCOS-III\Source/os_sem.c ****         p_tcb            = p_pend_data->TCBPtr;
 1261              		.loc 1 946 9 is_stmt 1 view .LVU421
 1262              		.loc 1 946 26 is_stmt 0 view .LVU422
 1263 0060 B968     		ldr	r1, [r7, #8]
 1264              	.LVL120:
 947:..\..\..\..\..\..\Software\uCOS-III\Source/os_sem.c ****         p_pend_data_next = p_pend_data->NextPtr;
 1265              		.loc 1 947 9 is_stmt 1 view .LVU423
 1266              		.loc 1 947 26 is_stmt 0 view .LVU424
 1267 0062 7F68     		ldr	r7, [r7, #4]
 1268              	.LVL121:
 948:..\..\..\..\..\..\Software\uCOS-III\Source/os_sem.c ****         OS_Post((OS_PEND_OBJ *)((void *)p_sem),
 1269              		.loc 1 948 9 is_stmt 1 view .LVU425
 1270 0064 0096     		str	r6, [sp]
 1271 0066 0023     		movs	r3, #0
 1272 0068 0022     		movs	r2, #0
 1273 006a 2800     		movs	r0, r5
 1274 006c FFF7FEFF 		bl	OS_Post
 1275              	.LVL122:
 949:..\..\..\..\..\..\Software\uCOS-III\Source/os_sem.c ****                 p_tcb,
 950:..\..\..\..\..\..\Software\uCOS-III\Source/os_sem.c ****                 (void      *)0,
 951:..\..\..\..\..\..\Software\uCOS-III\Source/os_sem.c ****                 (OS_MSG_SIZE)0,
 952:..\..\..\..\..\..\Software\uCOS-III\Source/os_sem.c ****                 ts);
 953:..\..\..\..\..\..\Software\uCOS-III\Source/os_sem.c ****         p_pend_data = p_pend_data_next;
 1276              		.loc 1 953 9 view .LVU426
ARM GAS  C:\Users\EDULU~1.DES\AppData\Local\Temp\ccfRue3n.s 			page 44


 954:..\..\..\..\..\..\Software\uCOS-III\Source/os_sem.c ****         cnt--;
 1277              		.loc 1 954 9 view .LVU427
 1278              		.loc 1 954 12 is_stmt 0 view .LVU428
 1279 0070 013C     		subs	r4, r4, #1
 1280              	.LVL123:
 1281              		.loc 1 954 12 view .LVU429
 1282 0072 A4B2     		uxth	r4, r4
 1283              	.LVL124:
 1284              		.loc 1 954 12 view .LVU430
 1285 0074 F2E7     		b	.L93
 1286              	.LVL125:
 1287              	.L97:
 955:..\..\..\..\..\..\Software\uCOS-III\Source/os_sem.c ****     }
 956:..\..\..\..\..\..\Software\uCOS-III\Source/os_sem.c ****     ctr = p_sem->Ctr;
 1288              		.loc 1 956 5 is_stmt 1 view .LVU431
 1289              		.loc 1 956 9 is_stmt 0 view .LVU432
 1290 0076 2C6A     		ldr	r4, [r5, #32]
 1291              	.LVL126:
 957:..\..\..\..\..\..\Software\uCOS-III\Source/os_sem.c ****     OS_CRITICAL_EXIT_NO_SCHED();
 1292              		.loc 1 957 5 is_stmt 1 view .LVU433
 1293              		.loc 1 957 5 view .LVU434
 1294 0078 FFF7FEFF 		bl	CPU_IntDisMeasStop
 1295              	.LVL127:
 1296              		.loc 1 957 5 view .LVU435
 1297              		.loc 1 957 5 view .LVU436
 1298 007c 0398     		ldr	r0, [sp, #12]
 1299 007e FFF7FEFF 		bl	CPU_SR_Restore
 1300              	.LVL128:
 958:..\..\..\..\..\..\Software\uCOS-III\Source/os_sem.c ****     if ((opt & OS_OPT_POST_NO_SCHED) == (OS_OPT)0) {
 1301              		.loc 1 958 5 view .LVU437
 1302              		.loc 1 958 38 is_stmt 0 view .LVU438
 1303 0082 6B46     		mov	r3, sp
 1304 0084 0825     		movs	r5, #8
 1305 0086 5D5F     		ldrsh	r5, [r3, r5]
 1306              	.LVL129:
 1307              		.loc 1 958 8 view .LVU439
 1308 0088 002D     		cmp	r5, #0
 1309 008a 07DA     		bge	.L98
 1310              	.L95:
 959:..\..\..\..\..\..\Software\uCOS-III\Source/os_sem.c ****         OSSched();                                          /* Run the scheduler                   
 960:..\..\..\..\..\..\Software\uCOS-III\Source/os_sem.c ****     }
 961:..\..\..\..\..\..\Software\uCOS-III\Source/os_sem.c ****    *p_err = OS_ERR_NONE;
 1311              		.loc 1 961 4 is_stmt 1 view .LVU440
 1312              		.loc 1 961 11 is_stmt 0 view .LVU441
 1313 008c 0023     		movs	r3, #0
 1314 008e 4246     		mov	r2, r8
 1315 0090 1380     		strh	r3, [r2]
 962:..\..\..\..\..\..\Software\uCOS-III\Source/os_sem.c ****     return (ctr);
 1316              		.loc 1 962 5 is_stmt 1 view .LVU442
 1317              	.LVL130:
 1318              	.L88:
 963:..\..\..\..\..\..\Software\uCOS-III\Source/os_sem.c **** }
 1319              		.loc 1 963 1 is_stmt 0 view .LVU443
 1320 0092 2000     		movs	r0, r4
 1321 0094 04B0     		add	sp, sp, #16
 1322              		@ sp needed
 1323              	.LVL131:
ARM GAS  C:\Users\EDULU~1.DES\AppData\Local\Temp\ccfRue3n.s 			page 45


 1324              		.loc 1 963 1 view .LVU444
 1325 0096 04BC     		pop	{r2}
 1326 0098 9046     		mov	r8, r2
 1327 009a F0BD     		pop	{r4, r5, r6, r7, pc}
 1328              	.LVL132:
 1329              	.L98:
 959:..\..\..\..\..\..\Software\uCOS-III\Source/os_sem.c ****         OSSched();                                          /* Run the scheduler                   
 1330              		.loc 1 959 9 is_stmt 1 view .LVU445
 1331 009c FFF7FEFF 		bl	OSSched
 1332              	.LVL133:
 1333 00a0 F4E7     		b	.L95
 1334              	.L100:
 1335 00a2 C046     		.align	2
 1336              	.L99:
 1337 00a4 C56D0000 		.word	28101
 1338              		.cfi_endproc
 1339              	.LFE12:
 1340              		.size	OS_SemPost, .-OS_SemPost
 1341              		.section	.text.OSSemPost,"ax",%progbits
 1342              		.align	1
 1343              		.global	OSSemPost
 1344              		.syntax unified
 1345              		.code	16
 1346              		.thumb_func
 1347              		.fpu softvfp
 1348              		.type	OSSemPost, %function
 1349              	OSSemPost:
 1350              	.LVL134:
 1351              	.LFB6:
 587:..\..\..\..\..\..\Software\uCOS-III\Source/os_sem.c ****     OS_SEM_CTR  ctr;
 1352              		.loc 1 587 1 view -0
 1353              		.cfi_startproc
 1354              		@ args = 0, pretend = 0, frame = 0
 1355              		@ frame_needed = 0, uses_anonymous_args = 0
 587:..\..\..\..\..\..\Software\uCOS-III\Source/os_sem.c ****     OS_SEM_CTR  ctr;
 1356              		.loc 1 587 1 is_stmt 0 view .LVU447
 1357 0000 70B5     		push	{r4, r5, r6, lr}
 1358              		.cfi_def_cfa_offset 16
 1359              		.cfi_offset 4, -16
 1360              		.cfi_offset 5, -12
 1361              		.cfi_offset 6, -8
 1362              		.cfi_offset 14, -4
 1363 0002 0500     		movs	r5, r0
 1364 0004 0C00     		movs	r4, r1
 1365 0006 1600     		movs	r6, r2
 588:..\..\..\..\..\..\Software\uCOS-III\Source/os_sem.c ****     CPU_TS      ts;
 1366              		.loc 1 588 5 is_stmt 1 view .LVU448
 589:..\..\..\..\..\..\Software\uCOS-III\Source/os_sem.c **** 
 1367              		.loc 1 589 5 view .LVU449
 601:..\..\..\..\..\..\Software\uCOS-III\Source/os_sem.c ****        *p_err  = OS_ERR_OBJ_PTR_NULL;
 1368              		.loc 1 601 5 view .LVU450
 601:..\..\..\..\..\..\Software\uCOS-III\Source/os_sem.c ****        *p_err  = OS_ERR_OBJ_PTR_NULL;
 1369              		.loc 1 601 8 is_stmt 0 view .LVU451
 1370 0008 0028     		cmp	r0, #0
 1371 000a 15D0     		beq	.L107
 605:..\..\..\..\..\..\Software\uCOS-III\Source/os_sem.c ****         case OS_OPT_POST_1:
 1372              		.loc 1 605 5 is_stmt 1 view .LVU452
ARM GAS  C:\Users\EDULU~1.DES\AppData\Local\Temp\ccfRue3n.s 			page 46


 1373 000c 8023     		movs	r3, #128
 1374 000e 9B00     		lsls	r3, r3, #2
 1375 0010 9942     		cmp	r1, r3
 1376 0012 08D0     		beq	.L104
 1377 0014 14D9     		bls	.L108
 1378 0016 8023     		movs	r3, #128
 1379 0018 1B02     		lsls	r3, r3, #8
 1380 001a 9942     		cmp	r1, r3
 1381 001c 03D0     		beq	.L104
 1382 001e 8223     		movs	r3, #130
 1383 0020 1B02     		lsls	r3, r3, #8
 1384 0022 9942     		cmp	r1, r3
 1385 0024 0ED1     		bne	.L106
 1386              	.L104:
 610:..\..\..\..\..\..\Software\uCOS-III\Source/os_sem.c **** 
 1387              		.loc 1 610 14 view .LVU453
 625:..\..\..\..\..\..\Software\uCOS-III\Source/os_sem.c **** 
 1388              		.loc 1 625 5 view .LVU454
 625:..\..\..\..\..\..\Software\uCOS-III\Source/os_sem.c **** 
 1389              		.loc 1 625 10 is_stmt 0 view .LVU455
 1390 0026 FFF7FEFF 		bl	CPU_TS_TmrRd
 1391              	.LVL135:
 625:..\..\..\..\..\..\Software\uCOS-III\Source/os_sem.c **** 
 1392              		.loc 1 625 10 view .LVU456
 1393 002a 0200     		movs	r2, r0
 1394              	.LVL136:
 641:..\..\..\..\..\..\Software\uCOS-III\Source/os_sem.c ****                      opt,
 1395              		.loc 1 641 5 is_stmt 1 view .LVU457
 641:..\..\..\..\..\..\Software\uCOS-III\Source/os_sem.c ****                      opt,
 1396              		.loc 1 641 11 is_stmt 0 view .LVU458
 1397 002c 3300     		movs	r3, r6
 1398 002e 2100     		movs	r1, r4
 1399 0030 2800     		movs	r0, r5
 1400              	.LVL137:
 641:..\..\..\..\..\..\Software\uCOS-III\Source/os_sem.c ****                      opt,
 1401              		.loc 1 641 11 view .LVU459
 1402 0032 FFF7FEFF 		bl	OS_SemPost
 1403              	.LVL138:
 646:..\..\..\..\..\..\Software\uCOS-III\Source/os_sem.c **** }
 1404              		.loc 1 646 5 is_stmt 1 view .LVU460
 646:..\..\..\..\..\..\Software\uCOS-III\Source/os_sem.c **** }
 1405              		.loc 1 646 12 is_stmt 0 view .LVU461
 1406 0036 08E0     		b	.L101
 1407              	.LVL139:
 1408              	.L107:
 602:..\..\..\..\..\..\Software\uCOS-III\Source/os_sem.c ****         return ((OS_SEM_CTR)0);
 1409              		.loc 1 602 8 is_stmt 1 view .LVU462
 602:..\..\..\..\..\..\Software\uCOS-III\Source/os_sem.c ****         return ((OS_SEM_CTR)0);
 1410              		.loc 1 602 16 is_stmt 0 view .LVU463
 1411 0038 044B     		ldr	r3, .L109
 1412 003a 1380     		strh	r3, [r2]
 603:..\..\..\..\..\..\Software\uCOS-III\Source/os_sem.c ****     }
 1413              		.loc 1 603 9 is_stmt 1 view .LVU464
 603:..\..\..\..\..\..\Software\uCOS-III\Source/os_sem.c ****     }
 1414              		.loc 1 603 16 is_stmt 0 view .LVU465
 1415 003c 0020     		movs	r0, #0
 1416              	.LVL140:
ARM GAS  C:\Users\EDULU~1.DES\AppData\Local\Temp\ccfRue3n.s 			page 47


 603:..\..\..\..\..\..\Software\uCOS-III\Source/os_sem.c ****     }
 1417              		.loc 1 603 16 view .LVU466
 1418 003e 04E0     		b	.L101
 1419              	.LVL141:
 1420              	.L108:
 605:..\..\..\..\..\..\Software\uCOS-III\Source/os_sem.c ****         case OS_OPT_POST_1:
 1421              		.loc 1 605 5 view .LVU467
 1422 0040 0029     		cmp	r1, #0
 1423 0042 F0D0     		beq	.L104
 1424              	.L106:
 613:..\..\..\..\..\..\Software\uCOS-III\Source/os_sem.c ****              return ((OS_SEM_CTR)0u);
 1425              		.loc 1 613 13 is_stmt 1 view .LVU468
 613:..\..\..\..\..\..\Software\uCOS-III\Source/os_sem.c ****              return ((OS_SEM_CTR)0u);
 1426              		.loc 1 613 20 is_stmt 0 view .LVU469
 1427 0044 024B     		ldr	r3, .L109+4
 1428 0046 3380     		strh	r3, [r6]
 614:..\..\..\..\..\..\Software\uCOS-III\Source/os_sem.c ****     }
 1429              		.loc 1 614 14 is_stmt 1 view .LVU470
 614:..\..\..\..\..\..\Software\uCOS-III\Source/os_sem.c ****     }
 1430              		.loc 1 614 21 is_stmt 0 view .LVU471
 1431 0048 0020     		movs	r0, #0
 1432              	.LVL142:
 1433              	.L101:
 647:..\..\..\..\..\..\Software\uCOS-III\Source/os_sem.c **** 
 1434              		.loc 1 647 1 view .LVU472
 1435              		@ sp needed
 1436              	.LVL143:
 1437              	.LVL144:
 647:..\..\..\..\..\..\Software\uCOS-III\Source/os_sem.c **** 
 1438              		.loc 1 647 1 view .LVU473
 1439 004a 70BD     		pop	{r4, r5, r6, pc}
 1440              	.L110:
 1441              		.align	2
 1442              	.L109:
 1443 004c C35D0000 		.word	24003
 1444 0050 255E0000 		.word	24101
 1445              		.cfi_endproc
 1446              	.LFE6:
 1447              		.size	OSSemPost, .-OSSemPost
 1448              		.section	.rodata.str1.4,"aMS",%progbits,1
 1449              		.align	2
 1450              	.LC5:
 1451 0000 3F53454D 		.ascii	"?SEM\000"
 1451      00
 1452 0005 000000   		.space	3
 1453              	.LC7:
 1454 0008 2000     		.ascii	" \000"
 1455              		.text
 1456              	.Letext0:
 1457              		.file 2 "..\\..\\..\\..\\..\\..\\Software\\uC-CPU\\ARM-Cortex-M0\\GNU/cpu.h"
 1458              		.file 3 "c:\\program files (x86)\\gnu tools arm embedded\\8 2018-q4-major\\arm-none-eabi\\include\
 1459              		.file 4 "c:\\program files (x86)\\gnu tools arm embedded\\8 2018-q4-major\\arm-none-eabi\\include\
 1460              		.file 5 "c:\\program files (x86)\\gnu tools arm embedded\\8 2018-q4-major\\lib\\gcc\\arm-none-eabi
 1461              		.file 6 "c:\\program files (x86)\\gnu tools arm embedded\\8 2018-q4-major\\arm-none-eabi\\include\
 1462              		.file 7 "..\\..\\..\\..\\..\\..\\Software\\uC-CPU/cpu_core.h"
 1463              		.file 8 "..\\..\\..\\..\\..\\..\\Software\\uCOS-III\\Source/os_type.h"
 1464              		.file 9 "..\\..\\..\\..\\..\\..\\Software\\uCOS-III\\Ports\\ARM-Cortex-M0\\Generic\\GNU/os_cpu.h"
ARM GAS  C:\Users\EDULU~1.DES\AppData\Local\Temp\ccfRue3n.s 			page 48


 1465              		.file 10 "..\\..\\..\\..\\..\\..\\Software\\uCOS-III\\Source/os.h"
 1466              		.section	.debug_info,"",%progbits
 1467              	.Ldebug_info0:
 1468 0000 0A230000 		.4byte	0x230a
 1469 0004 0400     		.2byte	0x4
 1470 0006 00000000 		.4byte	.Ldebug_abbrev0
 1471 000a 04       		.byte	0x4
 1472 000b 01       		.uleb128 0x1
 1473 000c 31160000 		.4byte	.LASF523
 1474 0010 0C       		.byte	0xc
 1475 0011 C2050000 		.4byte	.LASF524
 1476 0015 050C0000 		.4byte	.LASF525
 1477 0019 00000000 		.4byte	.Ldebug_ranges0+0
 1478 001d 00000000 		.4byte	0
 1479 0021 00000000 		.4byte	.Ldebug_line0
 1480 0025 02       		.uleb128 0x2
 1481 0026 3E010000 		.4byte	.LASF0
 1482 002a 02       		.byte	0x2
 1483 002b 7C       		.byte	0x7c
 1484 002c 20       		.byte	0x20
 1485 002d 31000000 		.4byte	0x31
 1486 0031 03       		.uleb128 0x3
 1487 0032 01       		.byte	0x1
 1488 0033 08       		.byte	0x8
 1489 0034 B2070000 		.4byte	.LASF2
 1490 0038 04       		.uleb128 0x4
 1491 0039 31000000 		.4byte	0x31
 1492 003d 02       		.uleb128 0x2
 1493 003e 7D000000 		.4byte	.LASF1
 1494 0042 02       		.byte	0x2
 1495 0043 7D       		.byte	0x7d
 1496 0044 20       		.byte	0x20
 1497 0045 49000000 		.4byte	0x49
 1498 0049 03       		.uleb128 0x3
 1499 004a 01       		.byte	0x1
 1500 004b 08       		.byte	0x8
 1501 004c 9E060000 		.4byte	.LASF3
 1502 0050 02       		.uleb128 0x2
 1503 0051 DC1B0000 		.4byte	.LASF4
 1504 0055 02       		.byte	0x2
 1505 0056 7E       		.byte	0x7e
 1506 0057 20       		.byte	0x20
 1507 0058 49000000 		.4byte	0x49
 1508 005c 03       		.uleb128 0x3
 1509 005d 01       		.byte	0x1
 1510 005e 06       		.byte	0x6
 1511 005f 92050000 		.4byte	.LASF5
 1512 0063 02       		.uleb128 0x2
 1513 0064 7F010000 		.4byte	.LASF6
 1514 0068 02       		.byte	0x2
 1515 0069 80       		.byte	0x80
 1516 006a 20       		.byte	0x20
 1517 006b 6F000000 		.4byte	0x6f
 1518 006f 03       		.uleb128 0x3
 1519 0070 02       		.byte	0x2
 1520 0071 07       		.byte	0x7
 1521 0072 061D0000 		.4byte	.LASF7
ARM GAS  C:\Users\EDULU~1.DES\AppData\Local\Temp\ccfRue3n.s 			page 49


 1522 0076 03       		.uleb128 0x3
 1523 0077 02       		.byte	0x2
 1524 0078 05       		.byte	0x5
 1525 0079 A1190000 		.4byte	.LASF8
 1526 007d 02       		.uleb128 0x2
 1527 007e 18090000 		.4byte	.LASF9
 1528 0082 02       		.byte	0x2
 1529 0083 82       		.byte	0x82
 1530 0084 20       		.byte	0x20
 1531 0085 8E000000 		.4byte	0x8e
 1532 0089 04       		.uleb128 0x4
 1533 008a 7D000000 		.4byte	0x7d
 1534 008e 03       		.uleb128 0x3
 1535 008f 04       		.byte	0x4
 1536 0090 07       		.byte	0x7
 1537 0091 4D110000 		.4byte	.LASF10
 1538 0095 05       		.uleb128 0x5
 1539 0096 04       		.byte	0x4
 1540 0097 05       		.byte	0x5
 1541 0098 696E7400 		.ascii	"int\000"
 1542 009c 03       		.uleb128 0x3
 1543 009d 08       		.byte	0x8
 1544 009e 07       		.byte	0x7
 1545 009f E4140000 		.4byte	.LASF11
 1546 00a3 03       		.uleb128 0x3
 1547 00a4 08       		.byte	0x8
 1548 00a5 05       		.byte	0x5
 1549 00a6 210F0000 		.4byte	.LASF12
 1550 00aa 03       		.uleb128 0x3
 1551 00ab 04       		.byte	0x4
 1552 00ac 04       		.byte	0x4
 1553 00ad 9F100000 		.4byte	.LASF13
 1554 00b1 03       		.uleb128 0x3
 1555 00b2 08       		.byte	0x8
 1556 00b3 04       		.byte	0x4
 1557 00b4 980F0000 		.4byte	.LASF14
 1558 00b8 06       		.uleb128 0x6
 1559 00b9 04       		.byte	0x4
 1560 00ba BE000000 		.4byte	0xbe
 1561 00be 07       		.uleb128 0x7
 1562 00bf 06       		.uleb128 0x6
 1563 00c0 04       		.byte	0x4
 1564 00c1 C5000000 		.4byte	0xc5
 1565 00c5 08       		.uleb128 0x8
 1566 00c6 D0000000 		.4byte	0xd0
 1567 00ca 09       		.uleb128 0x9
 1568 00cb D0000000 		.4byte	0xd0
 1569 00cf 00       		.byte	0
 1570 00d0 0A       		.uleb128 0xa
 1571 00d1 04       		.byte	0x4
 1572 00d2 02       		.uleb128 0x2
 1573 00d3 92090000 		.4byte	.LASF15
 1574 00d7 02       		.byte	0x2
 1575 00d8 BA       		.byte	0xba
 1576 00d9 16       		.byte	0x16
 1577 00da 7D000000 		.4byte	0x7d
 1578 00de 02       		.uleb128 0x2
ARM GAS  C:\Users\EDULU~1.DES\AppData\Local\Temp\ccfRue3n.s 			page 50


 1579 00df A9170000 		.4byte	.LASF16
 1580 00e3 02       		.byte	0x2
 1581 00e4 C3       		.byte	0xc3
 1582 00e5 16       		.byte	0x16
 1583 00e6 7D000000 		.4byte	0x7d
 1584 00ea 02       		.uleb128 0x2
 1585 00eb 7F020000 		.4byte	.LASF17
 1586 00ef 02       		.byte	0x2
 1587 00f0 E5       		.byte	0xe5
 1588 00f1 23       		.byte	0x23
 1589 00f2 7D000000 		.4byte	0x7d
 1590 00f6 02       		.uleb128 0x2
 1591 00f7 D8100000 		.4byte	.LASF18
 1592 00fb 02       		.byte	0x2
 1593 00fc E6       		.byte	0xe6
 1594 00fd 23       		.byte	0x23
 1595 00fe D2000000 		.4byte	0xd2
 1596 0102 04       		.uleb128 0x4
 1597 0103 F6000000 		.4byte	0xf6
 1598 0107 0B       		.uleb128 0xb
 1599 0108 C1040000 		.4byte	.LASF19
 1600 010c 02       		.byte	0x2
 1601 010d 3301     		.2byte	0x133
 1602 010f 25       		.byte	0x25
 1603 0110 7D000000 		.4byte	0x7d
 1604 0114 03       		.uleb128 0x3
 1605 0115 04       		.byte	0x4
 1606 0116 05       		.byte	0x5
 1607 0117 43040000 		.4byte	.LASF20
 1608 011b 03       		.uleb128 0x3
 1609 011c 04       		.byte	0x4
 1610 011d 07       		.byte	0x7
 1611 011e F60C0000 		.4byte	.LASF21
 1612 0122 03       		.uleb128 0x3
 1613 0123 08       		.byte	0x8
 1614 0124 04       		.byte	0x4
 1615 0125 7E130000 		.4byte	.LASF22
 1616 0129 02       		.uleb128 0x2
 1617 012a 1C1B0000 		.4byte	.LASF23
 1618 012e 03       		.byte	0x3
 1619 012f 22       		.byte	0x22
 1620 0130 19       		.byte	0x19
 1621 0131 35010000 		.4byte	0x135
 1622 0135 06       		.uleb128 0x6
 1623 0136 04       		.byte	0x4
 1624 0137 3B010000 		.4byte	0x13b
 1625 013b 0C       		.uleb128 0xc
 1626 013c 230B0000 		.4byte	.LASF129
 1627 0140 02       		.uleb128 0x2
 1628 0141 9A1C0000 		.4byte	.LASF24
 1629 0145 04       		.byte	0x4
 1630 0146 2C       		.byte	0x2c
 1631 0147 0E       		.byte	0xe
 1632 0148 14010000 		.4byte	0x114
 1633 014c 02       		.uleb128 0x2
 1634 014d 24140000 		.4byte	.LASF25
 1635 0151 04       		.byte	0x4
ARM GAS  C:\Users\EDULU~1.DES\AppData\Local\Temp\ccfRue3n.s 			page 51


 1636 0152 72       		.byte	0x72
 1637 0153 0E       		.byte	0xe
 1638 0154 14010000 		.4byte	0x114
 1639 0158 0B       		.uleb128 0xb
 1640 0159 09180000 		.4byte	.LASF26
 1641 015d 05       		.byte	0x5
 1642 015e 6501     		.2byte	0x165
 1643 0160 17       		.byte	0x17
 1644 0161 8E000000 		.4byte	0x8e
 1645 0165 0D       		.uleb128 0xd
 1646 0166 04       		.byte	0x4
 1647 0167 04       		.byte	0x4
 1648 0168 A6       		.byte	0xa6
 1649 0169 03       		.byte	0x3
 1650 016a 87010000 		.4byte	0x187
 1651 016e 0E       		.uleb128 0xe
 1652 016f 5B030000 		.4byte	.LASF27
 1653 0173 04       		.byte	0x4
 1654 0174 A8       		.byte	0xa8
 1655 0175 0C       		.byte	0xc
 1656 0176 58010000 		.4byte	0x158
 1657 017a 0E       		.uleb128 0xe
 1658 017b 42140000 		.4byte	.LASF28
 1659 017f 04       		.byte	0x4
 1660 0180 A9       		.byte	0xa9
 1661 0181 13       		.byte	0x13
 1662 0182 87010000 		.4byte	0x187
 1663 0186 00       		.byte	0
 1664 0187 0F       		.uleb128 0xf
 1665 0188 49000000 		.4byte	0x49
 1666 018c 97010000 		.4byte	0x197
 1667 0190 10       		.uleb128 0x10
 1668 0191 8E000000 		.4byte	0x8e
 1669 0195 03       		.byte	0x3
 1670 0196 00       		.byte	0
 1671 0197 11       		.uleb128 0x11
 1672 0198 08       		.byte	0x8
 1673 0199 04       		.byte	0x4
 1674 019a A3       		.byte	0xa3
 1675 019b 09       		.byte	0x9
 1676 019c BB010000 		.4byte	0x1bb
 1677 01a0 12       		.uleb128 0x12
 1678 01a1 D5120000 		.4byte	.LASF29
 1679 01a5 04       		.byte	0x4
 1680 01a6 A5       		.byte	0xa5
 1681 01a7 07       		.byte	0x7
 1682 01a8 95000000 		.4byte	0x95
 1683 01ac 00       		.byte	0
 1684 01ad 12       		.uleb128 0x12
 1685 01ae 75000000 		.4byte	.LASF30
 1686 01b2 04       		.byte	0x4
 1687 01b3 AA       		.byte	0xaa
 1688 01b4 05       		.byte	0x5
 1689 01b5 65010000 		.4byte	0x165
 1690 01b9 04       		.byte	0x4
 1691 01ba 00       		.byte	0
 1692 01bb 02       		.uleb128 0x2
ARM GAS  C:\Users\EDULU~1.DES\AppData\Local\Temp\ccfRue3n.s 			page 52


 1693 01bc B2170000 		.4byte	.LASF31
 1694 01c0 04       		.byte	0x4
 1695 01c1 AB       		.byte	0xab
 1696 01c2 03       		.byte	0x3
 1697 01c3 97010000 		.4byte	0x197
 1698 01c7 02       		.uleb128 0x2
 1699 01c8 57170000 		.4byte	.LASF32
 1700 01cc 04       		.byte	0x4
 1701 01cd AF       		.byte	0xaf
 1702 01ce 1B       		.byte	0x1b
 1703 01cf 29010000 		.4byte	0x129
 1704 01d3 02       		.uleb128 0x2
 1705 01d4 D41B0000 		.4byte	.LASF33
 1706 01d8 06       		.byte	0x6
 1707 01d9 16       		.byte	0x16
 1708 01da 19       		.byte	0x19
 1709 01db 1B010000 		.4byte	0x11b
 1710 01df 13       		.uleb128 0x13
 1711 01e0 620E0000 		.4byte	.LASF38
 1712 01e4 18       		.byte	0x18
 1713 01e5 06       		.byte	0x6
 1714 01e6 2F       		.byte	0x2f
 1715 01e7 08       		.byte	0x8
 1716 01e8 39020000 		.4byte	0x239
 1717 01ec 12       		.uleb128 0x12
 1718 01ed 22180000 		.4byte	.LASF34
 1719 01f1 06       		.byte	0x6
 1720 01f2 31       		.byte	0x31
 1721 01f3 13       		.byte	0x13
 1722 01f4 39020000 		.4byte	0x239
 1723 01f8 00       		.byte	0
 1724 01f9 14       		.uleb128 0x14
 1725 01fa 5F6B00   		.ascii	"_k\000"
 1726 01fd 06       		.byte	0x6
 1727 01fe 32       		.byte	0x32
 1728 01ff 07       		.byte	0x7
 1729 0200 95000000 		.4byte	0x95
 1730 0204 04       		.byte	0x4
 1731 0205 12       		.uleb128 0x12
 1732 0206 900E0000 		.4byte	.LASF35
 1733 020a 06       		.byte	0x6
 1734 020b 32       		.byte	0x32
 1735 020c 0B       		.byte	0xb
 1736 020d 95000000 		.4byte	0x95
 1737 0211 08       		.byte	0x8
 1738 0212 12       		.uleb128 0x12
 1739 0213 6F100000 		.4byte	.LASF36
 1740 0217 06       		.byte	0x6
 1741 0218 32       		.byte	0x32
 1742 0219 14       		.byte	0x14
 1743 021a 95000000 		.4byte	0x95
 1744 021e 0C       		.byte	0xc
 1745 021f 12       		.uleb128 0x12
 1746 0220 010B0000 		.4byte	.LASF37
 1747 0224 06       		.byte	0x6
 1748 0225 32       		.byte	0x32
 1749 0226 1B       		.byte	0x1b
ARM GAS  C:\Users\EDULU~1.DES\AppData\Local\Temp\ccfRue3n.s 			page 53


 1750 0227 95000000 		.4byte	0x95
 1751 022b 10       		.byte	0x10
 1752 022c 14       		.uleb128 0x14
 1753 022d 5F7800   		.ascii	"_x\000"
 1754 0230 06       		.byte	0x6
 1755 0231 33       		.byte	0x33
 1756 0232 0B       		.byte	0xb
 1757 0233 3F020000 		.4byte	0x23f
 1758 0237 14       		.byte	0x14
 1759 0238 00       		.byte	0
 1760 0239 06       		.uleb128 0x6
 1761 023a 04       		.byte	0x4
 1762 023b DF010000 		.4byte	0x1df
 1763 023f 0F       		.uleb128 0xf
 1764 0240 D3010000 		.4byte	0x1d3
 1765 0244 4F020000 		.4byte	0x24f
 1766 0248 10       		.uleb128 0x10
 1767 0249 8E000000 		.4byte	0x8e
 1768 024d 00       		.byte	0
 1769 024e 00       		.byte	0
 1770 024f 13       		.uleb128 0x13
 1771 0250 D7010000 		.4byte	.LASF39
 1772 0254 24       		.byte	0x24
 1773 0255 06       		.byte	0x6
 1774 0256 37       		.byte	0x37
 1775 0257 08       		.byte	0x8
 1776 0258 D2020000 		.4byte	0x2d2
 1777 025c 12       		.uleb128 0x12
 1778 025d F3010000 		.4byte	.LASF40
 1779 0261 06       		.byte	0x6
 1780 0262 39       		.byte	0x39
 1781 0263 09       		.byte	0x9
 1782 0264 95000000 		.4byte	0x95
 1783 0268 00       		.byte	0
 1784 0269 12       		.uleb128 0x12
 1785 026a 761E0000 		.4byte	.LASF41
 1786 026e 06       		.byte	0x6
 1787 026f 3A       		.byte	0x3a
 1788 0270 09       		.byte	0x9
 1789 0271 95000000 		.4byte	0x95
 1790 0275 04       		.byte	0x4
 1791 0276 12       		.uleb128 0x12
 1792 0277 191D0000 		.4byte	.LASF42
 1793 027b 06       		.byte	0x6
 1794 027c 3B       		.byte	0x3b
 1795 027d 09       		.byte	0x9
 1796 027e 95000000 		.4byte	0x95
 1797 0282 08       		.byte	0x8
 1798 0283 12       		.uleb128 0x12
 1799 0284 D8110000 		.4byte	.LASF43
 1800 0288 06       		.byte	0x6
 1801 0289 3C       		.byte	0x3c
 1802 028a 09       		.byte	0x9
 1803 028b 95000000 		.4byte	0x95
 1804 028f 0C       		.byte	0xc
 1805 0290 12       		.uleb128 0x12
 1806 0291 F0040000 		.4byte	.LASF44
ARM GAS  C:\Users\EDULU~1.DES\AppData\Local\Temp\ccfRue3n.s 			page 54


 1807 0295 06       		.byte	0x6
 1808 0296 3D       		.byte	0x3d
 1809 0297 09       		.byte	0x9
 1810 0298 95000000 		.4byte	0x95
 1811 029c 10       		.byte	0x10
 1812 029d 12       		.uleb128 0x12
 1813 029e 141A0000 		.4byte	.LASF45
 1814 02a2 06       		.byte	0x6
 1815 02a3 3E       		.byte	0x3e
 1816 02a4 09       		.byte	0x9
 1817 02a5 95000000 		.4byte	0x95
 1818 02a9 14       		.byte	0x14
 1819 02aa 12       		.uleb128 0x12
 1820 02ab 44130000 		.4byte	.LASF46
 1821 02af 06       		.byte	0x6
 1822 02b0 3F       		.byte	0x3f
 1823 02b1 09       		.byte	0x9
 1824 02b2 95000000 		.4byte	0x95
 1825 02b6 18       		.byte	0x18
 1826 02b7 12       		.uleb128 0x12
 1827 02b8 8A130000 		.4byte	.LASF47
 1828 02bc 06       		.byte	0x6
 1829 02bd 40       		.byte	0x40
 1830 02be 09       		.byte	0x9
 1831 02bf 95000000 		.4byte	0x95
 1832 02c3 1C       		.byte	0x1c
 1833 02c4 12       		.uleb128 0x12
 1834 02c5 3B1E0000 		.4byte	.LASF48
 1835 02c9 06       		.byte	0x6
 1836 02ca 41       		.byte	0x41
 1837 02cb 09       		.byte	0x9
 1838 02cc 95000000 		.4byte	0x95
 1839 02d0 20       		.byte	0x20
 1840 02d1 00       		.byte	0
 1841 02d2 15       		.uleb128 0x15
 1842 02d3 D1030000 		.4byte	.LASF49
 1843 02d7 0801     		.2byte	0x108
 1844 02d9 06       		.byte	0x6
 1845 02da 4A       		.byte	0x4a
 1846 02db 08       		.byte	0x8
 1847 02dc 17030000 		.4byte	0x317
 1848 02e0 12       		.uleb128 0x12
 1849 02e1 2A1E0000 		.4byte	.LASF50
 1850 02e5 06       		.byte	0x6
 1851 02e6 4B       		.byte	0x4b
 1852 02e7 0A       		.byte	0xa
 1853 02e8 17030000 		.4byte	0x317
 1854 02ec 00       		.byte	0
 1855 02ed 12       		.uleb128 0x12
 1856 02ee 79150000 		.4byte	.LASF51
 1857 02f2 06       		.byte	0x6
 1858 02f3 4C       		.byte	0x4c
 1859 02f4 09       		.byte	0x9
 1860 02f5 17030000 		.4byte	0x317
 1861 02f9 80       		.byte	0x80
 1862 02fa 16       		.uleb128 0x16
 1863 02fb 011A0000 		.4byte	.LASF52
ARM GAS  C:\Users\EDULU~1.DES\AppData\Local\Temp\ccfRue3n.s 			page 55


 1864 02ff 06       		.byte	0x6
 1865 0300 4E       		.byte	0x4e
 1866 0301 0A       		.byte	0xa
 1867 0302 D3010000 		.4byte	0x1d3
 1868 0306 0001     		.2byte	0x100
 1869 0308 16       		.uleb128 0x16
 1870 0309 141B0000 		.4byte	.LASF53
 1871 030d 06       		.byte	0x6
 1872 030e 51       		.byte	0x51
 1873 030f 0A       		.byte	0xa
 1874 0310 D3010000 		.4byte	0x1d3
 1875 0314 0401     		.2byte	0x104
 1876 0316 00       		.byte	0
 1877 0317 0F       		.uleb128 0xf
 1878 0318 D0000000 		.4byte	0xd0
 1879 031c 27030000 		.4byte	0x327
 1880 0320 10       		.uleb128 0x10
 1881 0321 8E000000 		.4byte	0x8e
 1882 0325 1F       		.byte	0x1f
 1883 0326 00       		.byte	0
 1884 0327 15       		.uleb128 0x15
 1885 0328 AE120000 		.4byte	.LASF54
 1886 032c 9001     		.2byte	0x190
 1887 032e 06       		.byte	0x6
 1888 032f 5D       		.byte	0x5d
 1889 0330 08       		.byte	0x8
 1890 0331 6A030000 		.4byte	0x36a
 1891 0335 12       		.uleb128 0x12
 1892 0336 22180000 		.4byte	.LASF34
 1893 033a 06       		.byte	0x6
 1894 033b 5E       		.byte	0x5e
 1895 033c 12       		.byte	0x12
 1896 033d 6A030000 		.4byte	0x36a
 1897 0341 00       		.byte	0
 1898 0342 12       		.uleb128 0x12
 1899 0343 DC1A0000 		.4byte	.LASF55
 1900 0347 06       		.byte	0x6
 1901 0348 5F       		.byte	0x5f
 1902 0349 06       		.byte	0x6
 1903 034a 95000000 		.4byte	0x95
 1904 034e 04       		.byte	0x4
 1905 034f 12       		.uleb128 0x12
 1906 0350 C9070000 		.4byte	.LASF56
 1907 0354 06       		.byte	0x6
 1908 0355 61       		.byte	0x61
 1909 0356 09       		.byte	0x9
 1910 0357 70030000 		.4byte	0x370
 1911 035b 08       		.byte	0x8
 1912 035c 12       		.uleb128 0x12
 1913 035d D1030000 		.4byte	.LASF49
 1914 0361 06       		.byte	0x6
 1915 0362 62       		.byte	0x62
 1916 0363 1E       		.byte	0x1e
 1917 0364 D2020000 		.4byte	0x2d2
 1918 0368 88       		.byte	0x88
 1919 0369 00       		.byte	0
 1920 036a 06       		.uleb128 0x6
ARM GAS  C:\Users\EDULU~1.DES\AppData\Local\Temp\ccfRue3n.s 			page 56


 1921 036b 04       		.byte	0x4
 1922 036c 27030000 		.4byte	0x327
 1923 0370 0F       		.uleb128 0xf
 1924 0371 B8000000 		.4byte	0xb8
 1925 0375 80030000 		.4byte	0x380
 1926 0379 10       		.uleb128 0x10
 1927 037a 8E000000 		.4byte	0x8e
 1928 037e 1F       		.byte	0x1f
 1929 037f 00       		.byte	0
 1930 0380 13       		.uleb128 0x13
 1931 0381 0D1B0000 		.4byte	.LASF57
 1932 0385 08       		.byte	0x8
 1933 0386 06       		.byte	0x6
 1934 0387 75       		.byte	0x75
 1935 0388 08       		.byte	0x8
 1936 0389 A8030000 		.4byte	0x3a8
 1937 038d 12       		.uleb128 0x12
 1938 038e 1E170000 		.4byte	.LASF58
 1939 0392 06       		.byte	0x6
 1940 0393 76       		.byte	0x76
 1941 0394 11       		.byte	0x11
 1942 0395 A8030000 		.4byte	0x3a8
 1943 0399 00       		.byte	0
 1944 039a 12       		.uleb128 0x12
 1945 039b 9E040000 		.4byte	.LASF59
 1946 039f 06       		.byte	0x6
 1947 03a0 77       		.byte	0x77
 1948 03a1 06       		.byte	0x6
 1949 03a2 95000000 		.4byte	0x95
 1950 03a6 04       		.byte	0x4
 1951 03a7 00       		.byte	0
 1952 03a8 06       		.uleb128 0x6
 1953 03a9 04       		.byte	0x4
 1954 03aa 49000000 		.4byte	0x49
 1955 03ae 13       		.uleb128 0x13
 1956 03af 630D0000 		.4byte	.LASF60
 1957 03b3 68       		.byte	0x68
 1958 03b4 06       		.byte	0x6
 1959 03b5 B5       		.byte	0xb5
 1960 03b6 08       		.byte	0x8
 1961 03b7 F1040000 		.4byte	0x4f1
 1962 03bb 14       		.uleb128 0x14
 1963 03bc 5F7000   		.ascii	"_p\000"
 1964 03bf 06       		.byte	0x6
 1965 03c0 B6       		.byte	0xb6
 1966 03c1 12       		.byte	0x12
 1967 03c2 A8030000 		.4byte	0x3a8
 1968 03c6 00       		.byte	0
 1969 03c7 14       		.uleb128 0x14
 1970 03c8 5F7200   		.ascii	"_r\000"
 1971 03cb 06       		.byte	0x6
 1972 03cc B7       		.byte	0xb7
 1973 03cd 07       		.byte	0x7
 1974 03ce 95000000 		.4byte	0x95
 1975 03d2 04       		.byte	0x4
 1976 03d3 14       		.uleb128 0x14
 1977 03d4 5F7700   		.ascii	"_w\000"
ARM GAS  C:\Users\EDULU~1.DES\AppData\Local\Temp\ccfRue3n.s 			page 57


 1978 03d7 06       		.byte	0x6
 1979 03d8 B8       		.byte	0xb8
 1980 03d9 07       		.byte	0x7
 1981 03da 95000000 		.4byte	0x95
 1982 03de 08       		.byte	0x8
 1983 03df 12       		.uleb128 0x12
 1984 03e0 7F120000 		.4byte	.LASF61
 1985 03e4 06       		.byte	0x6
 1986 03e5 B9       		.byte	0xb9
 1987 03e6 09       		.byte	0x9
 1988 03e7 76000000 		.4byte	0x76
 1989 03eb 0C       		.byte	0xc
 1990 03ec 12       		.uleb128 0x12
 1991 03ed A2030000 		.4byte	.LASF62
 1992 03f1 06       		.byte	0x6
 1993 03f2 BA       		.byte	0xba
 1994 03f3 09       		.byte	0x9
 1995 03f4 76000000 		.4byte	0x76
 1996 03f8 0E       		.byte	0xe
 1997 03f9 14       		.uleb128 0x14
 1998 03fa 5F626600 		.ascii	"_bf\000"
 1999 03fe 06       		.byte	0x6
 2000 03ff BB       		.byte	0xbb
 2001 0400 11       		.byte	0x11
 2002 0401 80030000 		.4byte	0x380
 2003 0405 10       		.byte	0x10
 2004 0406 12       		.uleb128 0x12
 2005 0407 C31A0000 		.4byte	.LASF63
 2006 040b 06       		.byte	0x6
 2007 040c BC       		.byte	0xbc
 2008 040d 07       		.byte	0x7
 2009 040e 95000000 		.4byte	0x95
 2010 0412 18       		.byte	0x18
 2011 0413 12       		.uleb128 0x12
 2012 0414 D80A0000 		.4byte	.LASF64
 2013 0418 06       		.byte	0x6
 2014 0419 C3       		.byte	0xc3
 2015 041a 0A       		.byte	0xa
 2016 041b D0000000 		.4byte	0xd0
 2017 041f 1C       		.byte	0x1c
 2018 0420 12       		.uleb128 0x12
 2019 0421 A3000000 		.4byte	.LASF65
 2020 0425 06       		.byte	0x6
 2021 0426 C5       		.byte	0xc5
 2022 0427 1D       		.byte	0x1d
 2023 0428 69060000 		.4byte	0x669
 2024 042c 20       		.byte	0x20
 2025 042d 12       		.uleb128 0x12
 2026 042e F1000000 		.4byte	.LASF66
 2027 0432 06       		.byte	0x6
 2028 0433 C7       		.byte	0xc7
 2029 0434 1D       		.byte	0x1d
 2030 0435 93060000 		.4byte	0x693
 2031 0439 24       		.byte	0x24
 2032 043a 12       		.uleb128 0x12
 2033 043b D7130000 		.4byte	.LASF67
 2034 043f 06       		.byte	0x6
ARM GAS  C:\Users\EDULU~1.DES\AppData\Local\Temp\ccfRue3n.s 			page 58


 2035 0440 CA       		.byte	0xca
 2036 0441 0D       		.byte	0xd
 2037 0442 B7060000 		.4byte	0x6b7
 2038 0446 28       		.byte	0x28
 2039 0447 12       		.uleb128 0x12
 2040 0448 FD070000 		.4byte	.LASF68
 2041 044c 06       		.byte	0x6
 2042 044d CB       		.byte	0xcb
 2043 044e 09       		.byte	0x9
 2044 044f D1060000 		.4byte	0x6d1
 2045 0453 2C       		.byte	0x2c
 2046 0454 14       		.uleb128 0x14
 2047 0455 5F756200 		.ascii	"_ub\000"
 2048 0459 06       		.byte	0x6
 2049 045a CE       		.byte	0xce
 2050 045b 11       		.byte	0x11
 2051 045c 80030000 		.4byte	0x380
 2052 0460 30       		.byte	0x30
 2053 0461 14       		.uleb128 0x14
 2054 0462 5F757000 		.ascii	"_up\000"
 2055 0466 06       		.byte	0x6
 2056 0467 CF       		.byte	0xcf
 2057 0468 12       		.byte	0x12
 2058 0469 A8030000 		.4byte	0x3a8
 2059 046d 38       		.byte	0x38
 2060 046e 14       		.uleb128 0x14
 2061 046f 5F757200 		.ascii	"_ur\000"
 2062 0473 06       		.byte	0x6
 2063 0474 D0       		.byte	0xd0
 2064 0475 07       		.byte	0x7
 2065 0476 95000000 		.4byte	0x95
 2066 047a 3C       		.byte	0x3c
 2067 047b 12       		.uleb128 0x12
 2068 047c F3110000 		.4byte	.LASF69
 2069 0480 06       		.byte	0x6
 2070 0481 D3       		.byte	0xd3
 2071 0482 11       		.byte	0x11
 2072 0483 D7060000 		.4byte	0x6d7
 2073 0487 40       		.byte	0x40
 2074 0488 12       		.uleb128 0x12
 2075 0489 ED010000 		.4byte	.LASF70
 2076 048d 06       		.byte	0x6
 2077 048e D4       		.byte	0xd4
 2078 048f 11       		.byte	0x11
 2079 0490 E7060000 		.4byte	0x6e7
 2080 0494 43       		.byte	0x43
 2081 0495 14       		.uleb128 0x14
 2082 0496 5F6C6200 		.ascii	"_lb\000"
 2083 049a 06       		.byte	0x6
 2084 049b D7       		.byte	0xd7
 2085 049c 11       		.byte	0x11
 2086 049d 80030000 		.4byte	0x380
 2087 04a1 44       		.byte	0x44
 2088 04a2 12       		.uleb128 0x12
 2089 04a3 1D160000 		.4byte	.LASF71
 2090 04a7 06       		.byte	0x6
 2091 04a8 DA       		.byte	0xda
ARM GAS  C:\Users\EDULU~1.DES\AppData\Local\Temp\ccfRue3n.s 			page 59


 2092 04a9 07       		.byte	0x7
 2093 04aa 95000000 		.4byte	0x95
 2094 04ae 4C       		.byte	0x4c
 2095 04af 12       		.uleb128 0x12
 2096 04b0 6E0B0000 		.4byte	.LASF72
 2097 04b4 06       		.byte	0x6
 2098 04b5 DB       		.byte	0xdb
 2099 04b6 0A       		.byte	0xa
 2100 04b7 40010000 		.4byte	0x140
 2101 04bb 50       		.byte	0x50
 2102 04bc 12       		.uleb128 0x12
 2103 04bd 28180000 		.4byte	.LASF73
 2104 04c1 06       		.byte	0x6
 2105 04c2 DE       		.byte	0xde
 2106 04c3 12       		.byte	0x12
 2107 04c4 0F050000 		.4byte	0x50f
 2108 04c8 54       		.byte	0x54
 2109 04c9 12       		.uleb128 0x12
 2110 04ca 5E020000 		.4byte	.LASF74
 2111 04ce 06       		.byte	0x6
 2112 04cf E2       		.byte	0xe2
 2113 04d0 0C       		.byte	0xc
 2114 04d1 C7010000 		.4byte	0x1c7
 2115 04d5 58       		.byte	0x58
 2116 04d6 12       		.uleb128 0x12
 2117 04d7 3E120000 		.4byte	.LASF75
 2118 04db 06       		.byte	0x6
 2119 04dc E4       		.byte	0xe4
 2120 04dd 0E       		.byte	0xe
 2121 04de BB010000 		.4byte	0x1bb
 2122 04e2 5C       		.byte	0x5c
 2123 04e3 12       		.uleb128 0x12
 2124 04e4 760D0000 		.4byte	.LASF76
 2125 04e8 06       		.byte	0x6
 2126 04e9 E5       		.byte	0xe5
 2127 04ea 09       		.byte	0x9
 2128 04eb 95000000 		.4byte	0x95
 2129 04ef 64       		.byte	0x64
 2130 04f0 00       		.byte	0
 2131 04f1 17       		.uleb128 0x17
 2132 04f2 95000000 		.4byte	0x95
 2133 04f6 0F050000 		.4byte	0x50f
 2134 04fa 09       		.uleb128 0x9
 2135 04fb 0F050000 		.4byte	0x50f
 2136 04ff 09       		.uleb128 0x9
 2137 0500 D0000000 		.4byte	0xd0
 2138 0504 09       		.uleb128 0x9
 2139 0505 63060000 		.4byte	0x663
 2140 0509 09       		.uleb128 0x9
 2141 050a 95000000 		.4byte	0x95
 2142 050e 00       		.byte	0
 2143 050f 06       		.uleb128 0x6
 2144 0510 04       		.byte	0x4
 2145 0511 1A050000 		.4byte	0x51a
 2146 0515 04       		.uleb128 0x4
 2147 0516 0F050000 		.4byte	0x50f
 2148 051a 18       		.uleb128 0x18
ARM GAS  C:\Users\EDULU~1.DES\AppData\Local\Temp\ccfRue3n.s 			page 60


 2149 051b 15070000 		.4byte	.LASF77
 2150 051f 2804     		.2byte	0x428
 2151 0521 06       		.byte	0x6
 2152 0522 6002     		.2byte	0x260
 2153 0524 08       		.byte	0x8
 2154 0525 63060000 		.4byte	0x663
 2155 0529 19       		.uleb128 0x19
 2156 052a 0A0E0000 		.4byte	.LASF78
 2157 052e 06       		.byte	0x6
 2158 052f 6202     		.2byte	0x262
 2159 0531 07       		.byte	0x7
 2160 0532 95000000 		.4byte	0x95
 2161 0536 00       		.byte	0
 2162 0537 19       		.uleb128 0x19
 2163 0538 7E080000 		.4byte	.LASF79
 2164 053c 06       		.byte	0x6
 2165 053d 6702     		.2byte	0x267
 2166 053f 0B       		.byte	0xb
 2167 0540 43070000 		.4byte	0x743
 2168 0544 04       		.byte	0x4
 2169 0545 19       		.uleb128 0x19
 2170 0546 B5150000 		.4byte	.LASF80
 2171 054a 06       		.byte	0x6
 2172 054b 6702     		.2byte	0x267
 2173 054d 14       		.byte	0x14
 2174 054e 43070000 		.4byte	0x743
 2175 0552 08       		.byte	0x8
 2176 0553 19       		.uleb128 0x19
 2177 0554 12120000 		.4byte	.LASF81
 2178 0558 06       		.byte	0x6
 2179 0559 6702     		.2byte	0x267
 2180 055b 1E       		.byte	0x1e
 2181 055c 43070000 		.4byte	0x743
 2182 0560 0C       		.byte	0xc
 2183 0561 19       		.uleb128 0x19
 2184 0562 D71A0000 		.4byte	.LASF82
 2185 0566 06       		.byte	0x6
 2186 0567 6902     		.2byte	0x269
 2187 0569 08       		.byte	0x8
 2188 056a 95000000 		.4byte	0x95
 2189 056e 10       		.byte	0x10
 2190 056f 19       		.uleb128 0x19
 2191 0570 160F0000 		.4byte	.LASF83
 2192 0574 06       		.byte	0x6
 2193 0575 6A02     		.2byte	0x26a
 2194 0577 08       		.byte	0x8
 2195 0578 43090000 		.4byte	0x943
 2196 057c 14       		.byte	0x14
 2197 057d 19       		.uleb128 0x19
 2198 057e FC060000 		.4byte	.LASF84
 2199 0582 06       		.byte	0x6
 2200 0583 6D02     		.2byte	0x26d
 2201 0585 07       		.byte	0x7
 2202 0586 95000000 		.4byte	0x95
 2203 058a 30       		.byte	0x30
 2204 058b 19       		.uleb128 0x19
 2205 058c CC1B0000 		.4byte	.LASF85
ARM GAS  C:\Users\EDULU~1.DES\AppData\Local\Temp\ccfRue3n.s 			page 61


 2206 0590 06       		.byte	0x6
 2207 0591 6E02     		.2byte	0x26e
 2208 0593 16       		.byte	0x16
 2209 0594 58090000 		.4byte	0x958
 2210 0598 34       		.byte	0x34
 2211 0599 19       		.uleb128 0x19
 2212 059a 6B0D0000 		.4byte	.LASF86
 2213 059e 06       		.byte	0x6
 2214 059f 7002     		.2byte	0x270
 2215 05a1 07       		.byte	0x7
 2216 05a2 95000000 		.4byte	0x95
 2217 05a6 38       		.byte	0x38
 2218 05a7 19       		.uleb128 0x19
 2219 05a8 A70E0000 		.4byte	.LASF87
 2220 05ac 06       		.byte	0x6
 2221 05ad 7202     		.2byte	0x272
 2222 05af 0A       		.byte	0xa
 2223 05b0 69090000 		.4byte	0x969
 2224 05b4 3C       		.byte	0x3c
 2225 05b5 19       		.uleb128 0x19
 2226 05b6 E71B0000 		.4byte	.LASF88
 2227 05ba 06       		.byte	0x6
 2228 05bb 7502     		.2byte	0x275
 2229 05bd 13       		.byte	0x13
 2230 05be 39020000 		.4byte	0x239
 2231 05c2 40       		.byte	0x40
 2232 05c3 19       		.uleb128 0x19
 2233 05c4 84040000 		.4byte	.LASF89
 2234 05c8 06       		.byte	0x6
 2235 05c9 7602     		.2byte	0x276
 2236 05cb 07       		.byte	0x7
 2237 05cc 95000000 		.4byte	0x95
 2238 05d0 44       		.byte	0x44
 2239 05d1 19       		.uleb128 0x19
 2240 05d2 F10C0000 		.4byte	.LASF90
 2241 05d6 06       		.byte	0x6
 2242 05d7 7702     		.2byte	0x277
 2243 05d9 13       		.byte	0x13
 2244 05da 39020000 		.4byte	0x239
 2245 05de 48       		.byte	0x48
 2246 05df 19       		.uleb128 0x19
 2247 05e0 40100000 		.4byte	.LASF91
 2248 05e4 06       		.byte	0x6
 2249 05e5 7802     		.2byte	0x278
 2250 05e7 14       		.byte	0x14
 2251 05e8 6F090000 		.4byte	0x96f
 2252 05ec 4C       		.byte	0x4c
 2253 05ed 19       		.uleb128 0x19
 2254 05ee 36010000 		.4byte	.LASF92
 2255 05f2 06       		.byte	0x6
 2256 05f3 7B02     		.2byte	0x27b
 2257 05f5 07       		.byte	0x7
 2258 05f6 95000000 		.4byte	0x95
 2259 05fa 50       		.byte	0x50
 2260 05fb 19       		.uleb128 0x19
 2261 05fc 760B0000 		.4byte	.LASF93
 2262 0600 06       		.byte	0x6
ARM GAS  C:\Users\EDULU~1.DES\AppData\Local\Temp\ccfRue3n.s 			page 62


 2263 0601 7C02     		.2byte	0x27c
 2264 0603 09       		.byte	0x9
 2265 0604 63060000 		.4byte	0x663
 2266 0608 54       		.byte	0x54
 2267 0609 19       		.uleb128 0x19
 2268 060a E2110000 		.4byte	.LASF94
 2269 060e 06       		.byte	0x6
 2270 060f 9F02     		.2byte	0x29f
 2271 0611 07       		.byte	0x7
 2272 0612 1E090000 		.4byte	0x91e
 2273 0616 58       		.byte	0x58
 2274 0617 1A       		.uleb128 0x1a
 2275 0618 AE120000 		.4byte	.LASF54
 2276 061c 06       		.byte	0x6
 2277 061d A302     		.2byte	0x2a3
 2278 061f 13       		.byte	0x13
 2279 0620 6A030000 		.4byte	0x36a
 2280 0624 4801     		.2byte	0x148
 2281 0626 1A       		.uleb128 0x1a
 2282 0627 B10E0000 		.4byte	.LASF95
 2283 062b 06       		.byte	0x6
 2284 062c A402     		.2byte	0x2a4
 2285 062e 12       		.byte	0x12
 2286 062f 27030000 		.4byte	0x327
 2287 0633 4C01     		.2byte	0x14c
 2288 0635 1A       		.uleb128 0x1a
 2289 0636 2A0B0000 		.4byte	.LASF96
 2290 063a 06       		.byte	0x6
 2291 063b A802     		.2byte	0x2a8
 2292 063d 0C       		.byte	0xc
 2293 063e 80090000 		.4byte	0x980
 2294 0642 DC02     		.2byte	0x2dc
 2295 0644 1A       		.uleb128 0x1a
 2296 0645 700F0000 		.4byte	.LASF97
 2297 0649 06       		.byte	0x6
 2298 064a AD02     		.2byte	0x2ad
 2299 064c 10       		.byte	0x10
 2300 064d 04070000 		.4byte	0x704
 2301 0651 E002     		.2byte	0x2e0
 2302 0653 1A       		.uleb128 0x1a
 2303 0654 97000000 		.4byte	.LASF98
 2304 0658 06       		.byte	0x6
 2305 0659 AF02     		.2byte	0x2af
 2306 065b 0A       		.byte	0xa
 2307 065c 8C090000 		.4byte	0x98c
 2308 0660 EC02     		.2byte	0x2ec
 2309 0662 00       		.byte	0
 2310 0663 06       		.uleb128 0x6
 2311 0664 04       		.byte	0x4
 2312 0665 31000000 		.4byte	0x31
 2313 0669 06       		.uleb128 0x6
 2314 066a 04       		.byte	0x4
 2315 066b F1040000 		.4byte	0x4f1
 2316 066f 17       		.uleb128 0x17
 2317 0670 95000000 		.4byte	0x95
 2318 0674 8D060000 		.4byte	0x68d
 2319 0678 09       		.uleb128 0x9
ARM GAS  C:\Users\EDULU~1.DES\AppData\Local\Temp\ccfRue3n.s 			page 63


 2320 0679 0F050000 		.4byte	0x50f
 2321 067d 09       		.uleb128 0x9
 2322 067e D0000000 		.4byte	0xd0
 2323 0682 09       		.uleb128 0x9
 2324 0683 8D060000 		.4byte	0x68d
 2325 0687 09       		.uleb128 0x9
 2326 0688 95000000 		.4byte	0x95
 2327 068c 00       		.byte	0
 2328 068d 06       		.uleb128 0x6
 2329 068e 04       		.byte	0x4
 2330 068f 38000000 		.4byte	0x38
 2331 0693 06       		.uleb128 0x6
 2332 0694 04       		.byte	0x4
 2333 0695 6F060000 		.4byte	0x66f
 2334 0699 17       		.uleb128 0x17
 2335 069a 4C010000 		.4byte	0x14c
 2336 069e B7060000 		.4byte	0x6b7
 2337 06a2 09       		.uleb128 0x9
 2338 06a3 0F050000 		.4byte	0x50f
 2339 06a7 09       		.uleb128 0x9
 2340 06a8 D0000000 		.4byte	0xd0
 2341 06ac 09       		.uleb128 0x9
 2342 06ad 4C010000 		.4byte	0x14c
 2343 06b1 09       		.uleb128 0x9
 2344 06b2 95000000 		.4byte	0x95
 2345 06b6 00       		.byte	0
 2346 06b7 06       		.uleb128 0x6
 2347 06b8 04       		.byte	0x4
 2348 06b9 99060000 		.4byte	0x699
 2349 06bd 17       		.uleb128 0x17
 2350 06be 95000000 		.4byte	0x95
 2351 06c2 D1060000 		.4byte	0x6d1
 2352 06c6 09       		.uleb128 0x9
 2353 06c7 0F050000 		.4byte	0x50f
 2354 06cb 09       		.uleb128 0x9
 2355 06cc D0000000 		.4byte	0xd0
 2356 06d0 00       		.byte	0
 2357 06d1 06       		.uleb128 0x6
 2358 06d2 04       		.byte	0x4
 2359 06d3 BD060000 		.4byte	0x6bd
 2360 06d7 0F       		.uleb128 0xf
 2361 06d8 49000000 		.4byte	0x49
 2362 06dc E7060000 		.4byte	0x6e7
 2363 06e0 10       		.uleb128 0x10
 2364 06e1 8E000000 		.4byte	0x8e
 2365 06e5 02       		.byte	0x2
 2366 06e6 00       		.byte	0
 2367 06e7 0F       		.uleb128 0xf
 2368 06e8 49000000 		.4byte	0x49
 2369 06ec F7060000 		.4byte	0x6f7
 2370 06f0 10       		.uleb128 0x10
 2371 06f1 8E000000 		.4byte	0x8e
 2372 06f5 00       		.byte	0
 2373 06f6 00       		.byte	0
 2374 06f7 0B       		.uleb128 0xb
 2375 06f8 78170000 		.4byte	.LASF99
 2376 06fc 06       		.byte	0x6
ARM GAS  C:\Users\EDULU~1.DES\AppData\Local\Temp\ccfRue3n.s 			page 64


 2377 06fd 1F01     		.2byte	0x11f
 2378 06ff 1A       		.byte	0x1a
 2379 0700 AE030000 		.4byte	0x3ae
 2380 0704 1B       		.uleb128 0x1b
 2381 0705 50100000 		.4byte	.LASF100
 2382 0709 0C       		.byte	0xc
 2383 070a 06       		.byte	0x6
 2384 070b 2301     		.2byte	0x123
 2385 070d 08       		.byte	0x8
 2386 070e 3D070000 		.4byte	0x73d
 2387 0712 19       		.uleb128 0x19
 2388 0713 22180000 		.4byte	.LASF34
 2389 0717 06       		.byte	0x6
 2390 0718 2501     		.2byte	0x125
 2391 071a 11       		.byte	0x11
 2392 071b 3D070000 		.4byte	0x73d
 2393 071f 00       		.byte	0
 2394 0720 19       		.uleb128 0x19
 2395 0721 5F0F0000 		.4byte	.LASF101
 2396 0725 06       		.byte	0x6
 2397 0726 2601     		.2byte	0x126
 2398 0728 07       		.byte	0x7
 2399 0729 95000000 		.4byte	0x95
 2400 072d 04       		.byte	0x4
 2401 072e 19       		.uleb128 0x19
 2402 072f 4A100000 		.4byte	.LASF102
 2403 0733 06       		.byte	0x6
 2404 0734 2701     		.2byte	0x127
 2405 0736 0B       		.byte	0xb
 2406 0737 43070000 		.4byte	0x743
 2407 073b 08       		.byte	0x8
 2408 073c 00       		.byte	0
 2409 073d 06       		.uleb128 0x6
 2410 073e 04       		.byte	0x4
 2411 073f 04070000 		.4byte	0x704
 2412 0743 06       		.uleb128 0x6
 2413 0744 04       		.byte	0x4
 2414 0745 F7060000 		.4byte	0x6f7
 2415 0749 1B       		.uleb128 0x1b
 2416 074a 9B150000 		.4byte	.LASF103
 2417 074e 0E       		.byte	0xe
 2418 074f 06       		.byte	0x6
 2419 0750 3F01     		.2byte	0x13f
 2420 0752 08       		.byte	0x8
 2421 0753 82070000 		.4byte	0x782
 2422 0757 19       		.uleb128 0x19
 2423 0758 D1130000 		.4byte	.LASF104
 2424 075c 06       		.byte	0x6
 2425 075d 4001     		.2byte	0x140
 2426 075f 12       		.byte	0x12
 2427 0760 82070000 		.4byte	0x782
 2428 0764 00       		.byte	0
 2429 0765 19       		.uleb128 0x19
 2430 0766 AB020000 		.4byte	.LASF105
 2431 076a 06       		.byte	0x6
 2432 076b 4101     		.2byte	0x141
 2433 076d 12       		.byte	0x12
ARM GAS  C:\Users\EDULU~1.DES\AppData\Local\Temp\ccfRue3n.s 			page 65


 2434 076e 82070000 		.4byte	0x782
 2435 0772 06       		.byte	0x6
 2436 0773 19       		.uleb128 0x19
 2437 0774 CF1C0000 		.4byte	.LASF106
 2438 0778 06       		.byte	0x6
 2439 0779 4201     		.2byte	0x142
 2440 077b 12       		.byte	0x12
 2441 077c 6F000000 		.4byte	0x6f
 2442 0780 0C       		.byte	0xc
 2443 0781 00       		.byte	0
 2444 0782 0F       		.uleb128 0xf
 2445 0783 6F000000 		.4byte	0x6f
 2446 0787 92070000 		.4byte	0x792
 2447 078b 10       		.uleb128 0x10
 2448 078c 8E000000 		.4byte	0x8e
 2449 0790 02       		.byte	0x2
 2450 0791 00       		.byte	0
 2451 0792 1C       		.uleb128 0x1c
 2452 0793 D0       		.byte	0xd0
 2453 0794 06       		.byte	0x6
 2454 0795 8002     		.2byte	0x280
 2455 0797 07       		.byte	0x7
 2456 0798 A7080000 		.4byte	0x8a7
 2457 079c 19       		.uleb128 0x19
 2458 079d 73050000 		.4byte	.LASF107
 2459 07a1 06       		.byte	0x6
 2460 07a2 8202     		.2byte	0x282
 2461 07a4 18       		.byte	0x18
 2462 07a5 8E000000 		.4byte	0x8e
 2463 07a9 00       		.byte	0
 2464 07aa 19       		.uleb128 0x19
 2465 07ab 11170000 		.4byte	.LASF108
 2466 07af 06       		.byte	0x6
 2467 07b0 8302     		.2byte	0x283
 2468 07b2 12       		.byte	0x12
 2469 07b3 63060000 		.4byte	0x663
 2470 07b7 04       		.byte	0x4
 2471 07b8 19       		.uleb128 0x19
 2472 07b9 22010000 		.4byte	.LASF109
 2473 07bd 06       		.byte	0x6
 2474 07be 8402     		.2byte	0x284
 2475 07c0 10       		.byte	0x10
 2476 07c1 A7080000 		.4byte	0x8a7
 2477 07c5 08       		.byte	0x8
 2478 07c6 19       		.uleb128 0x19
 2479 07c7 B2040000 		.4byte	.LASF110
 2480 07cb 06       		.byte	0x6
 2481 07cc 8502     		.2byte	0x285
 2482 07ce 17       		.byte	0x17
 2483 07cf 4F020000 		.4byte	0x24f
 2484 07d3 24       		.byte	0x24
 2485 07d4 19       		.uleb128 0x19
 2486 07d5 B40F0000 		.4byte	.LASF111
 2487 07d9 06       		.byte	0x6
 2488 07da 8602     		.2byte	0x286
 2489 07dc 0F       		.byte	0xf
 2490 07dd 95000000 		.4byte	0x95
ARM GAS  C:\Users\EDULU~1.DES\AppData\Local\Temp\ccfRue3n.s 			page 66


 2491 07e1 48       		.byte	0x48
 2492 07e2 19       		.uleb128 0x19
 2493 07e3 5F120000 		.4byte	.LASF112
 2494 07e7 06       		.byte	0x6
 2495 07e8 8702     		.2byte	0x287
 2496 07ea 2C       		.byte	0x2c
 2497 07eb 9C000000 		.4byte	0x9c
 2498 07ef 50       		.byte	0x50
 2499 07f0 19       		.uleb128 0x19
 2500 07f1 F5170000 		.4byte	.LASF113
 2501 07f5 06       		.byte	0x6
 2502 07f6 8802     		.2byte	0x288
 2503 07f8 1A       		.byte	0x1a
 2504 07f9 49070000 		.4byte	0x749
 2505 07fd 58       		.byte	0x58
 2506 07fe 19       		.uleb128 0x19
 2507 07ff 8C190000 		.4byte	.LASF114
 2508 0803 06       		.byte	0x6
 2509 0804 8902     		.2byte	0x289
 2510 0806 16       		.byte	0x16
 2511 0807 BB010000 		.4byte	0x1bb
 2512 080b 68       		.byte	0x68
 2513 080c 19       		.uleb128 0x19
 2514 080d 6C140000 		.4byte	.LASF115
 2515 0811 06       		.byte	0x6
 2516 0812 8A02     		.2byte	0x28a
 2517 0814 16       		.byte	0x16
 2518 0815 BB010000 		.4byte	0x1bb
 2519 0819 70       		.byte	0x70
 2520 081a 19       		.uleb128 0x19
 2521 081b 1A120000 		.4byte	.LASF116
 2522 081f 06       		.byte	0x6
 2523 0820 8B02     		.2byte	0x28b
 2524 0822 16       		.byte	0x16
 2525 0823 BB010000 		.4byte	0x1bb
 2526 0827 78       		.byte	0x78
 2527 0828 19       		.uleb128 0x19
 2528 0829 FC010000 		.4byte	.LASF117
 2529 082d 06       		.byte	0x6
 2530 082e 8C02     		.2byte	0x28c
 2531 0830 10       		.byte	0x10
 2532 0831 B7080000 		.4byte	0x8b7
 2533 0835 80       		.byte	0x80
 2534 0836 19       		.uleb128 0x19
 2535 0837 190E0000 		.4byte	.LASF118
 2536 083b 06       		.byte	0x6
 2537 083c 8D02     		.2byte	0x28d
 2538 083e 10       		.byte	0x10
 2539 083f C7080000 		.4byte	0x8c7
 2540 0843 88       		.byte	0x88
 2541 0844 19       		.uleb128 0x19
 2542 0845 891E0000 		.4byte	.LASF119
 2543 0849 06       		.byte	0x6
 2544 084a 8E02     		.2byte	0x28e
 2545 084c 0F       		.byte	0xf
 2546 084d 95000000 		.4byte	0x95
 2547 0851 A0       		.byte	0xa0
ARM GAS  C:\Users\EDULU~1.DES\AppData\Local\Temp\ccfRue3n.s 			page 67


 2548 0852 19       		.uleb128 0x19
 2549 0853 35040000 		.4byte	.LASF120
 2550 0857 06       		.byte	0x6
 2551 0858 8F02     		.2byte	0x28f
 2552 085a 16       		.byte	0x16
 2553 085b BB010000 		.4byte	0x1bb
 2554 085f A4       		.byte	0xa4
 2555 0860 19       		.uleb128 0x19
 2556 0861 2C170000 		.4byte	.LASF121
 2557 0865 06       		.byte	0x6
 2558 0866 9002     		.2byte	0x290
 2559 0868 16       		.byte	0x16
 2560 0869 BB010000 		.4byte	0x1bb
 2561 086d AC       		.byte	0xac
 2562 086e 19       		.uleb128 0x19
 2563 086f 7B1D0000 		.4byte	.LASF122
 2564 0873 06       		.byte	0x6
 2565 0874 9102     		.2byte	0x291
 2566 0876 16       		.byte	0x16
 2567 0877 BB010000 		.4byte	0x1bb
 2568 087b B4       		.byte	0xb4
 2569 087c 19       		.uleb128 0x19
 2570 087d B9110000 		.4byte	.LASF123
 2571 0881 06       		.byte	0x6
 2572 0882 9202     		.2byte	0x292
 2573 0884 16       		.byte	0x16
 2574 0885 BB010000 		.4byte	0x1bb
 2575 0889 BC       		.byte	0xbc
 2576 088a 19       		.uleb128 0x19
 2577 088b DC010000 		.4byte	.LASF124
 2578 088f 06       		.byte	0x6
 2579 0890 9302     		.2byte	0x293
 2580 0892 16       		.byte	0x16
 2581 0893 BB010000 		.4byte	0x1bb
 2582 0897 C4       		.byte	0xc4
 2583 0898 19       		.uleb128 0x19
 2584 0899 A6110000 		.4byte	.LASF125
 2585 089d 06       		.byte	0x6
 2586 089e 9402     		.2byte	0x294
 2587 08a0 08       		.byte	0x8
 2588 08a1 95000000 		.4byte	0x95
 2589 08a5 CC       		.byte	0xcc
 2590 08a6 00       		.byte	0
 2591 08a7 0F       		.uleb128 0xf
 2592 08a8 31000000 		.4byte	0x31
 2593 08ac B7080000 		.4byte	0x8b7
 2594 08b0 10       		.uleb128 0x10
 2595 08b1 8E000000 		.4byte	0x8e
 2596 08b5 19       		.byte	0x19
 2597 08b6 00       		.byte	0
 2598 08b7 0F       		.uleb128 0xf
 2599 08b8 31000000 		.4byte	0x31
 2600 08bc C7080000 		.4byte	0x8c7
 2601 08c0 10       		.uleb128 0x10
 2602 08c1 8E000000 		.4byte	0x8e
 2603 08c5 07       		.byte	0x7
 2604 08c6 00       		.byte	0
ARM GAS  C:\Users\EDULU~1.DES\AppData\Local\Temp\ccfRue3n.s 			page 68


 2605 08c7 0F       		.uleb128 0xf
 2606 08c8 31000000 		.4byte	0x31
 2607 08cc D7080000 		.4byte	0x8d7
 2608 08d0 10       		.uleb128 0x10
 2609 08d1 8E000000 		.4byte	0x8e
 2610 08d5 17       		.byte	0x17
 2611 08d6 00       		.byte	0
 2612 08d7 1C       		.uleb128 0x1c
 2613 08d8 F0       		.byte	0xf0
 2614 08d9 06       		.byte	0x6
 2615 08da 9902     		.2byte	0x299
 2616 08dc 07       		.byte	0x7
 2617 08dd FE080000 		.4byte	0x8fe
 2618 08e1 19       		.uleb128 0x19
 2619 08e2 2F1B0000 		.4byte	.LASF126
 2620 08e6 06       		.byte	0x6
 2621 08e7 9C02     		.2byte	0x29c
 2622 08e9 1B       		.byte	0x1b
 2623 08ea FE080000 		.4byte	0x8fe
 2624 08ee 00       		.byte	0
 2625 08ef 19       		.uleb128 0x19
 2626 08f0 780F0000 		.4byte	.LASF127
 2627 08f4 06       		.byte	0x6
 2628 08f5 9D02     		.2byte	0x29d
 2629 08f7 18       		.byte	0x18
 2630 08f8 0E090000 		.4byte	0x90e
 2631 08fc 78       		.byte	0x78
 2632 08fd 00       		.byte	0
 2633 08fe 0F       		.uleb128 0xf
 2634 08ff A8030000 		.4byte	0x3a8
 2635 0903 0E090000 		.4byte	0x90e
 2636 0907 10       		.uleb128 0x10
 2637 0908 8E000000 		.4byte	0x8e
 2638 090c 1D       		.byte	0x1d
 2639 090d 00       		.byte	0
 2640 090e 0F       		.uleb128 0xf
 2641 090f 8E000000 		.4byte	0x8e
 2642 0913 1E090000 		.4byte	0x91e
 2643 0917 10       		.uleb128 0x10
 2644 0918 8E000000 		.4byte	0x8e
 2645 091c 1D       		.byte	0x1d
 2646 091d 00       		.byte	0
 2647 091e 1D       		.uleb128 0x1d
 2648 091f F0       		.byte	0xf0
 2649 0920 06       		.byte	0x6
 2650 0921 7E02     		.2byte	0x27e
 2651 0923 03       		.byte	0x3
 2652 0924 43090000 		.4byte	0x943
 2653 0928 1E       		.uleb128 0x1e
 2654 0929 15070000 		.4byte	.LASF77
 2655 092d 06       		.byte	0x6
 2656 092e 9502     		.2byte	0x295
 2657 0930 0B       		.byte	0xb
 2658 0931 92070000 		.4byte	0x792
 2659 0935 1E       		.uleb128 0x1e
 2660 0936 CF010000 		.4byte	.LASF128
 2661 093a 06       		.byte	0x6
ARM GAS  C:\Users\EDULU~1.DES\AppData\Local\Temp\ccfRue3n.s 			page 69


 2662 093b 9E02     		.2byte	0x29e
 2663 093d 0B       		.byte	0xb
 2664 093e D7080000 		.4byte	0x8d7
 2665 0942 00       		.byte	0
 2666 0943 0F       		.uleb128 0xf
 2667 0944 31000000 		.4byte	0x31
 2668 0948 53090000 		.4byte	0x953
 2669 094c 10       		.uleb128 0x10
 2670 094d 8E000000 		.4byte	0x8e
 2671 0951 18       		.byte	0x18
 2672 0952 00       		.byte	0
 2673 0953 0C       		.uleb128 0xc
 2674 0954 6A000000 		.4byte	.LASF130
 2675 0958 06       		.uleb128 0x6
 2676 0959 04       		.byte	0x4
 2677 095a 53090000 		.4byte	0x953
 2678 095e 08       		.uleb128 0x8
 2679 095f 69090000 		.4byte	0x969
 2680 0963 09       		.uleb128 0x9
 2681 0964 0F050000 		.4byte	0x50f
 2682 0968 00       		.byte	0
 2683 0969 06       		.uleb128 0x6
 2684 096a 04       		.byte	0x4
 2685 096b 5E090000 		.4byte	0x95e
 2686 096f 06       		.uleb128 0x6
 2687 0970 04       		.byte	0x4
 2688 0971 39020000 		.4byte	0x239
 2689 0975 08       		.uleb128 0x8
 2690 0976 80090000 		.4byte	0x980
 2691 097a 09       		.uleb128 0x9
 2692 097b 95000000 		.4byte	0x95
 2693 097f 00       		.byte	0
 2694 0980 06       		.uleb128 0x6
 2695 0981 04       		.byte	0x4
 2696 0982 86090000 		.4byte	0x986
 2697 0986 06       		.uleb128 0x6
 2698 0987 04       		.byte	0x4
 2699 0988 75090000 		.4byte	0x975
 2700 098c 0F       		.uleb128 0xf
 2701 098d F7060000 		.4byte	0x6f7
 2702 0991 9C090000 		.4byte	0x99c
 2703 0995 10       		.uleb128 0x10
 2704 0996 8E000000 		.4byte	0x8e
 2705 099a 02       		.byte	0x2
 2706 099b 00       		.byte	0
 2707 099c 1F       		.uleb128 0x1f
 2708 099d 5E040000 		.4byte	.LASF131
 2709 09a1 06       		.byte	0x6
 2710 09a2 2E03     		.2byte	0x32e
 2711 09a4 17       		.byte	0x17
 2712 09a5 0F050000 		.4byte	0x50f
 2713 09a9 1F       		.uleb128 0x1f
 2714 09aa 23070000 		.4byte	.LASF132
 2715 09ae 06       		.byte	0x6
 2716 09af 2F03     		.2byte	0x32f
 2717 09b1 1D       		.byte	0x1d
 2718 09b2 15050000 		.4byte	0x515
ARM GAS  C:\Users\EDULU~1.DES\AppData\Local\Temp\ccfRue3n.s 			page 70


 2719 09b6 02       		.uleb128 0x2
 2720 09b7 F80A0000 		.4byte	.LASF133
 2721 09bb 07       		.byte	0x7
 2722 09bc C4       		.byte	0xc4
 2723 09bd 16       		.byte	0x16
 2724 09be 7D000000 		.4byte	0x7d
 2725 09c2 02       		.uleb128 0x2
 2726 09c3 36050000 		.4byte	.LASF134
 2727 09c7 07       		.byte	0x7
 2728 09c8 C7       		.byte	0xc7
 2729 09c9 16       		.byte	0x16
 2730 09ca B6090000 		.4byte	0x9b6
 2731 09ce 02       		.uleb128 0x2
 2732 09cf 56150000 		.4byte	.LASF135
 2733 09d3 07       		.byte	0x7
 2734 09d4 D2       		.byte	0xd2
 2735 09d5 16       		.byte	0x16
 2736 09d6 7D000000 		.4byte	0x7d
 2737 09da 02       		.uleb128 0x2
 2738 09db 0A030000 		.4byte	.LASF136
 2739 09df 07       		.byte	0x7
 2740 09e0 DD       		.byte	0xdd
 2741 09e1 16       		.byte	0x16
 2742 09e2 7D000000 		.4byte	0x7d
 2743 09e6 0F       		.uleb128 0xf
 2744 09e7 25000000 		.4byte	0x25
 2745 09eb F6090000 		.4byte	0x9f6
 2746 09ef 10       		.uleb128 0x10
 2747 09f0 8E000000 		.4byte	0x8e
 2748 09f4 0F       		.byte	0xf
 2749 09f5 00       		.byte	0
 2750 09f6 20       		.uleb128 0x20
 2751 09f7 F2160000 		.4byte	.LASF137
 2752 09fb 07       		.byte	0x7
 2753 09fc E7       		.byte	0xe7
 2754 09fd 20       		.byte	0x20
 2755 09fe E6090000 		.4byte	0x9e6
 2756 0a02 20       		.uleb128 0x20
 2757 0a03 47120000 		.4byte	.LASF138
 2758 0a07 07       		.byte	0x7
 2759 0a08 F8       		.byte	0xf8
 2760 0a09 20       		.byte	0x20
 2761 0a0a DA090000 		.4byte	0x9da
 2762 0a0e 20       		.uleb128 0x20
 2763 0a0f A3150000 		.4byte	.LASF139
 2764 0a13 07       		.byte	0x7
 2765 0a14 FD       		.byte	0xfd
 2766 0a15 20       		.byte	0x20
 2767 0a16 63000000 		.4byte	0x63
 2768 0a1a 20       		.uleb128 0x20
 2769 0a1b 99180000 		.4byte	.LASF140
 2770 0a1f 07       		.byte	0x7
 2771 0a20 FE       		.byte	0xfe
 2772 0a21 20       		.byte	0x20
 2773 0a22 63000000 		.4byte	0x63
 2774 0a26 1F       		.uleb128 0x1f
 2775 0a27 05190000 		.4byte	.LASF141
ARM GAS  C:\Users\EDULU~1.DES\AppData\Local\Temp\ccfRue3n.s 			page 71


 2776 0a2b 07       		.byte	0x7
 2777 0a2c 0001     		.2byte	0x100
 2778 0a2e 20       		.byte	0x20
 2779 0a2f CE090000 		.4byte	0x9ce
 2780 0a33 1F       		.uleb128 0x1f
 2781 0a34 B4140000 		.4byte	.LASF142
 2782 0a38 07       		.byte	0x7
 2783 0a39 0101     		.2byte	0x101
 2784 0a3b 20       		.byte	0x20
 2785 0a3c CE090000 		.4byte	0x9ce
 2786 0a40 1F       		.uleb128 0x1f
 2787 0a41 300E0000 		.4byte	.LASF143
 2788 0a45 07       		.byte	0x7
 2789 0a46 0201     		.2byte	0x102
 2790 0a48 20       		.byte	0x20
 2791 0a49 CE090000 		.4byte	0x9ce
 2792 0a4d 1F       		.uleb128 0x1f
 2793 0a4e 83110000 		.4byte	.LASF144
 2794 0a52 07       		.byte	0x7
 2795 0a53 0301     		.2byte	0x103
 2796 0a55 20       		.byte	0x20
 2797 0a56 CE090000 		.4byte	0x9ce
 2798 0a5a 1F       		.uleb128 0x1f
 2799 0a5b E6070000 		.4byte	.LASF145
 2800 0a5f 07       		.byte	0x7
 2801 0a60 0401     		.2byte	0x104
 2802 0a62 20       		.byte	0x20
 2803 0a63 CE090000 		.4byte	0x9ce
 2804 0a67 02       		.uleb128 0x2
 2805 0a68 080D0000 		.4byte	.LASF146
 2806 0a6c 08       		.byte	0x8
 2807 0a6d 30       		.byte	0x30
 2808 0a6e 1B       		.byte	0x1b
 2809 0a6f 63000000 		.4byte	0x63
 2810 0a73 02       		.uleb128 0x2
 2811 0a74 B3190000 		.4byte	.LASF147
 2812 0a78 08       		.byte	0x8
 2813 0a79 32       		.byte	0x32
 2814 0a7a 1B       		.byte	0x1b
 2815 0a7b 7D000000 		.4byte	0x7d
 2816 0a7f 02       		.uleb128 0x2
 2817 0a80 150B0000 		.4byte	.LASF148
 2818 0a84 08       		.byte	0x8
 2819 0a85 34       		.byte	0x34
 2820 0a86 1B       		.byte	0x1b
 2821 0a87 7D000000 		.4byte	0x7d
 2822 0a8b 02       		.uleb128 0x2
 2823 0a8c 34020000 		.4byte	.LASF149
 2824 0a90 08       		.byte	0x8
 2825 0a91 3A       		.byte	0x3a
 2826 0a92 1B       		.byte	0x1b
 2827 0a93 7D000000 		.4byte	0x7d
 2828 0a97 02       		.uleb128 0x2
 2829 0a98 E7110000 		.4byte	.LASF150
 2830 0a9c 08       		.byte	0x8
 2831 0a9d 40       		.byte	0x40
 2832 0a9e 1B       		.byte	0x1b
ARM GAS  C:\Users\EDULU~1.DES\AppData\Local\Temp\ccfRue3n.s 			page 72


 2833 0a9f 63000000 		.4byte	0x63
 2834 0aa3 04       		.uleb128 0x4
 2835 0aa4 970A0000 		.4byte	0xa97
 2836 0aa8 02       		.uleb128 0x2
 2837 0aa9 60100000 		.4byte	.LASF151
 2838 0aad 08       		.byte	0x8
 2839 0aae 42       		.byte	0x42
 2840 0aaf 1B       		.byte	0x1b
 2841 0ab0 50000000 		.4byte	0x50
 2842 0ab4 02       		.uleb128 0x2
 2843 0ab5 FF0D0000 		.4byte	.LASF152
 2844 0ab9 08       		.byte	0x8
 2845 0aba 44       		.byte	0x44
 2846 0abb 1B       		.byte	0x1b
 2847 0abc 63000000 		.4byte	0x63
 2848 0ac0 04       		.uleb128 0x4
 2849 0ac1 B40A0000 		.4byte	0xab4
 2850 0ac5 02       		.uleb128 0x2
 2851 0ac6 90070000 		.4byte	.LASF153
 2852 0aca 08       		.byte	0x8
 2853 0acb 45       		.byte	0x45
 2854 0acc 1B       		.byte	0x1b
 2855 0acd 7D000000 		.4byte	0x7d
 2856 0ad1 02       		.uleb128 0x2
 2857 0ad2 1A030000 		.4byte	.LASF154
 2858 0ad6 08       		.byte	0x8
 2859 0ad7 47       		.byte	0x47
 2860 0ad8 1B       		.byte	0x1b
 2861 0ad9 63000000 		.4byte	0x63
 2862 0add 02       		.uleb128 0x2
 2863 0ade 0E0F0000 		.4byte	.LASF155
 2864 0ae2 08       		.byte	0x8
 2865 0ae3 49       		.byte	0x49
 2866 0ae4 1B       		.byte	0x1b
 2867 0ae5 50000000 		.4byte	0x50
 2868 0ae9 04       		.uleb128 0x4
 2869 0aea DD0A0000 		.4byte	0xadd
 2870 0aee 02       		.uleb128 0x2
 2871 0aef 26160000 		.4byte	.LASF156
 2872 0af3 08       		.byte	0x8
 2873 0af4 4D       		.byte	0x4d
 2874 0af5 1B       		.byte	0x1b
 2875 0af6 7D000000 		.4byte	0x7d
 2876 0afa 04       		.uleb128 0x4
 2877 0afb EE0A0000 		.4byte	0xaee
 2878 0aff 02       		.uleb128 0x2
 2879 0b00 F9090000 		.4byte	.LASF157
 2880 0b04 08       		.byte	0x8
 2881 0b05 4F       		.byte	0x4f
 2882 0b06 1B       		.byte	0x1b
 2883 0b07 7D000000 		.4byte	0x7d
 2884 0b0b 02       		.uleb128 0x2
 2885 0b0c 18050000 		.4byte	.LASF158
 2886 0b10 08       		.byte	0x8
 2887 0b11 50       		.byte	0x50
 2888 0b12 1B       		.byte	0x1b
 2889 0b13 50000000 		.4byte	0x50
ARM GAS  C:\Users\EDULU~1.DES\AppData\Local\Temp\ccfRue3n.s 			page 73


 2890 0b17 02       		.uleb128 0x2
 2891 0b18 F60F0000 		.4byte	.LASF159
 2892 0b1c 08       		.byte	0x8
 2893 0b1d 52       		.byte	0x52
 2894 0b1e 1B       		.byte	0x1b
 2895 0b1f 7D000000 		.4byte	0x7d
 2896 0b23 02       		.uleb128 0x2
 2897 0b24 80070000 		.4byte	.LASF160
 2898 0b28 08       		.byte	0x8
 2899 0b29 54       		.byte	0x54
 2900 0b2a 1B       		.byte	0x1b
 2901 0b2b 50000000 		.4byte	0x50
 2902 0b2f 02       		.uleb128 0x2
 2903 0b30 30130000 		.4byte	.LASF161
 2904 0b34 08       		.byte	0x8
 2905 0b35 56       		.byte	0x56
 2906 0b36 1B       		.byte	0x1b
 2907 0b37 50000000 		.4byte	0x50
 2908 0b3b 02       		.uleb128 0x2
 2909 0b3c 2F0F0000 		.4byte	.LASF162
 2910 0b40 08       		.byte	0x8
 2911 0b41 58       		.byte	0x58
 2912 0b42 1B       		.byte	0x1b
 2913 0b43 7D000000 		.4byte	0x7d
 2914 0b47 20       		.uleb128 0x20
 2915 0b48 59060000 		.4byte	.LASF163
 2916 0b4c 09       		.byte	0x9
 2917 0b4d 95       		.byte	0x95
 2918 0b4e 17       		.byte	0x17
 2919 0b4f 530B0000 		.4byte	0xb53
 2920 0b53 06       		.uleb128 0x6
 2921 0b54 04       		.byte	0x4
 2922 0b55 EA000000 		.4byte	0xea
 2923 0b59 04       		.uleb128 0x4
 2924 0b5a 530B0000 		.4byte	0xb53
 2925 0b5e 21       		.uleb128 0x21
 2926 0b5f CA130000 		.4byte	.LASF526
 2927 0b63 07       		.byte	0x7
 2928 0b64 02       		.byte	0x2
 2929 0b65 6F000000 		.4byte	0x6f
 2930 0b69 0A       		.byte	0xa
 2931 0b6a A501     		.2byte	0x1a5
 2932 0b6c 10       		.byte	0x10
 2933 0b6d D80F0000 		.4byte	0xfd8
 2934 0b71 22       		.uleb128 0x22
 2935 0b72 CC0E0000 		.4byte	.LASF164
 2936 0b76 00       		.byte	0
 2937 0b77 23       		.uleb128 0x23
 2938 0b78 3D050000 		.4byte	.LASF165
 2939 0b7c 1027     		.2byte	0x2710
 2940 0b7e 23       		.uleb128 0x23
 2941 0b7f 27080000 		.4byte	.LASF166
 2942 0b83 1127     		.2byte	0x2711
 2943 0b85 23       		.uleb128 0x23
 2944 0b86 46050000 		.4byte	.LASF167
 2945 0b8a F82A     		.2byte	0x2af8
 2946 0b8c 23       		.uleb128 0x23
ARM GAS  C:\Users\EDULU~1.DES\AppData\Local\Temp\ccfRue3n.s 			page 74


 2947 0b8d 4F050000 		.4byte	.LASF168
 2948 0b91 E02E     		.2byte	0x2ee0
 2949 0b93 23       		.uleb128 0x23
 2950 0b94 7E0D0000 		.4byte	.LASF169
 2951 0b98 E12E     		.2byte	0x2ee1
 2952 0b9a 23       		.uleb128 0x23
 2953 0b9b 58050000 		.4byte	.LASF170
 2954 0b9f C832     		.2byte	0x32c8
 2955 0ba1 23       		.uleb128 0x23
 2956 0ba2 BA190000 		.4byte	.LASF171
 2957 0ba6 C932     		.2byte	0x32c9
 2958 0ba8 23       		.uleb128 0x23
 2959 0ba9 61050000 		.4byte	.LASF172
 2960 0bad B036     		.2byte	0x36b0
 2961 0baf 23       		.uleb128 0x23
 2962 0bb0 6A050000 		.4byte	.LASF173
 2963 0bb4 983A     		.2byte	0x3a98
 2964 0bb6 23       		.uleb128 0x23
 2965 0bb7 22050000 		.4byte	.LASF174
 2966 0bbb 993A     		.2byte	0x3a99
 2967 0bbd 23       		.uleb128 0x23
 2968 0bbe 970C0000 		.4byte	.LASF175
 2969 0bc2 FD3A     		.2byte	0x3afd
 2970 0bc4 23       		.uleb128 0x23
 2971 0bc5 AC060000 		.4byte	.LASF176
 2972 0bc9 FE3A     		.2byte	0x3afe
 2973 0bcb 23       		.uleb128 0x23
 2974 0bcc 491B0000 		.4byte	.LASF177
 2975 0bd0 FF3A     		.2byte	0x3aff
 2976 0bd2 23       		.uleb128 0x23
 2977 0bd3 A3140000 		.4byte	.LASF178
 2978 0bd7 003B     		.2byte	0x3b00
 2979 0bd9 23       		.uleb128 0x23
 2980 0bda A9000000 		.4byte	.LASF179
 2981 0bde 803E     		.2byte	0x3e80
 2982 0be0 23       		.uleb128 0x23
 2983 0be1 80050000 		.4byte	.LASF180
 2984 0be5 6842     		.2byte	0x4268
 2985 0be7 23       		.uleb128 0x23
 2986 0be8 89050000 		.4byte	.LASF181
 2987 0bec 5046     		.2byte	0x4650
 2988 0bee 23       		.uleb128 0x23
 2989 0bef E5100000 		.4byte	.LASF182
 2990 0bf3 5146     		.2byte	0x4651
 2991 0bf5 23       		.uleb128 0x23
 2992 0bf6 561D0000 		.4byte	.LASF183
 2993 0bfa 5246     		.2byte	0x4652
 2994 0bfc 23       		.uleb128 0x23
 2995 0bfd 4C040000 		.4byte	.LASF184
 2996 0c01 5346     		.2byte	0x4653
 2997 0c03 23       		.uleb128 0x23
 2998 0c04 E3170000 		.4byte	.LASF185
 2999 0c08 5446     		.2byte	0x4654
 3000 0c0a 23       		.uleb128 0x23
 3001 0c0b 440A0000 		.4byte	.LASF186
 3002 0c0f 5546     		.2byte	0x4655
 3003 0c11 23       		.uleb128 0x23
ARM GAS  C:\Users\EDULU~1.DES\AppData\Local\Temp\ccfRue3n.s 			page 75


 3004 0c12 7E0A0000 		.4byte	.LASF187
 3005 0c16 5646     		.2byte	0x4656
 3006 0c18 23       		.uleb128 0x23
 3007 0c19 C8000000 		.4byte	.LASF188
 3008 0c1d 384A     		.2byte	0x4a38
 3009 0c1f 23       		.uleb128 0x23
 3010 0c20 9E050000 		.4byte	.LASF189
 3011 0c24 204E     		.2byte	0x4e20
 3012 0c26 23       		.uleb128 0x23
 3013 0c27 A7050000 		.4byte	.LASF190
 3014 0c2b 0852     		.2byte	0x5208
 3015 0c2d 23       		.uleb128 0x23
 3016 0c2e 81180000 		.4byte	.LASF191
 3017 0c32 0952     		.2byte	0x5209
 3018 0c34 23       		.uleb128 0x23
 3019 0c35 B0050000 		.4byte	.LASF192
 3020 0c39 F055     		.2byte	0x55f0
 3021 0c3b 23       		.uleb128 0x23
 3022 0c3c 9C070000 		.4byte	.LASF193
 3023 0c40 B956     		.2byte	0x56b9
 3024 0c42 23       		.uleb128 0x23
 3025 0c43 00000000 		.4byte	.LASF194
 3026 0c47 BA56     		.2byte	0x56ba
 3027 0c49 23       		.uleb128 0x23
 3028 0c4a 4E080000 		.4byte	.LASF195
 3029 0c4e BB56     		.2byte	0x56bb
 3030 0c50 23       		.uleb128 0x23
 3031 0c51 CE070000 		.4byte	.LASF196
 3032 0c55 BC56     		.2byte	0x56bc
 3033 0c57 23       		.uleb128 0x23
 3034 0c58 B40A0000 		.4byte	.LASF197
 3035 0c5c BD56     		.2byte	0x56bd
 3036 0c5e 23       		.uleb128 0x23
 3037 0c5f 8A140000 		.4byte	.LASF198
 3038 0c63 BE56     		.2byte	0x56be
 3039 0c65 23       		.uleb128 0x23
 3040 0c66 F9110000 		.4byte	.LASF199
 3041 0c6a BF56     		.2byte	0x56bf
 3042 0c6c 23       		.uleb128 0x23
 3043 0c6d 03160000 		.4byte	.LASF200
 3044 0c71 C056     		.2byte	0x56c0
 3045 0c73 23       		.uleb128 0x23
 3046 0c74 60170000 		.4byte	.LASF201
 3047 0c78 C156     		.2byte	0x56c1
 3048 0c7a 23       		.uleb128 0x23
 3049 0c7b B9030000 		.4byte	.LASF202
 3050 0c7f C256     		.2byte	0x56c2
 3051 0c81 23       		.uleb128 0x23
 3052 0c82 34030000 		.4byte	.LASF203
 3053 0c86 1D57     		.2byte	0x571d
 3054 0c88 23       		.uleb128 0x23
 3055 0c89 5E1B0000 		.4byte	.LASF204
 3056 0c8d 1E57     		.2byte	0x571e
 3057 0c8f 23       		.uleb128 0x23
 3058 0c90 6A0E0000 		.4byte	.LASF205
 3059 0c94 8157     		.2byte	0x5781
 3060 0c96 23       		.uleb128 0x23
ARM GAS  C:\Users\EDULU~1.DES\AppData\Local\Temp\ccfRue3n.s 			page 76


 3061 0c97 F8030000 		.4byte	.LASF206
 3062 0c9b 8257     		.2byte	0x5782
 3063 0c9d 23       		.uleb128 0x23
 3064 0c9e 57140000 		.4byte	.LASF207
 3065 0ca2 8357     		.2byte	0x5783
 3066 0ca4 23       		.uleb128 0x23
 3067 0ca5 B9050000 		.4byte	.LASF208
 3068 0ca9 D859     		.2byte	0x59d8
 3069 0cab 23       		.uleb128 0x23
 3070 0cac 12130000 		.4byte	.LASF209
 3071 0cb0 D959     		.2byte	0x59d9
 3072 0cb2 23       		.uleb128 0x23
 3073 0cb3 ED0B0000 		.4byte	.LASF210
 3074 0cb7 DA59     		.2byte	0x59da
 3075 0cb9 23       		.uleb128 0x23
 3076 0cba 791A0000 		.4byte	.LASF211
 3077 0cbe C05D     		.2byte	0x5dc0
 3078 0cc0 23       		.uleb128 0x23
 3079 0cc1 61030000 		.4byte	.LASF212
 3080 0cc5 C15D     		.2byte	0x5dc1
 3081 0cc7 23       		.uleb128 0x23
 3082 0cc8 980E0000 		.4byte	.LASF213
 3083 0ccc C25D     		.2byte	0x5dc2
 3084 0cce 23       		.uleb128 0x23
 3085 0ccf 5B1C0000 		.4byte	.LASF214
 3086 0cd3 C35D     		.2byte	0x5dc3
 3087 0cd5 23       		.uleb128 0x23
 3088 0cd6 A51D0000 		.4byte	.LASF215
 3089 0cda C45D     		.2byte	0x5dc4
 3090 0cdc 23       		.uleb128 0x23
 3091 0cdd 361B0000 		.4byte	.LASF216
 3092 0ce1 255E     		.2byte	0x5e25
 3093 0ce3 23       		.uleb128 0x23
 3094 0ce4 28120000 		.4byte	.LASF217
 3095 0ce8 895E     		.2byte	0x5e89
 3096 0cea 23       		.uleb128 0x23
 3097 0ceb 1E130000 		.4byte	.LASF218
 3098 0cef 8A5E     		.2byte	0x5e8a
 3099 0cf1 23       		.uleb128 0x23
 3100 0cf2 F6050000 		.4byte	.LASF219
 3101 0cf6 A861     		.2byte	0x61a8
 3102 0cf8 23       		.uleb128 0x23
 3103 0cf9 8C080000 		.4byte	.LASF220
 3104 0cfd A961     		.2byte	0x61a9
 3105 0cff 23       		.uleb128 0x23
 3106 0d00 9C0D0000 		.4byte	.LASF221
 3107 0d04 AA61     		.2byte	0x61aa
 3108 0d06 23       		.uleb128 0x23
 3109 0d07 47020000 		.4byte	.LASF222
 3110 0d0b AB61     		.2byte	0x61ab
 3111 0d0d 23       		.uleb128 0x23
 3112 0d0e 810F0000 		.4byte	.LASF223
 3113 0d12 AC61     		.2byte	0x61ac
 3114 0d14 23       		.uleb128 0x23
 3115 0d15 7A140000 		.4byte	.LASF224
 3116 0d19 AD61     		.2byte	0x61ad
 3117 0d1b 23       		.uleb128 0x23
ARM GAS  C:\Users\EDULU~1.DES\AppData\Local\Temp\ccfRue3n.s 			page 77


 3118 0d1c 8E040000 		.4byte	.LASF225
 3119 0d20 AE61     		.2byte	0x61ae
 3120 0d22 23       		.uleb128 0x23
 3121 0d23 66130000 		.4byte	.LASF226
 3122 0d27 AF61     		.2byte	0x61af
 3123 0d29 23       		.uleb128 0x23
 3124 0d2a 2D190000 		.4byte	.LASF227
 3125 0d2e B061     		.2byte	0x61b0
 3126 0d30 23       		.uleb128 0x23
 3127 0d31 DD120000 		.4byte	.LASF228
 3128 0d35 0D62     		.2byte	0x620d
 3129 0d37 23       		.uleb128 0x23
 3130 0d38 83060000 		.4byte	.LASF229
 3131 0d3c 0E62     		.2byte	0x620e
 3132 0d3e 23       		.uleb128 0x23
 3133 0d3f 821A0000 		.4byte	.LASF230
 3134 0d43 7162     		.2byte	0x6271
 3135 0d45 23       		.uleb128 0x23
 3136 0d46 4A1D0000 		.4byte	.LASF231
 3137 0d4a 7262     		.2byte	0x6272
 3138 0d4c 23       		.uleb128 0x23
 3139 0d4d D7160000 		.4byte	.LASF232
 3140 0d51 7362     		.2byte	0x6273
 3141 0d53 23       		.uleb128 0x23
 3142 0d54 43150000 		.4byte	.LASF233
 3143 0d58 D562     		.2byte	0x62d5
 3144 0d5a 23       		.uleb128 0x23
 3145 0d5b FF050000 		.4byte	.LASF234
 3146 0d5f 9065     		.2byte	0x6590
 3147 0d61 23       		.uleb128 0x23
 3148 0d62 D6140000 		.4byte	.LASF235
 3149 0d66 9165     		.2byte	0x6591
 3150 0d68 23       		.uleb128 0x23
 3151 0d69 D3190000 		.4byte	.LASF236
 3152 0d6d 9265     		.2byte	0x6592
 3153 0d6f 23       		.uleb128 0x23
 3154 0d70 BF1B0000 		.4byte	.LASF237
 3155 0d74 9365     		.2byte	0x6593
 3156 0d76 23       		.uleb128 0x23
 3157 0d77 70080000 		.4byte	.LASF238
 3158 0d7b 9465     		.2byte	0x6594
 3159 0d7d 23       		.uleb128 0x23
 3160 0d7e 08060000 		.4byte	.LASF239
 3161 0d82 7869     		.2byte	0x6978
 3162 0d84 23       		.uleb128 0x23
 3163 0d85 FB160000 		.4byte	.LASF240
 3164 0d89 7969     		.2byte	0x6979
 3165 0d8b 23       		.uleb128 0x23
 3166 0d8c 47010000 		.4byte	.LASF241
 3167 0d90 7A69     		.2byte	0x697a
 3168 0d92 23       		.uleb128 0x23
 3169 0d93 131C0000 		.4byte	.LASF242
 3170 0d97 7B69     		.2byte	0x697b
 3171 0d99 23       		.uleb128 0x23
 3172 0d9a 11060000 		.4byte	.LASF243
 3173 0d9e 606D     		.2byte	0x6d60
 3174 0da0 23       		.uleb128 0x23
ARM GAS  C:\Users\EDULU~1.DES\AppData\Local\Temp\ccfRue3n.s 			page 78


 3175 0da1 F2120000 		.4byte	.LASF244
 3176 0da5 616D     		.2byte	0x6d61
 3177 0da7 23       		.uleb128 0x23
 3178 0da8 AA1E0000 		.4byte	.LASF245
 3179 0dac 626D     		.2byte	0x6d62
 3180 0dae 23       		.uleb128 0x23
 3181 0daf 6B010000 		.4byte	.LASF246
 3182 0db3 636D     		.2byte	0x6d63
 3183 0db5 23       		.uleb128 0x23
 3184 0db6 E00A0000 		.4byte	.LASF247
 3185 0dba 646D     		.2byte	0x6d64
 3186 0dbc 23       		.uleb128 0x23
 3187 0dbd B5090000 		.4byte	.LASF248
 3188 0dc1 656D     		.2byte	0x6d65
 3189 0dc3 23       		.uleb128 0x23
 3190 0dc4 5C010000 		.4byte	.LASF249
 3191 0dc8 C56D     		.2byte	0x6dc5
 3192 0dca 23       		.uleb128 0x23
 3193 0dcb AD130000 		.4byte	.LASF250
 3194 0dcf C66D     		.2byte	0x6dc6
 3195 0dd1 23       		.uleb128 0x23
 3196 0dd2 1E1A0000 		.4byte	.LASF251
 3197 0dd6 296E     		.2byte	0x6e29
 3198 0dd8 23       		.uleb128 0x23
 3199 0dd9 75100000 		.4byte	.LASF252
 3200 0ddd 2A6E     		.2byte	0x6e2a
 3201 0ddf 23       		.uleb128 0x23
 3202 0de0 06020000 		.4byte	.LASF253
 3203 0de4 2B6E     		.2byte	0x6e2b
 3204 0de6 23       		.uleb128 0x23
 3205 0de7 E7080000 		.4byte	.LASF254
 3206 0deb 2C6E     		.2byte	0x6e2c
 3207 0ded 23       		.uleb128 0x23
 3208 0dee 6B070000 		.4byte	.LASF255
 3209 0df2 2D6E     		.2byte	0x6e2d
 3210 0df4 23       		.uleb128 0x23
 3211 0df5 55180000 		.4byte	.LASF256
 3212 0df9 2E6E     		.2byte	0x6e2e
 3213 0dfb 23       		.uleb128 0x23
 3214 0dfc 9B120000 		.4byte	.LASF257
 3215 0e00 2F6E     		.2byte	0x6e2f
 3216 0e02 23       		.uleb128 0x23
 3217 0e03 B5080000 		.4byte	.LASF258
 3218 0e07 306E     		.2byte	0x6e30
 3219 0e09 23       		.uleb128 0x23
 3220 0e0a BF100000 		.4byte	.LASF259
 3221 0e0e 316E     		.2byte	0x6e31
 3222 0e10 23       		.uleb128 0x23
 3223 0e11 1A060000 		.4byte	.LASF260
 3224 0e15 4871     		.2byte	0x7148
 3225 0e17 23       		.uleb128 0x23
 3226 0e18 BC1D0000 		.4byte	.LASF261
 3227 0e1c 4971     		.2byte	0x7149
 3228 0e1e 23       		.uleb128 0x23
 3229 0e1f 800C0000 		.4byte	.LASF262
 3230 0e23 4A71     		.2byte	0x714a
 3231 0e25 23       		.uleb128 0x23
ARM GAS  C:\Users\EDULU~1.DES\AppData\Local\Temp\ccfRue3n.s 			page 79


 3232 0e26 08140000 		.4byte	.LASF263
 3233 0e2a 4B71     		.2byte	0x714b
 3234 0e2c 23       		.uleb128 0x23
 3235 0e2d 351D0000 		.4byte	.LASF264
 3236 0e31 4C71     		.2byte	0x714c
 3237 0e33 23       		.uleb128 0x23
 3238 0e34 7F170000 		.4byte	.LASF265
 3239 0e38 4D71     		.2byte	0x714d
 3240 0e3a 23       		.uleb128 0x23
 3241 0e3b E20F0000 		.4byte	.LASF266
 3242 0e3f 4E71     		.2byte	0x714e
 3243 0e41 23       		.uleb128 0x23
 3244 0e42 341A0000 		.4byte	.LASF267
 3245 0e46 4F71     		.2byte	0x714f
 3246 0e48 23       		.uleb128 0x23
 3247 0e49 E2020000 		.4byte	.LASF268
 3248 0e4d 5071     		.2byte	0x7150
 3249 0e4f 23       		.uleb128 0x23
 3250 0e50 2C0D0000 		.4byte	.LASF269
 3251 0e54 5171     		.2byte	0x7151
 3252 0e56 23       		.uleb128 0x23
 3253 0e57 2C140000 		.4byte	.LASF270
 3254 0e5b 5271     		.2byte	0x7152
 3255 0e5d 23       		.uleb128 0x23
 3256 0e5e CD080000 		.4byte	.LASF271
 3257 0e62 5371     		.2byte	0x7153
 3258 0e64 23       		.uleb128 0x23
 3259 0e65 5B070000 		.4byte	.LASF272
 3260 0e69 5471     		.2byte	0x7154
 3261 0e6b 23       		.uleb128 0x23
 3262 0e6c 150D0000 		.4byte	.LASF273
 3263 0e70 5571     		.2byte	0x7155
 3264 0e72 23       		.uleb128 0x23
 3265 0e73 61150000 		.4byte	.LASF274
 3266 0e77 5671     		.2byte	0x7156
 3267 0e79 23       		.uleb128 0x23
 3268 0e7a FB140000 		.4byte	.LASF275
 3269 0e7e 5771     		.2byte	0x7157
 3270 0e80 23       		.uleb128 0x23
 3271 0e81 8C1D0000 		.4byte	.LASF276
 3272 0e85 5871     		.2byte	0x7158
 3273 0e87 23       		.uleb128 0x23
 3274 0e88 B20D0000 		.4byte	.LASF277
 3275 0e8c 5971     		.2byte	0x7159
 3276 0e8e 23       		.uleb128 0x23
 3277 0e8f C8040000 		.4byte	.LASF278
 3278 0e93 5A71     		.2byte	0x715a
 3279 0e95 23       		.uleb128 0x23
 3280 0e96 DD130000 		.4byte	.LASF279
 3281 0e9a 5B71     		.2byte	0x715b
 3282 0e9c 23       		.uleb128 0x23
 3283 0e9d AB180000 		.4byte	.LASF280
 3284 0ea1 5C71     		.2byte	0x715c
 3285 0ea3 23       		.uleb128 0x23
 3286 0ea4 9C0A0000 		.4byte	.LASF281
 3287 0ea8 5D71     		.2byte	0x715d
 3288 0eaa 23       		.uleb128 0x23
ARM GAS  C:\Users\EDULU~1.DES\AppData\Local\Temp\ccfRue3n.s 			page 80


 3289 0eab D41C0000 		.4byte	.LASF282
 3290 0eaf 5E71     		.2byte	0x715e
 3291 0eb1 23       		.uleb128 0x23
 3292 0eb2 E11A0000 		.4byte	.LASF283
 3293 0eb6 5F71     		.2byte	0x715f
 3294 0eb8 23       		.uleb128 0x23
 3295 0eb9 21030000 		.4byte	.LASF284
 3296 0ebd AD71     		.2byte	0x71ad
 3297 0ebf 23       		.uleb128 0x23
 3298 0ec0 1E020000 		.4byte	.LASF285
 3299 0ec4 C071     		.2byte	0x71c0
 3300 0ec6 23       		.uleb128 0x23
 3301 0ec7 E9030000 		.4byte	.LASF286
 3302 0ecb C171     		.2byte	0x71c1
 3303 0ecd 23       		.uleb128 0x23
 3304 0ece CA0D0000 		.4byte	.LASF287
 3305 0ed2 C271     		.2byte	0x71c2
 3306 0ed4 23       		.uleb128 0x23
 3307 0ed5 231D0000 		.4byte	.LASF288
 3308 0ed9 C371     		.2byte	0x71c3
 3309 0edb 23       		.uleb128 0x23
 3310 0edc 75090000 		.4byte	.LASF289
 3311 0ee0 C471     		.2byte	0x71c4
 3312 0ee2 23       		.uleb128 0x23
 3313 0ee3 F11D0000 		.4byte	.LASF290
 3314 0ee7 1172     		.2byte	0x7211
 3315 0ee9 23       		.uleb128 0x23
 3316 0eea 2F1C0000 		.4byte	.LASF291
 3317 0eee 1272     		.2byte	0x7212
 3318 0ef0 23       		.uleb128 0x23
 3319 0ef1 C0060000 		.4byte	.LASF292
 3320 0ef5 1372     		.2byte	0x7213
 3321 0ef7 23       		.uleb128 0x23
 3322 0ef8 6F1C0000 		.4byte	.LASF293
 3323 0efc 1472     		.2byte	0x7214
 3324 0efe 23       		.uleb128 0x23
 3325 0eff 861C0000 		.4byte	.LASF294
 3326 0f03 7572     		.2byte	0x7275
 3327 0f05 23       		.uleb128 0x23
 3328 0f06 41090000 		.4byte	.LASF295
 3329 0f0a 7672     		.2byte	0x7276
 3330 0f0c 23       		.uleb128 0x23
 3331 0f0d 961E0000 		.4byte	.LASF296
 3332 0f11 7772     		.2byte	0x7277
 3333 0f13 23       		.uleb128 0x23
 3334 0f14 130A0000 		.4byte	.LASF297
 3335 0f18 7872     		.2byte	0x7278
 3336 0f1a 23       		.uleb128 0x23
 3337 0f1b E30D0000 		.4byte	.LASF298
 3338 0f1f 7972     		.2byte	0x7279
 3339 0f21 23       		.uleb128 0x23
 3340 0f22 7E0B0000 		.4byte	.LASF299
 3341 0f26 7A72     		.2byte	0x727a
 3342 0f28 23       		.uleb128 0x23
 3343 0f29 E4180000 		.4byte	.LASF300
 3344 0f2d 7B72     		.2byte	0x727b
 3345 0f2f 23       		.uleb128 0x23
ARM GAS  C:\Users\EDULU~1.DES\AppData\Local\Temp\ccfRue3n.s 			page 81


 3346 0f30 CE020000 		.4byte	.LASF301
 3347 0f34 7C72     		.2byte	0x727c
 3348 0f36 23       		.uleb128 0x23
 3349 0f37 471C0000 		.4byte	.LASF302
 3350 0f3b 7D72     		.2byte	0x727d
 3351 0f3d 23       		.uleb128 0x23
 3352 0f3e 6E060000 		.4byte	.LASF303
 3353 0f42 7E72     		.2byte	0x727e
 3354 0f44 23       		.uleb128 0x23
 3355 0f45 DE0B0000 		.4byte	.LASF304
 3356 0f49 D972     		.2byte	0x72d9
 3357 0f4b 23       		.uleb128 0x23
 3358 0f4c 481A0000 		.4byte	.LASF305
 3359 0f50 3D73     		.2byte	0x733d
 3360 0f52 23       		.uleb128 0x23
 3361 0f53 29090000 		.4byte	.LASF306
 3362 0f57 3E73     		.2byte	0x733e
 3363 0f59 23       		.uleb128 0x23
 3364 0f5a 60110000 		.4byte	.LASF307
 3365 0f5e 3F73     		.2byte	0x733f
 3366 0f60 23       		.uleb128 0x23
 3367 0f61 A91A0000 		.4byte	.LASF308
 3368 0f65 4073     		.2byte	0x7340
 3369 0f67 23       		.uleb128 0x23
 3370 0f68 5C090000 		.4byte	.LASF309
 3371 0f6c 4173     		.2byte	0x7341
 3372 0f6e 23       		.uleb128 0x23
 3373 0f6f 2D100000 		.4byte	.LASF310
 3374 0f73 4273     		.2byte	0x7342
 3375 0f75 23       		.uleb128 0x23
 3376 0f76 041C0000 		.4byte	.LASF311
 3377 0f7a 4373     		.2byte	0x7343
 3378 0f7c 23       		.uleb128 0x23
 3379 0f7d 22150000 		.4byte	.LASF312
 3380 0f81 4473     		.2byte	0x7344
 3381 0f83 23       		.uleb128 0x23
 3382 0f84 C50C0000 		.4byte	.LASF313
 3383 0f88 4573     		.2byte	0x7345
 3384 0f8a 23       		.uleb128 0x23
 3385 0f8b F8000000 		.4byte	.LASF314
 3386 0f8f 4673     		.2byte	0x7346
 3387 0f91 23       		.uleb128 0x23
 3388 0f92 3C000000 		.4byte	.LASF315
 3389 0f96 4773     		.2byte	0x7347
 3390 0f98 23       		.uleb128 0x23
 3391 0f99 D3150000 		.4byte	.LASF316
 3392 0f9d 4873     		.2byte	0x7348
 3393 0f9f 23       		.uleb128 0x23
 3394 0fa0 D1000000 		.4byte	.LASF317
 3395 0fa4 4973     		.2byte	0x7349
 3396 0fa6 23       		.uleb128 0x23
 3397 0fa7 23060000 		.4byte	.LASF318
 3398 0fab 3075     		.2byte	0x7530
 3399 0fad 23       		.uleb128 0x23
 3400 0fae 2C060000 		.4byte	.LASF319
 3401 0fb2 1879     		.2byte	0x7918
 3402 0fb4 23       		.uleb128 0x23
ARM GAS  C:\Users\EDULU~1.DES\AppData\Local\Temp\ccfRue3n.s 			page 82


 3403 0fb5 35060000 		.4byte	.LASF320
 3404 0fb9 007D     		.2byte	0x7d00
 3405 0fbb 23       		.uleb128 0x23
 3406 0fbc 3E060000 		.4byte	.LASF321
 3407 0fc0 E880     		.2byte	0x80e8
 3408 0fc2 23       		.uleb128 0x23
 3409 0fc3 47060000 		.4byte	.LASF322
 3410 0fc7 D084     		.2byte	0x84d0
 3411 0fc9 23       		.uleb128 0x23
 3412 0fca D10F0000 		.4byte	.LASF323
 3413 0fce D184     		.2byte	0x84d1
 3414 0fd0 23       		.uleb128 0x23
 3415 0fd1 50060000 		.4byte	.LASF324
 3416 0fd5 B888     		.2byte	0x88b8
 3417 0fd7 00       		.byte	0
 3418 0fd8 0B       		.uleb128 0xb
 3419 0fd9 AB040000 		.4byte	.LASF325
 3420 0fdd 0A       		.byte	0xa
 3421 0fde 7202     		.2byte	0x272
 3422 0fe0 03       		.byte	0x3
 3423 0fe1 5E0B0000 		.4byte	0xb5e
 3424 0fe5 0B       		.uleb128 0xb
 3425 0fe6 1E190000 		.4byte	.LASF326
 3426 0fea 0A       		.byte	0xa
 3427 0feb 8202     		.2byte	0x282
 3428 0fed 26       		.byte	0x26
 3429 0fee F20F0000 		.4byte	0xff2
 3430 0ff2 1B       		.uleb128 0x1b
 3431 0ff3 85080000 		.4byte	.LASF327
 3432 0ff7 10       		.byte	0x10
 3433 0ff8 0A       		.byte	0xa
 3434 0ff9 4003     		.2byte	0x340
 3435 0ffb 09       		.byte	0x9
 3436 0ffc 39100000 		.4byte	0x1039
 3437 1000 19       		.uleb128 0x19
 3438 1001 25190000 		.4byte	.LASF328
 3439 1005 0A       		.byte	0xa
 3440 1006 4103     		.2byte	0x341
 3441 1008 1A       		.byte	0x1a
 3442 1009 17160000 		.4byte	0x1617
 3443 100d 00       		.byte	0
 3444 100e 19       		.uleb128 0x19
 3445 100f 2F010000 		.4byte	.LASF329
 3446 1013 0A       		.byte	0xa
 3447 1014 4203     		.2byte	0x342
 3448 1016 1A       		.byte	0x1a
 3449 1017 D0000000 		.4byte	0xd0
 3450 101b 04       		.byte	0x4
 3451 101c 19       		.uleb128 0x19
 3452 101d 941A0000 		.4byte	.LASF330
 3453 1021 0A       		.byte	0xa
 3454 1022 4303     		.2byte	0x343
 3455 1024 1A       		.byte	0x1a
 3456 1025 970A0000 		.4byte	0xa97
 3457 1029 08       		.byte	0x8
 3458 102a 19       		.uleb128 0x19
 3459 102b 39080000 		.4byte	.LASF331
ARM GAS  C:\Users\EDULU~1.DES\AppData\Local\Temp\ccfRue3n.s 			page 83


 3460 102f 0A       		.byte	0xa
 3461 1030 4403     		.2byte	0x344
 3462 1032 1A       		.byte	0x1a
 3463 1033 C2090000 		.4byte	0x9c2
 3464 1037 0C       		.byte	0xc
 3465 1038 00       		.byte	0
 3466 1039 0B       		.uleb128 0xb
 3467 103a 321E0000 		.4byte	.LASF332
 3468 103e 0A       		.byte	0xa
 3469 103f 8802     		.2byte	0x288
 3470 1041 26       		.byte	0x26
 3471 1042 46100000 		.4byte	0x1046
 3472 1046 0C       		.uleb128 0xc
 3473 1047 8E100000 		.4byte	.LASF333
 3474 104b 0B       		.uleb128 0xb
 3475 104c 5E1E0000 		.4byte	.LASF334
 3476 1050 0A       		.byte	0xa
 3477 1051 8C02     		.2byte	0x28c
 3478 1053 26       		.byte	0x26
 3479 1054 58100000 		.4byte	0x1058
 3480 1058 1B       		.uleb128 0x1b
 3481 1059 A2010000 		.4byte	.LASF335
 3482 105d 28       		.byte	0x28
 3483 105e 0A       		.byte	0xa
 3484 105f 9503     		.2byte	0x395
 3485 1061 09       		.byte	0x9
 3486 1062 D6100000 		.4byte	0x10d6
 3487 1066 19       		.uleb128 0x19
 3488 1067 86120000 		.4byte	.LASF336
 3489 106b 0A       		.byte	0xa
 3490 106c 9703     		.2byte	0x397
 3491 106e 1A       		.byte	0x1a
 3492 106f C50A0000 		.4byte	0xac5
 3493 1073 00       		.byte	0
 3494 1074 19       		.uleb128 0x19
 3495 1075 AB190000 		.4byte	.LASF337
 3496 1079 0A       		.byte	0xa
 3497 107a 9803     		.2byte	0x398
 3498 107c 1A       		.byte	0x1a
 3499 107d 11160000 		.4byte	0x1611
 3500 1081 04       		.byte	0x4
 3501 1082 19       		.uleb128 0x19
 3502 1083 D50B0000 		.4byte	.LASF338
 3503 1087 0A       		.byte	0xa
 3504 1088 9903     		.2byte	0x399
 3505 108a 1A       		.byte	0x1a
 3506 108b 49150000 		.4byte	0x1549
 3507 108f 08       		.byte	0x8
 3508 1090 19       		.uleb128 0x19
 3509 1091 F1060000 		.4byte	.LASF339
 3510 1095 0A       		.byte	0xa
 3511 1096 9B03     		.2byte	0x39b
 3512 1098 1A       		.byte	0x1a
 3513 1099 22160000 		.4byte	0x1622
 3514 109d 14       		.byte	0x14
 3515 109e 19       		.uleb128 0x19
 3516 109f 241B0000 		.4byte	.LASF340
ARM GAS  C:\Users\EDULU~1.DES\AppData\Local\Temp\ccfRue3n.s 			page 84


 3517 10a3 0A       		.byte	0xa
 3518 10a4 9C03     		.2byte	0x39c
 3519 10a6 1A       		.byte	0x1a
 3520 10a7 22160000 		.4byte	0x1622
 3521 10ab 18       		.byte	0x18
 3522 10ac 19       		.uleb128 0x19
 3523 10ad 93060000 		.4byte	.LASF341
 3524 10b1 0A       		.byte	0xa
 3525 10b2 9D03     		.2byte	0x39d
 3526 10b4 1A       		.byte	0x1a
 3527 10b5 11160000 		.4byte	0x1611
 3528 10b9 1C       		.byte	0x1c
 3529 10ba 24       		.uleb128 0x24
 3530 10bb 43747200 		.ascii	"Ctr\000"
 3531 10bf 0A       		.byte	0xa
 3532 10c0 A003     		.2byte	0x3a0
 3533 10c2 1A       		.byte	0x1a
 3534 10c3 170B0000 		.4byte	0xb17
 3535 10c7 20       		.byte	0x20
 3536 10c8 24       		.uleb128 0x24
 3537 10c9 545300   		.ascii	"TS\000"
 3538 10cc 0A       		.byte	0xa
 3539 10cd A103     		.2byte	0x3a1
 3540 10cf 1A       		.byte	0x1a
 3541 10d0 C2090000 		.4byte	0x9c2
 3542 10d4 24       		.byte	0x24
 3543 10d5 00       		.byte	0
 3544 10d6 0B       		.uleb128 0xb
 3545 10d7 8B1B0000 		.4byte	.LASF342
 3546 10db 0A       		.byte	0xa
 3547 10dc 8E02     		.2byte	0x28e
 3548 10de 26       		.byte	0x26
 3549 10df BF000000 		.4byte	0xbf
 3550 10e3 0B       		.uleb128 0xb
 3551 10e4 E4000000 		.4byte	.LASF343
 3552 10e8 0A       		.byte	0xa
 3553 10e9 9002     		.2byte	0x290
 3554 10eb 26       		.byte	0x26
 3555 10ec F0100000 		.4byte	0x10f0
 3556 10f0 1B       		.uleb128 0x1b
 3557 10f1 40020000 		.4byte	.LASF344
 3558 10f5 7C       		.byte	0x7c
 3559 10f6 0A       		.byte	0xa
 3560 10f7 AB03     		.2byte	0x3ab
 3561 10f9 08       		.byte	0x8
 3562 10fa E8120000 		.4byte	0x12e8
 3563 10fe 19       		.uleb128 0x19
 3564 10ff 1C070000 		.4byte	.LASF345
 3565 1103 0A       		.byte	0xa
 3566 1104 AC03     		.2byte	0x3ac
 3567 1106 1A       		.byte	0x1a
 3568 1107 530B0000 		.4byte	0xb53
 3569 110b 00       		.byte	0
 3570 110c 19       		.uleb128 0x19
 3571 110d 89070000 		.4byte	.LASF346
 3572 1111 0A       		.byte	0xa
 3573 1112 AE03     		.2byte	0x3ae
ARM GAS  C:\Users\EDULU~1.DES\AppData\Local\Temp\ccfRue3n.s 			page 85


 3574 1114 1A       		.byte	0x1a
 3575 1115 D0000000 		.4byte	0xd0
 3576 1119 04       		.byte	0x4
 3577 111a 19       		.uleb128 0x19
 3578 111b 0C090000 		.4byte	.LASF347
 3579 111f 0A       		.byte	0xa
 3580 1120 B003     		.2byte	0x3b0
 3581 1122 1A       		.byte	0x1a
 3582 1123 530B0000 		.4byte	0xb53
 3583 1127 08       		.byte	0x8
 3584 1128 19       		.uleb128 0x19
 3585 1129 25190000 		.4byte	.LASF328
 3586 112d 0A       		.byte	0xa
 3587 112e B203     		.2byte	0x3b2
 3588 1130 1A       		.byte	0x1a
 3589 1131 FF150000 		.4byte	0x15ff
 3590 1135 0C       		.byte	0xc
 3591 1136 19       		.uleb128 0x19
 3592 1137 40180000 		.4byte	.LASF348
 3593 113b 0A       		.byte	0xa
 3594 113c B303     		.2byte	0x3b3
 3595 113e 1A       		.byte	0x1a
 3596 113f FF150000 		.4byte	0x15ff
 3597 1143 10       		.byte	0x10
 3598 1144 19       		.uleb128 0x19
 3599 1145 10000000 		.4byte	.LASF349
 3600 1149 0A       		.byte	0xa
 3601 114a B503     		.2byte	0x3b5
 3602 114c 1A       		.byte	0x1a
 3603 114d FF150000 		.4byte	0x15ff
 3604 1151 14       		.byte	0x14
 3605 1152 19       		.uleb128 0x19
 3606 1153 CC0A0000 		.4byte	.LASF350
 3607 1157 0A       		.byte	0xa
 3608 1158 B603     		.2byte	0x3b6
 3609 115a 1A       		.byte	0x1a
 3610 115b FF150000 		.4byte	0x15ff
 3611 115f 18       		.byte	0x18
 3612 1160 19       		.uleb128 0x19
 3613 1161 48180000 		.4byte	.LASF351
 3614 1165 0A       		.byte	0xa
 3615 1166 B803     		.2byte	0x3b8
 3616 1168 1A       		.byte	0x1a
 3617 1169 28160000 		.4byte	0x1628
 3618 116d 1C       		.byte	0x1c
 3619 116e 19       		.uleb128 0x19
 3620 116f AB190000 		.4byte	.LASF337
 3621 1173 0A       		.byte	0xa
 3622 1174 BA03     		.2byte	0x3ba
 3623 1176 1A       		.byte	0x1a
 3624 1177 11160000 		.4byte	0x1611
 3625 117b 20       		.byte	0x20
 3626 117c 19       		.uleb128 0x19
 3627 117d F51A0000 		.4byte	.LASF352
 3628 1181 0A       		.byte	0xa
 3629 1182 BC03     		.2byte	0x3bc
 3630 1184 1A       		.byte	0x1a
ARM GAS  C:\Users\EDULU~1.DES\AppData\Local\Temp\ccfRue3n.s 			page 86


 3631 1185 530B0000 		.4byte	0xb53
 3632 1189 24       		.byte	0x24
 3633 118a 19       		.uleb128 0x19
 3634 118b BC130000 		.4byte	.LASF353
 3635 118f 0A       		.byte	0xa
 3636 1190 C203     		.2byte	0x3c2
 3637 1192 1A       		.byte	0x1a
 3638 1193 D6100000 		.4byte	0x10d6
 3639 1197 28       		.byte	0x28
 3640 1198 19       		.uleb128 0x19
 3641 1199 D6170000 		.4byte	.LASF354
 3642 119d 0A       		.byte	0xa
 3643 119e C303     		.2byte	0x3c3
 3644 11a0 1A       		.byte	0x1a
 3645 11a1 D0000000 		.4byte	0xd0
 3646 11a5 2C       		.byte	0x2c
 3647 11a6 19       		.uleb128 0x19
 3648 11a7 3F080000 		.4byte	.LASF355
 3649 11ab 0A       		.byte	0xa
 3650 11ac C503     		.2byte	0x3c5
 3651 11ae 1A       		.byte	0x1a
 3652 11af 05160000 		.4byte	0x1605
 3653 11b3 30       		.byte	0x30
 3654 11b4 19       		.uleb128 0x19
 3655 11b5 EB160000 		.4byte	.LASF356
 3656 11b9 0A       		.byte	0xa
 3657 11ba C603     		.2byte	0x3c6
 3658 11bc 1A       		.byte	0x1a
 3659 11bd 230B0000 		.4byte	0xb23
 3660 11c1 34       		.byte	0x34
 3661 11c2 19       		.uleb128 0x19
 3662 11c3 CC1A0000 		.4byte	.LASF357
 3663 11c7 0A       		.byte	0xa
 3664 11c8 C703     		.2byte	0x3c7
 3665 11ca 1A       		.byte	0x1a
 3666 11cb 2F0B0000 		.4byte	0xb2f
 3667 11cf 35       		.byte	0x35
 3668 11d0 19       		.uleb128 0x19
 3669 11d1 04110000 		.4byte	.LASF358
 3670 11d5 0A       		.byte	0xa
 3671 11d6 C903     		.2byte	0x3c9
 3672 11d8 1A       		.byte	0x1a
 3673 11d9 230B0000 		.4byte	0xb23
 3674 11dd 36       		.byte	0x36
 3675 11de 19       		.uleb128 0x19
 3676 11df A01D0000 		.4byte	.LASF359
 3677 11e3 0A       		.byte	0xa
 3678 11e4 CA03     		.2byte	0x3ca
 3679 11e6 1A       		.byte	0x1a
 3680 11e7 DD0A0000 		.4byte	0xadd
 3681 11eb 37       		.byte	0x37
 3682 11ec 19       		.uleb128 0x19
 3683 11ed C40E0000 		.4byte	.LASF360
 3684 11f1 0A       		.byte	0xa
 3685 11f2 CB03     		.2byte	0x3cb
 3686 11f4 1A       		.byte	0x1a
 3687 11f5 F6000000 		.4byte	0xf6
ARM GAS  C:\Users\EDULU~1.DES\AppData\Local\Temp\ccfRue3n.s 			page 87


 3688 11f9 38       		.byte	0x38
 3689 11fa 24       		.uleb128 0x24
 3690 11fb 4F707400 		.ascii	"Opt\000"
 3691 11ff 0A       		.byte	0xa
 3692 1200 CC03     		.2byte	0x3cc
 3693 1202 1A       		.byte	0x1a
 3694 1203 D10A0000 		.4byte	0xad1
 3695 1207 3C       		.byte	0x3c
 3696 1208 19       		.uleb128 0x19
 3697 1209 1C000000 		.4byte	.LASF361
 3698 120d 0A       		.byte	0xa
 3699 120e CE03     		.2byte	0x3ce
 3700 1210 1A       		.byte	0x1a
 3701 1211 B40A0000 		.4byte	0xab4
 3702 1215 3E       		.byte	0x3e
 3703 1216 24       		.uleb128 0x24
 3704 1217 545300   		.ascii	"TS\000"
 3705 121a 0A       		.byte	0xa
 3706 121b D003     		.2byte	0x3d0
 3707 121d 1A       		.byte	0x1a
 3708 121e C2090000 		.4byte	0x9c2
 3709 1222 40       		.byte	0x40
 3710 1223 19       		.uleb128 0x19
 3711 1224 B51D0000 		.4byte	.LASF362
 3712 1228 0A       		.byte	0xa
 3713 1229 D203     		.2byte	0x3d2
 3714 122b 1A       		.byte	0x1a
 3715 122c 170B0000 		.4byte	0xb17
 3716 1230 44       		.byte	0x44
 3717 1231 19       		.uleb128 0x19
 3718 1232 C2020000 		.4byte	.LASF363
 3719 1236 0A       		.byte	0xa
 3720 1237 D503     		.2byte	0x3d5
 3721 1239 1A       		.byte	0x1a
 3722 123a 3B0B0000 		.4byte	0xb3b
 3723 123e 48       		.byte	0x48
 3724 123f 19       		.uleb128 0x19
 3725 1240 59130000 		.4byte	.LASF364
 3726 1244 0A       		.byte	0xa
 3727 1245 D603     		.2byte	0x3d6
 3728 1247 1A       		.byte	0x1a
 3729 1248 3B0B0000 		.4byte	0xb3b
 3730 124c 4C       		.byte	0x4c
 3731 124d 19       		.uleb128 0x19
 3732 124e 04080000 		.4byte	.LASF365
 3733 1252 0A       		.byte	0xa
 3734 1253 D703     		.2byte	0x3d7
 3735 1255 1A       		.byte	0x1a
 3736 1256 3B0B0000 		.4byte	0xb3b
 3737 125a 50       		.byte	0x50
 3738 125b 19       		.uleb128 0x19
 3739 125c D80E0000 		.4byte	.LASF366
 3740 1260 0A       		.byte	0xa
 3741 1261 D903     		.2byte	0x3d9
 3742 1263 1A       		.byte	0x1a
 3743 1264 3B0B0000 		.4byte	0xb3b
 3744 1268 54       		.byte	0x54
ARM GAS  C:\Users\EDULU~1.DES\AppData\Local\Temp\ccfRue3n.s 			page 88


 3745 1269 19       		.uleb128 0x19
 3746 126a 0B040000 		.4byte	.LASF367
 3747 126e 0A       		.byte	0xa
 3748 126f DA03     		.2byte	0x3da
 3749 1271 1A       		.byte	0x1a
 3750 1272 3B0B0000 		.4byte	0xb3b
 3751 1276 58       		.byte	0x58
 3752 1277 19       		.uleb128 0x19
 3753 1278 19040000 		.4byte	.LASF368
 3754 127c 0A       		.byte	0xa
 3755 127d EA03     		.2byte	0x3ea
 3756 127f 1A       		.byte	0x1a
 3757 1280 2E160000 		.4byte	0x162e
 3758 1284 5C       		.byte	0x5c
 3759 1285 19       		.uleb128 0x19
 3760 1286 87020000 		.4byte	.LASF369
 3761 128a 0A       		.byte	0xa
 3762 128b F403     		.2byte	0x3f4
 3763 128d 1A       		.byte	0x1a
 3764 128e A80A0000 		.4byte	0xaa8
 3765 1292 60       		.byte	0x60
 3766 1293 19       		.uleb128 0x19
 3767 1294 99190000 		.4byte	.LASF370
 3768 1298 0A       		.byte	0xa
 3769 1299 0504     		.2byte	0x405
 3770 129b 1A       		.byte	0x1a
 3771 129c F6000000 		.4byte	0xf6
 3772 12a0 64       		.byte	0x64
 3773 12a1 19       		.uleb128 0x19
 3774 12a2 110E0000 		.4byte	.LASF371
 3775 12a6 0A       		.byte	0xa
 3776 12a7 0604     		.2byte	0x406
 3777 12a9 1A       		.byte	0x1a
 3778 12aa F6000000 		.4byte	0xf6
 3779 12ae 68       		.byte	0x68
 3780 12af 19       		.uleb128 0x19
 3781 12b0 49170000 		.4byte	.LASF372
 3782 12b4 0A       		.byte	0xa
 3783 12b5 0A04     		.2byte	0x40a
 3784 12b7 1A       		.byte	0x1a
 3785 12b8 C2090000 		.4byte	0x9c2
 3786 12bc 6C       		.byte	0x6c
 3787 12bd 19       		.uleb128 0x19
 3788 12be F1060000 		.4byte	.LASF339
 3789 12c2 0A       		.byte	0xa
 3790 12c3 1104     		.2byte	0x411
 3791 12c5 1A       		.byte	0x1a
 3792 12c6 FF150000 		.4byte	0x15ff
 3793 12ca 70       		.byte	0x70
 3794 12cb 19       		.uleb128 0x19
 3795 12cc 241B0000 		.4byte	.LASF340
 3796 12d0 0A       		.byte	0xa
 3797 12d1 1204     		.2byte	0x412
 3798 12d3 1A       		.byte	0x1a
 3799 12d4 FF150000 		.4byte	0x15ff
 3800 12d8 74       		.byte	0x74
 3801 12d9 19       		.uleb128 0x19
ARM GAS  C:\Users\EDULU~1.DES\AppData\Local\Temp\ccfRue3n.s 			page 89


 3802 12da 93060000 		.4byte	.LASF341
 3803 12de 0A       		.byte	0xa
 3804 12df 1304     		.2byte	0x413
 3805 12e1 1A       		.byte	0x1a
 3806 12e2 11160000 		.4byte	0x1611
 3807 12e6 78       		.byte	0x78
 3808 12e7 00       		.byte	0
 3809 12e8 0B       		.uleb128 0xb
 3810 12e9 0A1E0000 		.4byte	.LASF373
 3811 12ed 0A       		.byte	0xa
 3812 12ee 9C02     		.2byte	0x29c
 3813 12f0 26       		.byte	0x26
 3814 12f1 F5120000 		.4byte	0x12f5
 3815 12f5 1B       		.uleb128 0x1b
 3816 12f6 9B090000 		.4byte	.LASF374
 3817 12fa 0C       		.byte	0xc
 3818 12fb 0A       		.byte	0xa
 3819 12fc D002     		.2byte	0x2d0
 3820 12fe 09       		.byte	0x9
 3821 12ff 2E130000 		.4byte	0x132e
 3822 1303 19       		.uleb128 0x19
 3823 1304 53070000 		.4byte	.LASF375
 3824 1308 0A       		.byte	0xa
 3825 1309 D102     		.2byte	0x2d1
 3826 130b 1A       		.byte	0x1a
 3827 130c FF150000 		.4byte	0x15ff
 3828 1310 00       		.byte	0
 3829 1311 19       		.uleb128 0x19
 3830 1312 68080000 		.4byte	.LASF376
 3831 1316 0A       		.byte	0xa
 3832 1317 D202     		.2byte	0x2d2
 3833 1319 1A       		.byte	0x1a
 3834 131a FF150000 		.4byte	0x15ff
 3835 131e 04       		.byte	0x4
 3836 131f 19       		.uleb128 0x19
 3837 1320 6E1A0000 		.4byte	.LASF377
 3838 1324 0A       		.byte	0xa
 3839 1325 D302     		.2byte	0x2d3
 3840 1327 1A       		.byte	0x1a
 3841 1328 B40A0000 		.4byte	0xab4
 3842 132c 08       		.byte	0x8
 3843 132d 00       		.byte	0
 3844 132e 0B       		.uleb128 0xb
 3845 132f 3B170000 		.4byte	.LASF378
 3846 1333 0A       		.byte	0xa
 3847 1334 9E02     		.2byte	0x29e
 3848 1336 26       		.byte	0x26
 3849 1337 3B130000 		.4byte	0x133b
 3850 133b 1B       		.uleb128 0x1b
 3851 133c C30F0000 		.4byte	.LASF379
 3852 1340 08       		.byte	0x8
 3853 1341 0A       		.byte	0xa
 3854 1342 1E04     		.2byte	0x41e
 3855 1344 09       		.byte	0x9
 3856 1345 74130000 		.4byte	0x1374
 3857 1349 19       		.uleb128 0x19
 3858 134a 9D110000 		.4byte	.LASF380
ARM GAS  C:\Users\EDULU~1.DES\AppData\Local\Temp\ccfRue3n.s 			page 90


 3859 134e 0A       		.byte	0xa
 3860 134f 1F04     		.2byte	0x41f
 3861 1351 1A       		.byte	0x1a
 3862 1352 FF150000 		.4byte	0x15ff
 3863 1356 00       		.byte	0
 3864 1357 19       		.uleb128 0x19
 3865 1358 6E1A0000 		.4byte	.LASF377
 3866 135c 0A       		.byte	0xa
 3867 135d 2004     		.2byte	0x420
 3868 135f 1A       		.byte	0x1a
 3869 1360 B40A0000 		.4byte	0xab4
 3870 1364 04       		.byte	0x4
 3871 1365 19       		.uleb128 0x19
 3872 1366 49140000 		.4byte	.LASF381
 3873 136a 0A       		.byte	0xa
 3874 136b 2104     		.2byte	0x421
 3875 136d 1A       		.byte	0x1a
 3876 136e B40A0000 		.4byte	0xab4
 3877 1372 06       		.byte	0x6
 3878 1373 00       		.byte	0
 3879 1374 0B       		.uleb128 0xb
 3880 1375 400D0000 		.4byte	.LASF382
 3881 1379 0A       		.byte	0xa
 3882 137a A002     		.2byte	0x2a0
 3883 137c 26       		.byte	0x26
 3884 137d 81130000 		.4byte	0x1381
 3885 1381 06       		.uleb128 0x6
 3886 1382 04       		.byte	0x4
 3887 1383 87130000 		.4byte	0x1387
 3888 1387 08       		.uleb128 0x8
 3889 1388 97130000 		.4byte	0x1397
 3890 138c 09       		.uleb128 0x9
 3891 138d D0000000 		.4byte	0xd0
 3892 1391 09       		.uleb128 0x9
 3893 1392 D0000000 		.4byte	0xd0
 3894 1396 00       		.byte	0
 3895 1397 0B       		.uleb128 0xb
 3896 1398 9C000000 		.4byte	.LASF383
 3897 139c 0A       		.byte	0xa
 3898 139d A102     		.2byte	0x2a1
 3899 139f 26       		.byte	0x26
 3900 13a0 A4130000 		.4byte	0x13a4
 3901 13a4 1B       		.uleb128 0x1b
 3902 13a5 9F0F0000 		.4byte	.LASF384
 3903 13a9 34       		.byte	0x34
 3904 13aa 0A       		.byte	0xa
 3905 13ab 2B04     		.2byte	0x42b
 3906 13ad 09       		.byte	0x9
 3907 13ae 77140000 		.4byte	0x1477
 3908 13b2 19       		.uleb128 0x19
 3909 13b3 86120000 		.4byte	.LASF336
 3910 13b7 0A       		.byte	0xa
 3911 13b8 2C04     		.2byte	0x42c
 3912 13ba 1A       		.byte	0x1a
 3913 13bb C50A0000 		.4byte	0xac5
 3914 13bf 00       		.byte	0
 3915 13c0 19       		.uleb128 0x19
ARM GAS  C:\Users\EDULU~1.DES\AppData\Local\Temp\ccfRue3n.s 			page 91


 3916 13c1 AB190000 		.4byte	.LASF337
 3917 13c5 0A       		.byte	0xa
 3918 13c6 2D04     		.2byte	0x42d
 3919 13c8 1A       		.byte	0x1a
 3920 13c9 11160000 		.4byte	0x1611
 3921 13cd 04       		.byte	0x4
 3922 13ce 19       		.uleb128 0x19
 3923 13cf 8A010000 		.4byte	.LASF385
 3924 13d3 0A       		.byte	0xa
 3925 13d4 2E04     		.2byte	0x42e
 3926 13d6 1A       		.byte	0x1a
 3927 13d7 74130000 		.4byte	0x1374
 3928 13db 08       		.byte	0x8
 3929 13dc 19       		.uleb128 0x19
 3930 13dd 09050000 		.4byte	.LASF386
 3931 13e1 0A       		.byte	0xa
 3932 13e2 2F04     		.2byte	0x42f
 3933 13e4 1A       		.byte	0x1a
 3934 13e5 D0000000 		.4byte	0xd0
 3935 13e9 0C       		.byte	0xc
 3936 13ea 19       		.uleb128 0x19
 3937 13eb 25190000 		.4byte	.LASF328
 3938 13ef 0A       		.byte	0xa
 3939 13f0 3004     		.2byte	0x430
 3940 13f2 1A       		.byte	0x1a
 3941 13f3 3E160000 		.4byte	0x163e
 3942 13f7 10       		.byte	0x10
 3943 13f8 19       		.uleb128 0x19
 3944 13f9 40180000 		.4byte	.LASF348
 3945 13fd 0A       		.byte	0xa
 3946 13fe 3104     		.2byte	0x431
 3947 1400 1A       		.byte	0x1a
 3948 1401 3E160000 		.4byte	0x163e
 3949 1405 14       		.byte	0x14
 3950 1406 19       		.uleb128 0x19
 3951 1407 23090000 		.4byte	.LASF387
 3952 140b 0A       		.byte	0xa
 3953 140c 3204     		.2byte	0x432
 3954 140e 1A       		.byte	0x1a
 3955 140f 3B0B0000 		.4byte	0xb3b
 3956 1413 18       		.byte	0x18
 3957 1414 19       		.uleb128 0x19
 3958 1415 20080000 		.4byte	.LASF388
 3959 1419 0A       		.byte	0xa
 3960 141a 3304     		.2byte	0x433
 3961 141c 1A       		.byte	0x1a
 3962 141d 3B0B0000 		.4byte	0xb3b
 3963 1421 1C       		.byte	0x1c
 3964 1422 24       		.uleb128 0x24
 3965 1423 446C7900 		.ascii	"Dly\000"
 3966 1427 0A       		.byte	0xa
 3967 1428 3404     		.2byte	0x434
 3968 142a 1A       		.byte	0x1a
 3969 142b 3B0B0000 		.4byte	0xb3b
 3970 142f 20       		.byte	0x20
 3971 1430 19       		.uleb128 0x19
 3972 1431 671A0000 		.4byte	.LASF389
ARM GAS  C:\Users\EDULU~1.DES\AppData\Local\Temp\ccfRue3n.s 			page 92


 3973 1435 0A       		.byte	0xa
 3974 1436 3504     		.2byte	0x435
 3975 1438 1A       		.byte	0x1a
 3976 1439 3B0B0000 		.4byte	0xb3b
 3977 143d 24       		.byte	0x24
 3978 143e 24       		.uleb128 0x24
 3979 143f 4F707400 		.ascii	"Opt\000"
 3980 1443 0A       		.byte	0xa
 3981 1444 3604     		.2byte	0x436
 3982 1446 1A       		.byte	0x1a
 3983 1447 D10A0000 		.4byte	0xad1
 3984 144b 28       		.byte	0x28
 3985 144c 19       		.uleb128 0x19
 3986 144d EB000000 		.4byte	.LASF390
 3987 1451 0A       		.byte	0xa
 3988 1452 3704     		.2byte	0x437
 3989 1454 1A       		.byte	0x1a
 3990 1455 230B0000 		.4byte	0xb23
 3991 1459 2A       		.byte	0x2a
 3992 145a 19       		.uleb128 0x19
 3993 145b F1060000 		.4byte	.LASF339
 3994 145f 0A       		.byte	0xa
 3995 1460 3904     		.2byte	0x439
 3996 1462 1A       		.byte	0x1a
 3997 1463 3E160000 		.4byte	0x163e
 3998 1467 2C       		.byte	0x2c
 3999 1468 19       		.uleb128 0x19
 4000 1469 241B0000 		.4byte	.LASF340
 4001 146d 0A       		.byte	0xa
 4002 146e 3A04     		.2byte	0x43a
 4003 1470 1A       		.byte	0x1a
 4004 1471 3E160000 		.4byte	0x163e
 4005 1475 30       		.byte	0x30
 4006 1476 00       		.byte	0
 4007 1477 0B       		.uleb128 0xb
 4008 1478 9C1A0000 		.4byte	.LASF391
 4009 147c 0A       		.byte	0xa
 4010 147d A202     		.2byte	0x2a2
 4011 147f 26       		.byte	0x26
 4012 1480 84140000 		.4byte	0x1484
 4013 1484 1B       		.uleb128 0x1b
 4014 1485 BD150000 		.4byte	.LASF392
 4015 1489 08       		.byte	0x8
 4016 148a 0A       		.byte	0xa
 4017 148b 4004     		.2byte	0x440
 4018 148d 09       		.byte	0x9
 4019 148e BD140000 		.4byte	0x14bd
 4020 1492 19       		.uleb128 0x19
 4021 1493 9D110000 		.4byte	.LASF380
 4022 1497 0A       		.byte	0xa
 4023 1498 4104     		.2byte	0x441
 4024 149a 1A       		.byte	0x1a
 4025 149b 3E160000 		.4byte	0x163e
 4026 149f 00       		.byte	0
 4027 14a0 19       		.uleb128 0x19
 4028 14a1 6E1A0000 		.4byte	.LASF377
 4029 14a5 0A       		.byte	0xa
ARM GAS  C:\Users\EDULU~1.DES\AppData\Local\Temp\ccfRue3n.s 			page 93


 4030 14a6 4204     		.2byte	0x442
 4031 14a8 1A       		.byte	0x1a
 4032 14a9 B40A0000 		.4byte	0xab4
 4033 14ad 04       		.byte	0x4
 4034 14ae 19       		.uleb128 0x19
 4035 14af 49140000 		.4byte	.LASF381
 4036 14b3 0A       		.byte	0xa
 4037 14b4 4304     		.2byte	0x443
 4038 14b6 1A       		.byte	0x1a
 4039 14b7 B40A0000 		.4byte	0xab4
 4040 14bb 06       		.byte	0x6
 4041 14bc 00       		.byte	0
 4042 14bd 0B       		.uleb128 0xb
 4043 14be 4B0B0000 		.4byte	.LASF393
 4044 14c2 0A       		.byte	0xa
 4045 14c3 A502     		.2byte	0x2a5
 4046 14c5 26       		.byte	0x26
 4047 14c6 CA140000 		.4byte	0x14ca
 4048 14ca 1B       		.uleb128 0x1b
 4049 14cb 74030000 		.4byte	.LASF394
 4050 14cf 20       		.byte	0x20
 4051 14d0 0A       		.byte	0xa
 4052 14d1 DD02     		.2byte	0x2dd
 4053 14d3 09       		.byte	0x9
 4054 14d4 49150000 		.4byte	0x1549
 4055 14d8 19       		.uleb128 0x19
 4056 14d9 40180000 		.4byte	.LASF348
 4057 14dd 0A       		.byte	0xa
 4058 14de DE02     		.2byte	0x2de
 4059 14e0 1A       		.byte	0x1a
 4060 14e1 05160000 		.4byte	0x1605
 4061 14e5 00       		.byte	0
 4062 14e6 19       		.uleb128 0x19
 4063 14e7 25190000 		.4byte	.LASF328
 4064 14eb 0A       		.byte	0xa
 4065 14ec DF02     		.2byte	0x2df
 4066 14ee 1A       		.byte	0x1a
 4067 14ef 05160000 		.4byte	0x1605
 4068 14f3 04       		.byte	0x4
 4069 14f4 19       		.uleb128 0x19
 4070 14f5 A4040000 		.4byte	.LASF395
 4071 14f9 0A       		.byte	0xa
 4072 14fa E002     		.2byte	0x2e0
 4073 14fc 1A       		.byte	0x1a
 4074 14fd FF150000 		.4byte	0x15ff
 4075 1501 08       		.byte	0x8
 4076 1502 19       		.uleb128 0x19
 4077 1503 45190000 		.4byte	.LASF396
 4078 1507 0A       		.byte	0xa
 4079 1508 E102     		.2byte	0x2e1
 4080 150a 1A       		.byte	0x1a
 4081 150b 0B160000 		.4byte	0x160b
 4082 150f 0C       		.byte	0xc
 4083 1510 19       		.uleb128 0x19
 4084 1511 CC140000 		.4byte	.LASF397
 4085 1515 0A       		.byte	0xa
 4086 1516 E202     		.2byte	0x2e2
ARM GAS  C:\Users\EDULU~1.DES\AppData\Local\Temp\ccfRue3n.s 			page 94


 4087 1518 1A       		.byte	0x1a
 4088 1519 0B160000 		.4byte	0x160b
 4089 151d 10       		.byte	0x10
 4090 151e 19       		.uleb128 0x19
 4091 151f 7F1E0000 		.4byte	.LASF398
 4092 1523 0A       		.byte	0xa
 4093 1524 E302     		.2byte	0x2e3
 4094 1526 1A       		.byte	0x1a
 4095 1527 D0000000 		.4byte	0xd0
 4096 152b 14       		.byte	0x14
 4097 152c 19       		.uleb128 0x19
 4098 152d 4E130000 		.4byte	.LASF399
 4099 1531 0A       		.byte	0xa
 4100 1532 E402     		.2byte	0x2e4
 4101 1534 1A       		.byte	0x1a
 4102 1535 970A0000 		.4byte	0xa97
 4103 1539 18       		.byte	0x18
 4104 153a 19       		.uleb128 0x19
 4105 153b 5A110000 		.4byte	.LASF400
 4106 153f 0A       		.byte	0xa
 4107 1540 E502     		.2byte	0x2e5
 4108 1542 1A       		.byte	0x1a
 4109 1543 C2090000 		.4byte	0x9c2
 4110 1547 1C       		.byte	0x1c
 4111 1548 00       		.byte	0
 4112 1549 0B       		.uleb128 0xb
 4113 154a 2F000000 		.4byte	.LASF401
 4114 154e 0A       		.byte	0xa
 4115 154f A602     		.2byte	0x2a6
 4116 1551 26       		.byte	0x26
 4117 1552 56150000 		.4byte	0x1556
 4118 1556 1B       		.uleb128 0x1b
 4119 1557 A11C0000 		.4byte	.LASF402
 4120 155b 0C       		.byte	0xc
 4121 155c 0A       		.byte	0xa
 4122 155d E902     		.2byte	0x2e9
 4123 155f 09       		.byte	0x9
 4124 1560 8F150000 		.4byte	0x158f
 4125 1564 19       		.uleb128 0x19
 4126 1565 53070000 		.4byte	.LASF375
 4127 1569 0A       		.byte	0xa
 4128 156a EA02     		.2byte	0x2ea
 4129 156c 1A       		.byte	0x1a
 4130 156d 05160000 		.4byte	0x1605
 4131 1571 00       		.byte	0
 4132 1572 19       		.uleb128 0x19
 4133 1573 68080000 		.4byte	.LASF376
 4134 1577 0A       		.byte	0xa
 4135 1578 EB02     		.2byte	0x2eb
 4136 157a 1A       		.byte	0x1a
 4137 157b 05160000 		.4byte	0x1605
 4138 157f 04       		.byte	0x4
 4139 1580 19       		.uleb128 0x19
 4140 1581 6E1A0000 		.4byte	.LASF377
 4141 1585 0A       		.byte	0xa
 4142 1586 EC02     		.2byte	0x2ec
 4143 1588 1A       		.byte	0x1a
ARM GAS  C:\Users\EDULU~1.DES\AppData\Local\Temp\ccfRue3n.s 			page 95


 4144 1589 B40A0000 		.4byte	0xab4
 4145 158d 08       		.byte	0x8
 4146 158e 00       		.byte	0
 4147 158f 0B       		.uleb128 0xb
 4148 1590 900D0000 		.4byte	.LASF403
 4149 1594 0A       		.byte	0xa
 4150 1595 A702     		.2byte	0x2a7
 4151 1597 26       		.byte	0x26
 4152 1598 9C150000 		.4byte	0x159c
 4153 159c 1B       		.uleb128 0x1b
 4154 159d 18140000 		.4byte	.LASF404
 4155 15a1 20       		.byte	0x20
 4156 15a2 0A       		.byte	0xa
 4157 15a3 FF02     		.2byte	0x2ff
 4158 15a5 09       		.byte	0x9
 4159 15a6 FF150000 		.4byte	0x15ff
 4160 15aa 19       		.uleb128 0x19
 4161 15ab 86120000 		.4byte	.LASF336
 4162 15af 0A       		.byte	0xa
 4163 15b0 0003     		.2byte	0x300
 4164 15b2 1A       		.byte	0x1a
 4165 15b3 C50A0000 		.4byte	0xac5
 4166 15b7 00       		.byte	0
 4167 15b8 19       		.uleb128 0x19
 4168 15b9 AB190000 		.4byte	.LASF337
 4169 15bd 0A       		.byte	0xa
 4170 15be 0103     		.2byte	0x301
 4171 15c0 1A       		.byte	0x1a
 4172 15c1 11160000 		.4byte	0x1611
 4173 15c5 04       		.byte	0x4
 4174 15c6 19       		.uleb128 0x19
 4175 15c7 D50B0000 		.4byte	.LASF338
 4176 15cb 0A       		.byte	0xa
 4177 15cc 0203     		.2byte	0x302
 4178 15ce 1A       		.byte	0x1a
 4179 15cf 49150000 		.4byte	0x1549
 4180 15d3 08       		.byte	0x8
 4181 15d4 19       		.uleb128 0x19
 4182 15d5 F1060000 		.4byte	.LASF339
 4183 15d9 0A       		.byte	0xa
 4184 15da 0403     		.2byte	0x304
 4185 15dc 1A       		.byte	0x1a
 4186 15dd D0000000 		.4byte	0xd0
 4187 15e1 14       		.byte	0x14
 4188 15e2 19       		.uleb128 0x19
 4189 15e3 241B0000 		.4byte	.LASF340
 4190 15e7 0A       		.byte	0xa
 4191 15e8 0503     		.2byte	0x305
 4192 15ea 1A       		.byte	0x1a
 4193 15eb D0000000 		.4byte	0xd0
 4194 15ef 18       		.byte	0x18
 4195 15f0 19       		.uleb128 0x19
 4196 15f1 93060000 		.4byte	.LASF341
 4197 15f5 0A       		.byte	0xa
 4198 15f6 0603     		.2byte	0x306
 4199 15f8 1A       		.byte	0x1a
 4200 15f9 11160000 		.4byte	0x1611
ARM GAS  C:\Users\EDULU~1.DES\AppData\Local\Temp\ccfRue3n.s 			page 96


 4201 15fd 1C       		.byte	0x1c
 4202 15fe 00       		.byte	0
 4203 15ff 06       		.uleb128 0x6
 4204 1600 04       		.byte	0x4
 4205 1601 E3100000 		.4byte	0x10e3
 4206 1605 06       		.uleb128 0x6
 4207 1606 04       		.byte	0x4
 4208 1607 BD140000 		.4byte	0x14bd
 4209 160b 06       		.uleb128 0x6
 4210 160c 04       		.byte	0x4
 4211 160d 8F150000 		.4byte	0x158f
 4212 1611 06       		.uleb128 0x6
 4213 1612 04       		.byte	0x4
 4214 1613 25000000 		.4byte	0x25
 4215 1617 06       		.uleb128 0x6
 4216 1618 04       		.byte	0x4
 4217 1619 E50F0000 		.4byte	0xfe5
 4218 161d 04       		.uleb128 0x4
 4219 161e 17160000 		.4byte	0x1617
 4220 1622 06       		.uleb128 0x6
 4221 1623 04       		.byte	0x4
 4222 1624 4B100000 		.4byte	0x104b
 4223 1628 06       		.uleb128 0x6
 4224 1629 04       		.byte	0x4
 4225 162a 2E130000 		.4byte	0x132e
 4226 162e 0F       		.uleb128 0xf
 4227 162f FF0A0000 		.4byte	0xaff
 4228 1633 3E160000 		.4byte	0x163e
 4229 1637 10       		.uleb128 0x10
 4230 1638 8E000000 		.4byte	0x8e
 4231 163c 00       		.byte	0
 4232 163d 00       		.byte	0
 4233 163e 06       		.uleb128 0x6
 4234 163f 04       		.byte	0x4
 4235 1640 97130000 		.4byte	0x1397
 4236 1644 1F       		.uleb128 0x1f
 4237 1645 89000000 		.4byte	.LASF405
 4238 1649 0A       		.byte	0xa
 4239 164a 5B04     		.2byte	0x45b
 4240 164c 2D       		.byte	0x2d
 4241 164d 8B0A0000 		.4byte	0xa8b
 4242 1651 1F       		.uleb128 0x1f
 4243 1652 72190000 		.4byte	.LASF406
 4244 1656 0A       		.byte	0xa
 4245 1657 5C04     		.2byte	0x45c
 4246 1659 2D       		.byte	0x2d
 4247 165a E3100000 		.4byte	0x10e3
 4248 165e 1F       		.uleb128 0x1f
 4249 165f 43070000 		.4byte	.LASF407
 4250 1663 0A       		.byte	0xa
 4251 1664 5F04     		.2byte	0x45f
 4252 1666 2D       		.byte	0x2d
 4253 1667 A80A0000 		.4byte	0xaa8
 4254 166b 1F       		.uleb128 0x1f
 4255 166c 3D110000 		.4byte	.LASF408
 4256 1670 0A       		.byte	0xa
 4257 1671 6104     		.2byte	0x461
ARM GAS  C:\Users\EDULU~1.DES\AppData\Local\Temp\ccfRue3n.s 			page 97


 4258 1673 2D       		.byte	0x2d
 4259 1674 C2090000 		.4byte	0x9c2
 4260 1678 1F       		.uleb128 0x1f
 4261 1679 AE1C0000 		.4byte	.LASF409
 4262 167d 0A       		.byte	0xa
 4263 167e 6404     		.2byte	0x464
 4264 1680 2D       		.byte	0x2d
 4265 1681 230B0000 		.4byte	0xb23
 4266 1685 1F       		.uleb128 0x1f
 4267 1686 660F0000 		.4byte	.LASF410
 4268 168a 0A       		.byte	0xa
 4269 168b 9004     		.2byte	0x490
 4270 168d 2D       		.byte	0x2d
 4271 168e DD0A0000 		.4byte	0xadd
 4272 1692 1F       		.uleb128 0x1f
 4273 1693 A60F0000 		.4byte	.LASF411
 4274 1697 0A       		.byte	0xa
 4275 1698 9104     		.2byte	0x491
 4276 169a 2D       		.byte	0x2d
 4277 169b DD0A0000 		.4byte	0xadd
 4278 169f 1F       		.uleb128 0x1f
 4279 16a0 97170000 		.4byte	.LASF412
 4280 16a4 0A       		.byte	0xa
 4281 16a5 9204     		.2byte	0x492
 4282 16a7 2D       		.byte	0x2d
 4283 16a8 DD0A0000 		.4byte	0xadd
 4284 16ac 0F       		.uleb128 0xf
 4285 16ad DE000000 		.4byte	0xde
 4286 16b1 BC160000 		.4byte	0x16bc
 4287 16b5 10       		.uleb128 0x10
 4288 16b6 8E000000 		.4byte	0x8e
 4289 16ba 00       		.byte	0
 4290 16bb 00       		.byte	0
 4291 16bc 1F       		.uleb128 0x1f
 4292 16bd AB080000 		.4byte	.LASF413
 4293 16c1 0A       		.byte	0xa
 4294 16c2 9304     		.2byte	0x493
 4295 16c4 2D       		.byte	0x2d
 4296 16c5 AC160000 		.4byte	0x16ac
 4297 16c9 0F       		.uleb128 0xf
 4298 16ca E8120000 		.4byte	0x12e8
 4299 16ce D9160000 		.4byte	0x16d9
 4300 16d2 10       		.uleb128 0x10
 4301 16d3 8E000000 		.4byte	0x8e
 4302 16d7 1F       		.byte	0x1f
 4303 16d8 00       		.byte	0
 4304 16d9 1F       		.uleb128 0x1f
 4305 16da 56100000 		.4byte	.LASF414
 4306 16de 0A       		.byte	0xa
 4307 16df A004     		.2byte	0x4a0
 4308 16e1 2D       		.byte	0x2d
 4309 16e2 C9160000 		.4byte	0x16c9
 4310 16e6 1F       		.uleb128 0x1f
 4311 16e7 85150000 		.4byte	.LASF415
 4312 16eb 0A       		.byte	0xa
 4313 16ec AD04     		.2byte	0x4ad
 4314 16ee 2D       		.byte	0x2d
ARM GAS  C:\Users\EDULU~1.DES\AppData\Local\Temp\ccfRue3n.s 			page 98


 4315 16ef A80A0000 		.4byte	0xaa8
 4316 16f3 1F       		.uleb128 0x1f
 4317 16f4 8B120000 		.4byte	.LASF416
 4318 16f8 0A       		.byte	0xa
 4319 16f9 B504     		.2byte	0x4b5
 4320 16fb 2D       		.byte	0x2d
 4321 16fc 22160000 		.4byte	0x1622
 4322 1700 1F       		.uleb128 0x1f
 4323 1701 CA150000 		.4byte	.LASF417
 4324 1705 0A       		.byte	0xa
 4325 1706 B704     		.2byte	0x4b7
 4326 1708 2D       		.byte	0x2d
 4327 1709 B40A0000 		.4byte	0xab4
 4328 170d 1F       		.uleb128 0x1f
 4329 170e F9040000 		.4byte	.LASF418
 4330 1712 0A       		.byte	0xa
 4331 1713 BC04     		.2byte	0x4bc
 4332 1715 2D       		.byte	0x2d
 4333 1716 3D000000 		.4byte	0x3d
 4334 171a 1F       		.uleb128 0x1f
 4335 171b A9010000 		.4byte	.LASF419
 4336 171f 0A       		.byte	0xa
 4337 1720 BD04     		.2byte	0x4bd
 4338 1722 2D       		.byte	0x2d
 4339 1723 670A0000 		.4byte	0xa67
 4340 1727 1F       		.uleb128 0x1f
 4341 1728 B2000000 		.4byte	.LASF420
 4342 172c 0A       		.byte	0xa
 4343 172d BE04     		.2byte	0x4be
 4344 172f 2D       		.byte	0x2d
 4345 1730 670A0000 		.4byte	0xa67
 4346 1734 1F       		.uleb128 0x1f
 4347 1735 A7090000 		.4byte	.LASF421
 4348 1739 0A       		.byte	0xa
 4349 173a BF04     		.2byte	0x4bf
 4350 173c 2D       		.byte	0x2d
 4351 173d 3B0B0000 		.4byte	0xb3b
 4352 1741 1F       		.uleb128 0x1f
 4353 1742 B1020000 		.4byte	.LASF422
 4354 1746 0A       		.byte	0xa
 4355 1747 C004     		.2byte	0x4c0
 4356 1749 2D       		.byte	0x2d
 4357 174a 3B0B0000 		.4byte	0xb3b
 4358 174e 1F       		.uleb128 0x1f
 4359 174f 651E0000 		.4byte	.LASF423
 4360 1753 0A       		.byte	0xa
 4361 1754 C104     		.2byte	0x4c1
 4362 1756 2D       		.byte	0x2d
 4363 1757 3B0B0000 		.4byte	0xb3b
 4364 175b 1F       		.uleb128 0x1f
 4365 175c F3190000 		.4byte	.LASF424
 4366 1760 0A       		.byte	0xa
 4367 1761 C204     		.2byte	0x4c2
 4368 1763 2D       		.byte	0x2d
 4369 1764 3D000000 		.4byte	0x3d
 4370 1768 1F       		.uleb128 0x1f
 4371 1769 94030000 		.4byte	.LASF425
ARM GAS  C:\Users\EDULU~1.DES\AppData\Local\Temp\ccfRue3n.s 			page 99


 4372 176d 0A       		.byte	0xa
 4373 176e C304     		.2byte	0x4c3
 4374 1770 2D       		.byte	0x2d
 4375 1771 E3100000 		.4byte	0x10e3
 4376 1775 1F       		.uleb128 0x1f
 4377 1776 2E180000 		.4byte	.LASF426
 4378 177a 0A       		.byte	0xa
 4379 177b C404     		.2byte	0x4c4
 4380 177d 2D       		.byte	0x2d
 4381 177e C2090000 		.4byte	0x9c2
 4382 1782 1F       		.uleb128 0x1f
 4383 1783 FA170000 		.4byte	.LASF427
 4384 1787 0A       		.byte	0xa
 4385 1788 C804     		.2byte	0x4c8
 4386 178a 2D       		.byte	0x2d
 4387 178b 7F0A0000 		.4byte	0xa7f
 4388 178f 1F       		.uleb128 0x1f
 4389 1790 4D1E0000 		.4byte	.LASF428
 4390 1794 0A       		.byte	0xa
 4391 1795 CA04     		.2byte	0x4ca
 4392 1797 2D       		.byte	0x2d
 4393 1798 FF150000 		.4byte	0x15ff
 4394 179c 1F       		.uleb128 0x1f
 4395 179d 0A1A0000 		.4byte	.LASF429
 4396 17a1 0A       		.byte	0xa
 4397 17a2 CC04     		.2byte	0x4cc
 4398 17a4 2D       		.byte	0x2d
 4399 17a5 B40A0000 		.4byte	0xab4
 4400 17a9 1F       		.uleb128 0x1f
 4401 17aa B00C0000 		.4byte	.LASF430
 4402 17ae 0A       		.byte	0xa
 4403 17af CF04     		.2byte	0x4cf
 4404 17b1 2D       		.byte	0x2d
 4405 17b2 0B0B0000 		.4byte	0xb0b
 4406 17b6 1F       		.uleb128 0x1f
 4407 17b7 3A130000 		.4byte	.LASF431
 4408 17bb 0A       		.byte	0xa
 4409 17bc D304     		.2byte	0x4d3
 4410 17be 2D       		.byte	0x2d
 4411 17bf 3B0B0000 		.4byte	0xb3b
 4412 17c3 1F       		.uleb128 0x1f
 4413 17c4 50190000 		.4byte	.LASF432
 4414 17c8 0A       		.byte	0xa
 4415 17c9 D404     		.2byte	0x4d4
 4416 17cb 2D       		.byte	0x2d
 4417 17cc E3100000 		.4byte	0x10e3
 4418 17d0 1F       		.uleb128 0x1f
 4419 17d1 10010000 		.4byte	.LASF433
 4420 17d5 0A       		.byte	0xa
 4421 17d6 D504     		.2byte	0x4d5
 4422 17d8 2D       		.byte	0x2d
 4423 17d9 C2090000 		.4byte	0x9c2
 4424 17dd 1F       		.uleb128 0x1f
 4425 17de 3B0B0000 		.4byte	.LASF434
 4426 17e2 0A       		.byte	0xa
 4427 17e3 DA04     		.2byte	0x4da
 4428 17e5 2D       		.byte	0x2d
ARM GAS  C:\Users\EDULU~1.DES\AppData\Local\Temp\ccfRue3n.s 			page 100


 4429 17e6 3E160000 		.4byte	0x163e
 4430 17ea 1F       		.uleb128 0x1f
 4431 17eb B6120000 		.4byte	.LASF435
 4432 17ef 0A       		.byte	0xa
 4433 17f0 DC04     		.2byte	0x4dc
 4434 17f2 2D       		.byte	0x2d
 4435 17f3 B40A0000 		.4byte	0xab4
 4436 17f7 1F       		.uleb128 0x1f
 4437 17f8 BF120000 		.4byte	.LASF436
 4438 17fc 0A       		.byte	0xa
 4439 17fd DD04     		.2byte	0x4dd
 4440 17ff 2D       		.byte	0x2d
 4441 1800 E3100000 		.4byte	0x10e3
 4442 1804 1F       		.uleb128 0x1f
 4443 1805 AE1B0000 		.4byte	.LASF437
 4444 1809 0A       		.byte	0xa
 4445 180a DE04     		.2byte	0x4de
 4446 180c 2D       		.byte	0x2d
 4447 180d C2090000 		.4byte	0x9c2
 4448 1811 1F       		.uleb128 0x1f
 4449 1812 001B0000 		.4byte	.LASF438
 4450 1816 0A       		.byte	0xa
 4451 1817 DF04     		.2byte	0x4df
 4452 1819 2D       		.byte	0x2d
 4453 181a 3B0B0000 		.4byte	0xb3b
 4454 181e 1F       		.uleb128 0x1f
 4455 181f 540D0000 		.4byte	.LASF439
 4456 1823 0A       		.byte	0xa
 4457 1824 E004     		.2byte	0x4e0
 4458 1826 2D       		.byte	0x2d
 4459 1827 730A0000 		.4byte	0xa73
 4460 182b 1F       		.uleb128 0x1f
 4461 182c 6A040000 		.4byte	.LASF440
 4462 1830 0A       		.byte	0xa
 4463 1831 E104     		.2byte	0x4e1
 4464 1833 2D       		.byte	0x2d
 4465 1834 730A0000 		.4byte	0xa73
 4466 1838 1F       		.uleb128 0x1f
 4467 1839 96010000 		.4byte	.LASF441
 4468 183d 0A       		.byte	0xa
 4469 183e E504     		.2byte	0x4e5
 4470 1840 2D       		.byte	0x2d
 4471 1841 FF150000 		.4byte	0x15ff
 4472 1845 1F       		.uleb128 0x1f
 4473 1846 64020000 		.4byte	.LASF442
 4474 184a 0A       		.byte	0xa
 4475 184b E604     		.2byte	0x4e6
 4476 184d 2D       		.byte	0x2d
 4477 184e FF150000 		.4byte	0x15ff
 4478 1852 1F       		.uleb128 0x1f
 4479 1853 D81D0000 		.4byte	.LASF443
 4480 1857 0A       		.byte	0xa
 4481 1858 F104     		.2byte	0x4f1
 4482 185a 1D       		.byte	0x1d
 4483 185b 590B0000 		.4byte	0xb59
 4484 185f 1F       		.uleb128 0x1f
 4485 1860 971B0000 		.4byte	.LASF444
ARM GAS  C:\Users\EDULU~1.DES\AppData\Local\Temp\ccfRue3n.s 			page 101


 4486 1864 0A       		.byte	0xa
 4487 1865 F204     		.2byte	0x4f2
 4488 1867 1D       		.byte	0x1d
 4489 1868 02010000 		.4byte	0x102
 4490 186c 1F       		.uleb128 0x1f
 4491 186d CD090000 		.4byte	.LASF445
 4492 1871 0A       		.byte	0xa
 4493 1872 F304     		.2byte	0x4f3
 4494 1874 1D       		.byte	0x1d
 4495 1875 02010000 		.4byte	0x102
 4496 1879 1F       		.uleb128 0x1f
 4497 187a 94130000 		.4byte	.LASF446
 4498 187e 0A       		.byte	0xa
 4499 187f F404     		.2byte	0x4f4
 4500 1881 1D       		.byte	0x1d
 4501 1882 89000000 		.4byte	0x89
 4502 1886 1F       		.uleb128 0x1f
 4503 1887 E30E0000 		.4byte	.LASF447
 4504 188b 0A       		.byte	0xa
 4505 188c F604     		.2byte	0x4f6
 4506 188e 1D       		.byte	0x1d
 4507 188f 99180000 		.4byte	0x1899
 4508 1893 06       		.uleb128 0x6
 4509 1894 04       		.byte	0x4
 4510 1895 39100000 		.4byte	0x1039
 4511 1899 04       		.uleb128 0x4
 4512 189a 93180000 		.4byte	0x1893
 4513 189e 1F       		.uleb128 0x1f
 4514 189f 810E0000 		.4byte	.LASF448
 4515 18a3 0A       		.byte	0xa
 4516 18a4 F704     		.2byte	0x4f7
 4517 18a6 1D       		.byte	0x1d
 4518 18a7 C00A0000 		.4byte	0xac0
 4519 18ab 1F       		.uleb128 0x1f
 4520 18ac DE040000 		.4byte	.LASF449
 4521 18b0 0A       		.byte	0xa
 4522 18b1 F804     		.2byte	0x4f8
 4523 18b3 1D       		.byte	0x1d
 4524 18b4 89000000 		.4byte	0x89
 4525 18b8 1F       		.uleb128 0x1f
 4526 18b9 CB180000 		.4byte	.LASF450
 4527 18bd 0A       		.byte	0xa
 4528 18be F904     		.2byte	0x4f9
 4529 18c0 1D       		.byte	0x1d
 4530 18c1 590B0000 		.4byte	0xb59
 4531 18c5 1F       		.uleb128 0x1f
 4532 18c6 53000000 		.4byte	.LASF451
 4533 18ca 0A       		.byte	0xa
 4534 18cb FA04     		.2byte	0x4fa
 4535 18cd 1D       		.byte	0x1d
 4536 18ce 02010000 		.4byte	0x102
 4537 18d2 1F       		.uleb128 0x1f
 4538 18d3 580B0000 		.4byte	.LASF452
 4539 18d7 0A       		.byte	0xa
 4540 18d8 FB04     		.2byte	0x4fb
 4541 18da 1D       		.byte	0x1d
 4542 18db 02010000 		.4byte	0x102
ARM GAS  C:\Users\EDULU~1.DES\AppData\Local\Temp\ccfRue3n.s 			page 102


 4543 18df 1F       		.uleb128 0x1f
 4544 18e0 F50E0000 		.4byte	.LASF453
 4545 18e4 0A       		.byte	0xa
 4546 18e5 FC04     		.2byte	0x4fc
 4547 18e7 1D       		.byte	0x1d
 4548 18e8 89000000 		.4byte	0x89
 4549 18ec 1F       		.uleb128 0x1f
 4550 18ed 5E190000 		.4byte	.LASF454
 4551 18f1 0A       		.byte	0xa
 4552 18f2 FE04     		.2byte	0x4fe
 4553 18f4 1D       		.byte	0x1d
 4554 18f5 590B0000 		.4byte	0xb59
 4555 18f9 1F       		.uleb128 0x1f
 4556 18fa E2190000 		.4byte	.LASF455
 4557 18fe 0A       		.byte	0xa
 4558 18ff FF04     		.2byte	0x4ff
 4559 1901 1D       		.byte	0x1d
 4560 1902 02010000 		.4byte	0x102
 4561 1906 1F       		.uleb128 0x1f
 4562 1907 DD060000 		.4byte	.LASF456
 4563 190b 0A       		.byte	0xa
 4564 190c 0005     		.2byte	0x500
 4565 190e 1D       		.byte	0x1d
 4566 190f 89000000 		.4byte	0x89
 4567 1913 1F       		.uleb128 0x1f
 4568 1914 F6130000 		.4byte	.LASF457
 4569 1918 0A       		.byte	0xa
 4570 1919 0205     		.2byte	0x502
 4571 191b 1D       		.byte	0x1d
 4572 191c A30A0000 		.4byte	0xaa3
 4573 1920 1F       		.uleb128 0x1f
 4574 1921 6A120000 		.4byte	.LASF458
 4575 1925 0A       		.byte	0xa
 4576 1926 0305     		.2byte	0x503
 4577 1928 1D       		.byte	0x1d
 4578 1929 89000000 		.4byte	0x89
 4579 192d 1F       		.uleb128 0x1f
 4580 192e EF1B0000 		.4byte	.LASF459
 4581 1932 0A       		.byte	0xa
 4582 1933 0405     		.2byte	0x504
 4583 1935 1D       		.byte	0x1d
 4584 1936 1D160000 		.4byte	0x161d
 4585 193a 1F       		.uleb128 0x1f
 4586 193b 81030000 		.4byte	.LASF460
 4587 193f 0A       		.byte	0xa
 4588 1940 0605     		.2byte	0x506
 4589 1942 1D       		.byte	0x1d
 4590 1943 E90A0000 		.4byte	0xae9
 4591 1947 1F       		.uleb128 0x1f
 4592 1948 E3090000 		.4byte	.LASF461
 4593 194c 0A       		.byte	0xa
 4594 194d 0705     		.2byte	0x507
 4595 194f 1D       		.byte	0x1d
 4596 1950 FA0A0000 		.4byte	0xafa
 4597 1954 1F       		.uleb128 0x1f
 4598 1955 92020000 		.4byte	.LASF462
 4599 1959 0A       		.byte	0xa
ARM GAS  C:\Users\EDULU~1.DES\AppData\Local\Temp\ccfRue3n.s 			page 103


 4600 195a 0805     		.2byte	0x508
 4601 195c 1D       		.byte	0x1d
 4602 195d 590B0000 		.4byte	0xb59
 4603 1961 1F       		.uleb128 0x1f
 4604 1962 DA0C0000 		.4byte	.LASF463
 4605 1966 0A       		.byte	0xa
 4606 1967 0905     		.2byte	0x509
 4607 1969 1D       		.byte	0x1d
 4608 196a 02010000 		.4byte	0x102
 4609 196e 1F       		.uleb128 0x1f
 4610 196f 17100000 		.4byte	.LASF464
 4611 1973 0A       		.byte	0xa
 4612 1974 0A05     		.2byte	0x50a
 4613 1976 1D       		.byte	0x1d
 4614 1977 02010000 		.4byte	0x102
 4615 197b 1F       		.uleb128 0x1f
 4616 197c 490E0000 		.4byte	.LASF465
 4617 1980 0A       		.byte	0xa
 4618 1981 0B05     		.2byte	0x50b
 4619 1983 1D       		.byte	0x1d
 4620 1984 89000000 		.4byte	0x89
 4621 1988 1F       		.uleb128 0x1f
 4622 1989 C40B0000 		.4byte	.LASF466
 4623 198d 0A       		.byte	0xa
 4624 198e 0D05     		.2byte	0x50d
 4625 1990 1D       		.byte	0x1d
 4626 1991 02010000 		.4byte	0x102
 4627 1995 1F       		.uleb128 0x1f
 4628 1996 10180000 		.4byte	.LASF467
 4629 199a 0A       		.byte	0xa
 4630 199b 0F05     		.2byte	0x50f
 4631 199d 1D       		.byte	0x1d
 4632 199e FA0A0000 		.4byte	0xafa
 4633 19a2 1F       		.uleb128 0x1f
 4634 19a3 370F0000 		.4byte	.LASF468
 4635 19a7 0A       		.byte	0xa
 4636 19a8 1005     		.2byte	0x510
 4637 19aa 1D       		.byte	0x1d
 4638 19ab E90A0000 		.4byte	0xae9
 4639 19af 1F       		.uleb128 0x1f
 4640 19b0 BD170000 		.4byte	.LASF469
 4641 19b4 0A       		.byte	0xa
 4642 19b5 1105     		.2byte	0x511
 4643 19b7 1D       		.byte	0x1d
 4644 19b8 590B0000 		.4byte	0xb59
 4645 19bc 1F       		.uleb128 0x1f
 4646 19bd B81C0000 		.4byte	.LASF470
 4647 19c1 0A       		.byte	0xa
 4648 19c2 1205     		.2byte	0x512
 4649 19c4 1D       		.byte	0x1d
 4650 19c5 02010000 		.4byte	0x102
 4651 19c9 1F       		.uleb128 0x1f
 4652 19ca 6B180000 		.4byte	.LASF471
 4653 19ce 0A       		.byte	0xa
 4654 19cf 1305     		.2byte	0x513
 4655 19d1 1D       		.byte	0x1d
 4656 19d2 02010000 		.4byte	0x102
ARM GAS  C:\Users\EDULU~1.DES\AppData\Local\Temp\ccfRue3n.s 			page 104


 4657 19d6 1F       		.uleb128 0x1f
 4658 19d7 ED1C0000 		.4byte	.LASF472
 4659 19db 0A       		.byte	0xa
 4660 19dc 1405     		.2byte	0x514
 4661 19de 1D       		.byte	0x1d
 4662 19df 89000000 		.4byte	0x89
 4663 19e3 1F       		.uleb128 0x1f
 4664 19e4 161E0000 		.4byte	.LASF473
 4665 19e8 0A       		.byte	0xa
 4666 19e9 1505     		.2byte	0x515
 4667 19eb 1D       		.byte	0x1d
 4668 19ec C00A0000 		.4byte	0xac0
 4669 19f0 1F       		.uleb128 0x1f
 4670 19f1 2D0A0000 		.4byte	.LASF474
 4671 19f5 0A       		.byte	0xa
 4672 19f6 1605     		.2byte	0x516
 4673 19f8 1D       		.byte	0x1d
 4674 19f9 89000000 		.4byte	0x89
 4675 19fd 1F       		.uleb128 0x1f
 4676 19fe A5100000 		.4byte	.LASF475
 4677 1a02 0A       		.byte	0xa
 4678 1a03 1805     		.2byte	0x518
 4679 1a05 1D       		.byte	0x1d
 4680 1a06 E90A0000 		.4byte	0xae9
 4681 1a0a 1F       		.uleb128 0x1f
 4682 1a0b 4A0F0000 		.4byte	.LASF476
 4683 1a0f 0A       		.byte	0xa
 4684 1a10 1905     		.2byte	0x519
 4685 1a12 1D       		.byte	0x1d
 4686 1a13 FA0A0000 		.4byte	0xafa
 4687 1a17 1F       		.uleb128 0x1f
 4688 1a18 631D0000 		.4byte	.LASF477
 4689 1a1c 0A       		.byte	0xa
 4690 1a1d 1A05     		.2byte	0x51a
 4691 1a1f 1D       		.byte	0x1d
 4692 1a20 590B0000 		.4byte	0xb59
 4693 1a24 1F       		.uleb128 0x1f
 4694 1a25 01100000 		.4byte	.LASF478
 4695 1a29 0A       		.byte	0xa
 4696 1a2a 1B05     		.2byte	0x51b
 4697 1a2c 1D       		.byte	0x1d
 4698 1a2d 02010000 		.4byte	0x102
 4699 1a31 1F       		.uleb128 0x1f
 4700 1a32 20040000 		.4byte	.LASF479
 4701 1a36 0A       		.byte	0xa
 4702 1a37 1C05     		.2byte	0x51c
 4703 1a39 1D       		.byte	0x1d
 4704 1a3a 02010000 		.4byte	0x102
 4705 1a3e 1F       		.uleb128 0x1f
 4706 1a3f 9A0B0000 		.4byte	.LASF480
 4707 1a43 0A       		.byte	0xa
 4708 1a44 1D05     		.2byte	0x51d
 4709 1a46 1D       		.byte	0x1d
 4710 1a47 89000000 		.4byte	0x89
 4711 1a4b 1F       		.uleb128 0x1f
 4712 1a4c BC010000 		.4byte	.LASF481
 4713 1a50 0A       		.byte	0xa
ARM GAS  C:\Users\EDULU~1.DES\AppData\Local\Temp\ccfRue3n.s 			page 105


 4714 1a51 1E05     		.2byte	0x51e
 4715 1a53 1D       		.byte	0x1d
 4716 1a54 C00A0000 		.4byte	0xac0
 4717 1a58 1F       		.uleb128 0x1f
 4718 1a59 4A030000 		.4byte	.LASF482
 4719 1a5d 0A       		.byte	0xa
 4720 1a5e 1F05     		.2byte	0x51f
 4721 1a60 1D       		.byte	0x1d
 4722 1a61 89000000 		.4byte	0x89
 4723 1a65 0F       		.uleb128 0xf
 4724 1a66 EA000000 		.4byte	0xea
 4725 1a6a 701A0000 		.4byte	0x1a70
 4726 1a6e 25       		.uleb128 0x25
 4727 1a6f 00       		.byte	0
 4728 1a70 1F       		.uleb128 0x1f
 4729 1a71 0E110000 		.4byte	.LASF483
 4730 1a75 0A       		.byte	0xa
 4731 1a76 2205     		.2byte	0x522
 4732 1a78 18       		.byte	0x18
 4733 1a79 651A0000 		.4byte	0x1a65
 4734 1a7d 1F       		.uleb128 0x1f
 4735 1a7e 730C0000 		.4byte	.LASF484
 4736 1a82 0A       		.byte	0xa
 4737 1a83 2905     		.2byte	0x529
 4738 1a85 18       		.byte	0x18
 4739 1a86 651A0000 		.4byte	0x1a65
 4740 1a8a 1F       		.uleb128 0x1f
 4741 1a8b B20B0000 		.4byte	.LASF485
 4742 1a8f 0A       		.byte	0xa
 4743 1a90 3005     		.2byte	0x530
 4744 1a92 18       		.byte	0x18
 4745 1a93 651A0000 		.4byte	0x1a65
 4746 1a97 1F       		.uleb128 0x1f
 4747 1a98 B7070000 		.4byte	.LASF486
 4748 1a9c 0A       		.byte	0xa
 4749 1a9d 3305     		.2byte	0x533
 4750 1a9f 18       		.byte	0x18
 4751 1aa0 651A0000 		.4byte	0x1a65
 4752 1aa4 0F       		.uleb128 0xf
 4753 1aa5 2E130000 		.4byte	0x132e
 4754 1aa9 AF1A0000 		.4byte	0x1aaf
 4755 1aad 25       		.uleb128 0x25
 4756 1aae 00       		.byte	0
 4757 1aaf 1F       		.uleb128 0x1f
 4758 1ab0 C8110000 		.4byte	.LASF487
 4759 1ab4 0A       		.byte	0xa
 4760 1ab5 3405     		.2byte	0x534
 4761 1ab7 18       		.byte	0x18
 4762 1ab8 A41A0000 		.4byte	0x1aa4
 4763 1abc 1F       		.uleb128 0x1f
 4764 1abd 0F080000 		.4byte	.LASF488
 4765 1ac1 0A       		.byte	0xa
 4766 1ac2 3705     		.2byte	0x537
 4767 1ac4 18       		.byte	0x18
 4768 1ac5 651A0000 		.4byte	0x1a65
 4769 1ac9 0F       		.uleb128 0xf
 4770 1aca 77140000 		.4byte	0x1477
ARM GAS  C:\Users\EDULU~1.DES\AppData\Local\Temp\ccfRue3n.s 			page 106


 4771 1ace D41A0000 		.4byte	0x1ad4
 4772 1ad2 25       		.uleb128 0x25
 4773 1ad3 00       		.byte	0
 4774 1ad4 1F       		.uleb128 0x1f
 4775 1ad5 13150000 		.4byte	.LASF489
 4776 1ad9 0A       		.byte	0xa
 4777 1ada 3805     		.2byte	0x538
 4778 1adc 18       		.byte	0x18
 4779 1add C91A0000 		.4byte	0x1ac9
 4780 1ae1 26       		.uleb128 0x26
 4781 1ae2 79040000 		.4byte	.LASF504
 4782 1ae6 01       		.byte	0x1
 4783 1ae7 7403     		.2byte	0x374
 4784 1ae9 0D       		.byte	0xd
 4785 1aea 170B0000 		.4byte	0xb17
 4786 1aee 00000000 		.4byte	.LFB12
 4787 1af2 A8000000 		.4byte	.LFE12-.LFB12
 4788 1af6 01       		.uleb128 0x1
 4789 1af7 9C       		.byte	0x9c
 4790 1af8 7D1C0000 		.4byte	0x1c7d
 4791 1afc 27       		.uleb128 0x27
 4792 1afd A3170000 		.4byte	.LASF490
 4793 1b01 01       		.byte	0x1
 4794 1b02 7403     		.2byte	0x374
 4795 1b04 22       		.byte	0x22
 4796 1b05 22160000 		.4byte	0x1622
 4797 1b09 06000000 		.4byte	.LLST27
 4798 1b0d 00000000 		.4byte	.LVUS27
 4799 1b11 28       		.uleb128 0x28
 4800 1b12 6F707400 		.ascii	"opt\000"
 4801 1b16 01       		.byte	0x1
 4802 1b17 7503     		.2byte	0x375
 4803 1b19 22       		.byte	0x22
 4804 1b1a D10A0000 		.4byte	0xad1
 4805 1b1e 36000000 		.4byte	.LLST28
 4806 1b22 32000000 		.4byte	.LVUS28
 4807 1b26 28       		.uleb128 0x28
 4808 1b27 747300   		.ascii	"ts\000"
 4809 1b2a 01       		.byte	0x1
 4810 1b2b 7603     		.2byte	0x376
 4811 1b2d 22       		.byte	0x22
 4812 1b2e C2090000 		.4byte	0x9c2
 4813 1b32 5F000000 		.4byte	.LLST29
 4814 1b36 57000000 		.4byte	.LVUS29
 4815 1b3a 27       		.uleb128 0x27
 4816 1b3b 5D0A0000 		.4byte	.LASF491
 4817 1b3f 01       		.byte	0x1
 4818 1b40 7703     		.2byte	0x377
 4819 1b42 22       		.byte	0x22
 4820 1b43 7D1C0000 		.4byte	0x1c7d
 4821 1b47 9E000000 		.4byte	.LLST30
 4822 1b4b 96000000 		.4byte	.LVUS30
 4823 1b4f 29       		.uleb128 0x29
 4824 1b50 636E7400 		.ascii	"cnt\000"
 4825 1b54 01       		.byte	0x1
 4826 1b55 7903     		.2byte	0x379
 4827 1b57 14       		.byte	0x14
ARM GAS  C:\Users\EDULU~1.DES\AppData\Local\Temp\ccfRue3n.s 			page 107


 4828 1b58 B40A0000 		.4byte	0xab4
 4829 1b5c D6000000 		.4byte	.LLST31
 4830 1b60 D2000000 		.4byte	.LVUS31
 4831 1b64 29       		.uleb128 0x29
 4832 1b65 63747200 		.ascii	"ctr\000"
 4833 1b69 01       		.byte	0x1
 4834 1b6a 7A03     		.2byte	0x37a
 4835 1b6c 14       		.byte	0x14
 4836 1b6d 170B0000 		.4byte	0xb17
 4837 1b71 FA000000 		.4byte	.LLST32
 4838 1b75 F4000000 		.4byte	.LVUS32
 4839 1b79 2A       		.uleb128 0x2a
 4840 1b7a 630A0000 		.4byte	.LASF492
 4841 1b7e 01       		.byte	0x1
 4842 1b7f 7B03     		.2byte	0x37b
 4843 1b81 14       		.byte	0x14
 4844 1b82 831C0000 		.4byte	0x1c83
 4845 1b86 27010000 		.4byte	.LLST33
 4846 1b8a 23010000 		.4byte	.LVUS33
 4847 1b8e 2A       		.uleb128 0x2a
 4848 1b8f 77110000 		.4byte	.LASF493
 4849 1b93 01       		.byte	0x1
 4850 1b94 7C03     		.2byte	0x37c
 4851 1b96 14       		.byte	0x14
 4852 1b97 05160000 		.4byte	0x1605
 4853 1b9b 52010000 		.4byte	.LLST34
 4854 1b9f 4C010000 		.4byte	.LVUS34
 4855 1ba3 2A       		.uleb128 0x2a
 4856 1ba4 A8030000 		.4byte	.LASF494
 4857 1ba8 01       		.byte	0x1
 4858 1ba9 7D03     		.2byte	0x37d
 4859 1bab 14       		.byte	0x14
 4860 1bac 05160000 		.4byte	0x1605
 4861 1bb0 7D010000 		.4byte	.LLST35
 4862 1bb4 7B010000 		.4byte	.LVUS35
 4863 1bb8 2A       		.uleb128 0x2a
 4864 1bb9 59120000 		.4byte	.LASF495
 4865 1bbd 01       		.byte	0x1
 4866 1bbe 7E03     		.2byte	0x37e
 4867 1bc0 14       		.byte	0x14
 4868 1bc1 FF150000 		.4byte	0x15ff
 4869 1bc5 92010000 		.4byte	.LLST36
 4870 1bc9 90010000 		.4byte	.LVUS36
 4871 1bcd 2A       		.uleb128 0x2a
 4872 1bce 340B0000 		.4byte	.LASF496
 4873 1bd2 01       		.byte	0x1
 4874 1bd3 7F03     		.2byte	0x37f
 4875 1bd5 05       		.byte	0x5
 4876 1bd6 07010000 		.4byte	0x107
 4877 1bda AB010000 		.4byte	.LLST37
 4878 1bde A5010000 		.4byte	.LVUS37
 4879 1be2 2B       		.uleb128 0x2b
 4880 1be3 14000000 		.4byte	.LVL109
 4881 1be7 8B220000 		.4byte	0x228b
 4882 1beb 2B       		.uleb128 0x2b
 4883 1bec 1A000000 		.4byte	.LVL111
 4884 1bf0 98220000 		.4byte	0x2298
ARM GAS  C:\Users\EDULU~1.DES\AppData\Local\Temp\ccfRue3n.s 			page 108


 4885 1bf4 2B       		.uleb128 0x2b
 4886 1bf5 30000000 		.4byte	.LVL113
 4887 1bf9 A5220000 		.4byte	0x22a5
 4888 1bfd 2C       		.uleb128 0x2c
 4889 1bfe 36000000 		.4byte	.LVL114
 4890 1c02 B2220000 		.4byte	0x22b2
 4891 1c06 121C0000 		.4byte	0x1c12
 4892 1c0a 2D       		.uleb128 0x2d
 4893 1c0b 01       		.uleb128 0x1
 4894 1c0c 50       		.byte	0x50
 4895 1c0d 03       		.uleb128 0x3
 4896 1c0e 91       		.byte	0x91
 4897 1c0f 64       		.sleb128 -28
 4898 1c10 06       		.byte	0x6
 4899 1c11 00       		.byte	0
 4900 1c12 2B       		.uleb128 0x2b
 4901 1c13 42000000 		.4byte	.LVL116
 4902 1c17 A5220000 		.4byte	0x22a5
 4903 1c1b 2C       		.uleb128 0x2c
 4904 1c1c 48000000 		.4byte	.LVL117
 4905 1c20 B2220000 		.4byte	0x22b2
 4906 1c24 301C0000 		.4byte	0x1c30
 4907 1c28 2D       		.uleb128 0x2d
 4908 1c29 01       		.uleb128 0x1
 4909 1c2a 50       		.byte	0x50
 4910 1c2b 03       		.uleb128 0x3
 4911 1c2c 91       		.byte	0x91
 4912 1c2d 64       		.sleb128 -28
 4913 1c2e 06       		.byte	0x6
 4914 1c2f 00       		.byte	0
 4915 1c30 2C       		.uleb128 0x2c
 4916 1c31 70000000 		.4byte	.LVL122
 4917 1c35 BF220000 		.4byte	0x22bf
 4918 1c39 551C0000 		.4byte	0x1c55
 4919 1c3d 2D       		.uleb128 0x2d
 4920 1c3e 01       		.uleb128 0x1
 4921 1c3f 50       		.byte	0x50
 4922 1c40 02       		.uleb128 0x2
 4923 1c41 75       		.byte	0x75
 4924 1c42 00       		.sleb128 0
 4925 1c43 2D       		.uleb128 0x2d
 4926 1c44 01       		.uleb128 0x1
 4927 1c45 52       		.byte	0x52
 4928 1c46 01       		.uleb128 0x1
 4929 1c47 30       		.byte	0x30
 4930 1c48 2D       		.uleb128 0x2d
 4931 1c49 01       		.uleb128 0x1
 4932 1c4a 53       		.byte	0x53
 4933 1c4b 01       		.uleb128 0x1
 4934 1c4c 30       		.byte	0x30
 4935 1c4d 2D       		.uleb128 0x2d
 4936 1c4e 02       		.uleb128 0x2
 4937 1c4f 7D       		.byte	0x7d
 4938 1c50 00       		.sleb128 0
 4939 1c51 02       		.uleb128 0x2
 4940 1c52 76       		.byte	0x76
 4941 1c53 00       		.sleb128 0
ARM GAS  C:\Users\EDULU~1.DES\AppData\Local\Temp\ccfRue3n.s 			page 109


 4942 1c54 00       		.byte	0
 4943 1c55 2B       		.uleb128 0x2b
 4944 1c56 7C000000 		.4byte	.LVL127
 4945 1c5a A5220000 		.4byte	0x22a5
 4946 1c5e 2C       		.uleb128 0x2c
 4947 1c5f 82000000 		.4byte	.LVL128
 4948 1c63 B2220000 		.4byte	0x22b2
 4949 1c67 731C0000 		.4byte	0x1c73
 4950 1c6b 2D       		.uleb128 0x2d
 4951 1c6c 01       		.uleb128 0x1
 4952 1c6d 50       		.byte	0x50
 4953 1c6e 03       		.uleb128 0x3
 4954 1c6f 91       		.byte	0x91
 4955 1c70 64       		.sleb128 -28
 4956 1c71 06       		.byte	0x6
 4957 1c72 00       		.byte	0
 4958 1c73 2B       		.uleb128 0x2b
 4959 1c74 A0000000 		.4byte	.LVL133
 4960 1c78 CC220000 		.4byte	0x22cc
 4961 1c7c 00       		.byte	0
 4962 1c7d 06       		.uleb128 0x6
 4963 1c7e 04       		.byte	0x4
 4964 1c7f D80F0000 		.4byte	0xfd8
 4965 1c83 06       		.uleb128 0x6
 4966 1c84 04       		.byte	0x4
 4967 1c85 49150000 		.4byte	0x1549
 4968 1c89 2E       		.uleb128 0x2e
 4969 1c8a 74020000 		.4byte	.LASF497
 4970 1c8e 01       		.byte	0x1
 4971 1c8f 4203     		.2byte	0x342
 4972 1c91 07       		.byte	0x7
 4973 1c92 00000000 		.4byte	.LFB11
 4974 1c96 18000000 		.4byte	.LFE11-.LFB11
 4975 1c9a 01       		.uleb128 0x1
 4976 1c9b 9C       		.byte	0x9c
 4977 1c9c B01C0000 		.4byte	0x1cb0
 4978 1ca0 2F       		.uleb128 0x2f
 4979 1ca1 5D0A0000 		.4byte	.LASF491
 4980 1ca5 01       		.byte	0x1
 4981 1ca6 4203     		.2byte	0x342
 4982 1ca8 1C       		.byte	0x1c
 4983 1ca9 7D1C0000 		.4byte	0x1c7d
 4984 1cad 01       		.uleb128 0x1
 4985 1cae 50       		.byte	0x50
 4986 1caf 00       		.byte	0
 4987 1cb0 2E       		.uleb128 0x2e
 4988 1cb1 EF150000 		.4byte	.LASF498
 4989 1cb5 01       		.byte	0x1
 4990 1cb6 1303     		.2byte	0x313
 4991 1cb8 07       		.byte	0x7
 4992 1cb9 00000000 		.4byte	.LFB10
 4993 1cbd 34000000 		.4byte	.LFE10-.LFB10
 4994 1cc1 01       		.uleb128 0x1
 4995 1cc2 9C       		.byte	0x9c
 4996 1cc3 011D0000 		.4byte	0x1d01
 4997 1cc7 2F       		.uleb128 0x2f
 4998 1cc8 A3170000 		.4byte	.LASF490
ARM GAS  C:\Users\EDULU~1.DES\AppData\Local\Temp\ccfRue3n.s 			page 110


 4999 1ccc 01       		.byte	0x1
 5000 1ccd 1303     		.2byte	0x313
 5001 1ccf 25       		.byte	0x25
 5002 1cd0 22160000 		.4byte	0x1622
 5003 1cd4 01       		.uleb128 0x1
 5004 1cd5 50       		.byte	0x50
 5005 1cd6 2A       		.uleb128 0x2a
 5006 1cd7 5C1A0000 		.4byte	.LASF499
 5007 1cdb 01       		.byte	0x1
 5008 1cdc 1503     		.2byte	0x315
 5009 1cde 0E       		.byte	0xe
 5010 1cdf 22160000 		.4byte	0x1622
 5011 1ce3 DC010000 		.4byte	.LLST25
 5012 1ce7 D6010000 		.4byte	.LVUS25
 5013 1ceb 2A       		.uleb128 0x2a
 5014 1cec 250E0000 		.4byte	.LASF500
 5015 1cf0 01       		.byte	0x1
 5016 1cf1 1603     		.2byte	0x316
 5017 1cf3 0E       		.byte	0xe
 5018 1cf4 22160000 		.4byte	0x1622
 5019 1cf8 0D020000 		.4byte	.LLST26
 5020 1cfc 05020000 		.4byte	.LVUS26
 5021 1d00 00       		.byte	0
 5022 1d01 2E       		.uleb128 0x2e
 5023 1d02 20110000 		.4byte	.LASF501
 5024 1d06 01       		.byte	0x1
 5025 1d07 0403     		.2byte	0x304
 5026 1d09 07       		.byte	0x7
 5027 1d0a 00000000 		.4byte	.LFB9
 5028 1d0e 28000000 		.4byte	.LFE9-.LFB9
 5029 1d12 01       		.uleb128 0x1
 5030 1d13 9C       		.byte	0x9c
 5031 1d14 281D0000 		.4byte	0x1d28
 5032 1d18 2F       		.uleb128 0x2f
 5033 1d19 A3170000 		.4byte	.LASF490
 5034 1d1d 01       		.byte	0x1
 5035 1d1e 0403     		.2byte	0x304
 5036 1d20 22       		.byte	0x22
 5037 1d21 22160000 		.4byte	0x1622
 5038 1d25 01       		.uleb128 0x1
 5039 1d26 50       		.byte	0x50
 5040 1d27 00       		.byte	0
 5041 1d28 2E       		.uleb128 0x2e
 5042 1d29 AF110000 		.4byte	.LASF502
 5043 1d2d 01       		.byte	0x1
 5044 1d2e EA02     		.2byte	0x2ea
 5045 1d30 07       		.byte	0x7
 5046 1d31 00000000 		.4byte	.LFB8
 5047 1d35 20000000 		.4byte	.LFE8-.LFB8
 5048 1d39 01       		.uleb128 0x1
 5049 1d3a 9C       		.byte	0x9c
 5050 1d3b 681D0000 		.4byte	0x1d68
 5051 1d3f 27       		.uleb128 0x27
 5052 1d40 A3170000 		.4byte	.LASF490
 5053 1d44 01       		.byte	0x1
 5054 1d45 EA02     		.2byte	0x2ea
 5055 1d47 1B       		.byte	0x1b
ARM GAS  C:\Users\EDULU~1.DES\AppData\Local\Temp\ccfRue3n.s 			page 111


 5056 1d48 22160000 		.4byte	0x1622
 5057 1d4c 48020000 		.4byte	.LLST19
 5058 1d50 42020000 		.4byte	.LVUS19
 5059 1d54 30       		.uleb128 0x30
 5060 1d55 16000000 		.4byte	.LVL78
 5061 1d59 D9220000 		.4byte	0x22d9
 5062 1d5d 2D       		.uleb128 0x2d
 5063 1d5e 01       		.uleb128 0x1
 5064 1d5f 50       		.byte	0x50
 5065 1d60 05       		.uleb128 0x5
 5066 1d61 F3       		.byte	0xf3
 5067 1d62 01       		.uleb128 0x1
 5068 1d63 50       		.byte	0x50
 5069 1d64 23       		.byte	0x23
 5070 1d65 08       		.uleb128 0x8
 5071 1d66 00       		.byte	0
 5072 1d67 00       		.byte	0
 5073 1d68 2E       		.uleb128 0x2e
 5074 1d69 CC120000 		.4byte	.LASF503
 5075 1d6d 01       		.byte	0x1
 5076 1d6e A402     		.2byte	0x2a4
 5077 1d70 07       		.byte	0x7
 5078 1d71 00000000 		.4byte	.LFB7
 5079 1d75 64000000 		.4byte	.LFE7-.LFB7
 5080 1d79 01       		.uleb128 0x1
 5081 1d7a 9C       		.byte	0x9c
 5082 1d7b 141E0000 		.4byte	0x1e14
 5083 1d7f 27       		.uleb128 0x27
 5084 1d80 A3170000 		.4byte	.LASF490
 5085 1d84 01       		.byte	0x1
 5086 1d85 A402     		.2byte	0x2a4
 5087 1d87 1E       		.byte	0x1e
 5088 1d88 22160000 		.4byte	0x1622
 5089 1d8c 80020000 		.4byte	.LLST14
 5090 1d90 76020000 		.4byte	.LVUS14
 5091 1d94 28       		.uleb128 0x28
 5092 1d95 636E7400 		.ascii	"cnt\000"
 5093 1d99 01       		.byte	0x1
 5094 1d9a A502     		.2byte	0x2a5
 5095 1d9c 1E       		.byte	0x1e
 5096 1d9d 170B0000 		.4byte	0xb17
 5097 1da1 CC020000 		.4byte	.LLST15
 5098 1da5 C2020000 		.4byte	.LVUS15
 5099 1da9 27       		.uleb128 0x27
 5100 1daa 5D0A0000 		.4byte	.LASF491
 5101 1dae 01       		.byte	0x1
 5102 1daf A602     		.2byte	0x2a6
 5103 1db1 1E       		.byte	0x1e
 5104 1db2 7D1C0000 		.4byte	0x1c7d
 5105 1db6 18030000 		.4byte	.LLST16
 5106 1dba 0E030000 		.4byte	.LVUS16
 5107 1dbe 2A       		.uleb128 0x2a
 5108 1dbf 630A0000 		.4byte	.LASF492
 5109 1dc3 01       		.byte	0x1
 5110 1dc4 A802     		.2byte	0x2a8
 5111 1dc6 14       		.byte	0x14
 5112 1dc7 831C0000 		.4byte	0x1c83
ARM GAS  C:\Users\EDULU~1.DES\AppData\Local\Temp\ccfRue3n.s 			page 112


 5113 1dcb 5C030000 		.4byte	.LLST17
 5114 1dcf 5A030000 		.4byte	.LVUS17
 5115 1dd3 2A       		.uleb128 0x2a
 5116 1dd4 340B0000 		.4byte	.LASF496
 5117 1dd8 01       		.byte	0x1
 5118 1dd9 A902     		.2byte	0x2a9
 5119 1ddb 05       		.byte	0x5
 5120 1ddc 07010000 		.4byte	0x107
 5121 1de0 7B030000 		.4byte	.LLST18
 5122 1de4 71030000 		.4byte	.LVUS18
 5123 1de8 2B       		.uleb128 0x2b
 5124 1de9 1C000000 		.4byte	.LVL66
 5125 1ded 8B220000 		.4byte	0x228b
 5126 1df1 2B       		.uleb128 0x2b
 5127 1df2 22000000 		.4byte	.LVL68
 5128 1df6 98220000 		.4byte	0x2298
 5129 1dfa 2B       		.uleb128 0x2b
 5130 1dfb 2E000000 		.4byte	.LVL69
 5131 1dff A5220000 		.4byte	0x22a5
 5132 1e03 30       		.uleb128 0x30
 5133 1e04 34000000 		.4byte	.LVL70
 5134 1e08 B2220000 		.4byte	0x22b2
 5135 1e0c 2D       		.uleb128 0x2d
 5136 1e0d 01       		.uleb128 0x1
 5137 1e0e 50       		.byte	0x50
 5138 1e0f 02       		.uleb128 0x2
 5139 1e10 77       		.byte	0x77
 5140 1e11 00       		.sleb128 0
 5141 1e12 00       		.byte	0
 5142 1e13 00       		.byte	0
 5143 1e14 26       		.uleb128 0x26
 5144 1e15 BA0E0000 		.4byte	.LASF505
 5145 1e19 01       		.byte	0x1
 5146 1e1a 4802     		.2byte	0x248
 5147 1e1c 0D       		.byte	0xd
 5148 1e1d 170B0000 		.4byte	0xb17
 5149 1e21 00000000 		.4byte	.LFB6
 5150 1e25 54000000 		.4byte	.LFE6-.LFB6
 5151 1e29 01       		.uleb128 0x1
 5152 1e2a 9C       		.byte	0x9c
 5153 1e2b BD1E0000 		.4byte	0x1ebd
 5154 1e2f 27       		.uleb128 0x27
 5155 1e30 A3170000 		.4byte	.LASF490
 5156 1e34 01       		.byte	0x1
 5157 1e35 4802     		.2byte	0x248
 5158 1e37 21       		.byte	0x21
 5159 1e38 22160000 		.4byte	0x1622
 5160 1e3c CA030000 		.4byte	.LLST38
 5161 1e40 BC030000 		.4byte	.LVUS38
 5162 1e44 28       		.uleb128 0x28
 5163 1e45 6F707400 		.ascii	"opt\000"
 5164 1e49 01       		.byte	0x1
 5165 1e4a 4902     		.2byte	0x249
 5166 1e4c 21       		.byte	0x21
 5167 1e4d D10A0000 		.4byte	0xad1
 5168 1e51 2A040000 		.4byte	.LLST39
 5169 1e55 22040000 		.4byte	.LVUS39
ARM GAS  C:\Users\EDULU~1.DES\AppData\Local\Temp\ccfRue3n.s 			page 113


 5170 1e59 27       		.uleb128 0x27
 5171 1e5a 5D0A0000 		.4byte	.LASF491
 5172 1e5e 01       		.byte	0x1
 5173 1e5f 4A02     		.2byte	0x24a
 5174 1e61 21       		.byte	0x21
 5175 1e62 7D1C0000 		.4byte	0x1c7d
 5176 1e66 6E040000 		.4byte	.LLST40
 5177 1e6a 64040000 		.4byte	.LVUS40
 5178 1e6e 29       		.uleb128 0x29
 5179 1e6f 63747200 		.ascii	"ctr\000"
 5180 1e73 01       		.byte	0x1
 5181 1e74 4C02     		.2byte	0x24c
 5182 1e76 11       		.byte	0x11
 5183 1e77 170B0000 		.4byte	0xb17
 5184 1e7b B2040000 		.4byte	.LLST41
 5185 1e7f B0040000 		.4byte	.LVUS41
 5186 1e83 29       		.uleb128 0x29
 5187 1e84 747300   		.ascii	"ts\000"
 5188 1e87 01       		.byte	0x1
 5189 1e88 4D02     		.2byte	0x24d
 5190 1e8a 11       		.byte	0x11
 5191 1e8b C2090000 		.4byte	0x9c2
 5192 1e8f C9040000 		.4byte	.LLST42
 5193 1e93 C5040000 		.4byte	.LVUS42
 5194 1e97 2B       		.uleb128 0x2b
 5195 1e98 2A000000 		.4byte	.LVL135
 5196 1e9c E6220000 		.4byte	0x22e6
 5197 1ea0 30       		.uleb128 0x30
 5198 1ea1 36000000 		.4byte	.LVL138
 5199 1ea5 E11A0000 		.4byte	0x1ae1
 5200 1ea9 2D       		.uleb128 0x2d
 5201 1eaa 01       		.uleb128 0x1
 5202 1eab 50       		.byte	0x50
 5203 1eac 02       		.uleb128 0x2
 5204 1ead 75       		.byte	0x75
 5205 1eae 00       		.sleb128 0
 5206 1eaf 2D       		.uleb128 0x2d
 5207 1eb0 01       		.uleb128 0x1
 5208 1eb1 51       		.byte	0x51
 5209 1eb2 02       		.uleb128 0x2
 5210 1eb3 74       		.byte	0x74
 5211 1eb4 00       		.sleb128 0
 5212 1eb5 2D       		.uleb128 0x2d
 5213 1eb6 01       		.uleb128 0x1
 5214 1eb7 53       		.byte	0x53
 5215 1eb8 02       		.uleb128 0x2
 5216 1eb9 76       		.byte	0x76
 5217 1eba 00       		.sleb128 0
 5218 1ebb 00       		.byte	0
 5219 1ebc 00       		.byte	0
 5220 1ebd 26       		.uleb128 0x26
 5221 1ebe 6F0A0000 		.4byte	.LASF506
 5222 1ec2 01       		.byte	0x1
 5223 1ec3 D701     		.2byte	0x1d7
 5224 1ec5 0D       		.byte	0xd
 5225 1ec6 B40A0000 		.4byte	0xab4
 5226 1eca 00000000 		.4byte	.LFB5
ARM GAS  C:\Users\EDULU~1.DES\AppData\Local\Temp\ccfRue3n.s 			page 114


 5227 1ece C8000000 		.4byte	.LFE5-.LFB5
 5228 1ed2 01       		.uleb128 0x1
 5229 1ed3 9C       		.byte	0x9c
 5230 1ed4 FB1F0000 		.4byte	0x1ffb
 5231 1ed8 27       		.uleb128 0x27
 5232 1ed9 A3170000 		.4byte	.LASF490
 5233 1edd 01       		.byte	0x1
 5234 1ede D701     		.2byte	0x1d7
 5235 1ee0 26       		.byte	0x26
 5236 1ee1 22160000 		.4byte	0x1622
 5237 1ee5 F3040000 		.4byte	.LLST6
 5238 1ee9 E7040000 		.4byte	.LVUS6
 5239 1eed 28       		.uleb128 0x28
 5240 1eee 6F707400 		.ascii	"opt\000"
 5241 1ef2 01       		.byte	0x1
 5242 1ef3 D801     		.2byte	0x1d8
 5243 1ef5 26       		.byte	0x26
 5244 1ef6 D10A0000 		.4byte	0xad1
 5245 1efa 48050000 		.4byte	.LLST7
 5246 1efe 40050000 		.4byte	.LVUS7
 5247 1f02 27       		.uleb128 0x27
 5248 1f03 5D0A0000 		.4byte	.LASF491
 5249 1f07 01       		.byte	0x1
 5250 1f08 D901     		.2byte	0x1d9
 5251 1f0a 26       		.byte	0x26
 5252 1f0b 7D1C0000 		.4byte	0x1c7d
 5253 1f0f 8E050000 		.4byte	.LLST8
 5254 1f13 82050000 		.4byte	.LVUS8
 5255 1f17 2A       		.uleb128 0x2a
 5256 1f18 630A0000 		.4byte	.LASF492
 5257 1f1c 01       		.byte	0x1
 5258 1f1d DB01     		.2byte	0x1db
 5259 1f1f 14       		.byte	0x14
 5260 1f20 831C0000 		.4byte	0x1c83
 5261 1f24 DF050000 		.4byte	.LLST9
 5262 1f28 DB050000 		.4byte	.LVUS9
 5263 1f2c 2A       		.uleb128 0x2a
 5264 1f2d 59120000 		.4byte	.LASF495
 5265 1f31 01       		.byte	0x1
 5266 1f32 DC01     		.2byte	0x1dc
 5267 1f34 14       		.byte	0x14
 5268 1f35 FF150000 		.4byte	0x15ff
 5269 1f39 03060000 		.4byte	.LLST10
 5270 1f3d 01060000 		.4byte	.LVUS10
 5271 1f41 29       		.uleb128 0x29
 5272 1f42 747300   		.ascii	"ts\000"
 5273 1f45 01       		.byte	0x1
 5274 1f46 DD01     		.2byte	0x1dd
 5275 1f48 14       		.byte	0x14
 5276 1f49 C2090000 		.4byte	0x9c2
 5277 1f4d 1C060000 		.4byte	.LLST11
 5278 1f51 16060000 		.4byte	.LVUS11
 5279 1f55 2A       		.uleb128 0x2a
 5280 1f56 C9190000 		.4byte	.LASF507
 5281 1f5a 01       		.byte	0x1
 5282 1f5b DE01     		.2byte	0x1de
 5283 1f5d 14       		.byte	0x14
ARM GAS  C:\Users\EDULU~1.DES\AppData\Local\Temp\ccfRue3n.s 			page 115


 5284 1f5e B40A0000 		.4byte	0xab4
 5285 1f62 4F060000 		.4byte	.LLST12
 5286 1f66 47060000 		.4byte	.LVUS12
 5287 1f6a 2A       		.uleb128 0x2a
 5288 1f6b 340B0000 		.4byte	.LASF496
 5289 1f6f 01       		.byte	0x1
 5290 1f70 DF01     		.2byte	0x1df
 5291 1f72 05       		.byte	0x5
 5292 1f73 07010000 		.4byte	0x107
 5293 1f77 8E060000 		.4byte	.LLST13
 5294 1f7b 84060000 		.4byte	.LVUS13
 5295 1f7f 2B       		.uleb128 0x2b
 5296 1f80 34000000 		.4byte	.LVL42
 5297 1f84 8B220000 		.4byte	0x228b
 5298 1f88 2B       		.uleb128 0x2b
 5299 1f89 3A000000 		.4byte	.LVL44
 5300 1f8d 98220000 		.4byte	0x2298
 5301 1f91 2B       		.uleb128 0x2b
 5302 1f92 44000000 		.4byte	.LVL46
 5303 1f96 E6220000 		.4byte	0x22e6
 5304 1f9a 2C       		.uleb128 0x2c
 5305 1f9b 5A000000 		.4byte	.LVL50
 5306 1f9f F3220000 		.4byte	0x22f3
 5307 1fa3 B51F0000 		.4byte	0x1fb5
 5308 1fa7 2D       		.uleb128 0x2d
 5309 1fa8 01       		.uleb128 0x1
 5310 1fa9 50       		.byte	0x50
 5311 1faa 02       		.uleb128 0x2
 5312 1fab 76       		.byte	0x76
 5313 1fac 00       		.sleb128 0
 5314 1fad 2D       		.uleb128 0x2d
 5315 1fae 01       		.uleb128 0x1
 5316 1faf 52       		.byte	0x52
 5317 1fb0 03       		.uleb128 0x3
 5318 1fb1 7D       		.byte	0x7d
 5319 1fb2 00       		.sleb128 0
 5320 1fb3 06       		.byte	0x6
 5321 1fb4 00       		.byte	0
 5322 1fb5 2B       		.uleb128 0x2b
 5323 1fb6 6A000000 		.4byte	.LVL53
 5324 1fba A5220000 		.4byte	0x22a5
 5325 1fbe 2C       		.uleb128 0x2c
 5326 1fbf 70000000 		.4byte	.LVL54
 5327 1fc3 B2220000 		.4byte	0x22b2
 5328 1fc7 D31F0000 		.4byte	0x1fd3
 5329 1fcb 2D       		.uleb128 0x2d
 5330 1fcc 01       		.uleb128 0x1
 5331 1fcd 50       		.byte	0x50
 5332 1fce 03       		.uleb128 0x3
 5333 1fcf 91       		.byte	0x91
 5334 1fd0 64       		.sleb128 -28
 5335 1fd1 06       		.byte	0x6
 5336 1fd2 00       		.byte	0
 5337 1fd3 2B       		.uleb128 0x2b
 5338 1fd4 A0000000 		.4byte	.LVL60
 5339 1fd8 A5220000 		.4byte	0x22a5
 5340 1fdc 2C       		.uleb128 0x2c
ARM GAS  C:\Users\EDULU~1.DES\AppData\Local\Temp\ccfRue3n.s 			page 116


 5341 1fdd A6000000 		.4byte	.LVL61
 5342 1fe1 B2220000 		.4byte	0x22b2
 5343 1fe5 F11F0000 		.4byte	0x1ff1
 5344 1fe9 2D       		.uleb128 0x2d
 5345 1fea 01       		.uleb128 0x1
 5346 1feb 50       		.byte	0x50
 5347 1fec 03       		.uleb128 0x3
 5348 1fed 91       		.byte	0x91
 5349 1fee 64       		.sleb128 -28
 5350 1fef 06       		.byte	0x6
 5351 1ff0 00       		.byte	0
 5352 1ff1 2B       		.uleb128 0x2b
 5353 1ff2 B0000000 		.4byte	.LVL63
 5354 1ff6 CC220000 		.4byte	0x22cc
 5355 1ffa 00       		.byte	0
 5356 1ffb 26       		.uleb128 0x26
 5357 1ffc 39150000 		.4byte	.LASF508
 5358 2000 01       		.byte	0x1
 5359 2001 3701     		.2byte	0x137
 5360 2003 0D       		.byte	0xd
 5361 2004 170B0000 		.4byte	0xb17
 5362 2008 00000000 		.4byte	.LFB4
 5363 200c 7C010000 		.4byte	.LFE4-.LFB4
 5364 2010 01       		.uleb128 0x1
 5365 2011 9C       		.byte	0x9c
 5366 2012 B6210000 		.4byte	0x21b6
 5367 2016 27       		.uleb128 0x27
 5368 2017 A3170000 		.4byte	.LASF490
 5369 201b 01       		.byte	0x1
 5370 201c 3701     		.2byte	0x137
 5371 201e 22       		.byte	0x22
 5372 201f 22160000 		.4byte	0x1622
 5373 2023 DB060000 		.4byte	.LLST0
 5374 2027 D1060000 		.4byte	.LVUS0
 5375 202b 27       		.uleb128 0x27
 5376 202c 97100000 		.4byte	.LASF509
 5377 2030 01       		.byte	0x1
 5378 2031 3801     		.2byte	0x138
 5379 2033 22       		.byte	0x22
 5380 2034 3B0B0000 		.4byte	0xb3b
 5381 2038 27070000 		.4byte	.LLST1
 5382 203c 1D070000 		.4byte	.LVUS1
 5383 2040 28       		.uleb128 0x28
 5384 2041 6F707400 		.ascii	"opt\000"
 5385 2045 01       		.byte	0x1
 5386 2046 3901     		.2byte	0x139
 5387 2048 22       		.byte	0x22
 5388 2049 D10A0000 		.4byte	0xad1
 5389 204d 79070000 		.4byte	.LLST2
 5390 2051 69070000 		.4byte	.LVUS2
 5391 2055 27       		.uleb128 0x27
 5392 2056 79130000 		.4byte	.LASF510
 5393 205a 01       		.byte	0x1
 5394 205b 3A01     		.2byte	0x13a
 5395 205d 22       		.byte	0x22
 5396 205e B6210000 		.4byte	0x21b6
 5397 2062 ED070000 		.4byte	.LLST3
ARM GAS  C:\Users\EDULU~1.DES\AppData\Local\Temp\ccfRue3n.s 			page 117


 5398 2066 E5070000 		.4byte	.LVUS3
 5399 206a 2F       		.uleb128 0x2f
 5400 206b 5D0A0000 		.4byte	.LASF491
 5401 206f 01       		.byte	0x1
 5402 2070 3B01     		.2byte	0x13b
 5403 2072 22       		.byte	0x22
 5404 2073 7D1C0000 		.4byte	0x1c7d
 5405 2077 02       		.uleb128 0x2
 5406 2078 91       		.byte	0x91
 5407 2079 00       		.sleb128 0
 5408 207a 29       		.uleb128 0x29
 5409 207b 63747200 		.ascii	"ctr\000"
 5410 207f 01       		.byte	0x1
 5411 2080 3D01     		.2byte	0x13d
 5412 2082 13       		.byte	0x13
 5413 2083 170B0000 		.4byte	0xb17
 5414 2087 2A080000 		.4byte	.LLST4
 5415 208b 24080000 		.4byte	.LVUS4
 5416 208f 31       		.uleb128 0x31
 5417 2090 DF030000 		.4byte	.LASF527
 5418 2094 01       		.byte	0x1
 5419 2095 3E01     		.2byte	0x13e
 5420 2097 13       		.byte	0x13
 5421 2098 BD140000 		.4byte	0x14bd
 5422 209c 02       		.uleb128 0x2
 5423 209d 91       		.byte	0x91
 5424 209e 48       		.sleb128 -56
 5425 209f 2A       		.uleb128 0x2a
 5426 20a0 340B0000 		.4byte	.LASF496
 5427 20a4 01       		.byte	0x1
 5428 20a5 3F01     		.2byte	0x13f
 5429 20a7 05       		.byte	0x5
 5430 20a8 07010000 		.4byte	0x107
 5431 20ac 63080000 		.4byte	.LLST5
 5432 20b0 53080000 		.4byte	.LVUS5
 5433 20b4 2B       		.uleb128 0x2b
 5434 20b5 52000000 		.4byte	.LVL13
 5435 20b9 8B220000 		.4byte	0x228b
 5436 20bd 2B       		.uleb128 0x2b
 5437 20be 58000000 		.4byte	.LVL15
 5438 20c2 98220000 		.4byte	0x2298
 5439 20c6 2C       		.uleb128 0x2c
 5440 20c7 78000000 		.4byte	.LVL16
 5441 20cb 00230000 		.4byte	0x2300
 5442 20cf EC200000 		.4byte	0x20ec
 5443 20d3 2D       		.uleb128 0x2d
 5444 20d4 01       		.uleb128 0x1
 5445 20d5 50       		.byte	0x50
 5446 20d6 02       		.uleb128 0x2
 5447 20d7 91       		.byte	0x91
 5448 20d8 48       		.sleb128 -56
 5449 20d9 2D       		.uleb128 0x2d
 5450 20da 01       		.uleb128 0x1
 5451 20db 51       		.byte	0x51
 5452 20dc 02       		.uleb128 0x2
 5453 20dd 77       		.byte	0x77
 5454 20de 00       		.sleb128 0
ARM GAS  C:\Users\EDULU~1.DES\AppData\Local\Temp\ccfRue3n.s 			page 118


 5455 20df 2D       		.uleb128 0x2d
 5456 20e0 01       		.uleb128 0x1
 5457 20e1 52       		.byte	0x52
 5458 20e2 01       		.uleb128 0x1
 5459 20e3 36       		.byte	0x36
 5460 20e4 2D       		.uleb128 0x2d
 5461 20e5 01       		.uleb128 0x1
 5462 20e6 53       		.byte	0x53
 5463 20e7 03       		.uleb128 0x3
 5464 20e8 7D       		.byte	0x7d
 5465 20e9 00       		.sleb128 0
 5466 20ea 06       		.byte	0x6
 5467 20eb 00       		.byte	0
 5468 20ec 2B       		.uleb128 0x2b
 5469 20ed 7C000000 		.4byte	.LVL17
 5470 20f1 A5220000 		.4byte	0x22a5
 5471 20f5 2C       		.uleb128 0x2c
 5472 20f6 82000000 		.4byte	.LVL18
 5473 20fa B2220000 		.4byte	0x22b2
 5474 20fe 0A210000 		.4byte	0x210a
 5475 2102 2D       		.uleb128 0x2d
 5476 2103 01       		.uleb128 0x1
 5477 2104 50       		.byte	0x50
 5478 2105 03       		.uleb128 0x3
 5479 2106 91       		.byte	0x91
 5480 2107 44       		.sleb128 -60
 5481 2108 06       		.byte	0x6
 5482 2109 00       		.byte	0
 5483 210a 2B       		.uleb128 0x2b
 5484 210b 86000000 		.4byte	.LVL19
 5485 210f CC220000 		.4byte	0x22cc
 5486 2113 2B       		.uleb128 0x2b
 5487 2114 8A000000 		.4byte	.LVL20
 5488 2118 8B220000 		.4byte	0x228b
 5489 211c 2B       		.uleb128 0x2b
 5490 211d 90000000 		.4byte	.LVL22
 5491 2121 98220000 		.4byte	0x2298
 5492 2125 2B       		.uleb128 0x2b
 5493 2126 B2000000 		.4byte	.LVL23
 5494 212a A5220000 		.4byte	0x22a5
 5495 212e 2C       		.uleb128 0x2c
 5496 212f B8000000 		.4byte	.LVL24
 5497 2133 B2220000 		.4byte	0x22b2
 5498 2137 42210000 		.4byte	0x2142
 5499 213b 2D       		.uleb128 0x2d
 5500 213c 01       		.uleb128 0x1
 5501 213d 50       		.byte	0x50
 5502 213e 02       		.uleb128 0x2
 5503 213f 75       		.byte	0x75
 5504 2140 00       		.sleb128 0
 5505 2141 00       		.byte	0
 5506 2142 2B       		.uleb128 0x2b
 5507 2143 CC000000 		.4byte	.LVL27
 5508 2147 A5220000 		.4byte	0x22a5
 5509 214b 2C       		.uleb128 0x2c
 5510 214c D2000000 		.4byte	.LVL28
 5511 2150 B2220000 		.4byte	0x22b2
ARM GAS  C:\Users\EDULU~1.DES\AppData\Local\Temp\ccfRue3n.s 			page 119


 5512 2154 60210000 		.4byte	0x2160
 5513 2158 2D       		.uleb128 0x2d
 5514 2159 01       		.uleb128 0x1
 5515 215a 50       		.byte	0x50
 5516 215b 03       		.uleb128 0x3
 5517 215c 91       		.byte	0x91
 5518 215d 44       		.sleb128 -60
 5519 215e 06       		.byte	0x6
 5520 215f 00       		.byte	0
 5521 2160 2B       		.uleb128 0x2b
 5522 2161 DE000000 		.4byte	.LVL30
 5523 2165 A5220000 		.4byte	0x22a5
 5524 2169 2C       		.uleb128 0x2c
 5525 216a E4000000 		.4byte	.LVL31
 5526 216e B2220000 		.4byte	0x22b2
 5527 2172 7E210000 		.4byte	0x217e
 5528 2176 2D       		.uleb128 0x2d
 5529 2177 01       		.uleb128 0x1
 5530 2178 50       		.byte	0x50
 5531 2179 03       		.uleb128 0x3
 5532 217a 91       		.byte	0x91
 5533 217b 44       		.sleb128 -60
 5534 217c 06       		.byte	0x6
 5535 217d 00       		.byte	0
 5536 217e 2B       		.uleb128 0x2b
 5537 217f F0000000 		.4byte	.LVL33
 5538 2183 A5220000 		.4byte	0x22a5
 5539 2187 2C       		.uleb128 0x2c
 5540 2188 F6000000 		.4byte	.LVL34
 5541 218c B2220000 		.4byte	0x22b2
 5542 2190 9C210000 		.4byte	0x219c
 5543 2194 2D       		.uleb128 0x2d
 5544 2195 01       		.uleb128 0x1
 5545 2196 50       		.byte	0x50
 5546 2197 03       		.uleb128 0x3
 5547 2198 91       		.byte	0x91
 5548 2199 44       		.sleb128 -60
 5549 219a 06       		.byte	0x6
 5550 219b 00       		.byte	0
 5551 219c 2B       		.uleb128 0x2b
 5552 219d 12010000 		.4byte	.LVL37
 5553 21a1 A5220000 		.4byte	0x22a5
 5554 21a5 30       		.uleb128 0x30
 5555 21a6 18010000 		.4byte	.LVL38
 5556 21aa B2220000 		.4byte	0x22b2
 5557 21ae 2D       		.uleb128 0x2d
 5558 21af 01       		.uleb128 0x1
 5559 21b0 50       		.byte	0x50
 5560 21b1 02       		.uleb128 0x2
 5561 21b2 75       		.byte	0x75
 5562 21b3 00       		.sleb128 0
 5563 21b4 00       		.byte	0
 5564 21b5 00       		.byte	0
 5565 21b6 06       		.uleb128 0x6
 5566 21b7 04       		.byte	0x4
 5567 21b8 C2090000 		.4byte	0x9c2
 5568 21bc 32       		.uleb128 0x32
ARM GAS  C:\Users\EDULU~1.DES\AppData\Local\Temp\ccfRue3n.s 			page 120


 5569 21bd 31110000 		.4byte	.LASF511
 5570 21c1 01       		.byte	0x1
 5571 21c2 49       		.byte	0x49
 5572 21c3 07       		.byte	0x7
 5573 21c4 00000000 		.4byte	.LFB3
 5574 21c8 78000000 		.4byte	.LFE3-.LFB3
 5575 21cc 01       		.uleb128 0x1
 5576 21cd 9C       		.byte	0x9c
 5577 21ce 8B220000 		.4byte	0x228b
 5578 21d2 33       		.uleb128 0x33
 5579 21d3 A3170000 		.4byte	.LASF490
 5580 21d7 01       		.byte	0x1
 5581 21d8 49       		.byte	0x49
 5582 21d9 21       		.byte	0x21
 5583 21da 22160000 		.4byte	0x1622
 5584 21de CF080000 		.4byte	.LLST20
 5585 21e2 C7080000 		.4byte	.LVUS20
 5586 21e6 33       		.uleb128 0x33
 5587 21e7 461E0000 		.4byte	.LASF512
 5588 21eb 01       		.byte	0x1
 5589 21ec 4A       		.byte	0x4a
 5590 21ed 21       		.byte	0x21
 5591 21ee 11160000 		.4byte	0x1611
 5592 21f2 0E090000 		.4byte	.LLST21
 5593 21f6 06090000 		.4byte	.LVUS21
 5594 21fa 34       		.uleb128 0x34
 5595 21fb 636E7400 		.ascii	"cnt\000"
 5596 21ff 01       		.byte	0x1
 5597 2200 4B       		.byte	0x4b
 5598 2201 21       		.byte	0x21
 5599 2202 170B0000 		.4byte	0xb17
 5600 2206 4F090000 		.4byte	.LLST22
 5601 220a 45090000 		.4byte	.LVUS22
 5602 220e 33       		.uleb128 0x33
 5603 220f 5D0A0000 		.4byte	.LASF491
 5604 2213 01       		.byte	0x1
 5605 2214 4C       		.byte	0x4c
 5606 2215 21       		.byte	0x21
 5607 2216 7D1C0000 		.4byte	0x1c7d
 5608 221a 9A090000 		.4byte	.LLST23
 5609 221e 92090000 		.4byte	.LVUS23
 5610 2222 35       		.uleb128 0x35
 5611 2223 340B0000 		.4byte	.LASF496
 5612 2227 01       		.byte	0x1
 5613 2228 4E       		.byte	0x4e
 5614 2229 05       		.byte	0x5
 5615 222a 07010000 		.4byte	0x107
 5616 222e D9090000 		.4byte	.LLST24
 5617 2232 D1090000 		.4byte	.LVUS24
 5618 2236 2B       		.uleb128 0x2b
 5619 2237 1C000000 		.4byte	.LVL83
 5620 223b 8B220000 		.4byte	0x228b
 5621 223f 2B       		.uleb128 0x2b
 5622 2240 22000000 		.4byte	.LVL85
 5623 2244 98220000 		.4byte	0x2298
 5624 2248 2C       		.uleb128 0x2c
 5625 2249 38000000 		.4byte	.LVL87
ARM GAS  C:\Users\EDULU~1.DES\AppData\Local\Temp\ccfRue3n.s 			page 121


 5626 224d D9220000 		.4byte	0x22d9
 5627 2251 5C220000 		.4byte	0x225c
 5628 2255 2D       		.uleb128 0x2d
 5629 2256 01       		.uleb128 0x1
 5630 2257 50       		.byte	0x50
 5631 2258 02       		.uleb128 0x2
 5632 2259 74       		.byte	0x74
 5633 225a 08       		.sleb128 8
 5634 225b 00       		.byte	0
 5635 225c 2C       		.uleb128 0x2c
 5636 225d 3E000000 		.4byte	.LVL88
 5637 2261 011D0000 		.4byte	0x1d01
 5638 2265 70220000 		.4byte	0x2270
 5639 2269 2D       		.uleb128 0x2d
 5640 226a 01       		.uleb128 0x1
 5641 226b 50       		.byte	0x50
 5642 226c 02       		.uleb128 0x2
 5643 226d 74       		.byte	0x74
 5644 226e 00       		.sleb128 0
 5645 226f 00       		.byte	0
 5646 2270 2B       		.uleb128 0x2b
 5647 2271 4A000000 		.4byte	.LVL89
 5648 2275 A5220000 		.4byte	0x22a5
 5649 2279 30       		.uleb128 0x30
 5650 227a 50000000 		.4byte	.LVL90
 5651 227e B2220000 		.4byte	0x22b2
 5652 2282 2D       		.uleb128 0x2d
 5653 2283 01       		.uleb128 0x1
 5654 2284 50       		.byte	0x50
 5655 2285 03       		.uleb128 0x3
 5656 2286 91       		.byte	0x91
 5657 2287 64       		.sleb128 -28
 5658 2288 06       		.byte	0x6
 5659 2289 00       		.byte	0
 5660 228a 00       		.byte	0
 5661 228b 36       		.uleb128 0x36
 5662 228c 80190000 		.4byte	.LASF513
 5663 2290 80190000 		.4byte	.LASF513
 5664 2294 02       		.byte	0x2
 5665 2295 7701     		.2byte	0x177
 5666 2297 0D       		.byte	0xd
 5667 2298 36       		.uleb128 0x36
 5668 2299 771B0000 		.4byte	.LASF514
 5669 229d 771B0000 		.4byte	.LASF514
 5670 22a1 07       		.byte	0x7
 5671 22a2 2F02     		.2byte	0x22f
 5672 22a4 12       		.byte	0x12
 5673 22a5 36       		.uleb128 0x36
 5674 22a6 000A0000 		.4byte	.LASF515
 5675 22aa 000A0000 		.4byte	.LASF515
 5676 22ae 07       		.byte	0x7
 5677 22af 3102     		.2byte	0x231
 5678 22b1 12       		.byte	0x12
 5679 22b2 36       		.uleb128 0x36
 5680 22b3 060B0000 		.4byte	.LASF516
 5681 22b7 060B0000 		.4byte	.LASF516
 5682 22bb 02       		.byte	0x2
ARM GAS  C:\Users\EDULU~1.DES\AppData\Local\Temp\ccfRue3n.s 			page 122


 5683 22bc 7801     		.2byte	0x178
 5684 22be 0D       		.byte	0xd
 5685 22bf 36       		.uleb128 0x36
 5686 22c0 24170000 		.4byte	.LASF517
 5687 22c4 24170000 		.4byte	.LASF517
 5688 22c8 0A       		.byte	0xa
 5689 22c9 0808     		.2byte	0x808
 5690 22cb 0F       		.byte	0xf
 5691 22cc 36       		.uleb128 0x36
 5692 22cd 04090000 		.4byte	.LASF518
 5693 22d1 04090000 		.4byte	.LASF518
 5694 22d5 0A       		.byte	0xa
 5695 22d6 7E07     		.2byte	0x77e
 5696 22d8 0F       		.byte	0xf
 5697 22d9 36       		.uleb128 0x36
 5698 22da FA020000 		.4byte	.LASF519
 5699 22de FA020000 		.4byte	.LASF519
 5700 22e2 0A       		.byte	0xa
 5701 22e3 4B08     		.2byte	0x84b
 5702 22e5 0F       		.byte	0xf
 5703 22e6 36       		.uleb128 0x36
 5704 22e7 36070000 		.4byte	.LASF520
 5705 22eb 36070000 		.4byte	.LASF520
 5706 22ef 07       		.byte	0x7
 5707 22f0 EC02     		.2byte	0x2ec
 5708 22f2 0D       		.byte	0xd
 5709 22f3 36       		.uleb128 0x36
 5710 22f4 9E080000 		.4byte	.LASF521
 5711 22f8 9E080000 		.4byte	.LASF521
 5712 22fc 0A       		.byte	0xa
 5713 22fd F807     		.2byte	0x7f8
 5714 22ff 0F       		.byte	0xf
 5715 2300 36       		.uleb128 0x36
 5716 2301 B7100000 		.4byte	.LASF522
 5717 2305 B7100000 		.4byte	.LASF522
 5718 2309 0A       		.byte	0xa
 5719 230a F307     		.2byte	0x7f3
 5720 230c 0F       		.byte	0xf
 5721 230d 00       		.byte	0
 5722              		.section	.debug_abbrev,"",%progbits
 5723              	.Ldebug_abbrev0:
 5724 0000 01       		.uleb128 0x1
 5725 0001 11       		.uleb128 0x11
 5726 0002 01       		.byte	0x1
 5727 0003 25       		.uleb128 0x25
 5728 0004 0E       		.uleb128 0xe
 5729 0005 13       		.uleb128 0x13
 5730 0006 0B       		.uleb128 0xb
 5731 0007 03       		.uleb128 0x3
 5732 0008 0E       		.uleb128 0xe
 5733 0009 1B       		.uleb128 0x1b
 5734 000a 0E       		.uleb128 0xe
 5735 000b 55       		.uleb128 0x55
 5736 000c 17       		.uleb128 0x17
 5737 000d 11       		.uleb128 0x11
 5738 000e 01       		.uleb128 0x1
 5739 000f 10       		.uleb128 0x10
ARM GAS  C:\Users\EDULU~1.DES\AppData\Local\Temp\ccfRue3n.s 			page 123


 5740 0010 17       		.uleb128 0x17
 5741 0011 00       		.byte	0
 5742 0012 00       		.byte	0
 5743 0013 02       		.uleb128 0x2
 5744 0014 16       		.uleb128 0x16
 5745 0015 00       		.byte	0
 5746 0016 03       		.uleb128 0x3
 5747 0017 0E       		.uleb128 0xe
 5748 0018 3A       		.uleb128 0x3a
 5749 0019 0B       		.uleb128 0xb
 5750 001a 3B       		.uleb128 0x3b
 5751 001b 0B       		.uleb128 0xb
 5752 001c 39       		.uleb128 0x39
 5753 001d 0B       		.uleb128 0xb
 5754 001e 49       		.uleb128 0x49
 5755 001f 13       		.uleb128 0x13
 5756 0020 00       		.byte	0
 5757 0021 00       		.byte	0
 5758 0022 03       		.uleb128 0x3
 5759 0023 24       		.uleb128 0x24
 5760 0024 00       		.byte	0
 5761 0025 0B       		.uleb128 0xb
 5762 0026 0B       		.uleb128 0xb
 5763 0027 3E       		.uleb128 0x3e
 5764 0028 0B       		.uleb128 0xb
 5765 0029 03       		.uleb128 0x3
 5766 002a 0E       		.uleb128 0xe
 5767 002b 00       		.byte	0
 5768 002c 00       		.byte	0
 5769 002d 04       		.uleb128 0x4
 5770 002e 26       		.uleb128 0x26
 5771 002f 00       		.byte	0
 5772 0030 49       		.uleb128 0x49
 5773 0031 13       		.uleb128 0x13
 5774 0032 00       		.byte	0
 5775 0033 00       		.byte	0
 5776 0034 05       		.uleb128 0x5
 5777 0035 24       		.uleb128 0x24
 5778 0036 00       		.byte	0
 5779 0037 0B       		.uleb128 0xb
 5780 0038 0B       		.uleb128 0xb
 5781 0039 3E       		.uleb128 0x3e
 5782 003a 0B       		.uleb128 0xb
 5783 003b 03       		.uleb128 0x3
 5784 003c 08       		.uleb128 0x8
 5785 003d 00       		.byte	0
 5786 003e 00       		.byte	0
 5787 003f 06       		.uleb128 0x6
 5788 0040 0F       		.uleb128 0xf
 5789 0041 00       		.byte	0
 5790 0042 0B       		.uleb128 0xb
 5791 0043 0B       		.uleb128 0xb
 5792 0044 49       		.uleb128 0x49
 5793 0045 13       		.uleb128 0x13
 5794 0046 00       		.byte	0
 5795 0047 00       		.byte	0
 5796 0048 07       		.uleb128 0x7
ARM GAS  C:\Users\EDULU~1.DES\AppData\Local\Temp\ccfRue3n.s 			page 124


 5797 0049 15       		.uleb128 0x15
 5798 004a 00       		.byte	0
 5799 004b 27       		.uleb128 0x27
 5800 004c 19       		.uleb128 0x19
 5801 004d 00       		.byte	0
 5802 004e 00       		.byte	0
 5803 004f 08       		.uleb128 0x8
 5804 0050 15       		.uleb128 0x15
 5805 0051 01       		.byte	0x1
 5806 0052 27       		.uleb128 0x27
 5807 0053 19       		.uleb128 0x19
 5808 0054 01       		.uleb128 0x1
 5809 0055 13       		.uleb128 0x13
 5810 0056 00       		.byte	0
 5811 0057 00       		.byte	0
 5812 0058 09       		.uleb128 0x9
 5813 0059 05       		.uleb128 0x5
 5814 005a 00       		.byte	0
 5815 005b 49       		.uleb128 0x49
 5816 005c 13       		.uleb128 0x13
 5817 005d 00       		.byte	0
 5818 005e 00       		.byte	0
 5819 005f 0A       		.uleb128 0xa
 5820 0060 0F       		.uleb128 0xf
 5821 0061 00       		.byte	0
 5822 0062 0B       		.uleb128 0xb
 5823 0063 0B       		.uleb128 0xb
 5824 0064 00       		.byte	0
 5825 0065 00       		.byte	0
 5826 0066 0B       		.uleb128 0xb
 5827 0067 16       		.uleb128 0x16
 5828 0068 00       		.byte	0
 5829 0069 03       		.uleb128 0x3
 5830 006a 0E       		.uleb128 0xe
 5831 006b 3A       		.uleb128 0x3a
 5832 006c 0B       		.uleb128 0xb
 5833 006d 3B       		.uleb128 0x3b
 5834 006e 05       		.uleb128 0x5
 5835 006f 39       		.uleb128 0x39
 5836 0070 0B       		.uleb128 0xb
 5837 0071 49       		.uleb128 0x49
 5838 0072 13       		.uleb128 0x13
 5839 0073 00       		.byte	0
 5840 0074 00       		.byte	0
 5841 0075 0C       		.uleb128 0xc
 5842 0076 13       		.uleb128 0x13
 5843 0077 00       		.byte	0
 5844 0078 03       		.uleb128 0x3
 5845 0079 0E       		.uleb128 0xe
 5846 007a 3C       		.uleb128 0x3c
 5847 007b 19       		.uleb128 0x19
 5848 007c 00       		.byte	0
 5849 007d 00       		.byte	0
 5850 007e 0D       		.uleb128 0xd
 5851 007f 17       		.uleb128 0x17
 5852 0080 01       		.byte	0x1
 5853 0081 0B       		.uleb128 0xb
ARM GAS  C:\Users\EDULU~1.DES\AppData\Local\Temp\ccfRue3n.s 			page 125


 5854 0082 0B       		.uleb128 0xb
 5855 0083 3A       		.uleb128 0x3a
 5856 0084 0B       		.uleb128 0xb
 5857 0085 3B       		.uleb128 0x3b
 5858 0086 0B       		.uleb128 0xb
 5859 0087 39       		.uleb128 0x39
 5860 0088 0B       		.uleb128 0xb
 5861 0089 01       		.uleb128 0x1
 5862 008a 13       		.uleb128 0x13
 5863 008b 00       		.byte	0
 5864 008c 00       		.byte	0
 5865 008d 0E       		.uleb128 0xe
 5866 008e 0D       		.uleb128 0xd
 5867 008f 00       		.byte	0
 5868 0090 03       		.uleb128 0x3
 5869 0091 0E       		.uleb128 0xe
 5870 0092 3A       		.uleb128 0x3a
 5871 0093 0B       		.uleb128 0xb
 5872 0094 3B       		.uleb128 0x3b
 5873 0095 0B       		.uleb128 0xb
 5874 0096 39       		.uleb128 0x39
 5875 0097 0B       		.uleb128 0xb
 5876 0098 49       		.uleb128 0x49
 5877 0099 13       		.uleb128 0x13
 5878 009a 00       		.byte	0
 5879 009b 00       		.byte	0
 5880 009c 0F       		.uleb128 0xf
 5881 009d 01       		.uleb128 0x1
 5882 009e 01       		.byte	0x1
 5883 009f 49       		.uleb128 0x49
 5884 00a0 13       		.uleb128 0x13
 5885 00a1 01       		.uleb128 0x1
 5886 00a2 13       		.uleb128 0x13
 5887 00a3 00       		.byte	0
 5888 00a4 00       		.byte	0
 5889 00a5 10       		.uleb128 0x10
 5890 00a6 21       		.uleb128 0x21
 5891 00a7 00       		.byte	0
 5892 00a8 49       		.uleb128 0x49
 5893 00a9 13       		.uleb128 0x13
 5894 00aa 2F       		.uleb128 0x2f
 5895 00ab 0B       		.uleb128 0xb
 5896 00ac 00       		.byte	0
 5897 00ad 00       		.byte	0
 5898 00ae 11       		.uleb128 0x11
 5899 00af 13       		.uleb128 0x13
 5900 00b0 01       		.byte	0x1
 5901 00b1 0B       		.uleb128 0xb
 5902 00b2 0B       		.uleb128 0xb
 5903 00b3 3A       		.uleb128 0x3a
 5904 00b4 0B       		.uleb128 0xb
 5905 00b5 3B       		.uleb128 0x3b
 5906 00b6 0B       		.uleb128 0xb
 5907 00b7 39       		.uleb128 0x39
 5908 00b8 0B       		.uleb128 0xb
 5909 00b9 01       		.uleb128 0x1
 5910 00ba 13       		.uleb128 0x13
ARM GAS  C:\Users\EDULU~1.DES\AppData\Local\Temp\ccfRue3n.s 			page 126


 5911 00bb 00       		.byte	0
 5912 00bc 00       		.byte	0
 5913 00bd 12       		.uleb128 0x12
 5914 00be 0D       		.uleb128 0xd
 5915 00bf 00       		.byte	0
 5916 00c0 03       		.uleb128 0x3
 5917 00c1 0E       		.uleb128 0xe
 5918 00c2 3A       		.uleb128 0x3a
 5919 00c3 0B       		.uleb128 0xb
 5920 00c4 3B       		.uleb128 0x3b
 5921 00c5 0B       		.uleb128 0xb
 5922 00c6 39       		.uleb128 0x39
 5923 00c7 0B       		.uleb128 0xb
 5924 00c8 49       		.uleb128 0x49
 5925 00c9 13       		.uleb128 0x13
 5926 00ca 38       		.uleb128 0x38
 5927 00cb 0B       		.uleb128 0xb
 5928 00cc 00       		.byte	0
 5929 00cd 00       		.byte	0
 5930 00ce 13       		.uleb128 0x13
 5931 00cf 13       		.uleb128 0x13
 5932 00d0 01       		.byte	0x1
 5933 00d1 03       		.uleb128 0x3
 5934 00d2 0E       		.uleb128 0xe
 5935 00d3 0B       		.uleb128 0xb
 5936 00d4 0B       		.uleb128 0xb
 5937 00d5 3A       		.uleb128 0x3a
 5938 00d6 0B       		.uleb128 0xb
 5939 00d7 3B       		.uleb128 0x3b
 5940 00d8 0B       		.uleb128 0xb
 5941 00d9 39       		.uleb128 0x39
 5942 00da 0B       		.uleb128 0xb
 5943 00db 01       		.uleb128 0x1
 5944 00dc 13       		.uleb128 0x13
 5945 00dd 00       		.byte	0
 5946 00de 00       		.byte	0
 5947 00df 14       		.uleb128 0x14
 5948 00e0 0D       		.uleb128 0xd
 5949 00e1 00       		.byte	0
 5950 00e2 03       		.uleb128 0x3
 5951 00e3 08       		.uleb128 0x8
 5952 00e4 3A       		.uleb128 0x3a
 5953 00e5 0B       		.uleb128 0xb
 5954 00e6 3B       		.uleb128 0x3b
 5955 00e7 0B       		.uleb128 0xb
 5956 00e8 39       		.uleb128 0x39
 5957 00e9 0B       		.uleb128 0xb
 5958 00ea 49       		.uleb128 0x49
 5959 00eb 13       		.uleb128 0x13
 5960 00ec 38       		.uleb128 0x38
 5961 00ed 0B       		.uleb128 0xb
 5962 00ee 00       		.byte	0
 5963 00ef 00       		.byte	0
 5964 00f0 15       		.uleb128 0x15
 5965 00f1 13       		.uleb128 0x13
 5966 00f2 01       		.byte	0x1
 5967 00f3 03       		.uleb128 0x3
ARM GAS  C:\Users\EDULU~1.DES\AppData\Local\Temp\ccfRue3n.s 			page 127


 5968 00f4 0E       		.uleb128 0xe
 5969 00f5 0B       		.uleb128 0xb
 5970 00f6 05       		.uleb128 0x5
 5971 00f7 3A       		.uleb128 0x3a
 5972 00f8 0B       		.uleb128 0xb
 5973 00f9 3B       		.uleb128 0x3b
 5974 00fa 0B       		.uleb128 0xb
 5975 00fb 39       		.uleb128 0x39
 5976 00fc 0B       		.uleb128 0xb
 5977 00fd 01       		.uleb128 0x1
 5978 00fe 13       		.uleb128 0x13
 5979 00ff 00       		.byte	0
 5980 0100 00       		.byte	0
 5981 0101 16       		.uleb128 0x16
 5982 0102 0D       		.uleb128 0xd
 5983 0103 00       		.byte	0
 5984 0104 03       		.uleb128 0x3
 5985 0105 0E       		.uleb128 0xe
 5986 0106 3A       		.uleb128 0x3a
 5987 0107 0B       		.uleb128 0xb
 5988 0108 3B       		.uleb128 0x3b
 5989 0109 0B       		.uleb128 0xb
 5990 010a 39       		.uleb128 0x39
 5991 010b 0B       		.uleb128 0xb
 5992 010c 49       		.uleb128 0x49
 5993 010d 13       		.uleb128 0x13
 5994 010e 38       		.uleb128 0x38
 5995 010f 05       		.uleb128 0x5
 5996 0110 00       		.byte	0
 5997 0111 00       		.byte	0
 5998 0112 17       		.uleb128 0x17
 5999 0113 15       		.uleb128 0x15
 6000 0114 01       		.byte	0x1
 6001 0115 27       		.uleb128 0x27
 6002 0116 19       		.uleb128 0x19
 6003 0117 49       		.uleb128 0x49
 6004 0118 13       		.uleb128 0x13
 6005 0119 01       		.uleb128 0x1
 6006 011a 13       		.uleb128 0x13
 6007 011b 00       		.byte	0
 6008 011c 00       		.byte	0
 6009 011d 18       		.uleb128 0x18
 6010 011e 13       		.uleb128 0x13
 6011 011f 01       		.byte	0x1
 6012 0120 03       		.uleb128 0x3
 6013 0121 0E       		.uleb128 0xe
 6014 0122 0B       		.uleb128 0xb
 6015 0123 05       		.uleb128 0x5
 6016 0124 3A       		.uleb128 0x3a
 6017 0125 0B       		.uleb128 0xb
 6018 0126 3B       		.uleb128 0x3b
 6019 0127 05       		.uleb128 0x5
 6020 0128 39       		.uleb128 0x39
 6021 0129 0B       		.uleb128 0xb
 6022 012a 01       		.uleb128 0x1
 6023 012b 13       		.uleb128 0x13
 6024 012c 00       		.byte	0
ARM GAS  C:\Users\EDULU~1.DES\AppData\Local\Temp\ccfRue3n.s 			page 128


 6025 012d 00       		.byte	0
 6026 012e 19       		.uleb128 0x19
 6027 012f 0D       		.uleb128 0xd
 6028 0130 00       		.byte	0
 6029 0131 03       		.uleb128 0x3
 6030 0132 0E       		.uleb128 0xe
 6031 0133 3A       		.uleb128 0x3a
 6032 0134 0B       		.uleb128 0xb
 6033 0135 3B       		.uleb128 0x3b
 6034 0136 05       		.uleb128 0x5
 6035 0137 39       		.uleb128 0x39
 6036 0138 0B       		.uleb128 0xb
 6037 0139 49       		.uleb128 0x49
 6038 013a 13       		.uleb128 0x13
 6039 013b 38       		.uleb128 0x38
 6040 013c 0B       		.uleb128 0xb
 6041 013d 00       		.byte	0
 6042 013e 00       		.byte	0
 6043 013f 1A       		.uleb128 0x1a
 6044 0140 0D       		.uleb128 0xd
 6045 0141 00       		.byte	0
 6046 0142 03       		.uleb128 0x3
 6047 0143 0E       		.uleb128 0xe
 6048 0144 3A       		.uleb128 0x3a
 6049 0145 0B       		.uleb128 0xb
 6050 0146 3B       		.uleb128 0x3b
 6051 0147 05       		.uleb128 0x5
 6052 0148 39       		.uleb128 0x39
 6053 0149 0B       		.uleb128 0xb
 6054 014a 49       		.uleb128 0x49
 6055 014b 13       		.uleb128 0x13
 6056 014c 38       		.uleb128 0x38
 6057 014d 05       		.uleb128 0x5
 6058 014e 00       		.byte	0
 6059 014f 00       		.byte	0
 6060 0150 1B       		.uleb128 0x1b
 6061 0151 13       		.uleb128 0x13
 6062 0152 01       		.byte	0x1
 6063 0153 03       		.uleb128 0x3
 6064 0154 0E       		.uleb128 0xe
 6065 0155 0B       		.uleb128 0xb
 6066 0156 0B       		.uleb128 0xb
 6067 0157 3A       		.uleb128 0x3a
 6068 0158 0B       		.uleb128 0xb
 6069 0159 3B       		.uleb128 0x3b
 6070 015a 05       		.uleb128 0x5
 6071 015b 39       		.uleb128 0x39
 6072 015c 0B       		.uleb128 0xb
 6073 015d 01       		.uleb128 0x1
 6074 015e 13       		.uleb128 0x13
 6075 015f 00       		.byte	0
 6076 0160 00       		.byte	0
 6077 0161 1C       		.uleb128 0x1c
 6078 0162 13       		.uleb128 0x13
 6079 0163 01       		.byte	0x1
 6080 0164 0B       		.uleb128 0xb
 6081 0165 0B       		.uleb128 0xb
ARM GAS  C:\Users\EDULU~1.DES\AppData\Local\Temp\ccfRue3n.s 			page 129


 6082 0166 3A       		.uleb128 0x3a
 6083 0167 0B       		.uleb128 0xb
 6084 0168 3B       		.uleb128 0x3b
 6085 0169 05       		.uleb128 0x5
 6086 016a 39       		.uleb128 0x39
 6087 016b 0B       		.uleb128 0xb
 6088 016c 01       		.uleb128 0x1
 6089 016d 13       		.uleb128 0x13
 6090 016e 00       		.byte	0
 6091 016f 00       		.byte	0
 6092 0170 1D       		.uleb128 0x1d
 6093 0171 17       		.uleb128 0x17
 6094 0172 01       		.byte	0x1
 6095 0173 0B       		.uleb128 0xb
 6096 0174 0B       		.uleb128 0xb
 6097 0175 3A       		.uleb128 0x3a
 6098 0176 0B       		.uleb128 0xb
 6099 0177 3B       		.uleb128 0x3b
 6100 0178 05       		.uleb128 0x5
 6101 0179 39       		.uleb128 0x39
 6102 017a 0B       		.uleb128 0xb
 6103 017b 01       		.uleb128 0x1
 6104 017c 13       		.uleb128 0x13
 6105 017d 00       		.byte	0
 6106 017e 00       		.byte	0
 6107 017f 1E       		.uleb128 0x1e
 6108 0180 0D       		.uleb128 0xd
 6109 0181 00       		.byte	0
 6110 0182 03       		.uleb128 0x3
 6111 0183 0E       		.uleb128 0xe
 6112 0184 3A       		.uleb128 0x3a
 6113 0185 0B       		.uleb128 0xb
 6114 0186 3B       		.uleb128 0x3b
 6115 0187 05       		.uleb128 0x5
 6116 0188 39       		.uleb128 0x39
 6117 0189 0B       		.uleb128 0xb
 6118 018a 49       		.uleb128 0x49
 6119 018b 13       		.uleb128 0x13
 6120 018c 00       		.byte	0
 6121 018d 00       		.byte	0
 6122 018e 1F       		.uleb128 0x1f
 6123 018f 34       		.uleb128 0x34
 6124 0190 00       		.byte	0
 6125 0191 03       		.uleb128 0x3
 6126 0192 0E       		.uleb128 0xe
 6127 0193 3A       		.uleb128 0x3a
 6128 0194 0B       		.uleb128 0xb
 6129 0195 3B       		.uleb128 0x3b
 6130 0196 05       		.uleb128 0x5
 6131 0197 39       		.uleb128 0x39
 6132 0198 0B       		.uleb128 0xb
 6133 0199 49       		.uleb128 0x49
 6134 019a 13       		.uleb128 0x13
 6135 019b 3F       		.uleb128 0x3f
 6136 019c 19       		.uleb128 0x19
 6137 019d 3C       		.uleb128 0x3c
 6138 019e 19       		.uleb128 0x19
ARM GAS  C:\Users\EDULU~1.DES\AppData\Local\Temp\ccfRue3n.s 			page 130


 6139 019f 00       		.byte	0
 6140 01a0 00       		.byte	0
 6141 01a1 20       		.uleb128 0x20
 6142 01a2 34       		.uleb128 0x34
 6143 01a3 00       		.byte	0
 6144 01a4 03       		.uleb128 0x3
 6145 01a5 0E       		.uleb128 0xe
 6146 01a6 3A       		.uleb128 0x3a
 6147 01a7 0B       		.uleb128 0xb
 6148 01a8 3B       		.uleb128 0x3b
 6149 01a9 0B       		.uleb128 0xb
 6150 01aa 39       		.uleb128 0x39
 6151 01ab 0B       		.uleb128 0xb
 6152 01ac 49       		.uleb128 0x49
 6153 01ad 13       		.uleb128 0x13
 6154 01ae 3F       		.uleb128 0x3f
 6155 01af 19       		.uleb128 0x19
 6156 01b0 3C       		.uleb128 0x3c
 6157 01b1 19       		.uleb128 0x19
 6158 01b2 00       		.byte	0
 6159 01b3 00       		.byte	0
 6160 01b4 21       		.uleb128 0x21
 6161 01b5 04       		.uleb128 0x4
 6162 01b6 01       		.byte	0x1
 6163 01b7 03       		.uleb128 0x3
 6164 01b8 0E       		.uleb128 0xe
 6165 01b9 3E       		.uleb128 0x3e
 6166 01ba 0B       		.uleb128 0xb
 6167 01bb 0B       		.uleb128 0xb
 6168 01bc 0B       		.uleb128 0xb
 6169 01bd 49       		.uleb128 0x49
 6170 01be 13       		.uleb128 0x13
 6171 01bf 3A       		.uleb128 0x3a
 6172 01c0 0B       		.uleb128 0xb
 6173 01c1 3B       		.uleb128 0x3b
 6174 01c2 05       		.uleb128 0x5
 6175 01c3 39       		.uleb128 0x39
 6176 01c4 0B       		.uleb128 0xb
 6177 01c5 01       		.uleb128 0x1
 6178 01c6 13       		.uleb128 0x13
 6179 01c7 00       		.byte	0
 6180 01c8 00       		.byte	0
 6181 01c9 22       		.uleb128 0x22
 6182 01ca 28       		.uleb128 0x28
 6183 01cb 00       		.byte	0
 6184 01cc 03       		.uleb128 0x3
 6185 01cd 0E       		.uleb128 0xe
 6186 01ce 1C       		.uleb128 0x1c
 6187 01cf 0B       		.uleb128 0xb
 6188 01d0 00       		.byte	0
 6189 01d1 00       		.byte	0
 6190 01d2 23       		.uleb128 0x23
 6191 01d3 28       		.uleb128 0x28
 6192 01d4 00       		.byte	0
 6193 01d5 03       		.uleb128 0x3
 6194 01d6 0E       		.uleb128 0xe
 6195 01d7 1C       		.uleb128 0x1c
ARM GAS  C:\Users\EDULU~1.DES\AppData\Local\Temp\ccfRue3n.s 			page 131


 6196 01d8 05       		.uleb128 0x5
 6197 01d9 00       		.byte	0
 6198 01da 00       		.byte	0
 6199 01db 24       		.uleb128 0x24
 6200 01dc 0D       		.uleb128 0xd
 6201 01dd 00       		.byte	0
 6202 01de 03       		.uleb128 0x3
 6203 01df 08       		.uleb128 0x8
 6204 01e0 3A       		.uleb128 0x3a
 6205 01e1 0B       		.uleb128 0xb
 6206 01e2 3B       		.uleb128 0x3b
 6207 01e3 05       		.uleb128 0x5
 6208 01e4 39       		.uleb128 0x39
 6209 01e5 0B       		.uleb128 0xb
 6210 01e6 49       		.uleb128 0x49
 6211 01e7 13       		.uleb128 0x13
 6212 01e8 38       		.uleb128 0x38
 6213 01e9 0B       		.uleb128 0xb
 6214 01ea 00       		.byte	0
 6215 01eb 00       		.byte	0
 6216 01ec 25       		.uleb128 0x25
 6217 01ed 21       		.uleb128 0x21
 6218 01ee 00       		.byte	0
 6219 01ef 00       		.byte	0
 6220 01f0 00       		.byte	0
 6221 01f1 26       		.uleb128 0x26
 6222 01f2 2E       		.uleb128 0x2e
 6223 01f3 01       		.byte	0x1
 6224 01f4 3F       		.uleb128 0x3f
 6225 01f5 19       		.uleb128 0x19
 6226 01f6 03       		.uleb128 0x3
 6227 01f7 0E       		.uleb128 0xe
 6228 01f8 3A       		.uleb128 0x3a
 6229 01f9 0B       		.uleb128 0xb
 6230 01fa 3B       		.uleb128 0x3b
 6231 01fb 05       		.uleb128 0x5
 6232 01fc 39       		.uleb128 0x39
 6233 01fd 0B       		.uleb128 0xb
 6234 01fe 27       		.uleb128 0x27
 6235 01ff 19       		.uleb128 0x19
 6236 0200 49       		.uleb128 0x49
 6237 0201 13       		.uleb128 0x13
 6238 0202 11       		.uleb128 0x11
 6239 0203 01       		.uleb128 0x1
 6240 0204 12       		.uleb128 0x12
 6241 0205 06       		.uleb128 0x6
 6242 0206 40       		.uleb128 0x40
 6243 0207 18       		.uleb128 0x18
 6244 0208 9742     		.uleb128 0x2117
 6245 020a 19       		.uleb128 0x19
 6246 020b 01       		.uleb128 0x1
 6247 020c 13       		.uleb128 0x13
 6248 020d 00       		.byte	0
 6249 020e 00       		.byte	0
 6250 020f 27       		.uleb128 0x27
 6251 0210 05       		.uleb128 0x5
 6252 0211 00       		.byte	0
ARM GAS  C:\Users\EDULU~1.DES\AppData\Local\Temp\ccfRue3n.s 			page 132


 6253 0212 03       		.uleb128 0x3
 6254 0213 0E       		.uleb128 0xe
 6255 0214 3A       		.uleb128 0x3a
 6256 0215 0B       		.uleb128 0xb
 6257 0216 3B       		.uleb128 0x3b
 6258 0217 05       		.uleb128 0x5
 6259 0218 39       		.uleb128 0x39
 6260 0219 0B       		.uleb128 0xb
 6261 021a 49       		.uleb128 0x49
 6262 021b 13       		.uleb128 0x13
 6263 021c 02       		.uleb128 0x2
 6264 021d 17       		.uleb128 0x17
 6265 021e B742     		.uleb128 0x2137
 6266 0220 17       		.uleb128 0x17
 6267 0221 00       		.byte	0
 6268 0222 00       		.byte	0
 6269 0223 28       		.uleb128 0x28
 6270 0224 05       		.uleb128 0x5
 6271 0225 00       		.byte	0
 6272 0226 03       		.uleb128 0x3
 6273 0227 08       		.uleb128 0x8
 6274 0228 3A       		.uleb128 0x3a
 6275 0229 0B       		.uleb128 0xb
 6276 022a 3B       		.uleb128 0x3b
 6277 022b 05       		.uleb128 0x5
 6278 022c 39       		.uleb128 0x39
 6279 022d 0B       		.uleb128 0xb
 6280 022e 49       		.uleb128 0x49
 6281 022f 13       		.uleb128 0x13
 6282 0230 02       		.uleb128 0x2
 6283 0231 17       		.uleb128 0x17
 6284 0232 B742     		.uleb128 0x2137
 6285 0234 17       		.uleb128 0x17
 6286 0235 00       		.byte	0
 6287 0236 00       		.byte	0
 6288 0237 29       		.uleb128 0x29
 6289 0238 34       		.uleb128 0x34
 6290 0239 00       		.byte	0
 6291 023a 03       		.uleb128 0x3
 6292 023b 08       		.uleb128 0x8
 6293 023c 3A       		.uleb128 0x3a
 6294 023d 0B       		.uleb128 0xb
 6295 023e 3B       		.uleb128 0x3b
 6296 023f 05       		.uleb128 0x5
 6297 0240 39       		.uleb128 0x39
 6298 0241 0B       		.uleb128 0xb
 6299 0242 49       		.uleb128 0x49
 6300 0243 13       		.uleb128 0x13
 6301 0244 02       		.uleb128 0x2
 6302 0245 17       		.uleb128 0x17
 6303 0246 B742     		.uleb128 0x2137
 6304 0248 17       		.uleb128 0x17
 6305 0249 00       		.byte	0
 6306 024a 00       		.byte	0
 6307 024b 2A       		.uleb128 0x2a
 6308 024c 34       		.uleb128 0x34
 6309 024d 00       		.byte	0
ARM GAS  C:\Users\EDULU~1.DES\AppData\Local\Temp\ccfRue3n.s 			page 133


 6310 024e 03       		.uleb128 0x3
 6311 024f 0E       		.uleb128 0xe
 6312 0250 3A       		.uleb128 0x3a
 6313 0251 0B       		.uleb128 0xb
 6314 0252 3B       		.uleb128 0x3b
 6315 0253 05       		.uleb128 0x5
 6316 0254 39       		.uleb128 0x39
 6317 0255 0B       		.uleb128 0xb
 6318 0256 49       		.uleb128 0x49
 6319 0257 13       		.uleb128 0x13
 6320 0258 02       		.uleb128 0x2
 6321 0259 17       		.uleb128 0x17
 6322 025a B742     		.uleb128 0x2137
 6323 025c 17       		.uleb128 0x17
 6324 025d 00       		.byte	0
 6325 025e 00       		.byte	0
 6326 025f 2B       		.uleb128 0x2b
 6327 0260 898201   		.uleb128 0x4109
 6328 0263 00       		.byte	0
 6329 0264 11       		.uleb128 0x11
 6330 0265 01       		.uleb128 0x1
 6331 0266 31       		.uleb128 0x31
 6332 0267 13       		.uleb128 0x13
 6333 0268 00       		.byte	0
 6334 0269 00       		.byte	0
 6335 026a 2C       		.uleb128 0x2c
 6336 026b 898201   		.uleb128 0x4109
 6337 026e 01       		.byte	0x1
 6338 026f 11       		.uleb128 0x11
 6339 0270 01       		.uleb128 0x1
 6340 0271 31       		.uleb128 0x31
 6341 0272 13       		.uleb128 0x13
 6342 0273 01       		.uleb128 0x1
 6343 0274 13       		.uleb128 0x13
 6344 0275 00       		.byte	0
 6345 0276 00       		.byte	0
 6346 0277 2D       		.uleb128 0x2d
 6347 0278 8A8201   		.uleb128 0x410a
 6348 027b 00       		.byte	0
 6349 027c 02       		.uleb128 0x2
 6350 027d 18       		.uleb128 0x18
 6351 027e 9142     		.uleb128 0x2111
 6352 0280 18       		.uleb128 0x18
 6353 0281 00       		.byte	0
 6354 0282 00       		.byte	0
 6355 0283 2E       		.uleb128 0x2e
 6356 0284 2E       		.uleb128 0x2e
 6357 0285 01       		.byte	0x1
 6358 0286 3F       		.uleb128 0x3f
 6359 0287 19       		.uleb128 0x19
 6360 0288 03       		.uleb128 0x3
 6361 0289 0E       		.uleb128 0xe
 6362 028a 3A       		.uleb128 0x3a
 6363 028b 0B       		.uleb128 0xb
 6364 028c 3B       		.uleb128 0x3b
 6365 028d 05       		.uleb128 0x5
 6366 028e 39       		.uleb128 0x39
ARM GAS  C:\Users\EDULU~1.DES\AppData\Local\Temp\ccfRue3n.s 			page 134


 6367 028f 0B       		.uleb128 0xb
 6368 0290 27       		.uleb128 0x27
 6369 0291 19       		.uleb128 0x19
 6370 0292 11       		.uleb128 0x11
 6371 0293 01       		.uleb128 0x1
 6372 0294 12       		.uleb128 0x12
 6373 0295 06       		.uleb128 0x6
 6374 0296 40       		.uleb128 0x40
 6375 0297 18       		.uleb128 0x18
 6376 0298 9742     		.uleb128 0x2117
 6377 029a 19       		.uleb128 0x19
 6378 029b 01       		.uleb128 0x1
 6379 029c 13       		.uleb128 0x13
 6380 029d 00       		.byte	0
 6381 029e 00       		.byte	0
 6382 029f 2F       		.uleb128 0x2f
 6383 02a0 05       		.uleb128 0x5
 6384 02a1 00       		.byte	0
 6385 02a2 03       		.uleb128 0x3
 6386 02a3 0E       		.uleb128 0xe
 6387 02a4 3A       		.uleb128 0x3a
 6388 02a5 0B       		.uleb128 0xb
 6389 02a6 3B       		.uleb128 0x3b
 6390 02a7 05       		.uleb128 0x5
 6391 02a8 39       		.uleb128 0x39
 6392 02a9 0B       		.uleb128 0xb
 6393 02aa 49       		.uleb128 0x49
 6394 02ab 13       		.uleb128 0x13
 6395 02ac 02       		.uleb128 0x2
 6396 02ad 18       		.uleb128 0x18
 6397 02ae 00       		.byte	0
 6398 02af 00       		.byte	0
 6399 02b0 30       		.uleb128 0x30
 6400 02b1 898201   		.uleb128 0x4109
 6401 02b4 01       		.byte	0x1
 6402 02b5 11       		.uleb128 0x11
 6403 02b6 01       		.uleb128 0x1
 6404 02b7 31       		.uleb128 0x31
 6405 02b8 13       		.uleb128 0x13
 6406 02b9 00       		.byte	0
 6407 02ba 00       		.byte	0
 6408 02bb 31       		.uleb128 0x31
 6409 02bc 34       		.uleb128 0x34
 6410 02bd 00       		.byte	0
 6411 02be 03       		.uleb128 0x3
 6412 02bf 0E       		.uleb128 0xe
 6413 02c0 3A       		.uleb128 0x3a
 6414 02c1 0B       		.uleb128 0xb
 6415 02c2 3B       		.uleb128 0x3b
 6416 02c3 05       		.uleb128 0x5
 6417 02c4 39       		.uleb128 0x39
 6418 02c5 0B       		.uleb128 0xb
 6419 02c6 49       		.uleb128 0x49
 6420 02c7 13       		.uleb128 0x13
 6421 02c8 02       		.uleb128 0x2
 6422 02c9 18       		.uleb128 0x18
 6423 02ca 00       		.byte	0
ARM GAS  C:\Users\EDULU~1.DES\AppData\Local\Temp\ccfRue3n.s 			page 135


 6424 02cb 00       		.byte	0
 6425 02cc 32       		.uleb128 0x32
 6426 02cd 2E       		.uleb128 0x2e
 6427 02ce 01       		.byte	0x1
 6428 02cf 3F       		.uleb128 0x3f
 6429 02d0 19       		.uleb128 0x19
 6430 02d1 03       		.uleb128 0x3
 6431 02d2 0E       		.uleb128 0xe
 6432 02d3 3A       		.uleb128 0x3a
 6433 02d4 0B       		.uleb128 0xb
 6434 02d5 3B       		.uleb128 0x3b
 6435 02d6 0B       		.uleb128 0xb
 6436 02d7 39       		.uleb128 0x39
 6437 02d8 0B       		.uleb128 0xb
 6438 02d9 27       		.uleb128 0x27
 6439 02da 19       		.uleb128 0x19
 6440 02db 11       		.uleb128 0x11
 6441 02dc 01       		.uleb128 0x1
 6442 02dd 12       		.uleb128 0x12
 6443 02de 06       		.uleb128 0x6
 6444 02df 40       		.uleb128 0x40
 6445 02e0 18       		.uleb128 0x18
 6446 02e1 9742     		.uleb128 0x2117
 6447 02e3 19       		.uleb128 0x19
 6448 02e4 01       		.uleb128 0x1
 6449 02e5 13       		.uleb128 0x13
 6450 02e6 00       		.byte	0
 6451 02e7 00       		.byte	0
 6452 02e8 33       		.uleb128 0x33
 6453 02e9 05       		.uleb128 0x5
 6454 02ea 00       		.byte	0
 6455 02eb 03       		.uleb128 0x3
 6456 02ec 0E       		.uleb128 0xe
 6457 02ed 3A       		.uleb128 0x3a
 6458 02ee 0B       		.uleb128 0xb
 6459 02ef 3B       		.uleb128 0x3b
 6460 02f0 0B       		.uleb128 0xb
 6461 02f1 39       		.uleb128 0x39
 6462 02f2 0B       		.uleb128 0xb
 6463 02f3 49       		.uleb128 0x49
 6464 02f4 13       		.uleb128 0x13
 6465 02f5 02       		.uleb128 0x2
 6466 02f6 17       		.uleb128 0x17
 6467 02f7 B742     		.uleb128 0x2137
 6468 02f9 17       		.uleb128 0x17
 6469 02fa 00       		.byte	0
 6470 02fb 00       		.byte	0
 6471 02fc 34       		.uleb128 0x34
 6472 02fd 05       		.uleb128 0x5
 6473 02fe 00       		.byte	0
 6474 02ff 03       		.uleb128 0x3
 6475 0300 08       		.uleb128 0x8
 6476 0301 3A       		.uleb128 0x3a
 6477 0302 0B       		.uleb128 0xb
 6478 0303 3B       		.uleb128 0x3b
 6479 0304 0B       		.uleb128 0xb
 6480 0305 39       		.uleb128 0x39
ARM GAS  C:\Users\EDULU~1.DES\AppData\Local\Temp\ccfRue3n.s 			page 136


 6481 0306 0B       		.uleb128 0xb
 6482 0307 49       		.uleb128 0x49
 6483 0308 13       		.uleb128 0x13
 6484 0309 02       		.uleb128 0x2
 6485 030a 17       		.uleb128 0x17
 6486 030b B742     		.uleb128 0x2137
 6487 030d 17       		.uleb128 0x17
 6488 030e 00       		.byte	0
 6489 030f 00       		.byte	0
 6490 0310 35       		.uleb128 0x35
 6491 0311 34       		.uleb128 0x34
 6492 0312 00       		.byte	0
 6493 0313 03       		.uleb128 0x3
 6494 0314 0E       		.uleb128 0xe
 6495 0315 3A       		.uleb128 0x3a
 6496 0316 0B       		.uleb128 0xb
 6497 0317 3B       		.uleb128 0x3b
 6498 0318 0B       		.uleb128 0xb
 6499 0319 39       		.uleb128 0x39
 6500 031a 0B       		.uleb128 0xb
 6501 031b 49       		.uleb128 0x49
 6502 031c 13       		.uleb128 0x13
 6503 031d 02       		.uleb128 0x2
 6504 031e 17       		.uleb128 0x17
 6505 031f B742     		.uleb128 0x2137
 6506 0321 17       		.uleb128 0x17
 6507 0322 00       		.byte	0
 6508 0323 00       		.byte	0
 6509 0324 36       		.uleb128 0x36
 6510 0325 2E       		.uleb128 0x2e
 6511 0326 00       		.byte	0
 6512 0327 3F       		.uleb128 0x3f
 6513 0328 19       		.uleb128 0x19
 6514 0329 3C       		.uleb128 0x3c
 6515 032a 19       		.uleb128 0x19
 6516 032b 6E       		.uleb128 0x6e
 6517 032c 0E       		.uleb128 0xe
 6518 032d 03       		.uleb128 0x3
 6519 032e 0E       		.uleb128 0xe
 6520 032f 3A       		.uleb128 0x3a
 6521 0330 0B       		.uleb128 0xb
 6522 0331 3B       		.uleb128 0x3b
 6523 0332 05       		.uleb128 0x5
 6524 0333 39       		.uleb128 0x39
 6525 0334 0B       		.uleb128 0xb
 6526 0335 00       		.byte	0
 6527 0336 00       		.byte	0
 6528 0337 00       		.byte	0
 6529              		.section	.debug_loc,"",%progbits
 6530              	.Ldebug_loc0:
 6531              	.LVUS27:
 6532 0000 00       		.uleb128 0
 6533 0001 00       		.uleb128 .LVU381
 6534 0002 00       		.uleb128 .LVU381
 6535 0003 00       		.uleb128 .LVU439
 6536 0004 00       		.uleb128 .LVU439
 6537 0005 00       		.uleb128 0
ARM GAS  C:\Users\EDULU~1.DES\AppData\Local\Temp\ccfRue3n.s 			page 137


 6538              	.LLST27:
 6539 0006 00000000 		.4byte	.LVL107
 6540 000a 13000000 		.4byte	.LVL109-1
 6541 000e 0100     		.2byte	0x1
 6542 0010 50       		.byte	0x50
 6543 0011 13000000 		.4byte	.LVL109-1
 6544 0015 88000000 		.4byte	.LVL129
 6545 0019 0100     		.2byte	0x1
 6546 001b 55       		.byte	0x55
 6547 001c 88000000 		.4byte	.LVL129
 6548 0020 A8000000 		.4byte	.LFE12
 6549 0024 0400     		.2byte	0x4
 6550 0026 F3       		.byte	0xf3
 6551 0027 01       		.uleb128 0x1
 6552 0028 50       		.byte	0x50
 6553 0029 9F       		.byte	0x9f
 6554 002a 00000000 		.4byte	0
 6555 002e 00000000 		.4byte	0
 6556              	.LVUS28:
 6557 0032 00       		.uleb128 0
 6558 0033 00       		.uleb128 .LVU381
 6559 0034 00       		.uleb128 .LVU381
 6560 0035 00       		.uleb128 0
 6561              	.LLST28:
 6562 0036 00000000 		.4byte	.LVL107
 6563 003a 13000000 		.4byte	.LVL109-1
 6564 003e 0100     		.2byte	0x1
 6565 0040 51       		.byte	0x51
 6566 0041 13000000 		.4byte	.LVL109-1
 6567 0045 A8000000 		.4byte	.LFE12
 6568 0049 0400     		.2byte	0x4
 6569 004b F3       		.byte	0xf3
 6570 004c 01       		.uleb128 0x1
 6571 004d 51       		.byte	0x51
 6572 004e 9F       		.byte	0x9f
 6573 004f 00000000 		.4byte	0
 6574 0053 00000000 		.4byte	0
 6575              	.LVUS29:
 6576 0057 00       		.uleb128 0
 6577 0058 00       		.uleb128 .LVU381
 6578 0059 00       		.uleb128 .LVU381
 6579 005a 00       		.uleb128 .LVU444
 6580 005b 00       		.uleb128 .LVU444
 6581 005c 00       		.uleb128 .LVU445
 6582 005d 00       		.uleb128 .LVU445
 6583 005e 00       		.uleb128 0
 6584              	.LLST29:
 6585 005f 00000000 		.4byte	.LVL107
 6586 0063 13000000 		.4byte	.LVL109-1
 6587 0067 0100     		.2byte	0x1
 6588 0069 52       		.byte	0x52
 6589 006a 13000000 		.4byte	.LVL109-1
 6590 006e 96000000 		.4byte	.LVL131
 6591 0072 0100     		.2byte	0x1
 6592 0074 56       		.byte	0x56
 6593 0075 96000000 		.4byte	.LVL131
 6594 0079 9C000000 		.4byte	.LVL132
ARM GAS  C:\Users\EDULU~1.DES\AppData\Local\Temp\ccfRue3n.s 			page 138


 6595 007d 0400     		.2byte	0x4
 6596 007f F3       		.byte	0xf3
 6597 0080 01       		.uleb128 0x1
 6598 0081 52       		.byte	0x52
 6599 0082 9F       		.byte	0x9f
 6600 0083 9C000000 		.4byte	.LVL132
 6601 0087 A8000000 		.4byte	.LFE12
 6602 008b 0100     		.2byte	0x1
 6603 008d 56       		.byte	0x56
 6604 008e 00000000 		.4byte	0
 6605 0092 00000000 		.4byte	0
 6606              	.LVUS30:
 6607 0096 00       		.uleb128 0
 6608 0097 00       		.uleb128 .LVU381
 6609 0098 00       		.uleb128 .LVU381
 6610 0099 01       		.uleb128 .LVU443
 6611 009a 01       		.uleb128 .LVU443
 6612 009b 00       		.uleb128 .LVU445
 6613 009c 00       		.uleb128 .LVU445
 6614 009d 00       		.uleb128 0
 6615              	.LLST30:
 6616 009e 00000000 		.4byte	.LVL107
 6617 00a2 13000000 		.4byte	.LVL109-1
 6618 00a6 0100     		.2byte	0x1
 6619 00a8 53       		.byte	0x53
 6620 00a9 13000000 		.4byte	.LVL109-1
 6621 00ad 92000000 		.4byte	.LVL130
 6622 00b1 0100     		.2byte	0x1
 6623 00b3 58       		.byte	0x58
 6624 00b4 92000000 		.4byte	.LVL130
 6625 00b8 9C000000 		.4byte	.LVL132
 6626 00bc 0100     		.2byte	0x1
 6627 00be 52       		.byte	0x52
 6628 00bf 9C000000 		.4byte	.LVL132
 6629 00c3 A8000000 		.4byte	.LFE12
 6630 00c7 0100     		.2byte	0x1
 6631 00c9 58       		.byte	0x58
 6632 00ca 00000000 		.4byte	0
 6633 00ce 00000000 		.4byte	0
 6634              	.LVUS31:
 6635 00d2 00       		.uleb128 .LVU417
 6636 00d3 00       		.uleb128 .LVU429
 6637 00d4 00       		.uleb128 .LVU430
 6638 00d5 00       		.uleb128 .LVU433
 6639              	.LLST31:
 6640 00d6 5A000000 		.4byte	.LVL118
 6641 00da 72000000 		.4byte	.LVL123
 6642 00de 0100     		.2byte	0x1
 6643 00e0 54       		.byte	0x54
 6644 00e1 74000000 		.4byte	.LVL124
 6645 00e5 78000000 		.4byte	.LVL126
 6646 00e9 0100     		.2byte	0x1
 6647 00eb 54       		.byte	0x54
 6648 00ec 00000000 		.4byte	0
 6649 00f0 00000000 		.4byte	0
 6650              	.LVUS32:
 6651 00f4 01       		.uleb128 .LVU395
ARM GAS  C:\Users\EDULU~1.DES\AppData\Local\Temp\ccfRue3n.s 			page 139


 6652 00f5 00       		.uleb128 .LVU405
 6653 00f6 00       		.uleb128 .LVU433
 6654 00f7 01       		.uleb128 .LVU443
 6655 00f8 00       		.uleb128 .LVU445
 6656 00f9 00       		.uleb128 0
 6657              	.LLST32:
 6658 00fa 2A000000 		.4byte	.LVL112
 6659 00fe 3E000000 		.4byte	.LVL115
 6660 0102 0100     		.2byte	0x1
 6661 0104 54       		.byte	0x54
 6662 0105 78000000 		.4byte	.LVL126
 6663 0109 92000000 		.4byte	.LVL130
 6664 010d 0100     		.2byte	0x1
 6665 010f 54       		.byte	0x54
 6666 0110 9C000000 		.4byte	.LVL132
 6667 0114 A8000000 		.4byte	.LFE12
 6668 0118 0100     		.2byte	0x1
 6669 011a 54       		.byte	0x54
 6670 011b 00000000 		.4byte	0
 6671 011f 00000000 		.4byte	0
 6672              	.LVUS33:
 6673 0123 01       		.uleb128 .LVU384
 6674 0124 00       		.uleb128 .LVU439
 6675 0125 00       		.uleb128 .LVU439
 6676 0126 00       		.uleb128 0
 6677              	.LLST33:
 6678 0127 1A000000 		.4byte	.LVL111
 6679 012b 88000000 		.4byte	.LVL129
 6680 012f 0300     		.2byte	0x3
 6681 0131 75       		.byte	0x75
 6682 0132 08       		.sleb128 8
 6683 0133 9F       		.byte	0x9f
 6684 0134 88000000 		.4byte	.LVL129
 6685 0138 A8000000 		.4byte	.LFE12
 6686 013c 0600     		.2byte	0x6
 6687 013e F3       		.byte	0xf3
 6688 013f 01       		.uleb128 0x1
 6689 0140 50       		.byte	0x50
 6690 0141 23       		.byte	0x23
 6691 0142 08       		.uleb128 0x8
 6692 0143 9F       		.byte	0x9f
 6693 0144 00000000 		.4byte	0
 6694 0148 00000000 		.4byte	0
 6695              	.LVUS34:
 6696 014c 00       		.uleb128 .LVU419
 6697 014d 00       		.uleb128 .LVU425
 6698 014e 01       		.uleb128 .LVU427
 6699 014f 01       		.uleb128 .LVU443
 6700 0150 00       		.uleb128 .LVU445
 6701 0151 00       		.uleb128 0
 6702              	.LLST34:
 6703 0152 5C000000 		.4byte	.LVL119
 6704 0156 64000000 		.4byte	.LVL121
 6705 015a 0100     		.2byte	0x1
 6706 015c 57       		.byte	0x57
 6707 015d 70000000 		.4byte	.LVL122
 6708 0161 92000000 		.4byte	.LVL130
ARM GAS  C:\Users\EDULU~1.DES\AppData\Local\Temp\ccfRue3n.s 			page 140


 6709 0165 0100     		.2byte	0x1
 6710 0167 57       		.byte	0x57
 6711 0168 9C000000 		.4byte	.LVL132
 6712 016c A8000000 		.4byte	.LFE12
 6713 0170 0100     		.2byte	0x1
 6714 0172 57       		.byte	0x57
 6715 0173 00000000 		.4byte	0
 6716 0177 00000000 		.4byte	0
 6717              	.LVUS35:
 6718 017b 00       		.uleb128 .LVU425
 6719 017c 00       		.uleb128 .LVU431
 6720              	.LLST35:
 6721 017d 64000000 		.4byte	.LVL121
 6722 0181 76000000 		.4byte	.LVL125
 6723 0185 0100     		.2byte	0x1
 6724 0187 57       		.byte	0x57
 6725 0188 00000000 		.4byte	0
 6726 018c 00000000 		.4byte	0
 6727              	.LVUS36:
 6728 0190 00       		.uleb128 .LVU423
 6729 0191 00       		.uleb128 .LVU426
 6730              	.LLST36:
 6731 0192 62000000 		.4byte	.LVL120
 6732 0196 6F000000 		.4byte	.LVL122-1
 6733 019a 0100     		.2byte	0x1
 6734 019c 51       		.byte	0x51
 6735 019d 00000000 		.4byte	0
 6736 01a1 00000000 		.4byte	0
 6737              	.LVUS37:
 6738 01a5 07       		.uleb128 .LVU378
 6739 01a6 00       		.uleb128 .LVU382
 6740 01a7 00       		.uleb128 .LVU382
 6741 01a8 00       		.uleb128 .LVU383
 6742 01a9 00       		.uleb128 .LVU383
 6743 01aa 00       		.uleb128 0
 6744              	.LLST37:
 6745 01ab 10000000 		.4byte	.LVL108
 6746 01af 16000000 		.4byte	.LVL110
 6747 01b3 0200     		.2byte	0x2
 6748 01b5 30       		.byte	0x30
 6749 01b6 9F       		.byte	0x9f
 6750 01b7 16000000 		.4byte	.LVL110
 6751 01bb 19000000 		.4byte	.LVL111-1
 6752 01bf 0100     		.2byte	0x1
 6753 01c1 50       		.byte	0x50
 6754 01c2 19000000 		.4byte	.LVL111-1
 6755 01c6 A8000000 		.4byte	.LFE12
 6756 01ca 0200     		.2byte	0x2
 6757 01cc 91       		.byte	0x91
 6758 01cd 64       		.sleb128 -28
 6759 01ce 00000000 		.4byte	0
 6760 01d2 00000000 		.4byte	0
 6761              	.LVUS25:
 6762 01d6 00       		.uleb128 .LVU333
 6763 01d7 00       		.uleb128 .LVU343
 6764 01d8 00       		.uleb128 .LVU347
 6765 01d9 00       		.uleb128 .LVU356
ARM GAS  C:\Users\EDULU~1.DES\AppData\Local\Temp\ccfRue3n.s 			page 141


 6766 01da 00       		.uleb128 .LVU357
 6767 01db 00       		.uleb128 0
 6768              	.LLST25:
 6769 01dc 04000000 		.4byte	.LVL98
 6770 01e0 12000000 		.4byte	.LVL99
 6771 01e4 0100     		.2byte	0x1
 6772 01e6 53       		.byte	0x53
 6773 01e7 18000000 		.4byte	.LVL101
 6774 01eb 26000000 		.4byte	.LVL104
 6775 01ef 0100     		.2byte	0x1
 6776 01f1 53       		.byte	0x53
 6777 01f2 2A000000 		.4byte	.LVL105
 6778 01f6 34000000 		.4byte	.LFE10
 6779 01fa 0100     		.2byte	0x1
 6780 01fc 53       		.byte	0x53
 6781 01fd 00000000 		.4byte	0
 6782 0201 00000000 		.4byte	0
 6783              	.LVUS26:
 6784 0205 00       		.uleb128 .LVU331
 6785 0206 00       		.uleb128 .LVU346
 6786 0207 00       		.uleb128 .LVU347
 6787 0208 00       		.uleb128 .LVU349
 6788 0209 00       		.uleb128 .LVU349
 6789 020a 00       		.uleb128 .LVU354
 6790 020b 00       		.uleb128 .LVU357
 6791 020c 00       		.uleb128 0
 6792              	.LLST26:
 6793 020d 02000000 		.4byte	.LVL97
 6794 0211 16000000 		.4byte	.LVL100
 6795 0215 0100     		.2byte	0x1
 6796 0217 52       		.byte	0x52
 6797 0218 18000000 		.4byte	.LVL101
 6798 021c 1A000000 		.4byte	.LVL102
 6799 0220 0100     		.2byte	0x1
 6800 0222 52       		.byte	0x52
 6801 0223 1A000000 		.4byte	.LVL102
 6802 0227 24000000 		.4byte	.LVL103
 6803 022b 0200     		.2byte	0x2
 6804 022d 70       		.byte	0x70
 6805 022e 14       		.sleb128 20
 6806 022f 2A000000 		.4byte	.LVL105
 6807 0233 34000000 		.4byte	.LFE10
 6808 0237 0100     		.2byte	0x1
 6809 0239 52       		.byte	0x52
 6810 023a 00000000 		.4byte	0
 6811 023e 00000000 		.4byte	0
 6812              	.LVUS19:
 6813 0242 00       		.uleb128 0
 6814 0243 00       		.uleb128 .LVU266
 6815 0244 00       		.uleb128 .LVU266
 6816 0245 00       		.uleb128 .LVU267
 6817 0246 00       		.uleb128 .LVU267
 6818 0247 00       		.uleb128 0
 6819              	.LLST19:
 6820 0248 00000000 		.4byte	.LVL76
 6821 024c 12000000 		.4byte	.LVL77
 6822 0250 0100     		.2byte	0x1
ARM GAS  C:\Users\EDULU~1.DES\AppData\Local\Temp\ccfRue3n.s 			page 142


 6823 0252 50       		.byte	0x50
 6824 0253 12000000 		.4byte	.LVL77
 6825 0257 15000000 		.4byte	.LVL78-1
 6826 025b 0300     		.2byte	0x3
 6827 025d 70       		.byte	0x70
 6828 025e 78       		.sleb128 -8
 6829 025f 9F       		.byte	0x9f
 6830 0260 15000000 		.4byte	.LVL78-1
 6831 0264 20000000 		.4byte	.LFE8
 6832 0268 0400     		.2byte	0x4
 6833 026a F3       		.byte	0xf3
 6834 026b 01       		.uleb128 0x1
 6835 026c 50       		.byte	0x50
 6836 026d 9F       		.byte	0x9f
 6837 026e 00000000 		.4byte	0
 6838 0272 00000000 		.4byte	0
 6839              	.LVUS14:
 6840 0276 00       		.uleb128 0
 6841 0277 00       		.uleb128 .LVU229
 6842 0278 00       		.uleb128 .LVU229
 6843 0279 01       		.uleb128 .LVU240
 6844 027a 01       		.uleb128 .LVU240
 6845 027b 00       		.uleb128 .LVU241
 6846 027c 00       		.uleb128 .LVU241
 6847 027d 00       		.uleb128 .LVU247
 6848 027e 00       		.uleb128 .LVU247
 6849 027f 00       		.uleb128 0
 6850              	.LLST14:
 6851 0280 00000000 		.4byte	.LVL64
 6852 0284 1B000000 		.4byte	.LVL66-1
 6853 0288 0100     		.2byte	0x1
 6854 028a 50       		.byte	0x50
 6855 028b 1B000000 		.4byte	.LVL66-1
 6856 028f 34000000 		.4byte	.LVL71
 6857 0293 0100     		.2byte	0x1
 6858 0295 54       		.byte	0x54
 6859 0296 34000000 		.4byte	.LVL71
 6860 029a 36000000 		.4byte	.LVL74
 6861 029e 0400     		.2byte	0x4
 6862 02a0 F3       		.byte	0xf3
 6863 02a1 01       		.uleb128 0x1
 6864 02a2 50       		.byte	0x50
 6865 02a3 9F       		.byte	0x9f
 6866 02a4 36000000 		.4byte	.LVL74
 6867 02a8 42000000 		.4byte	.LVL75
 6868 02ac 0100     		.2byte	0x1
 6869 02ae 50       		.byte	0x50
 6870 02af 42000000 		.4byte	.LVL75
 6871 02b3 64000000 		.4byte	.LFE7
 6872 02b7 0100     		.2byte	0x1
 6873 02b9 54       		.byte	0x54
 6874 02ba 00000000 		.4byte	0
 6875 02be 00000000 		.4byte	0
 6876              	.LVUS15:
 6877 02c2 00       		.uleb128 0
 6878 02c3 00       		.uleb128 .LVU229
 6879 02c4 00       		.uleb128 .LVU229
ARM GAS  C:\Users\EDULU~1.DES\AppData\Local\Temp\ccfRue3n.s 			page 143


 6880 02c5 01       		.uleb128 .LVU240
 6881 02c6 01       		.uleb128 .LVU240
 6882 02c7 00       		.uleb128 .LVU241
 6883 02c8 00       		.uleb128 .LVU241
 6884 02c9 00       		.uleb128 .LVU247
 6885 02ca 00       		.uleb128 .LVU247
 6886 02cb 00       		.uleb128 0
 6887              	.LLST15:
 6888 02cc 00000000 		.4byte	.LVL64
 6889 02d0 1B000000 		.4byte	.LVL66-1
 6890 02d4 0100     		.2byte	0x1
 6891 02d6 51       		.byte	0x51
 6892 02d7 1B000000 		.4byte	.LVL66-1
 6893 02db 34000000 		.4byte	.LVL73
 6894 02df 0100     		.2byte	0x1
 6895 02e1 56       		.byte	0x56
 6896 02e2 34000000 		.4byte	.LVL73
 6897 02e6 36000000 		.4byte	.LVL74
 6898 02ea 0400     		.2byte	0x4
 6899 02ec F3       		.byte	0xf3
 6900 02ed 01       		.uleb128 0x1
 6901 02ee 51       		.byte	0x51
 6902 02ef 9F       		.byte	0x9f
 6903 02f0 36000000 		.4byte	.LVL74
 6904 02f4 42000000 		.4byte	.LVL75
 6905 02f8 0100     		.2byte	0x1
 6906 02fa 51       		.byte	0x51
 6907 02fb 42000000 		.4byte	.LVL75
 6908 02ff 64000000 		.4byte	.LFE7
 6909 0303 0100     		.2byte	0x1
 6910 0305 56       		.byte	0x56
 6911 0306 00000000 		.4byte	0
 6912 030a 00000000 		.4byte	0
 6913              	.LVUS16:
 6914 030e 00       		.uleb128 0
 6915 030f 00       		.uleb128 .LVU229
 6916 0310 00       		.uleb128 .LVU229
 6917 0311 01       		.uleb128 .LVU240
 6918 0312 01       		.uleb128 .LVU240
 6919 0313 00       		.uleb128 .LVU241
 6920 0314 00       		.uleb128 .LVU241
 6921 0315 00       		.uleb128 .LVU247
 6922 0316 00       		.uleb128 .LVU247
 6923 0317 00       		.uleb128 0
 6924              	.LLST16:
 6925 0318 00000000 		.4byte	.LVL64
 6926 031c 1B000000 		.4byte	.LVL66-1
 6927 0320 0100     		.2byte	0x1
 6928 0322 52       		.byte	0x52
 6929 0323 1B000000 		.4byte	.LVL66-1
 6930 0327 34000000 		.4byte	.LVL72
 6931 032b 0100     		.2byte	0x1
 6932 032d 55       		.byte	0x55
 6933 032e 34000000 		.4byte	.LVL72
 6934 0332 36000000 		.4byte	.LVL74
 6935 0336 0400     		.2byte	0x4
 6936 0338 F3       		.byte	0xf3
ARM GAS  C:\Users\EDULU~1.DES\AppData\Local\Temp\ccfRue3n.s 			page 144


 6937 0339 01       		.uleb128 0x1
 6938 033a 52       		.byte	0x52
 6939 033b 9F       		.byte	0x9f
 6940 033c 36000000 		.4byte	.LVL74
 6941 0340 42000000 		.4byte	.LVL75
 6942 0344 0100     		.2byte	0x1
 6943 0346 52       		.byte	0x52
 6944 0347 42000000 		.4byte	.LVL75
 6945 034b 64000000 		.4byte	.LFE7
 6946 034f 0100     		.2byte	0x1
 6947 0351 55       		.byte	0x55
 6948 0352 00000000 		.4byte	0
 6949 0356 00000000 		.4byte	0
 6950              	.LVUS17:
 6951 035a 01       		.uleb128 .LVU248
 6952 035b 00       		.uleb128 0
 6953              	.LLST17:
 6954 035c 42000000 		.4byte	.LVL75
 6955 0360 64000000 		.4byte	.LFE7
 6956 0364 0300     		.2byte	0x3
 6957 0366 74       		.byte	0x74
 6958 0367 08       		.sleb128 8
 6959 0368 9F       		.byte	0x9f
 6960 0369 00000000 		.4byte	0
 6961 036d 00000000 		.4byte	0
 6962              	.LVUS18:
 6963 0371 02       		.uleb128 .LVU219
 6964 0372 00       		.uleb128 .LVU230
 6965 0373 00       		.uleb128 .LVU230
 6966 0374 00       		.uleb128 .LVU231
 6967 0375 00       		.uleb128 .LVU231
 6968 0376 00       		.uleb128 .LVU239
 6969 0377 00       		.uleb128 .LVU241
 6970 0378 00       		.uleb128 .LVU247
 6971 0379 00       		.uleb128 .LVU247
 6972 037a 00       		.uleb128 0
 6973              	.LLST18:
 6974 037b 08000000 		.4byte	.LVL65
 6975 037f 1E000000 		.4byte	.LVL67
 6976 0383 0200     		.2byte	0x2
 6977 0385 30       		.byte	0x30
 6978 0386 9F       		.byte	0x9f
 6979 0387 1E000000 		.4byte	.LVL67
 6980 038b 21000000 		.4byte	.LVL68-1
 6981 038f 0100     		.2byte	0x1
 6982 0391 50       		.byte	0x50
 6983 0392 21000000 		.4byte	.LVL68-1
 6984 0396 34000000 		.4byte	.LVL70
 6985 039a 0100     		.2byte	0x1
 6986 039c 57       		.byte	0x57
 6987 039d 36000000 		.4byte	.LVL74
 6988 03a1 42000000 		.4byte	.LVL75
 6989 03a5 0200     		.2byte	0x2
 6990 03a7 30       		.byte	0x30
 6991 03a8 9F       		.byte	0x9f
 6992 03a9 42000000 		.4byte	.LVL75
 6993 03ad 64000000 		.4byte	.LFE7
ARM GAS  C:\Users\EDULU~1.DES\AppData\Local\Temp\ccfRue3n.s 			page 145


 6994 03b1 0100     		.2byte	0x1
 6995 03b3 57       		.byte	0x57
 6996 03b4 00000000 		.4byte	0
 6997 03b8 00000000 		.4byte	0
 6998              	.LVUS38:
 6999 03bc 00       		.uleb128 0
 7000 03bd 00       		.uleb128 .LVU456
 7001 03be 00       		.uleb128 .LVU456
 7002 03bf 00       		.uleb128 .LVU462
 7003 03c0 00       		.uleb128 .LVU462
 7004 03c1 00       		.uleb128 .LVU466
 7005 03c2 00       		.uleb128 .LVU466
 7006 03c3 00       		.uleb128 .LVU467
 7007 03c4 00       		.uleb128 .LVU467
 7008 03c5 00       		.uleb128 .LVU472
 7009 03c6 00       		.uleb128 .LVU472
 7010 03c7 01       		.uleb128 .LVU473
 7011 03c8 01       		.uleb128 .LVU473
 7012 03c9 00       		.uleb128 0
 7013              	.LLST38:
 7014 03ca 00000000 		.4byte	.LVL134
 7015 03ce 29000000 		.4byte	.LVL135-1
 7016 03d2 0100     		.2byte	0x1
 7017 03d4 50       		.byte	0x50
 7018 03d5 29000000 		.4byte	.LVL135-1
 7019 03d9 38000000 		.4byte	.LVL139
 7020 03dd 0100     		.2byte	0x1
 7021 03df 55       		.byte	0x55
 7022 03e0 38000000 		.4byte	.LVL139
 7023 03e4 3E000000 		.4byte	.LVL140
 7024 03e8 0100     		.2byte	0x1
 7025 03ea 50       		.byte	0x50
 7026 03eb 3E000000 		.4byte	.LVL140
 7027 03ef 40000000 		.4byte	.LVL141
 7028 03f3 0100     		.2byte	0x1
 7029 03f5 55       		.byte	0x55
 7030 03f6 40000000 		.4byte	.LVL141
 7031 03fa 4A000000 		.4byte	.LVL142
 7032 03fe 0100     		.2byte	0x1
 7033 0400 50       		.byte	0x50
 7034 0401 4A000000 		.4byte	.LVL142
 7035 0405 4A000000 		.4byte	.LVL143
 7036 0409 0100     		.2byte	0x1
 7037 040b 55       		.byte	0x55
 7038 040c 4A000000 		.4byte	.LVL143
 7039 0410 54000000 		.4byte	.LFE6
 7040 0414 0400     		.2byte	0x4
 7041 0416 F3       		.byte	0xf3
 7042 0417 01       		.uleb128 0x1
 7043 0418 50       		.byte	0x50
 7044 0419 9F       		.byte	0x9f
 7045 041a 00000000 		.4byte	0
 7046 041e 00000000 		.4byte	0
 7047              	.LVUS39:
 7048 0422 00       		.uleb128 0
 7049 0423 00       		.uleb128 .LVU456
 7050 0424 00       		.uleb128 .LVU456
ARM GAS  C:\Users\EDULU~1.DES\AppData\Local\Temp\ccfRue3n.s 			page 146


 7051 0425 00       		.uleb128 .LVU462
 7052 0426 00       		.uleb128 .LVU462
 7053 0427 00       		.uleb128 .LVU472
 7054 0428 00       		.uleb128 .LVU472
 7055 0429 00       		.uleb128 0
 7056              	.LLST39:
 7057 042a 00000000 		.4byte	.LVL134
 7058 042e 29000000 		.4byte	.LVL135-1
 7059 0432 0100     		.2byte	0x1
 7060 0434 51       		.byte	0x51
 7061 0435 29000000 		.4byte	.LVL135-1
 7062 0439 38000000 		.4byte	.LVL139
 7063 043d 0400     		.2byte	0x4
 7064 043f F3       		.byte	0xf3
 7065 0440 01       		.uleb128 0x1
 7066 0441 51       		.byte	0x51
 7067 0442 9F       		.byte	0x9f
 7068 0443 38000000 		.4byte	.LVL139
 7069 0447 4A000000 		.4byte	.LVL142
 7070 044b 0100     		.2byte	0x1
 7071 044d 51       		.byte	0x51
 7072 044e 4A000000 		.4byte	.LVL142
 7073 0452 54000000 		.4byte	.LFE6
 7074 0456 0400     		.2byte	0x4
 7075 0458 F3       		.byte	0xf3
 7076 0459 01       		.uleb128 0x1
 7077 045a 51       		.byte	0x51
 7078 045b 9F       		.byte	0x9f
 7079 045c 00000000 		.4byte	0
 7080 0460 00000000 		.4byte	0
 7081              	.LVUS40:
 7082 0464 00       		.uleb128 0
 7083 0465 00       		.uleb128 .LVU456
 7084 0466 00       		.uleb128 .LVU456
 7085 0467 00       		.uleb128 .LVU462
 7086 0468 00       		.uleb128 .LVU462
 7087 0469 00       		.uleb128 .LVU472
 7088 046a 00       		.uleb128 .LVU472
 7089 046b 01       		.uleb128 .LVU473
 7090 046c 01       		.uleb128 .LVU473
 7091 046d 00       		.uleb128 0
 7092              	.LLST40:
 7093 046e 00000000 		.4byte	.LVL134
 7094 0472 29000000 		.4byte	.LVL135-1
 7095 0476 0100     		.2byte	0x1
 7096 0478 52       		.byte	0x52
 7097 0479 29000000 		.4byte	.LVL135-1
 7098 047d 38000000 		.4byte	.LVL139
 7099 0481 0100     		.2byte	0x1
 7100 0483 56       		.byte	0x56
 7101 0484 38000000 		.4byte	.LVL139
 7102 0488 4A000000 		.4byte	.LVL142
 7103 048c 0100     		.2byte	0x1
 7104 048e 52       		.byte	0x52
 7105 048f 4A000000 		.4byte	.LVL142
 7106 0493 4A000000 		.4byte	.LVL144
 7107 0497 0100     		.2byte	0x1
ARM GAS  C:\Users\EDULU~1.DES\AppData\Local\Temp\ccfRue3n.s 			page 147


 7108 0499 56       		.byte	0x56
 7109 049a 4A000000 		.4byte	.LVL144
 7110 049e 54000000 		.4byte	.LFE6
 7111 04a2 0400     		.2byte	0x4
 7112 04a4 F3       		.byte	0xf3
 7113 04a5 01       		.uleb128 0x1
 7114 04a6 52       		.byte	0x52
 7115 04a7 9F       		.byte	0x9f
 7116 04a8 00000000 		.4byte	0
 7117 04ac 00000000 		.4byte	0
 7118              	.LVUS41:
 7119 04b0 00       		.uleb128 .LVU460
 7120 04b1 00       		.uleb128 .LVU462
 7121              	.LLST41:
 7122 04b2 36000000 		.4byte	.LVL138
 7123 04b6 38000000 		.4byte	.LVL139
 7124 04ba 0100     		.2byte	0x1
 7125 04bc 50       		.byte	0x50
 7126 04bd 00000000 		.4byte	0
 7127 04c1 00000000 		.4byte	0
 7128              	.LVUS42:
 7129 04c5 00       		.uleb128 .LVU457
 7130 04c6 00       		.uleb128 .LVU459
 7131 04c7 00       		.uleb128 .LVU459
 7132 04c8 00       		.uleb128 .LVU460
 7133              	.LLST42:
 7134 04c9 2C000000 		.4byte	.LVL136
 7135 04cd 32000000 		.4byte	.LVL137
 7136 04d1 0100     		.2byte	0x1
 7137 04d3 50       		.byte	0x50
 7138 04d4 32000000 		.4byte	.LVL137
 7139 04d8 35000000 		.4byte	.LVL138-1
 7140 04dc 0100     		.2byte	0x1
 7141 04de 52       		.byte	0x52
 7142 04df 00000000 		.4byte	0
 7143 04e3 00000000 		.4byte	0
 7144              	.LVUS6:
 7145 04e7 00       		.uleb128 0
 7146 04e8 00       		.uleb128 .LVU157
 7147 04e9 00       		.uleb128 .LVU157
 7148 04ea 00       		.uleb128 .LVU191
 7149 04eb 00       		.uleb128 .LVU191
 7150 04ec 00       		.uleb128 .LVU204
 7151 04ed 00       		.uleb128 .LVU204
 7152 04ee 00       		.uleb128 .LVU205
 7153 04ef 00       		.uleb128 .LVU205
 7154 04f0 00       		.uleb128 .LVU206
 7155 04f1 00       		.uleb128 .LVU206
 7156 04f2 00       		.uleb128 0
 7157              	.LLST6:
 7158 04f3 00000000 		.4byte	.LVL40
 7159 04f7 33000000 		.4byte	.LVL42-1
 7160 04fb 0100     		.2byte	0x1
 7161 04fd 50       		.byte	0x50
 7162 04fe 33000000 		.4byte	.LVL42-1
 7163 0502 7C000000 		.4byte	.LVL55
 7164 0506 0100     		.2byte	0x1
ARM GAS  C:\Users\EDULU~1.DES\AppData\Local\Temp\ccfRue3n.s 			page 148


 7165 0508 56       		.byte	0x56
 7166 0509 7C000000 		.4byte	.LVL55
 7167 050d 96000000 		.4byte	.LVL56
 7168 0511 0100     		.2byte	0x1
 7169 0513 50       		.byte	0x50
 7170 0514 96000000 		.4byte	.LVL56
 7171 0518 9A000000 		.4byte	.LVL57
 7172 051c 0100     		.2byte	0x1
 7173 051e 56       		.byte	0x56
 7174 051f 9A000000 		.4byte	.LVL57
 7175 0523 9C000000 		.4byte	.LVL59
 7176 0527 0400     		.2byte	0x4
 7177 0529 F3       		.byte	0xf3
 7178 052a 01       		.uleb128 0x1
 7179 052b 50       		.byte	0x50
 7180 052c 9F       		.byte	0x9f
 7181 052d 9C000000 		.4byte	.LVL59
 7182 0531 C8000000 		.4byte	.LFE5
 7183 0535 0100     		.2byte	0x1
 7184 0537 56       		.byte	0x56
 7185 0538 00000000 		.4byte	0
 7186 053c 00000000 		.4byte	0
 7187              	.LVUS7:
 7188 0540 00       		.uleb128 0
 7189 0541 00       		.uleb128 .LVU157
 7190 0542 00       		.uleb128 .LVU157
 7191 0543 00       		.uleb128 .LVU191
 7192 0544 00       		.uleb128 .LVU191
 7193 0545 00       		.uleb128 .LVU204
 7194 0546 00       		.uleb128 .LVU204
 7195 0547 00       		.uleb128 0
 7196              	.LLST7:
 7197 0548 00000000 		.4byte	.LVL40
 7198 054c 33000000 		.4byte	.LVL42-1
 7199 0550 0100     		.2byte	0x1
 7200 0552 51       		.byte	0x51
 7201 0553 33000000 		.4byte	.LVL42-1
 7202 0557 7C000000 		.4byte	.LVL55
 7203 055b 0400     		.2byte	0x4
 7204 055d F3       		.byte	0xf3
 7205 055e 01       		.uleb128 0x1
 7206 055f 51       		.byte	0x51
 7207 0560 9F       		.byte	0x9f
 7208 0561 7C000000 		.4byte	.LVL55
 7209 0565 96000000 		.4byte	.LVL56
 7210 0569 0100     		.2byte	0x1
 7211 056b 51       		.byte	0x51
 7212 056c 96000000 		.4byte	.LVL56
 7213 0570 C8000000 		.4byte	.LFE5
 7214 0574 0400     		.2byte	0x4
 7215 0576 F3       		.byte	0xf3
 7216 0577 01       		.uleb128 0x1
 7217 0578 51       		.byte	0x51
 7218 0579 9F       		.byte	0x9f
 7219 057a 00000000 		.4byte	0
 7220 057e 00000000 		.4byte	0
 7221              	.LVUS8:
ARM GAS  C:\Users\EDULU~1.DES\AppData\Local\Temp\ccfRue3n.s 			page 149


 7222 0582 00       		.uleb128 0
 7223 0583 00       		.uleb128 .LVU157
 7224 0584 00       		.uleb128 .LVU157
 7225 0585 00       		.uleb128 .LVU191
 7226 0586 00       		.uleb128 .LVU191
 7227 0587 00       		.uleb128 .LVU204
 7228 0588 00       		.uleb128 .LVU204
 7229 0589 00       		.uleb128 .LVU205
 7230 058a 00       		.uleb128 .LVU205
 7231 058b 00       		.uleb128 .LVU206
 7232 058c 00       		.uleb128 .LVU206
 7233 058d 00       		.uleb128 0
 7234              	.LLST8:
 7235 058e 00000000 		.4byte	.LVL40
 7236 0592 33000000 		.4byte	.LVL42-1
 7237 0596 0100     		.2byte	0x1
 7238 0598 52       		.byte	0x52
 7239 0599 33000000 		.4byte	.LVL42-1
 7240 059d 7C000000 		.4byte	.LVL55
 7241 05a1 0100     		.2byte	0x1
 7242 05a3 57       		.byte	0x57
 7243 05a4 7C000000 		.4byte	.LVL55
 7244 05a8 96000000 		.4byte	.LVL56
 7245 05ac 0100     		.2byte	0x1
 7246 05ae 52       		.byte	0x52
 7247 05af 96000000 		.4byte	.LVL56
 7248 05b3 9A000000 		.4byte	.LVL58
 7249 05b7 0100     		.2byte	0x1
 7250 05b9 57       		.byte	0x57
 7251 05ba 9A000000 		.4byte	.LVL58
 7252 05be 9C000000 		.4byte	.LVL59
 7253 05c2 0400     		.2byte	0x4
 7254 05c4 F3       		.byte	0xf3
 7255 05c5 01       		.uleb128 0x1
 7256 05c6 52       		.byte	0x52
 7257 05c7 9F       		.byte	0x9f
 7258 05c8 9C000000 		.4byte	.LVL59
 7259 05cc C8000000 		.4byte	.LFE5
 7260 05d0 0100     		.2byte	0x1
 7261 05d2 57       		.byte	0x57
 7262 05d3 00000000 		.4byte	0
 7263 05d7 00000000 		.4byte	0
 7264              	.LVUS9:
 7265 05db 01       		.uleb128 .LVU160
 7266 05dc 00       		.uleb128 .LVU191
 7267 05dd 00       		.uleb128 .LVU206
 7268 05de 00       		.uleb128 0
 7269              	.LLST9:
 7270 05df 3A000000 		.4byte	.LVL44
 7271 05e3 7C000000 		.4byte	.LVL55
 7272 05e7 0300     		.2byte	0x3
 7273 05e9 76       		.byte	0x76
 7274 05ea 08       		.sleb128 8
 7275 05eb 9F       		.byte	0x9f
 7276 05ec 9C000000 		.4byte	.LVL59
 7277 05f0 C8000000 		.4byte	.LFE5
 7278 05f4 0300     		.2byte	0x3
ARM GAS  C:\Users\EDULU~1.DES\AppData\Local\Temp\ccfRue3n.s 			page 150


 7279 05f6 76       		.byte	0x76
 7280 05f7 08       		.sleb128 8
 7281 05f8 9F       		.byte	0x9f
 7282 05f9 00000000 		.4byte	0
 7283 05fd 00000000 		.4byte	0
 7284              	.LVUS10:
 7285 0601 00       		.uleb128 .LVU174
 7286 0602 00       		.uleb128 .LVU175
 7287              	.LLST10:
 7288 0603 52000000 		.4byte	.LVL49
 7289 0607 59000000 		.4byte	.LVL50-1
 7290 060b 0100     		.2byte	0x1
 7291 060d 51       		.byte	0x51
 7292 060e 00000000 		.4byte	0
 7293 0612 00000000 		.4byte	0
 7294              	.LVUS11:
 7295 0616 00       		.uleb128 .LVU167
 7296 0617 00       		.uleb128 .LVU169
 7297 0618 00       		.uleb128 .LVU169
 7298 0619 00       		.uleb128 .LVU191
 7299 061a 00       		.uleb128 .LVU214
 7300 061b 00       		.uleb128 0
 7301              	.LLST11:
 7302 061c 46000000 		.4byte	.LVL47
 7303 0620 48000000 		.4byte	.LVL48
 7304 0624 0100     		.2byte	0x1
 7305 0626 50       		.byte	0x50
 7306 0627 48000000 		.4byte	.LVL48
 7307 062b 7C000000 		.4byte	.LVL55
 7308 062f 0200     		.2byte	0x2
 7309 0631 7D       		.byte	0x7d
 7310 0632 00       		.sleb128 0
 7311 0633 AC000000 		.4byte	.LVL62
 7312 0637 C8000000 		.4byte	.LFE5
 7313 063b 0200     		.2byte	0x2
 7314 063d 7D       		.byte	0x7d
 7315 063e 00       		.sleb128 0
 7316 063f 00000000 		.4byte	0
 7317 0643 00000000 		.4byte	0
 7318              	.LVUS12:
 7319 0647 02       		.uleb128 .LVU165
 7320 0648 00       		.uleb128 .LVU169
 7321 0649 00       		.uleb128 .LVU169
 7322 064a 00       		.uleb128 .LVU177
 7323 064b 00       		.uleb128 .LVU178
 7324 064c 00       		.uleb128 .LVU191
 7325 064d 00       		.uleb128 .LVU214
 7326 064e 00       		.uleb128 0
 7327              	.LLST12:
 7328 064f 40000000 		.4byte	.LVL45
 7329 0653 48000000 		.4byte	.LVL48
 7330 0657 0200     		.2byte	0x2
 7331 0659 30       		.byte	0x30
 7332 065a 9F       		.byte	0x9f
 7333 065b 48000000 		.4byte	.LVL48
 7334 065f 5C000000 		.4byte	.LVL51
 7335 0663 0100     		.2byte	0x1
ARM GAS  C:\Users\EDULU~1.DES\AppData\Local\Temp\ccfRue3n.s 			page 151


 7336 0665 54       		.byte	0x54
 7337 0666 5E000000 		.4byte	.LVL52
 7338 066a 7C000000 		.4byte	.LVL55
 7339 066e 0100     		.2byte	0x1
 7340 0670 54       		.byte	0x54
 7341 0671 AC000000 		.4byte	.LVL62
 7342 0675 C8000000 		.4byte	.LFE5
 7343 0679 0100     		.2byte	0x1
 7344 067b 54       		.byte	0x54
 7345 067c 00000000 		.4byte	0
 7346 0680 00000000 		.4byte	0
 7347              	.LVUS13:
 7348 0684 05       		.uleb128 .LVU147
 7349 0685 00       		.uleb128 .LVU158
 7350 0686 00       		.uleb128 .LVU158
 7351 0687 00       		.uleb128 .LVU159
 7352 0688 00       		.uleb128 .LVU159
 7353 0689 00       		.uleb128 .LVU191
 7354 068a 00       		.uleb128 .LVU191
 7355 068b 00       		.uleb128 .LVU204
 7356 068c 00       		.uleb128 .LVU206
 7357 068d 00       		.uleb128 0
 7358              	.LLST13:
 7359 068e 0A000000 		.4byte	.LVL41
 7360 0692 36000000 		.4byte	.LVL43
 7361 0696 0200     		.2byte	0x2
 7362 0698 30       		.byte	0x30
 7363 0699 9F       		.byte	0x9f
 7364 069a 36000000 		.4byte	.LVL43
 7365 069e 39000000 		.4byte	.LVL44-1
 7366 06a2 0100     		.2byte	0x1
 7367 06a4 50       		.byte	0x50
 7368 06a5 39000000 		.4byte	.LVL44-1
 7369 06a9 7C000000 		.4byte	.LVL55
 7370 06ad 0200     		.2byte	0x2
 7371 06af 91       		.byte	0x91
 7372 06b0 64       		.sleb128 -28
 7373 06b1 7C000000 		.4byte	.LVL55
 7374 06b5 96000000 		.4byte	.LVL56
 7375 06b9 0200     		.2byte	0x2
 7376 06bb 30       		.byte	0x30
 7377 06bc 9F       		.byte	0x9f
 7378 06bd 9C000000 		.4byte	.LVL59
 7379 06c1 C8000000 		.4byte	.LFE5
 7380 06c5 0200     		.2byte	0x2
 7381 06c7 91       		.byte	0x91
 7382 06c8 64       		.sleb128 -28
 7383 06c9 00000000 		.4byte	0
 7384 06cd 00000000 		.4byte	0
 7385              	.LVUS0:
 7386 06d1 00       		.uleb128 0
 7387 06d2 00       		.uleb128 .LVU22
 7388 06d3 00       		.uleb128 .LVU22
 7389 06d4 01       		.uleb128 .LVU24
 7390 06d5 01       		.uleb128 .LVU24
 7391 06d6 00       		.uleb128 .LVU25
 7392 06d7 00       		.uleb128 .LVU25
ARM GAS  C:\Users\EDULU~1.DES\AppData\Local\Temp\ccfRue3n.s 			page 152


 7393 06d8 00       		.uleb128 .LVU38
 7394 06d9 00       		.uleb128 .LVU38
 7395 06da 00       		.uleb128 0
 7396              	.LLST0:
 7397 06db 00000000 		.4byte	.LVL0
 7398 06df 36000000 		.4byte	.LVL6
 7399 06e3 0100     		.2byte	0x1
 7400 06e5 50       		.byte	0x50
 7401 06e6 36000000 		.4byte	.LVL6
 7402 06ea 3A000000 		.4byte	.LVL9
 7403 06ee 0100     		.2byte	0x1
 7404 06f0 57       		.byte	0x57
 7405 06f1 3A000000 		.4byte	.LVL9
 7406 06f5 3C000000 		.4byte	.LVL10
 7407 06f9 0400     		.2byte	0x4
 7408 06fb F3       		.byte	0xf3
 7409 06fc 01       		.uleb128 0x1
 7410 06fd 50       		.byte	0x50
 7411 06fe 9F       		.byte	0x9f
 7412 06ff 3C000000 		.4byte	.LVL10
 7413 0703 51000000 		.4byte	.LVL13-1
 7414 0707 0100     		.2byte	0x1
 7415 0709 50       		.byte	0x50
 7416 070a 51000000 		.4byte	.LVL13-1
 7417 070e 7C010000 		.4byte	.LFE4
 7418 0712 0100     		.2byte	0x1
 7419 0714 57       		.byte	0x57
 7420 0715 00000000 		.4byte	0
 7421 0719 00000000 		.4byte	0
 7422              	.LVUS1:
 7423 071d 00       		.uleb128 0
 7424 071e 00       		.uleb128 .LVU22
 7425 071f 00       		.uleb128 .LVU22
 7426 0720 00       		.uleb128 .LVU23
 7427 0721 00       		.uleb128 .LVU23
 7428 0722 00       		.uleb128 .LVU25
 7429 0723 00       		.uleb128 .LVU25
 7430 0724 00       		.uleb128 .LVU38
 7431 0725 00       		.uleb128 .LVU38
 7432 0726 00       		.uleb128 0
 7433              	.LLST1:
 7434 0727 00000000 		.4byte	.LVL0
 7435 072b 36000000 		.4byte	.LVL6
 7436 072f 0100     		.2byte	0x1
 7437 0731 51       		.byte	0x51
 7438 0732 36000000 		.4byte	.LVL6
 7439 0736 3A000000 		.4byte	.LVL7
 7440 073a 0200     		.2byte	0x2
 7441 073c 7D       		.byte	0x7d
 7442 073d 00       		.sleb128 0
 7443 073e 3A000000 		.4byte	.LVL7
 7444 0742 3C000000 		.4byte	.LVL10
 7445 0746 0200     		.2byte	0x2
 7446 0748 91       		.byte	0x91
 7447 0749 40       		.sleb128 -64
 7448 074a 3C000000 		.4byte	.LVL10
 7449 074e 51000000 		.4byte	.LVL13-1
ARM GAS  C:\Users\EDULU~1.DES\AppData\Local\Temp\ccfRue3n.s 			page 153


 7450 0752 0100     		.2byte	0x1
 7451 0754 51       		.byte	0x51
 7452 0755 51000000 		.4byte	.LVL13-1
 7453 0759 7C010000 		.4byte	.LFE4
 7454 075d 0200     		.2byte	0x2
 7455 075f 7D       		.byte	0x7d
 7456 0760 00       		.sleb128 0
 7457 0761 00000000 		.4byte	0
 7458 0765 00000000 		.4byte	0
 7459              	.LVUS2:
 7460 0769 00       		.uleb128 0
 7461 076a 00       		.uleb128 .LVU14
 7462 076b 00       		.uleb128 .LVU14
 7463 076c 00       		.uleb128 .LVU17
 7464 076d 00       		.uleb128 .LVU17
 7465 076e 00       		.uleb128 .LVU19
 7466 076f 00       		.uleb128 .LVU19
 7467 0770 00       		.uleb128 .LVU25
 7468 0771 00       		.uleb128 .LVU25
 7469 0772 00       		.uleb128 .LVU27
 7470 0773 00       		.uleb128 .LVU27
 7471 0774 00       		.uleb128 .LVU30
 7472 0775 00       		.uleb128 .LVU30
 7473 0776 00       		.uleb128 .LVU38
 7474 0777 00       		.uleb128 .LVU38
 7475 0778 00       		.uleb128 0
 7476              	.LLST2:
 7477 0779 00000000 		.4byte	.LVL0
 7478 077d 28000000 		.4byte	.LVL3
 7479 0781 0100     		.2byte	0x1
 7480 0783 52       		.byte	0x52
 7481 0784 28000000 		.4byte	.LVL3
 7482 0788 2E000000 		.4byte	.LVL4
 7483 078c 0400     		.2byte	0x4
 7484 078e F3       		.byte	0xf3
 7485 078f 01       		.uleb128 0x1
 7486 0790 52       		.byte	0x52
 7487 0791 9F       		.byte	0x9f
 7488 0792 2E000000 		.4byte	.LVL4
 7489 0796 32000000 		.4byte	.LVL5
 7490 079a 0100     		.2byte	0x1
 7491 079c 52       		.byte	0x52
 7492 079d 32000000 		.4byte	.LVL5
 7493 07a1 3C000000 		.4byte	.LVL10
 7494 07a5 0400     		.2byte	0x4
 7495 07a7 F3       		.byte	0xf3
 7496 07a8 01       		.uleb128 0x1
 7497 07a9 52       		.byte	0x52
 7498 07aa 9F       		.byte	0x9f
 7499 07ab 3C000000 		.4byte	.LVL10
 7500 07af 40000000 		.4byte	.LVL11
 7501 07b3 0100     		.2byte	0x1
 7502 07b5 52       		.byte	0x52
 7503 07b6 40000000 		.4byte	.LVL11
 7504 07ba 46000000 		.4byte	.LVL12
 7505 07be 0400     		.2byte	0x4
 7506 07c0 F3       		.byte	0xf3
ARM GAS  C:\Users\EDULU~1.DES\AppData\Local\Temp\ccfRue3n.s 			page 154


 7507 07c1 01       		.uleb128 0x1
 7508 07c2 52       		.byte	0x52
 7509 07c3 9F       		.byte	0x9f
 7510 07c4 46000000 		.4byte	.LVL12
 7511 07c8 51000000 		.4byte	.LVL13-1
 7512 07cc 0100     		.2byte	0x1
 7513 07ce 52       		.byte	0x52
 7514 07cf 51000000 		.4byte	.LVL13-1
 7515 07d3 7C010000 		.4byte	.LFE4
 7516 07d7 0400     		.2byte	0x4
 7517 07d9 F3       		.byte	0xf3
 7518 07da 01       		.uleb128 0x1
 7519 07db 52       		.byte	0x52
 7520 07dc 9F       		.byte	0x9f
 7521 07dd 00000000 		.4byte	0
 7522 07e1 00000000 		.4byte	0
 7523              	.LVUS3:
 7524 07e5 00       		.uleb128 0
 7525 07e6 00       		.uleb128 .LVU7
 7526 07e7 00       		.uleb128 .LVU7
 7527 07e8 01       		.uleb128 .LVU24
 7528 07e9 01       		.uleb128 .LVU24
 7529 07ea 00       		.uleb128 .LVU25
 7530 07eb 00       		.uleb128 .LVU25
 7531 07ec 00       		.uleb128 0
 7532              	.LLST3:
 7533 07ed 00000000 		.4byte	.LVL0
 7534 07f1 0E000000 		.4byte	.LVL2
 7535 07f5 0100     		.2byte	0x1
 7536 07f7 53       		.byte	0x53
 7537 07f8 0E000000 		.4byte	.LVL2
 7538 07fc 3A000000 		.4byte	.LVL8
 7539 0800 0100     		.2byte	0x1
 7540 0802 56       		.byte	0x56
 7541 0803 3A000000 		.4byte	.LVL8
 7542 0807 3C000000 		.4byte	.LVL10
 7543 080b 0400     		.2byte	0x4
 7544 080d F3       		.byte	0xf3
 7545 080e 01       		.uleb128 0x1
 7546 080f 53       		.byte	0x53
 7547 0810 9F       		.byte	0x9f
 7548 0811 3C000000 		.4byte	.LVL10
 7549 0815 7C010000 		.4byte	.LFE4
 7550 0819 0100     		.2byte	0x1
 7551 081b 56       		.byte	0x56
 7552 081c 00000000 		.4byte	0
 7553 0820 00000000 		.4byte	0
 7554              	.LVUS4:
 7555 0824 00       		.uleb128 .LVU79
 7556 0825 00       		.uleb128 .LVU87
 7557 0826 01       		.uleb128 .LVU88
 7558 0827 00       		.uleb128 .LVU96
 7559 0828 00       		.uleb128 .LVU113
 7560 0829 00       		.uleb128 .LVU119
 7561              	.LLST4:
 7562 082a C8000000 		.4byte	.LVL26
 7563 082e DA000000 		.4byte	.LVL29
ARM GAS  C:\Users\EDULU~1.DES\AppData\Local\Temp\ccfRue3n.s 			page 155


 7564 0832 0100     		.2byte	0x1
 7565 0834 54       		.byte	0x54
 7566 0835 DA000000 		.4byte	.LVL29
 7567 0839 EC000000 		.4byte	.LVL32
 7568 083d 0100     		.2byte	0x1
 7569 083f 54       		.byte	0x54
 7570 0840 0E010000 		.4byte	.LVL36
 7571 0844 1A010000 		.4byte	.LVL39
 7572 0848 0100     		.2byte	0x1
 7573 084a 54       		.byte	0x54
 7574 084b 00000000 		.4byte	0
 7575 084f 00000000 		.4byte	0
 7576              	.LVUS5:
 7577 0853 03       		.uleb128 .LVU5
 7578 0854 00       		.uleb128 .LVU22
 7579 0855 00       		.uleb128 .LVU25
 7580 0856 00       		.uleb128 .LVU39
 7581 0857 00       		.uleb128 .LVU39
 7582 0858 00       		.uleb128 .LVU40
 7583 0859 00       		.uleb128 .LVU40
 7584 085a 00       		.uleb128 .LVU59
 7585 085b 00       		.uleb128 .LVU59
 7586 085c 00       		.uleb128 .LVU60
 7587 085d 00       		.uleb128 .LVU60
 7588 085e 00       		.uleb128 .LVU71
 7589 085f 00       		.uleb128 .LVU71
 7590 0860 00       		.uleb128 .LVU104
 7591 0861 00       		.uleb128 .LVU104
 7592 0862 00       		.uleb128 0
 7593              	.LLST5:
 7594 0863 0C000000 		.4byte	.LVL1
 7595 0867 36000000 		.4byte	.LVL6
 7596 086b 0200     		.2byte	0x2
 7597 086d 30       		.byte	0x30
 7598 086e 9F       		.byte	0x9f
 7599 086f 3C000000 		.4byte	.LVL10
 7600 0873 54000000 		.4byte	.LVL14
 7601 0877 0200     		.2byte	0x2
 7602 0879 30       		.byte	0x30
 7603 087a 9F       		.byte	0x9f
 7604 087b 54000000 		.4byte	.LVL14
 7605 087f 57000000 		.4byte	.LVL15-1
 7606 0883 0100     		.2byte	0x1
 7607 0885 50       		.byte	0x50
 7608 0886 57000000 		.4byte	.LVL15-1
 7609 088a 8C000000 		.4byte	.LVL21
 7610 088e 0200     		.2byte	0x2
 7611 0890 91       		.byte	0x91
 7612 0891 44       		.sleb128 -60
 7613 0892 8C000000 		.4byte	.LVL21
 7614 0896 8F000000 		.4byte	.LVL22-1
 7615 089a 0100     		.2byte	0x1
 7616 089c 50       		.byte	0x50
 7617 089d 8F000000 		.4byte	.LVL22-1
 7618 08a1 BA000000 		.4byte	.LVL25
 7619 08a5 0100     		.2byte	0x1
 7620 08a7 55       		.byte	0x55
ARM GAS  C:\Users\EDULU~1.DES\AppData\Local\Temp\ccfRue3n.s 			page 156


 7621 08a8 BA000000 		.4byte	.LVL25
 7622 08ac FE000000 		.4byte	.LVL35
 7623 08b0 0200     		.2byte	0x2
 7624 08b2 91       		.byte	0x91
 7625 08b3 44       		.sleb128 -60
 7626 08b4 FE000000 		.4byte	.LVL35
 7627 08b8 7C010000 		.4byte	.LFE4
 7628 08bc 0100     		.2byte	0x1
 7629 08be 55       		.byte	0x55
 7630 08bf 00000000 		.4byte	0
 7631 08c3 00000000 		.4byte	0
 7632              	.LVUS20:
 7633 08c7 00       		.uleb128 0
 7634 08c8 00       		.uleb128 .LVU297
 7635 08c9 00       		.uleb128 .LVU297
 7636 08ca 00       		.uleb128 .LVU319
 7637 08cb 00       		.uleb128 .LVU319
 7638 08cc 00       		.uleb128 .LVU320
 7639 08cd 00       		.uleb128 .LVU320
 7640 08ce 00       		.uleb128 0
 7641              	.LLST20:
 7642 08cf 00000000 		.4byte	.LVL80
 7643 08d3 1B000000 		.4byte	.LVL83-1
 7644 08d7 0100     		.2byte	0x1
 7645 08d9 50       		.byte	0x50
 7646 08da 1B000000 		.4byte	.LVL83-1
 7647 08de 54000000 		.4byte	.LVL92
 7648 08e2 0100     		.2byte	0x1
 7649 08e4 54       		.byte	0x54
 7650 08e5 54000000 		.4byte	.LVL92
 7651 08e9 56000000 		.4byte	.LVL95
 7652 08ed 0400     		.2byte	0x4
 7653 08ef F3       		.byte	0xf3
 7654 08f0 01       		.uleb128 0x1
 7655 08f1 50       		.byte	0x50
 7656 08f2 9F       		.byte	0x9f
 7657 08f3 56000000 		.4byte	.LVL95
 7658 08f7 78000000 		.4byte	.LFE3
 7659 08fb 0100     		.2byte	0x1
 7660 08fd 50       		.byte	0x50
 7661 08fe 00000000 		.4byte	0
 7662 0902 00000000 		.4byte	0
 7663              	.LVUS21:
 7664 0906 00       		.uleb128 0
 7665 0907 00       		.uleb128 .LVU297
 7666 0908 00       		.uleb128 .LVU297
 7667 0909 00       		.uleb128 .LVU319
 7668 090a 00       		.uleb128 .LVU319
 7669 090b 00       		.uleb128 .LVU320
 7670 090c 00       		.uleb128 .LVU320
 7671 090d 00       		.uleb128 0
 7672              	.LLST21:
 7673 090e 00000000 		.4byte	.LVL80
 7674 0912 1B000000 		.4byte	.LVL83-1
 7675 0916 0100     		.2byte	0x1
 7676 0918 51       		.byte	0x51
 7677 0919 1B000000 		.4byte	.LVL83-1
ARM GAS  C:\Users\EDULU~1.DES\AppData\Local\Temp\ccfRue3n.s 			page 157


 7678 091d 54000000 		.4byte	.LVL93
 7679 0921 0100     		.2byte	0x1
 7680 0923 55       		.byte	0x55
 7681 0924 54000000 		.4byte	.LVL93
 7682 0928 56000000 		.4byte	.LVL95
 7683 092c 0400     		.2byte	0x4
 7684 092e F3       		.byte	0xf3
 7685 092f 01       		.uleb128 0x1
 7686 0930 51       		.byte	0x51
 7687 0931 9F       		.byte	0x9f
 7688 0932 56000000 		.4byte	.LVL95
 7689 0936 78000000 		.4byte	.LFE3
 7690 093a 0100     		.2byte	0x1
 7691 093c 51       		.byte	0x51
 7692 093d 00000000 		.4byte	0
 7693 0941 00000000 		.4byte	0
 7694              	.LVUS22:
 7695 0945 00       		.uleb128 0
 7696 0946 00       		.uleb128 .LVU297
 7697 0947 00       		.uleb128 .LVU297
 7698 0948 00       		.uleb128 .LVU305
 7699 0949 00       		.uleb128 .LVU305
 7700 094a 00       		.uleb128 .LVU309
 7701 094b 00       		.uleb128 .LVU309
 7702 094c 00       		.uleb128 .LVU320
 7703 094d 00       		.uleb128 .LVU320
 7704 094e 00       		.uleb128 0
 7705              	.LLST22:
 7706 094f 00000000 		.4byte	.LVL80
 7707 0953 1B000000 		.4byte	.LVL83-1
 7708 0957 0100     		.2byte	0x1
 7709 0959 52       		.byte	0x52
 7710 095a 1B000000 		.4byte	.LVL83-1
 7711 095e 2A000000 		.4byte	.LVL86
 7712 0962 0100     		.2byte	0x1
 7713 0964 56       		.byte	0x56
 7714 0965 2A000000 		.4byte	.LVL86
 7715 0969 37000000 		.4byte	.LVL87-1
 7716 096d 0200     		.2byte	0x2
 7717 096f 74       		.byte	0x74
 7718 0970 20       		.sleb128 32
 7719 0971 37000000 		.4byte	.LVL87-1
 7720 0975 56000000 		.4byte	.LVL95
 7721 0979 0400     		.2byte	0x4
 7722 097b F3       		.byte	0xf3
 7723 097c 01       		.uleb128 0x1
 7724 097d 52       		.byte	0x52
 7725 097e 9F       		.byte	0x9f
 7726 097f 56000000 		.4byte	.LVL95
 7727 0983 78000000 		.4byte	.LFE3
 7728 0987 0100     		.2byte	0x1
 7729 0989 52       		.byte	0x52
 7730 098a 00000000 		.4byte	0
 7731 098e 00000000 		.4byte	0
 7732              	.LVUS23:
 7733 0992 00       		.uleb128 0
 7734 0993 00       		.uleb128 .LVU290
ARM GAS  C:\Users\EDULU~1.DES\AppData\Local\Temp\ccfRue3n.s 			page 158


 7735 0994 00       		.uleb128 .LVU290
 7736 0995 00       		.uleb128 .LVU319
 7737 0996 00       		.uleb128 .LVU319
 7738 0997 00       		.uleb128 .LVU320
 7739 0998 00       		.uleb128 .LVU320
 7740 0999 00       		.uleb128 0
 7741              	.LLST23:
 7742 099a 00000000 		.4byte	.LVL80
 7743 099e 0E000000 		.4byte	.LVL82
 7744 09a2 0100     		.2byte	0x1
 7745 09a4 53       		.byte	0x53
 7746 09a5 0E000000 		.4byte	.LVL82
 7747 09a9 54000000 		.4byte	.LVL94
 7748 09ad 0100     		.2byte	0x1
 7749 09af 57       		.byte	0x57
 7750 09b0 54000000 		.4byte	.LVL94
 7751 09b4 56000000 		.4byte	.LVL95
 7752 09b8 0400     		.2byte	0x4
 7753 09ba F3       		.byte	0xf3
 7754 09bb 01       		.uleb128 0x1
 7755 09bc 53       		.byte	0x53
 7756 09bd 9F       		.byte	0x9f
 7757 09be 56000000 		.4byte	.LVL95
 7758 09c2 78000000 		.4byte	.LFE3
 7759 09c6 0100     		.2byte	0x1
 7760 09c8 57       		.byte	0x57
 7761 09c9 00000000 		.4byte	0
 7762 09cd 00000000 		.4byte	0
 7763              	.LVUS24:
 7764 09d1 01       		.uleb128 .LVU288
 7765 09d2 00       		.uleb128 .LVU298
 7766 09d3 00       		.uleb128 .LVU298
 7767 09d4 00       		.uleb128 .LVU299
 7768 09d5 00       		.uleb128 .LVU299
 7769 09d6 00       		.uleb128 .LVU318
 7770 09d7 00       		.uleb128 .LVU320
 7771 09d8 00       		.uleb128 0
 7772              	.LLST24:
 7773 09d9 0C000000 		.4byte	.LVL81
 7774 09dd 1E000000 		.4byte	.LVL84
 7775 09e1 0200     		.2byte	0x2
 7776 09e3 30       		.byte	0x30
 7777 09e4 9F       		.byte	0x9f
 7778 09e5 1E000000 		.4byte	.LVL84
 7779 09e9 21000000 		.4byte	.LVL85-1
 7780 09ed 0100     		.2byte	0x1
 7781 09ef 50       		.byte	0x50
 7782 09f0 21000000 		.4byte	.LVL85-1
 7783 09f4 52000000 		.4byte	.LVL91
 7784 09f8 0200     		.2byte	0x2
 7785 09fa 91       		.byte	0x91
 7786 09fb 64       		.sleb128 -28
 7787 09fc 56000000 		.4byte	.LVL95
 7788 0a00 78000000 		.4byte	.LFE3
 7789 0a04 0200     		.2byte	0x2
 7790 0a06 30       		.byte	0x30
 7791 0a07 9F       		.byte	0x9f
ARM GAS  C:\Users\EDULU~1.DES\AppData\Local\Temp\ccfRue3n.s 			page 159


 7792 0a08 00000000 		.4byte	0
 7793 0a0c 00000000 		.4byte	0
 7794              		.section	.debug_aranges,"",%progbits
 7795 0000 64000000 		.4byte	0x64
 7796 0004 0200     		.2byte	0x2
 7797 0006 00000000 		.4byte	.Ldebug_info0
 7798 000a 04       		.byte	0x4
 7799 000b 00       		.byte	0
 7800 000c 0000     		.2byte	0
 7801 000e 0000     		.2byte	0
 7802 0010 00000000 		.4byte	.LFB4
 7803 0014 7C010000 		.4byte	.LFE4-.LFB4
 7804 0018 00000000 		.4byte	.LFB5
 7805 001c C8000000 		.4byte	.LFE5-.LFB5
 7806 0020 00000000 		.4byte	.LFB7
 7807 0024 64000000 		.4byte	.LFE7-.LFB7
 7808 0028 00000000 		.4byte	.LFB8
 7809 002c 20000000 		.4byte	.LFE8-.LFB8
 7810 0030 00000000 		.4byte	.LFB9
 7811 0034 28000000 		.4byte	.LFE9-.LFB9
 7812 0038 00000000 		.4byte	.LFB3
 7813 003c 78000000 		.4byte	.LFE3-.LFB3
 7814 0040 00000000 		.4byte	.LFB10
 7815 0044 34000000 		.4byte	.LFE10-.LFB10
 7816 0048 00000000 		.4byte	.LFB11
 7817 004c 18000000 		.4byte	.LFE11-.LFB11
 7818 0050 00000000 		.4byte	.LFB12
 7819 0054 A8000000 		.4byte	.LFE12-.LFB12
 7820 0058 00000000 		.4byte	.LFB6
 7821 005c 54000000 		.4byte	.LFE6-.LFB6
 7822 0060 00000000 		.4byte	0
 7823 0064 00000000 		.4byte	0
 7824              		.section	.debug_ranges,"",%progbits
 7825              	.Ldebug_ranges0:
 7826 0000 00000000 		.4byte	.LFB4
 7827 0004 7C010000 		.4byte	.LFE4
 7828 0008 00000000 		.4byte	.LFB5
 7829 000c C8000000 		.4byte	.LFE5
 7830 0010 00000000 		.4byte	.LFB7
 7831 0014 64000000 		.4byte	.LFE7
 7832 0018 00000000 		.4byte	.LFB8
 7833 001c 20000000 		.4byte	.LFE8
 7834 0020 00000000 		.4byte	.LFB9
 7835 0024 28000000 		.4byte	.LFE9
 7836 0028 00000000 		.4byte	.LFB3
 7837 002c 78000000 		.4byte	.LFE3
 7838 0030 00000000 		.4byte	.LFB10
 7839 0034 34000000 		.4byte	.LFE10
 7840 0038 00000000 		.4byte	.LFB11
 7841 003c 18000000 		.4byte	.LFE11
 7842 0040 00000000 		.4byte	.LFB12
 7843 0044 A8000000 		.4byte	.LFE12
 7844 0048 00000000 		.4byte	.LFB6
 7845 004c 54000000 		.4byte	.LFE6
 7846 0050 00000000 		.4byte	0
 7847 0054 00000000 		.4byte	0
 7848              		.section	.debug_line,"",%progbits
ARM GAS  C:\Users\EDULU~1.DES\AppData\Local\Temp\ccfRue3n.s 			page 160


 7849              	.Ldebug_line0:
 7850 0000 70080000 		.section	.debug_str,"MS",%progbits,1
 7850      03000302 
 7850      00000201 
 7850      FB0E0D00 
 7850      01010101 
 7851              	.LASF194:
 7852 0000 4F535F45 		.ascii	"OS_ERR_MEM_FULL\000"
 7852      52525F4D 
 7852      454D5F46 
 7852      554C4C00 
 7853              	.LASF349:
 7854 0010 5469636B 		.ascii	"TickNextPtr\000"
 7854      4E657874 
 7854      50747200 
 7855              	.LASF361:
 7856 001c 50656E64 		.ascii	"PendDataTblEntries\000"
 7856      44617461 
 7856      54626C45 
 7856      6E747269 
 7856      657300
 7857              	.LASF401:
 7858 002f 4F535F50 		.ascii	"OS_PEND_LIST\000"
 7858      454E445F 
 7858      4C495354 
 7858      00
 7859              	.LASF315:
 7860 003c 4F535F45 		.ascii	"OS_ERR_TMR_STK_INVALID\000"
 7860      52525F54 
 7860      4D525F53 
 7860      544B5F49 
 7860      4E56414C 
 7861              	.LASF451:
 7862 0053 4F534366 		.ascii	"OSCfg_IntQTaskStkLimit\000"
 7862      675F496E 
 7862      74515461 
 7862      736B5374 
 7862      6B4C696D 
 7863              	.LASF130:
 7864 006a 5F5F6C6F 		.ascii	"__locale_t\000"
 7864      63616C65 
 7864      5F7400
 7865              	.LASF30:
 7866 0075 5F5F7661 		.ascii	"__value\000"
 7866      6C756500 
 7867              	.LASF1:
 7868 007d 4350555F 		.ascii	"CPU_BOOLEAN\000"
 7868      424F4F4C 
 7868      45414E00 
 7869              	.LASF405:
 7870 0089 4F534964 		.ascii	"OSIdleTaskCtr\000"
 7870      6C655461 
 7870      736B4374 
 7870      7200
 7871              	.LASF98:
 7872 0097 5F5F7366 		.ascii	"__sf\000"
 7872      00
ARM GAS  C:\Users\EDULU~1.DES\AppData\Local\Temp\ccfRue3n.s 			page 161


 7873              	.LASF383:
 7874 009c 4F535F54 		.ascii	"OS_TMR\000"
 7874      4D5200
 7875              	.LASF65:
 7876 00a3 5F726561 		.ascii	"_read\000"
 7876      6400
 7877              	.LASF179:
 7878 00a9 4F535F45 		.ascii	"OS_ERR_G\000"
 7878      52525F47 
 7878      00
 7879              	.LASF420:
 7880 00b2 4F535374 		.ascii	"OSStatTaskCPUUsageMax\000"
 7880      61745461 
 7880      736B4350 
 7880      55557361 
 7880      67654D61 
 7881              	.LASF188:
 7882 00c8 4F535F45 		.ascii	"OS_ERR_J\000"
 7882      52525F4A 
 7882      00
 7883              	.LASF317:
 7884 00d1 4F535F45 		.ascii	"OS_ERR_TMR_STOPPED\000"
 7884      52525F54 
 7884      4D525F53 
 7884      544F5050 
 7884      454400
 7885              	.LASF343:
 7886 00e4 4F535F54 		.ascii	"OS_TCB\000"
 7886      434200
 7887              	.LASF390:
 7888 00eb 53746174 		.ascii	"State\000"
 7888      6500
 7889              	.LASF66:
 7890 00f1 5F777269 		.ascii	"_write\000"
 7890      746500
 7891              	.LASF314:
 7892 00f8 4F535F45 		.ascii	"OS_ERR_TMR_PRIO_INVALID\000"
 7892      52525F54 
 7892      4D525F50 
 7892      52494F5F 
 7892      494E5641 
 7893              	.LASF433:
 7894 0110 4F535469 		.ascii	"OSTickTaskTimeMax\000"
 7894      636B5461 
 7894      736B5469 
 7894      6D654D61 
 7894      7800
 7895              	.LASF109:
 7896 0122 5F617363 		.ascii	"_asctime_buf\000"
 7896      74696D65 
 7896      5F627566 
 7896      00
 7897              	.LASF329:
 7898 012f 4D736750 		.ascii	"MsgPtr\000"
 7898      747200
 7899              	.LASF92:
 7900 0136 5F637674 		.ascii	"_cvtlen\000"
ARM GAS  C:\Users\EDULU~1.DES\AppData\Local\Temp\ccfRue3n.s 			page 162


 7900      6C656E00 
 7901              	.LASF0:
 7902 013e 4350555F 		.ascii	"CPU_CHAR\000"
 7902      43484152 
 7902      00
 7903              	.LASF241:
 7904 0147 4F535F45 		.ascii	"OS_ERR_ROUND_ROBIN_1\000"
 7904      52525F52 
 7904      4F554E44 
 7904      5F524F42 
 7904      494E5F31 
 7905              	.LASF249:
 7906 015c 4F535F45 		.ascii	"OS_ERR_SEM_OVF\000"
 7906      52525F53 
 7906      454D5F4F 
 7906      564600
 7907              	.LASF246:
 7908 016b 4F535F45 		.ascii	"OS_ERR_SCHED_LOCKED\000"
 7908      52525F53 
 7908      43484544 
 7908      5F4C4F43 
 7908      4B454400 
 7909              	.LASF6:
 7910 017f 4350555F 		.ascii	"CPU_INT16U\000"
 7910      494E5431 
 7910      365500
 7911              	.LASF385:
 7912 018a 43616C6C 		.ascii	"CallbackPtr\000"
 7912      6261636B 
 7912      50747200 
 7913              	.LASF441:
 7914 0196 4F535443 		.ascii	"OSTCBCurPtr\000"
 7914      42437572 
 7914      50747200 
 7915              	.LASF335:
 7916 01a2 6F735F73 		.ascii	"os_sem\000"
 7916      656D00
 7917              	.LASF419:
 7918 01a9 4F535374 		.ascii	"OSStatTaskCPUUsage\000"
 7918      61745461 
 7918      736B4350 
 7918      55557361 
 7918      676500
 7919              	.LASF481:
 7920 01bc 4F534366 		.ascii	"OSCfg_TmrWheelSize\000"
 7920      675F546D 
 7920      72576865 
 7920      656C5369 
 7920      7A6500
 7921              	.LASF128:
 7922 01cf 5F756E75 		.ascii	"_unused\000"
 7922      73656400 
 7923              	.LASF39:
 7924 01d7 5F5F746D 		.ascii	"__tm\000"
 7924      00
 7925              	.LASF124:
 7926 01dc 5F776373 		.ascii	"_wcsrtombs_state\000"
ARM GAS  C:\Users\EDULU~1.DES\AppData\Local\Temp\ccfRue3n.s 			page 163


 7926      72746F6D 
 7926      62735F73 
 7926      74617465 
 7926      00
 7927              	.LASF70:
 7928 01ed 5F6E6275 		.ascii	"_nbuf\000"
 7928      6600
 7929              	.LASF40:
 7930 01f3 5F5F746D 		.ascii	"__tm_sec\000"
 7930      5F736563 
 7930      00
 7931              	.LASF117:
 7932 01fc 5F6C3634 		.ascii	"_l64a_buf\000"
 7932      615F6275 
 7932      6600
 7933              	.LASF253:
 7934 0206 4F535F45 		.ascii	"OS_ERR_STAT_STK_INVALID\000"
 7934      52525F53 
 7934      5441545F 
 7934      53544B5F 
 7934      494E5641 
 7935              	.LASF285:
 7936 021e 4F535F45 		.ascii	"OS_ERR_TLS_ID_INVALID\000"
 7936      52525F54 
 7936      4C535F49 
 7936      445F494E 
 7936      56414C49 
 7937              	.LASF149:
 7938 0234 4F535F49 		.ascii	"OS_IDLE_CTR\000"
 7938      444C455F 
 7938      43545200 
 7939              	.LASF344:
 7940 0240 6F735F74 		.ascii	"os_tcb\000"
 7940      636200
 7941              	.LASF222:
 7942 0247 4F535F45 		.ascii	"OS_ERR_PEND_ABORT_NONE\000"
 7942      52525F50 
 7942      454E445F 
 7942      41424F52 
 7942      545F4E4F 
 7943              	.LASF74:
 7944 025e 5F6C6F63 		.ascii	"_lock\000"
 7944      6B00
 7945              	.LASF442:
 7946 0264 4F535443 		.ascii	"OSTCBHighRdyPtr\000"
 7946      42486967 
 7946      68526479 
 7946      50747200 
 7947              	.LASF497:
 7948 0274 4F535F53 		.ascii	"OS_SemInit\000"
 7948      656D496E 
 7948      697400
 7949              	.LASF17:
 7950 027f 4350555F 		.ascii	"CPU_STK\000"
 7950      53544B00 
 7951              	.LASF369:
 7952 0287 53757370 		.ascii	"SuspendCtr\000"
ARM GAS  C:\Users\EDULU~1.DES\AppData\Local\Temp\ccfRue3n.s 			page 164


 7952      656E6443 
 7952      747200
 7953              	.LASF462:
 7954 0292 4F534366 		.ascii	"OSCfg_StatTaskStkBasePtr\000"
 7954      675F5374 
 7954      61745461 
 7954      736B5374 
 7954      6B426173 
 7955              	.LASF105:
 7956 02ab 5F6D756C 		.ascii	"_mult\000"
 7956      7400
 7957              	.LASF422:
 7958 02b1 4F535374 		.ascii	"OSStatTaskCtrMax\000"
 7958      61745461 
 7958      736B4374 
 7958      724D6178 
 7958      00
 7959              	.LASF363:
 7960 02c2 5469636B 		.ascii	"TickCtrPrev\000"
 7960      43747250 
 7960      72657600 
 7961              	.LASF301:
 7962 02ce 4F535F45 		.ascii	"OS_ERR_TIME_NOT_DLY\000"
 7962      52525F54 
 7962      494D455F 
 7962      4E4F545F 
 7962      444C5900 
 7963              	.LASF268:
 7964 02e2 4F535F45 		.ascii	"OS_ERR_TASK_NO_MORE_TCB\000"
 7964      52525F54 
 7964      41534B5F 
 7964      4E4F5F4D 
 7964      4F52455F 
 7965              	.LASF519:
 7966 02fa 4F535F50 		.ascii	"OS_PendListInit\000"
 7966      656E644C 
 7966      69737449 
 7966      6E697400 
 7967              	.LASF136:
 7968 030a 4350555F 		.ascii	"CPU_TS_TMR_FREQ\000"
 7968      54535F54 
 7968      4D525F46 
 7968      52455100 
 7969              	.LASF154:
 7970 031a 4F535F4F 		.ascii	"OS_OPT\000"
 7970      505400
 7971              	.LASF284:
 7972 0321 4F535F45 		.ascii	"OS_ERR_TCB_INVALID\000"
 7972      52525F54 
 7972      43425F49 
 7972      4E56414C 
 7972      494400
 7973              	.LASF203:
 7974 0334 4F535F45 		.ascii	"OS_ERR_MSG_POOL_EMPTY\000"
 7974      52525F4D 
 7974      53475F50 
 7974      4F4F4C5F 
ARM GAS  C:\Users\EDULU~1.DES\AppData\Local\Temp\ccfRue3n.s 			page 165


 7974      454D5054 
 7975              	.LASF482:
 7976 034a 4F534366 		.ascii	"OSCfg_TmrSizeRAM\000"
 7976      675F546D 
 7976      7253697A 
 7976      6552414D 
 7976      00
 7977              	.LASF27:
 7978 035b 5F5F7763 		.ascii	"__wch\000"
 7978      6800
 7979              	.LASF212:
 7980 0361 4F535F45 		.ascii	"OS_ERR_OBJ_CREATED\000"
 7980      52525F4F 
 7980      424A5F43 
 7980      52454154 
 7980      454400
 7981              	.LASF394:
 7982 0374 6F735F70 		.ascii	"os_pend_data\000"
 7982      656E645F 
 7982      64617461 
 7982      00
 7983              	.LASF460:
 7984 0381 4F534366 		.ascii	"OSCfg_StatTaskPrio\000"
 7984      675F5374 
 7984      61745461 
 7984      736B5072 
 7984      696F00
 7985              	.LASF425:
 7986 0394 4F535374 		.ascii	"OSStatTaskTCB\000"
 7986      61745461 
 7986      736B5443 
 7986      4200
 7987              	.LASF62:
 7988 03a2 5F66696C 		.ascii	"_file\000"
 7988      6500
 7989              	.LASF494:
 7990 03a8 705F7065 		.ascii	"p_pend_data_next\000"
 7990      6E645F64 
 7990      6174615F 
 7990      6E657874 
 7990      00
 7991              	.LASF202:
 7992 03b9 4F535F45 		.ascii	"OS_ERR_MEM_NO_FREE_BLKS\000"
 7992      52525F4D 
 7992      454D5F4E 
 7992      4F5F4652 
 7992      45455F42 
 7993              	.LASF49:
 7994 03d1 5F6F6E5F 		.ascii	"_on_exit_args\000"
 7994      65786974 
 7994      5F617267 
 7994      7300
 7995              	.LASF527:
 7996 03df 70656E64 		.ascii	"pend_data\000"
 7996      5F646174 
 7996      6100
 7997              	.LASF286:
ARM GAS  C:\Users\EDULU~1.DES\AppData\Local\Temp\ccfRue3n.s 			page 166


 7998 03e9 4F535F45 		.ascii	"OS_ERR_TLS_ISR\000"
 7998      52525F54 
 7998      4C535F49 
 7998      535200
 7999              	.LASF206:
 8000 03f8 4F535F45 		.ascii	"OS_ERR_MUTEX_OWNER\000"
 8000      52525F4D 
 8000      55544558 
 8000      5F4F574E 
 8000      455200
 8001              	.LASF367:
 8002 040b 54696D65 		.ascii	"TimeQuantaCtr\000"
 8002      5175616E 
 8002      74614374 
 8002      7200
 8003              	.LASF368:
 8004 0419 52656754 		.ascii	"RegTbl\000"
 8004      626C00
 8005              	.LASF479:
 8006 0420 4F534366 		.ascii	"OSCfg_TmrTaskStkSize\000"
 8006      675F546D 
 8006      72546173 
 8006      6B53746B 
 8006      53697A65 
 8007              	.LASF120:
 8008 0435 5F6D6272 		.ascii	"_mbrlen_state\000"
 8008      6C656E5F 
 8008      73746174 
 8008      6500
 8009              	.LASF20:
 8010 0443 6C6F6E67 		.ascii	"long int\000"
 8010      20696E74 
 8010      00
 8011              	.LASF184:
 8012 044c 4F535F45 		.ascii	"OS_ERR_INT_Q_FULL\000"
 8012      52525F49 
 8012      4E545F51 
 8012      5F46554C 
 8012      4C00
 8013              	.LASF131:
 8014 045e 5F696D70 		.ascii	"_impure_ptr\000"
 8014      7572655F 
 8014      70747200 
 8015              	.LASF440:
 8016 046a 4F53546D 		.ascii	"OSTmrUpdateCtr\000"
 8016      72557064 
 8016      61746543 
 8016      747200
 8017              	.LASF504:
 8018 0479 4F535F53 		.ascii	"OS_SemPost\000"
 8018      656D506F 
 8018      737400
 8019              	.LASF89:
 8020 0484 5F726573 		.ascii	"_result_k\000"
 8020      756C745F 
 8020      6B00
 8021              	.LASF225:
ARM GAS  C:\Users\EDULU~1.DES\AppData\Local\Temp\ccfRue3n.s 			page 167


 8022 048e 4F535F45 		.ascii	"OS_ERR_PEND_ISR\000"
 8022      52525F50 
 8022      454E445F 
 8022      49535200 
 8023              	.LASF59:
 8024 049e 5F73697A 		.ascii	"_size\000"
 8024      6500
 8025              	.LASF395:
 8026 04a4 54434250 		.ascii	"TCBPtr\000"
 8026      747200
 8027              	.LASF325:
 8028 04ab 4F535F45 		.ascii	"OS_ERR\000"
 8028      525200
 8029              	.LASF110:
 8030 04b2 5F6C6F63 		.ascii	"_localtime_buf\000"
 8030      616C7469 
 8030      6D655F62 
 8030      756600
 8031              	.LASF19:
 8032 04c1 4350555F 		.ascii	"CPU_SR\000"
 8032      535200
 8033              	.LASF278:
 8034 04c8 4F535F45 		.ascii	"OS_ERR_TASK_SUSPENDED\000"
 8034      52525F54 
 8034      41534B5F 
 8034      53555350 
 8034      454E4445 
 8035              	.LASF449:
 8036 04de 4F534366 		.ascii	"OSCfg_IntQSizeRAM\000"
 8036      675F496E 
 8036      74515369 
 8036      7A655241 
 8036      4D00
 8037              	.LASF44:
 8038 04f0 5F5F746D 		.ascii	"__tm_mon\000"
 8038      5F6D6F6E 
 8038      00
 8039              	.LASF418:
 8040 04f9 4F535374 		.ascii	"OSStatResetFlag\000"
 8040      61745265 
 8040      73657446 
 8040      6C616700 
 8041              	.LASF386:
 8042 0509 43616C6C 		.ascii	"CallbackPtrArg\000"
 8042      6261636B 
 8042      50747241 
 8042      726700
 8043              	.LASF158:
 8044 0518 4F535F52 		.ascii	"OS_REG_ID\000"
 8044      45475F49 
 8044      4400
 8045              	.LASF174:
 8046 0522 4F535F45 		.ascii	"OS_ERR_FATAL_RETURN\000"
 8046      52525F46 
 8046      4154414C 
 8046      5F524554 
 8046      55524E00 
ARM GAS  C:\Users\EDULU~1.DES\AppData\Local\Temp\ccfRue3n.s 			page 168


 8047              	.LASF134:
 8048 0536 4350555F 		.ascii	"CPU_TS\000"
 8048      545300
 8049              	.LASF165:
 8050 053d 4F535F45 		.ascii	"OS_ERR_A\000"
 8050      52525F41 
 8050      00
 8051              	.LASF167:
 8052 0546 4F535F45 		.ascii	"OS_ERR_B\000"
 8052      52525F42 
 8052      00
 8053              	.LASF168:
 8054 054f 4F535F45 		.ascii	"OS_ERR_C\000"
 8054      52525F43 
 8054      00
 8055              	.LASF170:
 8056 0558 4F535F45 		.ascii	"OS_ERR_D\000"
 8056      52525F44 
 8056      00
 8057              	.LASF172:
 8058 0561 4F535F45 		.ascii	"OS_ERR_E\000"
 8058      52525F45 
 8058      00
 8059              	.LASF173:
 8060 056a 4F535F45 		.ascii	"OS_ERR_F\000"
 8060      52525F46 
 8060      00
 8061              	.LASF107:
 8062 0573 5F756E75 		.ascii	"_unused_rand\000"
 8062      7365645F 
 8062      72616E64 
 8062      00
 8063              	.LASF180:
 8064 0580 4F535F45 		.ascii	"OS_ERR_H\000"
 8064      52525F48 
 8064      00
 8065              	.LASF181:
 8066 0589 4F535F45 		.ascii	"OS_ERR_I\000"
 8066      52525F49 
 8066      00
 8067              	.LASF5:
 8068 0592 7369676E 		.ascii	"signed char\000"
 8068      65642063 
 8068      68617200 
 8069              	.LASF189:
 8070 059e 4F535F45 		.ascii	"OS_ERR_K\000"
 8070      52525F4B 
 8070      00
 8071              	.LASF190:
 8072 05a7 4F535F45 		.ascii	"OS_ERR_L\000"
 8072      52525F4C 
 8072      00
 8073              	.LASF192:
 8074 05b0 4F535F45 		.ascii	"OS_ERR_M\000"
 8074      52525F4D 
 8074      00
 8075              	.LASF208:
ARM GAS  C:\Users\EDULU~1.DES\AppData\Local\Temp\ccfRue3n.s 			page 169


 8076 05b9 4F535F45 		.ascii	"OS_ERR_N\000"
 8076      52525F4E 
 8076      00
 8077              	.LASF524:
 8078 05c2 2E2E5C2E 		.ascii	"..\\..\\..\\..\\..\\..\\Software\\uCOS-III\\Source\\"
 8078      2E5C2E2E 
 8078      5C2E2E5C 
 8078      2E2E5C2E 
 8078      2E5C536F 
 8079 05ed 6F735F73 		.ascii	"os_sem.c\000"
 8079      656D2E63 
 8079      00
 8080              	.LASF219:
 8081 05f6 4F535F45 		.ascii	"OS_ERR_P\000"
 8081      52525F50 
 8081      00
 8082              	.LASF234:
 8083 05ff 4F535F45 		.ascii	"OS_ERR_Q\000"
 8083      52525F51 
 8083      00
 8084              	.LASF239:
 8085 0608 4F535F45 		.ascii	"OS_ERR_R\000"
 8085      52525F52 
 8085      00
 8086              	.LASF243:
 8087 0611 4F535F45 		.ascii	"OS_ERR_S\000"
 8087      52525F53 
 8087      00
 8088              	.LASF260:
 8089 061a 4F535F45 		.ascii	"OS_ERR_T\000"
 8089      52525F54 
 8089      00
 8090              	.LASF318:
 8091 0623 4F535F45 		.ascii	"OS_ERR_U\000"
 8091      52525F55 
 8091      00
 8092              	.LASF319:
 8093 062c 4F535F45 		.ascii	"OS_ERR_V\000"
 8093      52525F56 
 8093      00
 8094              	.LASF320:
 8095 0635 4F535F45 		.ascii	"OS_ERR_W\000"
 8095      52525F57 
 8095      00
 8096              	.LASF321:
 8097 063e 4F535F45 		.ascii	"OS_ERR_X\000"
 8097      52525F58 
 8097      00
 8098              	.LASF322:
 8099 0647 4F535F45 		.ascii	"OS_ERR_Y\000"
 8099      52525F59 
 8099      00
 8100              	.LASF324:
 8101 0650 4F535F45 		.ascii	"OS_ERR_Z\000"
 8101      52525F5A 
 8101      00
 8102              	.LASF163:
ARM GAS  C:\Users\EDULU~1.DES\AppData\Local\Temp\ccfRue3n.s 			page 170


 8103 0659 4F535F43 		.ascii	"OS_CPU_ExceptStkBase\000"
 8103      50555F45 
 8103      78636570 
 8103      7453746B 
 8103      42617365 
 8104              	.LASF303:
 8105 066e 4F535F45 		.ascii	"OS_ERR_TIME_ZERO_DLY\000"
 8105      52525F54 
 8105      494D455F 
 8105      5A45524F 
 8105      5F444C59 
 8106              	.LASF229:
 8107 0683 4F535F45 		.ascii	"OS_ERR_POST_ISR\000"
 8107      52525F50 
 8107      4F53545F 
 8107      49535200 
 8108              	.LASF341:
 8109 0693 4462674E 		.ascii	"DbgNamePtr\000"
 8109      616D6550 
 8109      747200
 8110              	.LASF3:
 8111 069e 756E7369 		.ascii	"unsigned char\000"
 8111      676E6564 
 8111      20636861 
 8111      7200
 8112              	.LASF176:
 8113 06ac 4F535F45 		.ascii	"OS_ERR_FLAG_NOT_RDY\000"
 8113      52525F46 
 8113      4C41475F 
 8113      4E4F545F 
 8113      52445900 
 8114              	.LASF292:
 8115 06c0 4F535F45 		.ascii	"OS_ERR_TICK_STK_SIZE_INVALID\000"
 8115      52525F54 
 8115      49434B5F 
 8115      53544B5F 
 8115      53495A45 
 8116              	.LASF456:
 8117 06dd 4F534366 		.ascii	"OSCfg_ISRStkSizeRAM\000"
 8117      675F4953 
 8117      5253746B 
 8117      53697A65 
 8117      52414D00 
 8118              	.LASF339:
 8119 06f1 44626750 		.ascii	"DbgPrevPtr\000"
 8119      72657650 
 8119      747200
 8120              	.LASF84:
 8121 06fc 5F756E73 		.ascii	"_unspecified_locale_info\000"
 8121      70656369 
 8121      66696564 
 8121      5F6C6F63 
 8121      616C655F 
 8122              	.LASF77:
 8123 0715 5F726565 		.ascii	"_reent\000"
 8123      6E7400
 8124              	.LASF345:
ARM GAS  C:\Users\EDULU~1.DES\AppData\Local\Temp\ccfRue3n.s 			page 171


 8125 071c 53746B50 		.ascii	"StkPtr\000"
 8125      747200
 8126              	.LASF132:
 8127 0723 5F676C6F 		.ascii	"_global_impure_ptr\000"
 8127      62616C5F 
 8127      696D7075 
 8127      72655F70 
 8127      747200
 8128              	.LASF520:
 8129 0736 4350555F 		.ascii	"CPU_TS_TmrRd\000"
 8129      54535F54 
 8129      6D725264 
 8129      00
 8130              	.LASF407:
 8131 0743 4F53496E 		.ascii	"OSIntNestingCtr\000"
 8131      744E6573 
 8131      74696E67 
 8131      43747200 
 8132              	.LASF375:
 8133 0753 48656164 		.ascii	"HeadPtr\000"
 8133      50747200 
 8134              	.LASF272:
 8135 075b 4F535F45 		.ascii	"OS_ERR_TASK_OPT\000"
 8135      52525F54 
 8135      41534B5F 
 8135      4F505400 
 8136              	.LASF255:
 8137 076b 4F535F45 		.ascii	"OS_ERR_STATE_INVALID\000"
 8137      52525F53 
 8137      54415445 
 8137      5F494E56 
 8137      414C4944 
 8138              	.LASF160:
 8139 0780 4F535F53 		.ascii	"OS_STATE\000"
 8139      54415445 
 8139      00
 8140              	.LASF346:
 8141 0789 45787450 		.ascii	"ExtPtr\000"
 8141      747200
 8142              	.LASF153:
 8143 0790 4F535F4F 		.ascii	"OS_OBJ_TYPE\000"
 8143      424A5F54 
 8143      59504500 
 8144              	.LASF193:
 8145 079c 4F535F45 		.ascii	"OS_ERR_MEM_CREATE_ISR\000"
 8145      52525F4D 
 8145      454D5F43 
 8145      52454154 
 8145      455F4953 
 8146              	.LASF2:
 8147 07b2 63686172 		.ascii	"char\000"
 8147      00
 8148              	.LASF486:
 8149 07b7 4F534366 		.ascii	"OSCfg_TickTaskStk\000"
 8149      675F5469 
 8149      636B5461 
 8149      736B5374 
ARM GAS  C:\Users\EDULU~1.DES\AppData\Local\Temp\ccfRue3n.s 			page 172


 8149      6B00
 8150              	.LASF56:
 8151 07c9 5F666E73 		.ascii	"_fns\000"
 8151      00
 8152              	.LASF196:
 8153 07ce 4F535F45 		.ascii	"OS_ERR_MEM_INVALID_BLKS\000"
 8153      52525F4D 
 8153      454D5F49 
 8153      4E56414C 
 8153      49445F42 
 8154              	.LASF145:
 8155 07e6 4350555F 		.ascii	"CPU_IntDisMeasMax_cnts\000"
 8155      496E7444 
 8155      69734D65 
 8155      61734D61 
 8155      785F636E 
 8156              	.LASF68:
 8157 07fd 5F636C6F 		.ascii	"_close\000"
 8157      736500
 8158              	.LASF365:
 8159 0804 5469636B 		.ascii	"TickRemain\000"
 8159      52656D61 
 8159      696E00
 8160              	.LASF488:
 8161 080f 4F534366 		.ascii	"OSCfg_TmrTaskStk\000"
 8161      675F546D 
 8161      72546173 
 8161      6B53746B 
 8161      00
 8162              	.LASF388:
 8163 0820 52656D61 		.ascii	"Remain\000"
 8163      696E00
 8164              	.LASF166:
 8165 0827 4F535F45 		.ascii	"OS_ERR_ACCEPT_ISR\000"
 8165      52525F41 
 8165      43434550 
 8165      545F4953 
 8165      5200
 8166              	.LASF331:
 8167 0839 4D736754 		.ascii	"MsgTS\000"
 8167      5300
 8168              	.LASF355:
 8169 083f 50656E64 		.ascii	"PendDataTblPtr\000"
 8169      44617461 
 8169      54626C50 
 8169      747200
 8170              	.LASF195:
 8171 084e 4F535F45 		.ascii	"OS_ERR_MEM_INVALID_P_ADDR\000"
 8171      52525F4D 
 8171      454D5F49 
 8171      4E56414C 
 8171      49445F50 
 8172              	.LASF376:
 8173 0868 5461696C 		.ascii	"TailPtr\000"
 8173      50747200 
 8174              	.LASF238:
 8175 0870 4F535F45 		.ascii	"OS_ERR_Q_SIZE\000"
ARM GAS  C:\Users\EDULU~1.DES\AppData\Local\Temp\ccfRue3n.s 			page 173


 8175      52525F51 
 8175      5F53495A 
 8175      4500
 8176              	.LASF79:
 8177 087e 5F737464 		.ascii	"_stdin\000"
 8177      696E00
 8178              	.LASF327:
 8179 0885 6F735F6D 		.ascii	"os_msg\000"
 8179      736700
 8180              	.LASF220:
 8181 088c 4F535F45 		.ascii	"OS_ERR_PEND_ABORT\000"
 8181      52525F50 
 8181      454E445F 
 8181      41424F52 
 8181      5400
 8182              	.LASF521:
 8183 089e 4F535F50 		.ascii	"OS_PendAbort\000"
 8183      656E6441 
 8183      626F7274 
 8183      00
 8184              	.LASF413:
 8185 08ab 4F535072 		.ascii	"OSPrioTbl\000"
 8185      696F5462 
 8185      6C00
 8186              	.LASF258:
 8187 08b5 4F535F45 		.ascii	"OS_ERR_STK_SIZE_INVALID\000"
 8187      52525F53 
 8187      544B5F53 
 8187      495A455F 
 8187      494E5641 
 8188              	.LASF271:
 8189 08cd 4F535F45 		.ascii	"OS_ERR_TASK_NOT_SUSPENDED\000"
 8189      52525F54 
 8189      41534B5F 
 8189      4E4F545F 
 8189      53555350 
 8190              	.LASF254:
 8191 08e7 4F535F45 		.ascii	"OS_ERR_STAT_STK_SIZE_INVALID\000"
 8191      52525F53 
 8191      5441545F 
 8191      53544B5F 
 8191      53495A45 
 8192              	.LASF518:
 8193 0904 4F535363 		.ascii	"OSSched\000"
 8193      68656400 
 8194              	.LASF347:
 8195 090c 53746B4C 		.ascii	"StkLimitPtr\000"
 8195      696D6974 
 8195      50747200 
 8196              	.LASF9:
 8197 0918 4350555F 		.ascii	"CPU_INT32U\000"
 8197      494E5433 
 8197      325500
 8198              	.LASF387:
 8199 0923 4D617463 		.ascii	"Match\000"
 8199      6800
 8200              	.LASF306:
ARM GAS  C:\Users\EDULU~1.DES\AppData\Local\Temp\ccfRue3n.s 			page 174


 8201 0929 4F535F45 		.ascii	"OS_ERR_TMR_INVALID_DEST\000"
 8201      52525F54 
 8201      4D525F49 
 8201      4E56414C 
 8201      49445F44 
 8202              	.LASF295:
 8203 0941 4F535F45 		.ascii	"OS_ERR_TIME_DLY_RESUME_ISR\000"
 8203      52525F54 
 8203      494D455F 
 8203      444C595F 
 8203      52455355 
 8204              	.LASF309:
 8205 095c 4F535F45 		.ascii	"OS_ERR_TMR_INVALID_STATE\000"
 8205      52525F54 
 8205      4D525F49 
 8205      4E56414C 
 8205      49445F53 
 8206              	.LASF289:
 8207 0975 4F535F45 		.ascii	"OS_ERR_TLS_DESTRUCT_ASSIGNED\000"
 8207      52525F54 
 8207      4C535F44 
 8207      45535452 
 8207      5543545F 
 8208              	.LASF15:
 8209 0992 4350555F 		.ascii	"CPU_ADDR\000"
 8209      41444452 
 8209      00
 8210              	.LASF374:
 8211 099b 6F735F72 		.ascii	"os_rdy_list\000"
 8211      64795F6C 
 8211      69737400 
 8212              	.LASF421:
 8213 09a7 4F535374 		.ascii	"OSStatTaskCtr\000"
 8213      61745461 
 8213      736B4374 
 8213      7200
 8214              	.LASF248:
 8215 09b5 4F535F45 		.ascii	"OS_ERR_SCHED_UNLOCK_ISR\000"
 8215      52525F53 
 8215      43484544 
 8215      5F554E4C 
 8215      4F434B5F 
 8216              	.LASF445:
 8217 09cd 4F534366 		.ascii	"OSCfg_IdleTaskStkSize\000"
 8217      675F4964 
 8217      6C655461 
 8217      736B5374 
 8217      6B53697A 
 8218              	.LASF461:
 8219 09e3 4F534366 		.ascii	"OSCfg_StatTaskRate_Hz\000"
 8219      675F5374 
 8219      61745461 
 8219      736B5261 
 8219      74655F48 
 8220              	.LASF157:
 8221 09f9 4F535F52 		.ascii	"OS_REG\000"
 8221      454700
ARM GAS  C:\Users\EDULU~1.DES\AppData\Local\Temp\ccfRue3n.s 			page 175


 8222              	.LASF515:
 8223 0a00 4350555F 		.ascii	"CPU_IntDisMeasStop\000"
 8223      496E7444 
 8223      69734D65 
 8223      61735374 
 8223      6F7000
 8224              	.LASF297:
 8225 0a13 4F535F45 		.ascii	"OS_ERR_TIME_INVALID_HOURS\000"
 8225      52525F54 
 8225      494D455F 
 8225      494E5641 
 8225      4C49445F 
 8226              	.LASF474:
 8227 0a2d 4F534366 		.ascii	"OSCfg_TickWheelSizeRAM\000"
 8227      675F5469 
 8227      636B5768 
 8227      65656C53 
 8227      697A6552 
 8228              	.LASF186:
 8229 0a44 4F535F45 		.ascii	"OS_ERR_INT_Q_STK_INVALID\000"
 8229      52525F49 
 8229      4E545F51 
 8229      5F53544B 
 8229      5F494E56 
 8230              	.LASF491:
 8231 0a5d 705F6572 		.ascii	"p_err\000"
 8231      7200
 8232              	.LASF492:
 8233 0a63 705F7065 		.ascii	"p_pend_list\000"
 8233      6E645F6C 
 8233      69737400 
 8234              	.LASF506:
 8235 0a6f 4F535365 		.ascii	"OSSemPendAbort\000"
 8235      6D50656E 
 8235      6441626F 
 8235      727400
 8236              	.LASF187:
 8237 0a7e 4F535F45 		.ascii	"OS_ERR_INT_Q_STK_SIZE_INVALID\000"
 8237      52525F49 
 8237      4E545F51 
 8237      5F53544B 
 8237      5F53495A 
 8238              	.LASF281:
 8239 0a9c 4F535F45 		.ascii	"OS_ERR_TASK_SUSPEND_ISR\000"
 8239      52525F54 
 8239      41534B5F 
 8239      53555350 
 8239      454E445F 
 8240              	.LASF197:
 8241 0ab4 4F535F45 		.ascii	"OS_ERR_MEM_INVALID_PART\000"
 8241      52525F4D 
 8241      454D5F49 
 8241      4E56414C 
 8241      49445F50 
 8242              	.LASF350:
 8243 0acc 5469636B 		.ascii	"TickPrevPtr\000"
 8243      50726576 
ARM GAS  C:\Users\EDULU~1.DES\AppData\Local\Temp\ccfRue3n.s 			page 176


 8243      50747200 
 8244              	.LASF64:
 8245 0ad8 5F636F6F 		.ascii	"_cookie\000"
 8245      6B696500 
 8246              	.LASF247:
 8247 0ae0 4F535F45 		.ascii	"OS_ERR_SCHED_NOT_LOCKED\000"
 8247      52525F53 
 8247      43484544 
 8247      5F4E4F54 
 8247      5F4C4F43 
 8248              	.LASF133:
 8249 0af8 4350555F 		.ascii	"CPU_TS32\000"
 8249      54533332 
 8249      00
 8250              	.LASF37:
 8251 0b01 5F776473 		.ascii	"_wds\000"
 8251      00
 8252              	.LASF516:
 8253 0b06 4350555F 		.ascii	"CPU_SR_Restore\000"
 8253      53525F52 
 8253      6573746F 
 8253      726500
 8254              	.LASF148:
 8255 0b15 4F535F43 		.ascii	"OS_CTX_SW_CTR\000"
 8255      54585F53 
 8255      575F4354 
 8255      5200
 8256              	.LASF129:
 8257 0b23 5F5F6C6F 		.ascii	"__lock\000"
 8257      636B00
 8258              	.LASF96:
 8259 0b2a 5F736967 		.ascii	"_sig_func\000"
 8259      5F66756E 
 8259      6300
 8260              	.LASF496:
 8261 0b34 6370755F 		.ascii	"cpu_sr\000"
 8261      737200
 8262              	.LASF434:
 8263 0b3b 4F53546D 		.ascii	"OSTmrDbgListPtr\000"
 8263      72446267 
 8263      4C697374 
 8263      50747200 
 8264              	.LASF393:
 8265 0b4b 4F535F50 		.ascii	"OS_PEND_DATA\000"
 8265      454E445F 
 8265      44415441 
 8265      00
 8266              	.LASF452:
 8267 0b58 4F534366 		.ascii	"OSCfg_IntQTaskStkSize\000"
 8267      675F496E 
 8267      74515461 
 8267      736B5374 
 8267      6B53697A 
 8268              	.LASF72:
 8269 0b6e 5F6F6666 		.ascii	"_offset\000"
 8269      73657400 
 8270              	.LASF93:
ARM GAS  C:\Users\EDULU~1.DES\AppData\Local\Temp\ccfRue3n.s 			page 177


 8271 0b76 5F637674 		.ascii	"_cvtbuf\000"
 8271      62756600 
 8272              	.LASF299:
 8273 0b7e 4F535F45 		.ascii	"OS_ERR_TIME_INVALID_SECONDS\000"
 8273      52525F54 
 8273      494D455F 
 8273      494E5641 
 8273      4C49445F 
 8274              	.LASF480:
 8275 0b9a 4F534366 		.ascii	"OSCfg_TmrTaskStkSizeRAM\000"
 8275      675F546D 
 8275      72546173 
 8275      6B53746B 
 8275      53697A65 
 8276              	.LASF485:
 8277 0bb2 4F534366 		.ascii	"OSCfg_StatTaskStk\000"
 8277      675F5374 
 8277      61745461 
 8277      736B5374 
 8277      6B00
 8278              	.LASF466:
 8279 0bc4 4F534366 		.ascii	"OSCfg_StkSizeMin\000"
 8279      675F5374 
 8279      6B53697A 
 8279      654D696E 
 8279      00
 8280              	.LASF338:
 8281 0bd5 50656E64 		.ascii	"PendList\000"
 8281      4C697374 
 8281      00
 8282              	.LASF304:
 8283 0bde 4F535F45 		.ascii	"OS_ERR_TIMEOUT\000"
 8283      52525F54 
 8283      494D454F 
 8283      555400
 8284              	.LASF210:
 8285 0bed 4F535F45 		.ascii	"OS_ERR_NO_MORE_ID_AVAIL\000"
 8285      52525F4E 
 8285      4F5F4D4F 
 8285      52455F49 
 8285      445F4156 
 8286              	.LASF525:
 8287 0c05 433A5C55 		.ascii	"C:\\Users\\edulu.DESKTOP-961TG4K\\Documents\\PSoC C"
 8287      73657273 
 8287      5C656475 
 8287      6C752E44 
 8287      45534B54 
 8288 0c34 72656174 		.ascii	"reator\\Micrium\\Examples\\Cypress\\CY8CKIT-044\\OS"
 8288      6F725C4D 
 8288      69637269 
 8288      756D5C45 
 8288      78616D70 
 8289 0c62 335C5053 		.ascii	"3\\PSoC\\OS3.cydsn\000"
 8289      6F435C4F 
 8289      53332E63 
 8289      7964736E 
 8289      00
ARM GAS  C:\Users\EDULU~1.DES\AppData\Local\Temp\ccfRue3n.s 			page 178


 8290              	.LASF484:
 8291 0c73 4F534366 		.ascii	"OSCfg_ISRStk\000"
 8291      675F4953 
 8291      5253746B 
 8291      00
 8292              	.LASF262:
 8293 0c80 4F535F45 		.ascii	"OS_ERR_TASK_CREATE_ISR\000"
 8293      52525F54 
 8293      41534B5F 
 8293      43524541 
 8293      54455F49 
 8294              	.LASF175:
 8295 0c97 4F535F45 		.ascii	"OS_ERR_FLAG_GRP_DEPLETED\000"
 8295      52525F46 
 8295      4C41475F 
 8295      4752505F 
 8295      4445504C 
 8296              	.LASF430:
 8297 0cb0 4F535461 		.ascii	"OSTaskRegNextAvailID\000"
 8297      736B5265 
 8297      674E6578 
 8297      74417661 
 8297      696C4944 
 8298              	.LASF313:
 8299 0cc5 4F535F45 		.ascii	"OS_ERR_TMR_NON_AVAIL\000"
 8299      52525F54 
 8299      4D525F4E 
 8299      4F4E5F41 
 8299      5641494C 
 8300              	.LASF463:
 8301 0cda 4F534366 		.ascii	"OSCfg_StatTaskStkLimit\000"
 8301      675F5374 
 8301      61745461 
 8301      736B5374 
 8301      6B4C696D 
 8302              	.LASF90:
 8303 0cf1 5F703573 		.ascii	"_p5s\000"
 8303      00
 8304              	.LASF21:
 8305 0cf6 6C6F6E67 		.ascii	"long unsigned int\000"
 8305      20756E73 
 8305      69676E65 
 8305      6420696E 
 8305      7400
 8306              	.LASF146:
 8307 0d08 4F535F43 		.ascii	"OS_CPU_USAGE\000"
 8307      50555F55 
 8307      53414745 
 8307      00
 8308              	.LASF273:
 8309 0d15 4F535F45 		.ascii	"OS_ERR_TASK_RESUME_ISR\000"
 8309      52525F54 
 8309      41534B5F 
 8309      52455355 
 8309      4D455F49 
 8310              	.LASF269:
 8311 0d2c 4F535F45 		.ascii	"OS_ERR_TASK_NOT_DLY\000"
ARM GAS  C:\Users\EDULU~1.DES\AppData\Local\Temp\ccfRue3n.s 			page 179


 8311      52525F54 
 8311      41534B5F 
 8311      4E4F545F 
 8311      444C5900 
 8312              	.LASF382:
 8313 0d40 4F535F54 		.ascii	"OS_TMR_CALLBACK_PTR\000"
 8313      4D525F43 
 8313      414C4C42 
 8313      41434B5F 
 8313      50545200 
 8314              	.LASF439:
 8315 0d54 4F53546D 		.ascii	"OSTmrUpdateCnt\000"
 8315      72557064 
 8315      61746543 
 8315      6E7400
 8316              	.LASF60:
 8317 0d63 5F5F7346 		.ascii	"__sFILE\000"
 8317      494C4500 
 8318              	.LASF86:
 8319 0d6b 5F5F7364 		.ascii	"__sdidinit\000"
 8319      6964696E 
 8319      697400
 8320              	.LASF76:
 8321 0d76 5F666C61 		.ascii	"_flags2\000"
 8321      67733200 
 8322              	.LASF169:
 8323 0d7e 4F535F45 		.ascii	"OS_ERR_CREATE_ISR\000"
 8323      52525F43 
 8323      52454154 
 8323      455F4953 
 8323      5200
 8324              	.LASF403:
 8325 0d90 4F535F50 		.ascii	"OS_PEND_OBJ\000"
 8325      454E445F 
 8325      4F424A00 
 8326              	.LASF221:
 8327 0d9c 4F535F45 		.ascii	"OS_ERR_PEND_ABORT_ISR\000"
 8327      52525F50 
 8327      454E445F 
 8327      41424F52 
 8327      545F4953 
 8328              	.LASF277:
 8329 0db2 4F535F45 		.ascii	"OS_ERR_TASK_STK_CHK_ISR\000"
 8329      52525F54 
 8329      41534B5F 
 8329      53544B5F 
 8329      43484B5F 
 8330              	.LASF287:
 8331 0dca 4F535F45 		.ascii	"OS_ERR_TLS_NO_MORE_AVAIL\000"
 8331      52525F54 
 8331      4C535F4E 
 8331      4F5F4D4F 
 8331      52455F41 
 8332              	.LASF298:
 8333 0de3 4F535F45 		.ascii	"OS_ERR_TIME_INVALID_MINUTES\000"
 8333      52525F54 
 8333      494D455F 
ARM GAS  C:\Users\EDULU~1.DES\AppData\Local\Temp\ccfRue3n.s 			page 180


 8333      494E5641 
 8333      4C49445F 
 8334              	.LASF152:
 8335 0dff 4F535F4F 		.ascii	"OS_OBJ_QTY\000"
 8335      424A5F51 
 8335      545900
 8336              	.LASF78:
 8337 0e0a 5F657272 		.ascii	"_errno\000"
 8337      6E6F00
 8338              	.LASF371:
 8339 0e11 53746B46 		.ascii	"StkFree\000"
 8339      72656500 
 8340              	.LASF118:
 8341 0e19 5F736967 		.ascii	"_signal_buf\000"
 8341      6E616C5F 
 8341      62756600 
 8342              	.LASF500:
 8343 0e25 705F7365 		.ascii	"p_sem_prev\000"
 8343      6D5F7072 
 8343      657600
 8344              	.LASF143:
 8345 0e30 4350555F 		.ascii	"CPU_IntDisMeasOvrhd_cnts\000"
 8345      496E7444 
 8345      69734D65 
 8345      61734F76 
 8345      7268645F 
 8346              	.LASF465:
 8347 0e49 4F534366 		.ascii	"OSCfg_StatTaskStkSizeRAM\000"
 8347      675F5374 
 8347      61745461 
 8347      736B5374 
 8347      6B53697A 
 8348              	.LASF38:
 8349 0e62 5F426967 		.ascii	"_Bigint\000"
 8349      696E7400 
 8350              	.LASF205:
 8351 0e6a 4F535F45 		.ascii	"OS_ERR_MUTEX_NOT_OWNER\000"
 8351      52525F4D 
 8351      55544558 
 8351      5F4E4F54 
 8351      5F4F574E 
 8352              	.LASF448:
 8353 0e81 4F534366 		.ascii	"OSCfg_IntQSize\000"
 8353      675F496E 
 8353      74515369 
 8353      7A6500
 8354              	.LASF35:
 8355 0e90 5F6D6178 		.ascii	"_maxwds\000"
 8355      77647300 
 8356              	.LASF213:
 8357 0e98 4F535F45 		.ascii	"OS_ERR_OBJ_DEL\000"
 8357      52525F4F 
 8357      424A5F44 
 8357      454C00
 8358              	.LASF87:
 8359 0ea7 5F5F636C 		.ascii	"__cleanup\000"
 8359      65616E75 
ARM GAS  C:\Users\EDULU~1.DES\AppData\Local\Temp\ccfRue3n.s 			page 181


 8359      7000
 8360              	.LASF95:
 8361 0eb1 5F617465 		.ascii	"_atexit0\000"
 8361      78697430 
 8361      00
 8362              	.LASF505:
 8363 0eba 4F535365 		.ascii	"OSSemPost\000"
 8363      6D506F73 
 8363      7400
 8364              	.LASF360:
 8365 0ec4 53746B53 		.ascii	"StkSize\000"
 8365      697A6500 
 8366              	.LASF164:
 8367 0ecc 4F535F45 		.ascii	"OS_ERR_NONE\000"
 8367      52525F4E 
 8367      4F4E4500 
 8368              	.LASF366:
 8369 0ed8 54696D65 		.ascii	"TimeQuanta\000"
 8369      5175616E 
 8369      746100
 8370              	.LASF447:
 8371 0ee3 4F534366 		.ascii	"OSCfg_IntQBasePtr\000"
 8371      675F496E 
 8371      74514261 
 8371      73655074 
 8371      7200
 8372              	.LASF453:
 8373 0ef5 4F534366 		.ascii	"OSCfg_IntQTaskStkSizeRAM\000"
 8373      675F496E 
 8373      74515461 
 8373      736B5374 
 8373      6B53697A 
 8374              	.LASF155:
 8375 0f0e 4F535F50 		.ascii	"OS_PRIO\000"
 8375      52494F00 
 8376              	.LASF83:
 8377 0f16 5F656D65 		.ascii	"_emergency\000"
 8377      7267656E 
 8377      637900
 8378              	.LASF12:
 8379 0f21 6C6F6E67 		.ascii	"long long int\000"
 8379      206C6F6E 
 8379      6720696E 
 8379      7400
 8380              	.LASF162:
 8381 0f2f 4F535F54 		.ascii	"OS_TICK\000"
 8381      49434B00 
 8382              	.LASF468:
 8383 0f37 4F534366 		.ascii	"OSCfg_TickTaskPrio\000"
 8383      675F5469 
 8383      636B5461 
 8383      736B5072 
 8383      696F00
 8384              	.LASF476:
 8385 0f4a 4F534366 		.ascii	"OSCfg_TmrTaskRate_Hz\000"
 8385      675F546D 
 8385      72546173 
ARM GAS  C:\Users\EDULU~1.DES\AppData\Local\Temp\ccfRue3n.s 			page 182


 8385      6B526174 
 8385      655F487A 
 8386              	.LASF101:
 8387 0f5f 5F6E696F 		.ascii	"_niobs\000"
 8387      627300
 8388              	.LASF410:
 8389 0f66 4F535072 		.ascii	"OSPrioCur\000"
 8389      696F4375 
 8389      7200
 8390              	.LASF97:
 8391 0f70 5F5F7367 		.ascii	"__sglue\000"
 8391      6C756500 
 8392              	.LASF127:
 8393 0f78 5F6E6D61 		.ascii	"_nmalloc\000"
 8393      6C6C6F63 
 8393      00
 8394              	.LASF223:
 8395 0f81 4F535F45 		.ascii	"OS_ERR_PEND_ABORT_SELF\000"
 8395      52525F50 
 8395      454E445F 
 8395      41424F52 
 8395      545F5345 
 8396              	.LASF14:
 8397 0f98 646F7562 		.ascii	"double\000"
 8397      6C6500
 8398              	.LASF384:
 8399 0f9f 6F735F74 		.ascii	"os_tmr\000"
 8399      6D7200
 8400              	.LASF411:
 8401 0fa6 4F535072 		.ascii	"OSPrioHighRdy\000"
 8401      696F4869 
 8401      67685264 
 8401      7900
 8402              	.LASF111:
 8403 0fb4 5F67616D 		.ascii	"_gamma_signgam\000"
 8403      6D615F73 
 8403      69676E67 
 8403      616D00
 8404              	.LASF379:
 8405 0fc3 6F735F74 		.ascii	"os_tick_spoke\000"
 8405      69636B5F 
 8405      73706F6B 
 8405      6500
 8406              	.LASF323:
 8407 0fd1 4F535F45 		.ascii	"OS_ERR_YIELD_ISR\000"
 8407      52525F59 
 8407      49454C44 
 8407      5F495352 
 8407      00
 8408              	.LASF266:
 8409 0fe2 4F535F45 		.ascii	"OS_ERR_TASK_DEL_ISR\000"
 8409      52525F54 
 8409      41534B5F 
 8409      44454C5F 
 8409      49535200 
 8410              	.LASF159:
 8411 0ff6 4F535F53 		.ascii	"OS_SEM_CTR\000"
ARM GAS  C:\Users\EDULU~1.DES\AppData\Local\Temp\ccfRue3n.s 			page 183


 8411      454D5F43 
 8411      545200
 8412              	.LASF478:
 8413 1001 4F534366 		.ascii	"OSCfg_TmrTaskStkLimit\000"
 8413      675F546D 
 8413      72546173 
 8413      6B53746B 
 8413      4C696D69 
 8414              	.LASF464:
 8415 1017 4F534366 		.ascii	"OSCfg_StatTaskStkSize\000"
 8415      675F5374 
 8415      61745461 
 8415      736B5374 
 8415      6B53697A 
 8416              	.LASF310:
 8417 102d 4F535F45 		.ascii	"OS_ERR_TMR_INVALID\000"
 8417      52525F54 
 8417      4D525F49 
 8417      4E56414C 
 8417      494400
 8418              	.LASF91:
 8419 1040 5F667265 		.ascii	"_freelist\000"
 8419      656C6973 
 8419      7400
 8420              	.LASF102:
 8421 104a 5F696F62 		.ascii	"_iobs\000"
 8421      7300
 8422              	.LASF100:
 8423 1050 5F676C75 		.ascii	"_glue\000"
 8423      6500
 8424              	.LASF414:
 8425 1056 4F535264 		.ascii	"OSRdyList\000"
 8425      794C6973 
 8425      7400
 8426              	.LASF151:
 8427 1060 4F535F4E 		.ascii	"OS_NESTING_CTR\000"
 8427      45535449 
 8427      4E475F43 
 8427      545200
 8428              	.LASF36:
 8429 106f 5F736967 		.ascii	"_sign\000"
 8429      6E00
 8430              	.LASF252:
 8431 1075 4F535F45 		.ascii	"OS_ERR_STAT_PRIO_INVALID\000"
 8431      52525F53 
 8431      5441545F 
 8431      5052494F 
 8431      5F494E56 
 8432              	.LASF333:
 8433 108e 6F735F69 		.ascii	"os_int_q\000"
 8433      6E745F71 
 8433      00
 8434              	.LASF509:
 8435 1097 74696D65 		.ascii	"timeout\000"
 8435      6F757400 
 8436              	.LASF13:
 8437 109f 666C6F61 		.ascii	"float\000"
ARM GAS  C:\Users\EDULU~1.DES\AppData\Local\Temp\ccfRue3n.s 			page 184


 8437      7400
 8438              	.LASF475:
 8439 10a5 4F534366 		.ascii	"OSCfg_TmrTaskPrio\000"
 8439      675F546D 
 8439      72546173 
 8439      6B507269 
 8439      6F00
 8440              	.LASF522:
 8441 10b7 4F535F50 		.ascii	"OS_Pend\000"
 8441      656E6400 
 8442              	.LASF259:
 8443 10bf 4F535F45 		.ascii	"OS_ERR_STK_LIMIT_INVALID\000"
 8443      52525F53 
 8443      544B5F4C 
 8443      494D4954 
 8443      5F494E56 
 8444              	.LASF18:
 8445 10d8 4350555F 		.ascii	"CPU_STK_SIZE\000"
 8445      53544B5F 
 8445      53495A45 
 8445      00
 8446              	.LASF182:
 8447 10e5 4F535F45 		.ascii	"OS_ERR_ILLEGAL_CREATE_RUN_TIME\000"
 8447      52525F49 
 8447      4C4C4547 
 8447      414C5F43 
 8447      52454154 
 8448              	.LASF358:
 8449 1104 5461736B 		.ascii	"TaskState\000"
 8449      53746174 
 8449      6500
 8450              	.LASF483:
 8451 110e 4F534366 		.ascii	"OSCfg_IdleTaskStk\000"
 8451      675F4964 
 8451      6C655461 
 8451      736B5374 
 8451      6B00
 8452              	.LASF501:
 8453 1120 4F535F53 		.ascii	"OS_SemDbgListAdd\000"
 8453      656D4462 
 8453      674C6973 
 8453      74416464 
 8453      00
 8454              	.LASF511:
 8455 1131 4F535365 		.ascii	"OSSemCreate\000"
 8455      6D437265 
 8455      61746500 
 8456              	.LASF408:
 8457 113d 4F53496E 		.ascii	"OSIntDisTimeMax\000"
 8457      74446973 
 8457      54696D65 
 8457      4D617800 
 8458              	.LASF10:
 8459 114d 756E7369 		.ascii	"unsigned int\000"
 8459      676E6564 
 8459      20696E74 
 8459      00
ARM GAS  C:\Users\EDULU~1.DES\AppData\Local\Temp\ccfRue3n.s 			page 185


 8460              	.LASF400:
 8461 115a 52647954 		.ascii	"RdyTS\000"
 8461      5300
 8462              	.LASF307:
 8463 1160 4F535F45 		.ascii	"OS_ERR_TMR_INVALID_DLY\000"
 8463      52525F54 
 8463      4D525F49 
 8463      4E56414C 
 8463      49445F44 
 8464              	.LASF493:
 8465 1177 705F7065 		.ascii	"p_pend_data\000"
 8465      6E645F64 
 8465      61746100 
 8466              	.LASF144:
 8467 1183 4350555F 		.ascii	"CPU_IntDisMeasMaxCur_cnts\000"
 8467      496E7444 
 8467      69734D65 
 8467      61734D61 
 8467      78437572 
 8468              	.LASF380:
 8469 119d 46697273 		.ascii	"FirstPtr\000"
 8469      74507472 
 8469      00
 8470              	.LASF125:
 8471 11a6 5F685F65 		.ascii	"_h_errno\000"
 8471      72726E6F 
 8471      00
 8472              	.LASF502:
 8473 11af 4F535F53 		.ascii	"OS_SemClr\000"
 8473      656D436C 
 8473      7200
 8474              	.LASF123:
 8475 11b9 5F776372 		.ascii	"_wcrtomb_state\000"
 8475      746F6D62 
 8475      5F737461 
 8475      746500
 8476              	.LASF487:
 8477 11c8 4F534366 		.ascii	"OSCfg_TickWheel\000"
 8477      675F5469 
 8477      636B5768 
 8477      65656C00 
 8478              	.LASF43:
 8479 11d8 5F5F746D 		.ascii	"__tm_mday\000"
 8479      5F6D6461 
 8479      7900
 8480              	.LASF94:
 8481 11e2 5F6E6577 		.ascii	"_new\000"
 8481      00
 8482              	.LASF150:
 8483 11e7 4F535F4D 		.ascii	"OS_MSG_SIZE\000"
 8483      53475F53 
 8483      495A4500 
 8484              	.LASF69:
 8485 11f3 5F756275 		.ascii	"_ubuf\000"
 8485      6600
 8486              	.LASF199:
 8487 11f9 4F535F45 		.ascii	"OS_ERR_MEM_INVALID_P_MEM\000"
ARM GAS  C:\Users\EDULU~1.DES\AppData\Local\Temp\ccfRue3n.s 			page 186


 8487      52525F4D 
 8487      454D5F49 
 8487      4E56414C 
 8487      49445F50 
 8488              	.LASF81:
 8489 1212 5F737464 		.ascii	"_stderr\000"
 8489      65727200 
 8490              	.LASF116:
 8491 121a 5F776374 		.ascii	"_wctomb_state\000"
 8491      6F6D625F 
 8491      73746174 
 8491      6500
 8492              	.LASF217:
 8493 1228 4F535F45 		.ascii	"OS_ERR_OS_NOT_RUNNING\000"
 8493      52525F4F 
 8493      535F4E4F 
 8493      545F5255 
 8493      4E4E494E 
 8494              	.LASF75:
 8495 123e 5F6D6273 		.ascii	"_mbstate\000"
 8495      74617465 
 8495      00
 8496              	.LASF138:
 8497 1247 4350555F 		.ascii	"CPU_TS_TmrFreq_Hz\000"
 8497      54535F54 
 8497      6D724672 
 8497      65715F48 
 8497      7A00
 8498              	.LASF495:
 8499 1259 705F7463 		.ascii	"p_tcb\000"
 8499      6200
 8500              	.LASF112:
 8501 125f 5F72616E 		.ascii	"_rand_next\000"
 8501      645F6E65 
 8501      787400
 8502              	.LASF458:
 8503 126a 4F534366 		.ascii	"OSCfg_MsgPoolSizeRAM\000"
 8503      675F4D73 
 8503      67506F6F 
 8503      6C53697A 
 8503      6552414D 
 8504              	.LASF61:
 8505 127f 5F666C61 		.ascii	"_flags\000"
 8505      677300
 8506              	.LASF336:
 8507 1286 54797065 		.ascii	"Type\000"
 8507      00
 8508              	.LASF416:
 8509 128b 4F535365 		.ascii	"OSSemDbgListPtr\000"
 8509      6D446267 
 8509      4C697374 
 8509      50747200 
 8510              	.LASF257:
 8511 129b 4F535F45 		.ascii	"OS_ERR_STK_INVALID\000"
 8511      52525F53 
 8511      544B5F49 
 8511      4E56414C 
ARM GAS  C:\Users\EDULU~1.DES\AppData\Local\Temp\ccfRue3n.s 			page 187


 8511      494400
 8512              	.LASF54:
 8513 12ae 5F617465 		.ascii	"_atexit\000"
 8513      78697400 
 8514              	.LASF435:
 8515 12b6 4F53546D 		.ascii	"OSTmrQty\000"
 8515      72517479 
 8515      00
 8516              	.LASF436:
 8517 12bf 4F53546D 		.ascii	"OSTmrTaskTCB\000"
 8517      72546173 
 8517      6B544342 
 8517      00
 8518              	.LASF503:
 8519 12cc 4F535365 		.ascii	"OSSemSet\000"
 8519      6D536574 
 8519      00
 8520              	.LASF29:
 8521 12d5 5F5F636F 		.ascii	"__count\000"
 8521      756E7400 
 8522              	.LASF228:
 8523 12dd 4F535F45 		.ascii	"OS_ERR_POST_NULL_PTR\000"
 8523      52525F50 
 8523      4F53545F 
 8523      4E554C4C 
 8523      5F505452 
 8524              	.LASF244:
 8525 12f2 4F535F45 		.ascii	"OS_ERR_SCHED_INVALID_TIME_SLICE\000"
 8525      52525F53 
 8525      43484544 
 8525      5F494E56 
 8525      414C4944 
 8526              	.LASF209:
 8527 1312 4F535F45 		.ascii	"OS_ERR_NAME\000"
 8527      52525F4E 
 8527      414D4500 
 8528              	.LASF218:
 8529 131e 4F535F45 		.ascii	"OS_ERR_OS_RUNNING\000"
 8529      52525F4F 
 8529      535F5255 
 8529      4E4E494E 
 8529      4700
 8530              	.LASF161:
 8531 1330 4F535F53 		.ascii	"OS_STATUS\000"
 8531      54415455 
 8531      5300
 8532              	.LASF431:
 8533 133a 4F535469 		.ascii	"OSTickCtr\000"
 8533      636B4374 
 8533      7200
 8534              	.LASF46:
 8535 1344 5F5F746D 		.ascii	"__tm_wday\000"
 8535      5F776461 
 8535      7900
 8536              	.LASF399:
 8537 134e 5264794D 		.ascii	"RdyMsgSize\000"
 8537      73675369 
ARM GAS  C:\Users\EDULU~1.DES\AppData\Local\Temp\ccfRue3n.s 			page 188


 8537      7A6500
 8538              	.LASF364:
 8539 1359 5469636B 		.ascii	"TickCtrMatch\000"
 8539      4374724D 
 8539      61746368 
 8539      00
 8540              	.LASF226:
 8541 1366 4F535F45 		.ascii	"OS_ERR_PEND_LOCKED\000"
 8541      52525F50 
 8541      454E445F 
 8541      4C4F434B 
 8541      454400
 8542              	.LASF510:
 8543 1379 705F7473 		.ascii	"p_ts\000"
 8543      00
 8544              	.LASF22:
 8545 137e 6C6F6E67 		.ascii	"long double\000"
 8545      20646F75 
 8545      626C6500 
 8546              	.LASF47:
 8547 138a 5F5F746D 		.ascii	"__tm_yday\000"
 8547      5F796461 
 8547      7900
 8548              	.LASF446:
 8549 1394 4F534366 		.ascii	"OSCfg_IdleTaskStkSizeRAM\000"
 8549      675F4964 
 8549      6C655461 
 8549      736B5374 
 8549      6B53697A 
 8550              	.LASF250:
 8551 13ad 4F535F45 		.ascii	"OS_ERR_SET_ISR\000"
 8551      52525F53 
 8551      45545F49 
 8551      535200
 8552              	.LASF353:
 8553 13bc 5461736B 		.ascii	"TaskEntryAddr\000"
 8553      456E7472 
 8553      79416464 
 8553      7200
 8554              	.LASF526:
 8555 13ca 6F735F65 		.ascii	"os_err\000"
 8555      727200
 8556              	.LASF104:
 8557 13d1 5F736565 		.ascii	"_seed\000"
 8557      6400
 8558              	.LASF67:
 8559 13d7 5F736565 		.ascii	"_seek\000"
 8559      6B00
 8560              	.LASF279:
 8561 13dd 4F535F45 		.ascii	"OS_ERR_TASK_SUSPEND_IDLE\000"
 8561      52525F54 
 8561      41534B5F 
 8561      53555350 
 8561      454E445F 
 8562              	.LASF457:
 8563 13f6 4F534366 		.ascii	"OSCfg_MsgPoolSize\000"
 8563      675F4D73 
ARM GAS  C:\Users\EDULU~1.DES\AppData\Local\Temp\ccfRue3n.s 			page 189


 8563      67506F6F 
 8563      6C53697A 
 8563      6500
 8564              	.LASF263:
 8565 1408 4F535F45 		.ascii	"OS_ERR_TASK_DEL\000"
 8565      52525F54 
 8565      41534B5F 
 8565      44454C00 
 8566              	.LASF404:
 8567 1418 6F735F70 		.ascii	"os_pend_obj\000"
 8567      656E645F 
 8567      6F626A00 
 8568              	.LASF25:
 8569 1424 5F66706F 		.ascii	"_fpos_t\000"
 8569      735F7400 
 8570              	.LASF270:
 8571 142c 4F535F45 		.ascii	"OS_ERR_TASK_NOT_EXIST\000"
 8571      52525F54 
 8571      41534B5F 
 8571      4E4F545F 
 8571      45584953 
 8572              	.LASF28:
 8573 1442 5F5F7763 		.ascii	"__wchb\000"
 8573      686200
 8574              	.LASF381:
 8575 1449 4E627245 		.ascii	"NbrEntriesMax\000"
 8575      6E747269 
 8575      65734D61 
 8575      7800
 8576              	.LASF207:
 8577 1457 4F535F45 		.ascii	"OS_ERR_MUTEX_NESTING\000"
 8577      52525F4D 
 8577      55544558 
 8577      5F4E4553 
 8577      54494E47 
 8578              	.LASF115:
 8579 146c 5F6D6274 		.ascii	"_mbtowc_state\000"
 8579      6F77635F 
 8579      73746174 
 8579      6500
 8580              	.LASF224:
 8581 147a 4F535F45 		.ascii	"OS_ERR_PEND_DEL\000"
 8581      52525F50 
 8581      454E445F 
 8581      44454C00 
 8582              	.LASF198:
 8583 148a 4F535F45 		.ascii	"OS_ERR_MEM_INVALID_P_BLK\000"
 8583      52525F4D 
 8583      454D5F49 
 8583      4E56414C 
 8583      49445F50 
 8584              	.LASF178:
 8585 14a3 4F535F45 		.ascii	"OS_ERR_FLUSH_ISR\000"
 8585      52525F46 
 8585      4C555348 
 8585      5F495352 
 8585      00
ARM GAS  C:\Users\EDULU~1.DES\AppData\Local\Temp\ccfRue3n.s 			page 190


 8586              	.LASF142:
 8587 14b4 4350555F 		.ascii	"CPU_IntDisMeasStop_cnts\000"
 8587      496E7444 
 8587      69734D65 
 8587      61735374 
 8587      6F705F63 
 8588              	.LASF397:
 8589 14cc 5264794F 		.ascii	"RdyObjPtr\000"
 8589      626A5074 
 8589      7200
 8590              	.LASF235:
 8591 14d6 4F535F45 		.ascii	"OS_ERR_Q_FULL\000"
 8591      52525F51 
 8591      5F46554C 
 8591      4C00
 8592              	.LASF11:
 8593 14e4 6C6F6E67 		.ascii	"long long unsigned int\000"
 8593      206C6F6E 
 8593      6720756E 
 8593      7369676E 
 8593      65642069 
 8594              	.LASF275:
 8595 14fb 4F535F45 		.ascii	"OS_ERR_TASK_RESUME_SELF\000"
 8595      52525F54 
 8595      41534B5F 
 8595      52455355 
 8595      4D455F53 
 8596              	.LASF489:
 8597 1513 4F534366 		.ascii	"OSCfg_TmrWheel\000"
 8597      675F546D 
 8597      72576865 
 8597      656C00
 8598              	.LASF312:
 8599 1522 4F535F45 		.ascii	"OS_ERR_TMR_NO_CALLBACK\000"
 8599      52525F54 
 8599      4D525F4E 
 8599      4F5F4341 
 8599      4C4C4241 
 8600              	.LASF508:
 8601 1539 4F535365 		.ascii	"OSSemPend\000"
 8601      6D50656E 
 8601      6400
 8602              	.LASF233:
 8603 1543 4F535F45 		.ascii	"OS_ERR_PTR_INVALID\000"
 8603      52525F50 
 8603      54525F49 
 8603      4E56414C 
 8603      494400
 8604              	.LASF135:
 8605 1556 4350555F 		.ascii	"CPU_TS_TMR\000"
 8605      54535F54 
 8605      4D5200
 8606              	.LASF274:
 8607 1561 4F535F45 		.ascii	"OS_ERR_TASK_RESUME_PRIO\000"
 8607      52525F54 
 8607      41534B5F 
 8607      52455355 
ARM GAS  C:\Users\EDULU~1.DES\AppData\Local\Temp\ccfRue3n.s 			page 191


 8607      4D455F50 
 8608              	.LASF51:
 8609 1579 5F64736F 		.ascii	"_dso_handle\000"
 8609      5F68616E 
 8609      646C6500 
 8610              	.LASF415:
 8611 1585 4F535363 		.ascii	"OSSchedLockNestingCtr\000"
 8611      6865644C 
 8611      6F636B4E 
 8611      65737469 
 8611      6E674374 
 8612              	.LASF103:
 8613 159b 5F72616E 		.ascii	"_rand48\000"
 8613      64343800 
 8614              	.LASF139:
 8615 15a3 4350555F 		.ascii	"CPU_IntDisMeasCtr\000"
 8615      496E7444 
 8615      69734D65 
 8615      61734374 
 8615      7200
 8616              	.LASF80:
 8617 15b5 5F737464 		.ascii	"_stdout\000"
 8617      6F757400 
 8618              	.LASF392:
 8619 15bd 6F735F74 		.ascii	"os_tmr_spoke\000"
 8619      6D725F73 
 8619      706F6B65 
 8619      00
 8620              	.LASF417:
 8621 15ca 4F535365 		.ascii	"OSSemQty\000"
 8621      6D517479 
 8621      00
 8622              	.LASF316:
 8623 15d3 4F535F45 		.ascii	"OS_ERR_TMR_STK_SIZE_INVALID\000"
 8623      52525F54 
 8623      4D525F53 
 8623      544B5F53 
 8623      495A455F 
 8624              	.LASF498:
 8625 15ef 4F535F53 		.ascii	"OS_SemDbgListRemove\000"
 8625      656D4462 
 8625      674C6973 
 8625      7452656D 
 8625      6F766500 
 8626              	.LASF200:
 8627 1603 4F535F45 		.ascii	"OS_ERR_MEM_INVALID_P_DATA\000"
 8627      52525F4D 
 8627      454D5F49 
 8627      4E56414C 
 8627      49445F50 
 8628              	.LASF71:
 8629 161d 5F626C6B 		.ascii	"_blksize\000"
 8629      73697A65 
 8629      00
 8630              	.LASF156:
 8631 1626 4F535F52 		.ascii	"OS_RATE_HZ\000"
 8631      4154455F 
ARM GAS  C:\Users\EDULU~1.DES\AppData\Local\Temp\ccfRue3n.s 			page 192


 8631      485A00
 8632              	.LASF523:
 8633 1631 474E5520 		.ascii	"GNU C17 8.2.1 20181213 (release) [gcc-8-branch revi"
 8633      43313720 
 8633      382E322E 
 8633      31203230 
 8633      31383132 
 8634 1664 73696F6E 		.ascii	"sion 267074] -mcpu=cortex-m0 -mthumb -mfloat-abi=so"
 8634      20323637 
 8634      3037345D 
 8634      202D6D63 
 8634      70753D63 
 8635 1697 6674202D 		.ascii	"ft -march=armv6s-m -g -Og -ffunction-sections -ffat"
 8635      6D617263 
 8635      683D6172 
 8635      6D763673 
 8635      2D6D202D 
 8636 16ca 2D6C746F 		.ascii	"-lto-objects\000"
 8636      2D6F626A 
 8636      65637473 
 8636      00
 8637              	.LASF232:
 8638 16d7 4F535F45 		.ascii	"OS_ERR_PRIO_INVALID\000"
 8638      52525F50 
 8638      52494F5F 
 8638      494E5641 
 8638      4C494400 
 8639              	.LASF356:
 8640 16eb 50656E64 		.ascii	"PendOn\000"
 8640      4F6E00
 8641              	.LASF137:
 8642 16f2 4350555F 		.ascii	"CPU_Name\000"
 8642      4E616D65 
 8642      00
 8643              	.LASF240:
 8644 16fb 4F535F45 		.ascii	"OS_ERR_REG_ID_INVALID\000"
 8644      52525F52 
 8644      45475F49 
 8644      445F494E 
 8644      56414C49 
 8645              	.LASF108:
 8646 1711 5F737472 		.ascii	"_strtok_last\000"
 8646      746F6B5F 
 8646      6C617374 
 8646      00
 8647              	.LASF58:
 8648 171e 5F626173 		.ascii	"_base\000"
 8648      6500
 8649              	.LASF517:
 8650 1724 4F535F50 		.ascii	"OS_Post\000"
 8650      6F737400 
 8651              	.LASF121:
 8652 172c 5F6D6272 		.ascii	"_mbrtowc_state\000"
 8652      746F7763 
 8652      5F737461 
 8652      746500
 8653              	.LASF378:
ARM GAS  C:\Users\EDULU~1.DES\AppData\Local\Temp\ccfRue3n.s 			page 193


 8654 173b 4F535F54 		.ascii	"OS_TICK_SPOKE\000"
 8654      49434B5F 
 8654      53504F4B 
 8654      4500
 8655              	.LASF372:
 8656 1749 496E7444 		.ascii	"IntDisTimeMax\000"
 8656      69735469 
 8656      6D654D61 
 8656      7800
 8657              	.LASF32:
 8658 1757 5F666C6F 		.ascii	"_flock_t\000"
 8658      636B5F74 
 8658      00
 8659              	.LASF201:
 8660 1760 4F535F45 		.ascii	"OS_ERR_MEM_INVALID_SIZE\000"
 8660      52525F4D 
 8660      454D5F49 
 8660      4E56414C 
 8660      49445F53 
 8661              	.LASF99:
 8662 1778 5F5F4649 		.ascii	"__FILE\000"
 8662      4C4500
 8663              	.LASF265:
 8664 177f 4F535F45 		.ascii	"OS_ERR_TASK_DEL_INVALID\000"
 8664      52525F54 
 8664      41534B5F 
 8664      44454C5F 
 8664      494E5641 
 8665              	.LASF412:
 8666 1797 4F535072 		.ascii	"OSPrioSaved\000"
 8666      696F5361 
 8666      76656400 
 8667              	.LASF490:
 8668 17a3 705F7365 		.ascii	"p_sem\000"
 8668      6D00
 8669              	.LASF16:
 8670 17a9 4350555F 		.ascii	"CPU_DATA\000"
 8670      44415441 
 8670      00
 8671              	.LASF31:
 8672 17b2 5F6D6273 		.ascii	"_mbstate_t\000"
 8672      74617465 
 8672      5F7400
 8673              	.LASF469:
 8674 17bd 4F534366 		.ascii	"OSCfg_TickTaskStkBasePtr\000"
 8674      675F5469 
 8674      636B5461 
 8674      736B5374 
 8674      6B426173 
 8675              	.LASF354:
 8676 17d6 5461736B 		.ascii	"TaskEntryArg\000"
 8676      456E7472 
 8676      79417267 
 8676      00
 8677              	.LASF185:
 8678 17e3 4F535F45 		.ascii	"OS_ERR_INT_Q_SIZE\000"
 8678      52525F49 
ARM GAS  C:\Users\EDULU~1.DES\AppData\Local\Temp\ccfRue3n.s 			page 194


 8678      4E545F51 
 8678      5F53495A 
 8678      4500
 8679              	.LASF113:
 8680 17f5 5F723438 		.ascii	"_r48\000"
 8680      00
 8681              	.LASF427:
 8682 17fa 4F535461 		.ascii	"OSTaskCtxSwCtr\000"
 8682      736B4374 
 8682      78537743 
 8682      747200
 8683              	.LASF26:
 8684 1809 77696E74 		.ascii	"wint_t\000"
 8684      5F7400
 8685              	.LASF467:
 8686 1810 4F534366 		.ascii	"OSCfg_TickRate_Hz\000"
 8686      675F5469 
 8686      636B5261 
 8686      74655F48 
 8686      7A00
 8687              	.LASF34:
 8688 1822 5F6E6578 		.ascii	"_next\000"
 8688      7400
 8689              	.LASF73:
 8690 1828 5F646174 		.ascii	"_data\000"
 8690      6100
 8691              	.LASF426:
 8692 182e 4F535374 		.ascii	"OSStatTaskTimeMax\000"
 8692      61745461 
 8692      736B5469 
 8692      6D654D61 
 8692      7800
 8693              	.LASF348:
 8694 1840 50726576 		.ascii	"PrevPtr\000"
 8694      50747200 
 8695              	.LASF351:
 8696 1848 5469636B 		.ascii	"TickSpokePtr\000"
 8696      53706F6B 
 8696      65507472 
 8696      00
 8697              	.LASF256:
 8698 1855 4F535F45 		.ascii	"OS_ERR_STATUS_INVALID\000"
 8698      52525F53 
 8698      54415455 
 8698      535F494E 
 8698      56414C49 
 8699              	.LASF471:
 8700 186b 4F534366 		.ascii	"OSCfg_TickTaskStkSize\000"
 8700      675F5469 
 8700      636B5461 
 8700      736B5374 
 8700      6B53697A 
 8701              	.LASF191:
 8702 1881 4F535F45 		.ascii	"OS_ERR_LOCK_NESTING_OVF\000"
 8702      52525F4C 
 8702      4F434B5F 
 8702      4E455354 
ARM GAS  C:\Users\EDULU~1.DES\AppData\Local\Temp\ccfRue3n.s 			page 195


 8702      494E475F 
 8703              	.LASF140:
 8704 1899 4350555F 		.ascii	"CPU_IntDisNestCtr\000"
 8704      496E7444 
 8704      69734E65 
 8704      73744374 
 8704      7200
 8705              	.LASF280:
 8706 18ab 4F535F45 		.ascii	"OS_ERR_TASK_SUSPEND_INT_HANDLER\000"
 8706      52525F54 
 8706      41534B5F 
 8706      53555350 
 8706      454E445F 
 8707              	.LASF450:
 8708 18cb 4F534366 		.ascii	"OSCfg_IntQTaskStkBasePtr\000"
 8708      675F496E 
 8708      74515461 
 8708      736B5374 
 8708      6B426173 
 8709              	.LASF300:
 8710 18e4 4F535F45 		.ascii	"OS_ERR_TIME_INVALID_MILLISECONDS\000"
 8710      52525F54 
 8710      494D455F 
 8710      494E5641 
 8710      4C49445F 
 8711              	.LASF141:
 8712 1905 4350555F 		.ascii	"CPU_IntDisMeasStart_cnts\000"
 8712      496E7444 
 8712      69734D65 
 8712      61735374 
 8712      6172745F 
 8713              	.LASF326:
 8714 191e 4F535F4D 		.ascii	"OS_MSG\000"
 8714      534700
 8715              	.LASF328:
 8716 1925 4E657874 		.ascii	"NextPtr\000"
 8716      50747200 
 8717              	.LASF227:
 8718 192d 4F535F45 		.ascii	"OS_ERR_PEND_WOULD_BLOCK\000"
 8718      52525F50 
 8718      454E445F 
 8718      574F554C 
 8718      445F424C 
 8719              	.LASF396:
 8720 1945 50656E64 		.ascii	"PendObjPtr\000"
 8720      4F626A50 
 8720      747200
 8721              	.LASF432:
 8722 1950 4F535469 		.ascii	"OSTickTaskTCB\000"
 8722      636B5461 
 8722      736B5443 
 8722      4200
 8723              	.LASF454:
 8724 195e 4F534366 		.ascii	"OSCfg_ISRStkBasePtr\000"
 8724      675F4953 
 8724      5253746B 
 8724      42617365 
ARM GAS  C:\Users\EDULU~1.DES\AppData\Local\Temp\ccfRue3n.s 			page 196


 8724      50747200 
 8725              	.LASF406:
 8726 1972 4F534964 		.ascii	"OSIdleTaskTCB\000"
 8726      6C655461 
 8726      736B5443 
 8726      4200
 8727              	.LASF513:
 8728 1980 4350555F 		.ascii	"CPU_SR_Save\000"
 8728      53525F53 
 8728      61766500 
 8729              	.LASF114:
 8730 198c 5F6D626C 		.ascii	"_mblen_state\000"
 8730      656E5F73 
 8730      74617465 
 8730      00
 8731              	.LASF370:
 8732 1999 53746B55 		.ascii	"StkUsed\000"
 8732      73656400 
 8733              	.LASF8:
 8734 19a1 73686F72 		.ascii	"short int\000"
 8734      7420696E 
 8734      7400
 8735              	.LASF337:
 8736 19ab 4E616D65 		.ascii	"NamePtr\000"
 8736      50747200 
 8737              	.LASF147:
 8738 19b3 4F535F43 		.ascii	"OS_CTR\000"
 8738      545200
 8739              	.LASF171:
 8740 19ba 4F535F45 		.ascii	"OS_ERR_DEL_ISR\000"
 8740      52525F44 
 8740      454C5F49 
 8740      535200
 8741              	.LASF507:
 8742 19c9 6E62725F 		.ascii	"nbr_tasks\000"
 8742      7461736B 
 8742      7300
 8743              	.LASF236:
 8744 19d3 4F535F45 		.ascii	"OS_ERR_Q_EMPTY\000"
 8744      52525F51 
 8744      5F454D50 
 8744      545900
 8745              	.LASF455:
 8746 19e2 4F534366 		.ascii	"OSCfg_ISRStkSize\000"
 8746      675F4953 
 8746      5253746B 
 8746      53697A65 
 8746      00
 8747              	.LASF424:
 8748 19f3 4F535374 		.ascii	"OSStatTaskRdy\000"
 8748      61745461 
 8748      736B5264 
 8748      7900
 8749              	.LASF52:
 8750 1a01 5F666E74 		.ascii	"_fntypes\000"
 8750      79706573 
 8750      00
ARM GAS  C:\Users\EDULU~1.DES\AppData\Local\Temp\ccfRue3n.s 			page 197


 8751              	.LASF429:
 8752 1a0a 4F535461 		.ascii	"OSTaskQty\000"
 8752      736B5174 
 8752      7900
 8753              	.LASF45:
 8754 1a14 5F5F746D 		.ascii	"__tm_year\000"
 8754      5F796561 
 8754      7200
 8755              	.LASF251:
 8756 1a1e 4F535F45 		.ascii	"OS_ERR_STAT_RESET_ISR\000"
 8756      52525F53 
 8756      5441545F 
 8756      52455345 
 8756      545F4953 
 8757              	.LASF267:
 8758 1a34 4F535F45 		.ascii	"OS_ERR_TASK_INVALID\000"
 8758      52525F54 
 8758      41534B5F 
 8758      494E5641 
 8758      4C494400 
 8759              	.LASF305:
 8760 1a48 4F535F45 		.ascii	"OS_ERR_TMR_INACTIVE\000"
 8760      52525F54 
 8760      4D525F49 
 8760      4E414354 
 8760      49564500 
 8761              	.LASF499:
 8762 1a5c 705F7365 		.ascii	"p_sem_next\000"
 8762      6D5F6E65 
 8762      787400
 8763              	.LASF389:
 8764 1a67 50657269 		.ascii	"Period\000"
 8764      6F6400
 8765              	.LASF377:
 8766 1a6e 4E627245 		.ascii	"NbrEntries\000"
 8766      6E747269 
 8766      657300
 8767              	.LASF211:
 8768 1a79 4F535F45 		.ascii	"OS_ERR_O\000"
 8768      52525F4F 
 8768      00
 8769              	.LASF230:
 8770 1a82 4F535F45 		.ascii	"OS_ERR_PRIO_EXIST\000"
 8770      52525F50 
 8770      52494F5F 
 8770      45584953 
 8770      5400
 8771              	.LASF330:
 8772 1a94 4D736753 		.ascii	"MsgSize\000"
 8772      697A6500 
 8773              	.LASF391:
 8774 1a9c 4F535F54 		.ascii	"OS_TMR_SPOKE\000"
 8774      4D525F53 
 8774      504F4B45 
 8774      00
 8775              	.LASF308:
 8776 1aa9 4F535F45 		.ascii	"OS_ERR_TMR_INVALID_PERIOD\000"
ARM GAS  C:\Users\EDULU~1.DES\AppData\Local\Temp\ccfRue3n.s 			page 198


 8776      52525F54 
 8776      4D525F49 
 8776      4E56414C 
 8776      49445F50 
 8777              	.LASF63:
 8778 1ac3 5F6C6266 		.ascii	"_lbfsize\000"
 8778      73697A65 
 8778      00
 8779              	.LASF357:
 8780 1acc 50656E64 		.ascii	"PendStatus\000"
 8780      53746174 
 8780      757300
 8781              	.LASF82:
 8782 1ad7 5F696E63 		.ascii	"_inc\000"
 8782      00
 8783              	.LASF55:
 8784 1adc 5F696E64 		.ascii	"_ind\000"
 8784      00
 8785              	.LASF283:
 8786 1ae1 4F535F45 		.ascii	"OS_ERR_TASK_WAITING\000"
 8786      52525F54 
 8786      41534B5F 
 8786      57414954 
 8786      494E4700 
 8787              	.LASF352:
 8788 1af5 53746B42 		.ascii	"StkBasePtr\000"
 8788      61736550 
 8788      747200
 8789              	.LASF438:
 8790 1b00 4F53546D 		.ascii	"OSTmrTickCtr\000"
 8790      72546963 
 8790      6B437472 
 8790      00
 8791              	.LASF57:
 8792 1b0d 5F5F7362 		.ascii	"__sbuf\000"
 8792      756600
 8793              	.LASF53:
 8794 1b14 5F69735F 		.ascii	"_is_cxa\000"
 8794      63786100 
 8795              	.LASF23:
 8796 1b1c 5F4C4F43 		.ascii	"_LOCK_T\000"
 8796      4B5F5400 
 8797              	.LASF340:
 8798 1b24 4462674E 		.ascii	"DbgNextPtr\000"
 8798      65787450 
 8798      747200
 8799              	.LASF126:
 8800 1b2f 5F6E6578 		.ascii	"_nextf\000"
 8800      746600
 8801              	.LASF216:
 8802 1b36 4F535F45 		.ascii	"OS_ERR_OPT_INVALID\000"
 8802      52525F4F 
 8802      50545F49 
 8802      4E56414C 
 8802      494400
 8803              	.LASF177:
 8804 1b49 4F535F45 		.ascii	"OS_ERR_FLAG_PEND_OPT\000"
ARM GAS  C:\Users\EDULU~1.DES\AppData\Local\Temp\ccfRue3n.s 			page 199


 8804      52525F46 
 8804      4C41475F 
 8804      50454E44 
 8804      5F4F5054 
 8805              	.LASF204:
 8806 1b5e 4F535F45 		.ascii	"OS_ERR_MSG_POOL_NULL_PTR\000"
 8806      52525F4D 
 8806      53475F50 
 8806      4F4F4C5F 
 8806      4E554C4C 
 8807              	.LASF514:
 8808 1b77 4350555F 		.ascii	"CPU_IntDisMeasStart\000"
 8808      496E7444 
 8808      69734D65 
 8808      61735374 
 8808      61727400 
 8809              	.LASF342:
 8810 1b8b 4F535F54 		.ascii	"OS_TASK_PTR\000"
 8810      41534B5F 
 8810      50545200 
 8811              	.LASF444:
 8812 1b97 4F534366 		.ascii	"OSCfg_IdleTaskStkLimit\000"
 8812      675F4964 
 8812      6C655461 
 8812      736B5374 
 8812      6B4C696D 
 8813              	.LASF437:
 8814 1bae 4F53546D 		.ascii	"OSTmrTaskTimeMax\000"
 8814      72546173 
 8814      6B54696D 
 8814      654D6178 
 8814      00
 8815              	.LASF237:
 8816 1bbf 4F535F45 		.ascii	"OS_ERR_Q_MAX\000"
 8816      52525F51 
 8816      5F4D4158 
 8816      00
 8817              	.LASF85:
 8818 1bcc 5F6C6F63 		.ascii	"_locale\000"
 8818      616C6500 
 8819              	.LASF33:
 8820 1bd4 5F5F554C 		.ascii	"__ULong\000"
 8820      6F6E6700 
 8821              	.LASF4:
 8822 1bdc 4350555F 		.ascii	"CPU_INT08U\000"
 8822      494E5430 
 8822      385500
 8823              	.LASF88:
 8824 1be7 5F726573 		.ascii	"_result\000"
 8824      756C7400 
 8825              	.LASF459:
 8826 1bef 4F534366 		.ascii	"OSCfg_MsgPoolBasePtr\000"
 8826      675F4D73 
 8826      67506F6F 
 8826      6C426173 
 8826      65507472 
 8827              	.LASF311:
ARM GAS  C:\Users\EDULU~1.DES\AppData\Local\Temp\ccfRue3n.s 			page 200


 8828 1c04 4F535F45 		.ascii	"OS_ERR_TMR_ISR\000"
 8828      52525F54 
 8828      4D525F49 
 8828      535200
 8829              	.LASF242:
 8830 1c13 4F535F45 		.ascii	"OS_ERR_ROUND_ROBIN_DISABLED\000"
 8830      52525F52 
 8830      4F554E44 
 8830      5F524F42 
 8830      494E5F44 
 8831              	.LASF291:
 8832 1c2f 4F535F45 		.ascii	"OS_ERR_TICK_STK_INVALID\000"
 8832      52525F54 
 8832      49434B5F 
 8832      53544B5F 
 8832      494E5641 
 8833              	.LASF302:
 8834 1c47 4F535F45 		.ascii	"OS_ERR_TIME_SET_ISR\000"
 8834      52525F54 
 8834      494D455F 
 8834      5345545F 
 8834      49535200 
 8835              	.LASF214:
 8836 1c5b 4F535F45 		.ascii	"OS_ERR_OBJ_PTR_NULL\000"
 8836      52525F4F 
 8836      424A5F50 
 8836      54525F4E 
 8836      554C4C00 
 8837              	.LASF293:
 8838 1c6f 4F535F45 		.ascii	"OS_ERR_TICK_WHEEL_SIZE\000"
 8838      52525F54 
 8838      49434B5F 
 8838      57484545 
 8838      4C5F5349 
 8839              	.LASF294:
 8840 1c86 4F535F45 		.ascii	"OS_ERR_TIME_DLY_ISR\000"
 8840      52525F54 
 8840      494D455F 
 8840      444C595F 
 8840      49535200 
 8841              	.LASF24:
 8842 1c9a 5F6F6666 		.ascii	"_off_t\000"
 8842      5F7400
 8843              	.LASF402:
 8844 1ca1 6F735F70 		.ascii	"os_pend_list\000"
 8844      656E645F 
 8844      6C697374 
 8844      00
 8845              	.LASF409:
 8846 1cae 4F535275 		.ascii	"OSRunning\000"
 8846      6E6E696E 
 8846      6700
 8847              	.LASF470:
 8848 1cb8 4F534366 		.ascii	"OSCfg_TickTaskStkLimit\000"
 8848      675F5469 
 8848      636B5461 
 8848      736B5374 
ARM GAS  C:\Users\EDULU~1.DES\AppData\Local\Temp\ccfRue3n.s 			page 201


 8848      6B4C696D 
 8849              	.LASF106:
 8850 1ccf 5F616464 		.ascii	"_add\000"
 8850      00
 8851              	.LASF282:
 8852 1cd4 4F535F45 		.ascii	"OS_ERR_TASK_SUSPEND_PRIO\000"
 8852      52525F54 
 8852      41534B5F 
 8852      53555350 
 8852      454E445F 
 8853              	.LASF472:
 8854 1ced 4F534366 		.ascii	"OSCfg_TickTaskStkSizeRAM\000"
 8854      675F5469 
 8854      636B5461 
 8854      736B5374 
 8854      6B53697A 
 8855              	.LASF7:
 8856 1d06 73686F72 		.ascii	"short unsigned int\000"
 8856      7420756E 
 8856      7369676E 
 8856      65642069 
 8856      6E7400
 8857              	.LASF42:
 8858 1d19 5F5F746D 		.ascii	"__tm_hour\000"
 8858      5F686F75 
 8858      7200
 8859              	.LASF288:
 8860 1d23 4F535F45 		.ascii	"OS_ERR_TLS_NOT_EN\000"
 8860      52525F54 
 8860      4C535F4E 
 8860      4F545F45 
 8860      4E00
 8861              	.LASF264:
 8862 1d35 4F535F45 		.ascii	"OS_ERR_TASK_DEL_IDLE\000"
 8862      52525F54 
 8862      41534B5F 
 8862      44454C5F 
 8862      49444C45 
 8863              	.LASF231:
 8864 1d4a 4F535F45 		.ascii	"OS_ERR_PRIO\000"
 8864      52525F50 
 8864      52494F00 
 8865              	.LASF183:
 8866 1d56 4F535F45 		.ascii	"OS_ERR_INT_Q\000"
 8866      52525F49 
 8866      4E545F51 
 8866      00
 8867              	.LASF477:
 8868 1d63 4F534366 		.ascii	"OSCfg_TmrTaskStkBasePtr\000"
 8868      675F546D 
 8868      72546173 
 8868      6B53746B 
 8868      42617365 
 8869              	.LASF122:
 8870 1d7b 5F6D6273 		.ascii	"_mbsrtowcs_state\000"
 8870      72746F77 
 8870      63735F73 
ARM GAS  C:\Users\EDULU~1.DES\AppData\Local\Temp\ccfRue3n.s 			page 202


 8870      74617465 
 8870      00
 8871              	.LASF276:
 8872 1d8c 4F535F45 		.ascii	"OS_ERR_TASK_RUNNING\000"
 8872      52525F54 
 8872      41534B5F 
 8872      52554E4E 
 8872      494E4700 
 8873              	.LASF359:
 8874 1da0 5072696F 		.ascii	"Prio\000"
 8874      00
 8875              	.LASF215:
 8876 1da5 4F535F45 		.ascii	"OS_ERR_OBJ_TYPE\000"
 8876      52525F4F 
 8876      424A5F54 
 8876      59504500 
 8877              	.LASF362:
 8878 1db5 53656D43 		.ascii	"SemCtr\000"
 8878      747200
 8879              	.LASF261:
 8880 1dbc 4F535F45 		.ascii	"OS_ERR_TASK_CHANGE_PRIO_ISR\000"
 8880      52525F54 
 8880      41534B5F 
 8880      4348414E 
 8880      47455F50 
 8881              	.LASF443:
 8882 1dd8 4F534366 		.ascii	"OSCfg_IdleTaskStkBasePtr\000"
 8882      675F4964 
 8882      6C655461 
 8882      736B5374 
 8882      6B426173 
 8883              	.LASF290:
 8884 1df1 4F535F45 		.ascii	"OS_ERR_TICK_PRIO_INVALID\000"
 8884      52525F54 
 8884      49434B5F 
 8884      5052494F 
 8884      5F494E56 
 8885              	.LASF373:
 8886 1e0a 4F535F52 		.ascii	"OS_RDY_LIST\000"
 8886      44595F4C 
 8886      49535400 
 8887              	.LASF473:
 8888 1e16 4F534366 		.ascii	"OSCfg_TickWheelSize\000"
 8888      675F5469 
 8888      636B5768 
 8888      65656C53 
 8888      697A6500 
 8889              	.LASF50:
 8890 1e2a 5F666E61 		.ascii	"_fnargs\000"
 8890      72677300 
 8891              	.LASF332:
 8892 1e32 4F535F49 		.ascii	"OS_INT_Q\000"
 8892      4E545F51 
 8892      00
 8893              	.LASF48:
 8894 1e3b 5F5F746D 		.ascii	"__tm_isdst\000"
 8894      5F697364 
ARM GAS  C:\Users\EDULU~1.DES\AppData\Local\Temp\ccfRue3n.s 			page 203


 8894      737400
 8895              	.LASF512:
 8896 1e46 705F6E61 		.ascii	"p_name\000"
 8896      6D6500
 8897              	.LASF428:
 8898 1e4d 4F535461 		.ascii	"OSTaskDbgListPtr\000"
 8898      736B4462 
 8898      674C6973 
 8898      74507472 
 8898      00
 8899              	.LASF334:
 8900 1e5e 4F535F53 		.ascii	"OS_SEM\000"
 8900      454D00
 8901              	.LASF423:
 8902 1e65 4F535374 		.ascii	"OSStatTaskCtrRun\000"
 8902      61745461 
 8902      736B4374 
 8902      7252756E 
 8902      00
 8903              	.LASF41:
 8904 1e76 5F5F746D 		.ascii	"__tm_min\000"
 8904      5F6D696E 
 8904      00
 8905              	.LASF398:
 8906 1e7f 5264794D 		.ascii	"RdyMsgPtr\000"
 8906      73675074 
 8906      7200
 8907              	.LASF119:
 8908 1e89 5F676574 		.ascii	"_getdate_err\000"
 8908      64617465 
 8908      5F657272 
 8908      00
 8909              	.LASF296:
 8910 1e96 4F535F45 		.ascii	"OS_ERR_TIME_GET_ISR\000"
 8910      52525F54 
 8910      494D455F 
 8910      4745545F 
 8910      49535200 
 8911              	.LASF245:
 8912 1eaa 4F535F45 		.ascii	"OS_ERR_SCHED_LOCK_ISR\000"
 8912      52525F53 
 8912      43484544 
 8912      5F4C4F43 
 8912      4B5F4953 
 8913              		.ident	"GCC: (GNU Tools for Arm Embedded Processors 8-2018-q4-major) 8.2.1 20181213 (release) [gcc
