ARM GAS  C:\Users\EDULU~1.DES\AppData\Local\Temp\ccUrjA5x.s 			page 1


   1              		.cpu cortex-m0
   2              		.eabi_attribute 20, 1
   3              		.eabi_attribute 21, 1
   4              		.eabi_attribute 23, 3
   5              		.eabi_attribute 24, 1
   6              		.eabi_attribute 25, 1
   7              		.eabi_attribute 26, 1
   8              		.eabi_attribute 30, 1
   9              		.eabi_attribute 34, 0
  10              		.eabi_attribute 18, 4
  11              		.file	"os_time.c"
  12              		.text
  13              	.Ltext0:
  14              		.cfi_sections	.debug_frame
  15              		.section	.text.OSTimeDly,"ax",%progbits
  16              		.align	1
  17              		.global	OSTimeDly
  18              		.arch armv6s-m
  19              		.syntax unified
  20              		.code	16
  21              		.thumb_func
  22              		.fpu softvfp
  23              		.type	OSTimeDly, %function
  24              	OSTimeDly:
  25              	.LVL0:
  26              	.LFB3:
  27              		.file 1 "..\\..\\..\\..\\..\\..\\Software\\uCOS-III\\Source\\os_time.c"
   1:..\..\..\..\..\..\Software\uCOS-III\Source/os_time.c **** /*
   2:..\..\..\..\..\..\Software\uCOS-III\Source/os_time.c **** ***************************************************************************************************
   3:..\..\..\..\..\..\Software\uCOS-III\Source/os_time.c **** *                                                      uC/OS-III
   4:..\..\..\..\..\..\Software\uCOS-III\Source/os_time.c **** *                                                 The Real-Time Kernel
   5:..\..\..\..\..\..\Software\uCOS-III\Source/os_time.c **** *
   6:..\..\..\..\..\..\Software\uCOS-III\Source/os_time.c **** *                                  (c) Copyright 2009-2012; Micrium, Inc.; Weston, FL
   7:..\..\..\..\..\..\Software\uCOS-III\Source/os_time.c **** *                           All rights reserved.  Protected by international copyright laws.
   8:..\..\..\..\..\..\Software\uCOS-III\Source/os_time.c **** *
   9:..\..\..\..\..\..\Software\uCOS-III\Source/os_time.c **** *                                                   TIME MANAGEMENT
  10:..\..\..\..\..\..\Software\uCOS-III\Source/os_time.c **** *
  11:..\..\..\..\..\..\Software\uCOS-III\Source/os_time.c **** * File    : OS_TIME.C
  12:..\..\..\..\..\..\Software\uCOS-III\Source/os_time.c **** * By      : JJL
  13:..\..\..\..\..\..\Software\uCOS-III\Source/os_time.c **** * Version : V3.03.01
  14:..\..\..\..\..\..\Software\uCOS-III\Source/os_time.c **** *
  15:..\..\..\..\..\..\Software\uCOS-III\Source/os_time.c **** * LICENSING TERMS:
  16:..\..\..\..\..\..\Software\uCOS-III\Source/os_time.c **** * ---------------
  17:..\..\..\..\..\..\Software\uCOS-III\Source/os_time.c **** *           uC/OS-III is provided in source form for FREE short-term evaluation, for educational us
  18:..\..\..\..\..\..\Software\uCOS-III\Source/os_time.c **** *           for peaceful research.  If you plan or intend to use uC/OS-III in a commercial applicat
  19:..\..\..\..\..\..\Software\uCOS-III\Source/os_time.c **** *           product then, you need to contact Micrium to properly license uC/OS-III for its use in 
  20:..\..\..\..\..\..\Software\uCOS-III\Source/os_time.c **** *           application/product.   We provide ALL the source code for your convenience and to help 
  21:..\..\..\..\..\..\Software\uCOS-III\Source/os_time.c **** *           experience uC/OS-III.  The fact that the source is provided does NOT mean that you can 
  22:..\..\..\..\..\..\Software\uCOS-III\Source/os_time.c **** *           it commercially without paying a licensing fee.
  23:..\..\..\..\..\..\Software\uCOS-III\Source/os_time.c **** *
  24:..\..\..\..\..\..\Software\uCOS-III\Source/os_time.c **** *           Knowledge of the source code may NOT be used to develop a similar product.
  25:..\..\..\..\..\..\Software\uCOS-III\Source/os_time.c **** *
  26:..\..\..\..\..\..\Software\uCOS-III\Source/os_time.c **** *           Please help us continue to provide the embedded community with the finest software avai
  27:..\..\..\..\..\..\Software\uCOS-III\Source/os_time.c **** *           Your honesty is greatly appreciated.
  28:..\..\..\..\..\..\Software\uCOS-III\Source/os_time.c **** *
  29:..\..\..\..\..\..\Software\uCOS-III\Source/os_time.c **** *           You can contact us at www.micrium.com, or by phone at +1 (954) 217-2036.
  30:..\..\..\..\..\..\Software\uCOS-III\Source/os_time.c **** ***************************************************************************************************
ARM GAS  C:\Users\EDULU~1.DES\AppData\Local\Temp\ccUrjA5x.s 			page 2


  31:..\..\..\..\..\..\Software\uCOS-III\Source/os_time.c **** */
  32:..\..\..\..\..\..\Software\uCOS-III\Source/os_time.c **** 
  33:..\..\..\..\..\..\Software\uCOS-III\Source/os_time.c **** #define  MICRIUM_SOURCE
  34:..\..\..\..\..\..\Software\uCOS-III\Source/os_time.c **** #include <os.h>
  35:..\..\..\..\..\..\Software\uCOS-III\Source/os_time.c **** 
  36:..\..\..\..\..\..\Software\uCOS-III\Source/os_time.c **** #ifdef VSC_INCLUDE_SOURCE_FILE_NAMES
  37:..\..\..\..\..\..\Software\uCOS-III\Source/os_time.c **** const  CPU_CHAR  *os_time__c = "$Id: $";
  38:..\..\..\..\..\..\Software\uCOS-III\Source/os_time.c **** #endif
  39:..\..\..\..\..\..\Software\uCOS-III\Source/os_time.c **** 
  40:..\..\..\..\..\..\Software\uCOS-III\Source/os_time.c **** /*
  41:..\..\..\..\..\..\Software\uCOS-III\Source/os_time.c **** ***************************************************************************************************
  42:..\..\..\..\..\..\Software\uCOS-III\Source/os_time.c **** *                                                  DELAY TASK 'n' TICKS
  43:..\..\..\..\..\..\Software\uCOS-III\Source/os_time.c **** *
  44:..\..\..\..\..\..\Software\uCOS-III\Source/os_time.c **** * Description: This function is called to delay execution of the currently running task until the s
  45:..\..\..\..\..\..\Software\uCOS-III\Source/os_time.c **** *              system ticks expires.  This, of course, directly equates to delaying the current tas
  46:..\..\..\..\..\..\Software\uCOS-III\Source/os_time.c **** *              expire.  No delay will result if the specified delay is 0.  If the specified delay i
  47:..\..\..\..\..\..\Software\uCOS-III\Source/os_time.c **** *              then, a context switch will result.
  48:..\..\..\..\..\..\Software\uCOS-III\Source/os_time.c **** *
  49:..\..\..\..\..\..\Software\uCOS-III\Source/os_time.c **** * Arguments  : dly       is a value in 'clock ticks' that the task will either delay for or, the ta
  50:..\..\..\..\..\..\Software\uCOS-III\Source/os_time.c **** *                        of the tick counter (OSTickCtr).  Note that specifying 0 means the task is
  51:..\..\..\..\..\..\Software\uCOS-III\Source/os_time.c **** *
  52:..\..\..\..\..\..\Software\uCOS-III\Source/os_time.c **** *                        depending on the option argument, the task will wake up when OSTickCtr rea
  53:..\..\..\..\..\..\Software\uCOS-III\Source/os_time.c **** *
  54:..\..\..\..\..\..\Software\uCOS-III\Source/os_time.c **** *                            OS_OPT_TIME_DLY      : OSTickCtr + dly
  55:..\..\..\..\..\..\Software\uCOS-III\Source/os_time.c **** *                            OS_OPT_TIME_TIMEOUT  : OSTickCtr + dly
  56:..\..\..\..\..\..\Software\uCOS-III\Source/os_time.c **** *                            OS_OPT_TIME_MATCH    : dly
  57:..\..\..\..\..\..\Software\uCOS-III\Source/os_time.c **** *                            OS_OPT_TIME_PERIODIC : OSTCBCurPtr->TickCtrPrev + dly
  58:..\..\..\..\..\..\Software\uCOS-III\Source/os_time.c **** *
  59:..\..\..\..\..\..\Software\uCOS-III\Source/os_time.c **** *              opt       specifies whether 'dly' represents absolute or relative time; default opti
  60:..\..\..\..\..\..\Software\uCOS-III\Source/os_time.c **** *
  61:..\..\..\..\..\..\Software\uCOS-III\Source/os_time.c **** *                        *** OS_OPT_TIME_DLY        specifies a relative time from the current valu
  62:..\..\..\..\..\..\Software\uCOS-III\Source/os_time.c **** *                            OS_OPT_TIME_TIMEOUT    same as OS_OPT_TIME_DLY.
  63:..\..\..\..\..\..\Software\uCOS-III\Source/os_time.c **** *                            OS_OPT_TIME_MATCH      indicates that 'dly' specifies the absolute val
  64:..\..\..\..\..\..\Software\uCOS-III\Source/os_time.c **** *                                                   must reach before the task will be resumed.
  65:..\..\..\..\..\..\Software\uCOS-III\Source/os_time.c **** *                            OS_OPT_TIME_PERIODIC   indicates that 'dly' specifies the periodic val
  66:..\..\..\..\..\..\Software\uCOS-III\Source/os_time.c **** *                                                   must reach before the task will be resumed.
  67:..\..\..\..\..\..\Software\uCOS-III\Source/os_time.c **** *
  68:..\..\..\..\..\..\Software\uCOS-III\Source/os_time.c **** *              p_err     is a pointer to a variable that will contain an error code from this call.
  69:..\..\..\..\..\..\Software\uCOS-III\Source/os_time.c **** *
  70:..\..\..\..\..\..\Software\uCOS-III\Source/os_time.c **** *                            OS_ERR_NONE            the call was successful and the delay occurred.
  71:..\..\..\..\..\..\Software\uCOS-III\Source/os_time.c **** *                            OS_ERR_OPT_INVALID     if you specified an invalid option for this fun
  72:..\..\..\..\..\..\Software\uCOS-III\Source/os_time.c **** *                            OS_ERR_SCHED_LOCKED    can't delay when the scheduler is locked.
  73:..\..\..\..\..\..\Software\uCOS-III\Source/os_time.c **** *                            OS_ERR_TIME_DLY_ISR    if you called this function from an ISR.
  74:..\..\..\..\..\..\Software\uCOS-III\Source/os_time.c **** *                            OS_ERR_TIME_ZERO_DLY   if you specified a delay of zero.
  75:..\..\..\..\..\..\Software\uCOS-III\Source/os_time.c **** *
  76:..\..\..\..\..\..\Software\uCOS-III\Source/os_time.c **** * Returns    : none
  77:..\..\..\..\..\..\Software\uCOS-III\Source/os_time.c **** ***************************************************************************************************
  78:..\..\..\..\..\..\Software\uCOS-III\Source/os_time.c **** */
  79:..\..\..\..\..\..\Software\uCOS-III\Source/os_time.c **** 
  80:..\..\..\..\..\..\Software\uCOS-III\Source/os_time.c **** void  OSTimeDly (OS_TICK   dly,
  81:..\..\..\..\..\..\Software\uCOS-III\Source/os_time.c ****                  OS_OPT    opt,
  82:..\..\..\..\..\..\Software\uCOS-III\Source/os_time.c ****                  OS_ERR   *p_err)
  83:..\..\..\..\..\..\Software\uCOS-III\Source/os_time.c **** {
  28              		.loc 1 83 1 view -0
  29              		.cfi_startproc
  30              		@ args = 0, pretend = 0, frame = 0
  31              		@ frame_needed = 0, uses_anonymous_args = 0
ARM GAS  C:\Users\EDULU~1.DES\AppData\Local\Temp\ccUrjA5x.s 			page 3


  32              		.loc 1 83 1 is_stmt 0 view .LVU1
  33 0000 F8B5     		push	{r3, r4, r5, r6, r7, lr}
  34              		.cfi_def_cfa_offset 24
  35              		.cfi_offset 3, -24
  36              		.cfi_offset 4, -20
  37              		.cfi_offset 5, -16
  38              		.cfi_offset 6, -12
  39              		.cfi_offset 7, -8
  40              		.cfi_offset 14, -4
  41 0002 0600     		movs	r6, r0
  42 0004 0C00     		movs	r4, r1
  43 0006 1500     		movs	r5, r2
  84:..\..\..\..\..\..\Software\uCOS-III\Source/os_time.c ****     CPU_SR_ALLOC();
  44              		.loc 1 84 5 is_stmt 1 view .LVU2
  45              	.LVL1:
  85:..\..\..\..\..\..\Software\uCOS-III\Source/os_time.c **** 
  86:..\..\..\..\..\..\Software\uCOS-III\Source/os_time.c **** 
  87:..\..\..\..\..\..\Software\uCOS-III\Source/os_time.c **** 
  88:..\..\..\..\..\..\Software\uCOS-III\Source/os_time.c **** #ifdef OS_SAFETY_CRITICAL
  89:..\..\..\..\..\..\Software\uCOS-III\Source/os_time.c ****     if (p_err == (OS_ERR *)0) {
  90:..\..\..\..\..\..\Software\uCOS-III\Source/os_time.c ****         OS_SAFETY_CRITICAL_EXCEPTION();
  91:..\..\..\..\..\..\Software\uCOS-III\Source/os_time.c ****         return;
  92:..\..\..\..\..\..\Software\uCOS-III\Source/os_time.c ****     }
  93:..\..\..\..\..\..\Software\uCOS-III\Source/os_time.c **** #endif
  94:..\..\..\..\..\..\Software\uCOS-III\Source/os_time.c **** 
  95:..\..\..\..\..\..\Software\uCOS-III\Source/os_time.c **** #if OS_CFG_CALLED_FROM_ISR_CHK_EN > 0u
  96:..\..\..\..\..\..\Software\uCOS-III\Source/os_time.c ****     if (OSIntNestingCtr > (OS_NESTING_CTR)0u) {             /* Not allowed to call from an ISR     
  46              		.loc 1 96 5 view .LVU3
  47              		.loc 1 96 25 is_stmt 0 view .LVU4
  48 0008 224B     		ldr	r3, .L15
  49 000a 1B78     		ldrb	r3, [r3]
  50              		.loc 1 96 8 view .LVU5
  51 000c 002B     		cmp	r3, #0
  52 000e 28D1     		bne	.L10
  97:..\..\..\..\..\..\Software\uCOS-III\Source/os_time.c ****        *p_err = OS_ERR_TIME_DLY_ISR;
  98:..\..\..\..\..\..\Software\uCOS-III\Source/os_time.c ****         return;
  99:..\..\..\..\..\..\Software\uCOS-III\Source/os_time.c ****     }
 100:..\..\..\..\..\..\Software\uCOS-III\Source/os_time.c **** #endif
 101:..\..\..\..\..\..\Software\uCOS-III\Source/os_time.c **** 
 102:..\..\..\..\..\..\Software\uCOS-III\Source/os_time.c ****     if (OSSchedLockNestingCtr > (OS_NESTING_CTR)0u) {       /* Can't delay when the scheduler is lo
  53              		.loc 1 102 5 is_stmt 1 view .LVU6
  54              		.loc 1 102 31 is_stmt 0 view .LVU7
  55 0010 214B     		ldr	r3, .L15+4
  56 0012 1B78     		ldrb	r3, [r3]
  57              		.loc 1 102 8 view .LVU8
  58 0014 002B     		cmp	r3, #0
  59 0016 27D1     		bne	.L11
 103:..\..\..\..\..\..\Software\uCOS-III\Source/os_time.c ****        *p_err = OS_ERR_SCHED_LOCKED;
 104:..\..\..\..\..\..\Software\uCOS-III\Source/os_time.c ****         return;
 105:..\..\..\..\..\..\Software\uCOS-III\Source/os_time.c ****     }
 106:..\..\..\..\..\..\Software\uCOS-III\Source/os_time.c **** 
 107:..\..\..\..\..\..\Software\uCOS-III\Source/os_time.c ****     switch (opt) {
  60              		.loc 1 107 5 is_stmt 1 view .LVU9
  61 0018 0229     		cmp	r1, #2
  62 001a 2FD0     		beq	.L5
  63 001c 27D9     		bls	.L12
  64 001e 0429     		cmp	r1, #4
ARM GAS  C:\Users\EDULU~1.DES\AppData\Local\Temp\ccUrjA5x.s 			page 4


  65 0020 2AD1     		bne	.L13
  66              	.L8:
 108:..\..\..\..\..\..\Software\uCOS-III\Source/os_time.c ****         case OS_OPT_TIME_DLY:
 109:..\..\..\..\..\..\Software\uCOS-III\Source/os_time.c ****         case OS_OPT_TIME_TIMEOUT:
 110:..\..\..\..\..\..\Software\uCOS-III\Source/os_time.c ****         case OS_OPT_TIME_PERIODIC:
 111:..\..\..\..\..\..\Software\uCOS-III\Source/os_time.c ****              if (dly == (OS_TICK)0u) {                      /* 0 means no delay!                   
 112:..\..\..\..\..\..\Software\uCOS-III\Source/os_time.c ****                 *p_err = OS_ERR_TIME_ZERO_DLY;
 113:..\..\..\..\..\..\Software\uCOS-III\Source/os_time.c ****                  return;
 114:..\..\..\..\..\..\Software\uCOS-III\Source/os_time.c ****              }
 115:..\..\..\..\..\..\Software\uCOS-III\Source/os_time.c ****              break;
 116:..\..\..\..\..\..\Software\uCOS-III\Source/os_time.c **** 
 117:..\..\..\..\..\..\Software\uCOS-III\Source/os_time.c ****         case OS_OPT_TIME_MATCH:
 118:..\..\..\..\..\..\Software\uCOS-III\Source/os_time.c ****              break;
 119:..\..\..\..\..\..\Software\uCOS-III\Source/os_time.c **** 
 120:..\..\..\..\..\..\Software\uCOS-III\Source/os_time.c ****         default:
 121:..\..\..\..\..\..\Software\uCOS-III\Source/os_time.c ****             *p_err = OS_ERR_OPT_INVALID;
 122:..\..\..\..\..\..\Software\uCOS-III\Source/os_time.c ****              return;
 123:..\..\..\..\..\..\Software\uCOS-III\Source/os_time.c ****     }
 124:..\..\..\..\..\..\Software\uCOS-III\Source/os_time.c **** 
 125:..\..\..\..\..\..\Software\uCOS-III\Source/os_time.c ****     OS_CRITICAL_ENTER();
  67              		.loc 1 125 5 view .LVU10
  68              		.loc 1 125 5 view .LVU11
  69              		.loc 1 125 5 view .LVU12
  70 0022 FFF7FEFF 		bl	CPU_SR_Save
  71              	.LVL2:
  72              		.loc 1 125 5 is_stmt 0 view .LVU13
  73 0026 0700     		movs	r7, r0
  74              	.LVL3:
  75              		.loc 1 125 5 is_stmt 1 view .LVU14
  76 0028 FFF7FEFF 		bl	CPU_IntDisMeasStart
  77              	.LVL4:
 126:..\..\..\..\..\..\Software\uCOS-III\Source/os_time.c ****     OSTCBCurPtr->TaskState = OS_TASK_STATE_DLY;
  78              		.loc 1 126 5 view .LVU15
  79              		.loc 1 126 16 is_stmt 0 view .LVU16
  80 002c 1B4B     		ldr	r3, .L15+8
  81 002e 1868     		ldr	r0, [r3]
  82              		.loc 1 126 28 view .LVU17
  83 0030 3623     		movs	r3, #54
  84 0032 0122     		movs	r2, #1
  85 0034 C254     		strb	r2, [r0, r3]
 127:..\..\..\..\..\..\Software\uCOS-III\Source/os_time.c ****     OS_TickListInsert(OSTCBCurPtr,
  86              		.loc 1 127 5 is_stmt 1 view .LVU18
  87 0036 2B00     		movs	r3, r5
  88 0038 2200     		movs	r2, r4
  89 003a 3100     		movs	r1, r6
  90 003c FFF7FEFF 		bl	OS_TickListInsert
  91              	.LVL5:
 128:..\..\..\..\..\..\Software\uCOS-III\Source/os_time.c ****                       dly,
 129:..\..\..\..\..\..\Software\uCOS-III\Source/os_time.c ****                       opt,
 130:..\..\..\..\..\..\Software\uCOS-III\Source/os_time.c ****                       p_err);
 131:..\..\..\..\..\..\Software\uCOS-III\Source/os_time.c ****     if (*p_err != OS_ERR_NONE) {
  92              		.loc 1 131 5 view .LVU19
  93              		.loc 1 131 9 is_stmt 0 view .LVU20
  94 0040 2B88     		ldrh	r3, [r5]
  95              		.loc 1 131 8 view .LVU21
  96 0042 002B     		cmp	r3, #0
  97 0044 1FD1     		bne	.L14
ARM GAS  C:\Users\EDULU~1.DES\AppData\Local\Temp\ccUrjA5x.s 			page 5


 132:..\..\..\..\..\..\Software\uCOS-III\Source/os_time.c ****          OS_CRITICAL_EXIT_NO_SCHED();
 133:..\..\..\..\..\..\Software\uCOS-III\Source/os_time.c ****          return;
 134:..\..\..\..\..\..\Software\uCOS-III\Source/os_time.c ****     }
 135:..\..\..\..\..\..\Software\uCOS-III\Source/os_time.c ****     OS_RdyListRemove(OSTCBCurPtr);                          /* Remove current task from ready list 
  98              		.loc 1 135 5 is_stmt 1 view .LVU22
  99 0046 154B     		ldr	r3, .L15+8
 100 0048 1868     		ldr	r0, [r3]
 101 004a FFF7FEFF 		bl	OS_RdyListRemove
 102              	.LVL6:
 136:..\..\..\..\..\..\Software\uCOS-III\Source/os_time.c ****     OS_CRITICAL_EXIT_NO_SCHED();
 103              		.loc 1 136 5 view .LVU23
 104              		.loc 1 136 5 view .LVU24
 105 004e FFF7FEFF 		bl	CPU_IntDisMeasStop
 106              	.LVL7:
 107              		.loc 1 136 5 view .LVU25
 108              		.loc 1 136 5 view .LVU26
 109 0052 3800     		movs	r0, r7
 110 0054 FFF7FEFF 		bl	CPU_SR_Restore
 111              	.LVL8:
 137:..\..\..\..\..\..\Software\uCOS-III\Source/os_time.c ****     OSSched();                                              /* Find next task to run!              
 112              		.loc 1 137 5 view .LVU27
 113 0058 FFF7FEFF 		bl	OSSched
 114              	.LVL9:
 138:..\..\..\..\..\..\Software\uCOS-III\Source/os_time.c ****    *p_err = OS_ERR_NONE;
 115              		.loc 1 138 4 view .LVU28
 116              		.loc 1 138 11 is_stmt 0 view .LVU29
 117 005c 0023     		movs	r3, #0
 118 005e 2B80     		strh	r3, [r5]
 119 0060 01E0     		b	.L1
 120              	.LVL10:
 121              	.L10:
  97:..\..\..\..\..\..\Software\uCOS-III\Source/os_time.c ****         return;
 122              		.loc 1 97 8 is_stmt 1 view .LVU30
  97:..\..\..\..\..\..\Software\uCOS-III\Source/os_time.c ****         return;
 123              		.loc 1 97 15 is_stmt 0 view .LVU31
 124 0062 0F4B     		ldr	r3, .L15+12
 125 0064 1380     		strh	r3, [r2]
  98:..\..\..\..\..\..\Software\uCOS-III\Source/os_time.c ****     }
 126              		.loc 1 98 9 is_stmt 1 view .LVU32
 127              	.LVL11:
 128              	.L1:
 139:..\..\..\..\..\..\Software\uCOS-III\Source/os_time.c **** }
 129              		.loc 1 139 1 is_stmt 0 view .LVU33
 130              		@ sp needed
 131              	.LVL12:
 132              	.LVL13:
 133              		.loc 1 139 1 view .LVU34
 134 0066 F8BD     		pop	{r3, r4, r5, r6, r7, pc}
 135              	.LVL14:
 136              	.L11:
 103:..\..\..\..\..\..\Software\uCOS-III\Source/os_time.c ****         return;
 137              		.loc 1 103 8 is_stmt 1 view .LVU35
 103:..\..\..\..\..\..\Software\uCOS-III\Source/os_time.c ****         return;
 138              		.loc 1 103 15 is_stmt 0 view .LVU36
 139 0068 0E4B     		ldr	r3, .L15+16
 140 006a 1380     		strh	r3, [r2]
 104:..\..\..\..\..\..\Software\uCOS-III\Source/os_time.c ****     }
ARM GAS  C:\Users\EDULU~1.DES\AppData\Local\Temp\ccUrjA5x.s 			page 6


 141              		.loc 1 104 9 is_stmt 1 view .LVU37
 142 006c FBE7     		b	.L1
 143              	.L12:
 107:..\..\..\..\..\..\Software\uCOS-III\Source/os_time.c ****         case OS_OPT_TIME_DLY:
 144              		.loc 1 107 5 is_stmt 0 view .LVU38
 145 006e 0029     		cmp	r1, #0
 146 0070 04D0     		beq	.L5
 147              	.L7:
 121:..\..\..\..\..\..\Software\uCOS-III\Source/os_time.c ****              return;
 148              		.loc 1 121 13 is_stmt 1 view .LVU39
 121:..\..\..\..\..\..\Software\uCOS-III\Source/os_time.c ****              return;
 149              		.loc 1 121 20 is_stmt 0 view .LVU40
 150 0072 0D4B     		ldr	r3, .L15+20
 151 0074 2B80     		strh	r3, [r5]
 122:..\..\..\..\..\..\Software\uCOS-III\Source/os_time.c ****     }
 152              		.loc 1 122 14 is_stmt 1 view .LVU41
 153 0076 F6E7     		b	.L1
 154              	.L13:
 107:..\..\..\..\..\..\Software\uCOS-III\Source/os_time.c ****         case OS_OPT_TIME_DLY:
 155              		.loc 1 107 5 is_stmt 0 view .LVU42
 156 0078 0829     		cmp	r1, #8
 157 007a FAD1     		bne	.L7
 158              	.L5:
 111:..\..\..\..\..\..\Software\uCOS-III\Source/os_time.c ****                 *p_err = OS_ERR_TIME_ZERO_DLY;
 159              		.loc 1 111 14 is_stmt 1 view .LVU43
 111:..\..\..\..\..\..\Software\uCOS-III\Source/os_time.c ****                 *p_err = OS_ERR_TIME_ZERO_DLY;
 160              		.loc 1 111 17 is_stmt 0 view .LVU44
 161 007c 002E     		cmp	r6, #0
 162 007e D0D1     		bne	.L8
 112:..\..\..\..\..\..\Software\uCOS-III\Source/os_time.c ****                  return;
 163              		.loc 1 112 17 is_stmt 1 view .LVU45
 112:..\..\..\..\..\..\Software\uCOS-III\Source/os_time.c ****                  return;
 164              		.loc 1 112 24 is_stmt 0 view .LVU46
 165 0080 0A4B     		ldr	r3, .L15+24
 166 0082 2B80     		strh	r3, [r5]
 113:..\..\..\..\..\..\Software\uCOS-III\Source/os_time.c ****              }
 167              		.loc 1 113 18 is_stmt 1 view .LVU47
 168 0084 EFE7     		b	.L1
 169              	.LVL15:
 170              	.L14:
 132:..\..\..\..\..\..\Software\uCOS-III\Source/os_time.c ****          return;
 171              		.loc 1 132 10 view .LVU48
 132:..\..\..\..\..\..\Software\uCOS-III\Source/os_time.c ****          return;
 172              		.loc 1 132 10 view .LVU49
 173 0086 FFF7FEFF 		bl	CPU_IntDisMeasStop
 174              	.LVL16:
 132:..\..\..\..\..\..\Software\uCOS-III\Source/os_time.c ****          return;
 175              		.loc 1 132 10 view .LVU50
 132:..\..\..\..\..\..\Software\uCOS-III\Source/os_time.c ****          return;
 176              		.loc 1 132 10 view .LVU51
 177 008a 3800     		movs	r0, r7
 178 008c FFF7FEFF 		bl	CPU_SR_Restore
 179              	.LVL17:
 133:..\..\..\..\..\..\Software\uCOS-III\Source/os_time.c ****     }
 180              		.loc 1 133 10 view .LVU52
 181 0090 E9E7     		b	.L1
 182              	.L16:
ARM GAS  C:\Users\EDULU~1.DES\AppData\Local\Temp\ccUrjA5x.s 			page 7


 183 0092 C046     		.align	2
 184              	.L15:
 185 0094 00000000 		.word	OSIntNestingCtr
 186 0098 00000000 		.word	OSSchedLockNestingCtr
 187 009c 00000000 		.word	OSTCBCurPtr
 188 00a0 75720000 		.word	29301
 189 00a4 636D0000 		.word	28003
 190 00a8 255E0000 		.word	24101
 191 00ac 7E720000 		.word	29310
 192              		.cfi_endproc
 193              	.LFE3:
 194              		.size	OSTimeDly, .-OSTimeDly
 195              		.global	__aeabi_uidiv
 196              		.section	.text.OSTimeDlyHMSM,"ax",%progbits
 197              		.align	1
 198              		.global	OSTimeDlyHMSM
 199              		.syntax unified
 200              		.code	16
 201              		.thumb_func
 202              		.fpu softvfp
 203              		.type	OSTimeDlyHMSM, %function
 204              	OSTimeDlyHMSM:
 205              	.LVL18:
 206              	.LFB4:
 140:..\..\..\..\..\..\Software\uCOS-III\Source/os_time.c **** 
 141:..\..\..\..\..\..\Software\uCOS-III\Source/os_time.c **** /*$PAGE*/
 142:..\..\..\..\..\..\Software\uCOS-III\Source/os_time.c **** /*
 143:..\..\..\..\..\..\Software\uCOS-III\Source/os_time.c **** ***************************************************************************************************
 144:..\..\..\..\..\..\Software\uCOS-III\Source/os_time.c **** *                                             DELAY TASK FOR SPECIFIED TIME
 145:..\..\..\..\..\..\Software\uCOS-III\Source/os_time.c **** *
 146:..\..\..\..\..\..\Software\uCOS-III\Source/os_time.c **** * Description: This function is called to delay execution of the currently running task until some 
 147:..\..\..\..\..\..\Software\uCOS-III\Source/os_time.c **** *              call allows you to specify the delay time in HOURS, MINUTES, SECONDS and MILLISECOND
 148:..\..\..\..\..\..\Software\uCOS-III\Source/os_time.c **** *
 149:..\..\..\..\..\..\Software\uCOS-III\Source/os_time.c **** * Arguments  : hours     specifies the number of hours that the task will be delayed (max. is 999 i
 150:..\..\..\..\..\..\Software\uCOS-III\Source/os_time.c **** *                        1000 Hz or less otherwise, a higher value would overflow a 32-bit unsigned
 151:..\..\..\..\..\..\Software\uCOS-III\Source/os_time.c **** *
 152:..\..\..\..\..\..\Software\uCOS-III\Source/os_time.c **** *              minutes   specifies the number of minutes (max. 59 if 'opt' is OS_OPT_TIME_HMSM_STRI
 153:..\..\..\..\..\..\Software\uCOS-III\Source/os_time.c **** *
 154:..\..\..\..\..\..\Software\uCOS-III\Source/os_time.c **** *              seconds   specifies the number of seconds (max. 59 if 'opt' is OS_OPT_TIME_HMSM_STRI
 155:..\..\..\..\..\..\Software\uCOS-III\Source/os_time.c **** *
 156:..\..\..\..\..\..\Software\uCOS-III\Source/os_time.c **** *              milli     specifies the number of milliseconds (max. 999 if 'opt' is OS_OPT_TIME_HMS
 157:..\..\..\..\..\..\Software\uCOS-III\Source/os_time.c **** *
 158:..\..\..\..\..\..\Software\uCOS-III\Source/os_time.c **** *              opt       specifies time delay bit-field options logically OR'd; default options mar
 159:..\..\..\..\..\..\Software\uCOS-III\Source/os_time.c **** *
 160:..\..\..\..\..\..\Software\uCOS-III\Source/os_time.c **** *                        *** OS_OPT_TIME_DLY        specifies a relative time from the current valu
 161:..\..\..\..\..\..\Software\uCOS-III\Source/os_time.c **** *                            OS_OPT_TIME_TIMEOUT    same as OS_OPT_TIME_DLY.
 162:..\..\..\..\..\..\Software\uCOS-III\Source/os_time.c **** *                            OS_OPT_TIME_MATCH      indicates that the delay specifies the absolute
 163:..\..\..\..\..\..\Software\uCOS-III\Source/os_time.c **** *                                                   must reach before the task will be resumed.
 164:..\..\..\..\..\..\Software\uCOS-III\Source/os_time.c **** *                            OS_OPT_TIME_PERIODIC   indicates that the delay specifies the periodic
 165:..\..\..\..\..\..\Software\uCOS-III\Source/os_time.c **** *                                                   must reach before the task will be resumed.
 166:..\..\..\..\..\..\Software\uCOS-III\Source/os_time.c **** *
 167:..\..\..\..\..\..\Software\uCOS-III\Source/os_time.c **** *                        *** OS_OPT_TIME_HMSM_STRICT            strictly allow only hours        (0
 168:..\..\..\..\..\..\Software\uCOS-III\Source/os_time.c **** *                                                                                   minutes      (0
 169:..\..\..\..\..\..\Software\uCOS-III\Source/os_time.c **** *                                                                                   seconds      (0
 170:..\..\..\..\..\..\Software\uCOS-III\Source/os_time.c **** *                                                                                   milliseconds (0
 171:..\..\..\..\..\..\Software\uCOS-III\Source/os_time.c **** *                            OS_OPT_TIME_HMSM_NON_STRICT        allow any value of  hours        (0
 172:..\..\..\..\..\..\Software\uCOS-III\Source/os_time.c **** *                                                                                   minutes      (0
ARM GAS  C:\Users\EDULU~1.DES\AppData\Local\Temp\ccUrjA5x.s 			page 8


 173:..\..\..\..\..\..\Software\uCOS-III\Source/os_time.c **** *                                                                                   seconds      (0
 174:..\..\..\..\..\..\Software\uCOS-III\Source/os_time.c **** *                                                                                   milliseconds (0
 175:..\..\..\..\..\..\Software\uCOS-III\Source/os_time.c **** *
 176:..\..\..\..\..\..\Software\uCOS-III\Source/os_time.c **** *              p_err     is a pointer to a variable that will receive an error code from this call.
 177:..\..\..\..\..\..\Software\uCOS-III\Source/os_time.c **** *
 178:..\..\..\..\..\..\Software\uCOS-III\Source/os_time.c **** *                            OS_ERR_NONE                        If the function returns from the de
 179:..\..\..\..\..\..\Software\uCOS-III\Source/os_time.c **** *                            OS_ERR_OPT_INVALID                 If you specified an invalid option 
 180:..\..\..\..\..\..\Software\uCOS-III\Source/os_time.c **** *                            OS_ERR_SCHED_LOCKED                Can't delay when the scheduler is l
 181:..\..\..\..\..\..\Software\uCOS-III\Source/os_time.c **** *                            OS_ERR_TIME_DLY_ISR                If called from an ISR
 182:..\..\..\..\..\..\Software\uCOS-III\Source/os_time.c **** *                            OS_ERR_TIME_INVALID_HOURS          If you didn't specify a valid value
 183:..\..\..\..\..\..\Software\uCOS-III\Source/os_time.c **** *                            OS_ERR_TIME_INVALID_MINUTES        If you didn't specify a valid value
 184:..\..\..\..\..\..\Software\uCOS-III\Source/os_time.c **** *                            OS_ERR_TIME_INVALID_SECONDS        If you didn't specify a valid value
 185:..\..\..\..\..\..\Software\uCOS-III\Source/os_time.c **** *                            OS_ERR_TIME_INVALID_MILLISECONDS   If you didn't specify a valid value
 186:..\..\..\..\..\..\Software\uCOS-III\Source/os_time.c **** *                            OS_ERR_TIME_ZERO_DLY               If hours, minutes, seconds and mill
 187:..\..\..\..\..\..\Software\uCOS-III\Source/os_time.c **** *
 188:..\..\..\..\..\..\Software\uCOS-III\Source/os_time.c **** * Returns    : none
 189:..\..\..\..\..\..\Software\uCOS-III\Source/os_time.c **** *
 190:..\..\..\..\..\..\Software\uCOS-III\Source/os_time.c **** * Note(s)    : 1) The resolution on the milliseconds depends on the tick rate.  For example, you ca
 191:..\..\..\..\..\..\Software\uCOS-III\Source/os_time.c **** *                 if the ticker interrupts every 100 mS.  In this case, the delay would be set to 0
 192:..\..\..\..\..\..\Software\uCOS-III\Source/os_time.c **** *                 is rounded to the nearest tick.
 193:..\..\..\..\..\..\Software\uCOS-III\Source/os_time.c **** *
 194:..\..\..\..\..\..\Software\uCOS-III\Source/os_time.c **** *              2) Although this function allows you to delay a task for many, many hours, it's not 
 195:..\..\..\..\..\..\Software\uCOS-III\Source/os_time.c **** *                 a task to sleep for that long.
 196:..\..\..\..\..\..\Software\uCOS-III\Source/os_time.c **** ***************************************************************************************************
 197:..\..\..\..\..\..\Software\uCOS-III\Source/os_time.c **** */
 198:..\..\..\..\..\..\Software\uCOS-III\Source/os_time.c **** 
 199:..\..\..\..\..\..\Software\uCOS-III\Source/os_time.c **** #if OS_CFG_TIME_DLY_HMSM_EN > 0u
 200:..\..\..\..\..\..\Software\uCOS-III\Source/os_time.c **** void  OSTimeDlyHMSM (CPU_INT16U   hours,
 201:..\..\..\..\..\..\Software\uCOS-III\Source/os_time.c ****                      CPU_INT16U   minutes,
 202:..\..\..\..\..\..\Software\uCOS-III\Source/os_time.c ****                      CPU_INT16U   seconds,
 203:..\..\..\..\..\..\Software\uCOS-III\Source/os_time.c ****                      CPU_INT32U   milli,
 204:..\..\..\..\..\..\Software\uCOS-III\Source/os_time.c ****                      OS_OPT       opt,
 205:..\..\..\..\..\..\Software\uCOS-III\Source/os_time.c ****                      OS_ERR      *p_err)
 206:..\..\..\..\..\..\Software\uCOS-III\Source/os_time.c **** {
 207              		.loc 1 206 1 view -0
 208              		.cfi_startproc
 209              		@ args = 8, pretend = 0, frame = 0
 210              		@ frame_needed = 0, uses_anonymous_args = 0
 211              		.loc 1 206 1 is_stmt 0 view .LVU54
 212 0000 F8B5     		push	{r3, r4, r5, r6, r7, lr}
 213              		.cfi_def_cfa_offset 24
 214              		.cfi_offset 3, -24
 215              		.cfi_offset 4, -20
 216              		.cfi_offset 5, -16
 217              		.cfi_offset 6, -12
 218              		.cfi_offset 7, -8
 219              		.cfi_offset 14, -4
 220 0002 1D00     		movs	r5, r3
 221 0004 06AB     		add	r3, sp, #24
 222              	.LVL19:
 223              		.loc 1 206 1 view .LVU55
 224 0006 1E88     		ldrh	r6, [r3]
 207:..\..\..\..\..\..\Software\uCOS-III\Source/os_time.c **** #if OS_CFG_ARG_CHK_EN > 0u
 208:..\..\..\..\..\..\Software\uCOS-III\Source/os_time.c ****     CPU_BOOLEAN  opt_invalid;
 225              		.loc 1 208 5 is_stmt 1 view .LVU56
 209:..\..\..\..\..\..\Software\uCOS-III\Source/os_time.c ****     CPU_BOOLEAN  opt_non_strict;
 226              		.loc 1 209 5 view .LVU57
ARM GAS  C:\Users\EDULU~1.DES\AppData\Local\Temp\ccUrjA5x.s 			page 9


 210:..\..\..\..\..\..\Software\uCOS-III\Source/os_time.c **** #endif
 211:..\..\..\..\..\..\Software\uCOS-III\Source/os_time.c ****     OS_OPT       opt_time;
 227              		.loc 1 211 5 view .LVU58
 212:..\..\..\..\..\..\Software\uCOS-III\Source/os_time.c ****     OS_RATE_HZ   tick_rate;
 228              		.loc 1 212 5 view .LVU59
 213:..\..\..\..\..\..\Software\uCOS-III\Source/os_time.c ****     OS_TICK      ticks;
 229              		.loc 1 213 5 view .LVU60
 214:..\..\..\..\..\..\Software\uCOS-III\Source/os_time.c ****     CPU_SR_ALLOC();
 230              		.loc 1 214 5 view .LVU61
 231              	.LVL20:
 215:..\..\..\..\..\..\Software\uCOS-III\Source/os_time.c **** 
 216:..\..\..\..\..\..\Software\uCOS-III\Source/os_time.c **** 
 217:..\..\..\..\..\..\Software\uCOS-III\Source/os_time.c **** 
 218:..\..\..\..\..\..\Software\uCOS-III\Source/os_time.c **** #ifdef OS_SAFETY_CRITICAL
 219:..\..\..\..\..\..\Software\uCOS-III\Source/os_time.c ****     if (p_err == (OS_ERR *)0) {
 220:..\..\..\..\..\..\Software\uCOS-III\Source/os_time.c ****         OS_SAFETY_CRITICAL_EXCEPTION();
 221:..\..\..\..\..\..\Software\uCOS-III\Source/os_time.c ****         return;
 222:..\..\..\..\..\..\Software\uCOS-III\Source/os_time.c ****     }
 223:..\..\..\..\..\..\Software\uCOS-III\Source/os_time.c **** #endif
 224:..\..\..\..\..\..\Software\uCOS-III\Source/os_time.c **** 
 225:..\..\..\..\..\..\Software\uCOS-III\Source/os_time.c **** #if OS_CFG_CALLED_FROM_ISR_CHK_EN > 0u
 226:..\..\..\..\..\..\Software\uCOS-III\Source/os_time.c ****     if (OSIntNestingCtr > (OS_NESTING_CTR)0u) {             /* Not allowed to call from an ISR     
 232              		.loc 1 226 5 view .LVU62
 233              		.loc 1 226 25 is_stmt 0 view .LVU63
 234 0008 514B     		ldr	r3, .L46
 235              	.LVL21:
 236              		.loc 1 226 25 view .LVU64
 237 000a 1B78     		ldrb	r3, [r3]
 238              		.loc 1 226 8 view .LVU65
 239 000c 002B     		cmp	r3, #0
 240 000e 1DD1     		bne	.L34
 227:..\..\..\..\..\..\Software\uCOS-III\Source/os_time.c ****        *p_err = OS_ERR_TIME_DLY_ISR;
 228:..\..\..\..\..\..\Software\uCOS-III\Source/os_time.c ****         return;
 229:..\..\..\..\..\..\Software\uCOS-III\Source/os_time.c ****     }
 230:..\..\..\..\..\..\Software\uCOS-III\Source/os_time.c **** #endif
 231:..\..\..\..\..\..\Software\uCOS-III\Source/os_time.c **** 
 232:..\..\..\..\..\..\Software\uCOS-III\Source/os_time.c ****     if (OSSchedLockNestingCtr > (OS_NESTING_CTR)0u) {       /* Can't delay when the scheduler is lo
 241              		.loc 1 232 5 is_stmt 1 view .LVU66
 242              		.loc 1 232 31 is_stmt 0 view .LVU67
 243 0010 504B     		ldr	r3, .L46+4
 244 0012 1B78     		ldrb	r3, [r3]
 245              		.loc 1 232 8 view .LVU68
 246 0014 002B     		cmp	r3, #0
 247 0016 1DD1     		bne	.L35
 233:..\..\..\..\..\..\Software\uCOS-III\Source/os_time.c ****        *p_err = OS_ERR_SCHED_LOCKED;
 234:..\..\..\..\..\..\Software\uCOS-III\Source/os_time.c ****         return;
 235:..\..\..\..\..\..\Software\uCOS-III\Source/os_time.c ****     }
 236:..\..\..\..\..\..\Software\uCOS-III\Source/os_time.c **** 
 237:..\..\..\..\..\..\Software\uCOS-III\Source/os_time.c ****     opt_time = opt & OS_OPT_TIME_MASK;                      /* Retrieve time options only.         
 248              		.loc 1 237 5 is_stmt 1 view .LVU69
 249              		.loc 1 237 14 is_stmt 0 view .LVU70
 250 0018 0E24     		movs	r4, #14
 251 001a 3440     		ands	r4, r6
 252              	.LVL22:
 238:..\..\..\..\..\..\Software\uCOS-III\Source/os_time.c ****     switch (opt_time) {
 253              		.loc 1 238 5 is_stmt 1 view .LVU71
 254 001c 022C     		cmp	r4, #2
ARM GAS  C:\Users\EDULU~1.DES\AppData\Local\Temp\ccUrjA5x.s 			page 10


 255 001e 25D0     		beq	.L21
 256 0020 1CD9     		bls	.L36
 257 0022 042C     		cmp	r4, #4
 258 0024 20D1     		bne	.L37
 259              	.L24:
 239:..\..\..\..\..\..\Software\uCOS-III\Source/os_time.c ****         case OS_OPT_TIME_DLY:
 240:..\..\..\..\..\..\Software\uCOS-III\Source/os_time.c ****         case OS_OPT_TIME_TIMEOUT:
 241:..\..\..\..\..\..\Software\uCOS-III\Source/os_time.c ****         case OS_OPT_TIME_PERIODIC:
 242:..\..\..\..\..\..\Software\uCOS-III\Source/os_time.c ****              if (milli == (CPU_INT32U)0u) {                 /* Make sure we didn't specify a 0 dela
 243:..\..\..\..\..\..\Software\uCOS-III\Source/os_time.c ****                  if (seconds == (CPU_INT16U)0u) {
 244:..\..\..\..\..\..\Software\uCOS-III\Source/os_time.c ****                      if (minutes == (CPU_INT16U)0u) {
 245:..\..\..\..\..\..\Software\uCOS-III\Source/os_time.c ****                          if (hours == (CPU_INT16U)0u) {
 246:..\..\..\..\..\..\Software\uCOS-III\Source/os_time.c ****                             *p_err = OS_ERR_TIME_ZERO_DLY;
 247:..\..\..\..\..\..\Software\uCOS-III\Source/os_time.c ****                              return;
 248:..\..\..\..\..\..\Software\uCOS-III\Source/os_time.c ****                          }
 249:..\..\..\..\..\..\Software\uCOS-III\Source/os_time.c ****                      }
 250:..\..\..\..\..\..\Software\uCOS-III\Source/os_time.c ****                  }
 251:..\..\..\..\..\..\Software\uCOS-III\Source/os_time.c ****              }
 252:..\..\..\..\..\..\Software\uCOS-III\Source/os_time.c ****              break;
 253:..\..\..\..\..\..\Software\uCOS-III\Source/os_time.c **** 
 254:..\..\..\..\..\..\Software\uCOS-III\Source/os_time.c ****         case OS_OPT_TIME_MATCH:
 255:..\..\..\..\..\..\Software\uCOS-III\Source/os_time.c ****              break;
 256:..\..\..\..\..\..\Software\uCOS-III\Source/os_time.c **** 
 257:..\..\..\..\..\..\Software\uCOS-III\Source/os_time.c ****         default:
 258:..\..\..\..\..\..\Software\uCOS-III\Source/os_time.c ****             *p_err = OS_ERR_OPT_INVALID;
 259:..\..\..\..\..\..\Software\uCOS-III\Source/os_time.c ****              return;
 260:..\..\..\..\..\..\Software\uCOS-III\Source/os_time.c ****     }
 261:..\..\..\..\..\..\Software\uCOS-III\Source/os_time.c **** 
 262:..\..\..\..\..\..\Software\uCOS-III\Source/os_time.c **** #if OS_CFG_ARG_CHK_EN > 0u                                  /* Validate arguments to be within rang
 263:..\..\..\..\..\..\Software\uCOS-III\Source/os_time.c ****     opt_invalid = DEF_BIT_IS_SET_ANY(opt, ~OS_OPT_TIME_OPTS_MASK);
 260              		.loc 1 263 5 view .LVU72
 261              		.loc 1 263 19 is_stmt 0 view .LVU73
 262 0026 1E23     		movs	r3, #30
 263 0028 3700     		movs	r7, r6
 264 002a 9F43     		bics	r7, r3
 265              	.LVL23:
 264:..\..\..\..\..\..\Software\uCOS-III\Source/os_time.c ****     if (opt_invalid == DEF_YES) {
 266              		.loc 1 264 5 is_stmt 1 view .LVU74
 267              		.loc 1 264 8 is_stmt 0 view .LVU75
 268 002c 2AD1     		bne	.L38
 265:..\..\..\..\..\..\Software\uCOS-III\Source/os_time.c ****        *p_err = OS_ERR_OPT_INVALID;
 266:..\..\..\..\..\..\Software\uCOS-III\Source/os_time.c ****         return;
 267:..\..\..\..\..\..\Software\uCOS-III\Source/os_time.c ****     }
 268:..\..\..\..\..\..\Software\uCOS-III\Source/os_time.c **** 
 269:..\..\..\..\..\..\Software\uCOS-III\Source/os_time.c ****     opt_non_strict = DEF_BIT_IS_SET(opt, OS_OPT_TIME_HMSM_NON_STRICT);
 269              		.loc 1 269 5 is_stmt 1 view .LVU76
 270              	.LVL24:
 270:..\..\..\..\..\..\Software\uCOS-III\Source/os_time.c ****     if (opt_non_strict != DEF_YES) {
 271              		.loc 1 270 5 view .LVU77
 272              		.loc 1 270 8 is_stmt 0 view .LVU78
 273 002e F306     		lsls	r3, r6, #27
 274 0030 38D4     		bmi	.L26
 271:..\..\..\..\..\..\Software\uCOS-III\Source/os_time.c ****          if (milli   > (CPU_INT32U)999u) {
 275              		.loc 1 271 10 is_stmt 1 view .LVU79
 276              		.loc 1 271 13 is_stmt 0 view .LVU80
 277 0032 494B     		ldr	r3, .L46+8
 278 0034 9D42     		cmp	r5, r3
ARM GAS  C:\Users\EDULU~1.DES\AppData\Local\Temp\ccUrjA5x.s 			page 11


 279 0036 29D8     		bhi	.L39
 272:..\..\..\..\..\..\Software\uCOS-III\Source/os_time.c ****             *p_err = OS_ERR_TIME_INVALID_MILLISECONDS;
 273:..\..\..\..\..\..\Software\uCOS-III\Source/os_time.c ****              return;
 274:..\..\..\..\..\..\Software\uCOS-III\Source/os_time.c ****          }
 275:..\..\..\..\..\..\Software\uCOS-III\Source/os_time.c ****          if (seconds > (CPU_INT16U)59u) {
 280              		.loc 1 275 10 is_stmt 1 view .LVU81
 281              		.loc 1 275 13 is_stmt 0 view .LVU82
 282 0038 3B2A     		cmp	r2, #59
 283 003a 2BD8     		bhi	.L40
 276:..\..\..\..\..\..\Software\uCOS-III\Source/os_time.c ****             *p_err = OS_ERR_TIME_INVALID_SECONDS;
 277:..\..\..\..\..\..\Software\uCOS-III\Source/os_time.c ****              return;
 278:..\..\..\..\..\..\Software\uCOS-III\Source/os_time.c ****          }
 279:..\..\..\..\..\..\Software\uCOS-III\Source/os_time.c ****          if (minutes > (CPU_INT16U)59u) {
 284              		.loc 1 279 10 is_stmt 1 view .LVU83
 285              		.loc 1 279 13 is_stmt 0 view .LVU84
 286 003c 3B29     		cmp	r1, #59
 287 003e 2DD8     		bhi	.L41
 280:..\..\..\..\..\..\Software\uCOS-III\Source/os_time.c ****             *p_err = OS_ERR_TIME_INVALID_MINUTES;
 281:..\..\..\..\..\..\Software\uCOS-III\Source/os_time.c ****              return;
 282:..\..\..\..\..\..\Software\uCOS-III\Source/os_time.c ****          }
 283:..\..\..\..\..\..\Software\uCOS-III\Source/os_time.c ****          if (hours   > (CPU_INT16U)99u) {
 288              		.loc 1 283 10 is_stmt 1 view .LVU85
 289              		.loc 1 283 13 is_stmt 0 view .LVU86
 290 0040 6328     		cmp	r0, #99
 291 0042 35D9     		bls	.L30
 284:..\..\..\..\..\..\Software\uCOS-III\Source/os_time.c ****             *p_err = OS_ERR_TIME_INVALID_HOURS;
 292              		.loc 1 284 13 is_stmt 1 view .LVU87
 293              		.loc 1 284 20 is_stmt 0 view .LVU88
 294 0044 454B     		ldr	r3, .L46+12
 295 0046 079A     		ldr	r2, [sp, #28]
 296              	.LVL25:
 297              		.loc 1 284 20 view .LVU89
 298 0048 1380     		strh	r3, [r2]
 285:..\..\..\..\..\..\Software\uCOS-III\Source/os_time.c ****              return;
 299              		.loc 1 285 14 is_stmt 1 view .LVU90
 300 004a 02E0     		b	.L17
 301              	.LVL26:
 302              	.L34:
 227:..\..\..\..\..\..\Software\uCOS-III\Source/os_time.c ****         return;
 303              		.loc 1 227 8 view .LVU91
 227:..\..\..\..\..\..\Software\uCOS-III\Source/os_time.c ****         return;
 304              		.loc 1 227 15 is_stmt 0 view .LVU92
 305 004c 444B     		ldr	r3, .L46+16
 306 004e 079A     		ldr	r2, [sp, #28]
 307              	.LVL27:
 227:..\..\..\..\..\..\Software\uCOS-III\Source/os_time.c ****         return;
 308              		.loc 1 227 15 view .LVU93
 309 0050 1380     		strh	r3, [r2]
 228:..\..\..\..\..\..\Software\uCOS-III\Source/os_time.c ****     }
 310              		.loc 1 228 9 is_stmt 1 view .LVU94
 311              	.LVL28:
 312              	.L17:
 286:..\..\..\..\..\..\Software\uCOS-III\Source/os_time.c ****          }
 287:..\..\..\..\..\..\Software\uCOS-III\Source/os_time.c ****     } else {
 288:..\..\..\..\..\..\Software\uCOS-III\Source/os_time.c ****          if (minutes > (CPU_INT16U)9999u) {
 289:..\..\..\..\..\..\Software\uCOS-III\Source/os_time.c ****             *p_err = OS_ERR_TIME_INVALID_MINUTES;
 290:..\..\..\..\..\..\Software\uCOS-III\Source/os_time.c ****              return;
ARM GAS  C:\Users\EDULU~1.DES\AppData\Local\Temp\ccUrjA5x.s 			page 12


 291:..\..\..\..\..\..\Software\uCOS-III\Source/os_time.c ****          }
 292:..\..\..\..\..\..\Software\uCOS-III\Source/os_time.c ****          if (hours   > (CPU_INT16U)999u) {
 293:..\..\..\..\..\..\Software\uCOS-III\Source/os_time.c ****             *p_err = OS_ERR_TIME_INVALID_HOURS;
 294:..\..\..\..\..\..\Software\uCOS-III\Source/os_time.c ****              return;
 295:..\..\..\..\..\..\Software\uCOS-III\Source/os_time.c ****          }
 296:..\..\..\..\..\..\Software\uCOS-III\Source/os_time.c ****     }
 297:..\..\..\..\..\..\Software\uCOS-III\Source/os_time.c **** #endif
 298:..\..\..\..\..\..\Software\uCOS-III\Source/os_time.c **** 
 299:..\..\..\..\..\..\Software\uCOS-III\Source/os_time.c ****                                                             /* Compute the total number of clock ti
 300:..\..\..\..\..\..\Software\uCOS-III\Source/os_time.c ****                                                             /* .. (rounded to the nearest tick)    
 301:..\..\..\..\..\..\Software\uCOS-III\Source/os_time.c ****     tick_rate = OSCfg_TickRate_Hz;
 302:..\..\..\..\..\..\Software\uCOS-III\Source/os_time.c ****     ticks     = ((OS_TICK)hours * (OS_TICK)3600u + (OS_TICK)minutes * (OS_TICK)60u + (OS_TICK)secon
 303:..\..\..\..\..\..\Software\uCOS-III\Source/os_time.c ****               + (tick_rate * ((OS_TICK)milli + (OS_TICK)500u / tick_rate)) / (OS_TICK)1000u;
 304:..\..\..\..\..\..\Software\uCOS-III\Source/os_time.c **** 
 305:..\..\..\..\..\..\Software\uCOS-III\Source/os_time.c ****     if (ticks > (OS_TICK)0u) {
 306:..\..\..\..\..\..\Software\uCOS-III\Source/os_time.c ****         OS_CRITICAL_ENTER();
 307:..\..\..\..\..\..\Software\uCOS-III\Source/os_time.c ****         OSTCBCurPtr->TaskState = OS_TASK_STATE_DLY;
 308:..\..\..\..\..\..\Software\uCOS-III\Source/os_time.c ****         OS_TickListInsert(OSTCBCurPtr,
 309:..\..\..\..\..\..\Software\uCOS-III\Source/os_time.c ****                           ticks,
 310:..\..\..\..\..\..\Software\uCOS-III\Source/os_time.c ****                           opt_time,
 311:..\..\..\..\..\..\Software\uCOS-III\Source/os_time.c ****                           p_err);
 312:..\..\..\..\..\..\Software\uCOS-III\Source/os_time.c ****         if (*p_err != OS_ERR_NONE) {
 313:..\..\..\..\..\..\Software\uCOS-III\Source/os_time.c ****              OS_CRITICAL_EXIT_NO_SCHED();
 314:..\..\..\..\..\..\Software\uCOS-III\Source/os_time.c ****              return;
 315:..\..\..\..\..\..\Software\uCOS-III\Source/os_time.c ****         }
 316:..\..\..\..\..\..\Software\uCOS-III\Source/os_time.c ****         OS_RdyListRemove(OSTCBCurPtr);                      /* Remove current task from ready list 
 317:..\..\..\..\..\..\Software\uCOS-III\Source/os_time.c ****         OS_CRITICAL_EXIT_NO_SCHED();
 318:..\..\..\..\..\..\Software\uCOS-III\Source/os_time.c ****         OSSched();                                          /* Find next task to run!              
 319:..\..\..\..\..\..\Software\uCOS-III\Source/os_time.c ****        *p_err = OS_ERR_NONE;
 320:..\..\..\..\..\..\Software\uCOS-III\Source/os_time.c ****     } else {
 321:..\..\..\..\..\..\Software\uCOS-III\Source/os_time.c ****        *p_err = OS_ERR_TIME_ZERO_DLY;
 322:..\..\..\..\..\..\Software\uCOS-III\Source/os_time.c ****     }
 323:..\..\..\..\..\..\Software\uCOS-III\Source/os_time.c **** }
 313              		.loc 1 323 1 is_stmt 0 view .LVU95
 314              		@ sp needed
 315 0052 F8BD     		pop	{r3, r4, r5, r6, r7, pc}
 316              	.LVL29:
 317              	.L35:
 233:..\..\..\..\..\..\Software\uCOS-III\Source/os_time.c ****         return;
 318              		.loc 1 233 8 is_stmt 1 view .LVU96
 233:..\..\..\..\..\..\Software\uCOS-III\Source/os_time.c ****         return;
 319              		.loc 1 233 15 is_stmt 0 view .LVU97
 320 0054 434B     		ldr	r3, .L46+20
 321 0056 079A     		ldr	r2, [sp, #28]
 322              	.LVL30:
 233:..\..\..\..\..\..\Software\uCOS-III\Source/os_time.c ****         return;
 323              		.loc 1 233 15 view .LVU98
 324 0058 1380     		strh	r3, [r2]
 234:..\..\..\..\..\..\Software\uCOS-III\Source/os_time.c ****     }
 325              		.loc 1 234 9 is_stmt 1 view .LVU99
 326 005a FAE7     		b	.L17
 327              	.LVL31:
 328              	.L36:
 238:..\..\..\..\..\..\Software\uCOS-III\Source/os_time.c ****         case OS_OPT_TIME_DLY:
 329              		.loc 1 238 5 is_stmt 0 view .LVU100
 330 005c 002C     		cmp	r4, #0
 331 005e 05D0     		beq	.L21
ARM GAS  C:\Users\EDULU~1.DES\AppData\Local\Temp\ccUrjA5x.s 			page 13


 332              	.L23:
 258:..\..\..\..\..\..\Software\uCOS-III\Source/os_time.c ****              return;
 333              		.loc 1 258 13 is_stmt 1 view .LVU101
 258:..\..\..\..\..\..\Software\uCOS-III\Source/os_time.c ****              return;
 334              		.loc 1 258 20 is_stmt 0 view .LVU102
 335 0060 414B     		ldr	r3, .L46+24
 336 0062 079A     		ldr	r2, [sp, #28]
 337              	.LVL32:
 258:..\..\..\..\..\..\Software\uCOS-III\Source/os_time.c ****              return;
 338              		.loc 1 258 20 view .LVU103
 339 0064 1380     		strh	r3, [r2]
 259:..\..\..\..\..\..\Software\uCOS-III\Source/os_time.c ****     }
 340              		.loc 1 259 14 is_stmt 1 view .LVU104
 341 0066 F4E7     		b	.L17
 342              	.LVL33:
 343              	.L37:
 238:..\..\..\..\..\..\Software\uCOS-III\Source/os_time.c ****         case OS_OPT_TIME_DLY:
 344              		.loc 1 238 5 is_stmt 0 view .LVU105
 345 0068 082C     		cmp	r4, #8
 346 006a F9D1     		bne	.L23
 347              	.L21:
 242:..\..\..\..\..\..\Software\uCOS-III\Source/os_time.c ****                  if (seconds == (CPU_INT16U)0u) {
 348              		.loc 1 242 14 is_stmt 1 view .LVU106
 242:..\..\..\..\..\..\Software\uCOS-III\Source/os_time.c ****                  if (seconds == (CPU_INT16U)0u) {
 349              		.loc 1 242 17 is_stmt 0 view .LVU107
 350 006c 002D     		cmp	r5, #0
 351 006e DAD1     		bne	.L24
 243:..\..\..\..\..\..\Software\uCOS-III\Source/os_time.c ****                      if (minutes == (CPU_INT16U)0u) {
 352              		.loc 1 243 18 is_stmt 1 view .LVU108
 243:..\..\..\..\..\..\Software\uCOS-III\Source/os_time.c ****                      if (minutes == (CPU_INT16U)0u) {
 353              		.loc 1 243 21 is_stmt 0 view .LVU109
 354 0070 002A     		cmp	r2, #0
 355 0072 D8D1     		bne	.L24
 244:..\..\..\..\..\..\Software\uCOS-III\Source/os_time.c ****                          if (hours == (CPU_INT16U)0u) {
 356              		.loc 1 244 22 is_stmt 1 view .LVU110
 244:..\..\..\..\..\..\Software\uCOS-III\Source/os_time.c ****                          if (hours == (CPU_INT16U)0u) {
 357              		.loc 1 244 25 is_stmt 0 view .LVU111
 358 0074 0029     		cmp	r1, #0
 359 0076 D6D1     		bne	.L24
 245:..\..\..\..\..\..\Software\uCOS-III\Source/os_time.c ****                             *p_err = OS_ERR_TIME_ZERO_DLY;
 360              		.loc 1 245 26 is_stmt 1 view .LVU112
 245:..\..\..\..\..\..\Software\uCOS-III\Source/os_time.c ****                             *p_err = OS_ERR_TIME_ZERO_DLY;
 361              		.loc 1 245 29 is_stmt 0 view .LVU113
 362 0078 0028     		cmp	r0, #0
 363 007a D4D1     		bne	.L24
 246:..\..\..\..\..\..\Software\uCOS-III\Source/os_time.c ****                              return;
 364              		.loc 1 246 29 is_stmt 1 view .LVU114
 246:..\..\..\..\..\..\Software\uCOS-III\Source/os_time.c ****                              return;
 365              		.loc 1 246 36 is_stmt 0 view .LVU115
 366 007c 3B4B     		ldr	r3, .L46+28
 367 007e 079A     		ldr	r2, [sp, #28]
 368              	.LVL34:
 246:..\..\..\..\..\..\Software\uCOS-III\Source/os_time.c ****                              return;
 369              		.loc 1 246 36 view .LVU116
 370 0080 1380     		strh	r3, [r2]
 247:..\..\..\..\..\..\Software\uCOS-III\Source/os_time.c ****                          }
 371              		.loc 1 247 30 is_stmt 1 view .LVU117
ARM GAS  C:\Users\EDULU~1.DES\AppData\Local\Temp\ccUrjA5x.s 			page 14


 372 0082 E6E7     		b	.L17
 373              	.LVL35:
 374              	.L38:
 265:..\..\..\..\..\..\Software\uCOS-III\Source/os_time.c ****         return;
 375              		.loc 1 265 8 view .LVU118
 265:..\..\..\..\..\..\Software\uCOS-III\Source/os_time.c ****         return;
 376              		.loc 1 265 15 is_stmt 0 view .LVU119
 377 0084 384B     		ldr	r3, .L46+24
 378 0086 079A     		ldr	r2, [sp, #28]
 379              	.LVL36:
 265:..\..\..\..\..\..\Software\uCOS-III\Source/os_time.c ****         return;
 380              		.loc 1 265 15 view .LVU120
 381 0088 1380     		strh	r3, [r2]
 266:..\..\..\..\..\..\Software\uCOS-III\Source/os_time.c ****     }
 382              		.loc 1 266 9 is_stmt 1 view .LVU121
 383 008a E2E7     		b	.L17
 384              	.LVL37:
 385              	.L39:
 272:..\..\..\..\..\..\Software\uCOS-III\Source/os_time.c ****              return;
 386              		.loc 1 272 13 view .LVU122
 272:..\..\..\..\..\..\Software\uCOS-III\Source/os_time.c ****              return;
 387              		.loc 1 272 20 is_stmt 0 view .LVU123
 388 008c 384B     		ldr	r3, .L46+32
 389 008e 079A     		ldr	r2, [sp, #28]
 390              	.LVL38:
 272:..\..\..\..\..\..\Software\uCOS-III\Source/os_time.c ****              return;
 391              		.loc 1 272 20 view .LVU124
 392 0090 1380     		strh	r3, [r2]
 273:..\..\..\..\..\..\Software\uCOS-III\Source/os_time.c ****          }
 393              		.loc 1 273 14 is_stmt 1 view .LVU125
 394 0092 DEE7     		b	.L17
 395              	.LVL39:
 396              	.L40:
 276:..\..\..\..\..\..\Software\uCOS-III\Source/os_time.c ****              return;
 397              		.loc 1 276 13 view .LVU126
 276:..\..\..\..\..\..\Software\uCOS-III\Source/os_time.c ****              return;
 398              		.loc 1 276 20 is_stmt 0 view .LVU127
 399 0094 374B     		ldr	r3, .L46+36
 400 0096 079A     		ldr	r2, [sp, #28]
 401              	.LVL40:
 276:..\..\..\..\..\..\Software\uCOS-III\Source/os_time.c ****              return;
 402              		.loc 1 276 20 view .LVU128
 403 0098 1380     		strh	r3, [r2]
 277:..\..\..\..\..\..\Software\uCOS-III\Source/os_time.c ****          }
 404              		.loc 1 277 14 is_stmt 1 view .LVU129
 405 009a DAE7     		b	.L17
 406              	.LVL41:
 407              	.L41:
 280:..\..\..\..\..\..\Software\uCOS-III\Source/os_time.c ****              return;
 408              		.loc 1 280 13 view .LVU130
 280:..\..\..\..\..\..\Software\uCOS-III\Source/os_time.c ****              return;
 409              		.loc 1 280 20 is_stmt 0 view .LVU131
 410 009c 364B     		ldr	r3, .L46+40
 411 009e 079A     		ldr	r2, [sp, #28]
 412              	.LVL42:
 280:..\..\..\..\..\..\Software\uCOS-III\Source/os_time.c ****              return;
 413              		.loc 1 280 20 view .LVU132
ARM GAS  C:\Users\EDULU~1.DES\AppData\Local\Temp\ccUrjA5x.s 			page 15


 414 00a0 1380     		strh	r3, [r2]
 281:..\..\..\..\..\..\Software\uCOS-III\Source/os_time.c ****          }
 415              		.loc 1 281 14 is_stmt 1 view .LVU133
 416 00a2 D6E7     		b	.L17
 417              	.LVL43:
 418              	.L26:
 288:..\..\..\..\..\..\Software\uCOS-III\Source/os_time.c ****             *p_err = OS_ERR_TIME_INVALID_MINUTES;
 419              		.loc 1 288 10 view .LVU134
 288:..\..\..\..\..\..\Software\uCOS-III\Source/os_time.c ****             *p_err = OS_ERR_TIME_INVALID_MINUTES;
 420              		.loc 1 288 13 is_stmt 0 view .LVU135
 421 00a4 354B     		ldr	r3, .L46+44
 422 00a6 9942     		cmp	r1, r3
 423 00a8 22D8     		bhi	.L42
 292:..\..\..\..\..\..\Software\uCOS-III\Source/os_time.c ****             *p_err = OS_ERR_TIME_INVALID_HOURS;
 424              		.loc 1 292 10 is_stmt 1 view .LVU136
 292:..\..\..\..\..\..\Software\uCOS-III\Source/os_time.c ****             *p_err = OS_ERR_TIME_INVALID_HOURS;
 425              		.loc 1 292 13 is_stmt 0 view .LVU137
 426 00aa 2B4B     		ldr	r3, .L46+8
 427 00ac 9842     		cmp	r0, r3
 428 00ae 23D8     		bhi	.L43
 429              	.L30:
 301:..\..\..\..\..\..\Software\uCOS-III\Source/os_time.c ****     ticks     = ((OS_TICK)hours * (OS_TICK)3600u + (OS_TICK)minutes * (OS_TICK)60u + (OS_TICK)secon
 430              		.loc 1 301 5 is_stmt 1 view .LVU138
 301:..\..\..\..\..\..\Software\uCOS-III\Source/os_time.c ****     ticks     = ((OS_TICK)hours * (OS_TICK)3600u + (OS_TICK)minutes * (OS_TICK)60u + (OS_TICK)secon
 431              		.loc 1 301 15 is_stmt 0 view .LVU139
 432 00b0 334B     		ldr	r3, .L46+48
 433 00b2 1F68     		ldr	r7, [r3]
 434              	.LVL44:
 302:..\..\..\..\..\..\Software\uCOS-III\Source/os_time.c ****               + (tick_rate * ((OS_TICK)milli + (OS_TICK)500u / tick_rate)) / (OS_TICK)1000u;
 435              		.loc 1 302 5 is_stmt 1 view .LVU140
 302:..\..\..\..\..\..\Software\uCOS-III\Source/os_time.c ****               + (tick_rate * ((OS_TICK)milli + (OS_TICK)500u / tick_rate)) / (OS_TICK)1000u;
 436              		.loc 1 302 33 is_stmt 0 view .LVU141
 437 00b4 0301     		lsls	r3, r0, #4
 438 00b6 1B1A     		subs	r3, r3, r0
 439 00b8 1801     		lsls	r0, r3, #4
 440              	.LVL45:
 302:..\..\..\..\..\..\Software\uCOS-III\Source/os_time.c ****               + (tick_rate * ((OS_TICK)milli + (OS_TICK)500u / tick_rate)) / (OS_TICK)1000u;
 441              		.loc 1 302 33 view .LVU142
 442 00ba C01A     		subs	r0, r0, r3
 443 00bc 0301     		lsls	r3, r0, #4
 302:..\..\..\..\..\..\Software\uCOS-III\Source/os_time.c ****               + (tick_rate * ((OS_TICK)milli + (OS_TICK)500u / tick_rate)) / (OS_TICK)1000u;
 444              		.loc 1 302 69 view .LVU143
 445 00be 0801     		lsls	r0, r1, #4
 446 00c0 411A     		subs	r1, r0, r1
 447              	.LVL46:
 302:..\..\..\..\..\..\Software\uCOS-III\Source/os_time.c ****               + (tick_rate * ((OS_TICK)milli + (OS_TICK)500u / tick_rate)) / (OS_TICK)1000u;
 448              		.loc 1 302 69 view .LVU144
 449 00c2 8E00     		lsls	r6, r1, #2
 450              	.LVL47:
 302:..\..\..\..\..\..\Software\uCOS-III\Source/os_time.c ****               + (tick_rate * ((OS_TICK)milli + (OS_TICK)500u / tick_rate)) / (OS_TICK)1000u;
 451              		.loc 1 302 50 view .LVU145
 452 00c4 9B19     		adds	r3, r3, r6
 302:..\..\..\..\..\..\Software\uCOS-III\Source/os_time.c ****               + (tick_rate * ((OS_TICK)milli + (OS_TICK)500u / tick_rate)) / (OS_TICK)1000u;
 453              		.loc 1 302 84 view .LVU146
 454 00c6 9B18     		adds	r3, r3, r2
 302:..\..\..\..\..\..\Software\uCOS-III\Source/os_time.c ****               + (tick_rate * ((OS_TICK)milli + (OS_TICK)500u / tick_rate)) / (OS_TICK)1000u;
 455              		.loc 1 302 104 view .LVU147
ARM GAS  C:\Users\EDULU~1.DES\AppData\Local\Temp\ccUrjA5x.s 			page 16


 456 00c8 7B43     		muls	r3, r7
 457 00ca 1E00     		movs	r6, r3
 303:..\..\..\..\..\..\Software\uCOS-III\Source/os_time.c **** 
 458              		.loc 1 303 62 view .LVU148
 459 00cc 3900     		movs	r1, r7
 460 00ce FA20     		movs	r0, #250
 461 00d0 4000     		lsls	r0, r0, #1
 462 00d2 FFF7FEFF 		bl	__aeabi_uidiv
 463              	.LVL48:
 303:..\..\..\..\..\..\Software\uCOS-III\Source/os_time.c **** 
 464              		.loc 1 303 46 view .LVU149
 465 00d6 4019     		adds	r0, r0, r5
 303:..\..\..\..\..\..\Software\uCOS-III\Source/os_time.c **** 
 466              		.loc 1 303 28 view .LVU150
 467 00d8 7843     		muls	r0, r7
 303:..\..\..\..\..\..\Software\uCOS-III\Source/os_time.c **** 
 468              		.loc 1 303 76 view .LVU151
 469 00da FA21     		movs	r1, #250
 470 00dc 8900     		lsls	r1, r1, #2
 471 00de FFF7FEFF 		bl	__aeabi_uidiv
 472              	.LVL49:
 302:..\..\..\..\..\..\Software\uCOS-III\Source/os_time.c ****               + (tick_rate * ((OS_TICK)milli + (OS_TICK)500u / tick_rate)) / (OS_TICK)1000u;
 473              		.loc 1 302 15 view .LVU152
 474 00e2 3618     		adds	r6, r6, r0
 475              	.LVL50:
 305:..\..\..\..\..\..\Software\uCOS-III\Source/os_time.c ****         OS_CRITICAL_ENTER();
 476              		.loc 1 305 5 is_stmt 1 view .LVU153
 305:..\..\..\..\..\..\Software\uCOS-III\Source/os_time.c ****         OS_CRITICAL_ENTER();
 477              		.loc 1 305 8 is_stmt 0 view .LVU154
 478 00e4 002E     		cmp	r6, #0
 479 00e6 0BD1     		bne	.L44
 321:..\..\..\..\..\..\Software\uCOS-III\Source/os_time.c ****     }
 480              		.loc 1 321 8 is_stmt 1 view .LVU155
 321:..\..\..\..\..\..\Software\uCOS-III\Source/os_time.c ****     }
 481              		.loc 1 321 15 is_stmt 0 view .LVU156
 482 00e8 204B     		ldr	r3, .L46+28
 483 00ea 079A     		ldr	r2, [sp, #28]
 484 00ec 1380     		strh	r3, [r2]
 485 00ee B0E7     		b	.L17
 486              	.LVL51:
 487              	.L42:
 289:..\..\..\..\..\..\Software\uCOS-III\Source/os_time.c ****              return;
 488              		.loc 1 289 13 is_stmt 1 view .LVU157
 289:..\..\..\..\..\..\Software\uCOS-III\Source/os_time.c ****              return;
 489              		.loc 1 289 20 is_stmt 0 view .LVU158
 490 00f0 214B     		ldr	r3, .L46+40
 491 00f2 079A     		ldr	r2, [sp, #28]
 492              	.LVL52:
 289:..\..\..\..\..\..\Software\uCOS-III\Source/os_time.c ****              return;
 493              		.loc 1 289 20 view .LVU159
 494 00f4 1380     		strh	r3, [r2]
 290:..\..\..\..\..\..\Software\uCOS-III\Source/os_time.c ****          }
 495              		.loc 1 290 14 is_stmt 1 view .LVU160
 496 00f6 ACE7     		b	.L17
 497              	.LVL53:
 498              	.L43:
 293:..\..\..\..\..\..\Software\uCOS-III\Source/os_time.c ****              return;
ARM GAS  C:\Users\EDULU~1.DES\AppData\Local\Temp\ccUrjA5x.s 			page 17


 499              		.loc 1 293 13 view .LVU161
 293:..\..\..\..\..\..\Software\uCOS-III\Source/os_time.c ****              return;
 500              		.loc 1 293 20 is_stmt 0 view .LVU162
 501 00f8 184B     		ldr	r3, .L46+12
 502 00fa 079A     		ldr	r2, [sp, #28]
 503              	.LVL54:
 293:..\..\..\..\..\..\Software\uCOS-III\Source/os_time.c ****              return;
 504              		.loc 1 293 20 view .LVU163
 505 00fc 1380     		strh	r3, [r2]
 294:..\..\..\..\..\..\Software\uCOS-III\Source/os_time.c ****          }
 506              		.loc 1 294 14 is_stmt 1 view .LVU164
 507 00fe A8E7     		b	.L17
 508              	.LVL55:
 509              	.L44:
 306:..\..\..\..\..\..\Software\uCOS-III\Source/os_time.c ****         OSTCBCurPtr->TaskState = OS_TASK_STATE_DLY;
 510              		.loc 1 306 9 view .LVU165
 306:..\..\..\..\..\..\Software\uCOS-III\Source/os_time.c ****         OSTCBCurPtr->TaskState = OS_TASK_STATE_DLY;
 511              		.loc 1 306 9 view .LVU166
 306:..\..\..\..\..\..\Software\uCOS-III\Source/os_time.c ****         OSTCBCurPtr->TaskState = OS_TASK_STATE_DLY;
 512              		.loc 1 306 9 view .LVU167
 513 0100 FFF7FEFF 		bl	CPU_SR_Save
 514              	.LVL56:
 515 0104 0500     		movs	r5, r0
 516              	.LVL57:
 306:..\..\..\..\..\..\Software\uCOS-III\Source/os_time.c ****         OSTCBCurPtr->TaskState = OS_TASK_STATE_DLY;
 517              		.loc 1 306 9 view .LVU168
 518 0106 FFF7FEFF 		bl	CPU_IntDisMeasStart
 519              	.LVL58:
 307:..\..\..\..\..\..\Software\uCOS-III\Source/os_time.c ****         OS_TickListInsert(OSTCBCurPtr,
 520              		.loc 1 307 9 view .LVU169
 307:..\..\..\..\..\..\Software\uCOS-III\Source/os_time.c ****         OS_TickListInsert(OSTCBCurPtr,
 521              		.loc 1 307 20 is_stmt 0 view .LVU170
 522 010a 1E4B     		ldr	r3, .L46+52
 523 010c 1868     		ldr	r0, [r3]
 307:..\..\..\..\..\..\Software\uCOS-III\Source/os_time.c ****         OS_TickListInsert(OSTCBCurPtr,
 524              		.loc 1 307 32 view .LVU171
 525 010e 3623     		movs	r3, #54
 526 0110 0122     		movs	r2, #1
 527 0112 C254     		strb	r2, [r0, r3]
 308:..\..\..\..\..\..\Software\uCOS-III\Source/os_time.c ****                           ticks,
 528              		.loc 1 308 9 is_stmt 1 view .LVU172
 529 0114 079B     		ldr	r3, [sp, #28]
 530 0116 2200     		movs	r2, r4
 531 0118 3100     		movs	r1, r6
 532 011a FFF7FEFF 		bl	OS_TickListInsert
 533              	.LVL59:
 312:..\..\..\..\..\..\Software\uCOS-III\Source/os_time.c ****              OS_CRITICAL_EXIT_NO_SCHED();
 534              		.loc 1 312 9 view .LVU173
 312:..\..\..\..\..\..\Software\uCOS-III\Source/os_time.c ****              OS_CRITICAL_EXIT_NO_SCHED();
 535              		.loc 1 312 13 is_stmt 0 view .LVU174
 536 011e 079B     		ldr	r3, [sp, #28]
 537 0120 1B88     		ldrh	r3, [r3]
 312:..\..\..\..\..\..\Software\uCOS-III\Source/os_time.c ****              OS_CRITICAL_EXIT_NO_SCHED();
 538              		.loc 1 312 12 view .LVU175
 539 0122 002B     		cmp	r3, #0
 540 0124 0ED1     		bne	.L45
 316:..\..\..\..\..\..\Software\uCOS-III\Source/os_time.c ****         OS_CRITICAL_EXIT_NO_SCHED();
ARM GAS  C:\Users\EDULU~1.DES\AppData\Local\Temp\ccUrjA5x.s 			page 18


 541              		.loc 1 316 9 is_stmt 1 view .LVU176
 542 0126 174B     		ldr	r3, .L46+52
 543 0128 1868     		ldr	r0, [r3]
 544 012a FFF7FEFF 		bl	OS_RdyListRemove
 545              	.LVL60:
 317:..\..\..\..\..\..\Software\uCOS-III\Source/os_time.c ****         OSSched();                                          /* Find next task to run!              
 546              		.loc 1 317 9 view .LVU177
 317:..\..\..\..\..\..\Software\uCOS-III\Source/os_time.c ****         OSSched();                                          /* Find next task to run!              
 547              		.loc 1 317 9 view .LVU178
 548 012e FFF7FEFF 		bl	CPU_IntDisMeasStop
 549              	.LVL61:
 317:..\..\..\..\..\..\Software\uCOS-III\Source/os_time.c ****         OSSched();                                          /* Find next task to run!              
 550              		.loc 1 317 9 view .LVU179
 317:..\..\..\..\..\..\Software\uCOS-III\Source/os_time.c ****         OSSched();                                          /* Find next task to run!              
 551              		.loc 1 317 9 view .LVU180
 552 0132 2800     		movs	r0, r5
 553 0134 FFF7FEFF 		bl	CPU_SR_Restore
 554              	.LVL62:
 318:..\..\..\..\..\..\Software\uCOS-III\Source/os_time.c ****        *p_err = OS_ERR_NONE;
 555              		.loc 1 318 9 view .LVU181
 556 0138 FFF7FEFF 		bl	OSSched
 557              	.LVL63:
 319:..\..\..\..\..\..\Software\uCOS-III\Source/os_time.c ****     } else {
 558              		.loc 1 319 8 view .LVU182
 319:..\..\..\..\..\..\Software\uCOS-III\Source/os_time.c ****     } else {
 559              		.loc 1 319 15 is_stmt 0 view .LVU183
 560 013c 0023     		movs	r3, #0
 561 013e 079A     		ldr	r2, [sp, #28]
 562 0140 1380     		strh	r3, [r2]
 563 0142 86E7     		b	.L17
 564              	.L45:
 313:..\..\..\..\..\..\Software\uCOS-III\Source/os_time.c ****              return;
 565              		.loc 1 313 14 is_stmt 1 view .LVU184
 313:..\..\..\..\..\..\Software\uCOS-III\Source/os_time.c ****              return;
 566              		.loc 1 313 14 view .LVU185
 567 0144 FFF7FEFF 		bl	CPU_IntDisMeasStop
 568              	.LVL64:
 313:..\..\..\..\..\..\Software\uCOS-III\Source/os_time.c ****              return;
 569              		.loc 1 313 14 view .LVU186
 313:..\..\..\..\..\..\Software\uCOS-III\Source/os_time.c ****              return;
 570              		.loc 1 313 14 view .LVU187
 571 0148 2800     		movs	r0, r5
 572 014a FFF7FEFF 		bl	CPU_SR_Restore
 573              	.LVL65:
 314:..\..\..\..\..\..\Software\uCOS-III\Source/os_time.c ****         }
 574              		.loc 1 314 14 view .LVU188
 575 014e 80E7     		b	.L17
 576              	.L47:
 577              		.align	2
 578              	.L46:
 579 0150 00000000 		.word	OSIntNestingCtr
 580 0154 00000000 		.word	OSSchedLockNestingCtr
 581 0158 E7030000 		.word	999
 582 015c 78720000 		.word	29304
 583 0160 75720000 		.word	29301
 584 0164 636D0000 		.word	28003
 585 0168 255E0000 		.word	24101
ARM GAS  C:\Users\EDULU~1.DES\AppData\Local\Temp\ccUrjA5x.s 			page 19


 586 016c 7E720000 		.word	29310
 587 0170 7B720000 		.word	29307
 588 0174 7A720000 		.word	29306
 589 0178 79720000 		.word	29305
 590 017c 0F270000 		.word	9999
 591 0180 00000000 		.word	OSCfg_TickRate_Hz
 592 0184 00000000 		.word	OSTCBCurPtr
 593              		.cfi_endproc
 594              	.LFE4:
 595              		.size	OSTimeDlyHMSM, .-OSTimeDlyHMSM
 596              		.section	.text.OSTimeGet,"ax",%progbits
 597              		.align	1
 598              		.global	OSTimeGet
 599              		.syntax unified
 600              		.code	16
 601              		.thumb_func
 602              		.fpu softvfp
 603              		.type	OSTimeGet, %function
 604              	OSTimeGet:
 605              	.LVL66:
 606              	.LFB5:
 324:..\..\..\..\..\..\Software\uCOS-III\Source/os_time.c **** #endif
 325:..\..\..\..\..\..\Software\uCOS-III\Source/os_time.c **** /*$PAGE*/
 326:..\..\..\..\..\..\Software\uCOS-III\Source/os_time.c **** /*
 327:..\..\..\..\..\..\Software\uCOS-III\Source/os_time.c **** ***************************************************************************************************
 328:..\..\..\..\..\..\Software\uCOS-III\Source/os_time.c **** *                                                RESUME A DELAYED TASK
 329:..\..\..\..\..\..\Software\uCOS-III\Source/os_time.c **** *
 330:..\..\..\..\..\..\Software\uCOS-III\Source/os_time.c **** * Description: This function is used resume a task that has been delayed through a call to either O
 331:..\..\..\..\..\..\Software\uCOS-III\Source/os_time.c **** *              OSTimeDlyHMSM().  Note that cannot call this function to resume a task that is waiti
 332:..\..\..\..\..\..\Software\uCOS-III\Source/os_time.c **** *              with timeout.
 333:..\..\..\..\..\..\Software\uCOS-III\Source/os_time.c **** *
 334:..\..\..\..\..\..\Software\uCOS-III\Source/os_time.c **** * Arguments  : p_tcb    is a pointer to the TCB of the task to resume.
 335:..\..\..\..\..\..\Software\uCOS-III\Source/os_time.c **** *
 336:..\..\..\..\..\..\Software\uCOS-III\Source/os_time.c **** *              p_err    is a pointer to a variable that will receive an error code
 337:..\..\..\..\..\..\Software\uCOS-III\Source/os_time.c **** *
 338:..\..\..\..\..\..\Software\uCOS-III\Source/os_time.c **** *                           OS_ERR_NONE                  Task has been resumed
 339:..\..\..\..\..\..\Software\uCOS-III\Source/os_time.c **** *                           OS_ERR_STATE_INVALID         Task is in an invalid state
 340:..\..\..\..\..\..\Software\uCOS-III\Source/os_time.c **** *                           OS_ERR_TIME_DLY_RESUME_ISR   If called from an ISR
 341:..\..\..\..\..\..\Software\uCOS-III\Source/os_time.c **** *                           OS_ERR_TIME_NOT_DLY          Task is not waiting for time to expire
 342:..\..\..\..\..\..\Software\uCOS-III\Source/os_time.c **** *                           OS_ERR_TASK_SUSPENDED        Task cannot be resumed, it was suspended b
 343:..\..\..\..\..\..\Software\uCOS-III\Source/os_time.c **** *
 344:..\..\..\..\..\..\Software\uCOS-III\Source/os_time.c **** * Note(s)    : none
 345:..\..\..\..\..\..\Software\uCOS-III\Source/os_time.c **** ***************************************************************************************************
 346:..\..\..\..\..\..\Software\uCOS-III\Source/os_time.c **** */
 347:..\..\..\..\..\..\Software\uCOS-III\Source/os_time.c **** 
 348:..\..\..\..\..\..\Software\uCOS-III\Source/os_time.c **** #if OS_CFG_TIME_DLY_RESUME_EN > 0u
 349:..\..\..\..\..\..\Software\uCOS-III\Source/os_time.c **** void  OSTimeDlyResume (OS_TCB  *p_tcb,
 350:..\..\..\..\..\..\Software\uCOS-III\Source/os_time.c ****                        OS_ERR  *p_err)
 351:..\..\..\..\..\..\Software\uCOS-III\Source/os_time.c **** {
 352:..\..\..\..\..\..\Software\uCOS-III\Source/os_time.c ****     CPU_SR_ALLOC();
 353:..\..\..\..\..\..\Software\uCOS-III\Source/os_time.c **** 
 354:..\..\..\..\..\..\Software\uCOS-III\Source/os_time.c **** 
 355:..\..\..\..\..\..\Software\uCOS-III\Source/os_time.c **** 
 356:..\..\..\..\..\..\Software\uCOS-III\Source/os_time.c **** #ifdef OS_SAFETY_CRITICAL
 357:..\..\..\..\..\..\Software\uCOS-III\Source/os_time.c ****     if (p_err == (OS_ERR *)0) {
 358:..\..\..\..\..\..\Software\uCOS-III\Source/os_time.c ****         OS_SAFETY_CRITICAL_EXCEPTION();
 359:..\..\..\..\..\..\Software\uCOS-III\Source/os_time.c ****         return;
ARM GAS  C:\Users\EDULU~1.DES\AppData\Local\Temp\ccUrjA5x.s 			page 20


 360:..\..\..\..\..\..\Software\uCOS-III\Source/os_time.c ****     }
 361:..\..\..\..\..\..\Software\uCOS-III\Source/os_time.c **** #endif
 362:..\..\..\..\..\..\Software\uCOS-III\Source/os_time.c **** 
 363:..\..\..\..\..\..\Software\uCOS-III\Source/os_time.c **** #if OS_CFG_CALLED_FROM_ISR_CHK_EN > 0u
 364:..\..\..\..\..\..\Software\uCOS-III\Source/os_time.c ****     if (OSIntNestingCtr > (OS_NESTING_CTR)0u) {             /* Not allowed to call from an ISR     
 365:..\..\..\..\..\..\Software\uCOS-III\Source/os_time.c ****        *p_err = OS_ERR_TIME_DLY_RESUME_ISR;
 366:..\..\..\..\..\..\Software\uCOS-III\Source/os_time.c ****         return;
 367:..\..\..\..\..\..\Software\uCOS-III\Source/os_time.c ****     }
 368:..\..\..\..\..\..\Software\uCOS-III\Source/os_time.c **** #endif
 369:..\..\..\..\..\..\Software\uCOS-III\Source/os_time.c **** 
 370:..\..\..\..\..\..\Software\uCOS-III\Source/os_time.c **** #if OS_CFG_ARG_CHK_EN > 0u
 371:..\..\..\..\..\..\Software\uCOS-III\Source/os_time.c ****     if (p_tcb == (OS_TCB *)0) {                             /* Not possible for the running task to
 372:..\..\..\..\..\..\Software\uCOS-III\Source/os_time.c ****        *p_err = OS_ERR_TASK_NOT_DLY;
 373:..\..\..\..\..\..\Software\uCOS-III\Source/os_time.c ****         return;
 374:..\..\..\..\..\..\Software\uCOS-III\Source/os_time.c ****     }
 375:..\..\..\..\..\..\Software\uCOS-III\Source/os_time.c **** #endif
 376:..\..\..\..\..\..\Software\uCOS-III\Source/os_time.c **** 
 377:..\..\..\..\..\..\Software\uCOS-III\Source/os_time.c ****     CPU_CRITICAL_ENTER();
 378:..\..\..\..\..\..\Software\uCOS-III\Source/os_time.c ****     if (p_tcb == OSTCBCurPtr) {                             /* Not possible for the running task to
 379:..\..\..\..\..\..\Software\uCOS-III\Source/os_time.c ****        *p_err = OS_ERR_TASK_NOT_DLY;
 380:..\..\..\..\..\..\Software\uCOS-III\Source/os_time.c ****         CPU_CRITICAL_EXIT();
 381:..\..\..\..\..\..\Software\uCOS-III\Source/os_time.c ****         return;
 382:..\..\..\..\..\..\Software\uCOS-III\Source/os_time.c ****     }
 383:..\..\..\..\..\..\Software\uCOS-III\Source/os_time.c **** 
 384:..\..\..\..\..\..\Software\uCOS-III\Source/os_time.c ****     switch (p_tcb->TaskState) {
 385:..\..\..\..\..\..\Software\uCOS-III\Source/os_time.c ****         case OS_TASK_STATE_RDY:                             /* Cannot Abort delay if task is ready 
 386:..\..\..\..\..\..\Software\uCOS-III\Source/os_time.c ****              CPU_CRITICAL_EXIT();
 387:..\..\..\..\..\..\Software\uCOS-III\Source/os_time.c ****             *p_err = OS_ERR_TASK_NOT_DLY;
 388:..\..\..\..\..\..\Software\uCOS-III\Source/os_time.c ****              break;
 389:..\..\..\..\..\..\Software\uCOS-III\Source/os_time.c **** 
 390:..\..\..\..\..\..\Software\uCOS-III\Source/os_time.c ****         case OS_TASK_STATE_DLY:
 391:..\..\..\..\..\..\Software\uCOS-III\Source/os_time.c ****              OS_CRITICAL_ENTER_CPU_EXIT();
 392:..\..\..\..\..\..\Software\uCOS-III\Source/os_time.c ****              p_tcb->TaskState = OS_TASK_STATE_RDY;
 393:..\..\..\..\..\..\Software\uCOS-III\Source/os_time.c ****              OS_TickListRemove(p_tcb);                      /* Remove task from tick list          
 394:..\..\..\..\..\..\Software\uCOS-III\Source/os_time.c ****              OS_RdyListInsert(p_tcb);                       /* Add to ready list                   
 395:..\..\..\..\..\..\Software\uCOS-III\Source/os_time.c ****              OS_CRITICAL_EXIT_NO_SCHED();
 396:..\..\..\..\..\..\Software\uCOS-III\Source/os_time.c ****             *p_err = OS_ERR_NONE;
 397:..\..\..\..\..\..\Software\uCOS-III\Source/os_time.c ****              break;
 398:..\..\..\..\..\..\Software\uCOS-III\Source/os_time.c **** 
 399:..\..\..\..\..\..\Software\uCOS-III\Source/os_time.c ****         case OS_TASK_STATE_PEND:
 400:..\..\..\..\..\..\Software\uCOS-III\Source/os_time.c ****              CPU_CRITICAL_EXIT();
 401:..\..\..\..\..\..\Software\uCOS-III\Source/os_time.c ****             *p_err = OS_ERR_TASK_NOT_DLY;
 402:..\..\..\..\..\..\Software\uCOS-III\Source/os_time.c ****              break;
 403:..\..\..\..\..\..\Software\uCOS-III\Source/os_time.c **** 
 404:..\..\..\..\..\..\Software\uCOS-III\Source/os_time.c ****         case OS_TASK_STATE_PEND_TIMEOUT:
 405:..\..\..\..\..\..\Software\uCOS-III\Source/os_time.c ****              CPU_CRITICAL_EXIT();
 406:..\..\..\..\..\..\Software\uCOS-III\Source/os_time.c ****             *p_err = OS_ERR_TASK_NOT_DLY;
 407:..\..\..\..\..\..\Software\uCOS-III\Source/os_time.c ****              break;
 408:..\..\..\..\..\..\Software\uCOS-III\Source/os_time.c **** 
 409:..\..\..\..\..\..\Software\uCOS-III\Source/os_time.c ****         case OS_TASK_STATE_SUSPENDED:
 410:..\..\..\..\..\..\Software\uCOS-III\Source/os_time.c ****              CPU_CRITICAL_EXIT();
 411:..\..\..\..\..\..\Software\uCOS-III\Source/os_time.c ****             *p_err = OS_ERR_TASK_NOT_DLY;
 412:..\..\..\..\..\..\Software\uCOS-III\Source/os_time.c ****              break;
 413:..\..\..\..\..\..\Software\uCOS-III\Source/os_time.c **** 
 414:..\..\..\..\..\..\Software\uCOS-III\Source/os_time.c ****         case OS_TASK_STATE_DLY_SUSPENDED:
 415:..\..\..\..\..\..\Software\uCOS-III\Source/os_time.c ****              OS_CRITICAL_ENTER_CPU_EXIT();
 416:..\..\..\..\..\..\Software\uCOS-III\Source/os_time.c ****              p_tcb->TaskState = OS_TASK_STATE_SUSPENDED;
ARM GAS  C:\Users\EDULU~1.DES\AppData\Local\Temp\ccUrjA5x.s 			page 21


 417:..\..\..\..\..\..\Software\uCOS-III\Source/os_time.c ****              OS_TickListRemove(p_tcb);                      /* Remove task from tick list          
 418:..\..\..\..\..\..\Software\uCOS-III\Source/os_time.c ****              OS_CRITICAL_EXIT_NO_SCHED();
 419:..\..\..\..\..\..\Software\uCOS-III\Source/os_time.c ****             *p_err            = OS_ERR_TASK_SUSPENDED;
 420:..\..\..\..\..\..\Software\uCOS-III\Source/os_time.c ****              break;
 421:..\..\..\..\..\..\Software\uCOS-III\Source/os_time.c **** 
 422:..\..\..\..\..\..\Software\uCOS-III\Source/os_time.c ****         case OS_TASK_STATE_PEND_SUSPENDED:
 423:..\..\..\..\..\..\Software\uCOS-III\Source/os_time.c ****              CPU_CRITICAL_EXIT();
 424:..\..\..\..\..\..\Software\uCOS-III\Source/os_time.c ****             *p_err = OS_ERR_TASK_NOT_DLY;
 425:..\..\..\..\..\..\Software\uCOS-III\Source/os_time.c ****              break;
 426:..\..\..\..\..\..\Software\uCOS-III\Source/os_time.c **** 
 427:..\..\..\..\..\..\Software\uCOS-III\Source/os_time.c ****         case OS_TASK_STATE_PEND_TIMEOUT_SUSPENDED:
 428:..\..\..\..\..\..\Software\uCOS-III\Source/os_time.c ****              CPU_CRITICAL_EXIT();
 429:..\..\..\..\..\..\Software\uCOS-III\Source/os_time.c ****             *p_err = OS_ERR_TASK_NOT_DLY;
 430:..\..\..\..\..\..\Software\uCOS-III\Source/os_time.c ****              break;
 431:..\..\..\..\..\..\Software\uCOS-III\Source/os_time.c **** 
 432:..\..\..\..\..\..\Software\uCOS-III\Source/os_time.c ****         default:
 433:..\..\..\..\..\..\Software\uCOS-III\Source/os_time.c ****              CPU_CRITICAL_EXIT();
 434:..\..\..\..\..\..\Software\uCOS-III\Source/os_time.c ****             *p_err = OS_ERR_STATE_INVALID;
 435:..\..\..\..\..\..\Software\uCOS-III\Source/os_time.c ****              break;
 436:..\..\..\..\..\..\Software\uCOS-III\Source/os_time.c ****     }
 437:..\..\..\..\..\..\Software\uCOS-III\Source/os_time.c **** 
 438:..\..\..\..\..\..\Software\uCOS-III\Source/os_time.c ****     OSSched();
 439:..\..\..\..\..\..\Software\uCOS-III\Source/os_time.c **** }
 440:..\..\..\..\..\..\Software\uCOS-III\Source/os_time.c **** #endif
 441:..\..\..\..\..\..\Software\uCOS-III\Source/os_time.c **** /*$PAGE*/
 442:..\..\..\..\..\..\Software\uCOS-III\Source/os_time.c **** /*
 443:..\..\..\..\..\..\Software\uCOS-III\Source/os_time.c **** ***************************************************************************************************
 444:..\..\..\..\..\..\Software\uCOS-III\Source/os_time.c **** *                                               GET CURRENT SYSTEM TIME
 445:..\..\..\..\..\..\Software\uCOS-III\Source/os_time.c **** *
 446:..\..\..\..\..\..\Software\uCOS-III\Source/os_time.c **** * Description: This function is used by your application to obtain the current value of the counter
 447:..\..\..\..\..\..\Software\uCOS-III\Source/os_time.c **** *              the number of clock ticks.
 448:..\..\..\..\..\..\Software\uCOS-III\Source/os_time.c **** *
 449:..\..\..\..\..\..\Software\uCOS-III\Source/os_time.c **** * Arguments  : p_err    is a pointer to a variable that will receive an error code
 450:..\..\..\..\..\..\Software\uCOS-III\Source/os_time.c **** *
 451:..\..\..\..\..\..\Software\uCOS-III\Source/os_time.c **** *                           OS_ERR_NONE           If the call was successful
 452:..\..\..\..\..\..\Software\uCOS-III\Source/os_time.c **** *
 453:..\..\..\..\..\..\Software\uCOS-III\Source/os_time.c **** * Returns    : The current value of OSTickCtr
 454:..\..\..\..\..\..\Software\uCOS-III\Source/os_time.c **** ***************************************************************************************************
 455:..\..\..\..\..\..\Software\uCOS-III\Source/os_time.c **** */
 456:..\..\..\..\..\..\Software\uCOS-III\Source/os_time.c **** 
 457:..\..\..\..\..\..\Software\uCOS-III\Source/os_time.c **** OS_TICK  OSTimeGet (OS_ERR  *p_err)
 458:..\..\..\..\..\..\Software\uCOS-III\Source/os_time.c **** {
 607              		.loc 1 458 1 view -0
 608              		.cfi_startproc
 609              		@ args = 0, pretend = 0, frame = 0
 610              		@ frame_needed = 0, uses_anonymous_args = 0
 611              		.loc 1 458 1 is_stmt 0 view .LVU190
 612 0000 70B5     		push	{r4, r5, r6, lr}
 613              		.cfi_def_cfa_offset 16
 614              		.cfi_offset 4, -16
 615              		.cfi_offset 5, -12
 616              		.cfi_offset 6, -8
 617              		.cfi_offset 14, -4
 618 0002 0500     		movs	r5, r0
 459:..\..\..\..\..\..\Software\uCOS-III\Source/os_time.c ****     OS_TICK  ticks;
 619              		.loc 1 459 5 is_stmt 1 view .LVU191
 460:..\..\..\..\..\..\Software\uCOS-III\Source/os_time.c ****     CPU_SR_ALLOC();
ARM GAS  C:\Users\EDULU~1.DES\AppData\Local\Temp\ccUrjA5x.s 			page 22


 620              		.loc 1 460 5 view .LVU192
 621              	.LVL67:
 461:..\..\..\..\..\..\Software\uCOS-III\Source/os_time.c **** 
 462:..\..\..\..\..\..\Software\uCOS-III\Source/os_time.c **** 
 463:..\..\..\..\..\..\Software\uCOS-III\Source/os_time.c **** 
 464:..\..\..\..\..\..\Software\uCOS-III\Source/os_time.c **** #ifdef OS_SAFETY_CRITICAL
 465:..\..\..\..\..\..\Software\uCOS-III\Source/os_time.c ****     if (p_err == (OS_ERR *)0) {
 466:..\..\..\..\..\..\Software\uCOS-III\Source/os_time.c ****         OS_SAFETY_CRITICAL_EXCEPTION();
 467:..\..\..\..\..\..\Software\uCOS-III\Source/os_time.c ****         return ((OS_TICK)0);
 468:..\..\..\..\..\..\Software\uCOS-III\Source/os_time.c ****     }
 469:..\..\..\..\..\..\Software\uCOS-III\Source/os_time.c **** #endif
 470:..\..\..\..\..\..\Software\uCOS-III\Source/os_time.c **** 
 471:..\..\..\..\..\..\Software\uCOS-III\Source/os_time.c ****     CPU_CRITICAL_ENTER();
 622              		.loc 1 471 5 view .LVU193
 623              		.loc 1 471 5 view .LVU194
 624              		.loc 1 471 5 view .LVU195
 625 0004 FFF7FEFF 		bl	CPU_SR_Save
 626              	.LVL68:
 627              		.loc 1 471 5 is_stmt 0 view .LVU196
 628 0008 0600     		movs	r6, r0
 629              	.LVL69:
 630              		.loc 1 471 5 is_stmt 1 view .LVU197
 631 000a FFF7FEFF 		bl	CPU_IntDisMeasStart
 632              	.LVL70:
 472:..\..\..\..\..\..\Software\uCOS-III\Source/os_time.c ****     ticks = OSTickCtr;
 633              		.loc 1 472 5 view .LVU198
 634              		.loc 1 472 11 is_stmt 0 view .LVU199
 635 000e 054B     		ldr	r3, .L49
 636 0010 1C68     		ldr	r4, [r3]
 637              	.LVL71:
 473:..\..\..\..\..\..\Software\uCOS-III\Source/os_time.c ****     CPU_CRITICAL_EXIT();
 638              		.loc 1 473 5 is_stmt 1 view .LVU200
 639              		.loc 1 473 5 view .LVU201
 640 0012 FFF7FEFF 		bl	CPU_IntDisMeasStop
 641              	.LVL72:
 642              		.loc 1 473 5 view .LVU202
 643              		.loc 1 473 5 view .LVU203
 644 0016 3000     		movs	r0, r6
 645 0018 FFF7FEFF 		bl	CPU_SR_Restore
 646              	.LVL73:
 474:..\..\..\..\..\..\Software\uCOS-III\Source/os_time.c ****    *p_err = OS_ERR_NONE;
 647              		.loc 1 474 4 view .LVU204
 648              		.loc 1 474 11 is_stmt 0 view .LVU205
 649 001c 0023     		movs	r3, #0
 650 001e 2B80     		strh	r3, [r5]
 475:..\..\..\..\..\..\Software\uCOS-III\Source/os_time.c ****     return (ticks);
 651              		.loc 1 475 5 is_stmt 1 view .LVU206
 476:..\..\..\..\..\..\Software\uCOS-III\Source/os_time.c **** }
 652              		.loc 1 476 1 is_stmt 0 view .LVU207
 653 0020 2000     		movs	r0, r4
 654              		@ sp needed
 655              	.LVL74:
 656              	.LVL75:
 657              	.LVL76:
 658              		.loc 1 476 1 view .LVU208
 659 0022 70BD     		pop	{r4, r5, r6, pc}
 660              	.L50:
ARM GAS  C:\Users\EDULU~1.DES\AppData\Local\Temp\ccUrjA5x.s 			page 23


 661              		.align	2
 662              	.L49:
 663 0024 00000000 		.word	OSTickCtr
 664              		.cfi_endproc
 665              	.LFE5:
 666              		.size	OSTimeGet, .-OSTimeGet
 667              		.section	.text.OSTimeSet,"ax",%progbits
 668              		.align	1
 669              		.global	OSTimeSet
 670              		.syntax unified
 671              		.code	16
 672              		.thumb_func
 673              		.fpu softvfp
 674              		.type	OSTimeSet, %function
 675              	OSTimeSet:
 676              	.LVL77:
 677              	.LFB6:
 477:..\..\..\..\..\..\Software\uCOS-III\Source/os_time.c **** 
 478:..\..\..\..\..\..\Software\uCOS-III\Source/os_time.c **** /*
 479:..\..\..\..\..\..\Software\uCOS-III\Source/os_time.c **** ***************************************************************************************************
 480:..\..\..\..\..\..\Software\uCOS-III\Source/os_time.c **** *                                                   SET SYSTEM CLOCK
 481:..\..\..\..\..\..\Software\uCOS-III\Source/os_time.c **** *
 482:..\..\..\..\..\..\Software\uCOS-III\Source/os_time.c **** * Description: This function sets the counter which keeps track of the number of clock ticks.
 483:..\..\..\..\..\..\Software\uCOS-III\Source/os_time.c **** *
 484:..\..\..\..\..\..\Software\uCOS-III\Source/os_time.c **** * Arguments  : ticks    is the desired tick value
 485:..\..\..\..\..\..\Software\uCOS-III\Source/os_time.c **** *
 486:..\..\..\..\..\..\Software\uCOS-III\Source/os_time.c **** *              p_err    is a pointer to a variable that will receive an error code
 487:..\..\..\..\..\..\Software\uCOS-III\Source/os_time.c **** *
 488:..\..\..\..\..\..\Software\uCOS-III\Source/os_time.c **** *                           OS_ERR_NONE           If the call was successful
 489:..\..\..\..\..\..\Software\uCOS-III\Source/os_time.c **** *
 490:..\..\..\..\..\..\Software\uCOS-III\Source/os_time.c **** * Returns    : none
 491:..\..\..\..\..\..\Software\uCOS-III\Source/os_time.c **** ***************************************************************************************************
 492:..\..\..\..\..\..\Software\uCOS-III\Source/os_time.c **** */
 493:..\..\..\..\..\..\Software\uCOS-III\Source/os_time.c **** 
 494:..\..\..\..\..\..\Software\uCOS-III\Source/os_time.c **** void  OSTimeSet (OS_TICK   ticks,
 495:..\..\..\..\..\..\Software\uCOS-III\Source/os_time.c ****                  OS_ERR   *p_err)
 496:..\..\..\..\..\..\Software\uCOS-III\Source/os_time.c **** {
 678              		.loc 1 496 1 is_stmt 1 view -0
 679              		.cfi_startproc
 680              		@ args = 0, pretend = 0, frame = 0
 681              		@ frame_needed = 0, uses_anonymous_args = 0
 682              		.loc 1 496 1 is_stmt 0 view .LVU210
 683 0000 70B5     		push	{r4, r5, r6, lr}
 684              		.cfi_def_cfa_offset 16
 685              		.cfi_offset 4, -16
 686              		.cfi_offset 5, -12
 687              		.cfi_offset 6, -8
 688              		.cfi_offset 14, -4
 689 0002 0600     		movs	r6, r0
 690 0004 0C00     		movs	r4, r1
 497:..\..\..\..\..\..\Software\uCOS-III\Source/os_time.c ****     CPU_SR_ALLOC();
 691              		.loc 1 497 5 is_stmt 1 view .LVU211
 692              	.LVL78:
 498:..\..\..\..\..\..\Software\uCOS-III\Source/os_time.c **** 
 499:..\..\..\..\..\..\Software\uCOS-III\Source/os_time.c **** 
 500:..\..\..\..\..\..\Software\uCOS-III\Source/os_time.c **** 
 501:..\..\..\..\..\..\Software\uCOS-III\Source/os_time.c **** #ifdef OS_SAFETY_CRITICAL
ARM GAS  C:\Users\EDULU~1.DES\AppData\Local\Temp\ccUrjA5x.s 			page 24


 502:..\..\..\..\..\..\Software\uCOS-III\Source/os_time.c ****     if (p_err == (OS_ERR *)0) {
 503:..\..\..\..\..\..\Software\uCOS-III\Source/os_time.c ****         OS_SAFETY_CRITICAL_EXCEPTION();
 504:..\..\..\..\..\..\Software\uCOS-III\Source/os_time.c ****         return;
 505:..\..\..\..\..\..\Software\uCOS-III\Source/os_time.c ****     }
 506:..\..\..\..\..\..\Software\uCOS-III\Source/os_time.c **** #endif
 507:..\..\..\..\..\..\Software\uCOS-III\Source/os_time.c **** 
 508:..\..\..\..\..\..\Software\uCOS-III\Source/os_time.c ****     CPU_CRITICAL_ENTER();
 693              		.loc 1 508 5 view .LVU212
 694              		.loc 1 508 5 view .LVU213
 695              		.loc 1 508 5 view .LVU214
 696 0006 FFF7FEFF 		bl	CPU_SR_Save
 697              	.LVL79:
 698              		.loc 1 508 5 is_stmt 0 view .LVU215
 699 000a 0500     		movs	r5, r0
 700              	.LVL80:
 701              		.loc 1 508 5 is_stmt 1 view .LVU216
 702 000c FFF7FEFF 		bl	CPU_IntDisMeasStart
 703              	.LVL81:
 509:..\..\..\..\..\..\Software\uCOS-III\Source/os_time.c ****     OSTickCtr = ticks;
 704              		.loc 1 509 5 view .LVU217
 705              		.loc 1 509 15 is_stmt 0 view .LVU218
 706 0010 044B     		ldr	r3, .L52
 707 0012 1E60     		str	r6, [r3]
 510:..\..\..\..\..\..\Software\uCOS-III\Source/os_time.c ****     CPU_CRITICAL_EXIT();
 708              		.loc 1 510 5 is_stmt 1 view .LVU219
 709              		.loc 1 510 5 view .LVU220
 710 0014 FFF7FEFF 		bl	CPU_IntDisMeasStop
 711              	.LVL82:
 712              		.loc 1 510 5 view .LVU221
 713              		.loc 1 510 5 view .LVU222
 714 0018 2800     		movs	r0, r5
 715 001a FFF7FEFF 		bl	CPU_SR_Restore
 716              	.LVL83:
 511:..\..\..\..\..\..\Software\uCOS-III\Source/os_time.c ****    *p_err     = OS_ERR_NONE;
 717              		.loc 1 511 4 view .LVU223
 718              		.loc 1 511 15 is_stmt 0 view .LVU224
 719 001e 0023     		movs	r3, #0
 720 0020 2380     		strh	r3, [r4]
 512:..\..\..\..\..\..\Software\uCOS-III\Source/os_time.c **** }
 721              		.loc 1 512 1 view .LVU225
 722              		@ sp needed
 723              	.LVL84:
 724              	.LVL85:
 725              	.LVL86:
 726              		.loc 1 512 1 view .LVU226
 727 0022 70BD     		pop	{r4, r5, r6, pc}
 728              	.L53:
 729              		.align	2
 730              	.L52:
 731 0024 00000000 		.word	OSTickCtr
 732              		.cfi_endproc
 733              	.LFE6:
 734              		.size	OSTimeSet, .-OSTimeSet
 735              		.section	.text.OSTimeTick,"ax",%progbits
 736              		.align	1
 737              		.global	OSTimeTick
 738              		.syntax unified
ARM GAS  C:\Users\EDULU~1.DES\AppData\Local\Temp\ccUrjA5x.s 			page 25


 739              		.code	16
 740              		.thumb_func
 741              		.fpu softvfp
 742              		.type	OSTimeTick, %function
 743              	OSTimeTick:
 744              	.LFB7:
 513:..\..\..\..\..\..\Software\uCOS-III\Source/os_time.c **** 
 514:..\..\..\..\..\..\Software\uCOS-III\Source/os_time.c **** /*$PAGE*/
 515:..\..\..\..\..\..\Software\uCOS-III\Source/os_time.c **** /*
 516:..\..\..\..\..\..\Software\uCOS-III\Source/os_time.c **** ***************************************************************************************************
 517:..\..\..\..\..\..\Software\uCOS-III\Source/os_time.c **** *                                                 PROCESS SYSTEM TICK
 518:..\..\..\..\..\..\Software\uCOS-III\Source/os_time.c **** *
 519:..\..\..\..\..\..\Software\uCOS-III\Source/os_time.c **** * Description: This function is used to signal to uC/OS-III the occurrence of a 'system tick' (also
 520:..\..\..\..\..\..\Software\uCOS-III\Source/os_time.c **** *              'clock tick').  This function should be called by the tick ISR.
 521:..\..\..\..\..\..\Software\uCOS-III\Source/os_time.c **** *
 522:..\..\..\..\..\..\Software\uCOS-III\Source/os_time.c **** * Arguments  : none
 523:..\..\..\..\..\..\Software\uCOS-III\Source/os_time.c **** *
 524:..\..\..\..\..\..\Software\uCOS-III\Source/os_time.c **** * Returns    : none
 525:..\..\..\..\..\..\Software\uCOS-III\Source/os_time.c **** ***************************************************************************************************
 526:..\..\..\..\..\..\Software\uCOS-III\Source/os_time.c **** */
 527:..\..\..\..\..\..\Software\uCOS-III\Source/os_time.c **** 
 528:..\..\..\..\..\..\Software\uCOS-III\Source/os_time.c **** void  OSTimeTick (void)
 529:..\..\..\..\..\..\Software\uCOS-III\Source/os_time.c **** {
 745              		.loc 1 529 1 is_stmt 1 view -0
 746              		.cfi_startproc
 747              		@ args = 0, pretend = 0, frame = 8
 748              		@ frame_needed = 0, uses_anonymous_args = 0
 749 0000 00B5     		push	{lr}
 750              		.cfi_def_cfa_offset 4
 751              		.cfi_offset 14, -4
 752 0002 83B0     		sub	sp, sp, #12
 753              		.cfi_def_cfa_offset 16
 530:..\..\..\..\..\..\Software\uCOS-III\Source/os_time.c ****     OS_ERR  err;
 754              		.loc 1 530 5 view .LVU228
 531:..\..\..\..\..\..\Software\uCOS-III\Source/os_time.c **** #if OS_CFG_ISR_POST_DEFERRED_EN > 0u
 532:..\..\..\..\..\..\Software\uCOS-III\Source/os_time.c ****     CPU_TS  ts;
 533:..\..\..\..\..\..\Software\uCOS-III\Source/os_time.c **** #endif
 534:..\..\..\..\..\..\Software\uCOS-III\Source/os_time.c **** 
 535:..\..\..\..\..\..\Software\uCOS-III\Source/os_time.c **** 
 536:..\..\..\..\..\..\Software\uCOS-III\Source/os_time.c ****     OSTimeTickHook();                                       /* Call user definable hook            
 755              		.loc 1 536 5 view .LVU229
 756 0004 FFF7FEFF 		bl	OSTimeTickHook
 757              	.LVL87:
 537:..\..\..\..\..\..\Software\uCOS-III\Source/os_time.c **** 
 538:..\..\..\..\..\..\Software\uCOS-III\Source/os_time.c **** #if OS_CFG_ISR_POST_DEFERRED_EN > 0u
 539:..\..\..\..\..\..\Software\uCOS-III\Source/os_time.c **** 
 540:..\..\..\..\..\..\Software\uCOS-III\Source/os_time.c ****     ts = OS_TS_GET();                                       /* Get timestamp                       
 541:..\..\..\..\..\..\Software\uCOS-III\Source/os_time.c ****     OS_IntQPost((OS_OBJ_TYPE) OS_OBJ_TYPE_TICK,             /* Post to ISR queue                   
 542:..\..\..\..\..\..\Software\uCOS-III\Source/os_time.c ****                 (void      *)&OSRdyList[OSPrioCur],
 543:..\..\..\..\..\..\Software\uCOS-III\Source/os_time.c ****                 (void      *) 0,
 544:..\..\..\..\..\..\Software\uCOS-III\Source/os_time.c ****                 (OS_MSG_SIZE) 0u,
 545:..\..\..\..\..\..\Software\uCOS-III\Source/os_time.c ****                 (OS_FLAGS   ) 0u,
 546:..\..\..\..\..\..\Software\uCOS-III\Source/os_time.c ****                 (OS_OPT     ) 0u,
 547:..\..\..\..\..\..\Software\uCOS-III\Source/os_time.c ****                 (CPU_TS     ) ts,
 548:..\..\..\..\..\..\Software\uCOS-III\Source/os_time.c ****                 (OS_ERR    *)&err);
 549:..\..\..\..\..\..\Software\uCOS-III\Source/os_time.c **** 
 550:..\..\..\..\..\..\Software\uCOS-III\Source/os_time.c **** #else
ARM GAS  C:\Users\EDULU~1.DES\AppData\Local\Temp\ccUrjA5x.s 			page 26


 551:..\..\..\..\..\..\Software\uCOS-III\Source/os_time.c **** 
 552:..\..\..\..\..\..\Software\uCOS-III\Source/os_time.c ****    (void)OSTaskSemPost((OS_TCB *)&OSTickTaskTCB,            /* Signal tick task                    
 758              		.loc 1 552 4 view .LVU230
 759              		.loc 1 552 10 is_stmt 0 view .LVU231
 760 0008 6B46     		mov	r3, sp
 761 000a 9A1D     		adds	r2, r3, #6
 762 000c 0021     		movs	r1, #0
 763 000e 0B48     		ldr	r0, .L57
 764 0010 FFF7FEFF 		bl	OSTaskSemPost
 765              	.LVL88:
 553:..\..\..\..\..\..\Software\uCOS-III\Source/os_time.c ****                        (OS_OPT  ) OS_OPT_POST_NONE,
 554:..\..\..\..\..\..\Software\uCOS-III\Source/os_time.c ****                        (OS_ERR *)&err);
 555:..\..\..\..\..\..\Software\uCOS-III\Source/os_time.c **** 
 556:..\..\..\..\..\..\Software\uCOS-III\Source/os_time.c **** 
 557:..\..\..\..\..\..\Software\uCOS-III\Source/os_time.c **** #if OS_CFG_SCHED_ROUND_ROBIN_EN > 0u
 558:..\..\..\..\..\..\Software\uCOS-III\Source/os_time.c ****     OS_SchedRoundRobin(&OSRdyList[OSPrioCur]);
 559:..\..\..\..\..\..\Software\uCOS-III\Source/os_time.c **** #endif
 560:..\..\..\..\..\..\Software\uCOS-III\Source/os_time.c **** 
 561:..\..\..\..\..\..\Software\uCOS-III\Source/os_time.c **** #if OS_CFG_TMR_EN > 0u
 562:..\..\..\..\..\..\Software\uCOS-III\Source/os_time.c ****     OSTmrUpdateCtr--;
 766              		.loc 1 562 5 is_stmt 1 view .LVU232
 767              		.loc 1 562 19 is_stmt 0 view .LVU233
 768 0014 0A4A     		ldr	r2, .L57+4
 769 0016 1368     		ldr	r3, [r2]
 770 0018 013B     		subs	r3, r3, #1
 771 001a 1360     		str	r3, [r2]
 563:..\..\..\..\..\..\Software\uCOS-III\Source/os_time.c ****     if (OSTmrUpdateCtr == (OS_CTR)0u) {
 772              		.loc 1 563 5 is_stmt 1 view .LVU234
 773              		.loc 1 563 8 is_stmt 0 view .LVU235
 774 001c 002B     		cmp	r3, #0
 775 001e 01D0     		beq	.L56
 776              	.L54:
 564:..\..\..\..\..\..\Software\uCOS-III\Source/os_time.c ****         OSTmrUpdateCtr = OSTmrUpdateCnt;
 565:..\..\..\..\..\..\Software\uCOS-III\Source/os_time.c ****         OSTaskSemPost((OS_TCB *)&OSTmrTaskTCB,              /* Signal timer task                   
 566:..\..\..\..\..\..\Software\uCOS-III\Source/os_time.c ****                       (OS_OPT  ) OS_OPT_POST_NONE,
 567:..\..\..\..\..\..\Software\uCOS-III\Source/os_time.c ****                       (OS_ERR *)&err);
 568:..\..\..\..\..\..\Software\uCOS-III\Source/os_time.c ****     }
 569:..\..\..\..\..\..\Software\uCOS-III\Source/os_time.c **** #endif
 570:..\..\..\..\..\..\Software\uCOS-III\Source/os_time.c **** 
 571:..\..\..\..\..\..\Software\uCOS-III\Source/os_time.c **** #endif
 572:..\..\..\..\..\..\Software\uCOS-III\Source/os_time.c **** }
 777              		.loc 1 572 1 view .LVU236
 778 0020 03B0     		add	sp, sp, #12
 779              		@ sp needed
 780 0022 00BD     		pop	{pc}
 781              	.L56:
 564:..\..\..\..\..\..\Software\uCOS-III\Source/os_time.c ****         OSTmrUpdateCtr = OSTmrUpdateCnt;
 782              		.loc 1 564 9 is_stmt 1 view .LVU237
 564:..\..\..\..\..\..\Software\uCOS-III\Source/os_time.c ****         OSTmrUpdateCtr = OSTmrUpdateCnt;
 783              		.loc 1 564 24 is_stmt 0 view .LVU238
 784 0024 074B     		ldr	r3, .L57+8
 785 0026 1A68     		ldr	r2, [r3]
 786 0028 054B     		ldr	r3, .L57+4
 787 002a 1A60     		str	r2, [r3]
 565:..\..\..\..\..\..\Software\uCOS-III\Source/os_time.c ****                       (OS_OPT  ) OS_OPT_POST_NONE,
 788              		.loc 1 565 9 is_stmt 1 view .LVU239
 789 002c 6B46     		mov	r3, sp
ARM GAS  C:\Users\EDULU~1.DES\AppData\Local\Temp\ccUrjA5x.s 			page 27


 790 002e 9A1D     		adds	r2, r3, #6
 791 0030 0021     		movs	r1, #0
 792 0032 0548     		ldr	r0, .L57+12
 793 0034 FFF7FEFF 		bl	OSTaskSemPost
 794              	.LVL89:
 795              		.loc 1 572 1 is_stmt 0 view .LVU240
 796 0038 F2E7     		b	.L54
 797              	.L58:
 798 003a C046     		.align	2
 799              	.L57:
 800 003c 00000000 		.word	OSTickTaskTCB
 801 0040 00000000 		.word	OSTmrUpdateCtr
 802 0044 00000000 		.word	OSTmrUpdateCnt
 803 0048 00000000 		.word	OSTmrTaskTCB
 804              		.cfi_endproc
 805              	.LFE7:
 806              		.size	OSTimeTick, .-OSTimeTick
 807              		.text
 808              	.Letext0:
 809              		.file 2 "..\\..\\..\\..\\..\\..\\Software\\uC-CPU\\ARM-Cortex-M0\\GNU/cpu.h"
 810              		.file 3 "c:\\program files (x86)\\gnu tools arm embedded\\8 2018-q4-major\\arm-none-eabi\\include\
 811              		.file 4 "c:\\program files (x86)\\gnu tools arm embedded\\8 2018-q4-major\\arm-none-eabi\\include\
 812              		.file 5 "c:\\program files (x86)\\gnu tools arm embedded\\8 2018-q4-major\\lib\\gcc\\arm-none-eabi
 813              		.file 6 "c:\\program files (x86)\\gnu tools arm embedded\\8 2018-q4-major\\arm-none-eabi\\include\
 814              		.file 7 "..\\..\\..\\..\\..\\..\\Software\\uC-CPU/cpu_core.h"
 815              		.file 8 "..\\..\\..\\..\\..\\..\\Software\\uCOS-III\\Source/os_type.h"
 816              		.file 9 "..\\..\\..\\..\\..\\..\\Software\\uCOS-III\\Ports\\ARM-Cortex-M0\\Generic\\GNU/os_cpu.h"
 817              		.file 10 "..\\..\\..\\..\\..\\..\\Software\\uCOS-III\\Source/os.h"