ARM GAS  C:\Users\EDULU~1.DES\AppData\Local\Temp\ccxcKTgR.s 			page 1


   1              		.cpu cortex-m0
   2              		.eabi_attribute 20, 1
   3              		.eabi_attribute 21, 1
   4              		.eabi_attribute 23, 3
   5              		.eabi_attribute 24, 1
   6              		.eabi_attribute 25, 1
   7              		.eabi_attribute 26, 1
   8              		.eabi_attribute 30, 1
   9              		.eabi_attribute 34, 0
  10              		.eabi_attribute 18, 4
  11              		.file	"os_task.c"
  12              		.text
  13              	.Ltext0:
  14              		.cfi_sections	.debug_frame
  15              		.section	.text.OSTaskChangePrio,"ax",%progbits
  16              		.align	1
  17              		.global	OSTaskChangePrio
  18              		.arch armv6s-m
  19              		.syntax unified
  20              		.code	16
  21              		.thumb_func
  22              		.fpu softvfp
  23              		.type	OSTaskChangePrio, %function
  24              	OSTaskChangePrio:
  25              	.LVL0:
  26              	.LFB3:
  27              		.file 1 "..\\..\\..\\..\\..\\..\\Software\\uCOS-III\\Source\\os_task.c"
   1:..\..\..\..\..\..\Software\uCOS-III\Source/os_task.c **** /*
   2:..\..\..\..\..\..\Software\uCOS-III\Source/os_task.c **** ***************************************************************************************************
   3:..\..\..\..\..\..\Software\uCOS-III\Source/os_task.c **** *                                                      uC/OS-III
   4:..\..\..\..\..\..\Software\uCOS-III\Source/os_task.c **** *                                                 The Real-Time Kernel
   5:..\..\..\..\..\..\Software\uCOS-III\Source/os_task.c **** *
   6:..\..\..\..\..\..\Software\uCOS-III\Source/os_task.c **** *                                  (c) Copyright 2009-2012; Micrium, Inc.; Weston, FL
   7:..\..\..\..\..\..\Software\uCOS-III\Source/os_task.c **** *                           All rights reserved.  Protected by international copyright laws.
   8:..\..\..\..\..\..\Software\uCOS-III\Source/os_task.c **** *
   9:..\..\..\..\..\..\Software\uCOS-III\Source/os_task.c **** *                                                   TASK MANAGEMENT
  10:..\..\..\..\..\..\Software\uCOS-III\Source/os_task.c **** *
  11:..\..\..\..\..\..\Software\uCOS-III\Source/os_task.c **** * File    : OS_TASK.C
  12:..\..\..\..\..\..\Software\uCOS-III\Source/os_task.c **** * By      : JJL
  13:..\..\..\..\..\..\Software\uCOS-III\Source/os_task.c **** * Version : V3.03.01
  14:..\..\..\..\..\..\Software\uCOS-III\Source/os_task.c **** *
  15:..\..\..\..\..\..\Software\uCOS-III\Source/os_task.c **** * LICENSING TERMS:
  16:..\..\..\..\..\..\Software\uCOS-III\Source/os_task.c **** * ---------------
  17:..\..\..\..\..\..\Software\uCOS-III\Source/os_task.c **** *           uC/OS-III is provided in source form for FREE short-term evaluation, for educational us
  18:..\..\..\..\..\..\Software\uCOS-III\Source/os_task.c **** *           for peaceful research.  If you plan or intend to use uC/OS-III in a commercial applicat
  19:..\..\..\..\..\..\Software\uCOS-III\Source/os_task.c **** *           product then, you need to contact Micrium to properly license uC/OS-III for its use in 
  20:..\..\..\..\..\..\Software\uCOS-III\Source/os_task.c **** *           application/product.   We provide ALL the source code for your convenience and to help 
  21:..\..\..\..\..\..\Software\uCOS-III\Source/os_task.c **** *           experience uC/OS-III.  The fact that the source is provided does NOT mean that you can 
  22:..\..\..\..\..\..\Software\uCOS-III\Source/os_task.c **** *           it commercially without paying a licensing fee.
  23:..\..\..\..\..\..\Software\uCOS-III\Source/os_task.c **** *
  24:..\..\..\..\..\..\Software\uCOS-III\Source/os_task.c **** *           Knowledge of the source code may NOT be used to develop a similar product.
  25:..\..\..\..\..\..\Software\uCOS-III\Source/os_task.c **** *
  26:..\..\..\..\..\..\Software\uCOS-III\Source/os_task.c **** *           Please help us continue to provide the embedded community with the finest software avai
  27:..\..\..\..\..\..\Software\uCOS-III\Source/os_task.c **** *           Your honesty is greatly appreciated.
  28:..\..\..\..\..\..\Software\uCOS-III\Source/os_task.c **** *
  29:..\..\..\..\..\..\Software\uCOS-III\Source/os_task.c **** *           You can contact us at www.micrium.com, or by phone at +1 (954) 217-2036.
  30:..\..\..\..\..\..\Software\uCOS-III\Source/os_task.c **** ***************************************************************************************************
ARM GAS  C:\Users\EDULU~1.DES\AppData\Local\Temp\ccxcKTgR.s 			page 2


  31:..\..\..\..\..\..\Software\uCOS-III\Source/os_task.c **** */
  32:..\..\..\..\..\..\Software\uCOS-III\Source/os_task.c **** 
  33:..\..\..\..\..\..\Software\uCOS-III\Source/os_task.c **** #define  MICRIUM_SOURCE
  34:..\..\..\..\..\..\Software\uCOS-III\Source/os_task.c **** #include <os.h>
  35:..\..\..\..\..\..\Software\uCOS-III\Source/os_task.c **** 
  36:..\..\..\..\..\..\Software\uCOS-III\Source/os_task.c **** #ifdef VSC_INCLUDE_SOURCE_FILE_NAMES
  37:..\..\..\..\..\..\Software\uCOS-III\Source/os_task.c **** const  CPU_CHAR  *os_task__c = "$Id: $";
  38:..\..\..\..\..\..\Software\uCOS-III\Source/os_task.c **** #endif
  39:..\..\..\..\..\..\Software\uCOS-III\Source/os_task.c **** 
  40:..\..\..\..\..\..\Software\uCOS-III\Source/os_task.c **** /*
  41:..\..\..\..\..\..\Software\uCOS-III\Source/os_task.c **** ***************************************************************************************************
  42:..\..\..\..\..\..\Software\uCOS-III\Source/os_task.c **** *                                                CHANGE PRIORITY OF A TASK
  43:..\..\..\..\..\..\Software\uCOS-III\Source/os_task.c **** *
  44:..\..\..\..\..\..\Software\uCOS-III\Source/os_task.c **** * Description: This function allows you to change the priority of a task dynamically.  Note that th
  45:..\..\..\..\..\..\Software\uCOS-III\Source/os_task.c **** *              priority MUST be available.
  46:..\..\..\..\..\..\Software\uCOS-III\Source/os_task.c **** *
  47:..\..\..\..\..\..\Software\uCOS-III\Source/os_task.c **** * Arguments  : p_tcb      is the TCB of the tack to change the priority for
  48:..\..\..\..\..\..\Software\uCOS-III\Source/os_task.c **** *
  49:..\..\..\..\..\..\Software\uCOS-III\Source/os_task.c **** *              prio_new   is the new priority
  50:..\..\..\..\..\..\Software\uCOS-III\Source/os_task.c **** *
  51:..\..\..\..\..\..\Software\uCOS-III\Source/os_task.c **** *              p_err      is a pointer to an error code returned by this function:
  52:..\..\..\..\..\..\Software\uCOS-III\Source/os_task.c **** *
  53:..\..\..\..\..\..\Software\uCOS-III\Source/os_task.c **** *                             OS_ERR_NONE                 is the call was successful
  54:..\..\..\..\..\..\Software\uCOS-III\Source/os_task.c **** *                             OS_ERR_PRIO_INVALID         if the priority you specify is higher tha
  55:..\..\..\..\..\..\Software\uCOS-III\Source/os_task.c **** *                                                         (i.e. >= (OS_CFG_PRIO_MAX-1))
  56:..\..\..\..\..\..\Software\uCOS-III\Source/os_task.c **** *                             OS_ERR_STATE_INVALID        if the task is in an invalid state
  57:..\..\..\..\..\..\Software\uCOS-III\Source/os_task.c **** *                             OS_ERR_TASK_CHANGE_PRIO_ISR if you tried to change the task's priorit
  58:..\..\..\..\..\..\Software\uCOS-III\Source/os_task.c **** ***************************************************************************************************
  59:..\..\..\..\..\..\Software\uCOS-III\Source/os_task.c **** */
  60:..\..\..\..\..\..\Software\uCOS-III\Source/os_task.c **** 
  61:..\..\..\..\..\..\Software\uCOS-III\Source/os_task.c **** #if OS_CFG_TASK_CHANGE_PRIO_EN > 0u
  62:..\..\..\..\..\..\Software\uCOS-III\Source/os_task.c **** void  OSTaskChangePrio (OS_TCB   *p_tcb,
  63:..\..\..\..\..\..\Software\uCOS-III\Source/os_task.c ****                         OS_PRIO   prio_new,
  64:..\..\..\..\..\..\Software\uCOS-III\Source/os_task.c ****                         OS_ERR   *p_err)
  65:..\..\..\..\..\..\Software\uCOS-III\Source/os_task.c **** {
  28              		.loc 1 65 1 view -0
  29              		.cfi_startproc
  30              		@ args = 0, pretend = 0, frame = 8
  31              		@ frame_needed = 0, uses_anonymous_args = 0
  32              		.loc 1 65 1 is_stmt 0 view .LVU1
  33 0000 F0B5     		push	{r4, r5, r6, r7, lr}
  34              		.cfi_def_cfa_offset 20
  35              		.cfi_offset 4, -20
  36              		.cfi_offset 5, -16
  37              		.cfi_offset 6, -12
  38              		.cfi_offset 7, -8
  39              		.cfi_offset 14, -4
  40 0002 83B0     		sub	sp, sp, #12
  41              		.cfi_def_cfa_offset 32
  42 0004 0400     		movs	r4, r0
  43 0006 0D00     		movs	r5, r1
  44 0008 1600     		movs	r6, r2
  66:..\..\..\..\..\..\Software\uCOS-III\Source/os_task.c ****     CPU_BOOLEAN   self;
  45              		.loc 1 66 5 is_stmt 1 view .LVU2
  67:..\..\..\..\..\..\Software\uCOS-III\Source/os_task.c ****     CPU_SR_ALLOC();
  46              		.loc 1 67 5 view .LVU3
  47              	.LVL1:
ARM GAS  C:\Users\EDULU~1.DES\AppData\Local\Temp\ccxcKTgR.s 			page 3


  68:..\..\..\..\..\..\Software\uCOS-III\Source/os_task.c **** 
  69:..\..\..\..\..\..\Software\uCOS-III\Source/os_task.c **** 
  70:..\..\..\..\..\..\Software\uCOS-III\Source/os_task.c **** 
  71:..\..\..\..\..\..\Software\uCOS-III\Source/os_task.c **** #ifdef OS_SAFETY_CRITICAL
  72:..\..\..\..\..\..\Software\uCOS-III\Source/os_task.c ****     if (p_err == (OS_ERR *)0) {
  73:..\..\..\..\..\..\Software\uCOS-III\Source/os_task.c ****         OS_SAFETY_CRITICAL_EXCEPTION();
  74:..\..\..\..\..\..\Software\uCOS-III\Source/os_task.c ****         return;
  75:..\..\..\..\..\..\Software\uCOS-III\Source/os_task.c ****     }
  76:..\..\..\..\..\..\Software\uCOS-III\Source/os_task.c **** #endif
  77:..\..\..\..\..\..\Software\uCOS-III\Source/os_task.c **** 
  78:..\..\..\..\..\..\Software\uCOS-III\Source/os_task.c **** #if OS_CFG_CALLED_FROM_ISR_CHK_EN > 0u
  79:..\..\..\..\..\..\Software\uCOS-III\Source/os_task.c ****     if (OSIntNestingCtr > (OS_NESTING_CTR)0) {              /* ---------- CANNOT CREATE A TASK FROM
  48              		.loc 1 79 5 view .LVU4
  49              		.loc 1 79 25 is_stmt 0 view .LVU5
  50 000a 304B     		ldr	r3, .L21
  51 000c 1B78     		ldrb	r3, [r3]
  52              		.loc 1 79 8 view .LVU6
  53 000e 002B     		cmp	r3, #0
  54 0010 11D1     		bne	.L17
  80:..\..\..\..\..\..\Software\uCOS-III\Source/os_task.c ****        *p_err = OS_ERR_TASK_CHANGE_PRIO_ISR;
  81:..\..\..\..\..\..\Software\uCOS-III\Source/os_task.c ****         return;
  82:..\..\..\..\..\..\Software\uCOS-III\Source/os_task.c ****     }
  83:..\..\..\..\..\..\Software\uCOS-III\Source/os_task.c **** #endif
  84:..\..\..\..\..\..\Software\uCOS-III\Source/os_task.c **** 
  85:..\..\..\..\..\..\Software\uCOS-III\Source/os_task.c **** #if OS_CFG_ISR_POST_DEFERRED_EN > 0u
  86:..\..\..\..\..\..\Software\uCOS-III\Source/os_task.c ****     if (prio_new == 0) {                                    /* Cannot set to IntQueue Task priority
  87:..\..\..\..\..\..\Software\uCOS-III\Source/os_task.c ****        *p_err = OS_ERR_PRIO_INVALID;
  88:..\..\..\..\..\..\Software\uCOS-III\Source/os_task.c ****         return;
  89:..\..\..\..\..\..\Software\uCOS-III\Source/os_task.c ****     }
  90:..\..\..\..\..\..\Software\uCOS-III\Source/os_task.c **** #endif
  91:..\..\..\..\..\..\Software\uCOS-III\Source/os_task.c **** 
  92:..\..\..\..\..\..\Software\uCOS-III\Source/os_task.c ****     if (prio_new >= (OS_CFG_PRIO_MAX - 1u)) {               /* Cannot set to Idle Task priority    
  55              		.loc 1 92 5 is_stmt 1 view .LVU7
  56              		.loc 1 92 8 is_stmt 0 view .LVU8
  57 0012 1E29     		cmp	r1, #30
  58 0014 13D8     		bhi	.L18
  93:..\..\..\..\..\..\Software\uCOS-III\Source/os_task.c ****        *p_err = OS_ERR_PRIO_INVALID;
  94:..\..\..\..\..\..\Software\uCOS-III\Source/os_task.c ****         return;
  95:..\..\..\..\..\..\Software\uCOS-III\Source/os_task.c ****     }
  96:..\..\..\..\..\..\Software\uCOS-III\Source/os_task.c **** 
  97:..\..\..\..\..\..\Software\uCOS-III\Source/os_task.c ****     if (p_tcb == (OS_TCB *)0) {                             /* See if want to change priority of 's
  59              		.loc 1 97 5 is_stmt 1 view .LVU9
  60              		.loc 1 97 8 is_stmt 0 view .LVU10
  61 0016 0028     		cmp	r0, #0
  62 0018 14D0     		beq	.L19
  98:..\..\..\..\..\..\Software\uCOS-III\Source/os_task.c ****         CPU_CRITICAL_ENTER();
  99:..\..\..\..\..\..\Software\uCOS-III\Source/os_task.c ****         p_tcb = OSTCBCurPtr;
 100:..\..\..\..\..\..\Software\uCOS-III\Source/os_task.c ****         CPU_CRITICAL_EXIT();
 101:..\..\..\..\..\..\Software\uCOS-III\Source/os_task.c ****         self  = DEF_TRUE;
 102:..\..\..\..\..\..\Software\uCOS-III\Source/os_task.c ****     } else {
 103:..\..\..\..\..\..\Software\uCOS-III\Source/os_task.c ****         self  = DEF_FALSE;
  63              		.loc 1 103 15 view .LVU11
  64 001a 0027     		movs	r7, #0
  65              	.LVL2:
  66              	.L5:
 104:..\..\..\..\..\..\Software\uCOS-III\Source/os_task.c ****     }
 105:..\..\..\..\..\..\Software\uCOS-III\Source/os_task.c **** 
ARM GAS  C:\Users\EDULU~1.DES\AppData\Local\Temp\ccxcKTgR.s 			page 4


 106:..\..\..\..\..\..\Software\uCOS-III\Source/os_task.c ****     OS_CRITICAL_ENTER();
  67              		.loc 1 106 5 is_stmt 1 view .LVU12
  68              		.loc 1 106 5 view .LVU13
  69              		.loc 1 106 5 view .LVU14
  70 001c FFF7FEFF 		bl	CPU_SR_Save
  71              	.LVL3:
  72 0020 0190     		str	r0, [sp, #4]
  73              	.LVL4:
  74              		.loc 1 106 5 view .LVU15
  75 0022 FFF7FEFF 		bl	CPU_IntDisMeasStart
  76              	.LVL5:
 107:..\..\..\..\..\..\Software\uCOS-III\Source/os_task.c ****     switch (p_tcb->TaskState) {
  77              		.loc 1 107 5 view .LVU16
  78              		.loc 1 107 18 is_stmt 0 view .LVU17
  79 0026 3623     		movs	r3, #54
  80 0028 E35C     		ldrb	r3, [r4, r3]
  81              		.loc 1 107 5 view .LVU18
  82 002a 072B     		cmp	r3, #7
  83 002c 46D8     		bhi	.L6
  84              		.loc 1 107 5 view .LVU19
  85 002e 9B00     		lsls	r3, r3, #2
  86 0030 274A     		ldr	r2, .L21+4
  87 0032 D358     		ldr	r3, [r2, r3]
  88 0034 9F46     		mov	pc, r3
  89              		.section	.rodata
  90              		.align	2
  91              	.L8:
  92 0000 60000000 		.word	.L10
  93 0004 84000000 		.word	.L9
  94 0008 9C000000 		.word	.L7
  95 000c 9C000000 		.word	.L7
  96 0010 84000000 		.word	.L9
  97 0014 84000000 		.word	.L9
  98 0018 9C000000 		.word	.L7
  99 001c 9C000000 		.word	.L7
 100              		.section	.text.OSTaskChangePrio
 101              	.LVL6:
 102              	.L17:
  80:..\..\..\..\..\..\Software\uCOS-III\Source/os_task.c ****         return;
 103              		.loc 1 80 8 is_stmt 1 view .LVU20
  80:..\..\..\..\..\..\Software\uCOS-III\Source/os_task.c ****         return;
 104              		.loc 1 80 15 is_stmt 0 view .LVU21
 105 0036 274B     		ldr	r3, .L21+8
 106 0038 1380     		strh	r3, [r2]
  81:..\..\..\..\..\..\Software\uCOS-III\Source/os_task.c ****     }
 107              		.loc 1 81 9 is_stmt 1 view .LVU22
 108              	.LVL7:
 109              	.L1:
 108:..\..\..\..\..\..\Software\uCOS-III\Source/os_task.c ****         case OS_TASK_STATE_RDY:
 109:..\..\..\..\..\..\Software\uCOS-III\Source/os_task.c ****              OS_RdyListRemove(p_tcb);                       /* Remove from current priority        
 110:..\..\..\..\..\..\Software\uCOS-III\Source/os_task.c ****              p_tcb->Prio = prio_new;                        /* Set new task priority               
 111:..\..\..\..\..\..\Software\uCOS-III\Source/os_task.c ****              OS_PrioInsert(p_tcb->Prio);
 112:..\..\..\..\..\..\Software\uCOS-III\Source/os_task.c ****              if (self == DEF_TRUE) {
 113:..\..\..\..\..\..\Software\uCOS-III\Source/os_task.c ****                  OS_RdyListInsertHead(p_tcb);
 114:..\..\..\..\..\..\Software\uCOS-III\Source/os_task.c ****              } else {
 115:..\..\..\..\..\..\Software\uCOS-III\Source/os_task.c ****                  OS_RdyListInsertTail(p_tcb);
 116:..\..\..\..\..\..\Software\uCOS-III\Source/os_task.c ****              }
ARM GAS  C:\Users\EDULU~1.DES\AppData\Local\Temp\ccxcKTgR.s 			page 5


 117:..\..\..\..\..\..\Software\uCOS-III\Source/os_task.c ****              break;
 118:..\..\..\..\..\..\Software\uCOS-III\Source/os_task.c **** 
 119:..\..\..\..\..\..\Software\uCOS-III\Source/os_task.c ****         case OS_TASK_STATE_DLY:                             /* Nothing to do except change the prio
 120:..\..\..\..\..\..\Software\uCOS-III\Source/os_task.c ****         case OS_TASK_STATE_SUSPENDED:
 121:..\..\..\..\..\..\Software\uCOS-III\Source/os_task.c ****         case OS_TASK_STATE_DLY_SUSPENDED:
 122:..\..\..\..\..\..\Software\uCOS-III\Source/os_task.c ****              p_tcb->Prio = prio_new;                        /* Set new task priority               
 123:..\..\..\..\..\..\Software\uCOS-III\Source/os_task.c ****              break;
 124:..\..\..\..\..\..\Software\uCOS-III\Source/os_task.c **** 
 125:..\..\..\..\..\..\Software\uCOS-III\Source/os_task.c ****         case OS_TASK_STATE_PEND:
 126:..\..\..\..\..\..\Software\uCOS-III\Source/os_task.c ****         case OS_TASK_STATE_PEND_TIMEOUT:
 127:..\..\..\..\..\..\Software\uCOS-III\Source/os_task.c ****         case OS_TASK_STATE_PEND_SUSPENDED:
 128:..\..\..\..\..\..\Software\uCOS-III\Source/os_task.c ****         case OS_TASK_STATE_PEND_TIMEOUT_SUSPENDED:
 129:..\..\..\..\..\..\Software\uCOS-III\Source/os_task.c ****              switch (p_tcb->PendOn) {                       /* What to do depends on what we are pe
 130:..\..\..\..\..\..\Software\uCOS-III\Source/os_task.c ****                  case OS_TASK_PEND_ON_TASK_Q:               /* Nothing to do except change the prio
 131:..\..\..\..\..\..\Software\uCOS-III\Source/os_task.c ****                  case OS_TASK_PEND_ON_TASK_SEM:
 132:..\..\..\..\..\..\Software\uCOS-III\Source/os_task.c ****                  case OS_TASK_PEND_ON_FLAG:
 133:..\..\..\..\..\..\Software\uCOS-III\Source/os_task.c ****                       p_tcb->Prio = prio_new;               /* Set new task priority               
 134:..\..\..\..\..\..\Software\uCOS-III\Source/os_task.c ****                       break;
 135:..\..\..\..\..\..\Software\uCOS-III\Source/os_task.c **** 
 136:..\..\..\..\..\..\Software\uCOS-III\Source/os_task.c ****                  case OS_TASK_PEND_ON_MUTEX:
 137:..\..\..\..\..\..\Software\uCOS-III\Source/os_task.c ****                  case OS_TASK_PEND_ON_MULTI:
 138:..\..\..\..\..\..\Software\uCOS-III\Source/os_task.c ****                  case OS_TASK_PEND_ON_Q:
 139:..\..\..\..\..\..\Software\uCOS-III\Source/os_task.c ****                  case OS_TASK_PEND_ON_SEM:
 140:..\..\..\..\..\..\Software\uCOS-III\Source/os_task.c ****                       OS_PendListChangePrio(p_tcb,
 141:..\..\..\..\..\..\Software\uCOS-III\Source/os_task.c ****                                             prio_new);
 142:..\..\..\..\..\..\Software\uCOS-III\Source/os_task.c ****                       break;
 143:..\..\..\..\..\..\Software\uCOS-III\Source/os_task.c **** 
 144:..\..\..\..\..\..\Software\uCOS-III\Source/os_task.c ****                  default:
 145:..\..\..\..\..\..\Software\uCOS-III\Source/os_task.c ****                       break;
 146:..\..\..\..\..\..\Software\uCOS-III\Source/os_task.c ****             }
 147:..\..\..\..\..\..\Software\uCOS-III\Source/os_task.c ****              break;
 148:..\..\..\..\..\..\Software\uCOS-III\Source/os_task.c **** 
 149:..\..\..\..\..\..\Software\uCOS-III\Source/os_task.c ****         default:
 150:..\..\..\..\..\..\Software\uCOS-III\Source/os_task.c ****              OS_CRITICAL_EXIT();
 151:..\..\..\..\..\..\Software\uCOS-III\Source/os_task.c ****             *p_err = OS_ERR_STATE_INVALID;
 152:..\..\..\..\..\..\Software\uCOS-III\Source/os_task.c ****              return;
 153:..\..\..\..\..\..\Software\uCOS-III\Source/os_task.c ****     }
 154:..\..\..\..\..\..\Software\uCOS-III\Source/os_task.c **** 
 155:..\..\..\..\..\..\Software\uCOS-III\Source/os_task.c ****     OS_CRITICAL_EXIT_NO_SCHED();
 156:..\..\..\..\..\..\Software\uCOS-III\Source/os_task.c **** 
 157:..\..\..\..\..\..\Software\uCOS-III\Source/os_task.c ****     OSSched();                                              /* Run highest priority task ready     
 158:..\..\..\..\..\..\Software\uCOS-III\Source/os_task.c **** 
 159:..\..\..\..\..\..\Software\uCOS-III\Source/os_task.c ****    *p_err = OS_ERR_NONE;
 160:..\..\..\..\..\..\Software\uCOS-III\Source/os_task.c **** }
 110              		.loc 1 160 1 is_stmt 0 view .LVU23
 111 003a 03B0     		add	sp, sp, #12
 112              		@ sp needed
 113              	.LVL8:
 114              	.LVL9:
 115              		.loc 1 160 1 view .LVU24
 116 003c F0BD     		pop	{r4, r5, r6, r7, pc}
 117              	.LVL10:
 118              	.L18:
  93:..\..\..\..\..\..\Software\uCOS-III\Source/os_task.c ****         return;
 119              		.loc 1 93 8 is_stmt 1 view .LVU25
  93:..\..\..\..\..\..\Software\uCOS-III\Source/os_task.c ****         return;
 120              		.loc 1 93 15 is_stmt 0 view .LVU26
ARM GAS  C:\Users\EDULU~1.DES\AppData\Local\Temp\ccxcKTgR.s 			page 6


 121 003e 264B     		ldr	r3, .L21+12
 122 0040 1380     		strh	r3, [r2]
  94:..\..\..\..\..\..\Software\uCOS-III\Source/os_task.c ****     }
 123              		.loc 1 94 9 is_stmt 1 view .LVU27
 124 0042 FAE7     		b	.L1
 125              	.L19:
  98:..\..\..\..\..\..\Software\uCOS-III\Source/os_task.c ****         p_tcb = OSTCBCurPtr;
 126              		.loc 1 98 9 view .LVU28
  98:..\..\..\..\..\..\Software\uCOS-III\Source/os_task.c ****         p_tcb = OSTCBCurPtr;
 127              		.loc 1 98 9 view .LVU29
  98:..\..\..\..\..\..\Software\uCOS-III\Source/os_task.c ****         p_tcb = OSTCBCurPtr;
 128              		.loc 1 98 9 view .LVU30
 129 0044 FFF7FEFF 		bl	CPU_SR_Save
 130              	.LVL11:
  98:..\..\..\..\..\..\Software\uCOS-III\Source/os_task.c ****         p_tcb = OSTCBCurPtr;
 131              		.loc 1 98 9 is_stmt 0 view .LVU31
 132 0048 0700     		movs	r7, r0
 133              	.LVL12:
  98:..\..\..\..\..\..\Software\uCOS-III\Source/os_task.c ****         p_tcb = OSTCBCurPtr;
 134              		.loc 1 98 9 is_stmt 1 view .LVU32
 135 004a FFF7FEFF 		bl	CPU_IntDisMeasStart
 136              	.LVL13:
  99:..\..\..\..\..\..\Software\uCOS-III\Source/os_task.c ****         CPU_CRITICAL_EXIT();
 137              		.loc 1 99 9 view .LVU33
  99:..\..\..\..\..\..\Software\uCOS-III\Source/os_task.c ****         CPU_CRITICAL_EXIT();
 138              		.loc 1 99 15 is_stmt 0 view .LVU34
 139 004e 234B     		ldr	r3, .L21+16
 140 0050 1C68     		ldr	r4, [r3]
 141              	.LVL14:
 100:..\..\..\..\..\..\Software\uCOS-III\Source/os_task.c ****         self  = DEF_TRUE;
 142              		.loc 1 100 9 is_stmt 1 view .LVU35
 100:..\..\..\..\..\..\Software\uCOS-III\Source/os_task.c ****         self  = DEF_TRUE;
 143              		.loc 1 100 9 view .LVU36
 144 0052 FFF7FEFF 		bl	CPU_IntDisMeasStop
 145              	.LVL15:
 100:..\..\..\..\..\..\Software\uCOS-III\Source/os_task.c ****         self  = DEF_TRUE;
 146              		.loc 1 100 9 view .LVU37
 100:..\..\..\..\..\..\Software\uCOS-III\Source/os_task.c ****         self  = DEF_TRUE;
 147              		.loc 1 100 9 view .LVU38
 148 0056 3800     		movs	r0, r7
 149 0058 FFF7FEFF 		bl	CPU_SR_Restore
 150              	.LVL16:
 101:..\..\..\..\..\..\Software\uCOS-III\Source/os_task.c ****     } else {
 151              		.loc 1 101 9 view .LVU39
 101:..\..\..\..\..\..\Software\uCOS-III\Source/os_task.c ****     } else {
 152              		.loc 1 101 15 is_stmt 0 view .LVU40
 153 005c 0127     		movs	r7, #1
 154              	.LVL17:
 101:..\..\..\..\..\..\Software\uCOS-III\Source/os_task.c ****     } else {
 155              		.loc 1 101 15 view .LVU41
 156 005e DDE7     		b	.L5
 157              	.LVL18:
 158              	.L10:
 109:..\..\..\..\..\..\Software\uCOS-III\Source/os_task.c ****              p_tcb->Prio = prio_new;                        /* Set new task priority               
 159              		.loc 1 109 14 is_stmt 1 view .LVU42
 160 0060 2000     		movs	r0, r4
 161 0062 FFF7FEFF 		bl	OS_RdyListRemove
ARM GAS  C:\Users\EDULU~1.DES\AppData\Local\Temp\ccxcKTgR.s 			page 7


 162              	.LVL19:
 110:..\..\..\..\..\..\Software\uCOS-III\Source/os_task.c ****              OS_PrioInsert(p_tcb->Prio);
 163              		.loc 1 110 14 view .LVU43
 110:..\..\..\..\..\..\Software\uCOS-III\Source/os_task.c ****              OS_PrioInsert(p_tcb->Prio);
 164              		.loc 1 110 26 is_stmt 0 view .LVU44
 165 0066 3723     		movs	r3, #55
 166 0068 E554     		strb	r5, [r4, r3]
 111:..\..\..\..\..\..\Software\uCOS-III\Source/os_task.c ****              if (self == DEF_TRUE) {
 167              		.loc 1 111 14 is_stmt 1 view .LVU45
 168 006a 2800     		movs	r0, r5
 169 006c FFF7FEFF 		bl	OS_PrioInsert
 170              	.LVL20:
 112:..\..\..\..\..\..\Software\uCOS-III\Source/os_task.c ****                  OS_RdyListInsertHead(p_tcb);
 171              		.loc 1 112 14 view .LVU46
 112:..\..\..\..\..\..\Software\uCOS-III\Source/os_task.c ****                  OS_RdyListInsertHead(p_tcb);
 172              		.loc 1 112 17 is_stmt 0 view .LVU47
 173 0070 012F     		cmp	r7, #1
 174 0072 03D0     		beq	.L20
 115:..\..\..\..\..\..\Software\uCOS-III\Source/os_task.c ****              }
 175              		.loc 1 115 18 is_stmt 1 view .LVU48
 176 0074 2000     		movs	r0, r4
 177 0076 FFF7FEFF 		bl	OS_RdyListInsertTail
 178              	.LVL21:
 179 007a 05E0     		b	.L12
 180              	.L20:
 113:..\..\..\..\..\..\Software\uCOS-III\Source/os_task.c ****              } else {
 181              		.loc 1 113 18 view .LVU49
 182 007c 2000     		movs	r0, r4
 183 007e FFF7FEFF 		bl	OS_RdyListInsertHead
 184              	.LVL22:
 185 0082 01E0     		b	.L12
 186              	.L9:
 122:..\..\..\..\..\..\Software\uCOS-III\Source/os_task.c ****              break;
 187              		.loc 1 122 14 view .LVU50
 122:..\..\..\..\..\..\Software\uCOS-III\Source/os_task.c ****              break;
 188              		.loc 1 122 26 is_stmt 0 view .LVU51
 189 0084 3723     		movs	r3, #55
 190 0086 E554     		strb	r5, [r4, r3]
 123:..\..\..\..\..\..\Software\uCOS-III\Source/os_task.c **** 
 191              		.loc 1 123 14 is_stmt 1 view .LVU52
 192              	.L12:
 155:..\..\..\..\..\..\Software\uCOS-III\Source/os_task.c **** 
 193              		.loc 1 155 5 view .LVU53
 155:..\..\..\..\..\..\Software\uCOS-III\Source/os_task.c **** 
 194              		.loc 1 155 5 view .LVU54
 195 0088 FFF7FEFF 		bl	CPU_IntDisMeasStop
 196              	.LVL23:
 155:..\..\..\..\..\..\Software\uCOS-III\Source/os_task.c **** 
 197              		.loc 1 155 5 view .LVU55
 155:..\..\..\..\..\..\Software\uCOS-III\Source/os_task.c **** 
 198              		.loc 1 155 5 view .LVU56
 199 008c 0198     		ldr	r0, [sp, #4]
 200 008e FFF7FEFF 		bl	CPU_SR_Restore
 201              	.LVL24:
 157:..\..\..\..\..\..\Software\uCOS-III\Source/os_task.c **** 
 202              		.loc 1 157 5 view .LVU57
 203 0092 FFF7FEFF 		bl	OSSched
ARM GAS  C:\Users\EDULU~1.DES\AppData\Local\Temp\ccxcKTgR.s 			page 8


 204              	.LVL25:
 159:..\..\..\..\..\..\Software\uCOS-III\Source/os_task.c **** }
 205              		.loc 1 159 4 view .LVU58
 159:..\..\..\..\..\..\Software\uCOS-III\Source/os_task.c **** }
 206              		.loc 1 159 11 is_stmt 0 view .LVU59
 207 0096 0023     		movs	r3, #0
 208 0098 3380     		strh	r3, [r6]
 209 009a CEE7     		b	.L1
 210              	.L7:
 129:..\..\..\..\..\..\Software\uCOS-III\Source/os_task.c ****                  case OS_TASK_PEND_ON_TASK_Q:               /* Nothing to do except change the prio
 211              		.loc 1 129 14 is_stmt 1 view .LVU60
 129:..\..\..\..\..\..\Software\uCOS-III\Source/os_task.c ****                  case OS_TASK_PEND_ON_TASK_Q:               /* Nothing to do except change the prio
 212              		.loc 1 129 27 is_stmt 0 view .LVU61
 213 009c 3423     		movs	r3, #52
 214 009e E35C     		ldrb	r3, [r4, r3]
 215 00a0 072B     		cmp	r3, #7
 216 00a2 F1D8     		bhi	.L12
 217 00a4 9B00     		lsls	r3, r3, #2
 218 00a6 0E4A     		ldr	r2, .L21+20
 219 00a8 D358     		ldr	r3, [r2, r3]
 220 00aa 9F46     		mov	pc, r3
 221              		.section	.rodata
 222              		.align	2
 223              	.L14:
 224 0020 88000000 		.word	.L12
 225 0024 AC000000 		.word	.L13
 226 0028 AC000000 		.word	.L13
 227 002c B2000000 		.word	.L15
 228 0030 B2000000 		.word	.L15
 229 0034 B2000000 		.word	.L15
 230 0038 B2000000 		.word	.L15
 231 003c AC000000 		.word	.L13
 232              		.section	.text.OSTaskChangePrio
 233              	.L13:
 133:..\..\..\..\..\..\Software\uCOS-III\Source/os_task.c ****                       break;
 234              		.loc 1 133 23 is_stmt 1 view .LVU62
 133:..\..\..\..\..\..\Software\uCOS-III\Source/os_task.c ****                       break;
 235              		.loc 1 133 35 is_stmt 0 view .LVU63
 236 00ac 3723     		movs	r3, #55
 237 00ae E554     		strb	r5, [r4, r3]
 134:..\..\..\..\..\..\Software\uCOS-III\Source/os_task.c **** 
 238              		.loc 1 134 23 is_stmt 1 view .LVU64
 239 00b0 EAE7     		b	.L12
 240              	.L15:
 140:..\..\..\..\..\..\Software\uCOS-III\Source/os_task.c ****                                             prio_new);
 241              		.loc 1 140 23 view .LVU65
 242 00b2 2900     		movs	r1, r5
 243 00b4 2000     		movs	r0, r4
 244 00b6 FFF7FEFF 		bl	OS_PendListChangePrio
 245              	.LVL26:
 142:..\..\..\..\..\..\Software\uCOS-III\Source/os_task.c **** 
 246              		.loc 1 142 23 view .LVU66
 247 00ba E5E7     		b	.L12
 248              	.L6:
 150:..\..\..\..\..\..\Software\uCOS-III\Source/os_task.c ****             *p_err = OS_ERR_STATE_INVALID;
 249              		.loc 1 150 14 view .LVU67
 150:..\..\..\..\..\..\Software\uCOS-III\Source/os_task.c ****             *p_err = OS_ERR_STATE_INVALID;
ARM GAS  C:\Users\EDULU~1.DES\AppData\Local\Temp\ccxcKTgR.s 			page 9


 250              		.loc 1 150 14 view .LVU68
 251 00bc FFF7FEFF 		bl	CPU_IntDisMeasStop
 252              	.LVL27:
 150:..\..\..\..\..\..\Software\uCOS-III\Source/os_task.c ****             *p_err = OS_ERR_STATE_INVALID;
 253              		.loc 1 150 14 view .LVU69
 150:..\..\..\..\..\..\Software\uCOS-III\Source/os_task.c ****             *p_err = OS_ERR_STATE_INVALID;
 254              		.loc 1 150 14 view .LVU70
 255 00c0 0198     		ldr	r0, [sp, #4]
 256 00c2 FFF7FEFF 		bl	CPU_SR_Restore
 257              	.LVL28:
 151:..\..\..\..\..\..\Software\uCOS-III\Source/os_task.c ****              return;
 258              		.loc 1 151 13 view .LVU71
 151:..\..\..\..\..\..\Software\uCOS-III\Source/os_task.c ****              return;
 259              		.loc 1 151 20 is_stmt 0 view .LVU72
 260 00c6 074B     		ldr	r3, .L21+24
 261 00c8 3380     		strh	r3, [r6]
 152:..\..\..\..\..\..\Software\uCOS-III\Source/os_task.c ****     }
 262              		.loc 1 152 14 is_stmt 1 view .LVU73
 263 00ca B6E7     		b	.L1
 264              	.L22:
 265              		.align	2
 266              	.L21:
 267 00cc 00000000 		.word	OSIntNestingCtr
 268 00d0 00000000 		.word	.L8
 269 00d4 49710000 		.word	29001
 270 00d8 73620000 		.word	25203
 271 00dc 00000000 		.word	OSTCBCurPtr
 272 00e0 20000000 		.word	.L14
 273 00e4 2D6E0000 		.word	28205
 274              		.cfi_endproc
 275              	.LFE3:
 276              		.size	OSTaskChangePrio, .-OSTaskChangePrio
 277              		.section	.text.OSTaskRegGet,"ax",%progbits
 278              		.align	1
 279              		.global	OSTaskRegGet
 280              		.syntax unified
 281              		.code	16
 282              		.thumb_func
 283              		.fpu softvfp
 284              		.type	OSTaskRegGet, %function
 285              	OSTaskRegGet:
 286              	.LVL29:
 287              	.LFB5:
 161:..\..\..\..\..\..\Software\uCOS-III\Source/os_task.c **** #endif
 162:..\..\..\..\..\..\Software\uCOS-III\Source/os_task.c **** 
 163:..\..\..\..\..\..\Software\uCOS-III\Source/os_task.c **** /*$PAGE*/
 164:..\..\..\..\..\..\Software\uCOS-III\Source/os_task.c **** /*
 165:..\..\..\..\..\..\Software\uCOS-III\Source/os_task.c **** ***************************************************************************************************
 166:..\..\..\..\..\..\Software\uCOS-III\Source/os_task.c **** *                                                    CREATE A TASK
 167:..\..\..\..\..\..\Software\uCOS-III\Source/os_task.c **** *
 168:..\..\..\..\..\..\Software\uCOS-III\Source/os_task.c **** * Description: This function is used to have uC/OS-III manage the execution of a task.  Tasks can e
 169:..\..\..\..\..\..\Software\uCOS-III\Source/os_task.c **** *              prior to the start of multitasking or by a running task.  A task cannot be created b
 170:..\..\..\..\..\..\Software\uCOS-III\Source/os_task.c **** *
 171:..\..\..\..\..\..\Software\uCOS-III\Source/os_task.c **** * Arguments  : p_tcb          is a pointer to the task's TCB
 172:..\..\..\..\..\..\Software\uCOS-III\Source/os_task.c **** *
 173:..\..\..\..\..\..\Software\uCOS-III\Source/os_task.c **** *              p_name         is a pointer to an ASCII string to provide a name to the task.
 174:..\..\..\..\..\..\Software\uCOS-III\Source/os_task.c **** *
ARM GAS  C:\Users\EDULU~1.DES\AppData\Local\Temp\ccxcKTgR.s 			page 10


 175:..\..\..\..\..\..\Software\uCOS-III\Source/os_task.c **** *              p_task         is a pointer to the task's code
 176:..\..\..\..\..\..\Software\uCOS-III\Source/os_task.c **** *
 177:..\..\..\..\..\..\Software\uCOS-III\Source/os_task.c **** *              p_arg          is a pointer to an optional data area which can be used to pass param
 178:..\..\..\..\..\..\Software\uCOS-III\Source/os_task.c **** *                             the task when the task first executes.  Where the task is concerned i
 179:..\..\..\..\..\..\Software\uCOS-III\Source/os_task.c **** *                             it was invoked and passed the argument 'p_arg' as follows:
 180:..\..\..\..\..\..\Software\uCOS-III\Source/os_task.c **** *
 181:..\..\..\..\..\..\Software\uCOS-III\Source/os_task.c **** *                                 void Task (void *p_arg)
 182:..\..\..\..\..\..\Software\uCOS-III\Source/os_task.c **** *                                 {
 183:..\..\..\..\..\..\Software\uCOS-III\Source/os_task.c **** *                                     for (;;) {
 184:..\..\..\..\..\..\Software\uCOS-III\Source/os_task.c **** *                                         Task code;
 185:..\..\..\..\..\..\Software\uCOS-III\Source/os_task.c **** *                                     }
 186:..\..\..\..\..\..\Software\uCOS-III\Source/os_task.c **** *                                 }
 187:..\..\..\..\..\..\Software\uCOS-III\Source/os_task.c **** *
 188:..\..\..\..\..\..\Software\uCOS-III\Source/os_task.c **** *              prio           is the task's priority.  A unique priority MUST be assigned to each t
 189:..\..\..\..\..\..\Software\uCOS-III\Source/os_task.c **** *                             lower the number, the higher the priority.
 190:..\..\..\..\..\..\Software\uCOS-III\Source/os_task.c **** *
 191:..\..\..\..\..\..\Software\uCOS-III\Source/os_task.c **** *              p_stk_base     is a pointer to the base address of the stack (i.e. low address).
 192:..\..\..\..\..\..\Software\uCOS-III\Source/os_task.c **** *
 193:..\..\..\..\..\..\Software\uCOS-III\Source/os_task.c **** *              stk_limit      is the number of stack elements to set as 'watermark' limit for the s
 194:..\..\..\..\..\..\Software\uCOS-III\Source/os_task.c **** *                             represents the number of CPU_STK entries left before the stack is ful
 195:..\..\..\..\..\..\Software\uCOS-III\Source/os_task.c **** *                             specifying 10% of the 'stk_size' value indicates that the stack limit
 196:..\..\..\..\..\..\Software\uCOS-III\Source/os_task.c **** *                             when the stack reaches 90% full.
 197:..\..\..\..\..\..\Software\uCOS-III\Source/os_task.c **** *
 198:..\..\..\..\..\..\Software\uCOS-III\Source/os_task.c **** *              stk_size       is the size of the stack in number of elements.  If CPU_STK is set to
 199:..\..\..\..\..\..\Software\uCOS-III\Source/os_task.c **** *                             'stk_size' corresponds to the number of bytes available.  If CPU_STK 
 200:..\..\..\..\..\..\Software\uCOS-III\Source/os_task.c **** *                             CPU_INT16U, 'stk_size' contains the number of 16-bit entries availabl
 201:..\..\..\..\..\..\Software\uCOS-III\Source/os_task.c **** *                             CPU_STK is set to CPU_INT32U, 'stk_size' contains the number of 32-bi
 202:..\..\..\..\..\..\Software\uCOS-III\Source/os_task.c **** *                             available on the stack.
 203:..\..\..\..\..\..\Software\uCOS-III\Source/os_task.c **** *
 204:..\..\..\..\..\..\Software\uCOS-III\Source/os_task.c **** *              q_size         is the maximum number of messages that can be sent to the task
 205:..\..\..\..\..\..\Software\uCOS-III\Source/os_task.c **** *
 206:..\..\..\..\..\..\Software\uCOS-III\Source/os_task.c **** *              time_quanta    amount of time (in ticks) for time slice when round-robin between tas
 207:..\..\..\..\..\..\Software\uCOS-III\Source/os_task.c **** *                             the default.
 208:..\..\..\..\..\..\Software\uCOS-III\Source/os_task.c **** *
 209:..\..\..\..\..\..\Software\uCOS-III\Source/os_task.c **** *              p_ext          is a pointer to a user supplied memory location which is used as a TC
 210:..\..\..\..\..\..\Software\uCOS-III\Source/os_task.c **** *                             For example, this user memory can hold the contents of floating-point
 211:..\..\..\..\..\..\Software\uCOS-III\Source/os_task.c **** *                             during a context switch, the time each task takes to execute, the num
 212:..\..\..\..\..\..\Software\uCOS-III\Source/os_task.c **** *                             the task has been switched-in, etc.
 213:..\..\..\..\..\..\Software\uCOS-III\Source/os_task.c **** *
 214:..\..\..\..\..\..\Software\uCOS-III\Source/os_task.c **** *              opt            contains additional information (or options) about the behavior of th
 215:..\..\..\..\..\..\Software\uCOS-III\Source/os_task.c **** *                             See OS_OPT_TASK_xxx in OS.H.  Current choices are:
 216:..\..\..\..\..\..\Software\uCOS-III\Source/os_task.c **** *
 217:..\..\..\..\..\..\Software\uCOS-III\Source/os_task.c **** *                                 OS_OPT_TASK_NONE            No option selected
 218:..\..\..\..\..\..\Software\uCOS-III\Source/os_task.c **** *                                 OS_OPT_TASK_STK_CHK         Stack checking to be allowed for the 
 219:..\..\..\..\..\..\Software\uCOS-III\Source/os_task.c **** *                                 OS_OPT_TASK_STK_CLR         Clear the stack when the task is crea
 220:..\..\..\..\..\..\Software\uCOS-III\Source/os_task.c **** *                                 OS_OPT_TASK_SAVE_FP         If the CPU has floating-point registe
 221:..\..\..\..\..\..\Software\uCOS-III\Source/os_task.c **** *                                                             during a context switch.
 222:..\..\..\..\..\..\Software\uCOS-III\Source/os_task.c **** *                                 OS_OPT_TASK_NO_TLS          If the caller doesn't want or need TL
 223:..\..\..\..\..\..\Software\uCOS-III\Source/os_task.c **** *                                                             Storage) support for the task.  If yo
 224:..\..\..\..\..\..\Software\uCOS-III\Source/os_task.c **** *                                                             option, TLS will be supported by defa
 225:..\..\..\..\..\..\Software\uCOS-III\Source/os_task.c **** *
 226:..\..\..\..\..\..\Software\uCOS-III\Source/os_task.c **** *              p_err          is a pointer to an error code that will be set during this call.  The
 227:..\..\..\..\..\..\Software\uCOS-III\Source/os_task.c **** *                             to by 'p_err' can be:
 228:..\..\..\..\..\..\Software\uCOS-III\Source/os_task.c **** *
 229:..\..\..\..\..\..\Software\uCOS-III\Source/os_task.c **** *                                 OS_ERR_NONE                    if the function was successful.
 230:..\..\..\..\..\..\Software\uCOS-III\Source/os_task.c **** *                                 OS_ERR_ILLEGAL_CREATE_RUN_TIME if you are trying to create the ta
 231:..\..\..\..\..\..\Software\uCOS-III\Source/os_task.c **** *                                                                   OSSafetyCriticalStart().
ARM GAS  C:\Users\EDULU~1.DES\AppData\Local\Temp\ccxcKTgR.s 			page 11


 232:..\..\..\..\..\..\Software\uCOS-III\Source/os_task.c **** *                                 OS_ERR_NAME                    if 'p_name' is a NULL pointer
 233:..\..\..\..\..\..\Software\uCOS-III\Source/os_task.c **** *                                 OS_ERR_PRIO_INVALID            if the priority you specify is hig
 234:..\..\..\..\..\..\Software\uCOS-III\Source/os_task.c **** *                                                                   allowed (i.e. >= OS_CFG_PRIO_MA
 235:..\..\..\..\..\..\Software\uCOS-III\Source/os_task.c **** *                                                                if OS_CFG_ISR_POST_DEFERRED_EN is 
 236:..\..\..\..\..\..\Software\uCOS-III\Source/os_task.c **** *                                                                   to use priority 0 which is rese
 237:..\..\..\..\..\..\Software\uCOS-III\Source/os_task.c **** *                                 OS_ERR_STK_INVALID             if you specified a NULL pointer fo
 238:..\..\..\..\..\..\Software\uCOS-III\Source/os_task.c **** *                                 OS_ERR_STK_SIZE_INVALID        if you specified zero for the 'stk
 239:..\..\..\..\..\..\Software\uCOS-III\Source/os_task.c **** *                                 OS_ERR_STK_LIMIT_INVALID       if you specified a 'stk_limit' gre
 240:..\..\..\..\..\..\Software\uCOS-III\Source/os_task.c **** *                                                                   to 'stk_size'
 241:..\..\..\..\..\..\Software\uCOS-III\Source/os_task.c **** *                                 OS_ERR_TASK_CREATE_ISR         if you tried to create a task from
 242:..\..\..\..\..\..\Software\uCOS-III\Source/os_task.c **** *                                 OS_ERR_TASK_INVALID            if you specified a NULL pointer fo
 243:..\..\..\..\..\..\Software\uCOS-III\Source/os_task.c **** *                                 OS_ERR_TCB_INVALID             if you specified a NULL pointer fo
 244:..\..\..\..\..\..\Software\uCOS-III\Source/os_task.c **** *
 245:..\..\..\..\..\..\Software\uCOS-III\Source/os_task.c **** * Returns    : A pointer to the TCB of the task created.  This pointer must be used as an ID (i.e h
 246:..\..\..\..\..\..\Software\uCOS-III\Source/os_task.c **** ***************************************************************************************************
 247:..\..\..\..\..\..\Software\uCOS-III\Source/os_task.c **** */
 248:..\..\..\..\..\..\Software\uCOS-III\Source/os_task.c **** /*$PAGE*/
 249:..\..\..\..\..\..\Software\uCOS-III\Source/os_task.c **** void  OSTaskCreate (OS_TCB        *p_tcb,
 250:..\..\..\..\..\..\Software\uCOS-III\Source/os_task.c ****                     CPU_CHAR      *p_name,
 251:..\..\..\..\..\..\Software\uCOS-III\Source/os_task.c ****                     OS_TASK_PTR    p_task,
 252:..\..\..\..\..\..\Software\uCOS-III\Source/os_task.c ****                     void          *p_arg,
 253:..\..\..\..\..\..\Software\uCOS-III\Source/os_task.c ****                     OS_PRIO        prio,
 254:..\..\..\..\..\..\Software\uCOS-III\Source/os_task.c ****                     CPU_STK       *p_stk_base,
 255:..\..\..\..\..\..\Software\uCOS-III\Source/os_task.c ****                     CPU_STK_SIZE   stk_limit,
 256:..\..\..\..\..\..\Software\uCOS-III\Source/os_task.c ****                     CPU_STK_SIZE   stk_size,
 257:..\..\..\..\..\..\Software\uCOS-III\Source/os_task.c ****                     OS_MSG_QTY     q_size,
 258:..\..\..\..\..\..\Software\uCOS-III\Source/os_task.c ****                     OS_TICK        time_quanta,
 259:..\..\..\..\..\..\Software\uCOS-III\Source/os_task.c ****                     void          *p_ext,
 260:..\..\..\..\..\..\Software\uCOS-III\Source/os_task.c ****                     OS_OPT         opt,
 261:..\..\..\..\..\..\Software\uCOS-III\Source/os_task.c ****                     OS_ERR        *p_err)
 262:..\..\..\..\..\..\Software\uCOS-III\Source/os_task.c **** {
 263:..\..\..\..\..\..\Software\uCOS-III\Source/os_task.c ****     CPU_STK_SIZE   i;
 264:..\..\..\..\..\..\Software\uCOS-III\Source/os_task.c **** #if OS_CFG_TASK_REG_TBL_SIZE > 0u
 265:..\..\..\..\..\..\Software\uCOS-III\Source/os_task.c ****     OS_REG_ID      reg_nbr;
 266:..\..\..\..\..\..\Software\uCOS-III\Source/os_task.c **** #endif
 267:..\..\..\..\..\..\Software\uCOS-III\Source/os_task.c **** #if defined(OS_CFG_TLS_TBL_SIZE) && (OS_CFG_TLS_TBL_SIZE > 0u)
 268:..\..\..\..\..\..\Software\uCOS-III\Source/os_task.c ****     OS_TLS_ID      id;
 269:..\..\..\..\..\..\Software\uCOS-III\Source/os_task.c **** #endif
 270:..\..\..\..\..\..\Software\uCOS-III\Source/os_task.c **** 
 271:..\..\..\..\..\..\Software\uCOS-III\Source/os_task.c ****     CPU_STK       *p_sp;
 272:..\..\..\..\..\..\Software\uCOS-III\Source/os_task.c ****     CPU_STK       *p_stk_limit;
 273:..\..\..\..\..\..\Software\uCOS-III\Source/os_task.c ****     CPU_SR_ALLOC();
 274:..\..\..\..\..\..\Software\uCOS-III\Source/os_task.c **** 
 275:..\..\..\..\..\..\Software\uCOS-III\Source/os_task.c **** 
 276:..\..\..\..\..\..\Software\uCOS-III\Source/os_task.c **** 
 277:..\..\..\..\..\..\Software\uCOS-III\Source/os_task.c **** #ifdef OS_SAFETY_CRITICAL
 278:..\..\..\..\..\..\Software\uCOS-III\Source/os_task.c ****     if (p_err == (OS_ERR *)0) {
 279:..\..\..\..\..\..\Software\uCOS-III\Source/os_task.c ****         OS_SAFETY_CRITICAL_EXCEPTION();
 280:..\..\..\..\..\..\Software\uCOS-III\Source/os_task.c ****         return;
 281:..\..\..\..\..\..\Software\uCOS-III\Source/os_task.c ****     }
 282:..\..\..\..\..\..\Software\uCOS-III\Source/os_task.c **** #endif
 283:..\..\..\..\..\..\Software\uCOS-III\Source/os_task.c **** 
 284:..\..\..\..\..\..\Software\uCOS-III\Source/os_task.c **** #ifdef OS_SAFETY_CRITICAL_IEC61508
 285:..\..\..\..\..\..\Software\uCOS-III\Source/os_task.c ****     if (OSSafetyCriticalStartFlag == DEF_TRUE) {
 286:..\..\..\..\..\..\Software\uCOS-III\Source/os_task.c ****        *p_err = OS_ERR_ILLEGAL_CREATE_RUN_TIME;
 287:..\..\..\..\..\..\Software\uCOS-III\Source/os_task.c ****         return;
 288:..\..\..\..\..\..\Software\uCOS-III\Source/os_task.c ****     }
ARM GAS  C:\Users\EDULU~1.DES\AppData\Local\Temp\ccxcKTgR.s 			page 12


 289:..\..\..\..\..\..\Software\uCOS-III\Source/os_task.c **** #endif
 290:..\..\..\..\..\..\Software\uCOS-III\Source/os_task.c **** 
 291:..\..\..\..\..\..\Software\uCOS-III\Source/os_task.c **** #if OS_CFG_CALLED_FROM_ISR_CHK_EN > 0u
 292:..\..\..\..\..\..\Software\uCOS-III\Source/os_task.c ****     if (OSIntNestingCtr > (OS_NESTING_CTR)0) {              /* ---------- CANNOT CREATE A TASK FROM
 293:..\..\..\..\..\..\Software\uCOS-III\Source/os_task.c ****        *p_err = OS_ERR_TASK_CREATE_ISR;
 294:..\..\..\..\..\..\Software\uCOS-III\Source/os_task.c ****         return;
 295:..\..\..\..\..\..\Software\uCOS-III\Source/os_task.c ****     }
 296:..\..\..\..\..\..\Software\uCOS-III\Source/os_task.c **** #endif
 297:..\..\..\..\..\..\Software\uCOS-III\Source/os_task.c **** 
 298:..\..\..\..\..\..\Software\uCOS-III\Source/os_task.c **** #if OS_CFG_ARG_CHK_EN > 0u                                  /* ---------------- VALIDATE ARGUMENTS 
 299:..\..\..\..\..\..\Software\uCOS-III\Source/os_task.c ****     if (p_tcb == (OS_TCB *)0) {                             /* User must supply a valid OS_TCB     
 300:..\..\..\..\..\..\Software\uCOS-III\Source/os_task.c ****        *p_err = OS_ERR_TCB_INVALID;
 301:..\..\..\..\..\..\Software\uCOS-III\Source/os_task.c ****         return;
 302:..\..\..\..\..\..\Software\uCOS-III\Source/os_task.c ****     }
 303:..\..\..\..\..\..\Software\uCOS-III\Source/os_task.c ****     if (p_task == (OS_TASK_PTR)0) {                         /* User must supply a valid task       
 304:..\..\..\..\..\..\Software\uCOS-III\Source/os_task.c ****        *p_err = OS_ERR_TASK_INVALID;
 305:..\..\..\..\..\..\Software\uCOS-III\Source/os_task.c ****         return;
 306:..\..\..\..\..\..\Software\uCOS-III\Source/os_task.c ****     }
 307:..\..\..\..\..\..\Software\uCOS-III\Source/os_task.c ****     if (p_stk_base == (CPU_STK *)0) {                       /* User must supply a valid stack base 
 308:..\..\..\..\..\..\Software\uCOS-III\Source/os_task.c ****        *p_err = OS_ERR_STK_INVALID;
 309:..\..\..\..\..\..\Software\uCOS-III\Source/os_task.c ****         return;
 310:..\..\..\..\..\..\Software\uCOS-III\Source/os_task.c ****     }
 311:..\..\..\..\..\..\Software\uCOS-III\Source/os_task.c ****     if (stk_size < OSCfg_StkSizeMin) {                      /* User must supply a valid minimum sta
 312:..\..\..\..\..\..\Software\uCOS-III\Source/os_task.c ****        *p_err = OS_ERR_STK_SIZE_INVALID;
 313:..\..\..\..\..\..\Software\uCOS-III\Source/os_task.c ****         return;
 314:..\..\..\..\..\..\Software\uCOS-III\Source/os_task.c ****     }
 315:..\..\..\..\..\..\Software\uCOS-III\Source/os_task.c ****     if (stk_limit >= stk_size) {                            /* User must supply a valid stack limit
 316:..\..\..\..\..\..\Software\uCOS-III\Source/os_task.c ****        *p_err = OS_ERR_STK_LIMIT_INVALID;
 317:..\..\..\..\..\..\Software\uCOS-III\Source/os_task.c ****         return;
 318:..\..\..\..\..\..\Software\uCOS-III\Source/os_task.c ****     }
 319:..\..\..\..\..\..\Software\uCOS-III\Source/os_task.c ****     if (prio >= OS_CFG_PRIO_MAX) {                          /* Priority must be within 0 and OS_CFG
 320:..\..\..\..\..\..\Software\uCOS-III\Source/os_task.c ****        *p_err = OS_ERR_PRIO_INVALID;
 321:..\..\..\..\..\..\Software\uCOS-III\Source/os_task.c ****         return;
 322:..\..\..\..\..\..\Software\uCOS-III\Source/os_task.c ****     }
 323:..\..\..\..\..\..\Software\uCOS-III\Source/os_task.c **** #endif
 324:..\..\..\..\..\..\Software\uCOS-III\Source/os_task.c **** 
 325:..\..\..\..\..\..\Software\uCOS-III\Source/os_task.c **** #if OS_CFG_ISR_POST_DEFERRED_EN > 0u
 326:..\..\..\..\..\..\Software\uCOS-III\Source/os_task.c ****     if (prio == (OS_PRIO)0) {
 327:..\..\..\..\..\..\Software\uCOS-III\Source/os_task.c ****         if (p_tcb != &OSIntQTaskTCB) {
 328:..\..\..\..\..\..\Software\uCOS-III\Source/os_task.c ****            *p_err = OS_ERR_PRIO_INVALID;                    /* Not allowed to use priority 0       
 329:..\..\..\..\..\..\Software\uCOS-III\Source/os_task.c ****             return;
 330:..\..\..\..\..\..\Software\uCOS-III\Source/os_task.c ****         }
 331:..\..\..\..\..\..\Software\uCOS-III\Source/os_task.c ****     }
 332:..\..\..\..\..\..\Software\uCOS-III\Source/os_task.c **** #endif
 333:..\..\..\..\..\..\Software\uCOS-III\Source/os_task.c **** 
 334:..\..\..\..\..\..\Software\uCOS-III\Source/os_task.c ****     if (prio == (OS_CFG_PRIO_MAX - 1u)) {
 335:..\..\..\..\..\..\Software\uCOS-III\Source/os_task.c ****         if (p_tcb != &OSIdleTaskTCB) {
 336:..\..\..\..\..\..\Software\uCOS-III\Source/os_task.c ****            *p_err = OS_ERR_PRIO_INVALID;                    /* Not allowed to use same priority as 
 337:..\..\..\..\..\..\Software\uCOS-III\Source/os_task.c ****             return;
 338:..\..\..\..\..\..\Software\uCOS-III\Source/os_task.c ****         }
 339:..\..\..\..\..\..\Software\uCOS-III\Source/os_task.c ****     }
 340:..\..\..\..\..\..\Software\uCOS-III\Source/os_task.c **** 
 341:..\..\..\..\..\..\Software\uCOS-III\Source/os_task.c ****     OS_TaskInitTCB(p_tcb);                                  /* Initialize the TCB to default values
 342:..\..\..\..\..\..\Software\uCOS-III\Source/os_task.c **** 
 343:..\..\..\..\..\..\Software\uCOS-III\Source/os_task.c ****    *p_err = OS_ERR_NONE;
 344:..\..\..\..\..\..\Software\uCOS-III\Source/os_task.c ****                                                             /* --------------- CLEAR THE TASK'S STA
 345:..\..\..\..\..\..\Software\uCOS-III\Source/os_task.c ****     if ((opt & OS_OPT_TASK_STK_CHK) != (OS_OPT)0) {         /* See if stack checking has been enabl
ARM GAS  C:\Users\EDULU~1.DES\AppData\Local\Temp\ccxcKTgR.s 			page 13


 346:..\..\..\..\..\..\Software\uCOS-III\Source/os_task.c ****         if ((opt & OS_OPT_TASK_STK_CLR) != (OS_OPT)0) {     /* See if stack needs to be cleared    
 347:..\..\..\..\..\..\Software\uCOS-III\Source/os_task.c ****             p_sp = p_stk_base;
 348:..\..\..\..\..\..\Software\uCOS-III\Source/os_task.c ****             for (i = 0u; i < stk_size; i++) {               /* Stack grows from HIGH to LOW memory 
 349:..\..\..\..\..\..\Software\uCOS-III\Source/os_task.c ****                *p_sp = (CPU_STK)0;                          /* Clear from bottom of stack and up!  
 350:..\..\..\..\..\..\Software\uCOS-III\Source/os_task.c ****                 p_sp++;
 351:..\..\..\..\..\..\Software\uCOS-III\Source/os_task.c ****             }
 352:..\..\..\..\..\..\Software\uCOS-III\Source/os_task.c ****         }
 353:..\..\..\..\..\..\Software\uCOS-III\Source/os_task.c ****     }
 354:..\..\..\..\..\..\Software\uCOS-III\Source/os_task.c ****                                                             /* ------- INITIALIZE THE STACK FRAME O
 355:..\..\..\..\..\..\Software\uCOS-III\Source/os_task.c **** #if (CPU_CFG_STK_GROWTH == CPU_STK_GROWTH_HI_TO_LO)
 356:..\..\..\..\..\..\Software\uCOS-III\Source/os_task.c ****     p_stk_limit = p_stk_base + stk_limit;
 357:..\..\..\..\..\..\Software\uCOS-III\Source/os_task.c **** #else
 358:..\..\..\..\..\..\Software\uCOS-III\Source/os_task.c ****     p_stk_limit = p_stk_base + (stk_size - 1u) - stk_limit;
 359:..\..\..\..\..\..\Software\uCOS-III\Source/os_task.c **** #endif
 360:..\..\..\..\..\..\Software\uCOS-III\Source/os_task.c **** 
 361:..\..\..\..\..\..\Software\uCOS-III\Source/os_task.c ****     p_sp = OSTaskStkInit(p_task,
 362:..\..\..\..\..\..\Software\uCOS-III\Source/os_task.c ****                          p_arg,
 363:..\..\..\..\..\..\Software\uCOS-III\Source/os_task.c ****                          p_stk_base,
 364:..\..\..\..\..\..\Software\uCOS-III\Source/os_task.c ****                          p_stk_limit,
 365:..\..\..\..\..\..\Software\uCOS-III\Source/os_task.c ****                          stk_size,
 366:..\..\..\..\..\..\Software\uCOS-III\Source/os_task.c ****                          opt);
 367:..\..\..\..\..\..\Software\uCOS-III\Source/os_task.c **** 
 368:..\..\..\..\..\..\Software\uCOS-III\Source/os_task.c ****                                                             /* -------------- INITIALIZE THE TCB FI
 369:..\..\..\..\..\..\Software\uCOS-III\Source/os_task.c ****     p_tcb->TaskEntryAddr = p_task;                          /* Save task entry point address       
 370:..\..\..\..\..\..\Software\uCOS-III\Source/os_task.c ****     p_tcb->TaskEntryArg  = p_arg;                           /* Save task entry argument            
 371:..\..\..\..\..\..\Software\uCOS-III\Source/os_task.c **** 
 372:..\..\..\..\..\..\Software\uCOS-III\Source/os_task.c ****     p_tcb->NamePtr       = p_name;                          /* Save task name                      
 373:..\..\..\..\..\..\Software\uCOS-III\Source/os_task.c **** 
 374:..\..\..\..\..\..\Software\uCOS-III\Source/os_task.c ****     p_tcb->Prio          = prio;                            /* Save the task's priority            
 375:..\..\..\..\..\..\Software\uCOS-III\Source/os_task.c **** 
 376:..\..\..\..\..\..\Software\uCOS-III\Source/os_task.c ****     p_tcb->StkPtr        = p_sp;                            /* Save the new top-of-stack pointer   
 377:..\..\..\..\..\..\Software\uCOS-III\Source/os_task.c ****     p_tcb->StkLimitPtr   = p_stk_limit;                     /* Save the stack limit pointer        
 378:..\..\..\..\..\..\Software\uCOS-III\Source/os_task.c **** 
 379:..\..\..\..\..\..\Software\uCOS-III\Source/os_task.c ****     p_tcb->TimeQuanta    = time_quanta;                     /* Save the #ticks for time slice (0 me
 380:..\..\..\..\..\..\Software\uCOS-III\Source/os_task.c **** #if OS_CFG_SCHED_ROUND_ROBIN_EN > 0u
 381:..\..\..\..\..\..\Software\uCOS-III\Source/os_task.c ****     if (time_quanta == (OS_TICK)0) {
 382:..\..\..\..\..\..\Software\uCOS-III\Source/os_task.c ****         p_tcb->TimeQuantaCtr = OSSchedRoundRobinDfltTimeQuanta;
 383:..\..\..\..\..\..\Software\uCOS-III\Source/os_task.c ****     } else {
 384:..\..\..\..\..\..\Software\uCOS-III\Source/os_task.c ****         p_tcb->TimeQuantaCtr = time_quanta;
 385:..\..\..\..\..\..\Software\uCOS-III\Source/os_task.c ****     }
 386:..\..\..\..\..\..\Software\uCOS-III\Source/os_task.c **** #endif
 387:..\..\..\..\..\..\Software\uCOS-III\Source/os_task.c ****     p_tcb->ExtPtr        = p_ext;                           /* Save pointer to TCB extension       
 388:..\..\..\..\..\..\Software\uCOS-III\Source/os_task.c ****     p_tcb->StkBasePtr    = p_stk_base;                      /* Save pointer to the base address of 
 389:..\..\..\..\..\..\Software\uCOS-III\Source/os_task.c ****     p_tcb->StkSize       = stk_size;                        /* Save the stack size (in number of CP
 390:..\..\..\..\..\..\Software\uCOS-III\Source/os_task.c ****     p_tcb->Opt           = opt;                             /* Save task options                   
 391:..\..\..\..\..\..\Software\uCOS-III\Source/os_task.c **** 
 392:..\..\..\..\..\..\Software\uCOS-III\Source/os_task.c **** #if OS_CFG_TASK_REG_TBL_SIZE > 0u
 393:..\..\..\..\..\..\Software\uCOS-III\Source/os_task.c ****     for (reg_nbr = 0u; reg_nbr < OS_CFG_TASK_REG_TBL_SIZE; reg_nbr++) {
 394:..\..\..\..\..\..\Software\uCOS-III\Source/os_task.c ****         p_tcb->RegTbl[reg_nbr] = (OS_REG)0;
 395:..\..\..\..\..\..\Software\uCOS-III\Source/os_task.c ****     }
 396:..\..\..\..\..\..\Software\uCOS-III\Source/os_task.c **** #endif
 397:..\..\..\..\..\..\Software\uCOS-III\Source/os_task.c **** 
 398:..\..\..\..\..\..\Software\uCOS-III\Source/os_task.c **** #if OS_CFG_TASK_Q_EN > 0u
 399:..\..\..\..\..\..\Software\uCOS-III\Source/os_task.c ****     OS_MsgQInit(&p_tcb->MsgQ,                               /* Initialize the task's message queue 
 400:..\..\..\..\..\..\Software\uCOS-III\Source/os_task.c ****                 q_size);
 401:..\..\..\..\..\..\Software\uCOS-III\Source/os_task.c **** #else
 402:..\..\..\..\..\..\Software\uCOS-III\Source/os_task.c ****     (void)&q_size;
ARM GAS  C:\Users\EDULU~1.DES\AppData\Local\Temp\ccxcKTgR.s 			page 14


 403:..\..\..\..\..\..\Software\uCOS-III\Source/os_task.c **** #endif
 404:..\..\..\..\..\..\Software\uCOS-III\Source/os_task.c **** 
 405:..\..\..\..\..\..\Software\uCOS-III\Source/os_task.c ****     OSTaskCreateHook(p_tcb);                                /* Call user defined hook              
 406:..\..\..\..\..\..\Software\uCOS-III\Source/os_task.c **** 
 407:..\..\..\..\..\..\Software\uCOS-III\Source/os_task.c **** #if defined(OS_CFG_TLS_TBL_SIZE) && (OS_CFG_TLS_TBL_SIZE > 0u)
 408:..\..\..\..\..\..\Software\uCOS-III\Source/os_task.c ****     for (id = 0u; id < OS_CFG_TLS_TBL_SIZE; id++) {
 409:..\..\..\..\..\..\Software\uCOS-III\Source/os_task.c ****         p_tcb->TLS_Tbl[id] = (OS_TLS)0;
 410:..\..\..\..\..\..\Software\uCOS-III\Source/os_task.c ****     }
 411:..\..\..\..\..\..\Software\uCOS-III\Source/os_task.c ****     OS_TLS_TaskCreate(p_tcb);                               /* Call TLS hook                       
 412:..\..\..\..\..\..\Software\uCOS-III\Source/os_task.c **** #endif
 413:..\..\..\..\..\..\Software\uCOS-III\Source/os_task.c ****                                                             /* --------------- ADD TASK TO READY LI
 414:..\..\..\..\..\..\Software\uCOS-III\Source/os_task.c ****     OS_CRITICAL_ENTER();
 415:..\..\..\..\..\..\Software\uCOS-III\Source/os_task.c ****     OS_PrioInsert(p_tcb->Prio);
 416:..\..\..\..\..\..\Software\uCOS-III\Source/os_task.c ****     OS_RdyListInsertTail(p_tcb);
 417:..\..\..\..\..\..\Software\uCOS-III\Source/os_task.c **** 
 418:..\..\..\..\..\..\Software\uCOS-III\Source/os_task.c **** #if OS_CFG_DBG_EN > 0u
 419:..\..\..\..\..\..\Software\uCOS-III\Source/os_task.c ****     OS_TaskDbgListAdd(p_tcb);
 420:..\..\..\..\..\..\Software\uCOS-III\Source/os_task.c **** #endif
 421:..\..\..\..\..\..\Software\uCOS-III\Source/os_task.c **** 
 422:..\..\..\..\..\..\Software\uCOS-III\Source/os_task.c ****     OSTaskQty++;                                            /* Increment the #tasks counter        
 423:..\..\..\..\..\..\Software\uCOS-III\Source/os_task.c **** 
 424:..\..\..\..\..\..\Software\uCOS-III\Source/os_task.c ****     if (OSRunning != OS_STATE_OS_RUNNING) {                 /* Return if multitasking has not start
 425:..\..\..\..\..\..\Software\uCOS-III\Source/os_task.c ****         OS_CRITICAL_EXIT();
 426:..\..\..\..\..\..\Software\uCOS-III\Source/os_task.c ****         return;
 427:..\..\..\..\..\..\Software\uCOS-III\Source/os_task.c ****     }
 428:..\..\..\..\..\..\Software\uCOS-III\Source/os_task.c **** 
 429:..\..\..\..\..\..\Software\uCOS-III\Source/os_task.c ****     OS_CRITICAL_EXIT_NO_SCHED();
 430:..\..\..\..\..\..\Software\uCOS-III\Source/os_task.c **** 
 431:..\..\..\..\..\..\Software\uCOS-III\Source/os_task.c ****     OSSched();
 432:..\..\..\..\..\..\Software\uCOS-III\Source/os_task.c **** }
 433:..\..\..\..\..\..\Software\uCOS-III\Source/os_task.c **** 
 434:..\..\..\..\..\..\Software\uCOS-III\Source/os_task.c **** /*$PAGE*/
 435:..\..\..\..\..\..\Software\uCOS-III\Source/os_task.c **** /*
 436:..\..\..\..\..\..\Software\uCOS-III\Source/os_task.c **** ***************************************************************************************************
 437:..\..\..\..\..\..\Software\uCOS-III\Source/os_task.c **** *                                                     DELETE A TASK
 438:..\..\..\..\..\..\Software\uCOS-III\Source/os_task.c **** *
 439:..\..\..\..\..\..\Software\uCOS-III\Source/os_task.c **** * Description: This function allows you to delete a task.  The calling task can delete itself by sp
 440:..\..\..\..\..\..\Software\uCOS-III\Source/os_task.c **** *              pointer for 'p_tcb'.  The deleted task is returned to the dormant state and can be r
 441:..\..\..\..\..\..\Software\uCOS-III\Source/os_task.c **** *              creating the deleted task again.
 442:..\..\..\..\..\..\Software\uCOS-III\Source/os_task.c **** *
 443:..\..\..\..\..\..\Software\uCOS-III\Source/os_task.c **** * Arguments  : p_tcb      is the TCB of the tack to delete
 444:..\..\..\..\..\..\Software\uCOS-III\Source/os_task.c **** *
 445:..\..\..\..\..\..\Software\uCOS-III\Source/os_task.c **** *              p_err      is a pointer to an error code returned by this function:
 446:..\..\..\..\..\..\Software\uCOS-III\Source/os_task.c **** *
 447:..\..\..\..\..\..\Software\uCOS-III\Source/os_task.c **** *                             OS_ERR_NONE                  if the call is successful
 448:..\..\..\..\..\..\Software\uCOS-III\Source/os_task.c **** *                             OS_ERR_STATE_INVALID         if the state of the task is invalid
 449:..\..\..\..\..\..\Software\uCOS-III\Source/os_task.c **** *                             OS_ERR_TASK_DEL_IDLE         if you attempted to delete uC/OS-III's i
 450:..\..\..\..\..\..\Software\uCOS-III\Source/os_task.c **** *                             OS_ERR_TASK_DEL_INVALID      if you attempted to delete uC/OS-III's I
 451:..\..\..\..\..\..\Software\uCOS-III\Source/os_task.c **** *                             OS_ERR_TASK_DEL_ISR          if you tried to delete a task from an IS
 452:..\..\..\..\..\..\Software\uCOS-III\Source/os_task.c **** *
 453:..\..\..\..\..\..\Software\uCOS-III\Source/os_task.c **** * Note(s)    : 1) 'p_err' gets set to OS_ERR_NONE before OSSched() to allow the returned error code
 454:..\..\..\..\..\..\Software\uCOS-III\Source/os_task.c **** *                 for a task that is deleting itself. In this case, 'p_err' MUST point to a global 
 455:..\..\..\..\..\..\Software\uCOS-III\Source/os_task.c **** *                 accessed by another task.
 456:..\..\..\..\..\..\Software\uCOS-III\Source/os_task.c **** ***************************************************************************************************
 457:..\..\..\..\..\..\Software\uCOS-III\Source/os_task.c **** */
 458:..\..\..\..\..\..\Software\uCOS-III\Source/os_task.c **** 
 459:..\..\..\..\..\..\Software\uCOS-III\Source/os_task.c **** #if OS_CFG_TASK_DEL_EN > 0u
ARM GAS  C:\Users\EDULU~1.DES\AppData\Local\Temp\ccxcKTgR.s 			page 15


 460:..\..\..\..\..\..\Software\uCOS-III\Source/os_task.c **** void  OSTaskDel (OS_TCB  *p_tcb,
 461:..\..\..\..\..\..\Software\uCOS-III\Source/os_task.c ****                  OS_ERR  *p_err)
 462:..\..\..\..\..\..\Software\uCOS-III\Source/os_task.c **** {
 463:..\..\..\..\..\..\Software\uCOS-III\Source/os_task.c ****     CPU_SR_ALLOC();
 464:..\..\..\..\..\..\Software\uCOS-III\Source/os_task.c **** 
 465:..\..\..\..\..\..\Software\uCOS-III\Source/os_task.c **** 
 466:..\..\..\..\..\..\Software\uCOS-III\Source/os_task.c **** 
 467:..\..\..\..\..\..\Software\uCOS-III\Source/os_task.c **** #ifdef OS_SAFETY_CRITICAL
 468:..\..\..\..\..\..\Software\uCOS-III\Source/os_task.c ****     if (p_err == (OS_ERR *)0) {
 469:..\..\..\..\..\..\Software\uCOS-III\Source/os_task.c ****         OS_SAFETY_CRITICAL_EXCEPTION();
 470:..\..\..\..\..\..\Software\uCOS-III\Source/os_task.c ****         return;
 471:..\..\..\..\..\..\Software\uCOS-III\Source/os_task.c ****     }
 472:..\..\..\..\..\..\Software\uCOS-III\Source/os_task.c **** #endif
 473:..\..\..\..\..\..\Software\uCOS-III\Source/os_task.c **** 
 474:..\..\..\..\..\..\Software\uCOS-III\Source/os_task.c **** #if OS_CFG_CALLED_FROM_ISR_CHK_EN > 0u
 475:..\..\..\..\..\..\Software\uCOS-III\Source/os_task.c ****     if (OSIntNestingCtr > (OS_NESTING_CTR)0) {              /* See if trying to delete from ISR    
 476:..\..\..\..\..\..\Software\uCOS-III\Source/os_task.c ****        *p_err = OS_ERR_TASK_DEL_ISR;
 477:..\..\..\..\..\..\Software\uCOS-III\Source/os_task.c ****         return;
 478:..\..\..\..\..\..\Software\uCOS-III\Source/os_task.c ****     }
 479:..\..\..\..\..\..\Software\uCOS-III\Source/os_task.c **** #endif
 480:..\..\..\..\..\..\Software\uCOS-III\Source/os_task.c **** 
 481:..\..\..\..\..\..\Software\uCOS-III\Source/os_task.c ****     if (p_tcb == &OSIdleTaskTCB) {                          /* Not allowed to delete the idle task 
 482:..\..\..\..\..\..\Software\uCOS-III\Source/os_task.c ****        *p_err = OS_ERR_TASK_DEL_IDLE;
 483:..\..\..\..\..\..\Software\uCOS-III\Source/os_task.c ****         return;
 484:..\..\..\..\..\..\Software\uCOS-III\Source/os_task.c ****     }
 485:..\..\..\..\..\..\Software\uCOS-III\Source/os_task.c **** 
 486:..\..\..\..\..\..\Software\uCOS-III\Source/os_task.c **** #if OS_CFG_ISR_POST_DEFERRED_EN > 0u
 487:..\..\..\..\..\..\Software\uCOS-III\Source/os_task.c ****     if (p_tcb == &OSIntQTaskTCB) {                          /* Cannot delete the ISR handler task  
 488:..\..\..\..\..\..\Software\uCOS-III\Source/os_task.c ****        *p_err = OS_ERR_TASK_DEL_INVALID;
 489:..\..\..\..\..\..\Software\uCOS-III\Source/os_task.c ****         return;
 490:..\..\..\..\..\..\Software\uCOS-III\Source/os_task.c ****     }
 491:..\..\..\..\..\..\Software\uCOS-III\Source/os_task.c **** #endif
 492:..\..\..\..\..\..\Software\uCOS-III\Source/os_task.c **** 
 493:..\..\..\..\..\..\Software\uCOS-III\Source/os_task.c ****     if (p_tcb == (OS_TCB *)0) {                             /* Delete 'Self'?                      
 494:..\..\..\..\..\..\Software\uCOS-III\Source/os_task.c ****         CPU_CRITICAL_ENTER();
 495:..\..\..\..\..\..\Software\uCOS-III\Source/os_task.c ****         p_tcb  = OSTCBCurPtr;                               /* Yes.                                
 496:..\..\..\..\..\..\Software\uCOS-III\Source/os_task.c ****         CPU_CRITICAL_EXIT();
 497:..\..\..\..\..\..\Software\uCOS-III\Source/os_task.c ****     }
 498:..\..\..\..\..\..\Software\uCOS-III\Source/os_task.c **** 
 499:..\..\..\..\..\..\Software\uCOS-III\Source/os_task.c ****     OS_CRITICAL_ENTER();
 500:..\..\..\..\..\..\Software\uCOS-III\Source/os_task.c ****     switch (p_tcb->TaskState) {
 501:..\..\..\..\..\..\Software\uCOS-III\Source/os_task.c ****         case OS_TASK_STATE_RDY:
 502:..\..\..\..\..\..\Software\uCOS-III\Source/os_task.c ****              OS_RdyListRemove(p_tcb);
 503:..\..\..\..\..\..\Software\uCOS-III\Source/os_task.c ****              break;
 504:..\..\..\..\..\..\Software\uCOS-III\Source/os_task.c **** 
 505:..\..\..\..\..\..\Software\uCOS-III\Source/os_task.c ****         case OS_TASK_STATE_SUSPENDED:
 506:..\..\..\..\..\..\Software\uCOS-III\Source/os_task.c ****              break;
 507:..\..\..\..\..\..\Software\uCOS-III\Source/os_task.c **** 
 508:..\..\..\..\..\..\Software\uCOS-III\Source/os_task.c ****         case OS_TASK_STATE_DLY:                             /* Task is only delayed, not on any wai
 509:..\..\..\..\..\..\Software\uCOS-III\Source/os_task.c ****         case OS_TASK_STATE_DLY_SUSPENDED:
 510:..\..\..\..\..\..\Software\uCOS-III\Source/os_task.c ****              OS_TickListRemove(p_tcb);
 511:..\..\..\..\..\..\Software\uCOS-III\Source/os_task.c ****              break;
 512:..\..\..\..\..\..\Software\uCOS-III\Source/os_task.c **** 
 513:..\..\..\..\..\..\Software\uCOS-III\Source/os_task.c ****         case OS_TASK_STATE_PEND:
 514:..\..\..\..\..\..\Software\uCOS-III\Source/os_task.c ****         case OS_TASK_STATE_PEND_SUSPENDED:
 515:..\..\..\..\..\..\Software\uCOS-III\Source/os_task.c ****         case OS_TASK_STATE_PEND_TIMEOUT:
 516:..\..\..\..\..\..\Software\uCOS-III\Source/os_task.c ****         case OS_TASK_STATE_PEND_TIMEOUT_SUSPENDED:
ARM GAS  C:\Users\EDULU~1.DES\AppData\Local\Temp\ccxcKTgR.s 			page 16


 517:..\..\..\..\..\..\Software\uCOS-III\Source/os_task.c ****              OS_TickListRemove(p_tcb);
 518:..\..\..\..\..\..\Software\uCOS-III\Source/os_task.c ****              switch (p_tcb->PendOn) {                       /* See what we are pending on          
 519:..\..\..\..\..\..\Software\uCOS-III\Source/os_task.c ****                  case OS_TASK_PEND_ON_NOTHING:
 520:..\..\..\..\..\..\Software\uCOS-III\Source/os_task.c ****                  case OS_TASK_PEND_ON_TASK_Q:               /* There is no wait list for these two 
 521:..\..\..\..\..\..\Software\uCOS-III\Source/os_task.c ****                  case OS_TASK_PEND_ON_TASK_SEM:
 522:..\..\..\..\..\..\Software\uCOS-III\Source/os_task.c ****                       break;
 523:..\..\..\..\..\..\Software\uCOS-III\Source/os_task.c **** 
 524:..\..\..\..\..\..\Software\uCOS-III\Source/os_task.c ****                  case OS_TASK_PEND_ON_FLAG:                 /* Remove from wait list               
 525:..\..\..\..\..\..\Software\uCOS-III\Source/os_task.c ****                  case OS_TASK_PEND_ON_MULTI:
 526:..\..\..\..\..\..\Software\uCOS-III\Source/os_task.c ****                  case OS_TASK_PEND_ON_MUTEX:
 527:..\..\..\..\..\..\Software\uCOS-III\Source/os_task.c ****                  case OS_TASK_PEND_ON_Q:
 528:..\..\..\..\..\..\Software\uCOS-III\Source/os_task.c ****                  case OS_TASK_PEND_ON_SEM:
 529:..\..\..\..\..\..\Software\uCOS-III\Source/os_task.c ****                       OS_PendListRemove(p_tcb);
 530:..\..\..\..\..\..\Software\uCOS-III\Source/os_task.c ****                       break;
 531:..\..\..\..\..\..\Software\uCOS-III\Source/os_task.c **** 
 532:..\..\..\..\..\..\Software\uCOS-III\Source/os_task.c ****                  default:
 533:..\..\..\..\..\..\Software\uCOS-III\Source/os_task.c ****                       break;
 534:..\..\..\..\..\..\Software\uCOS-III\Source/os_task.c ****              }
 535:..\..\..\..\..\..\Software\uCOS-III\Source/os_task.c ****              break;
 536:..\..\..\..\..\..\Software\uCOS-III\Source/os_task.c **** 
 537:..\..\..\..\..\..\Software\uCOS-III\Source/os_task.c ****         default:
 538:..\..\..\..\..\..\Software\uCOS-III\Source/os_task.c ****             OS_CRITICAL_EXIT();
 539:..\..\..\..\..\..\Software\uCOS-III\Source/os_task.c ****            *p_err = OS_ERR_STATE_INVALID;
 540:..\..\..\..\..\..\Software\uCOS-III\Source/os_task.c ****             return;
 541:..\..\..\..\..\..\Software\uCOS-III\Source/os_task.c ****     }
 542:..\..\..\..\..\..\Software\uCOS-III\Source/os_task.c **** 
 543:..\..\..\..\..\..\Software\uCOS-III\Source/os_task.c **** #if OS_CFG_TASK_Q_EN > 0u
 544:..\..\..\..\..\..\Software\uCOS-III\Source/os_task.c ****     (void)OS_MsgQFreeAll(&p_tcb->MsgQ);                     /* Free task's message queue messages  
 545:..\..\..\..\..\..\Software\uCOS-III\Source/os_task.c **** #endif
 546:..\..\..\..\..\..\Software\uCOS-III\Source/os_task.c **** 
 547:..\..\..\..\..\..\Software\uCOS-III\Source/os_task.c ****     OSTaskDelHook(p_tcb);                                   /* Call user defined hook              
 548:..\..\..\..\..\..\Software\uCOS-III\Source/os_task.c **** 
 549:..\..\..\..\..\..\Software\uCOS-III\Source/os_task.c **** #if defined(OS_CFG_TLS_TBL_SIZE) && (OS_CFG_TLS_TBL_SIZE > 0u)
 550:..\..\..\..\..\..\Software\uCOS-III\Source/os_task.c ****     OS_TLS_TaskDel(p_tcb);                                  /* Call TLS hook                       
 551:..\..\..\..\..\..\Software\uCOS-III\Source/os_task.c **** #endif
 552:..\..\..\..\..\..\Software\uCOS-III\Source/os_task.c **** 
 553:..\..\..\..\..\..\Software\uCOS-III\Source/os_task.c **** #if OS_CFG_DBG_EN > 0u
 554:..\..\..\..\..\..\Software\uCOS-III\Source/os_task.c ****     OS_TaskDbgListRemove(p_tcb);
 555:..\..\..\..\..\..\Software\uCOS-III\Source/os_task.c **** #endif
 556:..\..\..\..\..\..\Software\uCOS-III\Source/os_task.c ****     OSTaskQty--;                                            /* One less task being managed         
 557:..\..\..\..\..\..\Software\uCOS-III\Source/os_task.c **** 
 558:..\..\..\..\..\..\Software\uCOS-III\Source/os_task.c ****     OS_TaskInitTCB(p_tcb);                                  /* Initialize the TCB to default values
 559:..\..\..\..\..\..\Software\uCOS-III\Source/os_task.c ****     p_tcb->TaskState = (OS_STATE)OS_TASK_STATE_DEL;         /* Indicate that the task was deleted  
 560:..\..\..\..\..\..\Software\uCOS-III\Source/os_task.c **** 
 561:..\..\..\..\..\..\Software\uCOS-III\Source/os_task.c ****     OS_CRITICAL_EXIT_NO_SCHED();
 562:..\..\..\..\..\..\Software\uCOS-III\Source/os_task.c **** 
 563:..\..\..\..\..\..\Software\uCOS-III\Source/os_task.c ****    *p_err = OS_ERR_NONE;                                    /* See Note #1.                        
 564:..\..\..\..\..\..\Software\uCOS-III\Source/os_task.c **** 
 565:..\..\..\..\..\..\Software\uCOS-III\Source/os_task.c ****     OSSched();                                              /* Find new highest priority task      
 566:..\..\..\..\..\..\Software\uCOS-III\Source/os_task.c **** }
 567:..\..\..\..\..\..\Software\uCOS-III\Source/os_task.c **** #endif
 568:..\..\..\..\..\..\Software\uCOS-III\Source/os_task.c **** 
 569:..\..\..\..\..\..\Software\uCOS-III\Source/os_task.c **** /*$PAGE*/
 570:..\..\..\..\..\..\Software\uCOS-III\Source/os_task.c **** /*
 571:..\..\..\..\..\..\Software\uCOS-III\Source/os_task.c **** ***************************************************************************************************
 572:..\..\..\..\..\..\Software\uCOS-III\Source/os_task.c **** *                                                    FLUSH TASK's QUEUE
 573:..\..\..\..\..\..\Software\uCOS-III\Source/os_task.c **** *
ARM GAS  C:\Users\EDULU~1.DES\AppData\Local\Temp\ccxcKTgR.s 			page 17


 574:..\..\..\..\..\..\Software\uCOS-III\Source/os_task.c **** * Description: This function is used to flush the task's internal message queue.
 575:..\..\..\..\..\..\Software\uCOS-III\Source/os_task.c **** *
 576:..\..\..\..\..\..\Software\uCOS-III\Source/os_task.c **** * Arguments  : p_tcb       is a pointer to the task's OS_TCB.  Specifying a NULL pointer indicates 
 577:..\..\..\..\..\..\Software\uCOS-III\Source/os_task.c **** *                          flush the message queue of the calling task.
 578:..\..\..\..\..\..\Software\uCOS-III\Source/os_task.c **** *
 579:..\..\..\..\..\..\Software\uCOS-III\Source/os_task.c **** *              p_err       is a pointer to a variable that will contain an error code returned by t
 580:..\..\..\..\..\..\Software\uCOS-III\Source/os_task.c **** *
 581:..\..\..\..\..\..\Software\uCOS-III\Source/os_task.c **** *                              OS_ERR_NONE           upon success
 582:..\..\..\..\..\..\Software\uCOS-III\Source/os_task.c **** *                              OS_ERR_FLUSH_ISR      if you called this function from an ISR
 583:..\..\..\..\..\..\Software\uCOS-III\Source/os_task.c **** *
 584:..\..\..\..\..\..\Software\uCOS-III\Source/os_task.c **** * Returns     : The number of entries freed from the queue
 585:..\..\..\..\..\..\Software\uCOS-III\Source/os_task.c **** *
 586:..\..\..\..\..\..\Software\uCOS-III\Source/os_task.c **** * Note(s)     : 1) You should use this function with great care because, when to flush the queue, y
 587:..\..\..\..\..\..\Software\uCOS-III\Source/os_task.c **** *                  references to what the queue entries are pointing to and thus, you could cause '
 588:..\..\..\..\..\..\Software\uCOS-III\Source/os_task.c **** *                  other words, the data you are pointing to that's being referenced by the queue e
 589:..\..\..\..\..\..\Software\uCOS-III\Source/os_task.c **** *                  likely, need to be de-allocated (i.e. freed).
 590:..\..\..\..\..\..\Software\uCOS-III\Source/os_task.c **** ***************************************************************************************************
 591:..\..\..\..\..\..\Software\uCOS-III\Source/os_task.c **** */
 592:..\..\..\..\..\..\Software\uCOS-III\Source/os_task.c **** 
 593:..\..\..\..\..\..\Software\uCOS-III\Source/os_task.c **** #if OS_CFG_TASK_Q_EN > 0u
 594:..\..\..\..\..\..\Software\uCOS-III\Source/os_task.c **** OS_MSG_QTY  OSTaskQFlush (OS_TCB  *p_tcb,
 595:..\..\..\..\..\..\Software\uCOS-III\Source/os_task.c ****                           OS_ERR  *p_err)
 596:..\..\..\..\..\..\Software\uCOS-III\Source/os_task.c **** {
 597:..\..\..\..\..\..\Software\uCOS-III\Source/os_task.c ****     OS_MSG_QTY  entries;
 598:..\..\..\..\..\..\Software\uCOS-III\Source/os_task.c ****     CPU_SR_ALLOC();
 599:..\..\..\..\..\..\Software\uCOS-III\Source/os_task.c **** 
 600:..\..\..\..\..\..\Software\uCOS-III\Source/os_task.c **** 
 601:..\..\..\..\..\..\Software\uCOS-III\Source/os_task.c **** 
 602:..\..\..\..\..\..\Software\uCOS-III\Source/os_task.c **** #ifdef OS_SAFETY_CRITICAL
 603:..\..\..\..\..\..\Software\uCOS-III\Source/os_task.c ****     if (p_err == (OS_ERR *)0) {
 604:..\..\..\..\..\..\Software\uCOS-III\Source/os_task.c ****         OS_SAFETY_CRITICAL_EXCEPTION();
 605:..\..\..\..\..\..\Software\uCOS-III\Source/os_task.c ****         return ((OS_MSG_QTY)0);
 606:..\..\..\..\..\..\Software\uCOS-III\Source/os_task.c ****     }
 607:..\..\..\..\..\..\Software\uCOS-III\Source/os_task.c **** #endif
 608:..\..\..\..\..\..\Software\uCOS-III\Source/os_task.c **** 
 609:..\..\..\..\..\..\Software\uCOS-III\Source/os_task.c **** #if OS_CFG_CALLED_FROM_ISR_CHK_EN > 0u
 610:..\..\..\..\..\..\Software\uCOS-III\Source/os_task.c ****     if (OSIntNestingCtr > (OS_NESTING_CTR)0) {              /* Can't flush a message queue from an 
 611:..\..\..\..\..\..\Software\uCOS-III\Source/os_task.c ****        *p_err = OS_ERR_FLUSH_ISR;
 612:..\..\..\..\..\..\Software\uCOS-III\Source/os_task.c ****         return ((OS_MSG_QTY)0);
 613:..\..\..\..\..\..\Software\uCOS-III\Source/os_task.c ****     }
 614:..\..\..\..\..\..\Software\uCOS-III\Source/os_task.c **** #endif
 615:..\..\..\..\..\..\Software\uCOS-III\Source/os_task.c **** 
 616:..\..\..\..\..\..\Software\uCOS-III\Source/os_task.c ****     if (p_tcb == (OS_TCB *)0) {                             /* Flush message queue of calling task?
 617:..\..\..\..\..\..\Software\uCOS-III\Source/os_task.c ****         CPU_CRITICAL_ENTER();
 618:..\..\..\..\..\..\Software\uCOS-III\Source/os_task.c ****         p_tcb = OSTCBCurPtr;
 619:..\..\..\..\..\..\Software\uCOS-III\Source/os_task.c ****         CPU_CRITICAL_EXIT();
 620:..\..\..\..\..\..\Software\uCOS-III\Source/os_task.c ****     }
 621:..\..\..\..\..\..\Software\uCOS-III\Source/os_task.c **** 
 622:..\..\..\..\..\..\Software\uCOS-III\Source/os_task.c ****     OS_CRITICAL_ENTER();
 623:..\..\..\..\..\..\Software\uCOS-III\Source/os_task.c ****     entries = OS_MsgQFreeAll(&p_tcb->MsgQ);                 /* Return all OS_MSGs to the OS_MSG poo
 624:..\..\..\..\..\..\Software\uCOS-III\Source/os_task.c ****     OS_CRITICAL_EXIT();
 625:..\..\..\..\..\..\Software\uCOS-III\Source/os_task.c ****    *p_err   = OS_ERR_NONE;
 626:..\..\..\..\..\..\Software\uCOS-III\Source/os_task.c ****     return (entries);
 627:..\..\..\..\..\..\Software\uCOS-III\Source/os_task.c **** }
 628:..\..\..\..\..\..\Software\uCOS-III\Source/os_task.c **** #endif
 629:..\..\..\..\..\..\Software\uCOS-III\Source/os_task.c **** 
 630:..\..\..\..\..\..\Software\uCOS-III\Source/os_task.c **** /*$PAGE*/
ARM GAS  C:\Users\EDULU~1.DES\AppData\Local\Temp\ccxcKTgR.s 			page 18


 631:..\..\..\..\..\..\Software\uCOS-III\Source/os_task.c **** /*
 632:..\..\..\..\..\..\Software\uCOS-III\Source/os_task.c **** ***************************************************************************************************
 633:..\..\..\..\..\..\Software\uCOS-III\Source/os_task.c **** *                                                  WAIT FOR A MESSAGE
 634:..\..\..\..\..\..\Software\uCOS-III\Source/os_task.c **** *
 635:..\..\..\..\..\..\Software\uCOS-III\Source/os_task.c **** * Description: This function causes the current task to wait for a message to be posted to it.
 636:..\..\..\..\..\..\Software\uCOS-III\Source/os_task.c **** *
 637:..\..\..\..\..\..\Software\uCOS-III\Source/os_task.c **** * Arguments  : timeout       is an optional timeout period (in clock ticks).  If non-zero, your tas
 638:..\..\..\..\..\..\Software\uCOS-III\Source/os_task.c **** *                            message to arrive up to the amount of time specified by this argument.
 639:..\..\..\..\..\..\Software\uCOS-III\Source/os_task.c **** *                            If you specify 0, however, your task will wait forever or, until a mes
 640:..\..\..\..\..\..\Software\uCOS-III\Source/os_task.c **** *
 641:..\..\..\..\..\..\Software\uCOS-III\Source/os_task.c **** *              opt           determines whether the user wants to block if the task's queue is empt
 642:..\..\..\..\..\..\Software\uCOS-III\Source/os_task.c **** *
 643:..\..\..\..\..\..\Software\uCOS-III\Source/os_task.c **** *                                OS_OPT_PEND_BLOCKING
 644:..\..\..\..\..\..\Software\uCOS-III\Source/os_task.c **** *                                OS_OPT_PEND_NON_BLOCKING
 645:..\..\..\..\..\..\Software\uCOS-III\Source/os_task.c **** *
 646:..\..\..\..\..\..\Software\uCOS-III\Source/os_task.c **** *              p_msg_size    is a pointer to a variable that will receive the size of the message
 647:..\..\..\..\..\..\Software\uCOS-III\Source/os_task.c **** *
 648:..\..\..\..\..\..\Software\uCOS-III\Source/os_task.c **** *              p_ts          is a pointer to a variable that will receive the timestamp of when the
 649:..\..\..\..\..\..\Software\uCOS-III\Source/os_task.c **** *                            received.  If you pass a NULL pointer (i.e. (CPU_TS *)0) then you will
 650:..\..\..\..\..\..\Software\uCOS-III\Source/os_task.c **** *                            timestamp.  In other words, passing a NULL pointer is valid and indica
 651:..\..\..\..\..\..\Software\uCOS-III\Source/os_task.c **** *                            need the timestamp.
 652:..\..\..\..\..\..\Software\uCOS-III\Source/os_task.c **** *
 653:..\..\..\..\..\..\Software\uCOS-III\Source/os_task.c **** *              p_err         is a pointer to where an error message will be deposited.  Possible er
 654:..\..\..\..\..\..\Software\uCOS-III\Source/os_task.c **** *                            messages are:
 655:..\..\..\..\..\..\Software\uCOS-III\Source/os_task.c **** *
 656:..\..\..\..\..\..\Software\uCOS-III\Source/os_task.c **** *                                OS_ERR_NONE               The call was successful and your task re
 657:..\..\..\..\..\..\Software\uCOS-III\Source/os_task.c **** *                                OS_ERR_PEND_ABORT
 658:..\..\..\..\..\..\Software\uCOS-III\Source/os_task.c **** *                                OS_ERR_PEND_ISR           If you called this function from an ISR 
 659:..\..\..\..\..\..\Software\uCOS-III\Source/os_task.c **** *                                OS_ERR_PEND_WOULD_BLOCK   If you specified non-blocking but the qu
 660:..\..\..\..\..\..\Software\uCOS-III\Source/os_task.c **** *                                OS_ERR_Q_EMPTY
 661:..\..\..\..\..\..\Software\uCOS-III\Source/os_task.c **** *                                OS_ERR_SCHED_LOCKED       If the scheduler is locked
 662:..\..\..\..\..\..\Software\uCOS-III\Source/os_task.c **** *                                OS_ERR_TIMEOUT            A message was not received within the sp
 663:..\..\..\..\..\..\Software\uCOS-III\Source/os_task.c **** *                                                          would lead to a suspension.
 664:..\..\..\..\..\..\Software\uCOS-III\Source/os_task.c **** *
 665:..\..\..\..\..\..\Software\uCOS-III\Source/os_task.c **** * Returns    : A pointer to the message received or a NULL pointer upon error.
 666:..\..\..\..\..\..\Software\uCOS-III\Source/os_task.c **** *
 667:..\..\..\..\..\..\Software\uCOS-III\Source/os_task.c **** * Note(s)    : 1) It is possible to receive NULL pointers when there are no errors.
 668:..\..\..\..\..\..\Software\uCOS-III\Source/os_task.c **** ***************************************************************************************************
 669:..\..\..\..\..\..\Software\uCOS-III\Source/os_task.c **** */
 670:..\..\..\..\..\..\Software\uCOS-III\Source/os_task.c **** 
 671:..\..\..\..\..\..\Software\uCOS-III\Source/os_task.c **** #if OS_CFG_TASK_Q_EN > 0u
 672:..\..\..\..\..\..\Software\uCOS-III\Source/os_task.c **** void  *OSTaskQPend (OS_TICK       timeout,
 673:..\..\..\..\..\..\Software\uCOS-III\Source/os_task.c ****                     OS_OPT        opt,
 674:..\..\..\..\..\..\Software\uCOS-III\Source/os_task.c ****                     OS_MSG_SIZE  *p_msg_size,
 675:..\..\..\..\..\..\Software\uCOS-III\Source/os_task.c ****                     CPU_TS       *p_ts,
 676:..\..\..\..\..\..\Software\uCOS-III\Source/os_task.c ****                     OS_ERR       *p_err)
 677:..\..\..\..\..\..\Software\uCOS-III\Source/os_task.c **** {
 678:..\..\..\..\..\..\Software\uCOS-III\Source/os_task.c ****     OS_MSG_Q     *p_msg_q;
 679:..\..\..\..\..\..\Software\uCOS-III\Source/os_task.c ****     void         *p_void;
 680:..\..\..\..\..\..\Software\uCOS-III\Source/os_task.c ****     CPU_SR_ALLOC();
 681:..\..\..\..\..\..\Software\uCOS-III\Source/os_task.c **** 
 682:..\..\..\..\..\..\Software\uCOS-III\Source/os_task.c **** 
 683:..\..\..\..\..\..\Software\uCOS-III\Source/os_task.c **** 
 684:..\..\..\..\..\..\Software\uCOS-III\Source/os_task.c **** #ifdef OS_SAFETY_CRITICAL
 685:..\..\..\..\..\..\Software\uCOS-III\Source/os_task.c ****     if (p_err == (OS_ERR *)0) {
 686:..\..\..\..\..\..\Software\uCOS-III\Source/os_task.c ****         OS_SAFETY_CRITICAL_EXCEPTION();
 687:..\..\..\..\..\..\Software\uCOS-III\Source/os_task.c ****         return ((void *)0);
ARM GAS  C:\Users\EDULU~1.DES\AppData\Local\Temp\ccxcKTgR.s 			page 19


 688:..\..\..\..\..\..\Software\uCOS-III\Source/os_task.c ****     }
 689:..\..\..\..\..\..\Software\uCOS-III\Source/os_task.c **** #endif
 690:..\..\..\..\..\..\Software\uCOS-III\Source/os_task.c **** 
 691:..\..\..\..\..\..\Software\uCOS-III\Source/os_task.c **** #if OS_CFG_CALLED_FROM_ISR_CHK_EN > 0u
 692:..\..\..\..\..\..\Software\uCOS-III\Source/os_task.c ****     if (OSIntNestingCtr > (OS_NESTING_CTR)0) {              /* Can't Pend from an ISR              
 693:..\..\..\..\..\..\Software\uCOS-III\Source/os_task.c ****        *p_err = OS_ERR_PEND_ISR;
 694:..\..\..\..\..\..\Software\uCOS-III\Source/os_task.c ****         return ((void *)0);
 695:..\..\..\..\..\..\Software\uCOS-III\Source/os_task.c ****     }
 696:..\..\..\..\..\..\Software\uCOS-III\Source/os_task.c **** #endif
 697:..\..\..\..\..\..\Software\uCOS-III\Source/os_task.c **** 
 698:..\..\..\..\..\..\Software\uCOS-III\Source/os_task.c **** #if OS_CFG_ARG_CHK_EN > 0u                                  /* ---------------- VALIDATE ARGUMENTS 
 699:..\..\..\..\..\..\Software\uCOS-III\Source/os_task.c ****     if (p_msg_size == (OS_MSG_SIZE *)0) {                   /* User must supply a valid destination
 700:..\..\..\..\..\..\Software\uCOS-III\Source/os_task.c ****        *p_err = OS_ERR_PTR_INVALID;
 701:..\..\..\..\..\..\Software\uCOS-III\Source/os_task.c ****         return ((void *)0);
 702:..\..\..\..\..\..\Software\uCOS-III\Source/os_task.c ****     }
 703:..\..\..\..\..\..\Software\uCOS-III\Source/os_task.c ****     switch (opt) {                                          /* User must supply a valid option     
 704:..\..\..\..\..\..\Software\uCOS-III\Source/os_task.c ****         case OS_OPT_PEND_BLOCKING:
 705:..\..\..\..\..\..\Software\uCOS-III\Source/os_task.c ****         case OS_OPT_PEND_NON_BLOCKING:
 706:..\..\..\..\..\..\Software\uCOS-III\Source/os_task.c ****              break;
 707:..\..\..\..\..\..\Software\uCOS-III\Source/os_task.c **** 
 708:..\..\..\..\..\..\Software\uCOS-III\Source/os_task.c ****         default:
 709:..\..\..\..\..\..\Software\uCOS-III\Source/os_task.c ****             *p_err = OS_ERR_OPT_INVALID;
 710:..\..\..\..\..\..\Software\uCOS-III\Source/os_task.c ****              return ((void *)0);
 711:..\..\..\..\..\..\Software\uCOS-III\Source/os_task.c ****     }
 712:..\..\..\..\..\..\Software\uCOS-III\Source/os_task.c **** #endif
 713:..\..\..\..\..\..\Software\uCOS-III\Source/os_task.c **** 
 714:..\..\..\..\..\..\Software\uCOS-III\Source/os_task.c ****     if (p_ts != (CPU_TS *)0) {
 715:..\..\..\..\..\..\Software\uCOS-III\Source/os_task.c ****        *p_ts  = (CPU_TS  )0;                                /* Initialize the returned timestamp   
 716:..\..\..\..\..\..\Software\uCOS-III\Source/os_task.c ****     }
 717:..\..\..\..\..\..\Software\uCOS-III\Source/os_task.c **** 
 718:..\..\..\..\..\..\Software\uCOS-III\Source/os_task.c ****     CPU_CRITICAL_ENTER();
 719:..\..\..\..\..\..\Software\uCOS-III\Source/os_task.c ****     p_msg_q = &OSTCBCurPtr->MsgQ;                           /* Any message waiting in the message q
 720:..\..\..\..\..\..\Software\uCOS-III\Source/os_task.c ****     p_void  = OS_MsgQGet(p_msg_q,
 721:..\..\..\..\..\..\Software\uCOS-III\Source/os_task.c ****                          p_msg_size,
 722:..\..\..\..\..\..\Software\uCOS-III\Source/os_task.c ****                          p_ts,
 723:..\..\..\..\..\..\Software\uCOS-III\Source/os_task.c ****                          p_err);
 724:..\..\..\..\..\..\Software\uCOS-III\Source/os_task.c ****     if (*p_err == OS_ERR_NONE) {
 725:..\..\..\..\..\..\Software\uCOS-III\Source/os_task.c **** #if OS_CFG_TASK_PROFILE_EN > 0u
 726:..\..\..\..\..\..\Software\uCOS-III\Source/os_task.c ****         if (p_ts != (CPU_TS *)0) {
 727:..\..\..\..\..\..\Software\uCOS-III\Source/os_task.c ****             OSTCBCurPtr->MsgQPendTime = OS_TS_GET() - *p_ts;
 728:..\..\..\..\..\..\Software\uCOS-III\Source/os_task.c ****             if (OSTCBCurPtr->MsgQPendTimeMax < OSTCBCurPtr->MsgQPendTime) {
 729:..\..\..\..\..\..\Software\uCOS-III\Source/os_task.c ****                 OSTCBCurPtr->MsgQPendTimeMax = OSTCBCurPtr->MsgQPendTime;
 730:..\..\..\..\..\..\Software\uCOS-III\Source/os_task.c ****             }
 731:..\..\..\..\..\..\Software\uCOS-III\Source/os_task.c ****         }
 732:..\..\..\..\..\..\Software\uCOS-III\Source/os_task.c **** #endif
 733:..\..\..\..\..\..\Software\uCOS-III\Source/os_task.c ****         CPU_CRITICAL_EXIT();
 734:..\..\..\..\..\..\Software\uCOS-III\Source/os_task.c ****         return (p_void);                                    /* Yes, Return oldest message received 
 735:..\..\..\..\..\..\Software\uCOS-III\Source/os_task.c ****     }
 736:..\..\..\..\..\..\Software\uCOS-III\Source/os_task.c **** 
 737:..\..\..\..\..\..\Software\uCOS-III\Source/os_task.c ****     if ((opt & OS_OPT_PEND_NON_BLOCKING) != (OS_OPT)0) {    /* Caller wants to block if not availab
 738:..\..\..\..\..\..\Software\uCOS-III\Source/os_task.c ****        *p_err = OS_ERR_PEND_WOULD_BLOCK;                    /* No                                  
 739:..\..\..\..\..\..\Software\uCOS-III\Source/os_task.c ****         CPU_CRITICAL_EXIT();
 740:..\..\..\..\..\..\Software\uCOS-III\Source/os_task.c ****         return ((void *)0);
 741:..\..\..\..\..\..\Software\uCOS-III\Source/os_task.c ****     } else {                                                /* Yes                                 
 742:..\..\..\..\..\..\Software\uCOS-III\Source/os_task.c ****         if (OSSchedLockNestingCtr > (OS_NESTING_CTR)0) {    /*     Can't block when the scheduler i
 743:..\..\..\..\..\..\Software\uCOS-III\Source/os_task.c ****             CPU_CRITICAL_EXIT();
 744:..\..\..\..\..\..\Software\uCOS-III\Source/os_task.c ****            *p_err = OS_ERR_SCHED_LOCKED;
ARM GAS  C:\Users\EDULU~1.DES\AppData\Local\Temp\ccxcKTgR.s 			page 20


 745:..\..\..\..\..\..\Software\uCOS-III\Source/os_task.c ****             return ((void *)0);
 746:..\..\..\..\..\..\Software\uCOS-III\Source/os_task.c ****         }
 747:..\..\..\..\..\..\Software\uCOS-III\Source/os_task.c ****     }
 748:..\..\..\..\..\..\Software\uCOS-III\Source/os_task.c ****                                                             /* Lock the scheduler/re-enable interru
 749:..\..\..\..\..\..\Software\uCOS-III\Source/os_task.c ****     OS_CRITICAL_ENTER_CPU_EXIT();
 750:..\..\..\..\..\..\Software\uCOS-III\Source/os_task.c ****     OS_Pend((OS_PEND_DATA *)0,                              /* Block task pending on Message       
 751:..\..\..\..\..\..\Software\uCOS-III\Source/os_task.c ****             (OS_PEND_OBJ  *)0,
 752:..\..\..\..\..\..\Software\uCOS-III\Source/os_task.c ****             (OS_STATE      )OS_TASK_PEND_ON_TASK_Q,
 753:..\..\..\..\..\..\Software\uCOS-III\Source/os_task.c ****             (OS_TICK       )timeout);
 754:..\..\..\..\..\..\Software\uCOS-III\Source/os_task.c ****     OS_CRITICAL_EXIT_NO_SCHED();
 755:..\..\..\..\..\..\Software\uCOS-III\Source/os_task.c **** 
 756:..\..\..\..\..\..\Software\uCOS-III\Source/os_task.c ****     OSSched();                                              /* Find the next highest priority task 
 757:..\..\..\..\..\..\Software\uCOS-III\Source/os_task.c **** 
 758:..\..\..\..\..\..\Software\uCOS-III\Source/os_task.c ****     CPU_CRITICAL_ENTER();
 759:..\..\..\..\..\..\Software\uCOS-III\Source/os_task.c ****     switch (OSTCBCurPtr->PendStatus) {
 760:..\..\..\..\..\..\Software\uCOS-III\Source/os_task.c ****         case OS_STATUS_PEND_OK:                             /* Extract message from TCB (Put there 
 761:..\..\..\..\..\..\Software\uCOS-III\Source/os_task.c ****              p_void      = OSTCBCurPtr->MsgPtr;
 762:..\..\..\..\..\..\Software\uCOS-III\Source/os_task.c ****             *p_msg_size  = OSTCBCurPtr->MsgSize;
 763:..\..\..\..\..\..\Software\uCOS-III\Source/os_task.c ****              if (p_ts != (CPU_TS *)0) {
 764:..\..\..\..\..\..\Software\uCOS-III\Source/os_task.c ****                 *p_ts  = OSTCBCurPtr->TS;
 765:..\..\..\..\..\..\Software\uCOS-III\Source/os_task.c **** #if OS_CFG_TASK_PROFILE_EN > 0u
 766:..\..\..\..\..\..\Software\uCOS-III\Source/os_task.c ****                 OSTCBCurPtr->MsgQPendTime = OS_TS_GET() - OSTCBCurPtr->TS;
 767:..\..\..\..\..\..\Software\uCOS-III\Source/os_task.c ****                 if (OSTCBCurPtr->MsgQPendTimeMax < OSTCBCurPtr->MsgQPendTime) {
 768:..\..\..\..\..\..\Software\uCOS-III\Source/os_task.c ****                     OSTCBCurPtr->MsgQPendTimeMax = OSTCBCurPtr->MsgQPendTime;
 769:..\..\..\..\..\..\Software\uCOS-III\Source/os_task.c ****                 }
 770:..\..\..\..\..\..\Software\uCOS-III\Source/os_task.c **** #endif
 771:..\..\..\..\..\..\Software\uCOS-III\Source/os_task.c ****              }
 772:..\..\..\..\..\..\Software\uCOS-III\Source/os_task.c ****             *p_err = OS_ERR_NONE;
 773:..\..\..\..\..\..\Software\uCOS-III\Source/os_task.c ****              break;
 774:..\..\..\..\..\..\Software\uCOS-III\Source/os_task.c **** 
 775:..\..\..\..\..\..\Software\uCOS-III\Source/os_task.c ****         case OS_STATUS_PEND_ABORT:                          /* Indicate that we aborted            
 776:..\..\..\..\..\..\Software\uCOS-III\Source/os_task.c ****              p_void     = (void      *)0;
 777:..\..\..\..\..\..\Software\uCOS-III\Source/os_task.c ****             *p_msg_size = (OS_MSG_SIZE)0;
 778:..\..\..\..\..\..\Software\uCOS-III\Source/os_task.c ****              if (p_ts  != (CPU_TS *)0) {
 779:..\..\..\..\..\..\Software\uCOS-III\Source/os_task.c ****                 *p_ts   = (CPU_TS  )0;
 780:..\..\..\..\..\..\Software\uCOS-III\Source/os_task.c ****              }
 781:..\..\..\..\..\..\Software\uCOS-III\Source/os_task.c ****             *p_err      =  OS_ERR_PEND_ABORT;
 782:..\..\..\..\..\..\Software\uCOS-III\Source/os_task.c ****              break;
 783:..\..\..\..\..\..\Software\uCOS-III\Source/os_task.c **** 
 784:..\..\..\..\..\..\Software\uCOS-III\Source/os_task.c ****         case OS_STATUS_PEND_TIMEOUT:                        /* Indicate that we didn't get event wi
 785:..\..\..\..\..\..\Software\uCOS-III\Source/os_task.c ****         default:
 786:..\..\..\..\..\..\Software\uCOS-III\Source/os_task.c ****              p_void     = (void      *)0;
 787:..\..\..\..\..\..\Software\uCOS-III\Source/os_task.c ****             *p_msg_size = (OS_MSG_SIZE)0;
 788:..\..\..\..\..\..\Software\uCOS-III\Source/os_task.c ****              if (p_ts  != (CPU_TS *)0) {
 789:..\..\..\..\..\..\Software\uCOS-III\Source/os_task.c ****                 *p_ts   =  OSTCBCurPtr->TS;
 790:..\..\..\..\..\..\Software\uCOS-III\Source/os_task.c ****              }
 791:..\..\..\..\..\..\Software\uCOS-III\Source/os_task.c ****             *p_err      =  OS_ERR_TIMEOUT;
 792:..\..\..\..\..\..\Software\uCOS-III\Source/os_task.c ****              break;
 793:..\..\..\..\..\..\Software\uCOS-III\Source/os_task.c ****     }
 794:..\..\..\..\..\..\Software\uCOS-III\Source/os_task.c ****     CPU_CRITICAL_EXIT();
 795:..\..\..\..\..\..\Software\uCOS-III\Source/os_task.c ****     return (p_void);                                        /* Return received message             
 796:..\..\..\..\..\..\Software\uCOS-III\Source/os_task.c **** }
 797:..\..\..\..\..\..\Software\uCOS-III\Source/os_task.c **** #endif
 798:..\..\..\..\..\..\Software\uCOS-III\Source/os_task.c **** 
 799:..\..\..\..\..\..\Software\uCOS-III\Source/os_task.c **** /*$PAGE*/
 800:..\..\..\..\..\..\Software\uCOS-III\Source/os_task.c **** /*
 801:..\..\..\..\..\..\Software\uCOS-III\Source/os_task.c **** ***************************************************************************************************
ARM GAS  C:\Users\EDULU~1.DES\AppData\Local\Temp\ccxcKTgR.s 			page 21


 802:..\..\..\..\..\..\Software\uCOS-III\Source/os_task.c **** *                                              ABORT WAITING FOR A MESSAGE
 803:..\..\..\..\..\..\Software\uCOS-III\Source/os_task.c **** *
 804:..\..\..\..\..\..\Software\uCOS-III\Source/os_task.c **** * Description: This function aborts & readies the task specified.  This function should be used to 
 805:..\..\..\..\..\..\Software\uCOS-III\Source/os_task.c **** *              for a message, rather than to normally post the message to the task via OSTaskQPost(
 806:..\..\..\..\..\..\Software\uCOS-III\Source/os_task.c **** *
 807:..\..\..\..\..\..\Software\uCOS-III\Source/os_task.c **** * Arguments  : p_tcb     is a pointer to the task to pend abort
 808:..\..\..\..\..\..\Software\uCOS-III\Source/os_task.c **** *
 809:..\..\..\..\..\..\Software\uCOS-III\Source/os_task.c **** *              opt       provides options for this function:
 810:..\..\..\..\..\..\Software\uCOS-III\Source/os_task.c **** *
 811:..\..\..\..\..\..\Software\uCOS-III\Source/os_task.c **** *                            OS_OPT_POST_NONE         No option specified
 812:..\..\..\..\..\..\Software\uCOS-III\Source/os_task.c **** *                            OS_OPT_POST_NO_SCHED     Indicates that the scheduler will not be call
 813:..\..\..\..\..\..\Software\uCOS-III\Source/os_task.c **** *
 814:..\..\..\..\..\..\Software\uCOS-III\Source/os_task.c **** *              p_err     is a pointer to a variable that will contain an error code returned by thi
 815:..\..\..\..\..\..\Software\uCOS-III\Source/os_task.c **** *
 816:..\..\..\..\..\..\Software\uCOS-III\Source/os_task.c **** *                            OS_ERR_NONE              If the task was readied and informed of the a
 817:..\..\..\..\..\..\Software\uCOS-III\Source/os_task.c **** *                            OS_ERR_PEND_ABORT_ISR    If you called this function from an ISR
 818:..\..\..\..\..\..\Software\uCOS-III\Source/os_task.c **** *                            OS_ERR_PEND_ABORT_NONE   If task was not pending on a message and thus
 819:..\..\..\..\..\..\Software\uCOS-III\Source/os_task.c **** *                                                     abort.
 820:..\..\..\..\..\..\Software\uCOS-III\Source/os_task.c **** *                            OS_ERR_PEND_ABORT_SELF   If you passed a NULL pointer for 'p_tcb'
 821:..\..\..\..\..\..\Software\uCOS-III\Source/os_task.c **** *
 822:..\..\..\..\..\..\Software\uCOS-III\Source/os_task.c **** * Returns    : == DEF_FALSE   if task was not waiting for a message, or upon error.
 823:..\..\..\..\..\..\Software\uCOS-III\Source/os_task.c **** *              == DEF_TRUE    if task was waiting for a message and was readied and informed.
 824:..\..\..\..\..\..\Software\uCOS-III\Source/os_task.c **** ***************************************************************************************************
 825:..\..\..\..\..\..\Software\uCOS-III\Source/os_task.c **** */
 826:..\..\..\..\..\..\Software\uCOS-III\Source/os_task.c **** 
 827:..\..\..\..\..\..\Software\uCOS-III\Source/os_task.c **** #if (OS_CFG_TASK_Q_EN > 0u) && (OS_CFG_TASK_Q_PEND_ABORT_EN > 0u)
 828:..\..\..\..\..\..\Software\uCOS-III\Source/os_task.c **** CPU_BOOLEAN  OSTaskQPendAbort (OS_TCB  *p_tcb,
 829:..\..\..\..\..\..\Software\uCOS-III\Source/os_task.c ****                                OS_OPT   opt,
 830:..\..\..\..\..\..\Software\uCOS-III\Source/os_task.c ****                                OS_ERR  *p_err)
 831:..\..\..\..\..\..\Software\uCOS-III\Source/os_task.c **** {
 832:..\..\..\..\..\..\Software\uCOS-III\Source/os_task.c ****     CPU_TS         ts;
 833:..\..\..\..\..\..\Software\uCOS-III\Source/os_task.c ****     CPU_SR_ALLOC();
 834:..\..\..\..\..\..\Software\uCOS-III\Source/os_task.c **** 
 835:..\..\..\..\..\..\Software\uCOS-III\Source/os_task.c **** 
 836:..\..\..\..\..\..\Software\uCOS-III\Source/os_task.c **** 
 837:..\..\..\..\..\..\Software\uCOS-III\Source/os_task.c **** #ifdef OS_SAFETY_CRITICAL
 838:..\..\..\..\..\..\Software\uCOS-III\Source/os_task.c ****     if (p_err == (OS_ERR *)0) {
 839:..\..\..\..\..\..\Software\uCOS-III\Source/os_task.c ****         OS_SAFETY_CRITICAL_EXCEPTION();
 840:..\..\..\..\..\..\Software\uCOS-III\Source/os_task.c ****         return (DEF_FALSE);
 841:..\..\..\..\..\..\Software\uCOS-III\Source/os_task.c ****     }
 842:..\..\..\..\..\..\Software\uCOS-III\Source/os_task.c **** #endif
 843:..\..\..\..\..\..\Software\uCOS-III\Source/os_task.c **** 
 844:..\..\..\..\..\..\Software\uCOS-III\Source/os_task.c **** #if OS_CFG_CALLED_FROM_ISR_CHK_EN > 0u
 845:..\..\..\..\..\..\Software\uCOS-III\Source/os_task.c ****     if (OSIntNestingCtr > (OS_NESTING_CTR)0) {              /* See if called from ISR ...          
 846:..\..\..\..\..\..\Software\uCOS-III\Source/os_task.c ****        *p_err = OS_ERR_PEND_ABORT_ISR;                      /* ... can't Pend Abort from an ISR    
 847:..\..\..\..\..\..\Software\uCOS-III\Source/os_task.c ****         return (DEF_FALSE);
 848:..\..\..\..\..\..\Software\uCOS-III\Source/os_task.c ****     }
 849:..\..\..\..\..\..\Software\uCOS-III\Source/os_task.c **** #endif
 850:..\..\..\..\..\..\Software\uCOS-III\Source/os_task.c **** 
 851:..\..\..\..\..\..\Software\uCOS-III\Source/os_task.c **** #if OS_CFG_ARG_CHK_EN > 0u                                  /* ---------------- VALIDATE ARGUMENTS 
 852:..\..\..\..\..\..\Software\uCOS-III\Source/os_task.c ****     switch (opt) {                                          /* User must supply a valid option     
 853:..\..\..\..\..\..\Software\uCOS-III\Source/os_task.c ****         case OS_OPT_POST_NONE:
 854:..\..\..\..\..\..\Software\uCOS-III\Source/os_task.c ****         case OS_OPT_POST_NO_SCHED:
 855:..\..\..\..\..\..\Software\uCOS-III\Source/os_task.c ****              break;
 856:..\..\..\..\..\..\Software\uCOS-III\Source/os_task.c **** 
 857:..\..\..\..\..\..\Software\uCOS-III\Source/os_task.c ****         default:
 858:..\..\..\..\..\..\Software\uCOS-III\Source/os_task.c ****             *p_err = OS_ERR_OPT_INVALID;
ARM GAS  C:\Users\EDULU~1.DES\AppData\Local\Temp\ccxcKTgR.s 			page 22


 859:..\..\..\..\..\..\Software\uCOS-III\Source/os_task.c ****              return (DEF_FALSE);
 860:..\..\..\..\..\..\Software\uCOS-III\Source/os_task.c ****     }
 861:..\..\..\..\..\..\Software\uCOS-III\Source/os_task.c **** #endif
 862:..\..\..\..\..\..\Software\uCOS-III\Source/os_task.c **** 
 863:..\..\..\..\..\..\Software\uCOS-III\Source/os_task.c ****     CPU_CRITICAL_ENTER();
 864:..\..\..\..\..\..\Software\uCOS-III\Source/os_task.c **** #if OS_CFG_ARG_CHK_EN > 0u
 865:..\..\..\..\..\..\Software\uCOS-III\Source/os_task.c ****     if ((p_tcb == (OS_TCB *)0) ||                           /* Pend abort self?                    
 866:..\..\..\..\..\..\Software\uCOS-III\Source/os_task.c ****         (p_tcb == OSTCBCurPtr)) {
 867:..\..\..\..\..\..\Software\uCOS-III\Source/os_task.c ****         CPU_CRITICAL_EXIT();
 868:..\..\..\..\..\..\Software\uCOS-III\Source/os_task.c ****        *p_err = OS_ERR_PEND_ABORT_SELF;                     /* ... doesn't make sense              
 869:..\..\..\..\..\..\Software\uCOS-III\Source/os_task.c ****         return (DEF_FALSE);
 870:..\..\..\..\..\..\Software\uCOS-III\Source/os_task.c ****     }
 871:..\..\..\..\..\..\Software\uCOS-III\Source/os_task.c **** #endif
 872:..\..\..\..\..\..\Software\uCOS-III\Source/os_task.c **** 
 873:..\..\..\..\..\..\Software\uCOS-III\Source/os_task.c ****     if (p_tcb->PendOn != OS_TASK_PEND_ON_TASK_Q) {          /* Is task waiting for a message?      
 874:..\..\..\..\..\..\Software\uCOS-III\Source/os_task.c ****         CPU_CRITICAL_EXIT();                                /* No                                  
 875:..\..\..\..\..\..\Software\uCOS-III\Source/os_task.c ****        *p_err = OS_ERR_PEND_ABORT_NONE;
 876:..\..\..\..\..\..\Software\uCOS-III\Source/os_task.c ****         return (DEF_FALSE);
 877:..\..\..\..\..\..\Software\uCOS-III\Source/os_task.c ****     }
 878:..\..\..\..\..\..\Software\uCOS-III\Source/os_task.c **** 
 879:..\..\..\..\..\..\Software\uCOS-III\Source/os_task.c ****     OS_CRITICAL_ENTER_CPU_EXIT();
 880:..\..\..\..\..\..\Software\uCOS-III\Source/os_task.c ****     ts = OS_TS_GET();                                       /* Get timestamp of when the abort occu
 881:..\..\..\..\..\..\Software\uCOS-III\Source/os_task.c ****     OS_PendAbort((OS_PEND_OBJ *)0,                          /* Abort the pend                      
 882:..\..\..\..\..\..\Software\uCOS-III\Source/os_task.c ****                  p_tcb,
 883:..\..\..\..\..\..\Software\uCOS-III\Source/os_task.c ****                  ts);
 884:..\..\..\..\..\..\Software\uCOS-III\Source/os_task.c ****     OS_CRITICAL_EXIT_NO_SCHED();
 885:..\..\..\..\..\..\Software\uCOS-III\Source/os_task.c ****     if ((opt & OS_OPT_POST_NO_SCHED) == (OS_OPT)0) {
 886:..\..\..\..\..\..\Software\uCOS-III\Source/os_task.c ****         OSSched();                                          /* Run the scheduler                   
 887:..\..\..\..\..\..\Software\uCOS-III\Source/os_task.c ****     }
 888:..\..\..\..\..\..\Software\uCOS-III\Source/os_task.c ****    *p_err = OS_ERR_NONE;
 889:..\..\..\..\..\..\Software\uCOS-III\Source/os_task.c ****     return (DEF_TRUE);
 890:..\..\..\..\..\..\Software\uCOS-III\Source/os_task.c **** }
 891:..\..\..\..\..\..\Software\uCOS-III\Source/os_task.c **** #endif
 892:..\..\..\..\..\..\Software\uCOS-III\Source/os_task.c **** 
 893:..\..\..\..\..\..\Software\uCOS-III\Source/os_task.c **** /*$PAGE*/
 894:..\..\..\..\..\..\Software\uCOS-III\Source/os_task.c **** /*
 895:..\..\..\..\..\..\Software\uCOS-III\Source/os_task.c **** ***************************************************************************************************
 896:..\..\..\..\..\..\Software\uCOS-III\Source/os_task.c **** *                                               POST MESSAGE TO A TASK
 897:..\..\..\..\..\..\Software\uCOS-III\Source/os_task.c **** *
 898:..\..\..\..\..\..\Software\uCOS-III\Source/os_task.c **** * Description: This function sends a message to a task
 899:..\..\..\..\..\..\Software\uCOS-III\Source/os_task.c **** *
 900:..\..\..\..\..\..\Software\uCOS-III\Source/os_task.c **** * Arguments  : p_tcb      is a pointer to the TCB of the task receiving a message.  If you specify 
 901:..\..\..\..\..\..\Software\uCOS-III\Source/os_task.c **** *                         the message will be posted to the task's queue of the calling task.  In o
 902:..\..\..\..\..\..\Software\uCOS-III\Source/os_task.c **** *                         posting a message to yourself.
 903:..\..\..\..\..\..\Software\uCOS-III\Source/os_task.c **** *
 904:..\..\..\..\..\..\Software\uCOS-III\Source/os_task.c **** *              p_void     is a pointer to the message to send.
 905:..\..\..\..\..\..\Software\uCOS-III\Source/os_task.c **** *
 906:..\..\..\..\..\..\Software\uCOS-III\Source/os_task.c **** *              msg_size   is the size of the message sent (in #bytes)
 907:..\..\..\..\..\..\Software\uCOS-III\Source/os_task.c **** *
 908:..\..\..\..\..\..\Software\uCOS-III\Source/os_task.c **** *              opt        specifies whether the post will be FIFO or LIFO:
 909:..\..\..\..\..\..\Software\uCOS-III\Source/os_task.c **** *
 910:..\..\..\..\..\..\Software\uCOS-III\Source/os_task.c **** *                             OS_OPT_POST_FIFO       Post at the end   of the queue
 911:..\..\..\..\..\..\Software\uCOS-III\Source/os_task.c **** *                             OS_OPT_POST_LIFO       Post at the front of the queue
 912:..\..\..\..\..\..\Software\uCOS-III\Source/os_task.c **** *
 913:..\..\..\..\..\..\Software\uCOS-III\Source/os_task.c **** *                             OS_OPT_POST_NO_SCHED   Do not run the scheduler after the post
 914:..\..\..\..\..\..\Software\uCOS-III\Source/os_task.c **** *
 915:..\..\..\..\..\..\Software\uCOS-III\Source/os_task.c **** *                          Note(s): 1) OS_OPT_POST_NO_SCHED can be added with one of the other opti
ARM GAS  C:\Users\EDULU~1.DES\AppData\Local\Temp\ccxcKTgR.s 			page 23


 916:..\..\..\..\..\..\Software\uCOS-III\Source/os_task.c **** *
 917:..\..\..\..\..\..\Software\uCOS-III\Source/os_task.c **** *
 918:..\..\..\..\..\..\Software\uCOS-III\Source/os_task.c **** *              p_err      is a pointer to a variable that will hold the error code associated
 919:..\..\..\..\..\..\Software\uCOS-III\Source/os_task.c **** *                         with the outcome of this call.  Errors can be:
 920:..\..\..\..\..\..\Software\uCOS-III\Source/os_task.c **** *
 921:..\..\..\..\..\..\Software\uCOS-III\Source/os_task.c **** *                             OS_ERR_NONE            The call was successful and the message was se
 922:..\..\..\..\..\..\Software\uCOS-III\Source/os_task.c **** *                             OS_ERR_Q_MAX           If the queue is full
 923:..\..\..\..\..\..\Software\uCOS-III\Source/os_task.c **** *                             OS_ERR_MSG_POOL_EMPTY  If there are no more OS_MSGs available from th
 924:..\..\..\..\..\..\Software\uCOS-III\Source/os_task.c **** *
 925:..\..\..\..\..\..\Software\uCOS-III\Source/os_task.c **** * Returns    : none
 926:..\..\..\..\..\..\Software\uCOS-III\Source/os_task.c **** ***************************************************************************************************
 927:..\..\..\..\..\..\Software\uCOS-III\Source/os_task.c **** */
 928:..\..\..\..\..\..\Software\uCOS-III\Source/os_task.c **** 
 929:..\..\..\..\..\..\Software\uCOS-III\Source/os_task.c **** #if OS_CFG_TASK_Q_EN > 0u
 930:..\..\..\..\..\..\Software\uCOS-III\Source/os_task.c **** void  OSTaskQPost (OS_TCB       *p_tcb,
 931:..\..\..\..\..\..\Software\uCOS-III\Source/os_task.c ****                    void         *p_void,
 932:..\..\..\..\..\..\Software\uCOS-III\Source/os_task.c ****                    OS_MSG_SIZE   msg_size,
 933:..\..\..\..\..\..\Software\uCOS-III\Source/os_task.c ****                    OS_OPT        opt,
 934:..\..\..\..\..\..\Software\uCOS-III\Source/os_task.c ****                    OS_ERR       *p_err)
 935:..\..\..\..\..\..\Software\uCOS-III\Source/os_task.c **** {
 936:..\..\..\..\..\..\Software\uCOS-III\Source/os_task.c ****     CPU_TS   ts;
 937:..\..\..\..\..\..\Software\uCOS-III\Source/os_task.c **** 
 938:..\..\..\..\..\..\Software\uCOS-III\Source/os_task.c **** 
 939:..\..\..\..\..\..\Software\uCOS-III\Source/os_task.c **** 
 940:..\..\..\..\..\..\Software\uCOS-III\Source/os_task.c **** #ifdef OS_SAFETY_CRITICAL
 941:..\..\..\..\..\..\Software\uCOS-III\Source/os_task.c ****     if (p_err == (OS_ERR *)0) {
 942:..\..\..\..\..\..\Software\uCOS-III\Source/os_task.c ****         OS_SAFETY_CRITICAL_EXCEPTION();
 943:..\..\..\..\..\..\Software\uCOS-III\Source/os_task.c ****         return;
 944:..\..\..\..\..\..\Software\uCOS-III\Source/os_task.c ****     }
 945:..\..\..\..\..\..\Software\uCOS-III\Source/os_task.c **** #endif
 946:..\..\..\..\..\..\Software\uCOS-III\Source/os_task.c **** 
 947:..\..\..\..\..\..\Software\uCOS-III\Source/os_task.c **** #if OS_CFG_ARG_CHK_EN > 0u                                  /* ---------------- VALIDATE ARGUMENTS 
 948:..\..\..\..\..\..\Software\uCOS-III\Source/os_task.c ****     switch (opt) {                                          /* User must supply a valid option     
 949:..\..\..\..\..\..\Software\uCOS-III\Source/os_task.c ****         case OS_OPT_POST_FIFO:
 950:..\..\..\..\..\..\Software\uCOS-III\Source/os_task.c ****         case OS_OPT_POST_LIFO:
 951:..\..\..\..\..\..\Software\uCOS-III\Source/os_task.c ****         case OS_OPT_POST_FIFO | OS_OPT_POST_NO_SCHED:
 952:..\..\..\..\..\..\Software\uCOS-III\Source/os_task.c ****         case OS_OPT_POST_LIFO | OS_OPT_POST_NO_SCHED:
 953:..\..\..\..\..\..\Software\uCOS-III\Source/os_task.c ****              break;
 954:..\..\..\..\..\..\Software\uCOS-III\Source/os_task.c **** 
 955:..\..\..\..\..\..\Software\uCOS-III\Source/os_task.c ****         default:
 956:..\..\..\..\..\..\Software\uCOS-III\Source/os_task.c ****             *p_err = OS_ERR_OPT_INVALID;
 957:..\..\..\..\..\..\Software\uCOS-III\Source/os_task.c ****              return;
 958:..\..\..\..\..\..\Software\uCOS-III\Source/os_task.c ****     }
 959:..\..\..\..\..\..\Software\uCOS-III\Source/os_task.c **** #endif
 960:..\..\..\..\..\..\Software\uCOS-III\Source/os_task.c **** 
 961:..\..\..\..\..\..\Software\uCOS-III\Source/os_task.c ****     ts = OS_TS_GET();                                       /* Get timestamp                       
 962:..\..\..\..\..\..\Software\uCOS-III\Source/os_task.c **** 
 963:..\..\..\..\..\..\Software\uCOS-III\Source/os_task.c **** #if OS_CFG_ISR_POST_DEFERRED_EN > 0u
 964:..\..\..\..\..\..\Software\uCOS-III\Source/os_task.c ****     if (OSIntNestingCtr > (OS_NESTING_CTR)0) {
 965:..\..\..\..\..\..\Software\uCOS-III\Source/os_task.c ****         OS_IntQPost((OS_OBJ_TYPE)OS_OBJ_TYPE_TASK_MSG,      /* Post to ISR queue                   
 966:..\..\..\..\..\..\Software\uCOS-III\Source/os_task.c ****                     (void      *)p_tcb,
 967:..\..\..\..\..\..\Software\uCOS-III\Source/os_task.c ****                     (void      *)p_void,
 968:..\..\..\..\..\..\Software\uCOS-III\Source/os_task.c ****                     (OS_MSG_SIZE)msg_size,
 969:..\..\..\..\..\..\Software\uCOS-III\Source/os_task.c ****                     (OS_FLAGS   )0,
 970:..\..\..\..\..\..\Software\uCOS-III\Source/os_task.c ****                     (OS_OPT     )opt,
 971:..\..\..\..\..\..\Software\uCOS-III\Source/os_task.c ****                     (CPU_TS     )ts,
 972:..\..\..\..\..\..\Software\uCOS-III\Source/os_task.c ****                     (OS_ERR    *)p_err);
ARM GAS  C:\Users\EDULU~1.DES\AppData\Local\Temp\ccxcKTgR.s 			page 24


 973:..\..\..\..\..\..\Software\uCOS-III\Source/os_task.c ****         return;
 974:..\..\..\..\..\..\Software\uCOS-III\Source/os_task.c ****     }
 975:..\..\..\..\..\..\Software\uCOS-III\Source/os_task.c **** #endif
 976:..\..\..\..\..\..\Software\uCOS-III\Source/os_task.c **** 
 977:..\..\..\..\..\..\Software\uCOS-III\Source/os_task.c ****     OS_TaskQPost(p_tcb,
 978:..\..\..\..\..\..\Software\uCOS-III\Source/os_task.c ****                  p_void,
 979:..\..\..\..\..\..\Software\uCOS-III\Source/os_task.c ****                  msg_size,
 980:..\..\..\..\..\..\Software\uCOS-III\Source/os_task.c ****                  opt,
 981:..\..\..\..\..\..\Software\uCOS-III\Source/os_task.c ****                  ts,
 982:..\..\..\..\..\..\Software\uCOS-III\Source/os_task.c ****                  p_err);
 983:..\..\..\..\..\..\Software\uCOS-III\Source/os_task.c **** }
 984:..\..\..\..\..\..\Software\uCOS-III\Source/os_task.c **** #endif
 985:..\..\..\..\..\..\Software\uCOS-III\Source/os_task.c **** 
 986:..\..\..\..\..\..\Software\uCOS-III\Source/os_task.c **** /*$PAGE*/
 987:..\..\..\..\..\..\Software\uCOS-III\Source/os_task.c **** /*
 988:..\..\..\..\..\..\Software\uCOS-III\Source/os_task.c **** ***************************************************************************************************
 989:..\..\..\..\..\..\Software\uCOS-III\Source/os_task.c **** *                                       GET THE CURRENT VALUE OF A TASK REGISTER
 990:..\..\..\..\..\..\Software\uCOS-III\Source/os_task.c **** *
 991:..\..\..\..\..\..\Software\uCOS-III\Source/os_task.c **** * Description: This function is called to obtain the current value of a task register.  Task regist
 992:..\..\..\..\..\..\Software\uCOS-III\Source/os_task.c **** *              specific and can be used to store task specific values such as 'error numbers' (i.e.
 993:..\..\..\..\..\..\Software\uCOS-III\Source/os_task.c **** *              etc.
 994:..\..\..\..\..\..\Software\uCOS-III\Source/os_task.c **** *
 995:..\..\..\..\..\..\Software\uCOS-III\Source/os_task.c **** * Arguments  : p_tcb     is a pointer to the OS_TCB of the task you want to read the register from.
 996:..\..\..\..\..\..\Software\uCOS-III\Source/os_task.c **** *                        NULL pointer then you will get the register of the current task.
 997:..\..\..\..\..\..\Software\uCOS-III\Source/os_task.c **** *
 998:..\..\..\..\..\..\Software\uCOS-III\Source/os_task.c **** *              id        is the 'id' of the desired task variable.  Note that the 'id' must be less
 999:..\..\..\..\..\..\Software\uCOS-III\Source/os_task.c **** *                        OS_CFG_TASK_REG_TBL_SIZE
1000:..\..\..\..\..\..\Software\uCOS-III\Source/os_task.c **** *
1001:..\..\..\..\..\..\Software\uCOS-III\Source/os_task.c **** *              p_err     is a pointer to a variable that will hold an error code related to this ca
1002:..\..\..\..\..\..\Software\uCOS-III\Source/os_task.c **** *
1003:..\..\..\..\..\..\Software\uCOS-III\Source/os_task.c **** *                            OS_ERR_NONE            if the call was successful
1004:..\..\..\..\..\..\Software\uCOS-III\Source/os_task.c **** *                            OS_ERR_REG_ID_INVALID  if the 'id' is not between 0 and OS_CFG_TASK_RE
1005:..\..\..\..\..\..\Software\uCOS-III\Source/os_task.c **** *
1006:..\..\..\..\..\..\Software\uCOS-III\Source/os_task.c **** * Returns    : The current value of the task's register or 0 if an error is detected.
1007:..\..\..\..\..\..\Software\uCOS-III\Source/os_task.c **** ***************************************************************************************************
1008:..\..\..\..\..\..\Software\uCOS-III\Source/os_task.c **** */
1009:..\..\..\..\..\..\Software\uCOS-III\Source/os_task.c **** 
1010:..\..\..\..\..\..\Software\uCOS-III\Source/os_task.c **** #if OS_CFG_TASK_REG_TBL_SIZE > 0u
1011:..\..\..\..\..\..\Software\uCOS-III\Source/os_task.c **** OS_REG  OSTaskRegGet (OS_TCB     *p_tcb,
1012:..\..\..\..\..\..\Software\uCOS-III\Source/os_task.c ****                       OS_REG_ID   id,
1013:..\..\..\..\..\..\Software\uCOS-III\Source/os_task.c ****                       OS_ERR     *p_err)
1014:..\..\..\..\..\..\Software\uCOS-III\Source/os_task.c **** {
 288              		.loc 1 1014 1 view -0
 289              		.cfi_startproc
 290              		@ args = 0, pretend = 0, frame = 0
 291              		@ frame_needed = 0, uses_anonymous_args = 0
 292              		.loc 1 1014 1 is_stmt 0 view .LVU75
 293 0000 F8B5     		push	{r3, r4, r5, r6, r7, lr}
 294              		.cfi_def_cfa_offset 24
 295              		.cfi_offset 3, -24
 296              		.cfi_offset 4, -20
 297              		.cfi_offset 5, -16
 298              		.cfi_offset 6, -12
 299              		.cfi_offset 7, -8
 300              		.cfi_offset 14, -4
 301 0002 0600     		movs	r6, r0
 302 0004 0C00     		movs	r4, r1
ARM GAS  C:\Users\EDULU~1.DES\AppData\Local\Temp\ccxcKTgR.s 			page 25


 303 0006 1700     		movs	r7, r2
1015:..\..\..\..\..\..\Software\uCOS-III\Source/os_task.c ****     OS_REG     value;
 304              		.loc 1 1015 5 is_stmt 1 view .LVU76
1016:..\..\..\..\..\..\Software\uCOS-III\Source/os_task.c ****     CPU_SR_ALLOC();
 305              		.loc 1 1016 5 view .LVU77
 306              	.LVL30:
1017:..\..\..\..\..\..\Software\uCOS-III\Source/os_task.c **** 
1018:..\..\..\..\..\..\Software\uCOS-III\Source/os_task.c **** 
1019:..\..\..\..\..\..\Software\uCOS-III\Source/os_task.c **** 
1020:..\..\..\..\..\..\Software\uCOS-III\Source/os_task.c **** #ifdef OS_SAFETY_CRITICAL
1021:..\..\..\..\..\..\Software\uCOS-III\Source/os_task.c ****     if (p_err == (OS_ERR *)0) {
1022:..\..\..\..\..\..\Software\uCOS-III\Source/os_task.c ****         OS_SAFETY_CRITICAL_EXCEPTION();
1023:..\..\..\..\..\..\Software\uCOS-III\Source/os_task.c ****         return ((OS_REG)0);
1024:..\..\..\..\..\..\Software\uCOS-III\Source/os_task.c ****     }
1025:..\..\..\..\..\..\Software\uCOS-III\Source/os_task.c **** #endif
1026:..\..\..\..\..\..\Software\uCOS-III\Source/os_task.c **** 
1027:..\..\..\..\..\..\Software\uCOS-III\Source/os_task.c **** #if OS_CFG_ARG_CHK_EN > 0u
1028:..\..\..\..\..\..\Software\uCOS-III\Source/os_task.c ****     if (id >= OS_CFG_TASK_REG_TBL_SIZE) {
 307              		.loc 1 1028 5 view .LVU78
 308              		.loc 1 1028 8 is_stmt 0 view .LVU79
 309 0008 0029     		cmp	r1, #0
 310 000a 04D0     		beq	.L24
1029:..\..\..\..\..\..\Software\uCOS-III\Source/os_task.c ****        *p_err = OS_ERR_REG_ID_INVALID;
 311              		.loc 1 1029 8 is_stmt 1 view .LVU80
 312              		.loc 1 1029 15 is_stmt 0 view .LVU81
 313 000c 0D4B     		ldr	r3, .L28
 314 000e 1380     		strh	r3, [r2]
1030:..\..\..\..\..\..\Software\uCOS-III\Source/os_task.c ****         return ((OS_REG)0);
 315              		.loc 1 1030 9 is_stmt 1 view .LVU82
 316              		.loc 1 1030 16 is_stmt 0 view .LVU83
 317 0010 0024     		movs	r4, #0
 318              	.LVL31:
 319              	.L23:
1031:..\..\..\..\..\..\Software\uCOS-III\Source/os_task.c ****     }
1032:..\..\..\..\..\..\Software\uCOS-III\Source/os_task.c **** #endif
1033:..\..\..\..\..\..\Software\uCOS-III\Source/os_task.c **** 
1034:..\..\..\..\..\..\Software\uCOS-III\Source/os_task.c ****     CPU_CRITICAL_ENTER();
1035:..\..\..\..\..\..\Software\uCOS-III\Source/os_task.c ****     if (p_tcb == (OS_TCB *)0) {
1036:..\..\..\..\..\..\Software\uCOS-III\Source/os_task.c ****         p_tcb = OSTCBCurPtr;
1037:..\..\..\..\..\..\Software\uCOS-III\Source/os_task.c ****     }
1038:..\..\..\..\..\..\Software\uCOS-III\Source/os_task.c ****     value = p_tcb->RegTbl[id];
1039:..\..\..\..\..\..\Software\uCOS-III\Source/os_task.c ****     CPU_CRITICAL_EXIT();
1040:..\..\..\..\..\..\Software\uCOS-III\Source/os_task.c ****    *p_err = OS_ERR_NONE;
1041:..\..\..\..\..\..\Software\uCOS-III\Source/os_task.c ****     return ((OS_REG)value);
1042:..\..\..\..\..\..\Software\uCOS-III\Source/os_task.c **** }
 320              		.loc 1 1042 1 view .LVU84
 321 0012 2000     		movs	r0, r4
 322              		@ sp needed
 323              	.LVL32:
 324              	.LVL33:
 325              		.loc 1 1042 1 view .LVU85
 326 0014 F8BD     		pop	{r3, r4, r5, r6, r7, pc}
 327              	.LVL34:
 328              	.L24:
1034:..\..\..\..\..\..\Software\uCOS-III\Source/os_task.c ****     if (p_tcb == (OS_TCB *)0) {
 329              		.loc 1 1034 5 is_stmt 1 view .LVU86
1034:..\..\..\..\..\..\Software\uCOS-III\Source/os_task.c ****     if (p_tcb == (OS_TCB *)0) {
ARM GAS  C:\Users\EDULU~1.DES\AppData\Local\Temp\ccxcKTgR.s 			page 26


 330              		.loc 1 1034 5 view .LVU87
1034:..\..\..\..\..\..\Software\uCOS-III\Source/os_task.c ****     if (p_tcb == (OS_TCB *)0) {
 331              		.loc 1 1034 5 view .LVU88
 332 0016 FFF7FEFF 		bl	CPU_SR_Save
 333              	.LVL35:
1034:..\..\..\..\..\..\Software\uCOS-III\Source/os_task.c ****     if (p_tcb == (OS_TCB *)0) {
 334              		.loc 1 1034 5 is_stmt 0 view .LVU89
 335 001a 0500     		movs	r5, r0
 336              	.LVL36:
1034:..\..\..\..\..\..\Software\uCOS-III\Source/os_task.c ****     if (p_tcb == (OS_TCB *)0) {
 337              		.loc 1 1034 5 is_stmt 1 view .LVU90
 338 001c FFF7FEFF 		bl	CPU_IntDisMeasStart
 339              	.LVL37:
1035:..\..\..\..\..\..\Software\uCOS-III\Source/os_task.c ****         p_tcb = OSTCBCurPtr;
 340              		.loc 1 1035 5 view .LVU91
1035:..\..\..\..\..\..\Software\uCOS-III\Source/os_task.c ****         p_tcb = OSTCBCurPtr;
 341              		.loc 1 1035 8 is_stmt 0 view .LVU92
 342 0020 002E     		cmp	r6, #0
 343 0022 0BD0     		beq	.L27
 344              	.L26:
1038:..\..\..\..\..\..\Software\uCOS-III\Source/os_task.c ****     CPU_CRITICAL_EXIT();
 345              		.loc 1 1038 5 is_stmt 1 view .LVU93
1038:..\..\..\..\..\..\Software\uCOS-III\Source/os_task.c ****     CPU_CRITICAL_EXIT();
 346              		.loc 1 1038 11 is_stmt 0 view .LVU94
 347 0024 1634     		adds	r4, r4, #22
 348 0026 A400     		lsls	r4, r4, #2
 349 0028 3419     		adds	r4, r6, r4
 350 002a 6468     		ldr	r4, [r4, #4]
 351              	.LVL38:
1039:..\..\..\..\..\..\Software\uCOS-III\Source/os_task.c ****    *p_err = OS_ERR_NONE;
 352              		.loc 1 1039 5 is_stmt 1 view .LVU95
1039:..\..\..\..\..\..\Software\uCOS-III\Source/os_task.c ****    *p_err = OS_ERR_NONE;
 353              		.loc 1 1039 5 view .LVU96
 354 002c FFF7FEFF 		bl	CPU_IntDisMeasStop
 355              	.LVL39:
1039:..\..\..\..\..\..\Software\uCOS-III\Source/os_task.c ****    *p_err = OS_ERR_NONE;
 356              		.loc 1 1039 5 view .LVU97
1039:..\..\..\..\..\..\Software\uCOS-III\Source/os_task.c ****    *p_err = OS_ERR_NONE;
 357              		.loc 1 1039 5 view .LVU98
 358 0030 2800     		movs	r0, r5
 359 0032 FFF7FEFF 		bl	CPU_SR_Restore
 360              	.LVL40:
1040:..\..\..\..\..\..\Software\uCOS-III\Source/os_task.c ****     return ((OS_REG)value);
 361              		.loc 1 1040 4 view .LVU99
1040:..\..\..\..\..\..\Software\uCOS-III\Source/os_task.c ****     return ((OS_REG)value);
 362              		.loc 1 1040 11 is_stmt 0 view .LVU100
 363 0036 0023     		movs	r3, #0
 364 0038 3B80     		strh	r3, [r7]
1041:..\..\..\..\..\..\Software\uCOS-III\Source/os_task.c **** }
 365              		.loc 1 1041 5 is_stmt 1 view .LVU101
1041:..\..\..\..\..\..\Software\uCOS-III\Source/os_task.c **** }
 366              		.loc 1 1041 13 is_stmt 0 view .LVU102
 367 003a EAE7     		b	.L23
 368              	.LVL41:
 369              	.L27:
1036:..\..\..\..\..\..\Software\uCOS-III\Source/os_task.c ****     }
 370              		.loc 1 1036 9 is_stmt 1 view .LVU103
ARM GAS  C:\Users\EDULU~1.DES\AppData\Local\Temp\ccxcKTgR.s 			page 27


1036:..\..\..\..\..\..\Software\uCOS-III\Source/os_task.c ****     }
 371              		.loc 1 1036 15 is_stmt 0 view .LVU104
 372 003c 024B     		ldr	r3, .L28+4
 373 003e 1E68     		ldr	r6, [r3]
 374              	.LVL42:
1036:..\..\..\..\..\..\Software\uCOS-III\Source/os_task.c ****     }
 375              		.loc 1 1036 15 view .LVU105
 376 0040 F0E7     		b	.L26
 377              	.L29:
 378 0042 C046     		.align	2
 379              	.L28:
 380 0044 79690000 		.word	27001
 381 0048 00000000 		.word	OSTCBCurPtr
 382              		.cfi_endproc
 383              	.LFE5:
 384              		.size	OSTaskRegGet, .-OSTaskRegGet
 385              		.section	.text.OSTaskRegGetID,"ax",%progbits
 386              		.align	1
 387              		.global	OSTaskRegGetID
 388              		.syntax unified
 389              		.code	16
 390              		.thumb_func
 391              		.fpu softvfp
 392              		.type	OSTaskRegGetID, %function
 393              	OSTaskRegGetID:
 394              	.LVL43:
 395              	.LFB6:
1043:..\..\..\..\..\..\Software\uCOS-III\Source/os_task.c **** #endif
1044:..\..\..\..\..\..\Software\uCOS-III\Source/os_task.c **** 
1045:..\..\..\..\..\..\Software\uCOS-III\Source/os_task.c **** /*$PAGE*/
1046:..\..\..\..\..\..\Software\uCOS-III\Source/os_task.c **** /*
1047:..\..\..\..\..\..\Software\uCOS-III\Source/os_task.c **** ***************************************************************************************************
1048:..\..\..\..\..\..\Software\uCOS-III\Source/os_task.c **** *                                    ALLOCATE THE NEXT AVAILABLE TASK REGISTER ID
1049:..\..\..\..\..\..\Software\uCOS-III\Source/os_task.c **** *
1050:..\..\..\..\..\..\Software\uCOS-III\Source/os_task.c **** * Description: This function is called to obtain a task register ID.  This function thus allows tas
1051:..\..\..\..\..\..\Software\uCOS-III\Source/os_task.c **** *              allocated dynamically instead of statically.
1052:..\..\..\..\..\..\Software\uCOS-III\Source/os_task.c **** *
1053:..\..\..\..\..\..\Software\uCOS-III\Source/os_task.c **** * Arguments  : p_err       is a pointer to a variable that will hold an error code related to this 
1054:..\..\..\..\..\..\Software\uCOS-III\Source/os_task.c **** *
1055:..\..\..\..\..\..\Software\uCOS-III\Source/os_task.c **** *                            OS_ERR_NONE               if the call was successful
1056:..\..\..\..\..\..\Software\uCOS-III\Source/os_task.c **** *                            OS_ERR_NO_MORE_ID_AVAIL   if you are attempting to assign more task re
1057:..\..\..\..\..\..\Software\uCOS-III\Source/os_task.c **** *                                                           have available through OS_CFG_TASK_REG_
1058:..\..\..\..\..\..\Software\uCOS-III\Source/os_task.c **** *
1059:..\..\..\..\..\..\Software\uCOS-III\Source/os_task.c **** * Returns    : The next available task register 'id' or OS_CFG_TASK_REG_TBL_SIZE if an error is det
1060:..\..\..\..\..\..\Software\uCOS-III\Source/os_task.c **** ***************************************************************************************************
1061:..\..\..\..\..\..\Software\uCOS-III\Source/os_task.c **** */
1062:..\..\..\..\..\..\Software\uCOS-III\Source/os_task.c **** 
1063:..\..\..\..\..\..\Software\uCOS-III\Source/os_task.c **** #if OS_CFG_TASK_REG_TBL_SIZE > 0u
1064:..\..\..\..\..\..\Software\uCOS-III\Source/os_task.c **** OS_REG_ID  OSTaskRegGetID (OS_ERR  *p_err)
1065:..\..\..\..\..\..\Software\uCOS-III\Source/os_task.c **** {
 396              		.loc 1 1065 1 is_stmt 1 view -0
 397              		.cfi_startproc
 398              		@ args = 0, pretend = 0, frame = 0
 399              		@ frame_needed = 0, uses_anonymous_args = 0
 400              		.loc 1 1065 1 is_stmt 0 view .LVU107
 401 0000 70B5     		push	{r4, r5, r6, lr}
 402              		.cfi_def_cfa_offset 16
ARM GAS  C:\Users\EDULU~1.DES\AppData\Local\Temp\ccxcKTgR.s 			page 28


 403              		.cfi_offset 4, -16
 404              		.cfi_offset 5, -12
 405              		.cfi_offset 6, -8
 406              		.cfi_offset 14, -4
 407 0002 0600     		movs	r6, r0
1066:..\..\..\..\..\..\Software\uCOS-III\Source/os_task.c ****     OS_REG_ID  id;
 408              		.loc 1 1066 5 is_stmt 1 view .LVU108
1067:..\..\..\..\..\..\Software\uCOS-III\Source/os_task.c ****     CPU_SR_ALLOC();
 409              		.loc 1 1067 5 view .LVU109
 410              	.LVL44:
1068:..\..\..\..\..\..\Software\uCOS-III\Source/os_task.c **** 
1069:..\..\..\..\..\..\Software\uCOS-III\Source/os_task.c **** 
1070:..\..\..\..\..\..\Software\uCOS-III\Source/os_task.c **** 
1071:..\..\..\..\..\..\Software\uCOS-III\Source/os_task.c **** #ifdef OS_SAFETY_CRITICAL
1072:..\..\..\..\..\..\Software\uCOS-III\Source/os_task.c ****     if (p_err == (OS_ERR *)0) {
1073:..\..\..\..\..\..\Software\uCOS-III\Source/os_task.c ****         OS_SAFETY_CRITICAL_EXCEPTION();
1074:..\..\..\..\..\..\Software\uCOS-III\Source/os_task.c ****         return ((OS_REG_ID)OS_CFG_TASK_REG_TBL_SIZE);
1075:..\..\..\..\..\..\Software\uCOS-III\Source/os_task.c ****     }
1076:..\..\..\..\..\..\Software\uCOS-III\Source/os_task.c **** #endif
1077:..\..\..\..\..\..\Software\uCOS-III\Source/os_task.c **** 
1078:..\..\..\..\..\..\Software\uCOS-III\Source/os_task.c ****     CPU_CRITICAL_ENTER();
 411              		.loc 1 1078 5 view .LVU110
 412              		.loc 1 1078 5 view .LVU111
 413              		.loc 1 1078 5 view .LVU112
 414 0004 FFF7FEFF 		bl	CPU_SR_Save
 415              	.LVL45:
 416              		.loc 1 1078 5 is_stmt 0 view .LVU113
 417 0008 0500     		movs	r5, r0
 418              	.LVL46:
 419              		.loc 1 1078 5 is_stmt 1 view .LVU114
 420 000a FFF7FEFF 		bl	CPU_IntDisMeasStart
 421              	.LVL47:
1079:..\..\..\..\..\..\Software\uCOS-III\Source/os_task.c ****     if (OSTaskRegNextAvailID >= OS_CFG_TASK_REG_TBL_SIZE) {       /* See if we exceeded the number 
 422              		.loc 1 1079 5 view .LVU115
 423              		.loc 1 1079 30 is_stmt 0 view .LVU116
 424 000e 0C4B     		ldr	r3, .L34
 425 0010 1C78     		ldrb	r4, [r3]
 426              		.loc 1 1079 8 view .LVU117
 427 0012 002C     		cmp	r4, #0
 428 0014 0BD1     		bne	.L33
1080:..\..\..\..\..\..\Software\uCOS-III\Source/os_task.c ****        *p_err = OS_ERR_NO_MORE_ID_AVAIL;                          /* Yes, cannot allocate more task
1081:..\..\..\..\..\..\Software\uCOS-III\Source/os_task.c ****         CPU_CRITICAL_EXIT();
1082:..\..\..\..\..\..\Software\uCOS-III\Source/os_task.c ****         return ((OS_REG_ID)OS_CFG_TASK_REG_TBL_SIZE);
1083:..\..\..\..\..\..\Software\uCOS-III\Source/os_task.c ****     }
1084:..\..\..\..\..\..\Software\uCOS-III\Source/os_task.c ****      
1085:..\..\..\..\..\..\Software\uCOS-III\Source/os_task.c ****     id    = OSTaskRegNextAvailID;								  /* Assign the next available ID                     */
 429              		.loc 1 1085 5 is_stmt 1 view .LVU118
 430              	.LVL48:
1086:..\..\..\..\..\..\Software\uCOS-III\Source/os_task.c ****     OSTaskRegNextAvailID++;										  /* Increment available ID for next request          */
 431              		.loc 1 1086 5 view .LVU119
 432              		.loc 1 1086 25 is_stmt 0 view .LVU120
 433 0016 631C     		adds	r3, r4, #1
 434 0018 094A     		ldr	r2, .L34
 435 001a 1370     		strb	r3, [r2]
1087:..\..\..\..\..\..\Software\uCOS-III\Source/os_task.c ****     CPU_CRITICAL_EXIT();
 436              		.loc 1 1087 5 is_stmt 1 view .LVU121
 437              		.loc 1 1087 5 view .LVU122
ARM GAS  C:\Users\EDULU~1.DES\AppData\Local\Temp\ccxcKTgR.s 			page 29


 438 001c FFF7FEFF 		bl	CPU_IntDisMeasStop
 439              	.LVL49:
 440              		.loc 1 1087 5 view .LVU123
 441              		.loc 1 1087 5 view .LVU124
 442 0020 2800     		movs	r0, r5
 443 0022 FFF7FEFF 		bl	CPU_SR_Restore
 444              	.LVL50:
1088:..\..\..\..\..\..\Software\uCOS-III\Source/os_task.c ****    *p_err = OS_ERR_NONE;
 445              		.loc 1 1088 4 view .LVU125
 446              		.loc 1 1088 11 is_stmt 0 view .LVU126
 447 0026 0023     		movs	r3, #0
 448 0028 3380     		strh	r3, [r6]
1089:..\..\..\..\..\..\Software\uCOS-III\Source/os_task.c ****     return (id);
 449              		.loc 1 1089 5 is_stmt 1 view .LVU127
 450              	.LVL51:
 451              	.L32:
1090:..\..\..\..\..\..\Software\uCOS-III\Source/os_task.c **** }
 452              		.loc 1 1090 1 is_stmt 0 view .LVU128
 453 002a 2000     		movs	r0, r4
 454              		@ sp needed
 455              	.LVL52:
 456              	.LVL53:
 457              		.loc 1 1090 1 view .LVU129
 458 002c 70BD     		pop	{r4, r5, r6, pc}
 459              	.LVL54:
 460              	.L33:
1080:..\..\..\..\..\..\Software\uCOS-III\Source/os_task.c ****         CPU_CRITICAL_EXIT();
 461              		.loc 1 1080 8 is_stmt 1 view .LVU130
1080:..\..\..\..\..\..\Software\uCOS-III\Source/os_task.c ****         CPU_CRITICAL_EXIT();
 462              		.loc 1 1080 15 is_stmt 0 view .LVU131
 463 002e 054B     		ldr	r3, .L34+4
 464 0030 3380     		strh	r3, [r6]
1081:..\..\..\..\..\..\Software\uCOS-III\Source/os_task.c ****         return ((OS_REG_ID)OS_CFG_TASK_REG_TBL_SIZE);
 465              		.loc 1 1081 9 is_stmt 1 view .LVU132
1081:..\..\..\..\..\..\Software\uCOS-III\Source/os_task.c ****         return ((OS_REG_ID)OS_CFG_TASK_REG_TBL_SIZE);
 466              		.loc 1 1081 9 view .LVU133
 467 0032 FFF7FEFF 		bl	CPU_IntDisMeasStop
 468              	.LVL55:
1081:..\..\..\..\..\..\Software\uCOS-III\Source/os_task.c ****         return ((OS_REG_ID)OS_CFG_TASK_REG_TBL_SIZE);
 469              		.loc 1 1081 9 view .LVU134
1081:..\..\..\..\..\..\Software\uCOS-III\Source/os_task.c ****         return ((OS_REG_ID)OS_CFG_TASK_REG_TBL_SIZE);
 470              		.loc 1 1081 9 view .LVU135
 471 0036 2800     		movs	r0, r5
 472 0038 FFF7FEFF 		bl	CPU_SR_Restore
 473              	.LVL56:
1082:..\..\..\..\..\..\Software\uCOS-III\Source/os_task.c ****     }
 474              		.loc 1 1082 9 view .LVU136
1082:..\..\..\..\..\..\Software\uCOS-III\Source/os_task.c ****     }
 475              		.loc 1 1082 16 is_stmt 0 view .LVU137
 476 003c 0124     		movs	r4, #1
 477 003e F4E7     		b	.L32
 478              	.L35:
 479              		.align	2
 480              	.L34:
 481 0040 00000000 		.word	OSTaskRegNextAvailID
 482 0044 DA590000 		.word	23002
 483              		.cfi_endproc
ARM GAS  C:\Users\EDULU~1.DES\AppData\Local\Temp\ccxcKTgR.s 			page 30


 484              	.LFE6:
 485              		.size	OSTaskRegGetID, .-OSTaskRegGetID
 486              		.section	.text.OSTaskRegSet,"ax",%progbits
 487              		.align	1
 488              		.global	OSTaskRegSet
 489              		.syntax unified
 490              		.code	16
 491              		.thumb_func
 492              		.fpu softvfp
 493              		.type	OSTaskRegSet, %function
 494              	OSTaskRegSet:
 495              	.LVL57:
 496              	.LFB7:
1091:..\..\..\..\..\..\Software\uCOS-III\Source/os_task.c **** #endif
1092:..\..\..\..\..\..\Software\uCOS-III\Source/os_task.c **** 
1093:..\..\..\..\..\..\Software\uCOS-III\Source/os_task.c **** /*$PAGE*/
1094:..\..\..\..\..\..\Software\uCOS-III\Source/os_task.c **** /*
1095:..\..\..\..\..\..\Software\uCOS-III\Source/os_task.c **** ***************************************************************************************************
1096:..\..\..\..\..\..\Software\uCOS-III\Source/os_task.c **** *                                       SET THE CURRENT VALUE OF A TASK REGISTER
1097:..\..\..\..\..\..\Software\uCOS-III\Source/os_task.c **** *
1098:..\..\..\..\..\..\Software\uCOS-III\Source/os_task.c **** * Description: This function is called to change the current value of a task register.  Task regist
1099:..\..\..\..\..\..\Software\uCOS-III\Source/os_task.c **** *              specific and can be used to store task specific values such as 'error numbers' (i.e.
1100:..\..\..\..\..\..\Software\uCOS-III\Source/os_task.c **** *              etc.
1101:..\..\..\..\..\..\Software\uCOS-III\Source/os_task.c **** *
1102:..\..\..\..\..\..\Software\uCOS-III\Source/os_task.c **** * Arguments  : p_tcb     is a pointer to the OS_TCB of the task you want to set the register for.  
1103:..\..\..\..\..\..\Software\uCOS-III\Source/os_task.c **** *                        pointer then you will change the register of the current task.
1104:..\..\..\..\..\..\Software\uCOS-III\Source/os_task.c **** *
1105:..\..\..\..\..\..\Software\uCOS-III\Source/os_task.c **** *              id        is the 'id' of the desired task register.  Note that the 'id' must be less
1106:..\..\..\..\..\..\Software\uCOS-III\Source/os_task.c **** *                        OS_CFG_TASK_REG_TBL_SIZE
1107:..\..\..\..\..\..\Software\uCOS-III\Source/os_task.c **** *
1108:..\..\..\..\..\..\Software\uCOS-III\Source/os_task.c **** *              value     is the desired value for the task register.
1109:..\..\..\..\..\..\Software\uCOS-III\Source/os_task.c **** *
1110:..\..\..\..\..\..\Software\uCOS-III\Source/os_task.c **** *              p_err     is a pointer to a variable that will hold an error code related to this ca
1111:..\..\..\..\..\..\Software\uCOS-III\Source/os_task.c **** *
1112:..\..\..\..\..\..\Software\uCOS-III\Source/os_task.c **** *                            OS_ERR_NONE            if the call was successful
1113:..\..\..\..\..\..\Software\uCOS-III\Source/os_task.c **** *                            OS_ERR_REG_ID_INVALID  if the 'id' is not between 0 and OS_CFG_TASK_RE
1114:..\..\..\..\..\..\Software\uCOS-III\Source/os_task.c **** *
1115:..\..\..\..\..\..\Software\uCOS-III\Source/os_task.c **** * Returns    : none
1116:..\..\..\..\..\..\Software\uCOS-III\Source/os_task.c **** ***************************************************************************************************
1117:..\..\..\..\..\..\Software\uCOS-III\Source/os_task.c **** */
1118:..\..\..\..\..\..\Software\uCOS-III\Source/os_task.c **** 
1119:..\..\..\..\..\..\Software\uCOS-III\Source/os_task.c **** #if OS_CFG_TASK_REG_TBL_SIZE > 0u
1120:..\..\..\..\..\..\Software\uCOS-III\Source/os_task.c **** void  OSTaskRegSet (OS_TCB     *p_tcb,
1121:..\..\..\..\..\..\Software\uCOS-III\Source/os_task.c ****                     OS_REG_ID   id,
1122:..\..\..\..\..\..\Software\uCOS-III\Source/os_task.c ****                     OS_REG      value,
1123:..\..\..\..\..\..\Software\uCOS-III\Source/os_task.c ****                     OS_ERR     *p_err)
1124:..\..\..\..\..\..\Software\uCOS-III\Source/os_task.c **** {
 497              		.loc 1 1124 1 is_stmt 1 view -0
 498              		.cfi_startproc
 499              		@ args = 0, pretend = 0, frame = 8
 500              		@ frame_needed = 0, uses_anonymous_args = 0
 501              		.loc 1 1124 1 is_stmt 0 view .LVU139
 502 0000 F0B5     		push	{r4, r5, r6, r7, lr}
 503              		.cfi_def_cfa_offset 20
 504              		.cfi_offset 4, -20
 505              		.cfi_offset 5, -16
 506              		.cfi_offset 6, -12
ARM GAS  C:\Users\EDULU~1.DES\AppData\Local\Temp\ccxcKTgR.s 			page 31


 507              		.cfi_offset 7, -8
 508              		.cfi_offset 14, -4
 509 0002 83B0     		sub	sp, sp, #12
 510              		.cfi_def_cfa_offset 32
 511 0004 0700     		movs	r7, r0
 512 0006 0C00     		movs	r4, r1
 513 0008 1500     		movs	r5, r2
 514 000a 1E00     		movs	r6, r3
1125:..\..\..\..\..\..\Software\uCOS-III\Source/os_task.c ****     CPU_SR_ALLOC();
 515              		.loc 1 1125 5 is_stmt 1 view .LVU140
 516              	.LVL58:
1126:..\..\..\..\..\..\Software\uCOS-III\Source/os_task.c **** 
1127:..\..\..\..\..\..\Software\uCOS-III\Source/os_task.c **** 
1128:..\..\..\..\..\..\Software\uCOS-III\Source/os_task.c **** 
1129:..\..\..\..\..\..\Software\uCOS-III\Source/os_task.c **** #ifdef OS_SAFETY_CRITICAL
1130:..\..\..\..\..\..\Software\uCOS-III\Source/os_task.c ****     if (p_err == (OS_ERR *)0) {
1131:..\..\..\..\..\..\Software\uCOS-III\Source/os_task.c ****         OS_SAFETY_CRITICAL_EXCEPTION();
1132:..\..\..\..\..\..\Software\uCOS-III\Source/os_task.c ****         return;
1133:..\..\..\..\..\..\Software\uCOS-III\Source/os_task.c ****     }
1134:..\..\..\..\..\..\Software\uCOS-III\Source/os_task.c **** #endif
1135:..\..\..\..\..\..\Software\uCOS-III\Source/os_task.c **** 
1136:..\..\..\..\..\..\Software\uCOS-III\Source/os_task.c **** #if OS_CFG_ARG_CHK_EN > 0u
1137:..\..\..\..\..\..\Software\uCOS-III\Source/os_task.c ****     if (id >= OS_CFG_TASK_REG_TBL_SIZE) {
 517              		.loc 1 1137 5 view .LVU141
 518              		.loc 1 1137 8 is_stmt 0 view .LVU142
 519 000c 0029     		cmp	r1, #0
 520 000e 03D0     		beq	.L37
1138:..\..\..\..\..\..\Software\uCOS-III\Source/os_task.c ****        *p_err = OS_ERR_REG_ID_INVALID;
 521              		.loc 1 1138 8 is_stmt 1 view .LVU143
 522              		.loc 1 1138 15 is_stmt 0 view .LVU144
 523 0010 0C4B     		ldr	r3, .L41
 524              	.LVL59:
 525              		.loc 1 1138 15 view .LVU145
 526 0012 3380     		strh	r3, [r6]
1139:..\..\..\..\..\..\Software\uCOS-III\Source/os_task.c ****         return;
 527              		.loc 1 1139 9 is_stmt 1 view .LVU146
 528              	.LVL60:
 529              	.L36:
1140:..\..\..\..\..\..\Software\uCOS-III\Source/os_task.c ****     }
1141:..\..\..\..\..\..\Software\uCOS-III\Source/os_task.c **** #endif
1142:..\..\..\..\..\..\Software\uCOS-III\Source/os_task.c **** 
1143:..\..\..\..\..\..\Software\uCOS-III\Source/os_task.c ****     CPU_CRITICAL_ENTER();
1144:..\..\..\..\..\..\Software\uCOS-III\Source/os_task.c ****     if (p_tcb == (OS_TCB *)0) {
1145:..\..\..\..\..\..\Software\uCOS-III\Source/os_task.c ****         p_tcb = OSTCBCurPtr;
1146:..\..\..\..\..\..\Software\uCOS-III\Source/os_task.c ****     }
1147:..\..\..\..\..\..\Software\uCOS-III\Source/os_task.c ****     p_tcb->RegTbl[id] = value;
1148:..\..\..\..\..\..\Software\uCOS-III\Source/os_task.c ****     CPU_CRITICAL_EXIT();
1149:..\..\..\..\..\..\Software\uCOS-III\Source/os_task.c ****    *p_err             = OS_ERR_NONE;
1150:..\..\..\..\..\..\Software\uCOS-III\Source/os_task.c **** }
 530              		.loc 1 1150 1 is_stmt 0 view .LVU147
 531 0014 03B0     		add	sp, sp, #12
 532              		@ sp needed
 533              	.LVL61:
 534              	.LVL62:
 535              	.LVL63:
 536              		.loc 1 1150 1 view .LVU148
 537 0016 F0BD     		pop	{r4, r5, r6, r7, pc}
ARM GAS  C:\Users\EDULU~1.DES\AppData\Local\Temp\ccxcKTgR.s 			page 32


 538              	.LVL64:
 539              	.L37:
1143:..\..\..\..\..\..\Software\uCOS-III\Source/os_task.c ****     if (p_tcb == (OS_TCB *)0) {
 540              		.loc 1 1143 5 is_stmt 1 view .LVU149
1143:..\..\..\..\..\..\Software\uCOS-III\Source/os_task.c ****     if (p_tcb == (OS_TCB *)0) {
 541              		.loc 1 1143 5 view .LVU150
1143:..\..\..\..\..\..\Software\uCOS-III\Source/os_task.c ****     if (p_tcb == (OS_TCB *)0) {
 542              		.loc 1 1143 5 view .LVU151
 543 0018 FFF7FEFF 		bl	CPU_SR_Save
 544              	.LVL65:
1143:..\..\..\..\..\..\Software\uCOS-III\Source/os_task.c ****     if (p_tcb == (OS_TCB *)0) {
 545              		.loc 1 1143 5 is_stmt 0 view .LVU152
 546 001c 0190     		str	r0, [sp, #4]
 547              	.LVL66:
1143:..\..\..\..\..\..\Software\uCOS-III\Source/os_task.c ****     if (p_tcb == (OS_TCB *)0) {
 548              		.loc 1 1143 5 is_stmt 1 view .LVU153
 549 001e FFF7FEFF 		bl	CPU_IntDisMeasStart
 550              	.LVL67:
1144:..\..\..\..\..\..\Software\uCOS-III\Source/os_task.c ****         p_tcb = OSTCBCurPtr;
 551              		.loc 1 1144 5 view .LVU154
1144:..\..\..\..\..\..\Software\uCOS-III\Source/os_task.c ****         p_tcb = OSTCBCurPtr;
 552              		.loc 1 1144 8 is_stmt 0 view .LVU155
 553 0022 002F     		cmp	r7, #0
 554 0024 0BD0     		beq	.L40
 555              	.L39:
1147:..\..\..\..\..\..\Software\uCOS-III\Source/os_task.c ****     CPU_CRITICAL_EXIT();
 556              		.loc 1 1147 5 is_stmt 1 view .LVU156
1147:..\..\..\..\..\..\Software\uCOS-III\Source/os_task.c ****     CPU_CRITICAL_EXIT();
 557              		.loc 1 1147 23 is_stmt 0 view .LVU157
 558 0026 1634     		adds	r4, r4, #22
 559 0028 A400     		lsls	r4, r4, #2
 560 002a 3C19     		adds	r4, r7, r4
 561 002c 6560     		str	r5, [r4, #4]
1148:..\..\..\..\..\..\Software\uCOS-III\Source/os_task.c ****    *p_err             = OS_ERR_NONE;
 562              		.loc 1 1148 5 is_stmt 1 view .LVU158
1148:..\..\..\..\..\..\Software\uCOS-III\Source/os_task.c ****    *p_err             = OS_ERR_NONE;
 563              		.loc 1 1148 5 view .LVU159
 564 002e FFF7FEFF 		bl	CPU_IntDisMeasStop
 565              	.LVL68:
1148:..\..\..\..\..\..\Software\uCOS-III\Source/os_task.c ****    *p_err             = OS_ERR_NONE;
 566              		.loc 1 1148 5 view .LVU160
1148:..\..\..\..\..\..\Software\uCOS-III\Source/os_task.c ****    *p_err             = OS_ERR_NONE;
 567              		.loc 1 1148 5 view .LVU161
 568 0032 0198     		ldr	r0, [sp, #4]
 569 0034 FFF7FEFF 		bl	CPU_SR_Restore
 570              	.LVL69:
1149:..\..\..\..\..\..\Software\uCOS-III\Source/os_task.c **** }
 571              		.loc 1 1149 4 view .LVU162
1149:..\..\..\..\..\..\Software\uCOS-III\Source/os_task.c **** }
 572              		.loc 1 1149 23 is_stmt 0 view .LVU163
 573 0038 0023     		movs	r3, #0
 574 003a 3380     		strh	r3, [r6]
 575 003c EAE7     		b	.L36
 576              	.L40:
1145:..\..\..\..\..\..\Software\uCOS-III\Source/os_task.c ****     }
 577              		.loc 1 1145 9 is_stmt 1 view .LVU164
1145:..\..\..\..\..\..\Software\uCOS-III\Source/os_task.c ****     }
ARM GAS  C:\Users\EDULU~1.DES\AppData\Local\Temp\ccxcKTgR.s 			page 33


 578              		.loc 1 1145 15 is_stmt 0 view .LVU165
 579 003e 024B     		ldr	r3, .L41+4
 580 0040 1F68     		ldr	r7, [r3]
 581              	.LVL70:
1145:..\..\..\..\..\..\Software\uCOS-III\Source/os_task.c ****     }
 582              		.loc 1 1145 15 view .LVU166
 583 0042 F0E7     		b	.L39
 584              	.L42:
 585              		.align	2
 586              	.L41:
 587 0044 79690000 		.word	27001
 588 0048 00000000 		.word	OSTCBCurPtr
 589              		.cfi_endproc
 590              	.LFE7:
 591              		.size	OSTaskRegSet, .-OSTaskRegSet
 592              		.section	.text.OSTaskSemPend,"ax",%progbits
 593              		.align	1
 594              		.global	OSTaskSemPend
 595              		.syntax unified
 596              		.code	16
 597              		.thumb_func
 598              		.fpu softvfp
 599              		.type	OSTaskSemPend, %function
 600              	OSTaskSemPend:
 601              	.LVL71:
 602              	.LFB9:
1151:..\..\..\..\..\..\Software\uCOS-III\Source/os_task.c **** #endif
1152:..\..\..\..\..\..\Software\uCOS-III\Source/os_task.c **** 
1153:..\..\..\..\..\..\Software\uCOS-III\Source/os_task.c **** /*$PAGE*/
1154:..\..\..\..\..\..\Software\uCOS-III\Source/os_task.c **** /*
1155:..\..\..\..\..\..\Software\uCOS-III\Source/os_task.c **** ***************************************************************************************************
1156:..\..\..\..\..\..\Software\uCOS-III\Source/os_task.c **** *                                               RESUME A SUSPENDED TASK
1157:..\..\..\..\..\..\Software\uCOS-III\Source/os_task.c **** *
1158:..\..\..\..\..\..\Software\uCOS-III\Source/os_task.c **** * Description: This function is called to resume a previously suspended task.  This is the only cal
1159:..\..\..\..\..\..\Software\uCOS-III\Source/os_task.c **** *              explicit task suspension.
1160:..\..\..\..\..\..\Software\uCOS-III\Source/os_task.c **** *
1161:..\..\..\..\..\..\Software\uCOS-III\Source/os_task.c **** * Arguments  : p_tcb      Is a pointer to the task's OS_TCB to resume
1162:..\..\..\..\..\..\Software\uCOS-III\Source/os_task.c **** *
1163:..\..\..\..\..\..\Software\uCOS-III\Source/os_task.c **** *              p_err      Is a pointer to a variable that will contain an error code returned by th
1164:..\..\..\..\..\..\Software\uCOS-III\Source/os_task.c **** *
1165:..\..\..\..\..\..\Software\uCOS-III\Source/os_task.c **** *                             OS_ERR_NONE                  if the requested task is resumed
1166:..\..\..\..\..\..\Software\uCOS-III\Source/os_task.c **** *                             OS_ERR_STATE_INVALID         if the task is in an invalid state
1167:..\..\..\..\..\..\Software\uCOS-III\Source/os_task.c **** *                             OS_ERR_TASK_RESUME_ISR       if you called this function from an ISR
1168:..\..\..\..\..\..\Software\uCOS-III\Source/os_task.c **** *                             OS_ERR_TASK_RESUME_SELF      You cannot resume 'self'
1169:..\..\..\..\..\..\Software\uCOS-III\Source/os_task.c **** *                             OS_ERR_TASK_NOT_SUSPENDED    if the task to resume has not been suspe
1170:..\..\..\..\..\..\Software\uCOS-III\Source/os_task.c **** *
1171:..\..\..\..\..\..\Software\uCOS-III\Source/os_task.c **** * Returns    : none
1172:..\..\..\..\..\..\Software\uCOS-III\Source/os_task.c **** ***************************************************************************************************
1173:..\..\..\..\..\..\Software\uCOS-III\Source/os_task.c **** */
1174:..\..\..\..\..\..\Software\uCOS-III\Source/os_task.c **** 
1175:..\..\..\..\..\..\Software\uCOS-III\Source/os_task.c **** #if OS_CFG_TASK_SUSPEND_EN > 0u
1176:..\..\..\..\..\..\Software\uCOS-III\Source/os_task.c **** void  OSTaskResume (OS_TCB  *p_tcb,
1177:..\..\..\..\..\..\Software\uCOS-III\Source/os_task.c ****                     OS_ERR  *p_err)
1178:..\..\..\..\..\..\Software\uCOS-III\Source/os_task.c **** {
1179:..\..\..\..\..\..\Software\uCOS-III\Source/os_task.c ****     CPU_SR_ALLOC();
1180:..\..\..\..\..\..\Software\uCOS-III\Source/os_task.c **** 
1181:..\..\..\..\..\..\Software\uCOS-III\Source/os_task.c **** 
ARM GAS  C:\Users\EDULU~1.DES\AppData\Local\Temp\ccxcKTgR.s 			page 34


1182:..\..\..\..\..\..\Software\uCOS-III\Source/os_task.c **** 
1183:..\..\..\..\..\..\Software\uCOS-III\Source/os_task.c **** #ifdef OS_SAFETY_CRITICAL
1184:..\..\..\..\..\..\Software\uCOS-III\Source/os_task.c ****     if (p_err == (OS_ERR *)0) {
1185:..\..\..\..\..\..\Software\uCOS-III\Source/os_task.c ****         OS_SAFETY_CRITICAL_EXCEPTION();
1186:..\..\..\..\..\..\Software\uCOS-III\Source/os_task.c ****         return;
1187:..\..\..\..\..\..\Software\uCOS-III\Source/os_task.c ****     }
1188:..\..\..\..\..\..\Software\uCOS-III\Source/os_task.c **** #endif
1189:..\..\..\..\..\..\Software\uCOS-III\Source/os_task.c **** 
1190:..\..\..\..\..\..\Software\uCOS-III\Source/os_task.c **** #if (OS_CFG_ISR_POST_DEFERRED_EN   == 0u) && \
1191:..\..\..\..\..\..\Software\uCOS-III\Source/os_task.c ****     (OS_CFG_CALLED_FROM_ISR_CHK_EN >  0u)
1192:..\..\..\..\..\..\Software\uCOS-III\Source/os_task.c ****     if (OSIntNestingCtr > (OS_NESTING_CTR)0) {              /* Not allowed to call from an ISR     
1193:..\..\..\..\..\..\Software\uCOS-III\Source/os_task.c ****        *p_err = OS_ERR_TASK_RESUME_ISR;
1194:..\..\..\..\..\..\Software\uCOS-III\Source/os_task.c ****         return;
1195:..\..\..\..\..\..\Software\uCOS-III\Source/os_task.c ****     }
1196:..\..\..\..\..\..\Software\uCOS-III\Source/os_task.c **** #endif
1197:..\..\..\..\..\..\Software\uCOS-III\Source/os_task.c **** 
1198:..\..\..\..\..\..\Software\uCOS-III\Source/os_task.c **** 
1199:..\..\..\..\..\..\Software\uCOS-III\Source/os_task.c ****     CPU_CRITICAL_ENTER();
1200:..\..\..\..\..\..\Software\uCOS-III\Source/os_task.c **** #if OS_CFG_ARG_CHK_EN > 0u
1201:..\..\..\..\..\..\Software\uCOS-III\Source/os_task.c ****     if ((p_tcb == (OS_TCB *)0) ||                           /* We cannot resume 'self'             
1202:..\..\..\..\..\..\Software\uCOS-III\Source/os_task.c ****         (p_tcb == OSTCBCurPtr)) {
1203:..\..\..\..\..\..\Software\uCOS-III\Source/os_task.c ****         CPU_CRITICAL_EXIT();
1204:..\..\..\..\..\..\Software\uCOS-III\Source/os_task.c ****        *p_err  = OS_ERR_TASK_RESUME_SELF;
1205:..\..\..\..\..\..\Software\uCOS-III\Source/os_task.c ****         return;
1206:..\..\..\..\..\..\Software\uCOS-III\Source/os_task.c ****     }
1207:..\..\..\..\..\..\Software\uCOS-III\Source/os_task.c **** #endif
1208:..\..\..\..\..\..\Software\uCOS-III\Source/os_task.c ****     CPU_CRITICAL_EXIT();
1209:..\..\..\..\..\..\Software\uCOS-III\Source/os_task.c **** 
1210:..\..\..\..\..\..\Software\uCOS-III\Source/os_task.c **** #if OS_CFG_ISR_POST_DEFERRED_EN > 0u
1211:..\..\..\..\..\..\Software\uCOS-III\Source/os_task.c ****     if (OSIntNestingCtr > (OS_NESTING_CTR)0) {              /* See if called from an ISR           
1212:..\..\..\..\..\..\Software\uCOS-III\Source/os_task.c ****         OS_IntQPost((OS_OBJ_TYPE)OS_OBJ_TYPE_TASK_RESUME,   /* Post to ISR queue                   
1213:..\..\..\..\..\..\Software\uCOS-III\Source/os_task.c ****                     (void      *)p_tcb,
1214:..\..\..\..\..\..\Software\uCOS-III\Source/os_task.c ****                     (void      *)0,
1215:..\..\..\..\..\..\Software\uCOS-III\Source/os_task.c ****                     (OS_MSG_SIZE)0,
1216:..\..\..\..\..\..\Software\uCOS-III\Source/os_task.c ****                     (OS_FLAGS   )0,
1217:..\..\..\..\..\..\Software\uCOS-III\Source/os_task.c ****                     (OS_OPT     )0,
1218:..\..\..\..\..\..\Software\uCOS-III\Source/os_task.c ****                     (CPU_TS     )0,
1219:..\..\..\..\..\..\Software\uCOS-III\Source/os_task.c ****                     (OS_ERR    *)p_err);
1220:..\..\..\..\..\..\Software\uCOS-III\Source/os_task.c ****         return;
1221:..\..\..\..\..\..\Software\uCOS-III\Source/os_task.c ****     }
1222:..\..\..\..\..\..\Software\uCOS-III\Source/os_task.c **** #endif
1223:..\..\..\..\..\..\Software\uCOS-III\Source/os_task.c **** 
1224:..\..\..\..\..\..\Software\uCOS-III\Source/os_task.c ****     OS_TaskResume(p_tcb, p_err);
1225:..\..\..\..\..\..\Software\uCOS-III\Source/os_task.c **** }
1226:..\..\..\..\..\..\Software\uCOS-III\Source/os_task.c **** #endif
1227:..\..\..\..\..\..\Software\uCOS-III\Source/os_task.c **** 
1228:..\..\..\..\..\..\Software\uCOS-III\Source/os_task.c **** /*$PAGE*/
1229:..\..\..\..\..\..\Software\uCOS-III\Source/os_task.c **** /*
1230:..\..\..\..\..\..\Software\uCOS-III\Source/os_task.c **** ***************************************************************************************************
1231:..\..\..\..\..\..\Software\uCOS-III\Source/os_task.c **** *                                              WAIT FOR A TASK SEMAPHORE
1232:..\..\..\..\..\..\Software\uCOS-III\Source/os_task.c **** *
1233:..\..\..\..\..\..\Software\uCOS-III\Source/os_task.c **** * Description: This function is called to block the current task until a signal is sent by another 
1234:..\..\..\..\..\..\Software\uCOS-III\Source/os_task.c **** *
1235:..\..\..\..\..\..\Software\uCOS-III\Source/os_task.c **** * Arguments  : timeout       is the amount of time you are will to wait for the signal
1236:..\..\..\..\..\..\Software\uCOS-III\Source/os_task.c **** *
1237:..\..\..\..\..\..\Software\uCOS-III\Source/os_task.c **** *              opt           determines whether the user wants to block if a semaphore post was not
1238:..\..\..\..\..\..\Software\uCOS-III\Source/os_task.c **** *
ARM GAS  C:\Users\EDULU~1.DES\AppData\Local\Temp\ccxcKTgR.s 			page 35


1239:..\..\..\..\..\..\Software\uCOS-III\Source/os_task.c **** *                                OS_OPT_PEND_BLOCKING
1240:..\..\..\..\..\..\Software\uCOS-III\Source/os_task.c **** *                                OS_OPT_PEND_NON_BLOCKING
1241:..\..\..\..\..\..\Software\uCOS-III\Source/os_task.c **** *
1242:..\..\..\..\..\..\Software\uCOS-III\Source/os_task.c **** *              p_ts          is a pointer to a variable that will receive the timestamp of when the
1243:..\..\..\..\..\..\Software\uCOS-III\Source/os_task.c **** *                            or pend aborted.  If you pass a NULL pointer (i.e. (CPU_TS *)0) then y
1244:..\..\..\..\..\..\Software\uCOS-III\Source/os_task.c **** *                            timestamp.  In other words, passing a NULL pointer is valid and indica
1245:..\..\..\..\..\..\Software\uCOS-III\Source/os_task.c **** *                            need the timestamp.
1246:..\..\..\..\..\..\Software\uCOS-III\Source/os_task.c **** *
1247:..\..\..\..\..\..\Software\uCOS-III\Source/os_task.c **** *              p_err         is a pointer to an error code that will be set by this function
1248:..\..\..\..\..\..\Software\uCOS-III\Source/os_task.c **** *
1249:..\..\..\..\..\..\Software\uCOS-III\Source/os_task.c **** *                                OS_ERR_NONE               The call was successful and your task re
1250:..\..\..\..\..\..\Software\uCOS-III\Source/os_task.c **** *                                OS_ERR_PEND_ABORT
1251:..\..\..\..\..\..\Software\uCOS-III\Source/os_task.c **** *                                OS_ERR_PEND_ISR           If you called this function from an ISR 
1252:..\..\..\..\..\..\Software\uCOS-III\Source/os_task.c **** *                                OS_ERR_PEND_WOULD_BLOCK   If you specified non-blocking but no sig
1253:..\..\..\..\..\..\Software\uCOS-III\Source/os_task.c **** *                                OS_ERR_SCHED_LOCKED       If the scheduler is locked
1254:..\..\..\..\..\..\Software\uCOS-III\Source/os_task.c **** *                                OS_ERR_STATUS_INVALID     If the pend status is invalid
1255:..\..\..\..\..\..\Software\uCOS-III\Source/os_task.c **** *                                OS_ERR_TIMEOUT            A message was not received within the sp
1256:..\..\..\..\..\..\Software\uCOS-III\Source/os_task.c **** *                                                          would lead to a suspension.
1257:..\..\..\..\..\..\Software\uCOS-III\Source/os_task.c **** *
1258:..\..\..\..\..\..\Software\uCOS-III\Source/os_task.c **** * Returns    : The current count of signals the task received, 0 if none.
1259:..\..\..\..\..\..\Software\uCOS-III\Source/os_task.c **** ***************************************************************************************************
1260:..\..\..\..\..\..\Software\uCOS-III\Source/os_task.c **** */
1261:..\..\..\..\..\..\Software\uCOS-III\Source/os_task.c **** 
1262:..\..\..\..\..\..\Software\uCOS-III\Source/os_task.c **** OS_SEM_CTR  OSTaskSemPend (OS_TICK   timeout,
1263:..\..\..\..\..\..\Software\uCOS-III\Source/os_task.c ****                            OS_OPT    opt,
1264:..\..\..\..\..\..\Software\uCOS-III\Source/os_task.c ****                            CPU_TS   *p_ts,
1265:..\..\..\..\..\..\Software\uCOS-III\Source/os_task.c ****                            OS_ERR   *p_err)
1266:..\..\..\..\..\..\Software\uCOS-III\Source/os_task.c **** {
 603              		.loc 1 1266 1 is_stmt 1 view -0
 604              		.cfi_startproc
 605              		@ args = 0, pretend = 0, frame = 8
 606              		@ frame_needed = 0, uses_anonymous_args = 0
 607              		.loc 1 1266 1 is_stmt 0 view .LVU168
 608 0000 F0B5     		push	{r4, r5, r6, r7, lr}
 609              		.cfi_def_cfa_offset 20
 610              		.cfi_offset 4, -20
 611              		.cfi_offset 5, -16
 612              		.cfi_offset 6, -12
 613              		.cfi_offset 7, -8
 614              		.cfi_offset 14, -4
 615 0002 83B0     		sub	sp, sp, #12
 616              		.cfi_def_cfa_offset 32
 617 0004 0090     		str	r0, [sp]
 618 0006 0C00     		movs	r4, r1
 619 0008 1500     		movs	r5, r2
 620 000a 1E00     		movs	r6, r3
1267:..\..\..\..\..\..\Software\uCOS-III\Source/os_task.c ****     OS_SEM_CTR    ctr;
 621              		.loc 1 1267 5 is_stmt 1 view .LVU169
1268:..\..\..\..\..\..\Software\uCOS-III\Source/os_task.c ****     CPU_SR_ALLOC();
 622              		.loc 1 1268 5 view .LVU170
 623              	.LVL72:
1269:..\..\..\..\..\..\Software\uCOS-III\Source/os_task.c **** 
1270:..\..\..\..\..\..\Software\uCOS-III\Source/os_task.c **** 
1271:..\..\..\..\..\..\Software\uCOS-III\Source/os_task.c **** 
1272:..\..\..\..\..\..\Software\uCOS-III\Source/os_task.c **** #ifdef OS_SAFETY_CRITICAL
1273:..\..\..\..\..\..\Software\uCOS-III\Source/os_task.c ****     if (p_err == (OS_ERR *)0) {
1274:..\..\..\..\..\..\Software\uCOS-III\Source/os_task.c ****         OS_SAFETY_CRITICAL_EXCEPTION();
ARM GAS  C:\Users\EDULU~1.DES\AppData\Local\Temp\ccxcKTgR.s 			page 36


1275:..\..\..\..\..\..\Software\uCOS-III\Source/os_task.c ****         return ((OS_SEM_CTR)0);
1276:..\..\..\..\..\..\Software\uCOS-III\Source/os_task.c ****     }
1277:..\..\..\..\..\..\Software\uCOS-III\Source/os_task.c **** #endif
1278:..\..\..\..\..\..\Software\uCOS-III\Source/os_task.c **** 
1279:..\..\..\..\..\..\Software\uCOS-III\Source/os_task.c **** #if OS_CFG_CALLED_FROM_ISR_CHK_EN > 0u
1280:..\..\..\..\..\..\Software\uCOS-III\Source/os_task.c ****     if (OSIntNestingCtr > (OS_NESTING_CTR)0) {              /* Not allowed to call from an ISR     
 624              		.loc 1 1280 5 view .LVU171
 625              		.loc 1 1280 25 is_stmt 0 view .LVU172
 626 000c 414B     		ldr	r3, .L65
 627              	.LVL73:
 628              		.loc 1 1280 25 view .LVU173
 629 000e 1B78     		ldrb	r3, [r3]
 630              		.loc 1 1280 8 view .LVU174
 631 0010 002B     		cmp	r3, #0
 632 0012 09D1     		bne	.L61
1281:..\..\..\..\..\..\Software\uCOS-III\Source/os_task.c ****        *p_err = OS_ERR_PEND_ISR;
1282:..\..\..\..\..\..\Software\uCOS-III\Source/os_task.c ****         return ((OS_SEM_CTR)0);
1283:..\..\..\..\..\..\Software\uCOS-III\Source/os_task.c ****     }
1284:..\..\..\..\..\..\Software\uCOS-III\Source/os_task.c **** #endif
1285:..\..\..\..\..\..\Software\uCOS-III\Source/os_task.c **** 
1286:..\..\..\..\..\..\Software\uCOS-III\Source/os_task.c **** #if OS_CFG_ARG_CHK_EN > 0u
1287:..\..\..\..\..\..\Software\uCOS-III\Source/os_task.c ****     switch (opt) {                                          /* Validate 'opt'                      
 633              		.loc 1 1287 5 is_stmt 1 view .LVU175
 634 0014 0029     		cmp	r1, #0
 635 0016 0DD0     		beq	.L46
 636 0018 8023     		movs	r3, #128
 637 001a 1B02     		lsls	r3, r3, #8
 638 001c 9942     		cmp	r1, r3
 639 001e 09D0     		beq	.L46
1288:..\..\..\..\..\..\Software\uCOS-III\Source/os_task.c ****         case OS_OPT_PEND_BLOCKING:
1289:..\..\..\..\..\..\Software\uCOS-III\Source/os_task.c ****         case OS_OPT_PEND_NON_BLOCKING:
1290:..\..\..\..\..\..\Software\uCOS-III\Source/os_task.c ****              break;
1291:..\..\..\..\..\..\Software\uCOS-III\Source/os_task.c **** 
1292:..\..\..\..\..\..\Software\uCOS-III\Source/os_task.c ****         default:
1293:..\..\..\..\..\..\Software\uCOS-III\Source/os_task.c ****             *p_err = OS_ERR_OPT_INVALID;
 640              		.loc 1 1293 13 view .LVU176
 641              		.loc 1 1293 20 is_stmt 0 view .LVU177
 642 0020 3D4B     		ldr	r3, .L65+4
 643 0022 3380     		strh	r3, [r6]
1294:..\..\..\..\..\..\Software\uCOS-III\Source/os_task.c ****              return ((OS_SEM_CTR)0);
 644              		.loc 1 1294 14 is_stmt 1 view .LVU178
 645              		.loc 1 1294 21 is_stmt 0 view .LVU179
 646 0024 0027     		movs	r7, #0
 647 0026 02E0     		b	.L43
 648              	.L61:
1281:..\..\..\..\..\..\Software\uCOS-III\Source/os_task.c ****        *p_err = OS_ERR_PEND_ISR;
 649              		.loc 1 1281 8 is_stmt 1 view .LVU180
1281:..\..\..\..\..\..\Software\uCOS-III\Source/os_task.c ****        *p_err = OS_ERR_PEND_ISR;
 650              		.loc 1 1281 15 is_stmt 0 view .LVU181
 651 0028 3C4B     		ldr	r3, .L65+8
 652 002a 3380     		strh	r3, [r6]
1282:..\..\..\..\..\..\Software\uCOS-III\Source/os_task.c ****     }
 653              		.loc 1 1282 9 is_stmt 1 view .LVU182
1282:..\..\..\..\..\..\Software\uCOS-III\Source/os_task.c ****     }
 654              		.loc 1 1282 16 is_stmt 0 view .LVU183
 655 002c 0027     		movs	r7, #0
 656              	.LVL74:
ARM GAS  C:\Users\EDULU~1.DES\AppData\Local\Temp\ccxcKTgR.s 			page 37


 657              	.L43:
1295:..\..\..\..\..\..\Software\uCOS-III\Source/os_task.c ****     }
1296:..\..\..\..\..\..\Software\uCOS-III\Source/os_task.c **** #endif
1297:..\..\..\..\..\..\Software\uCOS-III\Source/os_task.c **** 
1298:..\..\..\..\..\..\Software\uCOS-III\Source/os_task.c ****     if (p_ts != (CPU_TS *)0) {
1299:..\..\..\..\..\..\Software\uCOS-III\Source/os_task.c ****        *p_ts  = (CPU_TS  )0;                                /* Initialize the returned timestamp   
1300:..\..\..\..\..\..\Software\uCOS-III\Source/os_task.c ****     }
1301:..\..\..\..\..\..\Software\uCOS-III\Source/os_task.c **** 
1302:..\..\..\..\..\..\Software\uCOS-III\Source/os_task.c ****     CPU_CRITICAL_ENTER();
1303:..\..\..\..\..\..\Software\uCOS-III\Source/os_task.c ****     if (OSTCBCurPtr->SemCtr > (OS_SEM_CTR)0) {              /* See if task already been signaled   
1304:..\..\..\..\..\..\Software\uCOS-III\Source/os_task.c ****         OSTCBCurPtr->SemCtr--;
1305:..\..\..\..\..\..\Software\uCOS-III\Source/os_task.c ****         ctr    = OSTCBCurPtr->SemCtr;
1306:..\..\..\..\..\..\Software\uCOS-III\Source/os_task.c ****         if (p_ts != (CPU_TS *)0) {
1307:..\..\..\..\..\..\Software\uCOS-III\Source/os_task.c ****            *p_ts  = OSTCBCurPtr->TS;
1308:..\..\..\..\..\..\Software\uCOS-III\Source/os_task.c ****         }
1309:..\..\..\..\..\..\Software\uCOS-III\Source/os_task.c **** #if OS_CFG_TASK_PROFILE_EN > 0u
1310:..\..\..\..\..\..\Software\uCOS-III\Source/os_task.c ****         OSTCBCurPtr->SemPendTime = OS_TS_GET() - OSTCBCurPtr->TS;
1311:..\..\..\..\..\..\Software\uCOS-III\Source/os_task.c ****         if (OSTCBCurPtr->SemPendTimeMax < OSTCBCurPtr->SemPendTime) {
1312:..\..\..\..\..\..\Software\uCOS-III\Source/os_task.c ****             OSTCBCurPtr->SemPendTimeMax = OSTCBCurPtr->SemPendTime;
1313:..\..\..\..\..\..\Software\uCOS-III\Source/os_task.c ****         }
1314:..\..\..\..\..\..\Software\uCOS-III\Source/os_task.c **** #endif
1315:..\..\..\..\..\..\Software\uCOS-III\Source/os_task.c ****         CPU_CRITICAL_EXIT();
1316:..\..\..\..\..\..\Software\uCOS-III\Source/os_task.c ****        *p_err = OS_ERR_NONE;
1317:..\..\..\..\..\..\Software\uCOS-III\Source/os_task.c ****         return (ctr);
1318:..\..\..\..\..\..\Software\uCOS-III\Source/os_task.c ****     }
1319:..\..\..\..\..\..\Software\uCOS-III\Source/os_task.c **** 
1320:..\..\..\..\..\..\Software\uCOS-III\Source/os_task.c ****     if ((opt & OS_OPT_PEND_NON_BLOCKING) != (OS_OPT)0) {    /* Caller wants to block if not availab
1321:..\..\..\..\..\..\Software\uCOS-III\Source/os_task.c ****         CPU_CRITICAL_EXIT();
1322:..\..\..\..\..\..\Software\uCOS-III\Source/os_task.c ****        *p_err = OS_ERR_PEND_WOULD_BLOCK;                    /* No                                  
1323:..\..\..\..\..\..\Software\uCOS-III\Source/os_task.c ****         return ((OS_SEM_CTR)0);
1324:..\..\..\..\..\..\Software\uCOS-III\Source/os_task.c ****     } else {                                                /* Yes                                 
1325:..\..\..\..\..\..\Software\uCOS-III\Source/os_task.c ****         if (OSSchedLockNestingCtr > (OS_NESTING_CTR)0) {    /* Can't pend when the scheduler is loc
1326:..\..\..\..\..\..\Software\uCOS-III\Source/os_task.c ****             CPU_CRITICAL_EXIT();
1327:..\..\..\..\..\..\Software\uCOS-III\Source/os_task.c ****            *p_err = OS_ERR_SCHED_LOCKED;
1328:..\..\..\..\..\..\Software\uCOS-III\Source/os_task.c ****             return ((OS_SEM_CTR)0);
1329:..\..\..\..\..\..\Software\uCOS-III\Source/os_task.c ****         }
1330:..\..\..\..\..\..\Software\uCOS-III\Source/os_task.c ****     }
1331:..\..\..\..\..\..\Software\uCOS-III\Source/os_task.c ****                                                             /* Lock the scheduler/re-enable interru
1332:..\..\..\..\..\..\Software\uCOS-III\Source/os_task.c ****     OS_CRITICAL_ENTER_CPU_EXIT();                           
1333:..\..\..\..\..\..\Software\uCOS-III\Source/os_task.c ****     OS_Pend((OS_PEND_DATA *)0,                              /* Block task pending on Signal        
1334:..\..\..\..\..\..\Software\uCOS-III\Source/os_task.c ****             (OS_PEND_OBJ  *)0,
1335:..\..\..\..\..\..\Software\uCOS-III\Source/os_task.c ****             (OS_STATE      )OS_TASK_PEND_ON_TASK_SEM,
1336:..\..\..\..\..\..\Software\uCOS-III\Source/os_task.c ****             (OS_TICK       )timeout);
1337:..\..\..\..\..\..\Software\uCOS-III\Source/os_task.c ****     OS_CRITICAL_EXIT_NO_SCHED();
1338:..\..\..\..\..\..\Software\uCOS-III\Source/os_task.c **** 
1339:..\..\..\..\..\..\Software\uCOS-III\Source/os_task.c ****     OSSched();                                              /* Find next highest priority task read
1340:..\..\..\..\..\..\Software\uCOS-III\Source/os_task.c **** 
1341:..\..\..\..\..\..\Software\uCOS-III\Source/os_task.c ****     CPU_CRITICAL_ENTER();
1342:..\..\..\..\..\..\Software\uCOS-III\Source/os_task.c ****     switch (OSTCBCurPtr->PendStatus) {                      /* See if we timed-out or aborted      
1343:..\..\..\..\..\..\Software\uCOS-III\Source/os_task.c ****         case OS_STATUS_PEND_OK:
1344:..\..\..\..\..\..\Software\uCOS-III\Source/os_task.c ****              if (p_ts != (CPU_TS *)0) {
1345:..\..\..\..\..\..\Software\uCOS-III\Source/os_task.c ****                 *p_ts                    =  OSTCBCurPtr->TS;
1346:..\..\..\..\..\..\Software\uCOS-III\Source/os_task.c **** #if OS_CFG_TASK_PROFILE_EN > 0u
1347:..\..\..\..\..\..\Software\uCOS-III\Source/os_task.c ****                 OSTCBCurPtr->SemPendTime = OS_TS_GET() - OSTCBCurPtr->TS;
1348:..\..\..\..\..\..\Software\uCOS-III\Source/os_task.c ****                 if (OSTCBCurPtr->SemPendTimeMax < OSTCBCurPtr->SemPendTime) {
1349:..\..\..\..\..\..\Software\uCOS-III\Source/os_task.c ****                     OSTCBCurPtr->SemPendTimeMax = OSTCBCurPtr->SemPendTime;
1350:..\..\..\..\..\..\Software\uCOS-III\Source/os_task.c ****                 }
ARM GAS  C:\Users\EDULU~1.DES\AppData\Local\Temp\ccxcKTgR.s 			page 38


1351:..\..\..\..\..\..\Software\uCOS-III\Source/os_task.c **** #endif
1352:..\..\..\..\..\..\Software\uCOS-III\Source/os_task.c ****              }
1353:..\..\..\..\..\..\Software\uCOS-III\Source/os_task.c ****             *p_err = OS_ERR_NONE;
1354:..\..\..\..\..\..\Software\uCOS-III\Source/os_task.c ****              break;
1355:..\..\..\..\..\..\Software\uCOS-III\Source/os_task.c **** 
1356:..\..\..\..\..\..\Software\uCOS-III\Source/os_task.c ****         case OS_STATUS_PEND_ABORT:
1357:..\..\..\..\..\..\Software\uCOS-III\Source/os_task.c ****              if (p_ts != (CPU_TS *)0) {
1358:..\..\..\..\..\..\Software\uCOS-III\Source/os_task.c ****                 *p_ts  =  OSTCBCurPtr->TS;
1359:..\..\..\..\..\..\Software\uCOS-III\Source/os_task.c ****              }
1360:..\..\..\..\..\..\Software\uCOS-III\Source/os_task.c ****             *p_err = OS_ERR_PEND_ABORT;                     /* Indicate that we aborted            
1361:..\..\..\..\..\..\Software\uCOS-III\Source/os_task.c ****              break;
1362:..\..\..\..\..\..\Software\uCOS-III\Source/os_task.c **** 
1363:..\..\..\..\..\..\Software\uCOS-III\Source/os_task.c ****         case OS_STATUS_PEND_TIMEOUT:
1364:..\..\..\..\..\..\Software\uCOS-III\Source/os_task.c ****              if (p_ts != (CPU_TS *)0) {
1365:..\..\..\..\..\..\Software\uCOS-III\Source/os_task.c ****                 *p_ts  = (CPU_TS  )0;
1366:..\..\..\..\..\..\Software\uCOS-III\Source/os_task.c ****              }
1367:..\..\..\..\..\..\Software\uCOS-III\Source/os_task.c ****             *p_err = OS_ERR_TIMEOUT;                        /* Indicate that we didn't get event wi
1368:..\..\..\..\..\..\Software\uCOS-III\Source/os_task.c ****              break;
1369:..\..\..\..\..\..\Software\uCOS-III\Source/os_task.c **** 
1370:..\..\..\..\..\..\Software\uCOS-III\Source/os_task.c ****         default:
1371:..\..\..\..\..\..\Software\uCOS-III\Source/os_task.c ****             *p_err = OS_ERR_STATUS_INVALID;
1372:..\..\..\..\..\..\Software\uCOS-III\Source/os_task.c ****              break;
1373:..\..\..\..\..\..\Software\uCOS-III\Source/os_task.c ****     }
1374:..\..\..\..\..\..\Software\uCOS-III\Source/os_task.c ****     ctr = OSTCBCurPtr->SemCtr;
1375:..\..\..\..\..\..\Software\uCOS-III\Source/os_task.c ****     CPU_CRITICAL_EXIT();
1376:..\..\..\..\..\..\Software\uCOS-III\Source/os_task.c ****     return (ctr);
1377:..\..\..\..\..\..\Software\uCOS-III\Source/os_task.c **** }
 658              		.loc 1 1377 1 view .LVU184
 659 002e 3800     		movs	r0, r7
 660 0030 03B0     		add	sp, sp, #12
 661              	.LVL75:
 662              		.loc 1 1377 1 view .LVU185
 663              		@ sp needed
 664              	.LVL76:
 665              	.LVL77:
 666              		.loc 1 1377 1 view .LVU186
 667 0032 F0BD     		pop	{r4, r5, r6, r7, pc}
 668              	.LVL78:
 669              	.L46:
1290:..\..\..\..\..\..\Software\uCOS-III\Source/os_task.c **** 
 670              		.loc 1 1290 14 is_stmt 1 view .LVU187
1298:..\..\..\..\..\..\Software\uCOS-III\Source/os_task.c ****        *p_ts  = (CPU_TS  )0;                                /* Initialize the returned timestamp   
 671              		.loc 1 1298 5 view .LVU188
1298:..\..\..\..\..\..\Software\uCOS-III\Source/os_task.c ****        *p_ts  = (CPU_TS  )0;                                /* Initialize the returned timestamp   
 672              		.loc 1 1298 8 is_stmt 0 view .LVU189
 673 0034 002D     		cmp	r5, #0
 674 0036 01D0     		beq	.L47
1299:..\..\..\..\..\..\Software\uCOS-III\Source/os_task.c ****     }
 675              		.loc 1 1299 8 is_stmt 1 view .LVU190
1299:..\..\..\..\..\..\Software\uCOS-III\Source/os_task.c ****     }
 676              		.loc 1 1299 15 is_stmt 0 view .LVU191
 677 0038 0023     		movs	r3, #0
 678 003a 2B60     		str	r3, [r5]
 679              	.L47:
1302:..\..\..\..\..\..\Software\uCOS-III\Source/os_task.c ****     if (OSTCBCurPtr->SemCtr > (OS_SEM_CTR)0) {              /* See if task already been signaled   
 680              		.loc 1 1302 5 is_stmt 1 view .LVU192
1302:..\..\..\..\..\..\Software\uCOS-III\Source/os_task.c ****     if (OSTCBCurPtr->SemCtr > (OS_SEM_CTR)0) {              /* See if task already been signaled   
ARM GAS  C:\Users\EDULU~1.DES\AppData\Local\Temp\ccxcKTgR.s 			page 39


 681              		.loc 1 1302 5 view .LVU193
1302:..\..\..\..\..\..\Software\uCOS-III\Source/os_task.c ****     if (OSTCBCurPtr->SemCtr > (OS_SEM_CTR)0) {              /* See if task already been signaled   
 682              		.loc 1 1302 5 view .LVU194
 683 003c FFF7FEFF 		bl	CPU_SR_Save
 684              	.LVL79:
1302:..\..\..\..\..\..\Software\uCOS-III\Source/os_task.c ****     if (OSTCBCurPtr->SemCtr > (OS_SEM_CTR)0) {              /* See if task already been signaled   
 685              		.loc 1 1302 5 is_stmt 0 view .LVU195
 686 0040 0190     		str	r0, [sp, #4]
 687              	.LVL80:
1302:..\..\..\..\..\..\Software\uCOS-III\Source/os_task.c ****     if (OSTCBCurPtr->SemCtr > (OS_SEM_CTR)0) {              /* See if task already been signaled   
 688              		.loc 1 1302 5 is_stmt 1 view .LVU196
 689 0042 FFF7FEFF 		bl	CPU_IntDisMeasStart
 690              	.LVL81:
1303:..\..\..\..\..\..\Software\uCOS-III\Source/os_task.c ****         OSTCBCurPtr->SemCtr--;
 691              		.loc 1 1303 5 view .LVU197
1303:..\..\..\..\..\..\Software\uCOS-III\Source/os_task.c ****         OSTCBCurPtr->SemCtr--;
 692              		.loc 1 1303 20 is_stmt 0 view .LVU198
 693 0046 364B     		ldr	r3, .L65+12
 694 0048 1B68     		ldr	r3, [r3]
 695 004a 5F6C     		ldr	r7, [r3, #68]
1303:..\..\..\..\..\..\Software\uCOS-III\Source/os_task.c ****         OSTCBCurPtr->SemCtr--;
 696              		.loc 1 1303 8 view .LVU199
 697 004c 002F     		cmp	r7, #0
 698 004e 25D1     		bne	.L62
1320:..\..\..\..\..\..\Software\uCOS-III\Source/os_task.c ****         CPU_CRITICAL_EXIT();
 699              		.loc 1 1320 5 is_stmt 1 view .LVU200
1320:..\..\..\..\..\..\Software\uCOS-III\Source/os_task.c ****         CPU_CRITICAL_EXIT();
 700              		.loc 1 1320 42 is_stmt 0 view .LVU201
 701 0050 24B2     		sxth	r4, r4
1320:..\..\..\..\..\..\Software\uCOS-III\Source/os_task.c ****         CPU_CRITICAL_EXIT();
 702              		.loc 1 1320 8 view .LVU202
 703 0052 002C     		cmp	r4, #0
 704 0054 30DB     		blt	.L63
1325:..\..\..\..\..\..\Software\uCOS-III\Source/os_task.c ****             CPU_CRITICAL_EXIT();
 705              		.loc 1 1325 9 is_stmt 1 view .LVU203
1325:..\..\..\..\..\..\Software\uCOS-III\Source/os_task.c ****             CPU_CRITICAL_EXIT();
 706              		.loc 1 1325 35 is_stmt 0 view .LVU204
 707 0056 334B     		ldr	r3, .L65+16
 708 0058 1B78     		ldrb	r3, [r3]
1325:..\..\..\..\..\..\Software\uCOS-III\Source/os_task.c ****             CPU_CRITICAL_EXIT();
 709              		.loc 1 1325 12 view .LVU205
 710 005a 002B     		cmp	r3, #0
 711 005c 34D1     		bne	.L64
1332:..\..\..\..\..\..\Software\uCOS-III\Source/os_task.c ****     OS_Pend((OS_PEND_DATA *)0,                              /* Block task pending on Signal        
 712              		.loc 1 1332 33 is_stmt 1 view .LVU206
1333:..\..\..\..\..\..\Software\uCOS-III\Source/os_task.c ****             (OS_PEND_OBJ  *)0,
 713              		.loc 1 1333 5 view .LVU207
 714 005e 009B     		ldr	r3, [sp]
 715 0060 0722     		movs	r2, #7
 716 0062 0021     		movs	r1, #0
 717 0064 0020     		movs	r0, #0
 718 0066 FFF7FEFF 		bl	OS_Pend
 719              	.LVL82:
1337:..\..\..\..\..\..\Software\uCOS-III\Source/os_task.c **** 
 720              		.loc 1 1337 5 view .LVU208
1337:..\..\..\..\..\..\Software\uCOS-III\Source/os_task.c **** 
 721              		.loc 1 1337 5 view .LVU209
ARM GAS  C:\Users\EDULU~1.DES\AppData\Local\Temp\ccxcKTgR.s 			page 40


 722 006a FFF7FEFF 		bl	CPU_IntDisMeasStop
 723              	.LVL83:
1337:..\..\..\..\..\..\Software\uCOS-III\Source/os_task.c **** 
 724              		.loc 1 1337 5 view .LVU210
1337:..\..\..\..\..\..\Software\uCOS-III\Source/os_task.c **** 
 725              		.loc 1 1337 5 view .LVU211
 726 006e 0198     		ldr	r0, [sp, #4]
 727 0070 FFF7FEFF 		bl	CPU_SR_Restore
 728              	.LVL84:
1339:..\..\..\..\..\..\Software\uCOS-III\Source/os_task.c **** 
 729              		.loc 1 1339 5 view .LVU212
 730 0074 FFF7FEFF 		bl	OSSched
 731              	.LVL85:
1341:..\..\..\..\..\..\Software\uCOS-III\Source/os_task.c ****     switch (OSTCBCurPtr->PendStatus) {                      /* See if we timed-out or aborted      
 732              		.loc 1 1341 5 view .LVU213
1341:..\..\..\..\..\..\Software\uCOS-III\Source/os_task.c ****     switch (OSTCBCurPtr->PendStatus) {                      /* See if we timed-out or aborted      
 733              		.loc 1 1341 5 view .LVU214
1341:..\..\..\..\..\..\Software\uCOS-III\Source/os_task.c ****     switch (OSTCBCurPtr->PendStatus) {                      /* See if we timed-out or aborted      
 734              		.loc 1 1341 5 view .LVU215
 735 0078 FFF7FEFF 		bl	CPU_SR_Save
 736              	.LVL86:
 737 007c 0400     		movs	r4, r0
 738              	.LVL87:
1341:..\..\..\..\..\..\Software\uCOS-III\Source/os_task.c ****     switch (OSTCBCurPtr->PendStatus) {                      /* See if we timed-out or aborted      
 739              		.loc 1 1341 5 view .LVU216
 740 007e FFF7FEFF 		bl	CPU_IntDisMeasStart
 741              	.LVL88:
1342:..\..\..\..\..\..\Software\uCOS-III\Source/os_task.c ****         case OS_STATUS_PEND_OK:
 742              		.loc 1 1342 5 view .LVU217
1342:..\..\..\..\..\..\Software\uCOS-III\Source/os_task.c ****         case OS_STATUS_PEND_OK:
 743              		.loc 1 1342 24 is_stmt 0 view .LVU218
 744 0082 274B     		ldr	r3, .L65+12
 745 0084 1A68     		ldr	r2, [r3]
 746 0086 3523     		movs	r3, #53
 747 0088 D35C     		ldrb	r3, [r2, r3]
1342:..\..\..\..\..\..\Software\uCOS-III\Source/os_task.c ****         case OS_STATUS_PEND_OK:
 748              		.loc 1 1342 5 view .LVU219
 749 008a 012B     		cmp	r3, #1
 750 008c 33D0     		beq	.L52
 751 008e 002B     		cmp	r3, #0
 752 0090 22D0     		beq	.L53
 753 0092 032B     		cmp	r3, #3
 754 0094 36D0     		beq	.L54
1371:..\..\..\..\..\..\Software\uCOS-III\Source/os_task.c ****              break;
 755              		.loc 1 1371 13 is_stmt 1 view .LVU220
1371:..\..\..\..\..\..\Software\uCOS-III\Source/os_task.c ****              break;
 756              		.loc 1 1371 20 is_stmt 0 view .LVU221
 757 0096 244B     		ldr	r3, .L65+20
 758 0098 3380     		strh	r3, [r6]
1372:..\..\..\..\..\..\Software\uCOS-III\Source/os_task.c ****     }
 759              		.loc 1 1372 14 is_stmt 1 view .LVU222
 760 009a 23E0     		b	.L57
 761              	.LVL89:
 762              	.L62:
1304:..\..\..\..\..\..\Software\uCOS-III\Source/os_task.c ****         ctr    = OSTCBCurPtr->SemCtr;
 763              		.loc 1 1304 9 view .LVU223
1304:..\..\..\..\..\..\Software\uCOS-III\Source/os_task.c ****         ctr    = OSTCBCurPtr->SemCtr;
ARM GAS  C:\Users\EDULU~1.DES\AppData\Local\Temp\ccxcKTgR.s 			page 41


 764              		.loc 1 1304 28 is_stmt 0 view .LVU224
 765 009c 013F     		subs	r7, r7, #1
 766 009e 5F64     		str	r7, [r3, #68]
1305:..\..\..\..\..\..\Software\uCOS-III\Source/os_task.c ****         if (p_ts != (CPU_TS *)0) {
 767              		.loc 1 1305 9 is_stmt 1 view .LVU225
 768              	.LVL90:
1306:..\..\..\..\..\..\Software\uCOS-III\Source/os_task.c ****            *p_ts  = OSTCBCurPtr->TS;
 769              		.loc 1 1306 9 view .LVU226
1306:..\..\..\..\..\..\Software\uCOS-III\Source/os_task.c ****            *p_ts  = OSTCBCurPtr->TS;
 770              		.loc 1 1306 12 is_stmt 0 view .LVU227
 771 00a0 002D     		cmp	r5, #0
 772 00a2 01D0     		beq	.L49
1307:..\..\..\..\..\..\Software\uCOS-III\Source/os_task.c ****         }
 773              		.loc 1 1307 12 is_stmt 1 view .LVU228
1307:..\..\..\..\..\..\Software\uCOS-III\Source/os_task.c ****         }
 774              		.loc 1 1307 32 is_stmt 0 view .LVU229
 775 00a4 1B6C     		ldr	r3, [r3, #64]
 776 00a6 2B60     		str	r3, [r5]
 777              	.L49:
1315:..\..\..\..\..\..\Software\uCOS-III\Source/os_task.c ****        *p_err = OS_ERR_NONE;
 778              		.loc 1 1315 9 is_stmt 1 view .LVU230
1315:..\..\..\..\..\..\Software\uCOS-III\Source/os_task.c ****        *p_err = OS_ERR_NONE;
 779              		.loc 1 1315 9 view .LVU231
 780 00a8 FFF7FEFF 		bl	CPU_IntDisMeasStop
 781              	.LVL91:
1315:..\..\..\..\..\..\Software\uCOS-III\Source/os_task.c ****        *p_err = OS_ERR_NONE;
 782              		.loc 1 1315 9 view .LVU232
1315:..\..\..\..\..\..\Software\uCOS-III\Source/os_task.c ****        *p_err = OS_ERR_NONE;
 783              		.loc 1 1315 9 view .LVU233
 784 00ac 0198     		ldr	r0, [sp, #4]
 785 00ae FFF7FEFF 		bl	CPU_SR_Restore
 786              	.LVL92:
1316:..\..\..\..\..\..\Software\uCOS-III\Source/os_task.c ****         return (ctr);
 787              		.loc 1 1316 8 view .LVU234
1316:..\..\..\..\..\..\Software\uCOS-III\Source/os_task.c ****         return (ctr);
 788              		.loc 1 1316 15 is_stmt 0 view .LVU235
 789 00b2 0023     		movs	r3, #0
 790 00b4 3380     		strh	r3, [r6]
1317:..\..\..\..\..\..\Software\uCOS-III\Source/os_task.c ****     }
 791              		.loc 1 1317 9 is_stmt 1 view .LVU236
1317:..\..\..\..\..\..\Software\uCOS-III\Source/os_task.c ****     }
 792              		.loc 1 1317 16 is_stmt 0 view .LVU237
 793 00b6 BAE7     		b	.L43
 794              	.LVL93:
 795              	.L63:
1321:..\..\..\..\..\..\Software\uCOS-III\Source/os_task.c ****        *p_err = OS_ERR_PEND_WOULD_BLOCK;                    /* No                                  
 796              		.loc 1 1321 9 is_stmt 1 view .LVU238
1321:..\..\..\..\..\..\Software\uCOS-III\Source/os_task.c ****        *p_err = OS_ERR_PEND_WOULD_BLOCK;                    /* No                                  
 797              		.loc 1 1321 9 view .LVU239
 798 00b8 FFF7FEFF 		bl	CPU_IntDisMeasStop
 799              	.LVL94:
1321:..\..\..\..\..\..\Software\uCOS-III\Source/os_task.c ****        *p_err = OS_ERR_PEND_WOULD_BLOCK;                    /* No                                  
 800              		.loc 1 1321 9 view .LVU240
1321:..\..\..\..\..\..\Software\uCOS-III\Source/os_task.c ****        *p_err = OS_ERR_PEND_WOULD_BLOCK;                    /* No                                  
 801              		.loc 1 1321 9 view .LVU241
 802 00bc 0198     		ldr	r0, [sp, #4]
 803 00be FFF7FEFF 		bl	CPU_SR_Restore
ARM GAS  C:\Users\EDULU~1.DES\AppData\Local\Temp\ccxcKTgR.s 			page 42


 804              	.LVL95:
1322:..\..\..\..\..\..\Software\uCOS-III\Source/os_task.c ****         return ((OS_SEM_CTR)0);
 805              		.loc 1 1322 8 view .LVU242
1322:..\..\..\..\..\..\Software\uCOS-III\Source/os_task.c ****         return ((OS_SEM_CTR)0);
 806              		.loc 1 1322 15 is_stmt 0 view .LVU243
 807 00c2 1A4B     		ldr	r3, .L65+24
 808 00c4 3380     		strh	r3, [r6]
1323:..\..\..\..\..\..\Software\uCOS-III\Source/os_task.c ****     } else {                                                /* Yes                                 
 809              		.loc 1 1323 9 is_stmt 1 view .LVU244
1323:..\..\..\..\..\..\Software\uCOS-III\Source/os_task.c ****     } else {                                                /* Yes                                 
 810              		.loc 1 1323 16 is_stmt 0 view .LVU245
 811 00c6 B2E7     		b	.L43
 812              	.L64:
1326:..\..\..\..\..\..\Software\uCOS-III\Source/os_task.c ****            *p_err = OS_ERR_SCHED_LOCKED;
 813              		.loc 1 1326 13 is_stmt 1 view .LVU246
1326:..\..\..\..\..\..\Software\uCOS-III\Source/os_task.c ****            *p_err = OS_ERR_SCHED_LOCKED;
 814              		.loc 1 1326 13 view .LVU247
 815 00c8 FFF7FEFF 		bl	CPU_IntDisMeasStop
 816              	.LVL96:
1326:..\..\..\..\..\..\Software\uCOS-III\Source/os_task.c ****            *p_err = OS_ERR_SCHED_LOCKED;
 817              		.loc 1 1326 13 view .LVU248
1326:..\..\..\..\..\..\Software\uCOS-III\Source/os_task.c ****            *p_err = OS_ERR_SCHED_LOCKED;
 818              		.loc 1 1326 13 view .LVU249
 819 00cc 0198     		ldr	r0, [sp, #4]
 820 00ce FFF7FEFF 		bl	CPU_SR_Restore
 821              	.LVL97:
1327:..\..\..\..\..\..\Software\uCOS-III\Source/os_task.c ****             return ((OS_SEM_CTR)0);
 822              		.loc 1 1327 12 view .LVU250
1327:..\..\..\..\..\..\Software\uCOS-III\Source/os_task.c ****             return ((OS_SEM_CTR)0);
 823              		.loc 1 1327 19 is_stmt 0 view .LVU251
 824 00d2 174B     		ldr	r3, .L65+28
 825 00d4 3380     		strh	r3, [r6]
1328:..\..\..\..\..\..\Software\uCOS-III\Source/os_task.c ****         }
 826              		.loc 1 1328 13 is_stmt 1 view .LVU252
1328:..\..\..\..\..\..\Software\uCOS-III\Source/os_task.c ****         }
 827              		.loc 1 1328 20 is_stmt 0 view .LVU253
 828 00d6 AAE7     		b	.L43
 829              	.LVL98:
 830              	.L53:
1344:..\..\..\..\..\..\Software\uCOS-III\Source/os_task.c ****                 *p_ts                    =  OSTCBCurPtr->TS;
 831              		.loc 1 1344 14 is_stmt 1 view .LVU254
1344:..\..\..\..\..\..\Software\uCOS-III\Source/os_task.c ****                 *p_ts                    =  OSTCBCurPtr->TS;
 832              		.loc 1 1344 17 is_stmt 0 view .LVU255
 833 00d8 002D     		cmp	r5, #0
 834 00da 01D0     		beq	.L56
1345:..\..\..\..\..\..\Software\uCOS-III\Source/os_task.c **** #if OS_CFG_TASK_PROFILE_EN > 0u
 835              		.loc 1 1345 17 is_stmt 1 view .LVU256
1345:..\..\..\..\..\..\Software\uCOS-III\Source/os_task.c **** #if OS_CFG_TASK_PROFILE_EN > 0u
 836              		.loc 1 1345 56 is_stmt 0 view .LVU257
 837 00dc 136C     		ldr	r3, [r2, #64]
 838 00de 2B60     		str	r3, [r5]
 839              	.L56:
1353:..\..\..\..\..\..\Software\uCOS-III\Source/os_task.c ****              break;
 840              		.loc 1 1353 13 is_stmt 1 view .LVU258
1353:..\..\..\..\..\..\Software\uCOS-III\Source/os_task.c ****              break;
 841              		.loc 1 1353 20 is_stmt 0 view .LVU259
 842 00e0 0023     		movs	r3, #0
ARM GAS  C:\Users\EDULU~1.DES\AppData\Local\Temp\ccxcKTgR.s 			page 43


 843 00e2 3380     		strh	r3, [r6]
1354:..\..\..\..\..\..\Software\uCOS-III\Source/os_task.c **** 
 844              		.loc 1 1354 14 is_stmt 1 view .LVU260
 845              	.L57:
1374:..\..\..\..\..\..\Software\uCOS-III\Source/os_task.c ****     CPU_CRITICAL_EXIT();
 846              		.loc 1 1374 5 view .LVU261
1374:..\..\..\..\..\..\Software\uCOS-III\Source/os_task.c ****     CPU_CRITICAL_EXIT();
 847              		.loc 1 1374 22 is_stmt 0 view .LVU262
 848 00e4 0E4B     		ldr	r3, .L65+12
 849 00e6 1B68     		ldr	r3, [r3]
1374:..\..\..\..\..\..\Software\uCOS-III\Source/os_task.c ****     CPU_CRITICAL_EXIT();
 850              		.loc 1 1374 9 view .LVU263
 851 00e8 5F6C     		ldr	r7, [r3, #68]
 852              	.LVL99:
1375:..\..\..\..\..\..\Software\uCOS-III\Source/os_task.c ****     return (ctr);
 853              		.loc 1 1375 5 is_stmt 1 view .LVU264
1375:..\..\..\..\..\..\Software\uCOS-III\Source/os_task.c ****     return (ctr);
 854              		.loc 1 1375 5 view .LVU265
 855 00ea FFF7FEFF 		bl	CPU_IntDisMeasStop
 856              	.LVL100:
1375:..\..\..\..\..\..\Software\uCOS-III\Source/os_task.c ****     return (ctr);
 857              		.loc 1 1375 5 view .LVU266
1375:..\..\..\..\..\..\Software\uCOS-III\Source/os_task.c ****     return (ctr);
 858              		.loc 1 1375 5 view .LVU267
 859 00ee 2000     		movs	r0, r4
 860 00f0 FFF7FEFF 		bl	CPU_SR_Restore
 861              	.LVL101:
1376:..\..\..\..\..\..\Software\uCOS-III\Source/os_task.c **** }
 862              		.loc 1 1376 5 view .LVU268
1376:..\..\..\..\..\..\Software\uCOS-III\Source/os_task.c **** }
 863              		.loc 1 1376 12 is_stmt 0 view .LVU269
 864 00f4 9BE7     		b	.L43
 865              	.LVL102:
 866              	.L52:
1357:..\..\..\..\..\..\Software\uCOS-III\Source/os_task.c ****                 *p_ts  =  OSTCBCurPtr->TS;
 867              		.loc 1 1357 14 is_stmt 1 view .LVU270
1357:..\..\..\..\..\..\Software\uCOS-III\Source/os_task.c ****                 *p_ts  =  OSTCBCurPtr->TS;
 868              		.loc 1 1357 17 is_stmt 0 view .LVU271
 869 00f6 002D     		cmp	r5, #0
 870 00f8 01D0     		beq	.L58
1358:..\..\..\..\..\..\Software\uCOS-III\Source/os_task.c ****              }
 871              		.loc 1 1358 17 is_stmt 1 view .LVU272
1358:..\..\..\..\..\..\Software\uCOS-III\Source/os_task.c ****              }
 872              		.loc 1 1358 38 is_stmt 0 view .LVU273
 873 00fa 136C     		ldr	r3, [r2, #64]
 874 00fc 2B60     		str	r3, [r5]
 875              	.L58:
1360:..\..\..\..\..\..\Software\uCOS-III\Source/os_task.c ****              break;
 876              		.loc 1 1360 13 is_stmt 1 view .LVU274
1360:..\..\..\..\..\..\Software\uCOS-III\Source/os_task.c ****              break;
 877              		.loc 1 1360 20 is_stmt 0 view .LVU275
 878 00fe 0D4B     		ldr	r3, .L65+32
 879 0100 3380     		strh	r3, [r6]
1361:..\..\..\..\..\..\Software\uCOS-III\Source/os_task.c **** 
 880              		.loc 1 1361 14 is_stmt 1 view .LVU276
 881 0102 EFE7     		b	.L57
 882              	.L54:
ARM GAS  C:\Users\EDULU~1.DES\AppData\Local\Temp\ccxcKTgR.s 			page 44


1364:..\..\..\..\..\..\Software\uCOS-III\Source/os_task.c ****                 *p_ts  = (CPU_TS  )0;
 883              		.loc 1 1364 14 view .LVU277
1364:..\..\..\..\..\..\Software\uCOS-III\Source/os_task.c ****                 *p_ts  = (CPU_TS  )0;
 884              		.loc 1 1364 17 is_stmt 0 view .LVU278
 885 0104 002D     		cmp	r5, #0
 886 0106 01D0     		beq	.L59
1365:..\..\..\..\..\..\Software\uCOS-III\Source/os_task.c ****              }
 887              		.loc 1 1365 17 is_stmt 1 view .LVU279
1365:..\..\..\..\..\..\Software\uCOS-III\Source/os_task.c ****              }
 888              		.loc 1 1365 24 is_stmt 0 view .LVU280
 889 0108 0023     		movs	r3, #0
 890 010a 2B60     		str	r3, [r5]
 891              	.L59:
1367:..\..\..\..\..\..\Software\uCOS-III\Source/os_task.c ****              break;
 892              		.loc 1 1367 13 is_stmt 1 view .LVU281
1367:..\..\..\..\..\..\Software\uCOS-III\Source/os_task.c ****              break;
 893              		.loc 1 1367 20 is_stmt 0 view .LVU282
 894 010c 0A4B     		ldr	r3, .L65+36
 895 010e 3380     		strh	r3, [r6]
1368:..\..\..\..\..\..\Software\uCOS-III\Source/os_task.c **** 
 896              		.loc 1 1368 14 is_stmt 1 view .LVU283
 897 0110 E8E7     		b	.L57
 898              	.L66:
 899 0112 C046     		.align	2
 900              	.L65:
 901 0114 00000000 		.word	OSIntNestingCtr
 902 0118 255E0000 		.word	24101
 903 011c AE610000 		.word	25006
 904 0120 00000000 		.word	OSTCBCurPtr
 905 0124 00000000 		.word	OSSchedLockNestingCtr
 906 0128 2E6E0000 		.word	28206
 907 012c B0610000 		.word	25008
 908 0130 636D0000 		.word	28003
 909 0134 A9610000 		.word	25001
 910 0138 D9720000 		.word	29401
 911              		.cfi_endproc
 912              	.LFE9:
 913              		.size	OSTaskSemPend, .-OSTaskSemPend
 914              		.section	.text.OSTaskSemSet,"ax",%progbits
 915              		.align	1
 916              		.global	OSTaskSemSet
 917              		.syntax unified
 918              		.code	16
 919              		.thumb_func
 920              		.fpu softvfp
 921              		.type	OSTaskSemSet, %function
 922              	OSTaskSemSet:
 923              	.LVL103:
 924              	.LFB11:
1378:..\..\..\..\..\..\Software\uCOS-III\Source/os_task.c **** 
1379:..\..\..\..\..\..\Software\uCOS-III\Source/os_task.c **** /*$PAGE*/
1380:..\..\..\..\..\..\Software\uCOS-III\Source/os_task.c **** /*
1381:..\..\..\..\..\..\Software\uCOS-III\Source/os_task.c **** ***************************************************************************************************
1382:..\..\..\..\..\..\Software\uCOS-III\Source/os_task.c **** *                                               ABORT WAITING FOR A SIGNAL
1383:..\..\..\..\..\..\Software\uCOS-III\Source/os_task.c **** *
1384:..\..\..\..\..\..\Software\uCOS-III\Source/os_task.c **** * Description: This function aborts & readies the task specified.  This function should be used to 
1385:..\..\..\..\..\..\Software\uCOS-III\Source/os_task.c **** *              for a signal, rather than to normally post the signal to the task via OSTaskSemPost(
ARM GAS  C:\Users\EDULU~1.DES\AppData\Local\Temp\ccxcKTgR.s 			page 45


1386:..\..\..\..\..\..\Software\uCOS-III\Source/os_task.c **** *
1387:..\..\..\..\..\..\Software\uCOS-III\Source/os_task.c **** * Arguments  : p_tcb     is a pointer to the task to pend abort
1388:..\..\..\..\..\..\Software\uCOS-III\Source/os_task.c **** *
1389:..\..\..\..\..\..\Software\uCOS-III\Source/os_task.c **** *              opt       provides options for this function:
1390:..\..\..\..\..\..\Software\uCOS-III\Source/os_task.c **** *
1391:..\..\..\..\..\..\Software\uCOS-III\Source/os_task.c **** *                            OS_OPT_POST_NONE         No option selected
1392:..\..\..\..\..\..\Software\uCOS-III\Source/os_task.c **** *                            OS_OPT_POST_NO_SCHED     Indicates that the scheduler will not be call
1393:..\..\..\..\..\..\Software\uCOS-III\Source/os_task.c **** *
1394:..\..\..\..\..\..\Software\uCOS-III\Source/os_task.c **** *              p_err     is a pointer to a variable that will contain an error code returned by thi
1395:..\..\..\..\..\..\Software\uCOS-III\Source/os_task.c **** *
1396:..\..\..\..\..\..\Software\uCOS-III\Source/os_task.c **** *                            OS_ERR_NONE              If the task was readied and informed of the a
1397:..\..\..\..\..\..\Software\uCOS-III\Source/os_task.c **** *                            OS_ERR_PEND_ABORT_ISR    If you tried calling this function from an IS
1398:..\..\..\..\..\..\Software\uCOS-III\Source/os_task.c **** *                            OS_ERR_PEND_ABORT_NONE   If the task was not waiting for a signal
1399:..\..\..\..\..\..\Software\uCOS-III\Source/os_task.c **** *                            OS_ERR_PEND_ABORT_SELF   If you attempted to pend abort the calling ta
1400:..\..\..\..\..\..\Software\uCOS-III\Source/os_task.c **** *                                                     possible since the calling task cannot be pen
1401:..\..\..\..\..\..\Software\uCOS-III\Source/os_task.c **** *                                                     running.
1402:..\..\..\..\..\..\Software\uCOS-III\Source/os_task.c **** *
1403:..\..\..\..\..\..\Software\uCOS-III\Source/os_task.c **** * Returns    : == DEF_FALSE   if task was not waiting for a message, or upon error.
1404:..\..\..\..\..\..\Software\uCOS-III\Source/os_task.c **** *              == DEF_TRUE    if task was waiting for a message and was readied and informed.
1405:..\..\..\..\..\..\Software\uCOS-III\Source/os_task.c **** ***************************************************************************************************
1406:..\..\..\..\..\..\Software\uCOS-III\Source/os_task.c **** */
1407:..\..\..\..\..\..\Software\uCOS-III\Source/os_task.c **** 
1408:..\..\..\..\..\..\Software\uCOS-III\Source/os_task.c **** #if OS_CFG_TASK_SEM_PEND_ABORT_EN > 0u
1409:..\..\..\..\..\..\Software\uCOS-III\Source/os_task.c **** CPU_BOOLEAN  OSTaskSemPendAbort (OS_TCB  *p_tcb,
1410:..\..\..\..\..\..\Software\uCOS-III\Source/os_task.c ****                                  OS_OPT   opt,
1411:..\..\..\..\..\..\Software\uCOS-III\Source/os_task.c ****                                  OS_ERR  *p_err)
1412:..\..\..\..\..\..\Software\uCOS-III\Source/os_task.c **** {
1413:..\..\..\..\..\..\Software\uCOS-III\Source/os_task.c ****     CPU_TS         ts;
1414:..\..\..\..\..\..\Software\uCOS-III\Source/os_task.c ****     CPU_SR_ALLOC();
1415:..\..\..\..\..\..\Software\uCOS-III\Source/os_task.c **** 
1416:..\..\..\..\..\..\Software\uCOS-III\Source/os_task.c **** 
1417:..\..\..\..\..\..\Software\uCOS-III\Source/os_task.c **** 
1418:..\..\..\..\..\..\Software\uCOS-III\Source/os_task.c **** #ifdef OS_SAFETY_CRITICAL
1419:..\..\..\..\..\..\Software\uCOS-III\Source/os_task.c ****     if (p_err == (OS_ERR *)0) {
1420:..\..\..\..\..\..\Software\uCOS-III\Source/os_task.c ****         OS_SAFETY_CRITICAL_EXCEPTION();
1421:..\..\..\..\..\..\Software\uCOS-III\Source/os_task.c ****         return (DEF_FALSE);
1422:..\..\..\..\..\..\Software\uCOS-III\Source/os_task.c ****     }
1423:..\..\..\..\..\..\Software\uCOS-III\Source/os_task.c **** #endif
1424:..\..\..\..\..\..\Software\uCOS-III\Source/os_task.c **** 
1425:..\..\..\..\..\..\Software\uCOS-III\Source/os_task.c **** #if OS_CFG_CALLED_FROM_ISR_CHK_EN > 0u
1426:..\..\..\..\..\..\Software\uCOS-III\Source/os_task.c ****     if (OSIntNestingCtr > (OS_NESTING_CTR)0) {              /* See if called from ISR ...          
1427:..\..\..\..\..\..\Software\uCOS-III\Source/os_task.c ****        *p_err = OS_ERR_PEND_ABORT_ISR;                      /* ... can't Pend Abort from an ISR    
1428:..\..\..\..\..\..\Software\uCOS-III\Source/os_task.c ****         return (DEF_FALSE);
1429:..\..\..\..\..\..\Software\uCOS-III\Source/os_task.c ****     }
1430:..\..\..\..\..\..\Software\uCOS-III\Source/os_task.c **** #endif
1431:..\..\..\..\..\..\Software\uCOS-III\Source/os_task.c **** 
1432:..\..\..\..\..\..\Software\uCOS-III\Source/os_task.c **** #if OS_CFG_ARG_CHK_EN > 0u
1433:..\..\..\..\..\..\Software\uCOS-III\Source/os_task.c ****     switch (opt) {                                          /* Validate 'opt'                      
1434:..\..\..\..\..\..\Software\uCOS-III\Source/os_task.c ****         case OS_OPT_POST_NONE:
1435:..\..\..\..\..\..\Software\uCOS-III\Source/os_task.c ****         case OS_OPT_POST_NO_SCHED:
1436:..\..\..\..\..\..\Software\uCOS-III\Source/os_task.c ****              break;
1437:..\..\..\..\..\..\Software\uCOS-III\Source/os_task.c **** 
1438:..\..\..\..\..\..\Software\uCOS-III\Source/os_task.c ****         default:
1439:..\..\..\..\..\..\Software\uCOS-III\Source/os_task.c ****             *p_err =  OS_ERR_OPT_INVALID;
1440:..\..\..\..\..\..\Software\uCOS-III\Source/os_task.c ****              return (DEF_FALSE);
1441:..\..\..\..\..\..\Software\uCOS-III\Source/os_task.c ****     }
1442:..\..\..\..\..\..\Software\uCOS-III\Source/os_task.c **** #endif
ARM GAS  C:\Users\EDULU~1.DES\AppData\Local\Temp\ccxcKTgR.s 			page 46


1443:..\..\..\..\..\..\Software\uCOS-III\Source/os_task.c **** 
1444:..\..\..\..\..\..\Software\uCOS-III\Source/os_task.c ****     CPU_CRITICAL_ENTER();
1445:..\..\..\..\..\..\Software\uCOS-III\Source/os_task.c ****     if ((p_tcb == (OS_TCB *)0) ||                           /* Pend abort self?                    
1446:..\..\..\..\..\..\Software\uCOS-III\Source/os_task.c ****         (p_tcb == OSTCBCurPtr)) {
1447:..\..\..\..\..\..\Software\uCOS-III\Source/os_task.c ****         CPU_CRITICAL_EXIT();                                /* ... doesn't make sense!             
1448:..\..\..\..\..\..\Software\uCOS-III\Source/os_task.c ****        *p_err = OS_ERR_PEND_ABORT_SELF;
1449:..\..\..\..\..\..\Software\uCOS-III\Source/os_task.c ****         return (DEF_FALSE);
1450:..\..\..\..\..\..\Software\uCOS-III\Source/os_task.c ****     }
1451:..\..\..\..\..\..\Software\uCOS-III\Source/os_task.c **** 
1452:..\..\..\..\..\..\Software\uCOS-III\Source/os_task.c ****     if (p_tcb->PendOn != OS_TASK_PEND_ON_TASK_SEM) {        /* Is task waiting for a signal?       
1453:..\..\..\..\..\..\Software\uCOS-III\Source/os_task.c ****         CPU_CRITICAL_EXIT();
1454:..\..\..\..\..\..\Software\uCOS-III\Source/os_task.c ****        *p_err = OS_ERR_PEND_ABORT_NONE;
1455:..\..\..\..\..\..\Software\uCOS-III\Source/os_task.c ****         return (DEF_FALSE);
1456:..\..\..\..\..\..\Software\uCOS-III\Source/os_task.c ****     }
1457:..\..\..\..\..\..\Software\uCOS-III\Source/os_task.c ****     CPU_CRITICAL_EXIT();
1458:..\..\..\..\..\..\Software\uCOS-III\Source/os_task.c **** 
1459:..\..\..\..\..\..\Software\uCOS-III\Source/os_task.c ****     OS_CRITICAL_ENTER();
1460:..\..\..\..\..\..\Software\uCOS-III\Source/os_task.c ****     ts = OS_TS_GET();
1461:..\..\..\..\..\..\Software\uCOS-III\Source/os_task.c ****     OS_PendAbort((OS_PEND_OBJ *)0,
1462:..\..\..\..\..\..\Software\uCOS-III\Source/os_task.c ****                  p_tcb,
1463:..\..\..\..\..\..\Software\uCOS-III\Source/os_task.c ****                  ts);
1464:..\..\..\..\..\..\Software\uCOS-III\Source/os_task.c ****     OS_CRITICAL_EXIT_NO_SCHED();
1465:..\..\..\..\..\..\Software\uCOS-III\Source/os_task.c ****     if ((opt & OS_OPT_POST_NO_SCHED) == (OS_OPT)0) {
1466:..\..\..\..\..\..\Software\uCOS-III\Source/os_task.c ****         OSSched();                                          /* Run the scheduler                   
1467:..\..\..\..\..\..\Software\uCOS-III\Source/os_task.c ****     }
1468:..\..\..\..\..\..\Software\uCOS-III\Source/os_task.c ****    *p_err = OS_ERR_NONE;
1469:..\..\..\..\..\..\Software\uCOS-III\Source/os_task.c ****     return (DEF_TRUE);
1470:..\..\..\..\..\..\Software\uCOS-III\Source/os_task.c **** }
1471:..\..\..\..\..\..\Software\uCOS-III\Source/os_task.c **** #endif
1472:..\..\..\..\..\..\Software\uCOS-III\Source/os_task.c **** 
1473:..\..\..\..\..\..\Software\uCOS-III\Source/os_task.c **** /*$PAGE*/
1474:..\..\..\..\..\..\Software\uCOS-III\Source/os_task.c **** /*
1475:..\..\..\..\..\..\Software\uCOS-III\Source/os_task.c **** ***************************************************************************************************
1476:..\..\..\..\..\..\Software\uCOS-III\Source/os_task.c **** *                                                    SIGNAL A TASK
1477:..\..\..\..\..\..\Software\uCOS-III\Source/os_task.c **** *
1478:..\..\..\..\..\..\Software\uCOS-III\Source/os_task.c **** * Description: This function is called to signal a task waiting for a signal.
1479:..\..\..\..\..\..\Software\uCOS-III\Source/os_task.c **** *
1480:..\..\..\..\..\..\Software\uCOS-III\Source/os_task.c **** * Arguments  : p_tcb     is the pointer to the TCB of the task to signal.  A NULL pointer indicates
1481:..\..\..\..\..\..\Software\uCOS-III\Source/os_task.c **** *                        a signal to yourself.
1482:..\..\..\..\..\..\Software\uCOS-III\Source/os_task.c **** *
1483:..\..\..\..\..\..\Software\uCOS-III\Source/os_task.c **** *              opt       determines the type of POST performed:
1484:..\..\..\..\..\..\Software\uCOS-III\Source/os_task.c **** *
1485:..\..\..\..\..\..\Software\uCOS-III\Source/os_task.c **** *                             OS_OPT_POST_NONE         No option
1486:..\..\..\..\..\..\Software\uCOS-III\Source/os_task.c **** *                             OS_OPT_POST_NO_SCHED     Do not call the scheduler
1487:..\..\..\..\..\..\Software\uCOS-III\Source/os_task.c **** *
1488:..\..\..\..\..\..\Software\uCOS-III\Source/os_task.c **** *              p_err     is a pointer to an error code returned by this function:
1489:..\..\..\..\..\..\Software\uCOS-III\Source/os_task.c **** *
1490:..\..\..\..\..\..\Software\uCOS-III\Source/os_task.c **** *                            OS_ERR_NONE              If the requested task is signaled
1491:..\..\..\..\..\..\Software\uCOS-III\Source/os_task.c **** *                            OS_ERR_SEM_OVF           If the post would cause the semaphore count t
1492:..\..\..\..\..\..\Software\uCOS-III\Source/os_task.c **** *
1493:..\..\..\..\..\..\Software\uCOS-III\Source/os_task.c **** * Returns    : The current value of the task's signal counter or 0 if called from an ISR
1494:..\..\..\..\..\..\Software\uCOS-III\Source/os_task.c **** ***************************************************************************************************
1495:..\..\..\..\..\..\Software\uCOS-III\Source/os_task.c **** */
1496:..\..\..\..\..\..\Software\uCOS-III\Source/os_task.c **** 
1497:..\..\..\..\..\..\Software\uCOS-III\Source/os_task.c **** OS_SEM_CTR  OSTaskSemPost (OS_TCB  *p_tcb,
1498:..\..\..\..\..\..\Software\uCOS-III\Source/os_task.c ****                            OS_OPT   opt,
1499:..\..\..\..\..\..\Software\uCOS-III\Source/os_task.c ****                            OS_ERR  *p_err)
ARM GAS  C:\Users\EDULU~1.DES\AppData\Local\Temp\ccxcKTgR.s 			page 47


1500:..\..\..\..\..\..\Software\uCOS-III\Source/os_task.c **** {
1501:..\..\..\..\..\..\Software\uCOS-III\Source/os_task.c ****     OS_SEM_CTR  ctr;
1502:..\..\..\..\..\..\Software\uCOS-III\Source/os_task.c ****     CPU_TS      ts;
1503:..\..\..\..\..\..\Software\uCOS-III\Source/os_task.c **** 
1504:..\..\..\..\..\..\Software\uCOS-III\Source/os_task.c **** 
1505:..\..\..\..\..\..\Software\uCOS-III\Source/os_task.c **** 
1506:..\..\..\..\..\..\Software\uCOS-III\Source/os_task.c **** #ifdef OS_SAFETY_CRITICAL
1507:..\..\..\..\..\..\Software\uCOS-III\Source/os_task.c ****     if (p_err == (OS_ERR *)0) {
1508:..\..\..\..\..\..\Software\uCOS-III\Source/os_task.c ****         OS_SAFETY_CRITICAL_EXCEPTION();
1509:..\..\..\..\..\..\Software\uCOS-III\Source/os_task.c ****         return ((OS_SEM_CTR)0);
1510:..\..\..\..\..\..\Software\uCOS-III\Source/os_task.c ****     }
1511:..\..\..\..\..\..\Software\uCOS-III\Source/os_task.c **** #endif
1512:..\..\..\..\..\..\Software\uCOS-III\Source/os_task.c **** 
1513:..\..\..\..\..\..\Software\uCOS-III\Source/os_task.c **** #if OS_CFG_ARG_CHK_EN > 0u
1514:..\..\..\..\..\..\Software\uCOS-III\Source/os_task.c ****     switch (opt) {                                          /* Validate 'opt'                      
1515:..\..\..\..\..\..\Software\uCOS-III\Source/os_task.c ****         case OS_OPT_POST_NONE:
1516:..\..\..\..\..\..\Software\uCOS-III\Source/os_task.c ****         case OS_OPT_POST_NO_SCHED:
1517:..\..\..\..\..\..\Software\uCOS-III\Source/os_task.c ****              break;
1518:..\..\..\..\..\..\Software\uCOS-III\Source/os_task.c **** 
1519:..\..\..\..\..\..\Software\uCOS-III\Source/os_task.c ****         default:
1520:..\..\..\..\..\..\Software\uCOS-III\Source/os_task.c ****             *p_err =  OS_ERR_OPT_INVALID;
1521:..\..\..\..\..\..\Software\uCOS-III\Source/os_task.c ****              return ((OS_SEM_CTR)0u);
1522:..\..\..\..\..\..\Software\uCOS-III\Source/os_task.c ****     }
1523:..\..\..\..\..\..\Software\uCOS-III\Source/os_task.c **** #endif
1524:..\..\..\..\..\..\Software\uCOS-III\Source/os_task.c **** 
1525:..\..\..\..\..\..\Software\uCOS-III\Source/os_task.c ****     ts = OS_TS_GET();                                       /* Get timestamp                       
1526:..\..\..\..\..\..\Software\uCOS-III\Source/os_task.c **** 
1527:..\..\..\..\..\..\Software\uCOS-III\Source/os_task.c **** #if OS_CFG_ISR_POST_DEFERRED_EN > 0u
1528:..\..\..\..\..\..\Software\uCOS-III\Source/os_task.c ****     if (OSIntNestingCtr > (OS_NESTING_CTR)0) {              /* See if called from an ISR           
1529:..\..\..\..\..\..\Software\uCOS-III\Source/os_task.c ****         OS_IntQPost((OS_OBJ_TYPE)OS_OBJ_TYPE_TASK_SIGNAL,   /* Post to ISR queue                   
1530:..\..\..\..\..\..\Software\uCOS-III\Source/os_task.c ****                     (void      *)p_tcb,
1531:..\..\..\..\..\..\Software\uCOS-III\Source/os_task.c ****                     (void      *)0,
1532:..\..\..\..\..\..\Software\uCOS-III\Source/os_task.c ****                     (OS_MSG_SIZE)0,
1533:..\..\..\..\..\..\Software\uCOS-III\Source/os_task.c ****                     (OS_FLAGS   )0,
1534:..\..\..\..\..\..\Software\uCOS-III\Source/os_task.c ****                     (OS_OPT     )0,
1535:..\..\..\..\..\..\Software\uCOS-III\Source/os_task.c ****                     (CPU_TS     )ts,
1536:..\..\..\..\..\..\Software\uCOS-III\Source/os_task.c ****                     (OS_ERR    *)p_err);
1537:..\..\..\..\..\..\Software\uCOS-III\Source/os_task.c ****         return ((OS_SEM_CTR)0);
1538:..\..\..\..\..\..\Software\uCOS-III\Source/os_task.c ****     }
1539:..\..\..\..\..\..\Software\uCOS-III\Source/os_task.c **** #endif
1540:..\..\..\..\..\..\Software\uCOS-III\Source/os_task.c **** 
1541:..\..\..\..\..\..\Software\uCOS-III\Source/os_task.c ****     ctr = OS_TaskSemPost(p_tcb,
1542:..\..\..\..\..\..\Software\uCOS-III\Source/os_task.c ****                          opt,
1543:..\..\..\..\..\..\Software\uCOS-III\Source/os_task.c ****                          ts,
1544:..\..\..\..\..\..\Software\uCOS-III\Source/os_task.c ****                          p_err);
1545:..\..\..\..\..\..\Software\uCOS-III\Source/os_task.c **** 
1546:..\..\..\..\..\..\Software\uCOS-III\Source/os_task.c ****     return (ctr);
1547:..\..\..\..\..\..\Software\uCOS-III\Source/os_task.c **** }
1548:..\..\..\..\..\..\Software\uCOS-III\Source/os_task.c **** 
1549:..\..\..\..\..\..\Software\uCOS-III\Source/os_task.c **** /*$PAGE*/
1550:..\..\..\..\..\..\Software\uCOS-III\Source/os_task.c **** /*
1551:..\..\..\..\..\..\Software\uCOS-III\Source/os_task.c **** ***************************************************************************************************
1552:..\..\..\..\..\..\Software\uCOS-III\Source/os_task.c **** *                                            SET THE SIGNAL COUNTER OF A TASK
1553:..\..\..\..\..\..\Software\uCOS-III\Source/os_task.c **** *
1554:..\..\..\..\..\..\Software\uCOS-III\Source/os_task.c **** * Description: This function is called to clear the signal counter
1555:..\..\..\..\..\..\Software\uCOS-III\Source/os_task.c **** *
1556:..\..\..\..\..\..\Software\uCOS-III\Source/os_task.c **** * Arguments  : p_tcb      is the pointer to the TCB of the task to clear the counter.  If you speci
ARM GAS  C:\Users\EDULU~1.DES\AppData\Local\Temp\ccxcKTgR.s 			page 48


1557:..\..\..\..\..\..\Software\uCOS-III\Source/os_task.c **** *                         then the signal counter of the current task will be cleared.
1558:..\..\..\..\..\..\Software\uCOS-III\Source/os_task.c **** *
1559:..\..\..\..\..\..\Software\uCOS-III\Source/os_task.c **** *              cnt        is the desired value of the semaphore counter
1560:..\..\..\..\..\..\Software\uCOS-III\Source/os_task.c **** *
1561:..\..\..\..\..\..\Software\uCOS-III\Source/os_task.c **** *              p_err      is a pointer to an error code returned by this function
1562:..\..\..\..\..\..\Software\uCOS-III\Source/os_task.c **** *
1563:..\..\..\..\..\..\Software\uCOS-III\Source/os_task.c **** *                             OS_ERR_NONE        if the signal counter of the requested task is cle
1564:..\..\..\..\..\..\Software\uCOS-III\Source/os_task.c **** *                             OS_ERR_SET_ISR     if the function was called from an ISR
1565:..\..\..\..\..\..\Software\uCOS-III\Source/os_task.c **** *
1566:..\..\..\..\..\..\Software\uCOS-III\Source/os_task.c **** * Returns    : none
1567:..\..\..\..\..\..\Software\uCOS-III\Source/os_task.c **** ***************************************************************************************************
1568:..\..\..\..\..\..\Software\uCOS-III\Source/os_task.c **** */
1569:..\..\..\..\..\..\Software\uCOS-III\Source/os_task.c **** 
1570:..\..\..\..\..\..\Software\uCOS-III\Source/os_task.c **** OS_SEM_CTR  OSTaskSemSet (OS_TCB      *p_tcb,
1571:..\..\..\..\..\..\Software\uCOS-III\Source/os_task.c ****                           OS_SEM_CTR   cnt,
1572:..\..\..\..\..\..\Software\uCOS-III\Source/os_task.c ****                           OS_ERR      *p_err)
1573:..\..\..\..\..\..\Software\uCOS-III\Source/os_task.c **** {
 925              		.loc 1 1573 1 view -0
 926              		.cfi_startproc
 927              		@ args = 0, pretend = 0, frame = 8
 928              		@ frame_needed = 0, uses_anonymous_args = 0
 929              		.loc 1 1573 1 is_stmt 0 view .LVU285
 930 0000 F0B5     		push	{r4, r5, r6, r7, lr}
 931              		.cfi_def_cfa_offset 20
 932              		.cfi_offset 4, -20
 933              		.cfi_offset 5, -16
 934              		.cfi_offset 6, -12
 935              		.cfi_offset 7, -8
 936              		.cfi_offset 14, -4
 937 0002 83B0     		sub	sp, sp, #12
 938              		.cfi_def_cfa_offset 32
 939 0004 0400     		movs	r4, r0
 940 0006 0D00     		movs	r5, r1
 941 0008 1700     		movs	r7, r2
1574:..\..\..\..\..\..\Software\uCOS-III\Source/os_task.c ****     OS_SEM_CTR  ctr;
 942              		.loc 1 1574 5 is_stmt 1 view .LVU286
1575:..\..\..\..\..\..\Software\uCOS-III\Source/os_task.c ****     CPU_SR_ALLOC();
 943              		.loc 1 1575 5 view .LVU287
 944              	.LVL104:
1576:..\..\..\..\..\..\Software\uCOS-III\Source/os_task.c **** 
1577:..\..\..\..\..\..\Software\uCOS-III\Source/os_task.c **** 
1578:..\..\..\..\..\..\Software\uCOS-III\Source/os_task.c **** 
1579:..\..\..\..\..\..\Software\uCOS-III\Source/os_task.c **** #ifdef OS_SAFETY_CRITICAL
1580:..\..\..\..\..\..\Software\uCOS-III\Source/os_task.c ****     if (p_err == (OS_ERR *)0) {
1581:..\..\..\..\..\..\Software\uCOS-III\Source/os_task.c ****         OS_SAFETY_CRITICAL_EXCEPTION();
1582:..\..\..\..\..\..\Software\uCOS-III\Source/os_task.c ****         return ((OS_SEM_CTR)0);
1583:..\..\..\..\..\..\Software\uCOS-III\Source/os_task.c ****     }
1584:..\..\..\..\..\..\Software\uCOS-III\Source/os_task.c **** #endif
1585:..\..\..\..\..\..\Software\uCOS-III\Source/os_task.c **** 
1586:..\..\..\..\..\..\Software\uCOS-III\Source/os_task.c **** #if OS_CFG_CALLED_FROM_ISR_CHK_EN > 0u
1587:..\..\..\..\..\..\Software\uCOS-III\Source/os_task.c ****     if (OSIntNestingCtr > (OS_NESTING_CTR)0) {              /* Not allowed to call from an ISR     
 945              		.loc 1 1587 5 view .LVU288
 946              		.loc 1 1587 25 is_stmt 0 view .LVU289
 947 000a 0F4B     		ldr	r3, .L72
 948 000c 1B78     		ldrb	r3, [r3]
 949              		.loc 1 1587 8 view .LVU290
 950 000e 002B     		cmp	r3, #0
ARM GAS  C:\Users\EDULU~1.DES\AppData\Local\Temp\ccxcKTgR.s 			page 49


 951 0010 05D0     		beq	.L68
1588:..\..\..\..\..\..\Software\uCOS-III\Source/os_task.c ****        *p_err = OS_ERR_SET_ISR;
 952              		.loc 1 1588 8 is_stmt 1 view .LVU291
 953              		.loc 1 1588 15 is_stmt 0 view .LVU292
 954 0012 0E4B     		ldr	r3, .L72+4
 955 0014 1380     		strh	r3, [r2]
1589:..\..\..\..\..\..\Software\uCOS-III\Source/os_task.c ****         return ((OS_SEM_CTR)0);
 956              		.loc 1 1589 9 is_stmt 1 view .LVU293
 957              		.loc 1 1589 16 is_stmt 0 view .LVU294
 958 0016 0026     		movs	r6, #0
 959              	.LVL105:
 960              	.L67:
1590:..\..\..\..\..\..\Software\uCOS-III\Source/os_task.c ****     }
1591:..\..\..\..\..\..\Software\uCOS-III\Source/os_task.c **** #endif
1592:..\..\..\..\..\..\Software\uCOS-III\Source/os_task.c **** 
1593:..\..\..\..\..\..\Software\uCOS-III\Source/os_task.c ****     CPU_CRITICAL_ENTER();
1594:..\..\..\..\..\..\Software\uCOS-III\Source/os_task.c ****     if (p_tcb == (OS_TCB *)0) {
1595:..\..\..\..\..\..\Software\uCOS-III\Source/os_task.c ****         p_tcb = OSTCBCurPtr;
1596:..\..\..\..\..\..\Software\uCOS-III\Source/os_task.c ****     }
1597:..\..\..\..\..\..\Software\uCOS-III\Source/os_task.c ****     ctr           = p_tcb->SemCtr;
1598:..\..\..\..\..\..\Software\uCOS-III\Source/os_task.c ****     p_tcb->SemCtr = (OS_SEM_CTR)cnt;
1599:..\..\..\..\..\..\Software\uCOS-III\Source/os_task.c ****     CPU_CRITICAL_EXIT();
1600:..\..\..\..\..\..\Software\uCOS-III\Source/os_task.c ****    *p_err         =  OS_ERR_NONE;
1601:..\..\..\..\..\..\Software\uCOS-III\Source/os_task.c ****     return (ctr);
1602:..\..\..\..\..\..\Software\uCOS-III\Source/os_task.c **** }
 961              		.loc 1 1602 1 view .LVU295
 962 0018 3000     		movs	r0, r6
 963 001a 03B0     		add	sp, sp, #12
 964              		@ sp needed
 965              	.LVL106:
 966              	.LVL107:
 967              	.LVL108:
 968              		.loc 1 1602 1 view .LVU296
 969 001c F0BD     		pop	{r4, r5, r6, r7, pc}
 970              	.LVL109:
 971              	.L68:
1593:..\..\..\..\..\..\Software\uCOS-III\Source/os_task.c ****     if (p_tcb == (OS_TCB *)0) {
 972              		.loc 1 1593 5 is_stmt 1 view .LVU297
1593:..\..\..\..\..\..\Software\uCOS-III\Source/os_task.c ****     if (p_tcb == (OS_TCB *)0) {
 973              		.loc 1 1593 5 view .LVU298
1593:..\..\..\..\..\..\Software\uCOS-III\Source/os_task.c ****     if (p_tcb == (OS_TCB *)0) {
 974              		.loc 1 1593 5 view .LVU299
 975 001e FFF7FEFF 		bl	CPU_SR_Save
 976              	.LVL110:
1593:..\..\..\..\..\..\Software\uCOS-III\Source/os_task.c ****     if (p_tcb == (OS_TCB *)0) {
 977              		.loc 1 1593 5 is_stmt 0 view .LVU300
 978 0022 0190     		str	r0, [sp, #4]
 979              	.LVL111:
1593:..\..\..\..\..\..\Software\uCOS-III\Source/os_task.c ****     if (p_tcb == (OS_TCB *)0) {
 980              		.loc 1 1593 5 is_stmt 1 view .LVU301
 981 0024 FFF7FEFF 		bl	CPU_IntDisMeasStart
 982              	.LVL112:
1594:..\..\..\..\..\..\Software\uCOS-III\Source/os_task.c ****         p_tcb = OSTCBCurPtr;
 983              		.loc 1 1594 5 view .LVU302
1594:..\..\..\..\..\..\Software\uCOS-III\Source/os_task.c ****         p_tcb = OSTCBCurPtr;
 984              		.loc 1 1594 8 is_stmt 0 view .LVU303
 985 0028 002C     		cmp	r4, #0
ARM GAS  C:\Users\EDULU~1.DES\AppData\Local\Temp\ccxcKTgR.s 			page 50


 986 002a 09D0     		beq	.L71
 987              	.L70:
1597:..\..\..\..\..\..\Software\uCOS-III\Source/os_task.c ****     p_tcb->SemCtr = (OS_SEM_CTR)cnt;
 988              		.loc 1 1597 5 is_stmt 1 view .LVU304
1597:..\..\..\..\..\..\Software\uCOS-III\Source/os_task.c ****     p_tcb->SemCtr = (OS_SEM_CTR)cnt;
 989              		.loc 1 1597 19 is_stmt 0 view .LVU305
 990 002c 666C     		ldr	r6, [r4, #68]
 991              	.LVL113:
1598:..\..\..\..\..\..\Software\uCOS-III\Source/os_task.c ****     CPU_CRITICAL_EXIT();
 992              		.loc 1 1598 5 is_stmt 1 view .LVU306
1598:..\..\..\..\..\..\Software\uCOS-III\Source/os_task.c ****     CPU_CRITICAL_EXIT();
 993              		.loc 1 1598 19 is_stmt 0 view .LVU307
 994 002e 6564     		str	r5, [r4, #68]
1599:..\..\..\..\..\..\Software\uCOS-III\Source/os_task.c ****    *p_err         =  OS_ERR_NONE;
 995              		.loc 1 1599 5 is_stmt 1 view .LVU308
1599:..\..\..\..\..\..\Software\uCOS-III\Source/os_task.c ****    *p_err         =  OS_ERR_NONE;
 996              		.loc 1 1599 5 view .LVU309
 997 0030 FFF7FEFF 		bl	CPU_IntDisMeasStop
 998              	.LVL114:
1599:..\..\..\..\..\..\Software\uCOS-III\Source/os_task.c ****    *p_err         =  OS_ERR_NONE;
 999              		.loc 1 1599 5 view .LVU310
1599:..\..\..\..\..\..\Software\uCOS-III\Source/os_task.c ****    *p_err         =  OS_ERR_NONE;
 1000              		.loc 1 1599 5 view .LVU311
 1001 0034 0198     		ldr	r0, [sp, #4]
 1002 0036 FFF7FEFF 		bl	CPU_SR_Restore
 1003              	.LVL115:
1600:..\..\..\..\..\..\Software\uCOS-III\Source/os_task.c ****     return (ctr);
 1004              		.loc 1 1600 4 view .LVU312
1600:..\..\..\..\..\..\Software\uCOS-III\Source/os_task.c ****     return (ctr);
 1005              		.loc 1 1600 19 is_stmt 0 view .LVU313
 1006 003a 0023     		movs	r3, #0
 1007 003c 3B80     		strh	r3, [r7]
1601:..\..\..\..\..\..\Software\uCOS-III\Source/os_task.c **** }
 1008              		.loc 1 1601 5 is_stmt 1 view .LVU314
1601:..\..\..\..\..\..\Software\uCOS-III\Source/os_task.c **** }
 1009              		.loc 1 1601 12 is_stmt 0 view .LVU315
 1010 003e EBE7     		b	.L67
 1011              	.LVL116:
 1012              	.L71:
1595:..\..\..\..\..\..\Software\uCOS-III\Source/os_task.c ****     }
 1013              		.loc 1 1595 9 is_stmt 1 view .LVU316
1595:..\..\..\..\..\..\Software\uCOS-III\Source/os_task.c ****     }
 1014              		.loc 1 1595 15 is_stmt 0 view .LVU317
 1015 0040 034B     		ldr	r3, .L72+8
 1016 0042 1C68     		ldr	r4, [r3]
 1017              	.LVL117:
1595:..\..\..\..\..\..\Software\uCOS-III\Source/os_task.c ****     }
 1018              		.loc 1 1595 15 view .LVU318
 1019 0044 F2E7     		b	.L70
 1020              	.L73:
 1021 0046 C046     		.align	2
 1022              	.L72:
 1023 0048 00000000 		.word	OSIntNestingCtr
 1024 004c C66D0000 		.word	28102
 1025 0050 00000000 		.word	OSTCBCurPtr
 1026              		.cfi_endproc
 1027              	.LFE11:
ARM GAS  C:\Users\EDULU~1.DES\AppData\Local\Temp\ccxcKTgR.s 			page 51


 1028              		.size	OSTaskSemSet, .-OSTaskSemSet
 1029              		.section	.text.OSTaskStkChk,"ax",%progbits
 1030              		.align	1
 1031              		.global	OSTaskStkChk
 1032              		.syntax unified
 1033              		.code	16
 1034              		.thumb_func
 1035              		.fpu softvfp
 1036              		.type	OSTaskStkChk, %function
 1037              	OSTaskStkChk:
 1038              	.LVL118:
 1039              	.LFB12:
1603:..\..\..\..\..\..\Software\uCOS-III\Source/os_task.c **** 
1604:..\..\..\..\..\..\Software\uCOS-III\Source/os_task.c **** /*$PAGE*/
1605:..\..\..\..\..\..\Software\uCOS-III\Source/os_task.c **** /*
1606:..\..\..\..\..\..\Software\uCOS-III\Source/os_task.c **** ***************************************************************************************************
1607:..\..\..\..\..\..\Software\uCOS-III\Source/os_task.c **** *                                                    STACK CHECKING
1608:..\..\..\..\..\..\Software\uCOS-III\Source/os_task.c **** *
1609:..\..\..\..\..\..\Software\uCOS-III\Source/os_task.c **** * Description: This function is called to calculate the amount of free memory left on the specified
1610:..\..\..\..\..\..\Software\uCOS-III\Source/os_task.c **** *
1611:..\..\..\..\..\..\Software\uCOS-III\Source/os_task.c **** * Arguments  : p_tcb       is a pointer to the TCB of the task to check.  If you specify a NULL poi
1612:..\..\..\..\..\..\Software\uCOS-III\Source/os_task.c **** *                          you are specifying that you want to check the stack of the current task.
1613:..\..\..\..\..\..\Software\uCOS-III\Source/os_task.c **** *
1614:..\..\..\..\..\..\Software\uCOS-III\Source/os_task.c **** *              p_free      is a pointer to a variable that will receive the number of free 'entries
1615:..\..\..\..\..\..\Software\uCOS-III\Source/os_task.c **** *
1616:..\..\..\..\..\..\Software\uCOS-III\Source/os_task.c **** *              p_used      is a pointer to a variable that will receive the number of used 'entries
1617:..\..\..\..\..\..\Software\uCOS-III\Source/os_task.c **** *
1618:..\..\..\..\..\..\Software\uCOS-III\Source/os_task.c **** *              p_err       is a pointer to a variable that will contain an error code.
1619:..\..\..\..\..\..\Software\uCOS-III\Source/os_task.c **** *
1620:..\..\..\..\..\..\Software\uCOS-III\Source/os_task.c **** *                              OS_ERR_NONE               upon success
1621:..\..\..\..\..\..\Software\uCOS-III\Source/os_task.c **** *                              OS_ERR_PTR_INVALID        if either 'p_free' or 'p_used' are NULL po
1622:..\..\..\..\..\..\Software\uCOS-III\Source/os_task.c **** *                              OS_ERR_TASK_NOT_EXIST     if the stack pointer of the task is a NULL
1623:..\..\..\..\..\..\Software\uCOS-III\Source/os_task.c **** *                              OS_ERR_TASK_OPT           if you did NOT specified OS_OPT_TASK_STK_C
1624:..\..\..\..\..\..\Software\uCOS-III\Source/os_task.c **** *                                                        was created
1625:..\..\..\..\..\..\Software\uCOS-III\Source/os_task.c **** *                              OS_ERR_TASK_STK_CHK_ISR   you called this function from an ISR
1626:..\..\..\..\..\..\Software\uCOS-III\Source/os_task.c **** ***************************************************************************************************
1627:..\..\..\..\..\..\Software\uCOS-III\Source/os_task.c **** */
1628:..\..\..\..\..\..\Software\uCOS-III\Source/os_task.c **** 
1629:..\..\..\..\..\..\Software\uCOS-III\Source/os_task.c **** #if OS_CFG_STAT_TASK_STK_CHK_EN > 0u
1630:..\..\..\..\..\..\Software\uCOS-III\Source/os_task.c **** void  OSTaskStkChk (OS_TCB        *p_tcb,
1631:..\..\..\..\..\..\Software\uCOS-III\Source/os_task.c ****                     CPU_STK_SIZE  *p_free,
1632:..\..\..\..\..\..\Software\uCOS-III\Source/os_task.c ****                     CPU_STK_SIZE  *p_used,
1633:..\..\..\..\..\..\Software\uCOS-III\Source/os_task.c ****                     OS_ERR        *p_err)
1634:..\..\..\..\..\..\Software\uCOS-III\Source/os_task.c **** {
 1040              		.loc 1 1634 1 is_stmt 1 view -0
 1041              		.cfi_startproc
 1042              		@ args = 0, pretend = 0, frame = 8
 1043              		@ frame_needed = 0, uses_anonymous_args = 0
 1044              		.loc 1 1634 1 is_stmt 0 view .LVU320
 1045 0000 F0B5     		push	{r4, r5, r6, r7, lr}
 1046              		.cfi_def_cfa_offset 20
 1047              		.cfi_offset 4, -20
 1048              		.cfi_offset 5, -16
 1049              		.cfi_offset 6, -12
 1050              		.cfi_offset 7, -8
 1051              		.cfi_offset 14, -4
 1052 0002 83B0     		sub	sp, sp, #12
ARM GAS  C:\Users\EDULU~1.DES\AppData\Local\Temp\ccxcKTgR.s 			page 52


 1053              		.cfi_def_cfa_offset 32
 1054 0004 0400     		movs	r4, r0
 1055 0006 0D00     		movs	r5, r1
 1056 0008 1700     		movs	r7, r2
 1057 000a 1E00     		movs	r6, r3
1635:..\..\..\..\..\..\Software\uCOS-III\Source/os_task.c ****     CPU_STK_SIZE  free_stk;
 1058              		.loc 1 1635 5 is_stmt 1 view .LVU321
1636:..\..\..\..\..\..\Software\uCOS-III\Source/os_task.c ****     CPU_STK      *p_stk;
 1059              		.loc 1 1636 5 view .LVU322
1637:..\..\..\..\..\..\Software\uCOS-III\Source/os_task.c ****     CPU_SR_ALLOC();
 1060              		.loc 1 1637 5 view .LVU323
 1061              	.LVL119:
1638:..\..\..\..\..\..\Software\uCOS-III\Source/os_task.c **** 
1639:..\..\..\..\..\..\Software\uCOS-III\Source/os_task.c **** 
1640:..\..\..\..\..\..\Software\uCOS-III\Source/os_task.c **** 
1641:..\..\..\..\..\..\Software\uCOS-III\Source/os_task.c **** #ifdef OS_SAFETY_CRITICAL
1642:..\..\..\..\..\..\Software\uCOS-III\Source/os_task.c ****     if (p_err == (OS_ERR *)0) {
1643:..\..\..\..\..\..\Software\uCOS-III\Source/os_task.c ****         OS_SAFETY_CRITICAL_EXCEPTION();
1644:..\..\..\..\..\..\Software\uCOS-III\Source/os_task.c ****         return;
1645:..\..\..\..\..\..\Software\uCOS-III\Source/os_task.c ****     }
1646:..\..\..\..\..\..\Software\uCOS-III\Source/os_task.c **** #endif
1647:..\..\..\..\..\..\Software\uCOS-III\Source/os_task.c **** 
1648:..\..\..\..\..\..\Software\uCOS-III\Source/os_task.c **** #if OS_CFG_CALLED_FROM_ISR_CHK_EN > 0u
1649:..\..\..\..\..\..\Software\uCOS-III\Source/os_task.c ****     if (OSIntNestingCtr > (OS_NESTING_CTR)0) {              /* See if trying to check stack from IS
 1062              		.loc 1 1649 5 view .LVU324
 1063              		.loc 1 1649 25 is_stmt 0 view .LVU325
 1064 000c 254B     		ldr	r3, .L91
 1065              	.LVL120:
 1066              		.loc 1 1649 25 view .LVU326
 1067 000e 1B78     		ldrb	r3, [r3]
 1068              		.loc 1 1649 8 view .LVU327
 1069 0010 002B     		cmp	r3, #0
 1070 0012 1DD1     		bne	.L84
1650:..\..\..\..\..\..\Software\uCOS-III\Source/os_task.c ****        *p_err = OS_ERR_TASK_STK_CHK_ISR;
1651:..\..\..\..\..\..\Software\uCOS-III\Source/os_task.c ****         return;
1652:..\..\..\..\..\..\Software\uCOS-III\Source/os_task.c ****     }
1653:..\..\..\..\..\..\Software\uCOS-III\Source/os_task.c **** #endif
1654:..\..\..\..\..\..\Software\uCOS-III\Source/os_task.c **** 
1655:..\..\..\..\..\..\Software\uCOS-III\Source/os_task.c **** #if OS_CFG_ARG_CHK_EN > 0u
1656:..\..\..\..\..\..\Software\uCOS-III\Source/os_task.c ****     if (p_free == (CPU_STK_SIZE*)0) {                       /* User must specify valid destinations
 1071              		.loc 1 1656 5 is_stmt 1 view .LVU328
 1072              		.loc 1 1656 8 is_stmt 0 view .LVU329
 1073 0014 0029     		cmp	r1, #0
 1074 0016 1FD0     		beq	.L85
1657:..\..\..\..\..\..\Software\uCOS-III\Source/os_task.c ****        *p_err  = OS_ERR_PTR_INVALID;
1658:..\..\..\..\..\..\Software\uCOS-III\Source/os_task.c ****         return;
1659:..\..\..\..\..\..\Software\uCOS-III\Source/os_task.c ****     }
1660:..\..\..\..\..\..\Software\uCOS-III\Source/os_task.c **** 
1661:..\..\..\..\..\..\Software\uCOS-III\Source/os_task.c ****     if (p_used == (CPU_STK_SIZE*)0) {
 1075              		.loc 1 1661 5 is_stmt 1 view .LVU330
 1076              		.loc 1 1661 8 is_stmt 0 view .LVU331
 1077 0018 002A     		cmp	r2, #0
 1078 001a 20D0     		beq	.L86
1662:..\..\..\..\..\..\Software\uCOS-III\Source/os_task.c ****        *p_err  = OS_ERR_PTR_INVALID;
1663:..\..\..\..\..\..\Software\uCOS-III\Source/os_task.c ****         return;
1664:..\..\..\..\..\..\Software\uCOS-III\Source/os_task.c ****     }
1665:..\..\..\..\..\..\Software\uCOS-III\Source/os_task.c **** #endif
ARM GAS  C:\Users\EDULU~1.DES\AppData\Local\Temp\ccxcKTgR.s 			page 53


1666:..\..\..\..\..\..\Software\uCOS-III\Source/os_task.c **** 
1667:..\..\..\..\..\..\Software\uCOS-III\Source/os_task.c ****     CPU_CRITICAL_ENTER();
 1079              		.loc 1 1667 5 is_stmt 1 view .LVU332
 1080              		.loc 1 1667 5 view .LVU333
 1081              		.loc 1 1667 5 view .LVU334
 1082 001c FFF7FEFF 		bl	CPU_SR_Save
 1083              	.LVL121:
 1084              		.loc 1 1667 5 is_stmt 0 view .LVU335
 1085 0020 0190     		str	r0, [sp, #4]
 1086              	.LVL122:
 1087              		.loc 1 1667 5 is_stmt 1 view .LVU336
 1088 0022 FFF7FEFF 		bl	CPU_IntDisMeasStart
 1089              	.LVL123:
1668:..\..\..\..\..\..\Software\uCOS-III\Source/os_task.c ****     if (p_tcb == (OS_TCB *)0) {                             /* Check the stack of the current task?
 1090              		.loc 1 1668 5 view .LVU337
 1091              		.loc 1 1668 8 is_stmt 0 view .LVU338
 1092 0026 002C     		cmp	r4, #0
 1093 0028 1CD0     		beq	.L87
 1094              	.L79:
1669:..\..\..\..\..\..\Software\uCOS-III\Source/os_task.c ****         p_tcb = OSTCBCurPtr;                                /* Yes                                 
1670:..\..\..\..\..\..\Software\uCOS-III\Source/os_task.c ****     }
1671:..\..\..\..\..\..\Software\uCOS-III\Source/os_task.c **** 
1672:..\..\..\..\..\..\Software\uCOS-III\Source/os_task.c ****     if (p_tcb->StkPtr == (CPU_STK*)0) {                     /* Make sure task exist                
 1095              		.loc 1 1672 5 is_stmt 1 view .LVU339
 1096              		.loc 1 1672 8 is_stmt 0 view .LVU340
 1097 002a 2368     		ldr	r3, [r4]
 1098 002c 002B     		cmp	r3, #0
 1099 002e 1CD0     		beq	.L88
1673:..\..\..\..\..\..\Software\uCOS-III\Source/os_task.c ****         CPU_CRITICAL_EXIT();
1674:..\..\..\..\..\..\Software\uCOS-III\Source/os_task.c ****        *p_free = (CPU_STK_SIZE)0;
1675:..\..\..\..\..\..\Software\uCOS-III\Source/os_task.c ****        *p_used = (CPU_STK_SIZE)0;
1676:..\..\..\..\..\..\Software\uCOS-III\Source/os_task.c ****        *p_err  =  OS_ERR_TASK_NOT_EXIST;
1677:..\..\..\..\..\..\Software\uCOS-III\Source/os_task.c ****         return;
1678:..\..\..\..\..\..\Software\uCOS-III\Source/os_task.c ****     }
1679:..\..\..\..\..\..\Software\uCOS-III\Source/os_task.c **** 
1680:..\..\..\..\..\..\Software\uCOS-III\Source/os_task.c ****     if ((p_tcb->Opt & OS_OPT_TASK_STK_CHK) == (OS_OPT)0) {  /* Make sure stack checking option is s
 1100              		.loc 1 1680 5 is_stmt 1 view .LVU341
 1101              		.loc 1 1680 15 is_stmt 0 view .LVU342
 1102 0030 A38F     		ldrh	r3, [r4, #60]
 1103              		.loc 1 1680 8 view .LVU343
 1104 0032 DB07     		lsls	r3, r3, #31
 1105 0034 24D5     		bpl	.L89
1681:..\..\..\..\..\..\Software\uCOS-III\Source/os_task.c ****         CPU_CRITICAL_EXIT();
1682:..\..\..\..\..\..\Software\uCOS-III\Source/os_task.c ****        *p_free = (CPU_STK_SIZE)0;
1683:..\..\..\..\..\..\Software\uCOS-III\Source/os_task.c ****        *p_used = (CPU_STK_SIZE)0;
1684:..\..\..\..\..\..\Software\uCOS-III\Source/os_task.c ****        *p_err  =  OS_ERR_TASK_OPT;
1685:..\..\..\..\..\..\Software\uCOS-III\Source/os_task.c ****         return;
1686:..\..\..\..\..\..\Software\uCOS-III\Source/os_task.c ****     }
1687:..\..\..\..\..\..\Software\uCOS-III\Source/os_task.c ****     CPU_CRITICAL_EXIT();
 1106              		.loc 1 1687 5 is_stmt 1 view .LVU344
 1107              		.loc 1 1687 5 view .LVU345
 1108 0036 FFF7FEFF 		bl	CPU_IntDisMeasStop
 1109              	.LVL124:
 1110              		.loc 1 1687 5 view .LVU346
 1111              		.loc 1 1687 5 view .LVU347
 1112 003a 0198     		ldr	r0, [sp, #4]
 1113 003c FFF7FEFF 		bl	CPU_SR_Restore
ARM GAS  C:\Users\EDULU~1.DES\AppData\Local\Temp\ccxcKTgR.s 			page 54


 1114              	.LVL125:
1688:..\..\..\..\..\..\Software\uCOS-III\Source/os_task.c **** 
1689:..\..\..\..\..\..\Software\uCOS-III\Source/os_task.c ****     free_stk  = 0u;
 1115              		.loc 1 1689 5 view .LVU348
1690:..\..\..\..\..\..\Software\uCOS-III\Source/os_task.c **** #if CPU_CFG_STK_GROWTH == CPU_STK_GROWTH_HI_TO_LO
1691:..\..\..\..\..\..\Software\uCOS-III\Source/os_task.c ****     p_stk = p_tcb->StkBasePtr;                              /* Start at the lowest memory and go up
 1116              		.loc 1 1691 5 view .LVU349
 1117              		.loc 1 1691 11 is_stmt 0 view .LVU350
 1118 0040 636A     		ldr	r3, [r4, #36]
 1119              	.LVL126:
1692:..\..\..\..\..\..\Software\uCOS-III\Source/os_task.c ****     while (*p_stk == (CPU_STK)0) {                          /* Compute the number of zero entries o
 1120              		.loc 1 1692 5 is_stmt 1 view .LVU351
1689:..\..\..\..\..\..\Software\uCOS-III\Source/os_task.c **** #if CPU_CFG_STK_GROWTH == CPU_STK_GROWTH_HI_TO_LO
 1121              		.loc 1 1689 15 is_stmt 0 view .LVU352
 1122 0042 0022     		movs	r2, #0
 1123              	.LVL127:
 1124              	.L82:
 1125              		.loc 1 1692 11 view .LVU353
 1126 0044 1968     		ldr	r1, [r3]
 1127 0046 0029     		cmp	r1, #0
 1128 0048 25D1     		bne	.L90
1693:..\..\..\..\..\..\Software\uCOS-III\Source/os_task.c ****         p_stk++;
 1129              		.loc 1 1693 9 is_stmt 1 view .LVU354
 1130              		.loc 1 1693 14 is_stmt 0 view .LVU355
 1131 004a 0433     		adds	r3, r3, #4
 1132              	.LVL128:
1694:..\..\..\..\..\..\Software\uCOS-III\Source/os_task.c ****         free_stk++;
 1133              		.loc 1 1694 9 is_stmt 1 view .LVU356
 1134              		.loc 1 1694 17 is_stmt 0 view .LVU357
 1135 004c 0132     		adds	r2, r2, #1
 1136              	.LVL129:
 1137              		.loc 1 1694 17 view .LVU358
 1138 004e F9E7     		b	.L82
 1139              	.LVL130:
 1140              	.L84:
1650:..\..\..\..\..\..\Software\uCOS-III\Source/os_task.c ****         return;
 1141              		.loc 1 1650 8 is_stmt 1 view .LVU359
1650:..\..\..\..\..\..\Software\uCOS-III\Source/os_task.c ****         return;
 1142              		.loc 1 1650 15 is_stmt 0 view .LVU360
 1143 0050 154B     		ldr	r3, .L91+4
 1144 0052 3380     		strh	r3, [r6]
1651:..\..\..\..\..\..\Software\uCOS-III\Source/os_task.c ****     }
 1145              		.loc 1 1651 9 is_stmt 1 view .LVU361
 1146              	.LVL131:
 1147              	.L74:
1695:..\..\..\..\..\..\Software\uCOS-III\Source/os_task.c ****     }
1696:..\..\..\..\..\..\Software\uCOS-III\Source/os_task.c **** #else
1697:..\..\..\..\..\..\Software\uCOS-III\Source/os_task.c ****     p_stk = p_tcb->StkBasePtr + p_tcb->StkSize - 1u;        /* Start at the highest memory and go d
1698:..\..\..\..\..\..\Software\uCOS-III\Source/os_task.c ****     while (*p_stk == (CPU_STK)0) {
1699:..\..\..\..\..\..\Software\uCOS-III\Source/os_task.c ****         free_stk++;
1700:..\..\..\..\..\..\Software\uCOS-III\Source/os_task.c ****         p_stk--;
1701:..\..\..\..\..\..\Software\uCOS-III\Source/os_task.c ****     }
1702:..\..\..\..\..\..\Software\uCOS-III\Source/os_task.c **** #endif
1703:..\..\..\..\..\..\Software\uCOS-III\Source/os_task.c ****    *p_free = free_stk;
1704:..\..\..\..\..\..\Software\uCOS-III\Source/os_task.c ****    *p_used = (p_tcb->StkSize - free_stk);                   /* Compute number of entries used on th
1705:..\..\..\..\..\..\Software\uCOS-III\Source/os_task.c ****    *p_err  = OS_ERR_NONE;
1706:..\..\..\..\..\..\Software\uCOS-III\Source/os_task.c **** }
ARM GAS  C:\Users\EDULU~1.DES\AppData\Local\Temp\ccxcKTgR.s 			page 55


 1148              		.loc 1 1706 1 is_stmt 0 view .LVU362
 1149 0054 03B0     		add	sp, sp, #12
 1150              		@ sp needed
 1151              	.LVL132:
 1152              	.LVL133:
 1153              	.LVL134:
 1154              	.LVL135:
 1155              		.loc 1 1706 1 view .LVU363
 1156 0056 F0BD     		pop	{r4, r5, r6, r7, pc}
 1157              	.LVL136:
 1158              	.L85:
1657:..\..\..\..\..\..\Software\uCOS-III\Source/os_task.c ****         return;
 1159              		.loc 1 1657 8 is_stmt 1 view .LVU364
1657:..\..\..\..\..\..\Software\uCOS-III\Source/os_task.c ****         return;
 1160              		.loc 1 1657 16 is_stmt 0 view .LVU365
 1161 0058 144B     		ldr	r3, .L91+8
 1162 005a 3380     		strh	r3, [r6]
1658:..\..\..\..\..\..\Software\uCOS-III\Source/os_task.c ****     }
 1163              		.loc 1 1658 9 is_stmt 1 view .LVU366
 1164 005c FAE7     		b	.L74
 1165              	.L86:
1662:..\..\..\..\..\..\Software\uCOS-III\Source/os_task.c ****         return;
 1166              		.loc 1 1662 8 view .LVU367
1662:..\..\..\..\..\..\Software\uCOS-III\Source/os_task.c ****         return;
 1167              		.loc 1 1662 16 is_stmt 0 view .LVU368
 1168 005e 134B     		ldr	r3, .L91+8
 1169 0060 3380     		strh	r3, [r6]
1663:..\..\..\..\..\..\Software\uCOS-III\Source/os_task.c ****     }
 1170              		.loc 1 1663 9 is_stmt 1 view .LVU369
 1171 0062 F7E7     		b	.L74
 1172              	.LVL137:
 1173              	.L87:
1669:..\..\..\..\..\..\Software\uCOS-III\Source/os_task.c ****     }
 1174              		.loc 1 1669 9 view .LVU370
1669:..\..\..\..\..\..\Software\uCOS-III\Source/os_task.c ****     }
 1175              		.loc 1 1669 15 is_stmt 0 view .LVU371
 1176 0064 124B     		ldr	r3, .L91+12
 1177 0066 1C68     		ldr	r4, [r3]
 1178              	.LVL138:
1669:..\..\..\..\..\..\Software\uCOS-III\Source/os_task.c ****     }
 1179              		.loc 1 1669 15 view .LVU372
 1180 0068 DFE7     		b	.L79
 1181              	.L88:
1673:..\..\..\..\..\..\Software\uCOS-III\Source/os_task.c ****        *p_free = (CPU_STK_SIZE)0;
 1182              		.loc 1 1673 9 is_stmt 1 view .LVU373
1673:..\..\..\..\..\..\Software\uCOS-III\Source/os_task.c ****        *p_free = (CPU_STK_SIZE)0;
 1183              		.loc 1 1673 9 view .LVU374
 1184 006a FFF7FEFF 		bl	CPU_IntDisMeasStop
 1185              	.LVL139:
1673:..\..\..\..\..\..\Software\uCOS-III\Source/os_task.c ****        *p_free = (CPU_STK_SIZE)0;
 1186              		.loc 1 1673 9 view .LVU375
1673:..\..\..\..\..\..\Software\uCOS-III\Source/os_task.c ****        *p_free = (CPU_STK_SIZE)0;
 1187              		.loc 1 1673 9 view .LVU376
 1188 006e 0198     		ldr	r0, [sp, #4]
 1189 0070 FFF7FEFF 		bl	CPU_SR_Restore
 1190              	.LVL140:
1674:..\..\..\..\..\..\Software\uCOS-III\Source/os_task.c ****        *p_used = (CPU_STK_SIZE)0;
ARM GAS  C:\Users\EDULU~1.DES\AppData\Local\Temp\ccxcKTgR.s 			page 56


 1191              		.loc 1 1674 8 view .LVU377
1674:..\..\..\..\..\..\Software\uCOS-III\Source/os_task.c ****        *p_used = (CPU_STK_SIZE)0;
 1192              		.loc 1 1674 16 is_stmt 0 view .LVU378
 1193 0074 0023     		movs	r3, #0
 1194 0076 2B60     		str	r3, [r5]
1675:..\..\..\..\..\..\Software\uCOS-III\Source/os_task.c ****        *p_err  =  OS_ERR_TASK_NOT_EXIST;
 1195              		.loc 1 1675 8 is_stmt 1 view .LVU379
1675:..\..\..\..\..\..\Software\uCOS-III\Source/os_task.c ****        *p_err  =  OS_ERR_TASK_NOT_EXIST;
 1196              		.loc 1 1675 16 is_stmt 0 view .LVU380
 1197 0078 3B60     		str	r3, [r7]
1676:..\..\..\..\..\..\Software\uCOS-III\Source/os_task.c ****         return;
 1198              		.loc 1 1676 8 is_stmt 1 view .LVU381
1676:..\..\..\..\..\..\Software\uCOS-III\Source/os_task.c ****         return;
 1199              		.loc 1 1676 16 is_stmt 0 view .LVU382
 1200 007a 0E4B     		ldr	r3, .L91+16
 1201 007c 3380     		strh	r3, [r6]
1677:..\..\..\..\..\..\Software\uCOS-III\Source/os_task.c ****     }
 1202              		.loc 1 1677 9 is_stmt 1 view .LVU383
 1203 007e E9E7     		b	.L74
 1204              	.L89:
1681:..\..\..\..\..\..\Software\uCOS-III\Source/os_task.c ****        *p_free = (CPU_STK_SIZE)0;
 1205              		.loc 1 1681 9 view .LVU384
1681:..\..\..\..\..\..\Software\uCOS-III\Source/os_task.c ****        *p_free = (CPU_STK_SIZE)0;
 1206              		.loc 1 1681 9 view .LVU385
 1207 0080 FFF7FEFF 		bl	CPU_IntDisMeasStop
 1208              	.LVL141:
1681:..\..\..\..\..\..\Software\uCOS-III\Source/os_task.c ****        *p_free = (CPU_STK_SIZE)0;
 1209              		.loc 1 1681 9 view .LVU386
1681:..\..\..\..\..\..\Software\uCOS-III\Source/os_task.c ****        *p_free = (CPU_STK_SIZE)0;
 1210              		.loc 1 1681 9 view .LVU387
 1211 0084 0198     		ldr	r0, [sp, #4]
 1212 0086 FFF7FEFF 		bl	CPU_SR_Restore
 1213              	.LVL142:
1682:..\..\..\..\..\..\Software\uCOS-III\Source/os_task.c ****        *p_used = (CPU_STK_SIZE)0;
 1214              		.loc 1 1682 8 view .LVU388
1682:..\..\..\..\..\..\Software\uCOS-III\Source/os_task.c ****        *p_used = (CPU_STK_SIZE)0;
 1215              		.loc 1 1682 16 is_stmt 0 view .LVU389
 1216 008a 0023     		movs	r3, #0
 1217 008c 2B60     		str	r3, [r5]
1683:..\..\..\..\..\..\Software\uCOS-III\Source/os_task.c ****        *p_err  =  OS_ERR_TASK_OPT;
 1218              		.loc 1 1683 8 is_stmt 1 view .LVU390
1683:..\..\..\..\..\..\Software\uCOS-III\Source/os_task.c ****        *p_err  =  OS_ERR_TASK_OPT;
 1219              		.loc 1 1683 16 is_stmt 0 view .LVU391
 1220 008e 3B60     		str	r3, [r7]
1684:..\..\..\..\..\..\Software\uCOS-III\Source/os_task.c ****         return;
 1221              		.loc 1 1684 8 is_stmt 1 view .LVU392
1684:..\..\..\..\..\..\Software\uCOS-III\Source/os_task.c ****         return;
 1222              		.loc 1 1684 16 is_stmt 0 view .LVU393
 1223 0090 094B     		ldr	r3, .L91+20
 1224 0092 3380     		strh	r3, [r6]
1685:..\..\..\..\..\..\Software\uCOS-III\Source/os_task.c ****     }
 1225              		.loc 1 1685 9 is_stmt 1 view .LVU394
 1226 0094 DEE7     		b	.L74
 1227              	.LVL143:
 1228              	.L90:
1703:..\..\..\..\..\..\Software\uCOS-III\Source/os_task.c ****    *p_used = (p_tcb->StkSize - free_stk);                   /* Compute number of entries used on th
 1229              		.loc 1 1703 4 view .LVU395
ARM GAS  C:\Users\EDULU~1.DES\AppData\Local\Temp\ccxcKTgR.s 			page 57


1703:..\..\..\..\..\..\Software\uCOS-III\Source/os_task.c ****    *p_used = (p_tcb->StkSize - free_stk);                   /* Compute number of entries used on th
 1230              		.loc 1 1703 12 is_stmt 0 view .LVU396
 1231 0096 2A60     		str	r2, [r5]
1704:..\..\..\..\..\..\Software\uCOS-III\Source/os_task.c ****    *p_err  = OS_ERR_NONE;
 1232              		.loc 1 1704 4 is_stmt 1 view .LVU397
1704:..\..\..\..\..\..\Software\uCOS-III\Source/os_task.c ****    *p_err  = OS_ERR_NONE;
 1233              		.loc 1 1704 20 is_stmt 0 view .LVU398
 1234 0098 A36B     		ldr	r3, [r4, #56]
 1235              	.LVL144:
1704:..\..\..\..\..\..\Software\uCOS-III\Source/os_task.c ****    *p_err  = OS_ERR_NONE;
 1236              		.loc 1 1704 30 view .LVU399
 1237 009a 9A1A     		subs	r2, r3, r2
 1238              	.LVL145:
1704:..\..\..\..\..\..\Software\uCOS-III\Source/os_task.c ****    *p_err  = OS_ERR_NONE;
 1239              		.loc 1 1704 12 view .LVU400
 1240 009c 3A60     		str	r2, [r7]
 1241              	.LVL146:
1705:..\..\..\..\..\..\Software\uCOS-III\Source/os_task.c **** }
 1242              		.loc 1 1705 4 is_stmt 1 view .LVU401
1705:..\..\..\..\..\..\Software\uCOS-III\Source/os_task.c **** }
 1243              		.loc 1 1705 12 is_stmt 0 view .LVU402
 1244 009e 0023     		movs	r3, #0
 1245 00a0 3380     		strh	r3, [r6]
 1246 00a2 D7E7     		b	.L74
 1247              	.L92:
 1248              		.align	2
 1249              	.L91:
 1250 00a4 00000000 		.word	OSIntNestingCtr
 1251 00a8 59710000 		.word	29017
 1252 00ac D5620000 		.word	25301
 1253 00b0 00000000 		.word	OSTCBCurPtr
 1254 00b4 52710000 		.word	29010
 1255 00b8 54710000 		.word	29012
 1256              		.cfi_endproc
 1257              	.LFE12:
 1258              		.size	OSTaskStkChk, .-OSTaskStkChk
 1259              		.section	.text.OS_TaskDbgListAdd,"ax",%progbits
 1260              		.align	1
 1261              		.global	OS_TaskDbgListAdd
 1262              		.syntax unified
 1263              		.code	16
 1264              		.thumb_func
 1265              		.fpu softvfp
 1266              		.type	OS_TaskDbgListAdd, %function
 1267              	OS_TaskDbgListAdd:
 1268              	.LVL147:
 1269              	.LFB14:
1707:..\..\..\..\..\..\Software\uCOS-III\Source/os_task.c **** #endif
1708:..\..\..\..\..\..\Software\uCOS-III\Source/os_task.c **** 
1709:..\..\..\..\..\..\Software\uCOS-III\Source/os_task.c **** /*$PAGE*/
1710:..\..\..\..\..\..\Software\uCOS-III\Source/os_task.c **** /*
1711:..\..\..\..\..\..\Software\uCOS-III\Source/os_task.c **** ***************************************************************************************************
1712:..\..\..\..\..\..\Software\uCOS-III\Source/os_task.c **** *                                                   SUSPEND A TASK
1713:..\..\..\..\..\..\Software\uCOS-III\Source/os_task.c **** *
1714:..\..\..\..\..\..\Software\uCOS-III\Source/os_task.c **** * Description: This function is called to suspend a task.  The task can be the calling task if 'p_t
1715:..\..\..\..\..\..\Software\uCOS-III\Source/os_task.c **** *              or the pointer to the TCB of the calling task.
1716:..\..\..\..\..\..\Software\uCOS-III\Source/os_task.c **** *
ARM GAS  C:\Users\EDULU~1.DES\AppData\Local\Temp\ccxcKTgR.s 			page 58


1717:..\..\..\..\..\..\Software\uCOS-III\Source/os_task.c **** * Arguments  : p_tcb    is a pointer to the TCB to suspend.
1718:..\..\..\..\..\..\Software\uCOS-III\Source/os_task.c **** *                       If p_tcb is a NULL pointer then, suspend the current task.
1719:..\..\..\..\..\..\Software\uCOS-III\Source/os_task.c **** *
1720:..\..\..\..\..\..\Software\uCOS-III\Source/os_task.c **** *              p_err    is a pointer to a variable that will receive an error code from this functi
1721:..\..\..\..\..\..\Software\uCOS-III\Source/os_task.c **** *
1722:..\..\..\..\..\..\Software\uCOS-III\Source/os_task.c **** *                           OS_ERR_NONE                      if the requested task is suspended
1723:..\..\..\..\..\..\Software\uCOS-III\Source/os_task.c **** *                           OS_ERR_SCHED_LOCKED              you can't suspend the current task is 
1724:..\..\..\..\..\..\Software\uCOS-III\Source/os_task.c **** *                                                            locked
1725:..\..\..\..\..\..\Software\uCOS-III\Source/os_task.c **** *                           OS_ERR_TASK_SUSPEND_ISR          if you called this function from an IS
1726:..\..\..\..\..\..\Software\uCOS-III\Source/os_task.c **** *                           OS_ERR_TASK_SUSPEND_IDLE         if you attempted to suspend the idle t
1727:..\..\..\..\..\..\Software\uCOS-III\Source/os_task.c **** *                                                            allowed.
1728:..\..\..\..\..\..\Software\uCOS-III\Source/os_task.c **** *                           OS_ERR_TASK_SUSPEND_INT_HANDLER  if you attempted to suspend the idle t
1729:..\..\..\..\..\..\Software\uCOS-III\Source/os_task.c **** *                                                            allowed.
1730:..\..\..\..\..\..\Software\uCOS-III\Source/os_task.c **** *
1731:..\..\..\..\..\..\Software\uCOS-III\Source/os_task.c **** * Note(s)    : 1) You should use this function with great care.  If you suspend a task that is wait
1732:..\..\..\..\..\..\Software\uCOS-III\Source/os_task.c **** *                 (i.e. a message, a semaphore, a queue ...) you will prevent this task from runnin
1733:..\..\..\..\..\..\Software\uCOS-III\Source/os_task.c **** *                 arrives.
1734:..\..\..\..\..\..\Software\uCOS-III\Source/os_task.c **** ***************************************************************************************************
1735:..\..\..\..\..\..\Software\uCOS-III\Source/os_task.c **** */
1736:..\..\..\..\..\..\Software\uCOS-III\Source/os_task.c **** 
1737:..\..\..\..\..\..\Software\uCOS-III\Source/os_task.c **** #if OS_CFG_TASK_SUSPEND_EN > 0u
1738:..\..\..\..\..\..\Software\uCOS-III\Source/os_task.c **** void   OSTaskSuspend (OS_TCB  *p_tcb,
1739:..\..\..\..\..\..\Software\uCOS-III\Source/os_task.c ****                       OS_ERR  *p_err)
1740:..\..\..\..\..\..\Software\uCOS-III\Source/os_task.c **** {
1741:..\..\..\..\..\..\Software\uCOS-III\Source/os_task.c **** #ifdef OS_SAFETY_CRITICAL
1742:..\..\..\..\..\..\Software\uCOS-III\Source/os_task.c ****     if (p_err == (OS_ERR *)0) {
1743:..\..\..\..\..\..\Software\uCOS-III\Source/os_task.c ****         OS_SAFETY_CRITICAL_EXCEPTION();
1744:..\..\..\..\..\..\Software\uCOS-III\Source/os_task.c ****         return;
1745:..\..\..\..\..\..\Software\uCOS-III\Source/os_task.c ****     }
1746:..\..\..\..\..\..\Software\uCOS-III\Source/os_task.c **** #endif
1747:..\..\..\..\..\..\Software\uCOS-III\Source/os_task.c **** 
1748:..\..\..\..\..\..\Software\uCOS-III\Source/os_task.c **** #if (OS_CFG_ISR_POST_DEFERRED_EN   == 0u) && \
1749:..\..\..\..\..\..\Software\uCOS-III\Source/os_task.c ****     (OS_CFG_CALLED_FROM_ISR_CHK_EN >  0u)
1750:..\..\..\..\..\..\Software\uCOS-III\Source/os_task.c ****     if (OSIntNestingCtr > (OS_NESTING_CTR)0) {              /* Not allowed to call from an ISR     
1751:..\..\..\..\..\..\Software\uCOS-III\Source/os_task.c ****        *p_err = OS_ERR_TASK_SUSPEND_ISR;
1752:..\..\..\..\..\..\Software\uCOS-III\Source/os_task.c ****         return;
1753:..\..\..\..\..\..\Software\uCOS-III\Source/os_task.c ****     }
1754:..\..\..\..\..\..\Software\uCOS-III\Source/os_task.c **** #endif
1755:..\..\..\..\..\..\Software\uCOS-III\Source/os_task.c **** 
1756:..\..\..\..\..\..\Software\uCOS-III\Source/os_task.c ****     if (p_tcb == &OSIdleTaskTCB) {                          /* Make sure not suspending the idle ta
1757:..\..\..\..\..\..\Software\uCOS-III\Source/os_task.c ****        *p_err = OS_ERR_TASK_SUSPEND_IDLE;
1758:..\..\..\..\..\..\Software\uCOS-III\Source/os_task.c ****         return;
1759:..\..\..\..\..\..\Software\uCOS-III\Source/os_task.c ****     }
1760:..\..\..\..\..\..\Software\uCOS-III\Source/os_task.c **** 
1761:..\..\..\..\..\..\Software\uCOS-III\Source/os_task.c **** #if OS_CFG_ISR_POST_DEFERRED_EN > 0u
1762:..\..\..\..\..\..\Software\uCOS-III\Source/os_task.c ****     if (p_tcb == &OSIntQTaskTCB) {                          /* Not allowed to suspend the ISR handl
1763:..\..\..\..\..\..\Software\uCOS-III\Source/os_task.c ****        *p_err = OS_ERR_TASK_SUSPEND_INT_HANDLER;
1764:..\..\..\..\..\..\Software\uCOS-III\Source/os_task.c ****         return;
1765:..\..\..\..\..\..\Software\uCOS-III\Source/os_task.c ****     }
1766:..\..\..\..\..\..\Software\uCOS-III\Source/os_task.c **** 
1767:..\..\..\..\..\..\Software\uCOS-III\Source/os_task.c ****     if (OSIntNestingCtr > (OS_NESTING_CTR)0) {              /* See if called from an ISR           
1768:..\..\..\..\..\..\Software\uCOS-III\Source/os_task.c ****         OS_IntQPost((OS_OBJ_TYPE)OS_OBJ_TYPE_TASK_SUSPEND,  /* Post to ISR queue                   
1769:..\..\..\..\..\..\Software\uCOS-III\Source/os_task.c ****                     (void      *)p_tcb,
1770:..\..\..\..\..\..\Software\uCOS-III\Source/os_task.c ****                     (void      *)0,
1771:..\..\..\..\..\..\Software\uCOS-III\Source/os_task.c ****                     (OS_MSG_SIZE)0,
1772:..\..\..\..\..\..\Software\uCOS-III\Source/os_task.c ****                     (OS_FLAGS   )0,
1773:..\..\..\..\..\..\Software\uCOS-III\Source/os_task.c ****                     (OS_OPT     )0,
ARM GAS  C:\Users\EDULU~1.DES\AppData\Local\Temp\ccxcKTgR.s 			page 59


1774:..\..\..\..\..\..\Software\uCOS-III\Source/os_task.c ****                     (CPU_TS     )0,
1775:..\..\..\..\..\..\Software\uCOS-III\Source/os_task.c ****                     (OS_ERR    *)p_err);
1776:..\..\..\..\..\..\Software\uCOS-III\Source/os_task.c ****         return;
1777:..\..\..\..\..\..\Software\uCOS-III\Source/os_task.c ****     }
1778:..\..\..\..\..\..\Software\uCOS-III\Source/os_task.c **** #endif
1779:..\..\..\..\..\..\Software\uCOS-III\Source/os_task.c **** 
1780:..\..\..\..\..\..\Software\uCOS-III\Source/os_task.c ****     OS_TaskSuspend(p_tcb, p_err);
1781:..\..\..\..\..\..\Software\uCOS-III\Source/os_task.c **** }
1782:..\..\..\..\..\..\Software\uCOS-III\Source/os_task.c **** #endif
1783:..\..\..\..\..\..\Software\uCOS-III\Source/os_task.c **** 
1784:..\..\..\..\..\..\Software\uCOS-III\Source/os_task.c **** /*$PAGE*/
1785:..\..\..\..\..\..\Software\uCOS-III\Source/os_task.c **** /*
1786:..\..\..\..\..\..\Software\uCOS-III\Source/os_task.c **** ***************************************************************************************************
1787:..\..\..\..\..\..\Software\uCOS-III\Source/os_task.c **** *                                                CHANGE A TASK'S TIME SLICE
1788:..\..\..\..\..\..\Software\uCOS-III\Source/os_task.c **** *
1789:..\..\..\..\..\..\Software\uCOS-III\Source/os_task.c **** * Description: This function is called to change the value of the task's specific time slice.
1790:..\..\..\..\..\..\Software\uCOS-III\Source/os_task.c **** *
1791:..\..\..\..\..\..\Software\uCOS-III\Source/os_task.c **** * Arguments  : p_tcb        is the pointer to the TCB of the task to change. If you specify an NULL
1792:..\..\..\..\..\..\Software\uCOS-III\Source/os_task.c **** *                           task is assumed.
1793:..\..\..\..\..\..\Software\uCOS-III\Source/os_task.c **** *
1794:..\..\..\..\..\..\Software\uCOS-III\Source/os_task.c **** *              time_quanta  is the number of ticks before the CPU is taken away when round-robin sc
1795:..\..\..\..\..\..\Software\uCOS-III\Source/os_task.c **** *
1796:..\..\..\..\..\..\Software\uCOS-III\Source/os_task.c **** *              p_err        is a pointer to an error code returned by this function:
1797:..\..\..\..\..\..\Software\uCOS-III\Source/os_task.c **** *
1798:..\..\..\..\..\..\Software\uCOS-III\Source/os_task.c **** *                               OS_ERR_NONE       upon success
1799:..\..\..\..\..\..\Software\uCOS-III\Source/os_task.c **** *                               OS_ERR_SET_ISR    if you called this function from an ISR
1800:..\..\..\..\..\..\Software\uCOS-III\Source/os_task.c **** *
1801:..\..\..\..\..\..\Software\uCOS-III\Source/os_task.c **** * Returns    : none
1802:..\..\..\..\..\..\Software\uCOS-III\Source/os_task.c **** ***************************************************************************************************
1803:..\..\..\..\..\..\Software\uCOS-III\Source/os_task.c **** */
1804:..\..\..\..\..\..\Software\uCOS-III\Source/os_task.c **** 
1805:..\..\..\..\..\..\Software\uCOS-III\Source/os_task.c **** #if OS_CFG_SCHED_ROUND_ROBIN_EN > 0u
1806:..\..\..\..\..\..\Software\uCOS-III\Source/os_task.c **** void  OSTaskTimeQuantaSet (OS_TCB   *p_tcb,
1807:..\..\..\..\..\..\Software\uCOS-III\Source/os_task.c ****                            OS_TICK   time_quanta,
1808:..\..\..\..\..\..\Software\uCOS-III\Source/os_task.c ****                            OS_ERR   *p_err)
1809:..\..\..\..\..\..\Software\uCOS-III\Source/os_task.c **** {
1810:..\..\..\..\..\..\Software\uCOS-III\Source/os_task.c ****     CPU_SR_ALLOC();
1811:..\..\..\..\..\..\Software\uCOS-III\Source/os_task.c **** 
1812:..\..\..\..\..\..\Software\uCOS-III\Source/os_task.c **** 
1813:..\..\..\..\..\..\Software\uCOS-III\Source/os_task.c **** 
1814:..\..\..\..\..\..\Software\uCOS-III\Source/os_task.c **** #ifdef OS_SAFETY_CRITICAL
1815:..\..\..\..\..\..\Software\uCOS-III\Source/os_task.c ****     if (p_err == (OS_ERR *)0) {
1816:..\..\..\..\..\..\Software\uCOS-III\Source/os_task.c ****         OS_SAFETY_CRITICAL_EXCEPTION();
1817:..\..\..\..\..\..\Software\uCOS-III\Source/os_task.c ****         return;
1818:..\..\..\..\..\..\Software\uCOS-III\Source/os_task.c ****     }
1819:..\..\..\..\..\..\Software\uCOS-III\Source/os_task.c **** #endif
1820:..\..\..\..\..\..\Software\uCOS-III\Source/os_task.c **** 
1821:..\..\..\..\..\..\Software\uCOS-III\Source/os_task.c **** #if OS_CFG_CALLED_FROM_ISR_CHK_EN > 0u
1822:..\..\..\..\..\..\Software\uCOS-III\Source/os_task.c ****     if (OSIntNestingCtr > (OS_NESTING_CTR)0) {              /* Can't call this function from an ISR
1823:..\..\..\..\..\..\Software\uCOS-III\Source/os_task.c ****        *p_err = OS_ERR_SET_ISR;
1824:..\..\..\..\..\..\Software\uCOS-III\Source/os_task.c ****         return;
1825:..\..\..\..\..\..\Software\uCOS-III\Source/os_task.c ****     }
1826:..\..\..\..\..\..\Software\uCOS-III\Source/os_task.c **** #endif
1827:..\..\..\..\..\..\Software\uCOS-III\Source/os_task.c **** 
1828:..\..\..\..\..\..\Software\uCOS-III\Source/os_task.c ****     CPU_CRITICAL_ENTER();
1829:..\..\..\..\..\..\Software\uCOS-III\Source/os_task.c ****     if (p_tcb == (OS_TCB *)0) {
1830:..\..\..\..\..\..\Software\uCOS-III\Source/os_task.c ****         p_tcb = OSTCBCurPtr;
ARM GAS  C:\Users\EDULU~1.DES\AppData\Local\Temp\ccxcKTgR.s 			page 60


1831:..\..\..\..\..\..\Software\uCOS-III\Source/os_task.c ****     }
1832:..\..\..\..\..\..\Software\uCOS-III\Source/os_task.c **** 
1833:..\..\..\..\..\..\Software\uCOS-III\Source/os_task.c ****     if (time_quanta == 0u) {
1834:..\..\..\..\..\..\Software\uCOS-III\Source/os_task.c ****         p_tcb->TimeQuanta    = OSSchedRoundRobinDfltTimeQuanta;
1835:..\..\..\..\..\..\Software\uCOS-III\Source/os_task.c ****     } else {
1836:..\..\..\..\..\..\Software\uCOS-III\Source/os_task.c ****         p_tcb->TimeQuanta    = time_quanta;
1837:..\..\..\..\..\..\Software\uCOS-III\Source/os_task.c ****     }
1838:..\..\..\..\..\..\Software\uCOS-III\Source/os_task.c ****     if (p_tcb->TimeQuanta > p_tcb->TimeQuantaCtr) {
1839:..\..\..\..\..\..\Software\uCOS-III\Source/os_task.c ****         p_tcb->TimeQuantaCtr = p_tcb->TimeQuanta;
1840:..\..\..\..\..\..\Software\uCOS-III\Source/os_task.c ****     }
1841:..\..\..\..\..\..\Software\uCOS-III\Source/os_task.c ****     CPU_CRITICAL_EXIT();
1842:..\..\..\..\..\..\Software\uCOS-III\Source/os_task.c ****    *p_err = OS_ERR_NONE;
1843:..\..\..\..\..\..\Software\uCOS-III\Source/os_task.c **** }
1844:..\..\..\..\..\..\Software\uCOS-III\Source/os_task.c **** #endif
1845:..\..\..\..\..\..\Software\uCOS-III\Source/os_task.c **** 
1846:..\..\..\..\..\..\Software\uCOS-III\Source/os_task.c **** /*$PAGE*/
1847:..\..\..\..\..\..\Software\uCOS-III\Source/os_task.c **** /*
1848:..\..\..\..\..\..\Software\uCOS-III\Source/os_task.c **** ***************************************************************************************************
1849:..\..\..\..\..\..\Software\uCOS-III\Source/os_task.c **** *                                            ADD/REMOVE TASK TO/FROM DEBUG LIST
1850:..\..\..\..\..\..\Software\uCOS-III\Source/os_task.c **** *
1851:..\..\..\..\..\..\Software\uCOS-III\Source/os_task.c **** * Description: These functions are called by uC/OS-III to add or remove an OS_TCB from the debug li
1852:..\..\..\..\..\..\Software\uCOS-III\Source/os_task.c **** *
1853:..\..\..\..\..\..\Software\uCOS-III\Source/os_task.c **** * Arguments  : p_tcb     is a pointer to the OS_TCB to add/remove
1854:..\..\..\..\..\..\Software\uCOS-III\Source/os_task.c **** *
1855:..\..\..\..\..\..\Software\uCOS-III\Source/os_task.c **** * Returns    : none
1856:..\..\..\..\..\..\Software\uCOS-III\Source/os_task.c **** *
1857:..\..\..\..\..\..\Software\uCOS-III\Source/os_task.c **** * Note(s)    : These functions are INTERNAL to uC/OS-III and your application should not call it.
1858:..\..\..\..\..\..\Software\uCOS-III\Source/os_task.c **** ***************************************************************************************************
1859:..\..\..\..\..\..\Software\uCOS-III\Source/os_task.c **** */
1860:..\..\..\..\..\..\Software\uCOS-III\Source/os_task.c **** 
1861:..\..\..\..\..\..\Software\uCOS-III\Source/os_task.c **** #if OS_CFG_DBG_EN > 0u
1862:..\..\..\..\..\..\Software\uCOS-III\Source/os_task.c **** void  OS_TaskDbgListAdd (OS_TCB  *p_tcb)
1863:..\..\..\..\..\..\Software\uCOS-III\Source/os_task.c **** {
 1270              		.loc 1 1863 1 is_stmt 1 view -0
 1271              		.cfi_startproc
 1272              		@ args = 0, pretend = 0, frame = 0
 1273              		@ frame_needed = 0, uses_anonymous_args = 0
 1274              		@ link register save eliminated.
1864:..\..\..\..\..\..\Software\uCOS-III\Source/os_task.c ****     p_tcb->DbgPrevPtr                = (OS_TCB *)0;
 1275              		.loc 1 1864 5 view .LVU404
 1276              		.loc 1 1864 38 is_stmt 0 view .LVU405
 1277 0000 0023     		movs	r3, #0
 1278 0002 0367     		str	r3, [r0, #112]
1865:..\..\..\..\..\..\Software\uCOS-III\Source/os_task.c ****     if (OSTaskDbgListPtr == (OS_TCB *)0) {
 1279              		.loc 1 1865 5 is_stmt 1 view .LVU406
 1280              		.loc 1 1865 26 is_stmt 0 view .LVU407
 1281 0004 054B     		ldr	r3, .L97
 1282 0006 1B68     		ldr	r3, [r3]
 1283              		.loc 1 1865 8 view .LVU408
 1284 0008 002B     		cmp	r3, #0
 1285 000a 04D0     		beq	.L96
1866:..\..\..\..\..\..\Software\uCOS-III\Source/os_task.c ****         p_tcb->DbgNextPtr            = (OS_TCB *)0;
1867:..\..\..\..\..\..\Software\uCOS-III\Source/os_task.c ****     } else {
1868:..\..\..\..\..\..\Software\uCOS-III\Source/os_task.c ****         p_tcb->DbgNextPtr            =  OSTaskDbgListPtr;
 1286              		.loc 1 1868 9 is_stmt 1 view .LVU409
 1287              		.loc 1 1868 38 is_stmt 0 view .LVU410
 1288 000c 4367     		str	r3, [r0, #116]
ARM GAS  C:\Users\EDULU~1.DES\AppData\Local\Temp\ccxcKTgR.s 			page 61


1869:..\..\..\..\..\..\Software\uCOS-III\Source/os_task.c ****         OSTaskDbgListPtr->DbgPrevPtr =  p_tcb;
 1289              		.loc 1 1869 9 is_stmt 1 view .LVU411
 1290              		.loc 1 1869 38 is_stmt 0 view .LVU412
 1291 000e 1867     		str	r0, [r3, #112]
 1292              	.L95:
1870:..\..\..\..\..\..\Software\uCOS-III\Source/os_task.c ****     }
1871:..\..\..\..\..\..\Software\uCOS-III\Source/os_task.c ****     OSTaskDbgListPtr                 =  p_tcb;
 1293              		.loc 1 1871 5 is_stmt 1 view .LVU413
 1294              		.loc 1 1871 38 is_stmt 0 view .LVU414
 1295 0010 024B     		ldr	r3, .L97
 1296 0012 1860     		str	r0, [r3]
1872:..\..\..\..\..\..\Software\uCOS-III\Source/os_task.c **** }
 1297              		.loc 1 1872 1 view .LVU415
 1298              		@ sp needed
 1299 0014 7047     		bx	lr
 1300              	.L96:
1866:..\..\..\..\..\..\Software\uCOS-III\Source/os_task.c ****     } else {
 1301              		.loc 1 1866 9 is_stmt 1 view .LVU416
1866:..\..\..\..\..\..\Software\uCOS-III\Source/os_task.c ****     } else {
 1302              		.loc 1 1866 38 is_stmt 0 view .LVU417
 1303 0016 4367     		str	r3, [r0, #116]
 1304 0018 FAE7     		b	.L95
 1305              	.L98:
 1306 001a C046     		.align	2
 1307              	.L97:
 1308 001c 00000000 		.word	OSTaskDbgListPtr
 1309              		.cfi_endproc
 1310              	.LFE14:
 1311              		.size	OS_TaskDbgListAdd, .-OS_TaskDbgListAdd
 1312              		.section	.text.OS_TaskDbgListRemove,"ax",%progbits
 1313              		.align	1
 1314              		.global	OS_TaskDbgListRemove
 1315              		.syntax unified
 1316              		.code	16
 1317              		.thumb_func
 1318              		.fpu softvfp
 1319              		.type	OS_TaskDbgListRemove, %function
 1320              	OS_TaskDbgListRemove:
 1321              	.LVL148:
 1322              	.LFB15:
1873:..\..\..\..\..\..\Software\uCOS-III\Source/os_task.c **** 
1874:..\..\..\..\..\..\Software\uCOS-III\Source/os_task.c **** 
1875:..\..\..\..\..\..\Software\uCOS-III\Source/os_task.c **** 
1876:..\..\..\..\..\..\Software\uCOS-III\Source/os_task.c **** void  OS_TaskDbgListRemove (OS_TCB  *p_tcb)
1877:..\..\..\..\..\..\Software\uCOS-III\Source/os_task.c **** {
 1323              		.loc 1 1877 1 is_stmt 1 view -0
 1324              		.cfi_startproc
 1325              		@ args = 0, pretend = 0, frame = 0
 1326              		@ frame_needed = 0, uses_anonymous_args = 0
 1327              		@ link register save eliminated.
1878:..\..\..\..\..\..\Software\uCOS-III\Source/os_task.c ****     OS_TCB  *p_tcb_next;
 1328              		.loc 1 1878 5 view .LVU419
1879:..\..\..\..\..\..\Software\uCOS-III\Source/os_task.c ****     OS_TCB  *p_tcb_prev;
 1329              		.loc 1 1879 5 view .LVU420
1880:..\..\..\..\..\..\Software\uCOS-III\Source/os_task.c **** 
1881:..\..\..\..\..\..\Software\uCOS-III\Source/os_task.c **** 
1882:..\..\..\..\..\..\Software\uCOS-III\Source/os_task.c ****     p_tcb_prev = p_tcb->DbgPrevPtr;
ARM GAS  C:\Users\EDULU~1.DES\AppData\Local\Temp\ccxcKTgR.s 			page 62


 1330              		.loc 1 1882 5 view .LVU421
 1331              		.loc 1 1882 16 is_stmt 0 view .LVU422
 1332 0000 026F     		ldr	r2, [r0, #112]
 1333              	.LVL149:
1883:..\..\..\..\..\..\Software\uCOS-III\Source/os_task.c ****     p_tcb_next = p_tcb->DbgNextPtr;
 1334              		.loc 1 1883 5 is_stmt 1 view .LVU423
 1335              		.loc 1 1883 16 is_stmt 0 view .LVU424
 1336 0002 436F     		ldr	r3, [r0, #116]
 1337              	.LVL150:
1884:..\..\..\..\..\..\Software\uCOS-III\Source/os_task.c **** 
1885:..\..\..\..\..\..\Software\uCOS-III\Source/os_task.c ****     if (p_tcb_prev == (OS_TCB *)0) {
 1338              		.loc 1 1885 5 is_stmt 1 view .LVU425
 1339              		.loc 1 1885 8 is_stmt 0 view .LVU426
 1340 0004 002A     		cmp	r2, #0
 1341 0006 07D0     		beq	.L104
1886:..\..\..\..\..\..\Software\uCOS-III\Source/os_task.c ****         OSTaskDbgListPtr = p_tcb_next;
1887:..\..\..\..\..\..\Software\uCOS-III\Source/os_task.c ****         if (p_tcb_next != (OS_TCB *)0) {
1888:..\..\..\..\..\..\Software\uCOS-III\Source/os_task.c ****             p_tcb_next->DbgPrevPtr = (OS_TCB *)0;
1889:..\..\..\..\..\..\Software\uCOS-III\Source/os_task.c ****         }
1890:..\..\..\..\..\..\Software\uCOS-III\Source/os_task.c ****         p_tcb->DbgNextPtr = (OS_TCB *)0;
1891:..\..\..\..\..\..\Software\uCOS-III\Source/os_task.c **** 
1892:..\..\..\..\..\..\Software\uCOS-III\Source/os_task.c ****     } else if (p_tcb_next == (OS_TCB *)0) {
 1342              		.loc 1 1892 12 is_stmt 1 view .LVU427
 1343              		.loc 1 1892 15 is_stmt 0 view .LVU428
 1344 0008 002B     		cmp	r3, #0
 1345 000a 0ED0     		beq	.L105
1893:..\..\..\..\..\..\Software\uCOS-III\Source/os_task.c ****         p_tcb_prev->DbgNextPtr = (OS_TCB *)0;
1894:..\..\..\..\..\..\Software\uCOS-III\Source/os_task.c ****         p_tcb->DbgPrevPtr      = (OS_TCB *)0;
1895:..\..\..\..\..\..\Software\uCOS-III\Source/os_task.c **** 
1896:..\..\..\..\..\..\Software\uCOS-III\Source/os_task.c ****     } else {
1897:..\..\..\..\..\..\Software\uCOS-III\Source/os_task.c ****         p_tcb_prev->DbgNextPtr =  p_tcb_next;
 1346              		.loc 1 1897 9 is_stmt 1 view .LVU429
 1347              		.loc 1 1897 32 is_stmt 0 view .LVU430
 1348 000c 5367     		str	r3, [r2, #116]
1898:..\..\..\..\..\..\Software\uCOS-III\Source/os_task.c ****         p_tcb_next->DbgPrevPtr =  p_tcb_prev;
 1349              		.loc 1 1898 9 is_stmt 1 view .LVU431
 1350              		.loc 1 1898 32 is_stmt 0 view .LVU432
 1351 000e 1A67     		str	r2, [r3, #112]
1899:..\..\..\..\..\..\Software\uCOS-III\Source/os_task.c ****         p_tcb->DbgNextPtr      = (OS_TCB *)0;
 1352              		.loc 1 1899 9 is_stmt 1 view .LVU433
 1353              		.loc 1 1899 32 is_stmt 0 view .LVU434
 1354 0010 0023     		movs	r3, #0
 1355              	.LVL151:
 1356              		.loc 1 1899 32 view .LVU435
 1357 0012 4367     		str	r3, [r0, #116]
1900:..\..\..\..\..\..\Software\uCOS-III\Source/os_task.c ****         p_tcb->DbgPrevPtr      = (OS_TCB *)0;
 1358              		.loc 1 1900 9 is_stmt 1 view .LVU436
 1359              		.loc 1 1900 32 is_stmt 0 view .LVU437
 1360 0014 0367     		str	r3, [r0, #112]
 1361              	.LVL152:
 1362              	.L99:
1901:..\..\..\..\..\..\Software\uCOS-III\Source/os_task.c ****     }
1902:..\..\..\..\..\..\Software\uCOS-III\Source/os_task.c **** }
 1363              		.loc 1 1902 1 view .LVU438
 1364              		@ sp needed
 1365 0016 7047     		bx	lr
 1366              	.LVL153:
ARM GAS  C:\Users\EDULU~1.DES\AppData\Local\Temp\ccxcKTgR.s 			page 63


 1367              	.L104:
1886:..\..\..\..\..\..\Software\uCOS-III\Source/os_task.c ****         if (p_tcb_next != (OS_TCB *)0) {
 1368              		.loc 1 1886 9 is_stmt 1 view .LVU439
1886:..\..\..\..\..\..\Software\uCOS-III\Source/os_task.c ****         if (p_tcb_next != (OS_TCB *)0) {
 1369              		.loc 1 1886 26 is_stmt 0 view .LVU440
 1370 0018 054A     		ldr	r2, .L106
 1371              	.LVL154:
1886:..\..\..\..\..\..\Software\uCOS-III\Source/os_task.c ****         if (p_tcb_next != (OS_TCB *)0) {
 1372              		.loc 1 1886 26 view .LVU441
 1373 001a 1360     		str	r3, [r2]
1887:..\..\..\..\..\..\Software\uCOS-III\Source/os_task.c ****             p_tcb_next->DbgPrevPtr = (OS_TCB *)0;
 1374              		.loc 1 1887 9 is_stmt 1 view .LVU442
1887:..\..\..\..\..\..\Software\uCOS-III\Source/os_task.c ****             p_tcb_next->DbgPrevPtr = (OS_TCB *)0;
 1375              		.loc 1 1887 12 is_stmt 0 view .LVU443
 1376 001c 002B     		cmp	r3, #0
 1377 001e 01D0     		beq	.L101
1888:..\..\..\..\..\..\Software\uCOS-III\Source/os_task.c ****         }
 1378              		.loc 1 1888 13 is_stmt 1 view .LVU444
1888:..\..\..\..\..\..\Software\uCOS-III\Source/os_task.c ****         }
 1379              		.loc 1 1888 36 is_stmt 0 view .LVU445
 1380 0020 0022     		movs	r2, #0
 1381 0022 1A67     		str	r2, [r3, #112]
 1382              	.LVL155:
 1383              	.L101:
1890:..\..\..\..\..\..\Software\uCOS-III\Source/os_task.c **** 
 1384              		.loc 1 1890 9 is_stmt 1 view .LVU446
1890:..\..\..\..\..\..\Software\uCOS-III\Source/os_task.c **** 
 1385              		.loc 1 1890 27 is_stmt 0 view .LVU447
 1386 0024 0023     		movs	r3, #0
 1387              	.LVL156:
1890:..\..\..\..\..\..\Software\uCOS-III\Source/os_task.c **** 
 1388              		.loc 1 1890 27 view .LVU448
 1389 0026 4367     		str	r3, [r0, #116]
 1390 0028 F5E7     		b	.L99
 1391              	.LVL157:
 1392              	.L105:
1893:..\..\..\..\..\..\Software\uCOS-III\Source/os_task.c ****         p_tcb->DbgPrevPtr      = (OS_TCB *)0;
 1393              		.loc 1 1893 9 is_stmt 1 view .LVU449
1893:..\..\..\..\..\..\Software\uCOS-III\Source/os_task.c ****         p_tcb->DbgPrevPtr      = (OS_TCB *)0;
 1394              		.loc 1 1893 32 is_stmt 0 view .LVU450
 1395 002a 5367     		str	r3, [r2, #116]
1894:..\..\..\..\..\..\Software\uCOS-III\Source/os_task.c **** 
 1396              		.loc 1 1894 9 is_stmt 1 view .LVU451
1894:..\..\..\..\..\..\Software\uCOS-III\Source/os_task.c **** 
 1397              		.loc 1 1894 32 is_stmt 0 view .LVU452
 1398 002c 0367     		str	r3, [r0, #112]
 1399 002e F2E7     		b	.L99
 1400              	.L107:
 1401              		.align	2
 1402              	.L106:
 1403 0030 00000000 		.word	OSTaskDbgListPtr
 1404              		.cfi_endproc
 1405              	.LFE15:
 1406              		.size	OS_TaskDbgListRemove, .-OS_TaskDbgListRemove
 1407              		.section	.text.OS_TaskInit,"ax",%progbits
 1408              		.align	1
 1409              		.global	OS_TaskInit
ARM GAS  C:\Users\EDULU~1.DES\AppData\Local\Temp\ccxcKTgR.s 			page 64


 1410              		.syntax unified
 1411              		.code	16
 1412              		.thumb_func
 1413              		.fpu softvfp
 1414              		.type	OS_TaskInit, %function
 1415              	OS_TaskInit:
 1416              	.LVL158:
 1417              	.LFB16:
1903:..\..\..\..\..\..\Software\uCOS-III\Source/os_task.c **** #endif
1904:..\..\..\..\..\..\Software\uCOS-III\Source/os_task.c **** 
1905:..\..\..\..\..\..\Software\uCOS-III\Source/os_task.c **** /*$PAGE*/
1906:..\..\..\..\..\..\Software\uCOS-III\Source/os_task.c **** /*
1907:..\..\..\..\..\..\Software\uCOS-III\Source/os_task.c **** ***************************************************************************************************
1908:..\..\..\..\..\..\Software\uCOS-III\Source/os_task.c **** *                                             TASK MANAGER INITIALIZATION
1909:..\..\..\..\..\..\Software\uCOS-III\Source/os_task.c **** *
1910:..\..\..\..\..\..\Software\uCOS-III\Source/os_task.c **** * Description: This function is called by OSInit() to initialize the task management.
1911:..\..\..\..\..\..\Software\uCOS-III\Source/os_task.c **** *
1912:..\..\..\..\..\..\Software\uCOS-III\Source/os_task.c **** 
1913:..\..\..\..\..\..\Software\uCOS-III\Source/os_task.c **** * Argument(s): p_err        is a pointer to a variable that will contain an error code returned by 
1914:..\..\..\..\..\..\Software\uCOS-III\Source/os_task.c **** *
1915:..\..\..\..\..\..\Software\uCOS-III\Source/os_task.c **** *                                OS_ERR_NONE     the call was successful
1916:..\..\..\..\..\..\Software\uCOS-III\Source/os_task.c **** *
1917:..\..\..\..\..\..\Software\uCOS-III\Source/os_task.c **** * Returns    : none
1918:..\..\..\..\..\..\Software\uCOS-III\Source/os_task.c **** *
1919:..\..\..\..\..\..\Software\uCOS-III\Source/os_task.c **** * Note(s)    : This function is INTERNAL to uC/OS-III and your application should not call it.
1920:..\..\..\..\..\..\Software\uCOS-III\Source/os_task.c **** ***************************************************************************************************
1921:..\..\..\..\..\..\Software\uCOS-III\Source/os_task.c **** */
1922:..\..\..\..\..\..\Software\uCOS-III\Source/os_task.c **** 
1923:..\..\..\..\..\..\Software\uCOS-III\Source/os_task.c **** void  OS_TaskInit (OS_ERR  *p_err)
1924:..\..\..\..\..\..\Software\uCOS-III\Source/os_task.c **** {
 1418              		.loc 1 1924 1 is_stmt 1 view -0
 1419              		.cfi_startproc
 1420              		@ args = 0, pretend = 0, frame = 0
 1421              		@ frame_needed = 0, uses_anonymous_args = 0
 1422              		@ link register save eliminated.
1925:..\..\..\..\..\..\Software\uCOS-III\Source/os_task.c **** #ifdef OS_SAFETY_CRITICAL
1926:..\..\..\..\..\..\Software\uCOS-III\Source/os_task.c ****     if (p_err == (OS_ERR *)0) {
1927:..\..\..\..\..\..\Software\uCOS-III\Source/os_task.c ****         OS_SAFETY_CRITICAL_EXCEPTION();
1928:..\..\..\..\..\..\Software\uCOS-III\Source/os_task.c ****         return;
1929:..\..\..\..\..\..\Software\uCOS-III\Source/os_task.c ****     }
1930:..\..\..\..\..\..\Software\uCOS-III\Source/os_task.c **** #endif
1931:..\..\..\..\..\..\Software\uCOS-III\Source/os_task.c **** 
1932:..\..\..\..\..\..\Software\uCOS-III\Source/os_task.c **** #if OS_CFG_DBG_EN > 0u
1933:..\..\..\..\..\..\Software\uCOS-III\Source/os_task.c ****     OSTaskDbgListPtr = (OS_TCB      *)0;
 1423              		.loc 1 1933 5 view .LVU454
 1424              		.loc 1 1933 22 is_stmt 0 view .LVU455
 1425 0000 0023     		movs	r3, #0
 1426 0002 044A     		ldr	r2, .L109
 1427 0004 1360     		str	r3, [r2]
1934:..\..\..\..\..\..\Software\uCOS-III\Source/os_task.c **** #endif
1935:..\..\..\..\..\..\Software\uCOS-III\Source/os_task.c **** 
1936:..\..\..\..\..\..\Software\uCOS-III\Source/os_task.c ****     OSTaskQty        = (OS_OBJ_QTY   )0;                    /* Clear the number of tasks           
 1428              		.loc 1 1936 5 is_stmt 1 view .LVU456
 1429              		.loc 1 1936 22 is_stmt 0 view .LVU457
 1430 0006 044A     		ldr	r2, .L109+4
 1431 0008 1380     		strh	r3, [r2]
1937:..\..\..\..\..\..\Software\uCOS-III\Source/os_task.c ****     OSTaskCtxSwCtr   = (OS_CTX_SW_CTR)0;                    /* Clear the context switch counter    
ARM GAS  C:\Users\EDULU~1.DES\AppData\Local\Temp\ccxcKTgR.s 			page 65


 1432              		.loc 1 1937 5 is_stmt 1 view .LVU458
 1433              		.loc 1 1937 22 is_stmt 0 view .LVU459
 1434 000a 044A     		ldr	r2, .L109+8
 1435 000c 1360     		str	r3, [r2]
1938:..\..\..\..\..\..\Software\uCOS-III\Source/os_task.c **** 
1939:..\..\..\..\..\..\Software\uCOS-III\Source/os_task.c ****    *p_err            = OS_ERR_NONE;
 1436              		.loc 1 1939 4 is_stmt 1 view .LVU460
 1437              		.loc 1 1939 22 is_stmt 0 view .LVU461
 1438 000e 0380     		strh	r3, [r0]
1940:..\..\..\..\..\..\Software\uCOS-III\Source/os_task.c **** }
 1439              		.loc 1 1940 1 view .LVU462
 1440              		@ sp needed
 1441 0010 7047     		bx	lr
 1442              	.L110:
 1443 0012 C046     		.align	2
 1444              	.L109:
 1445 0014 00000000 		.word	OSTaskDbgListPtr
 1446 0018 00000000 		.word	OSTaskQty
 1447 001c 00000000 		.word	OSTaskCtxSwCtr
 1448              		.cfi_endproc
 1449              	.LFE16:
 1450              		.size	OS_TaskInit, .-OS_TaskInit
 1451              		.section	.text.OS_TaskInitTCB,"ax",%progbits
 1452              		.align	1
 1453              		.global	OS_TaskInitTCB
 1454              		.syntax unified
 1455              		.code	16
 1456              		.thumb_func
 1457              		.fpu softvfp
 1458              		.type	OS_TaskInitTCB, %function
 1459              	OS_TaskInitTCB:
 1460              	.LVL159:
 1461              	.LFB17:
1941:..\..\..\..\..\..\Software\uCOS-III\Source/os_task.c **** 
1942:..\..\..\..\..\..\Software\uCOS-III\Source/os_task.c **** /*$PAGE*/
1943:..\..\..\..\..\..\Software\uCOS-III\Source/os_task.c **** /*
1944:..\..\..\..\..\..\Software\uCOS-III\Source/os_task.c **** ***************************************************************************************************
1945:..\..\..\..\..\..\Software\uCOS-III\Source/os_task.c **** *                                               INITIALIZE TCB FIELDS
1946:..\..\..\..\..\..\Software\uCOS-III\Source/os_task.c **** *
1947:..\..\..\..\..\..\Software\uCOS-III\Source/os_task.c **** * Description: This function is called to initialize a TCB to default values
1948:..\..\..\..\..\..\Software\uCOS-III\Source/os_task.c **** *
1949:..\..\..\..\..\..\Software\uCOS-III\Source/os_task.c **** * Arguments  : p_tcb    is a pointer to the TCB to initialize
1950:..\..\..\..\..\..\Software\uCOS-III\Source/os_task.c **** *
1951:..\..\..\..\..\..\Software\uCOS-III\Source/os_task.c **** * Returns    : none
1952:..\..\..\..\..\..\Software\uCOS-III\Source/os_task.c **** *
1953:..\..\..\..\..\..\Software\uCOS-III\Source/os_task.c **** * Note(s)    : This function is INTERNAL to uC/OS-III and your application should not call it.
1954:..\..\..\..\..\..\Software\uCOS-III\Source/os_task.c **** ***************************************************************************************************
1955:..\..\..\..\..\..\Software\uCOS-III\Source/os_task.c **** */
1956:..\..\..\..\..\..\Software\uCOS-III\Source/os_task.c **** 
1957:..\..\..\..\..\..\Software\uCOS-III\Source/os_task.c **** void  OS_TaskInitTCB (OS_TCB  *p_tcb)
1958:..\..\..\..\..\..\Software\uCOS-III\Source/os_task.c **** {
 1462              		.loc 1 1958 1 is_stmt 1 view -0
 1463              		.cfi_startproc
 1464              		@ args = 0, pretend = 0, frame = 0
 1465              		@ frame_needed = 0, uses_anonymous_args = 0
 1466              		.loc 1 1958 1 is_stmt 0 view .LVU464
 1467 0000 10B5     		push	{r4, lr}
ARM GAS  C:\Users\EDULU~1.DES\AppData\Local\Temp\ccxcKTgR.s 			page 66


 1468              		.cfi_def_cfa_offset 8
 1469              		.cfi_offset 4, -8
 1470              		.cfi_offset 14, -4
1959:..\..\..\..\..\..\Software\uCOS-III\Source/os_task.c **** #if OS_CFG_TASK_REG_TBL_SIZE > 0u
1960:..\..\..\..\..\..\Software\uCOS-III\Source/os_task.c ****     OS_REG_ID   reg_id;
 1471              		.loc 1 1960 5 is_stmt 1 view .LVU465
1961:..\..\..\..\..\..\Software\uCOS-III\Source/os_task.c **** #endif
1962:..\..\..\..\..\..\Software\uCOS-III\Source/os_task.c **** #if defined(OS_CFG_TLS_TBL_SIZE) && (OS_CFG_TLS_TBL_SIZE > 0u)
1963:..\..\..\..\..\..\Software\uCOS-III\Source/os_task.c ****     OS_TLS_ID   id;
1964:..\..\..\..\..\..\Software\uCOS-III\Source/os_task.c **** #endif
1965:..\..\..\..\..\..\Software\uCOS-III\Source/os_task.c **** #if OS_CFG_TASK_PROFILE_EN > 0u
1966:..\..\..\..\..\..\Software\uCOS-III\Source/os_task.c ****     CPU_TS      ts;
1967:..\..\..\..\..\..\Software\uCOS-III\Source/os_task.c **** #endif
1968:..\..\..\..\..\..\Software\uCOS-III\Source/os_task.c **** 
1969:..\..\..\..\..\..\Software\uCOS-III\Source/os_task.c **** 
1970:..\..\..\..\..\..\Software\uCOS-III\Source/os_task.c ****     p_tcb->StkPtr             = (CPU_STK       *)0;
 1472              		.loc 1 1970 5 view .LVU466
 1473              		.loc 1 1970 31 is_stmt 0 view .LVU467
 1474 0002 0023     		movs	r3, #0
 1475 0004 0360     		str	r3, [r0]
1971:..\..\..\..\..\..\Software\uCOS-III\Source/os_task.c ****     p_tcb->StkLimitPtr        = (CPU_STK       *)0;
 1476              		.loc 1 1971 5 is_stmt 1 view .LVU468
 1477              		.loc 1 1971 31 is_stmt 0 view .LVU469
 1478 0006 8360     		str	r3, [r0, #8]
1972:..\..\..\..\..\..\Software\uCOS-III\Source/os_task.c **** 
1973:..\..\..\..\..\..\Software\uCOS-III\Source/os_task.c ****     p_tcb->ExtPtr             = (void          *)0;
 1479              		.loc 1 1973 5 is_stmt 1 view .LVU470
 1480              		.loc 1 1973 31 is_stmt 0 view .LVU471
 1481 0008 4360     		str	r3, [r0, #4]
1974:..\..\..\..\..\..\Software\uCOS-III\Source/os_task.c **** 
1975:..\..\..\..\..\..\Software\uCOS-III\Source/os_task.c ****     p_tcb->NextPtr            = (OS_TCB        *)0;
 1482              		.loc 1 1975 5 is_stmt 1 view .LVU472
 1483              		.loc 1 1975 31 is_stmt 0 view .LVU473
 1484 000a C360     		str	r3, [r0, #12]
1976:..\..\..\..\..\..\Software\uCOS-III\Source/os_task.c ****     p_tcb->PrevPtr            = (OS_TCB        *)0;
 1485              		.loc 1 1976 5 is_stmt 1 view .LVU474
 1486              		.loc 1 1976 31 is_stmt 0 view .LVU475
 1487 000c 0361     		str	r3, [r0, #16]
1977:..\..\..\..\..\..\Software\uCOS-III\Source/os_task.c **** 
1978:..\..\..\..\..\..\Software\uCOS-III\Source/os_task.c ****     p_tcb->TickNextPtr        = (OS_TCB        *)0;
 1488              		.loc 1 1978 5 is_stmt 1 view .LVU476
 1489              		.loc 1 1978 31 is_stmt 0 view .LVU477
 1490 000e 4361     		str	r3, [r0, #20]
1979:..\..\..\..\..\..\Software\uCOS-III\Source/os_task.c ****     p_tcb->TickPrevPtr        = (OS_TCB        *)0;
 1491              		.loc 1 1979 5 is_stmt 1 view .LVU478
 1492              		.loc 1 1979 31 is_stmt 0 view .LVU479
 1493 0010 8361     		str	r3, [r0, #24]
1980:..\..\..\..\..\..\Software\uCOS-III\Source/os_task.c ****     p_tcb->TickSpokePtr       = (OS_TICK_SPOKE *)0;
 1494              		.loc 1 1980 5 is_stmt 1 view .LVU480
 1495              		.loc 1 1980 31 is_stmt 0 view .LVU481
 1496 0012 C361     		str	r3, [r0, #28]
1981:..\..\..\..\..\..\Software\uCOS-III\Source/os_task.c **** 
1982:..\..\..\..\..\..\Software\uCOS-III\Source/os_task.c ****     p_tcb->NamePtr            = (CPU_CHAR      *)((void *)"?Task");
 1497              		.loc 1 1982 5 is_stmt 1 view .LVU482
 1498              		.loc 1 1982 31 is_stmt 0 view .LVU483
 1499 0014 184A     		ldr	r2, .L114
 1500 0016 0262     		str	r2, [r0, #32]
ARM GAS  C:\Users\EDULU~1.DES\AppData\Local\Temp\ccxcKTgR.s 			page 67


1983:..\..\..\..\..\..\Software\uCOS-III\Source/os_task.c **** 
1984:..\..\..\..\..\..\Software\uCOS-III\Source/os_task.c ****     p_tcb->StkBasePtr         = (CPU_STK       *)0;
 1501              		.loc 1 1984 5 is_stmt 1 view .LVU484
 1502              		.loc 1 1984 31 is_stmt 0 view .LVU485
 1503 0018 4362     		str	r3, [r0, #36]
1985:..\..\..\..\..\..\Software\uCOS-III\Source/os_task.c **** 
1986:..\..\..\..\..\..\Software\uCOS-III\Source/os_task.c ****     p_tcb->TaskEntryAddr      = (OS_TASK_PTR    )0;
 1504              		.loc 1 1986 5 is_stmt 1 view .LVU486
 1505              		.loc 1 1986 31 is_stmt 0 view .LVU487
 1506 001a 8362     		str	r3, [r0, #40]
1987:..\..\..\..\..\..\Software\uCOS-III\Source/os_task.c ****     p_tcb->TaskEntryArg       = (void          *)0;
 1507              		.loc 1 1987 5 is_stmt 1 view .LVU488
 1508              		.loc 1 1987 31 is_stmt 0 view .LVU489
 1509 001c C362     		str	r3, [r0, #44]
1988:..\..\..\..\..\..\Software\uCOS-III\Source/os_task.c **** 
1989:..\..\..\..\..\..\Software\uCOS-III\Source/os_task.c **** #if (OS_CFG_PEND_MULTI_EN > 0u)
1990:..\..\..\..\..\..\Software\uCOS-III\Source/os_task.c ****     p_tcb->PendDataTblPtr     = (OS_PEND_DATA  *)0;
1991:..\..\..\..\..\..\Software\uCOS-III\Source/os_task.c ****     p_tcb->PendDataTblEntries = (OS_OBJ_QTY     )0u;
1992:..\..\..\..\..\..\Software\uCOS-III\Source/os_task.c **** #endif
1993:..\..\..\..\..\..\Software\uCOS-III\Source/os_task.c **** 
1994:..\..\..\..\..\..\Software\uCOS-III\Source/os_task.c ****     p_tcb->TS                 = (CPU_TS         )0u;
 1510              		.loc 1 1994 5 is_stmt 1 view .LVU490
 1511              		.loc 1 1994 31 is_stmt 0 view .LVU491
 1512 001e 0364     		str	r3, [r0, #64]
1995:..\..\..\..\..\..\Software\uCOS-III\Source/os_task.c **** 
1996:..\..\..\..\..\..\Software\uCOS-III\Source/os_task.c **** #if (OS_MSG_EN > 0u)
1997:..\..\..\..\..\..\Software\uCOS-III\Source/os_task.c ****     p_tcb->MsgPtr             = (void          *)0;
1998:..\..\..\..\..\..\Software\uCOS-III\Source/os_task.c ****     p_tcb->MsgSize            = (OS_MSG_SIZE    )0u;
1999:..\..\..\..\..\..\Software\uCOS-III\Source/os_task.c **** #endif
2000:..\..\..\..\..\..\Software\uCOS-III\Source/os_task.c **** 
2001:..\..\..\..\..\..\Software\uCOS-III\Source/os_task.c **** #if OS_CFG_TASK_Q_EN > 0u
2002:..\..\..\..\..\..\Software\uCOS-III\Source/os_task.c ****     OS_MsgQInit(&p_tcb->MsgQ,
2003:..\..\..\..\..\..\Software\uCOS-III\Source/os_task.c ****                 (OS_MSG_QTY)0u);
2004:..\..\..\..\..\..\Software\uCOS-III\Source/os_task.c **** #if OS_CFG_TASK_PROFILE_EN > 0u
2005:..\..\..\..\..\..\Software\uCOS-III\Source/os_task.c ****     p_tcb->MsgQPendTime       = (CPU_TS         )0u;
2006:..\..\..\..\..\..\Software\uCOS-III\Source/os_task.c ****     p_tcb->MsgQPendTimeMax    = (CPU_TS         )0u;
2007:..\..\..\..\..\..\Software\uCOS-III\Source/os_task.c **** #endif
2008:..\..\..\..\..\..\Software\uCOS-III\Source/os_task.c **** #endif
2009:..\..\..\..\..\..\Software\uCOS-III\Source/os_task.c **** 
2010:..\..\..\..\..\..\Software\uCOS-III\Source/os_task.c **** #if OS_CFG_FLAG_EN > 0u
2011:..\..\..\..\..\..\Software\uCOS-III\Source/os_task.c ****     p_tcb->FlagsPend          = (OS_FLAGS       )0u;
2012:..\..\..\..\..\..\Software\uCOS-III\Source/os_task.c ****     p_tcb->FlagsOpt           = (OS_OPT         )0u;
2013:..\..\..\..\..\..\Software\uCOS-III\Source/os_task.c ****     p_tcb->FlagsRdy           = (OS_FLAGS       )0u;
2014:..\..\..\..\..\..\Software\uCOS-III\Source/os_task.c **** #endif
2015:..\..\..\..\..\..\Software\uCOS-III\Source/os_task.c **** 
2016:..\..\..\..\..\..\Software\uCOS-III\Source/os_task.c **** #if OS_CFG_TASK_REG_TBL_SIZE > 0u
2017:..\..\..\..\..\..\Software\uCOS-III\Source/os_task.c ****     for (reg_id = 0u; reg_id < OS_CFG_TASK_REG_TBL_SIZE; reg_id++) {
 1513              		.loc 1 2017 5 is_stmt 1 view .LVU492
 1514              	.LVL160:
 1515              	.L112:
 1516              		.loc 1 2017 5 is_stmt 0 discriminator 1 view .LVU493
 1517 0020 002B     		cmp	r3, #0
 1518 0022 1FD0     		beq	.L113
2018:..\..\..\..\..\..\Software\uCOS-III\Source/os_task.c ****         p_tcb->RegTbl[reg_id] = (OS_REG)0u;
2019:..\..\..\..\..\..\Software\uCOS-III\Source/os_task.c ****     }
2020:..\..\..\..\..\..\Software\uCOS-III\Source/os_task.c **** #endif
2021:..\..\..\..\..\..\Software\uCOS-III\Source/os_task.c **** 
ARM GAS  C:\Users\EDULU~1.DES\AppData\Local\Temp\ccxcKTgR.s 			page 68


2022:..\..\..\..\..\..\Software\uCOS-III\Source/os_task.c **** #if defined(OS_CFG_TLS_TBL_SIZE) && (OS_CFG_TLS_TBL_SIZE > 0u)
2023:..\..\..\..\..\..\Software\uCOS-III\Source/os_task.c ****     for (id = 0u; id < OS_CFG_TLS_TBL_SIZE; id++) {
2024:..\..\..\..\..\..\Software\uCOS-III\Source/os_task.c ****         p_tcb->TLS_Tbl[id]    = (OS_TLS)0;
2025:..\..\..\..\..\..\Software\uCOS-III\Source/os_task.c ****     }
2026:..\..\..\..\..\..\Software\uCOS-III\Source/os_task.c **** #endif
2027:..\..\..\..\..\..\Software\uCOS-III\Source/os_task.c **** 
2028:..\..\..\..\..\..\Software\uCOS-III\Source/os_task.c ****     p_tcb->SemCtr             = (OS_SEM_CTR     )0u;
 1519              		.loc 1 2028 5 is_stmt 1 view .LVU494
 1520              		.loc 1 2028 31 is_stmt 0 view .LVU495
 1521 0024 0023     		movs	r3, #0
 1522              	.LVL161:
 1523              		.loc 1 2028 31 view .LVU496
 1524 0026 4364     		str	r3, [r0, #68]
2029:..\..\..\..\..\..\Software\uCOS-III\Source/os_task.c **** #if OS_CFG_TASK_PROFILE_EN > 0u
2030:..\..\..\..\..\..\Software\uCOS-III\Source/os_task.c ****     p_tcb->SemPendTime        = (CPU_TS         )0u;
2031:..\..\..\..\..\..\Software\uCOS-III\Source/os_task.c ****     p_tcb->SemPendTimeMax     = (CPU_TS         )0u;
2032:..\..\..\..\..\..\Software\uCOS-III\Source/os_task.c **** #endif
2033:..\..\..\..\..\..\Software\uCOS-III\Source/os_task.c **** 
2034:..\..\..\..\..\..\Software\uCOS-III\Source/os_task.c ****     p_tcb->StkSize            = (CPU_STK_SIZE   )0u;
 1525              		.loc 1 2034 5 is_stmt 1 view .LVU497
 1526              		.loc 1 2034 31 is_stmt 0 view .LVU498
 1527 0028 8363     		str	r3, [r0, #56]
2035:..\..\..\..\..\..\Software\uCOS-III\Source/os_task.c **** 
2036:..\..\..\..\..\..\Software\uCOS-III\Source/os_task.c **** 
2037:..\..\..\..\..\..\Software\uCOS-III\Source/os_task.c **** #if OS_CFG_TASK_SUSPEND_EN > 0u
2038:..\..\..\..\..\..\Software\uCOS-III\Source/os_task.c ****     p_tcb->SuspendCtr         = (OS_NESTING_CTR )0u;
 1528              		.loc 1 2038 5 is_stmt 1 view .LVU499
 1529              		.loc 1 2038 31 is_stmt 0 view .LVU500
 1530 002a 0022     		movs	r2, #0
 1531 002c 6021     		movs	r1, #96
 1532 002e 4354     		strb	r3, [r0, r1]
2039:..\..\..\..\..\..\Software\uCOS-III\Source/os_task.c **** #endif
2040:..\..\..\..\..\..\Software\uCOS-III\Source/os_task.c **** 
2041:..\..\..\..\..\..\Software\uCOS-III\Source/os_task.c **** #if OS_CFG_STAT_TASK_STK_CHK_EN > 0u
2042:..\..\..\..\..\..\Software\uCOS-III\Source/os_task.c ****     p_tcb->StkFree            = (CPU_STK_SIZE   )0u;
 1533              		.loc 1 2042 5 is_stmt 1 view .LVU501
 1534              		.loc 1 2042 31 is_stmt 0 view .LVU502
 1535 0030 8366     		str	r3, [r0, #104]
2043:..\..\..\..\..\..\Software\uCOS-III\Source/os_task.c ****     p_tcb->StkUsed            = (CPU_STK_SIZE   )0u;
 1536              		.loc 1 2043 5 is_stmt 1 view .LVU503
 1537              		.loc 1 2043 31 is_stmt 0 view .LVU504
 1538 0032 4366     		str	r3, [r0, #100]
2044:..\..\..\..\..\..\Software\uCOS-III\Source/os_task.c **** #endif
2045:..\..\..\..\..\..\Software\uCOS-III\Source/os_task.c **** 
2046:..\..\..\..\..\..\Software\uCOS-III\Source/os_task.c ****     p_tcb->Opt                = (OS_OPT         )0u;
 1539              		.loc 1 2046 5 is_stmt 1 view .LVU505
 1540              		.loc 1 2046 31 is_stmt 0 view .LVU506
 1541 0034 8387     		strh	r3, [r0, #60]
2047:..\..\..\..\..\..\Software\uCOS-III\Source/os_task.c **** 
2048:..\..\..\..\..\..\Software\uCOS-III\Source/os_task.c ****     p_tcb->TickCtrPrev        = (OS_TICK        )OS_TICK_TH_INIT;
 1542              		.loc 1 2048 5 is_stmt 1 view .LVU507
 1543              		.loc 1 2048 31 is_stmt 0 view .LVU508
 1544 0036 8021     		movs	r1, #128
 1545 0038 0906     		lsls	r1, r1, #24
 1546 003a 8164     		str	r1, [r0, #72]
2049:..\..\..\..\..\..\Software\uCOS-III\Source/os_task.c ****     p_tcb->TickCtrMatch       = (OS_TICK        )0u;
 1547              		.loc 1 2049 5 is_stmt 1 view .LVU509
ARM GAS  C:\Users\EDULU~1.DES\AppData\Local\Temp\ccxcKTgR.s 			page 69


 1548              		.loc 1 2049 31 is_stmt 0 view .LVU510
 1549 003c C364     		str	r3, [r0, #76]
2050:..\..\..\..\..\..\Software\uCOS-III\Source/os_task.c ****     p_tcb->TickRemain         = (OS_TICK        )0u;
 1550              		.loc 1 2050 5 is_stmt 1 view .LVU511
 1551              		.loc 1 2050 31 is_stmt 0 view .LVU512
 1552 003e 0365     		str	r3, [r0, #80]
2051:..\..\..\..\..\..\Software\uCOS-III\Source/os_task.c **** 
2052:..\..\..\..\..\..\Software\uCOS-III\Source/os_task.c ****     p_tcb->TimeQuanta         = (OS_TICK        )0u;
 1553              		.loc 1 2052 5 is_stmt 1 view .LVU513
 1554              		.loc 1 2052 31 is_stmt 0 view .LVU514
 1555 0040 4365     		str	r3, [r0, #84]
2053:..\..\..\..\..\..\Software\uCOS-III\Source/os_task.c ****     p_tcb->TimeQuantaCtr      = (OS_TICK        )0u;
 1556              		.loc 1 2053 5 is_stmt 1 view .LVU515
 1557              		.loc 1 2053 31 is_stmt 0 view .LVU516
 1558 0042 8365     		str	r3, [r0, #88]
2054:..\..\..\..\..\..\Software\uCOS-III\Source/os_task.c **** 
2055:..\..\..\..\..\..\Software\uCOS-III\Source/os_task.c **** #if OS_CFG_TASK_PROFILE_EN > 0u
2056:..\..\..\..\..\..\Software\uCOS-III\Source/os_task.c ****     p_tcb->CPUUsage           = (OS_CPU_USAGE   )0u;
2057:..\..\..\..\..\..\Software\uCOS-III\Source/os_task.c ****     p_tcb->CPUUsageMax        = (OS_CPU_USAGE   )0u;
2058:..\..\..\..\..\..\Software\uCOS-III\Source/os_task.c ****     p_tcb->CtxSwCtr           = (OS_CTX_SW_CTR  )0u;
2059:..\..\..\..\..\..\Software\uCOS-III\Source/os_task.c ****     p_tcb->CyclesDelta        = (CPU_TS         )0u;
2060:..\..\..\..\..\..\Software\uCOS-III\Source/os_task.c ****     ts                        = OS_TS_GET();                /* Read the current timestamp and save 
2061:..\..\..\..\..\..\Software\uCOS-III\Source/os_task.c ****     p_tcb->CyclesStart        = ts;
2062:..\..\..\..\..\..\Software\uCOS-III\Source/os_task.c ****     p_tcb->CyclesTotal        = (OS_CYCLES      )0u;
2063:..\..\..\..\..\..\Software\uCOS-III\Source/os_task.c **** #endif
2064:..\..\..\..\..\..\Software\uCOS-III\Source/os_task.c **** #ifdef CPU_CFG_INT_DIS_MEAS_EN
2065:..\..\..\..\..\..\Software\uCOS-III\Source/os_task.c ****     p_tcb->IntDisTimeMax      = (CPU_TS         )0u;
 1559              		.loc 1 2065 5 is_stmt 1 view .LVU517
 1560              		.loc 1 2065 31 is_stmt 0 view .LVU518
 1561 0044 C366     		str	r3, [r0, #108]
2066:..\..\..\..\..\..\Software\uCOS-III\Source/os_task.c **** #endif
2067:..\..\..\..\..\..\Software\uCOS-III\Source/os_task.c **** #if OS_CFG_SCHED_LOCK_TIME_MEAS_EN > 0u
2068:..\..\..\..\..\..\Software\uCOS-III\Source/os_task.c ****     p_tcb->SchedLockTimeMax   = (CPU_TS         )0u;
2069:..\..\..\..\..\..\Software\uCOS-III\Source/os_task.c **** #endif
2070:..\..\..\..\..\..\Software\uCOS-III\Source/os_task.c **** 
2071:..\..\..\..\..\..\Software\uCOS-III\Source/os_task.c ****     p_tcb->PendOn             = (OS_STATE       )OS_TASK_PEND_ON_NOTHING;
 1562              		.loc 1 2071 5 is_stmt 1 view .LVU519
 1563              		.loc 1 2071 31 is_stmt 0 view .LVU520
 1564 0046 0024     		movs	r4, #0
 1565 0048 3421     		movs	r1, #52
 1566 004a 4454     		strb	r4, [r0, r1]
2072:..\..\..\..\..\..\Software\uCOS-III\Source/os_task.c ****     p_tcb->PendStatus         = (OS_STATUS      )OS_STATUS_PEND_OK;
 1567              		.loc 1 2072 5 is_stmt 1 view .LVU521
 1568              		.loc 1 2072 31 is_stmt 0 view .LVU522
 1569 004c 0131     		adds	r1, r1, #1
 1570 004e 4254     		strb	r2, [r0, r1]
2073:..\..\..\..\..\..\Software\uCOS-III\Source/os_task.c ****     p_tcb->TaskState          = (OS_STATE       )OS_TASK_STATE_RDY;
 1571              		.loc 1 2073 5 is_stmt 1 view .LVU523
 1572              		.loc 1 2073 31 is_stmt 0 view .LVU524
 1573 0050 0131     		adds	r1, r1, #1
 1574 0052 4254     		strb	r2, [r0, r1]
2074:..\..\..\..\..\..\Software\uCOS-III\Source/os_task.c **** 
2075:..\..\..\..\..\..\Software\uCOS-III\Source/os_task.c ****     p_tcb->Prio               = (OS_PRIO        )OS_PRIO_INIT;
 1575              		.loc 1 2075 5 is_stmt 1 view .LVU525
 1576              		.loc 1 2075 31 is_stmt 0 view .LVU526
 1577 0054 3722     		movs	r2, #55
 1578 0056 1639     		subs	r1, r1, #22
ARM GAS  C:\Users\EDULU~1.DES\AppData\Local\Temp\ccxcKTgR.s 			page 70


 1579 0058 8154     		strb	r1, [r0, r2]
2076:..\..\..\..\..\..\Software\uCOS-III\Source/os_task.c **** 
2077:..\..\..\..\..\..\Software\uCOS-III\Source/os_task.c **** #if OS_CFG_DBG_EN > 0u
2078:..\..\..\..\..\..\Software\uCOS-III\Source/os_task.c ****     p_tcb->DbgPrevPtr         = (OS_TCB        *)0;
 1580              		.loc 1 2078 5 is_stmt 1 view .LVU527
 1581              		.loc 1 2078 31 is_stmt 0 view .LVU528
 1582 005a 0367     		str	r3, [r0, #112]
2079:..\..\..\..\..\..\Software\uCOS-III\Source/os_task.c ****     p_tcb->DbgNextPtr         = (OS_TCB        *)0;
 1583              		.loc 1 2079 5 is_stmt 1 view .LVU529
 1584              		.loc 1 2079 31 is_stmt 0 view .LVU530
 1585 005c 4367     		str	r3, [r0, #116]
2080:..\..\..\..\..\..\Software\uCOS-III\Source/os_task.c ****     p_tcb->DbgNamePtr         = (CPU_CHAR      *)((void *)" ");
 1586              		.loc 1 2080 5 is_stmt 1 view .LVU531
 1587              		.loc 1 2080 31 is_stmt 0 view .LVU532
 1588 005e 074B     		ldr	r3, .L114+4
 1589 0060 8367     		str	r3, [r0, #120]
2081:..\..\..\..\..\..\Software\uCOS-III\Source/os_task.c **** #endif
2082:..\..\..\..\..\..\Software\uCOS-III\Source/os_task.c **** }
 1590              		.loc 1 2082 1 view .LVU533
 1591              		@ sp needed
 1592 0062 10BD     		pop	{r4, pc}
 1593              	.LVL162:
 1594              	.L113:
2018:..\..\..\..\..\..\Software\uCOS-III\Source/os_task.c ****     }
 1595              		.loc 1 2018 9 is_stmt 1 discriminator 3 view .LVU534
2018:..\..\..\..\..\..\Software\uCOS-III\Source/os_task.c ****     }
 1596              		.loc 1 2018 31 is_stmt 0 discriminator 3 view .LVU535
 1597 0064 1A00     		movs	r2, r3
 1598 0066 1632     		adds	r2, r2, #22
 1599 0068 9200     		lsls	r2, r2, #2
 1600 006a 8218     		adds	r2, r0, r2
 1601 006c 0021     		movs	r1, #0
 1602 006e 5160     		str	r1, [r2, #4]
2017:..\..\..\..\..\..\Software\uCOS-III\Source/os_task.c ****         p_tcb->RegTbl[reg_id] = (OS_REG)0u;
 1603              		.loc 1 2017 64 discriminator 3 view .LVU536
 1604 0070 0133     		adds	r3, r3, #1
 1605              	.LVL163:
2017:..\..\..\..\..\..\Software\uCOS-III\Source/os_task.c ****         p_tcb->RegTbl[reg_id] = (OS_REG)0u;
 1606              		.loc 1 2017 64 discriminator 3 view .LVU537
 1607 0072 DBB2     		uxtb	r3, r3
 1608              	.LVL164:
2017:..\..\..\..\..\..\Software\uCOS-III\Source/os_task.c ****         p_tcb->RegTbl[reg_id] = (OS_REG)0u;
 1609              		.loc 1 2017 64 discriminator 3 view .LVU538
 1610 0074 D4E7     		b	.L112
 1611              	.L115:
 1612 0076 C046     		.align	2
 1613              	.L114:
 1614 0078 00000000 		.word	.LC19
 1615 007c 08000000 		.word	.LC21
 1616              		.cfi_endproc
 1617              	.LFE17:
 1618              		.size	OS_TaskInitTCB, .-OS_TaskInitTCB
 1619              		.section	.text.OSTaskCreate,"ax",%progbits
 1620              		.align	1
 1621              		.global	OSTaskCreate
 1622              		.syntax unified
 1623              		.code	16
ARM GAS  C:\Users\EDULU~1.DES\AppData\Local\Temp\ccxcKTgR.s 			page 71


 1624              		.thumb_func
 1625              		.fpu softvfp
 1626              		.type	OSTaskCreate, %function
 1627              	OSTaskCreate:
 1628              	.LVL165:
 1629              	.LFB4:
 262:..\..\..\..\..\..\Software\uCOS-III\Source/os_task.c ****     CPU_STK_SIZE   i;
 1630              		.loc 1 262 1 is_stmt 1 view -0
 1631              		.cfi_startproc
 1632              		@ args = 36, pretend = 0, frame = 8
 1633              		@ frame_needed = 0, uses_anonymous_args = 0
 262:..\..\..\..\..\..\Software\uCOS-III\Source/os_task.c ****     CPU_STK_SIZE   i;
 1634              		.loc 1 262 1 is_stmt 0 view .LVU540
 1635 0000 F0B5     		push	{r4, r5, r6, r7, lr}
 1636              		.cfi_def_cfa_offset 20
 1637              		.cfi_offset 4, -20
 1638              		.cfi_offset 5, -16
 1639              		.cfi_offset 6, -12
 1640              		.cfi_offset 7, -8
 1641              		.cfi_offset 14, -4
 1642 0002 D646     		mov	lr, r10
 1643 0004 00B5     		push	{lr}
 1644              		.cfi_def_cfa_offset 24
 1645              		.cfi_offset 10, -24
 1646 0006 84B0     		sub	sp, sp, #16
 1647              		.cfi_def_cfa_offset 40
 1648 0008 0400     		movs	r4, r0
 1649 000a 0391     		str	r1, [sp, #12]
 1650 000c 1500     		movs	r5, r2
 1651 000e 0293     		str	r3, [sp, #8]
 1652 0010 0AAB     		add	r3, sp, #40
 1653              	.LVL166:
 262:..\..\..\..\..\..\Software\uCOS-III\Source/os_task.c ****     CPU_STK_SIZE   i;
 1654              		.loc 1 262 1 view .LVU541
 1655 0012 1E78     		ldrb	r6, [r3]
 1656 0014 11AB     		add	r3, sp, #68
 1657              	.LVL167:
 262:..\..\..\..\..\..\Software\uCOS-III\Source/os_task.c ****     CPU_STK_SIZE   i;
 1658              		.loc 1 262 1 view .LVU542
 1659 0016 1F88     		ldrh	r7, [r3]
 263:..\..\..\..\..\..\Software\uCOS-III\Source/os_task.c **** #if OS_CFG_TASK_REG_TBL_SIZE > 0u
 1660              		.loc 1 263 5 is_stmt 1 view .LVU543
 265:..\..\..\..\..\..\Software\uCOS-III\Source/os_task.c **** #endif
 1661              		.loc 1 265 5 view .LVU544
 271:..\..\..\..\..\..\Software\uCOS-III\Source/os_task.c ****     CPU_STK       *p_stk_limit;
 1662              		.loc 1 271 5 view .LVU545
 272:..\..\..\..\..\..\Software\uCOS-III\Source/os_task.c ****     CPU_SR_ALLOC();
 1663              		.loc 1 272 5 view .LVU546
 273:..\..\..\..\..\..\Software\uCOS-III\Source/os_task.c **** 
 1664              		.loc 1 273 5 view .LVU547
 1665              	.LVL168:
 292:..\..\..\..\..\..\Software\uCOS-III\Source/os_task.c ****        *p_err = OS_ERR_TASK_CREATE_ISR;
 1666              		.loc 1 292 5 view .LVU548
 292:..\..\..\..\..\..\Software\uCOS-III\Source/os_task.c ****        *p_err = OS_ERR_TASK_CREATE_ISR;
 1667              		.loc 1 292 25 is_stmt 0 view .LVU549
 1668 0018 524B     		ldr	r3, .L140
 1669              	.LVL169:
ARM GAS  C:\Users\EDULU~1.DES\AppData\Local\Temp\ccxcKTgR.s 			page 72


 292:..\..\..\..\..\..\Software\uCOS-III\Source/os_task.c ****        *p_err = OS_ERR_TASK_CREATE_ISR;
 1670              		.loc 1 292 25 view .LVU550
 1671 001a 1B78     		ldrb	r3, [r3]
 292:..\..\..\..\..\..\Software\uCOS-III\Source/os_task.c ****        *p_err = OS_ERR_TASK_CREATE_ISR;
 1672              		.loc 1 292 8 view .LVU551
 1673 001c 002B     		cmp	r3, #0
 1674 001e 19D1     		bne	.L133
 299:..\..\..\..\..\..\Software\uCOS-III\Source/os_task.c ****        *p_err = OS_ERR_TCB_INVALID;
 1675              		.loc 1 299 5 is_stmt 1 view .LVU552
 299:..\..\..\..\..\..\Software\uCOS-III\Source/os_task.c ****        *p_err = OS_ERR_TCB_INVALID;
 1676              		.loc 1 299 8 is_stmt 0 view .LVU553
 1677 0020 0028     		cmp	r0, #0
 1678 0022 1ED0     		beq	.L134
 303:..\..\..\..\..\..\Software\uCOS-III\Source/os_task.c ****        *p_err = OS_ERR_TASK_INVALID;
 1679              		.loc 1 303 5 is_stmt 1 view .LVU554
 303:..\..\..\..\..\..\Software\uCOS-III\Source/os_task.c ****        *p_err = OS_ERR_TASK_INVALID;
 1680              		.loc 1 303 8 is_stmt 0 view .LVU555
 1681 0024 002A     		cmp	r2, #0
 1682 0026 20D0     		beq	.L135
 307:..\..\..\..\..\..\Software\uCOS-III\Source/os_task.c ****        *p_err = OS_ERR_STK_INVALID;
 1683              		.loc 1 307 5 is_stmt 1 view .LVU556
 307:..\..\..\..\..\..\Software\uCOS-III\Source/os_task.c ****        *p_err = OS_ERR_STK_INVALID;
 1684              		.loc 1 307 8 is_stmt 0 view .LVU557
 1685 0028 0B9B     		ldr	r3, [sp, #44]
 1686 002a 002B     		cmp	r3, #0
 1687 002c 21D0     		beq	.L136
 311:..\..\..\..\..\..\Software\uCOS-III\Source/os_task.c ****        *p_err = OS_ERR_STK_SIZE_INVALID;
 1688              		.loc 1 311 5 is_stmt 1 view .LVU558
 311:..\..\..\..\..\..\Software\uCOS-III\Source/os_task.c ****        *p_err = OS_ERR_STK_SIZE_INVALID;
 1689              		.loc 1 311 18 is_stmt 0 view .LVU559
 1690 002e 4E4B     		ldr	r3, .L140+4
 1691 0030 1B68     		ldr	r3, [r3]
 311:..\..\..\..\..\..\Software\uCOS-III\Source/os_task.c ****        *p_err = OS_ERR_STK_SIZE_INVALID;
 1692              		.loc 1 311 8 view .LVU560
 1693 0032 0D9A     		ldr	r2, [sp, #52]
 1694              	.LVL170:
 311:..\..\..\..\..\..\Software\uCOS-III\Source/os_task.c ****        *p_err = OS_ERR_STK_SIZE_INVALID;
 1695              		.loc 1 311 8 view .LVU561
 1696 0034 9342     		cmp	r3, r2
 1697 0036 20D8     		bhi	.L137
 315:..\..\..\..\..\..\Software\uCOS-III\Source/os_task.c ****        *p_err = OS_ERR_STK_LIMIT_INVALID;
 1698              		.loc 1 315 5 is_stmt 1 view .LVU562
 315:..\..\..\..\..\..\Software\uCOS-III\Source/os_task.c ****        *p_err = OS_ERR_STK_LIMIT_INVALID;
 1699              		.loc 1 315 8 is_stmt 0 view .LVU563
 1700 0038 0D9B     		ldr	r3, [sp, #52]
 1701 003a 0C9A     		ldr	r2, [sp, #48]
 1702 003c 9342     		cmp	r3, r2
 1703 003e 20D9     		bls	.L138
 319:..\..\..\..\..\..\Software\uCOS-III\Source/os_task.c ****        *p_err = OS_ERR_PRIO_INVALID;
 1704              		.loc 1 319 5 is_stmt 1 view .LVU564
 319:..\..\..\..\..\..\Software\uCOS-III\Source/os_task.c ****        *p_err = OS_ERR_PRIO_INVALID;
 1705              		.loc 1 319 8 is_stmt 0 view .LVU565
 1706 0040 1F2E     		cmp	r6, #31
 1707 0042 22D8     		bhi	.L139
 334:..\..\..\..\..\..\Software\uCOS-III\Source/os_task.c ****         if (p_tcb != &OSIdleTaskTCB) {
 1708              		.loc 1 334 5 is_stmt 1 view .LVU566
 334:..\..\..\..\..\..\Software\uCOS-III\Source/os_task.c ****         if (p_tcb != &OSIdleTaskTCB) {
ARM GAS  C:\Users\EDULU~1.DES\AppData\Local\Temp\ccxcKTgR.s 			page 73


 1709              		.loc 1 334 8 is_stmt 0 view .LVU567
 1710 0044 25D1     		bne	.L125
 335:..\..\..\..\..\..\Software\uCOS-III\Source/os_task.c ****            *p_err = OS_ERR_PRIO_INVALID;                    /* Not allowed to use same priority as 
 1711              		.loc 1 335 9 is_stmt 1 view .LVU568
 335:..\..\..\..\..\..\Software\uCOS-III\Source/os_task.c ****            *p_err = OS_ERR_PRIO_INVALID;                    /* Not allowed to use same priority as 
 1712              		.loc 1 335 12 is_stmt 0 view .LVU569
 1713 0046 494B     		ldr	r3, .L140+8
 1714 0048 9842     		cmp	r0, r3
 1715 004a 22D0     		beq	.L125
 336:..\..\..\..\..\..\Software\uCOS-III\Source/os_task.c ****             return;
 1716              		.loc 1 336 12 is_stmt 1 view .LVU570
 336:..\..\..\..\..\..\Software\uCOS-III\Source/os_task.c ****             return;
 1717              		.loc 1 336 19 is_stmt 0 view .LVU571
 1718 004c 484B     		ldr	r3, .L140+12
 1719 004e 129A     		ldr	r2, [sp, #72]
 1720 0050 1380     		strh	r3, [r2]
 337:..\..\..\..\..\..\Software\uCOS-III\Source/os_task.c ****         }
 1721              		.loc 1 337 13 is_stmt 1 view .LVU572
 1722 0052 02E0     		b	.L116
 1723              	.LVL171:
 1724              	.L133:
 293:..\..\..\..\..\..\Software\uCOS-III\Source/os_task.c ****         return;
 1725              		.loc 1 293 8 view .LVU573
 293:..\..\..\..\..\..\Software\uCOS-III\Source/os_task.c ****         return;
 1726              		.loc 1 293 15 is_stmt 0 view .LVU574
 1727 0054 474B     		ldr	r3, .L140+16
 1728 0056 129A     		ldr	r2, [sp, #72]
 1729              	.LVL172:
 293:..\..\..\..\..\..\Software\uCOS-III\Source/os_task.c ****         return;
 1730              		.loc 1 293 15 view .LVU575
 1731 0058 1380     		strh	r3, [r2]
 294:..\..\..\..\..\..\Software\uCOS-III\Source/os_task.c ****     }
 1732              		.loc 1 294 9 is_stmt 1 view .LVU576
 1733              	.LVL173:
 1734              	.L116:
 432:..\..\..\..\..\..\Software\uCOS-III\Source/os_task.c **** 
 1735              		.loc 1 432 1 is_stmt 0 view .LVU577
 1736 005a 04B0     		add	sp, sp, #16
 1737              		@ sp needed
 1738              	.LVL174:
 432:..\..\..\..\..\..\Software\uCOS-III\Source/os_task.c **** 
 1739              		.loc 1 432 1 view .LVU578
 1740 005c 04BC     		pop	{r2}
 1741 005e 9246     		mov	r10, r2
 1742 0060 F0BD     		pop	{r4, r5, r6, r7, pc}
 1743              	.LVL175:
 1744              	.L134:
 300:..\..\..\..\..\..\Software\uCOS-III\Source/os_task.c ****         return;
 1745              		.loc 1 300 8 is_stmt 1 view .LVU579
 300:..\..\..\..\..\..\Software\uCOS-III\Source/os_task.c ****         return;
 1746              		.loc 1 300 15 is_stmt 0 view .LVU580
 1747 0062 454B     		ldr	r3, .L140+20
 1748 0064 129A     		ldr	r2, [sp, #72]
 1749              	.LVL176:
 300:..\..\..\..\..\..\Software\uCOS-III\Source/os_task.c ****         return;
 1750              		.loc 1 300 15 view .LVU581
 1751 0066 1380     		strh	r3, [r2]
ARM GAS  C:\Users\EDULU~1.DES\AppData\Local\Temp\ccxcKTgR.s 			page 74


 301:..\..\..\..\..\..\Software\uCOS-III\Source/os_task.c ****     }
 1752              		.loc 1 301 9 is_stmt 1 view .LVU582
 1753 0068 F7E7     		b	.L116
 1754              	.LVL177:
 1755              	.L135:
 304:..\..\..\..\..\..\Software\uCOS-III\Source/os_task.c ****         return;
 1756              		.loc 1 304 8 view .LVU583
 304:..\..\..\..\..\..\Software\uCOS-III\Source/os_task.c ****         return;
 1757              		.loc 1 304 15 is_stmt 0 view .LVU584
 1758 006a 444B     		ldr	r3, .L140+24
 1759 006c 129A     		ldr	r2, [sp, #72]
 1760              	.LVL178:
 304:..\..\..\..\..\..\Software\uCOS-III\Source/os_task.c ****         return;
 1761              		.loc 1 304 15 view .LVU585
 1762 006e 1380     		strh	r3, [r2]
 305:..\..\..\..\..\..\Software\uCOS-III\Source/os_task.c ****     }
 1763              		.loc 1 305 9 is_stmt 1 view .LVU586
 1764 0070 F3E7     		b	.L116
 1765              	.LVL179:
 1766              	.L136:
 308:..\..\..\..\..\..\Software\uCOS-III\Source/os_task.c ****         return;
 1767              		.loc 1 308 8 view .LVU587
 308:..\..\..\..\..\..\Software\uCOS-III\Source/os_task.c ****         return;
 1768              		.loc 1 308 15 is_stmt 0 view .LVU588
 1769 0072 434B     		ldr	r3, .L140+28
 1770 0074 129A     		ldr	r2, [sp, #72]
 1771              	.LVL180:
 308:..\..\..\..\..\..\Software\uCOS-III\Source/os_task.c ****         return;
 1772              		.loc 1 308 15 view .LVU589
 1773 0076 1380     		strh	r3, [r2]
 309:..\..\..\..\..\..\Software\uCOS-III\Source/os_task.c ****     }
 1774              		.loc 1 309 9 is_stmt 1 view .LVU590
 1775 0078 EFE7     		b	.L116
 1776              	.L137:
 312:..\..\..\..\..\..\Software\uCOS-III\Source/os_task.c ****         return;
 1777              		.loc 1 312 8 view .LVU591
 312:..\..\..\..\..\..\Software\uCOS-III\Source/os_task.c ****         return;
 1778              		.loc 1 312 15 is_stmt 0 view .LVU592
 1779 007a 424B     		ldr	r3, .L140+32
 1780 007c 129A     		ldr	r2, [sp, #72]
 1781 007e 1380     		strh	r3, [r2]
 313:..\..\..\..\..\..\Software\uCOS-III\Source/os_task.c ****     }
 1782              		.loc 1 313 9 is_stmt 1 view .LVU593
 1783 0080 EBE7     		b	.L116
 1784              	.L138:
 316:..\..\..\..\..\..\Software\uCOS-III\Source/os_task.c ****         return;
 1785              		.loc 1 316 8 view .LVU594
 316:..\..\..\..\..\..\Software\uCOS-III\Source/os_task.c ****         return;
 1786              		.loc 1 316 15 is_stmt 0 view .LVU595
 1787 0082 414B     		ldr	r3, .L140+36
 1788 0084 129A     		ldr	r2, [sp, #72]
 1789 0086 1380     		strh	r3, [r2]
 317:..\..\..\..\..\..\Software\uCOS-III\Source/os_task.c ****     }
 1790              		.loc 1 317 9 is_stmt 1 view .LVU596
 1791 0088 E7E7     		b	.L116
 1792              	.L139:
 320:..\..\..\..\..\..\Software\uCOS-III\Source/os_task.c ****         return;
ARM GAS  C:\Users\EDULU~1.DES\AppData\Local\Temp\ccxcKTgR.s 			page 75


 1793              		.loc 1 320 8 view .LVU597
 320:..\..\..\..\..\..\Software\uCOS-III\Source/os_task.c ****         return;
 1794              		.loc 1 320 15 is_stmt 0 view .LVU598
 1795 008a 394B     		ldr	r3, .L140+12
 1796 008c 129A     		ldr	r2, [sp, #72]
 1797 008e 1380     		strh	r3, [r2]
 321:..\..\..\..\..\..\Software\uCOS-III\Source/os_task.c ****     }
 1798              		.loc 1 321 9 is_stmt 1 view .LVU599
 1799 0090 E3E7     		b	.L116
 1800              	.L125:
 341:..\..\..\..\..\..\Software\uCOS-III\Source/os_task.c **** 
 1801              		.loc 1 341 5 view .LVU600
 1802 0092 2000     		movs	r0, r4
 1803              	.LVL181:
 341:..\..\..\..\..\..\Software\uCOS-III\Source/os_task.c **** 
 1804              		.loc 1 341 5 is_stmt 0 view .LVU601
 1805 0094 FFF7FEFF 		bl	OS_TaskInitTCB
 1806              	.LVL182:
 343:..\..\..\..\..\..\Software\uCOS-III\Source/os_task.c ****                                                             /* --------------- CLEAR THE TASK'S STA
 1807              		.loc 1 343 4 is_stmt 1 view .LVU602
 343:..\..\..\..\..\..\Software\uCOS-III\Source/os_task.c ****                                                             /* --------------- CLEAR THE TASK'S STA
 1808              		.loc 1 343 11 is_stmt 0 view .LVU603
 1809 0098 0023     		movs	r3, #0
 1810 009a 129A     		ldr	r2, [sp, #72]
 1811 009c 1380     		strh	r3, [r2]
 345:..\..\..\..\..\..\Software\uCOS-III\Source/os_task.c ****         if ((opt & OS_OPT_TASK_STK_CLR) != (OS_OPT)0) {     /* See if stack needs to be cleared    
 1812              		.loc 1 345 5 is_stmt 1 view .LVU604
 345:..\..\..\..\..\..\Software\uCOS-III\Source/os_task.c ****         if ((opt & OS_OPT_TASK_STK_CLR) != (OS_OPT)0) {     /* See if stack needs to be cleared    
 1813              		.loc 1 345 8 is_stmt 0 view .LVU605
 1814 009e FB07     		lsls	r3, r7, #31
 1815 00a0 01D5     		bpl	.L126
 346:..\..\..\..\..\..\Software\uCOS-III\Source/os_task.c ****             p_sp = p_stk_base;
 1816              		.loc 1 346 9 is_stmt 1 view .LVU606
 346:..\..\..\..\..\..\Software\uCOS-III\Source/os_task.c ****             p_sp = p_stk_base;
 1817              		.loc 1 346 12 is_stmt 0 view .LVU607
 1818 00a2 BB07     		lsls	r3, r7, #30
 1819 00a4 49D4     		bmi	.L132
 1820              	.L126:
 356:..\..\..\..\..\..\Software\uCOS-III\Source/os_task.c **** #else
 1821              		.loc 1 356 5 is_stmt 1 view .LVU608
 356:..\..\..\..\..\..\Software\uCOS-III\Source/os_task.c **** #else
 1822              		.loc 1 356 30 is_stmt 0 view .LVU609
 1823 00a6 0C9B     		ldr	r3, [sp, #48]
 1824 00a8 9B00     		lsls	r3, r3, #2
 356:..\..\..\..\..\..\Software\uCOS-III\Source/os_task.c **** #else
 1825              		.loc 1 356 17 view .LVU610
 1826 00aa 0B9A     		ldr	r2, [sp, #44]
 1827 00ac 9246     		mov	r10, r2
 1828 00ae 9A44     		add	r10, r10, r3
 1829              	.LVL183:
 361:..\..\..\..\..\..\Software\uCOS-III\Source/os_task.c ****                          p_arg,
 1830              		.loc 1 361 5 is_stmt 1 view .LVU611
 361:..\..\..\..\..\..\Software\uCOS-III\Source/os_task.c ****                          p_arg,
 1831              		.loc 1 361 12 is_stmt 0 view .LVU612
 1832 00b0 0197     		str	r7, [sp, #4]
 1833 00b2 0D9B     		ldr	r3, [sp, #52]
 1834 00b4 0093     		str	r3, [sp]
ARM GAS  C:\Users\EDULU~1.DES\AppData\Local\Temp\ccxcKTgR.s 			page 76


 1835 00b6 5346     		mov	r3, r10
 1836 00b8 0299     		ldr	r1, [sp, #8]
 1837 00ba 2800     		movs	r0, r5
 1838 00bc FFF7FEFF 		bl	OSTaskStkInit
 1839              	.LVL184:
 369:..\..\..\..\..\..\Software\uCOS-III\Source/os_task.c ****     p_tcb->TaskEntryArg  = p_arg;                           /* Save task entry argument            
 1840              		.loc 1 369 5 is_stmt 1 view .LVU613
 369:..\..\..\..\..\..\Software\uCOS-III\Source/os_task.c ****     p_tcb->TaskEntryArg  = p_arg;                           /* Save task entry argument            
 1841              		.loc 1 369 26 is_stmt 0 view .LVU614
 1842 00c0 A562     		str	r5, [r4, #40]
 370:..\..\..\..\..\..\Software\uCOS-III\Source/os_task.c **** 
 1843              		.loc 1 370 5 is_stmt 1 view .LVU615
 370:..\..\..\..\..\..\Software\uCOS-III\Source/os_task.c **** 
 1844              		.loc 1 370 26 is_stmt 0 view .LVU616
 1845 00c2 029B     		ldr	r3, [sp, #8]
 1846 00c4 E362     		str	r3, [r4, #44]
 372:..\..\..\..\..\..\Software\uCOS-III\Source/os_task.c **** 
 1847              		.loc 1 372 5 is_stmt 1 view .LVU617
 372:..\..\..\..\..\..\Software\uCOS-III\Source/os_task.c **** 
 1848              		.loc 1 372 26 is_stmt 0 view .LVU618
 1849 00c6 039B     		ldr	r3, [sp, #12]
 1850 00c8 2362     		str	r3, [r4, #32]
 374:..\..\..\..\..\..\Software\uCOS-III\Source/os_task.c **** 
 1851              		.loc 1 374 5 is_stmt 1 view .LVU619
 374:..\..\..\..\..\..\Software\uCOS-III\Source/os_task.c **** 
 1852              		.loc 1 374 26 is_stmt 0 view .LVU620
 1853 00ca 3723     		movs	r3, #55
 1854 00cc E654     		strb	r6, [r4, r3]
 376:..\..\..\..\..\..\Software\uCOS-III\Source/os_task.c ****     p_tcb->StkLimitPtr   = p_stk_limit;                     /* Save the stack limit pointer        
 1855              		.loc 1 376 5 is_stmt 1 view .LVU621
 376:..\..\..\..\..\..\Software\uCOS-III\Source/os_task.c ****     p_tcb->StkLimitPtr   = p_stk_limit;                     /* Save the stack limit pointer        
 1856              		.loc 1 376 26 is_stmt 0 view .LVU622
 1857 00ce 2060     		str	r0, [r4]
 377:..\..\..\..\..\..\Software\uCOS-III\Source/os_task.c **** 
 1858              		.loc 1 377 5 is_stmt 1 view .LVU623
 377:..\..\..\..\..\..\Software\uCOS-III\Source/os_task.c **** 
 1859              		.loc 1 377 26 is_stmt 0 view .LVU624
 1860 00d0 5346     		mov	r3, r10
 1861 00d2 A360     		str	r3, [r4, #8]
 379:..\..\..\..\..\..\Software\uCOS-III\Source/os_task.c **** #if OS_CFG_SCHED_ROUND_ROBIN_EN > 0u
 1862              		.loc 1 379 5 is_stmt 1 view .LVU625
 379:..\..\..\..\..\..\Software\uCOS-III\Source/os_task.c **** #if OS_CFG_SCHED_ROUND_ROBIN_EN > 0u
 1863              		.loc 1 379 26 is_stmt 0 view .LVU626
 1864 00d4 0F9B     		ldr	r3, [sp, #60]
 1865 00d6 6365     		str	r3, [r4, #84]
 387:..\..\..\..\..\..\Software\uCOS-III\Source/os_task.c ****     p_tcb->StkBasePtr    = p_stk_base;                      /* Save pointer to the base address of 
 1866              		.loc 1 387 5 is_stmt 1 view .LVU627
 387:..\..\..\..\..\..\Software\uCOS-III\Source/os_task.c ****     p_tcb->StkBasePtr    = p_stk_base;                      /* Save pointer to the base address of 
 1867              		.loc 1 387 26 is_stmt 0 view .LVU628
 1868 00d8 109B     		ldr	r3, [sp, #64]
 1869 00da 6360     		str	r3, [r4, #4]
 388:..\..\..\..\..\..\Software\uCOS-III\Source/os_task.c ****     p_tcb->StkSize       = stk_size;                        /* Save the stack size (in number of CP
 1870              		.loc 1 388 5 is_stmt 1 view .LVU629
 388:..\..\..\..\..\..\Software\uCOS-III\Source/os_task.c ****     p_tcb->StkSize       = stk_size;                        /* Save the stack size (in number of CP
 1871              		.loc 1 388 26 is_stmt 0 view .LVU630
 1872 00dc 0B9B     		ldr	r3, [sp, #44]
 1873 00de 6362     		str	r3, [r4, #36]
ARM GAS  C:\Users\EDULU~1.DES\AppData\Local\Temp\ccxcKTgR.s 			page 77


 389:..\..\..\..\..\..\Software\uCOS-III\Source/os_task.c ****     p_tcb->Opt           = opt;                             /* Save task options                   
 1874              		.loc 1 389 5 is_stmt 1 view .LVU631
 389:..\..\..\..\..\..\Software\uCOS-III\Source/os_task.c ****     p_tcb->Opt           = opt;                             /* Save task options                   
 1875              		.loc 1 389 26 is_stmt 0 view .LVU632
 1876 00e0 0D9B     		ldr	r3, [sp, #52]
 1877 00e2 A363     		str	r3, [r4, #56]
 390:..\..\..\..\..\..\Software\uCOS-III\Source/os_task.c **** 
 1878              		.loc 1 390 5 is_stmt 1 view .LVU633
 390:..\..\..\..\..\..\Software\uCOS-III\Source/os_task.c **** 
 1879              		.loc 1 390 26 is_stmt 0 view .LVU634
 1880 00e4 A787     		strh	r7, [r4, #60]
 393:..\..\..\..\..\..\Software\uCOS-III\Source/os_task.c ****         p_tcb->RegTbl[reg_nbr] = (OS_REG)0;
 1881              		.loc 1 393 5 is_stmt 1 view .LVU635
 1882              	.LVL185:
 393:..\..\..\..\..\..\Software\uCOS-III\Source/os_task.c ****         p_tcb->RegTbl[reg_nbr] = (OS_REG)0;
 1883              		.loc 1 393 18 is_stmt 0 view .LVU636
 1884 00e6 0023     		movs	r3, #0
 1885              	.LVL186:
 1886              	.L129:
 393:..\..\..\..\..\..\Software\uCOS-III\Source/os_task.c ****         p_tcb->RegTbl[reg_nbr] = (OS_REG)0;
 1887              		.loc 1 393 5 discriminator 1 view .LVU637
 1888 00e8 002B     		cmp	r3, #0
 1889 00ea 29D0     		beq	.L130
 402:..\..\..\..\..\..\Software\uCOS-III\Source/os_task.c **** #endif
 1890              		.loc 1 402 5 is_stmt 1 view .LVU638
 405:..\..\..\..\..\..\Software\uCOS-III\Source/os_task.c **** 
 1891              		.loc 1 405 5 view .LVU639
 1892 00ec 2000     		movs	r0, r4
 1893              	.LVL187:
 405:..\..\..\..\..\..\Software\uCOS-III\Source/os_task.c **** 
 1894              		.loc 1 405 5 is_stmt 0 view .LVU640
 1895 00ee FFF7FEFF 		bl	OSTaskCreateHook
 1896              	.LVL188:
 414:..\..\..\..\..\..\Software\uCOS-III\Source/os_task.c ****     OS_PrioInsert(p_tcb->Prio);
 1897              		.loc 1 414 5 is_stmt 1 view .LVU641
 414:..\..\..\..\..\..\Software\uCOS-III\Source/os_task.c ****     OS_PrioInsert(p_tcb->Prio);
 1898              		.loc 1 414 5 view .LVU642
 414:..\..\..\..\..\..\Software\uCOS-III\Source/os_task.c ****     OS_PrioInsert(p_tcb->Prio);
 1899              		.loc 1 414 5 view .LVU643
 1900 00f2 FFF7FEFF 		bl	CPU_SR_Save
 1901              	.LVL189:
 1902 00f6 0500     		movs	r5, r0
 1903              	.LVL190:
 414:..\..\..\..\..\..\Software\uCOS-III\Source/os_task.c ****     OS_PrioInsert(p_tcb->Prio);
 1904              		.loc 1 414 5 view .LVU644
 1905 00f8 FFF7FEFF 		bl	CPU_IntDisMeasStart
 1906              	.LVL191:
 415:..\..\..\..\..\..\Software\uCOS-III\Source/os_task.c ****     OS_RdyListInsertTail(p_tcb);
 1907              		.loc 1 415 5 view .LVU645
 1908 00fc 3723     		movs	r3, #55
 1909 00fe E05C     		ldrb	r0, [r4, r3]
 1910 0100 FFF7FEFF 		bl	OS_PrioInsert
 1911              	.LVL192:
 416:..\..\..\..\..\..\Software\uCOS-III\Source/os_task.c **** 
 1912              		.loc 1 416 5 view .LVU646
 1913 0104 2000     		movs	r0, r4
 1914 0106 FFF7FEFF 		bl	OS_RdyListInsertTail
ARM GAS  C:\Users\EDULU~1.DES\AppData\Local\Temp\ccxcKTgR.s 			page 78


 1915              	.LVL193:
 419:..\..\..\..\..\..\Software\uCOS-III\Source/os_task.c **** #endif
 1916              		.loc 1 419 5 view .LVU647
 1917 010a 2000     		movs	r0, r4
 1918 010c FFF7FEFF 		bl	OS_TaskDbgListAdd
 1919              	.LVL194:
 422:..\..\..\..\..\..\Software\uCOS-III\Source/os_task.c **** 
 1920              		.loc 1 422 5 view .LVU648
 422:..\..\..\..\..\..\Software\uCOS-III\Source/os_task.c **** 
 1921              		.loc 1 422 14 is_stmt 0 view .LVU649
 1922 0110 1E4A     		ldr	r2, .L140+40
 1923 0112 1388     		ldrh	r3, [r2]
 1924 0114 0133     		adds	r3, r3, #1
 1925 0116 1380     		strh	r3, [r2]
 424:..\..\..\..\..\..\Software\uCOS-III\Source/os_task.c ****         OS_CRITICAL_EXIT();
 1926              		.loc 1 424 5 is_stmt 1 view .LVU650
 424:..\..\..\..\..\..\Software\uCOS-III\Source/os_task.c ****         OS_CRITICAL_EXIT();
 1927              		.loc 1 424 19 is_stmt 0 view .LVU651
 1928 0118 1D4B     		ldr	r3, .L140+44
 1929 011a 1B78     		ldrb	r3, [r3]
 424:..\..\..\..\..\..\Software\uCOS-III\Source/os_task.c ****         OS_CRITICAL_EXIT();
 1930              		.loc 1 424 8 view .LVU652
 1931 011c 012B     		cmp	r3, #1
 1932 011e 18D0     		beq	.L131
 425:..\..\..\..\..\..\Software\uCOS-III\Source/os_task.c ****         return;
 1933              		.loc 1 425 9 is_stmt 1 view .LVU653
 425:..\..\..\..\..\..\Software\uCOS-III\Source/os_task.c ****         return;
 1934              		.loc 1 425 9 view .LVU654
 1935 0120 FFF7FEFF 		bl	CPU_IntDisMeasStop
 1936              	.LVL195:
 425:..\..\..\..\..\..\Software\uCOS-III\Source/os_task.c ****         return;
 1937              		.loc 1 425 9 view .LVU655
 425:..\..\..\..\..\..\Software\uCOS-III\Source/os_task.c ****         return;
 1938              		.loc 1 425 9 view .LVU656
 1939 0124 2800     		movs	r0, r5
 1940 0126 FFF7FEFF 		bl	CPU_SR_Restore
 1941              	.LVL196:
 426:..\..\..\..\..\..\Software\uCOS-III\Source/os_task.c ****     }
 1942              		.loc 1 426 9 view .LVU657
 1943 012a 96E7     		b	.L116
 1944              	.LVL197:
 1945              	.L128:
 349:..\..\..\..\..\..\Software\uCOS-III\Source/os_task.c ****                 p_sp++;
 1946              		.loc 1 349 16 discriminator 3 view .LVU658
 349:..\..\..\..\..\..\Software\uCOS-III\Source/os_task.c ****                 p_sp++;
 1947              		.loc 1 349 22 is_stmt 0 discriminator 3 view .LVU659
 1948 012c 0021     		movs	r1, #0
 1949 012e 02C2     		stmia	r2!, {r1}
 1950              	.LVL198:
 350:..\..\..\..\..\..\Software\uCOS-III\Source/os_task.c ****             }
 1951              		.loc 1 350 17 is_stmt 1 discriminator 3 view .LVU660
 348:..\..\..\..\..\..\Software\uCOS-III\Source/os_task.c ****                *p_sp = (CPU_STK)0;                          /* Clear from bottom of stack and up!  
 1952              		.loc 1 348 41 is_stmt 0 discriminator 3 view .LVU661
 1953 0130 0133     		adds	r3, r3, #1
 1954              	.LVL199:
 1955              	.L127:
 348:..\..\..\..\..\..\Software\uCOS-III\Source/os_task.c ****                *p_sp = (CPU_STK)0;                          /* Clear from bottom of stack and up!  
ARM GAS  C:\Users\EDULU~1.DES\AppData\Local\Temp\ccxcKTgR.s 			page 79


 1956              		.loc 1 348 13 discriminator 1 view .LVU662
 1957 0132 0D99     		ldr	r1, [sp, #52]
 1958 0134 8B42     		cmp	r3, r1
 1959 0136 F9D3     		bcc	.L128
 1960 0138 B5E7     		b	.L126
 1961              	.LVL200:
 1962              	.L132:
 347:..\..\..\..\..\..\Software\uCOS-III\Source/os_task.c ****             for (i = 0u; i < stk_size; i++) {               /* Stack grows from HIGH to LOW memory 
 1963              		.loc 1 347 18 view .LVU663
 1964 013a 0B9A     		ldr	r2, [sp, #44]
 348:..\..\..\..\..\..\Software\uCOS-III\Source/os_task.c ****                *p_sp = (CPU_STK)0;                          /* Clear from bottom of stack and up!  
 1965              		.loc 1 348 20 view .LVU664
 1966 013c 0023     		movs	r3, #0
 1967 013e F8E7     		b	.L127
 1968              	.LVL201:
 1969              	.L130:
 394:..\..\..\..\..\..\Software\uCOS-III\Source/os_task.c ****     }
 1970              		.loc 1 394 9 is_stmt 1 discriminator 3 view .LVU665
 394:..\..\..\..\..\..\Software\uCOS-III\Source/os_task.c ****     }
 1971              		.loc 1 394 32 is_stmt 0 discriminator 3 view .LVU666
 1972 0140 1A00     		movs	r2, r3
 1973 0142 1632     		adds	r2, r2, #22
 1974 0144 9200     		lsls	r2, r2, #2
 1975 0146 A218     		adds	r2, r4, r2
 1976 0148 0021     		movs	r1, #0
 1977 014a 5160     		str	r1, [r2, #4]
 393:..\..\..\..\..\..\Software\uCOS-III\Source/os_task.c ****         p_tcb->RegTbl[reg_nbr] = (OS_REG)0;
 1978              		.loc 1 393 67 discriminator 3 view .LVU667
 1979 014c 0133     		adds	r3, r3, #1
 1980              	.LVL202:
 393:..\..\..\..\..\..\Software\uCOS-III\Source/os_task.c ****         p_tcb->RegTbl[reg_nbr] = (OS_REG)0;
 1981              		.loc 1 393 67 discriminator 3 view .LVU668
 1982 014e DBB2     		uxtb	r3, r3
 1983              	.LVL203:
 393:..\..\..\..\..\..\Software\uCOS-III\Source/os_task.c ****         p_tcb->RegTbl[reg_nbr] = (OS_REG)0;
 1984              		.loc 1 393 67 discriminator 3 view .LVU669
 1985 0150 CAE7     		b	.L129
 1986              	.LVL204:
 1987              	.L131:
 429:..\..\..\..\..\..\Software\uCOS-III\Source/os_task.c **** 
 1988              		.loc 1 429 5 is_stmt 1 view .LVU670
 429:..\..\..\..\..\..\Software\uCOS-III\Source/os_task.c **** 
 1989              		.loc 1 429 5 view .LVU671
 1990 0152 FFF7FEFF 		bl	CPU_IntDisMeasStop
 1991              	.LVL205:
 429:..\..\..\..\..\..\Software\uCOS-III\Source/os_task.c **** 
 1992              		.loc 1 429 5 view .LVU672
 429:..\..\..\..\..\..\Software\uCOS-III\Source/os_task.c **** 
 1993              		.loc 1 429 5 view .LVU673
 1994 0156 2800     		movs	r0, r5
 1995 0158 FFF7FEFF 		bl	CPU_SR_Restore
 1996              	.LVL206:
 431:..\..\..\..\..\..\Software\uCOS-III\Source/os_task.c **** }
 1997              		.loc 1 431 5 view .LVU674
 1998 015c FFF7FEFF 		bl	OSSched
 1999              	.LVL207:
 2000 0160 7BE7     		b	.L116
ARM GAS  C:\Users\EDULU~1.DES\AppData\Local\Temp\ccxcKTgR.s 			page 80


 2001              	.L141:
 2002 0162 C046     		.align	2
 2003              	.L140:
 2004 0164 00000000 		.word	OSIntNestingCtr
 2005 0168 00000000 		.word	OSCfg_StkSizeMin
 2006 016c 00000000 		.word	OSIdleTaskTCB
 2007 0170 73620000 		.word	25203
 2008 0174 4A710000 		.word	29002
 2009 0178 AD710000 		.word	29101
 2010 017c 4F710000 		.word	29007
 2011 0180 2F6E0000 		.word	28207
 2012 0184 306E0000 		.word	28208
 2013 0188 316E0000 		.word	28209
 2014 018c 00000000 		.word	OSTaskQty
 2015 0190 00000000 		.word	OSRunning
 2016              		.cfi_endproc
 2017              	.LFE4:
 2018              		.size	OSTaskCreate, .-OSTaskCreate
 2019              		.section	.text.OS_TaskResume,"ax",%progbits
 2020              		.align	1
 2021              		.global	OS_TaskResume
 2022              		.syntax unified
 2023              		.code	16
 2024              		.thumb_func
 2025              		.fpu softvfp
 2026              		.type	OS_TaskResume, %function
 2027              	OS_TaskResume:
 2028              	.LVL208:
 2029              	.LFB18:
2083:..\..\..\..\..\..\Software\uCOS-III\Source/os_task.c **** 
2084:..\..\..\..\..\..\Software\uCOS-III\Source/os_task.c **** /*$PAGE*/
2085:..\..\..\..\..\..\Software\uCOS-III\Source/os_task.c **** /*
2086:..\..\..\..\..\..\Software\uCOS-III\Source/os_task.c **** ***************************************************************************************************
2087:..\..\..\..\..\..\Software\uCOS-III\Source/os_task.c **** *                                               POST MESSAGE TO A TASK
2088:..\..\..\..\..\..\Software\uCOS-III\Source/os_task.c **** *
2089:..\..\..\..\..\..\Software\uCOS-III\Source/os_task.c **** * Description: This function sends a message to a task
2090:..\..\..\..\..\..\Software\uCOS-III\Source/os_task.c **** *
2091:..\..\..\..\..\..\Software\uCOS-III\Source/os_task.c **** * Arguments  : p_tcb      is a pointer to the TCB of the task receiving a message.  If you specify 
2092:..\..\..\..\..\..\Software\uCOS-III\Source/os_task.c **** *                         the message will be posted to the task's queue of the calling task.  In o
2093:..\..\..\..\..\..\Software\uCOS-III\Source/os_task.c **** *                         posting a message to yourself.
2094:..\..\..\..\..\..\Software\uCOS-III\Source/os_task.c **** *
2095:..\..\..\..\..\..\Software\uCOS-III\Source/os_task.c **** *              p_void     is a pointer to the message to send.
2096:..\..\..\..\..\..\Software\uCOS-III\Source/os_task.c **** *
2097:..\..\..\..\..\..\Software\uCOS-III\Source/os_task.c **** *              msg_size   is the size of the message sent (in #bytes)
2098:..\..\..\..\..\..\Software\uCOS-III\Source/os_task.c **** *
2099:..\..\..\..\..\..\Software\uCOS-III\Source/os_task.c **** *              opt        specifies whether the post will be FIFO or LIFO:
2100:..\..\..\..\..\..\Software\uCOS-III\Source/os_task.c **** *
2101:..\..\..\..\..\..\Software\uCOS-III\Source/os_task.c **** *                             OS_OPT_POST_FIFO       Post at the end   of the queue
2102:..\..\..\..\..\..\Software\uCOS-III\Source/os_task.c **** *                             OS_OPT_POST_LIFO       Post at the front of the queue
2103:..\..\..\..\..\..\Software\uCOS-III\Source/os_task.c **** *
2104:..\..\..\..\..\..\Software\uCOS-III\Source/os_task.c **** *                             OS_OPT_POST_NO_SCHED   Do not run the scheduler after the post
2105:..\..\..\..\..\..\Software\uCOS-III\Source/os_task.c **** *
2106:..\..\..\..\..\..\Software\uCOS-III\Source/os_task.c **** *                          Note(s): 1) OS_OPT_POST_NO_SCHED can be added with one of the other opti
2107:..\..\..\..\..\..\Software\uCOS-III\Source/os_task.c **** *
2108:..\..\..\..\..\..\Software\uCOS-III\Source/os_task.c **** *
2109:..\..\..\..\..\..\Software\uCOS-III\Source/os_task.c **** *              ts         is a timestamp indicating when the post occurred.
2110:..\..\..\..\..\..\Software\uCOS-III\Source/os_task.c **** *
ARM GAS  C:\Users\EDULU~1.DES\AppData\Local\Temp\ccxcKTgR.s 			page 81


2111:..\..\..\..\..\..\Software\uCOS-III\Source/os_task.c **** *              p_err      is a pointer to a variable that will hold the error code associated
2112:..\..\..\..\..\..\Software\uCOS-III\Source/os_task.c **** *                         with the outcome of this call.  Errors can be:
2113:..\..\..\..\..\..\Software\uCOS-III\Source/os_task.c **** *
2114:..\..\..\..\..\..\Software\uCOS-III\Source/os_task.c **** *                             OS_ERR_NONE            The call was successful and the message was se
2115:..\..\..\..\..\..\Software\uCOS-III\Source/os_task.c **** *                             OS_ERR_MSG_POOL_EMPTY  If there are no more OS_MSGs available from th
2116:..\..\..\..\..\..\Software\uCOS-III\Source/os_task.c **** *                             OS_ERR_Q_MAX           If the queue is full
2117:..\..\..\..\..\..\Software\uCOS-III\Source/os_task.c **** *                             OS_ERR_STATE_INVALID   If the task is in an invalid state.  This shou
2118:..\..\..\..\..\..\Software\uCOS-III\Source/os_task.c **** *                                                    and if it does, would be considered a system f
2119:..\..\..\..\..\..\Software\uCOS-III\Source/os_task.c **** *
2120:..\..\..\..\..\..\Software\uCOS-III\Source/os_task.c **** * Returns    : none
2121:..\..\..\..\..\..\Software\uCOS-III\Source/os_task.c **** *
2122:..\..\..\..\..\..\Software\uCOS-III\Source/os_task.c **** * Note(s)    : This function is INTERNAL to uC/OS-III and your application should not call it.
2123:..\..\..\..\..\..\Software\uCOS-III\Source/os_task.c **** ***************************************************************************************************
2124:..\..\..\..\..\..\Software\uCOS-III\Source/os_task.c **** */
2125:..\..\..\..\..\..\Software\uCOS-III\Source/os_task.c **** 
2126:..\..\..\..\..\..\Software\uCOS-III\Source/os_task.c **** #if OS_CFG_TASK_Q_EN > 0u
2127:..\..\..\..\..\..\Software\uCOS-III\Source/os_task.c **** void  OS_TaskQPost (OS_TCB       *p_tcb,
2128:..\..\..\..\..\..\Software\uCOS-III\Source/os_task.c ****                     void         *p_void,
2129:..\..\..\..\..\..\Software\uCOS-III\Source/os_task.c ****                     OS_MSG_SIZE   msg_size,
2130:..\..\..\..\..\..\Software\uCOS-III\Source/os_task.c ****                     OS_OPT        opt,
2131:..\..\..\..\..\..\Software\uCOS-III\Source/os_task.c ****                     CPU_TS        ts,
2132:..\..\..\..\..\..\Software\uCOS-III\Source/os_task.c ****                     OS_ERR       *p_err)
2133:..\..\..\..\..\..\Software\uCOS-III\Source/os_task.c **** {
2134:..\..\..\..\..\..\Software\uCOS-III\Source/os_task.c ****     CPU_SR_ALLOC();
2135:..\..\..\..\..\..\Software\uCOS-III\Source/os_task.c **** 
2136:..\..\..\..\..\..\Software\uCOS-III\Source/os_task.c **** 
2137:..\..\..\..\..\..\Software\uCOS-III\Source/os_task.c **** 
2138:..\..\..\..\..\..\Software\uCOS-III\Source/os_task.c ****     OS_CRITICAL_ENTER();
2139:..\..\..\..\..\..\Software\uCOS-III\Source/os_task.c ****     if (p_tcb == (OS_TCB *)0) {                             /* Post msg to 'self'?                 
2140:..\..\..\..\..\..\Software\uCOS-III\Source/os_task.c ****         p_tcb = OSTCBCurPtr;
2141:..\..\..\..\..\..\Software\uCOS-III\Source/os_task.c ****     }
2142:..\..\..\..\..\..\Software\uCOS-III\Source/os_task.c ****    *p_err  = OS_ERR_NONE;                                   /* Assume we won't have any errors     
2143:..\..\..\..\..\..\Software\uCOS-III\Source/os_task.c ****     switch (p_tcb->TaskState) {
2144:..\..\..\..\..\..\Software\uCOS-III\Source/os_task.c ****         case OS_TASK_STATE_RDY:
2145:..\..\..\..\..\..\Software\uCOS-III\Source/os_task.c ****         case OS_TASK_STATE_DLY:
2146:..\..\..\..\..\..\Software\uCOS-III\Source/os_task.c ****         case OS_TASK_STATE_SUSPENDED:
2147:..\..\..\..\..\..\Software\uCOS-III\Source/os_task.c ****         case OS_TASK_STATE_DLY_SUSPENDED:
2148:..\..\..\..\..\..\Software\uCOS-III\Source/os_task.c ****              OS_MsgQPut(&p_tcb->MsgQ,                       /* Deposit the message in the queue    
2149:..\..\..\..\..\..\Software\uCOS-III\Source/os_task.c ****                         p_void,
2150:..\..\..\..\..\..\Software\uCOS-III\Source/os_task.c ****                         msg_size,
2151:..\..\..\..\..\..\Software\uCOS-III\Source/os_task.c ****                         opt,
2152:..\..\..\..\..\..\Software\uCOS-III\Source/os_task.c ****                         ts,
2153:..\..\..\..\..\..\Software\uCOS-III\Source/os_task.c ****                         p_err);
2154:..\..\..\..\..\..\Software\uCOS-III\Source/os_task.c ****              OS_CRITICAL_EXIT();
2155:..\..\..\..\..\..\Software\uCOS-III\Source/os_task.c ****              break;
2156:..\..\..\..\..\..\Software\uCOS-III\Source/os_task.c **** 
2157:..\..\..\..\..\..\Software\uCOS-III\Source/os_task.c ****         case OS_TASK_STATE_PEND:
2158:..\..\..\..\..\..\Software\uCOS-III\Source/os_task.c ****         case OS_TASK_STATE_PEND_TIMEOUT:
2159:..\..\..\..\..\..\Software\uCOS-III\Source/os_task.c ****         case OS_TASK_STATE_PEND_SUSPENDED:
2160:..\..\..\..\..\..\Software\uCOS-III\Source/os_task.c ****         case OS_TASK_STATE_PEND_TIMEOUT_SUSPENDED:
2161:..\..\..\..\..\..\Software\uCOS-III\Source/os_task.c ****              if (p_tcb->PendOn == OS_TASK_PEND_ON_TASK_Q) { /* Is task waiting for a message to be 
2162:..\..\..\..\..\..\Software\uCOS-III\Source/os_task.c ****                  OS_Post((OS_PEND_OBJ *)0,
2163:..\..\..\..\..\..\Software\uCOS-III\Source/os_task.c ****                          p_tcb,
2164:..\..\..\..\..\..\Software\uCOS-III\Source/os_task.c ****                          p_void,
2165:..\..\..\..\..\..\Software\uCOS-III\Source/os_task.c ****                          msg_size,
2166:..\..\..\..\..\..\Software\uCOS-III\Source/os_task.c ****                          ts);
2167:..\..\..\..\..\..\Software\uCOS-III\Source/os_task.c ****                  OS_CRITICAL_EXIT_NO_SCHED();
ARM GAS  C:\Users\EDULU~1.DES\AppData\Local\Temp\ccxcKTgR.s 			page 82


2168:..\..\..\..\..\..\Software\uCOS-III\Source/os_task.c ****                  if ((opt & OS_OPT_POST_NO_SCHED) == (OS_OPT)0u) {
2169:..\..\..\..\..\..\Software\uCOS-III\Source/os_task.c ****                      OSSched();                             /* Run the scheduler                   
2170:..\..\..\..\..\..\Software\uCOS-III\Source/os_task.c ****                  }
2171:..\..\..\..\..\..\Software\uCOS-III\Source/os_task.c ****              } else {
2172:..\..\..\..\..\..\Software\uCOS-III\Source/os_task.c ****                  OS_MsgQPut(&p_tcb->MsgQ,                   /* No,  Task is pending on something el
2173:..\..\..\..\..\..\Software\uCOS-III\Source/os_task.c ****                             p_void,                         /*      ... Deposit the message in the 
2174:..\..\..\..\..\..\Software\uCOS-III\Source/os_task.c ****                             msg_size,
2175:..\..\..\..\..\..\Software\uCOS-III\Source/os_task.c ****                             opt,
2176:..\..\..\..\..\..\Software\uCOS-III\Source/os_task.c ****                             ts,
2177:..\..\..\..\..\..\Software\uCOS-III\Source/os_task.c ****                             p_err);
2178:..\..\..\..\..\..\Software\uCOS-III\Source/os_task.c ****                  OS_CRITICAL_EXIT();
2179:..\..\..\..\..\..\Software\uCOS-III\Source/os_task.c ****              }
2180:..\..\..\..\..\..\Software\uCOS-III\Source/os_task.c ****              break;
2181:..\..\..\..\..\..\Software\uCOS-III\Source/os_task.c **** 
2182:..\..\..\..\..\..\Software\uCOS-III\Source/os_task.c ****         default:
2183:..\..\..\..\..\..\Software\uCOS-III\Source/os_task.c ****              OS_CRITICAL_EXIT();
2184:..\..\..\..\..\..\Software\uCOS-III\Source/os_task.c ****             *p_err = OS_ERR_STATE_INVALID;
2185:..\..\..\..\..\..\Software\uCOS-III\Source/os_task.c ****              break;
2186:..\..\..\..\..\..\Software\uCOS-III\Source/os_task.c ****     }
2187:..\..\..\..\..\..\Software\uCOS-III\Source/os_task.c **** }
2188:..\..\..\..\..\..\Software\uCOS-III\Source/os_task.c **** #endif
2189:..\..\..\..\..\..\Software\uCOS-III\Source/os_task.c **** 
2190:..\..\..\..\..\..\Software\uCOS-III\Source/os_task.c **** /*$PAGE*/
2191:..\..\..\..\..\..\Software\uCOS-III\Source/os_task.c **** /*
2192:..\..\..\..\..\..\Software\uCOS-III\Source/os_task.c **** ***************************************************************************************************
2193:..\..\..\..\..\..\Software\uCOS-III\Source/os_task.c **** *                                               RESUME A SUSPENDED TASK
2194:..\..\..\..\..\..\Software\uCOS-III\Source/os_task.c **** *
2195:..\..\..\..\..\..\Software\uCOS-III\Source/os_task.c **** * Description: This function is called to resume a previously suspended task.  This is the only cal
2196:..\..\..\..\..\..\Software\uCOS-III\Source/os_task.c **** *              explicit task suspension.
2197:..\..\..\..\..\..\Software\uCOS-III\Source/os_task.c **** *
2198:..\..\..\..\..\..\Software\uCOS-III\Source/os_task.c **** * Arguments  : p_tcb      Is a pointer to the task's OS_TCB to resume
2199:..\..\..\..\..\..\Software\uCOS-III\Source/os_task.c **** *
2200:..\..\..\..\..\..\Software\uCOS-III\Source/os_task.c **** *              p_err      Is a pointer to a variable that will contain an error code returned by th
2201:..\..\..\..\..\..\Software\uCOS-III\Source/os_task.c **** *
2202:..\..\..\..\..\..\Software\uCOS-III\Source/os_task.c **** *                             OS_ERR_NONE                  if the requested task is resumed
2203:..\..\..\..\..\..\Software\uCOS-III\Source/os_task.c **** *                             OS_ERR_STATE_INVALID         if the task is in an invalid state
2204:..\..\..\..\..\..\Software\uCOS-III\Source/os_task.c **** *                             OS_ERR_TASK_RESUME_ISR       if you called this function from an ISR
2205:..\..\..\..\..\..\Software\uCOS-III\Source/os_task.c **** *                             OS_ERR_TASK_RESUME_SELF      You cannot resume 'self'
2206:..\..\..\..\..\..\Software\uCOS-III\Source/os_task.c **** *                             OS_ERR_TASK_NOT_SUSPENDED    if the task to resume has not been suspe
2207:..\..\..\..\..\..\Software\uCOS-III\Source/os_task.c **** *
2208:..\..\..\..\..\..\Software\uCOS-III\Source/os_task.c **** * Returns    : none
2209:..\..\..\..\..\..\Software\uCOS-III\Source/os_task.c **** *
2210:..\..\..\..\..\..\Software\uCOS-III\Source/os_task.c **** * Note(s)    : This function is INTERNAL to uC/OS-III and your application should not call it.
2211:..\..\..\..\..\..\Software\uCOS-III\Source/os_task.c **** ***************************************************************************************************
2212:..\..\..\..\..\..\Software\uCOS-III\Source/os_task.c **** */
2213:..\..\..\..\..\..\Software\uCOS-III\Source/os_task.c **** 
2214:..\..\..\..\..\..\Software\uCOS-III\Source/os_task.c **** #if OS_CFG_TASK_SUSPEND_EN > 0u
2215:..\..\..\..\..\..\Software\uCOS-III\Source/os_task.c **** void  OS_TaskResume (OS_TCB  *p_tcb,
2216:..\..\..\..\..\..\Software\uCOS-III\Source/os_task.c ****                      OS_ERR  *p_err)
2217:..\..\..\..\..\..\Software\uCOS-III\Source/os_task.c **** {
 2030              		.loc 1 2217 1 view -0
 2031              		.cfi_startproc
 2032              		@ args = 0, pretend = 0, frame = 0
 2033              		@ frame_needed = 0, uses_anonymous_args = 0
 2034              		.loc 1 2217 1 is_stmt 0 view .LVU676
 2035 0000 70B5     		push	{r4, r5, r6, lr}
 2036              		.cfi_def_cfa_offset 16
ARM GAS  C:\Users\EDULU~1.DES\AppData\Local\Temp\ccxcKTgR.s 			page 83


 2037              		.cfi_offset 4, -16
 2038              		.cfi_offset 5, -12
 2039              		.cfi_offset 6, -8
 2040              		.cfi_offset 14, -4
 2041 0002 0400     		movs	r4, r0
 2042 0004 0E00     		movs	r6, r1
2218:..\..\..\..\..\..\Software\uCOS-III\Source/os_task.c ****     CPU_SR_ALLOC();
 2043              		.loc 1 2218 5 is_stmt 1 view .LVU677
 2044              	.LVL209:
2219:..\..\..\..\..\..\Software\uCOS-III\Source/os_task.c **** 
2220:..\..\..\..\..\..\Software\uCOS-III\Source/os_task.c **** 
2221:..\..\..\..\..\..\Software\uCOS-III\Source/os_task.c ****     CPU_CRITICAL_ENTER();
 2045              		.loc 1 2221 5 view .LVU678
 2046              		.loc 1 2221 5 view .LVU679
 2047              		.loc 1 2221 5 view .LVU680
 2048 0006 FFF7FEFF 		bl	CPU_SR_Save
 2049              	.LVL210:
 2050              		.loc 1 2221 5 is_stmt 0 view .LVU681
 2051 000a 0500     		movs	r5, r0
 2052              	.LVL211:
 2053              		.loc 1 2221 5 is_stmt 1 view .LVU682
 2054 000c FFF7FEFF 		bl	CPU_IntDisMeasStart
 2055              	.LVL212:
2222:..\..\..\..\..\..\Software\uCOS-III\Source/os_task.c ****    *p_err  = OS_ERR_NONE;
 2056              		.loc 1 2222 4 view .LVU683
 2057              		.loc 1 2222 12 is_stmt 0 view .LVU684
 2058 0010 0023     		movs	r3, #0
 2059 0012 3380     		strh	r3, [r6]
2223:..\..\..\..\..\..\Software\uCOS-III\Source/os_task.c ****     switch (p_tcb->TaskState) {
 2060              		.loc 1 2223 5 is_stmt 1 view .LVU685
 2061              		.loc 1 2223 18 is_stmt 0 view .LVU686
 2062 0014 3633     		adds	r3, r3, #54
 2063 0016 E35C     		ldrb	r3, [r4, r3]
 2064              		.loc 1 2223 5 view .LVU687
 2065 0018 072B     		cmp	r3, #7
 2066 001a 51D8     		bhi	.L143
 2067 001c 9B00     		lsls	r3, r3, #2
 2068 001e 2C4A     		ldr	r2, .L157
 2069 0020 D358     		ldr	r3, [r2, r3]
 2070 0022 9F46     		mov	pc, r3
 2071              		.section	.rodata
 2072              		.align	2
 2073              	.L145:
 2074 0040 24000000 		.word	.L149
 2075 0044 24000000 		.word	.L149
 2076 0048 24000000 		.word	.L149
 2077 004c 24000000 		.word	.L149
 2078 0050 38000000 		.word	.L148
 2079 0054 60000000 		.word	.L147
 2080 0058 80000000 		.word	.L146
 2081 005c A0000000 		.word	.L144
 2082              		.section	.text.OS_TaskResume
 2083              	.L149:
2224:..\..\..\..\..\..\Software\uCOS-III\Source/os_task.c ****         case OS_TASK_STATE_RDY:
2225:..\..\..\..\..\..\Software\uCOS-III\Source/os_task.c ****         case OS_TASK_STATE_DLY:
2226:..\..\..\..\..\..\Software\uCOS-III\Source/os_task.c ****         case OS_TASK_STATE_PEND:
2227:..\..\..\..\..\..\Software\uCOS-III\Source/os_task.c ****         case OS_TASK_STATE_PEND_TIMEOUT:
ARM GAS  C:\Users\EDULU~1.DES\AppData\Local\Temp\ccxcKTgR.s 			page 84


2228:..\..\..\..\..\..\Software\uCOS-III\Source/os_task.c ****              CPU_CRITICAL_EXIT();
 2084              		.loc 1 2228 14 is_stmt 1 view .LVU688
 2085              		.loc 1 2228 14 view .LVU689
 2086 0024 FFF7FEFF 		bl	CPU_IntDisMeasStop
 2087              	.LVL213:
 2088              		.loc 1 2228 14 view .LVU690
 2089              		.loc 1 2228 14 view .LVU691
 2090 0028 2800     		movs	r0, r5
 2091 002a FFF7FEFF 		bl	CPU_SR_Restore
 2092              	.LVL214:
2229:..\..\..\..\..\..\Software\uCOS-III\Source/os_task.c ****             *p_err = OS_ERR_TASK_NOT_SUSPENDED;
 2093              		.loc 1 2229 13 view .LVU692
 2094              		.loc 1 2229 20 is_stmt 0 view .LVU693
 2095 002e 294B     		ldr	r3, .L157+4
 2096 0030 3380     		strh	r3, [r6]
2230:..\..\..\..\..\..\Software\uCOS-III\Source/os_task.c ****              break;
 2097              		.loc 1 2230 14 is_stmt 1 view .LVU694
 2098              	.L150:
2231:..\..\..\..\..\..\Software\uCOS-III\Source/os_task.c **** 
2232:..\..\..\..\..\..\Software\uCOS-III\Source/os_task.c ****         case OS_TASK_STATE_SUSPENDED:
2233:..\..\..\..\..\..\Software\uCOS-III\Source/os_task.c ****              OS_CRITICAL_ENTER_CPU_EXIT();
2234:..\..\..\..\..\..\Software\uCOS-III\Source/os_task.c ****              p_tcb->SuspendCtr--;
2235:..\..\..\..\..\..\Software\uCOS-III\Source/os_task.c ****              if (p_tcb->SuspendCtr == (OS_NESTING_CTR)0) {
2236:..\..\..\..\..\..\Software\uCOS-III\Source/os_task.c ****                  p_tcb->TaskState = OS_TASK_STATE_RDY;
2237:..\..\..\..\..\..\Software\uCOS-III\Source/os_task.c ****                  OS_TaskRdy(p_tcb);
2238:..\..\..\..\..\..\Software\uCOS-III\Source/os_task.c ****              }
2239:..\..\..\..\..\..\Software\uCOS-III\Source/os_task.c ****              OS_CRITICAL_EXIT_NO_SCHED();
2240:..\..\..\..\..\..\Software\uCOS-III\Source/os_task.c ****              break;
2241:..\..\..\..\..\..\Software\uCOS-III\Source/os_task.c **** 
2242:..\..\..\..\..\..\Software\uCOS-III\Source/os_task.c ****         case OS_TASK_STATE_DLY_SUSPENDED:
2243:..\..\..\..\..\..\Software\uCOS-III\Source/os_task.c ****              p_tcb->SuspendCtr--;
2244:..\..\..\..\..\..\Software\uCOS-III\Source/os_task.c ****              if (p_tcb->SuspendCtr == (OS_NESTING_CTR)0) {
2245:..\..\..\..\..\..\Software\uCOS-III\Source/os_task.c ****                  p_tcb->TaskState = OS_TASK_STATE_DLY;
2246:..\..\..\..\..\..\Software\uCOS-III\Source/os_task.c ****              }
2247:..\..\..\..\..\..\Software\uCOS-III\Source/os_task.c ****              CPU_CRITICAL_EXIT();
2248:..\..\..\..\..\..\Software\uCOS-III\Source/os_task.c ****              break;
2249:..\..\..\..\..\..\Software\uCOS-III\Source/os_task.c **** 
2250:..\..\..\..\..\..\Software\uCOS-III\Source/os_task.c ****         case OS_TASK_STATE_PEND_SUSPENDED:
2251:..\..\..\..\..\..\Software\uCOS-III\Source/os_task.c ****              p_tcb->SuspendCtr--;
2252:..\..\..\..\..\..\Software\uCOS-III\Source/os_task.c ****              if (p_tcb->SuspendCtr == (OS_NESTING_CTR)0) {
2253:..\..\..\..\..\..\Software\uCOS-III\Source/os_task.c ****                  p_tcb->TaskState = OS_TASK_STATE_PEND;
2254:..\..\..\..\..\..\Software\uCOS-III\Source/os_task.c ****              }
2255:..\..\..\..\..\..\Software\uCOS-III\Source/os_task.c ****              CPU_CRITICAL_EXIT();
2256:..\..\..\..\..\..\Software\uCOS-III\Source/os_task.c ****              break;
2257:..\..\..\..\..\..\Software\uCOS-III\Source/os_task.c **** 
2258:..\..\..\..\..\..\Software\uCOS-III\Source/os_task.c ****         case OS_TASK_STATE_PEND_TIMEOUT_SUSPENDED:
2259:..\..\..\..\..\..\Software\uCOS-III\Source/os_task.c ****              p_tcb->SuspendCtr--;
2260:..\..\..\..\..\..\Software\uCOS-III\Source/os_task.c ****              if (p_tcb->SuspendCtr == (OS_NESTING_CTR)0) {
2261:..\..\..\..\..\..\Software\uCOS-III\Source/os_task.c ****                  p_tcb->TaskState = OS_TASK_STATE_PEND_TIMEOUT;
2262:..\..\..\..\..\..\Software\uCOS-III\Source/os_task.c ****              }
2263:..\..\..\..\..\..\Software\uCOS-III\Source/os_task.c ****              CPU_CRITICAL_EXIT();
2264:..\..\..\..\..\..\Software\uCOS-III\Source/os_task.c ****              break;
2265:..\..\..\..\..\..\Software\uCOS-III\Source/os_task.c **** 
2266:..\..\..\..\..\..\Software\uCOS-III\Source/os_task.c ****         default:
2267:..\..\..\..\..\..\Software\uCOS-III\Source/os_task.c ****              CPU_CRITICAL_EXIT();
2268:..\..\..\..\..\..\Software\uCOS-III\Source/os_task.c ****             *p_err = OS_ERR_STATE_INVALID;
2269:..\..\..\..\..\..\Software\uCOS-III\Source/os_task.c ****              return;
ARM GAS  C:\Users\EDULU~1.DES\AppData\Local\Temp\ccxcKTgR.s 			page 85


2270:..\..\..\..\..\..\Software\uCOS-III\Source/os_task.c ****     }
2271:..\..\..\..\..\..\Software\uCOS-III\Source/os_task.c **** 
2272:..\..\..\..\..\..\Software\uCOS-III\Source/os_task.c ****     OSSched();
 2099              		.loc 1 2272 5 view .LVU695
 2100 0032 FFF7FEFF 		bl	OSSched
 2101              	.LVL215:
 2102              	.L142:
2273:..\..\..\..\..\..\Software\uCOS-III\Source/os_task.c **** }
 2103              		.loc 1 2273 1 is_stmt 0 view .LVU696
 2104              		@ sp needed
 2105              	.LVL216:
 2106              	.LVL217:
 2107              	.LVL218:
 2108              		.loc 1 2273 1 view .LVU697
 2109 0036 70BD     		pop	{r4, r5, r6, pc}
 2110              	.LVL219:
 2111              	.L148:
2233:..\..\..\..\..\..\Software\uCOS-III\Source/os_task.c ****              p_tcb->SuspendCtr--;
 2112              		.loc 1 2233 42 is_stmt 1 view .LVU698
2234:..\..\..\..\..\..\Software\uCOS-III\Source/os_task.c ****              if (p_tcb->SuspendCtr == (OS_NESTING_CTR)0) {
 2113              		.loc 1 2234 14 view .LVU699
2234:..\..\..\..\..\..\Software\uCOS-III\Source/os_task.c ****              if (p_tcb->SuspendCtr == (OS_NESTING_CTR)0) {
 2114              		.loc 1 2234 19 is_stmt 0 view .LVU700
 2115 0038 6022     		movs	r2, #96
 2116 003a A35C     		ldrb	r3, [r4, r2]
2234:..\..\..\..\..\..\Software\uCOS-III\Source/os_task.c ****              if (p_tcb->SuspendCtr == (OS_NESTING_CTR)0) {
 2117              		.loc 1 2234 31 view .LVU701
 2118 003c 013B     		subs	r3, r3, #1
 2119 003e DBB2     		uxtb	r3, r3
 2120 0040 A354     		strb	r3, [r4, r2]
2235:..\..\..\..\..\..\Software\uCOS-III\Source/os_task.c ****                  p_tcb->TaskState = OS_TASK_STATE_RDY;
 2121              		.loc 1 2235 14 is_stmt 1 view .LVU702
2235:..\..\..\..\..\..\Software\uCOS-III\Source/os_task.c ****                  p_tcb->TaskState = OS_TASK_STATE_RDY;
 2122              		.loc 1 2235 17 is_stmt 0 view .LVU703
 2123 0042 002B     		cmp	r3, #0
 2124 0044 05D0     		beq	.L156
 2125              	.L151:
2239:..\..\..\..\..\..\Software\uCOS-III\Source/os_task.c ****              break;
 2126              		.loc 1 2239 14 is_stmt 1 view .LVU704
2239:..\..\..\..\..\..\Software\uCOS-III\Source/os_task.c ****              break;
 2127              		.loc 1 2239 14 view .LVU705
 2128 0046 FFF7FEFF 		bl	CPU_IntDisMeasStop
 2129              	.LVL220:
2239:..\..\..\..\..\..\Software\uCOS-III\Source/os_task.c ****              break;
 2130              		.loc 1 2239 14 view .LVU706
2239:..\..\..\..\..\..\Software\uCOS-III\Source/os_task.c ****              break;
 2131              		.loc 1 2239 14 view .LVU707
 2132 004a 2800     		movs	r0, r5
 2133 004c FFF7FEFF 		bl	CPU_SR_Restore
 2134              	.LVL221:
2240:..\..\..\..\..\..\Software\uCOS-III\Source/os_task.c **** 
 2135              		.loc 1 2240 14 view .LVU708
 2136 0050 EFE7     		b	.L150
 2137              	.L156:
2236:..\..\..\..\..\..\Software\uCOS-III\Source/os_task.c ****                  OS_TaskRdy(p_tcb);
 2138              		.loc 1 2236 18 view .LVU709
2236:..\..\..\..\..\..\Software\uCOS-III\Source/os_task.c ****                  OS_TaskRdy(p_tcb);
ARM GAS  C:\Users\EDULU~1.DES\AppData\Local\Temp\ccxcKTgR.s 			page 86


 2139              		.loc 1 2236 35 is_stmt 0 view .LVU710
 2140 0052 3633     		adds	r3, r3, #54
 2141 0054 0022     		movs	r2, #0
 2142 0056 E254     		strb	r2, [r4, r3]
2237:..\..\..\..\..\..\Software\uCOS-III\Source/os_task.c ****              }
 2143              		.loc 1 2237 18 is_stmt 1 view .LVU711
 2144 0058 2000     		movs	r0, r4
 2145 005a FFF7FEFF 		bl	OS_TaskRdy
 2146              	.LVL222:
 2147 005e F2E7     		b	.L151
 2148              	.L147:
2243:..\..\..\..\..\..\Software\uCOS-III\Source/os_task.c ****              if (p_tcb->SuspendCtr == (OS_NESTING_CTR)0) {
 2149              		.loc 1 2243 14 view .LVU712
2243:..\..\..\..\..\..\Software\uCOS-III\Source/os_task.c ****              if (p_tcb->SuspendCtr == (OS_NESTING_CTR)0) {
 2150              		.loc 1 2243 19 is_stmt 0 view .LVU713
 2151 0060 6022     		movs	r2, #96
 2152 0062 A35C     		ldrb	r3, [r4, r2]
2243:..\..\..\..\..\..\Software\uCOS-III\Source/os_task.c ****              if (p_tcb->SuspendCtr == (OS_NESTING_CTR)0) {
 2153              		.loc 1 2243 31 view .LVU714
 2154 0064 013B     		subs	r3, r3, #1
 2155 0066 DBB2     		uxtb	r3, r3
 2156 0068 A354     		strb	r3, [r4, r2]
2244:..\..\..\..\..\..\Software\uCOS-III\Source/os_task.c ****                  p_tcb->TaskState = OS_TASK_STATE_DLY;
 2157              		.loc 1 2244 14 is_stmt 1 view .LVU715
2244:..\..\..\..\..\..\Software\uCOS-III\Source/os_task.c ****                  p_tcb->TaskState = OS_TASK_STATE_DLY;
 2158              		.loc 1 2244 17 is_stmt 0 view .LVU716
 2159 006a 002B     		cmp	r3, #0
 2160 006c 02D1     		bne	.L152
2245:..\..\..\..\..\..\Software\uCOS-III\Source/os_task.c ****              }
 2161              		.loc 1 2245 18 is_stmt 1 view .LVU717
2245:..\..\..\..\..\..\Software\uCOS-III\Source/os_task.c ****              }
 2162              		.loc 1 2245 35 is_stmt 0 view .LVU718
 2163 006e 3633     		adds	r3, r3, #54
 2164 0070 5F3A     		subs	r2, r2, #95
 2165 0072 E254     		strb	r2, [r4, r3]
 2166              	.L152:
2247:..\..\..\..\..\..\Software\uCOS-III\Source/os_task.c ****              break;
 2167              		.loc 1 2247 14 is_stmt 1 view .LVU719
2247:..\..\..\..\..\..\Software\uCOS-III\Source/os_task.c ****              break;
 2168              		.loc 1 2247 14 view .LVU720
 2169 0074 FFF7FEFF 		bl	CPU_IntDisMeasStop
 2170              	.LVL223:
2247:..\..\..\..\..\..\Software\uCOS-III\Source/os_task.c ****              break;
 2171              		.loc 1 2247 14 view .LVU721
2247:..\..\..\..\..\..\Software\uCOS-III\Source/os_task.c ****              break;
 2172              		.loc 1 2247 14 view .LVU722
 2173 0078 2800     		movs	r0, r5
 2174 007a FFF7FEFF 		bl	CPU_SR_Restore
 2175              	.LVL224:
2248:..\..\..\..\..\..\Software\uCOS-III\Source/os_task.c **** 
 2176              		.loc 1 2248 14 view .LVU723
 2177 007e D8E7     		b	.L150
 2178              	.L146:
2251:..\..\..\..\..\..\Software\uCOS-III\Source/os_task.c ****              if (p_tcb->SuspendCtr == (OS_NESTING_CTR)0) {
 2179              		.loc 1 2251 14 view .LVU724
2251:..\..\..\..\..\..\Software\uCOS-III\Source/os_task.c ****              if (p_tcb->SuspendCtr == (OS_NESTING_CTR)0) {
 2180              		.loc 1 2251 19 is_stmt 0 view .LVU725
ARM GAS  C:\Users\EDULU~1.DES\AppData\Local\Temp\ccxcKTgR.s 			page 87


 2181 0080 6022     		movs	r2, #96
 2182 0082 A35C     		ldrb	r3, [r4, r2]
2251:..\..\..\..\..\..\Software\uCOS-III\Source/os_task.c ****              if (p_tcb->SuspendCtr == (OS_NESTING_CTR)0) {
 2183              		.loc 1 2251 31 view .LVU726
 2184 0084 013B     		subs	r3, r3, #1
 2185 0086 DBB2     		uxtb	r3, r3
 2186 0088 A354     		strb	r3, [r4, r2]
2252:..\..\..\..\..\..\Software\uCOS-III\Source/os_task.c ****                  p_tcb->TaskState = OS_TASK_STATE_PEND;
 2187              		.loc 1 2252 14 is_stmt 1 view .LVU727
2252:..\..\..\..\..\..\Software\uCOS-III\Source/os_task.c ****                  p_tcb->TaskState = OS_TASK_STATE_PEND;
 2188              		.loc 1 2252 17 is_stmt 0 view .LVU728
 2189 008a 002B     		cmp	r3, #0
 2190 008c 02D1     		bne	.L153
2253:..\..\..\..\..\..\Software\uCOS-III\Source/os_task.c ****              }
 2191              		.loc 1 2253 18 is_stmt 1 view .LVU729
2253:..\..\..\..\..\..\Software\uCOS-III\Source/os_task.c ****              }
 2192              		.loc 1 2253 35 is_stmt 0 view .LVU730
 2193 008e 3633     		adds	r3, r3, #54
 2194 0090 5E3A     		subs	r2, r2, #94
 2195 0092 E254     		strb	r2, [r4, r3]
 2196              	.L153:
2255:..\..\..\..\..\..\Software\uCOS-III\Source/os_task.c ****              break;
 2197              		.loc 1 2255 14 is_stmt 1 view .LVU731
2255:..\..\..\..\..\..\Software\uCOS-III\Source/os_task.c ****              break;
 2198              		.loc 1 2255 14 view .LVU732
 2199 0094 FFF7FEFF 		bl	CPU_IntDisMeasStop
 2200              	.LVL225:
2255:..\..\..\..\..\..\Software\uCOS-III\Source/os_task.c ****              break;
 2201              		.loc 1 2255 14 view .LVU733
2255:..\..\..\..\..\..\Software\uCOS-III\Source/os_task.c ****              break;
 2202              		.loc 1 2255 14 view .LVU734
 2203 0098 2800     		movs	r0, r5
 2204 009a FFF7FEFF 		bl	CPU_SR_Restore
 2205              	.LVL226:
2256:..\..\..\..\..\..\Software\uCOS-III\Source/os_task.c **** 
 2206              		.loc 1 2256 14 view .LVU735
 2207 009e C8E7     		b	.L150
 2208              	.L144:
2259:..\..\..\..\..\..\Software\uCOS-III\Source/os_task.c ****              if (p_tcb->SuspendCtr == (OS_NESTING_CTR)0) {
 2209              		.loc 1 2259 14 view .LVU736
2259:..\..\..\..\..\..\Software\uCOS-III\Source/os_task.c ****              if (p_tcb->SuspendCtr == (OS_NESTING_CTR)0) {
 2210              		.loc 1 2259 19 is_stmt 0 view .LVU737
 2211 00a0 6022     		movs	r2, #96
 2212 00a2 A35C     		ldrb	r3, [r4, r2]
2259:..\..\..\..\..\..\Software\uCOS-III\Source/os_task.c ****              if (p_tcb->SuspendCtr == (OS_NESTING_CTR)0) {
 2213              		.loc 1 2259 31 view .LVU738
 2214 00a4 013B     		subs	r3, r3, #1
 2215 00a6 DBB2     		uxtb	r3, r3
 2216 00a8 A354     		strb	r3, [r4, r2]
2260:..\..\..\..\..\..\Software\uCOS-III\Source/os_task.c ****                  p_tcb->TaskState = OS_TASK_STATE_PEND_TIMEOUT;
 2217              		.loc 1 2260 14 is_stmt 1 view .LVU739
2260:..\..\..\..\..\..\Software\uCOS-III\Source/os_task.c ****                  p_tcb->TaskState = OS_TASK_STATE_PEND_TIMEOUT;
 2218              		.loc 1 2260 17 is_stmt 0 view .LVU740
 2219 00aa 002B     		cmp	r3, #0
 2220 00ac 02D1     		bne	.L154
2261:..\..\..\..\..\..\Software\uCOS-III\Source/os_task.c ****              }
 2221              		.loc 1 2261 18 is_stmt 1 view .LVU741
ARM GAS  C:\Users\EDULU~1.DES\AppData\Local\Temp\ccxcKTgR.s 			page 88


2261:..\..\..\..\..\..\Software\uCOS-III\Source/os_task.c ****              }
 2222              		.loc 1 2261 35 is_stmt 0 view .LVU742
 2223 00ae 3633     		adds	r3, r3, #54
 2224 00b0 5D3A     		subs	r2, r2, #93
 2225 00b2 E254     		strb	r2, [r4, r3]
 2226              	.L154:
2263:..\..\..\..\..\..\Software\uCOS-III\Source/os_task.c ****              break;
 2227              		.loc 1 2263 14 is_stmt 1 view .LVU743
2263:..\..\..\..\..\..\Software\uCOS-III\Source/os_task.c ****              break;
 2228              		.loc 1 2263 14 view .LVU744
 2229 00b4 FFF7FEFF 		bl	CPU_IntDisMeasStop
 2230              	.LVL227:
2263:..\..\..\..\..\..\Software\uCOS-III\Source/os_task.c ****              break;
 2231              		.loc 1 2263 14 view .LVU745
2263:..\..\..\..\..\..\Software\uCOS-III\Source/os_task.c ****              break;
 2232              		.loc 1 2263 14 view .LVU746
 2233 00b8 2800     		movs	r0, r5
 2234 00ba FFF7FEFF 		bl	CPU_SR_Restore
 2235              	.LVL228:
2264:..\..\..\..\..\..\Software\uCOS-III\Source/os_task.c **** 
 2236              		.loc 1 2264 14 view .LVU747
 2237 00be B8E7     		b	.L150
 2238              	.L143:
2267:..\..\..\..\..\..\Software\uCOS-III\Source/os_task.c ****             *p_err = OS_ERR_STATE_INVALID;
 2239              		.loc 1 2267 14 view .LVU748
2267:..\..\..\..\..\..\Software\uCOS-III\Source/os_task.c ****             *p_err = OS_ERR_STATE_INVALID;
 2240              		.loc 1 2267 14 view .LVU749
 2241 00c0 FFF7FEFF 		bl	CPU_IntDisMeasStop
 2242              	.LVL229:
2267:..\..\..\..\..\..\Software\uCOS-III\Source/os_task.c ****             *p_err = OS_ERR_STATE_INVALID;
 2243              		.loc 1 2267 14 view .LVU750
2267:..\..\..\..\..\..\Software\uCOS-III\Source/os_task.c ****             *p_err = OS_ERR_STATE_INVALID;
 2244              		.loc 1 2267 14 view .LVU751
 2245 00c4 2800     		movs	r0, r5
 2246 00c6 FFF7FEFF 		bl	CPU_SR_Restore
 2247              	.LVL230:
2268:..\..\..\..\..\..\Software\uCOS-III\Source/os_task.c ****              return;
 2248              		.loc 1 2268 13 view .LVU752
2268:..\..\..\..\..\..\Software\uCOS-III\Source/os_task.c ****              return;
 2249              		.loc 1 2268 20 is_stmt 0 view .LVU753
 2250 00ca 034B     		ldr	r3, .L157+8
 2251 00cc 3380     		strh	r3, [r6]
2269:..\..\..\..\..\..\Software\uCOS-III\Source/os_task.c ****     }
 2252              		.loc 1 2269 14 is_stmt 1 view .LVU754
 2253 00ce B2E7     		b	.L142
 2254              	.L158:
 2255              		.align	2
 2256              	.L157:
 2257 00d0 40000000 		.word	.L145
 2258 00d4 53710000 		.word	29011
 2259 00d8 2D6E0000 		.word	28205
 2260              		.cfi_endproc
 2261              	.LFE18:
 2262              		.size	OS_TaskResume, .-OS_TaskResume
 2263              		.section	.text.OSTaskResume,"ax",%progbits
 2264              		.align	1
 2265              		.global	OSTaskResume
ARM GAS  C:\Users\EDULU~1.DES\AppData\Local\Temp\ccxcKTgR.s 			page 89


 2266              		.syntax unified
 2267              		.code	16
 2268              		.thumb_func
 2269              		.fpu softvfp
 2270              		.type	OSTaskResume, %function
 2271              	OSTaskResume:
 2272              	.LVL231:
 2273              	.LFB8:
1178:..\..\..\..\..\..\Software\uCOS-III\Source/os_task.c ****     CPU_SR_ALLOC();
 2274              		.loc 1 1178 1 view -0
 2275              		.cfi_startproc
 2276              		@ args = 0, pretend = 0, frame = 0
 2277              		@ frame_needed = 0, uses_anonymous_args = 0
1178:..\..\..\..\..\..\Software\uCOS-III\Source/os_task.c ****     CPU_SR_ALLOC();
 2278              		.loc 1 1178 1 is_stmt 0 view .LVU756
 2279 0000 70B5     		push	{r4, r5, r6, lr}
 2280              		.cfi_def_cfa_offset 16
 2281              		.cfi_offset 4, -16
 2282              		.cfi_offset 5, -12
 2283              		.cfi_offset 6, -8
 2284              		.cfi_offset 14, -4
 2285 0002 0400     		movs	r4, r0
 2286 0004 0D00     		movs	r5, r1
1179:..\..\..\..\..\..\Software\uCOS-III\Source/os_task.c **** 
 2287              		.loc 1 1179 5 is_stmt 1 view .LVU757
 2288              	.LVL232:
1192:..\..\..\..\..\..\Software\uCOS-III\Source/os_task.c ****        *p_err = OS_ERR_TASK_RESUME_ISR;
 2289              		.loc 1 1192 5 view .LVU758
1192:..\..\..\..\..\..\Software\uCOS-III\Source/os_task.c ****        *p_err = OS_ERR_TASK_RESUME_ISR;
 2290              		.loc 1 1192 25 is_stmt 0 view .LVU759
 2291 0006 124B     		ldr	r3, .L164
 2292 0008 1B78     		ldrb	r3, [r3]
1192:..\..\..\..\..\..\Software\uCOS-III\Source/os_task.c ****        *p_err = OS_ERR_TASK_RESUME_ISR;
 2293              		.loc 1 1192 8 view .LVU760
 2294 000a 002B     		cmp	r3, #0
 2295 000c 02D0     		beq	.L160
1193:..\..\..\..\..\..\Software\uCOS-III\Source/os_task.c ****         return;
 2296              		.loc 1 1193 8 is_stmt 1 view .LVU761
1193:..\..\..\..\..\..\Software\uCOS-III\Source/os_task.c ****         return;
 2297              		.loc 1 1193 15 is_stmt 0 view .LVU762
 2298 000e 114B     		ldr	r3, .L164+4
 2299 0010 0B80     		strh	r3, [r1]
1194:..\..\..\..\..\..\Software\uCOS-III\Source/os_task.c ****     }
 2300              		.loc 1 1194 9 is_stmt 1 view .LVU763
 2301              	.LVL233:
 2302              	.L159:
1225:..\..\..\..\..\..\Software\uCOS-III\Source/os_task.c **** #endif
 2303              		.loc 1 1225 1 is_stmt 0 view .LVU764
 2304              		@ sp needed
 2305              	.LVL234:
 2306              	.LVL235:
1225:..\..\..\..\..\..\Software\uCOS-III\Source/os_task.c **** #endif
 2307              		.loc 1 1225 1 view .LVU765
 2308 0012 70BD     		pop	{r4, r5, r6, pc}
 2309              	.LVL236:
 2310              	.L160:
1199:..\..\..\..\..\..\Software\uCOS-III\Source/os_task.c **** #if OS_CFG_ARG_CHK_EN > 0u
ARM GAS  C:\Users\EDULU~1.DES\AppData\Local\Temp\ccxcKTgR.s 			page 90


 2311              		.loc 1 1199 5 is_stmt 1 view .LVU766
1199:..\..\..\..\..\..\Software\uCOS-III\Source/os_task.c **** #if OS_CFG_ARG_CHK_EN > 0u
 2312              		.loc 1 1199 5 view .LVU767
1199:..\..\..\..\..\..\Software\uCOS-III\Source/os_task.c **** #if OS_CFG_ARG_CHK_EN > 0u
 2313              		.loc 1 1199 5 view .LVU768
 2314 0014 FFF7FEFF 		bl	CPU_SR_Save
 2315              	.LVL237:
1199:..\..\..\..\..\..\Software\uCOS-III\Source/os_task.c **** #if OS_CFG_ARG_CHK_EN > 0u
 2316              		.loc 1 1199 5 is_stmt 0 view .LVU769
 2317 0018 0600     		movs	r6, r0
 2318              	.LVL238:
1199:..\..\..\..\..\..\Software\uCOS-III\Source/os_task.c **** #if OS_CFG_ARG_CHK_EN > 0u
 2319              		.loc 1 1199 5 is_stmt 1 view .LVU770
 2320 001a FFF7FEFF 		bl	CPU_IntDisMeasStart
 2321              	.LVL239:
1201:..\..\..\..\..\..\Software\uCOS-III\Source/os_task.c ****         (p_tcb == OSTCBCurPtr)) {
 2322              		.loc 1 1201 5 view .LVU771
1201:..\..\..\..\..\..\Software\uCOS-III\Source/os_task.c ****         (p_tcb == OSTCBCurPtr)) {
 2323              		.loc 1 1201 8 is_stmt 0 view .LVU772
 2324 001e 002C     		cmp	r4, #0
 2325 0020 0DD0     		beq	.L162
1202:..\..\..\..\..\..\Software\uCOS-III\Source/os_task.c ****         CPU_CRITICAL_EXIT();
 2326              		.loc 1 1202 16 discriminator 1 view .LVU773
 2327 0022 0D4B     		ldr	r3, .L164+8
 2328 0024 1B68     		ldr	r3, [r3]
1201:..\..\..\..\..\..\Software\uCOS-III\Source/os_task.c ****         (p_tcb == OSTCBCurPtr)) {
 2329              		.loc 1 1201 32 discriminator 1 view .LVU774
 2330 0026 A342     		cmp	r3, r4
 2331 0028 09D0     		beq	.L162
1208:..\..\..\..\..\..\Software\uCOS-III\Source/os_task.c **** 
 2332              		.loc 1 1208 5 is_stmt 1 view .LVU775
1208:..\..\..\..\..\..\Software\uCOS-III\Source/os_task.c **** 
 2333              		.loc 1 1208 5 view .LVU776
 2334 002a FFF7FEFF 		bl	CPU_IntDisMeasStop
 2335              	.LVL240:
1208:..\..\..\..\..\..\Software\uCOS-III\Source/os_task.c **** 
 2336              		.loc 1 1208 5 view .LVU777
1208:..\..\..\..\..\..\Software\uCOS-III\Source/os_task.c **** 
 2337              		.loc 1 1208 5 view .LVU778
 2338 002e 3000     		movs	r0, r6
 2339 0030 FFF7FEFF 		bl	CPU_SR_Restore
 2340              	.LVL241:
1224:..\..\..\..\..\..\Software\uCOS-III\Source/os_task.c **** }
 2341              		.loc 1 1224 5 view .LVU779
 2342 0034 2900     		movs	r1, r5
 2343 0036 2000     		movs	r0, r4
 2344 0038 FFF7FEFF 		bl	OS_TaskResume
 2345              	.LVL242:
 2346 003c E9E7     		b	.L159
 2347              	.L162:
1203:..\..\..\..\..\..\Software\uCOS-III\Source/os_task.c ****        *p_err  = OS_ERR_TASK_RESUME_SELF;
 2348              		.loc 1 1203 9 view .LVU780
1203:..\..\..\..\..\..\Software\uCOS-III\Source/os_task.c ****        *p_err  = OS_ERR_TASK_RESUME_SELF;
 2349              		.loc 1 1203 9 view .LVU781
 2350 003e FFF7FEFF 		bl	CPU_IntDisMeasStop
 2351              	.LVL243:
1203:..\..\..\..\..\..\Software\uCOS-III\Source/os_task.c ****        *p_err  = OS_ERR_TASK_RESUME_SELF;
ARM GAS  C:\Users\EDULU~1.DES\AppData\Local\Temp\ccxcKTgR.s 			page 91


 2352              		.loc 1 1203 9 view .LVU782
1203:..\..\..\..\..\..\Software\uCOS-III\Source/os_task.c ****        *p_err  = OS_ERR_TASK_RESUME_SELF;
 2353              		.loc 1 1203 9 view .LVU783
 2354 0042 3000     		movs	r0, r6
 2355 0044 FFF7FEFF 		bl	CPU_SR_Restore
 2356              	.LVL244:
1204:..\..\..\..\..\..\Software\uCOS-III\Source/os_task.c ****         return;
 2357              		.loc 1 1204 8 view .LVU784
1204:..\..\..\..\..\..\Software\uCOS-III\Source/os_task.c ****         return;
 2358              		.loc 1 1204 16 is_stmt 0 view .LVU785
 2359 0048 044B     		ldr	r3, .L164+12
 2360 004a 2B80     		strh	r3, [r5]
1205:..\..\..\..\..\..\Software\uCOS-III\Source/os_task.c ****     }
 2361              		.loc 1 1205 9 is_stmt 1 view .LVU786
 2362 004c E1E7     		b	.L159
 2363              	.L165:
 2364 004e C046     		.align	2
 2365              	.L164:
 2366 0050 00000000 		.word	OSIntNestingCtr
 2367 0054 55710000 		.word	29013
 2368 0058 00000000 		.word	OSTCBCurPtr
 2369 005c 57710000 		.word	29015
 2370              		.cfi_endproc
 2371              	.LFE8:
 2372              		.size	OSTaskResume, .-OSTaskResume
 2373              		.section	.text.OS_TaskReturn,"ax",%progbits
 2374              		.align	1
 2375              		.global	OS_TaskReturn
 2376              		.syntax unified
 2377              		.code	16
 2378              		.thumb_func
 2379              		.fpu softvfp
 2380              		.type	OS_TaskReturn, %function
 2381              	OS_TaskReturn:
 2382              	.LFB19:
2274:..\..\..\..\..\..\Software\uCOS-III\Source/os_task.c **** #endif
2275:..\..\..\..\..\..\Software\uCOS-III\Source/os_task.c **** 
2276:..\..\..\..\..\..\Software\uCOS-III\Source/os_task.c **** /*$PAGE*/
2277:..\..\..\..\..\..\Software\uCOS-III\Source/os_task.c **** /*
2278:..\..\..\..\..\..\Software\uCOS-III\Source/os_task.c **** ***************************************************************************************************
2279:..\..\..\..\..\..\Software\uCOS-III\Source/os_task.c **** *                                              CATCH ACCIDENTAL TASK RETURN
2280:..\..\..\..\..\..\Software\uCOS-III\Source/os_task.c **** *
2281:..\..\..\..\..\..\Software\uCOS-III\Source/os_task.c **** * Description: This function is called if a task accidentally returns without deleting itself.  In 
2282:..\..\..\..\..\..\Software\uCOS-III\Source/os_task.c **** *              should either be an infinite loop or delete itself if it's done.
2283:..\..\..\..\..\..\Software\uCOS-III\Source/os_task.c **** *
2284:..\..\..\..\..\..\Software\uCOS-III\Source/os_task.c **** * Arguments  : none
2285:..\..\..\..\..\..\Software\uCOS-III\Source/os_task.c **** *
2286:..\..\..\..\..\..\Software\uCOS-III\Source/os_task.c **** * Returns    : none
2287:..\..\..\..\..\..\Software\uCOS-III\Source/os_task.c **** *
2288:..\..\..\..\..\..\Software\uCOS-III\Source/os_task.c **** * Note(s)    : This function is INTERNAL to uC/OS-III and your application should not call it.
2289:..\..\..\..\..\..\Software\uCOS-III\Source/os_task.c **** ***************************************************************************************************
2290:..\..\..\..\..\..\Software\uCOS-III\Source/os_task.c **** */
2291:..\..\..\..\..\..\Software\uCOS-III\Source/os_task.c **** 
2292:..\..\..\..\..\..\Software\uCOS-III\Source/os_task.c **** void  OS_TaskReturn (void)
2293:..\..\..\..\..\..\Software\uCOS-III\Source/os_task.c **** {
 2383              		.loc 1 2293 1 view -0
 2384              		.cfi_startproc
ARM GAS  C:\Users\EDULU~1.DES\AppData\Local\Temp\ccxcKTgR.s 			page 92


 2385              		@ Volatile: function does not return.
 2386              		@ args = 0, pretend = 0, frame = 8
 2387              		@ frame_needed = 0, uses_anonymous_args = 0
 2388 0000 00B5     		push	{lr}
 2389              		.cfi_def_cfa_offset 4
 2390              		.cfi_offset 14, -4
 2391 0002 83B0     		sub	sp, sp, #12
 2392              		.cfi_def_cfa_offset 16
2294:..\..\..\..\..\..\Software\uCOS-III\Source/os_task.c ****     OS_ERR  err;
 2393              		.loc 1 2294 5 view .LVU788
2295:..\..\..\..\..\..\Software\uCOS-III\Source/os_task.c **** 
2296:..\..\..\..\..\..\Software\uCOS-III\Source/os_task.c **** 
2297:..\..\..\..\..\..\Software\uCOS-III\Source/os_task.c **** 
2298:..\..\..\..\..\..\Software\uCOS-III\Source/os_task.c ****     OSTaskReturnHook(OSTCBCurPtr);                          /* Call hook to let user decide on what
 2394              		.loc 1 2298 5 view .LVU789
 2395 0004 054B     		ldr	r3, .L168
 2396 0006 1868     		ldr	r0, [r3]
 2397 0008 FFF7FEFF 		bl	OSTaskReturnHook
 2398              	.LVL245:
 2399              	.L167:
2299:..\..\..\..\..\..\Software\uCOS-III\Source/os_task.c **** #if OS_CFG_TASK_DEL_EN > 0u
2300:..\..\..\..\..\..\Software\uCOS-III\Source/os_task.c ****     OSTaskDel((OS_TCB *)0,                                  /* Delete task if it accidentally retur
2301:..\..\..\..\..\..\Software\uCOS-III\Source/os_task.c ****               (OS_ERR *)&err);
2302:..\..\..\..\..\..\Software\uCOS-III\Source/os_task.c **** #else
2303:..\..\..\..\..\..\Software\uCOS-III\Source/os_task.c ****     for (;;) {
 2400              		.loc 1 2303 5 discriminator 1 view .LVU790
2304:..\..\..\..\..\..\Software\uCOS-III\Source/os_task.c ****         OSTimeDly((OS_TICK )OSCfg_TickRate_Hz,
 2401              		.loc 1 2304 9 discriminator 1 view .LVU791
 2402 000c 044B     		ldr	r3, .L168+4
 2403 000e 1868     		ldr	r0, [r3]
 2404 0010 6B46     		mov	r3, sp
 2405 0012 9A1D     		adds	r2, r3, #6
 2406 0014 0021     		movs	r1, #0
 2407 0016 FFF7FEFF 		bl	OSTimeDly
 2408              	.LVL246:
 2409 001a F7E7     		b	.L167
 2410              	.L169:
 2411              		.align	2
 2412              	.L168:
 2413 001c 00000000 		.word	OSTCBCurPtr
 2414 0020 00000000 		.word	OSCfg_TickRate_Hz
 2415              		.cfi_endproc
 2416              	.LFE19:
 2417              		.size	OS_TaskReturn, .-OS_TaskReturn
 2418              		.section	.text.OS_TaskSemPost,"ax",%progbits
 2419              		.align	1
 2420              		.global	OS_TaskSemPost
 2421              		.syntax unified
 2422              		.code	16
 2423              		.thumb_func
 2424              		.fpu softvfp
 2425              		.type	OS_TaskSemPost, %function
 2426              	OS_TaskSemPost:
 2427              	.LVL247:
 2428              	.LFB20:
2305:..\..\..\..\..\..\Software\uCOS-III\Source/os_task.c ****                   (OS_OPT  )OS_OPT_TIME_DLY,
2306:..\..\..\..\..\..\Software\uCOS-III\Source/os_task.c ****                   (OS_ERR *)&err);
ARM GAS  C:\Users\EDULU~1.DES\AppData\Local\Temp\ccxcKTgR.s 			page 93


2307:..\..\..\..\..\..\Software\uCOS-III\Source/os_task.c ****     }
2308:..\..\..\..\..\..\Software\uCOS-III\Source/os_task.c **** #endif
2309:..\..\..\..\..\..\Software\uCOS-III\Source/os_task.c **** }
2310:..\..\..\..\..\..\Software\uCOS-III\Source/os_task.c **** 
2311:..\..\..\..\..\..\Software\uCOS-III\Source/os_task.c **** /*$PAGE*/
2312:..\..\..\..\..\..\Software\uCOS-III\Source/os_task.c **** /*
2313:..\..\..\..\..\..\Software\uCOS-III\Source/os_task.c **** ***************************************************************************************************
2314:..\..\..\..\..\..\Software\uCOS-III\Source/os_task.c **** *                                                    SIGNAL A TASK
2315:..\..\..\..\..\..\Software\uCOS-III\Source/os_task.c **** *
2316:..\..\..\..\..\..\Software\uCOS-III\Source/os_task.c **** * Description: This function is called to signal a task waiting for a signal.
2317:..\..\..\..\..\..\Software\uCOS-III\Source/os_task.c **** *
2318:..\..\..\..\..\..\Software\uCOS-III\Source/os_task.c **** * Arguments  : p_tcb     is the pointer to the TCB of the task to signal.  A NULL pointer indicates
2319:..\..\..\..\..\..\Software\uCOS-III\Source/os_task.c **** *                        a signal to yourself.
2320:..\..\..\..\..\..\Software\uCOS-III\Source/os_task.c **** *
2321:..\..\..\..\..\..\Software\uCOS-III\Source/os_task.c **** *              opt       determines the type of POST performed:
2322:..\..\..\..\..\..\Software\uCOS-III\Source/os_task.c **** *
2323:..\..\..\..\..\..\Software\uCOS-III\Source/os_task.c **** *                             OS_OPT_POST_NONE         No option
2324:..\..\..\..\..\..\Software\uCOS-III\Source/os_task.c **** *
2325:..\..\..\..\..\..\Software\uCOS-III\Source/os_task.c **** *                             OS_OPT_POST_NO_SCHED     Do not call the scheduler
2326:..\..\..\..\..\..\Software\uCOS-III\Source/os_task.c **** *
2327:..\..\..\..\..\..\Software\uCOS-III\Source/os_task.c **** *              ts        is a timestamp indicating when the post occurred.
2328:..\..\..\..\..\..\Software\uCOS-III\Source/os_task.c **** *
2329:..\..\..\..\..\..\Software\uCOS-III\Source/os_task.c **** *              p_err     is a pointer to an error code returned by this function:
2330:..\..\..\..\..\..\Software\uCOS-III\Source/os_task.c **** *
2331:..\..\..\..\..\..\Software\uCOS-III\Source/os_task.c **** *                            OS_ERR_NONE           If the requested task is signaled
2332:..\..\..\..\..\..\Software\uCOS-III\Source/os_task.c **** *                            OS_ERR_SEM_OVF        If the post would cause the semaphore count to o
2333:..\..\..\..\..\..\Software\uCOS-III\Source/os_task.c **** *                            OS_ERR_STATE_INVALID  If the task is in an invalid state.  This should
2334:..\..\..\..\..\..\Software\uCOS-III\Source/os_task.c **** *                                                  and if it does, would be considered a system fai
2335:..\..\..\..\..\..\Software\uCOS-III\Source/os_task.c **** *
2336:..\..\..\..\..\..\Software\uCOS-III\Source/os_task.c **** * Returns    : The current value of the task's signal counter or 0 if called from an ISR
2337:..\..\..\..\..\..\Software\uCOS-III\Source/os_task.c **** *
2338:..\..\..\..\..\..\Software\uCOS-III\Source/os_task.c **** * Note(s)    : This function is INTERNAL to uC/OS-III and your application should not call it.
2339:..\..\..\..\..\..\Software\uCOS-III\Source/os_task.c **** ***************************************************************************************************
2340:..\..\..\..\..\..\Software\uCOS-III\Source/os_task.c **** */
2341:..\..\..\..\..\..\Software\uCOS-III\Source/os_task.c **** 
2342:..\..\..\..\..\..\Software\uCOS-III\Source/os_task.c **** OS_SEM_CTR  OS_TaskSemPost (OS_TCB  *p_tcb,
2343:..\..\..\..\..\..\Software\uCOS-III\Source/os_task.c ****                             OS_OPT   opt,
2344:..\..\..\..\..\..\Software\uCOS-III\Source/os_task.c ****                             CPU_TS   ts,
2345:..\..\..\..\..\..\Software\uCOS-III\Source/os_task.c ****                             OS_ERR  *p_err)
2346:..\..\..\..\..\..\Software\uCOS-III\Source/os_task.c **** {
 2429              		.loc 1 2346 1 view -0
 2430              		.cfi_startproc
 2431              		@ args = 0, pretend = 0, frame = 8
 2432              		@ frame_needed = 0, uses_anonymous_args = 0
 2433              		.loc 1 2346 1 is_stmt 0 view .LVU793
 2434 0000 F0B5     		push	{r4, r5, r6, r7, lr}
 2435              		.cfi_def_cfa_offset 20
 2436              		.cfi_offset 4, -20
 2437              		.cfi_offset 5, -16
 2438              		.cfi_offset 6, -12
 2439              		.cfi_offset 7, -8
 2440              		.cfi_offset 14, -4
 2441 0002 85B0     		sub	sp, sp, #20
 2442              		.cfi_def_cfa_offset 40
 2443 0004 0400     		movs	r4, r0
 2444 0006 0391     		str	r1, [sp, #12]
 2445 0008 1500     		movs	r5, r2
ARM GAS  C:\Users\EDULU~1.DES\AppData\Local\Temp\ccxcKTgR.s 			page 94


 2446 000a 1F00     		movs	r7, r3
2347:..\..\..\..\..\..\Software\uCOS-III\Source/os_task.c ****     OS_SEM_CTR  ctr;
 2447              		.loc 1 2347 5 is_stmt 1 view .LVU794
2348:..\..\..\..\..\..\Software\uCOS-III\Source/os_task.c ****     CPU_SR_ALLOC();
 2448              		.loc 1 2348 5 view .LVU795
 2449              	.LVL248:
2349:..\..\..\..\..\..\Software\uCOS-III\Source/os_task.c **** 
2350:..\..\..\..\..\..\Software\uCOS-III\Source/os_task.c **** 
2351:..\..\..\..\..\..\Software\uCOS-III\Source/os_task.c **** 
2352:..\..\..\..\..\..\Software\uCOS-III\Source/os_task.c ****     OS_CRITICAL_ENTER();
 2450              		.loc 1 2352 5 view .LVU796
 2451              		.loc 1 2352 5 view .LVU797
 2452              		.loc 1 2352 5 view .LVU798
 2453 000c FFF7FEFF 		bl	CPU_SR_Save
 2454              	.LVL249:
 2455              		.loc 1 2352 5 is_stmt 0 view .LVU799
 2456 0010 0600     		movs	r6, r0
 2457              	.LVL250:
 2458              		.loc 1 2352 5 is_stmt 1 view .LVU800
 2459 0012 FFF7FEFF 		bl	CPU_IntDisMeasStart
 2460              	.LVL251:
2353:..\..\..\..\..\..\Software\uCOS-III\Source/os_task.c ****     if (p_tcb == (OS_TCB *)0) {                             /* Post signal to 'self'?              
 2461              		.loc 1 2353 5 view .LVU801
 2462              		.loc 1 2353 8 is_stmt 0 view .LVU802
 2463 0016 002C     		cmp	r4, #0
 2464 0018 0AD0     		beq	.L180
 2465              	.L171:
2354:..\..\..\..\..\..\Software\uCOS-III\Source/os_task.c ****         p_tcb = OSTCBCurPtr;
2355:..\..\..\..\..\..\Software\uCOS-III\Source/os_task.c ****     }
2356:..\..\..\..\..\..\Software\uCOS-III\Source/os_task.c ****     p_tcb->TS = ts;
 2466              		.loc 1 2356 5 is_stmt 1 view .LVU803
 2467              		.loc 1 2356 15 is_stmt 0 view .LVU804
 2468 001a 2564     		str	r5, [r4, #64]
2357:..\..\..\..\..\..\Software\uCOS-III\Source/os_task.c ****    *p_err     = OS_ERR_NONE;                                /* Assume we won't have any errors     
 2469              		.loc 1 2357 4 is_stmt 1 view .LVU805
 2470              		.loc 1 2357 15 is_stmt 0 view .LVU806
 2471 001c 0023     		movs	r3, #0
 2472 001e 3B80     		strh	r3, [r7]
2358:..\..\..\..\..\..\Software\uCOS-III\Source/os_task.c ****     switch (p_tcb->TaskState) {
 2473              		.loc 1 2358 5 is_stmt 1 view .LVU807
 2474              		.loc 1 2358 18 is_stmt 0 view .LVU808
 2475 0020 3633     		adds	r3, r3, #54
 2476 0022 E35C     		ldrb	r3, [r4, r3]
 2477              		.loc 1 2358 5 view .LVU809
 2478 0024 072B     		cmp	r3, #7
 2479 0026 47D8     		bhi	.L172
 2480              		.loc 1 2358 5 view .LVU810
 2481 0028 9B00     		lsls	r3, r3, #2
 2482 002a 294A     		ldr	r2, .L184
 2483 002c D358     		ldr	r3, [r2, r3]
 2484 002e 9F46     		mov	pc, r3
 2485              		.section	.rodata
 2486              		.align	2
 2487              	.L174:
 2488 0060 36000000 		.word	.L175
 2489 0064 36000000 		.word	.L175
 2490 0068 5E000000 		.word	.L173
ARM GAS  C:\Users\EDULU~1.DES\AppData\Local\Temp\ccxcKTgR.s 			page 95


 2491 006c 5E000000 		.word	.L173
 2492 0070 36000000 		.word	.L175
 2493 0074 36000000 		.word	.L175
 2494 0078 5E000000 		.word	.L173
 2495 007c 5E000000 		.word	.L173
 2496              		.section	.text.OS_TaskSemPost
 2497              	.L180:
2354:..\..\..\..\..\..\Software\uCOS-III\Source/os_task.c ****         p_tcb = OSTCBCurPtr;
 2498              		.loc 1 2354 9 is_stmt 1 view .LVU811
2354:..\..\..\..\..\..\Software\uCOS-III\Source/os_task.c ****         p_tcb = OSTCBCurPtr;
 2499              		.loc 1 2354 15 is_stmt 0 view .LVU812
 2500 0030 284B     		ldr	r3, .L184+4
 2501 0032 1C68     		ldr	r4, [r3]
 2502              	.LVL252:
2354:..\..\..\..\..\..\Software\uCOS-III\Source/os_task.c ****         p_tcb = OSTCBCurPtr;
 2503              		.loc 1 2354 15 view .LVU813
 2504 0034 F1E7     		b	.L171
 2505              	.L175:
2359:..\..\..\..\..\..\Software\uCOS-III\Source/os_task.c ****         case OS_TASK_STATE_RDY:
2360:..\..\..\..\..\..\Software\uCOS-III\Source/os_task.c ****         case OS_TASK_STATE_DLY:
2361:..\..\..\..\..\..\Software\uCOS-III\Source/os_task.c ****         case OS_TASK_STATE_SUSPENDED:
2362:..\..\..\..\..\..\Software\uCOS-III\Source/os_task.c ****         case OS_TASK_STATE_DLY_SUSPENDED:
2363:..\..\..\..\..\..\Software\uCOS-III\Source/os_task.c ****              switch (sizeof(OS_SEM_CTR)) {
 2506              		.loc 1 2363 14 is_stmt 1 view .LVU814
2364:..\..\..\..\..\..\Software\uCOS-III\Source/os_task.c ****                  case 1u:
2365:..\..\..\..\..\..\Software\uCOS-III\Source/os_task.c ****                       if (p_tcb->SemCtr == DEF_INT_08U_MAX_VAL) {
2366:..\..\..\..\..\..\Software\uCOS-III\Source/os_task.c ****                           OS_CRITICAL_EXIT();
2367:..\..\..\..\..\..\Software\uCOS-III\Source/os_task.c ****                          *p_err = OS_ERR_SEM_OVF;
2368:..\..\..\..\..\..\Software\uCOS-III\Source/os_task.c ****                           return ((OS_SEM_CTR)0);
2369:..\..\..\..\..\..\Software\uCOS-III\Source/os_task.c ****                       }
2370:..\..\..\..\..\..\Software\uCOS-III\Source/os_task.c ****                       break;
2371:..\..\..\..\..\..\Software\uCOS-III\Source/os_task.c **** 
2372:..\..\..\..\..\..\Software\uCOS-III\Source/os_task.c ****                  case 2u:
2373:..\..\..\..\..\..\Software\uCOS-III\Source/os_task.c ****                       if (p_tcb->SemCtr == DEF_INT_16U_MAX_VAL) {
2374:..\..\..\..\..\..\Software\uCOS-III\Source/os_task.c ****                           OS_CRITICAL_EXIT();
2375:..\..\..\..\..\..\Software\uCOS-III\Source/os_task.c ****                          *p_err = OS_ERR_SEM_OVF;
2376:..\..\..\..\..\..\Software\uCOS-III\Source/os_task.c ****                           return ((OS_SEM_CTR)0);
2377:..\..\..\..\..\..\Software\uCOS-III\Source/os_task.c ****                       }
2378:..\..\..\..\..\..\Software\uCOS-III\Source/os_task.c ****                       break;
2379:..\..\..\..\..\..\Software\uCOS-III\Source/os_task.c **** 
2380:..\..\..\..\..\..\Software\uCOS-III\Source/os_task.c ****                  case 4u:
2381:..\..\..\..\..\..\Software\uCOS-III\Source/os_task.c ****                       if (p_tcb->SemCtr == DEF_INT_32U_MAX_VAL) {
 2507              		.loc 1 2381 23 view .LVU815
 2508              		.loc 1 2381 32 is_stmt 0 view .LVU816
 2509 0036 656C     		ldr	r5, [r4, #68]
 2510              	.LVL253:
 2511              		.loc 1 2381 26 view .LVU817
 2512 0038 6B1C     		adds	r3, r5, #1
 2513 003a 07D0     		beq	.L181
2382:..\..\..\..\..\..\Software\uCOS-III\Source/os_task.c ****                           OS_CRITICAL_EXIT();
2383:..\..\..\..\..\..\Software\uCOS-III\Source/os_task.c ****                          *p_err = OS_ERR_SEM_OVF;
2384:..\..\..\..\..\..\Software\uCOS-III\Source/os_task.c ****                           return ((OS_SEM_CTR)0);
2385:..\..\..\..\..\..\Software\uCOS-III\Source/os_task.c ****                       }
2386:..\..\..\..\..\..\Software\uCOS-III\Source/os_task.c ****                       break;
 2514              		.loc 1 2386 23 is_stmt 1 view .LVU818
2387:..\..\..\..\..\..\Software\uCOS-III\Source/os_task.c **** 
2388:..\..\..\..\..\..\Software\uCOS-III\Source/os_task.c ****                  default:
ARM GAS  C:\Users\EDULU~1.DES\AppData\Local\Temp\ccxcKTgR.s 			page 96


2389:..\..\..\..\..\..\Software\uCOS-III\Source/os_task.c ****                       break;
2390:..\..\..\..\..\..\Software\uCOS-III\Source/os_task.c ****              }
2391:..\..\..\..\..\..\Software\uCOS-III\Source/os_task.c ****              p_tcb->SemCtr++;                               /* Task signaled is not pending on anyt
 2515              		.loc 1 2391 14 view .LVU819
 2516              		.loc 1 2391 27 is_stmt 0 view .LVU820
 2517 003c 0135     		adds	r5, r5, #1
 2518 003e 6564     		str	r5, [r4, #68]
2392:..\..\..\..\..\..\Software\uCOS-III\Source/os_task.c ****              ctr = p_tcb->SemCtr;
 2519              		.loc 1 2392 14 is_stmt 1 view .LVU821
 2520              	.LVL254:
2393:..\..\..\..\..\..\Software\uCOS-III\Source/os_task.c ****              OS_CRITICAL_EXIT();
 2521              		.loc 1 2393 14 view .LVU822
 2522              		.loc 1 2393 14 view .LVU823
 2523 0040 FFF7FEFF 		bl	CPU_IntDisMeasStop
 2524              	.LVL255:
 2525              		.loc 1 2393 14 view .LVU824
 2526              		.loc 1 2393 14 view .LVU825
 2527 0044 3000     		movs	r0, r6
 2528 0046 FFF7FEFF 		bl	CPU_SR_Restore
 2529              	.LVL256:
2394:..\..\..\..\..\..\Software\uCOS-III\Source/os_task.c ****              break;
 2530              		.loc 1 2394 14 view .LVU826
 2531 004a 3DE0     		b	.L170
 2532              	.LVL257:
 2533              	.L181:
2382:..\..\..\..\..\..\Software\uCOS-III\Source/os_task.c ****                          *p_err = OS_ERR_SEM_OVF;
 2534              		.loc 1 2382 27 view .LVU827
2382:..\..\..\..\..\..\Software\uCOS-III\Source/os_task.c ****                          *p_err = OS_ERR_SEM_OVF;
 2535              		.loc 1 2382 27 view .LVU828
 2536 004c FFF7FEFF 		bl	CPU_IntDisMeasStop
 2537              	.LVL258:
2382:..\..\..\..\..\..\Software\uCOS-III\Source/os_task.c ****                          *p_err = OS_ERR_SEM_OVF;
 2538              		.loc 1 2382 27 view .LVU829
2382:..\..\..\..\..\..\Software\uCOS-III\Source/os_task.c ****                          *p_err = OS_ERR_SEM_OVF;
 2539              		.loc 1 2382 27 view .LVU830
 2540 0050 3000     		movs	r0, r6
 2541 0052 FFF7FEFF 		bl	CPU_SR_Restore
 2542              	.LVL259:
2383:..\..\..\..\..\..\Software\uCOS-III\Source/os_task.c ****                           return ((OS_SEM_CTR)0);
 2543              		.loc 1 2383 26 view .LVU831
2383:..\..\..\..\..\..\Software\uCOS-III\Source/os_task.c ****                           return ((OS_SEM_CTR)0);
 2544              		.loc 1 2383 33 is_stmt 0 view .LVU832
 2545 0056 204B     		ldr	r3, .L184+8
 2546 0058 3B80     		strh	r3, [r7]
2384:..\..\..\..\..\..\Software\uCOS-III\Source/os_task.c ****                       }
 2547              		.loc 1 2384 27 is_stmt 1 view .LVU833
2384:..\..\..\..\..\..\Software\uCOS-III\Source/os_task.c ****                       }
 2548              		.loc 1 2384 34 is_stmt 0 view .LVU834
 2549 005a 0025     		movs	r5, #0
 2550 005c 34E0     		b	.L170
 2551              	.LVL260:
 2552              	.L173:
2395:..\..\..\..\..\..\Software\uCOS-III\Source/os_task.c **** 
2396:..\..\..\..\..\..\Software\uCOS-III\Source/os_task.c ****         case OS_TASK_STATE_PEND:
2397:..\..\..\..\..\..\Software\uCOS-III\Source/os_task.c ****         case OS_TASK_STATE_PEND_TIMEOUT:
2398:..\..\..\..\..\..\Software\uCOS-III\Source/os_task.c ****         case OS_TASK_STATE_PEND_SUSPENDED:
2399:..\..\..\..\..\..\Software\uCOS-III\Source/os_task.c ****         case OS_TASK_STATE_PEND_TIMEOUT_SUSPENDED:
ARM GAS  C:\Users\EDULU~1.DES\AppData\Local\Temp\ccxcKTgR.s 			page 97


2400:..\..\..\..\..\..\Software\uCOS-III\Source/os_task.c ****              if (p_tcb->PendOn == OS_TASK_PEND_ON_TASK_SEM) {   /* Is task signaled waiting for a s
 2553              		.loc 1 2400 14 is_stmt 1 view .LVU835
 2554              		.loc 1 2400 23 is_stmt 0 view .LVU836
 2555 005e 3423     		movs	r3, #52
 2556 0060 E35C     		ldrb	r3, [r4, r3]
 2557              		.loc 1 2400 17 view .LVU837
 2558 0062 072B     		cmp	r3, #7
 2559 0064 0AD0     		beq	.L182
2401:..\..\..\..\..\..\Software\uCOS-III\Source/os_task.c ****                  OS_Post((OS_PEND_OBJ *)0,                      /*      Task is pending on signal  
2402:..\..\..\..\..\..\Software\uCOS-III\Source/os_task.c ****                          (OS_TCB      *)p_tcb,
2403:..\..\..\..\..\..\Software\uCOS-III\Source/os_task.c ****                          (void        *)0,
2404:..\..\..\..\..\..\Software\uCOS-III\Source/os_task.c ****                          (OS_MSG_SIZE  )0u,
2405:..\..\..\..\..\..\Software\uCOS-III\Source/os_task.c ****                          (CPU_TS       )ts);
2406:..\..\..\..\..\..\Software\uCOS-III\Source/os_task.c ****                  ctr = p_tcb->SemCtr;
2407:..\..\..\..\..\..\Software\uCOS-III\Source/os_task.c ****                  OS_CRITICAL_EXIT_NO_SCHED();
2408:..\..\..\..\..\..\Software\uCOS-III\Source/os_task.c ****                  if ((opt & OS_OPT_POST_NO_SCHED) == (OS_OPT)0) {
2409:..\..\..\..\..\..\Software\uCOS-III\Source/os_task.c ****                      OSSched();                                 /* Run the scheduler               
2410:..\..\..\..\..\..\Software\uCOS-III\Source/os_task.c ****                  }
2411:..\..\..\..\..\..\Software\uCOS-III\Source/os_task.c ****              } else {
2412:..\..\..\..\..\..\Software\uCOS-III\Source/os_task.c ****                  switch (sizeof(OS_SEM_CTR)) {
 2560              		.loc 1 2412 18 is_stmt 1 view .LVU838
2413:..\..\..\..\..\..\Software\uCOS-III\Source/os_task.c ****                      case 1u:
2414:..\..\..\..\..\..\Software\uCOS-III\Source/os_task.c ****                           if (p_tcb->SemCtr == DEF_INT_08U_MAX_VAL) {
2415:..\..\..\..\..\..\Software\uCOS-III\Source/os_task.c ****                               OS_CRITICAL_EXIT();
2416:..\..\..\..\..\..\Software\uCOS-III\Source/os_task.c ****                              *p_err = OS_ERR_SEM_OVF;
2417:..\..\..\..\..\..\Software\uCOS-III\Source/os_task.c ****                               return ((OS_SEM_CTR)0);
2418:..\..\..\..\..\..\Software\uCOS-III\Source/os_task.c ****                           }
2419:..\..\..\..\..\..\Software\uCOS-III\Source/os_task.c ****                           break;
2420:..\..\..\..\..\..\Software\uCOS-III\Source/os_task.c **** 
2421:..\..\..\..\..\..\Software\uCOS-III\Source/os_task.c ****                      case 2u:
2422:..\..\..\..\..\..\Software\uCOS-III\Source/os_task.c ****                           if (p_tcb->SemCtr == DEF_INT_16U_MAX_VAL) {
2423:..\..\..\..\..\..\Software\uCOS-III\Source/os_task.c ****                               OS_CRITICAL_EXIT();
2424:..\..\..\..\..\..\Software\uCOS-III\Source/os_task.c ****                              *p_err = OS_ERR_SEM_OVF;
2425:..\..\..\..\..\..\Software\uCOS-III\Source/os_task.c ****                               return ((OS_SEM_CTR)0);
2426:..\..\..\..\..\..\Software\uCOS-III\Source/os_task.c ****                           }
2427:..\..\..\..\..\..\Software\uCOS-III\Source/os_task.c ****                           break;
2428:..\..\..\..\..\..\Software\uCOS-III\Source/os_task.c **** 
2429:..\..\..\..\..\..\Software\uCOS-III\Source/os_task.c ****                      case 4u:
2430:..\..\..\..\..\..\Software\uCOS-III\Source/os_task.c ****                           if (p_tcb->SemCtr == DEF_INT_32U_MAX_VAL) {
 2561              		.loc 1 2430 27 view .LVU839
 2562              		.loc 1 2430 36 is_stmt 0 view .LVU840
 2563 0066 656C     		ldr	r5, [r4, #68]
 2564              	.LVL261:
 2565              		.loc 1 2430 30 view .LVU841
 2566 0068 6B1C     		adds	r3, r5, #1
 2567 006a 1CD0     		beq	.L183
2431:..\..\..\..\..\..\Software\uCOS-III\Source/os_task.c ****                               OS_CRITICAL_EXIT();
2432:..\..\..\..\..\..\Software\uCOS-III\Source/os_task.c ****                              *p_err = OS_ERR_SEM_OVF;
2433:..\..\..\..\..\..\Software\uCOS-III\Source/os_task.c ****                               return ((OS_SEM_CTR)0);
2434:..\..\..\..\..\..\Software\uCOS-III\Source/os_task.c ****                           }
2435:..\..\..\..\..\..\Software\uCOS-III\Source/os_task.c ****                           break;
 2568              		.loc 1 2435 27 is_stmt 1 view .LVU842
2436:..\..\..\..\..\..\Software\uCOS-III\Source/os_task.c **** 
2437:..\..\..\..\..\..\Software\uCOS-III\Source/os_task.c ****                      default:
2438:..\..\..\..\..\..\Software\uCOS-III\Source/os_task.c ****                           break;
2439:..\..\..\..\..\..\Software\uCOS-III\Source/os_task.c ****                  }
2440:..\..\..\..\..\..\Software\uCOS-III\Source/os_task.c ****                  p_tcb->SemCtr++;                           /* No,  Task signaled is NOT pending on
ARM GAS  C:\Users\EDULU~1.DES\AppData\Local\Temp\ccxcKTgR.s 			page 98


 2569              		.loc 1 2440 18 view .LVU843
 2570              		.loc 1 2440 31 is_stmt 0 view .LVU844
 2571 006c 0135     		adds	r5, r5, #1
 2572 006e 6564     		str	r5, [r4, #68]
2441:..\..\..\..\..\..\Software\uCOS-III\Source/os_task.c ****                  ctr = p_tcb->SemCtr;                       /*      ... it must be waiting on somet
 2573              		.loc 1 2441 18 is_stmt 1 view .LVU845
 2574              	.LVL262:
2442:..\..\..\..\..\..\Software\uCOS-III\Source/os_task.c ****                  OS_CRITICAL_EXIT();
 2575              		.loc 1 2442 18 view .LVU846
 2576              		.loc 1 2442 18 view .LVU847
 2577 0070 FFF7FEFF 		bl	CPU_IntDisMeasStop
 2578              	.LVL263:
 2579              		.loc 1 2442 18 view .LVU848
 2580              		.loc 1 2442 18 view .LVU849
 2581 0074 3000     		movs	r0, r6
 2582 0076 FFF7FEFF 		bl	CPU_SR_Restore
 2583              	.LVL264:
 2584 007a 25E0     		b	.L170
 2585              	.LVL265:
 2586              	.L182:
2401:..\..\..\..\..\..\Software\uCOS-III\Source/os_task.c ****                          (OS_TCB      *)p_tcb,
 2587              		.loc 1 2401 18 view .LVU850
 2588 007c 0095     		str	r5, [sp]
 2589 007e 0023     		movs	r3, #0
 2590 0080 0022     		movs	r2, #0
 2591 0082 2100     		movs	r1, r4
 2592 0084 0020     		movs	r0, #0
 2593 0086 FFF7FEFF 		bl	OS_Post
 2594              	.LVL266:
2406:..\..\..\..\..\..\Software\uCOS-III\Source/os_task.c ****                  OS_CRITICAL_EXIT_NO_SCHED();
 2595              		.loc 1 2406 18 view .LVU851
2406:..\..\..\..\..\..\Software\uCOS-III\Source/os_task.c ****                  OS_CRITICAL_EXIT_NO_SCHED();
 2596              		.loc 1 2406 22 is_stmt 0 view .LVU852
 2597 008a 656C     		ldr	r5, [r4, #68]
 2598              	.LVL267:
2407:..\..\..\..\..\..\Software\uCOS-III\Source/os_task.c ****                  if ((opt & OS_OPT_POST_NO_SCHED) == (OS_OPT)0) {
 2599              		.loc 1 2407 18 is_stmt 1 view .LVU853
2407:..\..\..\..\..\..\Software\uCOS-III\Source/os_task.c ****                  if ((opt & OS_OPT_POST_NO_SCHED) == (OS_OPT)0) {
 2600              		.loc 1 2407 18 view .LVU854
 2601 008c FFF7FEFF 		bl	CPU_IntDisMeasStop
 2602              	.LVL268:
2407:..\..\..\..\..\..\Software\uCOS-III\Source/os_task.c ****                  if ((opt & OS_OPT_POST_NO_SCHED) == (OS_OPT)0) {
 2603              		.loc 1 2407 18 view .LVU855
2407:..\..\..\..\..\..\Software\uCOS-III\Source/os_task.c ****                  if ((opt & OS_OPT_POST_NO_SCHED) == (OS_OPT)0) {
 2604              		.loc 1 2407 18 view .LVU856
 2605 0090 3000     		movs	r0, r6
 2606 0092 FFF7FEFF 		bl	CPU_SR_Restore
 2607              	.LVL269:
2408:..\..\..\..\..\..\Software\uCOS-III\Source/os_task.c ****                      OSSched();                                 /* Run the scheduler               
 2608              		.loc 1 2408 18 view .LVU857
2408:..\..\..\..\..\..\Software\uCOS-III\Source/os_task.c ****                      OSSched();                                 /* Run the scheduler               
 2609              		.loc 1 2408 51 is_stmt 0 view .LVU858
 2610 0096 6B46     		mov	r3, sp
 2611 0098 0C27     		movs	r7, #12
 2612 009a DF5F     		ldrsh	r7, [r3, r7]
 2613              	.LVL270:
2408:..\..\..\..\..\..\Software\uCOS-III\Source/os_task.c ****                      OSSched();                                 /* Run the scheduler               
ARM GAS  C:\Users\EDULU~1.DES\AppData\Local\Temp\ccxcKTgR.s 			page 99


 2614              		.loc 1 2408 21 view .LVU859
 2615 009c 002F     		cmp	r7, #0
 2616 009e 13DB     		blt	.L170
2409:..\..\..\..\..\..\Software\uCOS-III\Source/os_task.c ****                  }
 2617              		.loc 1 2409 22 is_stmt 1 view .LVU860
 2618 00a0 FFF7FEFF 		bl	OSSched
 2619              	.LVL271:
 2620 00a4 10E0     		b	.L170
 2621              	.LVL272:
 2622              	.L183:
2431:..\..\..\..\..\..\Software\uCOS-III\Source/os_task.c ****                              *p_err = OS_ERR_SEM_OVF;
 2623              		.loc 1 2431 31 view .LVU861
2431:..\..\..\..\..\..\Software\uCOS-III\Source/os_task.c ****                              *p_err = OS_ERR_SEM_OVF;
 2624              		.loc 1 2431 31 view .LVU862
 2625 00a6 FFF7FEFF 		bl	CPU_IntDisMeasStop
 2626              	.LVL273:
2431:..\..\..\..\..\..\Software\uCOS-III\Source/os_task.c ****                              *p_err = OS_ERR_SEM_OVF;
 2627              		.loc 1 2431 31 view .LVU863
2431:..\..\..\..\..\..\Software\uCOS-III\Source/os_task.c ****                              *p_err = OS_ERR_SEM_OVF;
 2628              		.loc 1 2431 31 view .LVU864
 2629 00aa 3000     		movs	r0, r6
 2630 00ac FFF7FEFF 		bl	CPU_SR_Restore
 2631              	.LVL274:
2432:..\..\..\..\..\..\Software\uCOS-III\Source/os_task.c ****                               return ((OS_SEM_CTR)0);
 2632              		.loc 1 2432 30 view .LVU865
2432:..\..\..\..\..\..\Software\uCOS-III\Source/os_task.c ****                               return ((OS_SEM_CTR)0);
 2633              		.loc 1 2432 37 is_stmt 0 view .LVU866
 2634 00b0 094B     		ldr	r3, .L184+8
 2635 00b2 3B80     		strh	r3, [r7]
2433:..\..\..\..\..\..\Software\uCOS-III\Source/os_task.c ****                           }
 2636              		.loc 1 2433 31 is_stmt 1 view .LVU867
2433:..\..\..\..\..\..\Software\uCOS-III\Source/os_task.c ****                           }
 2637              		.loc 1 2433 38 is_stmt 0 view .LVU868
 2638 00b4 0025     		movs	r5, #0
 2639 00b6 07E0     		b	.L170
 2640              	.LVL275:
 2641              	.L172:
2443:..\..\..\..\..\..\Software\uCOS-III\Source/os_task.c ****              }
2444:..\..\..\..\..\..\Software\uCOS-III\Source/os_task.c ****              break;
2445:..\..\..\..\..\..\Software\uCOS-III\Source/os_task.c **** 
2446:..\..\..\..\..\..\Software\uCOS-III\Source/os_task.c ****         default:
2447:..\..\..\..\..\..\Software\uCOS-III\Source/os_task.c ****              OS_CRITICAL_EXIT();
 2642              		.loc 1 2447 14 is_stmt 1 view .LVU869
 2643              		.loc 1 2447 14 view .LVU870
 2644 00b8 FFF7FEFF 		bl	CPU_IntDisMeasStop
 2645              	.LVL276:
 2646              		.loc 1 2447 14 view .LVU871
 2647              		.loc 1 2447 14 view .LVU872
 2648 00bc 3000     		movs	r0, r6
 2649 00be FFF7FEFF 		bl	CPU_SR_Restore
 2650              	.LVL277:
2448:..\..\..\..\..\..\Software\uCOS-III\Source/os_task.c ****             *p_err = OS_ERR_STATE_INVALID;
 2651              		.loc 1 2448 13 view .LVU873
 2652              		.loc 1 2448 20 is_stmt 0 view .LVU874
 2653 00c2 064B     		ldr	r3, .L184+12
 2654 00c4 3B80     		strh	r3, [r7]
2449:..\..\..\..\..\..\Software\uCOS-III\Source/os_task.c ****              ctr   = (OS_SEM_CTR)0;
ARM GAS  C:\Users\EDULU~1.DES\AppData\Local\Temp\ccxcKTgR.s 			page 100


 2655              		.loc 1 2449 14 is_stmt 1 view .LVU875
 2656              	.LVL278:
2450:..\..\..\..\..\..\Software\uCOS-III\Source/os_task.c ****              break;
 2657              		.loc 1 2450 14 view .LVU876
2449:..\..\..\..\..\..\Software\uCOS-III\Source/os_task.c ****              ctr   = (OS_SEM_CTR)0;
 2658              		.loc 1 2449 20 is_stmt 0 view .LVU877
 2659 00c6 0025     		movs	r5, #0
 2660              	.LVL279:
 2661              	.L170:
2451:..\..\..\..\..\..\Software\uCOS-III\Source/os_task.c ****     }
2452:..\..\..\..\..\..\Software\uCOS-III\Source/os_task.c ****     return (ctr);
2453:..\..\..\..\..\..\Software\uCOS-III\Source/os_task.c **** }
 2662              		.loc 1 2453 1 view .LVU878
 2663 00c8 2800     		movs	r0, r5
 2664 00ca 05B0     		add	sp, sp, #20
 2665              		@ sp needed
 2666              	.LVL280:
 2667              	.LVL281:
 2668              		.loc 1 2453 1 view .LVU879
 2669 00cc F0BD     		pop	{r4, r5, r6, r7, pc}
 2670              	.L185:
 2671 00ce C046     		.align	2
 2672              	.L184:
 2673 00d0 60000000 		.word	.L174
 2674 00d4 00000000 		.word	OSTCBCurPtr
 2675 00d8 C56D0000 		.word	28101
 2676 00dc 2D6E0000 		.word	28205
 2677              		.cfi_endproc
 2678              	.LFE20:
 2679              		.size	OS_TaskSemPost, .-OS_TaskSemPost
 2680              		.section	.text.OSTaskSemPost,"ax",%progbits
 2681              		.align	1
 2682              		.global	OSTaskSemPost
 2683              		.syntax unified
 2684              		.code	16
 2685              		.thumb_func
 2686              		.fpu softvfp
 2687              		.type	OSTaskSemPost, %function
 2688              	OSTaskSemPost:
 2689              	.LVL282:
 2690              	.LFB10:
1500:..\..\..\..\..\..\Software\uCOS-III\Source/os_task.c ****     OS_SEM_CTR  ctr;
 2691              		.loc 1 1500 1 is_stmt 1 view -0
 2692              		.cfi_startproc
 2693              		@ args = 0, pretend = 0, frame = 0
 2694              		@ frame_needed = 0, uses_anonymous_args = 0
1500:..\..\..\..\..\..\Software\uCOS-III\Source/os_task.c ****     OS_SEM_CTR  ctr;
 2695              		.loc 1 1500 1 is_stmt 0 view .LVU881
 2696 0000 70B5     		push	{r4, r5, r6, lr}
 2697              		.cfi_def_cfa_offset 16
 2698              		.cfi_offset 4, -16
 2699              		.cfi_offset 5, -12
 2700              		.cfi_offset 6, -8
 2701              		.cfi_offset 14, -4
 2702 0002 0600     		movs	r6, r0
 2703 0004 0C00     		movs	r4, r1
 2704 0006 1500     		movs	r5, r2
ARM GAS  C:\Users\EDULU~1.DES\AppData\Local\Temp\ccxcKTgR.s 			page 101


1501:..\..\..\..\..\..\Software\uCOS-III\Source/os_task.c ****     CPU_TS      ts;
 2705              		.loc 1 1501 5 is_stmt 1 view .LVU882
1502:..\..\..\..\..\..\Software\uCOS-III\Source/os_task.c **** 
 2706              		.loc 1 1502 5 view .LVU883
1514:..\..\..\..\..\..\Software\uCOS-III\Source/os_task.c ****         case OS_OPT_POST_NONE:
 2707              		.loc 1 1514 5 view .LVU884
 2708 0008 0029     		cmp	r1, #0
 2709 000a 07D0     		beq	.L187
 2710 000c 8023     		movs	r3, #128
 2711 000e 1B02     		lsls	r3, r3, #8
 2712 0010 9942     		cmp	r1, r3
 2713 0012 03D0     		beq	.L187
1520:..\..\..\..\..\..\Software\uCOS-III\Source/os_task.c ****              return ((OS_SEM_CTR)0u);
 2714              		.loc 1 1520 13 view .LVU885
1520:..\..\..\..\..\..\Software\uCOS-III\Source/os_task.c ****              return ((OS_SEM_CTR)0u);
 2715              		.loc 1 1520 20 is_stmt 0 view .LVU886
 2716 0014 064B     		ldr	r3, .L189
 2717 0016 1380     		strh	r3, [r2]
1521:..\..\..\..\..\..\Software\uCOS-III\Source/os_task.c ****     }
 2718              		.loc 1 1521 14 is_stmt 1 view .LVU887
1521:..\..\..\..\..\..\Software\uCOS-III\Source/os_task.c ****     }
 2719              		.loc 1 1521 21 is_stmt 0 view .LVU888
 2720 0018 0020     		movs	r0, #0
 2721              	.LVL283:
 2722              	.L186:
1547:..\..\..\..\..\..\Software\uCOS-III\Source/os_task.c **** 
 2723              		.loc 1 1547 1 view .LVU889
 2724              		@ sp needed
 2725              	.LVL284:
 2726              	.LVL285:
1547:..\..\..\..\..\..\Software\uCOS-III\Source/os_task.c **** 
 2727              		.loc 1 1547 1 view .LVU890
 2728 001a 70BD     		pop	{r4, r5, r6, pc}
 2729              	.LVL286:
 2730              	.L187:
1517:..\..\..\..\..\..\Software\uCOS-III\Source/os_task.c **** 
 2731              		.loc 1 1517 14 is_stmt 1 view .LVU891
1525:..\..\..\..\..\..\Software\uCOS-III\Source/os_task.c **** 
 2732              		.loc 1 1525 5 view .LVU892
1525:..\..\..\..\..\..\Software\uCOS-III\Source/os_task.c **** 
 2733              		.loc 1 1525 10 is_stmt 0 view .LVU893
 2734 001c FFF7FEFF 		bl	CPU_TS_TmrRd
 2735              	.LVL287:
1525:..\..\..\..\..\..\Software\uCOS-III\Source/os_task.c **** 
 2736              		.loc 1 1525 10 view .LVU894
 2737 0020 0200     		movs	r2, r0
 2738              	.LVL288:
1541:..\..\..\..\..\..\Software\uCOS-III\Source/os_task.c ****                          opt,
 2739              		.loc 1 1541 5 is_stmt 1 view .LVU895
1541:..\..\..\..\..\..\Software\uCOS-III\Source/os_task.c ****                          opt,
 2740              		.loc 1 1541 11 is_stmt 0 view .LVU896
 2741 0022 2B00     		movs	r3, r5
 2742 0024 2100     		movs	r1, r4
 2743 0026 3000     		movs	r0, r6
 2744              	.LVL289:
1541:..\..\..\..\..\..\Software\uCOS-III\Source/os_task.c ****                          opt,
 2745              		.loc 1 1541 11 view .LVU897
ARM GAS  C:\Users\EDULU~1.DES\AppData\Local\Temp\ccxcKTgR.s 			page 102


 2746 0028 FFF7FEFF 		bl	OS_TaskSemPost
 2747              	.LVL290:
1546:..\..\..\..\..\..\Software\uCOS-III\Source/os_task.c **** }
 2748              		.loc 1 1546 5 is_stmt 1 view .LVU898
1546:..\..\..\..\..\..\Software\uCOS-III\Source/os_task.c **** }
 2749              		.loc 1 1546 12 is_stmt 0 view .LVU899
 2750 002c F5E7     		b	.L186
 2751              	.L190:
 2752 002e C046     		.align	2
 2753              	.L189:
 2754 0030 255E0000 		.word	24101
 2755              		.cfi_endproc
 2756              	.LFE10:
 2757              		.size	OSTaskSemPost, .-OSTaskSemPost
 2758              		.section	.text.OS_TaskSuspend,"ax",%progbits
 2759              		.align	1
 2760              		.global	OS_TaskSuspend
 2761              		.syntax unified
 2762              		.code	16
 2763              		.thumb_func
 2764              		.fpu softvfp
 2765              		.type	OS_TaskSuspend, %function
 2766              	OS_TaskSuspend:
 2767              	.LVL291:
 2768              	.LFB21:
2454:..\..\..\..\..\..\Software\uCOS-III\Source/os_task.c **** 
2455:..\..\..\..\..\..\Software\uCOS-III\Source/os_task.c **** /*$PAGE*/
2456:..\..\..\..\..\..\Software\uCOS-III\Source/os_task.c **** /*
2457:..\..\..\..\..\..\Software\uCOS-III\Source/os_task.c **** ***************************************************************************************************
2458:..\..\..\..\..\..\Software\uCOS-III\Source/os_task.c **** *                                                   SUSPEND A TASK
2459:..\..\..\..\..\..\Software\uCOS-III\Source/os_task.c **** *
2460:..\..\..\..\..\..\Software\uCOS-III\Source/os_task.c **** * Description: This function is called to suspend a task.  The task can be the calling task if 'p_t
2461:..\..\..\..\..\..\Software\uCOS-III\Source/os_task.c **** *              or the pointer to the TCB of the calling task.
2462:..\..\..\..\..\..\Software\uCOS-III\Source/os_task.c **** *
2463:..\..\..\..\..\..\Software\uCOS-III\Source/os_task.c **** * Arguments  : p_tcb    is a pointer to the TCB to suspend.
2464:..\..\..\..\..\..\Software\uCOS-III\Source/os_task.c **** *                       If p_tcb is a NULL pointer then, suspend the current task.
2465:..\..\..\..\..\..\Software\uCOS-III\Source/os_task.c **** *
2466:..\..\..\..\..\..\Software\uCOS-III\Source/os_task.c **** *              p_err    is a pointer to a variable that will receive an error code from this functi
2467:..\..\..\..\..\..\Software\uCOS-III\Source/os_task.c **** *
2468:..\..\..\..\..\..\Software\uCOS-III\Source/os_task.c **** *                           OS_ERR_NONE                      if the requested task is suspended
2469:..\..\..\..\..\..\Software\uCOS-III\Source/os_task.c **** *                           OS_ERR_SCHED_LOCKED              you can't suspend the current task is 
2470:..\..\..\..\..\..\Software\uCOS-III\Source/os_task.c **** *                                                            locked
2471:..\..\..\..\..\..\Software\uCOS-III\Source/os_task.c **** *                           OS_ERR_TASK_SUSPEND_ISR          if you called this function from an IS
2472:..\..\..\..\..\..\Software\uCOS-III\Source/os_task.c **** *                           OS_ERR_TASK_SUSPEND_IDLE         if you attempted to suspend the idle t
2473:..\..\..\..\..\..\Software\uCOS-III\Source/os_task.c **** *                                                            allowed.
2474:..\..\..\..\..\..\Software\uCOS-III\Source/os_task.c **** *                           OS_ERR_TASK_SUSPEND_INT_HANDLER  if you attempted to suspend the idle t
2475:..\..\..\..\..\..\Software\uCOS-III\Source/os_task.c **** *                                                            allowed.
2476:..\..\..\..\..\..\Software\uCOS-III\Source/os_task.c **** *
2477:..\..\..\..\..\..\Software\uCOS-III\Source/os_task.c **** * Note(s)    : 1) This function is INTERNAL to uC/OS-III and your application should not call it.
2478:..\..\..\..\..\..\Software\uCOS-III\Source/os_task.c **** *
2479:..\..\..\..\..\..\Software\uCOS-III\Source/os_task.c **** *              2) You should use this function with great care.  If you suspend a task that is wait
2480:..\..\..\..\..\..\Software\uCOS-III\Source/os_task.c **** *                 (i.e. a message, a semaphore, a queue ...) you will prevent this task from runnin
2481:..\..\..\..\..\..\Software\uCOS-III\Source/os_task.c **** *                 arrives.
2482:..\..\..\..\..\..\Software\uCOS-III\Source/os_task.c **** ***************************************************************************************************
2483:..\..\..\..\..\..\Software\uCOS-III\Source/os_task.c **** */
2484:..\..\..\..\..\..\Software\uCOS-III\Source/os_task.c **** 
2485:..\..\..\..\..\..\Software\uCOS-III\Source/os_task.c **** #if OS_CFG_TASK_SUSPEND_EN > 0u
ARM GAS  C:\Users\EDULU~1.DES\AppData\Local\Temp\ccxcKTgR.s 			page 103


2486:..\..\..\..\..\..\Software\uCOS-III\Source/os_task.c **** void   OS_TaskSuspend (OS_TCB  *p_tcb,
2487:..\..\..\..\..\..\Software\uCOS-III\Source/os_task.c ****                        OS_ERR  *p_err)
2488:..\..\..\..\..\..\Software\uCOS-III\Source/os_task.c **** {
 2769              		.loc 1 2488 1 is_stmt 1 view -0
 2770              		.cfi_startproc
 2771              		@ args = 0, pretend = 0, frame = 0
 2772              		@ frame_needed = 0, uses_anonymous_args = 0
 2773              		.loc 1 2488 1 is_stmt 0 view .LVU901
 2774 0000 70B5     		push	{r4, r5, r6, lr}
 2775              		.cfi_def_cfa_offset 16
 2776              		.cfi_offset 4, -16
 2777              		.cfi_offset 5, -12
 2778              		.cfi_offset 6, -8
 2779              		.cfi_offset 14, -4
 2780 0002 0400     		movs	r4, r0
 2781 0004 0E00     		movs	r6, r1
2489:..\..\..\..\..\..\Software\uCOS-III\Source/os_task.c ****     CPU_SR_ALLOC();
 2782              		.loc 1 2489 5 is_stmt 1 view .LVU902
 2783              	.LVL292:
2490:..\..\..\..\..\..\Software\uCOS-III\Source/os_task.c **** 
2491:..\..\..\..\..\..\Software\uCOS-III\Source/os_task.c **** 
2492:..\..\..\..\..\..\Software\uCOS-III\Source/os_task.c **** 
2493:..\..\..\..\..\..\Software\uCOS-III\Source/os_task.c ****     CPU_CRITICAL_ENTER();
 2784              		.loc 1 2493 5 view .LVU903
 2785              		.loc 1 2493 5 view .LVU904
 2786              		.loc 1 2493 5 view .LVU905
 2787 0006 FFF7FEFF 		bl	CPU_SR_Save
 2788              	.LVL293:
 2789              		.loc 1 2493 5 is_stmt 0 view .LVU906
 2790 000a 0500     		movs	r5, r0
 2791              	.LVL294:
 2792              		.loc 1 2493 5 is_stmt 1 view .LVU907
 2793 000c FFF7FEFF 		bl	CPU_IntDisMeasStart
 2794              	.LVL295:
2494:..\..\..\..\..\..\Software\uCOS-III\Source/os_task.c ****     if (p_tcb == (OS_TCB *)0) {                             /* See if specified to suspend self    
 2795              		.loc 1 2494 5 view .LVU908
 2796              		.loc 1 2494 8 is_stmt 0 view .LVU909
 2797 0010 002C     		cmp	r4, #0
 2798 0012 0DD0     		beq	.L203
 2799              	.L192:
2495:..\..\..\..\..\..\Software\uCOS-III\Source/os_task.c ****         p_tcb = OSTCBCurPtr;
2496:..\..\..\..\..\..\Software\uCOS-III\Source/os_task.c ****     }
2497:..\..\..\..\..\..\Software\uCOS-III\Source/os_task.c **** 
2498:..\..\..\..\..\..\Software\uCOS-III\Source/os_task.c ****     if (p_tcb == OSTCBCurPtr) {
 2800              		.loc 1 2498 5 is_stmt 1 view .LVU910
 2801              		.loc 1 2498 15 is_stmt 0 view .LVU911
 2802 0014 314B     		ldr	r3, .L205
 2803 0016 1B68     		ldr	r3, [r3]
 2804              		.loc 1 2498 8 view .LVU912
 2805 0018 A342     		cmp	r3, r4
 2806 001a 0CD0     		beq	.L204
 2807              	.L193:
2499:..\..\..\..\..\..\Software\uCOS-III\Source/os_task.c ****         if (OSSchedLockNestingCtr > (OS_NESTING_CTR)0) {    /* Can't suspend when the scheduler is 
2500:..\..\..\..\..\..\Software\uCOS-III\Source/os_task.c ****             CPU_CRITICAL_EXIT();
2501:..\..\..\..\..\..\Software\uCOS-III\Source/os_task.c ****            *p_err = OS_ERR_SCHED_LOCKED;
2502:..\..\..\..\..\..\Software\uCOS-III\Source/os_task.c ****             return;
2503:..\..\..\..\..\..\Software\uCOS-III\Source/os_task.c ****         }
ARM GAS  C:\Users\EDULU~1.DES\AppData\Local\Temp\ccxcKTgR.s 			page 104


2504:..\..\..\..\..\..\Software\uCOS-III\Source/os_task.c ****     }
2505:..\..\..\..\..\..\Software\uCOS-III\Source/os_task.c **** 
2506:..\..\..\..\..\..\Software\uCOS-III\Source/os_task.c ****    *p_err = OS_ERR_NONE;
 2808              		.loc 1 2506 4 is_stmt 1 view .LVU913
 2809              		.loc 1 2506 11 is_stmt 0 view .LVU914
 2810 001c 0023     		movs	r3, #0
 2811 001e 3380     		strh	r3, [r6]
2507:..\..\..\..\..\..\Software\uCOS-III\Source/os_task.c ****     switch (p_tcb->TaskState) {
 2812              		.loc 1 2507 5 is_stmt 1 view .LVU915
 2813              		.loc 1 2507 18 is_stmt 0 view .LVU916
 2814 0020 3633     		adds	r3, r3, #54
 2815 0022 E35C     		ldrb	r3, [r4, r3]
 2816              		.loc 1 2507 5 view .LVU917
 2817 0024 072B     		cmp	r3, #7
 2818 0026 51D8     		bhi	.L195
 2819 0028 9B00     		lsls	r3, r3, #2
 2820 002a 2D4A     		ldr	r2, .L205+4
 2821 002c D358     		ldr	r3, [r2, r3]
 2822 002e 9F46     		mov	pc, r3
 2823              		.section	.rodata
 2824              		.align	2
 2825              	.L197:
 2826 0080 4E000000 		.word	.L201
 2827 0084 70000000 		.word	.L200
 2828 0088 88000000 		.word	.L199
 2829 008c A0000000 		.word	.L198
 2830 0090 B8000000 		.word	.L196
 2831 0094 B8000000 		.word	.L196
 2832 0098 B8000000 		.word	.L196
 2833 009c B8000000 		.word	.L196
 2834              		.section	.text.OS_TaskSuspend
 2835              	.L203:
2495:..\..\..\..\..\..\Software\uCOS-III\Source/os_task.c ****         p_tcb = OSTCBCurPtr;
 2836              		.loc 1 2495 9 is_stmt 1 view .LVU918
2495:..\..\..\..\..\..\Software\uCOS-III\Source/os_task.c ****         p_tcb = OSTCBCurPtr;
 2837              		.loc 1 2495 15 is_stmt 0 view .LVU919
 2838 0030 2A4B     		ldr	r3, .L205
 2839 0032 1C68     		ldr	r4, [r3]
 2840              	.LVL296:
2495:..\..\..\..\..\..\Software\uCOS-III\Source/os_task.c ****         p_tcb = OSTCBCurPtr;
 2841              		.loc 1 2495 15 view .LVU920
 2842 0034 EEE7     		b	.L192
 2843              	.L204:
2499:..\..\..\..\..\..\Software\uCOS-III\Source/os_task.c ****         if (OSSchedLockNestingCtr > (OS_NESTING_CTR)0) {    /* Can't suspend when the scheduler is 
 2844              		.loc 1 2499 9 is_stmt 1 view .LVU921
2499:..\..\..\..\..\..\Software\uCOS-III\Source/os_task.c ****         if (OSSchedLockNestingCtr > (OS_NESTING_CTR)0) {    /* Can't suspend when the scheduler is 
 2845              		.loc 1 2499 35 is_stmt 0 view .LVU922
 2846 0036 2B4B     		ldr	r3, .L205+8
 2847 0038 1B78     		ldrb	r3, [r3]
2499:..\..\..\..\..\..\Software\uCOS-III\Source/os_task.c ****         if (OSSchedLockNestingCtr > (OS_NESTING_CTR)0) {    /* Can't suspend when the scheduler is 
 2848              		.loc 1 2499 12 view .LVU923
 2849 003a 002B     		cmp	r3, #0
 2850 003c EED0     		beq	.L193
2500:..\..\..\..\..\..\Software\uCOS-III\Source/os_task.c ****            *p_err = OS_ERR_SCHED_LOCKED;
 2851              		.loc 1 2500 13 is_stmt 1 view .LVU924
2500:..\..\..\..\..\..\Software\uCOS-III\Source/os_task.c ****            *p_err = OS_ERR_SCHED_LOCKED;
 2852              		.loc 1 2500 13 view .LVU925
ARM GAS  C:\Users\EDULU~1.DES\AppData\Local\Temp\ccxcKTgR.s 			page 105


 2853 003e FFF7FEFF 		bl	CPU_IntDisMeasStop
 2854              	.LVL297:
2500:..\..\..\..\..\..\Software\uCOS-III\Source/os_task.c ****            *p_err = OS_ERR_SCHED_LOCKED;
 2855              		.loc 1 2500 13 view .LVU926
2500:..\..\..\..\..\..\Software\uCOS-III\Source/os_task.c ****            *p_err = OS_ERR_SCHED_LOCKED;
 2856              		.loc 1 2500 13 view .LVU927
 2857 0042 2800     		movs	r0, r5
 2858 0044 FFF7FEFF 		bl	CPU_SR_Restore
 2859              	.LVL298:
2501:..\..\..\..\..\..\Software\uCOS-III\Source/os_task.c ****             return;
 2860              		.loc 1 2501 12 view .LVU928
2501:..\..\..\..\..\..\Software\uCOS-III\Source/os_task.c ****             return;
 2861              		.loc 1 2501 19 is_stmt 0 view .LVU929
 2862 0048 274B     		ldr	r3, .L205+12
 2863 004a 3380     		strh	r3, [r6]
2502:..\..\..\..\..\..\Software\uCOS-III\Source/os_task.c ****         }
 2864              		.loc 1 2502 13 is_stmt 1 view .LVU930
 2865 004c 0FE0     		b	.L191
 2866              	.L201:
2508:..\..\..\..\..\..\Software\uCOS-III\Source/os_task.c ****         case OS_TASK_STATE_RDY:
2509:..\..\..\..\..\..\Software\uCOS-III\Source/os_task.c ****              OS_CRITICAL_ENTER_CPU_EXIT();
 2867              		.loc 1 2509 42 view .LVU931
2510:..\..\..\..\..\..\Software\uCOS-III\Source/os_task.c ****              p_tcb->TaskState  =  OS_TASK_STATE_SUSPENDED;
 2868              		.loc 1 2510 14 view .LVU932
 2869              		.loc 1 2510 32 is_stmt 0 view .LVU933
 2870 004e 3623     		movs	r3, #54
 2871 0050 0422     		movs	r2, #4
 2872 0052 E254     		strb	r2, [r4, r3]
2511:..\..\..\..\..\..\Software\uCOS-III\Source/os_task.c ****              p_tcb->SuspendCtr = (OS_NESTING_CTR)1;
 2873              		.loc 1 2511 14 is_stmt 1 view .LVU934
 2874              		.loc 1 2511 32 is_stmt 0 view .LVU935
 2875 0054 2A33     		adds	r3, r3, #42
 2876 0056 033A     		subs	r2, r2, #3
 2877 0058 E254     		strb	r2, [r4, r3]
2512:..\..\..\..\..\..\Software\uCOS-III\Source/os_task.c ****              OS_RdyListRemove(p_tcb);
 2878              		.loc 1 2512 14 is_stmt 1 view .LVU936
 2879 005a 2000     		movs	r0, r4
 2880 005c FFF7FEFF 		bl	OS_RdyListRemove
 2881              	.LVL299:
2513:..\..\..\..\..\..\Software\uCOS-III\Source/os_task.c ****              OS_CRITICAL_EXIT_NO_SCHED();
 2882              		.loc 1 2513 14 view .LVU937
 2883              		.loc 1 2513 14 view .LVU938
 2884 0060 FFF7FEFF 		bl	CPU_IntDisMeasStop
 2885              	.LVL300:
 2886              		.loc 1 2513 14 view .LVU939
 2887              		.loc 1 2513 14 view .LVU940
 2888 0064 2800     		movs	r0, r5
 2889 0066 FFF7FEFF 		bl	CPU_SR_Restore
 2890              	.LVL301:
2514:..\..\..\..\..\..\Software\uCOS-III\Source/os_task.c ****              break;
 2891              		.loc 1 2514 14 view .LVU941
 2892              	.L202:
2515:..\..\..\..\..\..\Software\uCOS-III\Source/os_task.c **** 
2516:..\..\..\..\..\..\Software\uCOS-III\Source/os_task.c ****         case OS_TASK_STATE_DLY:
2517:..\..\..\..\..\..\Software\uCOS-III\Source/os_task.c ****              p_tcb->TaskState  = OS_TASK_STATE_DLY_SUSPENDED;
2518:..\..\..\..\..\..\Software\uCOS-III\Source/os_task.c ****              p_tcb->SuspendCtr = (OS_NESTING_CTR)1;
2519:..\..\..\..\..\..\Software\uCOS-III\Source/os_task.c ****              CPU_CRITICAL_EXIT();
ARM GAS  C:\Users\EDULU~1.DES\AppData\Local\Temp\ccxcKTgR.s 			page 106


2520:..\..\..\..\..\..\Software\uCOS-III\Source/os_task.c ****              break;
2521:..\..\..\..\..\..\Software\uCOS-III\Source/os_task.c **** 
2522:..\..\..\..\..\..\Software\uCOS-III\Source/os_task.c ****         case OS_TASK_STATE_PEND:
2523:..\..\..\..\..\..\Software\uCOS-III\Source/os_task.c ****              p_tcb->TaskState  = OS_TASK_STATE_PEND_SUSPENDED;
2524:..\..\..\..\..\..\Software\uCOS-III\Source/os_task.c ****              p_tcb->SuspendCtr = (OS_NESTING_CTR)1;
2525:..\..\..\..\..\..\Software\uCOS-III\Source/os_task.c ****              CPU_CRITICAL_EXIT();
2526:..\..\..\..\..\..\Software\uCOS-III\Source/os_task.c ****              break;
2527:..\..\..\..\..\..\Software\uCOS-III\Source/os_task.c **** 
2528:..\..\..\..\..\..\Software\uCOS-III\Source/os_task.c ****         case OS_TASK_STATE_PEND_TIMEOUT:
2529:..\..\..\..\..\..\Software\uCOS-III\Source/os_task.c ****              p_tcb->TaskState  = OS_TASK_STATE_PEND_TIMEOUT_SUSPENDED;
2530:..\..\..\..\..\..\Software\uCOS-III\Source/os_task.c ****              p_tcb->SuspendCtr = (OS_NESTING_CTR)1;
2531:..\..\..\..\..\..\Software\uCOS-III\Source/os_task.c ****              CPU_CRITICAL_EXIT();
2532:..\..\..\..\..\..\Software\uCOS-III\Source/os_task.c ****              break;
2533:..\..\..\..\..\..\Software\uCOS-III\Source/os_task.c **** 
2534:..\..\..\..\..\..\Software\uCOS-III\Source/os_task.c ****         case OS_TASK_STATE_SUSPENDED:
2535:..\..\..\..\..\..\Software\uCOS-III\Source/os_task.c ****         case OS_TASK_STATE_DLY_SUSPENDED:
2536:..\..\..\..\..\..\Software\uCOS-III\Source/os_task.c ****         case OS_TASK_STATE_PEND_SUSPENDED:
2537:..\..\..\..\..\..\Software\uCOS-III\Source/os_task.c ****         case OS_TASK_STATE_PEND_TIMEOUT_SUSPENDED:
2538:..\..\..\..\..\..\Software\uCOS-III\Source/os_task.c ****              p_tcb->SuspendCtr++;
2539:..\..\..\..\..\..\Software\uCOS-III\Source/os_task.c ****              CPU_CRITICAL_EXIT();
2540:..\..\..\..\..\..\Software\uCOS-III\Source/os_task.c ****              break;
2541:..\..\..\..\..\..\Software\uCOS-III\Source/os_task.c **** 
2542:..\..\..\..\..\..\Software\uCOS-III\Source/os_task.c ****         default:
2543:..\..\..\..\..\..\Software\uCOS-III\Source/os_task.c ****              CPU_CRITICAL_EXIT();
2544:..\..\..\..\..\..\Software\uCOS-III\Source/os_task.c ****             *p_err = OS_ERR_STATE_INVALID;
2545:..\..\..\..\..\..\Software\uCOS-III\Source/os_task.c ****              return;
2546:..\..\..\..\..\..\Software\uCOS-III\Source/os_task.c ****     }
2547:..\..\..\..\..\..\Software\uCOS-III\Source/os_task.c **** 
2548:..\..\..\..\..\..\Software\uCOS-III\Source/os_task.c ****     OSSched();
 2893              		.loc 1 2548 5 view .LVU942
 2894 006a FFF7FEFF 		bl	OSSched
 2895              	.LVL302:
 2896              	.L191:
2549:..\..\..\..\..\..\Software\uCOS-III\Source/os_task.c **** }
 2897              		.loc 1 2549 1 is_stmt 0 view .LVU943
 2898              		@ sp needed
 2899              	.LVL303:
 2900              	.LVL304:
 2901              	.LVL305:
 2902              		.loc 1 2549 1 view .LVU944
 2903 006e 70BD     		pop	{r4, r5, r6, pc}
 2904              	.LVL306:
 2905              	.L200:
2517:..\..\..\..\..\..\Software\uCOS-III\Source/os_task.c ****              p_tcb->SuspendCtr = (OS_NESTING_CTR)1;
 2906              		.loc 1 2517 14 is_stmt 1 view .LVU945
2517:..\..\..\..\..\..\Software\uCOS-III\Source/os_task.c ****              p_tcb->SuspendCtr = (OS_NESTING_CTR)1;
 2907              		.loc 1 2517 32 is_stmt 0 view .LVU946
 2908 0070 3623     		movs	r3, #54
 2909 0072 0522     		movs	r2, #5
 2910 0074 E254     		strb	r2, [r4, r3]
2518:..\..\..\..\..\..\Software\uCOS-III\Source/os_task.c ****              CPU_CRITICAL_EXIT();
 2911              		.loc 1 2518 14 is_stmt 1 view .LVU947
2518:..\..\..\..\..\..\Software\uCOS-III\Source/os_task.c ****              CPU_CRITICAL_EXIT();
 2912              		.loc 1 2518 32 is_stmt 0 view .LVU948
 2913 0076 2A33     		adds	r3, r3, #42
 2914 0078 043A     		subs	r2, r2, #4
 2915 007a E254     		strb	r2, [r4, r3]
ARM GAS  C:\Users\EDULU~1.DES\AppData\Local\Temp\ccxcKTgR.s 			page 107


2519:..\..\..\..\..\..\Software\uCOS-III\Source/os_task.c ****              break;
 2916              		.loc 1 2519 14 is_stmt 1 view .LVU949
2519:..\..\..\..\..\..\Software\uCOS-III\Source/os_task.c ****              break;
 2917              		.loc 1 2519 14 view .LVU950
 2918 007c FFF7FEFF 		bl	CPU_IntDisMeasStop
 2919              	.LVL307:
2519:..\..\..\..\..\..\Software\uCOS-III\Source/os_task.c ****              break;
 2920              		.loc 1 2519 14 view .LVU951
2519:..\..\..\..\..\..\Software\uCOS-III\Source/os_task.c ****              break;
 2921              		.loc 1 2519 14 view .LVU952
 2922 0080 2800     		movs	r0, r5
 2923 0082 FFF7FEFF 		bl	CPU_SR_Restore
 2924              	.LVL308:
2520:..\..\..\..\..\..\Software\uCOS-III\Source/os_task.c **** 
 2925              		.loc 1 2520 14 view .LVU953
 2926 0086 F0E7     		b	.L202
 2927              	.L199:
2523:..\..\..\..\..\..\Software\uCOS-III\Source/os_task.c ****              p_tcb->SuspendCtr = (OS_NESTING_CTR)1;
 2928              		.loc 1 2523 14 view .LVU954
2523:..\..\..\..\..\..\Software\uCOS-III\Source/os_task.c ****              p_tcb->SuspendCtr = (OS_NESTING_CTR)1;
 2929              		.loc 1 2523 32 is_stmt 0 view .LVU955
 2930 0088 3623     		movs	r3, #54
 2931 008a 0622     		movs	r2, #6
 2932 008c E254     		strb	r2, [r4, r3]
2524:..\..\..\..\..\..\Software\uCOS-III\Source/os_task.c ****              CPU_CRITICAL_EXIT();
 2933              		.loc 1 2524 14 is_stmt 1 view .LVU956
2524:..\..\..\..\..\..\Software\uCOS-III\Source/os_task.c ****              CPU_CRITICAL_EXIT();
 2934              		.loc 1 2524 32 is_stmt 0 view .LVU957
 2935 008e 2A33     		adds	r3, r3, #42
 2936 0090 053A     		subs	r2, r2, #5
 2937 0092 E254     		strb	r2, [r4, r3]
2525:..\..\..\..\..\..\Software\uCOS-III\Source/os_task.c ****              break;
 2938              		.loc 1 2525 14 is_stmt 1 view .LVU958
2525:..\..\..\..\..\..\Software\uCOS-III\Source/os_task.c ****              break;
 2939              		.loc 1 2525 14 view .LVU959
 2940 0094 FFF7FEFF 		bl	CPU_IntDisMeasStop
 2941              	.LVL309:
2525:..\..\..\..\..\..\Software\uCOS-III\Source/os_task.c ****              break;
 2942              		.loc 1 2525 14 view .LVU960
2525:..\..\..\..\..\..\Software\uCOS-III\Source/os_task.c ****              break;
 2943              		.loc 1 2525 14 view .LVU961
 2944 0098 2800     		movs	r0, r5
 2945 009a FFF7FEFF 		bl	CPU_SR_Restore
 2946              	.LVL310:
2526:..\..\..\..\..\..\Software\uCOS-III\Source/os_task.c **** 
 2947              		.loc 1 2526 14 view .LVU962
 2948 009e E4E7     		b	.L202
 2949              	.L198:
2529:..\..\..\..\..\..\Software\uCOS-III\Source/os_task.c ****              p_tcb->SuspendCtr = (OS_NESTING_CTR)1;
 2950              		.loc 1 2529 14 view .LVU963
2529:..\..\..\..\..\..\Software\uCOS-III\Source/os_task.c ****              p_tcb->SuspendCtr = (OS_NESTING_CTR)1;
 2951              		.loc 1 2529 32 is_stmt 0 view .LVU964
 2952 00a0 3623     		movs	r3, #54
 2953 00a2 0722     		movs	r2, #7
 2954 00a4 E254     		strb	r2, [r4, r3]
2530:..\..\..\..\..\..\Software\uCOS-III\Source/os_task.c ****              CPU_CRITICAL_EXIT();
 2955              		.loc 1 2530 14 is_stmt 1 view .LVU965
ARM GAS  C:\Users\EDULU~1.DES\AppData\Local\Temp\ccxcKTgR.s 			page 108


2530:..\..\..\..\..\..\Software\uCOS-III\Source/os_task.c ****              CPU_CRITICAL_EXIT();
 2956              		.loc 1 2530 32 is_stmt 0 view .LVU966
 2957 00a6 2A33     		adds	r3, r3, #42
 2958 00a8 063A     		subs	r2, r2, #6
 2959 00aa E254     		strb	r2, [r4, r3]
2531:..\..\..\..\..\..\Software\uCOS-III\Source/os_task.c ****              break;
 2960              		.loc 1 2531 14 is_stmt 1 view .LVU967
2531:..\..\..\..\..\..\Software\uCOS-III\Source/os_task.c ****              break;
 2961              		.loc 1 2531 14 view .LVU968
 2962 00ac FFF7FEFF 		bl	CPU_IntDisMeasStop
 2963              	.LVL311:
2531:..\..\..\..\..\..\Software\uCOS-III\Source/os_task.c ****              break;
 2964              		.loc 1 2531 14 view .LVU969
2531:..\..\..\..\..\..\Software\uCOS-III\Source/os_task.c ****              break;
 2965              		.loc 1 2531 14 view .LVU970
 2966 00b0 2800     		movs	r0, r5
 2967 00b2 FFF7FEFF 		bl	CPU_SR_Restore
 2968              	.LVL312:
2532:..\..\..\..\..\..\Software\uCOS-III\Source/os_task.c **** 
 2969              		.loc 1 2532 14 view .LVU971
 2970 00b6 D8E7     		b	.L202
 2971              	.L196:
2538:..\..\..\..\..\..\Software\uCOS-III\Source/os_task.c ****              CPU_CRITICAL_EXIT();
 2972              		.loc 1 2538 14 view .LVU972
2538:..\..\..\..\..\..\Software\uCOS-III\Source/os_task.c ****              CPU_CRITICAL_EXIT();
 2973              		.loc 1 2538 19 is_stmt 0 view .LVU973
 2974 00b8 6022     		movs	r2, #96
 2975 00ba A35C     		ldrb	r3, [r4, r2]
2538:..\..\..\..\..\..\Software\uCOS-III\Source/os_task.c ****              CPU_CRITICAL_EXIT();
 2976              		.loc 1 2538 31 view .LVU974
 2977 00bc 0133     		adds	r3, r3, #1
 2978 00be A354     		strb	r3, [r4, r2]
2539:..\..\..\..\..\..\Software\uCOS-III\Source/os_task.c ****              break;
 2979              		.loc 1 2539 14 is_stmt 1 view .LVU975
2539:..\..\..\..\..\..\Software\uCOS-III\Source/os_task.c ****              break;
 2980              		.loc 1 2539 14 view .LVU976
 2981 00c0 FFF7FEFF 		bl	CPU_IntDisMeasStop
 2982              	.LVL313:
2539:..\..\..\..\..\..\Software\uCOS-III\Source/os_task.c ****              break;
 2983              		.loc 1 2539 14 view .LVU977
2539:..\..\..\..\..\..\Software\uCOS-III\Source/os_task.c ****              break;
 2984              		.loc 1 2539 14 view .LVU978
 2985 00c4 2800     		movs	r0, r5
 2986 00c6 FFF7FEFF 		bl	CPU_SR_Restore
 2987              	.LVL314:
2540:..\..\..\..\..\..\Software\uCOS-III\Source/os_task.c **** 
 2988              		.loc 1 2540 14 view .LVU979
 2989 00ca CEE7     		b	.L202
 2990              	.L195:
2543:..\..\..\..\..\..\Software\uCOS-III\Source/os_task.c ****             *p_err = OS_ERR_STATE_INVALID;
 2991              		.loc 1 2543 14 view .LVU980
2543:..\..\..\..\..\..\Software\uCOS-III\Source/os_task.c ****             *p_err = OS_ERR_STATE_INVALID;
 2992              		.loc 1 2543 14 view .LVU981
 2993 00cc FFF7FEFF 		bl	CPU_IntDisMeasStop
 2994              	.LVL315:
2543:..\..\..\..\..\..\Software\uCOS-III\Source/os_task.c ****             *p_err = OS_ERR_STATE_INVALID;
 2995              		.loc 1 2543 14 view .LVU982
ARM GAS  C:\Users\EDULU~1.DES\AppData\Local\Temp\ccxcKTgR.s 			page 109


2543:..\..\..\..\..\..\Software\uCOS-III\Source/os_task.c ****             *p_err = OS_ERR_STATE_INVALID;
 2996              		.loc 1 2543 14 view .LVU983
 2997 00d0 2800     		movs	r0, r5
 2998 00d2 FFF7FEFF 		bl	CPU_SR_Restore
 2999              	.LVL316:
2544:..\..\..\..\..\..\Software\uCOS-III\Source/os_task.c ****              return;
 3000              		.loc 1 2544 13 view .LVU984
2544:..\..\..\..\..\..\Software\uCOS-III\Source/os_task.c ****              return;
 3001              		.loc 1 2544 20 is_stmt 0 view .LVU985
 3002 00d6 054B     		ldr	r3, .L205+16
 3003 00d8 3380     		strh	r3, [r6]
2545:..\..\..\..\..\..\Software\uCOS-III\Source/os_task.c ****     }
 3004              		.loc 1 2545 14 is_stmt 1 view .LVU986
 3005 00da C8E7     		b	.L191
 3006              	.L206:
 3007              		.align	2
 3008              	.L205:
 3009 00dc 00000000 		.word	OSTCBCurPtr
 3010 00e0 80000000 		.word	.L197
 3011 00e4 00000000 		.word	OSSchedLockNestingCtr
 3012 00e8 636D0000 		.word	28003
 3013 00ec 2D6E0000 		.word	28205
 3014              		.cfi_endproc
 3015              	.LFE21:
 3016              		.size	OS_TaskSuspend, .-OS_TaskSuspend
 3017              		.section	.text.OSTaskSuspend,"ax",%progbits
 3018              		.align	1
 3019              		.global	OSTaskSuspend
 3020              		.syntax unified
 3021              		.code	16
 3022              		.thumb_func
 3023              		.fpu softvfp
 3024              		.type	OSTaskSuspend, %function
 3025              	OSTaskSuspend:
 3026              	.LVL317:
 3027              	.LFB13:
1740:..\..\..\..\..\..\Software\uCOS-III\Source/os_task.c **** #ifdef OS_SAFETY_CRITICAL
 3028              		.loc 1 1740 1 view -0
 3029              		.cfi_startproc
 3030              		@ args = 0, pretend = 0, frame = 0
 3031              		@ frame_needed = 0, uses_anonymous_args = 0
1740:..\..\..\..\..\..\Software\uCOS-III\Source/os_task.c **** #ifdef OS_SAFETY_CRITICAL
 3032              		.loc 1 1740 1 is_stmt 0 view .LVU988
 3033 0000 10B5     		push	{r4, lr}
 3034              		.cfi_def_cfa_offset 8
 3035              		.cfi_offset 4, -8
 3036              		.cfi_offset 14, -4
1750:..\..\..\..\..\..\Software\uCOS-III\Source/os_task.c ****        *p_err = OS_ERR_TASK_SUSPEND_ISR;
 3037              		.loc 1 1750 5 is_stmt 1 view .LVU989
1750:..\..\..\..\..\..\Software\uCOS-III\Source/os_task.c ****        *p_err = OS_ERR_TASK_SUSPEND_ISR;
 3038              		.loc 1 1750 25 is_stmt 0 view .LVU990
 3039 0002 084B     		ldr	r3, .L213
 3040 0004 1B78     		ldrb	r3, [r3]
1750:..\..\..\..\..\..\Software\uCOS-III\Source/os_task.c ****        *p_err = OS_ERR_TASK_SUSPEND_ISR;
 3041              		.loc 1 1750 8 view .LVU991
 3042 0006 002B     		cmp	r3, #0
 3043 0008 05D1     		bne	.L211
ARM GAS  C:\Users\EDULU~1.DES\AppData\Local\Temp\ccxcKTgR.s 			page 110


1756:..\..\..\..\..\..\Software\uCOS-III\Source/os_task.c ****        *p_err = OS_ERR_TASK_SUSPEND_IDLE;
 3044              		.loc 1 1756 5 is_stmt 1 view .LVU992
1756:..\..\..\..\..\..\Software\uCOS-III\Source/os_task.c ****        *p_err = OS_ERR_TASK_SUSPEND_IDLE;
 3045              		.loc 1 1756 8 is_stmt 0 view .LVU993
 3046 000a 074B     		ldr	r3, .L213+4
 3047 000c 9842     		cmp	r0, r3
 3048 000e 05D0     		beq	.L212
1780:..\..\..\..\..\..\Software\uCOS-III\Source/os_task.c **** }
 3049              		.loc 1 1780 5 is_stmt 1 view .LVU994
 3050 0010 FFF7FEFF 		bl	OS_TaskSuspend
 3051              	.LVL318:
 3052              	.L207:
1781:..\..\..\..\..\..\Software\uCOS-III\Source/os_task.c **** #endif
 3053              		.loc 1 1781 1 is_stmt 0 view .LVU995
 3054              		@ sp needed
 3055 0014 10BD     		pop	{r4, pc}
 3056              	.LVL319:
 3057              	.L211:
1751:..\..\..\..\..\..\Software\uCOS-III\Source/os_task.c ****         return;
 3058              		.loc 1 1751 8 is_stmt 1 view .LVU996
1751:..\..\..\..\..\..\Software\uCOS-III\Source/os_task.c ****         return;
 3059              		.loc 1 1751 15 is_stmt 0 view .LVU997
 3060 0016 054B     		ldr	r3, .L213+8
 3061 0018 0B80     		strh	r3, [r1]
1752:..\..\..\..\..\..\Software\uCOS-III\Source/os_task.c ****     }
 3062              		.loc 1 1752 9 is_stmt 1 view .LVU998
 3063 001a FBE7     		b	.L207
 3064              	.L212:
1757:..\..\..\..\..\..\Software\uCOS-III\Source/os_task.c ****         return;
 3065              		.loc 1 1757 8 view .LVU999
1757:..\..\..\..\..\..\Software\uCOS-III\Source/os_task.c ****         return;
 3066              		.loc 1 1757 15 is_stmt 0 view .LVU1000
 3067 001c 044B     		ldr	r3, .L213+12
 3068 001e 0B80     		strh	r3, [r1]
1758:..\..\..\..\..\..\Software\uCOS-III\Source/os_task.c ****     }
 3069              		.loc 1 1758 9 is_stmt 1 view .LVU1001
 3070 0020 F8E7     		b	.L207
 3071              	.L214:
 3072 0022 C046     		.align	2
 3073              	.L213:
 3074 0024 00000000 		.word	OSIntNestingCtr
 3075 0028 00000000 		.word	OSIdleTaskTCB
 3076 002c 5D710000 		.word	29021
 3077 0030 5B710000 		.word	29019
 3078              		.cfi_endproc
 3079              	.LFE13:
 3080              		.size	OSTaskSuspend, .-OSTaskSuspend
 3081              		.section	.rodata.str1.4,"aMS",%progbits,1
 3082              		.align	2
 3083              	.LC19:
 3084 0000 3F546173 		.ascii	"?Task\000"
 3084      6B00
 3085 0006 0000     		.space	2
 3086              	.LC21:
 3087 0008 2000     		.ascii	" \000"
 3088              		.text
 3089              	.Letext0:
ARM GAS  C:\Users\EDULU~1.DES\AppData\Local\Temp\ccxcKTgR.s 			page 111


 3090              		.file 2 "..\\..\\..\\..\\..\\..\\Software\\uC-CPU\\ARM-Cortex-M0\\GNU/cpu.h"
 3091              		.file 3 "c:\\program files (x86)\\gnu tools arm embedded\\8 2018-q4-major\\arm-none-eabi\\include\
 3092              		.file 4 "c:\\program files (x86)\\gnu tools arm embedded\\8 2018-q4-major\\arm-none-eabi\\include\
 3093              		.file 5 "c:\\program files (x86)\\gnu tools arm embedded\\8 2018-q4-major\\lib\\gcc\\arm-none-eabi
 3094              		.file 6 "c:\\program files (x86)\\gnu tools arm embedded\\8 2018-q4-major\\arm-none-eabi\\include\
 3095              		.file 7 "..\\..\\..\\..\\..\\..\\Software\\uC-CPU/cpu_core.h"
 3096              		.file 8 "..\\..\\..\\..\\..\\..\\Software\\uCOS-III\\Source/os_type.h"
 3097              		.file 9 "..\\..\\..\\..\\..\\..\\Software\\uCOS-III\\Ports\\ARM-Cortex-M0\\Generic\\GNU/os_cpu.h"
 3098              		.file 10 "..\\..\\..\\..\\..\\..\\Software\\uCOS-III\\Source/os.h"
 3099              		.section	.debug_info,"",%progbits
 3100              	.Ldebug_info0:
 3101 0000 D92B0000 		.4byte	0x2bd9
 3102 0004 0400     		.2byte	0x4
 3103 0006 00000000 		.4byte	.Ldebug_abbrev0
 3104 000a 04       		.byte	0x4
 3105 000b 01       		.uleb128 0x1
 3106 000c E5160000 		.4byte	.LASF556
 3107 0010 0C       		.byte	0xc
 3108 0011 10000000 		.4byte	.LASF557
 3109 0015 6B0C0000 		.4byte	.LASF558
 3110 0019 00000000 		.4byte	.Ldebug_ranges0+0
 3111 001d 00000000 		.4byte	0
 3112 0021 00000000 		.4byte	.Ldebug_line0
 3113 0025 02       		.uleb128 0x2
 3114 0026 73010000 		.4byte	.LASF0
 3115 002a 02       		.byte	0x2
 3116 002b 7C       		.byte	0x7c
 3117 002c 20       		.byte	0x20
 3118 002d 31000000 		.4byte	0x31
 3119 0031 03       		.uleb128 0x3
 3120 0032 01       		.byte	0x1
 3121 0033 08       		.byte	0x8
 3122 0034 11080000 		.4byte	.LASF2
 3123 0038 04       		.uleb128 0x4
 3124 0039 31000000 		.4byte	0x31
 3125 003d 02       		.uleb128 0x2
 3126 003e B2000000 		.4byte	.LASF1
 3127 0042 02       		.byte	0x2
 3128 0043 7D       		.byte	0x7d
 3129 0044 20       		.byte	0x20
 3130 0045 49000000 		.4byte	0x49
 3131 0049 03       		.uleb128 0x3
 3132 004a 01       		.byte	0x1
 3133 004b 08       		.byte	0x8
 3134 004c DD060000 		.4byte	.LASF3
 3135 0050 02       		.uleb128 0x2
 3136 0051 061D0000 		.4byte	.LASF4
 3137 0055 02       		.byte	0x2
 3138 0056 7E       		.byte	0x7e
 3139 0057 20       		.byte	0x20
 3140 0058 49000000 		.4byte	0x49
 3141 005c 03       		.uleb128 0x3
 3142 005d 01       		.byte	0x1
 3143 005e 06       		.byte	0x6
 3144 005f FC050000 		.4byte	.LASF5
 3145 0063 02       		.uleb128 0x2
 3146 0064 B4010000 		.4byte	.LASF6
ARM GAS  C:\Users\EDULU~1.DES\AppData\Local\Temp\ccxcKTgR.s 			page 112


 3147 0068 02       		.byte	0x2
 3148 0069 80       		.byte	0x80
 3149 006a 20       		.byte	0x20
 3150 006b 6F000000 		.4byte	0x6f
 3151 006f 03       		.uleb128 0x3
 3152 0070 02       		.byte	0x2
 3153 0071 07       		.byte	0x7
 3154 0072 301E0000 		.4byte	.LASF7
 3155 0076 03       		.uleb128 0x3
 3156 0077 02       		.byte	0x2
 3157 0078 05       		.byte	0x5
 3158 0079 B41A0000 		.4byte	.LASF8
 3159 007d 02       		.uleb128 0x2
 3160 007e 83090000 		.4byte	.LASF9
 3161 0082 02       		.byte	0x2
 3162 0083 82       		.byte	0x82
 3163 0084 20       		.byte	0x20
 3164 0085 8E000000 		.4byte	0x8e
 3165 0089 04       		.uleb128 0x4
 3166 008a 7D000000 		.4byte	0x7d
 3167 008e 03       		.uleb128 0x3
 3168 008f 04       		.byte	0x4
 3169 0090 07       		.byte	0x7
 3170 0091 E1110000 		.4byte	.LASF10
 3171 0095 05       		.uleb128 0x5
 3172 0096 04       		.byte	0x4
 3173 0097 05       		.byte	0x5
 3174 0098 696E7400 		.ascii	"int\000"
 3175 009c 03       		.uleb128 0x3
 3176 009d 08       		.byte	0x8
 3177 009e 07       		.byte	0x7
 3178 009f 89150000 		.4byte	.LASF11
 3179 00a3 03       		.uleb128 0x3
 3180 00a4 08       		.byte	0x8
 3181 00a5 05       		.byte	0x5
 3182 00a6 BE0F0000 		.4byte	.LASF12
 3183 00aa 03       		.uleb128 0x3
 3184 00ab 04       		.byte	0x4
 3185 00ac 04       		.byte	0x4
 3186 00ad 4A110000 		.4byte	.LASF13
 3187 00b1 03       		.uleb128 0x3
 3188 00b2 08       		.byte	0x8
 3189 00b3 04       		.byte	0x4
 3190 00b4 43100000 		.4byte	.LASF14
 3191 00b8 06       		.uleb128 0x6
 3192 00b9 04       		.byte	0x4
 3193 00ba BE000000 		.4byte	0xbe
 3194 00be 07       		.uleb128 0x7
 3195 00bf 06       		.uleb128 0x6
 3196 00c0 04       		.byte	0x4
 3197 00c1 C5000000 		.4byte	0xc5
 3198 00c5 08       		.uleb128 0x8
 3199 00c6 D0000000 		.4byte	0xd0
 3200 00ca 09       		.uleb128 0x9
 3201 00cb D0000000 		.4byte	0xd0
 3202 00cf 00       		.byte	0
 3203 00d0 0A       		.uleb128 0xa
ARM GAS  C:\Users\EDULU~1.DES\AppData\Local\Temp\ccxcKTgR.s 			page 113


 3204 00d1 04       		.byte	0x4
 3205 00d2 02       		.uleb128 0x2
 3206 00d3 080A0000 		.4byte	.LASF15
 3207 00d7 02       		.byte	0x2
 3208 00d8 BA       		.byte	0xba
 3209 00d9 16       		.byte	0x16
 3210 00da 7D000000 		.4byte	0x7d
 3211 00de 02       		.uleb128 0x2
 3212 00df 86180000 		.4byte	.LASF16
 3213 00e3 02       		.byte	0x2
 3214 00e4 C3       		.byte	0xc3
 3215 00e5 16       		.byte	0x16
 3216 00e6 7D000000 		.4byte	0x7d
 3217 00ea 02       		.uleb128 0x2
 3218 00eb C9020000 		.4byte	.LASF17
 3219 00ef 02       		.byte	0x2
 3220 00f0 E5       		.byte	0xe5
 3221 00f1 23       		.byte	0x23
 3222 00f2 7D000000 		.4byte	0x7d
 3223 00f6 02       		.uleb128 0x2
 3224 00f7 83110000 		.4byte	.LASF18
 3225 00fb 02       		.byte	0x2
 3226 00fc E6       		.byte	0xe6
 3227 00fd 23       		.byte	0x23
 3228 00fe D2000000 		.4byte	0xd2
 3229 0102 04       		.uleb128 0x4
 3230 0103 F6000000 		.4byte	0xf6
 3231 0107 0B       		.uleb128 0xb
 3232 0108 FE040000 		.4byte	.LASF19
 3233 010c 02       		.byte	0x2
 3234 010d 3301     		.2byte	0x133
 3235 010f 25       		.byte	0x25
 3236 0110 7D000000 		.4byte	0x7d
 3237 0114 03       		.uleb128 0x3
 3238 0115 04       		.byte	0x4
 3239 0116 05       		.byte	0x5
 3240 0117 8B040000 		.4byte	.LASF20
 3241 011b 03       		.uleb128 0x3
 3242 011c 04       		.byte	0x4
 3243 011d 07       		.byte	0x7
 3244 011e 6B0D0000 		.4byte	.LASF21
 3245 0122 03       		.uleb128 0x3
 3246 0123 08       		.byte	0x8
 3247 0124 04       		.byte	0x4
 3248 0125 0E140000 		.4byte	.LASF22
 3249 0129 02       		.uleb128 0x2
 3250 012a 351C0000 		.4byte	.LASF23
 3251 012e 03       		.byte	0x3
 3252 012f 22       		.byte	0x22
 3253 0130 19       		.byte	0x19
 3254 0131 35010000 		.4byte	0x135
 3255 0135 06       		.uleb128 0x6
 3256 0136 04       		.byte	0x4
 3257 0137 3B010000 		.4byte	0x13b
 3258 013b 0C       		.uleb128 0xc
 3259 013c 890B0000 		.4byte	.LASF129
 3260 0140 02       		.uleb128 0x2
ARM GAS  C:\Users\EDULU~1.DES\AppData\Local\Temp\ccxcKTgR.s 			page 114


 3261 0141 C41D0000 		.4byte	.LASF24
 3262 0145 04       		.byte	0x4
 3263 0146 2C       		.byte	0x2c
 3264 0147 0E       		.byte	0xe
 3265 0148 14010000 		.4byte	0x114
 3266 014c 02       		.uleb128 0x2
 3267 014d C9140000 		.4byte	.LASF25
 3268 0151 04       		.byte	0x4
 3269 0152 72       		.byte	0x72
 3270 0153 0E       		.byte	0xe
 3271 0154 14010000 		.4byte	0x114
 3272 0158 0B       		.uleb128 0xb
 3273 0159 02190000 		.4byte	.LASF26
 3274 015d 05       		.byte	0x5
 3275 015e 6501     		.2byte	0x165
 3276 0160 17       		.byte	0x17
 3277 0161 8E000000 		.4byte	0x8e
 3278 0165 0D       		.uleb128 0xd
 3279 0166 04       		.byte	0x4
 3280 0167 04       		.byte	0x4
 3281 0168 A6       		.byte	0xa6
 3282 0169 03       		.byte	0x3
 3283 016a 87010000 		.4byte	0x187
 3284 016e 0E       		.uleb128 0xe
 3285 016f B2030000 		.4byte	.LASF27
 3286 0173 04       		.byte	0x4
 3287 0174 A8       		.byte	0xa8
 3288 0175 0C       		.byte	0xc
 3289 0176 58010000 		.4byte	0x158
 3290 017a 0E       		.uleb128 0xe
 3291 017b E7140000 		.4byte	.LASF28
 3292 017f 04       		.byte	0x4
 3293 0180 A9       		.byte	0xa9
 3294 0181 13       		.byte	0x13
 3295 0182 87010000 		.4byte	0x187
 3296 0186 00       		.byte	0
 3297 0187 0F       		.uleb128 0xf
 3298 0188 49000000 		.4byte	0x49
 3299 018c 97010000 		.4byte	0x197
 3300 0190 10       		.uleb128 0x10
 3301 0191 8E000000 		.4byte	0x8e
 3302 0195 03       		.byte	0x3
 3303 0196 00       		.byte	0
 3304 0197 11       		.uleb128 0x11
 3305 0198 08       		.byte	0x8
 3306 0199 04       		.byte	0x4
 3307 019a A3       		.byte	0xa3
 3308 019b 09       		.byte	0x9
 3309 019c BB010000 		.4byte	0x1bb
 3310 01a0 12       		.uleb128 0x12
 3311 01a1 58130000 		.4byte	.LASF29
 3312 01a5 04       		.byte	0x4
 3313 01a6 A5       		.byte	0xa5
 3314 01a7 07       		.byte	0x7
 3315 01a8 95000000 		.4byte	0x95
 3316 01ac 00       		.byte	0
 3317 01ad 12       		.uleb128 0x12
ARM GAS  C:\Users\EDULU~1.DES\AppData\Local\Temp\ccxcKTgR.s 			page 115


 3318 01ae AA000000 		.4byte	.LASF30
 3319 01b2 04       		.byte	0x4
 3320 01b3 AA       		.byte	0xaa
 3321 01b4 05       		.byte	0x5
 3322 01b5 65010000 		.4byte	0x165
 3323 01b9 04       		.byte	0x4
 3324 01ba 00       		.byte	0
 3325 01bb 02       		.uleb128 0x2
 3326 01bc 8F180000 		.4byte	.LASF31
 3327 01c0 04       		.byte	0x4
 3328 01c1 AB       		.byte	0xab
 3329 01c2 03       		.byte	0x3
 3330 01c3 97010000 		.4byte	0x197
 3331 01c7 02       		.uleb128 0x2
 3332 01c8 3A180000 		.4byte	.LASF32
 3333 01cc 04       		.byte	0x4
 3334 01cd AF       		.byte	0xaf
 3335 01ce 1B       		.byte	0x1b
 3336 01cf 29010000 		.4byte	0x129
 3337 01d3 02       		.uleb128 0x2
 3338 01d4 FE1C0000 		.4byte	.LASF33
 3339 01d8 06       		.byte	0x6
 3340 01d9 16       		.byte	0x16
 3341 01da 19       		.byte	0x19
 3342 01db 1B010000 		.4byte	0x11b
 3343 01df 13       		.uleb128 0x13
 3344 01e0 ED0E0000 		.4byte	.LASF38
 3345 01e4 18       		.byte	0x18
 3346 01e5 06       		.byte	0x6
 3347 01e6 2F       		.byte	0x2f
 3348 01e7 08       		.byte	0x8
 3349 01e8 39020000 		.4byte	0x239
 3350 01ec 12       		.uleb128 0x12
 3351 01ed 1B190000 		.4byte	.LASF34
 3352 01f1 06       		.byte	0x6
 3353 01f2 31       		.byte	0x31
 3354 01f3 13       		.byte	0x13
 3355 01f4 39020000 		.4byte	0x239
 3356 01f8 00       		.byte	0
 3357 01f9 14       		.uleb128 0x14
 3358 01fa 5F6B00   		.ascii	"_k\000"
 3359 01fd 06       		.byte	0x6
 3360 01fe 32       		.byte	0x32
 3361 01ff 07       		.byte	0x7
 3362 0200 95000000 		.4byte	0x95
 3363 0204 04       		.byte	0x4
 3364 0205 12       		.uleb128 0x12
 3365 0206 260F0000 		.4byte	.LASF35
 3366 020a 06       		.byte	0x6
 3367 020b 32       		.byte	0x32
 3368 020c 0B       		.byte	0xb
 3369 020d 95000000 		.4byte	0x95
 3370 0211 08       		.byte	0x8
 3371 0212 12       		.uleb128 0x12
 3372 0213 1A110000 		.4byte	.LASF36
 3373 0217 06       		.byte	0x6
 3374 0218 32       		.byte	0x32
ARM GAS  C:\Users\EDULU~1.DES\AppData\Local\Temp\ccxcKTgR.s 			page 116


 3375 0219 14       		.byte	0x14
 3376 021a 95000000 		.4byte	0x95
 3377 021e 0C       		.byte	0xc
 3378 021f 12       		.uleb128 0x12
 3379 0220 670B0000 		.4byte	.LASF37
 3380 0224 06       		.byte	0x6
 3381 0225 32       		.byte	0x32
 3382 0226 1B       		.byte	0x1b
 3383 0227 95000000 		.4byte	0x95
 3384 022b 10       		.byte	0x10
 3385 022c 14       		.uleb128 0x14
 3386 022d 5F7800   		.ascii	"_x\000"
 3387 0230 06       		.byte	0x6
 3388 0231 33       		.byte	0x33
 3389 0232 0B       		.byte	0xb
 3390 0233 3F020000 		.4byte	0x23f
 3391 0237 14       		.byte	0x14
 3392 0238 00       		.byte	0
 3393 0239 06       		.uleb128 0x6
 3394 023a 04       		.byte	0x4
 3395 023b DF010000 		.4byte	0x1df
 3396 023f 0F       		.uleb128 0xf
 3397 0240 D3010000 		.4byte	0x1d3
 3398 0244 4F020000 		.4byte	0x24f
 3399 0248 10       		.uleb128 0x10
 3400 0249 8E000000 		.4byte	0x8e
 3401 024d 00       		.byte	0
 3402 024e 00       		.byte	0
 3403 024f 13       		.uleb128 0x13
 3404 0250 0C020000 		.4byte	.LASF39
 3405 0254 24       		.byte	0x24
 3406 0255 06       		.byte	0x6
 3407 0256 37       		.byte	0x37
 3408 0257 08       		.byte	0x8
 3409 0258 D2020000 		.4byte	0x2d2
 3410 025c 12       		.uleb128 0x12
 3411 025d 28020000 		.4byte	.LASF40
 3412 0261 06       		.byte	0x6
 3413 0262 39       		.byte	0x39
 3414 0263 09       		.byte	0x9
 3415 0264 95000000 		.4byte	0x95
 3416 0268 00       		.byte	0
 3417 0269 12       		.uleb128 0x12
 3418 026a BC1F0000 		.4byte	.LASF41
 3419 026e 06       		.byte	0x6
 3420 026f 3A       		.byte	0x3a
 3421 0270 09       		.byte	0x9
 3422 0271 95000000 		.4byte	0x95
 3423 0275 04       		.byte	0x4
 3424 0276 12       		.uleb128 0x12
 3425 0277 431E0000 		.4byte	.LASF42
 3426 027b 06       		.byte	0x6
 3427 027c 3B       		.byte	0x3b
 3428 027d 09       		.byte	0x9
 3429 027e 95000000 		.4byte	0x95
 3430 0282 08       		.byte	0x8
 3431 0283 12       		.uleb128 0x12
ARM GAS  C:\Users\EDULU~1.DES\AppData\Local\Temp\ccxcKTgR.s 			page 117


 3432 0284 5F120000 		.4byte	.LASF43
 3433 0288 06       		.byte	0x6
 3434 0289 3C       		.byte	0x3c
 3435 028a 09       		.byte	0x9
 3436 028b 95000000 		.4byte	0x95
 3437 028f 0C       		.byte	0xc
 3438 0290 12       		.uleb128 0x12
 3439 0291 3D050000 		.4byte	.LASF44
 3440 0295 06       		.byte	0x6
 3441 0296 3D       		.byte	0x3d
 3442 0297 09       		.byte	0x9
 3443 0298 95000000 		.4byte	0x95
 3444 029c 10       		.byte	0x10
 3445 029d 12       		.uleb128 0x12
 3446 029e 3A1B0000 		.4byte	.LASF45
 3447 02a2 06       		.byte	0x6
 3448 02a3 3E       		.byte	0x3e
 3449 02a4 09       		.byte	0x9
 3450 02a5 95000000 		.4byte	0x95
 3451 02a9 14       		.byte	0x14
 3452 02aa 12       		.uleb128 0x12
 3453 02ab D4130000 		.4byte	.LASF46
 3454 02af 06       		.byte	0x6
 3455 02b0 3F       		.byte	0x3f
 3456 02b1 09       		.byte	0x9
 3457 02b2 95000000 		.4byte	0x95
 3458 02b6 18       		.byte	0x18
 3459 02b7 12       		.uleb128 0x12
 3460 02b8 1A140000 		.4byte	.LASF47
 3461 02bc 06       		.byte	0x6
 3462 02bd 40       		.byte	0x40
 3463 02be 09       		.byte	0x9
 3464 02bf 95000000 		.4byte	0x95
 3465 02c3 1C       		.byte	0x1c
 3466 02c4 12       		.uleb128 0x12
 3467 02c5 811F0000 		.4byte	.LASF48
 3468 02c9 06       		.byte	0x6
 3469 02ca 41       		.byte	0x41
 3470 02cb 09       		.byte	0x9
 3471 02cc 95000000 		.4byte	0x95
 3472 02d0 20       		.byte	0x20
 3473 02d1 00       		.byte	0
 3474 02d2 15       		.uleb128 0x15
 3475 02d3 23040000 		.4byte	.LASF49
 3476 02d7 0801     		.2byte	0x108
 3477 02d9 06       		.byte	0x6
 3478 02da 4A       		.byte	0x4a
 3479 02db 08       		.byte	0x8
 3480 02dc 17030000 		.4byte	0x317
 3481 02e0 12       		.uleb128 0x12
 3482 02e1 701F0000 		.4byte	.LASF50
 3483 02e5 06       		.byte	0x6
 3484 02e6 4B       		.byte	0x4b
 3485 02e7 0A       		.byte	0xa
 3486 02e8 17030000 		.4byte	0x317
 3487 02ec 00       		.byte	0
 3488 02ed 12       		.uleb128 0x12
ARM GAS  C:\Users\EDULU~1.DES\AppData\Local\Temp\ccxcKTgR.s 			page 118


 3489 02ee 2C160000 		.4byte	.LASF51
 3490 02f2 06       		.byte	0x6
 3491 02f3 4C       		.byte	0x4c
 3492 02f4 09       		.byte	0x9
 3493 02f5 17030000 		.4byte	0x317
 3494 02f9 80       		.byte	0x80
 3495 02fa 16       		.uleb128 0x16
 3496 02fb 271B0000 		.4byte	.LASF52
 3497 02ff 06       		.byte	0x6
 3498 0300 4E       		.byte	0x4e
 3499 0301 0A       		.byte	0xa
 3500 0302 D3010000 		.4byte	0x1d3
 3501 0306 0001     		.2byte	0x100
 3502 0308 16       		.uleb128 0x16
 3503 0309 2D1C0000 		.4byte	.LASF53
 3504 030d 06       		.byte	0x6
 3505 030e 51       		.byte	0x51
 3506 030f 0A       		.byte	0xa
 3507 0310 D3010000 		.4byte	0x1d3
 3508 0314 0401     		.2byte	0x104
 3509 0316 00       		.byte	0
 3510 0317 0F       		.uleb128 0xf
 3511 0318 D0000000 		.4byte	0xd0
 3512 031c 27030000 		.4byte	0x327
 3513 0320 10       		.uleb128 0x10
 3514 0321 8E000000 		.4byte	0x8e
 3515 0325 1F       		.byte	0x1f
 3516 0326 00       		.byte	0
 3517 0327 15       		.uleb128 0x15
 3518 0328 35130000 		.4byte	.LASF54
 3519 032c 9001     		.2byte	0x190
 3520 032e 06       		.byte	0x6
 3521 032f 5D       		.byte	0x5d
 3522 0330 08       		.byte	0x8
 3523 0331 6A030000 		.4byte	0x36a
 3524 0335 12       		.uleb128 0x12
 3525 0336 1B190000 		.4byte	.LASF34
 3526 033a 06       		.byte	0x6
 3527 033b 5E       		.byte	0x5e
 3528 033c 12       		.byte	0x12
 3529 033d 6A030000 		.4byte	0x36a
 3530 0341 00       		.byte	0
 3531 0342 12       		.uleb128 0x12
 3532 0343 EE1B0000 		.4byte	.LASF55
 3533 0347 06       		.byte	0x6
 3534 0348 5F       		.byte	0x5f
 3535 0349 06       		.byte	0x6
 3536 034a 95000000 		.4byte	0x95
 3537 034e 04       		.byte	0x4
 3538 034f 12       		.uleb128 0x12
 3539 0350 28080000 		.4byte	.LASF56
 3540 0354 06       		.byte	0x6
 3541 0355 61       		.byte	0x61
 3542 0356 09       		.byte	0x9
 3543 0357 70030000 		.4byte	0x370
 3544 035b 08       		.byte	0x8
 3545 035c 12       		.uleb128 0x12
ARM GAS  C:\Users\EDULU~1.DES\AppData\Local\Temp\ccxcKTgR.s 			page 119


 3546 035d 23040000 		.4byte	.LASF49
 3547 0361 06       		.byte	0x6
 3548 0362 62       		.byte	0x62
 3549 0363 1E       		.byte	0x1e
 3550 0364 D2020000 		.4byte	0x2d2
 3551 0368 88       		.byte	0x88
 3552 0369 00       		.byte	0
 3553 036a 06       		.uleb128 0x6
 3554 036b 04       		.byte	0x4
 3555 036c 27030000 		.4byte	0x327
 3556 0370 0F       		.uleb128 0xf
 3557 0371 B8000000 		.4byte	0xb8
 3558 0375 80030000 		.4byte	0x380
 3559 0379 10       		.uleb128 0x10
 3560 037a 8E000000 		.4byte	0x8e
 3561 037e 1F       		.byte	0x1f
 3562 037f 00       		.byte	0
 3563 0380 13       		.uleb128 0x13
 3564 0381 261C0000 		.4byte	.LASF57
 3565 0385 08       		.byte	0x8
 3566 0386 06       		.byte	0x6
 3567 0387 75       		.byte	0x75
 3568 0388 08       		.byte	0x8
 3569 0389 A8030000 		.4byte	0x3a8
 3570 038d 12       		.uleb128 0x12
 3571 038e EB170000 		.4byte	.LASF58
 3572 0392 06       		.byte	0x6
 3573 0393 76       		.byte	0x76
 3574 0394 11       		.byte	0x11
 3575 0395 A8030000 		.4byte	0x3a8
 3576 0399 00       		.byte	0
 3577 039a 12       		.uleb128 0x12
 3578 039b DB040000 		.4byte	.LASF59
 3579 039f 06       		.byte	0x6
 3580 03a0 77       		.byte	0x77
 3581 03a1 06       		.byte	0x6
 3582 03a2 95000000 		.4byte	0x95
 3583 03a6 04       		.byte	0x4
 3584 03a7 00       		.byte	0
 3585 03a8 06       		.uleb128 0x6
 3586 03a9 04       		.byte	0x4
 3587 03aa 49000000 		.4byte	0x49
 3588 03ae 13       		.uleb128 0x13
 3589 03af DD0D0000 		.4byte	.LASF60
 3590 03b3 68       		.byte	0x68
 3591 03b4 06       		.byte	0x6
 3592 03b5 B5       		.byte	0xb5
 3593 03b6 08       		.byte	0x8
 3594 03b7 F1040000 		.4byte	0x4f1
 3595 03bb 14       		.uleb128 0x14
 3596 03bc 5F7000   		.ascii	"_p\000"
 3597 03bf 06       		.byte	0x6
 3598 03c0 B6       		.byte	0xb6
 3599 03c1 12       		.byte	0x12
 3600 03c2 A8030000 		.4byte	0x3a8
 3601 03c6 00       		.byte	0
 3602 03c7 14       		.uleb128 0x14
ARM GAS  C:\Users\EDULU~1.DES\AppData\Local\Temp\ccxcKTgR.s 			page 120


 3603 03c8 5F7200   		.ascii	"_r\000"
 3604 03cb 06       		.byte	0x6
 3605 03cc B7       		.byte	0xb7
 3606 03cd 07       		.byte	0x7
 3607 03ce 95000000 		.4byte	0x95
 3608 03d2 04       		.byte	0x4
 3609 03d3 14       		.uleb128 0x14
 3610 03d4 5F7700   		.ascii	"_w\000"
 3611 03d7 06       		.byte	0x6
 3612 03d8 B8       		.byte	0xb8
 3613 03d9 07       		.byte	0x7
 3614 03da 95000000 		.4byte	0x95
 3615 03de 08       		.byte	0x8
 3616 03df 12       		.uleb128 0x12
 3617 03e0 06130000 		.4byte	.LASF61
 3618 03e4 06       		.byte	0x6
 3619 03e5 B9       		.byte	0xb9
 3620 03e6 09       		.byte	0x9
 3621 03e7 76000000 		.4byte	0x76
 3622 03eb 0C       		.byte	0xc
 3623 03ec 12       		.uleb128 0x12
 3624 03ed 05040000 		.4byte	.LASF62
 3625 03f1 06       		.byte	0x6
 3626 03f2 BA       		.byte	0xba
 3627 03f3 09       		.byte	0x9
 3628 03f4 76000000 		.4byte	0x76
 3629 03f8 0E       		.byte	0xe
 3630 03f9 14       		.uleb128 0x14
 3631 03fa 5F626600 		.ascii	"_bf\000"
 3632 03fe 06       		.byte	0x6
 3633 03ff BB       		.byte	0xbb
 3634 0400 11       		.byte	0x11
 3635 0401 80030000 		.4byte	0x380
 3636 0405 10       		.byte	0x10
 3637 0406 12       		.uleb128 0x12
 3638 0407 D51B0000 		.4byte	.LASF63
 3639 040b 06       		.byte	0x6
 3640 040c BC       		.byte	0xbc
 3641 040d 07       		.byte	0x7
 3642 040e 95000000 		.4byte	0x95
 3643 0412 18       		.byte	0x18
 3644 0413 12       		.uleb128 0x12
 3645 0414 3E0B0000 		.4byte	.LASF64
 3646 0418 06       		.byte	0x6
 3647 0419 C3       		.byte	0xc3
 3648 041a 0A       		.byte	0xa
 3649 041b D0000000 		.4byte	0xd0
 3650 041f 1C       		.byte	0x1c
 3651 0420 12       		.uleb128 0x12
 3652 0421 D8000000 		.4byte	.LASF65
 3653 0425 06       		.byte	0x6
 3654 0426 C5       		.byte	0xc5
 3655 0427 1D       		.byte	0x1d
 3656 0428 69060000 		.4byte	0x669
 3657 042c 20       		.byte	0x20
 3658 042d 12       		.uleb128 0x12
 3659 042e 26010000 		.4byte	.LASF66
ARM GAS  C:\Users\EDULU~1.DES\AppData\Local\Temp\ccxcKTgR.s 			page 121


 3660 0432 06       		.byte	0x6
 3661 0433 C7       		.byte	0xc7
 3662 0434 1D       		.byte	0x1d
 3663 0435 93060000 		.4byte	0x693
 3664 0439 24       		.byte	0x24
 3665 043a 12       		.uleb128 0x12
 3666 043b 67140000 		.4byte	.LASF67
 3667 043f 06       		.byte	0x6
 3668 0440 CA       		.byte	0xca
 3669 0441 0D       		.byte	0xd
 3670 0442 B7060000 		.4byte	0x6b7
 3671 0446 28       		.byte	0x28
 3672 0447 12       		.uleb128 0x12
 3673 0448 69080000 		.4byte	.LASF68
 3674 044c 06       		.byte	0x6
 3675 044d CB       		.byte	0xcb
 3676 044e 09       		.byte	0x9
 3677 044f D1060000 		.4byte	0x6d1
 3678 0453 2C       		.byte	0x2c
 3679 0454 14       		.uleb128 0x14
 3680 0455 5F756200 		.ascii	"_ub\000"
 3681 0459 06       		.byte	0x6
 3682 045a CE       		.byte	0xce
 3683 045b 11       		.byte	0x11
 3684 045c 80030000 		.4byte	0x380
 3685 0460 30       		.byte	0x30
 3686 0461 14       		.uleb128 0x14
 3687 0462 5F757000 		.ascii	"_up\000"
 3688 0466 06       		.byte	0x6
 3689 0467 CF       		.byte	0xcf
 3690 0468 12       		.byte	0x12
 3691 0469 A8030000 		.4byte	0x3a8
 3692 046d 38       		.byte	0x38
 3693 046e 14       		.uleb128 0x14
 3694 046f 5F757200 		.ascii	"_ur\000"
 3695 0473 06       		.byte	0x6
 3696 0474 D0       		.byte	0xd0
 3697 0475 07       		.byte	0x7
 3698 0476 95000000 		.4byte	0x95
 3699 047a 3C       		.byte	0x3c
 3700 047b 12       		.uleb128 0x12
 3701 047c 7A120000 		.4byte	.LASF69
 3702 0480 06       		.byte	0x6
 3703 0481 D3       		.byte	0xd3
 3704 0482 11       		.byte	0x11
 3705 0483 D7060000 		.4byte	0x6d7
 3706 0487 40       		.byte	0x40
 3707 0488 12       		.uleb128 0x12
 3708 0489 22020000 		.4byte	.LASF70
 3709 048d 06       		.byte	0x6
 3710 048e D4       		.byte	0xd4
 3711 048f 11       		.byte	0x11
 3712 0490 E7060000 		.4byte	0x6e7
 3713 0494 43       		.byte	0x43
 3714 0495 14       		.uleb128 0x14
 3715 0496 5F6C6200 		.ascii	"_lb\000"
 3716 049a 06       		.byte	0x6
ARM GAS  C:\Users\EDULU~1.DES\AppData\Local\Temp\ccxcKTgR.s 			page 122


 3717 049b D7       		.byte	0xd7
 3718 049c 11       		.byte	0x11
 3719 049d 80030000 		.4byte	0x380
 3720 04a1 44       		.byte	0x44
 3721 04a2 12       		.uleb128 0x12
 3722 04a3 D1160000 		.4byte	.LASF71
 3723 04a7 06       		.byte	0x6
 3724 04a8 DA       		.byte	0xda
 3725 04a9 07       		.byte	0x7
 3726 04aa 95000000 		.4byte	0x95
 3727 04ae 4C       		.byte	0x4c
 3728 04af 12       		.uleb128 0x12
 3729 04b0 D40B0000 		.4byte	.LASF72
 3730 04b4 06       		.byte	0x6
 3731 04b5 DB       		.byte	0xdb
 3732 04b6 0A       		.byte	0xa
 3733 04b7 40010000 		.4byte	0x140
 3734 04bb 50       		.byte	0x50
 3735 04bc 12       		.uleb128 0x12
 3736 04bd 21190000 		.4byte	.LASF73
 3737 04c1 06       		.byte	0x6
 3738 04c2 DE       		.byte	0xde
 3739 04c3 12       		.byte	0x12
 3740 04c4 0F050000 		.4byte	0x50f
 3741 04c8 54       		.byte	0x54
 3742 04c9 12       		.uleb128 0x12
 3743 04ca B3020000 		.4byte	.LASF74
 3744 04ce 06       		.byte	0x6
 3745 04cf E2       		.byte	0xe2
 3746 04d0 0C       		.byte	0xc
 3747 04d1 C7010000 		.4byte	0x1c7
 3748 04d5 58       		.byte	0x58
 3749 04d6 12       		.uleb128 0x12
 3750 04d7 C5120000 		.4byte	.LASF75
 3751 04db 06       		.byte	0x6
 3752 04dc E4       		.byte	0xe4
 3753 04dd 0E       		.byte	0xe
 3754 04de BB010000 		.4byte	0x1bb
 3755 04e2 5C       		.byte	0x5c
 3756 04e3 12       		.uleb128 0x12
 3757 04e4 F00D0000 		.4byte	.LASF76
 3758 04e8 06       		.byte	0x6
 3759 04e9 E5       		.byte	0xe5
 3760 04ea 09       		.byte	0x9
 3761 04eb 95000000 		.4byte	0x95
 3762 04ef 64       		.byte	0x64
 3763 04f0 00       		.byte	0
 3764 04f1 17       		.uleb128 0x17
 3765 04f2 95000000 		.4byte	0x95
 3766 04f6 0F050000 		.4byte	0x50f
 3767 04fa 09       		.uleb128 0x9
 3768 04fb 0F050000 		.4byte	0x50f
 3769 04ff 09       		.uleb128 0x9
 3770 0500 D0000000 		.4byte	0xd0
 3771 0504 09       		.uleb128 0x9
 3772 0505 63060000 		.4byte	0x663
 3773 0509 09       		.uleb128 0x9
ARM GAS  C:\Users\EDULU~1.DES\AppData\Local\Temp\ccxcKTgR.s 			page 123


 3774 050a 95000000 		.4byte	0x95
 3775 050e 00       		.byte	0
 3776 050f 06       		.uleb128 0x6
 3777 0510 04       		.byte	0x4
 3778 0511 1A050000 		.4byte	0x51a
 3779 0515 04       		.uleb128 0x4
 3780 0516 0F050000 		.4byte	0x50f
 3781 051a 18       		.uleb128 0x18
 3782 051b 67070000 		.4byte	.LASF77
 3783 051f 2804     		.2byte	0x428
 3784 0521 06       		.byte	0x6
 3785 0522 6002     		.2byte	0x260
 3786 0524 08       		.byte	0x8
 3787 0525 63060000 		.4byte	0x663
 3788 0529 19       		.uleb128 0x19
 3789 052a A00E0000 		.4byte	.LASF78
 3790 052e 06       		.byte	0x6
 3791 052f 6202     		.2byte	0x262
 3792 0531 07       		.byte	0x7
 3793 0532 95000000 		.4byte	0x95
 3794 0536 00       		.byte	0
 3795 0537 19       		.uleb128 0x19
 3796 0538 F6080000 		.4byte	.LASF79
 3797 053c 06       		.byte	0x6
 3798 053d 6702     		.2byte	0x267
 3799 053f 0B       		.byte	0xb
 3800 0540 43070000 		.4byte	0x743
 3801 0544 04       		.byte	0x4
 3802 0545 19       		.uleb128 0x19
 3803 0546 68160000 		.4byte	.LASF80
 3804 054a 06       		.byte	0x6
 3805 054b 6702     		.2byte	0x267
 3806 054d 14       		.byte	0x14
 3807 054e 43070000 		.4byte	0x743
 3808 0552 08       		.byte	0x8
 3809 0553 19       		.uleb128 0x19
 3810 0554 99120000 		.4byte	.LASF81
 3811 0558 06       		.byte	0x6
 3812 0559 6702     		.2byte	0x267
 3813 055b 1E       		.byte	0x1e
 3814 055c 43070000 		.4byte	0x743
 3815 0560 0C       		.byte	0xc
 3816 0561 19       		.uleb128 0x19
 3817 0562 E91B0000 		.4byte	.LASF82
 3818 0566 06       		.byte	0x6
 3819 0567 6902     		.2byte	0x269
 3820 0569 08       		.byte	0x8
 3821 056a 95000000 		.4byte	0x95
 3822 056e 10       		.byte	0x10
 3823 056f 19       		.uleb128 0x19
 3824 0570 B30F0000 		.4byte	.LASF83
 3825 0574 06       		.byte	0x6
 3826 0575 6A02     		.2byte	0x26a
 3827 0577 08       		.byte	0x8
 3828 0578 43090000 		.4byte	0x943
 3829 057c 14       		.byte	0x14
 3830 057d 19       		.uleb128 0x19
ARM GAS  C:\Users\EDULU~1.DES\AppData\Local\Temp\ccxcKTgR.s 			page 124


 3831 057e 48070000 		.4byte	.LASF84
 3832 0582 06       		.byte	0x6
 3833 0583 6D02     		.2byte	0x26d
 3834 0585 07       		.byte	0x7
 3835 0586 95000000 		.4byte	0x95
 3836 058a 30       		.byte	0x30
 3837 058b 19       		.uleb128 0x19
 3838 058c F61C0000 		.4byte	.LASF85
 3839 0590 06       		.byte	0x6
 3840 0591 6E02     		.2byte	0x26e
 3841 0593 16       		.byte	0x16
 3842 0594 58090000 		.4byte	0x958
 3843 0598 34       		.byte	0x34
 3844 0599 19       		.uleb128 0x19
 3845 059a E50D0000 		.4byte	.LASF86
 3846 059e 06       		.byte	0x6
 3847 059f 7002     		.2byte	0x270
 3848 05a1 07       		.byte	0x7
 3849 05a2 95000000 		.4byte	0x95
 3850 05a6 38       		.byte	0x38
 3851 05a7 19       		.uleb128 0x19
 3852 05a8 3D0F0000 		.4byte	.LASF87
 3853 05ac 06       		.byte	0x6
 3854 05ad 7202     		.2byte	0x272
 3855 05af 0A       		.byte	0xa
 3856 05b0 69090000 		.4byte	0x969
 3857 05b4 3C       		.byte	0x3c
 3858 05b5 19       		.uleb128 0x19
 3859 05b6 111D0000 		.4byte	.LASF88
 3860 05ba 06       		.byte	0x6
 3861 05bb 7502     		.2byte	0x275
 3862 05bd 13       		.byte	0x13
 3863 05be 39020000 		.4byte	0x239
 3864 05c2 40       		.byte	0x40
 3865 05c3 19       		.uleb128 0x19
 3866 05c4 C1040000 		.4byte	.LASF89
 3867 05c8 06       		.byte	0x6
 3868 05c9 7602     		.2byte	0x276
 3869 05cb 07       		.byte	0x7
 3870 05cc 95000000 		.4byte	0x95
 3871 05d0 44       		.byte	0x44
 3872 05d1 19       		.uleb128 0x19
 3873 05d2 660D0000 		.4byte	.LASF90
 3874 05d6 06       		.byte	0x6
 3875 05d7 7702     		.2byte	0x277
 3876 05d9 13       		.byte	0x13
 3877 05da 39020000 		.4byte	0x239
 3878 05de 48       		.byte	0x48
 3879 05df 19       		.uleb128 0x19
 3880 05e0 EB100000 		.4byte	.LASF91
 3881 05e4 06       		.byte	0x6
 3882 05e5 7802     		.2byte	0x278
 3883 05e7 14       		.byte	0x14
 3884 05e8 6F090000 		.4byte	0x96f
 3885 05ec 4C       		.byte	0x4c
 3886 05ed 19       		.uleb128 0x19
 3887 05ee 6B010000 		.4byte	.LASF92
ARM GAS  C:\Users\EDULU~1.DES\AppData\Local\Temp\ccxcKTgR.s 			page 125


 3888 05f2 06       		.byte	0x6
 3889 05f3 7B02     		.2byte	0x27b
 3890 05f5 07       		.byte	0x7
 3891 05f6 95000000 		.4byte	0x95
 3892 05fa 50       		.byte	0x50
 3893 05fb 19       		.uleb128 0x19
 3894 05fc DC0B0000 		.4byte	.LASF93
 3895 0600 06       		.byte	0x6
 3896 0601 7C02     		.2byte	0x27c
 3897 0603 09       		.byte	0x9
 3898 0604 63060000 		.4byte	0x663
 3899 0608 54       		.byte	0x54
 3900 0609 19       		.uleb128 0x19
 3901 060a 69120000 		.4byte	.LASF94
 3902 060e 06       		.byte	0x6
 3903 060f 9F02     		.2byte	0x29f
 3904 0611 07       		.byte	0x7
 3905 0612 1E090000 		.4byte	0x91e
 3906 0616 58       		.byte	0x58
 3907 0617 1A       		.uleb128 0x1a
 3908 0618 35130000 		.4byte	.LASF54
 3909 061c 06       		.byte	0x6
 3910 061d A302     		.2byte	0x2a3
 3911 061f 13       		.byte	0x13
 3912 0620 6A030000 		.4byte	0x36a
 3913 0624 4801     		.2byte	0x148
 3914 0626 1A       		.uleb128 0x1a
 3915 0627 470F0000 		.4byte	.LASF95
 3916 062b 06       		.byte	0x6
 3917 062c A402     		.2byte	0x2a4
 3918 062e 12       		.byte	0x12
 3919 062f 27030000 		.4byte	0x327
 3920 0633 4C01     		.2byte	0x14c
 3921 0635 1A       		.uleb128 0x1a
 3922 0636 900B0000 		.4byte	.LASF96
 3923 063a 06       		.byte	0x6
 3924 063b A802     		.2byte	0x2a8
 3925 063d 0C       		.byte	0xc
 3926 063e 80090000 		.4byte	0x980
 3927 0642 DC02     		.2byte	0x2dc
 3928 0644 1A       		.uleb128 0x1a
 3929 0645 0D100000 		.4byte	.LASF97
 3930 0649 06       		.byte	0x6
 3931 064a AD02     		.2byte	0x2ad
 3932 064c 10       		.byte	0x10
 3933 064d 04070000 		.4byte	0x704
 3934 0651 E002     		.2byte	0x2e0
 3935 0653 1A       		.uleb128 0x1a
 3936 0654 CC000000 		.4byte	.LASF98
 3937 0658 06       		.byte	0x6
 3938 0659 AF02     		.2byte	0x2af
 3939 065b 0A       		.byte	0xa
 3940 065c 8C090000 		.4byte	0x98c
 3941 0660 EC02     		.2byte	0x2ec
 3942 0662 00       		.byte	0
 3943 0663 06       		.uleb128 0x6
 3944 0664 04       		.byte	0x4
ARM GAS  C:\Users\EDULU~1.DES\AppData\Local\Temp\ccxcKTgR.s 			page 126


 3945 0665 31000000 		.4byte	0x31
 3946 0669 06       		.uleb128 0x6
 3947 066a 04       		.byte	0x4
 3948 066b F1040000 		.4byte	0x4f1
 3949 066f 17       		.uleb128 0x17
 3950 0670 95000000 		.4byte	0x95
 3951 0674 8D060000 		.4byte	0x68d
 3952 0678 09       		.uleb128 0x9
 3953 0679 0F050000 		.4byte	0x50f
 3954 067d 09       		.uleb128 0x9
 3955 067e D0000000 		.4byte	0xd0
 3956 0682 09       		.uleb128 0x9
 3957 0683 8D060000 		.4byte	0x68d
 3958 0687 09       		.uleb128 0x9
 3959 0688 95000000 		.4byte	0x95
 3960 068c 00       		.byte	0
 3961 068d 06       		.uleb128 0x6
 3962 068e 04       		.byte	0x4
 3963 068f 38000000 		.4byte	0x38
 3964 0693 06       		.uleb128 0x6
 3965 0694 04       		.byte	0x4
 3966 0695 6F060000 		.4byte	0x66f
 3967 0699 17       		.uleb128 0x17
 3968 069a 4C010000 		.4byte	0x14c
 3969 069e B7060000 		.4byte	0x6b7
 3970 06a2 09       		.uleb128 0x9
 3971 06a3 0F050000 		.4byte	0x50f
 3972 06a7 09       		.uleb128 0x9
 3973 06a8 D0000000 		.4byte	0xd0
 3974 06ac 09       		.uleb128 0x9
 3975 06ad 4C010000 		.4byte	0x14c
 3976 06b1 09       		.uleb128 0x9
 3977 06b2 95000000 		.4byte	0x95
 3978 06b6 00       		.byte	0
 3979 06b7 06       		.uleb128 0x6
 3980 06b8 04       		.byte	0x4
 3981 06b9 99060000 		.4byte	0x699
 3982 06bd 17       		.uleb128 0x17
 3983 06be 95000000 		.4byte	0x95
 3984 06c2 D1060000 		.4byte	0x6d1
 3985 06c6 09       		.uleb128 0x9
 3986 06c7 0F050000 		.4byte	0x50f
 3987 06cb 09       		.uleb128 0x9
 3988 06cc D0000000 		.4byte	0xd0
 3989 06d0 00       		.byte	0
 3990 06d1 06       		.uleb128 0x6
 3991 06d2 04       		.byte	0x4
 3992 06d3 BD060000 		.4byte	0x6bd
 3993 06d7 0F       		.uleb128 0xf
 3994 06d8 49000000 		.4byte	0x49
 3995 06dc E7060000 		.4byte	0x6e7
 3996 06e0 10       		.uleb128 0x10
 3997 06e1 8E000000 		.4byte	0x8e
 3998 06e5 02       		.byte	0x2
 3999 06e6 00       		.byte	0
 4000 06e7 0F       		.uleb128 0xf
 4001 06e8 49000000 		.4byte	0x49
ARM GAS  C:\Users\EDULU~1.DES\AppData\Local\Temp\ccxcKTgR.s 			page 127


 4002 06ec F7060000 		.4byte	0x6f7
 4003 06f0 10       		.uleb128 0x10
 4004 06f1 8E000000 		.4byte	0x8e
 4005 06f5 00       		.byte	0
 4006 06f6 00       		.byte	0
 4007 06f7 0B       		.uleb128 0xb
 4008 06f8 5B180000 		.4byte	.LASF99
 4009 06fc 06       		.byte	0x6
 4010 06fd 1F01     		.2byte	0x11f
 4011 06ff 1A       		.byte	0x1a
 4012 0700 AE030000 		.4byte	0x3ae
 4013 0704 1B       		.uleb128 0x1b
 4014 0705 FB100000 		.4byte	.LASF100
 4015 0709 0C       		.byte	0xc
 4016 070a 06       		.byte	0x6
 4017 070b 2301     		.2byte	0x123
 4018 070d 08       		.byte	0x8
 4019 070e 3D070000 		.4byte	0x73d
 4020 0712 19       		.uleb128 0x19
 4021 0713 1B190000 		.4byte	.LASF34
 4022 0717 06       		.byte	0x6
 4023 0718 2501     		.2byte	0x125
 4024 071a 11       		.byte	0x11
 4025 071b 3D070000 		.4byte	0x73d
 4026 071f 00       		.byte	0
 4027 0720 19       		.uleb128 0x19
 4028 0721 FC0F0000 		.4byte	.LASF101
 4029 0725 06       		.byte	0x6
 4030 0726 2601     		.2byte	0x126
 4031 0728 07       		.byte	0x7
 4032 0729 95000000 		.4byte	0x95
 4033 072d 04       		.byte	0x4
 4034 072e 19       		.uleb128 0x19
 4035 072f F5100000 		.4byte	.LASF102
 4036 0733 06       		.byte	0x6
 4037 0734 2701     		.2byte	0x127
 4038 0736 0B       		.byte	0xb
 4039 0737 43070000 		.4byte	0x743
 4040 073b 08       		.byte	0x8
 4041 073c 00       		.byte	0
 4042 073d 06       		.uleb128 0x6
 4043 073e 04       		.byte	0x4
 4044 073f 04070000 		.4byte	0x704
 4045 0743 06       		.uleb128 0x6
 4046 0744 04       		.byte	0x4
 4047 0745 F7060000 		.4byte	0x6f7
 4048 0749 1B       		.uleb128 0x1b
 4049 074a 4E160000 		.4byte	.LASF103
 4050 074e 0E       		.byte	0xe
 4051 074f 06       		.byte	0x6
 4052 0750 3F01     		.2byte	0x13f
 4053 0752 08       		.byte	0x8
 4054 0753 82070000 		.4byte	0x782
 4055 0757 19       		.uleb128 0x19
 4056 0758 61140000 		.4byte	.LASF104
 4057 075c 06       		.byte	0x6
 4058 075d 4001     		.2byte	0x140
ARM GAS  C:\Users\EDULU~1.DES\AppData\Local\Temp\ccxcKTgR.s 			page 128


 4059 075f 12       		.byte	0x12
 4060 0760 82070000 		.4byte	0x782
 4061 0764 00       		.byte	0
 4062 0765 19       		.uleb128 0x19
 4063 0766 F5020000 		.4byte	.LASF105
 4064 076a 06       		.byte	0x6
 4065 076b 4101     		.2byte	0x141
 4066 076d 12       		.byte	0x12
 4067 076e 82070000 		.4byte	0x782
 4068 0772 06       		.byte	0x6
 4069 0773 19       		.uleb128 0x19
 4070 0774 F91D0000 		.4byte	.LASF106
 4071 0778 06       		.byte	0x6
 4072 0779 4201     		.2byte	0x142
 4073 077b 12       		.byte	0x12
 4074 077c 6F000000 		.4byte	0x6f
 4075 0780 0C       		.byte	0xc
 4076 0781 00       		.byte	0
 4077 0782 0F       		.uleb128 0xf
 4078 0783 6F000000 		.4byte	0x6f
 4079 0787 92070000 		.4byte	0x792
 4080 078b 10       		.uleb128 0x10
 4081 078c 8E000000 		.4byte	0x8e
 4082 0790 02       		.byte	0x2
 4083 0791 00       		.byte	0
 4084 0792 1C       		.uleb128 0x1c
 4085 0793 D0       		.byte	0xd0
 4086 0794 06       		.byte	0x6
 4087 0795 8002     		.2byte	0x280
 4088 0797 07       		.byte	0x7
 4089 0798 A7080000 		.4byte	0x8a7
 4090 079c 19       		.uleb128 0x19
 4091 079d DD050000 		.4byte	.LASF107
 4092 07a1 06       		.byte	0x6
 4093 07a2 8202     		.2byte	0x282
 4094 07a4 18       		.byte	0x18
 4095 07a5 8E000000 		.4byte	0x8e
 4096 07a9 00       		.byte	0
 4097 07aa 19       		.uleb128 0x19
 4098 07ab CD170000 		.4byte	.LASF108
 4099 07af 06       		.byte	0x6
 4100 07b0 8302     		.2byte	0x283
 4101 07b2 12       		.byte	0x12
 4102 07b3 63060000 		.4byte	0x663
 4103 07b7 04       		.byte	0x4
 4104 07b8 19       		.uleb128 0x19
 4105 07b9 57010000 		.4byte	.LASF109
 4106 07bd 06       		.byte	0x6
 4107 07be 8402     		.2byte	0x284
 4108 07c0 10       		.byte	0x10
 4109 07c1 A7080000 		.4byte	0x8a7
 4110 07c5 08       		.byte	0x8
 4111 07c6 19       		.uleb128 0x19
 4112 07c7 EF040000 		.4byte	.LASF110
 4113 07cb 06       		.byte	0x6
 4114 07cc 8502     		.2byte	0x285
 4115 07ce 17       		.byte	0x17
ARM GAS  C:\Users\EDULU~1.DES\AppData\Local\Temp\ccxcKTgR.s 			page 129


 4116 07cf 4F020000 		.4byte	0x24f
 4117 07d3 24       		.byte	0x24
 4118 07d4 19       		.uleb128 0x19
 4119 07d5 5F100000 		.4byte	.LASF111
 4120 07d9 06       		.byte	0x6
 4121 07da 8602     		.2byte	0x286
 4122 07dc 0F       		.byte	0xf
 4123 07dd 95000000 		.4byte	0x95
 4124 07e1 48       		.byte	0x48
 4125 07e2 19       		.uleb128 0x19
 4126 07e3 E6120000 		.4byte	.LASF112
 4127 07e7 06       		.byte	0x6
 4128 07e8 8702     		.2byte	0x287
 4129 07ea 2C       		.byte	0x2c
 4130 07eb 9C000000 		.4byte	0x9c
 4131 07ef 50       		.byte	0x50
 4132 07f0 19       		.uleb128 0x19
 4133 07f1 E4180000 		.4byte	.LASF113
 4134 07f5 06       		.byte	0x6
 4135 07f6 8802     		.2byte	0x288
 4136 07f8 1A       		.byte	0x1a
 4137 07f9 49070000 		.4byte	0x749
 4138 07fd 58       		.byte	0x58
 4139 07fe 19       		.uleb128 0x19
 4140 07ff 9F1A0000 		.4byte	.LASF114
 4141 0803 06       		.byte	0x6
 4142 0804 8902     		.2byte	0x289
 4143 0806 16       		.byte	0x16
 4144 0807 BB010000 		.4byte	0x1bb
 4145 080b 68       		.byte	0x68
 4146 080c 19       		.uleb128 0x19
 4147 080d 11150000 		.4byte	.LASF115
 4148 0811 06       		.byte	0x6
 4149 0812 8A02     		.2byte	0x28a
 4150 0814 16       		.byte	0x16
 4151 0815 BB010000 		.4byte	0x1bb
 4152 0819 70       		.byte	0x70
 4153 081a 19       		.uleb128 0x19
 4154 081b A1120000 		.4byte	.LASF116
 4155 081f 06       		.byte	0x6
 4156 0820 8B02     		.2byte	0x28b
 4157 0822 16       		.byte	0x16
 4158 0823 BB010000 		.4byte	0x1bb
 4159 0827 78       		.byte	0x78
 4160 0828 19       		.uleb128 0x19
 4161 0829 3E020000 		.4byte	.LASF117
 4162 082d 06       		.byte	0x6
 4163 082e 8C02     		.2byte	0x28c
 4164 0830 10       		.byte	0x10
 4165 0831 B7080000 		.4byte	0x8b7
 4166 0835 80       		.byte	0x80
 4167 0836 19       		.uleb128 0x19
 4168 0837 AF0E0000 		.4byte	.LASF118
 4169 083b 06       		.byte	0x6
 4170 083c 8D02     		.2byte	0x28d
 4171 083e 10       		.byte	0x10
 4172 083f C7080000 		.4byte	0x8c7
ARM GAS  C:\Users\EDULU~1.DES\AppData\Local\Temp\ccxcKTgR.s 			page 130


 4173 0843 88       		.byte	0x88
 4174 0844 19       		.uleb128 0x19
 4175 0845 CF1F0000 		.4byte	.LASF119
 4176 0849 06       		.byte	0x6
 4177 084a 8E02     		.2byte	0x28e
 4178 084c 0F       		.byte	0xf
 4179 084d 95000000 		.4byte	0x95
 4180 0851 A0       		.byte	0xa0
 4181 0852 19       		.uleb128 0x19
 4182 0853 7D040000 		.4byte	.LASF120
 4183 0857 06       		.byte	0x6
 4184 0858 8F02     		.2byte	0x28f
 4185 085a 16       		.byte	0x16
 4186 085b BB010000 		.4byte	0x1bb
 4187 085f A4       		.byte	0xa4
 4188 0860 19       		.uleb128 0x19
 4189 0861 F9170000 		.4byte	.LASF121
 4190 0865 06       		.byte	0x6
 4191 0866 9002     		.2byte	0x290
 4192 0868 16       		.byte	0x16
 4193 0869 BB010000 		.4byte	0x1bb
 4194 086d AC       		.byte	0xac
 4195 086e 19       		.uleb128 0x19
 4196 086f A51E0000 		.4byte	.LASF122
 4197 0873 06       		.byte	0x6
 4198 0874 9102     		.2byte	0x291
 4199 0876 16       		.byte	0x16
 4200 0877 BB010000 		.4byte	0x1bb
 4201 087b B4       		.byte	0xb4
 4202 087c 19       		.uleb128 0x19
 4203 087d 40120000 		.4byte	.LASF123
 4204 0881 06       		.byte	0x6
 4205 0882 9202     		.2byte	0x292
 4206 0884 16       		.byte	0x16
 4207 0885 BB010000 		.4byte	0x1bb
 4208 0889 BC       		.byte	0xbc
 4209 088a 19       		.uleb128 0x19
 4210 088b 11020000 		.4byte	.LASF124
 4211 088f 06       		.byte	0x6
 4212 0890 9302     		.2byte	0x293
 4213 0892 16       		.byte	0x16
 4214 0893 BB010000 		.4byte	0x1bb
 4215 0897 C4       		.byte	0xc4
 4216 0898 19       		.uleb128 0x19
 4217 0899 37120000 		.4byte	.LASF125
 4218 089d 06       		.byte	0x6
 4219 089e 9402     		.2byte	0x294
 4220 08a0 08       		.byte	0x8
 4221 08a1 95000000 		.4byte	0x95
 4222 08a5 CC       		.byte	0xcc
 4223 08a6 00       		.byte	0
 4224 08a7 0F       		.uleb128 0xf
 4225 08a8 31000000 		.4byte	0x31
 4226 08ac B7080000 		.4byte	0x8b7
 4227 08b0 10       		.uleb128 0x10
 4228 08b1 8E000000 		.4byte	0x8e
 4229 08b5 19       		.byte	0x19
ARM GAS  C:\Users\EDULU~1.DES\AppData\Local\Temp\ccxcKTgR.s 			page 131


 4230 08b6 00       		.byte	0
 4231 08b7 0F       		.uleb128 0xf
 4232 08b8 31000000 		.4byte	0x31
 4233 08bc C7080000 		.4byte	0x8c7
 4234 08c0 10       		.uleb128 0x10
 4235 08c1 8E000000 		.4byte	0x8e
 4236 08c5 07       		.byte	0x7
 4237 08c6 00       		.byte	0
 4238 08c7 0F       		.uleb128 0xf
 4239 08c8 31000000 		.4byte	0x31
 4240 08cc D7080000 		.4byte	0x8d7
 4241 08d0 10       		.uleb128 0x10
 4242 08d1 8E000000 		.4byte	0x8e
 4243 08d5 17       		.byte	0x17
 4244 08d6 00       		.byte	0
 4245 08d7 1C       		.uleb128 0x1c
 4246 08d8 F0       		.byte	0xf0
 4247 08d9 06       		.byte	0x6
 4248 08da 9902     		.2byte	0x299
 4249 08dc 07       		.byte	0x7
 4250 08dd FE080000 		.4byte	0x8fe
 4251 08e1 19       		.uleb128 0x19
 4252 08e2 481C0000 		.4byte	.LASF126
 4253 08e6 06       		.byte	0x6
 4254 08e7 9C02     		.2byte	0x29c
 4255 08e9 1B       		.byte	0x1b
 4256 08ea FE080000 		.4byte	0x8fe
 4257 08ee 00       		.byte	0
 4258 08ef 19       		.uleb128 0x19
 4259 08f0 23100000 		.4byte	.LASF127
 4260 08f4 06       		.byte	0x6
 4261 08f5 9D02     		.2byte	0x29d
 4262 08f7 18       		.byte	0x18
 4263 08f8 0E090000 		.4byte	0x90e
 4264 08fc 78       		.byte	0x78
 4265 08fd 00       		.byte	0
 4266 08fe 0F       		.uleb128 0xf
 4267 08ff A8030000 		.4byte	0x3a8
 4268 0903 0E090000 		.4byte	0x90e
 4269 0907 10       		.uleb128 0x10
 4270 0908 8E000000 		.4byte	0x8e
 4271 090c 1D       		.byte	0x1d
 4272 090d 00       		.byte	0
 4273 090e 0F       		.uleb128 0xf
 4274 090f 8E000000 		.4byte	0x8e
 4275 0913 1E090000 		.4byte	0x91e
 4276 0917 10       		.uleb128 0x10
 4277 0918 8E000000 		.4byte	0x8e
 4278 091c 1D       		.byte	0x1d
 4279 091d 00       		.byte	0
 4280 091e 1D       		.uleb128 0x1d
 4281 091f F0       		.byte	0xf0
 4282 0920 06       		.byte	0x6
 4283 0921 7E02     		.2byte	0x27e
 4284 0923 03       		.byte	0x3
 4285 0924 43090000 		.4byte	0x943
 4286 0928 1E       		.uleb128 0x1e
ARM GAS  C:\Users\EDULU~1.DES\AppData\Local\Temp\ccxcKTgR.s 			page 132


 4287 0929 67070000 		.4byte	.LASF77
 4288 092d 06       		.byte	0x6
 4289 092e 9502     		.2byte	0x295
 4290 0930 0B       		.byte	0xb
 4291 0931 92070000 		.4byte	0x792
 4292 0935 1E       		.uleb128 0x1e
 4293 0936 04020000 		.4byte	.LASF128
 4294 093a 06       		.byte	0x6
 4295 093b 9E02     		.2byte	0x29e
 4296 093d 0B       		.byte	0xb
 4297 093e D7080000 		.4byte	0x8d7
 4298 0942 00       		.byte	0
 4299 0943 0F       		.uleb128 0xf
 4300 0944 31000000 		.4byte	0x31
 4301 0948 53090000 		.4byte	0x953
 4302 094c 10       		.uleb128 0x10
 4303 094d 8E000000 		.4byte	0x8e
 4304 0951 18       		.byte	0x18
 4305 0952 00       		.byte	0
 4306 0953 0C       		.uleb128 0xc
 4307 0954 9F000000 		.4byte	.LASF130
 4308 0958 06       		.uleb128 0x6
 4309 0959 04       		.byte	0x4
 4310 095a 53090000 		.4byte	0x953
 4311 095e 08       		.uleb128 0x8
 4312 095f 69090000 		.4byte	0x969
 4313 0963 09       		.uleb128 0x9
 4314 0964 0F050000 		.4byte	0x50f
 4315 0968 00       		.byte	0
 4316 0969 06       		.uleb128 0x6
 4317 096a 04       		.byte	0x4
 4318 096b 5E090000 		.4byte	0x95e
 4319 096f 06       		.uleb128 0x6
 4320 0970 04       		.byte	0x4
 4321 0971 39020000 		.4byte	0x239
 4322 0975 08       		.uleb128 0x8
 4323 0976 80090000 		.4byte	0x980
 4324 097a 09       		.uleb128 0x9
 4325 097b 95000000 		.4byte	0x95
 4326 097f 00       		.byte	0
 4327 0980 06       		.uleb128 0x6
 4328 0981 04       		.byte	0x4
 4329 0982 86090000 		.4byte	0x986
 4330 0986 06       		.uleb128 0x6
 4331 0987 04       		.byte	0x4
 4332 0988 75090000 		.4byte	0x975
 4333 098c 0F       		.uleb128 0xf
 4334 098d F7060000 		.4byte	0x6f7
 4335 0991 9C090000 		.4byte	0x99c
 4336 0995 10       		.uleb128 0x10
 4337 0996 8E000000 		.4byte	0x8e
 4338 099a 02       		.byte	0x2
 4339 099b 00       		.byte	0
 4340 099c 1F       		.uleb128 0x1f
 4341 099d A6040000 		.4byte	.LASF131
 4342 09a1 06       		.byte	0x6
 4343 09a2 2E03     		.2byte	0x32e
ARM GAS  C:\Users\EDULU~1.DES\AppData\Local\Temp\ccxcKTgR.s 			page 133


 4344 09a4 17       		.byte	0x17
 4345 09a5 0F050000 		.4byte	0x50f
 4346 09a9 1F       		.uleb128 0x1f
 4347 09aa 75070000 		.4byte	.LASF132
 4348 09ae 06       		.byte	0x6
 4349 09af 2F03     		.2byte	0x32f
 4350 09b1 1D       		.byte	0x1d
 4351 09b2 15050000 		.4byte	0x515
 4352 09b6 02       		.uleb128 0x2
 4353 09b7 5E0B0000 		.4byte	.LASF133
 4354 09bb 07       		.byte	0x7
 4355 09bc C4       		.byte	0xc4
 4356 09bd 16       		.byte	0x16
 4357 09be 7D000000 		.4byte	0x7d
 4358 09c2 02       		.uleb128 0x2
 4359 09c3 A0050000 		.4byte	.LASF134
 4360 09c7 07       		.byte	0x7
 4361 09c8 C7       		.byte	0xc7
 4362 09c9 16       		.byte	0x16
 4363 09ca B6090000 		.4byte	0x9b6
 4364 09ce 02       		.uleb128 0x2
 4365 09cf 09160000 		.4byte	.LASF135
 4366 09d3 07       		.byte	0x7
 4367 09d4 D2       		.byte	0xd2
 4368 09d5 16       		.byte	0x16
 4369 09d6 7D000000 		.4byte	0x7d
 4370 09da 02       		.uleb128 0x2
 4371 09db 5C030000 		.4byte	.LASF136
 4372 09df 07       		.byte	0x7
 4373 09e0 DD       		.byte	0xdd
 4374 09e1 16       		.byte	0x16
 4375 09e2 7D000000 		.4byte	0x7d
 4376 09e6 0F       		.uleb128 0xf
 4377 09e7 25000000 		.4byte	0x25
 4378 09eb F6090000 		.4byte	0x9f6
 4379 09ef 10       		.uleb128 0x10
 4380 09f0 8E000000 		.4byte	0x8e
 4381 09f4 0F       		.byte	0xf
 4382 09f5 00       		.byte	0
 4383 09f6 20       		.uleb128 0x20
 4384 09f7 AE170000 		.4byte	.LASF137
 4385 09fb 07       		.byte	0x7
 4386 09fc E7       		.byte	0xe7
 4387 09fd 20       		.byte	0x20
 4388 09fe E6090000 		.4byte	0x9e6
 4389 0a02 20       		.uleb128 0x20
 4390 0a03 CE120000 		.4byte	.LASF138
 4391 0a07 07       		.byte	0x7
 4392 0a08 F8       		.byte	0xf8
 4393 0a09 20       		.byte	0x20
 4394 0a0a DA090000 		.4byte	0x9da
 4395 0a0e 20       		.uleb128 0x20
 4396 0a0f 56160000 		.4byte	.LASF139
 4397 0a13 07       		.byte	0x7
 4398 0a14 FD       		.byte	0xfd
 4399 0a15 20       		.byte	0x20
 4400 0a16 63000000 		.4byte	0x63
ARM GAS  C:\Users\EDULU~1.DES\AppData\Local\Temp\ccxcKTgR.s 			page 134


 4401 0a1a 20       		.uleb128 0x20
 4402 0a1b 92190000 		.4byte	.LASF140
 4403 0a1f 07       		.byte	0x7
 4404 0a20 FE       		.byte	0xfe
 4405 0a21 20       		.byte	0x20
 4406 0a22 63000000 		.4byte	0x63
 4407 0a26 1F       		.uleb128 0x1f
 4408 0a27 FE190000 		.4byte	.LASF141
 4409 0a2b 07       		.byte	0x7
 4410 0a2c 0001     		.2byte	0x100
 4411 0a2e 20       		.byte	0x20
 4412 0a2f CE090000 		.4byte	0x9ce
 4413 0a33 1F       		.uleb128 0x1f
 4414 0a34 59150000 		.4byte	.LASF142
 4415 0a38 07       		.byte	0x7
 4416 0a39 0101     		.2byte	0x101
 4417 0a3b 20       		.byte	0x20
 4418 0a3c CE090000 		.4byte	0x9ce
 4419 0a40 1F       		.uleb128 0x1f
 4420 0a41 BB0E0000 		.4byte	.LASF143
 4421 0a45 07       		.byte	0x7
 4422 0a46 0201     		.2byte	0x102
 4423 0a48 20       		.byte	0x20
 4424 0a49 CE090000 		.4byte	0x9ce
 4425 0a4d 1F       		.uleb128 0x1f
 4426 0a4e 14120000 		.4byte	.LASF144
 4427 0a52 07       		.byte	0x7
 4428 0a53 0301     		.2byte	0x103
 4429 0a55 20       		.byte	0x20
 4430 0a56 CE090000 		.4byte	0x9ce
 4431 0a5a 1F       		.uleb128 0x1f
 4432 0a5b 52080000 		.4byte	.LASF145
 4433 0a5f 07       		.byte	0x7
 4434 0a60 0401     		.2byte	0x104
 4435 0a62 20       		.byte	0x20
 4436 0a63 CE090000 		.4byte	0x9ce
 4437 0a67 02       		.uleb128 0x2
 4438 0a68 7D0D0000 		.4byte	.LASF146
 4439 0a6c 08       		.byte	0x8
 4440 0a6d 30       		.byte	0x30
 4441 0a6e 1B       		.byte	0x1b
 4442 0a6f 63000000 		.4byte	0x63
 4443 0a73 02       		.uleb128 0x2
 4444 0a74 C61A0000 		.4byte	.LASF147
 4445 0a78 08       		.byte	0x8
 4446 0a79 32       		.byte	0x32
 4447 0a7a 1B       		.byte	0x1b
 4448 0a7b 7D000000 		.4byte	0x7d
 4449 0a7f 02       		.uleb128 0x2
 4450 0a80 7B0B0000 		.4byte	.LASF148
 4451 0a84 08       		.byte	0x8
 4452 0a85 34       		.byte	0x34
 4453 0a86 1B       		.byte	0x1b
 4454 0a87 7D000000 		.4byte	0x7d
 4455 0a8b 02       		.uleb128 0x2
 4456 0a8c 76020000 		.4byte	.LASF149
 4457 0a90 08       		.byte	0x8
ARM GAS  C:\Users\EDULU~1.DES\AppData\Local\Temp\ccxcKTgR.s 			page 135


 4458 0a91 3A       		.byte	0x3a
 4459 0a92 1B       		.byte	0x1b
 4460 0a93 7D000000 		.4byte	0x7d
 4461 0a97 02       		.uleb128 0x2
 4462 0a98 DE1C0000 		.4byte	.LASF150
 4463 0a9c 08       		.byte	0x8
 4464 0a9d 3F       		.byte	0x3f
 4465 0a9e 1B       		.byte	0x1b
 4466 0a9f 63000000 		.4byte	0x63
 4467 0aa3 02       		.uleb128 0x2
 4468 0aa4 6E120000 		.4byte	.LASF151
 4469 0aa8 08       		.byte	0x8
 4470 0aa9 40       		.byte	0x40
 4471 0aaa 1B       		.byte	0x1b
 4472 0aab 63000000 		.4byte	0x63
 4473 0aaf 04       		.uleb128 0x4
 4474 0ab0 A30A0000 		.4byte	0xaa3
 4475 0ab4 02       		.uleb128 0x2
 4476 0ab5 0B110000 		.4byte	.LASF152
 4477 0ab9 08       		.byte	0x8
 4478 0aba 42       		.byte	0x42
 4479 0abb 1B       		.byte	0x1b
 4480 0abc 50000000 		.4byte	0x50
 4481 0ac0 02       		.uleb128 0x2
 4482 0ac1 950E0000 		.4byte	.LASF153
 4483 0ac5 08       		.byte	0x8
 4484 0ac6 44       		.byte	0x44
 4485 0ac7 1B       		.byte	0x1b
 4486 0ac8 63000000 		.4byte	0x63
 4487 0acc 04       		.uleb128 0x4
 4488 0acd C00A0000 		.4byte	0xac0
 4489 0ad1 02       		.uleb128 0x2
 4490 0ad2 EF070000 		.4byte	.LASF154
 4491 0ad6 08       		.byte	0x8
 4492 0ad7 45       		.byte	0x45
 4493 0ad8 1B       		.byte	0x1b
 4494 0ad9 7D000000 		.4byte	0x7d
 4495 0add 02       		.uleb128 0x2
 4496 0ade 6C030000 		.4byte	.LASF155
 4497 0ae2 08       		.byte	0x8
 4498 0ae3 47       		.byte	0x47
 4499 0ae4 1B       		.byte	0x1b
 4500 0ae5 63000000 		.4byte	0x63
 4501 0ae9 02       		.uleb128 0x2
 4502 0aea AB0F0000 		.4byte	.LASF156
 4503 0aee 08       		.byte	0x8
 4504 0aef 49       		.byte	0x49
 4505 0af0 1B       		.byte	0x1b
 4506 0af1 50000000 		.4byte	0x50
 4507 0af5 04       		.uleb128 0x4
 4508 0af6 E90A0000 		.4byte	0xae9
 4509 0afa 02       		.uleb128 0x2
 4510 0afb DA160000 		.4byte	.LASF157
 4511 0aff 08       		.byte	0x8
 4512 0b00 4D       		.byte	0x4d
 4513 0b01 1B       		.byte	0x1b
 4514 0b02 7D000000 		.4byte	0x7d
ARM GAS  C:\Users\EDULU~1.DES\AppData\Local\Temp\ccxcKTgR.s 			page 136


 4515 0b06 04       		.uleb128 0x4
 4516 0b07 FA0A0000 		.4byte	0xafa
 4517 0b0b 02       		.uleb128 0x2
 4518 0b0c 7A0A0000 		.4byte	.LASF158
 4519 0b10 08       		.byte	0x8
 4520 0b11 4F       		.byte	0x4f
 4521 0b12 1B       		.byte	0x1b
 4522 0b13 7D000000 		.4byte	0x7d
 4523 0b17 02       		.uleb128 0x2
 4524 0b18 74050000 		.4byte	.LASF159
 4525 0b1c 08       		.byte	0x8
 4526 0b1d 50       		.byte	0x50
 4527 0b1e 1B       		.byte	0x1b
 4528 0b1f 50000000 		.4byte	0x50
 4529 0b23 02       		.uleb128 0x2
 4530 0b24 A1100000 		.4byte	.LASF160
 4531 0b28 08       		.byte	0x8
 4532 0b29 52       		.byte	0x52
 4533 0b2a 1B       		.byte	0x1b
 4534 0b2b 7D000000 		.4byte	0x7d
 4535 0b2f 02       		.uleb128 0x2
 4536 0b30 D9070000 		.4byte	.LASF161
 4537 0b34 08       		.byte	0x8
 4538 0b35 54       		.byte	0x54
 4539 0b36 1B       		.byte	0x1b
 4540 0b37 50000000 		.4byte	0x50
 4541 0b3b 02       		.uleb128 0x2
 4542 0b3c C0130000 		.4byte	.LASF162
 4543 0b40 08       		.byte	0x8
 4544 0b41 56       		.byte	0x56
 4545 0b42 1B       		.byte	0x1b
 4546 0b43 50000000 		.4byte	0x50
 4547 0b47 02       		.uleb128 0x2
 4548 0b48 CC0F0000 		.4byte	.LASF163
 4549 0b4c 08       		.byte	0x8
 4550 0b4d 58       		.byte	0x58
 4551 0b4e 1B       		.byte	0x1b
 4552 0b4f 7D000000 		.4byte	0x7d
 4553 0b53 20       		.uleb128 0x20
 4554 0b54 98060000 		.4byte	.LASF164
 4555 0b58 09       		.byte	0x9
 4556 0b59 95       		.byte	0x95
 4557 0b5a 17       		.byte	0x17
 4558 0b5b 5F0B0000 		.4byte	0xb5f
 4559 0b5f 06       		.uleb128 0x6
 4560 0b60 04       		.byte	0x4
 4561 0b61 EA000000 		.4byte	0xea
 4562 0b65 04       		.uleb128 0x4
 4563 0b66 5F0B0000 		.4byte	0xb5f
 4564 0b6a 21       		.uleb128 0x21
 4565 0b6b 5A140000 		.4byte	.LASF559
 4566 0b6f 07       		.byte	0x7
 4567 0b70 02       		.byte	0x2
 4568 0b71 6F000000 		.4byte	0x6f
 4569 0b75 0A       		.byte	0xa
 4570 0b76 A501     		.2byte	0x1a5
 4571 0b78 10       		.byte	0x10
ARM GAS  C:\Users\EDULU~1.DES\AppData\Local\Temp\ccxcKTgR.s 			page 137


 4572 0b79 E40F0000 		.4byte	0xfe4
 4573 0b7d 22       		.uleb128 0x22
 4574 0b7e 580F0000 		.4byte	.LASF165
 4575 0b82 00       		.byte	0
 4576 0b83 23       		.uleb128 0x23
 4577 0b84 A7050000 		.4byte	.LASF166
 4578 0b88 1027     		.2byte	0x2710
 4579 0b8a 23       		.uleb128 0x23
 4580 0b8b 9F080000 		.4byte	.LASF167
 4581 0b8f 1127     		.2byte	0x2711
 4582 0b91 23       		.uleb128 0x23
 4583 0b92 B0050000 		.4byte	.LASF168
 4584 0b96 F82A     		.2byte	0x2af8
 4585 0b98 23       		.uleb128 0x23
 4586 0b99 B9050000 		.4byte	.LASF169
 4587 0b9d E02E     		.2byte	0x2ee0
 4588 0b9f 23       		.uleb128 0x23
 4589 0ba0 F80D0000 		.4byte	.LASF170
 4590 0ba4 E12E     		.2byte	0x2ee1
 4591 0ba6 23       		.uleb128 0x23
 4592 0ba7 C2050000 		.4byte	.LASF171
 4593 0bab C832     		.2byte	0x32c8
 4594 0bad 23       		.uleb128 0x23
 4595 0bae CD1A0000 		.4byte	.LASF172
 4596 0bb2 C932     		.2byte	0x32c9
 4597 0bb4 23       		.uleb128 0x23
 4598 0bb5 CB050000 		.4byte	.LASF173
 4599 0bb9 B036     		.2byte	0x36b0
 4600 0bbb 23       		.uleb128 0x23
 4601 0bbc D4050000 		.4byte	.LASF174
 4602 0bc0 983A     		.2byte	0x3a98
 4603 0bc2 23       		.uleb128 0x23
 4604 0bc3 8C050000 		.4byte	.LASF175
 4605 0bc7 993A     		.2byte	0x3a99
 4606 0bc9 23       		.uleb128 0x23
 4607 0bca FD0C0000 		.4byte	.LASF176
 4608 0bce FD3A     		.2byte	0x3afd
 4609 0bd0 23       		.uleb128 0x23
 4610 0bd1 EB060000 		.4byte	.LASF177
 4611 0bd5 FE3A     		.2byte	0x3afe
 4612 0bd7 23       		.uleb128 0x23
 4613 0bd8 621C0000 		.4byte	.LASF178
 4614 0bdc FF3A     		.2byte	0x3aff
 4615 0bde 23       		.uleb128 0x23
 4616 0bdf 48150000 		.4byte	.LASF179
 4617 0be3 003B     		.2byte	0x3b00
 4618 0be5 23       		.uleb128 0x23
 4619 0be6 DE000000 		.4byte	.LASF180
 4620 0bea 803E     		.2byte	0x3e80
 4621 0bec 23       		.uleb128 0x23
 4622 0bed EA050000 		.4byte	.LASF181
 4623 0bf1 6842     		.2byte	0x4268
 4624 0bf3 23       		.uleb128 0x23
 4625 0bf4 F3050000 		.4byte	.LASF182
 4626 0bf8 5046     		.2byte	0x4650
 4627 0bfa 23       		.uleb128 0x23
 4628 0bfb 90110000 		.4byte	.LASF183
ARM GAS  C:\Users\EDULU~1.DES\AppData\Local\Temp\ccxcKTgR.s 			page 138


 4629 0bff 5146     		.2byte	0x4651
 4630 0c01 23       		.uleb128 0x23
 4631 0c02 801E0000 		.4byte	.LASF184
 4632 0c06 5246     		.2byte	0x4652
 4633 0c08 23       		.uleb128 0x23
 4634 0c09 94040000 		.4byte	.LASF185
 4635 0c0d 5346     		.2byte	0x4653
 4636 0c0f 23       		.uleb128 0x23
 4637 0c10 D2180000 		.4byte	.LASF186
 4638 0c14 5446     		.2byte	0x4654
 4639 0c16 23       		.uleb128 0x23
 4640 0c17 C50A0000 		.4byte	.LASF187
 4641 0c1b 5546     		.2byte	0x4655
 4642 0c1d 23       		.uleb128 0x23
 4643 0c1e E40A0000 		.4byte	.LASF188
 4644 0c22 5646     		.2byte	0x4656
 4645 0c24 23       		.uleb128 0x23
 4646 0c25 FD000000 		.4byte	.LASF189
 4647 0c29 384A     		.2byte	0x4a38
 4648 0c2b 23       		.uleb128 0x23
 4649 0c2c 08060000 		.4byte	.LASF190
 4650 0c30 204E     		.2byte	0x4e20
 4651 0c32 23       		.uleb128 0x23
 4652 0c33 11060000 		.4byte	.LASF191
 4653 0c37 0852     		.2byte	0x5208
 4654 0c39 23       		.uleb128 0x23
 4655 0c3a 7A190000 		.4byte	.LASF192
 4656 0c3e 0952     		.2byte	0x5209
 4657 0c40 23       		.uleb128 0x23
 4658 0c41 1A060000 		.4byte	.LASF193
 4659 0c45 F055     		.2byte	0x55f0
 4660 0c47 23       		.uleb128 0x23
 4661 0c48 FB070000 		.4byte	.LASF194
 4662 0c4c B956     		.2byte	0x56b9
 4663 0c4e 23       		.uleb128 0x23
 4664 0c4f 00000000 		.4byte	.LASF195
 4665 0c53 BA56     		.2byte	0x56ba
 4666 0c55 23       		.uleb128 0x23
 4667 0c56 C6080000 		.4byte	.LASF196
 4668 0c5a BB56     		.2byte	0x56bb
 4669 0c5c 23       		.uleb128 0x23
 4670 0c5d 2D080000 		.4byte	.LASF197
 4671 0c61 BC56     		.2byte	0x56bc
 4672 0c63 23       		.uleb128 0x23
 4673 0c64 1A0B0000 		.4byte	.LASF198
 4674 0c68 BD56     		.2byte	0x56bd
 4675 0c6a 23       		.uleb128 0x23
 4676 0c6b 2F150000 		.4byte	.LASF199
 4677 0c6f BE56     		.2byte	0x56be
 4678 0c71 23       		.uleb128 0x23
 4679 0c72 80120000 		.4byte	.LASF200
 4680 0c76 BF56     		.2byte	0x56bf
 4681 0c78 23       		.uleb128 0x23
 4682 0c79 B7160000 		.4byte	.LASF201
 4683 0c7d C056     		.2byte	0x56c0
 4684 0c7f 23       		.uleb128 0x23
 4685 0c80 43180000 		.4byte	.LASF202
ARM GAS  C:\Users\EDULU~1.DES\AppData\Local\Temp\ccxcKTgR.s 			page 139


 4686 0c84 C156     		.2byte	0x56c1
 4687 0c86 23       		.uleb128 0x23
 4688 0c87 0B040000 		.4byte	.LASF203
 4689 0c8b C256     		.2byte	0x56c2
 4690 0c8d 23       		.uleb128 0x23
 4691 0c8e 8B030000 		.4byte	.LASF204
 4692 0c92 1D57     		.2byte	0x571d
 4693 0c94 23       		.uleb128 0x23
 4694 0c95 771C0000 		.4byte	.LASF205
 4695 0c99 1E57     		.2byte	0x571e
 4696 0c9b 23       		.uleb128 0x23
 4697 0c9c F50E0000 		.4byte	.LASF206
 4698 0ca0 8157     		.2byte	0x5781
 4699 0ca2 23       		.uleb128 0x23
 4700 0ca3 40040000 		.4byte	.LASF207
 4701 0ca7 8257     		.2byte	0x5782
 4702 0ca9 23       		.uleb128 0x23
 4703 0caa FC140000 		.4byte	.LASF208
 4704 0cae 8357     		.2byte	0x5783
 4705 0cb0 23       		.uleb128 0x23
 4706 0cb1 23060000 		.4byte	.LASF209
 4707 0cb5 D859     		.2byte	0x59d8
 4708 0cb7 23       		.uleb128 0x23
 4709 0cb8 95130000 		.4byte	.LASF210
 4710 0cbc D959     		.2byte	0x59d9
 4711 0cbe 23       		.uleb128 0x23
 4712 0cbf 530C0000 		.4byte	.LASF211
 4713 0cc3 DA59     		.2byte	0x59da
 4714 0cc5 23       		.uleb128 0x23
 4715 0cc6 2C060000 		.4byte	.LASF212
 4716 0cca C05D     		.2byte	0x5dc0
 4717 0ccc 23       		.uleb128 0x23
 4718 0ccd B8030000 		.4byte	.LASF213
 4719 0cd1 C15D     		.2byte	0x5dc1
 4720 0cd3 23       		.uleb128 0x23
 4721 0cd4 2E0F0000 		.4byte	.LASF214
 4722 0cd8 C25D     		.2byte	0x5dc2
 4723 0cda 23       		.uleb128 0x23
 4724 0cdb 851D0000 		.4byte	.LASF215
 4725 0cdf C35D     		.2byte	0x5dc3
 4726 0ce1 23       		.uleb128 0x23
 4727 0ce2 EB1E0000 		.4byte	.LASF216
 4728 0ce6 C45D     		.2byte	0x5dc4
 4729 0ce8 23       		.uleb128 0x23
 4730 0ce9 4F1C0000 		.4byte	.LASF217
 4731 0ced 255E     		.2byte	0x5e25
 4732 0cef 23       		.uleb128 0x23
 4733 0cf0 AF120000 		.4byte	.LASF218
 4734 0cf4 895E     		.2byte	0x5e89
 4735 0cf6 23       		.uleb128 0x23
 4736 0cf7 AE130000 		.4byte	.LASF219
 4737 0cfb 8A5E     		.2byte	0x5e8a
 4738 0cfd 23       		.uleb128 0x23
 4739 0cfe 35060000 		.4byte	.LASF220
 4740 0d02 A861     		.2byte	0x61a8
 4741 0d04 23       		.uleb128 0x23
 4742 0d05 04090000 		.4byte	.LASF221
ARM GAS  C:\Users\EDULU~1.DES\AppData\Local\Temp\ccxcKTgR.s 			page 140


 4743 0d09 A961     		.2byte	0x61a9
 4744 0d0b 23       		.uleb128 0x23
 4745 0d0c 160E0000 		.4byte	.LASF222
 4746 0d10 AA61     		.2byte	0x61aa
 4747 0d12 23       		.uleb128 0x23
 4748 0d13 89020000 		.4byte	.LASF223
 4749 0d17 AB61     		.2byte	0x61ab
 4750 0d19 23       		.uleb128 0x23
 4751 0d1a 2C100000 		.4byte	.LASF224
 4752 0d1e AC61     		.2byte	0x61ac
 4753 0d20 23       		.uleb128 0x23
 4754 0d21 1F150000 		.4byte	.LASF225
 4755 0d25 AD61     		.2byte	0x61ad
 4756 0d27 23       		.uleb128 0x23
 4757 0d28 CB040000 		.4byte	.LASF226
 4758 0d2c AE61     		.2byte	0x61ae
 4759 0d2e 23       		.uleb128 0x23
 4760 0d2f F6130000 		.4byte	.LASF227
 4761 0d33 AF61     		.2byte	0x61af
 4762 0d35 23       		.uleb128 0x23
 4763 0d36 331A0000 		.4byte	.LASF228
 4764 0d3a B061     		.2byte	0x61b0
 4765 0d3c 23       		.uleb128 0x23
 4766 0d3d 60130000 		.4byte	.LASF229
 4767 0d41 0D62     		.2byte	0x620d
 4768 0d43 23       		.uleb128 0x23
 4769 0d44 C2060000 		.4byte	.LASF230
 4770 0d48 0E62     		.2byte	0x620e
 4771 0d4a 23       		.uleb128 0x23
 4772 0d4b 941B0000 		.4byte	.LASF231
 4773 0d4f 7162     		.2byte	0x6271
 4774 0d51 23       		.uleb128 0x23
 4775 0d52 741E0000 		.4byte	.LASF232
 4776 0d56 7262     		.2byte	0x6272
 4777 0d58 23       		.uleb128 0x23
 4778 0d59 8B170000 		.4byte	.LASF233
 4779 0d5d 7362     		.2byte	0x6273
 4780 0d5f 23       		.uleb128 0x23
 4781 0d60 F6150000 		.4byte	.LASF234
 4782 0d64 D562     		.2byte	0x62d5
 4783 0d66 23       		.uleb128 0x23
 4784 0d67 3E060000 		.4byte	.LASF235
 4785 0d6b 9065     		.2byte	0x6590
 4786 0d6d 23       		.uleb128 0x23
 4787 0d6e 7B150000 		.4byte	.LASF236
 4788 0d72 9165     		.2byte	0x6591
 4789 0d74 23       		.uleb128 0x23
 4790 0d75 EB1A0000 		.4byte	.LASF237
 4791 0d79 9265     		.2byte	0x6592
 4792 0d7b 23       		.uleb128 0x23
 4793 0d7c E91C0000 		.4byte	.LASF238
 4794 0d80 9365     		.2byte	0x6593
 4795 0d82 23       		.uleb128 0x23
 4796 0d83 E8080000 		.4byte	.LASF239
 4797 0d87 9465     		.2byte	0x6594
 4798 0d89 23       		.uleb128 0x23
 4799 0d8a 47060000 		.4byte	.LASF240
ARM GAS  C:\Users\EDULU~1.DES\AppData\Local\Temp\ccxcKTgR.s 			page 141


 4800 0d8e 7869     		.2byte	0x6978
 4801 0d90 23       		.uleb128 0x23
 4802 0d91 B7170000 		.4byte	.LASF241
 4803 0d95 7969     		.2byte	0x6979
 4804 0d97 23       		.uleb128 0x23
 4805 0d98 7C010000 		.4byte	.LASF242
 4806 0d9c 7A69     		.2byte	0x697a
 4807 0d9e 23       		.uleb128 0x23
 4808 0d9f 3D1D0000 		.4byte	.LASF243
 4809 0da3 7B69     		.2byte	0x697b
 4810 0da5 23       		.uleb128 0x23
 4811 0da6 50060000 		.4byte	.LASF244
 4812 0daa 606D     		.2byte	0x6d60
 4813 0dac 23       		.uleb128 0x23
 4814 0dad 75130000 		.4byte	.LASF245
 4815 0db1 616D     		.2byte	0x6d61
 4816 0db3 23       		.uleb128 0x23
 4817 0db4 07200000 		.4byte	.LASF246
 4818 0db8 626D     		.2byte	0x6d62
 4819 0dba 23       		.uleb128 0x23
 4820 0dbb A0010000 		.4byte	.LASF247
 4821 0dbf 636D     		.2byte	0x6d63
 4822 0dc1 23       		.uleb128 0x23
 4823 0dc2 460B0000 		.4byte	.LASF248
 4824 0dc6 646D     		.2byte	0x6d64
 4825 0dc8 23       		.uleb128 0x23
 4826 0dc9 360A0000 		.4byte	.LASF249
 4827 0dcd 656D     		.2byte	0x6d65
 4828 0dcf 23       		.uleb128 0x23
 4829 0dd0 91010000 		.4byte	.LASF250
 4830 0dd4 C56D     		.2byte	0x6dc5
 4831 0dd6 23       		.uleb128 0x23
 4832 0dd7 3D140000 		.4byte	.LASF251
 4833 0ddb C66D     		.2byte	0x6dc6
 4834 0ddd 23       		.uleb128 0x23
 4835 0dde 441B0000 		.4byte	.LASF252
 4836 0de2 296E     		.2byte	0x6e29
 4837 0de4 23       		.uleb128 0x23
 4838 0de5 20110000 		.4byte	.LASF253
 4839 0de9 2A6E     		.2byte	0x6e2a
 4840 0deb 23       		.uleb128 0x23
 4841 0dec 48020000 		.4byte	.LASF254
 4842 0df0 2B6E     		.2byte	0x6e2b
 4843 0df2 23       		.uleb128 0x23
 4844 0df3 52090000 		.4byte	.LASF255
 4845 0df7 2C6E     		.2byte	0x6e2c
 4846 0df9 23       		.uleb128 0x23
 4847 0dfa C4070000 		.4byte	.LASF256
 4848 0dfe 2D6E     		.2byte	0x6e2d
 4849 0e00 23       		.uleb128 0x23
 4850 0e01 4E190000 		.4byte	.LASF257
 4851 0e05 2E6E     		.2byte	0x6e2e
 4852 0e07 23       		.uleb128 0x23
 4853 0e08 22130000 		.4byte	.LASF258
 4854 0e0c 2F6E     		.2byte	0x6e2f
 4855 0e0e 23       		.uleb128 0x23
 4856 0e0f 20090000 		.4byte	.LASF259
ARM GAS  C:\Users\EDULU~1.DES\AppData\Local\Temp\ccxcKTgR.s 			page 142


 4857 0e13 306E     		.2byte	0x6e30
 4858 0e15 23       		.uleb128 0x23
 4859 0e16 6A110000 		.4byte	.LASF260
 4860 0e1a 316E     		.2byte	0x6e31
 4861 0e1c 23       		.uleb128 0x23
 4862 0e1d 59060000 		.4byte	.LASF261
 4863 0e21 4871     		.2byte	0x7148
 4864 0e23 23       		.uleb128 0x23
 4865 0e24 021F0000 		.4byte	.LASF262
 4866 0e28 4971     		.2byte	0x7149
 4867 0e2a 23       		.uleb128 0x23
 4868 0e2b E60C0000 		.4byte	.LASF263
 4869 0e2f 4A71     		.2byte	0x714a
 4870 0e31 23       		.uleb128 0x23
 4871 0e32 AD140000 		.4byte	.LASF264
 4872 0e36 4B71     		.2byte	0x714b
 4873 0e38 23       		.uleb128 0x23
 4874 0e39 5F1E0000 		.4byte	.LASF265
 4875 0e3d 4C71     		.2byte	0x714c
 4876 0e3f 23       		.uleb128 0x23
 4877 0e40 62180000 		.4byte	.LASF266
 4878 0e44 4D71     		.2byte	0x714d
 4879 0e46 23       		.uleb128 0x23
 4880 0e47 8D100000 		.4byte	.LASF267
 4881 0e4b 4E71     		.2byte	0x714e
 4882 0e4d 23       		.uleb128 0x23
 4883 0e4e 5A1B0000 		.4byte	.LASF268
 4884 0e52 4F71     		.2byte	0x714f
 4885 0e54 23       		.uleb128 0x23
 4886 0e55 33030000 		.4byte	.LASF269
 4887 0e59 5071     		.2byte	0x7150
 4888 0e5b 23       		.uleb128 0x23
 4889 0e5c A10D0000 		.4byte	.LASF270
 4890 0e60 5171     		.2byte	0x7151
 4891 0e62 23       		.uleb128 0x23
 4892 0e63 D1140000 		.4byte	.LASF271
 4893 0e67 5271     		.2byte	0x7152
 4894 0e69 23       		.uleb128 0x23
 4895 0e6a 38090000 		.4byte	.LASF272
 4896 0e6e 5371     		.2byte	0x7153
 4897 0e70 23       		.uleb128 0x23
 4898 0e71 B4070000 		.4byte	.LASF273
 4899 0e75 5471     		.2byte	0x7154
 4900 0e77 23       		.uleb128 0x23
 4901 0e78 8A0D0000 		.4byte	.LASF274
 4902 0e7c 5571     		.2byte	0x7155
 4903 0e7e 23       		.uleb128 0x23
 4904 0e7f 14160000 		.4byte	.LASF275
 4905 0e83 5671     		.2byte	0x7156
 4906 0e85 23       		.uleb128 0x23
 4907 0e86 A0150000 		.4byte	.LASF276
 4908 0e8a 5771     		.2byte	0x7157
 4909 0e8c 23       		.uleb128 0x23
 4910 0e8d B61E0000 		.4byte	.LASF277
 4911 0e91 5871     		.2byte	0x7158
 4912 0e93 23       		.uleb128 0x23
 4913 0e94 370E0000 		.4byte	.LASF278
ARM GAS  C:\Users\EDULU~1.DES\AppData\Local\Temp\ccxcKTgR.s 			page 143


 4914 0e98 5971     		.2byte	0x7159
 4915 0e9a 23       		.uleb128 0x23
 4916 0e9b 05050000 		.4byte	.LASF279
 4917 0e9f 5A71     		.2byte	0x715a
 4918 0ea1 23       		.uleb128 0x23
 4919 0ea2 6D140000 		.4byte	.LASF280
 4920 0ea6 5B71     		.2byte	0x715b
 4921 0ea8 23       		.uleb128 0x23
 4922 0ea9 A4190000 		.4byte	.LASF281
 4923 0ead 5C71     		.2byte	0x715c
 4924 0eaf 23       		.uleb128 0x23
 4925 0eb0 020B0000 		.4byte	.LASF282
 4926 0eb4 5D71     		.2byte	0x715d
 4927 0eb6 23       		.uleb128 0x23
 4928 0eb7 FE1D0000 		.4byte	.LASF283
 4929 0ebb 5E71     		.2byte	0x715e
 4930 0ebd 23       		.uleb128 0x23
 4931 0ebe F31B0000 		.4byte	.LASF284
 4932 0ec2 5F71     		.2byte	0x715f
 4933 0ec4 23       		.uleb128 0x23
 4934 0ec5 78030000 		.4byte	.LASF285
 4935 0ec9 AD71     		.2byte	0x71ad
 4936 0ecb 23       		.uleb128 0x23
 4937 0ecc 60020000 		.4byte	.LASF286
 4938 0ed0 C071     		.2byte	0x71c0
 4939 0ed2 23       		.uleb128 0x23
 4940 0ed3 31040000 		.4byte	.LASF287
 4941 0ed7 C171     		.2byte	0x71c1
 4942 0ed9 23       		.uleb128 0x23
 4943 0eda 4F0E0000 		.4byte	.LASF288
 4944 0ede C271     		.2byte	0x71c2
 4945 0ee0 23       		.uleb128 0x23
 4946 0ee1 4D1E0000 		.4byte	.LASF289
 4947 0ee5 C371     		.2byte	0x71c3
 4948 0ee7 23       		.uleb128 0x23
 4949 0ee8 E0090000 		.4byte	.LASF290
 4950 0eec C471     		.2byte	0x71c4
 4951 0eee 23       		.uleb128 0x23
 4952 0eef 371F0000 		.4byte	.LASF291
 4953 0ef3 1172     		.2byte	0x7211
 4954 0ef5 23       		.uleb128 0x23
 4955 0ef6 591D0000 		.4byte	.LASF292
 4956 0efa 1272     		.2byte	0x7212
 4957 0efc 23       		.uleb128 0x23
 4958 0efd 0C070000 		.4byte	.LASF293
 4959 0f01 1372     		.2byte	0x7213
 4960 0f03 23       		.uleb128 0x23
 4961 0f04 991D0000 		.4byte	.LASF294
 4962 0f08 1472     		.2byte	0x7214
 4963 0f0a 23       		.uleb128 0x23
 4964 0f0b B01D0000 		.4byte	.LASF295
 4965 0f0f 7572     		.2byte	0x7275
 4966 0f11 23       		.uleb128 0x23
 4967 0f12 AC090000 		.4byte	.LASF296
 4968 0f16 7672     		.2byte	0x7276
 4969 0f18 23       		.uleb128 0x23
 4970 0f19 E51F0000 		.4byte	.LASF297
ARM GAS  C:\Users\EDULU~1.DES\AppData\Local\Temp\ccxcKTgR.s 			page 144


 4971 0f1d 7772     		.2byte	0x7277
 4972 0f1f 23       		.uleb128 0x23
 4973 0f20 940A0000 		.4byte	.LASF298
 4974 0f24 7872     		.2byte	0x7278
 4975 0f26 23       		.uleb128 0x23
 4976 0f27 790E0000 		.4byte	.LASF299
 4977 0f2b 7972     		.2byte	0x7279
 4978 0f2d 23       		.uleb128 0x23
 4979 0f2e E40B0000 		.4byte	.LASF300
 4980 0f32 7A72     		.2byte	0x727a
 4981 0f34 23       		.uleb128 0x23
 4982 0f35 DD190000 		.4byte	.LASF301
 4983 0f39 7B72     		.2byte	0x727b
 4984 0f3b 23       		.uleb128 0x23
 4985 0f3c 1F030000 		.4byte	.LASF302
 4986 0f40 7C72     		.2byte	0x727c
 4987 0f42 23       		.uleb128 0x23
 4988 0f43 711D0000 		.4byte	.LASF303
 4989 0f47 7D72     		.2byte	0x727d
 4990 0f49 23       		.uleb128 0x23
 4991 0f4a AD060000 		.4byte	.LASF304
 4992 0f4e 7E72     		.2byte	0x727e
 4993 0f50 23       		.uleb128 0x23
 4994 0f51 440C0000 		.4byte	.LASF305
 4995 0f55 D972     		.2byte	0x72d9
 4996 0f57 23       		.uleb128 0x23
 4997 0f58 6E1B0000 		.4byte	.LASF306
 4998 0f5c 3D73     		.2byte	0x733d
 4999 0f5e 23       		.uleb128 0x23
 5000 0f5f 94090000 		.4byte	.LASF307
 5001 0f63 3E73     		.2byte	0x733e
 5002 0f65 23       		.uleb128 0x23
 5003 0f66 F4110000 		.4byte	.LASF308
 5004 0f6a 3F73     		.2byte	0x733f
 5005 0f6c 23       		.uleb128 0x23
 5006 0f6d BB1B0000 		.4byte	.LASF309
 5007 0f71 4073     		.2byte	0x7340
 5008 0f73 23       		.uleb128 0x23
 5009 0f74 C7090000 		.4byte	.LASF310
 5010 0f78 4173     		.2byte	0x7341
 5011 0f7a 23       		.uleb128 0x23
 5012 0f7b D8100000 		.4byte	.LASF311
 5013 0f7f 4273     		.2byte	0x7342
 5014 0f81 23       		.uleb128 0x23
 5015 0f82 2E1D0000 		.4byte	.LASF312
 5016 0f86 4373     		.2byte	0x7343
 5017 0f88 23       		.uleb128 0x23
 5018 0f89 D1150000 		.4byte	.LASF313
 5019 0f8d 4473     		.2byte	0x7344
 5020 0f8f 23       		.uleb128 0x23
 5021 0f90 2B0D0000 		.4byte	.LASF314
 5022 0f94 4573     		.2byte	0x7345
 5023 0f96 23       		.uleb128 0x23
 5024 0f97 2D010000 		.4byte	.LASF315
 5025 0f9b 4673     		.2byte	0x7346
 5026 0f9d 23       		.uleb128 0x23
 5027 0f9e 71000000 		.4byte	.LASF316
ARM GAS  C:\Users\EDULU~1.DES\AppData\Local\Temp\ccxcKTgR.s 			page 145


 5028 0fa2 4773     		.2byte	0x7347
 5029 0fa4 23       		.uleb128 0x23
 5030 0fa5 9B160000 		.4byte	.LASF317
 5031 0fa9 4873     		.2byte	0x7348
 5032 0fab 23       		.uleb128 0x23
 5033 0fac 06010000 		.4byte	.LASF318
 5034 0fb0 4973     		.2byte	0x7349
 5035 0fb2 23       		.uleb128 0x23
 5036 0fb3 62060000 		.4byte	.LASF319
 5037 0fb7 3075     		.2byte	0x7530
 5038 0fb9 23       		.uleb128 0x23
 5039 0fba 6B060000 		.4byte	.LASF320
 5040 0fbe 1879     		.2byte	0x7918
 5041 0fc0 23       		.uleb128 0x23
 5042 0fc1 74060000 		.4byte	.LASF321
 5043 0fc5 007D     		.2byte	0x7d00
 5044 0fc7 23       		.uleb128 0x23
 5045 0fc8 7D060000 		.4byte	.LASF322
 5046 0fcc E880     		.2byte	0x80e8
 5047 0fce 23       		.uleb128 0x23
 5048 0fcf 86060000 		.4byte	.LASF323
 5049 0fd3 D084     		.2byte	0x84d0
 5050 0fd5 23       		.uleb128 0x23
 5051 0fd6 7C100000 		.4byte	.LASF324
 5052 0fda D184     		.2byte	0x84d1
 5053 0fdc 23       		.uleb128 0x23
 5054 0fdd 8F060000 		.4byte	.LASF325
 5055 0fe1 B888     		.2byte	0x88b8
 5056 0fe3 00       		.byte	0
 5057 0fe4 0B       		.uleb128 0xb
 5058 0fe5 E8040000 		.4byte	.LASF326
 5059 0fe9 0A       		.byte	0xa
 5060 0fea 7202     		.2byte	0x272
 5061 0fec 03       		.byte	0x3
 5062 0fed 6A0B0000 		.4byte	0xb6a
 5063 0ff1 0B       		.uleb128 0xb
 5064 0ff2 241A0000 		.4byte	.LASF327
 5065 0ff6 0A       		.byte	0xa
 5066 0ff7 8202     		.2byte	0x282
 5067 0ff9 26       		.byte	0x26
 5068 0ffa FE0F0000 		.4byte	0xffe
 5069 0ffe 1B       		.uleb128 0x1b
 5070 0fff FD080000 		.4byte	.LASF328
 5071 1003 10       		.byte	0x10
 5072 1004 0A       		.byte	0xa
 5073 1005 4003     		.2byte	0x340
 5074 1007 09       		.byte	0x9
 5075 1008 45100000 		.4byte	0x1045
 5076 100c 19       		.uleb128 0x19
 5077 100d 2B1A0000 		.4byte	.LASF329
 5078 1011 0A       		.byte	0xa
 5079 1012 4103     		.2byte	0x341
 5080 1014 1A       		.byte	0x1a
 5081 1015 23160000 		.4byte	0x1623
 5082 1019 00       		.byte	0
 5083 101a 19       		.uleb128 0x19
 5084 101b 64010000 		.4byte	.LASF330
ARM GAS  C:\Users\EDULU~1.DES\AppData\Local\Temp\ccxcKTgR.s 			page 146


 5085 101f 0A       		.byte	0xa
 5086 1020 4203     		.2byte	0x342
 5087 1022 1A       		.byte	0x1a
 5088 1023 D0000000 		.4byte	0xd0
 5089 1027 04       		.byte	0x4
 5090 1028 19       		.uleb128 0x19
 5091 1029 A61B0000 		.4byte	.LASF331
 5092 102d 0A       		.byte	0xa
 5093 102e 4303     		.2byte	0x343
 5094 1030 1A       		.byte	0x1a
 5095 1031 A30A0000 		.4byte	0xaa3
 5096 1035 08       		.byte	0x8
 5097 1036 19       		.uleb128 0x19
 5098 1037 B1080000 		.4byte	.LASF332
 5099 103b 0A       		.byte	0xa
 5100 103c 4403     		.2byte	0x344
 5101 103e 1A       		.byte	0x1a
 5102 103f C2090000 		.4byte	0x9c2
 5103 1043 0C       		.byte	0xc
 5104 1044 00       		.byte	0
 5105 1045 0B       		.uleb128 0xb
 5106 1046 781F0000 		.4byte	.LASF333
 5107 104a 0A       		.byte	0xa
 5108 104b 8802     		.2byte	0x288
 5109 104d 26       		.byte	0x26
 5110 104e 52100000 		.4byte	0x1052
 5111 1052 0C       		.uleb128 0xc
 5112 1053 39110000 		.4byte	.LASF334
 5113 1057 0B       		.uleb128 0xb
 5114 1058 A41F0000 		.4byte	.LASF335
 5115 105c 0A       		.byte	0xa
 5116 105d 8C02     		.2byte	0x28c
 5117 105f 26       		.byte	0x26
 5118 1060 64100000 		.4byte	0x1064
 5119 1064 1B       		.uleb128 0x1b
 5120 1065 D7010000 		.4byte	.LASF336
 5121 1069 28       		.byte	0x28
 5122 106a 0A       		.byte	0xa
 5123 106b 9503     		.2byte	0x395
 5124 106d 09       		.byte	0x9
 5125 106e E2100000 		.4byte	0x10e2
 5126 1072 19       		.uleb128 0x19
 5127 1073 0D130000 		.4byte	.LASF337
 5128 1077 0A       		.byte	0xa
 5129 1078 9703     		.2byte	0x397
 5130 107a 1A       		.byte	0x1a
 5131 107b D10A0000 		.4byte	0xad1
 5132 107f 00       		.byte	0
 5133 1080 19       		.uleb128 0x19
 5134 1081 BE1A0000 		.4byte	.LASF338
 5135 1085 0A       		.byte	0xa
 5136 1086 9803     		.2byte	0x398
 5137 1088 1A       		.byte	0x1a
 5138 1089 1D160000 		.4byte	0x161d
 5139 108d 04       		.byte	0x4
 5140 108e 19       		.uleb128 0x19
 5141 108f 3B0C0000 		.4byte	.LASF339
ARM GAS  C:\Users\EDULU~1.DES\AppData\Local\Temp\ccxcKTgR.s 			page 147


 5142 1093 0A       		.byte	0xa
 5143 1094 9903     		.2byte	0x399
 5144 1096 1A       		.byte	0x1a
 5145 1097 55150000 		.4byte	0x1555
 5146 109b 08       		.byte	0x8
 5147 109c 19       		.uleb128 0x19
 5148 109d 3D070000 		.4byte	.LASF340
 5149 10a1 0A       		.byte	0xa
 5150 10a2 9B03     		.2byte	0x39b
 5151 10a4 1A       		.byte	0x1a
 5152 10a5 2E160000 		.4byte	0x162e
 5153 10a9 14       		.byte	0x14
 5154 10aa 19       		.uleb128 0x19
 5155 10ab 3D1C0000 		.4byte	.LASF341
 5156 10af 0A       		.byte	0xa
 5157 10b0 9C03     		.2byte	0x39c
 5158 10b2 1A       		.byte	0x1a
 5159 10b3 2E160000 		.4byte	0x162e
 5160 10b7 18       		.byte	0x18
 5161 10b8 19       		.uleb128 0x19
 5162 10b9 D2060000 		.4byte	.LASF342
 5163 10bd 0A       		.byte	0xa
 5164 10be 9D03     		.2byte	0x39d
 5165 10c0 1A       		.byte	0x1a
 5166 10c1 1D160000 		.4byte	0x161d
 5167 10c5 1C       		.byte	0x1c
 5168 10c6 24       		.uleb128 0x24
 5169 10c7 43747200 		.ascii	"Ctr\000"
 5170 10cb 0A       		.byte	0xa
 5171 10cc A003     		.2byte	0x3a0
 5172 10ce 1A       		.byte	0x1a
 5173 10cf 230B0000 		.4byte	0xb23
 5174 10d3 20       		.byte	0x20
 5175 10d4 24       		.uleb128 0x24
 5176 10d5 545300   		.ascii	"TS\000"
 5177 10d8 0A       		.byte	0xa
 5178 10d9 A103     		.2byte	0x3a1
 5179 10db 1A       		.byte	0x1a
 5180 10dc C2090000 		.4byte	0x9c2
 5181 10e0 24       		.byte	0x24
 5182 10e1 00       		.byte	0
 5183 10e2 0B       		.uleb128 0xb
 5184 10e3 A41C0000 		.4byte	.LASF343
 5185 10e7 0A       		.byte	0xa
 5186 10e8 8E02     		.2byte	0x28e
 5187 10ea 26       		.byte	0x26
 5188 10eb BF000000 		.4byte	0xbf
 5189 10ef 0B       		.uleb128 0xb
 5190 10f0 19010000 		.4byte	.LASF344
 5191 10f4 0A       		.byte	0xa
 5192 10f5 9002     		.2byte	0x290
 5193 10f7 26       		.byte	0x26
 5194 10f8 FC100000 		.4byte	0x10fc
 5195 10fc 1B       		.uleb128 0x1b
 5196 10fd 82020000 		.4byte	.LASF345
 5197 1101 7C       		.byte	0x7c
 5198 1102 0A       		.byte	0xa
ARM GAS  C:\Users\EDULU~1.DES\AppData\Local\Temp\ccxcKTgR.s 			page 148


 5199 1103 AB03     		.2byte	0x3ab
 5200 1105 08       		.byte	0x8
 5201 1106 F4120000 		.4byte	0x12f4
 5202 110a 19       		.uleb128 0x19
 5203 110b 6E070000 		.4byte	.LASF346
 5204 110f 0A       		.byte	0xa
 5205 1110 AC03     		.2byte	0x3ac
 5206 1112 1A       		.byte	0x1a
 5207 1113 5F0B0000 		.4byte	0xb5f
 5208 1117 00       		.byte	0
 5209 1118 19       		.uleb128 0x19
 5210 1119 E2070000 		.4byte	.LASF347
 5211 111d 0A       		.byte	0xa
 5212 111e AE03     		.2byte	0x3ae
 5213 1120 1A       		.byte	0x1a
 5214 1121 D0000000 		.4byte	0xd0
 5215 1125 04       		.byte	0x4
 5216 1126 19       		.uleb128 0x19
 5217 1127 77090000 		.4byte	.LASF348
 5218 112b 0A       		.byte	0xa
 5219 112c B003     		.2byte	0x3b0
 5220 112e 1A       		.byte	0x1a
 5221 112f 5F0B0000 		.4byte	0xb5f
 5222 1133 08       		.byte	0x8
 5223 1134 19       		.uleb128 0x19
 5224 1135 2B1A0000 		.4byte	.LASF329
 5225 1139 0A       		.byte	0xa
 5226 113a B203     		.2byte	0x3b2
 5227 113c 1A       		.byte	0x1a
 5228 113d 0B160000 		.4byte	0x160b
 5229 1141 0C       		.byte	0xc
 5230 1142 19       		.uleb128 0x19
 5231 1143 39190000 		.4byte	.LASF349
 5232 1147 0A       		.byte	0xa
 5233 1148 B303     		.2byte	0x3b3
 5234 114a 1A       		.byte	0x1a
 5235 114b 0B160000 		.4byte	0x160b
 5236 114f 10       		.byte	0x10
 5237 1150 19       		.uleb128 0x19
 5238 1151 45000000 		.4byte	.LASF350
 5239 1155 0A       		.byte	0xa
 5240 1156 B503     		.2byte	0x3b5
 5241 1158 1A       		.byte	0x1a
 5242 1159 0B160000 		.4byte	0x160b
 5243 115d 14       		.byte	0x14
 5244 115e 19       		.uleb128 0x19
 5245 115f 320B0000 		.4byte	.LASF351
 5246 1163 0A       		.byte	0xa
 5247 1164 B603     		.2byte	0x3b6
 5248 1166 1A       		.byte	0x1a
 5249 1167 0B160000 		.4byte	0x160b
 5250 116b 18       		.byte	0x18
 5251 116c 19       		.uleb128 0x19
 5252 116d 41190000 		.4byte	.LASF352
 5253 1171 0A       		.byte	0xa
 5254 1172 B803     		.2byte	0x3b8
 5255 1174 1A       		.byte	0x1a
ARM GAS  C:\Users\EDULU~1.DES\AppData\Local\Temp\ccxcKTgR.s 			page 149


 5256 1175 34160000 		.4byte	0x1634
 5257 1179 1C       		.byte	0x1c
 5258 117a 19       		.uleb128 0x19
 5259 117b BE1A0000 		.4byte	.LASF338
 5260 117f 0A       		.byte	0xa
 5261 1180 BA03     		.2byte	0x3ba
 5262 1182 1A       		.byte	0x1a
 5263 1183 1D160000 		.4byte	0x161d
 5264 1187 20       		.byte	0x20
 5265 1188 19       		.uleb128 0x19
 5266 1189 071C0000 		.4byte	.LASF353
 5267 118d 0A       		.byte	0xa
 5268 118e BC03     		.2byte	0x3bc
 5269 1190 1A       		.byte	0x1a
 5270 1191 5F0B0000 		.4byte	0xb5f
 5271 1195 24       		.byte	0x24
 5272 1196 19       		.uleb128 0x19
 5273 1197 4C140000 		.4byte	.LASF354
 5274 119b 0A       		.byte	0xa
 5275 119c C203     		.2byte	0x3c2
 5276 119e 1A       		.byte	0x1a
 5277 119f E2100000 		.4byte	0x10e2
 5278 11a3 28       		.byte	0x28
 5279 11a4 19       		.uleb128 0x19
 5280 11a5 B3180000 		.4byte	.LASF355
 5281 11a9 0A       		.byte	0xa
 5282 11aa C303     		.2byte	0x3c3
 5283 11ac 1A       		.byte	0x1a
 5284 11ad D0000000 		.4byte	0xd0
 5285 11b1 2C       		.byte	0x2c
 5286 11b2 19       		.uleb128 0x19
 5287 11b3 B7080000 		.4byte	.LASF356
 5288 11b7 0A       		.byte	0xa
 5289 11b8 C503     		.2byte	0x3c5
 5290 11ba 1A       		.byte	0x1a
 5291 11bb 11160000 		.4byte	0x1611
 5292 11bf 30       		.byte	0x30
 5293 11c0 19       		.uleb128 0x19
 5294 11c1 A7170000 		.4byte	.LASF357
 5295 11c5 0A       		.byte	0xa
 5296 11c6 C603     		.2byte	0x3c6
 5297 11c8 1A       		.byte	0x1a
 5298 11c9 2F0B0000 		.4byte	0xb2f
 5299 11cd 34       		.byte	0x34
 5300 11ce 19       		.uleb128 0x19
 5301 11cf DE1B0000 		.4byte	.LASF358
 5302 11d3 0A       		.byte	0xa
 5303 11d4 C703     		.2byte	0x3c7
 5304 11d6 1A       		.byte	0x1a
 5305 11d7 3B0B0000 		.4byte	0xb3b
 5306 11db 35       		.byte	0x35
 5307 11dc 19       		.uleb128 0x19
 5308 11dd AF110000 		.4byte	.LASF359
 5309 11e1 0A       		.byte	0xa
 5310 11e2 C903     		.2byte	0x3c9
 5311 11e4 1A       		.byte	0x1a
 5312 11e5 2F0B0000 		.4byte	0xb2f
ARM GAS  C:\Users\EDULU~1.DES\AppData\Local\Temp\ccxcKTgR.s 			page 150


 5313 11e9 36       		.byte	0x36
 5314 11ea 19       		.uleb128 0x19
 5315 11eb CA1E0000 		.4byte	.LASF360
 5316 11ef 0A       		.byte	0xa
 5317 11f0 CA03     		.2byte	0x3ca
 5318 11f2 1A       		.byte	0x1a
 5319 11f3 E90A0000 		.4byte	0xae9
 5320 11f7 37       		.byte	0x37
 5321 11f8 19       		.uleb128 0x19
 5322 11f9 500F0000 		.4byte	.LASF361
 5323 11fd 0A       		.byte	0xa
 5324 11fe CB03     		.2byte	0x3cb
 5325 1200 1A       		.byte	0x1a
 5326 1201 F6000000 		.4byte	0xf6
 5327 1205 38       		.byte	0x38
 5328 1206 24       		.uleb128 0x24
 5329 1207 4F707400 		.ascii	"Opt\000"
 5330 120b 0A       		.byte	0xa
 5331 120c CC03     		.2byte	0x3cc
 5332 120e 1A       		.byte	0x1a
 5333 120f DD0A0000 		.4byte	0xadd
 5334 1213 3C       		.byte	0x3c
 5335 1214 19       		.uleb128 0x19
 5336 1215 51000000 		.4byte	.LASF362
 5337 1219 0A       		.byte	0xa
 5338 121a CE03     		.2byte	0x3ce
 5339 121c 1A       		.byte	0x1a
 5340 121d C00A0000 		.4byte	0xac0
 5341 1221 3E       		.byte	0x3e
 5342 1222 24       		.uleb128 0x24
 5343 1223 545300   		.ascii	"TS\000"
 5344 1226 0A       		.byte	0xa
 5345 1227 D003     		.2byte	0x3d0
 5346 1229 1A       		.byte	0x1a
 5347 122a C2090000 		.4byte	0x9c2
 5348 122e 40       		.byte	0x40
 5349 122f 19       		.uleb128 0x19
 5350 1230 FB1E0000 		.4byte	.LASF363
 5351 1234 0A       		.byte	0xa
 5352 1235 D203     		.2byte	0x3d2
 5353 1237 1A       		.byte	0x1a
 5354 1238 230B0000 		.4byte	0xb23
 5355 123c 44       		.byte	0x44
 5356 123d 19       		.uleb128 0x19
 5357 123e 0C030000 		.4byte	.LASF364
 5358 1242 0A       		.byte	0xa
 5359 1243 D503     		.2byte	0x3d5
 5360 1245 1A       		.byte	0x1a
 5361 1246 470B0000 		.4byte	0xb47
 5362 124a 48       		.byte	0x48
 5363 124b 19       		.uleb128 0x19
 5364 124c E9130000 		.4byte	.LASF365
 5365 1250 0A       		.byte	0xa
 5366 1251 D603     		.2byte	0x3d6
 5367 1253 1A       		.byte	0x1a
 5368 1254 470B0000 		.4byte	0xb47
 5369 1258 4C       		.byte	0x4c
ARM GAS  C:\Users\EDULU~1.DES\AppData\Local\Temp\ccxcKTgR.s 			page 151


 5370 1259 19       		.uleb128 0x19
 5371 125a 70080000 		.4byte	.LASF366
 5372 125e 0A       		.byte	0xa
 5373 125f D703     		.2byte	0x3d7
 5374 1261 1A       		.byte	0x1a
 5375 1262 470B0000 		.4byte	0xb47
 5376 1266 50       		.byte	0x50
 5377 1267 19       		.uleb128 0x19
 5378 1268 640F0000 		.4byte	.LASF367
 5379 126c 0A       		.byte	0xa
 5380 126d D903     		.2byte	0x3d9
 5381 126f 1A       		.byte	0x1a
 5382 1270 470B0000 		.4byte	0xb47
 5383 1274 54       		.byte	0x54
 5384 1275 19       		.uleb128 0x19
 5385 1276 53040000 		.4byte	.LASF368
 5386 127a 0A       		.byte	0xa
 5387 127b DA03     		.2byte	0x3da
 5388 127d 1A       		.byte	0x1a
 5389 127e 470B0000 		.4byte	0xb47
 5390 1282 58       		.byte	0x58
 5391 1283 19       		.uleb128 0x19
 5392 1284 61040000 		.4byte	.LASF369
 5393 1288 0A       		.byte	0xa
 5394 1289 EA03     		.2byte	0x3ea
 5395 128b 1A       		.byte	0x1a
 5396 128c 3A160000 		.4byte	0x163a
 5397 1290 5C       		.byte	0x5c
 5398 1291 19       		.uleb128 0x19
 5399 1292 D1020000 		.4byte	.LASF370
 5400 1296 0A       		.byte	0xa
 5401 1297 F403     		.2byte	0x3f4
 5402 1299 1A       		.byte	0x1a
 5403 129a B40A0000 		.4byte	0xab4
 5404 129e 60       		.byte	0x60
 5405 129f 19       		.uleb128 0x19
 5406 12a0 AC1A0000 		.4byte	.LASF371
 5407 12a4 0A       		.byte	0xa
 5408 12a5 0504     		.2byte	0x405
 5409 12a7 1A       		.byte	0x1a
 5410 12a8 F6000000 		.4byte	0xf6
 5411 12ac 64       		.byte	0x64
 5412 12ad 19       		.uleb128 0x19
 5413 12ae A70E0000 		.4byte	.LASF372
 5414 12b2 0A       		.byte	0xa
 5415 12b3 0604     		.2byte	0x406
 5416 12b5 1A       		.byte	0x1a
 5417 12b6 F6000000 		.4byte	0xf6
 5418 12ba 68       		.byte	0x68
 5419 12bb 19       		.uleb128 0x19
 5420 12bc 2C180000 		.4byte	.LASF373
 5421 12c0 0A       		.byte	0xa
 5422 12c1 0A04     		.2byte	0x40a
 5423 12c3 1A       		.byte	0x1a
 5424 12c4 C2090000 		.4byte	0x9c2
 5425 12c8 6C       		.byte	0x6c
 5426 12c9 19       		.uleb128 0x19
ARM GAS  C:\Users\EDULU~1.DES\AppData\Local\Temp\ccxcKTgR.s 			page 152


 5427 12ca 3D070000 		.4byte	.LASF340
 5428 12ce 0A       		.byte	0xa
 5429 12cf 1104     		.2byte	0x411
 5430 12d1 1A       		.byte	0x1a
 5431 12d2 0B160000 		.4byte	0x160b
 5432 12d6 70       		.byte	0x70
 5433 12d7 19       		.uleb128 0x19
 5434 12d8 3D1C0000 		.4byte	.LASF341
 5435 12dc 0A       		.byte	0xa
 5436 12dd 1204     		.2byte	0x412
 5437 12df 1A       		.byte	0x1a
 5438 12e0 0B160000 		.4byte	0x160b
 5439 12e4 74       		.byte	0x74
 5440 12e5 19       		.uleb128 0x19
 5441 12e6 D2060000 		.4byte	.LASF342
 5442 12ea 0A       		.byte	0xa
 5443 12eb 1304     		.2byte	0x413
 5444 12ed 1A       		.byte	0x1a
 5445 12ee 1D160000 		.4byte	0x161d
 5446 12f2 78       		.byte	0x78
 5447 12f3 00       		.byte	0
 5448 12f4 0B       		.uleb128 0xb
 5449 12f5 501F0000 		.4byte	.LASF374
 5450 12f9 0A       		.byte	0xa
 5451 12fa 9C02     		.2byte	0x29c
 5452 12fc 26       		.byte	0x26
 5453 12fd 01130000 		.4byte	0x1301
 5454 1301 1B       		.uleb128 0x1b
 5455 1302 1C0A0000 		.4byte	.LASF375
 5456 1306 0C       		.byte	0xc
 5457 1307 0A       		.byte	0xa
 5458 1308 D002     		.2byte	0x2d0
 5459 130a 09       		.byte	0x9
 5460 130b 3A130000 		.4byte	0x133a
 5461 130f 19       		.uleb128 0x19
 5462 1310 AC070000 		.4byte	.LASF376
 5463 1314 0A       		.byte	0xa
 5464 1315 D102     		.2byte	0x2d1
 5465 1317 1A       		.byte	0x1a
 5466 1318 0B160000 		.4byte	0x160b
 5467 131c 00       		.byte	0
 5468 131d 19       		.uleb128 0x19
 5469 131e E0080000 		.4byte	.LASF377
 5470 1322 0A       		.byte	0xa
 5471 1323 D202     		.2byte	0x2d2
 5472 1325 1A       		.byte	0x1a
 5473 1326 0B160000 		.4byte	0x160b
 5474 132a 04       		.byte	0x4
 5475 132b 19       		.uleb128 0x19
 5476 132c 891B0000 		.4byte	.LASF378
 5477 1330 0A       		.byte	0xa
 5478 1331 D302     		.2byte	0x2d3
 5479 1333 1A       		.byte	0x1a
 5480 1334 C00A0000 		.4byte	0xac0
 5481 1338 08       		.byte	0x8
 5482 1339 00       		.byte	0
 5483 133a 0B       		.uleb128 0xb
ARM GAS  C:\Users\EDULU~1.DES\AppData\Local\Temp\ccxcKTgR.s 			page 153


 5484 133b 1E180000 		.4byte	.LASF379
 5485 133f 0A       		.byte	0xa
 5486 1340 9E02     		.2byte	0x29e
 5487 1342 26       		.byte	0x26
 5488 1343 47130000 		.4byte	0x1347
 5489 1347 1B       		.uleb128 0x1b
 5490 1348 6E100000 		.4byte	.LASF380
 5491 134c 08       		.byte	0x8
 5492 134d 0A       		.byte	0xa
 5493 134e 1E04     		.2byte	0x41e
 5494 1350 09       		.byte	0x9
 5495 1351 80130000 		.4byte	0x1380
 5496 1355 19       		.uleb128 0x19
 5497 1356 2E120000 		.4byte	.LASF381
 5498 135a 0A       		.byte	0xa
 5499 135b 1F04     		.2byte	0x41f
 5500 135d 1A       		.byte	0x1a
 5501 135e 0B160000 		.4byte	0x160b
 5502 1362 00       		.byte	0
 5503 1363 19       		.uleb128 0x19
 5504 1364 891B0000 		.4byte	.LASF378
 5505 1368 0A       		.byte	0xa
 5506 1369 2004     		.2byte	0x420
 5507 136b 1A       		.byte	0x1a
 5508 136c C00A0000 		.4byte	0xac0
 5509 1370 04       		.byte	0x4
 5510 1371 19       		.uleb128 0x19
 5511 1372 EE140000 		.4byte	.LASF382
 5512 1376 0A       		.byte	0xa
 5513 1377 2104     		.2byte	0x421
 5514 1379 1A       		.byte	0x1a
 5515 137a C00A0000 		.4byte	0xac0
 5516 137e 06       		.byte	0x6
 5517 137f 00       		.byte	0
 5518 1380 0B       		.uleb128 0xb
 5519 1381 B50D0000 		.4byte	.LASF383
 5520 1385 0A       		.byte	0xa
 5521 1386 A002     		.2byte	0x2a0
 5522 1388 26       		.byte	0x26
 5523 1389 8D130000 		.4byte	0x138d
 5524 138d 06       		.uleb128 0x6
 5525 138e 04       		.byte	0x4
 5526 138f 93130000 		.4byte	0x1393
 5527 1393 08       		.uleb128 0x8
 5528 1394 A3130000 		.4byte	0x13a3
 5529 1398 09       		.uleb128 0x9
 5530 1399 D0000000 		.4byte	0xd0
 5531 139d 09       		.uleb128 0x9
 5532 139e D0000000 		.4byte	0xd0
 5533 13a2 00       		.byte	0
 5534 13a3 0B       		.uleb128 0xb
 5535 13a4 D1000000 		.4byte	.LASF384
 5536 13a8 0A       		.byte	0xa
 5537 13a9 A102     		.2byte	0x2a1
 5538 13ab 26       		.byte	0x26
 5539 13ac B0130000 		.4byte	0x13b0
 5540 13b0 1B       		.uleb128 0x1b
ARM GAS  C:\Users\EDULU~1.DES\AppData\Local\Temp\ccxcKTgR.s 			page 154


 5541 13b1 4A100000 		.4byte	.LASF385
 5542 13b5 34       		.byte	0x34
 5543 13b6 0A       		.byte	0xa
 5544 13b7 2B04     		.2byte	0x42b
 5545 13b9 09       		.byte	0x9
 5546 13ba 83140000 		.4byte	0x1483
 5547 13be 19       		.uleb128 0x19
 5548 13bf 0D130000 		.4byte	.LASF337
 5549 13c3 0A       		.byte	0xa
 5550 13c4 2C04     		.2byte	0x42c
 5551 13c6 1A       		.byte	0x1a
 5552 13c7 D10A0000 		.4byte	0xad1
 5553 13cb 00       		.byte	0
 5554 13cc 19       		.uleb128 0x19
 5555 13cd BE1A0000 		.4byte	.LASF338
 5556 13d1 0A       		.byte	0xa
 5557 13d2 2D04     		.2byte	0x42d
 5558 13d4 1A       		.byte	0x1a
 5559 13d5 1D160000 		.4byte	0x161d
 5560 13d9 04       		.byte	0x4
 5561 13da 19       		.uleb128 0x19
 5562 13db BF010000 		.4byte	.LASF386
 5563 13df 0A       		.byte	0xa
 5564 13e0 2E04     		.2byte	0x42e
 5565 13e2 1A       		.byte	0x1a
 5566 13e3 80130000 		.4byte	0x1380
 5567 13e7 08       		.byte	0x8
 5568 13e8 19       		.uleb128 0x19
 5569 13e9 65050000 		.4byte	.LASF387
 5570 13ed 0A       		.byte	0xa
 5571 13ee 2F04     		.2byte	0x42f
 5572 13f0 1A       		.byte	0x1a
 5573 13f1 D0000000 		.4byte	0xd0
 5574 13f5 0C       		.byte	0xc
 5575 13f6 19       		.uleb128 0x19
 5576 13f7 2B1A0000 		.4byte	.LASF329
 5577 13fb 0A       		.byte	0xa
 5578 13fc 3004     		.2byte	0x430
 5579 13fe 1A       		.byte	0x1a
 5580 13ff 4A160000 		.4byte	0x164a
 5581 1403 10       		.byte	0x10
 5582 1404 19       		.uleb128 0x19
 5583 1405 39190000 		.4byte	.LASF349
 5584 1409 0A       		.byte	0xa
 5585 140a 3104     		.2byte	0x431
 5586 140c 1A       		.byte	0x1a
 5587 140d 4A160000 		.4byte	0x164a
 5588 1411 14       		.byte	0x14
 5589 1412 19       		.uleb128 0x19
 5590 1413 8E090000 		.4byte	.LASF388
 5591 1417 0A       		.byte	0xa
 5592 1418 3204     		.2byte	0x432
 5593 141a 1A       		.byte	0x1a
 5594 141b 470B0000 		.4byte	0xb47
 5595 141f 18       		.byte	0x18
 5596 1420 19       		.uleb128 0x19
 5597 1421 8C080000 		.4byte	.LASF389
ARM GAS  C:\Users\EDULU~1.DES\AppData\Local\Temp\ccxcKTgR.s 			page 155


 5598 1425 0A       		.byte	0xa
 5599 1426 3304     		.2byte	0x433
 5600 1428 1A       		.byte	0x1a
 5601 1429 470B0000 		.4byte	0xb47
 5602 142d 1C       		.byte	0x1c
 5603 142e 24       		.uleb128 0x24
 5604 142f 446C7900 		.ascii	"Dly\000"
 5605 1433 0A       		.byte	0xa
 5606 1434 3404     		.2byte	0x434
 5607 1436 1A       		.byte	0x1a
 5608 1437 470B0000 		.4byte	0xb47
 5609 143b 20       		.byte	0x20
 5610 143c 19       		.uleb128 0x19
 5611 143d 821B0000 		.4byte	.LASF390
 5612 1441 0A       		.byte	0xa
 5613 1442 3504     		.2byte	0x435
 5614 1444 1A       		.byte	0x1a
 5615 1445 470B0000 		.4byte	0xb47
 5616 1449 24       		.byte	0x24
 5617 144a 24       		.uleb128 0x24
 5618 144b 4F707400 		.ascii	"Opt\000"
 5619 144f 0A       		.byte	0xa
 5620 1450 3604     		.2byte	0x436
 5621 1452 1A       		.byte	0x1a
 5622 1453 DD0A0000 		.4byte	0xadd
 5623 1457 28       		.byte	0x28
 5624 1458 19       		.uleb128 0x19
 5625 1459 20010000 		.4byte	.LASF391
 5626 145d 0A       		.byte	0xa
 5627 145e 3704     		.2byte	0x437
 5628 1460 1A       		.byte	0x1a
 5629 1461 2F0B0000 		.4byte	0xb2f
 5630 1465 2A       		.byte	0x2a
 5631 1466 19       		.uleb128 0x19
 5632 1467 3D070000 		.4byte	.LASF340
 5633 146b 0A       		.byte	0xa
 5634 146c 3904     		.2byte	0x439
 5635 146e 1A       		.byte	0x1a
 5636 146f 4A160000 		.4byte	0x164a
 5637 1473 2C       		.byte	0x2c
 5638 1474 19       		.uleb128 0x19
 5639 1475 3D1C0000 		.4byte	.LASF341
 5640 1479 0A       		.byte	0xa
 5641 147a 3A04     		.2byte	0x43a
 5642 147c 1A       		.byte	0x1a
 5643 147d 4A160000 		.4byte	0x164a
 5644 1481 30       		.byte	0x30
 5645 1482 00       		.byte	0
 5646 1483 0B       		.uleb128 0xb
 5647 1484 AE1B0000 		.4byte	.LASF392
 5648 1488 0A       		.byte	0xa
 5649 1489 A202     		.2byte	0x2a2
 5650 148b 26       		.byte	0x26
 5651 148c 90140000 		.4byte	0x1490
 5652 1490 1B       		.uleb128 0x1b
 5653 1491 70160000 		.4byte	.LASF393
 5654 1495 08       		.byte	0x8
ARM GAS  C:\Users\EDULU~1.DES\AppData\Local\Temp\ccxcKTgR.s 			page 156


 5655 1496 0A       		.byte	0xa
 5656 1497 4004     		.2byte	0x440
 5657 1499 09       		.byte	0x9
 5658 149a C9140000 		.4byte	0x14c9
 5659 149e 19       		.uleb128 0x19
 5660 149f 2E120000 		.4byte	.LASF381
 5661 14a3 0A       		.byte	0xa
 5662 14a4 4104     		.2byte	0x441
 5663 14a6 1A       		.byte	0x1a
 5664 14a7 4A160000 		.4byte	0x164a
 5665 14ab 00       		.byte	0
 5666 14ac 19       		.uleb128 0x19
 5667 14ad 891B0000 		.4byte	.LASF378
 5668 14b1 0A       		.byte	0xa
 5669 14b2 4204     		.2byte	0x442
 5670 14b4 1A       		.byte	0x1a
 5671 14b5 C00A0000 		.4byte	0xac0
 5672 14b9 04       		.byte	0x4
 5673 14ba 19       		.uleb128 0x19
 5674 14bb EE140000 		.4byte	.LASF382
 5675 14bf 0A       		.byte	0xa
 5676 14c0 4304     		.2byte	0x443
 5677 14c2 1A       		.byte	0x1a
 5678 14c3 C00A0000 		.4byte	0xac0
 5679 14c7 06       		.byte	0x6
 5680 14c8 00       		.byte	0
 5681 14c9 0B       		.uleb128 0xb
 5682 14ca B10B0000 		.4byte	.LASF394
 5683 14ce 0A       		.byte	0xa
 5684 14cf A502     		.2byte	0x2a5
 5685 14d1 26       		.byte	0x26
 5686 14d2 D6140000 		.4byte	0x14d6
 5687 14d6 1B       		.uleb128 0x1b
 5688 14d7 CB030000 		.4byte	.LASF395
 5689 14db 20       		.byte	0x20
 5690 14dc 0A       		.byte	0xa
 5691 14dd DD02     		.2byte	0x2dd
 5692 14df 09       		.byte	0x9
 5693 14e0 55150000 		.4byte	0x1555
 5694 14e4 19       		.uleb128 0x19
 5695 14e5 39190000 		.4byte	.LASF349
 5696 14e9 0A       		.byte	0xa
 5697 14ea DE02     		.2byte	0x2de
 5698 14ec 1A       		.byte	0x1a
 5699 14ed 11160000 		.4byte	0x1611
 5700 14f1 00       		.byte	0
 5701 14f2 19       		.uleb128 0x19
 5702 14f3 2B1A0000 		.4byte	.LASF329
 5703 14f7 0A       		.byte	0xa
 5704 14f8 DF02     		.2byte	0x2df
 5705 14fa 1A       		.byte	0x1a
 5706 14fb 11160000 		.4byte	0x1611
 5707 14ff 04       		.byte	0x4
 5708 1500 19       		.uleb128 0x19
 5709 1501 E1040000 		.4byte	.LASF396
 5710 1505 0A       		.byte	0xa
 5711 1506 E002     		.2byte	0x2e0
ARM GAS  C:\Users\EDULU~1.DES\AppData\Local\Temp\ccxcKTgR.s 			page 157


 5712 1508 1A       		.byte	0x1a
 5713 1509 0B160000 		.4byte	0x160b
 5714 150d 08       		.byte	0x8
 5715 150e 19       		.uleb128 0x19
 5716 150f 4B1A0000 		.4byte	.LASF397
 5717 1513 0A       		.byte	0xa
 5718 1514 E102     		.2byte	0x2e1
 5719 1516 1A       		.byte	0x1a
 5720 1517 17160000 		.4byte	0x1617
 5721 151b 0C       		.byte	0xc
 5722 151c 19       		.uleb128 0x19
 5723 151d 71150000 		.4byte	.LASF398
 5724 1521 0A       		.byte	0xa
 5725 1522 E202     		.2byte	0x2e2
 5726 1524 1A       		.byte	0x1a
 5727 1525 17160000 		.4byte	0x1617
 5728 1529 10       		.byte	0x10
 5729 152a 19       		.uleb128 0x19
 5730 152b C51F0000 		.4byte	.LASF399
 5731 152f 0A       		.byte	0xa
 5732 1530 E302     		.2byte	0x2e3
 5733 1532 1A       		.byte	0x1a
 5734 1533 D0000000 		.4byte	0xd0
 5735 1537 14       		.byte	0x14
 5736 1538 19       		.uleb128 0x19
 5737 1539 DE130000 		.4byte	.LASF400
 5738 153d 0A       		.byte	0xa
 5739 153e E402     		.2byte	0x2e4
 5740 1540 1A       		.byte	0x1a
 5741 1541 A30A0000 		.4byte	0xaa3
 5742 1545 18       		.byte	0x18
 5743 1546 19       		.uleb128 0x19
 5744 1547 EE110000 		.4byte	.LASF401
 5745 154b 0A       		.byte	0xa
 5746 154c E502     		.2byte	0x2e5
 5747 154e 1A       		.byte	0x1a
 5748 154f C2090000 		.4byte	0x9c2
 5749 1553 1C       		.byte	0x1c
 5750 1554 00       		.byte	0
 5751 1555 0B       		.uleb128 0xb
 5752 1556 64000000 		.4byte	.LASF402
 5753 155a 0A       		.byte	0xa
 5754 155b A602     		.2byte	0x2a6
 5755 155d 26       		.byte	0x26
 5756 155e 62150000 		.4byte	0x1562
 5757 1562 1B       		.uleb128 0x1b
 5758 1563 CB1D0000 		.4byte	.LASF403
 5759 1567 0C       		.byte	0xc
 5760 1568 0A       		.byte	0xa
 5761 1569 E902     		.2byte	0x2e9
 5762 156b 09       		.byte	0x9
 5763 156c 9B150000 		.4byte	0x159b
 5764 1570 19       		.uleb128 0x19
 5765 1571 AC070000 		.4byte	.LASF376
 5766 1575 0A       		.byte	0xa
 5767 1576 EA02     		.2byte	0x2ea
 5768 1578 1A       		.byte	0x1a
ARM GAS  C:\Users\EDULU~1.DES\AppData\Local\Temp\ccxcKTgR.s 			page 158


 5769 1579 11160000 		.4byte	0x1611
 5770 157d 00       		.byte	0
 5771 157e 19       		.uleb128 0x19
 5772 157f E0080000 		.4byte	.LASF377
 5773 1583 0A       		.byte	0xa
 5774 1584 EB02     		.2byte	0x2eb
 5775 1586 1A       		.byte	0x1a
 5776 1587 11160000 		.4byte	0x1611
 5777 158b 04       		.byte	0x4
 5778 158c 19       		.uleb128 0x19
 5779 158d 891B0000 		.4byte	.LASF378
 5780 1591 0A       		.byte	0xa
 5781 1592 EC02     		.2byte	0x2ec
 5782 1594 1A       		.byte	0x1a
 5783 1595 C00A0000 		.4byte	0xac0
 5784 1599 08       		.byte	0x8
 5785 159a 00       		.byte	0
 5786 159b 0B       		.uleb128 0xb
 5787 159c 0A0E0000 		.4byte	.LASF404
 5788 15a0 0A       		.byte	0xa
 5789 15a1 A702     		.2byte	0x2a7
 5790 15a3 26       		.byte	0x26
 5791 15a4 A8150000 		.4byte	0x15a8
 5792 15a8 1B       		.uleb128 0x1b
 5793 15a9 BD140000 		.4byte	.LASF405
 5794 15ad 20       		.byte	0x20
 5795 15ae 0A       		.byte	0xa
 5796 15af FF02     		.2byte	0x2ff
 5797 15b1 09       		.byte	0x9
 5798 15b2 0B160000 		.4byte	0x160b
 5799 15b6 19       		.uleb128 0x19
 5800 15b7 0D130000 		.4byte	.LASF337
 5801 15bb 0A       		.byte	0xa
 5802 15bc 0003     		.2byte	0x300
 5803 15be 1A       		.byte	0x1a
 5804 15bf D10A0000 		.4byte	0xad1
 5805 15c3 00       		.byte	0
 5806 15c4 19       		.uleb128 0x19
 5807 15c5 BE1A0000 		.4byte	.LASF338
 5808 15c9 0A       		.byte	0xa
 5809 15ca 0103     		.2byte	0x301
 5810 15cc 1A       		.byte	0x1a
 5811 15cd 1D160000 		.4byte	0x161d
 5812 15d1 04       		.byte	0x4
 5813 15d2 19       		.uleb128 0x19
 5814 15d3 3B0C0000 		.4byte	.LASF339
 5815 15d7 0A       		.byte	0xa
 5816 15d8 0203     		.2byte	0x302
 5817 15da 1A       		.byte	0x1a
 5818 15db 55150000 		.4byte	0x1555
 5819 15df 08       		.byte	0x8
 5820 15e0 19       		.uleb128 0x19
 5821 15e1 3D070000 		.4byte	.LASF340
 5822 15e5 0A       		.byte	0xa
 5823 15e6 0403     		.2byte	0x304
 5824 15e8 1A       		.byte	0x1a
 5825 15e9 D0000000 		.4byte	0xd0
ARM GAS  C:\Users\EDULU~1.DES\AppData\Local\Temp\ccxcKTgR.s 			page 159


 5826 15ed 14       		.byte	0x14
 5827 15ee 19       		.uleb128 0x19
 5828 15ef 3D1C0000 		.4byte	.LASF341
 5829 15f3 0A       		.byte	0xa
 5830 15f4 0503     		.2byte	0x305
 5831 15f6 1A       		.byte	0x1a
 5832 15f7 D0000000 		.4byte	0xd0
 5833 15fb 18       		.byte	0x18
 5834 15fc 19       		.uleb128 0x19
 5835 15fd D2060000 		.4byte	.LASF342
 5836 1601 0A       		.byte	0xa
 5837 1602 0603     		.2byte	0x306
 5838 1604 1A       		.byte	0x1a
 5839 1605 1D160000 		.4byte	0x161d
 5840 1609 1C       		.byte	0x1c
 5841 160a 00       		.byte	0
 5842 160b 06       		.uleb128 0x6
 5843 160c 04       		.byte	0x4
 5844 160d EF100000 		.4byte	0x10ef
 5845 1611 06       		.uleb128 0x6
 5846 1612 04       		.byte	0x4
 5847 1613 C9140000 		.4byte	0x14c9
 5848 1617 06       		.uleb128 0x6
 5849 1618 04       		.byte	0x4
 5850 1619 9B150000 		.4byte	0x159b
 5851 161d 06       		.uleb128 0x6
 5852 161e 04       		.byte	0x4
 5853 161f 25000000 		.4byte	0x25
 5854 1623 06       		.uleb128 0x6
 5855 1624 04       		.byte	0x4
 5856 1625 F10F0000 		.4byte	0xff1
 5857 1629 04       		.uleb128 0x4
 5858 162a 23160000 		.4byte	0x1623
 5859 162e 06       		.uleb128 0x6
 5860 162f 04       		.byte	0x4
 5861 1630 57100000 		.4byte	0x1057
 5862 1634 06       		.uleb128 0x6
 5863 1635 04       		.byte	0x4
 5864 1636 3A130000 		.4byte	0x133a
 5865 163a 0F       		.uleb128 0xf
 5866 163b 0B0B0000 		.4byte	0xb0b
 5867 163f 4A160000 		.4byte	0x164a
 5868 1643 10       		.uleb128 0x10
 5869 1644 8E000000 		.4byte	0x8e
 5870 1648 00       		.byte	0
 5871 1649 00       		.byte	0
 5872 164a 06       		.uleb128 0x6
 5873 164b 04       		.byte	0x4
 5874 164c A3130000 		.4byte	0x13a3
 5875 1650 1F       		.uleb128 0x1f
 5876 1651 BE000000 		.4byte	.LASF406
 5877 1655 0A       		.byte	0xa
 5878 1656 5B04     		.2byte	0x45b
 5879 1658 2D       		.byte	0x2d
 5880 1659 8B0A0000 		.4byte	0xa8b
 5881 165d 1F       		.uleb128 0x1f
 5882 165e 851A0000 		.4byte	.LASF407
ARM GAS  C:\Users\EDULU~1.DES\AppData\Local\Temp\ccxcKTgR.s 			page 160


 5883 1662 0A       		.byte	0xa
 5884 1663 5C04     		.2byte	0x45c
 5885 1665 2D       		.byte	0x2d
 5886 1666 EF100000 		.4byte	0x10ef
 5887 166a 1F       		.uleb128 0x1f
 5888 166b 95070000 		.4byte	.LASF408
 5889 166f 0A       		.byte	0xa
 5890 1670 5F04     		.2byte	0x45f
 5891 1672 2D       		.byte	0x2d
 5892 1673 B40A0000 		.4byte	0xab4
 5893 1677 1F       		.uleb128 0x1f
 5894 1678 D1110000 		.4byte	.LASF409
 5895 167c 0A       		.byte	0xa
 5896 167d 6104     		.2byte	0x461
 5897 167f 2D       		.byte	0x2d
 5898 1680 C2090000 		.4byte	0x9c2
 5899 1684 1F       		.uleb128 0x1f
 5900 1685 D81D0000 		.4byte	.LASF410
 5901 1689 0A       		.byte	0xa
 5902 168a 6404     		.2byte	0x464
 5903 168c 2D       		.byte	0x2d
 5904 168d 2F0B0000 		.4byte	0xb2f
 5905 1691 1F       		.uleb128 0x1f
 5906 1692 03100000 		.4byte	.LASF411
 5907 1696 0A       		.byte	0xa
 5908 1697 9004     		.2byte	0x490
 5909 1699 2D       		.byte	0x2d
 5910 169a E90A0000 		.4byte	0xae9
 5911 169e 1F       		.uleb128 0x1f
 5912 169f 51100000 		.4byte	.LASF412
 5913 16a3 0A       		.byte	0xa
 5914 16a4 9104     		.2byte	0x491
 5915 16a6 2D       		.byte	0x2d
 5916 16a7 E90A0000 		.4byte	0xae9
 5917 16ab 1F       		.uleb128 0x1f
 5918 16ac 7A180000 		.4byte	.LASF413
 5919 16b0 0A       		.byte	0xa
 5920 16b1 9204     		.2byte	0x492
 5921 16b3 2D       		.byte	0x2d
 5922 16b4 E90A0000 		.4byte	0xae9
 5923 16b8 0F       		.uleb128 0xf
 5924 16b9 DE000000 		.4byte	0xde
 5925 16bd C8160000 		.4byte	0x16c8
 5926 16c1 10       		.uleb128 0x10
 5927 16c2 8E000000 		.4byte	0x8e
 5928 16c6 00       		.byte	0
 5929 16c7 00       		.byte	0
 5930 16c8 1F       		.uleb128 0x1f
 5931 16c9 16090000 		.4byte	.LASF414
 5932 16cd 0A       		.byte	0xa
 5933 16ce 9304     		.2byte	0x493
 5934 16d0 2D       		.byte	0x2d
 5935 16d1 B8160000 		.4byte	0x16b8
 5936 16d5 0F       		.uleb128 0xf
 5937 16d6 F4120000 		.4byte	0x12f4
 5938 16da E5160000 		.4byte	0x16e5
 5939 16de 10       		.uleb128 0x10
ARM GAS  C:\Users\EDULU~1.DES\AppData\Local\Temp\ccxcKTgR.s 			page 161


 5940 16df 8E000000 		.4byte	0x8e
 5941 16e3 1F       		.byte	0x1f
 5942 16e4 00       		.byte	0
 5943 16e5 1F       		.uleb128 0x1f
 5944 16e6 01110000 		.4byte	.LASF415
 5945 16ea 0A       		.byte	0xa
 5946 16eb A004     		.2byte	0x4a0
 5947 16ed 2D       		.byte	0x2d
 5948 16ee D5160000 		.4byte	0x16d5
 5949 16f2 1F       		.uleb128 0x1f
 5950 16f3 38160000 		.4byte	.LASF416
 5951 16f7 0A       		.byte	0xa
 5952 16f8 AD04     		.2byte	0x4ad
 5953 16fa 2D       		.byte	0x2d
 5954 16fb B40A0000 		.4byte	0xab4
 5955 16ff 1F       		.uleb128 0x1f
 5956 1700 12130000 		.4byte	.LASF417
 5957 1704 0A       		.byte	0xa
 5958 1705 B504     		.2byte	0x4b5
 5959 1707 2D       		.byte	0x2d
 5960 1708 2E160000 		.4byte	0x162e
 5961 170c 1F       		.uleb128 0x1f
 5962 170d 7D160000 		.4byte	.LASF418
 5963 1711 0A       		.byte	0xa
 5964 1712 B704     		.2byte	0x4b7
 5965 1714 2D       		.byte	0x2d
 5966 1715 C00A0000 		.4byte	0xac0
 5967 1719 1F       		.uleb128 0x1f
 5968 171a 46050000 		.4byte	.LASF419
 5969 171e 0A       		.byte	0xa
 5970 171f BC04     		.2byte	0x4bc
 5971 1721 2D       		.byte	0x2d
 5972 1722 3D000000 		.4byte	0x3d
 5973 1726 1F       		.uleb128 0x1f
 5974 1727 DE010000 		.4byte	.LASF420
 5975 172b 0A       		.byte	0xa
 5976 172c BD04     		.2byte	0x4bd
 5977 172e 2D       		.byte	0x2d
 5978 172f 670A0000 		.4byte	0xa67
 5979 1733 1F       		.uleb128 0x1f
 5980 1734 E7000000 		.4byte	.LASF421
 5981 1738 0A       		.byte	0xa
 5982 1739 BE04     		.2byte	0x4be
 5983 173b 2D       		.byte	0x2d
 5984 173c 670A0000 		.4byte	0xa67
 5985 1740 1F       		.uleb128 0x1f
 5986 1741 280A0000 		.4byte	.LASF422
 5987 1745 0A       		.byte	0xa
 5988 1746 BF04     		.2byte	0x4bf
 5989 1748 2D       		.byte	0x2d
 5990 1749 470B0000 		.4byte	0xb47
 5991 174d 1F       		.uleb128 0x1f
 5992 174e FB020000 		.4byte	.LASF423
 5993 1752 0A       		.byte	0xa
 5994 1753 C004     		.2byte	0x4c0
 5995 1755 2D       		.byte	0x2d
 5996 1756 470B0000 		.4byte	0xb47
ARM GAS  C:\Users\EDULU~1.DES\AppData\Local\Temp\ccxcKTgR.s 			page 162


 5997 175a 1F       		.uleb128 0x1f
 5998 175b AB1F0000 		.4byte	.LASF424
 5999 175f 0A       		.byte	0xa
 6000 1760 C104     		.2byte	0x4c1
 6001 1762 2D       		.byte	0x2d
 6002 1763 470B0000 		.4byte	0xb47
 6003 1767 1F       		.uleb128 0x1f
 6004 1768 0B1B0000 		.4byte	.LASF425
 6005 176c 0A       		.byte	0xa
 6006 176d C204     		.2byte	0x4c2
 6007 176f 2D       		.byte	0x2d
 6008 1770 3D000000 		.4byte	0x3d
 6009 1774 1F       		.uleb128 0x1f
 6010 1775 EB030000 		.4byte	.LASF426
 6011 1779 0A       		.byte	0xa
 6012 177a C304     		.2byte	0x4c3
 6013 177c 2D       		.byte	0x2d
 6014 177d EF100000 		.4byte	0x10ef
 6015 1781 1F       		.uleb128 0x1f
 6016 1782 27190000 		.4byte	.LASF427
 6017 1786 0A       		.byte	0xa
 6018 1787 C404     		.2byte	0x4c4
 6019 1789 2D       		.byte	0x2d
 6020 178a C2090000 		.4byte	0x9c2
 6021 178e 1F       		.uleb128 0x1f
 6022 178f E9180000 		.4byte	.LASF428
 6023 1793 0A       		.byte	0xa
 6024 1794 C804     		.2byte	0x4c8
 6025 1796 2D       		.byte	0x2d
 6026 1797 7F0A0000 		.4byte	0xa7f
 6027 179b 1F       		.uleb128 0x1f
 6028 179c 931F0000 		.4byte	.LASF429
 6029 17a0 0A       		.byte	0xa
 6030 17a1 CA04     		.2byte	0x4ca
 6031 17a3 2D       		.byte	0x2d
 6032 17a4 0B160000 		.4byte	0x160b
 6033 17a8 1F       		.uleb128 0x1f
 6034 17a9 301B0000 		.4byte	.LASF430
 6035 17ad 0A       		.byte	0xa
 6036 17ae CC04     		.2byte	0x4cc
 6037 17b0 2D       		.byte	0x2d
 6038 17b1 C00A0000 		.4byte	0xac0
 6039 17b5 1F       		.uleb128 0x1f
 6040 17b6 160D0000 		.4byte	.LASF431
 6041 17ba 0A       		.byte	0xa
 6042 17bb CF04     		.2byte	0x4cf
 6043 17bd 2D       		.byte	0x2d
 6044 17be 170B0000 		.4byte	0xb17
 6045 17c2 1F       		.uleb128 0x1f
 6046 17c3 CA130000 		.4byte	.LASF432
 6047 17c7 0A       		.byte	0xa
 6048 17c8 D304     		.2byte	0x4d3
 6049 17ca 2D       		.byte	0x2d
 6050 17cb 470B0000 		.4byte	0xb47
 6051 17cf 1F       		.uleb128 0x1f
 6052 17d0 561A0000 		.4byte	.LASF433
 6053 17d4 0A       		.byte	0xa
ARM GAS  C:\Users\EDULU~1.DES\AppData\Local\Temp\ccxcKTgR.s 			page 163


 6054 17d5 D404     		.2byte	0x4d4
 6055 17d7 2D       		.byte	0x2d
 6056 17d8 EF100000 		.4byte	0x10ef
 6057 17dc 1F       		.uleb128 0x1f
 6058 17dd 45010000 		.4byte	.LASF434
 6059 17e1 0A       		.byte	0xa
 6060 17e2 D504     		.2byte	0x4d5
 6061 17e4 2D       		.byte	0x2d
 6062 17e5 C2090000 		.4byte	0x9c2
 6063 17e9 1F       		.uleb128 0x1f
 6064 17ea A10B0000 		.4byte	.LASF435
 6065 17ee 0A       		.byte	0xa
 6066 17ef DA04     		.2byte	0x4da
 6067 17f1 2D       		.byte	0x2d
 6068 17f2 4A160000 		.4byte	0x164a
 6069 17f6 1F       		.uleb128 0x1f
 6070 17f7 42130000 		.4byte	.LASF436
 6071 17fb 0A       		.byte	0xa
 6072 17fc DC04     		.2byte	0x4dc
 6073 17fe 2D       		.byte	0x2d
 6074 17ff C00A0000 		.4byte	0xac0
 6075 1803 1F       		.uleb128 0x1f
 6076 1804 4B130000 		.4byte	.LASF437
 6077 1808 0A       		.byte	0xa
 6078 1809 DD04     		.2byte	0x4dd
 6079 180b 2D       		.byte	0x2d
 6080 180c EF100000 		.4byte	0x10ef
 6081 1810 1F       		.uleb128 0x1f
 6082 1811 CD1C0000 		.4byte	.LASF438
 6083 1815 0A       		.byte	0xa
 6084 1816 DE04     		.2byte	0x4de
 6085 1818 2D       		.byte	0x2d
 6086 1819 C2090000 		.4byte	0x9c2
 6087 181d 1F       		.uleb128 0x1f
 6088 181e 191C0000 		.4byte	.LASF439
 6089 1822 0A       		.byte	0xa
 6090 1823 DF04     		.2byte	0x4df
 6091 1825 2D       		.byte	0x2d
 6092 1826 470B0000 		.4byte	0xb47
 6093 182a 1F       		.uleb128 0x1f
 6094 182b C90D0000 		.4byte	.LASF440
 6095 182f 0A       		.byte	0xa
 6096 1830 E004     		.2byte	0x4e0
 6097 1832 2D       		.byte	0x2d
 6098 1833 730A0000 		.4byte	0xa73
 6099 1837 1F       		.uleb128 0x1f
 6100 1838 B2040000 		.4byte	.LASF441
 6101 183c 0A       		.byte	0xa
 6102 183d E104     		.2byte	0x4e1
 6103 183f 2D       		.byte	0x2d
 6104 1840 730A0000 		.4byte	0xa73
 6105 1844 1F       		.uleb128 0x1f
 6106 1845 CB010000 		.4byte	.LASF442
 6107 1849 0A       		.byte	0xa
 6108 184a E504     		.2byte	0x4e5
 6109 184c 2D       		.byte	0x2d
 6110 184d 0B160000 		.4byte	0x160b
ARM GAS  C:\Users\EDULU~1.DES\AppData\Local\Temp\ccxcKTgR.s 			page 164


 6111 1851 1F       		.uleb128 0x1f
 6112 1852 B9020000 		.4byte	.LASF443
 6113 1856 0A       		.byte	0xa
 6114 1857 E604     		.2byte	0x4e6
 6115 1859 2D       		.byte	0x2d
 6116 185a 0B160000 		.4byte	0x160b
 6117 185e 1F       		.uleb128 0x1f
 6118 185f 1E1F0000 		.4byte	.LASF444
 6119 1863 0A       		.byte	0xa
 6120 1864 F104     		.2byte	0x4f1
 6121 1866 1D       		.byte	0x1d
 6122 1867 650B0000 		.4byte	0xb65
 6123 186b 1F       		.uleb128 0x1f
 6124 186c B01C0000 		.4byte	.LASF445
 6125 1870 0A       		.byte	0xa
 6126 1871 F204     		.2byte	0x4f2
 6127 1873 1D       		.byte	0x1d
 6128 1874 02010000 		.4byte	0x102
 6129 1878 1F       		.uleb128 0x1f
 6130 1879 4E0A0000 		.4byte	.LASF446
 6131 187d 0A       		.byte	0xa
 6132 187e F304     		.2byte	0x4f3
 6133 1880 1D       		.byte	0x1d
 6134 1881 02010000 		.4byte	0x102
 6135 1885 1F       		.uleb128 0x1f
 6136 1886 24140000 		.4byte	.LASF447
 6137 188a 0A       		.byte	0xa
 6138 188b F404     		.2byte	0x4f4
 6139 188d 1D       		.byte	0x1d
 6140 188e 89000000 		.4byte	0x89
 6141 1892 1F       		.uleb128 0x1f
 6142 1893 800F0000 		.4byte	.LASF448
 6143 1897 0A       		.byte	0xa
 6144 1898 F604     		.2byte	0x4f6
 6145 189a 1D       		.byte	0x1d
 6146 189b A5180000 		.4byte	0x18a5
 6147 189f 06       		.uleb128 0x6
 6148 18a0 04       		.byte	0x4
 6149 18a1 45100000 		.4byte	0x1045
 6150 18a5 04       		.uleb128 0x4
 6151 18a6 9F180000 		.4byte	0x189f
 6152 18aa 1F       		.uleb128 0x1f
 6153 18ab 170F0000 		.4byte	.LASF449
 6154 18af 0A       		.byte	0xa
 6155 18b0 F704     		.2byte	0x4f7
 6156 18b2 1D       		.byte	0x1d
 6157 18b3 CC0A0000 		.4byte	0xacc
 6158 18b7 1F       		.uleb128 0x1f
 6159 18b8 2B050000 		.4byte	.LASF450
 6160 18bc 0A       		.byte	0xa
 6161 18bd F804     		.2byte	0x4f8
 6162 18bf 1D       		.byte	0x1d
 6163 18c0 89000000 		.4byte	0x89
 6164 18c4 1F       		.uleb128 0x1f
 6165 18c5 C4190000 		.4byte	.LASF451
 6166 18c9 0A       		.byte	0xa
 6167 18ca F904     		.2byte	0x4f9
ARM GAS  C:\Users\EDULU~1.DES\AppData\Local\Temp\ccxcKTgR.s 			page 165


 6168 18cc 1D       		.byte	0x1d
 6169 18cd 650B0000 		.4byte	0xb65
 6170 18d1 1F       		.uleb128 0x1f
 6171 18d2 88000000 		.4byte	.LASF452
 6172 18d6 0A       		.byte	0xa
 6173 18d7 FA04     		.2byte	0x4fa
 6174 18d9 1D       		.byte	0x1d
 6175 18da 02010000 		.4byte	0x102
 6176 18de 1F       		.uleb128 0x1f
 6177 18df BE0B0000 		.4byte	.LASF453
 6178 18e3 0A       		.byte	0xa
 6179 18e4 FB04     		.2byte	0x4fb
 6180 18e6 1D       		.byte	0x1d
 6181 18e7 02010000 		.4byte	0x102
 6182 18eb 1F       		.uleb128 0x1f
 6183 18ec 920F0000 		.4byte	.LASF454
 6184 18f0 0A       		.byte	0xa
 6185 18f1 FC04     		.2byte	0x4fc
 6186 18f3 1D       		.byte	0x1d
 6187 18f4 89000000 		.4byte	0x89
 6188 18f8 1F       		.uleb128 0x1f
 6189 18f9 711A0000 		.4byte	.LASF455
 6190 18fd 0A       		.byte	0xa
 6191 18fe FE04     		.2byte	0x4fe
 6192 1900 1D       		.byte	0x1d
 6193 1901 650B0000 		.4byte	0xb65
 6194 1905 1F       		.uleb128 0x1f
 6195 1906 FA1A0000 		.4byte	.LASF456
 6196 190a 0A       		.byte	0xa
 6197 190b FF04     		.2byte	0x4ff
 6198 190d 1D       		.byte	0x1d
 6199 190e 02010000 		.4byte	0x102
 6200 1912 1F       		.uleb128 0x1f
 6201 1913 29070000 		.4byte	.LASF457
 6202 1917 0A       		.byte	0xa
 6203 1918 0005     		.2byte	0x500
 6204 191a 1D       		.byte	0x1d
 6205 191b 89000000 		.4byte	0x89
 6206 191f 1F       		.uleb128 0x1f
 6207 1920 9B140000 		.4byte	.LASF458
 6208 1924 0A       		.byte	0xa
 6209 1925 0205     		.2byte	0x502
 6210 1927 1D       		.byte	0x1d
 6211 1928 AF0A0000 		.4byte	0xaaf
 6212 192c 1F       		.uleb128 0x1f
 6213 192d F1120000 		.4byte	.LASF459
 6214 1931 0A       		.byte	0xa
 6215 1932 0305     		.2byte	0x503
 6216 1934 1D       		.byte	0x1d
 6217 1935 89000000 		.4byte	0x89
 6218 1939 1F       		.uleb128 0x1f
 6219 193a 191D0000 		.4byte	.LASF460
 6220 193e 0A       		.byte	0xa
 6221 193f 0405     		.2byte	0x504
 6222 1941 1D       		.byte	0x1d
 6223 1942 29160000 		.4byte	0x1629
 6224 1946 1F       		.uleb128 0x1f
ARM GAS  C:\Users\EDULU~1.DES\AppData\Local\Temp\ccxcKTgR.s 			page 166


 6225 1947 D8030000 		.4byte	.LASF461
 6226 194b 0A       		.byte	0xa
 6227 194c 0605     		.2byte	0x506
 6228 194e 1D       		.byte	0x1d
 6229 194f F50A0000 		.4byte	0xaf5
 6230 1953 1F       		.uleb128 0x1f
 6231 1954 640A0000 		.4byte	.LASF462
 6232 1958 0A       		.byte	0xa
 6233 1959 0705     		.2byte	0x507
 6234 195b 1D       		.byte	0x1d
 6235 195c 060B0000 		.4byte	0xb06
 6236 1960 1F       		.uleb128 0x1f
 6237 1961 DC020000 		.4byte	.LASF463
 6238 1965 0A       		.byte	0xa
 6239 1966 0805     		.2byte	0x508
 6240 1968 1D       		.byte	0x1d
 6241 1969 650B0000 		.4byte	0xb65
 6242 196d 1F       		.uleb128 0x1f
 6243 196e 400D0000 		.4byte	.LASF464
 6244 1972 0A       		.byte	0xa
 6245 1973 0905     		.2byte	0x509
 6246 1975 1D       		.byte	0x1d
 6247 1976 02010000 		.4byte	0x102
 6248 197a 1F       		.uleb128 0x1f
 6249 197b C2100000 		.4byte	.LASF465
 6250 197f 0A       		.byte	0xa
 6251 1980 0A05     		.2byte	0x50a
 6252 1982 1D       		.byte	0x1d
 6253 1983 02010000 		.4byte	0x102
 6254 1987 1F       		.uleb128 0x1f
 6255 1988 D40E0000 		.4byte	.LASF466
 6256 198c 0A       		.byte	0xa
 6257 198d 0B05     		.2byte	0x50b
 6258 198f 1D       		.byte	0x1d
 6259 1990 89000000 		.4byte	0x89
 6260 1994 1F       		.uleb128 0x1f
 6261 1995 2A0C0000 		.4byte	.LASF467
 6262 1999 0A       		.byte	0xa
 6263 199a 0D05     		.2byte	0x50d
 6264 199c 1D       		.byte	0x1d
 6265 199d 02010000 		.4byte	0x102
 6266 19a1 1F       		.uleb128 0x1f
 6267 19a2 09190000 		.4byte	.LASF468
 6268 19a6 0A       		.byte	0xa
 6269 19a7 0F05     		.2byte	0x50f
 6270 19a9 1D       		.byte	0x1d
 6271 19aa 060B0000 		.4byte	0xb06
 6272 19ae 1F       		.uleb128 0x1f
 6273 19af D40F0000 		.4byte	.LASF469
 6274 19b3 0A       		.byte	0xa
 6275 19b4 1005     		.2byte	0x510
 6276 19b6 1D       		.byte	0x1d
 6277 19b7 F50A0000 		.4byte	0xaf5
 6278 19bb 1F       		.uleb128 0x1f
 6279 19bc 9A180000 		.4byte	.LASF470
 6280 19c0 0A       		.byte	0xa
 6281 19c1 1105     		.2byte	0x511
ARM GAS  C:\Users\EDULU~1.DES\AppData\Local\Temp\ccxcKTgR.s 			page 167


 6282 19c3 1D       		.byte	0x1d
 6283 19c4 650B0000 		.4byte	0xb65
 6284 19c8 1F       		.uleb128 0x1f
 6285 19c9 E21D0000 		.4byte	.LASF471
 6286 19cd 0A       		.byte	0xa
 6287 19ce 1205     		.2byte	0x512
 6288 19d0 1D       		.byte	0x1d
 6289 19d1 02010000 		.4byte	0x102
 6290 19d5 1F       		.uleb128 0x1f
 6291 19d6 64190000 		.4byte	.LASF472
 6292 19da 0A       		.byte	0xa
 6293 19db 1305     		.2byte	0x513
 6294 19dd 1D       		.byte	0x1d
 6295 19de 02010000 		.4byte	0x102
 6296 19e2 1F       		.uleb128 0x1f
 6297 19e3 171E0000 		.4byte	.LASF473
 6298 19e7 0A       		.byte	0xa
 6299 19e8 1405     		.2byte	0x514
 6300 19ea 1D       		.byte	0x1d
 6301 19eb 89000000 		.4byte	0x89
 6302 19ef 1F       		.uleb128 0x1f
 6303 19f0 5C1F0000 		.4byte	.LASF474
 6304 19f4 0A       		.byte	0xa
 6305 19f5 1505     		.2byte	0x515
 6306 19f7 1D       		.byte	0x1d
 6307 19f8 CC0A0000 		.4byte	0xacc
 6308 19fc 1F       		.uleb128 0x1f
 6309 19fd AE0A0000 		.4byte	.LASF475
 6310 1a01 0A       		.byte	0xa
 6311 1a02 1605     		.2byte	0x516
 6312 1a04 1D       		.byte	0x1d
 6313 1a05 89000000 		.4byte	0x89
 6314 1a09 1F       		.uleb128 0x1f
 6315 1a0a 50110000 		.4byte	.LASF476
 6316 1a0e 0A       		.byte	0xa
 6317 1a0f 1805     		.2byte	0x518
 6318 1a11 1D       		.byte	0x1d
 6319 1a12 F50A0000 		.4byte	0xaf5
 6320 1a16 1F       		.uleb128 0x1f
 6321 1a17 E70F0000 		.4byte	.LASF477
 6322 1a1b 0A       		.byte	0xa
 6323 1a1c 1905     		.2byte	0x519
 6324 1a1e 1D       		.byte	0x1d
 6325 1a1f 060B0000 		.4byte	0xb06
 6326 1a23 1F       		.uleb128 0x1f
 6327 1a24 8D1E0000 		.4byte	.LASF478
 6328 1a28 0A       		.byte	0xa
 6329 1a29 1A05     		.2byte	0x51a
 6330 1a2b 1D       		.byte	0x1d
 6331 1a2c 650B0000 		.4byte	0xb65
 6332 1a30 1F       		.uleb128 0x1f
 6333 1a31 AC100000 		.4byte	.LASF479
 6334 1a35 0A       		.byte	0xa
 6335 1a36 1B05     		.2byte	0x51b
 6336 1a38 1D       		.byte	0x1d
 6337 1a39 02010000 		.4byte	0x102
 6338 1a3d 1F       		.uleb128 0x1f
ARM GAS  C:\Users\EDULU~1.DES\AppData\Local\Temp\ccxcKTgR.s 			page 168


 6339 1a3e 68040000 		.4byte	.LASF480
 6340 1a42 0A       		.byte	0xa
 6341 1a43 1C05     		.2byte	0x51c
 6342 1a45 1D       		.byte	0x1d
 6343 1a46 02010000 		.4byte	0x102
 6344 1a4a 1F       		.uleb128 0x1f
 6345 1a4b 000C0000 		.4byte	.LASF481
 6346 1a4f 0A       		.byte	0xa
 6347 1a50 1D05     		.2byte	0x51d
 6348 1a52 1D       		.byte	0x1d
 6349 1a53 89000000 		.4byte	0x89
 6350 1a57 1F       		.uleb128 0x1f
 6351 1a58 F1010000 		.4byte	.LASF482
 6352 1a5c 0A       		.byte	0xa
 6353 1a5d 1E05     		.2byte	0x51e
 6354 1a5f 1D       		.byte	0x1d
 6355 1a60 CC0A0000 		.4byte	0xacc
 6356 1a64 1F       		.uleb128 0x1f
 6357 1a65 A1030000 		.4byte	.LASF483
 6358 1a69 0A       		.byte	0xa
 6359 1a6a 1F05     		.2byte	0x51f
 6360 1a6c 1D       		.byte	0x1d
 6361 1a6d 89000000 		.4byte	0x89
 6362 1a71 0F       		.uleb128 0xf
 6363 1a72 EA000000 		.4byte	0xea
 6364 1a76 7C1A0000 		.4byte	0x1a7c
 6365 1a7a 25       		.uleb128 0x25
 6366 1a7b 00       		.byte	0
 6367 1a7c 1F       		.uleb128 0x1f
 6368 1a7d B9110000 		.4byte	.LASF484
 6369 1a81 0A       		.byte	0xa
 6370 1a82 2205     		.2byte	0x522
 6371 1a84 18       		.byte	0x18
 6372 1a85 711A0000 		.4byte	0x1a71
 6373 1a89 1F       		.uleb128 0x1f
 6374 1a8a D90C0000 		.4byte	.LASF485
 6375 1a8e 0A       		.byte	0xa
 6376 1a8f 2905     		.2byte	0x529
 6377 1a91 18       		.byte	0x18
 6378 1a92 711A0000 		.4byte	0x1a71
 6379 1a96 1F       		.uleb128 0x1f
 6380 1a97 180C0000 		.4byte	.LASF486
 6381 1a9b 0A       		.byte	0xa
 6382 1a9c 3005     		.2byte	0x530
 6383 1a9e 18       		.byte	0x18
 6384 1a9f 711A0000 		.4byte	0x1a71
 6385 1aa3 1F       		.uleb128 0x1f
 6386 1aa4 16080000 		.4byte	.LASF487
 6387 1aa8 0A       		.byte	0xa
 6388 1aa9 3305     		.2byte	0x533
 6389 1aab 18       		.byte	0x18
 6390 1aac 711A0000 		.4byte	0x1a71
 6391 1ab0 0F       		.uleb128 0xf
 6392 1ab1 3A130000 		.4byte	0x133a
 6393 1ab5 BB1A0000 		.4byte	0x1abb
 6394 1ab9 25       		.uleb128 0x25
 6395 1aba 00       		.byte	0
ARM GAS  C:\Users\EDULU~1.DES\AppData\Local\Temp\ccxcKTgR.s 			page 169


 6396 1abb 1F       		.uleb128 0x1f
 6397 1abc 4F120000 		.4byte	.LASF488
 6398 1ac0 0A       		.byte	0xa
 6399 1ac1 3405     		.2byte	0x534
 6400 1ac3 18       		.byte	0x18
 6401 1ac4 B01A0000 		.4byte	0x1ab0
 6402 1ac8 1F       		.uleb128 0x1f
 6403 1ac9 7B080000 		.4byte	.LASF489
 6404 1acd 0A       		.byte	0xa
 6405 1ace 3705     		.2byte	0x537
 6406 1ad0 18       		.byte	0x18
 6407 1ad1 711A0000 		.4byte	0x1a71
 6408 1ad5 0F       		.uleb128 0xf
 6409 1ad6 83140000 		.4byte	0x1483
 6410 1ada E01A0000 		.4byte	0x1ae0
 6411 1ade 25       		.uleb128 0x25
 6412 1adf 00       		.byte	0
 6413 1ae0 1F       		.uleb128 0x1f
 6414 1ae1 B8150000 		.4byte	.LASF490
 6415 1ae5 0A       		.byte	0xa
 6416 1ae6 3805     		.2byte	0x538
 6417 1ae8 18       		.byte	0x18
 6418 1ae9 D51A0000 		.4byte	0x1ad5
 6419 1aed 26       		.uleb128 0x26
 6420 1aee DC1A0000 		.4byte	.LASF494
 6421 1af2 01       		.byte	0x1
 6422 1af3 B609     		.2byte	0x9b6
 6423 1af5 08       		.byte	0x8
 6424 1af6 00000000 		.4byte	.LFB21
 6425 1afa F0000000 		.4byte	.LFE21-.LFB21
 6426 1afe 01       		.uleb128 0x1
 6427 1aff 9C       		.byte	0x9c
 6428 1b00 3A1C0000 		.4byte	0x1c3a
 6429 1b04 27       		.uleb128 0x27
 6430 1b05 E0120000 		.4byte	.LASF491
 6431 1b09 01       		.byte	0x1
 6432 1b0a B609     		.2byte	0x9b6
 6433 1b0c 21       		.byte	0x21
 6434 1b0d 0B160000 		.4byte	0x160b
 6435 1b11 06000000 		.4byte	.LLST74
 6436 1b15 00000000 		.4byte	.LVUS74
 6437 1b19 27       		.uleb128 0x27
 6438 1b1a DE0A0000 		.4byte	.LASF492
 6439 1b1e 01       		.byte	0x1
 6440 1b1f B709     		.2byte	0x9b7
 6441 1b21 21       		.byte	0x21
 6442 1b22 3A1C0000 		.4byte	0x1c3a
 6443 1b26 37000000 		.4byte	.LLST75
 6444 1b2a 2F000000 		.4byte	.LVUS75
 6445 1b2e 28       		.uleb128 0x28
 6446 1b2f 9A0B0000 		.4byte	.LASF493
 6447 1b33 01       		.byte	0x1
 6448 1b34 B909     		.2byte	0x9b9
 6449 1b36 05       		.byte	0x5
 6450 1b37 07010000 		.4byte	0x107
 6451 1b3b 76000000 		.4byte	.LLST76
 6452 1b3f 6E000000 		.4byte	.LVUS76
ARM GAS  C:\Users\EDULU~1.DES\AppData\Local\Temp\ccxcKTgR.s 			page 170


 6453 1b43 29       		.uleb128 0x29
 6454 1b44 0A000000 		.4byte	.LVL293
 6455 1b48 F22A0000 		.4byte	0x2af2
 6456 1b4c 29       		.uleb128 0x29
 6457 1b4d 10000000 		.4byte	.LVL295
 6458 1b51 FF2A0000 		.4byte	0x2aff
 6459 1b55 29       		.uleb128 0x29
 6460 1b56 42000000 		.4byte	.LVL297
 6461 1b5a 0C2B0000 		.4byte	0x2b0c
 6462 1b5e 2A       		.uleb128 0x2a
 6463 1b5f 48000000 		.4byte	.LVL298
 6464 1b63 192B0000 		.4byte	0x2b19
 6465 1b67 721B0000 		.4byte	0x1b72
 6466 1b6b 2B       		.uleb128 0x2b
 6467 1b6c 01       		.uleb128 0x1
 6468 1b6d 50       		.byte	0x50
 6469 1b6e 02       		.uleb128 0x2
 6470 1b6f 75       		.byte	0x75
 6471 1b70 00       		.sleb128 0
 6472 1b71 00       		.byte	0
 6473 1b72 2A       		.uleb128 0x2a
 6474 1b73 60000000 		.4byte	.LVL299
 6475 1b77 262B0000 		.4byte	0x2b26
 6476 1b7b 861B0000 		.4byte	0x1b86
 6477 1b7f 2B       		.uleb128 0x2b
 6478 1b80 01       		.uleb128 0x1
 6479 1b81 50       		.byte	0x50
 6480 1b82 02       		.uleb128 0x2
 6481 1b83 74       		.byte	0x74
 6482 1b84 00       		.sleb128 0
 6483 1b85 00       		.byte	0
 6484 1b86 29       		.uleb128 0x29
 6485 1b87 64000000 		.4byte	.LVL300
 6486 1b8b 0C2B0000 		.4byte	0x2b0c
 6487 1b8f 2A       		.uleb128 0x2a
 6488 1b90 6A000000 		.4byte	.LVL301
 6489 1b94 192B0000 		.4byte	0x2b19
 6490 1b98 A31B0000 		.4byte	0x1ba3
 6491 1b9c 2B       		.uleb128 0x2b
 6492 1b9d 01       		.uleb128 0x1
 6493 1b9e 50       		.byte	0x50
 6494 1b9f 02       		.uleb128 0x2
 6495 1ba0 75       		.byte	0x75
 6496 1ba1 00       		.sleb128 0
 6497 1ba2 00       		.byte	0
 6498 1ba3 29       		.uleb128 0x29
 6499 1ba4 6E000000 		.4byte	.LVL302
 6500 1ba8 332B0000 		.4byte	0x2b33
 6501 1bac 29       		.uleb128 0x29
 6502 1bad 80000000 		.4byte	.LVL307
 6503 1bb1 0C2B0000 		.4byte	0x2b0c
 6504 1bb5 2A       		.uleb128 0x2a
 6505 1bb6 86000000 		.4byte	.LVL308
 6506 1bba 192B0000 		.4byte	0x2b19
 6507 1bbe C91B0000 		.4byte	0x1bc9
 6508 1bc2 2B       		.uleb128 0x2b
 6509 1bc3 01       		.uleb128 0x1
ARM GAS  C:\Users\EDULU~1.DES\AppData\Local\Temp\ccxcKTgR.s 			page 171


 6510 1bc4 50       		.byte	0x50
 6511 1bc5 02       		.uleb128 0x2
 6512 1bc6 75       		.byte	0x75
 6513 1bc7 00       		.sleb128 0
 6514 1bc8 00       		.byte	0
 6515 1bc9 29       		.uleb128 0x29
 6516 1bca 98000000 		.4byte	.LVL309
 6517 1bce 0C2B0000 		.4byte	0x2b0c
 6518 1bd2 2A       		.uleb128 0x2a
 6519 1bd3 9E000000 		.4byte	.LVL310
 6520 1bd7 192B0000 		.4byte	0x2b19
 6521 1bdb E61B0000 		.4byte	0x1be6
 6522 1bdf 2B       		.uleb128 0x2b
 6523 1be0 01       		.uleb128 0x1
 6524 1be1 50       		.byte	0x50
 6525 1be2 02       		.uleb128 0x2
 6526 1be3 75       		.byte	0x75
 6527 1be4 00       		.sleb128 0
 6528 1be5 00       		.byte	0
 6529 1be6 29       		.uleb128 0x29
 6530 1be7 B0000000 		.4byte	.LVL311
 6531 1beb 0C2B0000 		.4byte	0x2b0c
 6532 1bef 2A       		.uleb128 0x2a
 6533 1bf0 B6000000 		.4byte	.LVL312
 6534 1bf4 192B0000 		.4byte	0x2b19
 6535 1bf8 031C0000 		.4byte	0x1c03
 6536 1bfc 2B       		.uleb128 0x2b
 6537 1bfd 01       		.uleb128 0x1
 6538 1bfe 50       		.byte	0x50
 6539 1bff 02       		.uleb128 0x2
 6540 1c00 75       		.byte	0x75
 6541 1c01 00       		.sleb128 0
 6542 1c02 00       		.byte	0
 6543 1c03 29       		.uleb128 0x29
 6544 1c04 C4000000 		.4byte	.LVL313
 6545 1c08 0C2B0000 		.4byte	0x2b0c
 6546 1c0c 2A       		.uleb128 0x2a
 6547 1c0d CA000000 		.4byte	.LVL314
 6548 1c11 192B0000 		.4byte	0x2b19
 6549 1c15 201C0000 		.4byte	0x1c20
 6550 1c19 2B       		.uleb128 0x2b
 6551 1c1a 01       		.uleb128 0x1
 6552 1c1b 50       		.byte	0x50
 6553 1c1c 02       		.uleb128 0x2
 6554 1c1d 75       		.byte	0x75
 6555 1c1e 00       		.sleb128 0
 6556 1c1f 00       		.byte	0
 6557 1c20 29       		.uleb128 0x29
 6558 1c21 D0000000 		.4byte	.LVL315
 6559 1c25 0C2B0000 		.4byte	0x2b0c
 6560 1c29 2C       		.uleb128 0x2c
 6561 1c2a D6000000 		.4byte	.LVL316
 6562 1c2e 192B0000 		.4byte	0x2b19
 6563 1c32 2B       		.uleb128 0x2b
 6564 1c33 01       		.uleb128 0x1
 6565 1c34 50       		.byte	0x50
 6566 1c35 02       		.uleb128 0x2
ARM GAS  C:\Users\EDULU~1.DES\AppData\Local\Temp\ccxcKTgR.s 			page 172


 6567 1c36 75       		.byte	0x75
 6568 1c37 00       		.sleb128 0
 6569 1c38 00       		.byte	0
 6570 1c39 00       		.byte	0
 6571 1c3a 06       		.uleb128 0x6
 6572 1c3b 04       		.byte	0x4
 6573 1c3c E40F0000 		.4byte	0xfe4
 6574 1c40 2D       		.uleb128 0x2d
 6575 1c41 570D0000 		.4byte	.LASF510
 6576 1c45 01       		.byte	0x1
 6577 1c46 2609     		.2byte	0x926
 6578 1c48 0D       		.byte	0xd
 6579 1c49 230B0000 		.4byte	0xb23
 6580 1c4d 00000000 		.4byte	.LFB20
 6581 1c51 E0000000 		.4byte	.LFE20-.LFB20
 6582 1c55 01       		.uleb128 0x1
 6583 1c56 9C       		.byte	0x9c
 6584 1c57 C81D0000 		.4byte	0x1dc8
 6585 1c5b 27       		.uleb128 0x27
 6586 1c5c E0120000 		.4byte	.LASF491
 6587 1c60 01       		.byte	0x1
 6588 1c61 2609     		.2byte	0x926
 6589 1c63 26       		.byte	0x26
 6590 1c64 0B160000 		.4byte	0x160b
 6591 1c68 AF000000 		.4byte	.LLST63
 6592 1c6c AB000000 		.4byte	.LVUS63
 6593 1c70 2E       		.uleb128 0x2e
 6594 1c71 6F707400 		.ascii	"opt\000"
 6595 1c75 01       		.byte	0x1
 6596 1c76 2709     		.2byte	0x927
 6597 1c78 26       		.byte	0x26
 6598 1c79 DD0A0000 		.4byte	0xadd
 6599 1c7d D1000000 		.4byte	.LLST64
 6600 1c81 CD000000 		.4byte	.LVUS64
 6601 1c85 2E       		.uleb128 0x2e
 6602 1c86 747300   		.ascii	"ts\000"
 6603 1c89 01       		.byte	0x1
 6604 1c8a 2809     		.2byte	0x928
 6605 1c8c 26       		.byte	0x26
 6606 1c8d C2090000 		.4byte	0x9c2
 6607 1c91 04010000 		.4byte	.LLST65
 6608 1c95 F2000000 		.4byte	.LVUS65
 6609 1c99 27       		.uleb128 0x27
 6610 1c9a DE0A0000 		.4byte	.LASF492
 6611 1c9e 01       		.byte	0x1
 6612 1c9f 2909     		.2byte	0x929
 6613 1ca1 26       		.byte	0x26
 6614 1ca2 3A1C0000 		.4byte	0x1c3a
 6615 1ca6 85010000 		.4byte	.LLST66
 6616 1caa 7B010000 		.4byte	.LVUS66
 6617 1cae 2F       		.uleb128 0x2f
 6618 1caf 63747200 		.ascii	"ctr\000"
 6619 1cb3 01       		.byte	0x1
 6620 1cb4 2B09     		.2byte	0x92b
 6621 1cb6 11       		.byte	0x11
 6622 1cb7 230B0000 		.4byte	0xb23
 6623 1cbb D2010000 		.4byte	.LLST67
ARM GAS  C:\Users\EDULU~1.DES\AppData\Local\Temp\ccxcKTgR.s 			page 173


 6624 1cbf CA010000 		.4byte	.LVUS67
 6625 1cc3 28       		.uleb128 0x28
 6626 1cc4 9A0B0000 		.4byte	.LASF493
 6627 1cc8 01       		.byte	0x1
 6628 1cc9 2C09     		.2byte	0x92c
 6629 1ccb 05       		.byte	0x5
 6630 1ccc 07010000 		.4byte	0x107
 6631 1cd0 0D020000 		.4byte	.LLST68
 6632 1cd4 07020000 		.4byte	.LVUS68
 6633 1cd8 29       		.uleb128 0x29
 6634 1cd9 10000000 		.4byte	.LVL249
 6635 1cdd F22A0000 		.4byte	0x2af2
 6636 1ce1 29       		.uleb128 0x29
 6637 1ce2 16000000 		.4byte	.LVL251
 6638 1ce6 FF2A0000 		.4byte	0x2aff
 6639 1cea 29       		.uleb128 0x29
 6640 1ceb 44000000 		.4byte	.LVL255
 6641 1cef 0C2B0000 		.4byte	0x2b0c
 6642 1cf3 2A       		.uleb128 0x2a
 6643 1cf4 4A000000 		.4byte	.LVL256
 6644 1cf8 192B0000 		.4byte	0x2b19
 6645 1cfc 071D0000 		.4byte	0x1d07
 6646 1d00 2B       		.uleb128 0x2b
 6647 1d01 01       		.uleb128 0x1
 6648 1d02 50       		.byte	0x50
 6649 1d03 02       		.uleb128 0x2
 6650 1d04 76       		.byte	0x76
 6651 1d05 00       		.sleb128 0
 6652 1d06 00       		.byte	0
 6653 1d07 29       		.uleb128 0x29
 6654 1d08 50000000 		.4byte	.LVL258
 6655 1d0c 0C2B0000 		.4byte	0x2b0c
 6656 1d10 2A       		.uleb128 0x2a
 6657 1d11 56000000 		.4byte	.LVL259
 6658 1d15 192B0000 		.4byte	0x2b19
 6659 1d19 241D0000 		.4byte	0x1d24
 6660 1d1d 2B       		.uleb128 0x2b
 6661 1d1e 01       		.uleb128 0x1
 6662 1d1f 50       		.byte	0x50
 6663 1d20 02       		.uleb128 0x2
 6664 1d21 76       		.byte	0x76
 6665 1d22 00       		.sleb128 0
 6666 1d23 00       		.byte	0
 6667 1d24 29       		.uleb128 0x29
 6668 1d25 74000000 		.4byte	.LVL263
 6669 1d29 0C2B0000 		.4byte	0x2b0c
 6670 1d2d 2A       		.uleb128 0x2a
 6671 1d2e 7A000000 		.4byte	.LVL264
 6672 1d32 192B0000 		.4byte	0x2b19
 6673 1d36 411D0000 		.4byte	0x1d41
 6674 1d3a 2B       		.uleb128 0x2b
 6675 1d3b 01       		.uleb128 0x1
 6676 1d3c 50       		.byte	0x50
 6677 1d3d 02       		.uleb128 0x2
 6678 1d3e 76       		.byte	0x76
 6679 1d3f 00       		.sleb128 0
 6680 1d40 00       		.byte	0
ARM GAS  C:\Users\EDULU~1.DES\AppData\Local\Temp\ccxcKTgR.s 			page 174


 6681 1d41 2A       		.uleb128 0x2a
 6682 1d42 8A000000 		.4byte	.LVL266
 6683 1d46 402B0000 		.4byte	0x2b40
 6684 1d4a 6B1D0000 		.4byte	0x1d6b
 6685 1d4e 2B       		.uleb128 0x2b
 6686 1d4f 01       		.uleb128 0x1
 6687 1d50 50       		.byte	0x50
 6688 1d51 01       		.uleb128 0x1
 6689 1d52 30       		.byte	0x30
 6690 1d53 2B       		.uleb128 0x2b
 6691 1d54 01       		.uleb128 0x1
 6692 1d55 51       		.byte	0x51
 6693 1d56 02       		.uleb128 0x2
 6694 1d57 74       		.byte	0x74
 6695 1d58 00       		.sleb128 0
 6696 1d59 2B       		.uleb128 0x2b
 6697 1d5a 01       		.uleb128 0x1
 6698 1d5b 52       		.byte	0x52
 6699 1d5c 01       		.uleb128 0x1
 6700 1d5d 30       		.byte	0x30
 6701 1d5e 2B       		.uleb128 0x2b
 6702 1d5f 01       		.uleb128 0x1
 6703 1d60 53       		.byte	0x53
 6704 1d61 01       		.uleb128 0x1
 6705 1d62 30       		.byte	0x30
 6706 1d63 2B       		.uleb128 0x2b
 6707 1d64 02       		.uleb128 0x2
 6708 1d65 7D       		.byte	0x7d
 6709 1d66 00       		.sleb128 0
 6710 1d67 02       		.uleb128 0x2
 6711 1d68 75       		.byte	0x75
 6712 1d69 00       		.sleb128 0
 6713 1d6a 00       		.byte	0
 6714 1d6b 29       		.uleb128 0x29
 6715 1d6c 90000000 		.4byte	.LVL268
 6716 1d70 0C2B0000 		.4byte	0x2b0c
 6717 1d74 2A       		.uleb128 0x2a
 6718 1d75 96000000 		.4byte	.LVL269
 6719 1d79 192B0000 		.4byte	0x2b19
 6720 1d7d 881D0000 		.4byte	0x1d88
 6721 1d81 2B       		.uleb128 0x2b
 6722 1d82 01       		.uleb128 0x1
 6723 1d83 50       		.byte	0x50
 6724 1d84 02       		.uleb128 0x2
 6725 1d85 76       		.byte	0x76
 6726 1d86 00       		.sleb128 0
 6727 1d87 00       		.byte	0
 6728 1d88 29       		.uleb128 0x29
 6729 1d89 A4000000 		.4byte	.LVL271
 6730 1d8d 332B0000 		.4byte	0x2b33
 6731 1d91 29       		.uleb128 0x29
 6732 1d92 AA000000 		.4byte	.LVL273
 6733 1d96 0C2B0000 		.4byte	0x2b0c
 6734 1d9a 2A       		.uleb128 0x2a
 6735 1d9b B0000000 		.4byte	.LVL274
 6736 1d9f 192B0000 		.4byte	0x2b19
 6737 1da3 AE1D0000 		.4byte	0x1dae
ARM GAS  C:\Users\EDULU~1.DES\AppData\Local\Temp\ccxcKTgR.s 			page 175


 6738 1da7 2B       		.uleb128 0x2b
 6739 1da8 01       		.uleb128 0x1
 6740 1da9 50       		.byte	0x50
 6741 1daa 02       		.uleb128 0x2
 6742 1dab 76       		.byte	0x76
 6743 1dac 00       		.sleb128 0
 6744 1dad 00       		.byte	0
 6745 1dae 29       		.uleb128 0x29
 6746 1daf BC000000 		.4byte	.LVL276
 6747 1db3 0C2B0000 		.4byte	0x2b0c
 6748 1db7 2C       		.uleb128 0x2c
 6749 1db8 C2000000 		.4byte	.LVL277
 6750 1dbc 192B0000 		.4byte	0x2b19
 6751 1dc0 2B       		.uleb128 0x2b
 6752 1dc1 01       		.uleb128 0x1
 6753 1dc2 50       		.byte	0x50
 6754 1dc3 02       		.uleb128 0x2
 6755 1dc4 76       		.byte	0x76
 6756 1dc5 00       		.sleb128 0
 6757 1dc6 00       		.byte	0
 6758 1dc7 00       		.byte	0
 6759 1dc8 26       		.uleb128 0x26
 6760 1dc9 15100000 		.4byte	.LASF495
 6761 1dcd 01       		.byte	0x1
 6762 1dce F408     		.2byte	0x8f4
 6763 1dd0 07       		.byte	0x7
 6764 1dd1 00000000 		.4byte	.LFB19
 6765 1dd5 24000000 		.4byte	.LFE19-.LFB19
 6766 1dd9 01       		.uleb128 0x1
 6767 1dda 9C       		.byte	0x9c
 6768 1ddb 0E1E0000 		.4byte	0x1e0e
 6769 1ddf 30       		.uleb128 0x30
 6770 1de0 65727200 		.ascii	"err\000"
 6771 1de4 01       		.byte	0x1
 6772 1de5 F608     		.2byte	0x8f6
 6773 1de7 0D       		.byte	0xd
 6774 1de8 E40F0000 		.4byte	0xfe4
 6775 1dec 02       		.uleb128 0x2
 6776 1ded 91       		.byte	0x91
 6777 1dee 76       		.sleb128 -10
 6778 1def 29       		.uleb128 0x29
 6779 1df0 0C000000 		.4byte	.LVL245
 6780 1df4 4D2B0000 		.4byte	0x2b4d
 6781 1df8 2C       		.uleb128 0x2c
 6782 1df9 1A000000 		.4byte	.LVL246
 6783 1dfd 5A2B0000 		.4byte	0x2b5a
 6784 1e01 2B       		.uleb128 0x2b
 6785 1e02 01       		.uleb128 0x1
 6786 1e03 51       		.byte	0x51
 6787 1e04 01       		.uleb128 0x1
 6788 1e05 30       		.byte	0x30
 6789 1e06 2B       		.uleb128 0x2b
 6790 1e07 01       		.uleb128 0x1
 6791 1e08 52       		.byte	0x52
 6792 1e09 02       		.uleb128 0x2
 6793 1e0a 7D       		.byte	0x7d
 6794 1e0b 06       		.sleb128 6
ARM GAS  C:\Users\EDULU~1.DES\AppData\Local\Temp\ccxcKTgR.s 			page 176


 6795 1e0c 00       		.byte	0
 6796 1e0d 00       		.byte	0
 6797 1e0e 26       		.uleb128 0x26
 6798 1e0f 191B0000 		.4byte	.LASF496
 6799 1e13 01       		.byte	0x1
 6800 1e14 A708     		.2byte	0x8a7
 6801 1e16 07       		.byte	0x7
 6802 1e17 00000000 		.4byte	.LFB18
 6803 1e1b DC000000 		.4byte	.LFE18-.LFB18
 6804 1e1f 01       		.uleb128 0x1
 6805 1e20 9C       		.byte	0x9c
 6806 1e21 3E1F0000 		.4byte	0x1f3e
 6807 1e25 27       		.uleb128 0x27
 6808 1e26 E0120000 		.4byte	.LASF491
 6809 1e2a 01       		.byte	0x1
 6810 1e2b A708     		.2byte	0x8a7
 6811 1e2d 1F       		.byte	0x1f
 6812 1e2e 0B160000 		.4byte	0x160b
 6813 1e32 3F020000 		.4byte	.LLST57
 6814 1e36 37020000 		.4byte	.LVUS57
 6815 1e3a 27       		.uleb128 0x27
 6816 1e3b DE0A0000 		.4byte	.LASF492
 6817 1e3f 01       		.byte	0x1
 6818 1e40 A808     		.2byte	0x8a8
 6819 1e42 1F       		.byte	0x1f
 6820 1e43 3A1C0000 		.4byte	0x1c3a
 6821 1e47 7E020000 		.4byte	.LLST58
 6822 1e4b 76020000 		.4byte	.LVUS58
 6823 1e4f 28       		.uleb128 0x28
 6824 1e50 9A0B0000 		.4byte	.LASF493
 6825 1e54 01       		.byte	0x1
 6826 1e55 AA08     		.2byte	0x8aa
 6827 1e57 05       		.byte	0x5
 6828 1e58 07010000 		.4byte	0x107
 6829 1e5c BD020000 		.4byte	.LLST59
 6830 1e60 B5020000 		.4byte	.LVUS59
 6831 1e64 29       		.uleb128 0x29
 6832 1e65 0A000000 		.4byte	.LVL210
 6833 1e69 F22A0000 		.4byte	0x2af2
 6834 1e6d 29       		.uleb128 0x29
 6835 1e6e 10000000 		.4byte	.LVL212
 6836 1e72 FF2A0000 		.4byte	0x2aff
 6837 1e76 29       		.uleb128 0x29
 6838 1e77 28000000 		.4byte	.LVL213
 6839 1e7b 0C2B0000 		.4byte	0x2b0c
 6840 1e7f 2A       		.uleb128 0x2a
 6841 1e80 2E000000 		.4byte	.LVL214
 6842 1e84 192B0000 		.4byte	0x2b19
 6843 1e88 931E0000 		.4byte	0x1e93
 6844 1e8c 2B       		.uleb128 0x2b
 6845 1e8d 01       		.uleb128 0x1
 6846 1e8e 50       		.byte	0x50
 6847 1e8f 02       		.uleb128 0x2
 6848 1e90 75       		.byte	0x75
 6849 1e91 00       		.sleb128 0
 6850 1e92 00       		.byte	0
 6851 1e93 29       		.uleb128 0x29
ARM GAS  C:\Users\EDULU~1.DES\AppData\Local\Temp\ccxcKTgR.s 			page 177


 6852 1e94 36000000 		.4byte	.LVL215
 6853 1e98 332B0000 		.4byte	0x2b33
 6854 1e9c 29       		.uleb128 0x29
 6855 1e9d 4A000000 		.4byte	.LVL220
 6856 1ea1 0C2B0000 		.4byte	0x2b0c
 6857 1ea5 2A       		.uleb128 0x2a
 6858 1ea6 50000000 		.4byte	.LVL221
 6859 1eaa 192B0000 		.4byte	0x2b19
 6860 1eae B91E0000 		.4byte	0x1eb9
 6861 1eb2 2B       		.uleb128 0x2b
 6862 1eb3 01       		.uleb128 0x1
 6863 1eb4 50       		.byte	0x50
 6864 1eb5 02       		.uleb128 0x2
 6865 1eb6 75       		.byte	0x75
 6866 1eb7 00       		.sleb128 0
 6867 1eb8 00       		.byte	0
 6868 1eb9 2A       		.uleb128 0x2a
 6869 1eba 5E000000 		.4byte	.LVL222
 6870 1ebe 672B0000 		.4byte	0x2b67
 6871 1ec2 CD1E0000 		.4byte	0x1ecd
 6872 1ec6 2B       		.uleb128 0x2b
 6873 1ec7 01       		.uleb128 0x1
 6874 1ec8 50       		.byte	0x50
 6875 1ec9 02       		.uleb128 0x2
 6876 1eca 74       		.byte	0x74
 6877 1ecb 00       		.sleb128 0
 6878 1ecc 00       		.byte	0
 6879 1ecd 29       		.uleb128 0x29
 6880 1ece 78000000 		.4byte	.LVL223
 6881 1ed2 0C2B0000 		.4byte	0x2b0c
 6882 1ed6 2A       		.uleb128 0x2a
 6883 1ed7 7E000000 		.4byte	.LVL224
 6884 1edb 192B0000 		.4byte	0x2b19
 6885 1edf EA1E0000 		.4byte	0x1eea
 6886 1ee3 2B       		.uleb128 0x2b
 6887 1ee4 01       		.uleb128 0x1
 6888 1ee5 50       		.byte	0x50
 6889 1ee6 02       		.uleb128 0x2
 6890 1ee7 75       		.byte	0x75
 6891 1ee8 00       		.sleb128 0
 6892 1ee9 00       		.byte	0
 6893 1eea 29       		.uleb128 0x29
 6894 1eeb 98000000 		.4byte	.LVL225
 6895 1eef 0C2B0000 		.4byte	0x2b0c
 6896 1ef3 2A       		.uleb128 0x2a
 6897 1ef4 9E000000 		.4byte	.LVL226
 6898 1ef8 192B0000 		.4byte	0x2b19
 6899 1efc 071F0000 		.4byte	0x1f07
 6900 1f00 2B       		.uleb128 0x2b
 6901 1f01 01       		.uleb128 0x1
 6902 1f02 50       		.byte	0x50
 6903 1f03 02       		.uleb128 0x2
 6904 1f04 75       		.byte	0x75
 6905 1f05 00       		.sleb128 0
 6906 1f06 00       		.byte	0
 6907 1f07 29       		.uleb128 0x29
 6908 1f08 B8000000 		.4byte	.LVL227
ARM GAS  C:\Users\EDULU~1.DES\AppData\Local\Temp\ccxcKTgR.s 			page 178


 6909 1f0c 0C2B0000 		.4byte	0x2b0c
 6910 1f10 2A       		.uleb128 0x2a
 6911 1f11 BE000000 		.4byte	.LVL228
 6912 1f15 192B0000 		.4byte	0x2b19
 6913 1f19 241F0000 		.4byte	0x1f24
 6914 1f1d 2B       		.uleb128 0x2b
 6915 1f1e 01       		.uleb128 0x1
 6916 1f1f 50       		.byte	0x50
 6917 1f20 02       		.uleb128 0x2
 6918 1f21 75       		.byte	0x75
 6919 1f22 00       		.sleb128 0
 6920 1f23 00       		.byte	0
 6921 1f24 29       		.uleb128 0x29
 6922 1f25 C4000000 		.4byte	.LVL229
 6923 1f29 0C2B0000 		.4byte	0x2b0c
 6924 1f2d 2C       		.uleb128 0x2c
 6925 1f2e CA000000 		.4byte	.LVL230
 6926 1f32 192B0000 		.4byte	0x2b19
 6927 1f36 2B       		.uleb128 0x2b
 6928 1f37 01       		.uleb128 0x1
 6929 1f38 50       		.byte	0x50
 6930 1f39 02       		.uleb128 0x2
 6931 1f3a 75       		.byte	0x75
 6932 1f3b 00       		.sleb128 0
 6933 1f3c 00       		.byte	0
 6934 1f3d 00       		.byte	0
 6935 1f3e 26       		.uleb128 0x26
 6936 1f3f 56050000 		.4byte	.LASF497
 6937 1f43 01       		.byte	0x1
 6938 1f44 A507     		.2byte	0x7a5
 6939 1f46 07       		.byte	0x7
 6940 1f47 00000000 		.4byte	.LFB17
 6941 1f4b 80000000 		.4byte	.LFE17-.LFB17
 6942 1f4f 01       		.uleb128 0x1
 6943 1f50 9C       		.byte	0x9c
 6944 1f51 7A1F0000 		.4byte	0x1f7a
 6945 1f55 31       		.uleb128 0x31
 6946 1f56 E0120000 		.4byte	.LASF491
 6947 1f5a 01       		.byte	0x1
 6948 1f5b A507     		.2byte	0x7a5
 6949 1f5d 20       		.byte	0x20
 6950 1f5e 0B160000 		.4byte	0x160b
 6951 1f62 01       		.uleb128 0x1
 6952 1f63 50       		.byte	0x50
 6953 1f64 28       		.uleb128 0x28
 6954 1f65 A5070000 		.4byte	.LASF498
 6955 1f69 01       		.byte	0x1
 6956 1f6a A807     		.2byte	0x7a8
 6957 1f6c 11       		.byte	0x11
 6958 1f6d 170B0000 		.4byte	0xb17
 6959 1f71 F8020000 		.4byte	.LLST38
 6960 1f75 F2020000 		.4byte	.LVUS38
 6961 1f79 00       		.byte	0
 6962 1f7a 26       		.uleb128 0x26
 6963 1f7b A7020000 		.4byte	.LASF499
 6964 1f7f 01       		.byte	0x1
 6965 1f80 8307     		.2byte	0x783
ARM GAS  C:\Users\EDULU~1.DES\AppData\Local\Temp\ccxcKTgR.s 			page 179


 6966 1f82 07       		.byte	0x7
 6967 1f83 00000000 		.4byte	.LFB16
 6968 1f87 20000000 		.4byte	.LFE16-.LFB16
 6969 1f8b 01       		.uleb128 0x1
 6970 1f8c 9C       		.byte	0x9c
 6971 1f8d A11F0000 		.4byte	0x1fa1
 6972 1f91 31       		.uleb128 0x31
 6973 1f92 DE0A0000 		.4byte	.LASF492
 6974 1f96 01       		.byte	0x1
 6975 1f97 8307     		.2byte	0x783
 6976 1f99 1D       		.byte	0x1d
 6977 1f9a 3A1C0000 		.4byte	0x1c3a
 6978 1f9e 01       		.uleb128 0x1
 6979 1f9f 50       		.byte	0x50
 6980 1fa0 00       		.byte	0
 6981 1fa1 26       		.uleb128 0x26
 6982 1fa2 86140000 		.4byte	.LASF500
 6983 1fa6 01       		.byte	0x1
 6984 1fa7 5407     		.2byte	0x754
 6985 1fa9 07       		.byte	0x7
 6986 1faa 00000000 		.4byte	.LFB15
 6987 1fae 34000000 		.4byte	.LFE15-.LFB15
 6988 1fb2 01       		.uleb128 0x1
 6989 1fb3 9C       		.byte	0x9c
 6990 1fb4 F21F0000 		.4byte	0x1ff2
 6991 1fb8 31       		.uleb128 0x31
 6992 1fb9 E0120000 		.4byte	.LASF491
 6993 1fbd 01       		.byte	0x1
 6994 1fbe 5407     		.2byte	0x754
 6995 1fc0 26       		.byte	0x26
 6996 1fc1 0B160000 		.4byte	0x160b
 6997 1fc5 01       		.uleb128 0x1
 6998 1fc6 50       		.byte	0x50
 6999 1fc7 28       		.uleb128 0x28
 7000 1fc8 FD090000 		.4byte	.LASF501
 7001 1fcc 01       		.byte	0x1
 7002 1fcd 5607     		.2byte	0x756
 7003 1fcf 0E       		.byte	0xe
 7004 1fd0 0B160000 		.4byte	0x160b
 7005 1fd4 27030000 		.4byte	.LLST36
 7006 1fd8 21030000 		.4byte	.LVUS36
 7007 1fdc 28       		.uleb128 0x28
 7008 1fdd 110A0000 		.4byte	.LASF502
 7009 1fe1 01       		.byte	0x1
 7010 1fe2 5707     		.2byte	0x757
 7011 1fe4 0E       		.byte	0xe
 7012 1fe5 0B160000 		.4byte	0x160b
 7013 1fe9 58030000 		.4byte	.LLST37
 7014 1fed 50030000 		.4byte	.LVUS37
 7015 1ff1 00       		.byte	0
 7016 1ff2 26       		.uleb128 0x26
 7017 1ff3 C0180000 		.4byte	.LASF503
 7018 1ff7 01       		.byte	0x1
 7019 1ff8 4607     		.2byte	0x746
 7020 1ffa 07       		.byte	0x7
 7021 1ffb 00000000 		.4byte	.LFB14
 7022 1fff 20000000 		.4byte	.LFE14-.LFB14
ARM GAS  C:\Users\EDULU~1.DES\AppData\Local\Temp\ccxcKTgR.s 			page 180


 7023 2003 01       		.uleb128 0x1
 7024 2004 9C       		.byte	0x9c
 7025 2005 19200000 		.4byte	0x2019
 7026 2009 31       		.uleb128 0x31
 7027 200a E0120000 		.4byte	.LASF491
 7028 200e 01       		.byte	0x1
 7029 200f 4607     		.2byte	0x746
 7030 2011 23       		.byte	0x23
 7031 2012 0B160000 		.4byte	0x160b
 7032 2016 01       		.uleb128 0x1
 7033 2017 50       		.byte	0x50
 7034 2018 00       		.byte	0
 7035 2019 26       		.uleb128 0x26
 7036 201a E8150000 		.4byte	.LASF504
 7037 201e 01       		.byte	0x1
 7038 201f CA06     		.2byte	0x6ca
 7039 2021 08       		.byte	0x8
 7040 2022 00000000 		.4byte	.LFB13
 7041 2026 34000000 		.4byte	.LFE13-.LFB13
 7042 202a 01       		.uleb128 0x1
 7043 202b 9C       		.byte	0x9c
 7044 202c 73200000 		.4byte	0x2073
 7045 2030 27       		.uleb128 0x27
 7046 2031 E0120000 		.4byte	.LASF491
 7047 2035 01       		.byte	0x1
 7048 2036 CA06     		.2byte	0x6ca
 7049 2038 20       		.byte	0x20
 7050 2039 0B160000 		.4byte	0x160b
 7051 203d 94030000 		.4byte	.LLST77
 7052 2041 8E030000 		.4byte	.LVUS77
 7053 2045 27       		.uleb128 0x27
 7054 2046 DE0A0000 		.4byte	.LASF492
 7055 204a 01       		.byte	0x1
 7056 204b CB06     		.2byte	0x6cb
 7057 204d 20       		.byte	0x20
 7058 204e 3A1C0000 		.4byte	0x1c3a
 7059 2052 C6030000 		.4byte	.LLST78
 7060 2056 C0030000 		.4byte	.LVUS78
 7061 205a 2C       		.uleb128 0x2c
 7062 205b 14000000 		.4byte	.LVL318
 7063 205f ED1A0000 		.4byte	0x1aed
 7064 2063 2B       		.uleb128 0x2b
 7065 2064 01       		.uleb128 0x1
 7066 2065 50       		.byte	0x50
 7067 2066 03       		.uleb128 0x3
 7068 2067 F3       		.byte	0xf3
 7069 2068 01       		.uleb128 0x1
 7070 2069 50       		.byte	0x50
 7071 206a 2B       		.uleb128 0x2b
 7072 206b 01       		.uleb128 0x1
 7073 206c 51       		.byte	0x51
 7074 206d 03       		.uleb128 0x3
 7075 206e F3       		.byte	0xf3
 7076 206f 01       		.uleb128 0x1
 7077 2070 51       		.byte	0x51
 7078 2071 00       		.byte	0
 7079 2072 00       		.byte	0
ARM GAS  C:\Users\EDULU~1.DES\AppData\Local\Temp\ccxcKTgR.s 			page 181


 7080 2073 26       		.uleb128 0x26
 7081 2074 641A0000 		.4byte	.LASF505
 7082 2078 01       		.byte	0x1
 7083 2079 5E06     		.2byte	0x65e
 7084 207b 07       		.byte	0x7
 7085 207c 00000000 		.4byte	.LFB12
 7086 2080 BC000000 		.4byte	.LFE12-.LFB12
 7087 2084 01       		.uleb128 0x1
 7088 2085 9C       		.byte	0x9c
 7089 2086 86210000 		.4byte	0x2186
 7090 208a 27       		.uleb128 0x27
 7091 208b E0120000 		.4byte	.LASF491
 7092 208f 01       		.byte	0x1
 7093 2090 5E06     		.2byte	0x65e
 7094 2092 24       		.byte	0x24
 7095 2093 0B160000 		.4byte	0x160b
 7096 2097 FE030000 		.4byte	.LLST29
 7097 209b F2030000 		.4byte	.LVUS29
 7098 209f 27       		.uleb128 0x27
 7099 20a0 18030000 		.4byte	.LASF506
 7100 20a4 01       		.byte	0x1
 7101 20a5 5F06     		.2byte	0x65f
 7102 20a7 24       		.byte	0x24
 7103 20a8 86210000 		.4byte	0x2186
 7104 20ac 56040000 		.4byte	.LLST30
 7105 20b0 48040000 		.4byte	.LVUS30
 7106 20b4 27       		.uleb128 0x27
 7107 20b5 121C0000 		.4byte	.LASF507
 7108 20b9 01       		.byte	0x1
 7109 20ba 6006     		.2byte	0x660
 7110 20bc 24       		.byte	0x24
 7111 20bd 86210000 		.4byte	0x2186
 7112 20c1 BC040000 		.4byte	.LLST31
 7113 20c5 AE040000 		.4byte	.LVUS31
 7114 20c9 27       		.uleb128 0x27
 7115 20ca DE0A0000 		.4byte	.LASF492
 7116 20ce 01       		.byte	0x1
 7117 20cf 6106     		.2byte	0x661
 7118 20d1 24       		.byte	0x24
 7119 20d2 3A1C0000 		.4byte	0x1c3a
 7120 20d6 1C050000 		.4byte	.LLST32
 7121 20da 14050000 		.4byte	.LVUS32
 7122 20de 28       		.uleb128 0x28
 7123 20df DC1F0000 		.4byte	.LASF508
 7124 20e3 01       		.byte	0x1
 7125 20e4 6306     		.2byte	0x663
 7126 20e6 13       		.byte	0x13
 7127 20e7 F6000000 		.4byte	0xf6
 7128 20eb 5B050000 		.4byte	.LLST33
 7129 20ef 53050000 		.4byte	.LVUS33
 7130 20f3 28       		.uleb128 0x28
 7131 20f4 61070000 		.4byte	.LASF509
 7132 20f8 01       		.byte	0x1
 7133 20f9 6406     		.2byte	0x664
 7134 20fb 13       		.byte	0x13
 7135 20fc 5F0B0000 		.4byte	0xb5f
 7136 2100 95050000 		.4byte	.LLST34
ARM GAS  C:\Users\EDULU~1.DES\AppData\Local\Temp\ccxcKTgR.s 			page 182


 7137 2104 91050000 		.4byte	.LVUS34
 7138 2108 28       		.uleb128 0x28
 7139 2109 9A0B0000 		.4byte	.LASF493
 7140 210d 01       		.byte	0x1
 7141 210e 6506     		.2byte	0x665
 7142 2110 05       		.byte	0x5
 7143 2111 07010000 		.4byte	0x107
 7144 2115 BF050000 		.4byte	.LLST35
 7145 2119 B3050000 		.4byte	.LVUS35
 7146 211d 29       		.uleb128 0x29
 7147 211e 20000000 		.4byte	.LVL121
 7148 2122 F22A0000 		.4byte	0x2af2
 7149 2126 29       		.uleb128 0x29
 7150 2127 26000000 		.4byte	.LVL123
 7151 212b FF2A0000 		.4byte	0x2aff
 7152 212f 29       		.uleb128 0x29
 7153 2130 3A000000 		.4byte	.LVL124
 7154 2134 0C2B0000 		.4byte	0x2b0c
 7155 2138 2A       		.uleb128 0x2a
 7156 2139 40000000 		.4byte	.LVL125
 7157 213d 192B0000 		.4byte	0x2b19
 7158 2141 4D210000 		.4byte	0x214d
 7159 2145 2B       		.uleb128 0x2b
 7160 2146 01       		.uleb128 0x1
 7161 2147 50       		.byte	0x50
 7162 2148 03       		.uleb128 0x3
 7163 2149 91       		.byte	0x91
 7164 214a 64       		.sleb128 -28
 7165 214b 06       		.byte	0x6
 7166 214c 00       		.byte	0
 7167 214d 29       		.uleb128 0x29
 7168 214e 6E000000 		.4byte	.LVL139
 7169 2152 0C2B0000 		.4byte	0x2b0c
 7170 2156 2A       		.uleb128 0x2a
 7171 2157 74000000 		.4byte	.LVL140
 7172 215b 192B0000 		.4byte	0x2b19
 7173 215f 6B210000 		.4byte	0x216b
 7174 2163 2B       		.uleb128 0x2b
 7175 2164 01       		.uleb128 0x1
 7176 2165 50       		.byte	0x50
 7177 2166 03       		.uleb128 0x3
 7178 2167 91       		.byte	0x91
 7179 2168 64       		.sleb128 -28
 7180 2169 06       		.byte	0x6
 7181 216a 00       		.byte	0
 7182 216b 29       		.uleb128 0x29
 7183 216c 84000000 		.4byte	.LVL141
 7184 2170 0C2B0000 		.4byte	0x2b0c
 7185 2174 2C       		.uleb128 0x2c
 7186 2175 8A000000 		.4byte	.LVL142
 7187 2179 192B0000 		.4byte	0x2b19
 7188 217d 2B       		.uleb128 0x2b
 7189 217e 01       		.uleb128 0x1
 7190 217f 50       		.byte	0x50
 7191 2180 03       		.uleb128 0x3
 7192 2181 91       		.byte	0x91
 7193 2182 64       		.sleb128 -28
ARM GAS  C:\Users\EDULU~1.DES\AppData\Local\Temp\ccxcKTgR.s 			page 183


 7194 2183 06       		.byte	0x6
 7195 2184 00       		.byte	0
 7196 2185 00       		.byte	0
 7197 2186 06       		.uleb128 0x6
 7198 2187 04       		.byte	0x4
 7199 2188 F6000000 		.4byte	0xf6
 7200 218c 2D       		.uleb128 0x2d
 7201 218d 45080000 		.4byte	.LASF511
 7202 2191 01       		.byte	0x1
 7203 2192 2206     		.2byte	0x622
 7204 2194 0D       		.byte	0xd
 7205 2195 230B0000 		.4byte	0xb23
 7206 2199 00000000 		.4byte	.LFB11
 7207 219d 54000000 		.4byte	.LFE11-.LFB11
 7208 21a1 01       		.uleb128 0x1
 7209 21a2 9C       		.byte	0x9c
 7210 21a3 3D220000 		.4byte	0x223d
 7211 21a7 27       		.uleb128 0x27
 7212 21a8 E0120000 		.4byte	.LASF491
 7213 21ac 01       		.byte	0x1
 7214 21ad 2206     		.2byte	0x622
 7215 21af 28       		.byte	0x28
 7216 21b0 0B160000 		.4byte	0x160b
 7217 21b4 16060000 		.4byte	.LLST24
 7218 21b8 0E060000 		.4byte	.LVUS24
 7219 21bc 2E       		.uleb128 0x2e
 7220 21bd 636E7400 		.ascii	"cnt\000"
 7221 21c1 01       		.byte	0x1
 7222 21c2 2306     		.2byte	0x623
 7223 21c4 28       		.byte	0x28
 7224 21c5 230B0000 		.4byte	0xb23
 7225 21c9 54060000 		.4byte	.LLST25
 7226 21cd 4A060000 		.4byte	.LVUS25
 7227 21d1 27       		.uleb128 0x27
 7228 21d2 DE0A0000 		.4byte	.LASF492
 7229 21d6 01       		.byte	0x1
 7230 21d7 2406     		.2byte	0x624
 7231 21d9 28       		.byte	0x28
 7232 21da 3A1C0000 		.4byte	0x1c3a
 7233 21de A0060000 		.4byte	.LLST26
 7234 21e2 96060000 		.4byte	.LVUS26
 7235 21e6 2F       		.uleb128 0x2f
 7236 21e7 63747200 		.ascii	"ctr\000"
 7237 21eb 01       		.byte	0x1
 7238 21ec 2606     		.2byte	0x626
 7239 21ee 11       		.byte	0x11
 7240 21ef 230B0000 		.4byte	0xb23
 7241 21f3 E4060000 		.4byte	.LLST27
 7242 21f7 E2060000 		.4byte	.LVUS27
 7243 21fb 28       		.uleb128 0x28
 7244 21fc 9A0B0000 		.4byte	.LASF493
 7245 2200 01       		.byte	0x1
 7246 2201 2706     		.2byte	0x627
 7247 2203 05       		.byte	0x5
 7248 2204 07010000 		.4byte	0x107
 7249 2208 FF060000 		.4byte	.LLST28
 7250 220c F7060000 		.4byte	.LVUS28
ARM GAS  C:\Users\EDULU~1.DES\AppData\Local\Temp\ccxcKTgR.s 			page 184


 7251 2210 29       		.uleb128 0x29
 7252 2211 22000000 		.4byte	.LVL110
 7253 2215 F22A0000 		.4byte	0x2af2
 7254 2219 29       		.uleb128 0x29
 7255 221a 28000000 		.4byte	.LVL112
 7256 221e FF2A0000 		.4byte	0x2aff
 7257 2222 29       		.uleb128 0x29
 7258 2223 34000000 		.4byte	.LVL114
 7259 2227 0C2B0000 		.4byte	0x2b0c
 7260 222b 2C       		.uleb128 0x2c
 7261 222c 3A000000 		.4byte	.LVL115
 7262 2230 192B0000 		.4byte	0x2b19
 7263 2234 2B       		.uleb128 0x2b
 7264 2235 01       		.uleb128 0x1
 7265 2236 50       		.byte	0x50
 7266 2237 03       		.uleb128 0x3
 7267 2238 91       		.byte	0x91
 7268 2239 64       		.sleb128 -28
 7269 223a 06       		.byte	0x6
 7270 223b 00       		.byte	0
 7271 223c 00       		.byte	0
 7272 223d 2D       		.uleb128 0x2d
 7273 223e CF1E0000 		.4byte	.LASF512
 7274 2242 01       		.byte	0x1
 7275 2243 D905     		.2byte	0x5d9
 7276 2245 0D       		.byte	0xd
 7277 2246 230B0000 		.4byte	0xb23
 7278 224a 00000000 		.4byte	.LFB10
 7279 224e 34000000 		.4byte	.LFE10-.LFB10
 7280 2252 01       		.uleb128 0x1
 7281 2253 9C       		.byte	0x9c
 7282 2254 E6220000 		.4byte	0x22e6
 7283 2258 27       		.uleb128 0x27
 7284 2259 E0120000 		.4byte	.LASF491
 7285 225d 01       		.byte	0x1
 7286 225e D905     		.2byte	0x5d9
 7287 2260 25       		.byte	0x25
 7288 2261 0B160000 		.4byte	0x160b
 7289 2265 40070000 		.4byte	.LLST69
 7290 2269 36070000 		.4byte	.LVUS69
 7291 226d 2E       		.uleb128 0x2e
 7292 226e 6F707400 		.ascii	"opt\000"
 7293 2272 01       		.byte	0x1
 7294 2273 DA05     		.2byte	0x5da
 7295 2275 25       		.byte	0x25
 7296 2276 DD0A0000 		.4byte	0xadd
 7297 227a 8A070000 		.4byte	.LLST70
 7298 227e 82070000 		.4byte	.LVUS70
 7299 2282 27       		.uleb128 0x27
 7300 2283 DE0A0000 		.4byte	.LASF492
 7301 2287 01       		.byte	0x1
 7302 2288 DB05     		.2byte	0x5db
 7303 228a 25       		.byte	0x25
 7304 228b 3A1C0000 		.4byte	0x1c3a
 7305 228f CE070000 		.4byte	.LLST71
 7306 2293 C4070000 		.4byte	.LVUS71
 7307 2297 2F       		.uleb128 0x2f
ARM GAS  C:\Users\EDULU~1.DES\AppData\Local\Temp\ccxcKTgR.s 			page 185


 7308 2298 63747200 		.ascii	"ctr\000"
 7309 229c 01       		.byte	0x1
 7310 229d DD05     		.2byte	0x5dd
 7311 229f 11       		.byte	0x11
 7312 22a0 230B0000 		.4byte	0xb23
 7313 22a4 12080000 		.4byte	.LLST72
 7314 22a8 10080000 		.4byte	.LVUS72
 7315 22ac 2F       		.uleb128 0x2f
 7316 22ad 747300   		.ascii	"ts\000"
 7317 22b0 01       		.byte	0x1
 7318 22b1 DE05     		.2byte	0x5de
 7319 22b3 11       		.byte	0x11
 7320 22b4 C2090000 		.4byte	0x9c2
 7321 22b8 29080000 		.4byte	.LLST73
 7322 22bc 25080000 		.4byte	.LVUS73
 7323 22c0 29       		.uleb128 0x29
 7324 22c1 20000000 		.4byte	.LVL287
 7325 22c5 742B0000 		.4byte	0x2b74
 7326 22c9 2C       		.uleb128 0x2c
 7327 22ca 2C000000 		.4byte	.LVL290
 7328 22ce 401C0000 		.4byte	0x1c40
 7329 22d2 2B       		.uleb128 0x2b
 7330 22d3 01       		.uleb128 0x1
 7331 22d4 50       		.byte	0x50
 7332 22d5 02       		.uleb128 0x2
 7333 22d6 76       		.byte	0x76
 7334 22d7 00       		.sleb128 0
 7335 22d8 2B       		.uleb128 0x2b
 7336 22d9 01       		.uleb128 0x1
 7337 22da 51       		.byte	0x51
 7338 22db 02       		.uleb128 0x2
 7339 22dc 74       		.byte	0x74
 7340 22dd 00       		.sleb128 0
 7341 22de 2B       		.uleb128 0x2b
 7342 22df 01       		.uleb128 0x1
 7343 22e0 53       		.byte	0x53
 7344 22e1 02       		.uleb128 0x2
 7345 22e2 75       		.byte	0x75
 7346 22e3 00       		.sleb128 0
 7347 22e4 00       		.byte	0
 7348 22e5 00       		.byte	0
 7349 22e6 2D       		.uleb128 0x2d
 7350 22e7 F91F0000 		.4byte	.LASF513
 7351 22eb 01       		.byte	0x1
 7352 22ec EE04     		.2byte	0x4ee
 7353 22ee 0D       		.byte	0xd
 7354 22ef 230B0000 		.4byte	0xb23
 7355 22f3 00000000 		.4byte	.LFB9
 7356 22f7 3C010000 		.4byte	.LFE9-.LFB9
 7357 22fb 01       		.uleb128 0x1
 7358 22fc 9C       		.byte	0x9c
 7359 22fd 62240000 		.4byte	0x2462
 7360 2301 27       		.uleb128 0x27
 7361 2302 42110000 		.4byte	.LASF514
 7362 2306 01       		.byte	0x1
 7363 2307 EE04     		.2byte	0x4ee
 7364 2309 26       		.byte	0x26
ARM GAS  C:\Users\EDULU~1.DES\AppData\Local\Temp\ccxcKTgR.s 			page 186


 7365 230a 470B0000 		.4byte	0xb47
 7366 230e 51080000 		.4byte	.LLST18
 7367 2312 47080000 		.4byte	.LVUS18
 7368 2316 2E       		.uleb128 0x2e
 7369 2317 6F707400 		.ascii	"opt\000"
 7370 231b 01       		.byte	0x1
 7371 231c EF04     		.2byte	0x4ef
 7372 231e 26       		.byte	0x26
 7373 231f DD0A0000 		.4byte	0xadd
 7374 2323 9B080000 		.4byte	.LLST19
 7375 2327 93080000 		.4byte	.LVUS19
 7376 232b 27       		.uleb128 0x27
 7377 232c 09140000 		.4byte	.LASF515
 7378 2330 01       		.byte	0x1
 7379 2331 F004     		.2byte	0x4f0
 7380 2333 26       		.byte	0x26
 7381 2334 62240000 		.4byte	0x2462
 7382 2338 DF080000 		.4byte	.LLST20
 7383 233c D5080000 		.4byte	.LVUS20
 7384 2340 27       		.uleb128 0x27
 7385 2341 DE0A0000 		.4byte	.LASF492
 7386 2345 01       		.byte	0x1
 7387 2346 F104     		.2byte	0x4f1
 7388 2348 26       		.byte	0x26
 7389 2349 3A1C0000 		.4byte	0x1c3a
 7390 234d 29090000 		.4byte	.LLST21
 7391 2351 21090000 		.4byte	.LVUS21
 7392 2355 2F       		.uleb128 0x2f
 7393 2356 63747200 		.ascii	"ctr\000"
 7394 235a 01       		.byte	0x1
 7395 235b F304     		.2byte	0x4f3
 7396 235d 13       		.byte	0x13
 7397 235e 230B0000 		.4byte	0xb23
 7398 2362 64090000 		.4byte	.LLST22
 7399 2366 60090000 		.4byte	.LVUS22
 7400 236a 28       		.uleb128 0x28
 7401 236b 9A0B0000 		.4byte	.LASF493
 7402 236f 01       		.byte	0x1
 7403 2370 F404     		.2byte	0x4f4
 7404 2372 05       		.byte	0x5
 7405 2373 07010000 		.4byte	0x107
 7406 2377 92090000 		.4byte	.LLST23
 7407 237b 82090000 		.4byte	.LVUS23
 7408 237f 29       		.uleb128 0x29
 7409 2380 40000000 		.4byte	.LVL79
 7410 2384 F22A0000 		.4byte	0x2af2
 7411 2388 29       		.uleb128 0x29
 7412 2389 46000000 		.4byte	.LVL81
 7413 238d FF2A0000 		.4byte	0x2aff
 7414 2391 2A       		.uleb128 0x2a
 7415 2392 6A000000 		.4byte	.LVL82
 7416 2396 812B0000 		.4byte	0x2b81
 7417 239a B5230000 		.4byte	0x23b5
 7418 239e 2B       		.uleb128 0x2b
 7419 239f 01       		.uleb128 0x1
 7420 23a0 50       		.byte	0x50
 7421 23a1 01       		.uleb128 0x1
ARM GAS  C:\Users\EDULU~1.DES\AppData\Local\Temp\ccxcKTgR.s 			page 187


 7422 23a2 30       		.byte	0x30
 7423 23a3 2B       		.uleb128 0x2b
 7424 23a4 01       		.uleb128 0x1
 7425 23a5 51       		.byte	0x51
 7426 23a6 01       		.uleb128 0x1
 7427 23a7 30       		.byte	0x30
 7428 23a8 2B       		.uleb128 0x2b
 7429 23a9 01       		.uleb128 0x1
 7430 23aa 52       		.byte	0x52
 7431 23ab 01       		.uleb128 0x1
 7432 23ac 37       		.byte	0x37
 7433 23ad 2B       		.uleb128 0x2b
 7434 23ae 01       		.uleb128 0x1
 7435 23af 53       		.byte	0x53
 7436 23b0 03       		.uleb128 0x3
 7437 23b1 7D       		.byte	0x7d
 7438 23b2 00       		.sleb128 0
 7439 23b3 06       		.byte	0x6
 7440 23b4 00       		.byte	0
 7441 23b5 29       		.uleb128 0x29
 7442 23b6 6E000000 		.4byte	.LVL83
 7443 23ba 0C2B0000 		.4byte	0x2b0c
 7444 23be 2A       		.uleb128 0x2a
 7445 23bf 74000000 		.4byte	.LVL84
 7446 23c3 192B0000 		.4byte	0x2b19
 7447 23c7 D3230000 		.4byte	0x23d3
 7448 23cb 2B       		.uleb128 0x2b
 7449 23cc 01       		.uleb128 0x1
 7450 23cd 50       		.byte	0x50
 7451 23ce 03       		.uleb128 0x3
 7452 23cf 91       		.byte	0x91
 7453 23d0 64       		.sleb128 -28
 7454 23d1 06       		.byte	0x6
 7455 23d2 00       		.byte	0
 7456 23d3 29       		.uleb128 0x29
 7457 23d4 78000000 		.4byte	.LVL85
 7458 23d8 332B0000 		.4byte	0x2b33
 7459 23dc 29       		.uleb128 0x29
 7460 23dd 7C000000 		.4byte	.LVL86
 7461 23e1 F22A0000 		.4byte	0x2af2
 7462 23e5 29       		.uleb128 0x29
 7463 23e6 82000000 		.4byte	.LVL88
 7464 23ea FF2A0000 		.4byte	0x2aff
 7465 23ee 29       		.uleb128 0x29
 7466 23ef AC000000 		.4byte	.LVL91
 7467 23f3 0C2B0000 		.4byte	0x2b0c
 7468 23f7 2A       		.uleb128 0x2a
 7469 23f8 B2000000 		.4byte	.LVL92
 7470 23fc 192B0000 		.4byte	0x2b19
 7471 2400 0C240000 		.4byte	0x240c
 7472 2404 2B       		.uleb128 0x2b
 7473 2405 01       		.uleb128 0x1
 7474 2406 50       		.byte	0x50
 7475 2407 03       		.uleb128 0x3
 7476 2408 91       		.byte	0x91
 7477 2409 64       		.sleb128 -28
 7478 240a 06       		.byte	0x6
ARM GAS  C:\Users\EDULU~1.DES\AppData\Local\Temp\ccxcKTgR.s 			page 188


 7479 240b 00       		.byte	0
 7480 240c 29       		.uleb128 0x29
 7481 240d BC000000 		.4byte	.LVL94
 7482 2411 0C2B0000 		.4byte	0x2b0c
 7483 2415 2A       		.uleb128 0x2a
 7484 2416 C2000000 		.4byte	.LVL95
 7485 241a 192B0000 		.4byte	0x2b19
 7486 241e 2A240000 		.4byte	0x242a
 7487 2422 2B       		.uleb128 0x2b
 7488 2423 01       		.uleb128 0x1
 7489 2424 50       		.byte	0x50
 7490 2425 03       		.uleb128 0x3
 7491 2426 91       		.byte	0x91
 7492 2427 64       		.sleb128 -28
 7493 2428 06       		.byte	0x6
 7494 2429 00       		.byte	0
 7495 242a 29       		.uleb128 0x29
 7496 242b CC000000 		.4byte	.LVL96
 7497 242f 0C2B0000 		.4byte	0x2b0c
 7498 2433 2A       		.uleb128 0x2a
 7499 2434 D2000000 		.4byte	.LVL97
 7500 2438 192B0000 		.4byte	0x2b19
 7501 243c 48240000 		.4byte	0x2448
 7502 2440 2B       		.uleb128 0x2b
 7503 2441 01       		.uleb128 0x1
 7504 2442 50       		.byte	0x50
 7505 2443 03       		.uleb128 0x3
 7506 2444 91       		.byte	0x91
 7507 2445 64       		.sleb128 -28
 7508 2446 06       		.byte	0x6
 7509 2447 00       		.byte	0
 7510 2448 29       		.uleb128 0x29
 7511 2449 EE000000 		.4byte	.LVL100
 7512 244d 0C2B0000 		.4byte	0x2b0c
 7513 2451 2C       		.uleb128 0x2c
 7514 2452 F4000000 		.4byte	.LVL101
 7515 2456 192B0000 		.4byte	0x2b19
 7516 245a 2B       		.uleb128 0x2b
 7517 245b 01       		.uleb128 0x1
 7518 245c 50       		.byte	0x50
 7519 245d 02       		.uleb128 0x2
 7520 245e 74       		.byte	0x74
 7521 245f 00       		.sleb128 0
 7522 2460 00       		.byte	0
 7523 2461 00       		.byte	0
 7524 2462 06       		.uleb128 0x6
 7525 2463 04       		.byte	0x4
 7526 2464 C2090000 		.4byte	0x9c2
 7527 2468 26       		.uleb128 0x26
 7528 2469 171A0000 		.4byte	.LASF516
 7529 246d 01       		.byte	0x1
 7530 246e 9804     		.2byte	0x498
 7531 2470 07       		.byte	0x7
 7532 2471 00000000 		.4byte	.LFB8
 7533 2475 60000000 		.4byte	.LFE8-.LFB8
 7534 2479 01       		.uleb128 0x1
 7535 247a 9C       		.byte	0x9c
ARM GAS  C:\Users\EDULU~1.DES\AppData\Local\Temp\ccxcKTgR.s 			page 189


 7536 247b 21250000 		.4byte	0x2521
 7537 247f 27       		.uleb128 0x27
 7538 2480 E0120000 		.4byte	.LASF491
 7539 2484 01       		.byte	0x1
 7540 2485 9804     		.2byte	0x498
 7541 2487 1E       		.byte	0x1e
 7542 2488 0B160000 		.4byte	0x160b
 7543 248c 000A0000 		.4byte	.LLST60
 7544 2490 F6090000 		.4byte	.LVUS60
 7545 2494 27       		.uleb128 0x27
 7546 2495 DE0A0000 		.4byte	.LASF492
 7547 2499 01       		.byte	0x1
 7548 249a 9904     		.2byte	0x499
 7549 249c 1E       		.byte	0x1e
 7550 249d 3A1C0000 		.4byte	0x1c3a
 7551 24a1 4C0A0000 		.4byte	.LLST61
 7552 24a5 420A0000 		.4byte	.LVUS61
 7553 24a9 28       		.uleb128 0x28
 7554 24aa 9A0B0000 		.4byte	.LASF493
 7555 24ae 01       		.byte	0x1
 7556 24af 9B04     		.2byte	0x49b
 7557 24b1 05       		.byte	0x5
 7558 24b2 07010000 		.4byte	0x107
 7559 24b6 960A0000 		.4byte	.LLST62
 7560 24ba 8E0A0000 		.4byte	.LVUS62
 7561 24be 29       		.uleb128 0x29
 7562 24bf 18000000 		.4byte	.LVL237
 7563 24c3 F22A0000 		.4byte	0x2af2
 7564 24c7 29       		.uleb128 0x29
 7565 24c8 1E000000 		.4byte	.LVL239
 7566 24cc FF2A0000 		.4byte	0x2aff
 7567 24d0 29       		.uleb128 0x29
 7568 24d1 2E000000 		.4byte	.LVL240
 7569 24d5 0C2B0000 		.4byte	0x2b0c
 7570 24d9 2A       		.uleb128 0x2a
 7571 24da 34000000 		.4byte	.LVL241
 7572 24de 192B0000 		.4byte	0x2b19
 7573 24e2 ED240000 		.4byte	0x24ed
 7574 24e6 2B       		.uleb128 0x2b
 7575 24e7 01       		.uleb128 0x1
 7576 24e8 50       		.byte	0x50
 7577 24e9 02       		.uleb128 0x2
 7578 24ea 76       		.byte	0x76
 7579 24eb 00       		.sleb128 0
 7580 24ec 00       		.byte	0
 7581 24ed 2A       		.uleb128 0x2a
 7582 24ee 3C000000 		.4byte	.LVL242
 7583 24f2 0E1E0000 		.4byte	0x1e0e
 7584 24f6 07250000 		.4byte	0x2507
 7585 24fa 2B       		.uleb128 0x2b
 7586 24fb 01       		.uleb128 0x1
 7587 24fc 50       		.byte	0x50
 7588 24fd 02       		.uleb128 0x2
 7589 24fe 74       		.byte	0x74
 7590 24ff 00       		.sleb128 0
 7591 2500 2B       		.uleb128 0x2b
 7592 2501 01       		.uleb128 0x1
ARM GAS  C:\Users\EDULU~1.DES\AppData\Local\Temp\ccxcKTgR.s 			page 190


 7593 2502 51       		.byte	0x51
 7594 2503 02       		.uleb128 0x2
 7595 2504 75       		.byte	0x75
 7596 2505 00       		.sleb128 0
 7597 2506 00       		.byte	0
 7598 2507 29       		.uleb128 0x29
 7599 2508 42000000 		.4byte	.LVL243
 7600 250c 0C2B0000 		.4byte	0x2b0c
 7601 2510 2C       		.uleb128 0x2c
 7602 2511 48000000 		.4byte	.LVL244
 7603 2515 192B0000 		.4byte	0x2b19
 7604 2519 2B       		.uleb128 0x2b
 7605 251a 01       		.uleb128 0x1
 7606 251b 50       		.byte	0x50
 7607 251c 02       		.uleb128 0x2
 7608 251d 76       		.byte	0x76
 7609 251e 00       		.sleb128 0
 7610 251f 00       		.byte	0
 7611 2520 00       		.byte	0
 7612 2521 26       		.uleb128 0x26
 7613 2522 A1130000 		.4byte	.LASF517
 7614 2526 01       		.byte	0x1
 7615 2527 6004     		.2byte	0x460
 7616 2529 07       		.byte	0x7
 7617 252a 00000000 		.4byte	.LFB7
 7618 252e 4C000000 		.4byte	.LFE7-.LFB7
 7619 2532 01       		.uleb128 0x1
 7620 2533 9C       		.byte	0x9c
 7621 2534 CD250000 		.4byte	0x25cd
 7622 2538 27       		.uleb128 0x27
 7623 2539 E0120000 		.4byte	.LASF491
 7624 253d 01       		.byte	0x1
 7625 253e 6004     		.2byte	0x460
 7626 2540 21       		.byte	0x21
 7627 2541 0B160000 		.4byte	0x160b
 7628 2545 D40A0000 		.4byte	.LLST13
 7629 2549 CC0A0000 		.4byte	.LVUS13
 7630 254d 2E       		.uleb128 0x2e
 7631 254e 696400   		.ascii	"id\000"
 7632 2551 01       		.byte	0x1
 7633 2552 6104     		.2byte	0x461
 7634 2554 21       		.byte	0x21
 7635 2555 170B0000 		.4byte	0xb17
 7636 2559 100B0000 		.4byte	.LLST14
 7637 255d 080B0000 		.4byte	.LVUS14
 7638 2561 27       		.uleb128 0x27
 7639 2562 E9070000 		.4byte	.LASF518
 7640 2566 01       		.byte	0x1
 7641 2567 6204     		.2byte	0x462
 7642 2569 21       		.byte	0x21
 7643 256a 0B0B0000 		.4byte	0xb0b
 7644 256e 540B0000 		.4byte	.LLST15
 7645 2572 4A0B0000 		.4byte	.LVUS15
 7646 2576 27       		.uleb128 0x27
 7647 2577 DE0A0000 		.4byte	.LASF492
 7648 257b 01       		.byte	0x1
 7649 257c 6304     		.2byte	0x463
ARM GAS  C:\Users\EDULU~1.DES\AppData\Local\Temp\ccxcKTgR.s 			page 191


 7650 257e 21       		.byte	0x21
 7651 257f 3A1C0000 		.4byte	0x1c3a
 7652 2583 A00B0000 		.4byte	.LLST16
 7653 2587 960B0000 		.4byte	.LVUS16
 7654 258b 28       		.uleb128 0x28
 7655 258c 9A0B0000 		.4byte	.LASF493
 7656 2590 01       		.byte	0x1
 7657 2591 6504     		.2byte	0x465
 7658 2593 05       		.byte	0x5
 7659 2594 07010000 		.4byte	0x107
 7660 2598 EA0B0000 		.4byte	.LLST17
 7661 259c E20B0000 		.4byte	.LVUS17
 7662 25a0 29       		.uleb128 0x29
 7663 25a1 1C000000 		.4byte	.LVL65
 7664 25a5 F22A0000 		.4byte	0x2af2
 7665 25a9 29       		.uleb128 0x29
 7666 25aa 22000000 		.4byte	.LVL67
 7667 25ae FF2A0000 		.4byte	0x2aff
 7668 25b2 29       		.uleb128 0x29
 7669 25b3 32000000 		.4byte	.LVL68
 7670 25b7 0C2B0000 		.4byte	0x2b0c
 7671 25bb 2C       		.uleb128 0x2c
 7672 25bc 38000000 		.4byte	.LVL69
 7673 25c0 192B0000 		.4byte	0x2b19
 7674 25c4 2B       		.uleb128 0x2b
 7675 25c5 01       		.uleb128 0x1
 7676 25c6 50       		.byte	0x50
 7677 25c7 03       		.uleb128 0x3
 7678 25c8 91       		.byte	0x91
 7679 25c9 64       		.sleb128 -28
 7680 25ca 06       		.byte	0x6
 7681 25cb 00       		.byte	0
 7682 25cc 00       		.byte	0
 7683 25cd 2D       		.uleb128 0x2d
 7684 25ce 32200000 		.4byte	.LASF519
 7685 25d2 01       		.byte	0x1
 7686 25d3 2804     		.2byte	0x428
 7687 25d5 0C       		.byte	0xc
 7688 25d6 170B0000 		.4byte	0xb17
 7689 25da 00000000 		.4byte	.LFB6
 7690 25de 48000000 		.4byte	.LFE6-.LFB6
 7691 25e2 01       		.uleb128 0x1
 7692 25e3 9C       		.byte	0x9c
 7693 25e4 6F260000 		.4byte	0x266f
 7694 25e8 27       		.uleb128 0x27
 7695 25e9 DE0A0000 		.4byte	.LASF492
 7696 25ed 01       		.byte	0x1
 7697 25ee 2804     		.2byte	0x428
 7698 25f0 25       		.byte	0x25
 7699 25f1 3A1C0000 		.4byte	0x1c3a
 7700 25f5 290C0000 		.4byte	.LLST10
 7701 25f9 210C0000 		.4byte	.LVUS10
 7702 25fd 2F       		.uleb128 0x2f
 7703 25fe 696400   		.ascii	"id\000"
 7704 2601 01       		.byte	0x1
 7705 2602 2A04     		.2byte	0x42a
 7706 2604 10       		.byte	0x10
ARM GAS  C:\Users\EDULU~1.DES\AppData\Local\Temp\ccxcKTgR.s 			page 192


 7707 2605 170B0000 		.4byte	0xb17
 7708 2609 620C0000 		.4byte	.LLST11
 7709 260d 600C0000 		.4byte	.LVUS11
 7710 2611 28       		.uleb128 0x28
 7711 2612 9A0B0000 		.4byte	.LASF493
 7712 2616 01       		.byte	0x1
 7713 2617 2B04     		.2byte	0x42b
 7714 2619 05       		.byte	0x5
 7715 261a 07010000 		.4byte	0x107
 7716 261e 7D0C0000 		.4byte	.LLST12
 7717 2622 750C0000 		.4byte	.LVUS12
 7718 2626 29       		.uleb128 0x29
 7719 2627 08000000 		.4byte	.LVL45
 7720 262b F22A0000 		.4byte	0x2af2
 7721 262f 29       		.uleb128 0x29
 7722 2630 0E000000 		.4byte	.LVL47
 7723 2634 FF2A0000 		.4byte	0x2aff
 7724 2638 29       		.uleb128 0x29
 7725 2639 20000000 		.4byte	.LVL49
 7726 263d 0C2B0000 		.4byte	0x2b0c
 7727 2641 2A       		.uleb128 0x2a
 7728 2642 26000000 		.4byte	.LVL50
 7729 2646 192B0000 		.4byte	0x2b19
 7730 264a 55260000 		.4byte	0x2655
 7731 264e 2B       		.uleb128 0x2b
 7732 264f 01       		.uleb128 0x1
 7733 2650 50       		.byte	0x50
 7734 2651 02       		.uleb128 0x2
 7735 2652 75       		.byte	0x75
 7736 2653 00       		.sleb128 0
 7737 2654 00       		.byte	0
 7738 2655 29       		.uleb128 0x29
 7739 2656 36000000 		.4byte	.LVL55
 7740 265a 0C2B0000 		.4byte	0x2b0c
 7741 265e 2C       		.uleb128 0x2c
 7742 265f 3C000000 		.4byte	.LVL56
 7743 2663 192B0000 		.4byte	0x2b19
 7744 2667 2B       		.uleb128 0x2b
 7745 2668 01       		.uleb128 0x1
 7746 2669 50       		.byte	0x50
 7747 266a 02       		.uleb128 0x2
 7748 266b 75       		.byte	0x75
 7749 266c 00       		.sleb128 0
 7750 266d 00       		.byte	0
 7751 266e 00       		.byte	0
 7752 266f 2D       		.uleb128 0x2d
 7753 2670 FF060000 		.4byte	.LASF520
 7754 2674 01       		.byte	0x1
 7755 2675 F303     		.2byte	0x3f3
 7756 2677 09       		.byte	0x9
 7757 2678 0B0B0000 		.4byte	0xb0b
 7758 267c 00000000 		.4byte	.LFB5
 7759 2680 4C000000 		.4byte	.LFE5-.LFB5
 7760 2684 01       		.uleb128 0x1
 7761 2685 9C       		.byte	0x9c
 7762 2686 1E270000 		.4byte	0x271e
 7763 268a 27       		.uleb128 0x27
ARM GAS  C:\Users\EDULU~1.DES\AppData\Local\Temp\ccxcKTgR.s 			page 193


 7764 268b E0120000 		.4byte	.LASF491
 7765 268f 01       		.byte	0x1
 7766 2690 F303     		.2byte	0x3f3
 7767 2692 23       		.byte	0x23
 7768 2693 0B160000 		.4byte	0x160b
 7769 2697 BA0C0000 		.4byte	.LLST5
 7770 269b B20C0000 		.4byte	.LVUS5
 7771 269f 2E       		.uleb128 0x2e
 7772 26a0 696400   		.ascii	"id\000"
 7773 26a3 01       		.byte	0x1
 7774 26a4 F403     		.2byte	0x3f4
 7775 26a6 23       		.byte	0x23
 7776 26a7 170B0000 		.4byte	0xb17
 7777 26ab F60C0000 		.4byte	.LLST6
 7778 26af EE0C0000 		.4byte	.LVUS6
 7779 26b3 27       		.uleb128 0x27
 7780 26b4 DE0A0000 		.4byte	.LASF492
 7781 26b8 01       		.byte	0x1
 7782 26b9 F503     		.2byte	0x3f5
 7783 26bb 23       		.byte	0x23
 7784 26bc 3A1C0000 		.4byte	0x1c3a
 7785 26c0 3A0D0000 		.4byte	.LLST7
 7786 26c4 300D0000 		.4byte	.LVUS7
 7787 26c8 28       		.uleb128 0x28
 7788 26c9 E9070000 		.4byte	.LASF518
 7789 26cd 01       		.byte	0x1
 7790 26ce F703     		.2byte	0x3f7
 7791 26d0 10       		.byte	0x10
 7792 26d1 0B0B0000 		.4byte	0xb0b
 7793 26d5 7E0D0000 		.4byte	.LLST8
 7794 26d9 7C0D0000 		.4byte	.LVUS8
 7795 26dd 28       		.uleb128 0x28
 7796 26de 9A0B0000 		.4byte	.LASF493
 7797 26e2 01       		.byte	0x1
 7798 26e3 F803     		.2byte	0x3f8
 7799 26e5 05       		.byte	0x5
 7800 26e6 07010000 		.4byte	0x107
 7801 26ea 990D0000 		.4byte	.LLST9
 7802 26ee 910D0000 		.4byte	.LVUS9
 7803 26f2 29       		.uleb128 0x29
 7804 26f3 1A000000 		.4byte	.LVL35
 7805 26f7 F22A0000 		.4byte	0x2af2
 7806 26fb 29       		.uleb128 0x29
 7807 26fc 20000000 		.4byte	.LVL37
 7808 2700 FF2A0000 		.4byte	0x2aff
 7809 2704 29       		.uleb128 0x29
 7810 2705 30000000 		.4byte	.LVL39
 7811 2709 0C2B0000 		.4byte	0x2b0c
 7812 270d 2C       		.uleb128 0x2c
 7813 270e 36000000 		.4byte	.LVL40
 7814 2712 192B0000 		.4byte	0x2b19
 7815 2716 2B       		.uleb128 0x2b
 7816 2717 01       		.uleb128 0x1
 7817 2718 50       		.byte	0x50
 7818 2719 02       		.uleb128 0x2
 7819 271a 75       		.byte	0x75
 7820 271b 00       		.sleb128 0
ARM GAS  C:\Users\EDULU~1.DES\AppData\Local\Temp\ccxcKTgR.s 			page 194


 7821 271c 00       		.byte	0
 7822 271d 00       		.byte	0
 7823 271e 32       		.uleb128 0x32
 7824 271f 31020000 		.4byte	.LASF521
 7825 2723 01       		.byte	0x1
 7826 2724 F9       		.byte	0xf9
 7827 2725 07       		.byte	0x7
 7828 2726 00000000 		.4byte	.LFB4
 7829 272a 94010000 		.4byte	.LFE4-.LFB4
 7830 272e 01       		.uleb128 0x1
 7831 272f 9C       		.byte	0x9c
 7832 2730 8B290000 		.4byte	0x298b
 7833 2734 33       		.uleb128 0x33
 7834 2735 E0120000 		.4byte	.LASF491
 7835 2739 01       		.byte	0x1
 7836 273a F9       		.byte	0xf9
 7837 273b 24       		.byte	0x24
 7838 273c 0B160000 		.4byte	0x160b
 7839 2740 D90D0000 		.4byte	.LLST39
 7840 2744 CF0D0000 		.4byte	.LVUS39
 7841 2748 33       		.uleb128 0x33
 7842 2749 8C1F0000 		.4byte	.LASF522
 7843 274d 01       		.byte	0x1
 7844 274e FA       		.byte	0xfa
 7845 274f 24       		.byte	0x24
 7846 2750 1D160000 		.4byte	0x161d
 7847 2754 230E0000 		.4byte	.LLST40
 7848 2758 1B0E0000 		.4byte	.LVUS40
 7849 275c 33       		.uleb128 0x33
 7850 275d 24050000 		.4byte	.LASF523
 7851 2761 01       		.byte	0x1
 7852 2762 FB       		.byte	0xfb
 7853 2763 24       		.byte	0x24
 7854 2764 E2100000 		.4byte	0x10e2
 7855 2768 750E0000 		.4byte	.LLST41
 7856 276c 590E0000 		.4byte	.LVUS41
 7857 2770 33       		.uleb128 0x33
 7858 2771 C71C0000 		.4byte	.LASF524
 7859 2775 01       		.byte	0x1
 7860 2776 FC       		.byte	0xfc
 7861 2777 24       		.byte	0x24
 7862 2778 D0000000 		.4byte	0xd0
 7863 277c 260F0000 		.4byte	.LLST42
 7864 2780 200F0000 		.4byte	.LVUS42
 7865 2784 33       		.uleb128 0x33
 7866 2785 73030000 		.4byte	.LASF525
 7867 2789 01       		.byte	0x1
 7868 278a FD       		.byte	0xfd
 7869 278b 24       		.byte	0x24
 7870 278c E90A0000 		.4byte	0xae9
 7871 2790 570F0000 		.4byte	.LLST43
 7872 2794 510F0000 		.4byte	.LVUS43
 7873 2798 33       		.uleb128 0x33
 7874 2799 2C0E0000 		.4byte	.LASF526
 7875 279d 01       		.byte	0x1
 7876 279e FE       		.byte	0xfe
 7877 279f 24       		.byte	0x24
ARM GAS  C:\Users\EDULU~1.DES\AppData\Local\Temp\ccxcKTgR.s 			page 195


 7878 27a0 5F0B0000 		.4byte	0xb5f
 7879 27a4 890F0000 		.4byte	.LLST44
 7880 27a8 830F0000 		.4byte	.LVUS44
 7881 27ac 33       		.uleb128 0x33
 7882 27ad C7150000 		.4byte	.LASF527
 7883 27b1 01       		.byte	0x1
 7884 27b2 FF       		.byte	0xff
 7885 27b3 24       		.byte	0x24
 7886 27b4 F6000000 		.4byte	0xf6
 7887 27b8 BB0F0000 		.4byte	.LLST45
 7888 27bc B50F0000 		.4byte	.LVUS45
 7889 27c0 27       		.uleb128 0x27
 7890 27c1 0B120000 		.4byte	.LASF528
 7891 27c5 01       		.byte	0x1
 7892 27c6 0001     		.2byte	0x100
 7893 27c8 24       		.byte	0x24
 7894 27c9 F6000000 		.4byte	0xf6
 7895 27cd ED0F0000 		.4byte	.LLST46
 7896 27d1 E70F0000 		.4byte	.LVUS46
 7897 27d5 27       		.uleb128 0x27
 7898 27d6 A0020000 		.4byte	.LASF529
 7899 27da 01       		.byte	0x1
 7900 27db 0101     		.2byte	0x101
 7901 27dd 24       		.byte	0x24
 7902 27de 970A0000 		.4byte	0xa97
 7903 27e2 1F100000 		.4byte	.LLST47
 7904 27e6 19100000 		.4byte	.LVUS47
 7905 27ea 27       		.uleb128 0x27
 7906 27eb F9030000 		.4byte	.LASF530
 7907 27ef 01       		.byte	0x1
 7908 27f0 0201     		.2byte	0x102
 7909 27f2 24       		.byte	0x24
 7910 27f3 470B0000 		.4byte	0xb47
 7911 27f7 51100000 		.4byte	.LLST48
 7912 27fb 4B100000 		.4byte	.LVUS48
 7913 27ff 27       		.uleb128 0x27
 7914 2800 CB110000 		.4byte	.LASF531
 7915 2804 01       		.byte	0x1
 7916 2805 0301     		.2byte	0x103
 7917 2807 24       		.byte	0x24
 7918 2808 D0000000 		.4byte	0xd0
 7919 280c 83100000 		.4byte	.LLST49
 7920 2810 7D100000 		.4byte	.LVUS49
 7921 2814 2E       		.uleb128 0x2e
 7922 2815 6F707400 		.ascii	"opt\000"
 7923 2819 01       		.byte	0x1
 7924 281a 0401     		.2byte	0x104
 7925 281c 24       		.byte	0x24
 7926 281d DD0A0000 		.4byte	0xadd
 7927 2821 B7100000 		.4byte	.LLST50
 7928 2825 AF100000 		.4byte	.LVUS50
 7929 2829 27       		.uleb128 0x27
 7930 282a DE0A0000 		.4byte	.LASF492
 7931 282e 01       		.byte	0x1
 7932 282f 0501     		.2byte	0x105
 7933 2831 24       		.byte	0x24
 7934 2832 3A1C0000 		.4byte	0x1c3a
ARM GAS  C:\Users\EDULU~1.DES\AppData\Local\Temp\ccxcKTgR.s 			page 196


 7935 2836 F5100000 		.4byte	.LLST51
 7936 283a EF100000 		.4byte	.LVUS51
 7937 283e 2F       		.uleb128 0x2f
 7938 283f 6900     		.ascii	"i\000"
 7939 2841 01       		.byte	0x1
 7940 2842 0701     		.2byte	0x107
 7941 2844 14       		.byte	0x14
 7942 2845 F6000000 		.4byte	0xf6
 7943 2849 23110000 		.4byte	.LLST52
 7944 284d 21110000 		.4byte	.LVUS52
 7945 2851 28       		.uleb128 0x28
 7946 2852 9F170000 		.4byte	.LASF532
 7947 2856 01       		.byte	0x1
 7948 2857 0901     		.2byte	0x109
 7949 2859 14       		.byte	0x14
 7950 285a 170B0000 		.4byte	0xb17
 7951 285e 3E110000 		.4byte	.LLST53
 7952 2862 36110000 		.4byte	.LVUS53
 7953 2866 28       		.uleb128 0x28
 7954 2867 3D130000 		.4byte	.LASF533
 7955 286b 01       		.byte	0x1
 7956 286c 0F01     		.2byte	0x10f
 7957 286e 14       		.byte	0x14
 7958 286f 5F0B0000 		.4byte	0xb5f
 7959 2873 7D110000 		.4byte	.LLST54
 7960 2877 73110000 		.4byte	.LVUS54
 7961 287b 28       		.uleb128 0x28
 7962 287c 93080000 		.4byte	.LASF534
 7963 2880 01       		.byte	0x1
 7964 2881 1001     		.2byte	0x110
 7965 2883 14       		.byte	0x14
 7966 2884 5F0B0000 		.4byte	0xb5f
 7967 2888 C2110000 		.4byte	.LLST55
 7968 288c BE110000 		.4byte	.LVUS55
 7969 2890 28       		.uleb128 0x28
 7970 2891 9A0B0000 		.4byte	.LASF493
 7971 2895 01       		.byte	0x1
 7972 2896 1101     		.2byte	0x111
 7973 2898 05       		.byte	0x5
 7974 2899 07010000 		.4byte	0x107
 7975 289d EC110000 		.4byte	.LLST56
 7976 28a1 E0110000 		.4byte	.LVUS56
 7977 28a5 2A       		.uleb128 0x2a
 7978 28a6 98000000 		.4byte	.LVL182
 7979 28aa 3E1F0000 		.4byte	0x1f3e
 7980 28ae B9280000 		.4byte	0x28b9
 7981 28b2 2B       		.uleb128 0x2b
 7982 28b3 01       		.uleb128 0x1
 7983 28b4 50       		.byte	0x50
 7984 28b5 02       		.uleb128 0x2
 7985 28b6 74       		.byte	0x74
 7986 28b7 00       		.sleb128 0
 7987 28b8 00       		.byte	0
 7988 28b9 2A       		.uleb128 0x2a
 7989 28ba C0000000 		.4byte	.LVL184
 7990 28be 8E2B0000 		.4byte	0x2b8e
 7991 28c2 F0280000 		.4byte	0x28f0
ARM GAS  C:\Users\EDULU~1.DES\AppData\Local\Temp\ccxcKTgR.s 			page 197


 7992 28c6 2B       		.uleb128 0x2b
 7993 28c7 01       		.uleb128 0x1
 7994 28c8 50       		.byte	0x50
 7995 28c9 02       		.uleb128 0x2
 7996 28ca 75       		.byte	0x75
 7997 28cb 00       		.sleb128 0
 7998 28cc 2B       		.uleb128 0x2b
 7999 28cd 01       		.uleb128 0x1
 8000 28ce 51       		.byte	0x51
 8001 28cf 03       		.uleb128 0x3
 8002 28d0 91       		.byte	0x91
 8003 28d1 60       		.sleb128 -32
 8004 28d2 06       		.byte	0x6
 8005 28d3 2B       		.uleb128 0x2b
 8006 28d4 01       		.uleb128 0x1
 8007 28d5 52       		.byte	0x52
 8008 28d6 03       		.uleb128 0x3
 8009 28d7 91       		.byte	0x91
 8010 28d8 04       		.sleb128 4
 8011 28d9 06       		.byte	0x6
 8012 28da 2B       		.uleb128 0x2b
 8013 28db 01       		.uleb128 0x1
 8014 28dc 53       		.byte	0x53
 8015 28dd 02       		.uleb128 0x2
 8016 28de 7A       		.byte	0x7a
 8017 28df 00       		.sleb128 0
 8018 28e0 2B       		.uleb128 0x2b
 8019 28e1 02       		.uleb128 0x2
 8020 28e2 7D       		.byte	0x7d
 8021 28e3 00       		.sleb128 0
 8022 28e4 03       		.uleb128 0x3
 8023 28e5 91       		.byte	0x91
 8024 28e6 0C       		.sleb128 12
 8025 28e7 06       		.byte	0x6
 8026 28e8 2B       		.uleb128 0x2b
 8027 28e9 02       		.uleb128 0x2
 8028 28ea 7D       		.byte	0x7d
 8029 28eb 04       		.sleb128 4
 8030 28ec 02       		.uleb128 0x2
 8031 28ed 77       		.byte	0x77
 8032 28ee 00       		.sleb128 0
 8033 28ef 00       		.byte	0
 8034 28f0 2A       		.uleb128 0x2a
 8035 28f1 F2000000 		.4byte	.LVL188
 8036 28f5 9B2B0000 		.4byte	0x2b9b
 8037 28f9 04290000 		.4byte	0x2904
 8038 28fd 2B       		.uleb128 0x2b
 8039 28fe 01       		.uleb128 0x1
 8040 28ff 50       		.byte	0x50
 8041 2900 02       		.uleb128 0x2
 8042 2901 74       		.byte	0x74
 8043 2902 00       		.sleb128 0
 8044 2903 00       		.byte	0
 8045 2904 29       		.uleb128 0x29
 8046 2905 F6000000 		.4byte	.LVL189
 8047 2909 F22A0000 		.4byte	0x2af2
 8048 290d 29       		.uleb128 0x29
ARM GAS  C:\Users\EDULU~1.DES\AppData\Local\Temp\ccxcKTgR.s 			page 198


 8049 290e FC000000 		.4byte	.LVL191
 8050 2912 FF2A0000 		.4byte	0x2aff
 8051 2916 29       		.uleb128 0x29
 8052 2917 04010000 		.4byte	.LVL192
 8053 291b A82B0000 		.4byte	0x2ba8
 8054 291f 2A       		.uleb128 0x2a
 8055 2920 0A010000 		.4byte	.LVL193
 8056 2924 B52B0000 		.4byte	0x2bb5
 8057 2928 33290000 		.4byte	0x2933
 8058 292c 2B       		.uleb128 0x2b
 8059 292d 01       		.uleb128 0x1
 8060 292e 50       		.byte	0x50
 8061 292f 02       		.uleb128 0x2
 8062 2930 74       		.byte	0x74
 8063 2931 00       		.sleb128 0
 8064 2932 00       		.byte	0
 8065 2933 2A       		.uleb128 0x2a
 8066 2934 10010000 		.4byte	.LVL194
 8067 2938 F21F0000 		.4byte	0x1ff2
 8068 293c 47290000 		.4byte	0x2947
 8069 2940 2B       		.uleb128 0x2b
 8070 2941 01       		.uleb128 0x1
 8071 2942 50       		.byte	0x50
 8072 2943 02       		.uleb128 0x2
 8073 2944 74       		.byte	0x74
 8074 2945 00       		.sleb128 0
 8075 2946 00       		.byte	0
 8076 2947 29       		.uleb128 0x29
 8077 2948 24010000 		.4byte	.LVL195
 8078 294c 0C2B0000 		.4byte	0x2b0c
 8079 2950 2A       		.uleb128 0x2a
 8080 2951 2A010000 		.4byte	.LVL196
 8081 2955 192B0000 		.4byte	0x2b19
 8082 2959 64290000 		.4byte	0x2964
 8083 295d 2B       		.uleb128 0x2b
 8084 295e 01       		.uleb128 0x1
 8085 295f 50       		.byte	0x50
 8086 2960 02       		.uleb128 0x2
 8087 2961 75       		.byte	0x75
 8088 2962 00       		.sleb128 0
 8089 2963 00       		.byte	0
 8090 2964 29       		.uleb128 0x29
 8091 2965 56010000 		.4byte	.LVL205
 8092 2969 0C2B0000 		.4byte	0x2b0c
 8093 296d 2A       		.uleb128 0x2a
 8094 296e 5C010000 		.4byte	.LVL206
 8095 2972 192B0000 		.4byte	0x2b19
 8096 2976 81290000 		.4byte	0x2981
 8097 297a 2B       		.uleb128 0x2b
 8098 297b 01       		.uleb128 0x1
 8099 297c 50       		.byte	0x50
 8100 297d 02       		.uleb128 0x2
 8101 297e 75       		.byte	0x75
 8102 297f 00       		.sleb128 0
 8103 2980 00       		.byte	0
 8104 2981 29       		.uleb128 0x29
 8105 2982 60010000 		.4byte	.LVL207
ARM GAS  C:\Users\EDULU~1.DES\AppData\Local\Temp\ccxcKTgR.s 			page 199


 8106 2986 332B0000 		.4byte	0x2b33
 8107 298a 00       		.byte	0
 8108 298b 32       		.uleb128 0x32
 8109 298c 6F0F0000 		.4byte	.LASF535
 8110 2990 01       		.byte	0x1
 8111 2991 3E       		.byte	0x3e
 8112 2992 07       		.byte	0x7
 8113 2993 00000000 		.4byte	.LFB3
 8114 2997 E8000000 		.4byte	.LFE3-.LFB3
 8115 299b 01       		.uleb128 0x1
 8116 299c 9C       		.byte	0x9c
 8117 299d F22A0000 		.4byte	0x2af2
 8118 29a1 33       		.uleb128 0x33
 8119 29a2 E0120000 		.4byte	.LASF491
 8120 29a6 01       		.byte	0x1
 8121 29a7 3E       		.byte	0x3e
 8122 29a8 23       		.byte	0x23
 8123 29a9 0B160000 		.4byte	0x160b
 8124 29ad 45120000 		.4byte	.LLST0
 8125 29b1 39120000 		.4byte	.LVUS0
 8126 29b5 33       		.uleb128 0x33
 8127 29b6 1B050000 		.4byte	.LASF536
 8128 29ba 01       		.byte	0x1
 8129 29bb 3F       		.byte	0x3f
 8130 29bc 23       		.byte	0x23
 8131 29bd E90A0000 		.4byte	0xae9
 8132 29c1 9B120000 		.4byte	.LLST1
 8133 29c5 8F120000 		.4byte	.LVUS1
 8134 29c9 33       		.uleb128 0x33
 8135 29ca DE0A0000 		.4byte	.LASF492
 8136 29ce 01       		.byte	0x1
 8137 29cf 40       		.byte	0x40
 8138 29d0 23       		.byte	0x23
 8139 29d1 3A1C0000 		.4byte	0x1c3a
 8140 29d5 FC120000 		.4byte	.LLST2
 8141 29d9 EE120000 		.4byte	.LVUS2
 8142 29dd 34       		.uleb128 0x34
 8143 29de D80D0000 		.4byte	.LASF537
 8144 29e2 01       		.byte	0x1
 8145 29e3 42       		.byte	0x42
 8146 29e4 13       		.byte	0x13
 8147 29e5 3D000000 		.4byte	0x3d
 8148 29e9 5A130000 		.4byte	.LLST3
 8149 29ed 54130000 		.4byte	.LVUS3
 8150 29f1 34       		.uleb128 0x34
 8151 29f2 9A0B0000 		.4byte	.LASF493
 8152 29f6 01       		.byte	0x1
 8153 29f7 43       		.byte	0x43
 8154 29f8 05       		.byte	0x5
 8155 29f9 07010000 		.4byte	0x107
 8156 29fd 94130000 		.4byte	.LLST4
 8157 2a01 84130000 		.4byte	.LVUS4
 8158 2a05 29       		.uleb128 0x29
 8159 2a06 20000000 		.4byte	.LVL3
 8160 2a0a F22A0000 		.4byte	0x2af2
 8161 2a0e 29       		.uleb128 0x29
 8162 2a0f 26000000 		.4byte	.LVL5
ARM GAS  C:\Users\EDULU~1.DES\AppData\Local\Temp\ccxcKTgR.s 			page 200


 8163 2a13 FF2A0000 		.4byte	0x2aff
 8164 2a17 29       		.uleb128 0x29
 8165 2a18 48000000 		.4byte	.LVL11
 8166 2a1c F22A0000 		.4byte	0x2af2
 8167 2a20 29       		.uleb128 0x29
 8168 2a21 4E000000 		.4byte	.LVL13
 8169 2a25 FF2A0000 		.4byte	0x2aff
 8170 2a29 29       		.uleb128 0x29
 8171 2a2a 56000000 		.4byte	.LVL15
 8172 2a2e 0C2B0000 		.4byte	0x2b0c
 8173 2a32 2A       		.uleb128 0x2a
 8174 2a33 5C000000 		.4byte	.LVL16
 8175 2a37 192B0000 		.4byte	0x2b19
 8176 2a3b 462A0000 		.4byte	0x2a46
 8177 2a3f 2B       		.uleb128 0x2b
 8178 2a40 01       		.uleb128 0x1
 8179 2a41 50       		.byte	0x50
 8180 2a42 02       		.uleb128 0x2
 8181 2a43 77       		.byte	0x77
 8182 2a44 00       		.sleb128 0
 8183 2a45 00       		.byte	0
 8184 2a46 2A       		.uleb128 0x2a
 8185 2a47 66000000 		.4byte	.LVL19
 8186 2a4b 262B0000 		.4byte	0x2b26
 8187 2a4f 5A2A0000 		.4byte	0x2a5a
 8188 2a53 2B       		.uleb128 0x2b
 8189 2a54 01       		.uleb128 0x1
 8190 2a55 50       		.byte	0x50
 8191 2a56 02       		.uleb128 0x2
 8192 2a57 74       		.byte	0x74
 8193 2a58 00       		.sleb128 0
 8194 2a59 00       		.byte	0
 8195 2a5a 2A       		.uleb128 0x2a
 8196 2a5b 70000000 		.4byte	.LVL20
 8197 2a5f A82B0000 		.4byte	0x2ba8
 8198 2a63 6E2A0000 		.4byte	0x2a6e
 8199 2a67 2B       		.uleb128 0x2b
 8200 2a68 01       		.uleb128 0x1
 8201 2a69 50       		.byte	0x50
 8202 2a6a 02       		.uleb128 0x2
 8203 2a6b 75       		.byte	0x75
 8204 2a6c 00       		.sleb128 0
 8205 2a6d 00       		.byte	0
 8206 2a6e 2A       		.uleb128 0x2a
 8207 2a6f 7A000000 		.4byte	.LVL21
 8208 2a73 B52B0000 		.4byte	0x2bb5
 8209 2a77 822A0000 		.4byte	0x2a82
 8210 2a7b 2B       		.uleb128 0x2b
 8211 2a7c 01       		.uleb128 0x1
 8212 2a7d 50       		.byte	0x50
 8213 2a7e 02       		.uleb128 0x2
 8214 2a7f 74       		.byte	0x74
 8215 2a80 00       		.sleb128 0
 8216 2a81 00       		.byte	0
 8217 2a82 2A       		.uleb128 0x2a
 8218 2a83 82000000 		.4byte	.LVL22
 8219 2a87 C22B0000 		.4byte	0x2bc2
ARM GAS  C:\Users\EDULU~1.DES\AppData\Local\Temp\ccxcKTgR.s 			page 201


 8220 2a8b 962A0000 		.4byte	0x2a96
 8221 2a8f 2B       		.uleb128 0x2b
 8222 2a90 01       		.uleb128 0x1
 8223 2a91 50       		.byte	0x50
 8224 2a92 02       		.uleb128 0x2
 8225 2a93 74       		.byte	0x74
 8226 2a94 00       		.sleb128 0
 8227 2a95 00       		.byte	0
 8228 2a96 29       		.uleb128 0x29
 8229 2a97 8C000000 		.4byte	.LVL23
 8230 2a9b 0C2B0000 		.4byte	0x2b0c
 8231 2a9f 2A       		.uleb128 0x2a
 8232 2aa0 92000000 		.4byte	.LVL24
 8233 2aa4 192B0000 		.4byte	0x2b19
 8234 2aa8 B42A0000 		.4byte	0x2ab4
 8235 2aac 2B       		.uleb128 0x2b
 8236 2aad 01       		.uleb128 0x1
 8237 2aae 50       		.byte	0x50
 8238 2aaf 03       		.uleb128 0x3
 8239 2ab0 91       		.byte	0x91
 8240 2ab1 64       		.sleb128 -28
 8241 2ab2 06       		.byte	0x6
 8242 2ab3 00       		.byte	0
 8243 2ab4 29       		.uleb128 0x29
 8244 2ab5 96000000 		.4byte	.LVL25
 8245 2ab9 332B0000 		.4byte	0x2b33
 8246 2abd 2A       		.uleb128 0x2a
 8247 2abe BA000000 		.4byte	.LVL26
 8248 2ac2 CF2B0000 		.4byte	0x2bcf
 8249 2ac6 D72A0000 		.4byte	0x2ad7
 8250 2aca 2B       		.uleb128 0x2b
 8251 2acb 01       		.uleb128 0x1
 8252 2acc 50       		.byte	0x50
 8253 2acd 02       		.uleb128 0x2
 8254 2ace 74       		.byte	0x74
 8255 2acf 00       		.sleb128 0
 8256 2ad0 2B       		.uleb128 0x2b
 8257 2ad1 01       		.uleb128 0x1
 8258 2ad2 51       		.byte	0x51
 8259 2ad3 02       		.uleb128 0x2
 8260 2ad4 75       		.byte	0x75
 8261 2ad5 00       		.sleb128 0
 8262 2ad6 00       		.byte	0
 8263 2ad7 29       		.uleb128 0x29
 8264 2ad8 C0000000 		.4byte	.LVL27
 8265 2adc 0C2B0000 		.4byte	0x2b0c
 8266 2ae0 2C       		.uleb128 0x2c
 8267 2ae1 C6000000 		.4byte	.LVL28
 8268 2ae5 192B0000 		.4byte	0x2b19
 8269 2ae9 2B       		.uleb128 0x2b
 8270 2aea 01       		.uleb128 0x1
 8271 2aeb 50       		.byte	0x50
 8272 2aec 03       		.uleb128 0x3
 8273 2aed 91       		.byte	0x91
 8274 2aee 64       		.sleb128 -28
 8275 2aef 06       		.byte	0x6
 8276 2af0 00       		.byte	0
ARM GAS  C:\Users\EDULU~1.DES\AppData\Local\Temp\ccxcKTgR.s 			page 202


 8277 2af1 00       		.byte	0
 8278 2af2 35       		.uleb128 0x35
 8279 2af3 931A0000 		.4byte	.LASF538
 8280 2af7 931A0000 		.4byte	.LASF538
 8281 2afb 02       		.byte	0x2
 8282 2afc 7701     		.2byte	0x177
 8283 2afe 0D       		.byte	0xd
 8284 2aff 35       		.uleb128 0x35
 8285 2b00 901C0000 		.4byte	.LASF539
 8286 2b04 901C0000 		.4byte	.LASF539
 8287 2b08 07       		.byte	0x7
 8288 2b09 2F02     		.2byte	0x22f
 8289 2b0b 12       		.byte	0x12
 8290 2b0c 35       		.uleb128 0x35
 8291 2b0d 810A0000 		.4byte	.LASF540
 8292 2b11 810A0000 		.4byte	.LASF540
 8293 2b15 07       		.byte	0x7
 8294 2b16 3102     		.2byte	0x231
 8295 2b18 12       		.byte	0x12
 8296 2b19 35       		.uleb128 0x35
 8297 2b1a 6C0B0000 		.4byte	.LASF541
 8298 2b1e 6C0B0000 		.4byte	.LASF541
 8299 2b22 02       		.byte	0x2
 8300 2b23 7801     		.2byte	0x178
 8301 2b25 0D       		.byte	0xd
 8302 2b26 35       		.uleb128 0x35
 8303 2b27 DA170000 		.4byte	.LASF542
 8304 2b2b DA170000 		.4byte	.LASF542
 8305 2b2f 0A       		.byte	0xa
 8306 2b30 3908     		.2byte	0x839
 8307 2b32 0F       		.byte	0xf
 8308 2b33 35       		.uleb128 0x35
 8309 2b34 6F090000 		.4byte	.LASF543
 8310 2b38 6F090000 		.4byte	.LASF543
 8311 2b3c 0A       		.byte	0xa
 8312 2b3d 7E07     		.2byte	0x77e
 8313 2b3f 0F       		.byte	0xf
 8314 2b40 35       		.uleb128 0x35
 8315 2b41 F1170000 		.4byte	.LASF544
 8316 2b45 F1170000 		.4byte	.LASF544
 8317 2b49 0A       		.byte	0xa
 8318 2b4a 0808     		.2byte	0x808
 8319 2b4c 0F       		.byte	0xf
 8320 2b4d 35       		.uleb128 0x35
 8321 2b4e 4B030000 		.4byte	.LASF545
 8322 2b52 4B030000 		.4byte	.LASF545
 8323 2b56 0A       		.byte	0xa
 8324 2b57 AC07     		.2byte	0x7ac
 8325 2b59 0F       		.byte	0xf
 8326 2b5a 35       		.uleb128 0x35
 8327 2b5b F8180000 		.4byte	.LASF546
 8328 2b5f F8180000 		.4byte	.LASF546
 8329 2b63 0A       		.byte	0xa
 8330 2b64 1707     		.2byte	0x717
 8331 2b66 0F       		.byte	0xf
 8332 2b67 35       		.uleb128 0x35
 8333 2b68 0C0F0000 		.4byte	.LASF547
ARM GAS  C:\Users\EDULU~1.DES\AppData\Local\Temp\ccxcKTgR.s 			page 203


 8334 2b6c 0C0F0000 		.4byte	.LASF547
 8335 2b70 0A       		.byte	0xa
 8336 2b71 E106     		.2byte	0x6e1
 8337 2b73 0F       		.byte	0xf
 8338 2b74 35       		.uleb128 0x35
 8339 2b75 88070000 		.4byte	.LASF548
 8340 2b79 88070000 		.4byte	.LASF548
 8341 2b7d 07       		.byte	0x7
 8342 2b7e EC02     		.2byte	0x2ec
 8343 2b80 0D       		.byte	0xd
 8344 2b81 35       		.uleb128 0x35
 8345 2b82 62110000 		.4byte	.LASF549
 8346 2b86 62110000 		.4byte	.LASF549
 8347 2b8a 0A       		.byte	0xa
 8348 2b8b F307     		.2byte	0x7f3
 8349 2b8d 0F       		.byte	0xf
 8350 2b8e 35       		.uleb128 0x35
 8351 2b8f DD1E0000 		.4byte	.LASF550
 8352 2b93 DD1E0000 		.4byte	.LASF550
 8353 2b97 0A       		.byte	0xa
 8354 2b98 B007     		.2byte	0x7b0
 8355 2b9a 0F       		.byte	0xf
 8356 2b9b 35       		.uleb128 0x35
 8357 2b9c 680E0000 		.4byte	.LASF551
 8358 2ba0 680E0000 		.4byte	.LASF551
 8359 2ba4 0A       		.byte	0xa
 8360 2ba5 A707     		.2byte	0x7a7
 8361 2ba7 0F       		.byte	0xf
 8362 2ba8 35       		.uleb128 0x35
 8363 2ba9 7E050000 		.4byte	.LASF552
 8364 2bad 7E050000 		.4byte	.LASF552
 8365 2bb1 0A       		.byte	0xa
 8366 2bb2 1808     		.2byte	0x818
 8367 2bb4 0F       		.byte	0xf
 8368 2bb5 35       		.uleb128 0x35
 8369 2bb6 86160000 		.4byte	.LASF553
 8370 2bba 86160000 		.4byte	.LASF553
 8371 2bbe 0A       		.byte	0xa
 8372 2bbf 3508     		.2byte	0x835
 8373 2bc1 0F       		.byte	0xf
 8374 2bc2 35       		.uleb128 0x35
 8375 2bc3 1D200000 		.4byte	.LASF554
 8376 2bc7 1D200000 		.4byte	.LASF554
 8377 2bcb 0A       		.byte	0xa
 8378 2bcc 3308     		.2byte	0x833
 8379 2bce 0F       		.byte	0xf
 8380 2bcf 35       		.uleb128 0x35
 8381 2bd0 08180000 		.4byte	.LASF555
 8382 2bd4 08180000 		.4byte	.LASF555
 8383 2bd8 0A       		.byte	0xa
 8384 2bd9 5308     		.2byte	0x853
 8385 2bdb 0F       		.byte	0xf
 8386 2bdc 00       		.byte	0
 8387              		.section	.debug_abbrev,"",%progbits
 8388              	.Ldebug_abbrev0:
 8389 0000 01       		.uleb128 0x1
 8390 0001 11       		.uleb128 0x11
ARM GAS  C:\Users\EDULU~1.DES\AppData\Local\Temp\ccxcKTgR.s 			page 204


 8391 0002 01       		.byte	0x1
 8392 0003 25       		.uleb128 0x25
 8393 0004 0E       		.uleb128 0xe
 8394 0005 13       		.uleb128 0x13
 8395 0006 0B       		.uleb128 0xb
 8396 0007 03       		.uleb128 0x3
 8397 0008 0E       		.uleb128 0xe
 8398 0009 1B       		.uleb128 0x1b
 8399 000a 0E       		.uleb128 0xe
 8400 000b 55       		.uleb128 0x55
 8401 000c 17       		.uleb128 0x17
 8402 000d 11       		.uleb128 0x11
 8403 000e 01       		.uleb128 0x1
 8404 000f 10       		.uleb128 0x10
 8405 0010 17       		.uleb128 0x17
 8406 0011 00       		.byte	0
 8407 0012 00       		.byte	0
 8408 0013 02       		.uleb128 0x2
 8409 0014 16       		.uleb128 0x16
 8410 0015 00       		.byte	0
 8411 0016 03       		.uleb128 0x3
 8412 0017 0E       		.uleb128 0xe
 8413 0018 3A       		.uleb128 0x3a
 8414 0019 0B       		.uleb128 0xb
 8415 001a 3B       		.uleb128 0x3b
 8416 001b 0B       		.uleb128 0xb
 8417 001c 39       		.uleb128 0x39
 8418 001d 0B       		.uleb128 0xb
 8419 001e 49       		.uleb128 0x49
 8420 001f 13       		.uleb128 0x13
 8421 0020 00       		.byte	0
 8422 0021 00       		.byte	0
 8423 0022 03       		.uleb128 0x3
 8424 0023 24       		.uleb128 0x24
 8425 0024 00       		.byte	0
 8426 0025 0B       		.uleb128 0xb
 8427 0026 0B       		.uleb128 0xb
 8428 0027 3E       		.uleb128 0x3e
 8429 0028 0B       		.uleb128 0xb
 8430 0029 03       		.uleb128 0x3
 8431 002a 0E       		.uleb128 0xe
 8432 002b 00       		.byte	0
 8433 002c 00       		.byte	0
 8434 002d 04       		.uleb128 0x4
 8435 002e 26       		.uleb128 0x26
 8436 002f 00       		.byte	0
 8437 0030 49       		.uleb128 0x49
 8438 0031 13       		.uleb128 0x13
 8439 0032 00       		.byte	0
 8440 0033 00       		.byte	0
 8441 0034 05       		.uleb128 0x5
 8442 0035 24       		.uleb128 0x24
 8443 0036 00       		.byte	0
 8444 0037 0B       		.uleb128 0xb
 8445 0038 0B       		.uleb128 0xb
 8446 0039 3E       		.uleb128 0x3e
 8447 003a 0B       		.uleb128 0xb
ARM GAS  C:\Users\EDULU~1.DES\AppData\Local\Temp\ccxcKTgR.s 			page 205


 8448 003b 03       		.uleb128 0x3
 8449 003c 08       		.uleb128 0x8
 8450 003d 00       		.byte	0
 8451 003e 00       		.byte	0
 8452 003f 06       		.uleb128 0x6
 8453 0040 0F       		.uleb128 0xf
 8454 0041 00       		.byte	0
 8455 0042 0B       		.uleb128 0xb
 8456 0043 0B       		.uleb128 0xb
 8457 0044 49       		.uleb128 0x49
 8458 0045 13       		.uleb128 0x13
 8459 0046 00       		.byte	0
 8460 0047 00       		.byte	0
 8461 0048 07       		.uleb128 0x7
 8462 0049 15       		.uleb128 0x15
 8463 004a 00       		.byte	0
 8464 004b 27       		.uleb128 0x27
 8465 004c 19       		.uleb128 0x19
 8466 004d 00       		.byte	0
 8467 004e 00       		.byte	0
 8468 004f 08       		.uleb128 0x8
 8469 0050 15       		.uleb128 0x15
 8470 0051 01       		.byte	0x1
 8471 0052 27       		.uleb128 0x27
 8472 0053 19       		.uleb128 0x19
 8473 0054 01       		.uleb128 0x1
 8474 0055 13       		.uleb128 0x13
 8475 0056 00       		.byte	0
 8476 0057 00       		.byte	0
 8477 0058 09       		.uleb128 0x9
 8478 0059 05       		.uleb128 0x5
 8479 005a 00       		.byte	0
 8480 005b 49       		.uleb128 0x49
 8481 005c 13       		.uleb128 0x13
 8482 005d 00       		.byte	0
 8483 005e 00       		.byte	0
 8484 005f 0A       		.uleb128 0xa
 8485 0060 0F       		.uleb128 0xf
 8486 0061 00       		.byte	0
 8487 0062 0B       		.uleb128 0xb
 8488 0063 0B       		.uleb128 0xb
 8489 0064 00       		.byte	0
 8490 0065 00       		.byte	0
 8491 0066 0B       		.uleb128 0xb
 8492 0067 16       		.uleb128 0x16
 8493 0068 00       		.byte	0
 8494 0069 03       		.uleb128 0x3
 8495 006a 0E       		.uleb128 0xe
 8496 006b 3A       		.uleb128 0x3a
 8497 006c 0B       		.uleb128 0xb
 8498 006d 3B       		.uleb128 0x3b
 8499 006e 05       		.uleb128 0x5
 8500 006f 39       		.uleb128 0x39
 8501 0070 0B       		.uleb128 0xb
 8502 0071 49       		.uleb128 0x49
 8503 0072 13       		.uleb128 0x13
 8504 0073 00       		.byte	0
ARM GAS  C:\Users\EDULU~1.DES\AppData\Local\Temp\ccxcKTgR.s 			page 206


 8505 0074 00       		.byte	0
 8506 0075 0C       		.uleb128 0xc
 8507 0076 13       		.uleb128 0x13
 8508 0077 00       		.byte	0
 8509 0078 03       		.uleb128 0x3
 8510 0079 0E       		.uleb128 0xe
 8511 007a 3C       		.uleb128 0x3c
 8512 007b 19       		.uleb128 0x19
 8513 007c 00       		.byte	0
 8514 007d 00       		.byte	0
 8515 007e 0D       		.uleb128 0xd
 8516 007f 17       		.uleb128 0x17
 8517 0080 01       		.byte	0x1
 8518 0081 0B       		.uleb128 0xb
 8519 0082 0B       		.uleb128 0xb
 8520 0083 3A       		.uleb128 0x3a
 8521 0084 0B       		.uleb128 0xb
 8522 0085 3B       		.uleb128 0x3b
 8523 0086 0B       		.uleb128 0xb
 8524 0087 39       		.uleb128 0x39
 8525 0088 0B       		.uleb128 0xb
 8526 0089 01       		.uleb128 0x1
 8527 008a 13       		.uleb128 0x13
 8528 008b 00       		.byte	0
 8529 008c 00       		.byte	0
 8530 008d 0E       		.uleb128 0xe
 8531 008e 0D       		.uleb128 0xd
 8532 008f 00       		.byte	0
 8533 0090 03       		.uleb128 0x3
 8534 0091 0E       		.uleb128 0xe
 8535 0092 3A       		.uleb128 0x3a
 8536 0093 0B       		.uleb128 0xb
 8537 0094 3B       		.uleb128 0x3b
 8538 0095 0B       		.uleb128 0xb
 8539 0096 39       		.uleb128 0x39
 8540 0097 0B       		.uleb128 0xb
 8541 0098 49       		.uleb128 0x49
 8542 0099 13       		.uleb128 0x13
 8543 009a 00       		.byte	0
 8544 009b 00       		.byte	0
 8545 009c 0F       		.uleb128 0xf
 8546 009d 01       		.uleb128 0x1
 8547 009e 01       		.byte	0x1
 8548 009f 49       		.uleb128 0x49
 8549 00a0 13       		.uleb128 0x13
 8550 00a1 01       		.uleb128 0x1
 8551 00a2 13       		.uleb128 0x13
 8552 00a3 00       		.byte	0
 8553 00a4 00       		.byte	0
 8554 00a5 10       		.uleb128 0x10
 8555 00a6 21       		.uleb128 0x21
 8556 00a7 00       		.byte	0
 8557 00a8 49       		.uleb128 0x49
 8558 00a9 13       		.uleb128 0x13
 8559 00aa 2F       		.uleb128 0x2f
 8560 00ab 0B       		.uleb128 0xb
 8561 00ac 00       		.byte	0
ARM GAS  C:\Users\EDULU~1.DES\AppData\Local\Temp\ccxcKTgR.s 			page 207


 8562 00ad 00       		.byte	0
 8563 00ae 11       		.uleb128 0x11
 8564 00af 13       		.uleb128 0x13
 8565 00b0 01       		.byte	0x1
 8566 00b1 0B       		.uleb128 0xb
 8567 00b2 0B       		.uleb128 0xb
 8568 00b3 3A       		.uleb128 0x3a
 8569 00b4 0B       		.uleb128 0xb
 8570 00b5 3B       		.uleb128 0x3b
 8571 00b6 0B       		.uleb128 0xb
 8572 00b7 39       		.uleb128 0x39
 8573 00b8 0B       		.uleb128 0xb
 8574 00b9 01       		.uleb128 0x1
 8575 00ba 13       		.uleb128 0x13
 8576 00bb 00       		.byte	0
 8577 00bc 00       		.byte	0
 8578 00bd 12       		.uleb128 0x12
 8579 00be 0D       		.uleb128 0xd
 8580 00bf 00       		.byte	0
 8581 00c0 03       		.uleb128 0x3
 8582 00c1 0E       		.uleb128 0xe
 8583 00c2 3A       		.uleb128 0x3a
 8584 00c3 0B       		.uleb128 0xb
 8585 00c4 3B       		.uleb128 0x3b
 8586 00c5 0B       		.uleb128 0xb
 8587 00c6 39       		.uleb128 0x39
 8588 00c7 0B       		.uleb128 0xb
 8589 00c8 49       		.uleb128 0x49
 8590 00c9 13       		.uleb128 0x13
 8591 00ca 38       		.uleb128 0x38
 8592 00cb 0B       		.uleb128 0xb
 8593 00cc 00       		.byte	0
 8594 00cd 00       		.byte	0
 8595 00ce 13       		.uleb128 0x13
 8596 00cf 13       		.uleb128 0x13
 8597 00d0 01       		.byte	0x1
 8598 00d1 03       		.uleb128 0x3
 8599 00d2 0E       		.uleb128 0xe
 8600 00d3 0B       		.uleb128 0xb
 8601 00d4 0B       		.uleb128 0xb
 8602 00d5 3A       		.uleb128 0x3a
 8603 00d6 0B       		.uleb128 0xb
 8604 00d7 3B       		.uleb128 0x3b
 8605 00d8 0B       		.uleb128 0xb
 8606 00d9 39       		.uleb128 0x39
 8607 00da 0B       		.uleb128 0xb
 8608 00db 01       		.uleb128 0x1
 8609 00dc 13       		.uleb128 0x13
 8610 00dd 00       		.byte	0
 8611 00de 00       		.byte	0
 8612 00df 14       		.uleb128 0x14
 8613 00e0 0D       		.uleb128 0xd
 8614 00e1 00       		.byte	0
 8615 00e2 03       		.uleb128 0x3
 8616 00e3 08       		.uleb128 0x8
 8617 00e4 3A       		.uleb128 0x3a
 8618 00e5 0B       		.uleb128 0xb
ARM GAS  C:\Users\EDULU~1.DES\AppData\Local\Temp\ccxcKTgR.s 			page 208


 8619 00e6 3B       		.uleb128 0x3b
 8620 00e7 0B       		.uleb128 0xb
 8621 00e8 39       		.uleb128 0x39
 8622 00e9 0B       		.uleb128 0xb
 8623 00ea 49       		.uleb128 0x49
 8624 00eb 13       		.uleb128 0x13
 8625 00ec 38       		.uleb128 0x38
 8626 00ed 0B       		.uleb128 0xb
 8627 00ee 00       		.byte	0
 8628 00ef 00       		.byte	0
 8629 00f0 15       		.uleb128 0x15
 8630 00f1 13       		.uleb128 0x13
 8631 00f2 01       		.byte	0x1
 8632 00f3 03       		.uleb128 0x3
 8633 00f4 0E       		.uleb128 0xe
 8634 00f5 0B       		.uleb128 0xb
 8635 00f6 05       		.uleb128 0x5
 8636 00f7 3A       		.uleb128 0x3a
 8637 00f8 0B       		.uleb128 0xb
 8638 00f9 3B       		.uleb128 0x3b
 8639 00fa 0B       		.uleb128 0xb
 8640 00fb 39       		.uleb128 0x39
 8641 00fc 0B       		.uleb128 0xb
 8642 00fd 01       		.uleb128 0x1
 8643 00fe 13       		.uleb128 0x13
 8644 00ff 00       		.byte	0
 8645 0100 00       		.byte	0
 8646 0101 16       		.uleb128 0x16
 8647 0102 0D       		.uleb128 0xd
 8648 0103 00       		.byte	0
 8649 0104 03       		.uleb128 0x3
 8650 0105 0E       		.uleb128 0xe
 8651 0106 3A       		.uleb128 0x3a
 8652 0107 0B       		.uleb128 0xb
 8653 0108 3B       		.uleb128 0x3b
 8654 0109 0B       		.uleb128 0xb
 8655 010a 39       		.uleb128 0x39
 8656 010b 0B       		.uleb128 0xb
 8657 010c 49       		.uleb128 0x49
 8658 010d 13       		.uleb128 0x13
 8659 010e 38       		.uleb128 0x38
 8660 010f 05       		.uleb128 0x5
 8661 0110 00       		.byte	0
 8662 0111 00       		.byte	0
 8663 0112 17       		.uleb128 0x17
 8664 0113 15       		.uleb128 0x15
 8665 0114 01       		.byte	0x1
 8666 0115 27       		.uleb128 0x27
 8667 0116 19       		.uleb128 0x19
 8668 0117 49       		.uleb128 0x49
 8669 0118 13       		.uleb128 0x13
 8670 0119 01       		.uleb128 0x1
 8671 011a 13       		.uleb128 0x13
 8672 011b 00       		.byte	0
 8673 011c 00       		.byte	0
 8674 011d 18       		.uleb128 0x18
 8675 011e 13       		.uleb128 0x13
ARM GAS  C:\Users\EDULU~1.DES\AppData\Local\Temp\ccxcKTgR.s 			page 209


 8676 011f 01       		.byte	0x1
 8677 0120 03       		.uleb128 0x3
 8678 0121 0E       		.uleb128 0xe
 8679 0122 0B       		.uleb128 0xb
 8680 0123 05       		.uleb128 0x5
 8681 0124 3A       		.uleb128 0x3a
 8682 0125 0B       		.uleb128 0xb
 8683 0126 3B       		.uleb128 0x3b
 8684 0127 05       		.uleb128 0x5
 8685 0128 39       		.uleb128 0x39
 8686 0129 0B       		.uleb128 0xb
 8687 012a 01       		.uleb128 0x1
 8688 012b 13       		.uleb128 0x13
 8689 012c 00       		.byte	0
 8690 012d 00       		.byte	0
 8691 012e 19       		.uleb128 0x19
 8692 012f 0D       		.uleb128 0xd
 8693 0130 00       		.byte	0
 8694 0131 03       		.uleb128 0x3
 8695 0132 0E       		.uleb128 0xe
 8696 0133 3A       		.uleb128 0x3a
 8697 0134 0B       		.uleb128 0xb
 8698 0135 3B       		.uleb128 0x3b
 8699 0136 05       		.uleb128 0x5
 8700 0137 39       		.uleb128 0x39
 8701 0138 0B       		.uleb128 0xb
 8702 0139 49       		.uleb128 0x49
 8703 013a 13       		.uleb128 0x13
 8704 013b 38       		.uleb128 0x38
 8705 013c 0B       		.uleb128 0xb
 8706 013d 00       		.byte	0
 8707 013e 00       		.byte	0
 8708 013f 1A       		.uleb128 0x1a
 8709 0140 0D       		.uleb128 0xd
 8710 0141 00       		.byte	0
 8711 0142 03       		.uleb128 0x3
 8712 0143 0E       		.uleb128 0xe
 8713 0144 3A       		.uleb128 0x3a
 8714 0145 0B       		.uleb128 0xb
 8715 0146 3B       		.uleb128 0x3b
 8716 0147 05       		.uleb128 0x5
 8717 0148 39       		.uleb128 0x39
 8718 0149 0B       		.uleb128 0xb
 8719 014a 49       		.uleb128 0x49
 8720 014b 13       		.uleb128 0x13
 8721 014c 38       		.uleb128 0x38
 8722 014d 05       		.uleb128 0x5
 8723 014e 00       		.byte	0
 8724 014f 00       		.byte	0
 8725 0150 1B       		.uleb128 0x1b
 8726 0151 13       		.uleb128 0x13
 8727 0152 01       		.byte	0x1
 8728 0153 03       		.uleb128 0x3
 8729 0154 0E       		.uleb128 0xe
 8730 0155 0B       		.uleb128 0xb
 8731 0156 0B       		.uleb128 0xb
 8732 0157 3A       		.uleb128 0x3a
ARM GAS  C:\Users\EDULU~1.DES\AppData\Local\Temp\ccxcKTgR.s 			page 210


 8733 0158 0B       		.uleb128 0xb
 8734 0159 3B       		.uleb128 0x3b
 8735 015a 05       		.uleb128 0x5
 8736 015b 39       		.uleb128 0x39
 8737 015c 0B       		.uleb128 0xb
 8738 015d 01       		.uleb128 0x1
 8739 015e 13       		.uleb128 0x13
 8740 015f 00       		.byte	0
 8741 0160 00       		.byte	0
 8742 0161 1C       		.uleb128 0x1c
 8743 0162 13       		.uleb128 0x13
 8744 0163 01       		.byte	0x1
 8745 0164 0B       		.uleb128 0xb
 8746 0165 0B       		.uleb128 0xb
 8747 0166 3A       		.uleb128 0x3a
 8748 0167 0B       		.uleb128 0xb
 8749 0168 3B       		.uleb128 0x3b
 8750 0169 05       		.uleb128 0x5
 8751 016a 39       		.uleb128 0x39
 8752 016b 0B       		.uleb128 0xb
 8753 016c 01       		.uleb128 0x1
 8754 016d 13       		.uleb128 0x13
 8755 016e 00       		.byte	0
 8756 016f 00       		.byte	0
 8757 0170 1D       		.uleb128 0x1d
 8758 0171 17       		.uleb128 0x17
 8759 0172 01       		.byte	0x1
 8760 0173 0B       		.uleb128 0xb
 8761 0174 0B       		.uleb128 0xb
 8762 0175 3A       		.uleb128 0x3a
 8763 0176 0B       		.uleb128 0xb
 8764 0177 3B       		.uleb128 0x3b
 8765 0178 05       		.uleb128 0x5
 8766 0179 39       		.uleb128 0x39
 8767 017a 0B       		.uleb128 0xb
 8768 017b 01       		.uleb128 0x1
 8769 017c 13       		.uleb128 0x13
 8770 017d 00       		.byte	0
 8771 017e 00       		.byte	0
 8772 017f 1E       		.uleb128 0x1e
 8773 0180 0D       		.uleb128 0xd
 8774 0181 00       		.byte	0
 8775 0182 03       		.uleb128 0x3
 8776 0183 0E       		.uleb128 0xe
 8777 0184 3A       		.uleb128 0x3a
 8778 0185 0B       		.uleb128 0xb
 8779 0186 3B       		.uleb128 0x3b
 8780 0187 05       		.uleb128 0x5
 8781 0188 39       		.uleb128 0x39
 8782 0189 0B       		.uleb128 0xb
 8783 018a 49       		.uleb128 0x49
 8784 018b 13       		.uleb128 0x13
 8785 018c 00       		.byte	0
 8786 018d 00       		.byte	0
 8787 018e 1F       		.uleb128 0x1f
 8788 018f 34       		.uleb128 0x34
 8789 0190 00       		.byte	0
ARM GAS  C:\Users\EDULU~1.DES\AppData\Local\Temp\ccxcKTgR.s 			page 211


 8790 0191 03       		.uleb128 0x3
 8791 0192 0E       		.uleb128 0xe
 8792 0193 3A       		.uleb128 0x3a
 8793 0194 0B       		.uleb128 0xb
 8794 0195 3B       		.uleb128 0x3b
 8795 0196 05       		.uleb128 0x5
 8796 0197 39       		.uleb128 0x39
 8797 0198 0B       		.uleb128 0xb
 8798 0199 49       		.uleb128 0x49
 8799 019a 13       		.uleb128 0x13
 8800 019b 3F       		.uleb128 0x3f
 8801 019c 19       		.uleb128 0x19
 8802 019d 3C       		.uleb128 0x3c
 8803 019e 19       		.uleb128 0x19
 8804 019f 00       		.byte	0
 8805 01a0 00       		.byte	0
 8806 01a1 20       		.uleb128 0x20
 8807 01a2 34       		.uleb128 0x34
 8808 01a3 00       		.byte	0
 8809 01a4 03       		.uleb128 0x3
 8810 01a5 0E       		.uleb128 0xe
 8811 01a6 3A       		.uleb128 0x3a
 8812 01a7 0B       		.uleb128 0xb
 8813 01a8 3B       		.uleb128 0x3b
 8814 01a9 0B       		.uleb128 0xb
 8815 01aa 39       		.uleb128 0x39
 8816 01ab 0B       		.uleb128 0xb
 8817 01ac 49       		.uleb128 0x49
 8818 01ad 13       		.uleb128 0x13
 8819 01ae 3F       		.uleb128 0x3f
 8820 01af 19       		.uleb128 0x19
 8821 01b0 3C       		.uleb128 0x3c
 8822 01b1 19       		.uleb128 0x19
 8823 01b2 00       		.byte	0
 8824 01b3 00       		.byte	0
 8825 01b4 21       		.uleb128 0x21
 8826 01b5 04       		.uleb128 0x4
 8827 01b6 01       		.byte	0x1
 8828 01b7 03       		.uleb128 0x3
 8829 01b8 0E       		.uleb128 0xe
 8830 01b9 3E       		.uleb128 0x3e
 8831 01ba 0B       		.uleb128 0xb
 8832 01bb 0B       		.uleb128 0xb
 8833 01bc 0B       		.uleb128 0xb
 8834 01bd 49       		.uleb128 0x49
 8835 01be 13       		.uleb128 0x13
 8836 01bf 3A       		.uleb128 0x3a
 8837 01c0 0B       		.uleb128 0xb
 8838 01c1 3B       		.uleb128 0x3b
 8839 01c2 05       		.uleb128 0x5
 8840 01c3 39       		.uleb128 0x39
 8841 01c4 0B       		.uleb128 0xb
 8842 01c5 01       		.uleb128 0x1
 8843 01c6 13       		.uleb128 0x13
 8844 01c7 00       		.byte	0
 8845 01c8 00       		.byte	0
 8846 01c9 22       		.uleb128 0x22
ARM GAS  C:\Users\EDULU~1.DES\AppData\Local\Temp\ccxcKTgR.s 			page 212


 8847 01ca 28       		.uleb128 0x28
 8848 01cb 00       		.byte	0
 8849 01cc 03       		.uleb128 0x3
 8850 01cd 0E       		.uleb128 0xe
 8851 01ce 1C       		.uleb128 0x1c
 8852 01cf 0B       		.uleb128 0xb
 8853 01d0 00       		.byte	0
 8854 01d1 00       		.byte	0
 8855 01d2 23       		.uleb128 0x23
 8856 01d3 28       		.uleb128 0x28
 8857 01d4 00       		.byte	0
 8858 01d5 03       		.uleb128 0x3
 8859 01d6 0E       		.uleb128 0xe
 8860 01d7 1C       		.uleb128 0x1c
 8861 01d8 05       		.uleb128 0x5
 8862 01d9 00       		.byte	0
 8863 01da 00       		.byte	0
 8864 01db 24       		.uleb128 0x24
 8865 01dc 0D       		.uleb128 0xd
 8866 01dd 00       		.byte	0
 8867 01de 03       		.uleb128 0x3
 8868 01df 08       		.uleb128 0x8
 8869 01e0 3A       		.uleb128 0x3a
 8870 01e1 0B       		.uleb128 0xb
 8871 01e2 3B       		.uleb128 0x3b
 8872 01e3 05       		.uleb128 0x5
 8873 01e4 39       		.uleb128 0x39
 8874 01e5 0B       		.uleb128 0xb
 8875 01e6 49       		.uleb128 0x49
 8876 01e7 13       		.uleb128 0x13
 8877 01e8 38       		.uleb128 0x38
 8878 01e9 0B       		.uleb128 0xb
 8879 01ea 00       		.byte	0
 8880 01eb 00       		.byte	0
 8881 01ec 25       		.uleb128 0x25
 8882 01ed 21       		.uleb128 0x21
 8883 01ee 00       		.byte	0
 8884 01ef 00       		.byte	0
 8885 01f0 00       		.byte	0
 8886 01f1 26       		.uleb128 0x26
 8887 01f2 2E       		.uleb128 0x2e
 8888 01f3 01       		.byte	0x1
 8889 01f4 3F       		.uleb128 0x3f
 8890 01f5 19       		.uleb128 0x19
 8891 01f6 03       		.uleb128 0x3
 8892 01f7 0E       		.uleb128 0xe
 8893 01f8 3A       		.uleb128 0x3a
 8894 01f9 0B       		.uleb128 0xb
 8895 01fa 3B       		.uleb128 0x3b
 8896 01fb 05       		.uleb128 0x5
 8897 01fc 39       		.uleb128 0x39
 8898 01fd 0B       		.uleb128 0xb
 8899 01fe 27       		.uleb128 0x27
 8900 01ff 19       		.uleb128 0x19
 8901 0200 11       		.uleb128 0x11
 8902 0201 01       		.uleb128 0x1
 8903 0202 12       		.uleb128 0x12
ARM GAS  C:\Users\EDULU~1.DES\AppData\Local\Temp\ccxcKTgR.s 			page 213


 8904 0203 06       		.uleb128 0x6
 8905 0204 40       		.uleb128 0x40
 8906 0205 18       		.uleb128 0x18
 8907 0206 9742     		.uleb128 0x2117
 8908 0208 19       		.uleb128 0x19
 8909 0209 01       		.uleb128 0x1
 8910 020a 13       		.uleb128 0x13
 8911 020b 00       		.byte	0
 8912 020c 00       		.byte	0
 8913 020d 27       		.uleb128 0x27
 8914 020e 05       		.uleb128 0x5
 8915 020f 00       		.byte	0
 8916 0210 03       		.uleb128 0x3
 8917 0211 0E       		.uleb128 0xe
 8918 0212 3A       		.uleb128 0x3a
 8919 0213 0B       		.uleb128 0xb
 8920 0214 3B       		.uleb128 0x3b
 8921 0215 05       		.uleb128 0x5
 8922 0216 39       		.uleb128 0x39
 8923 0217 0B       		.uleb128 0xb
 8924 0218 49       		.uleb128 0x49
 8925 0219 13       		.uleb128 0x13
 8926 021a 02       		.uleb128 0x2
 8927 021b 17       		.uleb128 0x17
 8928 021c B742     		.uleb128 0x2137
 8929 021e 17       		.uleb128 0x17
 8930 021f 00       		.byte	0
 8931 0220 00       		.byte	0
 8932 0221 28       		.uleb128 0x28
 8933 0222 34       		.uleb128 0x34
 8934 0223 00       		.byte	0
 8935 0224 03       		.uleb128 0x3
 8936 0225 0E       		.uleb128 0xe
 8937 0226 3A       		.uleb128 0x3a
 8938 0227 0B       		.uleb128 0xb
 8939 0228 3B       		.uleb128 0x3b
 8940 0229 05       		.uleb128 0x5
 8941 022a 39       		.uleb128 0x39
 8942 022b 0B       		.uleb128 0xb
 8943 022c 49       		.uleb128 0x49
 8944 022d 13       		.uleb128 0x13
 8945 022e 02       		.uleb128 0x2
 8946 022f 17       		.uleb128 0x17
 8947 0230 B742     		.uleb128 0x2137
 8948 0232 17       		.uleb128 0x17
 8949 0233 00       		.byte	0
 8950 0234 00       		.byte	0
 8951 0235 29       		.uleb128 0x29
 8952 0236 898201   		.uleb128 0x4109
 8953 0239 00       		.byte	0
 8954 023a 11       		.uleb128 0x11
 8955 023b 01       		.uleb128 0x1
 8956 023c 31       		.uleb128 0x31
 8957 023d 13       		.uleb128 0x13
 8958 023e 00       		.byte	0
 8959 023f 00       		.byte	0
 8960 0240 2A       		.uleb128 0x2a
ARM GAS  C:\Users\EDULU~1.DES\AppData\Local\Temp\ccxcKTgR.s 			page 214


 8961 0241 898201   		.uleb128 0x4109
 8962 0244 01       		.byte	0x1
 8963 0245 11       		.uleb128 0x11
 8964 0246 01       		.uleb128 0x1
 8965 0247 31       		.uleb128 0x31
 8966 0248 13       		.uleb128 0x13
 8967 0249 01       		.uleb128 0x1
 8968 024a 13       		.uleb128 0x13
 8969 024b 00       		.byte	0
 8970 024c 00       		.byte	0
 8971 024d 2B       		.uleb128 0x2b
 8972 024e 8A8201   		.uleb128 0x410a
 8973 0251 00       		.byte	0
 8974 0252 02       		.uleb128 0x2
 8975 0253 18       		.uleb128 0x18
 8976 0254 9142     		.uleb128 0x2111
 8977 0256 18       		.uleb128 0x18
 8978 0257 00       		.byte	0
 8979 0258 00       		.byte	0
 8980 0259 2C       		.uleb128 0x2c
 8981 025a 898201   		.uleb128 0x4109
 8982 025d 01       		.byte	0x1
 8983 025e 11       		.uleb128 0x11
 8984 025f 01       		.uleb128 0x1
 8985 0260 31       		.uleb128 0x31
 8986 0261 13       		.uleb128 0x13
 8987 0262 00       		.byte	0
 8988 0263 00       		.byte	0
 8989 0264 2D       		.uleb128 0x2d
 8990 0265 2E       		.uleb128 0x2e
 8991 0266 01       		.byte	0x1
 8992 0267 3F       		.uleb128 0x3f
 8993 0268 19       		.uleb128 0x19
 8994 0269 03       		.uleb128 0x3
 8995 026a 0E       		.uleb128 0xe
 8996 026b 3A       		.uleb128 0x3a
 8997 026c 0B       		.uleb128 0xb
 8998 026d 3B       		.uleb128 0x3b
 8999 026e 05       		.uleb128 0x5
 9000 026f 39       		.uleb128 0x39
 9001 0270 0B       		.uleb128 0xb
 9002 0271 27       		.uleb128 0x27
 9003 0272 19       		.uleb128 0x19
 9004 0273 49       		.uleb128 0x49
 9005 0274 13       		.uleb128 0x13
 9006 0275 11       		.uleb128 0x11
 9007 0276 01       		.uleb128 0x1
 9008 0277 12       		.uleb128 0x12
 9009 0278 06       		.uleb128 0x6
 9010 0279 40       		.uleb128 0x40
 9011 027a 18       		.uleb128 0x18
 9012 027b 9742     		.uleb128 0x2117
 9013 027d 19       		.uleb128 0x19
 9014 027e 01       		.uleb128 0x1
 9015 027f 13       		.uleb128 0x13
 9016 0280 00       		.byte	0
 9017 0281 00       		.byte	0
ARM GAS  C:\Users\EDULU~1.DES\AppData\Local\Temp\ccxcKTgR.s 			page 215


 9018 0282 2E       		.uleb128 0x2e
 9019 0283 05       		.uleb128 0x5
 9020 0284 00       		.byte	0
 9021 0285 03       		.uleb128 0x3
 9022 0286 08       		.uleb128 0x8
 9023 0287 3A       		.uleb128 0x3a
 9024 0288 0B       		.uleb128 0xb
 9025 0289 3B       		.uleb128 0x3b
 9026 028a 05       		.uleb128 0x5
 9027 028b 39       		.uleb128 0x39
 9028 028c 0B       		.uleb128 0xb
 9029 028d 49       		.uleb128 0x49
 9030 028e 13       		.uleb128 0x13
 9031 028f 02       		.uleb128 0x2
 9032 0290 17       		.uleb128 0x17
 9033 0291 B742     		.uleb128 0x2137
 9034 0293 17       		.uleb128 0x17
 9035 0294 00       		.byte	0
 9036 0295 00       		.byte	0
 9037 0296 2F       		.uleb128 0x2f
 9038 0297 34       		.uleb128 0x34
 9039 0298 00       		.byte	0
 9040 0299 03       		.uleb128 0x3
 9041 029a 08       		.uleb128 0x8
 9042 029b 3A       		.uleb128 0x3a
 9043 029c 0B       		.uleb128 0xb
 9044 029d 3B       		.uleb128 0x3b
 9045 029e 05       		.uleb128 0x5
 9046 029f 39       		.uleb128 0x39
 9047 02a0 0B       		.uleb128 0xb
 9048 02a1 49       		.uleb128 0x49
 9049 02a2 13       		.uleb128 0x13
 9050 02a3 02       		.uleb128 0x2
 9051 02a4 17       		.uleb128 0x17
 9052 02a5 B742     		.uleb128 0x2137
 9053 02a7 17       		.uleb128 0x17
 9054 02a8 00       		.byte	0
 9055 02a9 00       		.byte	0
 9056 02aa 30       		.uleb128 0x30
 9057 02ab 34       		.uleb128 0x34
 9058 02ac 00       		.byte	0
 9059 02ad 03       		.uleb128 0x3
 9060 02ae 08       		.uleb128 0x8
 9061 02af 3A       		.uleb128 0x3a
 9062 02b0 0B       		.uleb128 0xb
 9063 02b1 3B       		.uleb128 0x3b
 9064 02b2 05       		.uleb128 0x5
 9065 02b3 39       		.uleb128 0x39
 9066 02b4 0B       		.uleb128 0xb
 9067 02b5 49       		.uleb128 0x49
 9068 02b6 13       		.uleb128 0x13
 9069 02b7 02       		.uleb128 0x2
 9070 02b8 18       		.uleb128 0x18
 9071 02b9 00       		.byte	0
 9072 02ba 00       		.byte	0
 9073 02bb 31       		.uleb128 0x31
 9074 02bc 05       		.uleb128 0x5
ARM GAS  C:\Users\EDULU~1.DES\AppData\Local\Temp\ccxcKTgR.s 			page 216


 9075 02bd 00       		.byte	0
 9076 02be 03       		.uleb128 0x3
 9077 02bf 0E       		.uleb128 0xe
 9078 02c0 3A       		.uleb128 0x3a
 9079 02c1 0B       		.uleb128 0xb
 9080 02c2 3B       		.uleb128 0x3b
 9081 02c3 05       		.uleb128 0x5
 9082 02c4 39       		.uleb128 0x39
 9083 02c5 0B       		.uleb128 0xb
 9084 02c6 49       		.uleb128 0x49
 9085 02c7 13       		.uleb128 0x13
 9086 02c8 02       		.uleb128 0x2
 9087 02c9 18       		.uleb128 0x18
 9088 02ca 00       		.byte	0
 9089 02cb 00       		.byte	0
 9090 02cc 32       		.uleb128 0x32
 9091 02cd 2E       		.uleb128 0x2e
 9092 02ce 01       		.byte	0x1
 9093 02cf 3F       		.uleb128 0x3f
 9094 02d0 19       		.uleb128 0x19
 9095 02d1 03       		.uleb128 0x3
 9096 02d2 0E       		.uleb128 0xe
 9097 02d3 3A       		.uleb128 0x3a
 9098 02d4 0B       		.uleb128 0xb
 9099 02d5 3B       		.uleb128 0x3b
 9100 02d6 0B       		.uleb128 0xb
 9101 02d7 39       		.uleb128 0x39
 9102 02d8 0B       		.uleb128 0xb
 9103 02d9 27       		.uleb128 0x27
 9104 02da 19       		.uleb128 0x19
 9105 02db 11       		.uleb128 0x11
 9106 02dc 01       		.uleb128 0x1
 9107 02dd 12       		.uleb128 0x12
 9108 02de 06       		.uleb128 0x6
 9109 02df 40       		.uleb128 0x40
 9110 02e0 18       		.uleb128 0x18
 9111 02e1 9742     		.uleb128 0x2117
 9112 02e3 19       		.uleb128 0x19
 9113 02e4 01       		.uleb128 0x1
 9114 02e5 13       		.uleb128 0x13
 9115 02e6 00       		.byte	0
 9116 02e7 00       		.byte	0
 9117 02e8 33       		.uleb128 0x33
 9118 02e9 05       		.uleb128 0x5
 9119 02ea 00       		.byte	0
 9120 02eb 03       		.uleb128 0x3
 9121 02ec 0E       		.uleb128 0xe
 9122 02ed 3A       		.uleb128 0x3a
 9123 02ee 0B       		.uleb128 0xb
 9124 02ef 3B       		.uleb128 0x3b
 9125 02f0 0B       		.uleb128 0xb
 9126 02f1 39       		.uleb128 0x39
 9127 02f2 0B       		.uleb128 0xb
 9128 02f3 49       		.uleb128 0x49
 9129 02f4 13       		.uleb128 0x13
 9130 02f5 02       		.uleb128 0x2
 9131 02f6 17       		.uleb128 0x17
ARM GAS  C:\Users\EDULU~1.DES\AppData\Local\Temp\ccxcKTgR.s 			page 217


 9132 02f7 B742     		.uleb128 0x2137
 9133 02f9 17       		.uleb128 0x17
 9134 02fa 00       		.byte	0
 9135 02fb 00       		.byte	0
 9136 02fc 34       		.uleb128 0x34
 9137 02fd 34       		.uleb128 0x34
 9138 02fe 00       		.byte	0
 9139 02ff 03       		.uleb128 0x3
 9140 0300 0E       		.uleb128 0xe
 9141 0301 3A       		.uleb128 0x3a
 9142 0302 0B       		.uleb128 0xb
 9143 0303 3B       		.uleb128 0x3b
 9144 0304 0B       		.uleb128 0xb
 9145 0305 39       		.uleb128 0x39
 9146 0306 0B       		.uleb128 0xb
 9147 0307 49       		.uleb128 0x49
 9148 0308 13       		.uleb128 0x13
 9149 0309 02       		.uleb128 0x2
 9150 030a 17       		.uleb128 0x17
 9151 030b B742     		.uleb128 0x2137
 9152 030d 17       		.uleb128 0x17
 9153 030e 00       		.byte	0
 9154 030f 00       		.byte	0
 9155 0310 35       		.uleb128 0x35
 9156 0311 2E       		.uleb128 0x2e
 9157 0312 00       		.byte	0
 9158 0313 3F       		.uleb128 0x3f
 9159 0314 19       		.uleb128 0x19
 9160 0315 3C       		.uleb128 0x3c
 9161 0316 19       		.uleb128 0x19
 9162 0317 6E       		.uleb128 0x6e
 9163 0318 0E       		.uleb128 0xe
 9164 0319 03       		.uleb128 0x3
 9165 031a 0E       		.uleb128 0xe
 9166 031b 3A       		.uleb128 0x3a
 9167 031c 0B       		.uleb128 0xb
 9168 031d 3B       		.uleb128 0x3b
 9169 031e 05       		.uleb128 0x5
 9170 031f 39       		.uleb128 0x39
 9171 0320 0B       		.uleb128 0xb
 9172 0321 00       		.byte	0
 9173 0322 00       		.byte	0
 9174 0323 00       		.byte	0
 9175              		.section	.debug_loc,"",%progbits
 9176              	.Ldebug_loc0:
 9177              	.LVUS74:
 9178 0000 00       		.uleb128 0
 9179 0001 00       		.uleb128 .LVU906
 9180 0002 00       		.uleb128 .LVU906
 9181 0003 01       		.uleb128 .LVU944
 9182 0004 00       		.uleb128 .LVU945
 9183 0005 00       		.uleb128 0
 9184              	.LLST74:
 9185 0006 00000000 		.4byte	.LVL291
 9186 000a 09000000 		.4byte	.LVL293-1
 9187 000e 0100     		.2byte	0x1
 9188 0010 50       		.byte	0x50
ARM GAS  C:\Users\EDULU~1.DES\AppData\Local\Temp\ccxcKTgR.s 			page 218


 9189 0011 09000000 		.4byte	.LVL293-1
 9190 0015 6E000000 		.4byte	.LVL303
 9191 0019 0100     		.2byte	0x1
 9192 001b 54       		.byte	0x54
 9193 001c 70000000 		.4byte	.LVL306
 9194 0020 F0000000 		.4byte	.LFE21
 9195 0024 0100     		.2byte	0x1
 9196 0026 54       		.byte	0x54
 9197 0027 00000000 		.4byte	0
 9198 002b 00000000 		.4byte	0
 9199              	.LVUS75:
 9200 002f 00       		.uleb128 0
 9201 0030 00       		.uleb128 .LVU906
 9202 0031 00       		.uleb128 .LVU906
 9203 0032 01       		.uleb128 .LVU944
 9204 0033 01       		.uleb128 .LVU944
 9205 0034 00       		.uleb128 .LVU945
 9206 0035 00       		.uleb128 .LVU945
 9207 0036 00       		.uleb128 0
 9208              	.LLST75:
 9209 0037 00000000 		.4byte	.LVL291
 9210 003b 09000000 		.4byte	.LVL293-1
 9211 003f 0100     		.2byte	0x1
 9212 0041 51       		.byte	0x51
 9213 0042 09000000 		.4byte	.LVL293-1
 9214 0046 6E000000 		.4byte	.LVL305
 9215 004a 0100     		.2byte	0x1
 9216 004c 56       		.byte	0x56
 9217 004d 6E000000 		.4byte	.LVL305
 9218 0051 70000000 		.4byte	.LVL306
 9219 0055 0400     		.2byte	0x4
 9220 0057 F3       		.byte	0xf3
 9221 0058 01       		.uleb128 0x1
 9222 0059 51       		.byte	0x51
 9223 005a 9F       		.byte	0x9f
 9224 005b 70000000 		.4byte	.LVL306
 9225 005f F0000000 		.4byte	.LFE21
 9226 0063 0100     		.2byte	0x1
 9227 0065 56       		.byte	0x56
 9228 0066 00000000 		.4byte	0
 9229 006a 00000000 		.4byte	0
 9230              	.LVUS76:
 9231 006e 01       		.uleb128 .LVU903
 9232 006f 00       		.uleb128 .LVU907
 9233 0070 00       		.uleb128 .LVU907
 9234 0071 00       		.uleb128 .LVU908
 9235 0072 00       		.uleb128 .LVU908
 9236 0073 01       		.uleb128 .LVU944
 9237 0074 00       		.uleb128 .LVU945
 9238 0075 00       		.uleb128 0
 9239              	.LLST76:
 9240 0076 06000000 		.4byte	.LVL292
 9241 007a 0C000000 		.4byte	.LVL294
 9242 007e 0200     		.2byte	0x2
 9243 0080 30       		.byte	0x30
 9244 0081 9F       		.byte	0x9f
 9245 0082 0C000000 		.4byte	.LVL294
ARM GAS  C:\Users\EDULU~1.DES\AppData\Local\Temp\ccxcKTgR.s 			page 219


 9246 0086 0F000000 		.4byte	.LVL295-1
 9247 008a 0100     		.2byte	0x1
 9248 008c 50       		.byte	0x50
 9249 008d 0F000000 		.4byte	.LVL295-1
 9250 0091 6E000000 		.4byte	.LVL304
 9251 0095 0100     		.2byte	0x1
 9252 0097 55       		.byte	0x55
 9253 0098 70000000 		.4byte	.LVL306
 9254 009c F0000000 		.4byte	.LFE21
 9255 00a0 0100     		.2byte	0x1
 9256 00a2 55       		.byte	0x55
 9257 00a3 00000000 		.4byte	0
 9258 00a7 00000000 		.4byte	0
 9259              	.LVUS63:
 9260 00ab 00       		.uleb128 0
 9261 00ac 00       		.uleb128 .LVU799
 9262 00ad 00       		.uleb128 .LVU799
 9263 00ae 00       		.uleb128 .LVU879
 9264              	.LLST63:
 9265 00af 00000000 		.4byte	.LVL247
 9266 00b3 0F000000 		.4byte	.LVL249-1
 9267 00b7 0100     		.2byte	0x1
 9268 00b9 50       		.byte	0x50
 9269 00ba 0F000000 		.4byte	.LVL249-1
 9270 00be CC000000 		.4byte	.LVL280
 9271 00c2 0100     		.2byte	0x1
 9272 00c4 54       		.byte	0x54
 9273 00c5 00000000 		.4byte	0
 9274 00c9 00000000 		.4byte	0
 9275              	.LVUS64:
 9276 00cd 00       		.uleb128 0
 9277 00ce 00       		.uleb128 .LVU799
 9278 00cf 00       		.uleb128 .LVU799
 9279 00d0 00       		.uleb128 0
 9280              	.LLST64:
 9281 00d1 00000000 		.4byte	.LVL247
 9282 00d5 0F000000 		.4byte	.LVL249-1
 9283 00d9 0100     		.2byte	0x1
 9284 00db 51       		.byte	0x51
 9285 00dc 0F000000 		.4byte	.LVL249-1
 9286 00e0 E0000000 		.4byte	.LFE20
 9287 00e4 0400     		.2byte	0x4
 9288 00e6 F3       		.byte	0xf3
 9289 00e7 01       		.uleb128 0x1
 9290 00e8 51       		.byte	0x51
 9291 00e9 9F       		.byte	0x9f
 9292 00ea 00000000 		.4byte	0
 9293 00ee 00000000 		.4byte	0
 9294              	.LVUS65:
 9295 00f2 00       		.uleb128 0
 9296 00f3 00       		.uleb128 .LVU799
 9297 00f4 00       		.uleb128 .LVU799
 9298 00f5 00       		.uleb128 .LVU817
 9299 00f6 00       		.uleb128 .LVU817
 9300 00f7 00       		.uleb128 .LVU835
 9301 00f8 00       		.uleb128 .LVU835
 9302 00f9 00       		.uleb128 .LVU841
ARM GAS  C:\Users\EDULU~1.DES\AppData\Local\Temp\ccxcKTgR.s 			page 220


 9303 00fa 00       		.uleb128 .LVU841
 9304 00fb 00       		.uleb128 .LVU850
 9305 00fc 00       		.uleb128 .LVU850
 9306 00fd 00       		.uleb128 .LVU853
 9307 00fe 00       		.uleb128 .LVU853
 9308 00ff 00       		.uleb128 .LVU869
 9309 0100 00       		.uleb128 .LVU869
 9310 0101 00       		.uleb128 .LVU878
 9311 0102 00       		.uleb128 .LVU878
 9312 0103 00       		.uleb128 0
 9313              	.LLST65:
 9314 0104 00000000 		.4byte	.LVL247
 9315 0108 0F000000 		.4byte	.LVL249-1
 9316 010c 0100     		.2byte	0x1
 9317 010e 52       		.byte	0x52
 9318 010f 0F000000 		.4byte	.LVL249-1
 9319 0113 38000000 		.4byte	.LVL253
 9320 0117 0100     		.2byte	0x1
 9321 0119 55       		.byte	0x55
 9322 011a 38000000 		.4byte	.LVL253
 9323 011e 5E000000 		.4byte	.LVL260
 9324 0122 0400     		.2byte	0x4
 9325 0124 F3       		.byte	0xf3
 9326 0125 01       		.uleb128 0x1
 9327 0126 52       		.byte	0x52
 9328 0127 9F       		.byte	0x9f
 9329 0128 5E000000 		.4byte	.LVL260
 9330 012c 68000000 		.4byte	.LVL261
 9331 0130 0100     		.2byte	0x1
 9332 0132 55       		.byte	0x55
 9333 0133 68000000 		.4byte	.LVL261
 9334 0137 7C000000 		.4byte	.LVL265
 9335 013b 0400     		.2byte	0x4
 9336 013d F3       		.byte	0xf3
 9337 013e 01       		.uleb128 0x1
 9338 013f 52       		.byte	0x52
 9339 0140 9F       		.byte	0x9f
 9340 0141 7C000000 		.4byte	.LVL265
 9341 0145 8C000000 		.4byte	.LVL267
 9342 0149 0100     		.2byte	0x1
 9343 014b 55       		.byte	0x55
 9344 014c 8C000000 		.4byte	.LVL267
 9345 0150 B8000000 		.4byte	.LVL275
 9346 0154 0400     		.2byte	0x4
 9347 0156 F3       		.byte	0xf3
 9348 0157 01       		.uleb128 0x1
 9349 0158 52       		.byte	0x52
 9350 0159 9F       		.byte	0x9f
 9351 015a B8000000 		.4byte	.LVL275
 9352 015e C8000000 		.4byte	.LVL279
 9353 0162 0100     		.2byte	0x1
 9354 0164 55       		.byte	0x55
 9355 0165 C8000000 		.4byte	.LVL279
 9356 0169 E0000000 		.4byte	.LFE20
 9357 016d 0400     		.2byte	0x4
 9358 016f F3       		.byte	0xf3
 9359 0170 01       		.uleb128 0x1
ARM GAS  C:\Users\EDULU~1.DES\AppData\Local\Temp\ccxcKTgR.s 			page 221


 9360 0171 52       		.byte	0x52
 9361 0172 9F       		.byte	0x9f
 9362 0173 00000000 		.4byte	0
 9363 0177 00000000 		.4byte	0
 9364              	.LVUS66:
 9365 017b 00       		.uleb128 0
 9366 017c 00       		.uleb128 .LVU799
 9367 017d 00       		.uleb128 .LVU799
 9368 017e 00       		.uleb128 .LVU859
 9369 017f 00       		.uleb128 .LVU859
 9370 0180 00       		.uleb128 .LVU861
 9371 0181 00       		.uleb128 .LVU861
 9372 0182 00       		.uleb128 .LVU878
 9373 0183 00       		.uleb128 .LVU878
 9374 0184 00       		.uleb128 0
 9375              	.LLST66:
 9376 0185 00000000 		.4byte	.LVL247
 9377 0189 0F000000 		.4byte	.LVL249-1
 9378 018d 0100     		.2byte	0x1
 9379 018f 53       		.byte	0x53
 9380 0190 0F000000 		.4byte	.LVL249-1
 9381 0194 9C000000 		.4byte	.LVL270
 9382 0198 0100     		.2byte	0x1
 9383 019a 57       		.byte	0x57
 9384 019b 9C000000 		.4byte	.LVL270
 9385 019f A6000000 		.4byte	.LVL272
 9386 01a3 0400     		.2byte	0x4
 9387 01a5 F3       		.byte	0xf3
 9388 01a6 01       		.uleb128 0x1
 9389 01a7 53       		.byte	0x53
 9390 01a8 9F       		.byte	0x9f
 9391 01a9 A6000000 		.4byte	.LVL272
 9392 01ad C8000000 		.4byte	.LVL279
 9393 01b1 0100     		.2byte	0x1
 9394 01b3 57       		.byte	0x57
 9395 01b4 C8000000 		.4byte	.LVL279
 9396 01b8 E0000000 		.4byte	.LFE20
 9397 01bc 0400     		.2byte	0x4
 9398 01be F3       		.byte	0xf3
 9399 01bf 01       		.uleb128 0x1
 9400 01c0 53       		.byte	0x53
 9401 01c1 9F       		.byte	0x9f
 9402 01c2 00000000 		.4byte	0
 9403 01c6 00000000 		.4byte	0
 9404              	.LVUS67:
 9405 01ca 01       		.uleb128 .LVU822
 9406 01cb 00       		.uleb128 .LVU827
 9407 01cc 01       		.uleb128 .LVU846
 9408 01cd 00       		.uleb128 .LVU850
 9409 01ce 00       		.uleb128 .LVU853
 9410 01cf 00       		.uleb128 .LVU861
 9411 01d0 01       		.uleb128 .LVU876
 9412 01d1 00       		.uleb128 .LVU878
 9413              	.LLST67:
 9414 01d2 40000000 		.4byte	.LVL254
 9415 01d6 4C000000 		.4byte	.LVL257
 9416 01da 0100     		.2byte	0x1
ARM GAS  C:\Users\EDULU~1.DES\AppData\Local\Temp\ccxcKTgR.s 			page 222


 9417 01dc 55       		.byte	0x55
 9418 01dd 70000000 		.4byte	.LVL262
 9419 01e1 7C000000 		.4byte	.LVL265
 9420 01e5 0100     		.2byte	0x1
 9421 01e7 55       		.byte	0x55
 9422 01e8 8C000000 		.4byte	.LVL267
 9423 01ec A6000000 		.4byte	.LVL272
 9424 01f0 0100     		.2byte	0x1
 9425 01f2 55       		.byte	0x55
 9426 01f3 C6000000 		.4byte	.LVL278
 9427 01f7 C8000000 		.4byte	.LVL279
 9428 01fb 0200     		.2byte	0x2
 9429 01fd 30       		.byte	0x30
 9430 01fe 9F       		.byte	0x9f
 9431 01ff 00000000 		.4byte	0
 9432 0203 00000000 		.4byte	0
 9433              	.LVUS68:
 9434 0207 02       		.uleb128 .LVU796
 9435 0208 00       		.uleb128 .LVU800
 9436 0209 00       		.uleb128 .LVU800
 9437 020a 00       		.uleb128 .LVU801
 9438 020b 00       		.uleb128 .LVU801
 9439 020c 00       		.uleb128 .LVU879
 9440              	.LLST68:
 9441 020d 0C000000 		.4byte	.LVL248
 9442 0211 12000000 		.4byte	.LVL250
 9443 0215 0200     		.2byte	0x2
 9444 0217 30       		.byte	0x30
 9445 0218 9F       		.byte	0x9f
 9446 0219 12000000 		.4byte	.LVL250
 9447 021d 15000000 		.4byte	.LVL251-1
 9448 0221 0100     		.2byte	0x1
 9449 0223 50       		.byte	0x50
 9450 0224 15000000 		.4byte	.LVL251-1
 9451 0228 CC000000 		.4byte	.LVL281
 9452 022c 0100     		.2byte	0x1
 9453 022e 56       		.byte	0x56
 9454 022f 00000000 		.4byte	0
 9455 0233 00000000 		.4byte	0
 9456              	.LVUS57:
 9457 0237 00       		.uleb128 0
 9458 0238 00       		.uleb128 .LVU681
 9459 0239 00       		.uleb128 .LVU681
 9460 023a 01       		.uleb128 .LVU697
 9461 023b 01       		.uleb128 .LVU697
 9462 023c 00       		.uleb128 .LVU698
 9463 023d 00       		.uleb128 .LVU698
 9464 023e 00       		.uleb128 0
 9465              	.LLST57:
 9466 023f 00000000 		.4byte	.LVL208
 9467 0243 09000000 		.4byte	.LVL210-1
 9468 0247 0100     		.2byte	0x1
 9469 0249 50       		.byte	0x50
 9470 024a 09000000 		.4byte	.LVL210-1
 9471 024e 36000000 		.4byte	.LVL216
 9472 0252 0100     		.2byte	0x1
 9473 0254 54       		.byte	0x54
ARM GAS  C:\Users\EDULU~1.DES\AppData\Local\Temp\ccxcKTgR.s 			page 223


 9474 0255 36000000 		.4byte	.LVL216
 9475 0259 38000000 		.4byte	.LVL219
 9476 025d 0400     		.2byte	0x4
 9477 025f F3       		.byte	0xf3
 9478 0260 01       		.uleb128 0x1
 9479 0261 50       		.byte	0x50
 9480 0262 9F       		.byte	0x9f
 9481 0263 38000000 		.4byte	.LVL219
 9482 0267 DC000000 		.4byte	.LFE18
 9483 026b 0100     		.2byte	0x1
 9484 026d 54       		.byte	0x54
 9485 026e 00000000 		.4byte	0
 9486 0272 00000000 		.4byte	0
 9487              	.LVUS58:
 9488 0276 00       		.uleb128 0
 9489 0277 00       		.uleb128 .LVU681
 9490 0278 00       		.uleb128 .LVU681
 9491 0279 01       		.uleb128 .LVU697
 9492 027a 01       		.uleb128 .LVU697
 9493 027b 00       		.uleb128 .LVU698
 9494 027c 00       		.uleb128 .LVU698
 9495 027d 00       		.uleb128 0
 9496              	.LLST58:
 9497 027e 00000000 		.4byte	.LVL208
 9498 0282 09000000 		.4byte	.LVL210-1
 9499 0286 0100     		.2byte	0x1
 9500 0288 51       		.byte	0x51
 9501 0289 09000000 		.4byte	.LVL210-1
 9502 028d 36000000 		.4byte	.LVL218
 9503 0291 0100     		.2byte	0x1
 9504 0293 56       		.byte	0x56
 9505 0294 36000000 		.4byte	.LVL218
 9506 0298 38000000 		.4byte	.LVL219
 9507 029c 0400     		.2byte	0x4
 9508 029e F3       		.byte	0xf3
 9509 029f 01       		.uleb128 0x1
 9510 02a0 51       		.byte	0x51
 9511 02a1 9F       		.byte	0x9f
 9512 02a2 38000000 		.4byte	.LVL219
 9513 02a6 DC000000 		.4byte	.LFE18
 9514 02aa 0100     		.2byte	0x1
 9515 02ac 56       		.byte	0x56
 9516 02ad 00000000 		.4byte	0
 9517 02b1 00000000 		.4byte	0
 9518              	.LVUS59:
 9519 02b5 01       		.uleb128 .LVU678
 9520 02b6 00       		.uleb128 .LVU682
 9521 02b7 00       		.uleb128 .LVU682
 9522 02b8 00       		.uleb128 .LVU683
 9523 02b9 00       		.uleb128 .LVU683
 9524 02ba 01       		.uleb128 .LVU697
 9525 02bb 00       		.uleb128 .LVU698
 9526 02bc 00       		.uleb128 0
 9527              	.LLST59:
 9528 02bd 06000000 		.4byte	.LVL209
 9529 02c1 0C000000 		.4byte	.LVL211
 9530 02c5 0200     		.2byte	0x2
ARM GAS  C:\Users\EDULU~1.DES\AppData\Local\Temp\ccxcKTgR.s 			page 224


 9531 02c7 30       		.byte	0x30
 9532 02c8 9F       		.byte	0x9f
 9533 02c9 0C000000 		.4byte	.LVL211
 9534 02cd 0F000000 		.4byte	.LVL212-1
 9535 02d1 0100     		.2byte	0x1
 9536 02d3 50       		.byte	0x50
 9537 02d4 0F000000 		.4byte	.LVL212-1
 9538 02d8 36000000 		.4byte	.LVL217
 9539 02dc 0100     		.2byte	0x1
 9540 02de 55       		.byte	0x55
 9541 02df 38000000 		.4byte	.LVL219
 9542 02e3 DC000000 		.4byte	.LFE18
 9543 02e7 0100     		.2byte	0x1
 9544 02e9 55       		.byte	0x55
 9545 02ea 00000000 		.4byte	0
 9546 02ee 00000000 		.4byte	0
 9547              	.LVUS38:
 9548 02f2 01       		.uleb128 .LVU493
 9549 02f3 00       		.uleb128 .LVU496
 9550 02f4 00       		.uleb128 .LVU534
 9551 02f5 00       		.uleb128 .LVU537
 9552 02f6 00       		.uleb128 .LVU538
 9553 02f7 00       		.uleb128 0
 9554              	.LLST38:
 9555 02f8 20000000 		.4byte	.LVL160
 9556 02fc 26000000 		.4byte	.LVL161
 9557 0300 0100     		.2byte	0x1
 9558 0302 53       		.byte	0x53
 9559 0303 64000000 		.4byte	.LVL162
 9560 0307 72000000 		.4byte	.LVL163
 9561 030b 0100     		.2byte	0x1
 9562 030d 53       		.byte	0x53
 9563 030e 74000000 		.4byte	.LVL164
 9564 0312 80000000 		.4byte	.LFE17
 9565 0316 0100     		.2byte	0x1
 9566 0318 53       		.byte	0x53
 9567 0319 00000000 		.4byte	0
 9568 031d 00000000 		.4byte	0
 9569              	.LVUS36:
 9570 0321 00       		.uleb128 .LVU425
 9571 0322 00       		.uleb128 .LVU435
 9572 0323 00       		.uleb128 .LVU439
 9573 0324 00       		.uleb128 .LVU448
 9574 0325 00       		.uleb128 .LVU449
 9575 0326 00       		.uleb128 0
 9576              	.LLST36:
 9577 0327 04000000 		.4byte	.LVL150
 9578 032b 12000000 		.4byte	.LVL151
 9579 032f 0100     		.2byte	0x1
 9580 0331 53       		.byte	0x53
 9581 0332 18000000 		.4byte	.LVL153
 9582 0336 26000000 		.4byte	.LVL156
 9583 033a 0100     		.2byte	0x1
 9584 033c 53       		.byte	0x53
 9585 033d 2A000000 		.4byte	.LVL157
 9586 0341 34000000 		.4byte	.LFE15
 9587 0345 0100     		.2byte	0x1
ARM GAS  C:\Users\EDULU~1.DES\AppData\Local\Temp\ccxcKTgR.s 			page 225


 9588 0347 53       		.byte	0x53
 9589 0348 00000000 		.4byte	0
 9590 034c 00000000 		.4byte	0
 9591              	.LVUS37:
 9592 0350 00       		.uleb128 .LVU423
 9593 0351 00       		.uleb128 .LVU438
 9594 0352 00       		.uleb128 .LVU439
 9595 0353 00       		.uleb128 .LVU441
 9596 0354 00       		.uleb128 .LVU441
 9597 0355 00       		.uleb128 .LVU446
 9598 0356 00       		.uleb128 .LVU449
 9599 0357 00       		.uleb128 0
 9600              	.LLST37:
 9601 0358 02000000 		.4byte	.LVL149
 9602 035c 16000000 		.4byte	.LVL152
 9603 0360 0100     		.2byte	0x1
 9604 0362 52       		.byte	0x52
 9605 0363 18000000 		.4byte	.LVL153
 9606 0367 1A000000 		.4byte	.LVL154
 9607 036b 0100     		.2byte	0x1
 9608 036d 52       		.byte	0x52
 9609 036e 1A000000 		.4byte	.LVL154
 9610 0372 24000000 		.4byte	.LVL155
 9611 0376 0300     		.2byte	0x3
 9612 0378 70       		.byte	0x70
 9613 0379 F000     		.sleb128 112
 9614 037b 2A000000 		.4byte	.LVL157
 9615 037f 34000000 		.4byte	.LFE15
 9616 0383 0100     		.2byte	0x1
 9617 0385 52       		.byte	0x52
 9618 0386 00000000 		.4byte	0
 9619 038a 00000000 		.4byte	0
 9620              	.LVUS77:
 9621 038e 00       		.uleb128 0
 9622 038f 00       		.uleb128 .LVU995
 9623 0390 00       		.uleb128 .LVU995
 9624 0391 00       		.uleb128 .LVU996
 9625 0392 00       		.uleb128 .LVU996
 9626 0393 00       		.uleb128 0
 9627              	.LLST77:
 9628 0394 00000000 		.4byte	.LVL317
 9629 0398 13000000 		.4byte	.LVL318-1
 9630 039c 0100     		.2byte	0x1
 9631 039e 50       		.byte	0x50
 9632 039f 13000000 		.4byte	.LVL318-1
 9633 03a3 16000000 		.4byte	.LVL319
 9634 03a7 0400     		.2byte	0x4
 9635 03a9 F3       		.byte	0xf3
 9636 03aa 01       		.uleb128 0x1
 9637 03ab 50       		.byte	0x50
 9638 03ac 9F       		.byte	0x9f
 9639 03ad 16000000 		.4byte	.LVL319
 9640 03b1 34000000 		.4byte	.LFE13
 9641 03b5 0100     		.2byte	0x1
 9642 03b7 50       		.byte	0x50
 9643 03b8 00000000 		.4byte	0
 9644 03bc 00000000 		.4byte	0
ARM GAS  C:\Users\EDULU~1.DES\AppData\Local\Temp\ccxcKTgR.s 			page 226


 9645              	.LVUS78:
 9646 03c0 00       		.uleb128 0
 9647 03c1 00       		.uleb128 .LVU995
 9648 03c2 00       		.uleb128 .LVU995
 9649 03c3 00       		.uleb128 .LVU996
 9650 03c4 00       		.uleb128 .LVU996
 9651 03c5 00       		.uleb128 0
 9652              	.LLST78:
 9653 03c6 00000000 		.4byte	.LVL317
 9654 03ca 13000000 		.4byte	.LVL318-1
 9655 03ce 0100     		.2byte	0x1
 9656 03d0 51       		.byte	0x51
 9657 03d1 13000000 		.4byte	.LVL318-1
 9658 03d5 16000000 		.4byte	.LVL319
 9659 03d9 0400     		.2byte	0x4
 9660 03db F3       		.byte	0xf3
 9661 03dc 01       		.uleb128 0x1
 9662 03dd 51       		.byte	0x51
 9663 03de 9F       		.byte	0x9f
 9664 03df 16000000 		.4byte	.LVL319
 9665 03e3 34000000 		.4byte	.LFE13
 9666 03e7 0100     		.2byte	0x1
 9667 03e9 51       		.byte	0x51
 9668 03ea 00000000 		.4byte	0
 9669 03ee 00000000 		.4byte	0
 9670              	.LVUS29:
 9671 03f2 00       		.uleb128 0
 9672 03f3 00       		.uleb128 .LVU335
 9673 03f4 00       		.uleb128 .LVU335
 9674 03f5 00       		.uleb128 .LVU359
 9675 03f6 00       		.uleb128 .LVU359
 9676 03f7 01       		.uleb128 .LVU362
 9677 03f8 01       		.uleb128 .LVU362
 9678 03f9 00       		.uleb128 .LVU363
 9679 03fa 00       		.uleb128 .LVU364
 9680 03fb 00       		.uleb128 .LVU370
 9681 03fc 00       		.uleb128 .LVU370
 9682 03fd 00       		.uleb128 0
 9683              	.LLST29:
 9684 03fe 00000000 		.4byte	.LVL118
 9685 0402 1F000000 		.4byte	.LVL121-1
 9686 0406 0100     		.2byte	0x1
 9687 0408 50       		.byte	0x50
 9688 0409 1F000000 		.4byte	.LVL121-1
 9689 040d 50000000 		.4byte	.LVL130
 9690 0411 0100     		.2byte	0x1
 9691 0413 54       		.byte	0x54
 9692 0414 50000000 		.4byte	.LVL130
 9693 0418 54000000 		.4byte	.LVL131
 9694 041c 0100     		.2byte	0x1
 9695 041e 50       		.byte	0x50
 9696 041f 54000000 		.4byte	.LVL131
 9697 0423 56000000 		.4byte	.LVL132
 9698 0427 0100     		.2byte	0x1
 9699 0429 54       		.byte	0x54
 9700 042a 58000000 		.4byte	.LVL136
 9701 042e 64000000 		.4byte	.LVL137
ARM GAS  C:\Users\EDULU~1.DES\AppData\Local\Temp\ccxcKTgR.s 			page 227


 9702 0432 0100     		.2byte	0x1
 9703 0434 50       		.byte	0x50
 9704 0435 64000000 		.4byte	.LVL137
 9705 0439 BC000000 		.4byte	.LFE12
 9706 043d 0100     		.2byte	0x1
 9707 043f 54       		.byte	0x54
 9708 0440 00000000 		.4byte	0
 9709 0444 00000000 		.4byte	0
 9710              	.LVUS30:
 9711 0448 00       		.uleb128 0
 9712 0449 00       		.uleb128 .LVU335
 9713 044a 00       		.uleb128 .LVU335
 9714 044b 00       		.uleb128 .LVU359
 9715 044c 00       		.uleb128 .LVU359
 9716 044d 01       		.uleb128 .LVU362
 9717 044e 01       		.uleb128 .LVU362
 9718 044f 00       		.uleb128 .LVU363
 9719 0450 00       		.uleb128 .LVU363
 9720 0451 00       		.uleb128 .LVU364
 9721 0452 00       		.uleb128 .LVU364
 9722 0453 00       		.uleb128 .LVU370
 9723 0454 00       		.uleb128 .LVU370
 9724 0455 00       		.uleb128 0
 9725              	.LLST30:
 9726 0456 00000000 		.4byte	.LVL118
 9727 045a 1F000000 		.4byte	.LVL121-1
 9728 045e 0100     		.2byte	0x1
 9729 0460 51       		.byte	0x51
 9730 0461 1F000000 		.4byte	.LVL121-1
 9731 0465 50000000 		.4byte	.LVL130
 9732 0469 0100     		.2byte	0x1
 9733 046b 55       		.byte	0x55
 9734 046c 50000000 		.4byte	.LVL130
 9735 0470 54000000 		.4byte	.LVL131
 9736 0474 0100     		.2byte	0x1
 9737 0476 51       		.byte	0x51
 9738 0477 54000000 		.4byte	.LVL131
 9739 047b 56000000 		.4byte	.LVL133
 9740 047f 0100     		.2byte	0x1
 9741 0481 55       		.byte	0x55
 9742 0482 56000000 		.4byte	.LVL133
 9743 0486 58000000 		.4byte	.LVL136
 9744 048a 0400     		.2byte	0x4
 9745 048c F3       		.byte	0xf3
 9746 048d 01       		.uleb128 0x1
 9747 048e 51       		.byte	0x51
 9748 048f 9F       		.byte	0x9f
 9749 0490 58000000 		.4byte	.LVL136
 9750 0494 64000000 		.4byte	.LVL137
 9751 0498 0100     		.2byte	0x1
 9752 049a 51       		.byte	0x51
 9753 049b 64000000 		.4byte	.LVL137
 9754 049f BC000000 		.4byte	.LFE12
 9755 04a3 0100     		.2byte	0x1
 9756 04a5 55       		.byte	0x55
 9757 04a6 00000000 		.4byte	0
 9758 04aa 00000000 		.4byte	0
ARM GAS  C:\Users\EDULU~1.DES\AppData\Local\Temp\ccxcKTgR.s 			page 228


 9759              	.LVUS31:
 9760 04ae 00       		.uleb128 0
 9761 04af 00       		.uleb128 .LVU335
 9762 04b0 00       		.uleb128 .LVU335
 9763 04b1 00       		.uleb128 .LVU359
 9764 04b2 00       		.uleb128 .LVU359
 9765 04b3 01       		.uleb128 .LVU362
 9766 04b4 01       		.uleb128 .LVU362
 9767 04b5 00       		.uleb128 .LVU363
 9768 04b6 00       		.uleb128 .LVU363
 9769 04b7 00       		.uleb128 .LVU364
 9770 04b8 00       		.uleb128 .LVU364
 9771 04b9 00       		.uleb128 .LVU370
 9772 04ba 00       		.uleb128 .LVU370
 9773 04bb 00       		.uleb128 0
 9774              	.LLST31:
 9775 04bc 00000000 		.4byte	.LVL118
 9776 04c0 1F000000 		.4byte	.LVL121-1
 9777 04c4 0100     		.2byte	0x1
 9778 04c6 52       		.byte	0x52
 9779 04c7 1F000000 		.4byte	.LVL121-1
 9780 04cb 50000000 		.4byte	.LVL130
 9781 04cf 0100     		.2byte	0x1
 9782 04d1 57       		.byte	0x57
 9783 04d2 50000000 		.4byte	.LVL130
 9784 04d6 54000000 		.4byte	.LVL131
 9785 04da 0100     		.2byte	0x1
 9786 04dc 52       		.byte	0x52
 9787 04dd 54000000 		.4byte	.LVL131
 9788 04e1 56000000 		.4byte	.LVL135
 9789 04e5 0100     		.2byte	0x1
 9790 04e7 57       		.byte	0x57
 9791 04e8 56000000 		.4byte	.LVL135
 9792 04ec 58000000 		.4byte	.LVL136
 9793 04f0 0400     		.2byte	0x4
 9794 04f2 F3       		.byte	0xf3
 9795 04f3 01       		.uleb128 0x1
 9796 04f4 52       		.byte	0x52
 9797 04f5 9F       		.byte	0x9f
 9798 04f6 58000000 		.4byte	.LVL136
 9799 04fa 64000000 		.4byte	.LVL137
 9800 04fe 0100     		.2byte	0x1
 9801 0500 52       		.byte	0x52
 9802 0501 64000000 		.4byte	.LVL137
 9803 0505 BC000000 		.4byte	.LFE12
 9804 0509 0100     		.2byte	0x1
 9805 050b 57       		.byte	0x57
 9806 050c 00000000 		.4byte	0
 9807 0510 00000000 		.4byte	0
 9808              	.LVUS32:
 9809 0514 00       		.uleb128 0
 9810 0515 00       		.uleb128 .LVU326
 9811 0516 00       		.uleb128 .LVU326
 9812 0517 00       		.uleb128 .LVU363
 9813 0518 00       		.uleb128 .LVU363
 9814 0519 00       		.uleb128 .LVU364
 9815 051a 00       		.uleb128 .LVU364
ARM GAS  C:\Users\EDULU~1.DES\AppData\Local\Temp\ccxcKTgR.s 			page 229


 9816 051b 00       		.uleb128 0
 9817              	.LLST32:
 9818 051c 00000000 		.4byte	.LVL118
 9819 0520 0E000000 		.4byte	.LVL120
 9820 0524 0100     		.2byte	0x1
 9821 0526 53       		.byte	0x53
 9822 0527 0E000000 		.4byte	.LVL120
 9823 052b 56000000 		.4byte	.LVL134
 9824 052f 0100     		.2byte	0x1
 9825 0531 56       		.byte	0x56
 9826 0532 56000000 		.4byte	.LVL134
 9827 0536 58000000 		.4byte	.LVL136
 9828 053a 0400     		.2byte	0x4
 9829 053c F3       		.byte	0xf3
 9830 053d 01       		.uleb128 0x1
 9831 053e 53       		.byte	0x53
 9832 053f 9F       		.byte	0x9f
 9833 0540 58000000 		.4byte	.LVL136
 9834 0544 BC000000 		.4byte	.LFE12
 9835 0548 0100     		.2byte	0x1
 9836 054a 56       		.byte	0x56
 9837 054b 00000000 		.4byte	0
 9838 054f 00000000 		.4byte	0
 9839              	.LVUS33:
 9840 0553 01       		.uleb128 .LVU349
 9841 0554 00       		.uleb128 .LVU353
 9842 0555 00       		.uleb128 .LVU353
 9843 0556 00       		.uleb128 .LVU359
 9844 0557 00       		.uleb128 .LVU395
 9845 0558 00       		.uleb128 .LVU400
 9846 0559 00       		.uleb128 .LVU400
 9847 055a 00       		.uleb128 .LVU401
 9848              	.LLST33:
 9849 055b 40000000 		.4byte	.LVL125
 9850 055f 44000000 		.4byte	.LVL127
 9851 0563 0200     		.2byte	0x2
 9852 0565 30       		.byte	0x30
 9853 0566 9F       		.byte	0x9f
 9854 0567 44000000 		.4byte	.LVL127
 9855 056b 50000000 		.4byte	.LVL130
 9856 056f 0100     		.2byte	0x1
 9857 0571 52       		.byte	0x52
 9858 0572 96000000 		.4byte	.LVL143
 9859 0576 9C000000 		.4byte	.LVL145
 9860 057a 0100     		.2byte	0x1
 9861 057c 52       		.byte	0x52
 9862 057d 9C000000 		.4byte	.LVL145
 9863 0581 9E000000 		.4byte	.LVL146
 9864 0585 0200     		.2byte	0x2
 9865 0587 75       		.byte	0x75
 9866 0588 00       		.sleb128 0
 9867 0589 00000000 		.4byte	0
 9868 058d 00000000 		.4byte	0
 9869              	.LVUS34:
 9870 0591 00       		.uleb128 .LVU351
 9871 0592 00       		.uleb128 .LVU359
 9872 0593 00       		.uleb128 .LVU395
ARM GAS  C:\Users\EDULU~1.DES\AppData\Local\Temp\ccxcKTgR.s 			page 230


 9873 0594 00       		.uleb128 .LVU399
 9874              	.LLST34:
 9875 0595 42000000 		.4byte	.LVL126
 9876 0599 50000000 		.4byte	.LVL130
 9877 059d 0100     		.2byte	0x1
 9878 059f 53       		.byte	0x53
 9879 05a0 96000000 		.4byte	.LVL143
 9880 05a4 9A000000 		.4byte	.LVL144
 9881 05a8 0100     		.2byte	0x1
 9882 05aa 53       		.byte	0x53
 9883 05ab 00000000 		.4byte	0
 9884 05af 00000000 		.4byte	0
 9885              	.LVUS35:
 9886 05b3 03       		.uleb128 .LVU324
 9887 05b4 00       		.uleb128 .LVU336
 9888 05b5 00       		.uleb128 .LVU336
 9889 05b6 00       		.uleb128 .LVU337
 9890 05b7 00       		.uleb128 .LVU337
 9891 05b8 00       		.uleb128 .LVU359
 9892 05b9 00       		.uleb128 .LVU359
 9893 05ba 01       		.uleb128 .LVU362
 9894 05bb 00       		.uleb128 .LVU364
 9895 05bc 00       		.uleb128 .LVU370
 9896 05bd 00       		.uleb128 .LVU370
 9897 05be 00       		.uleb128 0
 9898              	.LLST35:
 9899 05bf 0C000000 		.4byte	.LVL119
 9900 05c3 22000000 		.4byte	.LVL122
 9901 05c7 0200     		.2byte	0x2
 9902 05c9 30       		.byte	0x30
 9903 05ca 9F       		.byte	0x9f
 9904 05cb 22000000 		.4byte	.LVL122
 9905 05cf 25000000 		.4byte	.LVL123-1
 9906 05d3 0100     		.2byte	0x1
 9907 05d5 50       		.byte	0x50
 9908 05d6 25000000 		.4byte	.LVL123-1
 9909 05da 50000000 		.4byte	.LVL130
 9910 05de 0200     		.2byte	0x2
 9911 05e0 91       		.byte	0x91
 9912 05e1 64       		.sleb128 -28
 9913 05e2 50000000 		.4byte	.LVL130
 9914 05e6 54000000 		.4byte	.LVL131
 9915 05ea 0200     		.2byte	0x2
 9916 05ec 30       		.byte	0x30
 9917 05ed 9F       		.byte	0x9f
 9918 05ee 58000000 		.4byte	.LVL136
 9919 05f2 64000000 		.4byte	.LVL137
 9920 05f6 0200     		.2byte	0x2
 9921 05f8 30       		.byte	0x30
 9922 05f9 9F       		.byte	0x9f
 9923 05fa 64000000 		.4byte	.LVL137
 9924 05fe BC000000 		.4byte	.LFE12
 9925 0602 0200     		.2byte	0x2
 9926 0604 91       		.byte	0x91
 9927 0605 64       		.sleb128 -28
 9928 0606 00000000 		.4byte	0
 9929 060a 00000000 		.4byte	0
ARM GAS  C:\Users\EDULU~1.DES\AppData\Local\Temp\ccxcKTgR.s 			page 231


 9930              	.LVUS24:
 9931 060e 00       		.uleb128 0
 9932 060f 00       		.uleb128 .LVU295
 9933 0610 00       		.uleb128 .LVU295
 9934 0611 00       		.uleb128 .LVU296
 9935 0612 00       		.uleb128 .LVU297
 9936 0613 00       		.uleb128 .LVU300
 9937 0614 00       		.uleb128 .LVU300
 9938 0615 00       		.uleb128 0
 9939              	.LLST24:
 9940 0616 00000000 		.4byte	.LVL103
 9941 061a 18000000 		.4byte	.LVL105
 9942 061e 0100     		.2byte	0x1
 9943 0620 50       		.byte	0x50
 9944 0621 18000000 		.4byte	.LVL105
 9945 0625 1C000000 		.4byte	.LVL106
 9946 0629 0100     		.2byte	0x1
 9947 062b 54       		.byte	0x54
 9948 062c 1E000000 		.4byte	.LVL109
 9949 0630 21000000 		.4byte	.LVL110-1
 9950 0634 0100     		.2byte	0x1
 9951 0636 50       		.byte	0x50
 9952 0637 21000000 		.4byte	.LVL110-1
 9953 063b 54000000 		.4byte	.LFE11
 9954 063f 0100     		.2byte	0x1
 9955 0641 54       		.byte	0x54
 9956 0642 00000000 		.4byte	0
 9957 0646 00000000 		.4byte	0
 9958              	.LVUS25:
 9959 064a 00       		.uleb128 0
 9960 064b 00       		.uleb128 .LVU295
 9961 064c 00       		.uleb128 .LVU295
 9962 064d 00       		.uleb128 .LVU296
 9963 064e 00       		.uleb128 .LVU296
 9964 064f 00       		.uleb128 .LVU297
 9965 0650 00       		.uleb128 .LVU297
 9966 0651 00       		.uleb128 .LVU300
 9967 0652 00       		.uleb128 .LVU300
 9968 0653 00       		.uleb128 0
 9969              	.LLST25:
 9970 0654 00000000 		.4byte	.LVL103
 9971 0658 18000000 		.4byte	.LVL105
 9972 065c 0100     		.2byte	0x1
 9973 065e 51       		.byte	0x51
 9974 065f 18000000 		.4byte	.LVL105
 9975 0663 1C000000 		.4byte	.LVL107
 9976 0667 0100     		.2byte	0x1
 9977 0669 55       		.byte	0x55
 9978 066a 1C000000 		.4byte	.LVL107
 9979 066e 1E000000 		.4byte	.LVL109
 9980 0672 0400     		.2byte	0x4
 9981 0674 F3       		.byte	0xf3
 9982 0675 01       		.uleb128 0x1
 9983 0676 51       		.byte	0x51
 9984 0677 9F       		.byte	0x9f
 9985 0678 1E000000 		.4byte	.LVL109
 9986 067c 21000000 		.4byte	.LVL110-1
ARM GAS  C:\Users\EDULU~1.DES\AppData\Local\Temp\ccxcKTgR.s 			page 232


 9987 0680 0100     		.2byte	0x1
 9988 0682 51       		.byte	0x51
 9989 0683 21000000 		.4byte	.LVL110-1
 9990 0687 54000000 		.4byte	.LFE11
 9991 068b 0100     		.2byte	0x1
 9992 068d 55       		.byte	0x55
 9993 068e 00000000 		.4byte	0
 9994 0692 00000000 		.4byte	0
 9995              	.LVUS26:
 9996 0696 00       		.uleb128 0
 9997 0697 00       		.uleb128 .LVU295
 9998 0698 00       		.uleb128 .LVU295
 9999 0699 00       		.uleb128 .LVU296
 10000 069a 00       		.uleb128 .LVU296
 10001 069b 00       		.uleb128 .LVU297
 10002 069c 00       		.uleb128 .LVU297
 10003 069d 00       		.uleb128 .LVU300
 10004 069e 00       		.uleb128 .LVU300
 10005 069f 00       		.uleb128 0
 10006              	.LLST26:
 10007 06a0 00000000 		.4byte	.LVL103
 10008 06a4 18000000 		.4byte	.LVL105
 10009 06a8 0100     		.2byte	0x1
 10010 06aa 52       		.byte	0x52
 10011 06ab 18000000 		.4byte	.LVL105
 10012 06af 1C000000 		.4byte	.LVL108
 10013 06b3 0100     		.2byte	0x1
 10014 06b5 57       		.byte	0x57
 10015 06b6 1C000000 		.4byte	.LVL108
 10016 06ba 1E000000 		.4byte	.LVL109
 10017 06be 0400     		.2byte	0x4
 10018 06c0 F3       		.byte	0xf3
 10019 06c1 01       		.uleb128 0x1
 10020 06c2 52       		.byte	0x52
 10021 06c3 9F       		.byte	0x9f
 10022 06c4 1E000000 		.4byte	.LVL109
 10023 06c8 21000000 		.4byte	.LVL110-1
 10024 06cc 0100     		.2byte	0x1
 10025 06ce 52       		.byte	0x52
 10026 06cf 21000000 		.4byte	.LVL110-1
 10027 06d3 54000000 		.4byte	.LFE11
 10028 06d7 0100     		.2byte	0x1
 10029 06d9 57       		.byte	0x57
 10030 06da 00000000 		.4byte	0
 10031 06de 00000000 		.4byte	0
 10032              	.LVUS27:
 10033 06e2 00       		.uleb128 .LVU306
 10034 06e3 00       		.uleb128 .LVU316
 10035              	.LLST27:
 10036 06e4 2E000000 		.4byte	.LVL113
 10037 06e8 40000000 		.4byte	.LVL116
 10038 06ec 0100     		.2byte	0x1
 10039 06ee 56       		.byte	0x56
 10040 06ef 00000000 		.4byte	0
 10041 06f3 00000000 		.4byte	0
 10042              	.LVUS28:
 10043 06f7 02       		.uleb128 .LVU288
ARM GAS  C:\Users\EDULU~1.DES\AppData\Local\Temp\ccxcKTgR.s 			page 233


 10044 06f8 00       		.uleb128 .LVU295
 10045 06f9 00       		.uleb128 .LVU297
 10046 06fa 00       		.uleb128 .LVU301
 10047 06fb 00       		.uleb128 .LVU301
 10048 06fc 00       		.uleb128 .LVU302
 10049 06fd 00       		.uleb128 .LVU302
 10050 06fe 00       		.uleb128 0
 10051              	.LLST28:
 10052 06ff 0A000000 		.4byte	.LVL104
 10053 0703 18000000 		.4byte	.LVL105
 10054 0707 0200     		.2byte	0x2
 10055 0709 30       		.byte	0x30
 10056 070a 9F       		.byte	0x9f
 10057 070b 1E000000 		.4byte	.LVL109
 10058 070f 24000000 		.4byte	.LVL111
 10059 0713 0200     		.2byte	0x2
 10060 0715 30       		.byte	0x30
 10061 0716 9F       		.byte	0x9f
 10062 0717 24000000 		.4byte	.LVL111
 10063 071b 27000000 		.4byte	.LVL112-1
 10064 071f 0100     		.2byte	0x1
 10065 0721 50       		.byte	0x50
 10066 0722 27000000 		.4byte	.LVL112-1
 10067 0726 54000000 		.4byte	.LFE11
 10068 072a 0200     		.2byte	0x2
 10069 072c 91       		.byte	0x91
 10070 072d 64       		.sleb128 -28
 10071 072e 00000000 		.4byte	0
 10072 0732 00000000 		.4byte	0
 10073              	.LVUS69:
 10074 0736 00       		.uleb128 0
 10075 0737 00       		.uleb128 .LVU889
 10076 0738 00       		.uleb128 .LVU889
 10077 0739 01       		.uleb128 .LVU890
 10078 073a 01       		.uleb128 .LVU890
 10079 073b 00       		.uleb128 .LVU891
 10080 073c 00       		.uleb128 .LVU891
 10081 073d 00       		.uleb128 .LVU894
 10082 073e 00       		.uleb128 .LVU894
 10083 073f 00       		.uleb128 0
 10084              	.LLST69:
 10085 0740 00000000 		.4byte	.LVL282
 10086 0744 1A000000 		.4byte	.LVL283
 10087 0748 0100     		.2byte	0x1
 10088 074a 50       		.byte	0x50
 10089 074b 1A000000 		.4byte	.LVL283
 10090 074f 1A000000 		.4byte	.LVL285
 10091 0753 0100     		.2byte	0x1
 10092 0755 56       		.byte	0x56
 10093 0756 1A000000 		.4byte	.LVL285
 10094 075a 1C000000 		.4byte	.LVL286
 10095 075e 0400     		.2byte	0x4
 10096 0760 F3       		.byte	0xf3
 10097 0761 01       		.uleb128 0x1
 10098 0762 50       		.byte	0x50
 10099 0763 9F       		.byte	0x9f
 10100 0764 1C000000 		.4byte	.LVL286
ARM GAS  C:\Users\EDULU~1.DES\AppData\Local\Temp\ccxcKTgR.s 			page 234


 10101 0768 1F000000 		.4byte	.LVL287-1
 10102 076c 0100     		.2byte	0x1
 10103 076e 50       		.byte	0x50
 10104 076f 1F000000 		.4byte	.LVL287-1
 10105 0773 34000000 		.4byte	.LFE10
 10106 0777 0100     		.2byte	0x1
 10107 0779 56       		.byte	0x56
 10108 077a 00000000 		.4byte	0
 10109 077e 00000000 		.4byte	0
 10110              	.LVUS70:
 10111 0782 00       		.uleb128 0
 10112 0783 00       		.uleb128 .LVU889
 10113 0784 00       		.uleb128 .LVU889
 10114 0785 00       		.uleb128 .LVU891
 10115 0786 00       		.uleb128 .LVU891
 10116 0787 00       		.uleb128 .LVU894
 10117 0788 00       		.uleb128 .LVU894
 10118 0789 00       		.uleb128 0
 10119              	.LLST70:
 10120 078a 00000000 		.4byte	.LVL282
 10121 078e 1A000000 		.4byte	.LVL283
 10122 0792 0100     		.2byte	0x1
 10123 0794 51       		.byte	0x51
 10124 0795 1A000000 		.4byte	.LVL283
 10125 0799 1C000000 		.4byte	.LVL286
 10126 079d 0400     		.2byte	0x4
 10127 079f F3       		.byte	0xf3
 10128 07a0 01       		.uleb128 0x1
 10129 07a1 51       		.byte	0x51
 10130 07a2 9F       		.byte	0x9f
 10131 07a3 1C000000 		.4byte	.LVL286
 10132 07a7 1F000000 		.4byte	.LVL287-1
 10133 07ab 0100     		.2byte	0x1
 10134 07ad 51       		.byte	0x51
 10135 07ae 1F000000 		.4byte	.LVL287-1
 10136 07b2 34000000 		.4byte	.LFE10
 10137 07b6 0400     		.2byte	0x4
 10138 07b8 F3       		.byte	0xf3
 10139 07b9 01       		.uleb128 0x1
 10140 07ba 51       		.byte	0x51
 10141 07bb 9F       		.byte	0x9f
 10142 07bc 00000000 		.4byte	0
 10143 07c0 00000000 		.4byte	0
 10144              	.LVUS71:
 10145 07c4 00       		.uleb128 0
 10146 07c5 00       		.uleb128 .LVU889
 10147 07c6 00       		.uleb128 .LVU889
 10148 07c7 01       		.uleb128 .LVU890
 10149 07c8 01       		.uleb128 .LVU890
 10150 07c9 00       		.uleb128 .LVU891
 10151 07ca 00       		.uleb128 .LVU891
 10152 07cb 00       		.uleb128 .LVU894
 10153 07cc 00       		.uleb128 .LVU894
 10154 07cd 00       		.uleb128 0
 10155              	.LLST71:
 10156 07ce 00000000 		.4byte	.LVL282
 10157 07d2 1A000000 		.4byte	.LVL283
ARM GAS  C:\Users\EDULU~1.DES\AppData\Local\Temp\ccxcKTgR.s 			page 235


 10158 07d6 0100     		.2byte	0x1
 10159 07d8 52       		.byte	0x52
 10160 07d9 1A000000 		.4byte	.LVL283
 10161 07dd 1A000000 		.4byte	.LVL284
 10162 07e1 0100     		.2byte	0x1
 10163 07e3 55       		.byte	0x55
 10164 07e4 1A000000 		.4byte	.LVL284
 10165 07e8 1C000000 		.4byte	.LVL286
 10166 07ec 0400     		.2byte	0x4
 10167 07ee F3       		.byte	0xf3
 10168 07ef 01       		.uleb128 0x1
 10169 07f0 52       		.byte	0x52
 10170 07f1 9F       		.byte	0x9f
 10171 07f2 1C000000 		.4byte	.LVL286
 10172 07f6 1F000000 		.4byte	.LVL287-1
 10173 07fa 0100     		.2byte	0x1
 10174 07fc 52       		.byte	0x52
 10175 07fd 1F000000 		.4byte	.LVL287-1
 10176 0801 34000000 		.4byte	.LFE10
 10177 0805 0100     		.2byte	0x1
 10178 0807 55       		.byte	0x55
 10179 0808 00000000 		.4byte	0
 10180 080c 00000000 		.4byte	0
 10181              	.LVUS72:
 10182 0810 00       		.uleb128 .LVU898
 10183 0811 00       		.uleb128 0
 10184              	.LLST72:
 10185 0812 2C000000 		.4byte	.LVL290
 10186 0816 34000000 		.4byte	.LFE10
 10187 081a 0100     		.2byte	0x1
 10188 081c 50       		.byte	0x50
 10189 081d 00000000 		.4byte	0
 10190 0821 00000000 		.4byte	0
 10191              	.LVUS73:
 10192 0825 00       		.uleb128 .LVU895
 10193 0826 00       		.uleb128 .LVU897
 10194 0827 00       		.uleb128 .LVU897
 10195 0828 00       		.uleb128 .LVU898
 10196              	.LLST73:
 10197 0829 22000000 		.4byte	.LVL288
 10198 082d 28000000 		.4byte	.LVL289
 10199 0831 0100     		.2byte	0x1
 10200 0833 50       		.byte	0x50
 10201 0834 28000000 		.4byte	.LVL289
 10202 0838 2B000000 		.4byte	.LVL290-1
 10203 083c 0100     		.2byte	0x1
 10204 083e 52       		.byte	0x52
 10205 083f 00000000 		.4byte	0
 10206 0843 00000000 		.4byte	0
 10207              	.LVUS18:
 10208 0847 00       		.uleb128 0
 10209 0848 00       		.uleb128 .LVU184
 10210 0849 00       		.uleb128 .LVU184
 10211 084a 00       		.uleb128 .LVU185
 10212 084b 00       		.uleb128 .LVU185
 10213 084c 00       		.uleb128 .LVU187
 10214 084d 00       		.uleb128 .LVU187
ARM GAS  C:\Users\EDULU~1.DES\AppData\Local\Temp\ccxcKTgR.s 			page 236


 10215 084e 00       		.uleb128 .LVU195
 10216 084f 00       		.uleb128 .LVU195
 10217 0850 00       		.uleb128 0
 10218              	.LLST18:
 10219 0851 00000000 		.4byte	.LVL71
 10220 0855 2E000000 		.4byte	.LVL74
 10221 0859 0100     		.2byte	0x1
 10222 085b 50       		.byte	0x50
 10223 085c 2E000000 		.4byte	.LVL74
 10224 0860 32000000 		.4byte	.LVL75
 10225 0864 0200     		.2byte	0x2
 10226 0866 7D       		.byte	0x7d
 10227 0867 00       		.sleb128 0
 10228 0868 32000000 		.4byte	.LVL75
 10229 086c 34000000 		.4byte	.LVL78
 10230 0870 0200     		.2byte	0x2
 10231 0872 91       		.byte	0x91
 10232 0873 60       		.sleb128 -32
 10233 0874 34000000 		.4byte	.LVL78
 10234 0878 3F000000 		.4byte	.LVL79-1
 10235 087c 0100     		.2byte	0x1
 10236 087e 50       		.byte	0x50
 10237 087f 3F000000 		.4byte	.LVL79-1
 10238 0883 3C010000 		.4byte	.LFE9
 10239 0887 0200     		.2byte	0x2
 10240 0889 7D       		.byte	0x7d
 10241 088a 00       		.sleb128 0
 10242 088b 00000000 		.4byte	0
 10243 088f 00000000 		.4byte	0
 10244              	.LVUS19:
 10245 0893 00       		.uleb128 0
 10246 0894 00       		.uleb128 .LVU184
 10247 0895 00       		.uleb128 .LVU184
 10248 0896 00       		.uleb128 .LVU187
 10249 0897 00       		.uleb128 .LVU187
 10250 0898 00       		.uleb128 .LVU195
 10251 0899 00       		.uleb128 .LVU195
 10252 089a 00       		.uleb128 0
 10253              	.LLST19:
 10254 089b 00000000 		.4byte	.LVL71
 10255 089f 2E000000 		.4byte	.LVL74
 10256 08a3 0100     		.2byte	0x1
 10257 08a5 51       		.byte	0x51
 10258 08a6 2E000000 		.4byte	.LVL74
 10259 08aa 34000000 		.4byte	.LVL78
 10260 08ae 0400     		.2byte	0x4
 10261 08b0 F3       		.byte	0xf3
 10262 08b1 01       		.uleb128 0x1
 10263 08b2 51       		.byte	0x51
 10264 08b3 9F       		.byte	0x9f
 10265 08b4 34000000 		.4byte	.LVL78
 10266 08b8 3F000000 		.4byte	.LVL79-1
 10267 08bc 0100     		.2byte	0x1
 10268 08be 51       		.byte	0x51
 10269 08bf 3F000000 		.4byte	.LVL79-1
 10270 08c3 3C010000 		.4byte	.LFE9
 10271 08c7 0400     		.2byte	0x4
ARM GAS  C:\Users\EDULU~1.DES\AppData\Local\Temp\ccxcKTgR.s 			page 237


 10272 08c9 F3       		.byte	0xf3
 10273 08ca 01       		.uleb128 0x1
 10274 08cb 51       		.byte	0x51
 10275 08cc 9F       		.byte	0x9f
 10276 08cd 00000000 		.4byte	0
 10277 08d1 00000000 		.4byte	0
 10278              	.LVUS20:
 10279 08d5 00       		.uleb128 0
 10280 08d6 00       		.uleb128 .LVU184
 10281 08d7 00       		.uleb128 .LVU184
 10282 08d8 01       		.uleb128 .LVU186
 10283 08d9 01       		.uleb128 .LVU186
 10284 08da 00       		.uleb128 .LVU187
 10285 08db 00       		.uleb128 .LVU187
 10286 08dc 00       		.uleb128 .LVU195
 10287 08dd 00       		.uleb128 .LVU195
 10288 08de 00       		.uleb128 0
 10289              	.LLST20:
 10290 08df 00000000 		.4byte	.LVL71
 10291 08e3 2E000000 		.4byte	.LVL74
 10292 08e7 0100     		.2byte	0x1
 10293 08e9 52       		.byte	0x52
 10294 08ea 2E000000 		.4byte	.LVL74
 10295 08ee 32000000 		.4byte	.LVL76
 10296 08f2 0100     		.2byte	0x1
 10297 08f4 55       		.byte	0x55
 10298 08f5 32000000 		.4byte	.LVL76
 10299 08f9 34000000 		.4byte	.LVL78
 10300 08fd 0400     		.2byte	0x4
 10301 08ff F3       		.byte	0xf3
 10302 0900 01       		.uleb128 0x1
 10303 0901 52       		.byte	0x52
 10304 0902 9F       		.byte	0x9f
 10305 0903 34000000 		.4byte	.LVL78
 10306 0907 3F000000 		.4byte	.LVL79-1
 10307 090b 0100     		.2byte	0x1
 10308 090d 52       		.byte	0x52
 10309 090e 3F000000 		.4byte	.LVL79-1
 10310 0912 3C010000 		.4byte	.LFE9
 10311 0916 0100     		.2byte	0x1
 10312 0918 55       		.byte	0x55
 10313 0919 00000000 		.4byte	0
 10314 091d 00000000 		.4byte	0
 10315              	.LVUS21:
 10316 0921 00       		.uleb128 0
 10317 0922 00       		.uleb128 .LVU173
 10318 0923 00       		.uleb128 .LVU173
 10319 0924 01       		.uleb128 .LVU186
 10320 0925 01       		.uleb128 .LVU186
 10321 0926 00       		.uleb128 .LVU187
 10322 0927 00       		.uleb128 .LVU187
 10323 0928 00       		.uleb128 0
 10324              	.LLST21:
 10325 0929 00000000 		.4byte	.LVL71
 10326 092d 0E000000 		.4byte	.LVL73
 10327 0931 0100     		.2byte	0x1
 10328 0933 53       		.byte	0x53
ARM GAS  C:\Users\EDULU~1.DES\AppData\Local\Temp\ccxcKTgR.s 			page 238


 10329 0934 0E000000 		.4byte	.LVL73
 10330 0938 32000000 		.4byte	.LVL77
 10331 093c 0100     		.2byte	0x1
 10332 093e 56       		.byte	0x56
 10333 093f 32000000 		.4byte	.LVL77
 10334 0943 34000000 		.4byte	.LVL78
 10335 0947 0400     		.2byte	0x4
 10336 0949 F3       		.byte	0xf3
 10337 094a 01       		.uleb128 0x1
 10338 094b 53       		.byte	0x53
 10339 094c 9F       		.byte	0x9f
 10340 094d 34000000 		.4byte	.LVL78
 10341 0951 3C010000 		.4byte	.LFE9
 10342 0955 0100     		.2byte	0x1
 10343 0957 56       		.byte	0x56
 10344 0958 00000000 		.4byte	0
 10345 095c 00000000 		.4byte	0
 10346              	.LVUS22:
 10347 0960 01       		.uleb128 .LVU226
 10348 0961 00       		.uleb128 .LVU238
 10349 0962 00       		.uleb128 .LVU264
 10350 0963 00       		.uleb128 .LVU270
 10351              	.LLST22:
 10352 0964 A0000000 		.4byte	.LVL90
 10353 0968 B8000000 		.4byte	.LVL93
 10354 096c 0100     		.2byte	0x1
 10355 096e 57       		.byte	0x57
 10356 096f EA000000 		.4byte	.LVL99
 10357 0973 F6000000 		.4byte	.LVL102
 10358 0977 0100     		.2byte	0x1
 10359 0979 57       		.byte	0x57
 10360 097a 00000000 		.4byte	0
 10361 097e 00000000 		.4byte	0
 10362              	.LVUS23:
 10363 0982 02       		.uleb128 .LVU171
 10364 0983 00       		.uleb128 .LVU184
 10365 0984 00       		.uleb128 .LVU187
 10366 0985 00       		.uleb128 .LVU196
 10367 0986 00       		.uleb128 .LVU196
 10368 0987 00       		.uleb128 .LVU197
 10369 0988 00       		.uleb128 .LVU197
 10370 0989 00       		.uleb128 .LVU216
 10371 098a 00       		.uleb128 .LVU216
 10372 098b 00       		.uleb128 .LVU217
 10373 098c 00       		.uleb128 .LVU217
 10374 098d 00       		.uleb128 .LVU223
 10375 098e 00       		.uleb128 .LVU223
 10376 098f 00       		.uleb128 .LVU254
 10377 0990 00       		.uleb128 .LVU254
 10378 0991 00       		.uleb128 0
 10379              	.LLST23:
 10380 0992 0C000000 		.4byte	.LVL72
 10381 0996 2E000000 		.4byte	.LVL74
 10382 099a 0200     		.2byte	0x2
 10383 099c 30       		.byte	0x30
 10384 099d 9F       		.byte	0x9f
 10385 099e 34000000 		.4byte	.LVL78
ARM GAS  C:\Users\EDULU~1.DES\AppData\Local\Temp\ccxcKTgR.s 			page 239


 10386 09a2 42000000 		.4byte	.LVL80
 10387 09a6 0200     		.2byte	0x2
 10388 09a8 30       		.byte	0x30
 10389 09a9 9F       		.byte	0x9f
 10390 09aa 42000000 		.4byte	.LVL80
 10391 09ae 45000000 		.4byte	.LVL81-1
 10392 09b2 0100     		.2byte	0x1
 10393 09b4 50       		.byte	0x50
 10394 09b5 45000000 		.4byte	.LVL81-1
 10395 09b9 7E000000 		.4byte	.LVL87
 10396 09bd 0200     		.2byte	0x2
 10397 09bf 91       		.byte	0x91
 10398 09c0 64       		.sleb128 -28
 10399 09c1 7E000000 		.4byte	.LVL87
 10400 09c5 81000000 		.4byte	.LVL88-1
 10401 09c9 0100     		.2byte	0x1
 10402 09cb 50       		.byte	0x50
 10403 09cc 81000000 		.4byte	.LVL88-1
 10404 09d0 9C000000 		.4byte	.LVL89
 10405 09d4 0100     		.2byte	0x1
 10406 09d6 54       		.byte	0x54
 10407 09d7 9C000000 		.4byte	.LVL89
 10408 09db D8000000 		.4byte	.LVL98
 10409 09df 0200     		.2byte	0x2
 10410 09e1 91       		.byte	0x91
 10411 09e2 64       		.sleb128 -28
 10412 09e3 D8000000 		.4byte	.LVL98
 10413 09e7 3C010000 		.4byte	.LFE9
 10414 09eb 0100     		.2byte	0x1
 10415 09ed 54       		.byte	0x54
 10416 09ee 00000000 		.4byte	0
 10417 09f2 00000000 		.4byte	0
 10418              	.LVUS60:
 10419 09f6 00       		.uleb128 0
 10420 09f7 01       		.uleb128 .LVU764
 10421 09f8 01       		.uleb128 .LVU764
 10422 09f9 02       		.uleb128 .LVU765
 10423 09fa 02       		.uleb128 .LVU765
 10424 09fb 00       		.uleb128 .LVU766
 10425 09fc 00       		.uleb128 .LVU766
 10426 09fd 00       		.uleb128 .LVU769
 10427 09fe 00       		.uleb128 .LVU769
 10428 09ff 00       		.uleb128 0
 10429              	.LLST60:
 10430 0a00 00000000 		.4byte	.LVL231
 10431 0a04 12000000 		.4byte	.LVL233
 10432 0a08 0100     		.2byte	0x1
 10433 0a0a 50       		.byte	0x50
 10434 0a0b 12000000 		.4byte	.LVL233
 10435 0a0f 12000000 		.4byte	.LVL234
 10436 0a13 0100     		.2byte	0x1
 10437 0a15 54       		.byte	0x54
 10438 0a16 12000000 		.4byte	.LVL234
 10439 0a1a 14000000 		.4byte	.LVL236
 10440 0a1e 0400     		.2byte	0x4
 10441 0a20 F3       		.byte	0xf3
 10442 0a21 01       		.uleb128 0x1
ARM GAS  C:\Users\EDULU~1.DES\AppData\Local\Temp\ccxcKTgR.s 			page 240


 10443 0a22 50       		.byte	0x50
 10444 0a23 9F       		.byte	0x9f
 10445 0a24 14000000 		.4byte	.LVL236
 10446 0a28 17000000 		.4byte	.LVL237-1
 10447 0a2c 0100     		.2byte	0x1
 10448 0a2e 50       		.byte	0x50
 10449 0a2f 17000000 		.4byte	.LVL237-1
 10450 0a33 60000000 		.4byte	.LFE8
 10451 0a37 0100     		.2byte	0x1
 10452 0a39 54       		.byte	0x54
 10453 0a3a 00000000 		.4byte	0
 10454 0a3e 00000000 		.4byte	0
 10455              	.LVUS61:
 10456 0a42 00       		.uleb128 0
 10457 0a43 01       		.uleb128 .LVU764
 10458 0a44 01       		.uleb128 .LVU764
 10459 0a45 02       		.uleb128 .LVU765
 10460 0a46 02       		.uleb128 .LVU765
 10461 0a47 00       		.uleb128 .LVU766
 10462 0a48 00       		.uleb128 .LVU766
 10463 0a49 00       		.uleb128 .LVU769
 10464 0a4a 00       		.uleb128 .LVU769
 10465 0a4b 00       		.uleb128 0
 10466              	.LLST61:
 10467 0a4c 00000000 		.4byte	.LVL231
 10468 0a50 12000000 		.4byte	.LVL233
 10469 0a54 0100     		.2byte	0x1
 10470 0a56 51       		.byte	0x51
 10471 0a57 12000000 		.4byte	.LVL233
 10472 0a5b 12000000 		.4byte	.LVL235
 10473 0a5f 0100     		.2byte	0x1
 10474 0a61 55       		.byte	0x55
 10475 0a62 12000000 		.4byte	.LVL235
 10476 0a66 14000000 		.4byte	.LVL236
 10477 0a6a 0400     		.2byte	0x4
 10478 0a6c F3       		.byte	0xf3
 10479 0a6d 01       		.uleb128 0x1
 10480 0a6e 51       		.byte	0x51
 10481 0a6f 9F       		.byte	0x9f
 10482 0a70 14000000 		.4byte	.LVL236
 10483 0a74 17000000 		.4byte	.LVL237-1
 10484 0a78 0100     		.2byte	0x1
 10485 0a7a 51       		.byte	0x51
 10486 0a7b 17000000 		.4byte	.LVL237-1
 10487 0a7f 60000000 		.4byte	.LFE8
 10488 0a83 0100     		.2byte	0x1
 10489 0a85 55       		.byte	0x55
 10490 0a86 00000000 		.4byte	0
 10491 0a8a 00000000 		.4byte	0
 10492              	.LVUS62:
 10493 0a8e 01       		.uleb128 .LVU758
 10494 0a8f 01       		.uleb128 .LVU764
 10495 0a90 00       		.uleb128 .LVU766
 10496 0a91 00       		.uleb128 .LVU770
 10497 0a92 00       		.uleb128 .LVU770
 10498 0a93 00       		.uleb128 .LVU771
 10499 0a94 00       		.uleb128 .LVU771
ARM GAS  C:\Users\EDULU~1.DES\AppData\Local\Temp\ccxcKTgR.s 			page 241


 10500 0a95 00       		.uleb128 0
 10501              	.LLST62:
 10502 0a96 06000000 		.4byte	.LVL232
 10503 0a9a 12000000 		.4byte	.LVL233
 10504 0a9e 0200     		.2byte	0x2
 10505 0aa0 30       		.byte	0x30
 10506 0aa1 9F       		.byte	0x9f
 10507 0aa2 14000000 		.4byte	.LVL236
 10508 0aa6 1A000000 		.4byte	.LVL238
 10509 0aaa 0200     		.2byte	0x2
 10510 0aac 30       		.byte	0x30
 10511 0aad 9F       		.byte	0x9f
 10512 0aae 1A000000 		.4byte	.LVL238
 10513 0ab2 1D000000 		.4byte	.LVL239-1
 10514 0ab6 0100     		.2byte	0x1
 10515 0ab8 50       		.byte	0x50
 10516 0ab9 1D000000 		.4byte	.LVL239-1
 10517 0abd 60000000 		.4byte	.LFE8
 10518 0ac1 0100     		.2byte	0x1
 10519 0ac3 56       		.byte	0x56
 10520 0ac4 00000000 		.4byte	0
 10521 0ac8 00000000 		.4byte	0
 10522              	.LVUS13:
 10523 0acc 00       		.uleb128 0
 10524 0acd 01       		.uleb128 .LVU147
 10525 0ace 01       		.uleb128 .LVU147
 10526 0acf 00       		.uleb128 .LVU148
 10527 0ad0 00       		.uleb128 .LVU149
 10528 0ad1 00       		.uleb128 .LVU152
 10529 0ad2 00       		.uleb128 .LVU152
 10530 0ad3 00       		.uleb128 0
 10531              	.LLST13:
 10532 0ad4 00000000 		.4byte	.LVL57
 10533 0ad8 14000000 		.4byte	.LVL60
 10534 0adc 0100     		.2byte	0x1
 10535 0ade 50       		.byte	0x50
 10536 0adf 14000000 		.4byte	.LVL60
 10537 0ae3 16000000 		.4byte	.LVL63
 10538 0ae7 0100     		.2byte	0x1
 10539 0ae9 57       		.byte	0x57
 10540 0aea 18000000 		.4byte	.LVL64
 10541 0aee 1B000000 		.4byte	.LVL65-1
 10542 0af2 0100     		.2byte	0x1
 10543 0af4 50       		.byte	0x50
 10544 0af5 1B000000 		.4byte	.LVL65-1
 10545 0af9 4C000000 		.4byte	.LFE7
 10546 0afd 0100     		.2byte	0x1
 10547 0aff 57       		.byte	0x57
 10548 0b00 00000000 		.4byte	0
 10549 0b04 00000000 		.4byte	0
 10550              	.LVUS14:
 10551 0b08 00       		.uleb128 0
 10552 0b09 01       		.uleb128 .LVU147
 10553 0b0a 01       		.uleb128 .LVU147
 10554 0b0b 00       		.uleb128 .LVU149
 10555 0b0c 00       		.uleb128 .LVU149
 10556 0b0d 00       		.uleb128 .LVU152
ARM GAS  C:\Users\EDULU~1.DES\AppData\Local\Temp\ccxcKTgR.s 			page 242


 10557 0b0e 00       		.uleb128 .LVU152
 10558 0b0f 00       		.uleb128 0
 10559              	.LLST14:
 10560 0b10 00000000 		.4byte	.LVL57
 10561 0b14 14000000 		.4byte	.LVL60
 10562 0b18 0100     		.2byte	0x1
 10563 0b1a 51       		.byte	0x51
 10564 0b1b 14000000 		.4byte	.LVL60
 10565 0b1f 18000000 		.4byte	.LVL64
 10566 0b23 0400     		.2byte	0x4
 10567 0b25 F3       		.byte	0xf3
 10568 0b26 01       		.uleb128 0x1
 10569 0b27 51       		.byte	0x51
 10570 0b28 9F       		.byte	0x9f
 10571 0b29 18000000 		.4byte	.LVL64
 10572 0b2d 1B000000 		.4byte	.LVL65-1
 10573 0b31 0100     		.2byte	0x1
 10574 0b33 51       		.byte	0x51
 10575 0b34 1B000000 		.4byte	.LVL65-1
 10576 0b38 4C000000 		.4byte	.LFE7
 10577 0b3c 0400     		.2byte	0x4
 10578 0b3e F3       		.byte	0xf3
 10579 0b3f 01       		.uleb128 0x1
 10580 0b40 51       		.byte	0x51
 10581 0b41 9F       		.byte	0x9f
 10582 0b42 00000000 		.4byte	0
 10583 0b46 00000000 		.4byte	0
 10584              	.LVUS15:
 10585 0b4a 00       		.uleb128 0
 10586 0b4b 01       		.uleb128 .LVU147
 10587 0b4c 01       		.uleb128 .LVU147
 10588 0b4d 00       		.uleb128 .LVU148
 10589 0b4e 00       		.uleb128 .LVU148
 10590 0b4f 00       		.uleb128 .LVU149
 10591 0b50 00       		.uleb128 .LVU149
 10592 0b51 00       		.uleb128 .LVU152
 10593 0b52 00       		.uleb128 .LVU152
 10594 0b53 00       		.uleb128 0
 10595              	.LLST15:
 10596 0b54 00000000 		.4byte	.LVL57
 10597 0b58 14000000 		.4byte	.LVL60
 10598 0b5c 0100     		.2byte	0x1
 10599 0b5e 52       		.byte	0x52
 10600 0b5f 14000000 		.4byte	.LVL60
 10601 0b63 16000000 		.4byte	.LVL61
 10602 0b67 0100     		.2byte	0x1
 10603 0b69 55       		.byte	0x55
 10604 0b6a 16000000 		.4byte	.LVL61
 10605 0b6e 18000000 		.4byte	.LVL64
 10606 0b72 0400     		.2byte	0x4
 10607 0b74 F3       		.byte	0xf3
 10608 0b75 01       		.uleb128 0x1
 10609 0b76 52       		.byte	0x52
 10610 0b77 9F       		.byte	0x9f
 10611 0b78 18000000 		.4byte	.LVL64
 10612 0b7c 1B000000 		.4byte	.LVL65-1
 10613 0b80 0100     		.2byte	0x1
ARM GAS  C:\Users\EDULU~1.DES\AppData\Local\Temp\ccxcKTgR.s 			page 243


 10614 0b82 52       		.byte	0x52
 10615 0b83 1B000000 		.4byte	.LVL65-1
 10616 0b87 4C000000 		.4byte	.LFE7
 10617 0b8b 0100     		.2byte	0x1
 10618 0b8d 55       		.byte	0x55
 10619 0b8e 00000000 		.4byte	0
 10620 0b92 00000000 		.4byte	0
 10621              	.LVUS16:
 10622 0b96 00       		.uleb128 0
 10623 0b97 00       		.uleb128 .LVU145
 10624 0b98 00       		.uleb128 .LVU145
 10625 0b99 00       		.uleb128 .LVU148
 10626 0b9a 00       		.uleb128 .LVU148
 10627 0b9b 00       		.uleb128 .LVU149
 10628 0b9c 00       		.uleb128 .LVU149
 10629 0b9d 00       		.uleb128 .LVU152
 10630 0b9e 00       		.uleb128 .LVU152
 10631 0b9f 00       		.uleb128 0
 10632              	.LLST16:
 10633 0ba0 00000000 		.4byte	.LVL57
 10634 0ba4 12000000 		.4byte	.LVL59
 10635 0ba8 0100     		.2byte	0x1
 10636 0baa 53       		.byte	0x53
 10637 0bab 12000000 		.4byte	.LVL59
 10638 0baf 16000000 		.4byte	.LVL62
 10639 0bb3 0100     		.2byte	0x1
 10640 0bb5 56       		.byte	0x56
 10641 0bb6 16000000 		.4byte	.LVL62
 10642 0bba 18000000 		.4byte	.LVL64
 10643 0bbe 0400     		.2byte	0x4
 10644 0bc0 F3       		.byte	0xf3
 10645 0bc1 01       		.uleb128 0x1
 10646 0bc2 53       		.byte	0x53
 10647 0bc3 9F       		.byte	0x9f
 10648 0bc4 18000000 		.4byte	.LVL64
 10649 0bc8 1B000000 		.4byte	.LVL65-1
 10650 0bcc 0100     		.2byte	0x1
 10651 0bce 53       		.byte	0x53
 10652 0bcf 1B000000 		.4byte	.LVL65-1
 10653 0bd3 4C000000 		.4byte	.LFE7
 10654 0bd7 0100     		.2byte	0x1
 10655 0bd9 56       		.byte	0x56
 10656 0bda 00000000 		.4byte	0
 10657 0bde 00000000 		.4byte	0
 10658              	.LVUS17:
 10659 0be2 01       		.uleb128 .LVU141
 10660 0be3 01       		.uleb128 .LVU147
 10661 0be4 00       		.uleb128 .LVU149
 10662 0be5 00       		.uleb128 .LVU153
 10663 0be6 00       		.uleb128 .LVU153
 10664 0be7 00       		.uleb128 .LVU154
 10665 0be8 00       		.uleb128 .LVU154
 10666 0be9 00       		.uleb128 0
 10667              	.LLST17:
 10668 0bea 0C000000 		.4byte	.LVL58
 10669 0bee 14000000 		.4byte	.LVL60
 10670 0bf2 0200     		.2byte	0x2
ARM GAS  C:\Users\EDULU~1.DES\AppData\Local\Temp\ccxcKTgR.s 			page 244


 10671 0bf4 30       		.byte	0x30
 10672 0bf5 9F       		.byte	0x9f
 10673 0bf6 18000000 		.4byte	.LVL64
 10674 0bfa 1E000000 		.4byte	.LVL66
 10675 0bfe 0200     		.2byte	0x2
 10676 0c00 30       		.byte	0x30
 10677 0c01 9F       		.byte	0x9f
 10678 0c02 1E000000 		.4byte	.LVL66
 10679 0c06 21000000 		.4byte	.LVL67-1
 10680 0c0a 0100     		.2byte	0x1
 10681 0c0c 50       		.byte	0x50
 10682 0c0d 21000000 		.4byte	.LVL67-1
 10683 0c11 4C000000 		.4byte	.LFE7
 10684 0c15 0200     		.2byte	0x2
 10685 0c17 91       		.byte	0x91
 10686 0c18 64       		.sleb128 -28
 10687 0c19 00000000 		.4byte	0
 10688 0c1d 00000000 		.4byte	0
 10689              	.LVUS10:
 10690 0c21 00       		.uleb128 0
 10691 0c22 00       		.uleb128 .LVU113
 10692 0c23 00       		.uleb128 .LVU113
 10693 0c24 00       		.uleb128 .LVU129
 10694 0c25 00       		.uleb128 .LVU129
 10695 0c26 00       		.uleb128 .LVU130
 10696 0c27 00       		.uleb128 .LVU130
 10697 0c28 00       		.uleb128 0
 10698              	.LLST10:
 10699 0c29 00000000 		.4byte	.LVL43
 10700 0c2d 07000000 		.4byte	.LVL45-1
 10701 0c31 0100     		.2byte	0x1
 10702 0c33 50       		.byte	0x50
 10703 0c34 07000000 		.4byte	.LVL45-1
 10704 0c38 2C000000 		.4byte	.LVL53
 10705 0c3c 0100     		.2byte	0x1
 10706 0c3e 56       		.byte	0x56
 10707 0c3f 2C000000 		.4byte	.LVL53
 10708 0c43 2E000000 		.4byte	.LVL54
 10709 0c47 0400     		.2byte	0x4
 10710 0c49 F3       		.byte	0xf3
 10711 0c4a 01       		.uleb128 0x1
 10712 0c4b 50       		.byte	0x50
 10713 0c4c 9F       		.byte	0x9f
 10714 0c4d 2E000000 		.4byte	.LVL54
 10715 0c51 48000000 		.4byte	.LFE6
 10716 0c55 0100     		.2byte	0x1
 10717 0c57 56       		.byte	0x56
 10718 0c58 00000000 		.4byte	0
 10719 0c5c 00000000 		.4byte	0
 10720              	.LVUS11:
 10721 0c60 01       		.uleb128 .LVU119
 10722 0c61 01       		.uleb128 .LVU128
 10723              	.LLST11:
 10724 0c62 16000000 		.4byte	.LVL48
 10725 0c66 2A000000 		.4byte	.LVL51
 10726 0c6a 0100     		.2byte	0x1
 10727 0c6c 54       		.byte	0x54
ARM GAS  C:\Users\EDULU~1.DES\AppData\Local\Temp\ccxcKTgR.s 			page 245


 10728 0c6d 00000000 		.4byte	0
 10729 0c71 00000000 		.4byte	0
 10730              	.LVUS12:
 10731 0c75 02       		.uleb128 .LVU110
 10732 0c76 00       		.uleb128 .LVU114
 10733 0c77 00       		.uleb128 .LVU114
 10734 0c78 00       		.uleb128 .LVU115
 10735 0c79 00       		.uleb128 .LVU115
 10736 0c7a 00       		.uleb128 .LVU129
 10737 0c7b 00       		.uleb128 .LVU130
 10738 0c7c 00       		.uleb128 0
 10739              	.LLST12:
 10740 0c7d 04000000 		.4byte	.LVL44
 10741 0c81 0A000000 		.4byte	.LVL46
 10742 0c85 0200     		.2byte	0x2
 10743 0c87 30       		.byte	0x30
 10744 0c88 9F       		.byte	0x9f
 10745 0c89 0A000000 		.4byte	.LVL46
 10746 0c8d 0D000000 		.4byte	.LVL47-1
 10747 0c91 0100     		.2byte	0x1
 10748 0c93 50       		.byte	0x50
 10749 0c94 0D000000 		.4byte	.LVL47-1
 10750 0c98 2C000000 		.4byte	.LVL52
 10751 0c9c 0100     		.2byte	0x1
 10752 0c9e 55       		.byte	0x55
 10753 0c9f 2E000000 		.4byte	.LVL54
 10754 0ca3 48000000 		.4byte	.LFE6
 10755 0ca7 0100     		.2byte	0x1
 10756 0ca9 55       		.byte	0x55
 10757 0caa 00000000 		.4byte	0
 10758 0cae 00000000 		.4byte	0
 10759              	.LVUS5:
 10760 0cb2 00       		.uleb128 0
 10761 0cb3 00       		.uleb128 .LVU84
 10762 0cb4 00       		.uleb128 .LVU84
 10763 0cb5 00       		.uleb128 .LVU85
 10764 0cb6 00       		.uleb128 .LVU86
 10765 0cb7 00       		.uleb128 .LVU89
 10766 0cb8 00       		.uleb128 .LVU89
 10767 0cb9 00       		.uleb128 0
 10768              	.LLST5:
 10769 0cba 00000000 		.4byte	.LVL29
 10770 0cbe 12000000 		.4byte	.LVL31
 10771 0cc2 0100     		.2byte	0x1
 10772 0cc4 50       		.byte	0x50
 10773 0cc5 12000000 		.4byte	.LVL31
 10774 0cc9 14000000 		.4byte	.LVL32
 10775 0ccd 0100     		.2byte	0x1
 10776 0ccf 56       		.byte	0x56
 10777 0cd0 16000000 		.4byte	.LVL34
 10778 0cd4 19000000 		.4byte	.LVL35-1
 10779 0cd8 0100     		.2byte	0x1
 10780 0cda 50       		.byte	0x50
 10781 0cdb 19000000 		.4byte	.LVL35-1
 10782 0cdf 4C000000 		.4byte	.LFE5
 10783 0ce3 0100     		.2byte	0x1
 10784 0ce5 56       		.byte	0x56
ARM GAS  C:\Users\EDULU~1.DES\AppData\Local\Temp\ccxcKTgR.s 			page 246


 10785 0ce6 00000000 		.4byte	0
 10786 0cea 00000000 		.4byte	0
 10787              	.LVUS6:
 10788 0cee 00       		.uleb128 0
 10789 0cef 00       		.uleb128 .LVU84
 10790 0cf0 00       		.uleb128 .LVU84
 10791 0cf1 00       		.uleb128 .LVU86
 10792 0cf2 00       		.uleb128 .LVU86
 10793 0cf3 00       		.uleb128 .LVU89
 10794 0cf4 00       		.uleb128 .LVU89
 10795 0cf5 00       		.uleb128 0
 10796              	.LLST6:
 10797 0cf6 00000000 		.4byte	.LVL29
 10798 0cfa 12000000 		.4byte	.LVL31
 10799 0cfe 0100     		.2byte	0x1
 10800 0d00 51       		.byte	0x51
 10801 0d01 12000000 		.4byte	.LVL31
 10802 0d05 16000000 		.4byte	.LVL34
 10803 0d09 0400     		.2byte	0x4
 10804 0d0b F3       		.byte	0xf3
 10805 0d0c 01       		.uleb128 0x1
 10806 0d0d 51       		.byte	0x51
 10807 0d0e 9F       		.byte	0x9f
 10808 0d0f 16000000 		.4byte	.LVL34
 10809 0d13 19000000 		.4byte	.LVL35-1
 10810 0d17 0100     		.2byte	0x1
 10811 0d19 51       		.byte	0x51
 10812 0d1a 19000000 		.4byte	.LVL35-1
 10813 0d1e 4C000000 		.4byte	.LFE5
 10814 0d22 0400     		.2byte	0x4
 10815 0d24 F3       		.byte	0xf3
 10816 0d25 01       		.uleb128 0x1
 10817 0d26 51       		.byte	0x51
 10818 0d27 9F       		.byte	0x9f
 10819 0d28 00000000 		.4byte	0
 10820 0d2c 00000000 		.4byte	0
 10821              	.LVUS7:
 10822 0d30 00       		.uleb128 0
 10823 0d31 00       		.uleb128 .LVU84
 10824 0d32 00       		.uleb128 .LVU84
 10825 0d33 00       		.uleb128 .LVU85
 10826 0d34 00       		.uleb128 .LVU85
 10827 0d35 00       		.uleb128 .LVU86
 10828 0d36 00       		.uleb128 .LVU86
 10829 0d37 00       		.uleb128 .LVU89
 10830 0d38 00       		.uleb128 .LVU89
 10831 0d39 00       		.uleb128 0
 10832              	.LLST7:
 10833 0d3a 00000000 		.4byte	.LVL29
 10834 0d3e 12000000 		.4byte	.LVL31
 10835 0d42 0100     		.2byte	0x1
 10836 0d44 52       		.byte	0x52
 10837 0d45 12000000 		.4byte	.LVL31
 10838 0d49 14000000 		.4byte	.LVL33
 10839 0d4d 0100     		.2byte	0x1
 10840 0d4f 57       		.byte	0x57
 10841 0d50 14000000 		.4byte	.LVL33
ARM GAS  C:\Users\EDULU~1.DES\AppData\Local\Temp\ccxcKTgR.s 			page 247


 10842 0d54 16000000 		.4byte	.LVL34
 10843 0d58 0400     		.2byte	0x4
 10844 0d5a F3       		.byte	0xf3
 10845 0d5b 01       		.uleb128 0x1
 10846 0d5c 52       		.byte	0x52
 10847 0d5d 9F       		.byte	0x9f
 10848 0d5e 16000000 		.4byte	.LVL34
 10849 0d62 19000000 		.4byte	.LVL35-1
 10850 0d66 0100     		.2byte	0x1
 10851 0d68 52       		.byte	0x52
 10852 0d69 19000000 		.4byte	.LVL35-1
 10853 0d6d 4C000000 		.4byte	.LFE5
 10854 0d71 0100     		.2byte	0x1
 10855 0d73 57       		.byte	0x57
 10856 0d74 00000000 		.4byte	0
 10857 0d78 00000000 		.4byte	0
 10858              	.LVUS8:
 10859 0d7c 00       		.uleb128 .LVU95
 10860 0d7d 00       		.uleb128 .LVU103
 10861              	.LLST8:
 10862 0d7e 2C000000 		.4byte	.LVL38
 10863 0d82 3C000000 		.4byte	.LVL41
 10864 0d86 0100     		.2byte	0x1
 10865 0d88 54       		.byte	0x54
 10866 0d89 00000000 		.4byte	0
 10867 0d8d 00000000 		.4byte	0
 10868              	.LVUS9:
 10869 0d91 02       		.uleb128 .LVU78
 10870 0d92 00       		.uleb128 .LVU84
 10871 0d93 00       		.uleb128 .LVU86
 10872 0d94 00       		.uleb128 .LVU90
 10873 0d95 00       		.uleb128 .LVU90
 10874 0d96 00       		.uleb128 .LVU91
 10875 0d97 00       		.uleb128 .LVU91
 10876 0d98 00       		.uleb128 0
 10877              	.LLST9:
 10878 0d99 08000000 		.4byte	.LVL30
 10879 0d9d 12000000 		.4byte	.LVL31
 10880 0da1 0200     		.2byte	0x2
 10881 0da3 30       		.byte	0x30
 10882 0da4 9F       		.byte	0x9f
 10883 0da5 16000000 		.4byte	.LVL34
 10884 0da9 1C000000 		.4byte	.LVL36
 10885 0dad 0200     		.2byte	0x2
 10886 0daf 30       		.byte	0x30
 10887 0db0 9F       		.byte	0x9f
 10888 0db1 1C000000 		.4byte	.LVL36
 10889 0db5 1F000000 		.4byte	.LVL37-1
 10890 0db9 0100     		.2byte	0x1
 10891 0dbb 50       		.byte	0x50
 10892 0dbc 1F000000 		.4byte	.LVL37-1
 10893 0dc0 4C000000 		.4byte	.LFE5
 10894 0dc4 0100     		.2byte	0x1
 10895 0dc6 55       		.byte	0x55
 10896 0dc7 00000000 		.4byte	0
 10897 0dcb 00000000 		.4byte	0
 10898              	.LVUS39:
ARM GAS  C:\Users\EDULU~1.DES\AppData\Local\Temp\ccxcKTgR.s 			page 248


 10899 0dcf 00       		.uleb128 0
 10900 0dd0 01       		.uleb128 .LVU577
 10901 0dd1 01       		.uleb128 .LVU577
 10902 0dd2 00       		.uleb128 .LVU578
 10903 0dd3 00       		.uleb128 .LVU578
 10904 0dd4 00       		.uleb128 .LVU579
 10905 0dd5 00       		.uleb128 .LVU579
 10906 0dd6 00       		.uleb128 .LVU601
 10907 0dd7 00       		.uleb128 .LVU601
 10908 0dd8 00       		.uleb128 0
 10909              	.LLST39:
 10910 0dd9 00000000 		.4byte	.LVL165
 10911 0ddd 5A000000 		.4byte	.LVL173
 10912 0de1 0100     		.2byte	0x1
 10913 0de3 50       		.byte	0x50
 10914 0de4 5A000000 		.4byte	.LVL173
 10915 0de8 5C000000 		.4byte	.LVL174
 10916 0dec 0100     		.2byte	0x1
 10917 0dee 54       		.byte	0x54
 10918 0def 5C000000 		.4byte	.LVL174
 10919 0df3 62000000 		.4byte	.LVL175
 10920 0df7 0400     		.2byte	0x4
 10921 0df9 F3       		.byte	0xf3
 10922 0dfa 01       		.uleb128 0x1
 10923 0dfb 50       		.byte	0x50
 10924 0dfc 9F       		.byte	0x9f
 10925 0dfd 62000000 		.4byte	.LVL175
 10926 0e01 94000000 		.4byte	.LVL181
 10927 0e05 0100     		.2byte	0x1
 10928 0e07 50       		.byte	0x50
 10929 0e08 94000000 		.4byte	.LVL181
 10930 0e0c 94010000 		.4byte	.LFE4
 10931 0e10 0100     		.2byte	0x1
 10932 0e12 54       		.byte	0x54
 10933 0e13 00000000 		.4byte	0
 10934 0e17 00000000 		.4byte	0
 10935              	.LVUS40:
 10936 0e1b 00       		.uleb128 0
 10937 0e1c 01       		.uleb128 .LVU577
 10938 0e1d 01       		.uleb128 .LVU577
 10939 0e1e 00       		.uleb128 .LVU579
 10940 0e1f 00       		.uleb128 .LVU579
 10941 0e20 00       		.uleb128 .LVU602
 10942 0e21 00       		.uleb128 .LVU602
 10943 0e22 00       		.uleb128 0
 10944              	.LLST40:
 10945 0e23 00000000 		.4byte	.LVL165
 10946 0e27 5A000000 		.4byte	.LVL173
 10947 0e2b 0100     		.2byte	0x1
 10948 0e2d 51       		.byte	0x51
 10949 0e2e 5A000000 		.4byte	.LVL173
 10950 0e32 62000000 		.4byte	.LVL175
 10951 0e36 0200     		.2byte	0x2
 10952 0e38 91       		.byte	0x91
 10953 0e39 64       		.sleb128 -28
 10954 0e3a 62000000 		.4byte	.LVL175
 10955 0e3e 97000000 		.4byte	.LVL182-1
ARM GAS  C:\Users\EDULU~1.DES\AppData\Local\Temp\ccxcKTgR.s 			page 249


 10956 0e42 0100     		.2byte	0x1
 10957 0e44 51       		.byte	0x51
 10958 0e45 97000000 		.4byte	.LVL182-1
 10959 0e49 94010000 		.4byte	.LFE4
 10960 0e4d 0200     		.2byte	0x2
 10961 0e4f 91       		.byte	0x91
 10962 0e50 64       		.sleb128 -28
 10963 0e51 00000000 		.4byte	0
 10964 0e55 00000000 		.4byte	0
 10965              	.LVUS41:
 10966 0e59 00       		.uleb128 0
 10967 0e5a 00       		.uleb128 .LVU561
 10968 0e5b 00       		.uleb128 .LVU561
 10969 0e5c 00       		.uleb128 .LVU573
 10970 0e5d 00       		.uleb128 .LVU573
 10971 0e5e 00       		.uleb128 .LVU575
 10972 0e5f 00       		.uleb128 .LVU575
 10973 0e60 01       		.uleb128 .LVU577
 10974 0e61 01       		.uleb128 .LVU577
 10975 0e62 00       		.uleb128 .LVU579
 10976 0e63 00       		.uleb128 .LVU579
 10977 0e64 00       		.uleb128 .LVU581
 10978 0e65 00       		.uleb128 .LVU581
 10979 0e66 00       		.uleb128 .LVU583
 10980 0e67 00       		.uleb128 .LVU583
 10981 0e68 00       		.uleb128 .LVU585
 10982 0e69 00       		.uleb128 .LVU585
 10983 0e6a 00       		.uleb128 .LVU587
 10984 0e6b 00       		.uleb128 .LVU587
 10985 0e6c 00       		.uleb128 .LVU589
 10986 0e6d 00       		.uleb128 .LVU589
 10987 0e6e 00       		.uleb128 .LVU644
 10988 0e6f 00       		.uleb128 .LVU644
 10989 0e70 00       		.uleb128 .LVU658
 10990 0e71 00       		.uleb128 .LVU658
 10991 0e72 00       		.uleb128 .LVU670
 10992 0e73 00       		.uleb128 .LVU670
 10993 0e74 00       		.uleb128 0
 10994              	.LLST41:
 10995 0e75 00000000 		.4byte	.LVL165
 10996 0e79 34000000 		.4byte	.LVL170
 10997 0e7d 0100     		.2byte	0x1
 10998 0e7f 52       		.byte	0x52
 10999 0e80 34000000 		.4byte	.LVL170
 11000 0e84 54000000 		.4byte	.LVL171
 11001 0e88 0100     		.2byte	0x1
 11002 0e8a 55       		.byte	0x55
 11003 0e8b 54000000 		.4byte	.LVL171
 11004 0e8f 58000000 		.4byte	.LVL172
 11005 0e93 0100     		.2byte	0x1
 11006 0e95 52       		.byte	0x52
 11007 0e96 58000000 		.4byte	.LVL172
 11008 0e9a 5A000000 		.4byte	.LVL173
 11009 0e9e 0100     		.2byte	0x1
 11010 0ea0 55       		.byte	0x55
 11011 0ea1 5A000000 		.4byte	.LVL173
 11012 0ea5 62000000 		.4byte	.LVL175
ARM GAS  C:\Users\EDULU~1.DES\AppData\Local\Temp\ccxcKTgR.s 			page 250


 11013 0ea9 0400     		.2byte	0x4
 11014 0eab F3       		.byte	0xf3
 11015 0eac 01       		.uleb128 0x1
 11016 0ead 52       		.byte	0x52
 11017 0eae 9F       		.byte	0x9f
 11018 0eaf 62000000 		.4byte	.LVL175
 11019 0eb3 66000000 		.4byte	.LVL176
 11020 0eb7 0100     		.2byte	0x1
 11021 0eb9 52       		.byte	0x52
 11022 0eba 66000000 		.4byte	.LVL176
 11023 0ebe 6A000000 		.4byte	.LVL177
 11024 0ec2 0100     		.2byte	0x1
 11025 0ec4 55       		.byte	0x55
 11026 0ec5 6A000000 		.4byte	.LVL177
 11027 0ec9 6E000000 		.4byte	.LVL178
 11028 0ecd 0100     		.2byte	0x1
 11029 0ecf 52       		.byte	0x52
 11030 0ed0 6E000000 		.4byte	.LVL178
 11031 0ed4 72000000 		.4byte	.LVL179
 11032 0ed8 0100     		.2byte	0x1
 11033 0eda 55       		.byte	0x55
 11034 0edb 72000000 		.4byte	.LVL179
 11035 0edf 76000000 		.4byte	.LVL180
 11036 0ee3 0100     		.2byte	0x1
 11037 0ee5 52       		.byte	0x52
 11038 0ee6 76000000 		.4byte	.LVL180
 11039 0eea F8000000 		.4byte	.LVL190
 11040 0eee 0100     		.2byte	0x1
 11041 0ef0 55       		.byte	0x55
 11042 0ef1 F8000000 		.4byte	.LVL190
 11043 0ef5 2C010000 		.4byte	.LVL197
 11044 0ef9 0400     		.2byte	0x4
 11045 0efb F3       		.byte	0xf3
 11046 0efc 01       		.uleb128 0x1
 11047 0efd 52       		.byte	0x52
 11048 0efe 9F       		.byte	0x9f
 11049 0eff 2C010000 		.4byte	.LVL197
 11050 0f03 52010000 		.4byte	.LVL204
 11051 0f07 0100     		.2byte	0x1
 11052 0f09 55       		.byte	0x55
 11053 0f0a 52010000 		.4byte	.LVL204
 11054 0f0e 94010000 		.4byte	.LFE4
 11055 0f12 0400     		.2byte	0x4
 11056 0f14 F3       		.byte	0xf3
 11057 0f15 01       		.uleb128 0x1
 11058 0f16 52       		.byte	0x52
 11059 0f17 9F       		.byte	0x9f
 11060 0f18 00000000 		.4byte	0
 11061 0f1c 00000000 		.4byte	0
 11062              	.LVUS42:
 11063 0f20 00       		.uleb128 0
 11064 0f21 00       		.uleb128 .LVU541
 11065 0f22 00       		.uleb128 .LVU541
 11066 0f23 00       		.uleb128 .LVU542
 11067 0f24 00       		.uleb128 .LVU542
 11068 0f25 00       		.uleb128 0
 11069              	.LLST42:
ARM GAS  C:\Users\EDULU~1.DES\AppData\Local\Temp\ccxcKTgR.s 			page 251


 11070 0f26 00000000 		.4byte	.LVL165
 11071 0f2a 12000000 		.4byte	.LVL166
 11072 0f2e 0100     		.2byte	0x1
 11073 0f30 53       		.byte	0x53
 11074 0f31 12000000 		.4byte	.LVL166
 11075 0f35 16000000 		.4byte	.LVL167
 11076 0f39 0200     		.2byte	0x2
 11077 0f3b 73       		.byte	0x73
 11078 0f3c 60       		.sleb128 -32
 11079 0f3d 16000000 		.4byte	.LVL167
 11080 0f41 94010000 		.4byte	.LFE4
 11081 0f45 0200     		.2byte	0x2
 11082 0f47 91       		.byte	0x91
 11083 0f48 60       		.sleb128 -32
 11084 0f49 00000000 		.4byte	0
 11085 0f4d 00000000 		.4byte	0
 11086              	.LVUS43:
 11087 0f51 00       		.uleb128 0
 11088 0f52 00       		.uleb128 .LVU541
 11089 0f53 00       		.uleb128 .LVU541
 11090 0f54 00       		.uleb128 .LVU542
 11091 0f55 00       		.uleb128 .LVU542
 11092 0f56 00       		.uleb128 0
 11093              	.LLST43:
 11094 0f57 00000000 		.4byte	.LVL165
 11095 0f5b 12000000 		.4byte	.LVL166
 11096 0f5f 0200     		.2byte	0x2
 11097 0f61 91       		.byte	0x91
 11098 0f62 00       		.sleb128 0
 11099 0f63 12000000 		.4byte	.LVL166
 11100 0f67 16000000 		.4byte	.LVL167
 11101 0f6b 0200     		.2byte	0x2
 11102 0f6d 73       		.byte	0x73
 11103 0f6e 00       		.sleb128 0
 11104 0f6f 16000000 		.4byte	.LVL167
 11105 0f73 94010000 		.4byte	.LFE4
 11106 0f77 0200     		.2byte	0x2
 11107 0f79 91       		.byte	0x91
 11108 0f7a 00       		.sleb128 0
 11109 0f7b 00000000 		.4byte	0
 11110 0f7f 00000000 		.4byte	0
 11111              	.LVUS44:
 11112 0f83 00       		.uleb128 0
 11113 0f84 00       		.uleb128 .LVU541
 11114 0f85 00       		.uleb128 .LVU541
 11115 0f86 00       		.uleb128 .LVU542
 11116 0f87 00       		.uleb128 .LVU542
 11117 0f88 00       		.uleb128 0
 11118              	.LLST44:
 11119 0f89 00000000 		.4byte	.LVL165
 11120 0f8d 12000000 		.4byte	.LVL166
 11121 0f91 0200     		.2byte	0x2
 11122 0f93 91       		.byte	0x91
 11123 0f94 04       		.sleb128 4
 11124 0f95 12000000 		.4byte	.LVL166
 11125 0f99 16000000 		.4byte	.LVL167
 11126 0f9d 0200     		.2byte	0x2
ARM GAS  C:\Users\EDULU~1.DES\AppData\Local\Temp\ccxcKTgR.s 			page 252


 11127 0f9f 73       		.byte	0x73
 11128 0fa0 04       		.sleb128 4
 11129 0fa1 16000000 		.4byte	.LVL167
 11130 0fa5 94010000 		.4byte	.LFE4
 11131 0fa9 0200     		.2byte	0x2
 11132 0fab 91       		.byte	0x91
 11133 0fac 04       		.sleb128 4
 11134 0fad 00000000 		.4byte	0
 11135 0fb1 00000000 		.4byte	0
 11136              	.LVUS45:
 11137 0fb5 00       		.uleb128 0
 11138 0fb6 00       		.uleb128 .LVU541
 11139 0fb7 00       		.uleb128 .LVU541
 11140 0fb8 00       		.uleb128 .LVU542
 11141 0fb9 00       		.uleb128 .LVU542
 11142 0fba 00       		.uleb128 0
 11143              	.LLST45:
 11144 0fbb 00000000 		.4byte	.LVL165
 11145 0fbf 12000000 		.4byte	.LVL166
 11146 0fc3 0200     		.2byte	0x2
 11147 0fc5 91       		.byte	0x91
 11148 0fc6 08       		.sleb128 8
 11149 0fc7 12000000 		.4byte	.LVL166
 11150 0fcb 16000000 		.4byte	.LVL167
 11151 0fcf 0200     		.2byte	0x2
 11152 0fd1 73       		.byte	0x73
 11153 0fd2 08       		.sleb128 8
 11154 0fd3 16000000 		.4byte	.LVL167
 11155 0fd7 94010000 		.4byte	.LFE4
 11156 0fdb 0200     		.2byte	0x2
 11157 0fdd 91       		.byte	0x91
 11158 0fde 08       		.sleb128 8
 11159 0fdf 00000000 		.4byte	0
 11160 0fe3 00000000 		.4byte	0
 11161              	.LVUS46:
 11162 0fe7 00       		.uleb128 0
 11163 0fe8 00       		.uleb128 .LVU541
 11164 0fe9 00       		.uleb128 .LVU541
 11165 0fea 00       		.uleb128 .LVU542
 11166 0feb 00       		.uleb128 .LVU542
 11167 0fec 00       		.uleb128 0
 11168              	.LLST46:
 11169 0fed 00000000 		.4byte	.LVL165
 11170 0ff1 12000000 		.4byte	.LVL166
 11171 0ff5 0200     		.2byte	0x2
 11172 0ff7 91       		.byte	0x91
 11173 0ff8 0C       		.sleb128 12
 11174 0ff9 12000000 		.4byte	.LVL166
 11175 0ffd 16000000 		.4byte	.LVL167
 11176 1001 0200     		.2byte	0x2
 11177 1003 73       		.byte	0x73
 11178 1004 0C       		.sleb128 12
 11179 1005 16000000 		.4byte	.LVL167
 11180 1009 94010000 		.4byte	.LFE4
 11181 100d 0200     		.2byte	0x2
 11182 100f 91       		.byte	0x91
 11183 1010 0C       		.sleb128 12
ARM GAS  C:\Users\EDULU~1.DES\AppData\Local\Temp\ccxcKTgR.s 			page 253


 11184 1011 00000000 		.4byte	0
 11185 1015 00000000 		.4byte	0
 11186              	.LVUS47:
 11187 1019 00       		.uleb128 0
 11188 101a 00       		.uleb128 .LVU541
 11189 101b 00       		.uleb128 .LVU541
 11190 101c 00       		.uleb128 .LVU542
 11191 101d 00       		.uleb128 .LVU542
 11192 101e 00       		.uleb128 0
 11193              	.LLST47:
 11194 101f 00000000 		.4byte	.LVL165
 11195 1023 12000000 		.4byte	.LVL166
 11196 1027 0200     		.2byte	0x2
 11197 1029 91       		.byte	0x91
 11198 102a 10       		.sleb128 16
 11199 102b 12000000 		.4byte	.LVL166
 11200 102f 16000000 		.4byte	.LVL167
 11201 1033 0200     		.2byte	0x2
 11202 1035 73       		.byte	0x73
 11203 1036 10       		.sleb128 16
 11204 1037 16000000 		.4byte	.LVL167
 11205 103b 94010000 		.4byte	.LFE4
 11206 103f 0200     		.2byte	0x2
 11207 1041 91       		.byte	0x91
 11208 1042 10       		.sleb128 16
 11209 1043 00000000 		.4byte	0
 11210 1047 00000000 		.4byte	0
 11211              	.LVUS48:
 11212 104b 00       		.uleb128 0
 11213 104c 00       		.uleb128 .LVU541
 11214 104d 00       		.uleb128 .LVU541
 11215 104e 00       		.uleb128 .LVU542
 11216 104f 00       		.uleb128 .LVU542
 11217 1050 00       		.uleb128 0
 11218              	.LLST48:
 11219 1051 00000000 		.4byte	.LVL165
 11220 1055 12000000 		.4byte	.LVL166
 11221 1059 0200     		.2byte	0x2
 11222 105b 91       		.byte	0x91
 11223 105c 14       		.sleb128 20
 11224 105d 12000000 		.4byte	.LVL166
 11225 1061 16000000 		.4byte	.LVL167
 11226 1065 0200     		.2byte	0x2
 11227 1067 73       		.byte	0x73
 11228 1068 14       		.sleb128 20
 11229 1069 16000000 		.4byte	.LVL167
 11230 106d 94010000 		.4byte	.LFE4
 11231 1071 0200     		.2byte	0x2
 11232 1073 91       		.byte	0x91
 11233 1074 14       		.sleb128 20
 11234 1075 00000000 		.4byte	0
 11235 1079 00000000 		.4byte	0
 11236              	.LVUS49:
 11237 107d 00       		.uleb128 0
 11238 107e 00       		.uleb128 .LVU541
 11239 107f 00       		.uleb128 .LVU541
 11240 1080 00       		.uleb128 .LVU542
ARM GAS  C:\Users\EDULU~1.DES\AppData\Local\Temp\ccxcKTgR.s 			page 254


 11241 1081 00       		.uleb128 .LVU542
 11242 1082 00       		.uleb128 0
 11243              	.LLST49:
 11244 1083 00000000 		.4byte	.LVL165
 11245 1087 12000000 		.4byte	.LVL166
 11246 108b 0200     		.2byte	0x2
 11247 108d 91       		.byte	0x91
 11248 108e 18       		.sleb128 24
 11249 108f 12000000 		.4byte	.LVL166
 11250 1093 16000000 		.4byte	.LVL167
 11251 1097 0200     		.2byte	0x2
 11252 1099 73       		.byte	0x73
 11253 109a 18       		.sleb128 24
 11254 109b 16000000 		.4byte	.LVL167
 11255 109f 94010000 		.4byte	.LFE4
 11256 10a3 0200     		.2byte	0x2
 11257 10a5 91       		.byte	0x91
 11258 10a6 18       		.sleb128 24
 11259 10a7 00000000 		.4byte	0
 11260 10ab 00000000 		.4byte	0
 11261              	.LVUS50:
 11262 10af 00       		.uleb128 0
 11263 10b0 00       		.uleb128 .LVU541
 11264 10b1 00       		.uleb128 .LVU541
 11265 10b2 00       		.uleb128 .LVU542
 11266 10b3 00       		.uleb128 .LVU542
 11267 10b4 00       		.uleb128 .LVU550
 11268 10b5 00       		.uleb128 .LVU550
 11269 10b6 00       		.uleb128 0
 11270              	.LLST50:
 11271 10b7 00000000 		.4byte	.LVL165
 11272 10bb 12000000 		.4byte	.LVL166
 11273 10bf 0200     		.2byte	0x2
 11274 10c1 91       		.byte	0x91
 11275 10c2 1C       		.sleb128 28
 11276 10c3 12000000 		.4byte	.LVL166
 11277 10c7 16000000 		.4byte	.LVL167
 11278 10cb 0200     		.2byte	0x2
 11279 10cd 73       		.byte	0x73
 11280 10ce 1C       		.sleb128 28
 11281 10cf 16000000 		.4byte	.LVL167
 11282 10d3 1A000000 		.4byte	.LVL169
 11283 10d7 0200     		.2byte	0x2
 11284 10d9 73       		.byte	0x73
 11285 10da 00       		.sleb128 0
 11286 10db 1A000000 		.4byte	.LVL169
 11287 10df 94010000 		.4byte	.LFE4
 11288 10e3 0200     		.2byte	0x2
 11289 10e5 91       		.byte	0x91
 11290 10e6 1C       		.sleb128 28
 11291 10e7 00000000 		.4byte	0
 11292 10eb 00000000 		.4byte	0
 11293              	.LVUS51:
 11294 10ef 00       		.uleb128 0
 11295 10f0 00       		.uleb128 .LVU541
 11296 10f1 00       		.uleb128 .LVU541
 11297 10f2 00       		.uleb128 .LVU542
ARM GAS  C:\Users\EDULU~1.DES\AppData\Local\Temp\ccxcKTgR.s 			page 255


 11298 10f3 00       		.uleb128 .LVU542
 11299 10f4 00       		.uleb128 0
 11300              	.LLST51:
 11301 10f5 00000000 		.4byte	.LVL165
 11302 10f9 12000000 		.4byte	.LVL166
 11303 10fd 0200     		.2byte	0x2
 11304 10ff 91       		.byte	0x91
 11305 1100 20       		.sleb128 32
 11306 1101 12000000 		.4byte	.LVL166
 11307 1105 16000000 		.4byte	.LVL167
 11308 1109 0200     		.2byte	0x2
 11309 110b 73       		.byte	0x73
 11310 110c 20       		.sleb128 32
 11311 110d 16000000 		.4byte	.LVL167
 11312 1111 94010000 		.4byte	.LFE4
 11313 1115 0200     		.2byte	0x2
 11314 1117 91       		.byte	0x91
 11315 1118 20       		.sleb128 32
 11316 1119 00000000 		.4byte	0
 11317 111d 00000000 		.4byte	0
 11318              	.LVUS52:
 11319 1121 00       		.uleb128 .LVU658
 11320 1122 00       		.uleb128 .LVU663
 11321              	.LLST52:
 11322 1123 2C010000 		.4byte	.LVL197
 11323 1127 3A010000 		.4byte	.LVL200
 11324 112b 0100     		.2byte	0x1
 11325 112d 53       		.byte	0x53
 11326 112e 00000000 		.4byte	0
 11327 1132 00000000 		.4byte	0
 11328              	.LVUS53:
 11329 1136 01       		.uleb128 .LVU636
 11330 1137 00       		.uleb128 .LVU637
 11331 1138 00       		.uleb128 .LVU637
 11332 1139 00       		.uleb128 .LVU641
 11333 113a 00       		.uleb128 .LVU665
 11334 113b 00       		.uleb128 .LVU668
 11335 113c 00       		.uleb128 .LVU669
 11336 113d 00       		.uleb128 .LVU670
 11337              	.LLST53:
 11338 113e E6000000 		.4byte	.LVL185
 11339 1142 E8000000 		.4byte	.LVL186
 11340 1146 0200     		.2byte	0x2
 11341 1148 30       		.byte	0x30
 11342 1149 9F       		.byte	0x9f
 11343 114a E8000000 		.4byte	.LVL186
 11344 114e F1000000 		.4byte	.LVL188-1
 11345 1152 0100     		.2byte	0x1
 11346 1154 53       		.byte	0x53
 11347 1155 40010000 		.4byte	.LVL201
 11348 1159 4E010000 		.4byte	.LVL202
 11349 115d 0100     		.2byte	0x1
 11350 115f 53       		.byte	0x53
 11351 1160 50010000 		.4byte	.LVL203
 11352 1164 52010000 		.4byte	.LVL204
 11353 1168 0100     		.2byte	0x1
 11354 116a 53       		.byte	0x53
ARM GAS  C:\Users\EDULU~1.DES\AppData\Local\Temp\ccxcKTgR.s 			page 256


 11355 116b 00000000 		.4byte	0
 11356 116f 00000000 		.4byte	0
 11357              	.LVUS54:
 11358 1173 00       		.uleb128 .LVU613
 11359 1174 00       		.uleb128 .LVU640
 11360 1175 00       		.uleb128 .LVU658
 11361 1176 00       		.uleb128 .LVU660
 11362 1177 00       		.uleb128 .LVU660
 11363 1178 01       		.uleb128 .LVU661
 11364 1179 01       		.uleb128 .LVU661
 11365 117a 00       		.uleb128 .LVU663
 11366 117b 00       		.uleb128 .LVU665
 11367 117c 00       		.uleb128 .LVU670
 11368              	.LLST54:
 11369 117d C0000000 		.4byte	.LVL184
 11370 1181 EE000000 		.4byte	.LVL187
 11371 1185 0100     		.2byte	0x1
 11372 1187 50       		.byte	0x50
 11373 1188 2C010000 		.4byte	.LVL197
 11374 118c 30010000 		.4byte	.LVL198
 11375 1190 0100     		.2byte	0x1
 11376 1192 52       		.byte	0x52
 11377 1193 30010000 		.4byte	.LVL198
 11378 1197 30010000 		.4byte	.LVL198
 11379 119b 0300     		.2byte	0x3
 11380 119d 72       		.byte	0x72
 11381 119e 7C       		.sleb128 -4
 11382 119f 9F       		.byte	0x9f
 11383 11a0 30010000 		.4byte	.LVL198
 11384 11a4 3A010000 		.4byte	.LVL200
 11385 11a8 0100     		.2byte	0x1
 11386 11aa 52       		.byte	0x52
 11387 11ab 40010000 		.4byte	.LVL201
 11388 11af 52010000 		.4byte	.LVL204
 11389 11b3 0100     		.2byte	0x1
 11390 11b5 50       		.byte	0x50
 11391 11b6 00000000 		.4byte	0
 11392 11ba 00000000 		.4byte	0
 11393              	.LVUS55:
 11394 11be 00       		.uleb128 .LVU611
 11395 11bf 00       		.uleb128 .LVU658
 11396 11c0 00       		.uleb128 .LVU665
 11397 11c1 00       		.uleb128 0
 11398              	.LLST55:
 11399 11c2 B0000000 		.4byte	.LVL183
 11400 11c6 2C010000 		.4byte	.LVL197
 11401 11ca 0100     		.2byte	0x1
 11402 11cc 5A       		.byte	0x5a
 11403 11cd 40010000 		.4byte	.LVL201
 11404 11d1 94010000 		.4byte	.LFE4
 11405 11d5 0100     		.2byte	0x1
 11406 11d7 5A       		.byte	0x5a
 11407 11d8 00000000 		.4byte	0
 11408 11dc 00000000 		.4byte	0
 11409              	.LVUS56:
 11410 11e0 05       		.uleb128 .LVU548
 11411 11e1 01       		.uleb128 .LVU577
ARM GAS  C:\Users\EDULU~1.DES\AppData\Local\Temp\ccxcKTgR.s 			page 257


 11412 11e2 00       		.uleb128 .LVU579
 11413 11e3 00       		.uleb128 .LVU644
 11414 11e4 00       		.uleb128 .LVU644
 11415 11e5 00       		.uleb128 .LVU645
 11416 11e6 00       		.uleb128 .LVU645
 11417 11e7 00       		.uleb128 .LVU658
 11418 11e8 00       		.uleb128 .LVU658
 11419 11e9 00       		.uleb128 .LVU670
 11420 11ea 00       		.uleb128 .LVU670
 11421 11eb 00       		.uleb128 0
 11422              	.LLST56:
 11423 11ec 18000000 		.4byte	.LVL168
 11424 11f0 5A000000 		.4byte	.LVL173
 11425 11f4 0200     		.2byte	0x2
 11426 11f6 30       		.byte	0x30
 11427 11f7 9F       		.byte	0x9f
 11428 11f8 62000000 		.4byte	.LVL175
 11429 11fc F8000000 		.4byte	.LVL190
 11430 1200 0200     		.2byte	0x2
 11431 1202 30       		.byte	0x30
 11432 1203 9F       		.byte	0x9f
 11433 1204 F8000000 		.4byte	.LVL190
 11434 1208 FB000000 		.4byte	.LVL191-1
 11435 120c 0100     		.2byte	0x1
 11436 120e 50       		.byte	0x50
 11437 120f FB000000 		.4byte	.LVL191-1
 11438 1213 2C010000 		.4byte	.LVL197
 11439 1217 0100     		.2byte	0x1
 11440 1219 55       		.byte	0x55
 11441 121a 2C010000 		.4byte	.LVL197
 11442 121e 52010000 		.4byte	.LVL204
 11443 1222 0200     		.2byte	0x2
 11444 1224 30       		.byte	0x30
 11445 1225 9F       		.byte	0x9f
 11446 1226 52010000 		.4byte	.LVL204
 11447 122a 94010000 		.4byte	.LFE4
 11448 122e 0100     		.2byte	0x1
 11449 1230 55       		.byte	0x55
 11450 1231 00000000 		.4byte	0
 11451 1235 00000000 		.4byte	0
 11452              	.LVUS0:
 11453 1239 00       		.uleb128 0
 11454 123a 00       		.uleb128 .LVU12
 11455 123b 00       		.uleb128 .LVU12
 11456 123c 00       		.uleb128 .LVU20
 11457 123d 00       		.uleb128 .LVU20
 11458 123e 01       		.uleb128 .LVU23
 11459 123f 01       		.uleb128 .LVU23
 11460 1240 00       		.uleb128 .LVU24
 11461 1241 00       		.uleb128 .LVU25
 11462 1242 00       		.uleb128 .LVU31
 11463 1243 00       		.uleb128 .LVU31
 11464 1244 00       		.uleb128 0
 11465              	.LLST0:
 11466 1245 00000000 		.4byte	.LVL0
 11467 1249 1C000000 		.4byte	.LVL2
 11468 124d 0100     		.2byte	0x1
ARM GAS  C:\Users\EDULU~1.DES\AppData\Local\Temp\ccxcKTgR.s 			page 258


 11469 124f 50       		.byte	0x50
 11470 1250 1C000000 		.4byte	.LVL2
 11471 1254 36000000 		.4byte	.LVL6
 11472 1258 0100     		.2byte	0x1
 11473 125a 54       		.byte	0x54
 11474 125b 36000000 		.4byte	.LVL6
 11475 125f 3A000000 		.4byte	.LVL7
 11476 1263 0100     		.2byte	0x1
 11477 1265 50       		.byte	0x50
 11478 1266 3A000000 		.4byte	.LVL7
 11479 126a 3C000000 		.4byte	.LVL8
 11480 126e 0100     		.2byte	0x1
 11481 1270 54       		.byte	0x54
 11482 1271 3E000000 		.4byte	.LVL10
 11483 1275 47000000 		.4byte	.LVL11-1
 11484 1279 0100     		.2byte	0x1
 11485 127b 50       		.byte	0x50
 11486 127c 47000000 		.4byte	.LVL11-1
 11487 1280 E8000000 		.4byte	.LFE3
 11488 1284 0100     		.2byte	0x1
 11489 1286 54       		.byte	0x54
 11490 1287 00000000 		.4byte	0
 11491 128b 00000000 		.4byte	0
 11492              	.LVUS1:
 11493 128f 00       		.uleb128 0
 11494 1290 00       		.uleb128 .LVU12
 11495 1291 00       		.uleb128 .LVU12
 11496 1292 00       		.uleb128 .LVU20
 11497 1293 00       		.uleb128 .LVU20
 11498 1294 01       		.uleb128 .LVU23
 11499 1295 01       		.uleb128 .LVU23
 11500 1296 00       		.uleb128 .LVU25
 11501 1297 00       		.uleb128 .LVU25
 11502 1298 00       		.uleb128 .LVU31
 11503 1299 00       		.uleb128 .LVU31
 11504 129a 00       		.uleb128 0
 11505              	.LLST1:
 11506 129b 00000000 		.4byte	.LVL0
 11507 129f 1C000000 		.4byte	.LVL2
 11508 12a3 0100     		.2byte	0x1
 11509 12a5 51       		.byte	0x51
 11510 12a6 1C000000 		.4byte	.LVL2
 11511 12aa 36000000 		.4byte	.LVL6
 11512 12ae 0400     		.2byte	0x4
 11513 12b0 F3       		.byte	0xf3
 11514 12b1 01       		.uleb128 0x1
 11515 12b2 51       		.byte	0x51
 11516 12b3 9F       		.byte	0x9f
 11517 12b4 36000000 		.4byte	.LVL6
 11518 12b8 3A000000 		.4byte	.LVL7
 11519 12bc 0100     		.2byte	0x1
 11520 12be 51       		.byte	0x51
 11521 12bf 3A000000 		.4byte	.LVL7
 11522 12c3 3E000000 		.4byte	.LVL10
 11523 12c7 0400     		.2byte	0x4
 11524 12c9 F3       		.byte	0xf3
 11525 12ca 01       		.uleb128 0x1
ARM GAS  C:\Users\EDULU~1.DES\AppData\Local\Temp\ccxcKTgR.s 			page 259


 11526 12cb 51       		.byte	0x51
 11527 12cc 9F       		.byte	0x9f
 11528 12cd 3E000000 		.4byte	.LVL10
 11529 12d1 47000000 		.4byte	.LVL11-1
 11530 12d5 0100     		.2byte	0x1
 11531 12d7 51       		.byte	0x51
 11532 12d8 47000000 		.4byte	.LVL11-1
 11533 12dc E8000000 		.4byte	.LFE3
 11534 12e0 0400     		.2byte	0x4
 11535 12e2 F3       		.byte	0xf3
 11536 12e3 01       		.uleb128 0x1
 11537 12e4 51       		.byte	0x51
 11538 12e5 9F       		.byte	0x9f
 11539 12e6 00000000 		.4byte	0
 11540 12ea 00000000 		.4byte	0
 11541              	.LVUS2:
 11542 12ee 00       		.uleb128 0
 11543 12ef 00       		.uleb128 .LVU12
 11544 12f0 00       		.uleb128 .LVU12
 11545 12f1 00       		.uleb128 .LVU20
 11546 12f2 00       		.uleb128 .LVU20
 11547 12f3 01       		.uleb128 .LVU23
 11548 12f4 01       		.uleb128 .LVU23
 11549 12f5 00       		.uleb128 .LVU24
 11550 12f6 00       		.uleb128 .LVU24
 11551 12f7 00       		.uleb128 .LVU25
 11552 12f8 00       		.uleb128 .LVU25
 11553 12f9 00       		.uleb128 .LVU31
 11554 12fa 00       		.uleb128 .LVU31
 11555 12fb 00       		.uleb128 0
 11556              	.LLST2:
 11557 12fc 00000000 		.4byte	.LVL0
 11558 1300 1C000000 		.4byte	.LVL2
 11559 1304 0100     		.2byte	0x1
 11560 1306 52       		.byte	0x52
 11561 1307 1C000000 		.4byte	.LVL2
 11562 130b 36000000 		.4byte	.LVL6
 11563 130f 0100     		.2byte	0x1
 11564 1311 56       		.byte	0x56
 11565 1312 36000000 		.4byte	.LVL6
 11566 1316 3A000000 		.4byte	.LVL7
 11567 131a 0100     		.2byte	0x1
 11568 131c 52       		.byte	0x52
 11569 131d 3A000000 		.4byte	.LVL7
 11570 1321 3C000000 		.4byte	.LVL9
 11571 1325 0100     		.2byte	0x1
 11572 1327 56       		.byte	0x56
 11573 1328 3C000000 		.4byte	.LVL9
 11574 132c 3E000000 		.4byte	.LVL10
 11575 1330 0400     		.2byte	0x4
 11576 1332 F3       		.byte	0xf3
 11577 1333 01       		.uleb128 0x1
 11578 1334 52       		.byte	0x52
 11579 1335 9F       		.byte	0x9f
 11580 1336 3E000000 		.4byte	.LVL10
 11581 133a 47000000 		.4byte	.LVL11-1
 11582 133e 0100     		.2byte	0x1
ARM GAS  C:\Users\EDULU~1.DES\AppData\Local\Temp\ccxcKTgR.s 			page 260


 11583 1340 52       		.byte	0x52
 11584 1341 47000000 		.4byte	.LVL11-1
 11585 1345 E8000000 		.4byte	.LFE3
 11586 1349 0100     		.2byte	0x1
 11587 134b 56       		.byte	0x56
 11588 134c 00000000 		.4byte	0
 11589 1350 00000000 		.4byte	0
 11590              	.LVUS3:
 11591 1354 00       		.uleb128 .LVU12
 11592 1355 00       		.uleb128 .LVU20
 11593 1356 01       		.uleb128 .LVU40
 11594 1357 00       		.uleb128 .LVU42
 11595 1358 00       		.uleb128 .LVU42
 11596 1359 00       		.uleb128 0
 11597              	.LLST3:
 11598 135a 1C000000 		.4byte	.LVL2
 11599 135e 36000000 		.4byte	.LVL6
 11600 1362 0100     		.2byte	0x1
 11601 1364 57       		.byte	0x57
 11602 1365 5C000000 		.4byte	.LVL16
 11603 1369 60000000 		.4byte	.LVL18
 11604 136d 0200     		.2byte	0x2
 11605 136f 31       		.byte	0x31
 11606 1370 9F       		.byte	0x9f
 11607 1371 60000000 		.4byte	.LVL18
 11608 1375 E8000000 		.4byte	.LFE3
 11609 1379 0100     		.2byte	0x1
 11610 137b 57       		.byte	0x57
 11611 137c 00000000 		.4byte	0
 11612 1380 00000000 		.4byte	0
 11613              	.LVUS4:
 11614 1384 02       		.uleb128 .LVU4
 11615 1385 00       		.uleb128 .LVU12
 11616 1386 00       		.uleb128 .LVU15
 11617 1387 00       		.uleb128 .LVU16
 11618 1388 00       		.uleb128 .LVU16
 11619 1389 00       		.uleb128 .LVU20
 11620 138a 00       		.uleb128 .LVU20
 11621 138b 01       		.uleb128 .LVU23
 11622 138c 00       		.uleb128 .LVU25
 11623 138d 00       		.uleb128 .LVU32
 11624 138e 00       		.uleb128 .LVU32
 11625 138f 00       		.uleb128 .LVU33
 11626 1390 00       		.uleb128 .LVU33
 11627 1391 00       		.uleb128 .LVU41
 11628 1392 00       		.uleb128 .LVU42
 11629 1393 00       		.uleb128 0
 11630              	.LLST4:
 11631 1394 0A000000 		.4byte	.LVL1
 11632 1398 1C000000 		.4byte	.LVL2
 11633 139c 0200     		.2byte	0x2
 11634 139e 30       		.byte	0x30
 11635 139f 9F       		.byte	0x9f
 11636 13a0 22000000 		.4byte	.LVL4
 11637 13a4 25000000 		.4byte	.LVL5-1
 11638 13a8 0100     		.2byte	0x1
 11639 13aa 50       		.byte	0x50
ARM GAS  C:\Users\EDULU~1.DES\AppData\Local\Temp\ccxcKTgR.s 			page 261


 11640 13ab 25000000 		.4byte	.LVL5-1
 11641 13af 36000000 		.4byte	.LVL6
 11642 13b3 0200     		.2byte	0x2
 11643 13b5 91       		.byte	0x91
 11644 13b6 64       		.sleb128 -28
 11645 13b7 36000000 		.4byte	.LVL6
 11646 13bb 3A000000 		.4byte	.LVL7
 11647 13bf 0200     		.2byte	0x2
 11648 13c1 30       		.byte	0x30
 11649 13c2 9F       		.byte	0x9f
 11650 13c3 3E000000 		.4byte	.LVL10
 11651 13c7 4A000000 		.4byte	.LVL12
 11652 13cb 0200     		.2byte	0x2
 11653 13cd 30       		.byte	0x30
 11654 13ce 9F       		.byte	0x9f
 11655 13cf 4A000000 		.4byte	.LVL12
 11656 13d3 4D000000 		.4byte	.LVL13-1
 11657 13d7 0100     		.2byte	0x1
 11658 13d9 50       		.byte	0x50
 11659 13da 4D000000 		.4byte	.LVL13-1
 11660 13de 5E000000 		.4byte	.LVL17
 11661 13e2 0100     		.2byte	0x1
 11662 13e4 57       		.byte	0x57
 11663 13e5 60000000 		.4byte	.LVL18
 11664 13e9 E8000000 		.4byte	.LFE3
 11665 13ed 0200     		.2byte	0x2
 11666 13ef 91       		.byte	0x91
 11667 13f0 64       		.sleb128 -28
 11668 13f1 00000000 		.4byte	0
 11669 13f5 00000000 		.4byte	0
 11670              		.section	.debug_aranges,"",%progbits
 11671 0000 AC000000 		.4byte	0xac
 11672 0004 0200     		.2byte	0x2
 11673 0006 00000000 		.4byte	.Ldebug_info0
 11674 000a 04       		.byte	0x4
 11675 000b 00       		.byte	0
 11676 000c 0000     		.2byte	0
 11677 000e 0000     		.2byte	0
 11678 0010 00000000 		.4byte	.LFB3
 11679 0014 E8000000 		.4byte	.LFE3-.LFB3
 11680 0018 00000000 		.4byte	.LFB5
 11681 001c 4C000000 		.4byte	.LFE5-.LFB5
 11682 0020 00000000 		.4byte	.LFB6
 11683 0024 48000000 		.4byte	.LFE6-.LFB6
 11684 0028 00000000 		.4byte	.LFB7
 11685 002c 4C000000 		.4byte	.LFE7-.LFB7
 11686 0030 00000000 		.4byte	.LFB9
 11687 0034 3C010000 		.4byte	.LFE9-.LFB9
 11688 0038 00000000 		.4byte	.LFB11
 11689 003c 54000000 		.4byte	.LFE11-.LFB11
 11690 0040 00000000 		.4byte	.LFB12
 11691 0044 BC000000 		.4byte	.LFE12-.LFB12
 11692 0048 00000000 		.4byte	.LFB14
 11693 004c 20000000 		.4byte	.LFE14-.LFB14
 11694 0050 00000000 		.4byte	.LFB15
 11695 0054 34000000 		.4byte	.LFE15-.LFB15
 11696 0058 00000000 		.4byte	.LFB16
ARM GAS  C:\Users\EDULU~1.DES\AppData\Local\Temp\ccxcKTgR.s 			page 262


 11697 005c 20000000 		.4byte	.LFE16-.LFB16
 11698 0060 00000000 		.4byte	.LFB17
 11699 0064 80000000 		.4byte	.LFE17-.LFB17
 11700 0068 00000000 		.4byte	.LFB4
 11701 006c 94010000 		.4byte	.LFE4-.LFB4
 11702 0070 00000000 		.4byte	.LFB18
 11703 0074 DC000000 		.4byte	.LFE18-.LFB18
 11704 0078 00000000 		.4byte	.LFB8
 11705 007c 60000000 		.4byte	.LFE8-.LFB8
 11706 0080 00000000 		.4byte	.LFB19
 11707 0084 24000000 		.4byte	.LFE19-.LFB19
 11708 0088 00000000 		.4byte	.LFB20
 11709 008c E0000000 		.4byte	.LFE20-.LFB20
 11710 0090 00000000 		.4byte	.LFB10
 11711 0094 34000000 		.4byte	.LFE10-.LFB10
 11712 0098 00000000 		.4byte	.LFB21
 11713 009c F0000000 		.4byte	.LFE21-.LFB21
 11714 00a0 00000000 		.4byte	.LFB13
 11715 00a4 34000000 		.4byte	.LFE13-.LFB13
 11716 00a8 00000000 		.4byte	0
 11717 00ac 00000000 		.4byte	0
 11718              		.section	.debug_ranges,"",%progbits
 11719              	.Ldebug_ranges0:
 11720 0000 00000000 		.4byte	.LFB3
 11721 0004 E8000000 		.4byte	.LFE3
 11722 0008 00000000 		.4byte	.LFB5
 11723 000c 4C000000 		.4byte	.LFE5
 11724 0010 00000000 		.4byte	.LFB6
 11725 0014 48000000 		.4byte	.LFE6
 11726 0018 00000000 		.4byte	.LFB7
 11727 001c 4C000000 		.4byte	.LFE7
 11728 0020 00000000 		.4byte	.LFB9
 11729 0024 3C010000 		.4byte	.LFE9
 11730 0028 00000000 		.4byte	.LFB11
 11731 002c 54000000 		.4byte	.LFE11
 11732 0030 00000000 		.4byte	.LFB12
 11733 0034 BC000000 		.4byte	.LFE12
 11734 0038 00000000 		.4byte	.LFB14
 11735 003c 20000000 		.4byte	.LFE14
 11736 0040 00000000 		.4byte	.LFB15
 11737 0044 34000000 		.4byte	.LFE15
 11738 0048 00000000 		.4byte	.LFB16
 11739 004c 20000000 		.4byte	.LFE16
 11740 0050 00000000 		.4byte	.LFB17
 11741 0054 80000000 		.4byte	.LFE17
 11742 0058 00000000 		.4byte	.LFB4
 11743 005c 94010000 		.4byte	.LFE4
 11744 0060 00000000 		.4byte	.LFB18
 11745 0064 DC000000 		.4byte	.LFE18
 11746 0068 00000000 		.4byte	.LFB8
 11747 006c 60000000 		.4byte	.LFE8
 11748 0070 00000000 		.4byte	.LFB19
 11749 0074 24000000 		.4byte	.LFE19
 11750 0078 00000000 		.4byte	.LFB20
 11751 007c E0000000 		.4byte	.LFE20
 11752 0080 00000000 		.4byte	.LFB10
 11753 0084 34000000 		.4byte	.LFE10
ARM GAS  C:\Users\EDULU~1.DES\AppData\Local\Temp\ccxcKTgR.s 			page 263


 11754 0088 00000000 		.4byte	.LFB21
 11755 008c F0000000 		.4byte	.LFE21
 11756 0090 00000000 		.4byte	.LFB13
 11757 0094 34000000 		.4byte	.LFE13
 11758 0098 00000000 		.4byte	0
 11759 009c 00000000 		.4byte	0
 11760              		.section	.debug_line,"",%progbits
 11761              	.Ldebug_line0:
 11762 0000 7E0F0000 		.section	.debug_str,"MS",%progbits,1
 11762      03000402 
 11762      00000201 
 11762      FB0E0D00 
 11762      01010101 
 11763              	.LASF195:
 11764 0000 4F535F45 		.ascii	"OS_ERR_MEM_FULL\000"
 11764      52525F4D 
 11764      454D5F46 
 11764      554C4C00 
 11765              	.LASF557:
 11766 0010 2E2E5C2E 		.ascii	"..\\..\\..\\..\\..\\..\\Software\\uCOS-III\\Source\\"
 11766      2E5C2E2E 
 11766      5C2E2E5C 
 11766      2E2E5C2E 
 11766      2E5C536F 
 11767 003b 6F735F74 		.ascii	"os_task.c\000"
 11767      61736B2E 
 11767      6300
 11768              	.LASF350:
 11769 0045 5469636B 		.ascii	"TickNextPtr\000"
 11769      4E657874 
 11769      50747200 
 11770              	.LASF362:
 11771 0051 50656E64 		.ascii	"PendDataTblEntries\000"
 11771      44617461 
 11771      54626C45 
 11771      6E747269 
 11771      657300
 11772              	.LASF402:
 11773 0064 4F535F50 		.ascii	"OS_PEND_LIST\000"
 11773      454E445F 
 11773      4C495354 
 11773      00
 11774              	.LASF316:
 11775 0071 4F535F45 		.ascii	"OS_ERR_TMR_STK_INVALID\000"
 11775      52525F54 
 11775      4D525F53 
 11775      544B5F49 
 11775      4E56414C 
 11776              	.LASF452:
 11777 0088 4F534366 		.ascii	"OSCfg_IntQTaskStkLimit\000"
 11777      675F496E 
 11777      74515461 
 11777      736B5374 
 11777      6B4C696D 
 11778              	.LASF130:
 11779 009f 5F5F6C6F 		.ascii	"__locale_t\000"
 11779      63616C65 
ARM GAS  C:\Users\EDULU~1.DES\AppData\Local\Temp\ccxcKTgR.s 			page 264


 11779      5F7400
 11780              	.LASF30:
 11781 00aa 5F5F7661 		.ascii	"__value\000"
 11781      6C756500 
 11782              	.LASF1:
 11783 00b2 4350555F 		.ascii	"CPU_BOOLEAN\000"
 11783      424F4F4C 
 11783      45414E00 
 11784              	.LASF406:
 11785 00be 4F534964 		.ascii	"OSIdleTaskCtr\000"
 11785      6C655461 
 11785      736B4374 
 11785      7200
 11786              	.LASF98:
 11787 00cc 5F5F7366 		.ascii	"__sf\000"
 11787      00
 11788              	.LASF384:
 11789 00d1 4F535F54 		.ascii	"OS_TMR\000"
 11789      4D5200
 11790              	.LASF65:
 11791 00d8 5F726561 		.ascii	"_read\000"
 11791      6400
 11792              	.LASF180:
 11793 00de 4F535F45 		.ascii	"OS_ERR_G\000"
 11793      52525F47 
 11793      00
 11794              	.LASF421:
 11795 00e7 4F535374 		.ascii	"OSStatTaskCPUUsageMax\000"
 11795      61745461 
 11795      736B4350 
 11795      55557361 
 11795      67654D61 
 11796              	.LASF189:
 11797 00fd 4F535F45 		.ascii	"OS_ERR_J\000"
 11797      52525F4A 
 11797      00
 11798              	.LASF318:
 11799 0106 4F535F45 		.ascii	"OS_ERR_TMR_STOPPED\000"
 11799      52525F54 
 11799      4D525F53 
 11799      544F5050 
 11799      454400
 11800              	.LASF344:
 11801 0119 4F535F54 		.ascii	"OS_TCB\000"
 11801      434200
 11802              	.LASF391:
 11803 0120 53746174 		.ascii	"State\000"
 11803      6500
 11804              	.LASF66:
 11805 0126 5F777269 		.ascii	"_write\000"
 11805      746500
 11806              	.LASF315:
 11807 012d 4F535F45 		.ascii	"OS_ERR_TMR_PRIO_INVALID\000"
 11807      52525F54 
 11807      4D525F50 
 11807      52494F5F 
 11807      494E5641 
ARM GAS  C:\Users\EDULU~1.DES\AppData\Local\Temp\ccxcKTgR.s 			page 265


 11808              	.LASF434:
 11809 0145 4F535469 		.ascii	"OSTickTaskTimeMax\000"
 11809      636B5461 
 11809      736B5469 
 11809      6D654D61 
 11809      7800
 11810              	.LASF109:
 11811 0157 5F617363 		.ascii	"_asctime_buf\000"
 11811      74696D65 
 11811      5F627566 
 11811      00
 11812              	.LASF330:
 11813 0164 4D736750 		.ascii	"MsgPtr\000"
 11813      747200
 11814              	.LASF92:
 11815 016b 5F637674 		.ascii	"_cvtlen\000"
 11815      6C656E00 
 11816              	.LASF0:
 11817 0173 4350555F 		.ascii	"CPU_CHAR\000"
 11817      43484152 
 11817      00
 11818              	.LASF242:
 11819 017c 4F535F45 		.ascii	"OS_ERR_ROUND_ROBIN_1\000"
 11819      52525F52 
 11819      4F554E44 
 11819      5F524F42 
 11819      494E5F31 
 11820              	.LASF250:
 11821 0191 4F535F45 		.ascii	"OS_ERR_SEM_OVF\000"
 11821      52525F53 
 11821      454D5F4F 
 11821      564600
 11822              	.LASF247:
 11823 01a0 4F535F45 		.ascii	"OS_ERR_SCHED_LOCKED\000"
 11823      52525F53 
 11823      43484544 
 11823      5F4C4F43 
 11823      4B454400 
 11824              	.LASF6:
 11825 01b4 4350555F 		.ascii	"CPU_INT16U\000"
 11825      494E5431 
 11825      365500
 11826              	.LASF386:
 11827 01bf 43616C6C 		.ascii	"CallbackPtr\000"
 11827      6261636B 
 11827      50747200 
 11828              	.LASF442:
 11829 01cb 4F535443 		.ascii	"OSTCBCurPtr\000"
 11829      42437572 
 11829      50747200 
 11830              	.LASF336:
 11831 01d7 6F735F73 		.ascii	"os_sem\000"
 11831      656D00
 11832              	.LASF420:
 11833 01de 4F535374 		.ascii	"OSStatTaskCPUUsage\000"
 11833      61745461 
 11833      736B4350 
ARM GAS  C:\Users\EDULU~1.DES\AppData\Local\Temp\ccxcKTgR.s 			page 266


 11833      55557361 
 11833      676500
 11834              	.LASF482:
 11835 01f1 4F534366 		.ascii	"OSCfg_TmrWheelSize\000"
 11835      675F546D 
 11835      72576865 
 11835      656C5369 
 11835      7A6500
 11836              	.LASF128:
 11837 0204 5F756E75 		.ascii	"_unused\000"
 11837      73656400 
 11838              	.LASF39:
 11839 020c 5F5F746D 		.ascii	"__tm\000"
 11839      00
 11840              	.LASF124:
 11841 0211 5F776373 		.ascii	"_wcsrtombs_state\000"
 11841      72746F6D 
 11841      62735F73 
 11841      74617465 
 11841      00
 11842              	.LASF70:
 11843 0222 5F6E6275 		.ascii	"_nbuf\000"
 11843      6600
 11844              	.LASF40:
 11845 0228 5F5F746D 		.ascii	"__tm_sec\000"
 11845      5F736563 
 11845      00
 11846              	.LASF521:
 11847 0231 4F535461 		.ascii	"OSTaskCreate\000"
 11847      736B4372 
 11847      65617465 
 11847      00
 11848              	.LASF117:
 11849 023e 5F6C3634 		.ascii	"_l64a_buf\000"
 11849      615F6275 
 11849      6600
 11850              	.LASF254:
 11851 0248 4F535F45 		.ascii	"OS_ERR_STAT_STK_INVALID\000"
 11851      52525F53 
 11851      5441545F 
 11851      53544B5F 
 11851      494E5641 
 11852              	.LASF286:
 11853 0260 4F535F45 		.ascii	"OS_ERR_TLS_ID_INVALID\000"
 11853      52525F54 
 11853      4C535F49 
 11853      445F494E 
 11853      56414C49 
 11854              	.LASF149:
 11855 0276 4F535F49 		.ascii	"OS_IDLE_CTR\000"
 11855      444C455F 
 11855      43545200 
 11856              	.LASF345:
 11857 0282 6F735F74 		.ascii	"os_tcb\000"
 11857      636200
 11858              	.LASF223:
 11859 0289 4F535F45 		.ascii	"OS_ERR_PEND_ABORT_NONE\000"
ARM GAS  C:\Users\EDULU~1.DES\AppData\Local\Temp\ccxcKTgR.s 			page 267


 11859      52525F50 
 11859      454E445F 
 11859      41424F52 
 11859      545F4E4F 
 11860              	.LASF529:
 11861 02a0 715F7369 		.ascii	"q_size\000"
 11861      7A6500
 11862              	.LASF499:
 11863 02a7 4F535F54 		.ascii	"OS_TaskInit\000"
 11863      61736B49 
 11863      6E697400 
 11864              	.LASF74:
 11865 02b3 5F6C6F63 		.ascii	"_lock\000"
 11865      6B00
 11866              	.LASF443:
 11867 02b9 4F535443 		.ascii	"OSTCBHighRdyPtr\000"
 11867      42486967 
 11867      68526479 
 11867      50747200 
 11868              	.LASF17:
 11869 02c9 4350555F 		.ascii	"CPU_STK\000"
 11869      53544B00 
 11870              	.LASF370:
 11871 02d1 53757370 		.ascii	"SuspendCtr\000"
 11871      656E6443 
 11871      747200
 11872              	.LASF463:
 11873 02dc 4F534366 		.ascii	"OSCfg_StatTaskStkBasePtr\000"
 11873      675F5374 
 11873      61745461 
 11873      736B5374 
 11873      6B426173 
 11874              	.LASF105:
 11875 02f5 5F6D756C 		.ascii	"_mult\000"
 11875      7400
 11876              	.LASF423:
 11877 02fb 4F535374 		.ascii	"OSStatTaskCtrMax\000"
 11877      61745461 
 11877      736B4374 
 11877      724D6178 
 11877      00
 11878              	.LASF364:
 11879 030c 5469636B 		.ascii	"TickCtrPrev\000"
 11879      43747250 
 11879      72657600 
 11880              	.LASF506:
 11881 0318 705F6672 		.ascii	"p_free\000"
 11881      656500
 11882              	.LASF302:
 11883 031f 4F535F45 		.ascii	"OS_ERR_TIME_NOT_DLY\000"
 11883      52525F54 
 11883      494D455F 
 11883      4E4F545F 
 11883      444C5900 
 11884              	.LASF269:
 11885 0333 4F535F45 		.ascii	"OS_ERR_TASK_NO_MORE_TCB\000"
 11885      52525F54 
ARM GAS  C:\Users\EDULU~1.DES\AppData\Local\Temp\ccxcKTgR.s 			page 268


 11885      41534B5F 
 11885      4E4F5F4D 
 11885      4F52455F 
 11886              	.LASF545:
 11887 034b 4F535461 		.ascii	"OSTaskReturnHook\000"
 11887      736B5265 
 11887      7475726E 
 11887      486F6F6B 
 11887      00
 11888              	.LASF136:
 11889 035c 4350555F 		.ascii	"CPU_TS_TMR_FREQ\000"
 11889      54535F54 
 11889      4D525F46 
 11889      52455100 
 11890              	.LASF155:
 11891 036c 4F535F4F 		.ascii	"OS_OPT\000"
 11891      505400
 11892              	.LASF525:
 11893 0373 7072696F 		.ascii	"prio\000"
 11893      00
 11894              	.LASF285:
 11895 0378 4F535F45 		.ascii	"OS_ERR_TCB_INVALID\000"
 11895      52525F54 
 11895      43425F49 
 11895      4E56414C 
 11895      494400
 11896              	.LASF204:
 11897 038b 4F535F45 		.ascii	"OS_ERR_MSG_POOL_EMPTY\000"
 11897      52525F4D 
 11897      53475F50 
 11897      4F4F4C5F 
 11897      454D5054 
 11898              	.LASF483:
 11899 03a1 4F534366 		.ascii	"OSCfg_TmrSizeRAM\000"
 11899      675F546D 
 11899      7253697A 
 11899      6552414D 
 11899      00
 11900              	.LASF27:
 11901 03b2 5F5F7763 		.ascii	"__wch\000"
 11901      6800
 11902              	.LASF213:
 11903 03b8 4F535F45 		.ascii	"OS_ERR_OBJ_CREATED\000"
 11903      52525F4F 
 11903      424A5F43 
 11903      52454154 
 11903      454400
 11904              	.LASF395:
 11905 03cb 6F735F70 		.ascii	"os_pend_data\000"
 11905      656E645F 
 11905      64617461 
 11905      00
 11906              	.LASF461:
 11907 03d8 4F534366 		.ascii	"OSCfg_StatTaskPrio\000"
 11907      675F5374 
 11907      61745461 
 11907      736B5072 
ARM GAS  C:\Users\EDULU~1.DES\AppData\Local\Temp\ccxcKTgR.s 			page 269


 11907      696F00
 11908              	.LASF426:
 11909 03eb 4F535374 		.ascii	"OSStatTaskTCB\000"
 11909      61745461 
 11909      736B5443 
 11909      4200
 11910              	.LASF530:
 11911 03f9 74696D65 		.ascii	"time_quanta\000"
 11911      5F717561 
 11911      6E746100 
 11912              	.LASF62:
 11913 0405 5F66696C 		.ascii	"_file\000"
 11913      6500
 11914              	.LASF203:
 11915 040b 4F535F45 		.ascii	"OS_ERR_MEM_NO_FREE_BLKS\000"
 11915      52525F4D 
 11915      454D5F4E 
 11915      4F5F4652 
 11915      45455F42 
 11916              	.LASF49:
 11917 0423 5F6F6E5F 		.ascii	"_on_exit_args\000"
 11917      65786974 
 11917      5F617267 
 11917      7300
 11918              	.LASF287:
 11919 0431 4F535F45 		.ascii	"OS_ERR_TLS_ISR\000"
 11919      52525F54 
 11919      4C535F49 
 11919      535200
 11920              	.LASF207:
 11921 0440 4F535F45 		.ascii	"OS_ERR_MUTEX_OWNER\000"
 11921      52525F4D 
 11921      55544558 
 11921      5F4F574E 
 11921      455200
 11922              	.LASF368:
 11923 0453 54696D65 		.ascii	"TimeQuantaCtr\000"
 11923      5175616E 
 11923      74614374 
 11923      7200
 11924              	.LASF369:
 11925 0461 52656754 		.ascii	"RegTbl\000"
 11925      626C00
 11926              	.LASF480:
 11927 0468 4F534366 		.ascii	"OSCfg_TmrTaskStkSize\000"
 11927      675F546D 
 11927      72546173 
 11927      6B53746B 
 11927      53697A65 
 11928              	.LASF120:
 11929 047d 5F6D6272 		.ascii	"_mbrlen_state\000"
 11929      6C656E5F 
 11929      73746174 
 11929      6500
 11930              	.LASF20:
 11931 048b 6C6F6E67 		.ascii	"long int\000"
 11931      20696E74 
ARM GAS  C:\Users\EDULU~1.DES\AppData\Local\Temp\ccxcKTgR.s 			page 270


 11931      00
 11932              	.LASF185:
 11933 0494 4F535F45 		.ascii	"OS_ERR_INT_Q_FULL\000"
 11933      52525F49 
 11933      4E545F51 
 11933      5F46554C 
 11933      4C00
 11934              	.LASF131:
 11935 04a6 5F696D70 		.ascii	"_impure_ptr\000"
 11935      7572655F 
 11935      70747200 
 11936              	.LASF441:
 11937 04b2 4F53546D 		.ascii	"OSTmrUpdateCtr\000"
 11937      72557064 
 11937      61746543 
 11937      747200
 11938              	.LASF89:
 11939 04c1 5F726573 		.ascii	"_result_k\000"
 11939      756C745F 
 11939      6B00
 11940              	.LASF226:
 11941 04cb 4F535F45 		.ascii	"OS_ERR_PEND_ISR\000"
 11941      52525F50 
 11941      454E445F 
 11941      49535200 
 11942              	.LASF59:
 11943 04db 5F73697A 		.ascii	"_size\000"
 11943      6500
 11944              	.LASF396:
 11945 04e1 54434250 		.ascii	"TCBPtr\000"
 11945      747200
 11946              	.LASF326:
 11947 04e8 4F535F45 		.ascii	"OS_ERR\000"
 11947      525200
 11948              	.LASF110:
 11949 04ef 5F6C6F63 		.ascii	"_localtime_buf\000"
 11949      616C7469 
 11949      6D655F62 
 11949      756600
 11950              	.LASF19:
 11951 04fe 4350555F 		.ascii	"CPU_SR\000"
 11951      535200
 11952              	.LASF279:
 11953 0505 4F535F45 		.ascii	"OS_ERR_TASK_SUSPENDED\000"
 11953      52525F54 
 11953      41534B5F 
 11953      53555350 
 11953      454E4445 
 11954              	.LASF536:
 11955 051b 7072696F 		.ascii	"prio_new\000"
 11955      5F6E6577 
 11955      00
 11956              	.LASF523:
 11957 0524 705F7461 		.ascii	"p_task\000"
 11957      736B00
 11958              	.LASF450:
 11959 052b 4F534366 		.ascii	"OSCfg_IntQSizeRAM\000"
ARM GAS  C:\Users\EDULU~1.DES\AppData\Local\Temp\ccxcKTgR.s 			page 271


 11959      675F496E 
 11959      74515369 
 11959      7A655241 
 11959      4D00
 11960              	.LASF44:
 11961 053d 5F5F746D 		.ascii	"__tm_mon\000"
 11961      5F6D6F6E 
 11961      00
 11962              	.LASF419:
 11963 0546 4F535374 		.ascii	"OSStatResetFlag\000"
 11963      61745265 
 11963      73657446 
 11963      6C616700 
 11964              	.LASF497:
 11965 0556 4F535F54 		.ascii	"OS_TaskInitTCB\000"
 11965      61736B49 
 11965      6E697454 
 11965      434200
 11966              	.LASF387:
 11967 0565 43616C6C 		.ascii	"CallbackPtrArg\000"
 11967      6261636B 
 11967      50747241 
 11967      726700
 11968              	.LASF159:
 11969 0574 4F535F52 		.ascii	"OS_REG_ID\000"
 11969      45475F49 
 11969      4400
 11970              	.LASF552:
 11971 057e 4F535F50 		.ascii	"OS_PrioInsert\000"
 11971      72696F49 
 11971      6E736572 
 11971      7400
 11972              	.LASF175:
 11973 058c 4F535F45 		.ascii	"OS_ERR_FATAL_RETURN\000"
 11973      52525F46 
 11973      4154414C 
 11973      5F524554 
 11973      55524E00 
 11974              	.LASF134:
 11975 05a0 4350555F 		.ascii	"CPU_TS\000"
 11975      545300
 11976              	.LASF166:
 11977 05a7 4F535F45 		.ascii	"OS_ERR_A\000"
 11977      52525F41 
 11977      00
 11978              	.LASF168:
 11979 05b0 4F535F45 		.ascii	"OS_ERR_B\000"
 11979      52525F42 
 11979      00
 11980              	.LASF169:
 11981 05b9 4F535F45 		.ascii	"OS_ERR_C\000"
 11981      52525F43 
 11981      00
 11982              	.LASF171:
 11983 05c2 4F535F45 		.ascii	"OS_ERR_D\000"
 11983      52525F44 
 11983      00
ARM GAS  C:\Users\EDULU~1.DES\AppData\Local\Temp\ccxcKTgR.s 			page 272


 11984              	.LASF173:
 11985 05cb 4F535F45 		.ascii	"OS_ERR_E\000"
 11985      52525F45 
 11985      00
 11986              	.LASF174:
 11987 05d4 4F535F45 		.ascii	"OS_ERR_F\000"
 11987      52525F46 
 11987      00
 11988              	.LASF107:
 11989 05dd 5F756E75 		.ascii	"_unused_rand\000"
 11989      7365645F 
 11989      72616E64 
 11989      00
 11990              	.LASF181:
 11991 05ea 4F535F45 		.ascii	"OS_ERR_H\000"
 11991      52525F48 
 11991      00
 11992              	.LASF182:
 11993 05f3 4F535F45 		.ascii	"OS_ERR_I\000"
 11993      52525F49 
 11993      00
 11994              	.LASF5:
 11995 05fc 7369676E 		.ascii	"signed char\000"
 11995      65642063 
 11995      68617200 
 11996              	.LASF190:
 11997 0608 4F535F45 		.ascii	"OS_ERR_K\000"
 11997      52525F4B 
 11997      00
 11998              	.LASF191:
 11999 0611 4F535F45 		.ascii	"OS_ERR_L\000"
 11999      52525F4C 
 11999      00
 12000              	.LASF193:
 12001 061a 4F535F45 		.ascii	"OS_ERR_M\000"
 12001      52525F4D 
 12001      00
 12002              	.LASF209:
 12003 0623 4F535F45 		.ascii	"OS_ERR_N\000"
 12003      52525F4E 
 12003      00
 12004              	.LASF212:
 12005 062c 4F535F45 		.ascii	"OS_ERR_O\000"
 12005      52525F4F 
 12005      00
 12006              	.LASF220:
 12007 0635 4F535F45 		.ascii	"OS_ERR_P\000"
 12007      52525F50 
 12007      00
 12008              	.LASF235:
 12009 063e 4F535F45 		.ascii	"OS_ERR_Q\000"
 12009      52525F51 
 12009      00
 12010              	.LASF240:
 12011 0647 4F535F45 		.ascii	"OS_ERR_R\000"
 12011      52525F52 
 12011      00
ARM GAS  C:\Users\EDULU~1.DES\AppData\Local\Temp\ccxcKTgR.s 			page 273


 12012              	.LASF244:
 12013 0650 4F535F45 		.ascii	"OS_ERR_S\000"
 12013      52525F53 
 12013      00
 12014              	.LASF261:
 12015 0659 4F535F45 		.ascii	"OS_ERR_T\000"
 12015      52525F54 
 12015      00
 12016              	.LASF319:
 12017 0662 4F535F45 		.ascii	"OS_ERR_U\000"
 12017      52525F55 
 12017      00
 12018              	.LASF320:
 12019 066b 4F535F45 		.ascii	"OS_ERR_V\000"
 12019      52525F56 
 12019      00
 12020              	.LASF321:
 12021 0674 4F535F45 		.ascii	"OS_ERR_W\000"
 12021      52525F57 
 12021      00
 12022              	.LASF322:
 12023 067d 4F535F45 		.ascii	"OS_ERR_X\000"
 12023      52525F58 
 12023      00
 12024              	.LASF323:
 12025 0686 4F535F45 		.ascii	"OS_ERR_Y\000"
 12025      52525F59 
 12025      00
 12026              	.LASF325:
 12027 068f 4F535F45 		.ascii	"OS_ERR_Z\000"
 12027      52525F5A 
 12027      00
 12028              	.LASF164:
 12029 0698 4F535F43 		.ascii	"OS_CPU_ExceptStkBase\000"
 12029      50555F45 
 12029      78636570 
 12029      7453746B 
 12029      42617365 
 12030              	.LASF304:
 12031 06ad 4F535F45 		.ascii	"OS_ERR_TIME_ZERO_DLY\000"
 12031      52525F54 
 12031      494D455F 
 12031      5A45524F 
 12031      5F444C59 
 12032              	.LASF230:
 12033 06c2 4F535F45 		.ascii	"OS_ERR_POST_ISR\000"
 12033      52525F50 
 12033      4F53545F 
 12033      49535200 
 12034              	.LASF342:
 12035 06d2 4462674E 		.ascii	"DbgNamePtr\000"
 12035      616D6550 
 12035      747200
 12036              	.LASF3:
 12037 06dd 756E7369 		.ascii	"unsigned char\000"
 12037      676E6564 
 12037      20636861 
ARM GAS  C:\Users\EDULU~1.DES\AppData\Local\Temp\ccxcKTgR.s 			page 274


 12037      7200
 12038              	.LASF177:
 12039 06eb 4F535F45 		.ascii	"OS_ERR_FLAG_NOT_RDY\000"
 12039      52525F46 
 12039      4C41475F 
 12039      4E4F545F 
 12039      52445900 
 12040              	.LASF520:
 12041 06ff 4F535461 		.ascii	"OSTaskRegGet\000"
 12041      736B5265 
 12041      67476574 
 12041      00
 12042              	.LASF293:
 12043 070c 4F535F45 		.ascii	"OS_ERR_TICK_STK_SIZE_INVALID\000"
 12043      52525F54 
 12043      49434B5F 
 12043      53544B5F 
 12043      53495A45 
 12044              	.LASF457:
 12045 0729 4F534366 		.ascii	"OSCfg_ISRStkSizeRAM\000"
 12045      675F4953 
 12045      5253746B 
 12045      53697A65 
 12045      52414D00 
 12046              	.LASF340:
 12047 073d 44626750 		.ascii	"DbgPrevPtr\000"
 12047      72657650 
 12047      747200
 12048              	.LASF84:
 12049 0748 5F756E73 		.ascii	"_unspecified_locale_info\000"
 12049      70656369 
 12049      66696564 
 12049      5F6C6F63 
 12049      616C655F 
 12050              	.LASF509:
 12051 0761 705F7374 		.ascii	"p_stk\000"
 12051      6B00
 12052              	.LASF77:
 12053 0767 5F726565 		.ascii	"_reent\000"
 12053      6E7400
 12054              	.LASF346:
 12055 076e 53746B50 		.ascii	"StkPtr\000"
 12055      747200
 12056              	.LASF132:
 12057 0775 5F676C6F 		.ascii	"_global_impure_ptr\000"
 12057      62616C5F 
 12057      696D7075 
 12057      72655F70 
 12057      747200
 12058              	.LASF548:
 12059 0788 4350555F 		.ascii	"CPU_TS_TmrRd\000"
 12059      54535F54 
 12059      6D725264 
 12059      00
 12060              	.LASF408:
 12061 0795 4F53496E 		.ascii	"OSIntNestingCtr\000"
 12061      744E6573 
ARM GAS  C:\Users\EDULU~1.DES\AppData\Local\Temp\ccxcKTgR.s 			page 275


 12061      74696E67 
 12061      43747200 
 12062              	.LASF498:
 12063 07a5 7265675F 		.ascii	"reg_id\000"
 12063      696400
 12064              	.LASF376:
 12065 07ac 48656164 		.ascii	"HeadPtr\000"
 12065      50747200 
 12066              	.LASF273:
 12067 07b4 4F535F45 		.ascii	"OS_ERR_TASK_OPT\000"
 12067      52525F54 
 12067      41534B5F 
 12067      4F505400 
 12068              	.LASF256:
 12069 07c4 4F535F45 		.ascii	"OS_ERR_STATE_INVALID\000"
 12069      52525F53 
 12069      54415445 
 12069      5F494E56 
 12069      414C4944 
 12070              	.LASF161:
 12071 07d9 4F535F53 		.ascii	"OS_STATE\000"
 12071      54415445 
 12071      00
 12072              	.LASF347:
 12073 07e2 45787450 		.ascii	"ExtPtr\000"
 12073      747200
 12074              	.LASF518:
 12075 07e9 76616C75 		.ascii	"value\000"
 12075      6500
 12076              	.LASF154:
 12077 07ef 4F535F4F 		.ascii	"OS_OBJ_TYPE\000"
 12077      424A5F54 
 12077      59504500 
 12078              	.LASF194:
 12079 07fb 4F535F45 		.ascii	"OS_ERR_MEM_CREATE_ISR\000"
 12079      52525F4D 
 12079      454D5F43 
 12079      52454154 
 12079      455F4953 
 12080              	.LASF2:
 12081 0811 63686172 		.ascii	"char\000"
 12081      00
 12082              	.LASF487:
 12083 0816 4F534366 		.ascii	"OSCfg_TickTaskStk\000"
 12083      675F5469 
 12083      636B5461 
 12083      736B5374 
 12083      6B00
 12084              	.LASF56:
 12085 0828 5F666E73 		.ascii	"_fns\000"
 12085      00
 12086              	.LASF197:
 12087 082d 4F535F45 		.ascii	"OS_ERR_MEM_INVALID_BLKS\000"
 12087      52525F4D 
 12087      454D5F49 
 12087      4E56414C 
 12087      49445F42 
ARM GAS  C:\Users\EDULU~1.DES\AppData\Local\Temp\ccxcKTgR.s 			page 276


 12088              	.LASF511:
 12089 0845 4F535461 		.ascii	"OSTaskSemSet\000"
 12089      736B5365 
 12089      6D536574 
 12089      00
 12090              	.LASF145:
 12091 0852 4350555F 		.ascii	"CPU_IntDisMeasMax_cnts\000"
 12091      496E7444 
 12091      69734D65 
 12091      61734D61 
 12091      785F636E 
 12092              	.LASF68:
 12093 0869 5F636C6F 		.ascii	"_close\000"
 12093      736500
 12094              	.LASF366:
 12095 0870 5469636B 		.ascii	"TickRemain\000"
 12095      52656D61 
 12095      696E00
 12096              	.LASF489:
 12097 087b 4F534366 		.ascii	"OSCfg_TmrTaskStk\000"
 12097      675F546D 
 12097      72546173 
 12097      6B53746B 
 12097      00
 12098              	.LASF389:
 12099 088c 52656D61 		.ascii	"Remain\000"
 12099      696E00
 12100              	.LASF534:
 12101 0893 705F7374 		.ascii	"p_stk_limit\000"
 12101      6B5F6C69 
 12101      6D697400 
 12102              	.LASF167:
 12103 089f 4F535F45 		.ascii	"OS_ERR_ACCEPT_ISR\000"
 12103      52525F41 
 12103      43434550 
 12103      545F4953 
 12103      5200
 12104              	.LASF332:
 12105 08b1 4D736754 		.ascii	"MsgTS\000"
 12105      5300
 12106              	.LASF356:
 12107 08b7 50656E64 		.ascii	"PendDataTblPtr\000"
 12107      44617461 
 12107      54626C50 
 12107      747200
 12108              	.LASF196:
 12109 08c6 4F535F45 		.ascii	"OS_ERR_MEM_INVALID_P_ADDR\000"
 12109      52525F4D 
 12109      454D5F49 
 12109      4E56414C 
 12109      49445F50 
 12110              	.LASF377:
 12111 08e0 5461696C 		.ascii	"TailPtr\000"
 12111      50747200 
 12112              	.LASF239:
 12113 08e8 4F535F45 		.ascii	"OS_ERR_Q_SIZE\000"
 12113      52525F51 
ARM GAS  C:\Users\EDULU~1.DES\AppData\Local\Temp\ccxcKTgR.s 			page 277


 12113      5F53495A 
 12113      4500
 12114              	.LASF79:
 12115 08f6 5F737464 		.ascii	"_stdin\000"
 12115      696E00
 12116              	.LASF328:
 12117 08fd 6F735F6D 		.ascii	"os_msg\000"
 12117      736700
 12118              	.LASF221:
 12119 0904 4F535F45 		.ascii	"OS_ERR_PEND_ABORT\000"
 12119      52525F50 
 12119      454E445F 
 12119      41424F52 
 12119      5400
 12120              	.LASF414:
 12121 0916 4F535072 		.ascii	"OSPrioTbl\000"
 12121      696F5462 
 12121      6C00
 12122              	.LASF259:
 12123 0920 4F535F45 		.ascii	"OS_ERR_STK_SIZE_INVALID\000"
 12123      52525F53 
 12123      544B5F53 
 12123      495A455F 
 12123      494E5641 
 12124              	.LASF272:
 12125 0938 4F535F45 		.ascii	"OS_ERR_TASK_NOT_SUSPENDED\000"
 12125      52525F54 
 12125      41534B5F 
 12125      4E4F545F 
 12125      53555350 
 12126              	.LASF255:
 12127 0952 4F535F45 		.ascii	"OS_ERR_STAT_STK_SIZE_INVALID\000"
 12127      52525F53 
 12127      5441545F 
 12127      53544B5F 
 12127      53495A45 
 12128              	.LASF543:
 12129 096f 4F535363 		.ascii	"OSSched\000"
 12129      68656400 
 12130              	.LASF348:
 12131 0977 53746B4C 		.ascii	"StkLimitPtr\000"
 12131      696D6974 
 12131      50747200 
 12132              	.LASF9:
 12133 0983 4350555F 		.ascii	"CPU_INT32U\000"
 12133      494E5433 
 12133      325500
 12134              	.LASF388:
 12135 098e 4D617463 		.ascii	"Match\000"
 12135      6800
 12136              	.LASF307:
 12137 0994 4F535F45 		.ascii	"OS_ERR_TMR_INVALID_DEST\000"
 12137      52525F54 
 12137      4D525F49 
 12137      4E56414C 
 12137      49445F44 
 12138              	.LASF296:
ARM GAS  C:\Users\EDULU~1.DES\AppData\Local\Temp\ccxcKTgR.s 			page 278


 12139 09ac 4F535F45 		.ascii	"OS_ERR_TIME_DLY_RESUME_ISR\000"
 12139      52525F54 
 12139      494D455F 
 12139      444C595F 
 12139      52455355 
 12140              	.LASF310:
 12141 09c7 4F535F45 		.ascii	"OS_ERR_TMR_INVALID_STATE\000"
 12141      52525F54 
 12141      4D525F49 
 12141      4E56414C 
 12141      49445F53 
 12142              	.LASF290:
 12143 09e0 4F535F45 		.ascii	"OS_ERR_TLS_DESTRUCT_ASSIGNED\000"
 12143      52525F54 
 12143      4C535F44 
 12143      45535452 
 12143      5543545F 
 12144              	.LASF501:
 12145 09fd 705F7463 		.ascii	"p_tcb_next\000"
 12145      625F6E65 
 12145      787400
 12146              	.LASF15:
 12147 0a08 4350555F 		.ascii	"CPU_ADDR\000"
 12147      41444452 
 12147      00
 12148              	.LASF502:
 12149 0a11 705F7463 		.ascii	"p_tcb_prev\000"
 12149      625F7072 
 12149      657600
 12150              	.LASF375:
 12151 0a1c 6F735F72 		.ascii	"os_rdy_list\000"
 12151      64795F6C 
 12151      69737400 
 12152              	.LASF422:
 12153 0a28 4F535374 		.ascii	"OSStatTaskCtr\000"
 12153      61745461 
 12153      736B4374 
 12153      7200
 12154              	.LASF249:
 12155 0a36 4F535F45 		.ascii	"OS_ERR_SCHED_UNLOCK_ISR\000"
 12155      52525F53 
 12155      43484544 
 12155      5F554E4C 
 12155      4F434B5F 
 12156              	.LASF446:
 12157 0a4e 4F534366 		.ascii	"OSCfg_IdleTaskStkSize\000"
 12157      675F4964 
 12157      6C655461 
 12157      736B5374 
 12157      6B53697A 
 12158              	.LASF462:
 12159 0a64 4F534366 		.ascii	"OSCfg_StatTaskRate_Hz\000"
 12159      675F5374 
 12159      61745461 
 12159      736B5261 
 12159      74655F48 
 12160              	.LASF158:
ARM GAS  C:\Users\EDULU~1.DES\AppData\Local\Temp\ccxcKTgR.s 			page 279


 12161 0a7a 4F535F52 		.ascii	"OS_REG\000"
 12161      454700
 12162              	.LASF540:
 12163 0a81 4350555F 		.ascii	"CPU_IntDisMeasStop\000"
 12163      496E7444 
 12163      69734D65 
 12163      61735374 
 12163      6F7000
 12164              	.LASF298:
 12165 0a94 4F535F45 		.ascii	"OS_ERR_TIME_INVALID_HOURS\000"
 12165      52525F54 
 12165      494D455F 
 12165      494E5641 
 12165      4C49445F 
 12166              	.LASF475:
 12167 0aae 4F534366 		.ascii	"OSCfg_TickWheelSizeRAM\000"
 12167      675F5469 
 12167      636B5768 
 12167      65656C53 
 12167      697A6552 
 12168              	.LASF187:
 12169 0ac5 4F535F45 		.ascii	"OS_ERR_INT_Q_STK_INVALID\000"
 12169      52525F49 
 12169      4E545F51 
 12169      5F53544B 
 12169      5F494E56 
 12170              	.LASF492:
 12171 0ade 705F6572 		.ascii	"p_err\000"
 12171      7200
 12172              	.LASF188:
 12173 0ae4 4F535F45 		.ascii	"OS_ERR_INT_Q_STK_SIZE_INVALID\000"
 12173      52525F49 
 12173      4E545F51 
 12173      5F53544B 
 12173      5F53495A 
 12174              	.LASF282:
 12175 0b02 4F535F45 		.ascii	"OS_ERR_TASK_SUSPEND_ISR\000"
 12175      52525F54 
 12175      41534B5F 
 12175      53555350 
 12175      454E445F 
 12176              	.LASF198:
 12177 0b1a 4F535F45 		.ascii	"OS_ERR_MEM_INVALID_PART\000"
 12177      52525F4D 
 12177      454D5F49 
 12177      4E56414C 
 12177      49445F50 
 12178              	.LASF351:
 12179 0b32 5469636B 		.ascii	"TickPrevPtr\000"
 12179      50726576 
 12179      50747200 
 12180              	.LASF64:
 12181 0b3e 5F636F6F 		.ascii	"_cookie\000"
 12181      6B696500 
 12182              	.LASF248:
 12183 0b46 4F535F45 		.ascii	"OS_ERR_SCHED_NOT_LOCKED\000"
 12183      52525F53 
ARM GAS  C:\Users\EDULU~1.DES\AppData\Local\Temp\ccxcKTgR.s 			page 280


 12183      43484544 
 12183      5F4E4F54 
 12183      5F4C4F43 
 12184              	.LASF133:
 12185 0b5e 4350555F 		.ascii	"CPU_TS32\000"
 12185      54533332 
 12185      00
 12186              	.LASF37:
 12187 0b67 5F776473 		.ascii	"_wds\000"
 12187      00
 12188              	.LASF541:
 12189 0b6c 4350555F 		.ascii	"CPU_SR_Restore\000"
 12189      53525F52 
 12189      6573746F 
 12189      726500
 12190              	.LASF148:
 12191 0b7b 4F535F43 		.ascii	"OS_CTX_SW_CTR\000"
 12191      54585F53 
 12191      575F4354 
 12191      5200
 12192              	.LASF129:
 12193 0b89 5F5F6C6F 		.ascii	"__lock\000"
 12193      636B00
 12194              	.LASF96:
 12195 0b90 5F736967 		.ascii	"_sig_func\000"
 12195      5F66756E 
 12195      6300
 12196              	.LASF493:
 12197 0b9a 6370755F 		.ascii	"cpu_sr\000"
 12197      737200
 12198              	.LASF435:
 12199 0ba1 4F53546D 		.ascii	"OSTmrDbgListPtr\000"
 12199      72446267 
 12199      4C697374 
 12199      50747200 
 12200              	.LASF394:
 12201 0bb1 4F535F50 		.ascii	"OS_PEND_DATA\000"
 12201      454E445F 
 12201      44415441 
 12201      00
 12202              	.LASF453:
 12203 0bbe 4F534366 		.ascii	"OSCfg_IntQTaskStkSize\000"
 12203      675F496E 
 12203      74515461 
 12203      736B5374 
 12203      6B53697A 
 12204              	.LASF72:
 12205 0bd4 5F6F6666 		.ascii	"_offset\000"
 12205      73657400 
 12206              	.LASF93:
 12207 0bdc 5F637674 		.ascii	"_cvtbuf\000"
 12207      62756600 
 12208              	.LASF300:
 12209 0be4 4F535F45 		.ascii	"OS_ERR_TIME_INVALID_SECONDS\000"
 12209      52525F54 
 12209      494D455F 
 12209      494E5641 
ARM GAS  C:\Users\EDULU~1.DES\AppData\Local\Temp\ccxcKTgR.s 			page 281


 12209      4C49445F 
 12210              	.LASF481:
 12211 0c00 4F534366 		.ascii	"OSCfg_TmrTaskStkSizeRAM\000"
 12211      675F546D 
 12211      72546173 
 12211      6B53746B 
 12211      53697A65 
 12212              	.LASF486:
 12213 0c18 4F534366 		.ascii	"OSCfg_StatTaskStk\000"
 12213      675F5374 
 12213      61745461 
 12213      736B5374 
 12213      6B00
 12214              	.LASF467:
 12215 0c2a 4F534366 		.ascii	"OSCfg_StkSizeMin\000"
 12215      675F5374 
 12215      6B53697A 
 12215      654D696E 
 12215      00
 12216              	.LASF339:
 12217 0c3b 50656E64 		.ascii	"PendList\000"
 12217      4C697374 
 12217      00
 12218              	.LASF305:
 12219 0c44 4F535F45 		.ascii	"OS_ERR_TIMEOUT\000"
 12219      52525F54 
 12219      494D454F 
 12219      555400
 12220              	.LASF211:
 12221 0c53 4F535F45 		.ascii	"OS_ERR_NO_MORE_ID_AVAIL\000"
 12221      52525F4E 
 12221      4F5F4D4F 
 12221      52455F49 
 12221      445F4156 
 12222              	.LASF558:
 12223 0c6b 433A5C55 		.ascii	"C:\\Users\\edulu.DESKTOP-961TG4K\\Documents\\PSoC C"
 12223      73657273 
 12223      5C656475 
 12223      6C752E44 
 12223      45534B54 
 12224 0c9a 72656174 		.ascii	"reator\\Micrium\\Examples\\Cypress\\CY8CKIT-044\\OS"
 12224      6F725C4D 
 12224      69637269 
 12224      756D5C45 
 12224      78616D70 
 12225 0cc8 335C5053 		.ascii	"3\\PSoC\\OS3.cydsn\000"
 12225      6F435C4F 
 12225      53332E63 
 12225      7964736E 
 12225      00
 12226              	.LASF485:
 12227 0cd9 4F534366 		.ascii	"OSCfg_ISRStk\000"
 12227      675F4953 
 12227      5253746B 
 12227      00
 12228              	.LASF263:
 12229 0ce6 4F535F45 		.ascii	"OS_ERR_TASK_CREATE_ISR\000"
ARM GAS  C:\Users\EDULU~1.DES\AppData\Local\Temp\ccxcKTgR.s 			page 282


 12229      52525F54 
 12229      41534B5F 
 12229      43524541 
 12229      54455F49 
 12230              	.LASF176:
 12231 0cfd 4F535F45 		.ascii	"OS_ERR_FLAG_GRP_DEPLETED\000"
 12231      52525F46 
 12231      4C41475F 
 12231      4752505F 
 12231      4445504C 
 12232              	.LASF431:
 12233 0d16 4F535461 		.ascii	"OSTaskRegNextAvailID\000"
 12233      736B5265 
 12233      674E6578 
 12233      74417661 
 12233      696C4944 
 12234              	.LASF314:
 12235 0d2b 4F535F45 		.ascii	"OS_ERR_TMR_NON_AVAIL\000"
 12235      52525F54 
 12235      4D525F4E 
 12235      4F4E5F41 
 12235      5641494C 
 12236              	.LASF464:
 12237 0d40 4F534366 		.ascii	"OSCfg_StatTaskStkLimit\000"
 12237      675F5374 
 12237      61745461 
 12237      736B5374 
 12237      6B4C696D 
 12238              	.LASF510:
 12239 0d57 4F535F54 		.ascii	"OS_TaskSemPost\000"
 12239      61736B53 
 12239      656D506F 
 12239      737400
 12240              	.LASF90:
 12241 0d66 5F703573 		.ascii	"_p5s\000"
 12241      00
 12242              	.LASF21:
 12243 0d6b 6C6F6E67 		.ascii	"long unsigned int\000"
 12243      20756E73 
 12243      69676E65 
 12243      6420696E 
 12243      7400
 12244              	.LASF146:
 12245 0d7d 4F535F43 		.ascii	"OS_CPU_USAGE\000"
 12245      50555F55 
 12245      53414745 
 12245      00
 12246              	.LASF274:
 12247 0d8a 4F535F45 		.ascii	"OS_ERR_TASK_RESUME_ISR\000"
 12247      52525F54 
 12247      41534B5F 
 12247      52455355 
 12247      4D455F49 
 12248              	.LASF270:
 12249 0da1 4F535F45 		.ascii	"OS_ERR_TASK_NOT_DLY\000"
 12249      52525F54 
 12249      41534B5F 
ARM GAS  C:\Users\EDULU~1.DES\AppData\Local\Temp\ccxcKTgR.s 			page 283


 12249      4E4F545F 
 12249      444C5900 
 12250              	.LASF383:
 12251 0db5 4F535F54 		.ascii	"OS_TMR_CALLBACK_PTR\000"
 12251      4D525F43 
 12251      414C4C42 
 12251      41434B5F 
 12251      50545200 
 12252              	.LASF440:
 12253 0dc9 4F53546D 		.ascii	"OSTmrUpdateCnt\000"
 12253      72557064 
 12253      61746543 
 12253      6E7400
 12254              	.LASF537:
 12255 0dd8 73656C66 		.ascii	"self\000"
 12255      00
 12256              	.LASF60:
 12257 0ddd 5F5F7346 		.ascii	"__sFILE\000"
 12257      494C4500 
 12258              	.LASF86:
 12259 0de5 5F5F7364 		.ascii	"__sdidinit\000"
 12259      6964696E 
 12259      697400
 12260              	.LASF76:
 12261 0df0 5F666C61 		.ascii	"_flags2\000"
 12261      67733200 
 12262              	.LASF170:
 12263 0df8 4F535F45 		.ascii	"OS_ERR_CREATE_ISR\000"
 12263      52525F43 
 12263      52454154 
 12263      455F4953 
 12263      5200
 12264              	.LASF404:
 12265 0e0a 4F535F50 		.ascii	"OS_PEND_OBJ\000"
 12265      454E445F 
 12265      4F424A00 
 12266              	.LASF222:
 12267 0e16 4F535F45 		.ascii	"OS_ERR_PEND_ABORT_ISR\000"
 12267      52525F50 
 12267      454E445F 
 12267      41424F52 
 12267      545F4953 
 12268              	.LASF526:
 12269 0e2c 705F7374 		.ascii	"p_stk_base\000"
 12269      6B5F6261 
 12269      736500
 12270              	.LASF278:
 12271 0e37 4F535F45 		.ascii	"OS_ERR_TASK_STK_CHK_ISR\000"
 12271      52525F54 
 12271      41534B5F 
 12271      53544B5F 
 12271      43484B5F 
 12272              	.LASF288:
 12273 0e4f 4F535F45 		.ascii	"OS_ERR_TLS_NO_MORE_AVAIL\000"
 12273      52525F54 
 12273      4C535F4E 
 12273      4F5F4D4F 
ARM GAS  C:\Users\EDULU~1.DES\AppData\Local\Temp\ccxcKTgR.s 			page 284


 12273      52455F41 
 12274              	.LASF551:
 12275 0e68 4F535461 		.ascii	"OSTaskCreateHook\000"
 12275      736B4372 
 12275      65617465 
 12275      486F6F6B 
 12275      00
 12276              	.LASF299:
 12277 0e79 4F535F45 		.ascii	"OS_ERR_TIME_INVALID_MINUTES\000"
 12277      52525F54 
 12277      494D455F 
 12277      494E5641 
 12277      4C49445F 
 12278              	.LASF153:
 12279 0e95 4F535F4F 		.ascii	"OS_OBJ_QTY\000"
 12279      424A5F51 
 12279      545900
 12280              	.LASF78:
 12281 0ea0 5F657272 		.ascii	"_errno\000"
 12281      6E6F00
 12282              	.LASF372:
 12283 0ea7 53746B46 		.ascii	"StkFree\000"
 12283      72656500 
 12284              	.LASF118:
 12285 0eaf 5F736967 		.ascii	"_signal_buf\000"
 12285      6E616C5F 
 12285      62756600 
 12286              	.LASF143:
 12287 0ebb 4350555F 		.ascii	"CPU_IntDisMeasOvrhd_cnts\000"
 12287      496E7444 
 12287      69734D65 
 12287      61734F76 
 12287      7268645F 
 12288              	.LASF466:
 12289 0ed4 4F534366 		.ascii	"OSCfg_StatTaskStkSizeRAM\000"
 12289      675F5374 
 12289      61745461 
 12289      736B5374 
 12289      6B53697A 
 12290              	.LASF38:
 12291 0eed 5F426967 		.ascii	"_Bigint\000"
 12291      696E7400 
 12292              	.LASF206:
 12293 0ef5 4F535F45 		.ascii	"OS_ERR_MUTEX_NOT_OWNER\000"
 12293      52525F4D 
 12293      55544558 
 12293      5F4E4F54 
 12293      5F4F574E 
 12294              	.LASF547:
 12295 0f0c 4F535F54 		.ascii	"OS_TaskRdy\000"
 12295      61736B52 
 12295      647900
 12296              	.LASF449:
 12297 0f17 4F534366 		.ascii	"OSCfg_IntQSize\000"
 12297      675F496E 
 12297      74515369 
 12297      7A6500
ARM GAS  C:\Users\EDULU~1.DES\AppData\Local\Temp\ccxcKTgR.s 			page 285


 12298              	.LASF35:
 12299 0f26 5F6D6178 		.ascii	"_maxwds\000"
 12299      77647300 
 12300              	.LASF214:
 12301 0f2e 4F535F45 		.ascii	"OS_ERR_OBJ_DEL\000"
 12301      52525F4F 
 12301      424A5F44 
 12301      454C00
 12302              	.LASF87:
 12303 0f3d 5F5F636C 		.ascii	"__cleanup\000"
 12303      65616E75 
 12303      7000
 12304              	.LASF95:
 12305 0f47 5F617465 		.ascii	"_atexit0\000"
 12305      78697430 
 12305      00
 12306              	.LASF361:
 12307 0f50 53746B53 		.ascii	"StkSize\000"
 12307      697A6500 
 12308              	.LASF165:
 12309 0f58 4F535F45 		.ascii	"OS_ERR_NONE\000"
 12309      52525F4E 
 12309      4F4E4500 
 12310              	.LASF367:
 12311 0f64 54696D65 		.ascii	"TimeQuanta\000"
 12311      5175616E 
 12311      746100
 12312              	.LASF535:
 12313 0f6f 4F535461 		.ascii	"OSTaskChangePrio\000"
 12313      736B4368 
 12313      616E6765 
 12313      5072696F 
 12313      00
 12314              	.LASF448:
 12315 0f80 4F534366 		.ascii	"OSCfg_IntQBasePtr\000"
 12315      675F496E 
 12315      74514261 
 12315      73655074 
 12315      7200
 12316              	.LASF454:
 12317 0f92 4F534366 		.ascii	"OSCfg_IntQTaskStkSizeRAM\000"
 12317      675F496E 
 12317      74515461 
 12317      736B5374 
 12317      6B53697A 
 12318              	.LASF156:
 12319 0fab 4F535F50 		.ascii	"OS_PRIO\000"
 12319      52494F00 
 12320              	.LASF83:
 12321 0fb3 5F656D65 		.ascii	"_emergency\000"
 12321      7267656E 
 12321      637900
 12322              	.LASF12:
 12323 0fbe 6C6F6E67 		.ascii	"long long int\000"
 12323      206C6F6E 
 12323      6720696E 
 12323      7400
ARM GAS  C:\Users\EDULU~1.DES\AppData\Local\Temp\ccxcKTgR.s 			page 286


 12324              	.LASF163:
 12325 0fcc 4F535F54 		.ascii	"OS_TICK\000"
 12325      49434B00 
 12326              	.LASF469:
 12327 0fd4 4F534366 		.ascii	"OSCfg_TickTaskPrio\000"
 12327      675F5469 
 12327      636B5461 
 12327      736B5072 
 12327      696F00
 12328              	.LASF477:
 12329 0fe7 4F534366 		.ascii	"OSCfg_TmrTaskRate_Hz\000"
 12329      675F546D 
 12329      72546173 
 12329      6B526174 
 12329      655F487A 
 12330              	.LASF101:
 12331 0ffc 5F6E696F 		.ascii	"_niobs\000"
 12331      627300
 12332              	.LASF411:
 12333 1003 4F535072 		.ascii	"OSPrioCur\000"
 12333      696F4375 
 12333      7200
 12334              	.LASF97:
 12335 100d 5F5F7367 		.ascii	"__sglue\000"
 12335      6C756500 
 12336              	.LASF495:
 12337 1015 4F535F54 		.ascii	"OS_TaskReturn\000"
 12337      61736B52 
 12337      65747572 
 12337      6E00
 12338              	.LASF127:
 12339 1023 5F6E6D61 		.ascii	"_nmalloc\000"
 12339      6C6C6F63 
 12339      00
 12340              	.LASF224:
 12341 102c 4F535F45 		.ascii	"OS_ERR_PEND_ABORT_SELF\000"
 12341      52525F50 
 12341      454E445F 
 12341      41424F52 
 12341      545F5345 
 12342              	.LASF14:
 12343 1043 646F7562 		.ascii	"double\000"
 12343      6C6500
 12344              	.LASF385:
 12345 104a 6F735F74 		.ascii	"os_tmr\000"
 12345      6D7200
 12346              	.LASF412:
 12347 1051 4F535072 		.ascii	"OSPrioHighRdy\000"
 12347      696F4869 
 12347      67685264 
 12347      7900
 12348              	.LASF111:
 12349 105f 5F67616D 		.ascii	"_gamma_signgam\000"
 12349      6D615F73 
 12349      69676E67 
 12349      616D00
 12350              	.LASF380:
ARM GAS  C:\Users\EDULU~1.DES\AppData\Local\Temp\ccxcKTgR.s 			page 287


 12351 106e 6F735F74 		.ascii	"os_tick_spoke\000"
 12351      69636B5F 
 12351      73706F6B 
 12351      6500
 12352              	.LASF324:
 12353 107c 4F535F45 		.ascii	"OS_ERR_YIELD_ISR\000"
 12353      52525F59 
 12353      49454C44 
 12353      5F495352 
 12353      00
 12354              	.LASF267:
 12355 108d 4F535F45 		.ascii	"OS_ERR_TASK_DEL_ISR\000"
 12355      52525F54 
 12355      41534B5F 
 12355      44454C5F 
 12355      49535200 
 12356              	.LASF160:
 12357 10a1 4F535F53 		.ascii	"OS_SEM_CTR\000"
 12357      454D5F43 
 12357      545200
 12358              	.LASF479:
 12359 10ac 4F534366 		.ascii	"OSCfg_TmrTaskStkLimit\000"
 12359      675F546D 
 12359      72546173 
 12359      6B53746B 
 12359      4C696D69 
 12360              	.LASF465:
 12361 10c2 4F534366 		.ascii	"OSCfg_StatTaskStkSize\000"
 12361      675F5374 
 12361      61745461 
 12361      736B5374 
 12361      6B53697A 
 12362              	.LASF311:
 12363 10d8 4F535F45 		.ascii	"OS_ERR_TMR_INVALID\000"
 12363      52525F54 
 12363      4D525F49 
 12363      4E56414C 
 12363      494400
 12364              	.LASF91:
 12365 10eb 5F667265 		.ascii	"_freelist\000"
 12365      656C6973 
 12365      7400
 12366              	.LASF102:
 12367 10f5 5F696F62 		.ascii	"_iobs\000"
 12367      7300
 12368              	.LASF100:
 12369 10fb 5F676C75 		.ascii	"_glue\000"
 12369      6500
 12370              	.LASF415:
 12371 1101 4F535264 		.ascii	"OSRdyList\000"
 12371      794C6973 
 12371      7400
 12372              	.LASF152:
 12373 110b 4F535F4E 		.ascii	"OS_NESTING_CTR\000"
 12373      45535449 
 12373      4E475F43 
 12373      545200
ARM GAS  C:\Users\EDULU~1.DES\AppData\Local\Temp\ccxcKTgR.s 			page 288


 12374              	.LASF36:
 12375 111a 5F736967 		.ascii	"_sign\000"
 12375      6E00
 12376              	.LASF253:
 12377 1120 4F535F45 		.ascii	"OS_ERR_STAT_PRIO_INVALID\000"
 12377      52525F53 
 12377      5441545F 
 12377      5052494F 
 12377      5F494E56 
 12378              	.LASF334:
 12379 1139 6F735F69 		.ascii	"os_int_q\000"
 12379      6E745F71 
 12379      00
 12380              	.LASF514:
 12381 1142 74696D65 		.ascii	"timeout\000"
 12381      6F757400 
 12382              	.LASF13:
 12383 114a 666C6F61 		.ascii	"float\000"
 12383      7400
 12384              	.LASF476:
 12385 1150 4F534366 		.ascii	"OSCfg_TmrTaskPrio\000"
 12385      675F546D 
 12385      72546173 
 12385      6B507269 
 12385      6F00
 12386              	.LASF549:
 12387 1162 4F535F50 		.ascii	"OS_Pend\000"
 12387      656E6400 
 12388              	.LASF260:
 12389 116a 4F535F45 		.ascii	"OS_ERR_STK_LIMIT_INVALID\000"
 12389      52525F53 
 12389      544B5F4C 
 12389      494D4954 
 12389      5F494E56 
 12390              	.LASF18:
 12391 1183 4350555F 		.ascii	"CPU_STK_SIZE\000"
 12391      53544B5F 
 12391      53495A45 
 12391      00
 12392              	.LASF183:
 12393 1190 4F535F45 		.ascii	"OS_ERR_ILLEGAL_CREATE_RUN_TIME\000"
 12393      52525F49 
 12393      4C4C4547 
 12393      414C5F43 
 12393      52454154 
 12394              	.LASF359:
 12395 11af 5461736B 		.ascii	"TaskState\000"
 12395      53746174 
 12395      6500
 12396              	.LASF484:
 12397 11b9 4F534366 		.ascii	"OSCfg_IdleTaskStk\000"
 12397      675F4964 
 12397      6C655461 
 12397      736B5374 
 12397      6B00
 12398              	.LASF531:
 12399 11cb 705F6578 		.ascii	"p_ext\000"
ARM GAS  C:\Users\EDULU~1.DES\AppData\Local\Temp\ccxcKTgR.s 			page 289


 12399      7400
 12400              	.LASF409:
 12401 11d1 4F53496E 		.ascii	"OSIntDisTimeMax\000"
 12401      74446973 
 12401      54696D65 
 12401      4D617800 
 12402              	.LASF10:
 12403 11e1 756E7369 		.ascii	"unsigned int\000"
 12403      676E6564 
 12403      20696E74 
 12403      00
 12404              	.LASF401:
 12405 11ee 52647954 		.ascii	"RdyTS\000"
 12405      5300
 12406              	.LASF308:
 12407 11f4 4F535F45 		.ascii	"OS_ERR_TMR_INVALID_DLY\000"
 12407      52525F54 
 12407      4D525F49 
 12407      4E56414C 
 12407      49445F44 
 12408              	.LASF528:
 12409 120b 73746B5F 		.ascii	"stk_size\000"
 12409      73697A65 
 12409      00
 12410              	.LASF144:
 12411 1214 4350555F 		.ascii	"CPU_IntDisMeasMaxCur_cnts\000"
 12411      496E7444 
 12411      69734D65 
 12411      61734D61 
 12411      78437572 
 12412              	.LASF381:
 12413 122e 46697273 		.ascii	"FirstPtr\000"
 12413      74507472 
 12413      00
 12414              	.LASF125:
 12415 1237 5F685F65 		.ascii	"_h_errno\000"
 12415      72726E6F 
 12415      00
 12416              	.LASF123:
 12417 1240 5F776372 		.ascii	"_wcrtomb_state\000"
 12417      746F6D62 
 12417      5F737461 
 12417      746500
 12418              	.LASF488:
 12419 124f 4F534366 		.ascii	"OSCfg_TickWheel\000"
 12419      675F5469 
 12419      636B5768 
 12419      65656C00 
 12420              	.LASF43:
 12421 125f 5F5F746D 		.ascii	"__tm_mday\000"
 12421      5F6D6461 
 12421      7900
 12422              	.LASF94:
 12423 1269 5F6E6577 		.ascii	"_new\000"
 12423      00
 12424              	.LASF151:
 12425 126e 4F535F4D 		.ascii	"OS_MSG_SIZE\000"
ARM GAS  C:\Users\EDULU~1.DES\AppData\Local\Temp\ccxcKTgR.s 			page 290


 12425      53475F53 
 12425      495A4500 
 12426              	.LASF69:
 12427 127a 5F756275 		.ascii	"_ubuf\000"
 12427      6600
 12428              	.LASF200:
 12429 1280 4F535F45 		.ascii	"OS_ERR_MEM_INVALID_P_MEM\000"
 12429      52525F4D 
 12429      454D5F49 
 12429      4E56414C 
 12429      49445F50 
 12430              	.LASF81:
 12431 1299 5F737464 		.ascii	"_stderr\000"
 12431      65727200 
 12432              	.LASF116:
 12433 12a1 5F776374 		.ascii	"_wctomb_state\000"
 12433      6F6D625F 
 12433      73746174 
 12433      6500
 12434              	.LASF218:
 12435 12af 4F535F45 		.ascii	"OS_ERR_OS_NOT_RUNNING\000"
 12435      52525F4F 
 12435      535F4E4F 
 12435      545F5255 
 12435      4E4E494E 
 12436              	.LASF75:
 12437 12c5 5F6D6273 		.ascii	"_mbstate\000"
 12437      74617465 
 12437      00
 12438              	.LASF138:
 12439 12ce 4350555F 		.ascii	"CPU_TS_TmrFreq_Hz\000"
 12439      54535F54 
 12439      6D724672 
 12439      65715F48 
 12439      7A00
 12440              	.LASF491:
 12441 12e0 705F7463 		.ascii	"p_tcb\000"
 12441      6200
 12442              	.LASF112:
 12443 12e6 5F72616E 		.ascii	"_rand_next\000"
 12443      645F6E65 
 12443      787400
 12444              	.LASF459:
 12445 12f1 4F534366 		.ascii	"OSCfg_MsgPoolSizeRAM\000"
 12445      675F4D73 
 12445      67506F6F 
 12445      6C53697A 
 12445      6552414D 
 12446              	.LASF61:
 12447 1306 5F666C61 		.ascii	"_flags\000"
 12447      677300
 12448              	.LASF337:
 12449 130d 54797065 		.ascii	"Type\000"
 12449      00
 12450              	.LASF417:
 12451 1312 4F535365 		.ascii	"OSSemDbgListPtr\000"
 12451      6D446267 
ARM GAS  C:\Users\EDULU~1.DES\AppData\Local\Temp\ccxcKTgR.s 			page 291


 12451      4C697374 
 12451      50747200 
 12452              	.LASF258:
 12453 1322 4F535F45 		.ascii	"OS_ERR_STK_INVALID\000"
 12453      52525F53 
 12453      544B5F49 
 12453      4E56414C 
 12453      494400
 12454              	.LASF54:
 12455 1335 5F617465 		.ascii	"_atexit\000"
 12455      78697400 
 12456              	.LASF533:
 12457 133d 705F7370 		.ascii	"p_sp\000"
 12457      00
 12458              	.LASF436:
 12459 1342 4F53546D 		.ascii	"OSTmrQty\000"
 12459      72517479 
 12459      00
 12460              	.LASF437:
 12461 134b 4F53546D 		.ascii	"OSTmrTaskTCB\000"
 12461      72546173 
 12461      6B544342 
 12461      00
 12462              	.LASF29:
 12463 1358 5F5F636F 		.ascii	"__count\000"
 12463      756E7400 
 12464              	.LASF229:
 12465 1360 4F535F45 		.ascii	"OS_ERR_POST_NULL_PTR\000"
 12465      52525F50 
 12465      4F53545F 
 12465      4E554C4C 
 12465      5F505452 
 12466              	.LASF245:
 12467 1375 4F535F45 		.ascii	"OS_ERR_SCHED_INVALID_TIME_SLICE\000"
 12467      52525F53 
 12467      43484544 
 12467      5F494E56 
 12467      414C4944 
 12468              	.LASF210:
 12469 1395 4F535F45 		.ascii	"OS_ERR_NAME\000"
 12469      52525F4E 
 12469      414D4500 
 12470              	.LASF517:
 12471 13a1 4F535461 		.ascii	"OSTaskRegSet\000"
 12471      736B5265 
 12471      67536574 
 12471      00
 12472              	.LASF219:
 12473 13ae 4F535F45 		.ascii	"OS_ERR_OS_RUNNING\000"
 12473      52525F4F 
 12473      535F5255 
 12473      4E4E494E 
 12473      4700
 12474              	.LASF162:
 12475 13c0 4F535F53 		.ascii	"OS_STATUS\000"
 12475      54415455 
 12475      5300
ARM GAS  C:\Users\EDULU~1.DES\AppData\Local\Temp\ccxcKTgR.s 			page 292


 12476              	.LASF432:
 12477 13ca 4F535469 		.ascii	"OSTickCtr\000"
 12477      636B4374 
 12477      7200
 12478              	.LASF46:
 12479 13d4 5F5F746D 		.ascii	"__tm_wday\000"
 12479      5F776461 
 12479      7900
 12480              	.LASF400:
 12481 13de 5264794D 		.ascii	"RdyMsgSize\000"
 12481      73675369 
 12481      7A6500
 12482              	.LASF365:
 12483 13e9 5469636B 		.ascii	"TickCtrMatch\000"
 12483      4374724D 
 12483      61746368 
 12483      00
 12484              	.LASF227:
 12485 13f6 4F535F45 		.ascii	"OS_ERR_PEND_LOCKED\000"
 12485      52525F50 
 12485      454E445F 
 12485      4C4F434B 
 12485      454400
 12486              	.LASF515:
 12487 1409 705F7473 		.ascii	"p_ts\000"
 12487      00
 12488              	.LASF22:
 12489 140e 6C6F6E67 		.ascii	"long double\000"
 12489      20646F75 
 12489      626C6500 
 12490              	.LASF47:
 12491 141a 5F5F746D 		.ascii	"__tm_yday\000"
 12491      5F796461 
 12491      7900
 12492              	.LASF447:
 12493 1424 4F534366 		.ascii	"OSCfg_IdleTaskStkSizeRAM\000"
 12493      675F4964 
 12493      6C655461 
 12493      736B5374 
 12493      6B53697A 
 12494              	.LASF251:
 12495 143d 4F535F45 		.ascii	"OS_ERR_SET_ISR\000"
 12495      52525F53 
 12495      45545F49 
 12495      535200
 12496              	.LASF354:
 12497 144c 5461736B 		.ascii	"TaskEntryAddr\000"
 12497      456E7472 
 12497      79416464 
 12497      7200
 12498              	.LASF559:
 12499 145a 6F735F65 		.ascii	"os_err\000"
 12499      727200
 12500              	.LASF104:
 12501 1461 5F736565 		.ascii	"_seed\000"
 12501      6400
 12502              	.LASF67:
ARM GAS  C:\Users\EDULU~1.DES\AppData\Local\Temp\ccxcKTgR.s 			page 293


 12503 1467 5F736565 		.ascii	"_seek\000"
 12503      6B00
 12504              	.LASF280:
 12505 146d 4F535F45 		.ascii	"OS_ERR_TASK_SUSPEND_IDLE\000"
 12505      52525F54 
 12505      41534B5F 
 12505      53555350 
 12505      454E445F 
 12506              	.LASF500:
 12507 1486 4F535F54 		.ascii	"OS_TaskDbgListRemove\000"
 12507      61736B44 
 12507      62674C69 
 12507      73745265 
 12507      6D6F7665 
 12508              	.LASF458:
 12509 149b 4F534366 		.ascii	"OSCfg_MsgPoolSize\000"
 12509      675F4D73 
 12509      67506F6F 
 12509      6C53697A 
 12509      6500
 12510              	.LASF264:
 12511 14ad 4F535F45 		.ascii	"OS_ERR_TASK_DEL\000"
 12511      52525F54 
 12511      41534B5F 
 12511      44454C00 
 12512              	.LASF405:
 12513 14bd 6F735F70 		.ascii	"os_pend_obj\000"
 12513      656E645F 
 12513      6F626A00 
 12514              	.LASF25:
 12515 14c9 5F66706F 		.ascii	"_fpos_t\000"
 12515      735F7400 
 12516              	.LASF271:
 12517 14d1 4F535F45 		.ascii	"OS_ERR_TASK_NOT_EXIST\000"
 12517      52525F54 
 12517      41534B5F 
 12517      4E4F545F 
 12517      45584953 
 12518              	.LASF28:
 12519 14e7 5F5F7763 		.ascii	"__wchb\000"
 12519      686200
 12520              	.LASF382:
 12521 14ee 4E627245 		.ascii	"NbrEntriesMax\000"
 12521      6E747269 
 12521      65734D61 
 12521      7800
 12522              	.LASF208:
 12523 14fc 4F535F45 		.ascii	"OS_ERR_MUTEX_NESTING\000"
 12523      52525F4D 
 12523      55544558 
 12523      5F4E4553 
 12523      54494E47 
 12524              	.LASF115:
 12525 1511 5F6D6274 		.ascii	"_mbtowc_state\000"
 12525      6F77635F 
 12525      73746174 
 12525      6500
ARM GAS  C:\Users\EDULU~1.DES\AppData\Local\Temp\ccxcKTgR.s 			page 294


 12526              	.LASF225:
 12527 151f 4F535F45 		.ascii	"OS_ERR_PEND_DEL\000"
 12527      52525F50 
 12527      454E445F 
 12527      44454C00 
 12528              	.LASF199:
 12529 152f 4F535F45 		.ascii	"OS_ERR_MEM_INVALID_P_BLK\000"
 12529      52525F4D 
 12529      454D5F49 
 12529      4E56414C 
 12529      49445F50 
 12530              	.LASF179:
 12531 1548 4F535F45 		.ascii	"OS_ERR_FLUSH_ISR\000"
 12531      52525F46 
 12531      4C555348 
 12531      5F495352 
 12531      00
 12532              	.LASF142:
 12533 1559 4350555F 		.ascii	"CPU_IntDisMeasStop_cnts\000"
 12533      496E7444 
 12533      69734D65 
 12533      61735374 
 12533      6F705F63 
 12534              	.LASF398:
 12535 1571 5264794F 		.ascii	"RdyObjPtr\000"
 12535      626A5074 
 12535      7200
 12536              	.LASF236:
 12537 157b 4F535F45 		.ascii	"OS_ERR_Q_FULL\000"
 12537      52525F51 
 12537      5F46554C 
 12537      4C00
 12538              	.LASF11:
 12539 1589 6C6F6E67 		.ascii	"long long unsigned int\000"
 12539      206C6F6E 
 12539      6720756E 
 12539      7369676E 
 12539      65642069 
 12540              	.LASF276:
 12541 15a0 4F535F45 		.ascii	"OS_ERR_TASK_RESUME_SELF\000"
 12541      52525F54 
 12541      41534B5F 
 12541      52455355 
 12541      4D455F53 
 12542              	.LASF490:
 12543 15b8 4F534366 		.ascii	"OSCfg_TmrWheel\000"
 12543      675F546D 
 12543      72576865 
 12543      656C00
 12544              	.LASF527:
 12545 15c7 73746B5F 		.ascii	"stk_limit\000"
 12545      6C696D69 
 12545      7400
 12546              	.LASF313:
 12547 15d1 4F535F45 		.ascii	"OS_ERR_TMR_NO_CALLBACK\000"
 12547      52525F54 
 12547      4D525F4E 
ARM GAS  C:\Users\EDULU~1.DES\AppData\Local\Temp\ccxcKTgR.s 			page 295


 12547      4F5F4341 
 12547      4C4C4241 
 12548              	.LASF504:
 12549 15e8 4F535461 		.ascii	"OSTaskSuspend\000"
 12549      736B5375 
 12549      7370656E 
 12549      6400
 12550              	.LASF234:
 12551 15f6 4F535F45 		.ascii	"OS_ERR_PTR_INVALID\000"
 12551      52525F50 
 12551      54525F49 
 12551      4E56414C 
 12551      494400
 12552              	.LASF135:
 12553 1609 4350555F 		.ascii	"CPU_TS_TMR\000"
 12553      54535F54 
 12553      4D5200
 12554              	.LASF275:
 12555 1614 4F535F45 		.ascii	"OS_ERR_TASK_RESUME_PRIO\000"
 12555      52525F54 
 12555      41534B5F 
 12555      52455355 
 12555      4D455F50 
 12556              	.LASF51:
 12557 162c 5F64736F 		.ascii	"_dso_handle\000"
 12557      5F68616E 
 12557      646C6500 
 12558              	.LASF416:
 12559 1638 4F535363 		.ascii	"OSSchedLockNestingCtr\000"
 12559      6865644C 
 12559      6F636B4E 
 12559      65737469 
 12559      6E674374 
 12560              	.LASF103:
 12561 164e 5F72616E 		.ascii	"_rand48\000"
 12561      64343800 
 12562              	.LASF139:
 12563 1656 4350555F 		.ascii	"CPU_IntDisMeasCtr\000"
 12563      496E7444 
 12563      69734D65 
 12563      61734374 
 12563      7200
 12564              	.LASF80:
 12565 1668 5F737464 		.ascii	"_stdout\000"
 12565      6F757400 
 12566              	.LASF393:
 12567 1670 6F735F74 		.ascii	"os_tmr_spoke\000"
 12567      6D725F73 
 12567      706F6B65 
 12567      00
 12568              	.LASF418:
 12569 167d 4F535365 		.ascii	"OSSemQty\000"
 12569      6D517479 
 12569      00
 12570              	.LASF553:
 12571 1686 4F535F52 		.ascii	"OS_RdyListInsertTail\000"
 12571      64794C69 
ARM GAS  C:\Users\EDULU~1.DES\AppData\Local\Temp\ccxcKTgR.s 			page 296


 12571      7374496E 
 12571      73657274 
 12571      5461696C 
 12572              	.LASF317:
 12573 169b 4F535F45 		.ascii	"OS_ERR_TMR_STK_SIZE_INVALID\000"
 12573      52525F54 
 12573      4D525F53 
 12573      544B5F53 
 12573      495A455F 
 12574              	.LASF201:
 12575 16b7 4F535F45 		.ascii	"OS_ERR_MEM_INVALID_P_DATA\000"
 12575      52525F4D 
 12575      454D5F49 
 12575      4E56414C 
 12575      49445F50 
 12576              	.LASF71:
 12577 16d1 5F626C6B 		.ascii	"_blksize\000"
 12577      73697A65 
 12577      00
 12578              	.LASF157:
 12579 16da 4F535F52 		.ascii	"OS_RATE_HZ\000"
 12579      4154455F 
 12579      485A00
 12580              	.LASF556:
 12581 16e5 474E5520 		.ascii	"GNU C17 8.2.1 20181213 (release) [gcc-8-branch revi"
 12581      43313720 
 12581      382E322E 
 12581      31203230 
 12581      31383132 
 12582 1718 73696F6E 		.ascii	"sion 267074] -mcpu=cortex-m0 -mthumb -mfloat-abi=so"
 12582      20323637 
 12582      3037345D 
 12582      202D6D63 
 12582      70753D63 
 12583 174b 6674202D 		.ascii	"ft -march=armv6s-m -g -Og -ffunction-sections -ffat"
 12583      6D617263 
 12583      683D6172 
 12583      6D763673 
 12583      2D6D202D 
 12584 177e 2D6C746F 		.ascii	"-lto-objects\000"
 12584      2D6F626A 
 12584      65637473 
 12584      00
 12585              	.LASF233:
 12586 178b 4F535F45 		.ascii	"OS_ERR_PRIO_INVALID\000"
 12586      52525F50 
 12586      52494F5F 
 12586      494E5641 
 12586      4C494400 
 12587              	.LASF532:
 12588 179f 7265675F 		.ascii	"reg_nbr\000"
 12588      6E627200 
 12589              	.LASF357:
 12590 17a7 50656E64 		.ascii	"PendOn\000"
 12590      4F6E00
 12591              	.LASF137:
 12592 17ae 4350555F 		.ascii	"CPU_Name\000"
ARM GAS  C:\Users\EDULU~1.DES\AppData\Local\Temp\ccxcKTgR.s 			page 297


 12592      4E616D65 
 12592      00
 12593              	.LASF241:
 12594 17b7 4F535F45 		.ascii	"OS_ERR_REG_ID_INVALID\000"
 12594      52525F52 
 12594      45475F49 
 12594      445F494E 
 12594      56414C49 
 12595              	.LASF108:
 12596 17cd 5F737472 		.ascii	"_strtok_last\000"
 12596      746F6B5F 
 12596      6C617374 
 12596      00
 12597              	.LASF542:
 12598 17da 4F535F52 		.ascii	"OS_RdyListRemove\000"
 12598      64794C69 
 12598      73745265 
 12598      6D6F7665 
 12598      00
 12599              	.LASF58:
 12600 17eb 5F626173 		.ascii	"_base\000"
 12600      6500
 12601              	.LASF544:
 12602 17f1 4F535F50 		.ascii	"OS_Post\000"
 12602      6F737400 
 12603              	.LASF121:
 12604 17f9 5F6D6272 		.ascii	"_mbrtowc_state\000"
 12604      746F7763 
 12604      5F737461 
 12604      746500
 12605              	.LASF555:
 12606 1808 4F535F50 		.ascii	"OS_PendListChangePrio\000"
 12606      656E644C 
 12606      69737443 
 12606      68616E67 
 12606      65507269 
 12607              	.LASF379:
 12608 181e 4F535F54 		.ascii	"OS_TICK_SPOKE\000"
 12608      49434B5F 
 12608      53504F4B 
 12608      4500
 12609              	.LASF373:
 12610 182c 496E7444 		.ascii	"IntDisTimeMax\000"
 12610      69735469 
 12610      6D654D61 
 12610      7800
 12611              	.LASF32:
 12612 183a 5F666C6F 		.ascii	"_flock_t\000"
 12612      636B5F74 
 12612      00
 12613              	.LASF202:
 12614 1843 4F535F45 		.ascii	"OS_ERR_MEM_INVALID_SIZE\000"
 12614      52525F4D 
 12614      454D5F49 
 12614      4E56414C 
 12614      49445F53 
 12615              	.LASF99:
ARM GAS  C:\Users\EDULU~1.DES\AppData\Local\Temp\ccxcKTgR.s 			page 298


 12616 185b 5F5F4649 		.ascii	"__FILE\000"
 12616      4C4500
 12617              	.LASF266:
 12618 1862 4F535F45 		.ascii	"OS_ERR_TASK_DEL_INVALID\000"
 12618      52525F54 
 12618      41534B5F 
 12618      44454C5F 
 12618      494E5641 
 12619              	.LASF413:
 12620 187a 4F535072 		.ascii	"OSPrioSaved\000"
 12620      696F5361 
 12620      76656400 
 12621              	.LASF16:
 12622 1886 4350555F 		.ascii	"CPU_DATA\000"
 12622      44415441 
 12622      00
 12623              	.LASF31:
 12624 188f 5F6D6273 		.ascii	"_mbstate_t\000"
 12624      74617465 
 12624      5F7400
 12625              	.LASF470:
 12626 189a 4F534366 		.ascii	"OSCfg_TickTaskStkBasePtr\000"
 12626      675F5469 
 12626      636B5461 
 12626      736B5374 
 12626      6B426173 
 12627              	.LASF355:
 12628 18b3 5461736B 		.ascii	"TaskEntryArg\000"
 12628      456E7472 
 12628      79417267 
 12628      00
 12629              	.LASF503:
 12630 18c0 4F535F54 		.ascii	"OS_TaskDbgListAdd\000"
 12630      61736B44 
 12630      62674C69 
 12630      73744164 
 12630      6400
 12631              	.LASF186:
 12632 18d2 4F535F45 		.ascii	"OS_ERR_INT_Q_SIZE\000"
 12632      52525F49 
 12632      4E545F51 
 12632      5F53495A 
 12632      4500
 12633              	.LASF113:
 12634 18e4 5F723438 		.ascii	"_r48\000"
 12634      00
 12635              	.LASF428:
 12636 18e9 4F535461 		.ascii	"OSTaskCtxSwCtr\000"
 12636      736B4374 
 12636      78537743 
 12636      747200
 12637              	.LASF546:
 12638 18f8 4F535469 		.ascii	"OSTimeDly\000"
 12638      6D65446C 
 12638      7900
 12639              	.LASF26:
 12640 1902 77696E74 		.ascii	"wint_t\000"
ARM GAS  C:\Users\EDULU~1.DES\AppData\Local\Temp\ccxcKTgR.s 			page 299


 12640      5F7400
 12641              	.LASF468:
 12642 1909 4F534366 		.ascii	"OSCfg_TickRate_Hz\000"
 12642      675F5469 
 12642      636B5261 
 12642      74655F48 
 12642      7A00
 12643              	.LASF34:
 12644 191b 5F6E6578 		.ascii	"_next\000"
 12644      7400
 12645              	.LASF73:
 12646 1921 5F646174 		.ascii	"_data\000"
 12646      6100
 12647              	.LASF427:
 12648 1927 4F535374 		.ascii	"OSStatTaskTimeMax\000"
 12648      61745461 
 12648      736B5469 
 12648      6D654D61 
 12648      7800
 12649              	.LASF349:
 12650 1939 50726576 		.ascii	"PrevPtr\000"
 12650      50747200 
 12651              	.LASF352:
 12652 1941 5469636B 		.ascii	"TickSpokePtr\000"
 12652      53706F6B 
 12652      65507472 
 12652      00
 12653              	.LASF257:
 12654 194e 4F535F45 		.ascii	"OS_ERR_STATUS_INVALID\000"
 12654      52525F53 
 12654      54415455 
 12654      535F494E 
 12654      56414C49 
 12655              	.LASF472:
 12656 1964 4F534366 		.ascii	"OSCfg_TickTaskStkSize\000"
 12656      675F5469 
 12656      636B5461 
 12656      736B5374 
 12656      6B53697A 
 12657              	.LASF192:
 12658 197a 4F535F45 		.ascii	"OS_ERR_LOCK_NESTING_OVF\000"
 12658      52525F4C 
 12658      4F434B5F 
 12658      4E455354 
 12658      494E475F 
 12659              	.LASF140:
 12660 1992 4350555F 		.ascii	"CPU_IntDisNestCtr\000"
 12660      496E7444 
 12660      69734E65 
 12660      73744374 
 12660      7200
 12661              	.LASF281:
 12662 19a4 4F535F45 		.ascii	"OS_ERR_TASK_SUSPEND_INT_HANDLER\000"
 12662      52525F54 
 12662      41534B5F 
 12662      53555350 
 12662      454E445F 
ARM GAS  C:\Users\EDULU~1.DES\AppData\Local\Temp\ccxcKTgR.s 			page 300


 12663              	.LASF451:
 12664 19c4 4F534366 		.ascii	"OSCfg_IntQTaskStkBasePtr\000"
 12664      675F496E 
 12664      74515461 
 12664      736B5374 
 12664      6B426173 
 12665              	.LASF301:
 12666 19dd 4F535F45 		.ascii	"OS_ERR_TIME_INVALID_MILLISECONDS\000"
 12666      52525F54 
 12666      494D455F 
 12666      494E5641 
 12666      4C49445F 
 12667              	.LASF141:
 12668 19fe 4350555F 		.ascii	"CPU_IntDisMeasStart_cnts\000"
 12668      496E7444 
 12668      69734D65 
 12668      61735374 
 12668      6172745F 
 12669              	.LASF516:
 12670 1a17 4F535461 		.ascii	"OSTaskResume\000"
 12670      736B5265 
 12670      73756D65 
 12670      00
 12671              	.LASF327:
 12672 1a24 4F535F4D 		.ascii	"OS_MSG\000"
 12672      534700
 12673              	.LASF329:
 12674 1a2b 4E657874 		.ascii	"NextPtr\000"
 12674      50747200 
 12675              	.LASF228:
 12676 1a33 4F535F45 		.ascii	"OS_ERR_PEND_WOULD_BLOCK\000"
 12676      52525F50 
 12676      454E445F 
 12676      574F554C 
 12676      445F424C 
 12677              	.LASF397:
 12678 1a4b 50656E64 		.ascii	"PendObjPtr\000"
 12678      4F626A50 
 12678      747200
 12679              	.LASF433:
 12680 1a56 4F535469 		.ascii	"OSTickTaskTCB\000"
 12680      636B5461 
 12680      736B5443 
 12680      4200
 12681              	.LASF505:
 12682 1a64 4F535461 		.ascii	"OSTaskStkChk\000"
 12682      736B5374 
 12682      6B43686B 
 12682      00
 12683              	.LASF455:
 12684 1a71 4F534366 		.ascii	"OSCfg_ISRStkBasePtr\000"
 12684      675F4953 
 12684      5253746B 
 12684      42617365 
 12684      50747200 
 12685              	.LASF407:
 12686 1a85 4F534964 		.ascii	"OSIdleTaskTCB\000"
ARM GAS  C:\Users\EDULU~1.DES\AppData\Local\Temp\ccxcKTgR.s 			page 301


 12686      6C655461 
 12686      736B5443 
 12686      4200
 12687              	.LASF538:
 12688 1a93 4350555F 		.ascii	"CPU_SR_Save\000"
 12688      53525F53 
 12688      61766500 
 12689              	.LASF114:
 12690 1a9f 5F6D626C 		.ascii	"_mblen_state\000"
 12690      656E5F73 
 12690      74617465 
 12690      00
 12691              	.LASF371:
 12692 1aac 53746B55 		.ascii	"StkUsed\000"
 12692      73656400 
 12693              	.LASF8:
 12694 1ab4 73686F72 		.ascii	"short int\000"
 12694      7420696E 
 12694      7400
 12695              	.LASF338:
 12696 1abe 4E616D65 		.ascii	"NamePtr\000"
 12696      50747200 
 12697              	.LASF147:
 12698 1ac6 4F535F43 		.ascii	"OS_CTR\000"
 12698      545200
 12699              	.LASF172:
 12700 1acd 4F535F45 		.ascii	"OS_ERR_DEL_ISR\000"
 12700      52525F44 
 12700      454C5F49 
 12700      535200
 12701              	.LASF494:
 12702 1adc 4F535F54 		.ascii	"OS_TaskSuspend\000"
 12702      61736B53 
 12702      75737065 
 12702      6E6400
 12703              	.LASF237:
 12704 1aeb 4F535F45 		.ascii	"OS_ERR_Q_EMPTY\000"
 12704      52525F51 
 12704      5F454D50 
 12704      545900
 12705              	.LASF456:
 12706 1afa 4F534366 		.ascii	"OSCfg_ISRStkSize\000"
 12706      675F4953 
 12706      5253746B 
 12706      53697A65 
 12706      00
 12707              	.LASF425:
 12708 1b0b 4F535374 		.ascii	"OSStatTaskRdy\000"
 12708      61745461 
 12708      736B5264 
 12708      7900
 12709              	.LASF496:
 12710 1b19 4F535F54 		.ascii	"OS_TaskResume\000"
 12710      61736B52 
 12710      6573756D 
 12710      6500
 12711              	.LASF52:
ARM GAS  C:\Users\EDULU~1.DES\AppData\Local\Temp\ccxcKTgR.s 			page 302


 12712 1b27 5F666E74 		.ascii	"_fntypes\000"
 12712      79706573 
 12712      00
 12713              	.LASF430:
 12714 1b30 4F535461 		.ascii	"OSTaskQty\000"
 12714      736B5174 
 12714      7900
 12715              	.LASF45:
 12716 1b3a 5F5F746D 		.ascii	"__tm_year\000"
 12716      5F796561 
 12716      7200
 12717              	.LASF252:
 12718 1b44 4F535F45 		.ascii	"OS_ERR_STAT_RESET_ISR\000"
 12718      52525F53 
 12718      5441545F 
 12718      52455345 
 12718      545F4953 
 12719              	.LASF268:
 12720 1b5a 4F535F45 		.ascii	"OS_ERR_TASK_INVALID\000"
 12720      52525F54 
 12720      41534B5F 
 12720      494E5641 
 12720      4C494400 
 12721              	.LASF306:
 12722 1b6e 4F535F45 		.ascii	"OS_ERR_TMR_INACTIVE\000"
 12722      52525F54 
 12722      4D525F49 
 12722      4E414354 
 12722      49564500 
 12723              	.LASF390:
 12724 1b82 50657269 		.ascii	"Period\000"
 12724      6F6400
 12725              	.LASF378:
 12726 1b89 4E627245 		.ascii	"NbrEntries\000"
 12726      6E747269 
 12726      657300
 12727              	.LASF231:
 12728 1b94 4F535F45 		.ascii	"OS_ERR_PRIO_EXIST\000"
 12728      52525F50 
 12728      52494F5F 
 12728      45584953 
 12728      5400
 12729              	.LASF331:
 12730 1ba6 4D736753 		.ascii	"MsgSize\000"
 12730      697A6500 
 12731              	.LASF392:
 12732 1bae 4F535F54 		.ascii	"OS_TMR_SPOKE\000"
 12732      4D525F53 
 12732      504F4B45 
 12732      00
 12733              	.LASF309:
 12734 1bbb 4F535F45 		.ascii	"OS_ERR_TMR_INVALID_PERIOD\000"
 12734      52525F54 
 12734      4D525F49 
 12734      4E56414C 
 12734      49445F50 
 12735              	.LASF63:
ARM GAS  C:\Users\EDULU~1.DES\AppData\Local\Temp\ccxcKTgR.s 			page 303


 12736 1bd5 5F6C6266 		.ascii	"_lbfsize\000"
 12736      73697A65 
 12736      00
 12737              	.LASF358:
 12738 1bde 50656E64 		.ascii	"PendStatus\000"
 12738      53746174 
 12738      757300
 12739              	.LASF82:
 12740 1be9 5F696E63 		.ascii	"_inc\000"
 12740      00
 12741              	.LASF55:
 12742 1bee 5F696E64 		.ascii	"_ind\000"
 12742      00
 12743              	.LASF284:
 12744 1bf3 4F535F45 		.ascii	"OS_ERR_TASK_WAITING\000"
 12744      52525F54 
 12744      41534B5F 
 12744      57414954 
 12744      494E4700 
 12745              	.LASF353:
 12746 1c07 53746B42 		.ascii	"StkBasePtr\000"
 12746      61736550 
 12746      747200
 12747              	.LASF507:
 12748 1c12 705F7573 		.ascii	"p_used\000"
 12748      656400
 12749              	.LASF439:
 12750 1c19 4F53546D 		.ascii	"OSTmrTickCtr\000"
 12750      72546963 
 12750      6B437472 
 12750      00
 12751              	.LASF57:
 12752 1c26 5F5F7362 		.ascii	"__sbuf\000"
 12752      756600
 12753              	.LASF53:
 12754 1c2d 5F69735F 		.ascii	"_is_cxa\000"
 12754      63786100 
 12755              	.LASF23:
 12756 1c35 5F4C4F43 		.ascii	"_LOCK_T\000"
 12756      4B5F5400 
 12757              	.LASF341:
 12758 1c3d 4462674E 		.ascii	"DbgNextPtr\000"
 12758      65787450 
 12758      747200
 12759              	.LASF126:
 12760 1c48 5F6E6578 		.ascii	"_nextf\000"
 12760      746600
 12761              	.LASF217:
 12762 1c4f 4F535F45 		.ascii	"OS_ERR_OPT_INVALID\000"
 12762      52525F4F 
 12762      50545F49 
 12762      4E56414C 
 12762      494400
 12763              	.LASF178:
 12764 1c62 4F535F45 		.ascii	"OS_ERR_FLAG_PEND_OPT\000"
 12764      52525F46 
 12764      4C41475F 
ARM GAS  C:\Users\EDULU~1.DES\AppData\Local\Temp\ccxcKTgR.s 			page 304


 12764      50454E44 
 12764      5F4F5054 
 12765              	.LASF205:
 12766 1c77 4F535F45 		.ascii	"OS_ERR_MSG_POOL_NULL_PTR\000"
 12766      52525F4D 
 12766      53475F50 
 12766      4F4F4C5F 
 12766      4E554C4C 
 12767              	.LASF539:
 12768 1c90 4350555F 		.ascii	"CPU_IntDisMeasStart\000"
 12768      496E7444 
 12768      69734D65 
 12768      61735374 
 12768      61727400 
 12769              	.LASF343:
 12770 1ca4 4F535F54 		.ascii	"OS_TASK_PTR\000"
 12770      41534B5F 
 12770      50545200 
 12771              	.LASF445:
 12772 1cb0 4F534366 		.ascii	"OSCfg_IdleTaskStkLimit\000"
 12772      675F4964 
 12772      6C655461 
 12772      736B5374 
 12772      6B4C696D 
 12773              	.LASF524:
 12774 1cc7 705F6172 		.ascii	"p_arg\000"
 12774      6700
 12775              	.LASF438:
 12776 1ccd 4F53546D 		.ascii	"OSTmrTaskTimeMax\000"
 12776      72546173 
 12776      6B54696D 
 12776      654D6178 
 12776      00
 12777              	.LASF150:
 12778 1cde 4F535F4D 		.ascii	"OS_MSG_QTY\000"
 12778      53475F51 
 12778      545900
 12779              	.LASF238:
 12780 1ce9 4F535F45 		.ascii	"OS_ERR_Q_MAX\000"
 12780      52525F51 
 12780      5F4D4158 
 12780      00
 12781              	.LASF85:
 12782 1cf6 5F6C6F63 		.ascii	"_locale\000"
 12782      616C6500 
 12783              	.LASF33:
 12784 1cfe 5F5F554C 		.ascii	"__ULong\000"
 12784      6F6E6700 
 12785              	.LASF4:
 12786 1d06 4350555F 		.ascii	"CPU_INT08U\000"
 12786      494E5430 
 12786      385500
 12787              	.LASF88:
 12788 1d11 5F726573 		.ascii	"_result\000"
 12788      756C7400 
 12789              	.LASF460:
 12790 1d19 4F534366 		.ascii	"OSCfg_MsgPoolBasePtr\000"
ARM GAS  C:\Users\EDULU~1.DES\AppData\Local\Temp\ccxcKTgR.s 			page 305


 12790      675F4D73 
 12790      67506F6F 
 12790      6C426173 
 12790      65507472 
 12791              	.LASF312:
 12792 1d2e 4F535F45 		.ascii	"OS_ERR_TMR_ISR\000"
 12792      52525F54 
 12792      4D525F49 
 12792      535200
 12793              	.LASF243:
 12794 1d3d 4F535F45 		.ascii	"OS_ERR_ROUND_ROBIN_DISABLED\000"
 12794      52525F52 
 12794      4F554E44 
 12794      5F524F42 
 12794      494E5F44 
 12795              	.LASF292:
 12796 1d59 4F535F45 		.ascii	"OS_ERR_TICK_STK_INVALID\000"
 12796      52525F54 
 12796      49434B5F 
 12796      53544B5F 
 12796      494E5641 
 12797              	.LASF303:
 12798 1d71 4F535F45 		.ascii	"OS_ERR_TIME_SET_ISR\000"
 12798      52525F54 
 12798      494D455F 
 12798      5345545F 
 12798      49535200 
 12799              	.LASF215:
 12800 1d85 4F535F45 		.ascii	"OS_ERR_OBJ_PTR_NULL\000"
 12800      52525F4F 
 12800      424A5F50 
 12800      54525F4E 
 12800      554C4C00 
 12801              	.LASF294:
 12802 1d99 4F535F45 		.ascii	"OS_ERR_TICK_WHEEL_SIZE\000"
 12802      52525F54 
 12802      49434B5F 
 12802      57484545 
 12802      4C5F5349 
 12803              	.LASF295:
 12804 1db0 4F535F45 		.ascii	"OS_ERR_TIME_DLY_ISR\000"
 12804      52525F54 
 12804      494D455F 
 12804      444C595F 
 12804      49535200 
 12805              	.LASF24:
 12806 1dc4 5F6F6666 		.ascii	"_off_t\000"
 12806      5F7400
 12807              	.LASF403:
 12808 1dcb 6F735F70 		.ascii	"os_pend_list\000"
 12808      656E645F 
 12808      6C697374 
 12808      00
 12809              	.LASF410:
 12810 1dd8 4F535275 		.ascii	"OSRunning\000"
 12810      6E6E696E 
 12810      6700
ARM GAS  C:\Users\EDULU~1.DES\AppData\Local\Temp\ccxcKTgR.s 			page 306


 12811              	.LASF471:
 12812 1de2 4F534366 		.ascii	"OSCfg_TickTaskStkLimit\000"
 12812      675F5469 
 12812      636B5461 
 12812      736B5374 
 12812      6B4C696D 
 12813              	.LASF106:
 12814 1df9 5F616464 		.ascii	"_add\000"
 12814      00
 12815              	.LASF283:
 12816 1dfe 4F535F45 		.ascii	"OS_ERR_TASK_SUSPEND_PRIO\000"
 12816      52525F54 
 12816      41534B5F 
 12816      53555350 
 12816      454E445F 
 12817              	.LASF473:
 12818 1e17 4F534366 		.ascii	"OSCfg_TickTaskStkSizeRAM\000"
 12818      675F5469 
 12818      636B5461 
 12818      736B5374 
 12818      6B53697A 
 12819              	.LASF7:
 12820 1e30 73686F72 		.ascii	"short unsigned int\000"
 12820      7420756E 
 12820      7369676E 
 12820      65642069 
 12820      6E7400
 12821              	.LASF42:
 12822 1e43 5F5F746D 		.ascii	"__tm_hour\000"
 12822      5F686F75 
 12822      7200
 12823              	.LASF289:
 12824 1e4d 4F535F45 		.ascii	"OS_ERR_TLS_NOT_EN\000"
 12824      52525F54 
 12824      4C535F4E 
 12824      4F545F45 
 12824      4E00
 12825              	.LASF265:
 12826 1e5f 4F535F45 		.ascii	"OS_ERR_TASK_DEL_IDLE\000"
 12826      52525F54 
 12826      41534B5F 
 12826      44454C5F 
 12826      49444C45 
 12827              	.LASF232:
 12828 1e74 4F535F45 		.ascii	"OS_ERR_PRIO\000"
 12828      52525F50 
 12828      52494F00 
 12829              	.LASF184:
 12830 1e80 4F535F45 		.ascii	"OS_ERR_INT_Q\000"
 12830      52525F49 
 12830      4E545F51 
 12830      00
 12831              	.LASF478:
 12832 1e8d 4F534366 		.ascii	"OSCfg_TmrTaskStkBasePtr\000"
 12832      675F546D 
 12832      72546173 
 12832      6B53746B 
ARM GAS  C:\Users\EDULU~1.DES\AppData\Local\Temp\ccxcKTgR.s 			page 307


 12832      42617365 
 12833              	.LASF122:
 12834 1ea5 5F6D6273 		.ascii	"_mbsrtowcs_state\000"
 12834      72746F77 
 12834      63735F73 
 12834      74617465 
 12834      00
 12835              	.LASF277:
 12836 1eb6 4F535F45 		.ascii	"OS_ERR_TASK_RUNNING\000"
 12836      52525F54 
 12836      41534B5F 
 12836      52554E4E 
 12836      494E4700 
 12837              	.LASF360:
 12838 1eca 5072696F 		.ascii	"Prio\000"
 12838      00
 12839              	.LASF512:
 12840 1ecf 4F535461 		.ascii	"OSTaskSemPost\000"
 12840      736B5365 
 12840      6D506F73 
 12840      7400
 12841              	.LASF550:
 12842 1edd 4F535461 		.ascii	"OSTaskStkInit\000"
 12842      736B5374 
 12842      6B496E69 
 12842      7400
 12843              	.LASF216:
 12844 1eeb 4F535F45 		.ascii	"OS_ERR_OBJ_TYPE\000"
 12844      52525F4F 
 12844      424A5F54 
 12844      59504500 
 12845              	.LASF363:
 12846 1efb 53656D43 		.ascii	"SemCtr\000"
 12846      747200
 12847              	.LASF262:
 12848 1f02 4F535F45 		.ascii	"OS_ERR_TASK_CHANGE_PRIO_ISR\000"
 12848      52525F54 
 12848      41534B5F 
 12848      4348414E 
 12848      47455F50 
 12849              	.LASF444:
 12850 1f1e 4F534366 		.ascii	"OSCfg_IdleTaskStkBasePtr\000"
 12850      675F4964 
 12850      6C655461 
 12850      736B5374 
 12850      6B426173 
 12851              	.LASF291:
 12852 1f37 4F535F45 		.ascii	"OS_ERR_TICK_PRIO_INVALID\000"
 12852      52525F54 
 12852      49434B5F 
 12852      5052494F 
 12852      5F494E56 
 12853              	.LASF374:
 12854 1f50 4F535F52 		.ascii	"OS_RDY_LIST\000"
 12854      44595F4C 
 12854      49535400 
 12855              	.LASF474:
ARM GAS  C:\Users\EDULU~1.DES\AppData\Local\Temp\ccxcKTgR.s 			page 308


 12856 1f5c 4F534366 		.ascii	"OSCfg_TickWheelSize\000"
 12856      675F5469 
 12856      636B5768 
 12856      65656C53 
 12856      697A6500 
 12857              	.LASF50:
 12858 1f70 5F666E61 		.ascii	"_fnargs\000"
 12858      72677300 
 12859              	.LASF333:
 12860 1f78 4F535F49 		.ascii	"OS_INT_Q\000"
 12860      4E545F51 
 12860      00
 12861              	.LASF48:
 12862 1f81 5F5F746D 		.ascii	"__tm_isdst\000"
 12862      5F697364 
 12862      737400
 12863              	.LASF522:
 12864 1f8c 705F6E61 		.ascii	"p_name\000"
 12864      6D6500
 12865              	.LASF429:
 12866 1f93 4F535461 		.ascii	"OSTaskDbgListPtr\000"
 12866      736B4462 
 12866      674C6973 
 12866      74507472 
 12866      00
 12867              	.LASF335:
 12868 1fa4 4F535F53 		.ascii	"OS_SEM\000"
 12868      454D00
 12869              	.LASF424:
 12870 1fab 4F535374 		.ascii	"OSStatTaskCtrRun\000"
 12870      61745461 
 12870      736B4374 
 12870      7252756E 
 12870      00
 12871              	.LASF41:
 12872 1fbc 5F5F746D 		.ascii	"__tm_min\000"
 12872      5F6D696E 
 12872      00
 12873              	.LASF399:
 12874 1fc5 5264794D 		.ascii	"RdyMsgPtr\000"
 12874      73675074 
 12874      7200
 12875              	.LASF119:
 12876 1fcf 5F676574 		.ascii	"_getdate_err\000"
 12876      64617465 
 12876      5F657272 
 12876      00
 12877              	.LASF508:
 12878 1fdc 66726565 		.ascii	"free_stk\000"
 12878      5F73746B 
 12878      00
 12879              	.LASF297:
 12880 1fe5 4F535F45 		.ascii	"OS_ERR_TIME_GET_ISR\000"
 12880      52525F54 
 12880      494D455F 
 12880      4745545F 
 12880      49535200 
ARM GAS  C:\Users\EDULU~1.DES\AppData\Local\Temp\ccxcKTgR.s 			page 309


 12881              	.LASF513:
 12882 1ff9 4F535461 		.ascii	"OSTaskSemPend\000"
 12882      736B5365 
 12882      6D50656E 
 12882      6400
 12883              	.LASF246:
 12884 2007 4F535F45 		.ascii	"OS_ERR_SCHED_LOCK_ISR\000"
 12884      52525F53 
 12884      43484544 
 12884      5F4C4F43 
 12884      4B5F4953 
 12885              	.LASF554:
 12886 201d 4F535F52 		.ascii	"OS_RdyListInsertHead\000"
 12886      64794C69 
 12886      7374496E 
 12886      73657274 
 12886      48656164 
 12887              	.LASF519:
 12888 2032 4F535461 		.ascii	"OSTaskRegGetID\000"
 12888      736B5265 
 12888      67476574 
 12888      494400
 12889              		.ident	"GCC: (GNU Tools for Arm Embedded Processors 8-2018-q4-major) 8.2.1 20181213 (release) [gcc
