ARM GAS  C:\Users\EDULU~1.DES\AppData\Local\Temp\ccmSuQZN.s 			page 1


   1              		.cpu cortex-m0
   2              		.eabi_attribute 20, 1
   3              		.eabi_attribute 21, 1
   4              		.eabi_attribute 23, 3
   5              		.eabi_attribute 24, 1
   6              		.eabi_attribute 25, 1
   7              		.eabi_attribute 26, 1
   8              		.eabi_attribute 30, 1
   9              		.eabi_attribute 34, 0
  10              		.eabi_attribute 18, 4
  11              		.file	"os_tmr.c"
  12              		.text
  13              	.Ltext0:
  14              		.cfi_sections	.debug_frame
  15              		.section	.text.OSTmrRemainGet,"ax",%progbits
  16              		.align	1
  17              		.global	OSTmrRemainGet
  18              		.arch armv6s-m
  19              		.syntax unified
  20              		.code	16
  21              		.thumb_func
  22              		.fpu softvfp
  23              		.type	OSTmrRemainGet, %function
  24              	OSTmrRemainGet:
  25              	.LVL0:
  26              	.LFB4:
  27              		.file 1 "..\\..\\..\\..\\..\\..\\Software\\uCOS-III\\Source\\os_tmr.c"
   1:..\..\..\..\..\..\Software\uCOS-III\Source/os_tmr.c **** /*
   2:..\..\..\..\..\..\Software\uCOS-III\Source/os_tmr.c **** ***************************************************************************************************
   3:..\..\..\..\..\..\Software\uCOS-III\Source/os_tmr.c **** *                                                      uC/OS-III
   4:..\..\..\..\..\..\Software\uCOS-III\Source/os_tmr.c **** *                                                 The Real-Time Kernel
   5:..\..\..\..\..\..\Software\uCOS-III\Source/os_tmr.c **** *
   6:..\..\..\..\..\..\Software\uCOS-III\Source/os_tmr.c **** *                                  (c) Copyright 2009-2012; Micrium, Inc.; Weston, FL
   7:..\..\..\..\..\..\Software\uCOS-III\Source/os_tmr.c **** *                           All rights reserved.  Protected by international copyright laws.
   8:..\..\..\..\..\..\Software\uCOS-III\Source/os_tmr.c **** *
   9:..\..\..\..\..\..\Software\uCOS-III\Source/os_tmr.c **** *                                                   TIMER MANAGEMENT
  10:..\..\..\..\..\..\Software\uCOS-III\Source/os_tmr.c **** *
  11:..\..\..\..\..\..\Software\uCOS-III\Source/os_tmr.c **** * File    : OS_TMR.C
  12:..\..\..\..\..\..\Software\uCOS-III\Source/os_tmr.c **** * By      : JJL
  13:..\..\..\..\..\..\Software\uCOS-III\Source/os_tmr.c **** * Version : V3.03.01
  14:..\..\..\..\..\..\Software\uCOS-III\Source/os_tmr.c **** *
  15:..\..\..\..\..\..\Software\uCOS-III\Source/os_tmr.c **** * LICENSING TERMS:
  16:..\..\..\..\..\..\Software\uCOS-III\Source/os_tmr.c **** * ---------------
  17:..\..\..\..\..\..\Software\uCOS-III\Source/os_tmr.c **** *           uC/OS-III is provided in source form for FREE short-term evaluation, for educational us
  18:..\..\..\..\..\..\Software\uCOS-III\Source/os_tmr.c **** *           for peaceful research.  If you plan or intend to use uC/OS-III in a commercial applicat
  19:..\..\..\..\..\..\Software\uCOS-III\Source/os_tmr.c **** *           product then, you need to contact Micrium to properly license uC/OS-III for its use in 
  20:..\..\..\..\..\..\Software\uCOS-III\Source/os_tmr.c **** *           application/product.   We provide ALL the source code for your convenience and to help 
  21:..\..\..\..\..\..\Software\uCOS-III\Source/os_tmr.c **** *           experience uC/OS-III.  The fact that the source is provided does NOT mean that you can 
  22:..\..\..\..\..\..\Software\uCOS-III\Source/os_tmr.c **** *           it commercially without paying a licensing fee.
  23:..\..\..\..\..\..\Software\uCOS-III\Source/os_tmr.c **** *
  24:..\..\..\..\..\..\Software\uCOS-III\Source/os_tmr.c **** *           Knowledge of the source code may NOT be used to develop a similar product.
  25:..\..\..\..\..\..\Software\uCOS-III\Source/os_tmr.c **** *
  26:..\..\..\..\..\..\Software\uCOS-III\Source/os_tmr.c **** *           Please help us continue to provide the embedded community with the finest software avai
  27:..\..\..\..\..\..\Software\uCOS-III\Source/os_tmr.c **** *           Your honesty is greatly appreciated.
  28:..\..\..\..\..\..\Software\uCOS-III\Source/os_tmr.c **** *
  29:..\..\..\..\..\..\Software\uCOS-III\Source/os_tmr.c **** *           You can contact us at www.micrium.com, or by phone at +1 (954) 217-2036.
  30:..\..\..\..\..\..\Software\uCOS-III\Source/os_tmr.c **** ***************************************************************************************************
ARM GAS  C:\Users\EDULU~1.DES\AppData\Local\Temp\ccmSuQZN.s 			page 2


  31:..\..\..\..\..\..\Software\uCOS-III\Source/os_tmr.c **** */
  32:..\..\..\..\..\..\Software\uCOS-III\Source/os_tmr.c **** 
  33:..\..\..\..\..\..\Software\uCOS-III\Source/os_tmr.c **** #define  MICRIUM_SOURCE
  34:..\..\..\..\..\..\Software\uCOS-III\Source/os_tmr.c **** #include <os.h>
  35:..\..\..\..\..\..\Software\uCOS-III\Source/os_tmr.c **** 
  36:..\..\..\..\..\..\Software\uCOS-III\Source/os_tmr.c **** #ifdef VSC_INCLUDE_SOURCE_FILE_NAMES
  37:..\..\..\..\..\..\Software\uCOS-III\Source/os_tmr.c **** const  CPU_CHAR  *os_tmr__c = "$Id: $";
  38:..\..\..\..\..\..\Software\uCOS-III\Source/os_tmr.c **** #endif
  39:..\..\..\..\..\..\Software\uCOS-III\Source/os_tmr.c **** 
  40:..\..\..\..\..\..\Software\uCOS-III\Source/os_tmr.c **** 
  41:..\..\..\..\..\..\Software\uCOS-III\Source/os_tmr.c **** #if OS_CFG_TMR_EN > 0u
  42:..\..\..\..\..\..\Software\uCOS-III\Source/os_tmr.c **** /*
  43:..\..\..\..\..\..\Software\uCOS-III\Source/os_tmr.c **** ***************************************************************************************************
  44:..\..\..\..\..\..\Software\uCOS-III\Source/os_tmr.c **** *                                                     CONSTANTS
  45:..\..\..\..\..\..\Software\uCOS-III\Source/os_tmr.c **** ***************************************************************************************************
  46:..\..\..\..\..\..\Software\uCOS-III\Source/os_tmr.c **** */
  47:..\..\..\..\..\..\Software\uCOS-III\Source/os_tmr.c **** 
  48:..\..\..\..\..\..\Software\uCOS-III\Source/os_tmr.c **** #define  OS_OPT_LINK_DLY       (OS_OPT)(0u)
  49:..\..\..\..\..\..\Software\uCOS-III\Source/os_tmr.c **** #define  OS_OPT_LINK_PERIODIC  (OS_OPT)(1u)
  50:..\..\..\..\..\..\Software\uCOS-III\Source/os_tmr.c **** 
  51:..\..\..\..\..\..\Software\uCOS-III\Source/os_tmr.c **** /*$PAGE*/
  52:..\..\..\..\..\..\Software\uCOS-III\Source/os_tmr.c **** /*
  53:..\..\..\..\..\..\Software\uCOS-III\Source/os_tmr.c **** ***************************************************************************************************
  54:..\..\..\..\..\..\Software\uCOS-III\Source/os_tmr.c **** *                                                   CREATE A TIMER
  55:..\..\..\..\..\..\Software\uCOS-III\Source/os_tmr.c **** *
  56:..\..\..\..\..\..\Software\uCOS-III\Source/os_tmr.c **** * Description: This function is called by your application code to create a timer.
  57:..\..\..\..\..\..\Software\uCOS-III\Source/os_tmr.c **** *
  58:..\..\..\..\..\..\Software\uCOS-III\Source/os_tmr.c **** * Arguments  : p_tmr           Is a pointer to a timer control block
  59:..\..\..\..\..\..\Software\uCOS-III\Source/os_tmr.c **** *
  60:..\..\..\..\..\..\Software\uCOS-III\Source/os_tmr.c **** *              p_name          Is a pointer to an ASCII string that is used to name the timer.  Nam
  61:..\..\..\..\..\..\Software\uCOS-III\Source/os_tmr.c **** *                              debugging.
  62:..\..\..\..\..\..\Software\uCOS-III\Source/os_tmr.c **** *
  63:..\..\..\..\..\..\Software\uCOS-III\Source/os_tmr.c **** *              dly             Initial delay.
  64:..\..\..\..\..\..\Software\uCOS-III\Source/os_tmr.c **** *                              If the timer is configured for ONE-SHOT mode, this is the timeout us
  65:..\..\..\..\..\..\Software\uCOS-III\Source/os_tmr.c **** *                              If the timer is configured for PERIODIC mode, this is the first time
  66:..\..\..\..\..\..\Software\uCOS-III\Source/os_tmr.c **** *                              before the timer starts entering periodic mode
  67:..\..\..\..\..\..\Software\uCOS-III\Source/os_tmr.c **** *
  68:..\..\..\..\..\..\Software\uCOS-III\Source/os_tmr.c **** *              period          The 'period' being repeated for the timer.
  69:..\..\..\..\..\..\Software\uCOS-III\Source/os_tmr.c **** *                              If you specified 'OS_OPT_TMR_PERIODIC' as an option, when the timer 
  70:..\..\..\..\..\..\Software\uCOS-III\Source/os_tmr.c **** *                              automatically restart with the same period.
  71:..\..\..\..\..\..\Software\uCOS-III\Source/os_tmr.c **** *
  72:..\..\..\..\..\..\Software\uCOS-III\Source/os_tmr.c **** *              opt             Specifies either:
  73:..\..\..\..\..\..\Software\uCOS-III\Source/os_tmr.c **** *
  74:..\..\..\..\..\..\Software\uCOS-III\Source/os_tmr.c **** *                                  OS_OPT_TMR_ONE_SHOT       The timer counts down only once
  75:..\..\..\..\..\..\Software\uCOS-III\Source/os_tmr.c **** *                                  OS_OPT_TMR_PERIODIC       The timer counts down and then reloads
  76:..\..\..\..\..\..\Software\uCOS-III\Source/os_tmr.c **** *
  77:..\..\..\..\..\..\Software\uCOS-III\Source/os_tmr.c **** *              p_callback      Is a pointer to a callback function that will be called when the tim
  78:..\..\..\..\..\..\Software\uCOS-III\Source/os_tmr.c **** *                              callback function must be declared as follows:
  79:..\..\..\..\..\..\Software\uCOS-III\Source/os_tmr.c **** *
  80:..\..\..\..\..\..\Software\uCOS-III\Source/os_tmr.c **** *                                  void  MyCallback (OS_TMR *p_tmr, void *p_arg);
  81:..\..\..\..\..\..\Software\uCOS-III\Source/os_tmr.c **** *
  82:..\..\..\..\..\..\Software\uCOS-III\Source/os_tmr.c **** *              p_callback_arg  Is an argument (a pointer) that is passed to the callback function w
  83:..\..\..\..\..\..\Software\uCOS-III\Source/os_tmr.c **** *
  84:..\..\..\..\..\..\Software\uCOS-III\Source/os_tmr.c **** *              p_err           Is a pointer to an error code.  '*p_err' will contain one of the fol
  85:..\..\..\..\..\..\Software\uCOS-III\Source/os_tmr.c **** *
  86:..\..\..\..\..\..\Software\uCOS-III\Source/os_tmr.c **** *                                 OS_ERR_NONE
  87:..\..\..\..\..\..\Software\uCOS-III\Source/os_tmr.c **** *                                 OS_ERR_ILLEGAL_CREATE_RUN_TIME if you are trying to create the ti
ARM GAS  C:\Users\EDULU~1.DES\AppData\Local\Temp\ccmSuQZN.s 			page 3


  88:..\..\..\..\..\..\Software\uCOS-III\Source/os_tmr.c **** *                                                                  OSSafetyCriticalStart().
  89:..\..\..\..\..\..\Software\uCOS-III\Source/os_tmr.c **** *                                 OS_ERR_OBJ_CREATED             if the timer has already been crea
  90:..\..\..\..\..\..\Software\uCOS-III\Source/os_tmr.c **** *                                 OS_ERR_OBJ_PTR_NULL            is 'p_tmr' is a NULL pointer
  91:..\..\..\..\..\..\Software\uCOS-III\Source/os_tmr.c **** *                                 OS_ERR_OBJ_TYPE                if the object type is invalid
  92:..\..\..\..\..\..\Software\uCOS-III\Source/os_tmr.c **** *                                 OS_ERR_OPT_INVALID             you specified an invalid option
  93:..\..\..\..\..\..\Software\uCOS-III\Source/os_tmr.c **** *                                 OS_ERR_TMR_INVALID_DLY         you specified an invalid delay
  94:..\..\..\..\..\..\Software\uCOS-III\Source/os_tmr.c **** *                                 OS_ERR_TMR_INVALID_PERIOD      you specified an invalid period
  95:..\..\..\..\..\..\Software\uCOS-III\Source/os_tmr.c **** *                                 OS_ERR_TMR_ISR                 if the call was made from an ISR
  96:..\..\..\..\..\..\Software\uCOS-III\Source/os_tmr.c **** *
  97:..\..\..\..\..\..\Software\uCOS-III\Source/os_tmr.c **** * Returns    : none
  98:..\..\..\..\..\..\Software\uCOS-III\Source/os_tmr.c **** *
  99:..\..\..\..\..\..\Software\uCOS-III\Source/os_tmr.c **** * Note(s)    : 1) This function only creates the timer.  In other words, the timer is not started w
 100:..\..\..\..\..\..\Software\uCOS-III\Source/os_tmr.c **** *                 start the timer, call OSTmrStart().
 101:..\..\..\..\..\..\Software\uCOS-III\Source/os_tmr.c **** ***************************************************************************************************
 102:..\..\..\..\..\..\Software\uCOS-III\Source/os_tmr.c **** */
 103:..\..\..\..\..\..\Software\uCOS-III\Source/os_tmr.c **** 
 104:..\..\..\..\..\..\Software\uCOS-III\Source/os_tmr.c **** void  OSTmrCreate (OS_TMR               *p_tmr,
 105:..\..\..\..\..\..\Software\uCOS-III\Source/os_tmr.c ****                    CPU_CHAR             *p_name,
 106:..\..\..\..\..\..\Software\uCOS-III\Source/os_tmr.c ****                    OS_TICK               dly,
 107:..\..\..\..\..\..\Software\uCOS-III\Source/os_tmr.c ****                    OS_TICK               period,
 108:..\..\..\..\..\..\Software\uCOS-III\Source/os_tmr.c ****                    OS_OPT                opt,
 109:..\..\..\..\..\..\Software\uCOS-III\Source/os_tmr.c ****                    OS_TMR_CALLBACK_PTR   p_callback,
 110:..\..\..\..\..\..\Software\uCOS-III\Source/os_tmr.c ****                    void                 *p_callback_arg,
 111:..\..\..\..\..\..\Software\uCOS-III\Source/os_tmr.c ****                    OS_ERR               *p_err)
 112:..\..\..\..\..\..\Software\uCOS-III\Source/os_tmr.c **** {
 113:..\..\..\..\..\..\Software\uCOS-III\Source/os_tmr.c ****     CPU_SR_ALLOC();
 114:..\..\..\..\..\..\Software\uCOS-III\Source/os_tmr.c **** 
 115:..\..\..\..\..\..\Software\uCOS-III\Source/os_tmr.c **** 
 116:..\..\..\..\..\..\Software\uCOS-III\Source/os_tmr.c **** 
 117:..\..\..\..\..\..\Software\uCOS-III\Source/os_tmr.c **** #ifdef OS_SAFETY_CRITICAL
 118:..\..\..\..\..\..\Software\uCOS-III\Source/os_tmr.c ****     if (p_err == (OS_ERR *)0) {
 119:..\..\..\..\..\..\Software\uCOS-III\Source/os_tmr.c ****         OS_SAFETY_CRITICAL_EXCEPTION();
 120:..\..\..\..\..\..\Software\uCOS-III\Source/os_tmr.c ****         return;
 121:..\..\..\..\..\..\Software\uCOS-III\Source/os_tmr.c ****     }
 122:..\..\..\..\..\..\Software\uCOS-III\Source/os_tmr.c **** #endif
 123:..\..\..\..\..\..\Software\uCOS-III\Source/os_tmr.c **** 
 124:..\..\..\..\..\..\Software\uCOS-III\Source/os_tmr.c **** #ifdef OS_SAFETY_CRITICAL_IEC61508
 125:..\..\..\..\..\..\Software\uCOS-III\Source/os_tmr.c ****     if (OSSafetyCriticalStartFlag == DEF_TRUE) {
 126:..\..\..\..\..\..\Software\uCOS-III\Source/os_tmr.c ****        *p_err = OS_ERR_ILLEGAL_CREATE_RUN_TIME;
 127:..\..\..\..\..\..\Software\uCOS-III\Source/os_tmr.c ****         return;
 128:..\..\..\..\..\..\Software\uCOS-III\Source/os_tmr.c ****     }
 129:..\..\..\..\..\..\Software\uCOS-III\Source/os_tmr.c **** #endif
 130:..\..\..\..\..\..\Software\uCOS-III\Source/os_tmr.c **** 
 131:..\..\..\..\..\..\Software\uCOS-III\Source/os_tmr.c **** #if OS_CFG_CALLED_FROM_ISR_CHK_EN > 0u
 132:..\..\..\..\..\..\Software\uCOS-III\Source/os_tmr.c ****     if (OSIntNestingCtr > (OS_NESTING_CTR)0) {              /* See if trying to call from an ISR   
 133:..\..\..\..\..\..\Software\uCOS-III\Source/os_tmr.c ****        *p_err = OS_ERR_TMR_ISR;
 134:..\..\..\..\..\..\Software\uCOS-III\Source/os_tmr.c ****         return;
 135:..\..\..\..\..\..\Software\uCOS-III\Source/os_tmr.c ****     }
 136:..\..\..\..\..\..\Software\uCOS-III\Source/os_tmr.c **** #endif
 137:..\..\..\..\..\..\Software\uCOS-III\Source/os_tmr.c **** 
 138:..\..\..\..\..\..\Software\uCOS-III\Source/os_tmr.c **** #if OS_CFG_ARG_CHK_EN > 0u
 139:..\..\..\..\..\..\Software\uCOS-III\Source/os_tmr.c ****     if (p_tmr == (OS_TMR *)0) {                             /* Validate 'p_tmr'                    
 140:..\..\..\..\..\..\Software\uCOS-III\Source/os_tmr.c ****        *p_err = OS_ERR_OBJ_PTR_NULL;
 141:..\..\..\..\..\..\Software\uCOS-III\Source/os_tmr.c ****         return;
 142:..\..\..\..\..\..\Software\uCOS-III\Source/os_tmr.c ****     }
 143:..\..\..\..\..\..\Software\uCOS-III\Source/os_tmr.c **** 
 144:..\..\..\..\..\..\Software\uCOS-III\Source/os_tmr.c ****     switch (opt) {
ARM GAS  C:\Users\EDULU~1.DES\AppData\Local\Temp\ccmSuQZN.s 			page 4


 145:..\..\..\..\..\..\Software\uCOS-III\Source/os_tmr.c ****         case OS_OPT_TMR_PERIODIC:
 146:..\..\..\..\..\..\Software\uCOS-III\Source/os_tmr.c ****              if (period == (OS_TICK)0) {
 147:..\..\..\..\..\..\Software\uCOS-III\Source/os_tmr.c ****                 *p_err = OS_ERR_TMR_INVALID_PERIOD;
 148:..\..\..\..\..\..\Software\uCOS-III\Source/os_tmr.c ****                  return;
 149:..\..\..\..\..\..\Software\uCOS-III\Source/os_tmr.c ****              }
 150:..\..\..\..\..\..\Software\uCOS-III\Source/os_tmr.c ****              break;
 151:..\..\..\..\..\..\Software\uCOS-III\Source/os_tmr.c **** 
 152:..\..\..\..\..\..\Software\uCOS-III\Source/os_tmr.c ****         case OS_OPT_TMR_ONE_SHOT:
 153:..\..\..\..\..\..\Software\uCOS-III\Source/os_tmr.c ****              if (dly == (OS_TICK)0) {
 154:..\..\..\..\..\..\Software\uCOS-III\Source/os_tmr.c ****                 *p_err = OS_ERR_TMR_INVALID_DLY;
 155:..\..\..\..\..\..\Software\uCOS-III\Source/os_tmr.c ****                  return;
 156:..\..\..\..\..\..\Software\uCOS-III\Source/os_tmr.c ****              }
 157:..\..\..\..\..\..\Software\uCOS-III\Source/os_tmr.c ****              break;
 158:..\..\..\..\..\..\Software\uCOS-III\Source/os_tmr.c **** 
 159:..\..\..\..\..\..\Software\uCOS-III\Source/os_tmr.c ****         default:
 160:..\..\..\..\..\..\Software\uCOS-III\Source/os_tmr.c ****             *p_err = OS_ERR_OPT_INVALID;
 161:..\..\..\..\..\..\Software\uCOS-III\Source/os_tmr.c ****              return;
 162:..\..\..\..\..\..\Software\uCOS-III\Source/os_tmr.c ****     }
 163:..\..\..\..\..\..\Software\uCOS-III\Source/os_tmr.c **** #endif
 164:..\..\..\..\..\..\Software\uCOS-III\Source/os_tmr.c **** 
 165:..\..\..\..\..\..\Software\uCOS-III\Source/os_tmr.c ****     OS_CRITICAL_ENTER();
 166:..\..\..\..\..\..\Software\uCOS-III\Source/os_tmr.c ****     p_tmr->State          = (OS_STATE           )OS_TMR_STATE_STOPPED;     /* Initialize the timer 
 167:..\..\..\..\..\..\Software\uCOS-III\Source/os_tmr.c ****     p_tmr->Type           = (OS_OBJ_TYPE        )OS_OBJ_TYPE_TMR;
 168:..\..\..\..\..\..\Software\uCOS-III\Source/os_tmr.c ****     p_tmr->NamePtr        = (CPU_CHAR          *)p_name;
 169:..\..\..\..\..\..\Software\uCOS-III\Source/os_tmr.c ****     p_tmr->Dly            = (OS_TICK            )dly;
 170:..\..\..\..\..\..\Software\uCOS-III\Source/os_tmr.c ****     p_tmr->Match          = (OS_TICK            )0;
 171:..\..\..\..\..\..\Software\uCOS-III\Source/os_tmr.c ****     p_tmr->Remain         = (OS_TICK            )0;
 172:..\..\..\..\..\..\Software\uCOS-III\Source/os_tmr.c ****     p_tmr->Period         = (OS_TICK            )period;
 173:..\..\..\..\..\..\Software\uCOS-III\Source/os_tmr.c ****     p_tmr->Opt            = (OS_OPT             )opt;
 174:..\..\..\..\..\..\Software\uCOS-III\Source/os_tmr.c ****     p_tmr->CallbackPtr    = (OS_TMR_CALLBACK_PTR)p_callback;
 175:..\..\..\..\..\..\Software\uCOS-III\Source/os_tmr.c ****     p_tmr->CallbackPtrArg = (void              *)p_callback_arg;
 176:..\..\..\..\..\..\Software\uCOS-III\Source/os_tmr.c ****     p_tmr->NextPtr        = (OS_TMR            *)0;
 177:..\..\..\..\..\..\Software\uCOS-III\Source/os_tmr.c ****     p_tmr->PrevPtr        = (OS_TMR            *)0;
 178:..\..\..\..\..\..\Software\uCOS-III\Source/os_tmr.c **** 
 179:..\..\..\..\..\..\Software\uCOS-III\Source/os_tmr.c **** #if OS_CFG_DBG_EN > 0u
 180:..\..\..\..\..\..\Software\uCOS-III\Source/os_tmr.c ****     OS_TmrDbgListAdd(p_tmr);
 181:..\..\..\..\..\..\Software\uCOS-III\Source/os_tmr.c **** #endif
 182:..\..\..\..\..\..\Software\uCOS-III\Source/os_tmr.c ****     OSTmrQty++;                                             /* Keep track of the number of timers c
 183:..\..\..\..\..\..\Software\uCOS-III\Source/os_tmr.c **** 
 184:..\..\..\..\..\..\Software\uCOS-III\Source/os_tmr.c ****     OS_CRITICAL_EXIT_NO_SCHED();
 185:..\..\..\..\..\..\Software\uCOS-III\Source/os_tmr.c ****    *p_err = OS_ERR_NONE;
 186:..\..\..\..\..\..\Software\uCOS-III\Source/os_tmr.c **** }
 187:..\..\..\..\..\..\Software\uCOS-III\Source/os_tmr.c **** 
 188:..\..\..\..\..\..\Software\uCOS-III\Source/os_tmr.c **** /*$PAGE*/
 189:..\..\..\..\..\..\Software\uCOS-III\Source/os_tmr.c **** /*
 190:..\..\..\..\..\..\Software\uCOS-III\Source/os_tmr.c **** ***************************************************************************************************
 191:..\..\..\..\..\..\Software\uCOS-III\Source/os_tmr.c **** *                                                   DELETE A TIMER
 192:..\..\..\..\..\..\Software\uCOS-III\Source/os_tmr.c **** *
 193:..\..\..\..\..\..\Software\uCOS-III\Source/os_tmr.c **** * Description: This function is called by your application code to delete a timer.
 194:..\..\..\..\..\..\Software\uCOS-III\Source/os_tmr.c **** *
 195:..\..\..\..\..\..\Software\uCOS-III\Source/os_tmr.c **** * Arguments  : p_tmr          Is a pointer to the timer to stop and delete.
 196:..\..\..\..\..\..\Software\uCOS-III\Source/os_tmr.c **** *
 197:..\..\..\..\..\..\Software\uCOS-III\Source/os_tmr.c **** *              p_err          Is a pointer to an error code.  '*p_err' will contain one of the foll
 198:..\..\..\..\..\..\Software\uCOS-III\Source/os_tmr.c **** *
 199:..\..\..\..\..\..\Software\uCOS-III\Source/os_tmr.c **** *                                 OS_ERR_NONE
 200:..\..\..\..\..\..\Software\uCOS-III\Source/os_tmr.c **** *                                 OS_ERR_OBJ_TYPE             'p_tmr' is not pointing to a timer
 201:..\..\..\..\..\..\Software\uCOS-III\Source/os_tmr.c **** *                                 OS_ERR_TMR_INVALID          'p_tmr' is a NULL pointer
ARM GAS  C:\Users\EDULU~1.DES\AppData\Local\Temp\ccmSuQZN.s 			page 5


 202:..\..\..\..\..\..\Software\uCOS-III\Source/os_tmr.c **** *                                 OS_ERR_TMR_ISR              if the function was called from an IS
 203:..\..\..\..\..\..\Software\uCOS-III\Source/os_tmr.c **** *                                 OS_ERR_TMR_INACTIVE         if the timer was not created
 204:..\..\..\..\..\..\Software\uCOS-III\Source/os_tmr.c **** *                                 OS_ERR_TMR_INVALID_STATE    the timer is in an invalid state
 205:..\..\..\..\..\..\Software\uCOS-III\Source/os_tmr.c **** *
 206:..\..\..\..\..\..\Software\uCOS-III\Source/os_tmr.c **** * Returns    : DEF_TRUE   if the timer was deleted
 207:..\..\..\..\..\..\Software\uCOS-III\Source/os_tmr.c **** *              DEF_FALSE  if not or upon an error
 208:..\..\..\..\..\..\Software\uCOS-III\Source/os_tmr.c **** ***************************************************************************************************
 209:..\..\..\..\..\..\Software\uCOS-III\Source/os_tmr.c **** */
 210:..\..\..\..\..\..\Software\uCOS-III\Source/os_tmr.c **** 
 211:..\..\..\..\..\..\Software\uCOS-III\Source/os_tmr.c **** #if OS_CFG_TMR_DEL_EN > 0u
 212:..\..\..\..\..\..\Software\uCOS-III\Source/os_tmr.c **** CPU_BOOLEAN  OSTmrDel (OS_TMR  *p_tmr,
 213:..\..\..\..\..\..\Software\uCOS-III\Source/os_tmr.c ****                        OS_ERR  *p_err)
 214:..\..\..\..\..\..\Software\uCOS-III\Source/os_tmr.c **** {
 215:..\..\..\..\..\..\Software\uCOS-III\Source/os_tmr.c ****     OS_ERR       err;
 216:..\..\..\..\..\..\Software\uCOS-III\Source/os_tmr.c ****     CPU_BOOLEAN  success;
 217:..\..\..\..\..\..\Software\uCOS-III\Source/os_tmr.c **** 
 218:..\..\..\..\..\..\Software\uCOS-III\Source/os_tmr.c **** 
 219:..\..\..\..\..\..\Software\uCOS-III\Source/os_tmr.c **** 
 220:..\..\..\..\..\..\Software\uCOS-III\Source/os_tmr.c **** #ifdef OS_SAFETY_CRITICAL
 221:..\..\..\..\..\..\Software\uCOS-III\Source/os_tmr.c ****     if (p_err == (OS_ERR *)0) {
 222:..\..\..\..\..\..\Software\uCOS-III\Source/os_tmr.c ****         OS_SAFETY_CRITICAL_EXCEPTION();
 223:..\..\..\..\..\..\Software\uCOS-III\Source/os_tmr.c ****         return (DEF_FALSE);
 224:..\..\..\..\..\..\Software\uCOS-III\Source/os_tmr.c ****     }
 225:..\..\..\..\..\..\Software\uCOS-III\Source/os_tmr.c **** #endif
 226:..\..\..\..\..\..\Software\uCOS-III\Source/os_tmr.c **** 
 227:..\..\..\..\..\..\Software\uCOS-III\Source/os_tmr.c **** #if OS_CFG_CALLED_FROM_ISR_CHK_EN > 0u
 228:..\..\..\..\..\..\Software\uCOS-III\Source/os_tmr.c ****     if (OSIntNestingCtr > (OS_NESTING_CTR)0) {              /* See if trying to call from an ISR   
 229:..\..\..\..\..\..\Software\uCOS-III\Source/os_tmr.c ****        *p_err  = OS_ERR_TMR_ISR;
 230:..\..\..\..\..\..\Software\uCOS-III\Source/os_tmr.c ****         return (DEF_FALSE);
 231:..\..\..\..\..\..\Software\uCOS-III\Source/os_tmr.c ****     }
 232:..\..\..\..\..\..\Software\uCOS-III\Source/os_tmr.c **** #endif
 233:..\..\..\..\..\..\Software\uCOS-III\Source/os_tmr.c **** 
 234:..\..\..\..\..\..\Software\uCOS-III\Source/os_tmr.c **** #if OS_CFG_ARG_CHK_EN > 0u
 235:..\..\..\..\..\..\Software\uCOS-III\Source/os_tmr.c ****     if (p_tmr == (OS_TMR *)0) {
 236:..\..\..\..\..\..\Software\uCOS-III\Source/os_tmr.c ****        *p_err = OS_ERR_TMR_INVALID;
 237:..\..\..\..\..\..\Software\uCOS-III\Source/os_tmr.c ****         return (DEF_FALSE);
 238:..\..\..\..\..\..\Software\uCOS-III\Source/os_tmr.c ****     }
 239:..\..\..\..\..\..\Software\uCOS-III\Source/os_tmr.c **** #endif
 240:..\..\..\..\..\..\Software\uCOS-III\Source/os_tmr.c **** 
 241:..\..\..\..\..\..\Software\uCOS-III\Source/os_tmr.c **** #if OS_CFG_OBJ_TYPE_CHK_EN > 0u
 242:..\..\..\..\..\..\Software\uCOS-III\Source/os_tmr.c ****     if (p_tmr->Type != OS_OBJ_TYPE_TMR) {                   /* Make sure timer was created         
 243:..\..\..\..\..\..\Software\uCOS-III\Source/os_tmr.c ****        *p_err = OS_ERR_OBJ_TYPE;
 244:..\..\..\..\..\..\Software\uCOS-III\Source/os_tmr.c ****         return (DEF_FALSE);
 245:..\..\..\..\..\..\Software\uCOS-III\Source/os_tmr.c ****     }
 246:..\..\..\..\..\..\Software\uCOS-III\Source/os_tmr.c **** #endif
 247:..\..\..\..\..\..\Software\uCOS-III\Source/os_tmr.c **** 
 248:..\..\..\..\..\..\Software\uCOS-III\Source/os_tmr.c ****     OSSchedLock(&err);
 249:..\..\..\..\..\..\Software\uCOS-III\Source/os_tmr.c **** #if OS_CFG_DBG_EN > 0u
 250:..\..\..\..\..\..\Software\uCOS-III\Source/os_tmr.c ****     OS_TmrDbgListRemove(p_tmr);
 251:..\..\..\..\..\..\Software\uCOS-III\Source/os_tmr.c **** #endif
 252:..\..\..\..\..\..\Software\uCOS-III\Source/os_tmr.c ****     OSTmrQty--;                                             /* One less timer                      
 253:..\..\..\..\..\..\Software\uCOS-III\Source/os_tmr.c **** 
 254:..\..\..\..\..\..\Software\uCOS-III\Source/os_tmr.c ****     switch (p_tmr->State) {
 255:..\..\..\..\..\..\Software\uCOS-III\Source/os_tmr.c ****         case OS_TMR_STATE_RUNNING:
 256:..\..\..\..\..\..\Software\uCOS-III\Source/os_tmr.c ****              OS_TmrUnlink(p_tmr);                           /* Remove from current wheel spoke     
 257:..\..\..\..\..\..\Software\uCOS-III\Source/os_tmr.c ****              OS_TmrClr(p_tmr);
 258:..\..\..\..\..\..\Software\uCOS-III\Source/os_tmr.c ****              OSSchedUnlock(&err);
ARM GAS  C:\Users\EDULU~1.DES\AppData\Local\Temp\ccmSuQZN.s 			page 6


 259:..\..\..\..\..\..\Software\uCOS-III\Source/os_tmr.c ****             *p_err   = OS_ERR_NONE;
 260:..\..\..\..\..\..\Software\uCOS-III\Source/os_tmr.c ****              success = DEF_TRUE;
 261:..\..\..\..\..\..\Software\uCOS-III\Source/os_tmr.c ****              break;
 262:..\..\..\..\..\..\Software\uCOS-III\Source/os_tmr.c **** 
 263:..\..\..\..\..\..\Software\uCOS-III\Source/os_tmr.c ****         case OS_TMR_STATE_STOPPED:                          /* Timer has not started or ...        
 264:..\..\..\..\..\..\Software\uCOS-III\Source/os_tmr.c ****         case OS_TMR_STATE_COMPLETED:                        /* ... timer has completed the ONE-SHOT
 265:..\..\..\..\..\..\Software\uCOS-III\Source/os_tmr.c ****              OS_TmrClr(p_tmr);                              /* Clear timer fields                  
 266:..\..\..\..\..\..\Software\uCOS-III\Source/os_tmr.c ****              OSSchedUnlock(&err);
 267:..\..\..\..\..\..\Software\uCOS-III\Source/os_tmr.c ****             *p_err   = OS_ERR_NONE;
 268:..\..\..\..\..\..\Software\uCOS-III\Source/os_tmr.c ****              success = DEF_TRUE;
 269:..\..\..\..\..\..\Software\uCOS-III\Source/os_tmr.c ****              break;
 270:..\..\..\..\..\..\Software\uCOS-III\Source/os_tmr.c ****              
 271:..\..\..\..\..\..\Software\uCOS-III\Source/os_tmr.c ****         case OS_TMR_STATE_UNUSED:                           /* Already deleted                     
 272:..\..\..\..\..\..\Software\uCOS-III\Source/os_tmr.c ****              OSSchedUnlock(&err);
 273:..\..\..\..\..\..\Software\uCOS-III\Source/os_tmr.c ****             *p_err   = OS_ERR_TMR_INACTIVE;
 274:..\..\..\..\..\..\Software\uCOS-III\Source/os_tmr.c ****              success = DEF_FALSE;
 275:..\..\..\..\..\..\Software\uCOS-III\Source/os_tmr.c ****              break;
 276:..\..\..\..\..\..\Software\uCOS-III\Source/os_tmr.c **** 
 277:..\..\..\..\..\..\Software\uCOS-III\Source/os_tmr.c ****         default:
 278:..\..\..\..\..\..\Software\uCOS-III\Source/os_tmr.c ****              OSSchedUnlock(&err);
 279:..\..\..\..\..\..\Software\uCOS-III\Source/os_tmr.c ****             *p_err   = OS_ERR_TMR_INVALID_STATE;
 280:..\..\..\..\..\..\Software\uCOS-III\Source/os_tmr.c ****              success = DEF_FALSE;
 281:..\..\..\..\..\..\Software\uCOS-III\Source/os_tmr.c ****              break;
 282:..\..\..\..\..\..\Software\uCOS-III\Source/os_tmr.c ****     }
 283:..\..\..\..\..\..\Software\uCOS-III\Source/os_tmr.c ****     return (success);
 284:..\..\..\..\..\..\Software\uCOS-III\Source/os_tmr.c **** }
 285:..\..\..\..\..\..\Software\uCOS-III\Source/os_tmr.c **** #endif
 286:..\..\..\..\..\..\Software\uCOS-III\Source/os_tmr.c **** 
 287:..\..\..\..\..\..\Software\uCOS-III\Source/os_tmr.c **** /*$PAGE*/
 288:..\..\..\..\..\..\Software\uCOS-III\Source/os_tmr.c **** /*
 289:..\..\..\..\..\..\Software\uCOS-III\Source/os_tmr.c **** ***************************************************************************************************
 290:..\..\..\..\..\..\Software\uCOS-III\Source/os_tmr.c **** *                                    GET HOW MUCH TIME IS LEFT BEFORE A TIMER EXPIRES
 291:..\..\..\..\..\..\Software\uCOS-III\Source/os_tmr.c **** *
 292:..\..\..\..\..\..\Software\uCOS-III\Source/os_tmr.c **** * Description: This function is called to get the number of ticks before a timer times out.
 293:..\..\..\..\..\..\Software\uCOS-III\Source/os_tmr.c **** *
 294:..\..\..\..\..\..\Software\uCOS-III\Source/os_tmr.c **** * Arguments  : p_tmr    Is a pointer to the timer to obtain the remaining time from.
 295:..\..\..\..\..\..\Software\uCOS-III\Source/os_tmr.c **** *
 296:..\..\..\..\..\..\Software\uCOS-III\Source/os_tmr.c **** *              p_err    Is a pointer to an error code.  '*p_err' will contain one of the following:
 297:..\..\..\..\..\..\Software\uCOS-III\Source/os_tmr.c **** *
 298:..\..\..\..\..\..\Software\uCOS-III\Source/os_tmr.c **** *                           OS_ERR_NONE
 299:..\..\..\..\..\..\Software\uCOS-III\Source/os_tmr.c **** *                           OS_ERR_OBJ_TYPE           'p_tmr' is not pointing to a timer
 300:..\..\..\..\..\..\Software\uCOS-III\Source/os_tmr.c **** *                           OS_ERR_TMR_INVALID        'p_tmr' is a NULL pointer
 301:..\..\..\..\..\..\Software\uCOS-III\Source/os_tmr.c **** *                           OS_ERR_TMR_ISR            if the call was made from an ISR
 302:..\..\..\..\..\..\Software\uCOS-III\Source/os_tmr.c **** *                           OS_ERR_TMR_INACTIVE       'p_tmr' points to a timer that is not active
 303:..\..\..\..\..\..\Software\uCOS-III\Source/os_tmr.c **** *                           OS_ERR_TMR_INVALID_STATE  the timer is in an invalid state
 304:..\..\..\..\..\..\Software\uCOS-III\Source/os_tmr.c **** *
 305:..\..\..\..\..\..\Software\uCOS-III\Source/os_tmr.c **** * Returns    : The time remaining for the timer to expire.  The time represents 'timer' increments.
 306:..\..\..\..\..\..\Software\uCOS-III\Source/os_tmr.c **** *              OS_TmrTask() is signaled every 1/10 of a second then the returned value represents t
 307:..\..\..\..\..\..\Software\uCOS-III\Source/os_tmr.c **** *              a second remaining before the timer expires.
 308:..\..\..\..\..\..\Software\uCOS-III\Source/os_tmr.c **** ***************************************************************************************************
 309:..\..\..\..\..\..\Software\uCOS-III\Source/os_tmr.c **** */
 310:..\..\..\..\..\..\Software\uCOS-III\Source/os_tmr.c **** 
 311:..\..\..\..\..\..\Software\uCOS-III\Source/os_tmr.c **** OS_TICK  OSTmrRemainGet (OS_TMR  *p_tmr,
 312:..\..\..\..\..\..\Software\uCOS-III\Source/os_tmr.c ****                          OS_ERR  *p_err)
 313:..\..\..\..\..\..\Software\uCOS-III\Source/os_tmr.c **** {
  28              		.loc 1 313 1 view -0
  29              		.cfi_startproc
ARM GAS  C:\Users\EDULU~1.DES\AppData\Local\Temp\ccmSuQZN.s 			page 7


  30              		@ args = 0, pretend = 0, frame = 8
  31              		@ frame_needed = 0, uses_anonymous_args = 0
  32              		.loc 1 313 1 is_stmt 0 view .LVU1
  33 0000 70B5     		push	{r4, r5, r6, lr}
  34              		.cfi_def_cfa_offset 16
  35              		.cfi_offset 4, -16
  36              		.cfi_offset 5, -12
  37              		.cfi_offset 6, -8
  38              		.cfi_offset 14, -4
  39 0002 82B0     		sub	sp, sp, #8
  40              		.cfi_def_cfa_offset 24
  41 0004 0400     		movs	r4, r0
  42 0006 0E00     		movs	r6, r1
 314:..\..\..\..\..\..\Software\uCOS-III\Source/os_tmr.c ****     OS_TICK  remain;
  43              		.loc 1 314 5 is_stmt 1 view .LVU2
 315:..\..\..\..\..\..\Software\uCOS-III\Source/os_tmr.c ****     OS_ERR   err;
  44              		.loc 1 315 5 view .LVU3
 316:..\..\..\..\..\..\Software\uCOS-III\Source/os_tmr.c **** 
 317:..\..\..\..\..\..\Software\uCOS-III\Source/os_tmr.c **** 
 318:..\..\..\..\..\..\Software\uCOS-III\Source/os_tmr.c **** 
 319:..\..\..\..\..\..\Software\uCOS-III\Source/os_tmr.c **** #ifdef OS_SAFETY_CRITICAL
 320:..\..\..\..\..\..\Software\uCOS-III\Source/os_tmr.c ****     if (p_err == (OS_ERR *)0) {
 321:..\..\..\..\..\..\Software\uCOS-III\Source/os_tmr.c ****         OS_SAFETY_CRITICAL_EXCEPTION();
 322:..\..\..\..\..\..\Software\uCOS-III\Source/os_tmr.c ****         return ((OS_TICK)0);
 323:..\..\..\..\..\..\Software\uCOS-III\Source/os_tmr.c ****     }
 324:..\..\..\..\..\..\Software\uCOS-III\Source/os_tmr.c **** #endif
 325:..\..\..\..\..\..\Software\uCOS-III\Source/os_tmr.c **** 
 326:..\..\..\..\..\..\Software\uCOS-III\Source/os_tmr.c **** #if OS_CFG_CALLED_FROM_ISR_CHK_EN > 0u
 327:..\..\..\..\..\..\Software\uCOS-III\Source/os_tmr.c ****     if (OSIntNestingCtr > (OS_NESTING_CTR)0) {              /* See if trying to call from an ISR   
  45              		.loc 1 327 5 view .LVU4
  46              		.loc 1 327 25 is_stmt 0 view .LVU5
  47 0008 294B     		ldr	r3, .L16
  48 000a 1B78     		ldrb	r3, [r3]
  49              		.loc 1 327 8 view .LVU6
  50 000c 002B     		cmp	r3, #0
  51 000e 17D1     		bne	.L13
 328:..\..\..\..\..\..\Software\uCOS-III\Source/os_tmr.c ****        *p_err = OS_ERR_TMR_ISR;
 329:..\..\..\..\..\..\Software\uCOS-III\Source/os_tmr.c ****         return ((OS_TICK)0);
 330:..\..\..\..\..\..\Software\uCOS-III\Source/os_tmr.c ****     }
 331:..\..\..\..\..\..\Software\uCOS-III\Source/os_tmr.c **** #endif
 332:..\..\..\..\..\..\Software\uCOS-III\Source/os_tmr.c **** 
 333:..\..\..\..\..\..\Software\uCOS-III\Source/os_tmr.c **** #if OS_CFG_ARG_CHK_EN > 0u
 334:..\..\..\..\..\..\Software\uCOS-III\Source/os_tmr.c ****     if (p_tmr == (OS_TMR *)0) {
  52              		.loc 1 334 5 is_stmt 1 view .LVU7
  53              		.loc 1 334 8 is_stmt 0 view .LVU8
  54 0010 0028     		cmp	r0, #0
  55 0012 1BD0     		beq	.L14
 335:..\..\..\..\..\..\Software\uCOS-III\Source/os_tmr.c ****        *p_err = OS_ERR_TMR_INVALID;
 336:..\..\..\..\..\..\Software\uCOS-III\Source/os_tmr.c ****         return ((OS_TICK)0);
 337:..\..\..\..\..\..\Software\uCOS-III\Source/os_tmr.c ****     }
 338:..\..\..\..\..\..\Software\uCOS-III\Source/os_tmr.c **** #endif
 339:..\..\..\..\..\..\Software\uCOS-III\Source/os_tmr.c **** 
 340:..\..\..\..\..\..\Software\uCOS-III\Source/os_tmr.c **** #if OS_CFG_OBJ_TYPE_CHK_EN > 0u
 341:..\..\..\..\..\..\Software\uCOS-III\Source/os_tmr.c ****     if (p_tmr->Type != OS_OBJ_TYPE_TMR) {                   /* Make sure timer was created         
 342:..\..\..\..\..\..\Software\uCOS-III\Source/os_tmr.c ****        *p_err = OS_ERR_OBJ_TYPE;
 343:..\..\..\..\..\..\Software\uCOS-III\Source/os_tmr.c ****         return ((OS_TICK)0);
 344:..\..\..\..\..\..\Software\uCOS-III\Source/os_tmr.c ****     }
ARM GAS  C:\Users\EDULU~1.DES\AppData\Local\Temp\ccmSuQZN.s 			page 8


 345:..\..\..\..\..\..\Software\uCOS-III\Source/os_tmr.c **** #endif
 346:..\..\..\..\..\..\Software\uCOS-III\Source/os_tmr.c **** 
 347:..\..\..\..\..\..\Software\uCOS-III\Source/os_tmr.c ****     OSSchedLock(&err);
  56              		.loc 1 347 5 is_stmt 1 view .LVU9
  57 0014 6B46     		mov	r3, sp
  58 0016 981D     		adds	r0, r3, #6
  59              	.LVL1:
  60              		.loc 1 347 5 is_stmt 0 view .LVU10
  61 0018 FFF7FEFF 		bl	OSSchedLock
  62              	.LVL2:
 348:..\..\..\..\..\..\Software\uCOS-III\Source/os_tmr.c ****     switch (p_tmr->State) {
  63              		.loc 1 348 5 is_stmt 1 view .LVU11
  64              		.loc 1 348 18 is_stmt 0 view .LVU12
  65 001c 2A23     		movs	r3, #42
  66 001e E35C     		ldrb	r3, [r4, r3]
  67              		.loc 1 348 5 view .LVU13
  68 0020 012B     		cmp	r3, #1
  69 0022 23D0     		beq	.L5
  70 0024 002B     		cmp	r3, #0
  71 0026 3AD0     		beq	.L6
  72 0028 022B     		cmp	r3, #2
  73 002a 13D0     		beq	.L7
  74 002c 032B     		cmp	r3, #3
  75 002e 2ED0     		beq	.L8
 349:..\..\..\..\..\..\Software\uCOS-III\Source/os_tmr.c ****         case OS_TMR_STATE_RUNNING:
 350:..\..\..\..\..\..\Software\uCOS-III\Source/os_tmr.c ****              remain        = p_tmr->Match                   /* Determine how much time is left to t
 351:..\..\..\..\..\..\Software\uCOS-III\Source/os_tmr.c ****                            - OSTmrTickCtr;
 352:..\..\..\..\..\..\Software\uCOS-III\Source/os_tmr.c ****              p_tmr->Remain = remain;
 353:..\..\..\..\..\..\Software\uCOS-III\Source/os_tmr.c ****              OSSchedUnlock(&err);
 354:..\..\..\..\..\..\Software\uCOS-III\Source/os_tmr.c ****             *p_err         = OS_ERR_NONE;
 355:..\..\..\..\..\..\Software\uCOS-III\Source/os_tmr.c ****              break;
 356:..\..\..\..\..\..\Software\uCOS-III\Source/os_tmr.c **** 
 357:..\..\..\..\..\..\Software\uCOS-III\Source/os_tmr.c ****         case OS_TMR_STATE_STOPPED:                          /* It's assumed that the timer has not 
 358:..\..\..\..\..\..\Software\uCOS-III\Source/os_tmr.c ****              if (p_tmr->Opt == OS_OPT_TMR_PERIODIC) {
 359:..\..\..\..\..\..\Software\uCOS-III\Source/os_tmr.c ****                  if (p_tmr->Dly == 0u) {
 360:..\..\..\..\..\..\Software\uCOS-III\Source/os_tmr.c ****                      remain = p_tmr->Period;
 361:..\..\..\..\..\..\Software\uCOS-III\Source/os_tmr.c ****                  } else {
 362:..\..\..\..\..\..\Software\uCOS-III\Source/os_tmr.c ****                      remain = p_tmr->Dly;
 363:..\..\..\..\..\..\Software\uCOS-III\Source/os_tmr.c ****                  }
 364:..\..\..\..\..\..\Software\uCOS-III\Source/os_tmr.c ****              } else {
 365:..\..\..\..\..\..\Software\uCOS-III\Source/os_tmr.c ****                  remain = p_tmr->Dly;
 366:..\..\..\..\..\..\Software\uCOS-III\Source/os_tmr.c ****              }
 367:..\..\..\..\..\..\Software\uCOS-III\Source/os_tmr.c ****              p_tmr->Remain = remain;
 368:..\..\..\..\..\..\Software\uCOS-III\Source/os_tmr.c ****              OSSchedUnlock(&err);
 369:..\..\..\..\..\..\Software\uCOS-III\Source/os_tmr.c ****             *p_err         = OS_ERR_NONE;
 370:..\..\..\..\..\..\Software\uCOS-III\Source/os_tmr.c ****              break;
 371:..\..\..\..\..\..\Software\uCOS-III\Source/os_tmr.c **** 
 372:..\..\..\..\..\..\Software\uCOS-III\Source/os_tmr.c ****         case OS_TMR_STATE_COMPLETED:                        /* Only ONE-SHOT that timed out can be 
 373:..\..\..\..\..\..\Software\uCOS-III\Source/os_tmr.c ****              OSSchedUnlock(&err);
 374:..\..\..\..\..\..\Software\uCOS-III\Source/os_tmr.c ****             *p_err  = OS_ERR_NONE;
 375:..\..\..\..\..\..\Software\uCOS-III\Source/os_tmr.c ****              remain = (OS_TICK)0;
 376:..\..\..\..\..\..\Software\uCOS-III\Source/os_tmr.c ****              break;
 377:..\..\..\..\..\..\Software\uCOS-III\Source/os_tmr.c **** 
 378:..\..\..\..\..\..\Software\uCOS-III\Source/os_tmr.c ****         case OS_TMR_STATE_UNUSED:
 379:..\..\..\..\..\..\Software\uCOS-III\Source/os_tmr.c ****              OSSchedUnlock(&err);
 380:..\..\..\..\..\..\Software\uCOS-III\Source/os_tmr.c ****             *p_err  = OS_ERR_TMR_INACTIVE;
 381:..\..\..\..\..\..\Software\uCOS-III\Source/os_tmr.c ****              remain = (OS_TICK)0;
ARM GAS  C:\Users\EDULU~1.DES\AppData\Local\Temp\ccmSuQZN.s 			page 9


 382:..\..\..\..\..\..\Software\uCOS-III\Source/os_tmr.c ****              break;
 383:..\..\..\..\..\..\Software\uCOS-III\Source/os_tmr.c **** 
 384:..\..\..\..\..\..\Software\uCOS-III\Source/os_tmr.c ****         default:
 385:..\..\..\..\..\..\Software\uCOS-III\Source/os_tmr.c ****              OSSchedUnlock(&err);
  76              		.loc 1 385 14 is_stmt 1 view .LVU14
  77 0030 6B46     		mov	r3, sp
  78 0032 981D     		adds	r0, r3, #6
  79 0034 FFF7FEFF 		bl	OSSchedUnlock
  80              	.LVL3:
 386:..\..\..\..\..\..\Software\uCOS-III\Source/os_tmr.c ****             *p_err = OS_ERR_TMR_INVALID_STATE;
  81              		.loc 1 386 13 view .LVU15
  82              		.loc 1 386 20 is_stmt 0 view .LVU16
  83 0038 1E4B     		ldr	r3, .L16+4
  84 003a 3380     		strh	r3, [r6]
 387:..\..\..\..\..\..\Software\uCOS-III\Source/os_tmr.c ****              remain = (OS_TICK)0;
  85              		.loc 1 387 14 is_stmt 1 view .LVU17
  86              	.LVL4:
 388:..\..\..\..\..\..\Software\uCOS-III\Source/os_tmr.c ****              break;
  87              		.loc 1 388 14 view .LVU18
 387:..\..\..\..\..\..\Software\uCOS-III\Source/os_tmr.c ****              remain = (OS_TICK)0;
  88              		.loc 1 387 21 is_stmt 0 view .LVU19
  89 003c 0025     		movs	r5, #0
  90              		.loc 1 388 14 view .LVU20
  91 003e 02E0     		b	.L1
  92              	.LVL5:
  93              	.L13:
 328:..\..\..\..\..\..\Software\uCOS-III\Source/os_tmr.c ****         return ((OS_TICK)0);
  94              		.loc 1 328 8 is_stmt 1 view .LVU21
 328:..\..\..\..\..\..\Software\uCOS-III\Source/os_tmr.c ****         return ((OS_TICK)0);
  95              		.loc 1 328 15 is_stmt 0 view .LVU22
  96 0040 1D4B     		ldr	r3, .L16+8
  97 0042 0B80     		strh	r3, [r1]
 329:..\..\..\..\..\..\Software\uCOS-III\Source/os_tmr.c ****     }
  98              		.loc 1 329 9 is_stmt 1 view .LVU23
 329:..\..\..\..\..\..\Software\uCOS-III\Source/os_tmr.c ****     }
  99              		.loc 1 329 16 is_stmt 0 view .LVU24
 100 0044 0025     		movs	r5, #0
 101              	.LVL6:
 102              	.L1:
 389:..\..\..\..\..\..\Software\uCOS-III\Source/os_tmr.c ****     }
 390:..\..\..\..\..\..\Software\uCOS-III\Source/os_tmr.c ****     return (remain);
 391:..\..\..\..\..\..\Software\uCOS-III\Source/os_tmr.c **** }
 103              		.loc 1 391 1 view .LVU25
 104 0046 2800     		movs	r0, r5
 105 0048 02B0     		add	sp, sp, #8
 106              		@ sp needed
 107              	.LVL7:
 108              	.LVL8:
 109              		.loc 1 391 1 view .LVU26
 110 004a 70BD     		pop	{r4, r5, r6, pc}
 111              	.LVL9:
 112              	.L14:
 335:..\..\..\..\..\..\Software\uCOS-III\Source/os_tmr.c ****         return ((OS_TICK)0);
 113              		.loc 1 335 8 is_stmt 1 view .LVU27
 335:..\..\..\..\..\..\Software\uCOS-III\Source/os_tmr.c ****         return ((OS_TICK)0);
 114              		.loc 1 335 15 is_stmt 0 view .LVU28
 115 004c 1B4B     		ldr	r3, .L16+12
ARM GAS  C:\Users\EDULU~1.DES\AppData\Local\Temp\ccmSuQZN.s 			page 10


 116 004e 0B80     		strh	r3, [r1]
 336:..\..\..\..\..\..\Software\uCOS-III\Source/os_tmr.c ****     }
 117              		.loc 1 336 9 is_stmt 1 view .LVU29
 336:..\..\..\..\..\..\Software\uCOS-III\Source/os_tmr.c ****     }
 118              		.loc 1 336 16 is_stmt 0 view .LVU30
 119 0050 0025     		movs	r5, #0
 120 0052 F8E7     		b	.L1
 121              	.LVL10:
 122              	.L7:
 350:..\..\..\..\..\..\Software\uCOS-III\Source/os_tmr.c ****                            - OSTmrTickCtr;
 123              		.loc 1 350 14 is_stmt 1 view .LVU31
 351:..\..\..\..\..\..\Software\uCOS-III\Source/os_tmr.c ****              p_tmr->Remain = remain;
 124              		.loc 1 351 28 is_stmt 0 view .LVU32
 125 0054 1A4B     		ldr	r3, .L16+16
 126 0056 1D68     		ldr	r5, [r3]
 350:..\..\..\..\..\..\Software\uCOS-III\Source/os_tmr.c ****                            - OSTmrTickCtr;
 127              		.loc 1 350 28 view .LVU33
 128 0058 A369     		ldr	r3, [r4, #24]
 129 005a 5D1B     		subs	r5, r3, r5
 130              	.LVL11:
 352:..\..\..\..\..\..\Software\uCOS-III\Source/os_tmr.c ****              OSSchedUnlock(&err);
 131              		.loc 1 352 14 is_stmt 1 view .LVU34
 352:..\..\..\..\..\..\Software\uCOS-III\Source/os_tmr.c ****              OSSchedUnlock(&err);
 132              		.loc 1 352 28 is_stmt 0 view .LVU35
 133 005c E561     		str	r5, [r4, #28]
 353:..\..\..\..\..\..\Software\uCOS-III\Source/os_tmr.c ****             *p_err         = OS_ERR_NONE;
 134              		.loc 1 353 14 is_stmt 1 view .LVU36
 135 005e 6B46     		mov	r3, sp
 136 0060 981D     		adds	r0, r3, #6
 137 0062 FFF7FEFF 		bl	OSSchedUnlock
 138              	.LVL12:
 354:..\..\..\..\..\..\Software\uCOS-III\Source/os_tmr.c ****              break;
 139              		.loc 1 354 13 view .LVU37
 354:..\..\..\..\..\..\Software\uCOS-III\Source/os_tmr.c ****              break;
 140              		.loc 1 354 28 is_stmt 0 view .LVU38
 141 0066 0023     		movs	r3, #0
 142 0068 3380     		strh	r3, [r6]
 355:..\..\..\..\..\..\Software\uCOS-III\Source/os_tmr.c **** 
 143              		.loc 1 355 14 is_stmt 1 view .LVU39
 144 006a ECE7     		b	.L1
 145              	.LVL13:
 146              	.L5:
 358:..\..\..\..\..\..\Software\uCOS-III\Source/os_tmr.c ****                  if (p_tmr->Dly == 0u) {
 147              		.loc 1 358 14 view .LVU40
 358:..\..\..\..\..\..\Software\uCOS-III\Source/os_tmr.c ****                  if (p_tmr->Dly == 0u) {
 148              		.loc 1 358 23 is_stmt 0 view .LVU41
 149 006c 238D     		ldrh	r3, [r4, #40]
 358:..\..\..\..\..\..\Software\uCOS-III\Source/os_tmr.c ****                  if (p_tmr->Dly == 0u) {
 150              		.loc 1 358 17 view .LVU42
 151 006e 022B     		cmp	r3, #2
 152 0070 08D0     		beq	.L15
 365:..\..\..\..\..\..\Software\uCOS-III\Source/os_tmr.c ****              }
 153              		.loc 1 365 18 is_stmt 1 view .LVU43
 365:..\..\..\..\..\..\Software\uCOS-III\Source/os_tmr.c ****              }
 154              		.loc 1 365 25 is_stmt 0 view .LVU44
 155 0072 256A     		ldr	r5, [r4, #32]
 156              	.LVL14:
ARM GAS  C:\Users\EDULU~1.DES\AppData\Local\Temp\ccmSuQZN.s 			page 11


 157              	.L11:
 367:..\..\..\..\..\..\Software\uCOS-III\Source/os_tmr.c ****              OSSchedUnlock(&err);
 158              		.loc 1 367 14 is_stmt 1 view .LVU45
 367:..\..\..\..\..\..\Software\uCOS-III\Source/os_tmr.c ****              OSSchedUnlock(&err);
 159              		.loc 1 367 28 is_stmt 0 view .LVU46
 160 0074 E561     		str	r5, [r4, #28]
 368:..\..\..\..\..\..\Software\uCOS-III\Source/os_tmr.c ****             *p_err         = OS_ERR_NONE;
 161              		.loc 1 368 14 is_stmt 1 view .LVU47
 162 0076 6B46     		mov	r3, sp
 163 0078 981D     		adds	r0, r3, #6
 164 007a FFF7FEFF 		bl	OSSchedUnlock
 165              	.LVL15:
 369:..\..\..\..\..\..\Software\uCOS-III\Source/os_tmr.c ****              break;
 166              		.loc 1 369 13 view .LVU48
 369:..\..\..\..\..\..\Software\uCOS-III\Source/os_tmr.c ****              break;
 167              		.loc 1 369 28 is_stmt 0 view .LVU49
 168 007e 0023     		movs	r3, #0
 169 0080 3380     		strh	r3, [r6]
 370:..\..\..\..\..\..\Software\uCOS-III\Source/os_tmr.c **** 
 170              		.loc 1 370 14 is_stmt 1 view .LVU50
 171 0082 E0E7     		b	.L1
 172              	.LVL16:
 173              	.L15:
 359:..\..\..\..\..\..\Software\uCOS-III\Source/os_tmr.c ****                      remain = p_tmr->Period;
 174              		.loc 1 359 18 view .LVU51
 359:..\..\..\..\..\..\Software\uCOS-III\Source/os_tmr.c ****                      remain = p_tmr->Period;
 175              		.loc 1 359 27 is_stmt 0 view .LVU52
 176 0084 256A     		ldr	r5, [r4, #32]
 359:..\..\..\..\..\..\Software\uCOS-III\Source/os_tmr.c ****                      remain = p_tmr->Period;
 177              		.loc 1 359 21 view .LVU53
 178 0086 002D     		cmp	r5, #0
 179 0088 F4D1     		bne	.L11
 360:..\..\..\..\..\..\Software\uCOS-III\Source/os_tmr.c ****                  } else {
 180              		.loc 1 360 22 is_stmt 1 view .LVU54
 360:..\..\..\..\..\..\Software\uCOS-III\Source/os_tmr.c ****                  } else {
 181              		.loc 1 360 29 is_stmt 0 view .LVU55
 182 008a 656A     		ldr	r5, [r4, #36]
 183              	.LVL17:
 360:..\..\..\..\..\..\Software\uCOS-III\Source/os_tmr.c ****                  } else {
 184              		.loc 1 360 29 view .LVU56
 185 008c F2E7     		b	.L11
 186              	.LVL18:
 187              	.L8:
 373:..\..\..\..\..\..\Software\uCOS-III\Source/os_tmr.c ****             *p_err  = OS_ERR_NONE;
 188              		.loc 1 373 14 is_stmt 1 view .LVU57
 189 008e 6B46     		mov	r3, sp
 190 0090 981D     		adds	r0, r3, #6
 191 0092 FFF7FEFF 		bl	OSSchedUnlock
 192              	.LVL19:
 374:..\..\..\..\..\..\Software\uCOS-III\Source/os_tmr.c ****              remain = (OS_TICK)0;
 193              		.loc 1 374 13 view .LVU58
 374:..\..\..\..\..\..\Software\uCOS-III\Source/os_tmr.c ****              remain = (OS_TICK)0;
 194              		.loc 1 374 21 is_stmt 0 view .LVU59
 195 0096 0023     		movs	r3, #0
 196 0098 3380     		strh	r3, [r6]
 375:..\..\..\..\..\..\Software\uCOS-III\Source/os_tmr.c ****              break;
 197              		.loc 1 375 14 is_stmt 1 view .LVU60
ARM GAS  C:\Users\EDULU~1.DES\AppData\Local\Temp\ccmSuQZN.s 			page 12


 198              	.LVL20:
 376:..\..\..\..\..\..\Software\uCOS-III\Source/os_tmr.c **** 
 199              		.loc 1 376 14 view .LVU61
 375:..\..\..\..\..\..\Software\uCOS-III\Source/os_tmr.c ****              break;
 200              		.loc 1 375 21 is_stmt 0 view .LVU62
 201 009a 0025     		movs	r5, #0
 376:..\..\..\..\..\..\Software\uCOS-III\Source/os_tmr.c **** 
 202              		.loc 1 376 14 view .LVU63
 203 009c D3E7     		b	.L1
 204              	.LVL21:
 205              	.L6:
 379:..\..\..\..\..\..\Software\uCOS-III\Source/os_tmr.c ****             *p_err  = OS_ERR_TMR_INACTIVE;
 206              		.loc 1 379 14 is_stmt 1 view .LVU64
 207 009e 6B46     		mov	r3, sp
 208 00a0 981D     		adds	r0, r3, #6
 209 00a2 FFF7FEFF 		bl	OSSchedUnlock
 210              	.LVL22:
 380:..\..\..\..\..\..\Software\uCOS-III\Source/os_tmr.c ****              remain = (OS_TICK)0;
 211              		.loc 1 380 13 view .LVU65
 380:..\..\..\..\..\..\Software\uCOS-III\Source/os_tmr.c ****              remain = (OS_TICK)0;
 212              		.loc 1 380 21 is_stmt 0 view .LVU66
 213 00a6 074B     		ldr	r3, .L16+20
 214 00a8 3380     		strh	r3, [r6]
 381:..\..\..\..\..\..\Software\uCOS-III\Source/os_tmr.c ****              break;
 215              		.loc 1 381 14 is_stmt 1 view .LVU67
 216              	.LVL23:
 382:..\..\..\..\..\..\Software\uCOS-III\Source/os_tmr.c **** 
 217              		.loc 1 382 14 view .LVU68
 381:..\..\..\..\..\..\Software\uCOS-III\Source/os_tmr.c ****              break;
 218              		.loc 1 381 21 is_stmt 0 view .LVU69
 219 00aa 0025     		movs	r5, #0
 382:..\..\..\..\..\..\Software\uCOS-III\Source/os_tmr.c **** 
 220              		.loc 1 382 14 view .LVU70
 221 00ac CBE7     		b	.L1
 222              	.L17:
 223 00ae C046     		.align	2
 224              	.L16:
 225 00b0 00000000 		.word	OSIntNestingCtr
 226 00b4 41730000 		.word	29505
 227 00b8 43730000 		.word	29507
 228 00bc 42730000 		.word	29506
 229 00c0 00000000 		.word	OSTmrTickCtr
 230 00c4 3D730000 		.word	29501
 231              		.cfi_endproc
 232              	.LFE4:
 233              		.size	OSTmrRemainGet, .-OSTmrRemainGet
 234              		.section	.text.OSTmrStateGet,"ax",%progbits
 235              		.align	1
 236              		.global	OSTmrStateGet
 237              		.syntax unified
 238              		.code	16
 239              		.thumb_func
 240              		.fpu softvfp
 241              		.type	OSTmrStateGet, %function
 242              	OSTmrStateGet:
 243              	.LVL24:
 244              	.LFB6:
ARM GAS  C:\Users\EDULU~1.DES\AppData\Local\Temp\ccmSuQZN.s 			page 13


 392:..\..\..\..\..\..\Software\uCOS-III\Source/os_tmr.c **** 
 393:..\..\..\..\..\..\Software\uCOS-III\Source/os_tmr.c **** /*$PAGE*/
 394:..\..\..\..\..\..\Software\uCOS-III\Source/os_tmr.c **** /*
 395:..\..\..\..\..\..\Software\uCOS-III\Source/os_tmr.c **** ***************************************************************************************************
 396:..\..\..\..\..\..\Software\uCOS-III\Source/os_tmr.c **** *                                                   START A TIMER
 397:..\..\..\..\..\..\Software\uCOS-III\Source/os_tmr.c **** *
 398:..\..\..\..\..\..\Software\uCOS-III\Source/os_tmr.c **** * Description: This function is called by your application code to start a timer.
 399:..\..\..\..\..\..\Software\uCOS-III\Source/os_tmr.c **** *
 400:..\..\..\..\..\..\Software\uCOS-III\Source/os_tmr.c **** * Arguments  : p_tmr    Is a pointer to an OS_TMR
 401:..\..\..\..\..\..\Software\uCOS-III\Source/os_tmr.c **** *
 402:..\..\..\..\..\..\Software\uCOS-III\Source/os_tmr.c **** *              p_err    Is a pointer to an error code.  '*p_err' will contain one of the following:
 403:..\..\..\..\..\..\Software\uCOS-III\Source/os_tmr.c **** *
 404:..\..\..\..\..\..\Software\uCOS-III\Source/os_tmr.c **** *                           OS_ERR_NONE
 405:..\..\..\..\..\..\Software\uCOS-III\Source/os_tmr.c **** *                           OS_ERR_OBJ_TYPE            if 'p_tmr' is not pointing to a timer
 406:..\..\..\..\..\..\Software\uCOS-III\Source/os_tmr.c **** *                           OS_ERR_TMR_INVALID
 407:..\..\..\..\..\..\Software\uCOS-III\Source/os_tmr.c **** *                           OS_ERR_TMR_INACTIVE        if the timer was not created
 408:..\..\..\..\..\..\Software\uCOS-III\Source/os_tmr.c **** *                           OS_ERR_TMR_INVALID_STATE   the timer is in an invalid state
 409:..\..\..\..\..\..\Software\uCOS-III\Source/os_tmr.c **** *                           OS_ERR_TMR_ISR             if the call was made from an ISR
 410:..\..\..\..\..\..\Software\uCOS-III\Source/os_tmr.c **** *
 411:..\..\..\..\..\..\Software\uCOS-III\Source/os_tmr.c **** * Returns    : DEF_TRUE      is the timer was started
 412:..\..\..\..\..\..\Software\uCOS-III\Source/os_tmr.c **** *              DEF_FALSE     if not or upon an error
 413:..\..\..\..\..\..\Software\uCOS-III\Source/os_tmr.c **** *
 414:..\..\..\..\..\..\Software\uCOS-III\Source/os_tmr.c **** * Note(s)    : 1) When starting/restarting a timer, regardless if it is in PERIODIC or ONE-SHOT mod
 415:..\..\..\..\..\..\Software\uCOS-III\Source/os_tmr.c **** *                 linked to the timer wheel with the OS_OPT_LINK_DLY option. This option sets the i
 416:..\..\..\..\..\..\Software\uCOS-III\Source/os_tmr.c **** *                 time for the timer. For timers in PERIODIC mode, subsequent expiration times are 
 417:..\..\..\..\..\..\Software\uCOS-III\Source/os_tmr.c **** *                 the OS_TmrTask().
 418:..\..\..\..\..\..\Software\uCOS-III\Source/os_tmr.c **** ***************************************************************************************************
 419:..\..\..\..\..\..\Software\uCOS-III\Source/os_tmr.c **** */
 420:..\..\..\..\..\..\Software\uCOS-III\Source/os_tmr.c **** 
 421:..\..\..\..\..\..\Software\uCOS-III\Source/os_tmr.c **** CPU_BOOLEAN  OSTmrStart (OS_TMR  *p_tmr,
 422:..\..\..\..\..\..\Software\uCOS-III\Source/os_tmr.c ****                          OS_ERR  *p_err)
 423:..\..\..\..\..\..\Software\uCOS-III\Source/os_tmr.c **** {
 424:..\..\..\..\..\..\Software\uCOS-III\Source/os_tmr.c ****     OS_ERR       err;
 425:..\..\..\..\..\..\Software\uCOS-III\Source/os_tmr.c ****     CPU_BOOLEAN  success;
 426:..\..\..\..\..\..\Software\uCOS-III\Source/os_tmr.c **** 
 427:..\..\..\..\..\..\Software\uCOS-III\Source/os_tmr.c **** 
 428:..\..\..\..\..\..\Software\uCOS-III\Source/os_tmr.c **** 
 429:..\..\..\..\..\..\Software\uCOS-III\Source/os_tmr.c **** #ifdef OS_SAFETY_CRITICAL
 430:..\..\..\..\..\..\Software\uCOS-III\Source/os_tmr.c ****     if (p_err == (OS_ERR *)0) {
 431:..\..\..\..\..\..\Software\uCOS-III\Source/os_tmr.c ****         OS_SAFETY_CRITICAL_EXCEPTION();
 432:..\..\..\..\..\..\Software\uCOS-III\Source/os_tmr.c ****         return (DEF_FALSE);
 433:..\..\..\..\..\..\Software\uCOS-III\Source/os_tmr.c ****     }
 434:..\..\..\..\..\..\Software\uCOS-III\Source/os_tmr.c **** #endif
 435:..\..\..\..\..\..\Software\uCOS-III\Source/os_tmr.c **** 
 436:..\..\..\..\..\..\Software\uCOS-III\Source/os_tmr.c **** #if OS_CFG_CALLED_FROM_ISR_CHK_EN > 0u
 437:..\..\..\..\..\..\Software\uCOS-III\Source/os_tmr.c ****     if (OSIntNestingCtr > (OS_NESTING_CTR)0) {              /* See if trying to call from an ISR   
 438:..\..\..\..\..\..\Software\uCOS-III\Source/os_tmr.c ****        *p_err = OS_ERR_TMR_ISR;
 439:..\..\..\..\..\..\Software\uCOS-III\Source/os_tmr.c ****         return (DEF_FALSE);
 440:..\..\..\..\..\..\Software\uCOS-III\Source/os_tmr.c ****     }
 441:..\..\..\..\..\..\Software\uCOS-III\Source/os_tmr.c **** #endif
 442:..\..\..\..\..\..\Software\uCOS-III\Source/os_tmr.c **** 
 443:..\..\..\..\..\..\Software\uCOS-III\Source/os_tmr.c **** #if OS_CFG_ARG_CHK_EN > 0u
 444:..\..\..\..\..\..\Software\uCOS-III\Source/os_tmr.c ****     if (p_tmr == (OS_TMR *)0) {
 445:..\..\..\..\..\..\Software\uCOS-III\Source/os_tmr.c ****        *p_err = OS_ERR_TMR_INVALID;
 446:..\..\..\..\..\..\Software\uCOS-III\Source/os_tmr.c ****         return (DEF_FALSE);
 447:..\..\..\..\..\..\Software\uCOS-III\Source/os_tmr.c ****     }
 448:..\..\..\..\..\..\Software\uCOS-III\Source/os_tmr.c **** #endif
ARM GAS  C:\Users\EDULU~1.DES\AppData\Local\Temp\ccmSuQZN.s 			page 14


 449:..\..\..\..\..\..\Software\uCOS-III\Source/os_tmr.c **** 
 450:..\..\..\..\..\..\Software\uCOS-III\Source/os_tmr.c **** #if OS_CFG_OBJ_TYPE_CHK_EN > 0u
 451:..\..\..\..\..\..\Software\uCOS-III\Source/os_tmr.c ****     if (p_tmr->Type != OS_OBJ_TYPE_TMR) {                   /* Make sure timer was created         
 452:..\..\..\..\..\..\Software\uCOS-III\Source/os_tmr.c ****        *p_err = OS_ERR_OBJ_TYPE;
 453:..\..\..\..\..\..\Software\uCOS-III\Source/os_tmr.c ****         return (DEF_FALSE);
 454:..\..\..\..\..\..\Software\uCOS-III\Source/os_tmr.c ****     }
 455:..\..\..\..\..\..\Software\uCOS-III\Source/os_tmr.c **** #endif
 456:..\..\..\..\..\..\Software\uCOS-III\Source/os_tmr.c **** 
 457:..\..\..\..\..\..\Software\uCOS-III\Source/os_tmr.c ****     OSSchedLock(&err);
 458:..\..\..\..\..\..\Software\uCOS-III\Source/os_tmr.c ****     switch (p_tmr->State) {
 459:..\..\..\..\..\..\Software\uCOS-III\Source/os_tmr.c ****         case OS_TMR_STATE_RUNNING:                          /* Restart the timer                   
 460:..\..\..\..\..\..\Software\uCOS-III\Source/os_tmr.c ****              OS_TmrUnlink(p_tmr);                           /* ... Stop the timer                  
 461:..\..\..\..\..\..\Software\uCOS-III\Source/os_tmr.c ****              OS_TmrLink(p_tmr, OS_OPT_LINK_DLY);            /* ... Link timer to timer wheel (see N
 462:..\..\..\..\..\..\Software\uCOS-III\Source/os_tmr.c ****              OSSchedUnlock(&err);
 463:..\..\..\..\..\..\Software\uCOS-III\Source/os_tmr.c ****             *p_err   = OS_ERR_NONE;
 464:..\..\..\..\..\..\Software\uCOS-III\Source/os_tmr.c ****              success = DEF_TRUE;
 465:..\..\..\..\..\..\Software\uCOS-III\Source/os_tmr.c ****              break;
 466:..\..\..\..\..\..\Software\uCOS-III\Source/os_tmr.c **** 
 467:..\..\..\..\..\..\Software\uCOS-III\Source/os_tmr.c ****         case OS_TMR_STATE_STOPPED:                          /* Start the timer                     
 468:..\..\..\..\..\..\Software\uCOS-III\Source/os_tmr.c ****         case OS_TMR_STATE_COMPLETED:
 469:..\..\..\..\..\..\Software\uCOS-III\Source/os_tmr.c ****              OS_TmrLink(p_tmr, OS_OPT_LINK_DLY);            /* ... Link timer to timer wheel (see N
 470:..\..\..\..\..\..\Software\uCOS-III\Source/os_tmr.c ****              OSSchedUnlock(&err);
 471:..\..\..\..\..\..\Software\uCOS-III\Source/os_tmr.c ****             *p_err   = OS_ERR_NONE;
 472:..\..\..\..\..\..\Software\uCOS-III\Source/os_tmr.c ****              success = DEF_TRUE;
 473:..\..\..\..\..\..\Software\uCOS-III\Source/os_tmr.c ****              break;
 474:..\..\..\..\..\..\Software\uCOS-III\Source/os_tmr.c **** 
 475:..\..\..\..\..\..\Software\uCOS-III\Source/os_tmr.c ****         case OS_TMR_STATE_UNUSED:                           /* Timer not created                   
 476:..\..\..\..\..\..\Software\uCOS-III\Source/os_tmr.c ****              OSSchedUnlock(&err);
 477:..\..\..\..\..\..\Software\uCOS-III\Source/os_tmr.c ****             *p_err   = OS_ERR_TMR_INACTIVE;
 478:..\..\..\..\..\..\Software\uCOS-III\Source/os_tmr.c ****              success = DEF_FALSE;
 479:..\..\..\..\..\..\Software\uCOS-III\Source/os_tmr.c ****              break;
 480:..\..\..\..\..\..\Software\uCOS-III\Source/os_tmr.c **** 
 481:..\..\..\..\..\..\Software\uCOS-III\Source/os_tmr.c ****         default:
 482:..\..\..\..\..\..\Software\uCOS-III\Source/os_tmr.c ****              OSSchedUnlock(&err);
 483:..\..\..\..\..\..\Software\uCOS-III\Source/os_tmr.c ****             *p_err = OS_ERR_TMR_INVALID_STATE;
 484:..\..\..\..\..\..\Software\uCOS-III\Source/os_tmr.c ****              success = DEF_FALSE;
 485:..\..\..\..\..\..\Software\uCOS-III\Source/os_tmr.c ****              break;
 486:..\..\..\..\..\..\Software\uCOS-III\Source/os_tmr.c ****     }
 487:..\..\..\..\..\..\Software\uCOS-III\Source/os_tmr.c ****     return (success);
 488:..\..\..\..\..\..\Software\uCOS-III\Source/os_tmr.c **** }
 489:..\..\..\..\..\..\Software\uCOS-III\Source/os_tmr.c **** 
 490:..\..\..\..\..\..\Software\uCOS-III\Source/os_tmr.c **** /*$PAGE*/
 491:..\..\..\..\..\..\Software\uCOS-III\Source/os_tmr.c **** /*
 492:..\..\..\..\..\..\Software\uCOS-III\Source/os_tmr.c **** ***************************************************************************************************
 493:..\..\..\..\..\..\Software\uCOS-III\Source/os_tmr.c **** *                                           FIND OUT WHAT STATE A TIMER IS IN
 494:..\..\..\..\..\..\Software\uCOS-III\Source/os_tmr.c **** *
 495:..\..\..\..\..\..\Software\uCOS-III\Source/os_tmr.c **** * Description: This function is called to determine what state the timer is in:
 496:..\..\..\..\..\..\Software\uCOS-III\Source/os_tmr.c **** *
 497:..\..\..\..\..\..\Software\uCOS-III\Source/os_tmr.c **** *                  OS_TMR_STATE_UNUSED     the timer has not been created
 498:..\..\..\..\..\..\Software\uCOS-III\Source/os_tmr.c **** *                  OS_TMR_STATE_STOPPED    the timer has been created but has not been started or h
 499:..\..\..\..\..\..\Software\uCOS-III\Source/os_tmr.c **** *                  OS_TMR_COMPLETED        the timer is in ONE-SHOT mode and has completed it's tim
 500:..\..\..\..\..\..\Software\uCOS-III\Source/os_tmr.c **** *                  OS_TMR_RUNNING          the timer is currently running
 501:..\..\..\..\..\..\Software\uCOS-III\Source/os_tmr.c **** *
 502:..\..\..\..\..\..\Software\uCOS-III\Source/os_tmr.c **** * Arguments  : p_tmr    Is a pointer to the desired timer
 503:..\..\..\..\..\..\Software\uCOS-III\Source/os_tmr.c **** *
 504:..\..\..\..\..\..\Software\uCOS-III\Source/os_tmr.c **** *              p_err    Is a pointer to an error code.  '*p_err' will contain one of the following:
 505:..\..\..\..\..\..\Software\uCOS-III\Source/os_tmr.c **** *
ARM GAS  C:\Users\EDULU~1.DES\AppData\Local\Temp\ccmSuQZN.s 			page 15


 506:..\..\..\..\..\..\Software\uCOS-III\Source/os_tmr.c **** *                           OS_ERR_NONE
 507:..\..\..\..\..\..\Software\uCOS-III\Source/os_tmr.c **** *                           OS_ERR_OBJ_TYPE            if 'p_tmr' is not pointing to a timer
 508:..\..\..\..\..\..\Software\uCOS-III\Source/os_tmr.c **** *                           OS_ERR_TMR_INVALID        'p_tmr' is a NULL pointer
 509:..\..\..\..\..\..\Software\uCOS-III\Source/os_tmr.c **** *                           OS_ERR_TMR_INVALID_STATE  if the timer is not in a valid state
 510:..\..\..\..\..\..\Software\uCOS-III\Source/os_tmr.c **** *                           OS_ERR_TMR_ISR            if the call was made from an ISR
 511:..\..\..\..\..\..\Software\uCOS-III\Source/os_tmr.c **** *
 512:..\..\..\..\..\..\Software\uCOS-III\Source/os_tmr.c **** * Returns    : The current state of the timer (see description).
 513:..\..\..\..\..\..\Software\uCOS-III\Source/os_tmr.c **** ***************************************************************************************************
 514:..\..\..\..\..\..\Software\uCOS-III\Source/os_tmr.c **** */
 515:..\..\..\..\..\..\Software\uCOS-III\Source/os_tmr.c **** 
 516:..\..\..\..\..\..\Software\uCOS-III\Source/os_tmr.c **** OS_STATE  OSTmrStateGet (OS_TMR  *p_tmr,
 517:..\..\..\..\..\..\Software\uCOS-III\Source/os_tmr.c ****                          OS_ERR  *p_err)
 518:..\..\..\..\..\..\Software\uCOS-III\Source/os_tmr.c **** {
 245              		.loc 1 518 1 is_stmt 1 view -0
 246              		.cfi_startproc
 247              		@ args = 0, pretend = 0, frame = 0
 248              		@ frame_needed = 0, uses_anonymous_args = 0
 249              		.loc 1 518 1 is_stmt 0 view .LVU72
 250 0000 70B5     		push	{r4, r5, r6, lr}
 251              		.cfi_def_cfa_offset 16
 252              		.cfi_offset 4, -16
 253              		.cfi_offset 5, -12
 254              		.cfi_offset 6, -8
 255              		.cfi_offset 14, -4
 256 0002 0400     		movs	r4, r0
 257 0004 0D00     		movs	r5, r1
 519:..\..\..\..\..\..\Software\uCOS-III\Source/os_tmr.c ****     OS_STATE  state;
 258              		.loc 1 519 5 is_stmt 1 view .LVU73
 520:..\..\..\..\..\..\Software\uCOS-III\Source/os_tmr.c ****     CPU_SR_ALLOC();
 259              		.loc 1 520 5 view .LVU74
 260              	.LVL25:
 521:..\..\..\..\..\..\Software\uCOS-III\Source/os_tmr.c **** 
 522:..\..\..\..\..\..\Software\uCOS-III\Source/os_tmr.c **** 
 523:..\..\..\..\..\..\Software\uCOS-III\Source/os_tmr.c **** 
 524:..\..\..\..\..\..\Software\uCOS-III\Source/os_tmr.c **** #ifdef OS_SAFETY_CRITICAL
 525:..\..\..\..\..\..\Software\uCOS-III\Source/os_tmr.c ****     if (p_err == (OS_ERR *)0) {
 526:..\..\..\..\..\..\Software\uCOS-III\Source/os_tmr.c ****         OS_SAFETY_CRITICAL_EXCEPTION();
 527:..\..\..\..\..\..\Software\uCOS-III\Source/os_tmr.c ****         return (OS_TMR_STATE_UNUSED);
 528:..\..\..\..\..\..\Software\uCOS-III\Source/os_tmr.c ****     }
 529:..\..\..\..\..\..\Software\uCOS-III\Source/os_tmr.c **** #endif
 530:..\..\..\..\..\..\Software\uCOS-III\Source/os_tmr.c **** 
 531:..\..\..\..\..\..\Software\uCOS-III\Source/os_tmr.c **** #if OS_CFG_CALLED_FROM_ISR_CHK_EN > 0u
 532:..\..\..\..\..\..\Software\uCOS-III\Source/os_tmr.c ****     if (OSIntNestingCtr > (OS_NESTING_CTR)0) {              /* See if trying to call from an ISR   
 261              		.loc 1 532 5 view .LVU75
 262              		.loc 1 532 25 is_stmt 0 view .LVU76
 263 0006 114B     		ldr	r3, .L26
 264 0008 1B78     		ldrb	r3, [r3]
 265              		.loc 1 532 8 view .LVU77
 266 000a 002B     		cmp	r3, #0
 267 000c 13D1     		bne	.L24
 533:..\..\..\..\..\..\Software\uCOS-III\Source/os_tmr.c ****        *p_err = OS_ERR_TMR_ISR;
 534:..\..\..\..\..\..\Software\uCOS-III\Source/os_tmr.c ****         return (OS_TMR_STATE_UNUSED);
 535:..\..\..\..\..\..\Software\uCOS-III\Source/os_tmr.c ****     }
 536:..\..\..\..\..\..\Software\uCOS-III\Source/os_tmr.c **** #endif
 537:..\..\..\..\..\..\Software\uCOS-III\Source/os_tmr.c **** 
 538:..\..\..\..\..\..\Software\uCOS-III\Source/os_tmr.c **** #if OS_CFG_ARG_CHK_EN > 0u
 539:..\..\..\..\..\..\Software\uCOS-III\Source/os_tmr.c ****     if (p_tmr == (OS_TMR *)0) {
ARM GAS  C:\Users\EDULU~1.DES\AppData\Local\Temp\ccmSuQZN.s 			page 16


 268              		.loc 1 539 5 is_stmt 1 view .LVU78
 269              		.loc 1 539 8 is_stmt 0 view .LVU79
 270 000e 0028     		cmp	r0, #0
 271 0010 15D0     		beq	.L25
 540:..\..\..\..\..\..\Software\uCOS-III\Source/os_tmr.c ****        *p_err = OS_ERR_TMR_INVALID;
 541:..\..\..\..\..\..\Software\uCOS-III\Source/os_tmr.c ****         return (OS_TMR_STATE_UNUSED);
 542:..\..\..\..\..\..\Software\uCOS-III\Source/os_tmr.c ****     }
 543:..\..\..\..\..\..\Software\uCOS-III\Source/os_tmr.c **** #endif
 544:..\..\..\..\..\..\Software\uCOS-III\Source/os_tmr.c **** 
 545:..\..\..\..\..\..\Software\uCOS-III\Source/os_tmr.c **** #if OS_CFG_OBJ_TYPE_CHK_EN > 0u
 546:..\..\..\..\..\..\Software\uCOS-III\Source/os_tmr.c ****     if (p_tmr->Type != OS_OBJ_TYPE_TMR) {                   /* Make sure timer was created         
 547:..\..\..\..\..\..\Software\uCOS-III\Source/os_tmr.c ****        *p_err = OS_ERR_OBJ_TYPE;
 548:..\..\..\..\..\..\Software\uCOS-III\Source/os_tmr.c ****         return (OS_TMR_STATE_UNUSED);
 549:..\..\..\..\..\..\Software\uCOS-III\Source/os_tmr.c ****     }
 550:..\..\..\..\..\..\Software\uCOS-III\Source/os_tmr.c **** #endif
 551:..\..\..\..\..\..\Software\uCOS-III\Source/os_tmr.c **** 
 552:..\..\..\..\..\..\Software\uCOS-III\Source/os_tmr.c ****     CPU_CRITICAL_ENTER();
 272              		.loc 1 552 5 is_stmt 1 view .LVU80
 273              		.loc 1 552 5 view .LVU81
 274              		.loc 1 552 5 view .LVU82
 275 0012 FFF7FEFF 		bl	CPU_SR_Save
 276              	.LVL26:
 277              		.loc 1 552 5 is_stmt 0 view .LVU83
 278 0016 0600     		movs	r6, r0
 279              	.LVL27:
 280              		.loc 1 552 5 is_stmt 1 view .LVU84
 281 0018 FFF7FEFF 		bl	CPU_IntDisMeasStart
 282              	.LVL28:
 553:..\..\..\..\..\..\Software\uCOS-III\Source/os_tmr.c ****     state = p_tmr->State;
 283              		.loc 1 553 5 view .LVU85
 284              		.loc 1 553 11 is_stmt 0 view .LVU86
 285 001c 2A23     		movs	r3, #42
 286 001e E45C     		ldrb	r4, [r4, r3]
 287              	.LVL29:
 554:..\..\..\..\..\..\Software\uCOS-III\Source/os_tmr.c ****     switch (state) {
 288              		.loc 1 554 5 is_stmt 1 view .LVU87
 289 0020 032C     		cmp	r4, #3
 290 0022 0FD8     		bhi	.L22
 555:..\..\..\..\..\..\Software\uCOS-III\Source/os_tmr.c ****         case OS_TMR_STATE_UNUSED:
 556:..\..\..\..\..\..\Software\uCOS-III\Source/os_tmr.c ****         case OS_TMR_STATE_STOPPED:
 557:..\..\..\..\..\..\Software\uCOS-III\Source/os_tmr.c ****         case OS_TMR_STATE_COMPLETED:
 558:..\..\..\..\..\..\Software\uCOS-III\Source/os_tmr.c ****         case OS_TMR_STATE_RUNNING:
 559:..\..\..\..\..\..\Software\uCOS-III\Source/os_tmr.c ****             *p_err = OS_ERR_NONE;
 291              		.loc 1 559 13 view .LVU88
 292              		.loc 1 559 20 is_stmt 0 view .LVU89
 293 0024 0023     		movs	r3, #0
 294 0026 2B80     		strh	r3, [r5]
 560:..\..\..\..\..\..\Software\uCOS-III\Source/os_tmr.c ****              break;
 295              		.loc 1 560 14 is_stmt 1 view .LVU90
 296              	.L23:
 561:..\..\..\..\..\..\Software\uCOS-III\Source/os_tmr.c **** 
 562:..\..\..\..\..\..\Software\uCOS-III\Source/os_tmr.c ****         default:
 563:..\..\..\..\..\..\Software\uCOS-III\Source/os_tmr.c ****             *p_err = OS_ERR_TMR_INVALID_STATE;
 564:..\..\..\..\..\..\Software\uCOS-III\Source/os_tmr.c ****              break;
 565:..\..\..\..\..\..\Software\uCOS-III\Source/os_tmr.c ****     }
 566:..\..\..\..\..\..\Software\uCOS-III\Source/os_tmr.c ****     CPU_CRITICAL_EXIT();
 297              		.loc 1 566 5 view .LVU91
ARM GAS  C:\Users\EDULU~1.DES\AppData\Local\Temp\ccmSuQZN.s 			page 17


 298              		.loc 1 566 5 view .LVU92
 299 0028 FFF7FEFF 		bl	CPU_IntDisMeasStop
 300              	.LVL30:
 301              		.loc 1 566 5 view .LVU93
 302              		.loc 1 566 5 view .LVU94
 303 002c 3000     		movs	r0, r6
 304 002e FFF7FEFF 		bl	CPU_SR_Restore
 305              	.LVL31:
 567:..\..\..\..\..\..\Software\uCOS-III\Source/os_tmr.c ****     return (state);
 306              		.loc 1 567 5 view .LVU95
 307              	.L20:
 568:..\..\..\..\..\..\Software\uCOS-III\Source/os_tmr.c **** }
 308              		.loc 1 568 1 is_stmt 0 view .LVU96
 309 0032 2000     		movs	r0, r4
 310              		@ sp needed
 311              	.LVL32:
 312              		.loc 1 568 1 view .LVU97
 313 0034 70BD     		pop	{r4, r5, r6, pc}
 314              	.LVL33:
 315              	.L24:
 533:..\..\..\..\..\..\Software\uCOS-III\Source/os_tmr.c ****         return (OS_TMR_STATE_UNUSED);
 316              		.loc 1 533 8 is_stmt 1 view .LVU98
 533:..\..\..\..\..\..\Software\uCOS-III\Source/os_tmr.c ****         return (OS_TMR_STATE_UNUSED);
 317              		.loc 1 533 15 is_stmt 0 view .LVU99
 318 0036 064B     		ldr	r3, .L26+4
 319 0038 0B80     		strh	r3, [r1]
 534:..\..\..\..\..\..\Software\uCOS-III\Source/os_tmr.c ****     }
 320              		.loc 1 534 9 is_stmt 1 view .LVU100
 534:..\..\..\..\..\..\Software\uCOS-III\Source/os_tmr.c ****     }
 321              		.loc 1 534 16 is_stmt 0 view .LVU101
 322 003a 0024     		movs	r4, #0
 323 003c F9E7     		b	.L20
 324              	.L25:
 540:..\..\..\..\..\..\Software\uCOS-III\Source/os_tmr.c ****         return (OS_TMR_STATE_UNUSED);
 325              		.loc 1 540 8 is_stmt 1 view .LVU102
 540:..\..\..\..\..\..\Software\uCOS-III\Source/os_tmr.c ****         return (OS_TMR_STATE_UNUSED);
 326              		.loc 1 540 15 is_stmt 0 view .LVU103
 327 003e 054B     		ldr	r3, .L26+8
 328 0040 0B80     		strh	r3, [r1]
 541:..\..\..\..\..\..\Software\uCOS-III\Source/os_tmr.c ****     }
 329              		.loc 1 541 9 is_stmt 1 view .LVU104
 541:..\..\..\..\..\..\Software\uCOS-III\Source/os_tmr.c ****     }
 330              		.loc 1 541 16 is_stmt 0 view .LVU105
 331 0042 F6E7     		b	.L20
 332              	.LVL34:
 333              	.L22:
 563:..\..\..\..\..\..\Software\uCOS-III\Source/os_tmr.c ****              break;
 334              		.loc 1 563 13 is_stmt 1 view .LVU106
 563:..\..\..\..\..\..\Software\uCOS-III\Source/os_tmr.c ****              break;
 335              		.loc 1 563 20 is_stmt 0 view .LVU107
 336 0044 044B     		ldr	r3, .L26+12
 337 0046 2B80     		strh	r3, [r5]
 564:..\..\..\..\..\..\Software\uCOS-III\Source/os_tmr.c ****     }
 338              		.loc 1 564 14 is_stmt 1 view .LVU108
 339 0048 EEE7     		b	.L23
 340              	.L27:
 341 004a C046     		.align	2
ARM GAS  C:\Users\EDULU~1.DES\AppData\Local\Temp\ccmSuQZN.s 			page 18


 342              	.L26:
 343 004c 00000000 		.word	OSIntNestingCtr
 344 0050 43730000 		.word	29507
 345 0054 42730000 		.word	29506
 346 0058 41730000 		.word	29505
 347              		.cfi_endproc
 348              	.LFE6:
 349              		.size	OSTmrStateGet, .-OSTmrStateGet
 350              		.section	.text.OS_TmrClr,"ax",%progbits
 351              		.align	1
 352              		.global	OS_TmrClr
 353              		.syntax unified
 354              		.code	16
 355              		.thumb_func
 356              		.fpu softvfp
 357              		.type	OS_TmrClr, %function
 358              	OS_TmrClr:
 359              	.LVL35:
 360              	.LFB8:
 569:..\..\..\..\..\..\Software\uCOS-III\Source/os_tmr.c **** 
 570:..\..\..\..\..\..\Software\uCOS-III\Source/os_tmr.c **** /*$PAGE*/
 571:..\..\..\..\..\..\Software\uCOS-III\Source/os_tmr.c **** /*
 572:..\..\..\..\..\..\Software\uCOS-III\Source/os_tmr.c **** ***************************************************************************************************
 573:..\..\..\..\..\..\Software\uCOS-III\Source/os_tmr.c **** *                                                    STOP A TIMER
 574:..\..\..\..\..\..\Software\uCOS-III\Source/os_tmr.c **** *
 575:..\..\..\..\..\..\Software\uCOS-III\Source/os_tmr.c **** * Description: This function is called by your application code to stop a timer.
 576:..\..\..\..\..\..\Software\uCOS-III\Source/os_tmr.c **** *
 577:..\..\..\..\..\..\Software\uCOS-III\Source/os_tmr.c **** * Arguments  : p_tmr          Is a pointer to the timer to stop.
 578:..\..\..\..\..\..\Software\uCOS-III\Source/os_tmr.c **** *
 579:..\..\..\..\..\..\Software\uCOS-III\Source/os_tmr.c **** *              opt           Allows you to specify an option to this functions which can be:
 580:..\..\..\..\..\..\Software\uCOS-III\Source/os_tmr.c **** *
 581:..\..\..\..\..\..\Software\uCOS-III\Source/os_tmr.c **** *                               OS_OPT_TMR_NONE            Do nothing special but stop the timer
 582:..\..\..\..\..\..\Software\uCOS-III\Source/os_tmr.c **** *                               OS_OPT_TMR_CALLBACK        Execute the callback function, pass it t
 583:..\..\..\..\..\..\Software\uCOS-III\Source/os_tmr.c **** *                                                          specified when the timer was created.
 584:..\..\..\..\..\..\Software\uCOS-III\Source/os_tmr.c **** *                               OS_OPT_TMR_CALLBACK_ARG    Execute the callback function, pass it t
 585:..\..\..\..\..\..\Software\uCOS-III\Source/os_tmr.c **** *                                                          specified in THIS function call
 586:..\..\..\..\..\..\Software\uCOS-III\Source/os_tmr.c **** *
 587:..\..\..\..\..\..\Software\uCOS-III\Source/os_tmr.c **** *              callback_arg  Is a pointer to a 'new' callback argument that can be passed to the ca
 588:..\..\..\..\..\..\Software\uCOS-III\Source/os_tmr.c **** *                               instead of the timer's callback argument.  In other words, use 'cal
 589:..\..\..\..\..\..\Software\uCOS-III\Source/os_tmr.c **** *                               THIS function INSTEAD of p_tmr->OSTmrCallbackArg
 590:..\..\..\..\..\..\Software\uCOS-III\Source/os_tmr.c **** *
 591:..\..\..\..\..\..\Software\uCOS-III\Source/os_tmr.c **** *              p_err          Is a pointer to an error code.  '*p_err' will contain one of the foll
 592:..\..\..\..\..\..\Software\uCOS-III\Source/os_tmr.c **** *                               OS_ERR_NONE
 593:..\..\..\..\..\..\Software\uCOS-III\Source/os_tmr.c **** *                               OS_ERR_OBJ_TYPE            if 'p_tmr' is not pointing to a timer
 594:..\..\..\..\..\..\Software\uCOS-III\Source/os_tmr.c **** *                               OS_ERR_OPT_INVALID         if you specified an invalid option for '
 595:..\..\..\..\..\..\Software\uCOS-III\Source/os_tmr.c **** *                               OS_ERR_TMR_INACTIVE        if the timer was not created
 596:..\..\..\..\..\..\Software\uCOS-III\Source/os_tmr.c **** *                               OS_ERR_TMR_INVALID         'p_tmr' is a NULL pointer
 597:..\..\..\..\..\..\Software\uCOS-III\Source/os_tmr.c **** *                               OS_ERR_TMR_INVALID_STATE   the timer is in an invalid state
 598:..\..\..\..\..\..\Software\uCOS-III\Source/os_tmr.c **** *                               OS_ERR_TMR_ISR             if the function was called from an ISR
 599:..\..\..\..\..\..\Software\uCOS-III\Source/os_tmr.c **** *                               OS_ERR_TMR_NO_CALLBACK     if the timer does not have a callback fu
 600:..\..\..\..\..\..\Software\uCOS-III\Source/os_tmr.c **** *                               OS_ERR_TMR_STOPPED         if the timer was already stopped
 601:..\..\..\..\..\..\Software\uCOS-III\Source/os_tmr.c **** *
 602:..\..\..\..\..\..\Software\uCOS-III\Source/os_tmr.c **** * Returns    : DEF_TRUE       If we stopped the timer (if the timer is already stopped, we also ret
 603:..\..\..\..\..\..\Software\uCOS-III\Source/os_tmr.c **** *              DEF_FALSE      If not
 604:..\..\..\..\..\..\Software\uCOS-III\Source/os_tmr.c **** ***************************************************************************************************
 605:..\..\..\..\..\..\Software\uCOS-III\Source/os_tmr.c **** */
 606:..\..\..\..\..\..\Software\uCOS-III\Source/os_tmr.c **** 
ARM GAS  C:\Users\EDULU~1.DES\AppData\Local\Temp\ccmSuQZN.s 			page 19


 607:..\..\..\..\..\..\Software\uCOS-III\Source/os_tmr.c **** CPU_BOOLEAN  OSTmrStop (OS_TMR  *p_tmr,
 608:..\..\..\..\..\..\Software\uCOS-III\Source/os_tmr.c ****                         OS_OPT   opt,
 609:..\..\..\..\..\..\Software\uCOS-III\Source/os_tmr.c ****                         void    *p_callback_arg,
 610:..\..\..\..\..\..\Software\uCOS-III\Source/os_tmr.c ****                         OS_ERR  *p_err)
 611:..\..\..\..\..\..\Software\uCOS-III\Source/os_tmr.c **** {
 612:..\..\..\..\..\..\Software\uCOS-III\Source/os_tmr.c ****     OS_TMR_CALLBACK_PTR  p_fnct;
 613:..\..\..\..\..\..\Software\uCOS-III\Source/os_tmr.c ****     OS_ERR               err;
 614:..\..\..\..\..\..\Software\uCOS-III\Source/os_tmr.c ****     CPU_BOOLEAN          success;
 615:..\..\..\..\..\..\Software\uCOS-III\Source/os_tmr.c **** 
 616:..\..\..\..\..\..\Software\uCOS-III\Source/os_tmr.c **** 
 617:..\..\..\..\..\..\Software\uCOS-III\Source/os_tmr.c **** 
 618:..\..\..\..\..\..\Software\uCOS-III\Source/os_tmr.c **** #ifdef OS_SAFETY_CRITICAL
 619:..\..\..\..\..\..\Software\uCOS-III\Source/os_tmr.c ****     if (p_err == (OS_ERR *)0) {
 620:..\..\..\..\..\..\Software\uCOS-III\Source/os_tmr.c ****         OS_SAFETY_CRITICAL_EXCEPTION();
 621:..\..\..\..\..\..\Software\uCOS-III\Source/os_tmr.c ****         return (DEF_FALSE);
 622:..\..\..\..\..\..\Software\uCOS-III\Source/os_tmr.c ****     }
 623:..\..\..\..\..\..\Software\uCOS-III\Source/os_tmr.c **** #endif
 624:..\..\..\..\..\..\Software\uCOS-III\Source/os_tmr.c **** 
 625:..\..\..\..\..\..\Software\uCOS-III\Source/os_tmr.c **** #if OS_CFG_CALLED_FROM_ISR_CHK_EN > 0u
 626:..\..\..\..\..\..\Software\uCOS-III\Source/os_tmr.c ****     if (OSIntNestingCtr > (OS_NESTING_CTR)0) {                        /* See if trying to call from
 627:..\..\..\..\..\..\Software\uCOS-III\Source/os_tmr.c ****        *p_err = OS_ERR_TMR_ISR;
 628:..\..\..\..\..\..\Software\uCOS-III\Source/os_tmr.c ****         return (DEF_FALSE);
 629:..\..\..\..\..\..\Software\uCOS-III\Source/os_tmr.c ****     }
 630:..\..\..\..\..\..\Software\uCOS-III\Source/os_tmr.c **** #endif
 631:..\..\..\..\..\..\Software\uCOS-III\Source/os_tmr.c **** 
 632:..\..\..\..\..\..\Software\uCOS-III\Source/os_tmr.c **** #if OS_CFG_ARG_CHK_EN > 0u
 633:..\..\..\..\..\..\Software\uCOS-III\Source/os_tmr.c ****     if (p_tmr == (OS_TMR *)0) {
 634:..\..\..\..\..\..\Software\uCOS-III\Source/os_tmr.c ****        *p_err = OS_ERR_TMR_INVALID;
 635:..\..\..\..\..\..\Software\uCOS-III\Source/os_tmr.c ****         return (DEF_FALSE);
 636:..\..\..\..\..\..\Software\uCOS-III\Source/os_tmr.c ****     }
 637:..\..\..\..\..\..\Software\uCOS-III\Source/os_tmr.c **** #endif
 638:..\..\..\..\..\..\Software\uCOS-III\Source/os_tmr.c **** 
 639:..\..\..\..\..\..\Software\uCOS-III\Source/os_tmr.c **** #if OS_CFG_OBJ_TYPE_CHK_EN > 0u
 640:..\..\..\..\..\..\Software\uCOS-III\Source/os_tmr.c ****     if (p_tmr->Type != OS_OBJ_TYPE_TMR) {                             /* Make sure timer was create
 641:..\..\..\..\..\..\Software\uCOS-III\Source/os_tmr.c ****        *p_err = OS_ERR_OBJ_TYPE;
 642:..\..\..\..\..\..\Software\uCOS-III\Source/os_tmr.c ****         return (DEF_FALSE);
 643:..\..\..\..\..\..\Software\uCOS-III\Source/os_tmr.c ****     }
 644:..\..\..\..\..\..\Software\uCOS-III\Source/os_tmr.c **** #endif
 645:..\..\..\..\..\..\Software\uCOS-III\Source/os_tmr.c **** 
 646:..\..\..\..\..\..\Software\uCOS-III\Source/os_tmr.c ****     OSSchedLock(&err);
 647:..\..\..\..\..\..\Software\uCOS-III\Source/os_tmr.c ****     switch (p_tmr->State) {
 648:..\..\..\..\..\..\Software\uCOS-III\Source/os_tmr.c ****         case OS_TMR_STATE_RUNNING:
 649:..\..\..\..\..\..\Software\uCOS-III\Source/os_tmr.c ****              OS_TmrUnlink(p_tmr);                                     /* Remove from current wheel 
 650:..\..\..\..\..\..\Software\uCOS-III\Source/os_tmr.c ****             *p_err = OS_ERR_NONE;
 651:..\..\..\..\..\..\Software\uCOS-III\Source/os_tmr.c ****              switch (opt) {
 652:..\..\..\..\..\..\Software\uCOS-III\Source/os_tmr.c ****                  case OS_OPT_TMR_CALLBACK:
 653:..\..\..\..\..\..\Software\uCOS-III\Source/os_tmr.c ****                       p_fnct = p_tmr->CallbackPtr;                         /* Execute callback func
 654:..\..\..\..\..\..\Software\uCOS-III\Source/os_tmr.c ****                       if (p_fnct != (OS_TMR_CALLBACK_PTR)0) {              /* ... if available     
 655:..\..\..\..\..\..\Software\uCOS-III\Source/os_tmr.c ****                         (*p_fnct)((void *)p_tmr, p_tmr->CallbackPtrArg);   /* Use callback arg when
 656:..\..\..\..\..\..\Software\uCOS-III\Source/os_tmr.c ****                       } else {
 657:..\..\..\..\..\..\Software\uCOS-III\Source/os_tmr.c ****                          *p_err = OS_ERR_TMR_NO_CALLBACK;
 658:..\..\..\..\..\..\Software\uCOS-III\Source/os_tmr.c ****                       }
 659:..\..\..\..\..\..\Software\uCOS-III\Source/os_tmr.c ****                       break;
 660:..\..\..\..\..\..\Software\uCOS-III\Source/os_tmr.c **** 
 661:..\..\..\..\..\..\Software\uCOS-III\Source/os_tmr.c ****                  case OS_OPT_TMR_CALLBACK_ARG:
 662:..\..\..\..\..\..\Software\uCOS-III\Source/os_tmr.c ****                       p_fnct = p_tmr->CallbackPtr;                    /* Execute callback function 
 663:..\..\..\..\..\..\Software\uCOS-III\Source/os_tmr.c ****                       if (p_fnct != (OS_TMR_CALLBACK_PTR)0) {
ARM GAS  C:\Users\EDULU~1.DES\AppData\Local\Temp\ccmSuQZN.s 			page 20


 664:..\..\..\..\..\..\Software\uCOS-III\Source/os_tmr.c ****                         (*p_fnct)((void *)p_tmr, p_callback_arg);     /* .. using the 'callback_arg
 665:..\..\..\..\..\..\Software\uCOS-III\Source/os_tmr.c ****                       } else {
 666:..\..\..\..\..\..\Software\uCOS-III\Source/os_tmr.c ****                          *p_err = OS_ERR_TMR_NO_CALLBACK;
 667:..\..\..\..\..\..\Software\uCOS-III\Source/os_tmr.c ****                       }
 668:..\..\..\..\..\..\Software\uCOS-III\Source/os_tmr.c ****                       break;
 669:..\..\..\..\..\..\Software\uCOS-III\Source/os_tmr.c **** 
 670:..\..\..\..\..\..\Software\uCOS-III\Source/os_tmr.c ****                  case OS_OPT_TMR_NONE:
 671:..\..\..\..\..\..\Software\uCOS-III\Source/os_tmr.c ****                       break;
 672:..\..\..\..\..\..\Software\uCOS-III\Source/os_tmr.c **** 
 673:..\..\..\..\..\..\Software\uCOS-III\Source/os_tmr.c ****                  default:
 674:..\..\..\..\..\..\Software\uCOS-III\Source/os_tmr.c ****                      OSSchedUnlock(&err);
 675:..\..\..\..\..\..\Software\uCOS-III\Source/os_tmr.c ****                     *p_err = OS_ERR_OPT_INVALID;
 676:..\..\..\..\..\..\Software\uCOS-III\Source/os_tmr.c ****                      return (DEF_FALSE);
 677:..\..\..\..\..\..\Software\uCOS-III\Source/os_tmr.c ****              }
 678:..\..\..\..\..\..\Software\uCOS-III\Source/os_tmr.c ****              OSSchedUnlock(&err);
 679:..\..\..\..\..\..\Software\uCOS-III\Source/os_tmr.c ****              success = DEF_TRUE;
 680:..\..\..\..\..\..\Software\uCOS-III\Source/os_tmr.c ****              break;
 681:..\..\..\..\..\..\Software\uCOS-III\Source/os_tmr.c **** 
 682:..\..\..\..\..\..\Software\uCOS-III\Source/os_tmr.c ****         case OS_TMR_STATE_COMPLETED:                                  /* Timer has already complete
 683:..\..\..\..\..\..\Software\uCOS-III\Source/os_tmr.c ****         case OS_TMR_STATE_STOPPED:                                    /* ... timer has not started 
 684:..\..\..\..\..\..\Software\uCOS-III\Source/os_tmr.c ****              OSSchedUnlock(&err);
 685:..\..\..\..\..\..\Software\uCOS-III\Source/os_tmr.c ****             *p_err   = OS_ERR_TMR_STOPPED;
 686:..\..\..\..\..\..\Software\uCOS-III\Source/os_tmr.c ****              success = DEF_TRUE;
 687:..\..\..\..\..\..\Software\uCOS-III\Source/os_tmr.c ****              break;
 688:..\..\..\..\..\..\Software\uCOS-III\Source/os_tmr.c **** 
 689:..\..\..\..\..\..\Software\uCOS-III\Source/os_tmr.c ****         case OS_TMR_STATE_UNUSED:                                     /* Timer was not created     
 690:..\..\..\..\..\..\Software\uCOS-III\Source/os_tmr.c ****              OSSchedUnlock(&err);
 691:..\..\..\..\..\..\Software\uCOS-III\Source/os_tmr.c ****             *p_err   = OS_ERR_TMR_INACTIVE;
 692:..\..\..\..\..\..\Software\uCOS-III\Source/os_tmr.c ****              success = DEF_FALSE;
 693:..\..\..\..\..\..\Software\uCOS-III\Source/os_tmr.c ****              break;
 694:..\..\..\..\..\..\Software\uCOS-III\Source/os_tmr.c **** 
 695:..\..\..\..\..\..\Software\uCOS-III\Source/os_tmr.c ****         default:
 696:..\..\..\..\..\..\Software\uCOS-III\Source/os_tmr.c ****              OSSchedUnlock(&err);
 697:..\..\..\..\..\..\Software\uCOS-III\Source/os_tmr.c ****             *p_err   = OS_ERR_TMR_INVALID_STATE;
 698:..\..\..\..\..\..\Software\uCOS-III\Source/os_tmr.c ****              success = DEF_FALSE;
 699:..\..\..\..\..\..\Software\uCOS-III\Source/os_tmr.c ****              break;
 700:..\..\..\..\..\..\Software\uCOS-III\Source/os_tmr.c ****     }
 701:..\..\..\..\..\..\Software\uCOS-III\Source/os_tmr.c ****     return (success);
 702:..\..\..\..\..\..\Software\uCOS-III\Source/os_tmr.c **** }
 703:..\..\..\..\..\..\Software\uCOS-III\Source/os_tmr.c **** 
 704:..\..\..\..\..\..\Software\uCOS-III\Source/os_tmr.c **** /*$PAGE*/
 705:..\..\..\..\..\..\Software\uCOS-III\Source/os_tmr.c **** /*
 706:..\..\..\..\..\..\Software\uCOS-III\Source/os_tmr.c **** ***************************************************************************************************
 707:..\..\..\..\..\..\Software\uCOS-III\Source/os_tmr.c **** *                                                 CLEAR TIMER FIELDS
 708:..\..\..\..\..\..\Software\uCOS-III\Source/os_tmr.c **** *
 709:..\..\..\..\..\..\Software\uCOS-III\Source/os_tmr.c **** * Description: This function is called to clear all timer fields.
 710:..\..\..\..\..\..\Software\uCOS-III\Source/os_tmr.c **** *
 711:..\..\..\..\..\..\Software\uCOS-III\Source/os_tmr.c **** * Argument(s): p_tmr    is a pointer to the timer to clear
 712:..\..\..\..\..\..\Software\uCOS-III\Source/os_tmr.c **** *              -----
 713:..\..\..\..\..\..\Software\uCOS-III\Source/os_tmr.c **** *
 714:..\..\..\..\..\..\Software\uCOS-III\Source/os_tmr.c **** * Returns    : none
 715:..\..\..\..\..\..\Software\uCOS-III\Source/os_tmr.c **** *
 716:..\..\..\..\..\..\Software\uCOS-III\Source/os_tmr.c **** * Note(s)    : 1) This function is INTERNAL to uC/OS-III and your application MUST NOT call it.
 717:..\..\..\..\..\..\Software\uCOS-III\Source/os_tmr.c **** ***************************************************************************************************
 718:..\..\..\..\..\..\Software\uCOS-III\Source/os_tmr.c **** */
 719:..\..\..\..\..\..\Software\uCOS-III\Source/os_tmr.c **** 
 720:..\..\..\..\..\..\Software\uCOS-III\Source/os_tmr.c **** void  OS_TmrClr (OS_TMR  *p_tmr)
ARM GAS  C:\Users\EDULU~1.DES\AppData\Local\Temp\ccmSuQZN.s 			page 21


 721:..\..\..\..\..\..\Software\uCOS-III\Source/os_tmr.c **** {
 361              		.loc 1 721 1 view -0
 362              		.cfi_startproc
 363              		@ args = 0, pretend = 0, frame = 0
 364              		@ frame_needed = 0, uses_anonymous_args = 0
 365              		@ link register save eliminated.
 722:..\..\..\..\..\..\Software\uCOS-III\Source/os_tmr.c ****     p_tmr->State          = OS_TMR_STATE_UNUSED;            /* Clear timer fields                  
 366              		.loc 1 722 5 view .LVU110
 367              		.loc 1 722 27 is_stmt 0 view .LVU111
 368 0000 0023     		movs	r3, #0
 369 0002 2A22     		movs	r2, #42
 370 0004 8354     		strb	r3, [r0, r2]
 723:..\..\..\..\..\..\Software\uCOS-III\Source/os_tmr.c ****     p_tmr->Type           = OS_OBJ_TYPE_NONE;
 371              		.loc 1 723 5 is_stmt 1 view .LVU112
 372              		.loc 1 723 27 is_stmt 0 view .LVU113
 373 0006 074A     		ldr	r2, .L29
 374 0008 0260     		str	r2, [r0]
 724:..\..\..\..\..\..\Software\uCOS-III\Source/os_tmr.c ****     p_tmr->NamePtr        = (CPU_CHAR          *)((void *)"?TMR");
 375              		.loc 1 724 5 is_stmt 1 view .LVU114
 376              		.loc 1 724 27 is_stmt 0 view .LVU115
 377 000a 074A     		ldr	r2, .L29+4
 378 000c 4260     		str	r2, [r0, #4]
 725:..\..\..\..\..\..\Software\uCOS-III\Source/os_tmr.c ****     p_tmr->Dly            = (OS_TICK            )0;
 379              		.loc 1 725 5 is_stmt 1 view .LVU116
 380              		.loc 1 725 27 is_stmt 0 view .LVU117
 381 000e 0362     		str	r3, [r0, #32]
 726:..\..\..\..\..\..\Software\uCOS-III\Source/os_tmr.c ****     p_tmr->Match          = (OS_TICK            )0;
 382              		.loc 1 726 5 is_stmt 1 view .LVU118
 383              		.loc 1 726 27 is_stmt 0 view .LVU119
 384 0010 8361     		str	r3, [r0, #24]
 727:..\..\..\..\..\..\Software\uCOS-III\Source/os_tmr.c ****     p_tmr->Remain         = (OS_TICK            )0;
 385              		.loc 1 727 5 is_stmt 1 view .LVU120
 386              		.loc 1 727 27 is_stmt 0 view .LVU121
 387 0012 C361     		str	r3, [r0, #28]
 728:..\..\..\..\..\..\Software\uCOS-III\Source/os_tmr.c ****     p_tmr->Period         = (OS_TICK            )0;
 388              		.loc 1 728 5 is_stmt 1 view .LVU122
 389              		.loc 1 728 27 is_stmt 0 view .LVU123
 390 0014 4362     		str	r3, [r0, #36]
 729:..\..\..\..\..\..\Software\uCOS-III\Source/os_tmr.c ****     p_tmr->Opt            = (OS_OPT             )0;
 391              		.loc 1 729 5 is_stmt 1 view .LVU124
 392              		.loc 1 729 27 is_stmt 0 view .LVU125
 393 0016 0385     		strh	r3, [r0, #40]
 730:..\..\..\..\..\..\Software\uCOS-III\Source/os_tmr.c ****     p_tmr->CallbackPtr    = (OS_TMR_CALLBACK_PTR)0;
 394              		.loc 1 730 5 is_stmt 1 view .LVU126
 395              		.loc 1 730 27 is_stmt 0 view .LVU127
 396 0018 8360     		str	r3, [r0, #8]
 731:..\..\..\..\..\..\Software\uCOS-III\Source/os_tmr.c ****     p_tmr->CallbackPtrArg = (void              *)0;
 397              		.loc 1 731 5 is_stmt 1 view .LVU128
 398              		.loc 1 731 27 is_stmt 0 view .LVU129
 399 001a C360     		str	r3, [r0, #12]
 732:..\..\..\..\..\..\Software\uCOS-III\Source/os_tmr.c ****     p_tmr->NextPtr        = (OS_TMR            *)0;
 400              		.loc 1 732 5 is_stmt 1 view .LVU130
 401              		.loc 1 732 27 is_stmt 0 view .LVU131
 402 001c 0361     		str	r3, [r0, #16]
 733:..\..\..\..\..\..\Software\uCOS-III\Source/os_tmr.c ****     p_tmr->PrevPtr        = (OS_TMR            *)0;
 403              		.loc 1 733 5 is_stmt 1 view .LVU132
 404              		.loc 1 733 27 is_stmt 0 view .LVU133
ARM GAS  C:\Users\EDULU~1.DES\AppData\Local\Temp\ccmSuQZN.s 			page 22


 405 001e 4361     		str	r3, [r0, #20]
 734:..\..\..\..\..\..\Software\uCOS-III\Source/os_tmr.c **** }
 406              		.loc 1 734 1 view .LVU134
 407              		@ sp needed
 408 0020 7047     		bx	lr
 409              	.L30:
 410 0022 C046     		.align	2
 411              	.L29:
 412 0024 4E4F4E45 		.word	1162760014
 413 0028 00000000 		.word	.LC3
 414              		.cfi_endproc
 415              	.LFE8:
 416              		.size	OS_TmrClr, .-OS_TmrClr
 417              		.section	.text.OS_TmrDbgListAdd,"ax",%progbits
 418              		.align	1
 419              		.global	OS_TmrDbgListAdd
 420              		.syntax unified
 421              		.code	16
 422              		.thumb_func
 423              		.fpu softvfp
 424              		.type	OS_TmrDbgListAdd, %function
 425              	OS_TmrDbgListAdd:
 426              	.LVL36:
 427              	.LFB9:
 735:..\..\..\..\..\..\Software\uCOS-III\Source/os_tmr.c **** 
 736:..\..\..\..\..\..\Software\uCOS-III\Source/os_tmr.c **** /*$PAGE*/
 737:..\..\..\..\..\..\Software\uCOS-III\Source/os_tmr.c **** /*
 738:..\..\..\..\..\..\Software\uCOS-III\Source/os_tmr.c **** ***************************************************************************************************
 739:..\..\..\..\..\..\Software\uCOS-III\Source/os_tmr.c **** *                                         ADD/REMOVE TIMER TO/FROM DEBUG TABLE
 740:..\..\..\..\..\..\Software\uCOS-III\Source/os_tmr.c **** *
 741:..\..\..\..\..\..\Software\uCOS-III\Source/os_tmr.c **** * Description: These functions are called by uC/OS-III to add or remove a timer to/from a timer deb
 742:..\..\..\..\..\..\Software\uCOS-III\Source/os_tmr.c **** *
 743:..\..\..\..\..\..\Software\uCOS-III\Source/os_tmr.c **** * Arguments  : p_tmr     is a pointer to the timer to add/remove
 744:..\..\..\..\..\..\Software\uCOS-III\Source/os_tmr.c **** *
 745:..\..\..\..\..\..\Software\uCOS-III\Source/os_tmr.c **** * Returns    : none
 746:..\..\..\..\..\..\Software\uCOS-III\Source/os_tmr.c **** *
 747:..\..\..\..\..\..\Software\uCOS-III\Source/os_tmr.c **** * Note(s)    : These functions are INTERNAL to uC/OS-III and your application should not call it.
 748:..\..\..\..\..\..\Software\uCOS-III\Source/os_tmr.c **** ***************************************************************************************************
 749:..\..\..\..\..\..\Software\uCOS-III\Source/os_tmr.c **** */
 750:..\..\..\..\..\..\Software\uCOS-III\Source/os_tmr.c **** 
 751:..\..\..\..\..\..\Software\uCOS-III\Source/os_tmr.c **** 
 752:..\..\..\..\..\..\Software\uCOS-III\Source/os_tmr.c **** #if OS_CFG_DBG_EN > 0u
 753:..\..\..\..\..\..\Software\uCOS-III\Source/os_tmr.c **** void  OS_TmrDbgListAdd (OS_TMR  *p_tmr)
 754:..\..\..\..\..\..\Software\uCOS-III\Source/os_tmr.c **** {
 428              		.loc 1 754 1 is_stmt 1 view -0
 429              		.cfi_startproc
 430              		@ args = 0, pretend = 0, frame = 0
 431              		@ frame_needed = 0, uses_anonymous_args = 0
 432              		@ link register save eliminated.
 755:..\..\..\..\..\..\Software\uCOS-III\Source/os_tmr.c ****     p_tmr->DbgPrevPtr               = (OS_TMR *)0;
 433              		.loc 1 755 5 view .LVU136
 434              		.loc 1 755 37 is_stmt 0 view .LVU137
 435 0000 0023     		movs	r3, #0
 436 0002 C362     		str	r3, [r0, #44]
 756:..\..\..\..\..\..\Software\uCOS-III\Source/os_tmr.c ****     if (OSTmrDbgListPtr == (OS_TMR *)0) {
 437              		.loc 1 756 5 is_stmt 1 view .LVU138
 438              		.loc 1 756 25 is_stmt 0 view .LVU139
ARM GAS  C:\Users\EDULU~1.DES\AppData\Local\Temp\ccmSuQZN.s 			page 23


 439 0004 054B     		ldr	r3, .L35
 440 0006 1B68     		ldr	r3, [r3]
 441              		.loc 1 756 8 view .LVU140
 442 0008 002B     		cmp	r3, #0
 443 000a 04D0     		beq	.L34
 757:..\..\..\..\..\..\Software\uCOS-III\Source/os_tmr.c ****         p_tmr->DbgNextPtr           = (OS_TMR *)0;
 758:..\..\..\..\..\..\Software\uCOS-III\Source/os_tmr.c ****     } else {
 759:..\..\..\..\..\..\Software\uCOS-III\Source/os_tmr.c ****         p_tmr->DbgNextPtr           =  OSTmrDbgListPtr;
 444              		.loc 1 759 9 is_stmt 1 view .LVU141
 445              		.loc 1 759 37 is_stmt 0 view .LVU142
 446 000c 0363     		str	r3, [r0, #48]
 760:..\..\..\..\..\..\Software\uCOS-III\Source/os_tmr.c ****         OSTmrDbgListPtr->DbgPrevPtr =  p_tmr;
 447              		.loc 1 760 9 is_stmt 1 view .LVU143
 448              		.loc 1 760 37 is_stmt 0 view .LVU144
 449 000e D862     		str	r0, [r3, #44]
 450              	.L33:
 761:..\..\..\..\..\..\Software\uCOS-III\Source/os_tmr.c ****     }
 762:..\..\..\..\..\..\Software\uCOS-III\Source/os_tmr.c ****     OSTmrDbgListPtr                 =  p_tmr;
 451              		.loc 1 762 5 is_stmt 1 view .LVU145
 452              		.loc 1 762 37 is_stmt 0 view .LVU146
 453 0010 024B     		ldr	r3, .L35
 454 0012 1860     		str	r0, [r3]
 763:..\..\..\..\..\..\Software\uCOS-III\Source/os_tmr.c **** }
 455              		.loc 1 763 1 view .LVU147
 456              		@ sp needed
 457 0014 7047     		bx	lr
 458              	.L34:
 757:..\..\..\..\..\..\Software\uCOS-III\Source/os_tmr.c ****     } else {
 459              		.loc 1 757 9 is_stmt 1 view .LVU148
 757:..\..\..\..\..\..\Software\uCOS-III\Source/os_tmr.c ****     } else {
 460              		.loc 1 757 37 is_stmt 0 view .LVU149
 461 0016 0363     		str	r3, [r0, #48]
 462 0018 FAE7     		b	.L33
 463              	.L36:
 464 001a C046     		.align	2
 465              	.L35:
 466 001c 00000000 		.word	OSTmrDbgListPtr
 467              		.cfi_endproc
 468              	.LFE9:
 469              		.size	OS_TmrDbgListAdd, .-OS_TmrDbgListAdd
 470              		.section	.text.OSTmrCreate,"ax",%progbits
 471              		.align	1
 472              		.global	OSTmrCreate
 473              		.syntax unified
 474              		.code	16
 475              		.thumb_func
 476              		.fpu softvfp
 477              		.type	OSTmrCreate, %function
 478              	OSTmrCreate:
 479              	.LVL37:
 480              	.LFB3:
 112:..\..\..\..\..\..\Software\uCOS-III\Source/os_tmr.c ****     CPU_SR_ALLOC();
 481              		.loc 1 112 1 is_stmt 1 view -0
 482              		.cfi_startproc
 483              		@ args = 16, pretend = 0, frame = 8
 484              		@ frame_needed = 0, uses_anonymous_args = 0
 112:..\..\..\..\..\..\Software\uCOS-III\Source/os_tmr.c ****     CPU_SR_ALLOC();
ARM GAS  C:\Users\EDULU~1.DES\AppData\Local\Temp\ccmSuQZN.s 			page 24


 485              		.loc 1 112 1 is_stmt 0 view .LVU151
 486 0000 F0B5     		push	{r4, r5, r6, r7, lr}
 487              		.cfi_def_cfa_offset 20
 488              		.cfi_offset 4, -20
 489              		.cfi_offset 5, -16
 490              		.cfi_offset 6, -12
 491              		.cfi_offset 7, -8
 492              		.cfi_offset 14, -4
 493 0002 83B0     		sub	sp, sp, #12
 494              		.cfi_def_cfa_offset 32
 495 0004 0700     		movs	r7, r0
 496 0006 0091     		str	r1, [sp]
 497 0008 1500     		movs	r5, r2
 498 000a 1C00     		movs	r4, r3
 499 000c 08AB     		add	r3, sp, #32
 500              	.LVL38:
 112:..\..\..\..\..\..\Software\uCOS-III\Source/os_tmr.c ****     CPU_SR_ALLOC();
 501              		.loc 1 112 1 view .LVU152
 502 000e 1E88     		ldrh	r6, [r3]
 113:..\..\..\..\..\..\Software\uCOS-III\Source/os_tmr.c **** 
 503              		.loc 1 113 5 is_stmt 1 view .LVU153
 504              	.LVL39:
 132:..\..\..\..\..\..\Software\uCOS-III\Source/os_tmr.c ****        *p_err = OS_ERR_TMR_ISR;
 505              		.loc 1 132 5 view .LVU154
 132:..\..\..\..\..\..\Software\uCOS-III\Source/os_tmr.c ****        *p_err = OS_ERR_TMR_ISR;
 506              		.loc 1 132 25 is_stmt 0 view .LVU155
 507 0010 244B     		ldr	r3, .L47
 508              	.LVL40:
 132:..\..\..\..\..\..\Software\uCOS-III\Source/os_tmr.c ****        *p_err = OS_ERR_TMR_ISR;
 509              		.loc 1 132 25 view .LVU156
 510 0012 1B78     		ldrb	r3, [r3]
 132:..\..\..\..\..\..\Software\uCOS-III\Source/os_tmr.c ****        *p_err = OS_ERR_TMR_ISR;
 511              		.loc 1 132 8 view .LVU157
 512 0014 002B     		cmp	r3, #0
 513 0016 2ED1     		bne	.L44
 139:..\..\..\..\..\..\Software\uCOS-III\Source/os_tmr.c ****        *p_err = OS_ERR_OBJ_PTR_NULL;
 514              		.loc 1 139 5 is_stmt 1 view .LVU158
 139:..\..\..\..\..\..\Software\uCOS-III\Source/os_tmr.c ****        *p_err = OS_ERR_OBJ_PTR_NULL;
 515              		.loc 1 139 8 is_stmt 0 view .LVU159
 516 0018 0028     		cmp	r0, #0
 517 001a 31D0     		beq	.L45
 144:..\..\..\..\..\..\Software\uCOS-III\Source/os_tmr.c ****         case OS_OPT_TMR_PERIODIC:
 518              		.loc 1 144 5 is_stmt 1 view .LVU160
 519 001c 012E     		cmp	r6, #1
 520 001e 37D0     		beq	.L41
 521 0020 022E     		cmp	r6, #2
 522 0022 3BD1     		bne	.L42
 146:..\..\..\..\..\..\Software\uCOS-III\Source/os_tmr.c ****                 *p_err = OS_ERR_TMR_INVALID_PERIOD;
 523              		.loc 1 146 14 view .LVU161
 146:..\..\..\..\..\..\Software\uCOS-III\Source/os_tmr.c ****                 *p_err = OS_ERR_TMR_INVALID_PERIOD;
 524              		.loc 1 146 17 is_stmt 0 view .LVU162
 525 0024 002C     		cmp	r4, #0
 526 0026 2FD0     		beq	.L46
 527              	.L43:
 165:..\..\..\..\..\..\Software\uCOS-III\Source/os_tmr.c ****     p_tmr->State          = (OS_STATE           )OS_TMR_STATE_STOPPED;     /* Initialize the timer 
 528              		.loc 1 165 5 is_stmt 1 view .LVU163
 165:..\..\..\..\..\..\Software\uCOS-III\Source/os_tmr.c ****     p_tmr->State          = (OS_STATE           )OS_TMR_STATE_STOPPED;     /* Initialize the timer 
ARM GAS  C:\Users\EDULU~1.DES\AppData\Local\Temp\ccmSuQZN.s 			page 25


 529              		.loc 1 165 5 view .LVU164
 165:..\..\..\..\..\..\Software\uCOS-III\Source/os_tmr.c ****     p_tmr->State          = (OS_STATE           )OS_TMR_STATE_STOPPED;     /* Initialize the timer 
 530              		.loc 1 165 5 view .LVU165
 531 0028 FFF7FEFF 		bl	CPU_SR_Save
 532              	.LVL41:
 165:..\..\..\..\..\..\Software\uCOS-III\Source/os_tmr.c ****     p_tmr->State          = (OS_STATE           )OS_TMR_STATE_STOPPED;     /* Initialize the timer 
 533              		.loc 1 165 5 is_stmt 0 view .LVU166
 534 002c 0190     		str	r0, [sp, #4]
 535              	.LVL42:
 165:..\..\..\..\..\..\Software\uCOS-III\Source/os_tmr.c ****     p_tmr->State          = (OS_STATE           )OS_TMR_STATE_STOPPED;     /* Initialize the timer 
 536              		.loc 1 165 5 is_stmt 1 view .LVU167
 537 002e FFF7FEFF 		bl	CPU_IntDisMeasStart
 538              	.LVL43:
 166:..\..\..\..\..\..\Software\uCOS-III\Source/os_tmr.c ****     p_tmr->Type           = (OS_OBJ_TYPE        )OS_OBJ_TYPE_TMR;
 539              		.loc 1 166 5 view .LVU168
 166:..\..\..\..\..\..\Software\uCOS-III\Source/os_tmr.c ****     p_tmr->Type           = (OS_OBJ_TYPE        )OS_OBJ_TYPE_TMR;
 540              		.loc 1 166 27 is_stmt 0 view .LVU169
 541 0032 2A23     		movs	r3, #42
 542 0034 0122     		movs	r2, #1
 543 0036 FA54     		strb	r2, [r7, r3]
 167:..\..\..\..\..\..\Software\uCOS-III\Source/os_tmr.c ****     p_tmr->NamePtr        = (CPU_CHAR          *)p_name;
 544              		.loc 1 167 5 is_stmt 1 view .LVU170
 167:..\..\..\..\..\..\Software\uCOS-III\Source/os_tmr.c ****     p_tmr->NamePtr        = (CPU_CHAR          *)p_name;
 545              		.loc 1 167 27 is_stmt 0 view .LVU171
 546 0038 1B4B     		ldr	r3, .L47+4
 547 003a 3B60     		str	r3, [r7]
 168:..\..\..\..\..\..\Software\uCOS-III\Source/os_tmr.c ****     p_tmr->Dly            = (OS_TICK            )dly;
 548              		.loc 1 168 5 is_stmt 1 view .LVU172
 168:..\..\..\..\..\..\Software\uCOS-III\Source/os_tmr.c ****     p_tmr->Dly            = (OS_TICK            )dly;
 549              		.loc 1 168 27 is_stmt 0 view .LVU173
 550 003c 009B     		ldr	r3, [sp]
 551 003e 7B60     		str	r3, [r7, #4]
 169:..\..\..\..\..\..\Software\uCOS-III\Source/os_tmr.c ****     p_tmr->Match          = (OS_TICK            )0;
 552              		.loc 1 169 5 is_stmt 1 view .LVU174
 169:..\..\..\..\..\..\Software\uCOS-III\Source/os_tmr.c ****     p_tmr->Match          = (OS_TICK            )0;
 553              		.loc 1 169 27 is_stmt 0 view .LVU175
 554 0040 3D62     		str	r5, [r7, #32]
 170:..\..\..\..\..\..\Software\uCOS-III\Source/os_tmr.c ****     p_tmr->Remain         = (OS_TICK            )0;
 555              		.loc 1 170 5 is_stmt 1 view .LVU176
 170:..\..\..\..\..\..\Software\uCOS-III\Source/os_tmr.c ****     p_tmr->Remain         = (OS_TICK            )0;
 556              		.loc 1 170 27 is_stmt 0 view .LVU177
 557 0042 0025     		movs	r5, #0
 558              	.LVL44:
 170:..\..\..\..\..\..\Software\uCOS-III\Source/os_tmr.c ****     p_tmr->Remain         = (OS_TICK            )0;
 559              		.loc 1 170 27 view .LVU178
 560 0044 BD61     		str	r5, [r7, #24]
 171:..\..\..\..\..\..\Software\uCOS-III\Source/os_tmr.c ****     p_tmr->Period         = (OS_TICK            )period;
 561              		.loc 1 171 5 is_stmt 1 view .LVU179
 171:..\..\..\..\..\..\Software\uCOS-III\Source/os_tmr.c ****     p_tmr->Period         = (OS_TICK            )period;
 562              		.loc 1 171 27 is_stmt 0 view .LVU180
 563 0046 FD61     		str	r5, [r7, #28]
 172:..\..\..\..\..\..\Software\uCOS-III\Source/os_tmr.c ****     p_tmr->Opt            = (OS_OPT             )opt;
 564              		.loc 1 172 5 is_stmt 1 view .LVU181
 172:..\..\..\..\..\..\Software\uCOS-III\Source/os_tmr.c ****     p_tmr->Opt            = (OS_OPT             )opt;
 565              		.loc 1 172 27 is_stmt 0 view .LVU182
 566 0048 7C62     		str	r4, [r7, #36]
 173:..\..\..\..\..\..\Software\uCOS-III\Source/os_tmr.c ****     p_tmr->CallbackPtr    = (OS_TMR_CALLBACK_PTR)p_callback;
ARM GAS  C:\Users\EDULU~1.DES\AppData\Local\Temp\ccmSuQZN.s 			page 26


 567              		.loc 1 173 5 is_stmt 1 view .LVU183
 173:..\..\..\..\..\..\Software\uCOS-III\Source/os_tmr.c ****     p_tmr->CallbackPtr    = (OS_TMR_CALLBACK_PTR)p_callback;
 568              		.loc 1 173 27 is_stmt 0 view .LVU184
 569 004a 3E85     		strh	r6, [r7, #40]
 174:..\..\..\..\..\..\Software\uCOS-III\Source/os_tmr.c ****     p_tmr->CallbackPtrArg = (void              *)p_callback_arg;
 570              		.loc 1 174 5 is_stmt 1 view .LVU185
 174:..\..\..\..\..\..\Software\uCOS-III\Source/os_tmr.c ****     p_tmr->CallbackPtrArg = (void              *)p_callback_arg;
 571              		.loc 1 174 27 is_stmt 0 view .LVU186
 572 004c 099B     		ldr	r3, [sp, #36]
 573 004e BB60     		str	r3, [r7, #8]
 175:..\..\..\..\..\..\Software\uCOS-III\Source/os_tmr.c ****     p_tmr->NextPtr        = (OS_TMR            *)0;
 574              		.loc 1 175 5 is_stmt 1 view .LVU187
 175:..\..\..\..\..\..\Software\uCOS-III\Source/os_tmr.c ****     p_tmr->NextPtr        = (OS_TMR            *)0;
 575              		.loc 1 175 27 is_stmt 0 view .LVU188
 576 0050 0A9B     		ldr	r3, [sp, #40]
 577 0052 FB60     		str	r3, [r7, #12]
 176:..\..\..\..\..\..\Software\uCOS-III\Source/os_tmr.c ****     p_tmr->PrevPtr        = (OS_TMR            *)0;
 578              		.loc 1 176 5 is_stmt 1 view .LVU189
 176:..\..\..\..\..\..\Software\uCOS-III\Source/os_tmr.c ****     p_tmr->PrevPtr        = (OS_TMR            *)0;
 579              		.loc 1 176 27 is_stmt 0 view .LVU190
 580 0054 3D61     		str	r5, [r7, #16]
 177:..\..\..\..\..\..\Software\uCOS-III\Source/os_tmr.c **** 
 581              		.loc 1 177 5 is_stmt 1 view .LVU191
 177:..\..\..\..\..\..\Software\uCOS-III\Source/os_tmr.c **** 
 582              		.loc 1 177 27 is_stmt 0 view .LVU192
 583 0056 7D61     		str	r5, [r7, #20]
 180:..\..\..\..\..\..\Software\uCOS-III\Source/os_tmr.c **** #endif
 584              		.loc 1 180 5 is_stmt 1 view .LVU193
 585 0058 3800     		movs	r0, r7
 586 005a FFF7FEFF 		bl	OS_TmrDbgListAdd
 587              	.LVL45:
 182:..\..\..\..\..\..\Software\uCOS-III\Source/os_tmr.c **** 
 588              		.loc 1 182 5 view .LVU194
 182:..\..\..\..\..\..\Software\uCOS-III\Source/os_tmr.c **** 
 589              		.loc 1 182 13 is_stmt 0 view .LVU195
 590 005e 134A     		ldr	r2, .L47+8
 591 0060 1388     		ldrh	r3, [r2]
 592 0062 0133     		adds	r3, r3, #1
 593 0064 1380     		strh	r3, [r2]
 184:..\..\..\..\..\..\Software\uCOS-III\Source/os_tmr.c ****    *p_err = OS_ERR_NONE;
 594              		.loc 1 184 5 is_stmt 1 view .LVU196
 184:..\..\..\..\..\..\Software\uCOS-III\Source/os_tmr.c ****    *p_err = OS_ERR_NONE;
 595              		.loc 1 184 5 view .LVU197
 596 0066 FFF7FEFF 		bl	CPU_IntDisMeasStop
 597              	.LVL46:
 184:..\..\..\..\..\..\Software\uCOS-III\Source/os_tmr.c ****    *p_err = OS_ERR_NONE;
 598              		.loc 1 184 5 view .LVU198
 184:..\..\..\..\..\..\Software\uCOS-III\Source/os_tmr.c ****    *p_err = OS_ERR_NONE;
 599              		.loc 1 184 5 view .LVU199
 600 006a 0198     		ldr	r0, [sp, #4]
 601 006c FFF7FEFF 		bl	CPU_SR_Restore
 602              	.LVL47:
 185:..\..\..\..\..\..\Software\uCOS-III\Source/os_tmr.c **** }
 603              		.loc 1 185 4 view .LVU200
 185:..\..\..\..\..\..\Software\uCOS-III\Source/os_tmr.c **** }
 604              		.loc 1 185 11 is_stmt 0 view .LVU201
 605 0070 0B9B     		ldr	r3, [sp, #44]
ARM GAS  C:\Users\EDULU~1.DES\AppData\Local\Temp\ccmSuQZN.s 			page 27


 606 0072 1D80     		strh	r5, [r3]
 607 0074 02E0     		b	.L37
 608              	.LVL48:
 609              	.L44:
 133:..\..\..\..\..\..\Software\uCOS-III\Source/os_tmr.c ****         return;
 610              		.loc 1 133 8 is_stmt 1 view .LVU202
 133:..\..\..\..\..\..\Software\uCOS-III\Source/os_tmr.c ****         return;
 611              		.loc 1 133 15 is_stmt 0 view .LVU203
 612 0076 0E4B     		ldr	r3, .L47+12
 613 0078 0B9A     		ldr	r2, [sp, #44]
 614              	.LVL49:
 133:..\..\..\..\..\..\Software\uCOS-III\Source/os_tmr.c ****         return;
 615              		.loc 1 133 15 view .LVU204
 616 007a 1380     		strh	r3, [r2]
 134:..\..\..\..\..\..\Software\uCOS-III\Source/os_tmr.c ****     }
 617              		.loc 1 134 9 is_stmt 1 view .LVU205
 618              	.LVL50:
 619              	.L37:
 186:..\..\..\..\..\..\Software\uCOS-III\Source/os_tmr.c **** 
 620              		.loc 1 186 1 is_stmt 0 view .LVU206
 621 007c 03B0     		add	sp, sp, #12
 622              	.LVL51:
 186:..\..\..\..\..\..\Software\uCOS-III\Source/os_tmr.c **** 
 623              		.loc 1 186 1 view .LVU207
 624              		@ sp needed
 625              	.LVL52:
 626              	.LVL53:
 186:..\..\..\..\..\..\Software\uCOS-III\Source/os_tmr.c **** 
 627              		.loc 1 186 1 view .LVU208
 628 007e F0BD     		pop	{r4, r5, r6, r7, pc}
 629              	.LVL54:
 630              	.L45:
 140:..\..\..\..\..\..\Software\uCOS-III\Source/os_tmr.c ****         return;
 631              		.loc 1 140 8 is_stmt 1 view .LVU209
 140:..\..\..\..\..\..\Software\uCOS-III\Source/os_tmr.c ****         return;
 632              		.loc 1 140 15 is_stmt 0 view .LVU210
 633 0080 0C4B     		ldr	r3, .L47+16
 634 0082 0B9A     		ldr	r2, [sp, #44]
 635              	.LVL55:
 140:..\..\..\..\..\..\Software\uCOS-III\Source/os_tmr.c ****         return;
 636              		.loc 1 140 15 view .LVU211
 637 0084 1380     		strh	r3, [r2]
 141:..\..\..\..\..\..\Software\uCOS-III\Source/os_tmr.c ****     }
 638              		.loc 1 141 9 is_stmt 1 view .LVU212
 639 0086 F9E7     		b	.L37
 640              	.LVL56:
 641              	.L46:
 147:..\..\..\..\..\..\Software\uCOS-III\Source/os_tmr.c ****                  return;
 642              		.loc 1 147 17 view .LVU213
 147:..\..\..\..\..\..\Software\uCOS-III\Source/os_tmr.c ****                  return;
 643              		.loc 1 147 24 is_stmt 0 view .LVU214
 644 0088 0B4B     		ldr	r3, .L47+20
 645 008a 0B9A     		ldr	r2, [sp, #44]
 646              	.LVL57:
 147:..\..\..\..\..\..\Software\uCOS-III\Source/os_tmr.c ****                  return;
 647              		.loc 1 147 24 view .LVU215
 648 008c 1380     		strh	r3, [r2]
ARM GAS  C:\Users\EDULU~1.DES\AppData\Local\Temp\ccmSuQZN.s 			page 28


 148:..\..\..\..\..\..\Software\uCOS-III\Source/os_tmr.c ****              }
 649              		.loc 1 148 18 is_stmt 1 view .LVU216
 650 008e F5E7     		b	.L37
 651              	.LVL58:
 652              	.L41:
 153:..\..\..\..\..\..\Software\uCOS-III\Source/os_tmr.c ****                 *p_err = OS_ERR_TMR_INVALID_DLY;
 653              		.loc 1 153 14 view .LVU217
 153:..\..\..\..\..\..\Software\uCOS-III\Source/os_tmr.c ****                 *p_err = OS_ERR_TMR_INVALID_DLY;
 654              		.loc 1 153 17 is_stmt 0 view .LVU218
 655 0090 002A     		cmp	r2, #0
 656 0092 C9D1     		bne	.L43
 154:..\..\..\..\..\..\Software\uCOS-III\Source/os_tmr.c ****                  return;
 657              		.loc 1 154 17 is_stmt 1 view .LVU219
 154:..\..\..\..\..\..\Software\uCOS-III\Source/os_tmr.c ****                  return;
 658              		.loc 1 154 24 is_stmt 0 view .LVU220
 659 0094 094B     		ldr	r3, .L47+24
 660 0096 0B9A     		ldr	r2, [sp, #44]
 661              	.LVL59:
 154:..\..\..\..\..\..\Software\uCOS-III\Source/os_tmr.c ****                  return;
 662              		.loc 1 154 24 view .LVU221
 663 0098 1380     		strh	r3, [r2]
 155:..\..\..\..\..\..\Software\uCOS-III\Source/os_tmr.c ****              }
 664              		.loc 1 155 18 is_stmt 1 view .LVU222
 665 009a EFE7     		b	.L37
 666              	.LVL60:
 667              	.L42:
 160:..\..\..\..\..\..\Software\uCOS-III\Source/os_tmr.c ****              return;
 668              		.loc 1 160 13 view .LVU223
 160:..\..\..\..\..\..\Software\uCOS-III\Source/os_tmr.c ****              return;
 669              		.loc 1 160 20 is_stmt 0 view .LVU224
 670 009c 084B     		ldr	r3, .L47+28
 671 009e 0B9A     		ldr	r2, [sp, #44]
 672              	.LVL61:
 160:..\..\..\..\..\..\Software\uCOS-III\Source/os_tmr.c ****              return;
 673              		.loc 1 160 20 view .LVU225
 674 00a0 1380     		strh	r3, [r2]
 161:..\..\..\..\..\..\Software\uCOS-III\Source/os_tmr.c ****     }
 675              		.loc 1 161 14 is_stmt 1 view .LVU226
 676 00a2 EBE7     		b	.L37
 677              	.L48:
 678              		.align	2
 679              	.L47:
 680 00a4 00000000 		.word	OSIntNestingCtr
 681 00a8 544D5220 		.word	542264660
 682 00ac 00000000 		.word	OSTmrQty
 683 00b0 43730000 		.word	29507
 684 00b4 C35D0000 		.word	24003
 685 00b8 40730000 		.word	29504
 686 00bc 3F730000 		.word	29503
 687 00c0 255E0000 		.word	24101
 688              		.cfi_endproc
 689              	.LFE3:
 690              		.size	OSTmrCreate, .-OSTmrCreate
 691              		.section	.text.OS_TmrDbgListRemove,"ax",%progbits
 692              		.align	1
 693              		.global	OS_TmrDbgListRemove
 694              		.syntax unified
ARM GAS  C:\Users\EDULU~1.DES\AppData\Local\Temp\ccmSuQZN.s 			page 29


 695              		.code	16
 696              		.thumb_func
 697              		.fpu softvfp
 698              		.type	OS_TmrDbgListRemove, %function
 699              	OS_TmrDbgListRemove:
 700              	.LVL62:
 701              	.LFB10:
 764:..\..\..\..\..\..\Software\uCOS-III\Source/os_tmr.c **** 
 765:..\..\..\..\..\..\Software\uCOS-III\Source/os_tmr.c **** 
 766:..\..\..\..\..\..\Software\uCOS-III\Source/os_tmr.c **** 
 767:..\..\..\..\..\..\Software\uCOS-III\Source/os_tmr.c **** void  OS_TmrDbgListRemove (OS_TMR  *p_tmr)
 768:..\..\..\..\..\..\Software\uCOS-III\Source/os_tmr.c **** {
 702              		.loc 1 768 1 view -0
 703              		.cfi_startproc
 704              		@ args = 0, pretend = 0, frame = 0
 705              		@ frame_needed = 0, uses_anonymous_args = 0
 706              		@ link register save eliminated.
 769:..\..\..\..\..\..\Software\uCOS-III\Source/os_tmr.c ****     OS_TMR  *p_tmr_next;
 707              		.loc 1 769 5 view .LVU228
 770:..\..\..\..\..\..\Software\uCOS-III\Source/os_tmr.c ****     OS_TMR  *p_tmr_prev;
 708              		.loc 1 770 5 view .LVU229
 771:..\..\..\..\..\..\Software\uCOS-III\Source/os_tmr.c **** 
 772:..\..\..\..\..\..\Software\uCOS-III\Source/os_tmr.c **** 
 773:..\..\..\..\..\..\Software\uCOS-III\Source/os_tmr.c ****     p_tmr_prev = p_tmr->DbgPrevPtr;
 709              		.loc 1 773 5 view .LVU230
 710              		.loc 1 773 16 is_stmt 0 view .LVU231
 711 0000 C26A     		ldr	r2, [r0, #44]
 712              	.LVL63:
 774:..\..\..\..\..\..\Software\uCOS-III\Source/os_tmr.c ****     p_tmr_next = p_tmr->DbgNextPtr;
 713              		.loc 1 774 5 is_stmt 1 view .LVU232
 714              		.loc 1 774 16 is_stmt 0 view .LVU233
 715 0002 036B     		ldr	r3, [r0, #48]
 716              	.LVL64:
 775:..\..\..\..\..\..\Software\uCOS-III\Source/os_tmr.c **** 
 776:..\..\..\..\..\..\Software\uCOS-III\Source/os_tmr.c ****     if (p_tmr_prev == (OS_TMR *)0) {
 717              		.loc 1 776 5 is_stmt 1 view .LVU234
 718              		.loc 1 776 8 is_stmt 0 view .LVU235
 719 0004 002A     		cmp	r2, #0
 720 0006 07D0     		beq	.L54
 777:..\..\..\..\..\..\Software\uCOS-III\Source/os_tmr.c ****         OSTmrDbgListPtr = p_tmr_next;
 778:..\..\..\..\..\..\Software\uCOS-III\Source/os_tmr.c ****         if (p_tmr_next != (OS_TMR *)0) {
 779:..\..\..\..\..\..\Software\uCOS-III\Source/os_tmr.c ****             p_tmr_next->DbgPrevPtr = (OS_TMR *)0;
 780:..\..\..\..\..\..\Software\uCOS-III\Source/os_tmr.c ****         }
 781:..\..\..\..\..\..\Software\uCOS-III\Source/os_tmr.c ****         p_tmr->DbgNextPtr = (OS_TMR *)0;
 782:..\..\..\..\..\..\Software\uCOS-III\Source/os_tmr.c **** 
 783:..\..\..\..\..\..\Software\uCOS-III\Source/os_tmr.c ****     } else if (p_tmr_next == (OS_TMR *)0) {
 721              		.loc 1 783 12 is_stmt 1 view .LVU236
 722              		.loc 1 783 15 is_stmt 0 view .LVU237
 723 0008 002B     		cmp	r3, #0
 724 000a 0ED0     		beq	.L55
 784:..\..\..\..\..\..\Software\uCOS-III\Source/os_tmr.c ****         p_tmr_prev->DbgNextPtr = (OS_TMR *)0;
 785:..\..\..\..\..\..\Software\uCOS-III\Source/os_tmr.c ****         p_tmr->DbgPrevPtr      = (OS_TMR *)0;
 786:..\..\..\..\..\..\Software\uCOS-III\Source/os_tmr.c **** 
 787:..\..\..\..\..\..\Software\uCOS-III\Source/os_tmr.c ****     } else {
 788:..\..\..\..\..\..\Software\uCOS-III\Source/os_tmr.c ****         p_tmr_prev->DbgNextPtr =  p_tmr_next;
 725              		.loc 1 788 9 is_stmt 1 view .LVU238
 726              		.loc 1 788 32 is_stmt 0 view .LVU239
ARM GAS  C:\Users\EDULU~1.DES\AppData\Local\Temp\ccmSuQZN.s 			page 30


 727 000c 1363     		str	r3, [r2, #48]
 789:..\..\..\..\..\..\Software\uCOS-III\Source/os_tmr.c ****         p_tmr_next->DbgPrevPtr =  p_tmr_prev;
 728              		.loc 1 789 9 is_stmt 1 view .LVU240
 729              		.loc 1 789 32 is_stmt 0 view .LVU241
 730 000e DA62     		str	r2, [r3, #44]
 790:..\..\..\..\..\..\Software\uCOS-III\Source/os_tmr.c ****         p_tmr->DbgNextPtr      = (OS_TMR *)0;
 731              		.loc 1 790 9 is_stmt 1 view .LVU242
 732              		.loc 1 790 32 is_stmt 0 view .LVU243
 733 0010 0023     		movs	r3, #0
 734              	.LVL65:
 735              		.loc 1 790 32 view .LVU244
 736 0012 0363     		str	r3, [r0, #48]
 791:..\..\..\..\..\..\Software\uCOS-III\Source/os_tmr.c ****         p_tmr->DbgPrevPtr      = (OS_TMR *)0;
 737              		.loc 1 791 9 is_stmt 1 view .LVU245
 738              		.loc 1 791 32 is_stmt 0 view .LVU246
 739 0014 C362     		str	r3, [r0, #44]
 740              	.LVL66:
 741              	.L49:
 792:..\..\..\..\..\..\Software\uCOS-III\Source/os_tmr.c ****     }
 793:..\..\..\..\..\..\Software\uCOS-III\Source/os_tmr.c **** }
 742              		.loc 1 793 1 view .LVU247
 743              		@ sp needed
 744 0016 7047     		bx	lr
 745              	.LVL67:
 746              	.L54:
 777:..\..\..\..\..\..\Software\uCOS-III\Source/os_tmr.c ****         if (p_tmr_next != (OS_TMR *)0) {
 747              		.loc 1 777 9 is_stmt 1 view .LVU248
 777:..\..\..\..\..\..\Software\uCOS-III\Source/os_tmr.c ****         if (p_tmr_next != (OS_TMR *)0) {
 748              		.loc 1 777 25 is_stmt 0 view .LVU249
 749 0018 054A     		ldr	r2, .L56
 750              	.LVL68:
 777:..\..\..\..\..\..\Software\uCOS-III\Source/os_tmr.c ****         if (p_tmr_next != (OS_TMR *)0) {
 751              		.loc 1 777 25 view .LVU250
 752 001a 1360     		str	r3, [r2]
 778:..\..\..\..\..\..\Software\uCOS-III\Source/os_tmr.c ****             p_tmr_next->DbgPrevPtr = (OS_TMR *)0;
 753              		.loc 1 778 9 is_stmt 1 view .LVU251
 778:..\..\..\..\..\..\Software\uCOS-III\Source/os_tmr.c ****             p_tmr_next->DbgPrevPtr = (OS_TMR *)0;
 754              		.loc 1 778 12 is_stmt 0 view .LVU252
 755 001c 002B     		cmp	r3, #0
 756 001e 01D0     		beq	.L51
 779:..\..\..\..\..\..\Software\uCOS-III\Source/os_tmr.c ****         }
 757              		.loc 1 779 13 is_stmt 1 view .LVU253
 779:..\..\..\..\..\..\Software\uCOS-III\Source/os_tmr.c ****         }
 758              		.loc 1 779 36 is_stmt 0 view .LVU254
 759 0020 0022     		movs	r2, #0
 760 0022 DA62     		str	r2, [r3, #44]
 761              	.LVL69:
 762              	.L51:
 781:..\..\..\..\..\..\Software\uCOS-III\Source/os_tmr.c **** 
 763              		.loc 1 781 9 is_stmt 1 view .LVU255
 781:..\..\..\..\..\..\Software\uCOS-III\Source/os_tmr.c **** 
 764              		.loc 1 781 27 is_stmt 0 view .LVU256
 765 0024 0023     		movs	r3, #0
 766              	.LVL70:
 781:..\..\..\..\..\..\Software\uCOS-III\Source/os_tmr.c **** 
 767              		.loc 1 781 27 view .LVU257
 768 0026 0363     		str	r3, [r0, #48]
ARM GAS  C:\Users\EDULU~1.DES\AppData\Local\Temp\ccmSuQZN.s 			page 31


 769 0028 F5E7     		b	.L49
 770              	.LVL71:
 771              	.L55:
 784:..\..\..\..\..\..\Software\uCOS-III\Source/os_tmr.c ****         p_tmr->DbgPrevPtr      = (OS_TMR *)0;
 772              		.loc 1 784 9 is_stmt 1 view .LVU258
 784:..\..\..\..\..\..\Software\uCOS-III\Source/os_tmr.c ****         p_tmr->DbgPrevPtr      = (OS_TMR *)0;
 773              		.loc 1 784 32 is_stmt 0 view .LVU259
 774 002a 1363     		str	r3, [r2, #48]
 785:..\..\..\..\..\..\Software\uCOS-III\Source/os_tmr.c **** 
 775              		.loc 1 785 9 is_stmt 1 view .LVU260
 785:..\..\..\..\..\..\Software\uCOS-III\Source/os_tmr.c **** 
 776              		.loc 1 785 32 is_stmt 0 view .LVU261
 777 002c C362     		str	r3, [r0, #44]
 778 002e F2E7     		b	.L49
 779              	.L57:
 780              		.align	2
 781              	.L56:
 782 0030 00000000 		.word	OSTmrDbgListPtr
 783              		.cfi_endproc
 784              	.LFE10:
 785              		.size	OS_TmrDbgListRemove, .-OS_TmrDbgListRemove
 786              		.global	__aeabi_uidiv
 787              		.section	.text.OS_TmrInit,"ax",%progbits
 788              		.align	1
 789              		.global	OS_TmrInit
 790              		.syntax unified
 791              		.code	16
 792              		.thumb_func
 793              		.fpu softvfp
 794              		.type	OS_TmrInit, %function
 795              	OS_TmrInit:
 796              	.LVL72:
 797              	.LFB11:
 794:..\..\..\..\..\..\Software\uCOS-III\Source/os_tmr.c **** #endif
 795:..\..\..\..\..\..\Software\uCOS-III\Source/os_tmr.c **** 
 796:..\..\..\..\..\..\Software\uCOS-III\Source/os_tmr.c **** /*$PAGE*/
 797:..\..\..\..\..\..\Software\uCOS-III\Source/os_tmr.c **** /*
 798:..\..\..\..\..\..\Software\uCOS-III\Source/os_tmr.c **** ***************************************************************************************************
 799:..\..\..\..\..\..\Software\uCOS-III\Source/os_tmr.c **** *                                             INITIALIZE THE TIMER MANAGER
 800:..\..\..\..\..\..\Software\uCOS-III\Source/os_tmr.c **** *
 801:..\..\..\..\..\..\Software\uCOS-III\Source/os_tmr.c **** * Description: This function is called by OSInit() to initialize the timer manager module.
 802:..\..\..\..\..\..\Software\uCOS-III\Source/os_tmr.c **** *
 803:..\..\..\..\..\..\Software\uCOS-III\Source/os_tmr.c **** * Argument(s): p_err    is a pointer to a variable that will contain an error code returned by this
 804:..\..\..\..\..\..\Software\uCOS-III\Source/os_tmr.c **** *
 805:..\..\..\..\..\..\Software\uCOS-III\Source/os_tmr.c **** *                           OS_ERR_NONE
 806:..\..\..\..\..\..\Software\uCOS-III\Source/os_tmr.c **** *                           OS_ERR_TMR_STK_INVALID       if you didn't specify a stack for the time
 807:..\..\..\..\..\..\Software\uCOS-III\Source/os_tmr.c **** *                           OS_ERR_TMR_STK_SIZE_INVALID  if you didn't allocate enough space for th
 808:..\..\..\..\..\..\Software\uCOS-III\Source/os_tmr.c **** *                           OS_ERR_PRIO_INVALID          if you specified the same priority as the 
 809:..\..\..\..\..\..\Software\uCOS-III\Source/os_tmr.c **** *                           OS_ERR_xxx                   any error code returned by OSTaskCreate()
 810:..\..\..\..\..\..\Software\uCOS-III\Source/os_tmr.c **** *
 811:..\..\..\..\..\..\Software\uCOS-III\Source/os_tmr.c **** * Returns    : none
 812:..\..\..\..\..\..\Software\uCOS-III\Source/os_tmr.c **** *
 813:..\..\..\..\..\..\Software\uCOS-III\Source/os_tmr.c **** * Note(s)    : 1) This function is INTERNAL to uC/OS-III and your application MUST NOT call it.
 814:..\..\..\..\..\..\Software\uCOS-III\Source/os_tmr.c **** ***************************************************************************************************
 815:..\..\..\..\..\..\Software\uCOS-III\Source/os_tmr.c **** */
 816:..\..\..\..\..\..\Software\uCOS-III\Source/os_tmr.c **** 
 817:..\..\..\..\..\..\Software\uCOS-III\Source/os_tmr.c **** void  OS_TmrInit (OS_ERR  *p_err)
ARM GAS  C:\Users\EDULU~1.DES\AppData\Local\Temp\ccmSuQZN.s 			page 32


 818:..\..\..\..\..\..\Software\uCOS-III\Source/os_tmr.c **** {
 798              		.loc 1 818 1 is_stmt 1 view -0
 799              		.cfi_startproc
 800              		@ args = 0, pretend = 0, frame = 0
 801              		@ frame_needed = 0, uses_anonymous_args = 0
 802              		.loc 1 818 1 is_stmt 0 view .LVU263
 803 0000 30B5     		push	{r4, r5, lr}
 804              		.cfi_def_cfa_offset 12
 805              		.cfi_offset 4, -12
 806              		.cfi_offset 5, -8
 807              		.cfi_offset 14, -4
 808 0002 8BB0     		sub	sp, sp, #44
 809              		.cfi_def_cfa_offset 56
 810 0004 0500     		movs	r5, r0
 819:..\..\..\..\..\..\Software\uCOS-III\Source/os_tmr.c ****     OS_TMR_SPOKE_IX   i;
 811              		.loc 1 819 5 is_stmt 1 view .LVU264
 820:..\..\..\..\..\..\Software\uCOS-III\Source/os_tmr.c ****     OS_TMR_SPOKE     *p_spoke;
 812              		.loc 1 820 5 view .LVU265
 821:..\..\..\..\..\..\Software\uCOS-III\Source/os_tmr.c **** 
 822:..\..\..\..\..\..\Software\uCOS-III\Source/os_tmr.c **** 
 823:..\..\..\..\..\..\Software\uCOS-III\Source/os_tmr.c **** 
 824:..\..\..\..\..\..\Software\uCOS-III\Source/os_tmr.c **** #ifdef OS_SAFETY_CRITICAL
 825:..\..\..\..\..\..\Software\uCOS-III\Source/os_tmr.c ****     if (p_err == (OS_ERR *)0) {
 826:..\..\..\..\..\..\Software\uCOS-III\Source/os_tmr.c ****         OS_SAFETY_CRITICAL_EXCEPTION();
 827:..\..\..\..\..\..\Software\uCOS-III\Source/os_tmr.c ****         return;
 828:..\..\..\..\..\..\Software\uCOS-III\Source/os_tmr.c ****     }
 829:..\..\..\..\..\..\Software\uCOS-III\Source/os_tmr.c **** #endif
 830:..\..\..\..\..\..\Software\uCOS-III\Source/os_tmr.c **** 
 831:..\..\..\..\..\..\Software\uCOS-III\Source/os_tmr.c **** #if OS_CFG_DBG_EN > 0u
 832:..\..\..\..\..\..\Software\uCOS-III\Source/os_tmr.c ****     OSTmrDbgListPtr = (OS_TMR *)0;
 813              		.loc 1 832 5 view .LVU266
 814              		.loc 1 832 21 is_stmt 0 view .LVU267
 815 0006 2C4B     		ldr	r3, .L70
 816 0008 0022     		movs	r2, #0
 817 000a 1A60     		str	r2, [r3]
 833:..\..\..\..\..\..\Software\uCOS-III\Source/os_tmr.c **** #endif
 834:..\..\..\..\..\..\Software\uCOS-III\Source/os_tmr.c **** 
 835:..\..\..\..\..\..\Software\uCOS-III\Source/os_tmr.c ****     if (OSCfg_TmrTaskRate_Hz > (OS_RATE_HZ)0) {
 818              		.loc 1 835 5 is_stmt 1 view .LVU268
 819              		.loc 1 835 30 is_stmt 0 view .LVU269
 820 000c 2B4B     		ldr	r3, .L70+4
 821 000e 1968     		ldr	r1, [r3]
 822              		.loc 1 835 8 view .LVU270
 823 0010 0029     		cmp	r1, #0
 824 0012 1CD0     		beq	.L59
 836:..\..\..\..\..\..\Software\uCOS-III\Source/os_tmr.c ****         OSTmrUpdateCnt = OSCfg_TickRate_Hz / OSCfg_TmrTaskRate_Hz;
 825              		.loc 1 836 9 is_stmt 1 view .LVU271
 826              		.loc 1 836 44 is_stmt 0 view .LVU272
 827 0014 2A4B     		ldr	r3, .L70+8
 828 0016 1868     		ldr	r0, [r3]
 829              	.LVL73:
 830              		.loc 1 836 44 view .LVU273
 831 0018 FFF7FEFF 		bl	__aeabi_uidiv
 832              	.LVL74:
 833              		.loc 1 836 24 view .LVU274
 834 001c 294B     		ldr	r3, .L70+12
 835 001e 1860     		str	r0, [r3]
ARM GAS  C:\Users\EDULU~1.DES\AppData\Local\Temp\ccmSuQZN.s 			page 33


 836              	.L60:
 837:..\..\..\..\..\..\Software\uCOS-III\Source/os_tmr.c ****     } else {
 838:..\..\..\..\..\..\Software\uCOS-III\Source/os_tmr.c ****         OSTmrUpdateCnt = OSCfg_TickRate_Hz / (OS_RATE_HZ)10;
 839:..\..\..\..\..\..\Software\uCOS-III\Source/os_tmr.c ****     }
 840:..\..\..\..\..\..\Software\uCOS-III\Source/os_tmr.c ****     OSTmrUpdateCtr   = OSTmrUpdateCnt;
 837              		.loc 1 840 5 is_stmt 1 view .LVU275
 838              		.loc 1 840 22 is_stmt 0 view .LVU276
 839 0020 284B     		ldr	r3, .L70+12
 840 0022 1A68     		ldr	r2, [r3]
 841 0024 284B     		ldr	r3, .L70+16
 842 0026 1A60     		str	r2, [r3]
 841:..\..\..\..\..\..\Software\uCOS-III\Source/os_tmr.c **** 
 842:..\..\..\..\..\..\Software\uCOS-III\Source/os_tmr.c ****     OSTmrTickCtr     = (OS_TICK)0;
 843              		.loc 1 842 5 is_stmt 1 view .LVU277
 844              		.loc 1 842 22 is_stmt 0 view .LVU278
 845 0028 0023     		movs	r3, #0
 846 002a 284A     		ldr	r2, .L70+20
 847 002c 1360     		str	r3, [r2]
 843:..\..\..\..\..\..\Software\uCOS-III\Source/os_tmr.c **** 
 844:..\..\..\..\..\..\Software\uCOS-III\Source/os_tmr.c ****     OSTmrTaskTimeMax = (CPU_TS)0;
 848              		.loc 1 844 5 is_stmt 1 view .LVU279
 849              		.loc 1 844 22 is_stmt 0 view .LVU280
 850 002e 284A     		ldr	r2, .L70+24
 851 0030 1360     		str	r3, [r2]
 845:..\..\..\..\..\..\Software\uCOS-III\Source/os_tmr.c **** 
 846:..\..\..\..\..\..\Software\uCOS-III\Source/os_tmr.c ****     for (i = 0u; i < OSCfg_TmrWheelSize; i++) {
 852              		.loc 1 846 5 is_stmt 1 view .LVU281
 853              	.LVL75:
 854              	.L61:
 855              		.loc 1 846 20 is_stmt 0 discriminator 1 view .LVU282
 856 0032 284A     		ldr	r2, .L70+28
 857 0034 1288     		ldrh	r2, [r2]
 858              		.loc 1 846 5 discriminator 1 view .LVU283
 859 0036 9A42     		cmp	r2, r3
 860 0038 11D9     		bls	.L67
 847:..\..\..\..\..\..\Software\uCOS-III\Source/os_tmr.c ****         p_spoke                = &OSCfg_TmrWheel[i];
 861              		.loc 1 847 9 is_stmt 1 discriminator 3 view .LVU284
 862              	.LVL76:
 848:..\..\..\..\..\..\Software\uCOS-III\Source/os_tmr.c ****         p_spoke->NbrEntries    = (OS_OBJ_QTY)0;
 863              		.loc 1 848 9 discriminator 3 view .LVU285
 864              		.loc 1 848 32 is_stmt 0 discriminator 3 view .LVU286
 865 003a 2749     		ldr	r1, .L70+32
 866 003c D800     		lsls	r0, r3, #3
 867 003e 0C18     		adds	r4, r1, r0
 868              	.LVL77:
 869              		.loc 1 848 32 discriminator 3 view .LVU287
 870 0040 0022     		movs	r2, #0
 871 0042 A280     		strh	r2, [r4, #4]
 849:..\..\..\..\..\..\Software\uCOS-III\Source/os_tmr.c ****         p_spoke->NbrEntriesMax = (OS_OBJ_QTY)0;
 872              		.loc 1 849 9 is_stmt 1 discriminator 3 view .LVU288
 873              		.loc 1 849 32 is_stmt 0 discriminator 3 view .LVU289
 874 0044 E280     		strh	r2, [r4, #6]
 850:..\..\..\..\..\..\Software\uCOS-III\Source/os_tmr.c ****         p_spoke->FirstPtr      = (OS_TMR   *)0;
 875              		.loc 1 850 9 is_stmt 1 discriminator 3 view .LVU290
 876              		.loc 1 850 32 is_stmt 0 discriminator 3 view .LVU291
 877 0046 4250     		str	r2, [r0, r1]
 846:..\..\..\..\..\..\Software\uCOS-III\Source/os_tmr.c ****         p_spoke                = &OSCfg_TmrWheel[i];
ARM GAS  C:\Users\EDULU~1.DES\AppData\Local\Temp\ccmSuQZN.s 			page 34


 878              		.loc 1 846 43 discriminator 3 view .LVU292
 879 0048 0133     		adds	r3, r3, #1
 880              	.LVL78:
 846:..\..\..\..\..\..\Software\uCOS-III\Source/os_tmr.c ****         p_spoke                = &OSCfg_TmrWheel[i];
 881              		.loc 1 846 43 discriminator 3 view .LVU293
 882 004a 9BB2     		uxth	r3, r3
 883              	.LVL79:
 846:..\..\..\..\..\..\Software\uCOS-III\Source/os_tmr.c ****         p_spoke                = &OSCfg_TmrWheel[i];
 884              		.loc 1 846 43 discriminator 3 view .LVU294
 885 004c F1E7     		b	.L61
 886              	.LVL80:
 887              	.L59:
 838:..\..\..\..\..\..\Software\uCOS-III\Source/os_tmr.c ****     }
 888              		.loc 1 838 9 is_stmt 1 view .LVU295
 838:..\..\..\..\..\..\Software\uCOS-III\Source/os_tmr.c ****     }
 889              		.loc 1 838 44 is_stmt 0 view .LVU296
 890 004e 1C4B     		ldr	r3, .L70+8
 891 0050 1868     		ldr	r0, [r3]
 892              	.LVL81:
 838:..\..\..\..\..\..\Software\uCOS-III\Source/os_tmr.c ****     }
 893              		.loc 1 838 44 view .LVU297
 894 0052 0A21     		movs	r1, #10
 895 0054 FFF7FEFF 		bl	__aeabi_uidiv
 896              	.LVL82:
 838:..\..\..\..\..\..\Software\uCOS-III\Source/os_tmr.c ****     }
 897              		.loc 1 838 24 view .LVU298
 898 0058 1A4B     		ldr	r3, .L70+12
 899 005a 1860     		str	r0, [r3]
 900 005c E0E7     		b	.L60
 901              	.LVL83:
 902              	.L67:
 851:..\..\..\..\..\..\Software\uCOS-III\Source/os_tmr.c ****     }
 852:..\..\..\..\..\..\Software\uCOS-III\Source/os_tmr.c **** 
 853:..\..\..\..\..\..\Software\uCOS-III\Source/os_tmr.c ****                                                             /* ---------------- CREATE THE TIMER TA
 854:..\..\..\..\..\..\Software\uCOS-III\Source/os_tmr.c ****     if (OSCfg_TmrTaskStkBasePtr == (CPU_STK*)0) {
 903              		.loc 1 854 5 is_stmt 1 view .LVU299
 904              		.loc 1 854 33 is_stmt 0 view .LVU300
 905 005e 1F4B     		ldr	r3, .L70+36
 906              	.LVL84:
 907              		.loc 1 854 33 view .LVU301
 908 0060 1B68     		ldr	r3, [r3]
 909              		.loc 1 854 8 view .LVU302
 910 0062 002B     		cmp	r3, #0
 911 0064 0CD0     		beq	.L68
 855:..\..\..\..\..\..\Software\uCOS-III\Source/os_tmr.c ****        *p_err = OS_ERR_TMR_STK_INVALID;
 856:..\..\..\..\..\..\Software\uCOS-III\Source/os_tmr.c ****         return;
 857:..\..\..\..\..\..\Software\uCOS-III\Source/os_tmr.c ****     }
 858:..\..\..\..\..\..\Software\uCOS-III\Source/os_tmr.c **** 
 859:..\..\..\..\..\..\Software\uCOS-III\Source/os_tmr.c ****     if (OSCfg_TmrTaskStkSize < OSCfg_StkSizeMin) {
 912              		.loc 1 859 5 is_stmt 1 view .LVU303
 913              		.loc 1 859 30 is_stmt 0 view .LVU304
 914 0066 1E4A     		ldr	r2, .L70+40
 915 0068 1268     		ldr	r2, [r2]
 916 006a 1E49     		ldr	r1, .L70+44
 917 006c 0968     		ldr	r1, [r1]
 918              		.loc 1 859 8 view .LVU305
 919 006e 8A42     		cmp	r2, r1
ARM GAS  C:\Users\EDULU~1.DES\AppData\Local\Temp\ccmSuQZN.s 			page 35


 920 0070 09D3     		bcc	.L69
 860:..\..\..\..\..\..\Software\uCOS-III\Source/os_tmr.c ****        *p_err = OS_ERR_TMR_STK_SIZE_INVALID;
 861:..\..\..\..\..\..\Software\uCOS-III\Source/os_tmr.c ****         return;
 862:..\..\..\..\..\..\Software\uCOS-III\Source/os_tmr.c ****     }
 863:..\..\..\..\..\..\Software\uCOS-III\Source/os_tmr.c **** 
 864:..\..\..\..\..\..\Software\uCOS-III\Source/os_tmr.c ****     if (OSCfg_TmrTaskPrio >= (OS_CFG_PRIO_MAX - 1u)) {
 921              		.loc 1 864 5 is_stmt 1 view .LVU306
 922              		.loc 1 864 27 is_stmt 0 view .LVU307
 923 0072 1D49     		ldr	r1, .L70+48
 924 0074 0978     		ldrb	r1, [r1]
 925              		.loc 1 864 8 view .LVU308
 926 0076 1E29     		cmp	r1, #30
 927 0078 09D9     		bls	.L66
 865:..\..\..\..\..\..\Software\uCOS-III\Source/os_tmr.c ****        *p_err = OS_ERR_TMR_PRIO_INVALID;
 928              		.loc 1 865 8 is_stmt 1 view .LVU309
 929              		.loc 1 865 15 is_stmt 0 view .LVU310
 930 007a 1C4B     		ldr	r3, .L70+52
 931 007c 2B80     		strh	r3, [r5]
 866:..\..\..\..\..\..\Software\uCOS-III\Source/os_tmr.c ****         return;
 932              		.loc 1 866 9 is_stmt 1 view .LVU311
 933 007e 04E0     		b	.L58
 934              	.L68:
 855:..\..\..\..\..\..\Software\uCOS-III\Source/os_tmr.c ****         return;
 935              		.loc 1 855 8 view .LVU312
 855:..\..\..\..\..\..\Software\uCOS-III\Source/os_tmr.c ****         return;
 936              		.loc 1 855 15 is_stmt 0 view .LVU313
 937 0080 1B4B     		ldr	r3, .L70+56
 938 0082 2B80     		strh	r3, [r5]
 856:..\..\..\..\..\..\Software\uCOS-III\Source/os_tmr.c ****     }
 939              		.loc 1 856 9 is_stmt 1 view .LVU314
 940 0084 01E0     		b	.L58
 941              	.L69:
 860:..\..\..\..\..\..\Software\uCOS-III\Source/os_tmr.c ****         return;
 942              		.loc 1 860 8 view .LVU315
 860:..\..\..\..\..\..\Software\uCOS-III\Source/os_tmr.c ****         return;
 943              		.loc 1 860 15 is_stmt 0 view .LVU316
 944 0086 1B4B     		ldr	r3, .L70+60
 945 0088 2B80     		strh	r3, [r5]
 861:..\..\..\..\..\..\Software\uCOS-III\Source/os_tmr.c ****     }
 946              		.loc 1 861 9 is_stmt 1 view .LVU317
 947              	.L58:
 867:..\..\..\..\..\..\Software\uCOS-III\Source/os_tmr.c ****     }
 868:..\..\..\..\..\..\Software\uCOS-III\Source/os_tmr.c **** 
 869:..\..\..\..\..\..\Software\uCOS-III\Source/os_tmr.c ****     OSTaskCreate((OS_TCB     *)&OSTmrTaskTCB,
 870:..\..\..\..\..\..\Software\uCOS-III\Source/os_tmr.c ****                  (CPU_CHAR   *)((void *)"uC/OS-III Timer Task"),
 871:..\..\..\..\..\..\Software\uCOS-III\Source/os_tmr.c ****                  (OS_TASK_PTR )OS_TmrTask,
 872:..\..\..\..\..\..\Software\uCOS-III\Source/os_tmr.c ****                  (void       *)0,
 873:..\..\..\..\..\..\Software\uCOS-III\Source/os_tmr.c ****                  (OS_PRIO     )OSCfg_TmrTaskPrio,
 874:..\..\..\..\..\..\Software\uCOS-III\Source/os_tmr.c ****                  (CPU_STK    *)OSCfg_TmrTaskStkBasePtr,
 875:..\..\..\..\..\..\Software\uCOS-III\Source/os_tmr.c ****                  (CPU_STK_SIZE)OSCfg_TmrTaskStkLimit,
 876:..\..\..\..\..\..\Software\uCOS-III\Source/os_tmr.c ****                  (CPU_STK_SIZE)OSCfg_TmrTaskStkSize,
 877:..\..\..\..\..\..\Software\uCOS-III\Source/os_tmr.c ****                  (OS_MSG_QTY  )0,
 878:..\..\..\..\..\..\Software\uCOS-III\Source/os_tmr.c ****                  (OS_TICK     )0,
 879:..\..\..\..\..\..\Software\uCOS-III\Source/os_tmr.c ****                  (void       *)0,
 880:..\..\..\..\..\..\Software\uCOS-III\Source/os_tmr.c ****                  (OS_OPT      )(OS_OPT_TASK_STK_CHK | OS_OPT_TASK_STK_CLR | OS_OPT_TASK_NO_TLS),
 881:..\..\..\..\..\..\Software\uCOS-III\Source/os_tmr.c ****                  (OS_ERR     *)p_err);
 882:..\..\..\..\..\..\Software\uCOS-III\Source/os_tmr.c **** }
ARM GAS  C:\Users\EDULU~1.DES\AppData\Local\Temp\ccmSuQZN.s 			page 36


 948              		.loc 1 882 1 is_stmt 0 view .LVU318
 949 008a 0BB0     		add	sp, sp, #44
 950              		@ sp needed
 951              	.LVL85:
 952              		.loc 1 882 1 view .LVU319
 953 008c 30BD     		pop	{r4, r5, pc}
 954              	.LVL86:
 955              	.L66:
 869:..\..\..\..\..\..\Software\uCOS-III\Source/os_tmr.c ****                  (CPU_CHAR   *)((void *)"uC/OS-III Timer Task"),
 956              		.loc 1 869 5 is_stmt 1 view .LVU320
 957 008e 0895     		str	r5, [sp, #32]
 958 0090 0B20     		movs	r0, #11
 959 0092 0790     		str	r0, [sp, #28]
 960 0094 0020     		movs	r0, #0
 961 0096 0690     		str	r0, [sp, #24]
 962 0098 0590     		str	r0, [sp, #20]
 963 009a 0490     		str	r0, [sp, #16]
 964 009c 0392     		str	r2, [sp, #12]
 965 009e 164A     		ldr	r2, .L70+64
 966 00a0 1268     		ldr	r2, [r2]
 967 00a2 0292     		str	r2, [sp, #8]
 968 00a4 0193     		str	r3, [sp, #4]
 969 00a6 0091     		str	r1, [sp]
 970 00a8 0023     		movs	r3, #0
 971 00aa 144A     		ldr	r2, .L70+68
 972 00ac 1449     		ldr	r1, .L70+72
 973 00ae 1548     		ldr	r0, .L70+76
 974 00b0 FFF7FEFF 		bl	OSTaskCreate
 975              	.LVL87:
 976 00b4 E9E7     		b	.L58
 977              	.L71:
 978 00b6 C046     		.align	2
 979              	.L70:
 980 00b8 00000000 		.word	OSTmrDbgListPtr
 981 00bc 00000000 		.word	OSCfg_TmrTaskRate_Hz
 982 00c0 00000000 		.word	OSCfg_TickRate_Hz
 983 00c4 00000000 		.word	OSTmrUpdateCnt
 984 00c8 00000000 		.word	OSTmrUpdateCtr
 985 00cc 00000000 		.word	OSTmrTickCtr
 986 00d0 00000000 		.word	OSTmrTaskTimeMax
 987 00d4 00000000 		.word	OSCfg_TmrWheelSize
 988 00d8 00000000 		.word	OSCfg_TmrWheel
 989 00dc 00000000 		.word	OSCfg_TmrTaskStkBasePtr
 990 00e0 00000000 		.word	OSCfg_TmrTaskStkSize
 991 00e4 00000000 		.word	OSCfg_StkSizeMin
 992 00e8 00000000 		.word	OSCfg_TmrTaskPrio
 993 00ec 46730000 		.word	29510
 994 00f0 47730000 		.word	29511
 995 00f4 48730000 		.word	29512
 996 00f8 00000000 		.word	OSCfg_TmrTaskStkLimit
 997 00fc 00000000 		.word	OS_TmrTask
 998 0100 08000000 		.word	.LC23
 999 0104 00000000 		.word	OSTmrTaskTCB
 1000              		.cfi_endproc
 1001              	.LFE11:
 1002              		.size	OS_TmrInit, .-OS_TmrInit
 1003              		.global	__aeabi_uidivmod
ARM GAS  C:\Users\EDULU~1.DES\AppData\Local\Temp\ccmSuQZN.s 			page 37


 1004              		.section	.text.OS_TmrLink,"ax",%progbits
 1005              		.align	1
 1006              		.global	OS_TmrLink
 1007              		.syntax unified
 1008              		.code	16
 1009              		.thumb_func
 1010              		.fpu softvfp
 1011              		.type	OS_TmrLink, %function
 1012              	OS_TmrLink:
 1013              	.LVL88:
 1014              	.LFB12:
 883:..\..\..\..\..\..\Software\uCOS-III\Source/os_tmr.c **** 
 884:..\..\..\..\..\..\Software\uCOS-III\Source/os_tmr.c **** /*$PAGE*/
 885:..\..\..\..\..\..\Software\uCOS-III\Source/os_tmr.c **** /*
 886:..\..\..\..\..\..\Software\uCOS-III\Source/os_tmr.c **** ***************************************************************************************************
 887:..\..\..\..\..\..\Software\uCOS-III\Source/os_tmr.c **** *                                         INSERT A TIMER INTO THE TIMER WHEEL
 888:..\..\..\..\..\..\Software\uCOS-III\Source/os_tmr.c **** *
 889:..\..\..\..\..\..\Software\uCOS-III\Source/os_tmr.c **** * Description: This function is called to insert the timer into the timer wheel.  The timer is alwa
 890:..\..\..\..\..\..\Software\uCOS-III\Source/os_tmr.c **** *              beginning of the list.
 891:..\..\..\..\..\..\Software\uCOS-III\Source/os_tmr.c **** *
 892:..\..\..\..\..\..\Software\uCOS-III\Source/os_tmr.c **** * Arguments  : p_tmr          Is a pointer to the timer to insert.
 893:..\..\..\..\..\..\Software\uCOS-III\Source/os_tmr.c **** *              -----
 894:..\..\..\..\..\..\Software\uCOS-III\Source/os_tmr.c **** *
 895:..\..\..\..\..\..\Software\uCOS-III\Source/os_tmr.c **** *              opt            Is either:
 896:..\..\..\..\..\..\Software\uCOS-III\Source/os_tmr.c **** *
 897:..\..\..\..\..\..\Software\uCOS-III\Source/os_tmr.c **** *                               OS_OPT_LINK_PERIODIC    Means to re-insert the timer after a period
 898:..\..\..\..\..\..\Software\uCOS-III\Source/os_tmr.c **** *                               OS_OPT_LINK_DLY         Means to insert    the timer the first time
 899:..\..\..\..\..\..\Software\uCOS-III\Source/os_tmr.c **** *
 900:..\..\..\..\..\..\Software\uCOS-III\Source/os_tmr.c **** * Returns    : none
 901:..\..\..\..\..\..\Software\uCOS-III\Source/os_tmr.c **** *
 902:..\..\..\..\..\..\Software\uCOS-III\Source/os_tmr.c **** * Note(s)    : 1) This function is INTERNAL to uC/OS-III and your application MUST NOT call it.
 903:..\..\..\..\..\..\Software\uCOS-III\Source/os_tmr.c **** ***************************************************************************************************
 904:..\..\..\..\..\..\Software\uCOS-III\Source/os_tmr.c **** */
 905:..\..\..\..\..\..\Software\uCOS-III\Source/os_tmr.c **** 
 906:..\..\..\..\..\..\Software\uCOS-III\Source/os_tmr.c **** void  OS_TmrLink (OS_TMR  *p_tmr,
 907:..\..\..\..\..\..\Software\uCOS-III\Source/os_tmr.c ****                   OS_OPT   opt)
 908:..\..\..\..\..\..\Software\uCOS-III\Source/os_tmr.c **** {
 1015              		.loc 1 908 1 view -0
 1016              		.cfi_startproc
 1017              		@ args = 0, pretend = 0, frame = 0
 1018              		@ frame_needed = 0, uses_anonymous_args = 0
 1019              		.loc 1 908 1 is_stmt 0 view .LVU322
 1020 0000 70B5     		push	{r4, r5, r6, lr}
 1021              		.cfi_def_cfa_offset 16
 1022              		.cfi_offset 4, -16
 1023              		.cfi_offset 5, -12
 1024              		.cfi_offset 6, -8
 1025              		.cfi_offset 14, -4
 1026 0002 0400     		movs	r4, r0
 909:..\..\..\..\..\..\Software\uCOS-III\Source/os_tmr.c ****     OS_TMR_SPOKE     *p_spoke;
 1027              		.loc 1 909 5 is_stmt 1 view .LVU323
 910:..\..\..\..\..\..\Software\uCOS-III\Source/os_tmr.c ****     OS_TMR           *p_tmr0;
 1028              		.loc 1 910 5 view .LVU324
 911:..\..\..\..\..\..\Software\uCOS-III\Source/os_tmr.c ****     OS_TMR           *p_tmr1;
 1029              		.loc 1 911 5 view .LVU325
 912:..\..\..\..\..\..\Software\uCOS-III\Source/os_tmr.c ****     OS_TMR_SPOKE_IX   spoke;
 1030              		.loc 1 912 5 view .LVU326
ARM GAS  C:\Users\EDULU~1.DES\AppData\Local\Temp\ccmSuQZN.s 			page 38


 913:..\..\..\..\..\..\Software\uCOS-III\Source/os_tmr.c **** 
 914:..\..\..\..\..\..\Software\uCOS-III\Source/os_tmr.c **** 
 915:..\..\..\..\..\..\Software\uCOS-III\Source/os_tmr.c **** 
 916:..\..\..\..\..\..\Software\uCOS-III\Source/os_tmr.c ****     p_tmr->State = OS_TMR_STATE_RUNNING;
 1031              		.loc 1 916 5 view .LVU327
 1032              		.loc 1 916 18 is_stmt 0 view .LVU328
 1033 0004 2A23     		movs	r3, #42
 1034 0006 0222     		movs	r2, #2
 1035 0008 C254     		strb	r2, [r0, r3]
 917:..\..\..\..\..\..\Software\uCOS-III\Source/os_tmr.c ****     if (opt == OS_OPT_LINK_PERIODIC) {                      /* Determine when timer will expire    
 1036              		.loc 1 917 5 is_stmt 1 view .LVU329
 1037              		.loc 1 917 8 is_stmt 0 view .LVU330
 1038 000a 0129     		cmp	r1, #1
 1039 000c 09D0     		beq	.L85
 918:..\..\..\..\..\..\Software\uCOS-III\Source/os_tmr.c ****         p_tmr->Match = p_tmr->Period + OSTmrTickCtr;
 919:..\..\..\..\..\..\Software\uCOS-III\Source/os_tmr.c ****     } else {
 920:..\..\..\..\..\..\Software\uCOS-III\Source/os_tmr.c ****         if (p_tmr->Dly == (OS_TICK)0) {
 1040              		.loc 1 920 9 is_stmt 1 view .LVU331
 1041              		.loc 1 920 18 is_stmt 0 view .LVU332
 1042 000e 036A     		ldr	r3, [r0, #32]
 1043              		.loc 1 920 12 view .LVU333
 1044 0010 002B     		cmp	r3, #0
 1045 0012 2DD1     		bne	.L75
 921:..\..\..\..\..\..\Software\uCOS-III\Source/os_tmr.c ****             p_tmr->Match = p_tmr->Period + OSTmrTickCtr;
 1046              		.loc 1 921 13 is_stmt 1 view .LVU334
 1047              		.loc 1 921 42 is_stmt 0 view .LVU335
 1048 0014 2F4B     		ldr	r3, .L89
 1049 0016 1B68     		ldr	r3, [r3]
 1050 0018 426A     		ldr	r2, [r0, #36]
 1051 001a 9446     		mov	ip, r2
 1052 001c 6344     		add	r3, r3, ip
 1053              		.loc 1 921 26 view .LVU336
 1054 001e 8361     		str	r3, [r0, #24]
 1055 0020 05E0     		b	.L74
 1056              	.L85:
 918:..\..\..\..\..\..\Software\uCOS-III\Source/os_tmr.c ****         p_tmr->Match = p_tmr->Period + OSTmrTickCtr;
 1057              		.loc 1 918 9 is_stmt 1 view .LVU337
 918:..\..\..\..\..\..\Software\uCOS-III\Source/os_tmr.c ****         p_tmr->Match = p_tmr->Period + OSTmrTickCtr;
 1058              		.loc 1 918 38 is_stmt 0 view .LVU338
 1059 0022 2C4B     		ldr	r3, .L89
 1060 0024 1B68     		ldr	r3, [r3]
 1061 0026 426A     		ldr	r2, [r0, #36]
 1062 0028 9446     		mov	ip, r2
 1063 002a 6344     		add	r3, r3, ip
 918:..\..\..\..\..\..\Software\uCOS-III\Source/os_tmr.c ****         p_tmr->Match = p_tmr->Period + OSTmrTickCtr;
 1064              		.loc 1 918 22 view .LVU339
 1065 002c 8361     		str	r3, [r0, #24]
 1066              	.L74:
 922:..\..\..\..\..\..\Software\uCOS-III\Source/os_tmr.c ****         } else {
 923:..\..\..\..\..\..\Software\uCOS-III\Source/os_tmr.c ****             p_tmr->Match = p_tmr->Dly    + OSTmrTickCtr;
 924:..\..\..\..\..\..\Software\uCOS-III\Source/os_tmr.c ****         }
 925:..\..\..\..\..\..\Software\uCOS-III\Source/os_tmr.c ****     }
 926:..\..\..\..\..\..\Software\uCOS-III\Source/os_tmr.c ****     spoke  = (OS_TMR_SPOKE_IX)(p_tmr->Match % OSCfg_TmrWheelSize);
 1067              		.loc 1 926 5 is_stmt 1 view .LVU340
 1068              		.loc 1 926 37 is_stmt 0 view .LVU341
 1069 002e A669     		ldr	r6, [r4, #24]
 1070              		.loc 1 926 45 view .LVU342
ARM GAS  C:\Users\EDULU~1.DES\AppData\Local\Temp\ccmSuQZN.s 			page 39


 1071 0030 294B     		ldr	r3, .L89+4
 1072 0032 1988     		ldrh	r1, [r3]
 1073              	.LVL89:
 1074              		.loc 1 926 45 view .LVU343
 1075 0034 3000     		movs	r0, r6
 1076              	.LVL90:
 1077              		.loc 1 926 45 view .LVU344
 1078 0036 FFF7FEFF 		bl	__aeabi_uidivmod
 1079              	.LVL91:
 927:..\..\..\..\..\..\Software\uCOS-III\Source/os_tmr.c ****     p_spoke = &OSCfg_TmrWheel[spoke];
 1080              		.loc 1 927 5 is_stmt 1 view .LVU345
 1081              		.loc 1 927 30 is_stmt 0 view .LVU346
 1082 003a 0904     		lsls	r1, r1, #16
 1083              	.LVL92:
 1084              		.loc 1 927 30 view .LVU347
 1085 003c 090C     		lsrs	r1, r1, #16
 1086              	.LVL93:
 928:..\..\..\..\..\..\Software\uCOS-III\Source/os_tmr.c **** 
 929:..\..\..\..\..\..\Software\uCOS-III\Source/os_tmr.c ****     if (p_spoke->FirstPtr ==  (OS_TMR *)0) {                /* Link into timer wheel               
 1087              		.loc 1 929 5 is_stmt 1 view .LVU348
 1088              		.loc 1 929 16 is_stmt 0 view .LVU349
 1089 003e CA00     		lsls	r2, r1, #3
 1090 0040 264B     		ldr	r3, .L89+8
 1091 0042 D358     		ldr	r3, [r2, r3]
 1092              		.loc 1 929 8 view .LVU350
 1093 0044 002B     		cmp	r3, #0
 1094 0046 18D0     		beq	.L86
 930:..\..\..\..\..\..\Software\uCOS-III\Source/os_tmr.c ****         p_tmr->NextPtr      = (OS_TMR *)0;
 931:..\..\..\..\..\..\Software\uCOS-III\Source/os_tmr.c ****         p_tmr->PrevPtr      = (OS_TMR *)0;
 932:..\..\..\..\..\..\Software\uCOS-III\Source/os_tmr.c ****         p_spoke->FirstPtr   = p_tmr;
 933:..\..\..\..\..\..\Software\uCOS-III\Source/os_tmr.c ****         p_spoke->NbrEntries = 1u;
 934:..\..\..\..\..\..\Software\uCOS-III\Source/os_tmr.c ****     } else {
 935:..\..\..\..\..\..\Software\uCOS-III\Source/os_tmr.c ****         p_tmr->Remain  = p_tmr->Match                       /* Compute remaining time for timer    
 1095              		.loc 1 935 9 is_stmt 1 view .LVU351
 936:..\..\..\..\..\..\Software\uCOS-III\Source/os_tmr.c ****                        - OSTmrTickCtr;
 1096              		.loc 1 936 24 is_stmt 0 view .LVU352
 1097 0048 224B     		ldr	r3, .L89
 1098 004a 1D68     		ldr	r5, [r3]
 1099 004c 761B     		subs	r6, r6, r5
 935:..\..\..\..\..\..\Software\uCOS-III\Source/os_tmr.c ****                        - OSTmrTickCtr;
 1100              		.loc 1 935 24 view .LVU353
 1101 004e E661     		str	r6, [r4, #28]
 937:..\..\..\..\..\..\Software\uCOS-III\Source/os_tmr.c ****         p_tmr1         = p_spoke->FirstPtr;                 /* Point to current first timer in the 
 1102              		.loc 1 937 9 is_stmt 1 view .LVU354
 1103              		.loc 1 937 24 is_stmt 0 view .LVU355
 1104 0050 CB00     		lsls	r3, r1, #3
 1105 0052 224A     		ldr	r2, .L89+8
 1106 0054 9B58     		ldr	r3, [r3, r2]
 1107              	.LVL94:
 938:..\..\..\..\..\..\Software\uCOS-III\Source/os_tmr.c ****         while (p_tmr1 != (OS_TMR *)0) {
 1108              		.loc 1 938 9 is_stmt 1 view .LVU356
 1109              	.L78:
 1110              		.loc 1 938 15 is_stmt 0 view .LVU357
 1111 0056 002B     		cmp	r3, #0
 1112 0058 1AD0     		beq	.L80
 939:..\..\..\..\..\..\Software\uCOS-III\Source/os_tmr.c ****             p_tmr1->Remain = p_tmr1->Match                  /* Compute time remaining of current ti
 1113              		.loc 1 939 13 is_stmt 1 view .LVU358
ARM GAS  C:\Users\EDULU~1.DES\AppData\Local\Temp\ccmSuQZN.s 			page 40


 940:..\..\..\..\..\..\Software\uCOS-III\Source/os_tmr.c ****                            - OSTmrTickCtr;
 1114              		.loc 1 940 28 is_stmt 0 view .LVU359
 1115 005a 9A69     		ldr	r2, [r3, #24]
 1116 005c 521B     		subs	r2, r2, r5
 939:..\..\..\..\..\..\Software\uCOS-III\Source/os_tmr.c ****             p_tmr1->Remain = p_tmr1->Match                  /* Compute time remaining of current ti
 1117              		.loc 1 939 28 view .LVU360
 1118 005e DA61     		str	r2, [r3, #28]
 941:..\..\..\..\..\..\Software\uCOS-III\Source/os_tmr.c ****             if (p_tmr->Remain > p_tmr1->Remain) {           /* Do we need to insert AFTER current t
 1119              		.loc 1 941 13 is_stmt 1 view .LVU361
 1120              		.loc 1 941 16 is_stmt 0 view .LVU362
 1121 0060 E069     		ldr	r0, [r4, #28]
 1122 0062 8242     		cmp	r2, r0
 1123 0064 26D2     		bcs	.L79
 942:..\..\..\..\..\..\Software\uCOS-III\Source/os_tmr.c ****                 if (p_tmr1->NextPtr  != (OS_TMR *)0) {      /* Yes, are we pointing at the last tim
 1124              		.loc 1 942 17 is_stmt 1 view .LVU363
 1125              		.loc 1 942 27 is_stmt 0 view .LVU364
 1126 0066 1A69     		ldr	r2, [r3, #16]
 1127              		.loc 1 942 20 view .LVU365
 1128 0068 002A     		cmp	r2, #0
 1129 006a 0ED0     		beq	.L87
 943:..\..\..\..\..\..\Software\uCOS-III\Source/os_tmr.c ****                     p_tmr1            = p_tmr1->NextPtr;    /* No,  Point to next timer in the list
 1130              		.loc 1 943 39 view .LVU366
 1131 006c 1300     		movs	r3, r2
 1132              	.LVL95:
 1133              		.loc 1 943 39 view .LVU367
 1134 006e F2E7     		b	.L78
 1135              	.LVL96:
 1136              	.L75:
 923:..\..\..\..\..\..\Software\uCOS-III\Source/os_tmr.c ****         }
 1137              		.loc 1 923 13 is_stmt 1 view .LVU368
 923:..\..\..\..\..\..\Software\uCOS-III\Source/os_tmr.c ****         }
 1138              		.loc 1 923 42 is_stmt 0 view .LVU369
 1139 0070 184A     		ldr	r2, .L89
 1140 0072 1268     		ldr	r2, [r2]
 1141 0074 9B18     		adds	r3, r3, r2
 923:..\..\..\..\..\..\Software\uCOS-III\Source/os_tmr.c ****         }
 1142              		.loc 1 923 26 view .LVU370
 1143 0076 8361     		str	r3, [r0, #24]
 1144 0078 D9E7     		b	.L74
 1145              	.LVL97:
 1146              	.L86:
 930:..\..\..\..\..\..\Software\uCOS-III\Source/os_tmr.c ****         p_tmr->PrevPtr      = (OS_TMR *)0;
 1147              		.loc 1 930 9 is_stmt 1 view .LVU371
 930:..\..\..\..\..\..\Software\uCOS-III\Source/os_tmr.c ****         p_tmr->PrevPtr      = (OS_TMR *)0;
 1148              		.loc 1 930 29 is_stmt 0 view .LVU372
 1149 007a 2361     		str	r3, [r4, #16]
 931:..\..\..\..\..\..\Software\uCOS-III\Source/os_tmr.c ****         p_spoke->FirstPtr   = p_tmr;
 1150              		.loc 1 931 9 is_stmt 1 view .LVU373
 931:..\..\..\..\..\..\Software\uCOS-III\Source/os_tmr.c ****         p_spoke->FirstPtr   = p_tmr;
 1151              		.loc 1 931 29 is_stmt 0 view .LVU374
 1152 007c 6361     		str	r3, [r4, #20]
 932:..\..\..\..\..\..\Software\uCOS-III\Source/os_tmr.c ****         p_spoke->NbrEntries = 1u;
 1153              		.loc 1 932 9 is_stmt 1 view .LVU375
 932:..\..\..\..\..\..\Software\uCOS-III\Source/os_tmr.c ****         p_spoke->NbrEntries = 1u;
 1154              		.loc 1 932 29 is_stmt 0 view .LVU376
 1155 007e 174B     		ldr	r3, .L89+8
 1156 0080 D450     		str	r4, [r2, r3]
ARM GAS  C:\Users\EDULU~1.DES\AppData\Local\Temp\ccmSuQZN.s 			page 41


 933:..\..\..\..\..\..\Software\uCOS-III\Source/os_tmr.c ****     } else {
 1157              		.loc 1 933 9 is_stmt 1 view .LVU377
 933:..\..\..\..\..\..\Software\uCOS-III\Source/os_tmr.c ****     } else {
 1158              		.loc 1 933 29 is_stmt 0 view .LVU378
 1159 0082 9B18     		adds	r3, r3, r2
 1160 0084 0122     		movs	r2, #1
 1161 0086 9A80     		strh	r2, [r3, #4]
 1162 0088 08E0     		b	.L77
 1163              	.LVL98:
 1164              	.L87:
 944:..\..\..\..\..\..\Software\uCOS-III\Source/os_tmr.c ****                 } else {
 945:..\..\..\..\..\..\Software\uCOS-III\Source/os_tmr.c ****                     p_tmr->NextPtr    = (OS_TMR *)0;
 1165              		.loc 1 945 21 is_stmt 1 view .LVU379
 1166              		.loc 1 945 39 is_stmt 0 view .LVU380
 1167 008a 2261     		str	r2, [r4, #16]
 946:..\..\..\..\..\..\Software\uCOS-III\Source/os_tmr.c ****                     p_tmr->PrevPtr    =  p_tmr1;
 1168              		.loc 1 946 21 is_stmt 1 view .LVU381
 1169              		.loc 1 946 39 is_stmt 0 view .LVU382
 1170 008c 6361     		str	r3, [r4, #20]
 947:..\..\..\..\..\..\Software\uCOS-III\Source/os_tmr.c ****                     p_tmr1->NextPtr   =  p_tmr;             /* Yes, timer to insert is now new last
 1171              		.loc 1 947 21 is_stmt 1 view .LVU383
 1172              		.loc 1 947 39 is_stmt 0 view .LVU384
 1173 008e 1C61     		str	r4, [r3, #16]
 948:..\..\..\..\..\..\Software\uCOS-III\Source/os_tmr.c ****                     p_tmr1            = (OS_TMR *)0;        /* Break loop                          
 1174              		.loc 1 948 21 is_stmt 1 view .LVU385
 1175              	.LVL99:
 1176              	.L80:
 949:..\..\..\..\..\..\Software\uCOS-III\Source/os_tmr.c ****                 }
 950:..\..\..\..\..\..\Software\uCOS-III\Source/os_tmr.c ****             } else {                                        /* Insert before the current timer     
 951:..\..\..\..\..\..\Software\uCOS-III\Source/os_tmr.c ****                 if (p_tmr1->PrevPtr == (OS_TMR *)0) {       /* Are we inserting before the first ti
 952:..\..\..\..\..\..\Software\uCOS-III\Source/os_tmr.c ****                     p_tmr->PrevPtr    = (OS_TMR *)0;
 953:..\..\..\..\..\..\Software\uCOS-III\Source/os_tmr.c ****                     p_tmr->NextPtr    = p_tmr1;
 954:..\..\..\..\..\..\Software\uCOS-III\Source/os_tmr.c ****                     p_tmr1->PrevPtr   = p_tmr;
 955:..\..\..\..\..\..\Software\uCOS-III\Source/os_tmr.c ****                     p_spoke->FirstPtr = p_tmr;
 956:..\..\..\..\..\..\Software\uCOS-III\Source/os_tmr.c ****                 } else {                                    /* Insert in between 2 timers already i
 957:..\..\..\..\..\..\Software\uCOS-III\Source/os_tmr.c ****                     p_tmr0            = p_tmr1->PrevPtr;
 958:..\..\..\..\..\..\Software\uCOS-III\Source/os_tmr.c ****                     p_tmr->PrevPtr    = p_tmr0;
 959:..\..\..\..\..\..\Software\uCOS-III\Source/os_tmr.c ****                     p_tmr->NextPtr    = p_tmr1;
 960:..\..\..\..\..\..\Software\uCOS-III\Source/os_tmr.c ****                     p_tmr0->NextPtr   = p_tmr;
 961:..\..\..\..\..\..\Software\uCOS-III\Source/os_tmr.c ****                     p_tmr1->PrevPtr   = p_tmr;
 962:..\..\..\..\..\..\Software\uCOS-III\Source/os_tmr.c ****                 }
 963:..\..\..\..\..\..\Software\uCOS-III\Source/os_tmr.c ****                 p_tmr1 = (OS_TMR *)0;                       /* Break loop                          
 964:..\..\..\..\..\..\Software\uCOS-III\Source/os_tmr.c ****             }
 965:..\..\..\..\..\..\Software\uCOS-III\Source/os_tmr.c ****         }
 966:..\..\..\..\..\..\Software\uCOS-III\Source/os_tmr.c ****         p_spoke->NbrEntries++;
 1177              		.loc 1 966 9 view .LVU386
 1178              		.loc 1 966 16 is_stmt 0 view .LVU387
 1179 0090 CA00     		lsls	r2, r1, #3
 1180 0092 124B     		ldr	r3, .L89+8
 1181 0094 9B18     		adds	r3, r3, r2
 1182 0096 9A88     		ldrh	r2, [r3, #4]
 1183              		.loc 1 966 28 view .LVU388
 1184 0098 0132     		adds	r2, r2, #1
 1185 009a 9A80     		strh	r2, [r3, #4]
 1186              	.L77:
 967:..\..\..\..\..\..\Software\uCOS-III\Source/os_tmr.c ****     }
 968:..\..\..\..\..\..\Software\uCOS-III\Source/os_tmr.c ****     if (p_spoke->NbrEntriesMax < p_spoke->NbrEntries) {     /* Keep track of maximum number of entr
ARM GAS  C:\Users\EDULU~1.DES\AppData\Local\Temp\ccmSuQZN.s 			page 42


 1187              		.loc 1 968 5 is_stmt 1 view .LVU389
 1188              		.loc 1 968 16 is_stmt 0 view .LVU390
 1189 009c CA00     		lsls	r2, r1, #3
 1190 009e 0F4B     		ldr	r3, .L89+8
 1191 00a0 9B18     		adds	r3, r3, r2
 1192 00a2 DA88     		ldrh	r2, [r3, #6]
 1193              		.loc 1 968 41 view .LVU391
 1194 00a4 9B88     		ldrh	r3, [r3, #4]
 1195              		.loc 1 968 8 view .LVU392
 1196 00a6 9A42     		cmp	r2, r3
 1197 00a8 03D2     		bcs	.L72
 969:..\..\..\..\..\..\Software\uCOS-III\Source/os_tmr.c ****         p_spoke->NbrEntriesMax = p_spoke->NbrEntries;
 1198              		.loc 1 969 9 is_stmt 1 view .LVU393
 1199              		.loc 1 969 32 is_stmt 0 view .LVU394
 1200 00aa C900     		lsls	r1, r1, #3
 1201              	.LVL100:
 1202              		.loc 1 969 32 view .LVU395
 1203 00ac 0B4A     		ldr	r2, .L89+8
 1204 00ae 5118     		adds	r1, r2, r1
 1205 00b0 CB80     		strh	r3, [r1, #6]
 1206              	.L72:
 970:..\..\..\..\..\..\Software\uCOS-III\Source/os_tmr.c ****     }
 971:..\..\..\..\..\..\Software\uCOS-III\Source/os_tmr.c **** }
 1207              		.loc 1 971 1 view .LVU396
 1208              		@ sp needed
 1209              	.LVL101:
 1210              		.loc 1 971 1 view .LVU397
 1211 00b2 70BD     		pop	{r4, r5, r6, pc}
 1212              	.LVL102:
 1213              	.L79:
 951:..\..\..\..\..\..\Software\uCOS-III\Source/os_tmr.c ****                     p_tmr->PrevPtr    = (OS_TMR *)0;
 1214              		.loc 1 951 17 is_stmt 1 view .LVU398
 951:..\..\..\..\..\..\Software\uCOS-III\Source/os_tmr.c ****                     p_tmr->PrevPtr    = (OS_TMR *)0;
 1215              		.loc 1 951 27 is_stmt 0 view .LVU399
 1216 00b4 5A69     		ldr	r2, [r3, #20]
 951:..\..\..\..\..\..\Software\uCOS-III\Source/os_tmr.c ****                     p_tmr->PrevPtr    = (OS_TMR *)0;
 1217              		.loc 1 951 20 view .LVU400
 1218 00b6 002A     		cmp	r2, #0
 1219 00b8 04D0     		beq	.L88
 957:..\..\..\..\..\..\Software\uCOS-III\Source/os_tmr.c ****                     p_tmr->PrevPtr    = p_tmr0;
 1220              		.loc 1 957 21 is_stmt 1 view .LVU401
 1221              	.LVL103:
 958:..\..\..\..\..\..\Software\uCOS-III\Source/os_tmr.c ****                     p_tmr->NextPtr    = p_tmr1;
 1222              		.loc 1 958 21 view .LVU402
 958:..\..\..\..\..\..\Software\uCOS-III\Source/os_tmr.c ****                     p_tmr->NextPtr    = p_tmr1;
 1223              		.loc 1 958 39 is_stmt 0 view .LVU403
 1224 00ba 6261     		str	r2, [r4, #20]
 959:..\..\..\..\..\..\Software\uCOS-III\Source/os_tmr.c ****                     p_tmr0->NextPtr   = p_tmr;
 1225              		.loc 1 959 21 is_stmt 1 view .LVU404
 959:..\..\..\..\..\..\Software\uCOS-III\Source/os_tmr.c ****                     p_tmr0->NextPtr   = p_tmr;
 1226              		.loc 1 959 39 is_stmt 0 view .LVU405
 1227 00bc 2361     		str	r3, [r4, #16]
 960:..\..\..\..\..\..\Software\uCOS-III\Source/os_tmr.c ****                     p_tmr1->PrevPtr   = p_tmr;
 1228              		.loc 1 960 21 is_stmt 1 view .LVU406
 960:..\..\..\..\..\..\Software\uCOS-III\Source/os_tmr.c ****                     p_tmr1->PrevPtr   = p_tmr;
 1229              		.loc 1 960 39 is_stmt 0 view .LVU407
 1230 00be 1461     		str	r4, [r2, #16]
ARM GAS  C:\Users\EDULU~1.DES\AppData\Local\Temp\ccmSuQZN.s 			page 43


 961:..\..\..\..\..\..\Software\uCOS-III\Source/os_tmr.c ****                 }
 1231              		.loc 1 961 21 is_stmt 1 view .LVU408
 961:..\..\..\..\..\..\Software\uCOS-III\Source/os_tmr.c ****                 }
 1232              		.loc 1 961 39 is_stmt 0 view .LVU409
 1233 00c0 5C61     		str	r4, [r3, #20]
 1234 00c2 E5E7     		b	.L80
 1235              	.LVL104:
 1236              	.L88:
 952:..\..\..\..\..\..\Software\uCOS-III\Source/os_tmr.c ****                     p_tmr->NextPtr    = p_tmr1;
 1237              		.loc 1 952 21 is_stmt 1 view .LVU410
 952:..\..\..\..\..\..\Software\uCOS-III\Source/os_tmr.c ****                     p_tmr->NextPtr    = p_tmr1;
 1238              		.loc 1 952 39 is_stmt 0 view .LVU411
 1239 00c4 6261     		str	r2, [r4, #20]
 953:..\..\..\..\..\..\Software\uCOS-III\Source/os_tmr.c ****                     p_tmr1->PrevPtr   = p_tmr;
 1240              		.loc 1 953 21 is_stmt 1 view .LVU412
 953:..\..\..\..\..\..\Software\uCOS-III\Source/os_tmr.c ****                     p_tmr1->PrevPtr   = p_tmr;
 1241              		.loc 1 953 39 is_stmt 0 view .LVU413
 1242 00c6 2361     		str	r3, [r4, #16]
 954:..\..\..\..\..\..\Software\uCOS-III\Source/os_tmr.c ****                     p_spoke->FirstPtr = p_tmr;
 1243              		.loc 1 954 21 is_stmt 1 view .LVU414
 954:..\..\..\..\..\..\Software\uCOS-III\Source/os_tmr.c ****                     p_spoke->FirstPtr = p_tmr;
 1244              		.loc 1 954 39 is_stmt 0 view .LVU415
 1245 00c8 5C61     		str	r4, [r3, #20]
 955:..\..\..\..\..\..\Software\uCOS-III\Source/os_tmr.c ****                 } else {                                    /* Insert in between 2 timers already i
 1246              		.loc 1 955 21 is_stmt 1 view .LVU416
 955:..\..\..\..\..\..\Software\uCOS-III\Source/os_tmr.c ****                 } else {                                    /* Insert in between 2 timers already i
 1247              		.loc 1 955 39 is_stmt 0 view .LVU417
 1248 00ca CB00     		lsls	r3, r1, #3
 1249              	.LVL105:
 955:..\..\..\..\..\..\Software\uCOS-III\Source/os_tmr.c ****                 } else {                                    /* Insert in between 2 timers already i
 1250              		.loc 1 955 39 view .LVU418
 1251 00cc 034A     		ldr	r2, .L89+8
 1252 00ce 9C50     		str	r4, [r3, r2]
 1253 00d0 DEE7     		b	.L80
 1254              	.L90:
 1255 00d2 C046     		.align	2
 1256              	.L89:
 1257 00d4 00000000 		.word	OSTmrTickCtr
 1258 00d8 00000000 		.word	OSCfg_TmrWheelSize
 1259 00dc 00000000 		.word	OSCfg_TmrWheel
 1260              		.cfi_endproc
 1261              	.LFE12:
 1262              		.size	OS_TmrLink, .-OS_TmrLink
 1263              		.section	.text.OS_TmrResetPeak,"ax",%progbits
 1264              		.align	1
 1265              		.global	OS_TmrResetPeak
 1266              		.syntax unified
 1267              		.code	16
 1268              		.thumb_func
 1269              		.fpu softvfp
 1270              		.type	OS_TmrResetPeak, %function
 1271              	OS_TmrResetPeak:
 1272              	.LFB13:
 972:..\..\..\..\..\..\Software\uCOS-III\Source/os_tmr.c **** 
 973:..\..\..\..\..\..\Software\uCOS-III\Source/os_tmr.c **** /*$PAGE*/
 974:..\..\..\..\..\..\Software\uCOS-III\Source/os_tmr.c **** /*
 975:..\..\..\..\..\..\Software\uCOS-III\Source/os_tmr.c **** ***************************************************************************************************
ARM GAS  C:\Users\EDULU~1.DES\AppData\Local\Temp\ccmSuQZN.s 			page 44


 976:..\..\..\..\..\..\Software\uCOS-III\Source/os_tmr.c **** *                                              RESET TIMER LIST PEAK DETECTOR
 977:..\..\..\..\..\..\Software\uCOS-III\Source/os_tmr.c **** *
 978:..\..\..\..\..\..\Software\uCOS-III\Source/os_tmr.c **** * Description: This function is used to reset the peak detector for the number of entries in each s
 979:..\..\..\..\..\..\Software\uCOS-III\Source/os_tmr.c **** *
 980:..\..\..\..\..\..\Software\uCOS-III\Source/os_tmr.c **** * Arguments  : void
 981:..\..\..\..\..\..\Software\uCOS-III\Source/os_tmr.c **** *
 982:..\..\..\..\..\..\Software\uCOS-III\Source/os_tmr.c **** * Returns    : none
 983:..\..\..\..\..\..\Software\uCOS-III\Source/os_tmr.c **** *
 984:..\..\..\..\..\..\Software\uCOS-III\Source/os_tmr.c **** * Note(s)    : This function is INTERNAL to uC/OS-III and your application should not call it.
 985:..\..\..\..\..\..\Software\uCOS-III\Source/os_tmr.c **** ***************************************************************************************************
 986:..\..\..\..\..\..\Software\uCOS-III\Source/os_tmr.c **** */
 987:..\..\..\..\..\..\Software\uCOS-III\Source/os_tmr.c **** 
 988:..\..\..\..\..\..\Software\uCOS-III\Source/os_tmr.c **** void  OS_TmrResetPeak (void)
 989:..\..\..\..\..\..\Software\uCOS-III\Source/os_tmr.c **** {
 1273              		.loc 1 989 1 is_stmt 1 view -0
 1274              		.cfi_startproc
 1275              		@ args = 0, pretend = 0, frame = 0
 1276              		@ frame_needed = 0, uses_anonymous_args = 0
 1277              		@ link register save eliminated.
 990:..\..\..\..\..\..\Software\uCOS-III\Source/os_tmr.c ****     OS_TMR_SPOKE     *p_spoke;
 1278              		.loc 1 990 5 view .LVU420
 991:..\..\..\..\..\..\Software\uCOS-III\Source/os_tmr.c ****     OS_TMR_SPOKE_IX   i;
 1279              		.loc 1 991 5 view .LVU421
 992:..\..\..\..\..\..\Software\uCOS-III\Source/os_tmr.c **** 
 993:..\..\..\..\..\..\Software\uCOS-III\Source/os_tmr.c **** 
 994:..\..\..\..\..\..\Software\uCOS-III\Source/os_tmr.c **** 
 995:..\..\..\..\..\..\Software\uCOS-III\Source/os_tmr.c ****     for (i = 0u; i < OSCfg_TmrWheelSize; i++) {
 1280              		.loc 1 995 5 view .LVU422
 1281              	.LVL106:
 1282              		.loc 1 995 12 is_stmt 0 view .LVU423
 1283 0000 0023     		movs	r3, #0
 1284              	.LVL107:
 1285              	.L92:
 1286              		.loc 1 995 20 discriminator 1 view .LVU424
 1287 0002 064A     		ldr	r2, .L95
 1288 0004 1288     		ldrh	r2, [r2]
 1289              		.loc 1 995 5 discriminator 1 view .LVU425
 1290 0006 9A42     		cmp	r2, r3
 1291 0008 07D9     		bls	.L94
 996:..\..\..\..\..\..\Software\uCOS-III\Source/os_tmr.c ****         p_spoke                = (OS_TMR_SPOKE *)&OSCfg_TmrWheel[i];
 1292              		.loc 1 996 9 is_stmt 1 discriminator 3 view .LVU426
 1293              	.LVL108:
 997:..\..\..\..\..\..\Software\uCOS-III\Source/os_tmr.c ****         p_spoke->NbrEntriesMax = (OS_OBJ_QTY    )0u;
 1294              		.loc 1 997 9 discriminator 3 view .LVU427
 1295              		.loc 1 997 32 is_stmt 0 discriminator 3 view .LVU428
 1296 000a D900     		lsls	r1, r3, #3
 1297 000c 044A     		ldr	r2, .L95+4
 1298 000e 5218     		adds	r2, r2, r1
 1299              	.LVL109:
 1300              		.loc 1 997 32 discriminator 3 view .LVU429
 1301 0010 0021     		movs	r1, #0
 1302 0012 D180     		strh	r1, [r2, #6]
 995:..\..\..\..\..\..\Software\uCOS-III\Source/os_tmr.c ****         p_spoke                = (OS_TMR_SPOKE *)&OSCfg_TmrWheel[i];
 1303              		.loc 1 995 43 discriminator 3 view .LVU430
 1304 0014 0133     		adds	r3, r3, #1
 1305              	.LVL110:
 995:..\..\..\..\..\..\Software\uCOS-III\Source/os_tmr.c ****         p_spoke                = (OS_TMR_SPOKE *)&OSCfg_TmrWheel[i];
ARM GAS  C:\Users\EDULU~1.DES\AppData\Local\Temp\ccmSuQZN.s 			page 45


 1306              		.loc 1 995 43 discriminator 3 view .LVU431
 1307 0016 9BB2     		uxth	r3, r3
 1308              	.LVL111:
 995:..\..\..\..\..\..\Software\uCOS-III\Source/os_tmr.c ****         p_spoke                = (OS_TMR_SPOKE *)&OSCfg_TmrWheel[i];
 1309              		.loc 1 995 43 discriminator 3 view .LVU432
 1310 0018 F3E7     		b	.L92
 1311              	.LVL112:
 1312              	.L94:
 998:..\..\..\..\..\..\Software\uCOS-III\Source/os_tmr.c ****     }
 999:..\..\..\..\..\..\Software\uCOS-III\Source/os_tmr.c **** }
 1313              		.loc 1 999 1 view .LVU433
 1314              		@ sp needed
 1315 001a 7047     		bx	lr
 1316              	.L96:
 1317              		.align	2
 1318              	.L95:
 1319 001c 00000000 		.word	OSCfg_TmrWheelSize
 1320 0020 00000000 		.word	OSCfg_TmrWheel
 1321              		.cfi_endproc
 1322              	.LFE13:
 1323              		.size	OS_TmrResetPeak, .-OS_TmrResetPeak
 1324              		.section	.text.OS_TmrUnlink,"ax",%progbits
 1325              		.align	1
 1326              		.global	OS_TmrUnlink
 1327              		.syntax unified
 1328              		.code	16
 1329              		.thumb_func
 1330              		.fpu softvfp
 1331              		.type	OS_TmrUnlink, %function
 1332              	OS_TmrUnlink:
 1333              	.LVL113:
 1334              	.LFB14:
1000:..\..\..\..\..\..\Software\uCOS-III\Source/os_tmr.c **** 
1001:..\..\..\..\..\..\Software\uCOS-III\Source/os_tmr.c **** /*$PAGE*/
1002:..\..\..\..\..\..\Software\uCOS-III\Source/os_tmr.c **** /*
1003:..\..\..\..\..\..\Software\uCOS-III\Source/os_tmr.c **** ***************************************************************************************************
1004:..\..\..\..\..\..\Software\uCOS-III\Source/os_tmr.c **** *                                         REMOVE A TIMER FROM THE TIMER WHEEL
1005:..\..\..\..\..\..\Software\uCOS-III\Source/os_tmr.c **** *
1006:..\..\..\..\..\..\Software\uCOS-III\Source/os_tmr.c **** * Description: This function is called to remove the timer from the timer wheel.
1007:..\..\..\..\..\..\Software\uCOS-III\Source/os_tmr.c **** *
1008:..\..\..\..\..\..\Software\uCOS-III\Source/os_tmr.c **** * Arguments  : p_tmr          Is a pointer to the timer to remove.
1009:..\..\..\..\..\..\Software\uCOS-III\Source/os_tmr.c **** *              -----
1010:..\..\..\..\..\..\Software\uCOS-III\Source/os_tmr.c **** *
1011:..\..\..\..\..\..\Software\uCOS-III\Source/os_tmr.c **** * Returns    : none
1012:..\..\..\..\..\..\Software\uCOS-III\Source/os_tmr.c **** *
1013:..\..\..\..\..\..\Software\uCOS-III\Source/os_tmr.c **** * Note(s)    : 1) This function is INTERNAL to uC/OS-III and your application MUST NOT call it.
1014:..\..\..\..\..\..\Software\uCOS-III\Source/os_tmr.c **** ***************************************************************************************************
1015:..\..\..\..\..\..\Software\uCOS-III\Source/os_tmr.c **** */
1016:..\..\..\..\..\..\Software\uCOS-III\Source/os_tmr.c **** 
1017:..\..\..\..\..\..\Software\uCOS-III\Source/os_tmr.c **** void  OS_TmrUnlink (OS_TMR  *p_tmr)
1018:..\..\..\..\..\..\Software\uCOS-III\Source/os_tmr.c **** {
 1335              		.loc 1 1018 1 is_stmt 1 view -0
 1336              		.cfi_startproc
 1337              		@ args = 0, pretend = 0, frame = 0
 1338              		@ frame_needed = 0, uses_anonymous_args = 0
 1339              		.loc 1 1018 1 is_stmt 0 view .LVU435
 1340 0000 10B5     		push	{r4, lr}
ARM GAS  C:\Users\EDULU~1.DES\AppData\Local\Temp\ccmSuQZN.s 			page 46


 1341              		.cfi_def_cfa_offset 8
 1342              		.cfi_offset 4, -8
 1343              		.cfi_offset 14, -4
 1344 0002 0400     		movs	r4, r0
1019:..\..\..\..\..\..\Software\uCOS-III\Source/os_tmr.c ****     OS_TMR_SPOKE    *p_spoke;
 1345              		.loc 1 1019 5 is_stmt 1 view .LVU436
1020:..\..\..\..\..\..\Software\uCOS-III\Source/os_tmr.c ****     OS_TMR          *p_tmr1;
 1346              		.loc 1 1020 5 view .LVU437
1021:..\..\..\..\..\..\Software\uCOS-III\Source/os_tmr.c ****     OS_TMR          *p_tmr2;
 1347              		.loc 1 1021 5 view .LVU438
1022:..\..\..\..\..\..\Software\uCOS-III\Source/os_tmr.c ****     OS_TMR_SPOKE_IX  spoke;
 1348              		.loc 1 1022 5 view .LVU439
1023:..\..\..\..\..\..\Software\uCOS-III\Source/os_tmr.c **** 
1024:..\..\..\..\..\..\Software\uCOS-III\Source/os_tmr.c **** 
1025:..\..\..\..\..\..\Software\uCOS-III\Source/os_tmr.c **** 
1026:..\..\..\..\..\..\Software\uCOS-III\Source/os_tmr.c ****     spoke   = (OS_TMR_SPOKE_IX)(p_tmr->Match % OSCfg_TmrWheelSize);
 1349              		.loc 1 1026 5 view .LVU440
 1350              		.loc 1 1026 46 is_stmt 0 view .LVU441
 1351 0004 134B     		ldr	r3, .L101
 1352 0006 1988     		ldrh	r1, [r3]
 1353 0008 8069     		ldr	r0, [r0, #24]
 1354              	.LVL114:
 1355              		.loc 1 1026 46 view .LVU442
 1356 000a FFF7FEFF 		bl	__aeabi_uidivmod
 1357              	.LVL115:
1027:..\..\..\..\..\..\Software\uCOS-III\Source/os_tmr.c ****     p_spoke = &OSCfg_TmrWheel[spoke];
 1358              		.loc 1 1027 5 is_stmt 1 view .LVU443
 1359              		.loc 1 1027 30 is_stmt 0 view .LVU444
 1360 000e 0904     		lsls	r1, r1, #16
 1361              	.LVL116:
 1362              		.loc 1 1027 30 view .LVU445
 1363 0010 090C     		lsrs	r1, r1, #16
 1364              	.LVL117:
1028:..\..\..\..\..\..\Software\uCOS-III\Source/os_tmr.c **** 
1029:..\..\..\..\..\..\Software\uCOS-III\Source/os_tmr.c ****     if (p_spoke->FirstPtr == p_tmr) {                       /* See if timer to remove is at the beg
 1365              		.loc 1 1029 5 is_stmt 1 view .LVU446
 1366              		.loc 1 1029 16 is_stmt 0 view .LVU447
 1367 0012 CA00     		lsls	r2, r1, #3
 1368 0014 104B     		ldr	r3, .L101+4
 1369 0016 D358     		ldr	r3, [r2, r3]
 1370              		.loc 1 1029 8 view .LVU448
 1371 0018 A342     		cmp	r3, r4
 1372 001a 12D0     		beq	.L100
1030:..\..\..\..\..\..\Software\uCOS-III\Source/os_tmr.c ****         p_tmr1            = (OS_TMR *)p_tmr->NextPtr;
1031:..\..\..\..\..\..\Software\uCOS-III\Source/os_tmr.c ****         p_spoke->FirstPtr = (OS_TMR *)p_tmr1;
1032:..\..\..\..\..\..\Software\uCOS-III\Source/os_tmr.c ****         if (p_tmr1 != (OS_TMR *)0) {
1033:..\..\..\..\..\..\Software\uCOS-III\Source/os_tmr.c ****             p_tmr1->PrevPtr = (OS_TMR *)0;
1034:..\..\..\..\..\..\Software\uCOS-III\Source/os_tmr.c ****         }
1035:..\..\..\..\..\..\Software\uCOS-III\Source/os_tmr.c ****     } else {
1036:..\..\..\..\..\..\Software\uCOS-III\Source/os_tmr.c ****         p_tmr1          = (OS_TMR *)p_tmr->PrevPtr;         /* Remove timer from somewhere in the l
 1373              		.loc 1 1036 9 is_stmt 1 view .LVU449
 1374              		.loc 1 1036 25 is_stmt 0 view .LVU450
 1375 001c 6269     		ldr	r2, [r4, #20]
 1376              	.LVL118:
1037:..\..\..\..\..\..\Software\uCOS-III\Source/os_tmr.c ****         p_tmr2          = (OS_TMR *)p_tmr->NextPtr;
 1377              		.loc 1 1037 9 is_stmt 1 view .LVU451
 1378              		.loc 1 1037 25 is_stmt 0 view .LVU452
ARM GAS  C:\Users\EDULU~1.DES\AppData\Local\Temp\ccmSuQZN.s 			page 47


 1379 001e 2369     		ldr	r3, [r4, #16]
 1380              	.LVL119:
1038:..\..\..\..\..\..\Software\uCOS-III\Source/os_tmr.c ****         p_tmr1->NextPtr = p_tmr2;
 1381              		.loc 1 1038 9 is_stmt 1 view .LVU453
 1382              		.loc 1 1038 25 is_stmt 0 view .LVU454
 1383 0020 1361     		str	r3, [r2, #16]
1039:..\..\..\..\..\..\Software\uCOS-III\Source/os_tmr.c ****         if (p_tmr2 != (OS_TMR *)0) {
 1384              		.loc 1 1039 9 is_stmt 1 view .LVU455
 1385              		.loc 1 1039 12 is_stmt 0 view .LVU456
 1386 0022 002B     		cmp	r3, #0
 1387 0024 00D0     		beq	.L99
1040:..\..\..\..\..\..\Software\uCOS-III\Source/os_tmr.c ****             p_tmr2->PrevPtr = (OS_TMR *)p_tmr1;
 1388              		.loc 1 1040 13 is_stmt 1 view .LVU457
 1389              		.loc 1 1040 29 is_stmt 0 view .LVU458
 1390 0026 5A61     		str	r2, [r3, #20]
 1391              	.LVL120:
 1392              	.L99:
1041:..\..\..\..\..\..\Software\uCOS-III\Source/os_tmr.c ****         }
1042:..\..\..\..\..\..\Software\uCOS-III\Source/os_tmr.c ****     }
1043:..\..\..\..\..\..\Software\uCOS-III\Source/os_tmr.c ****     p_tmr->State   = OS_TMR_STATE_STOPPED;
 1393              		.loc 1 1043 5 is_stmt 1 view .LVU459
 1394              		.loc 1 1043 20 is_stmt 0 view .LVU460
 1395 0028 2A23     		movs	r3, #42
 1396 002a 0122     		movs	r2, #1
 1397              	.LVL121:
 1398              		.loc 1 1043 20 view .LVU461
 1399 002c E254     		strb	r2, [r4, r3]
1044:..\..\..\..\..\..\Software\uCOS-III\Source/os_tmr.c ****     p_tmr->NextPtr = (OS_TMR *)0;
 1400              		.loc 1 1044 5 is_stmt 1 view .LVU462
 1401              		.loc 1 1044 20 is_stmt 0 view .LVU463
 1402 002e 0023     		movs	r3, #0
 1403 0030 2361     		str	r3, [r4, #16]
1045:..\..\..\..\..\..\Software\uCOS-III\Source/os_tmr.c ****     p_tmr->PrevPtr = (OS_TMR *)0;
 1404              		.loc 1 1045 5 is_stmt 1 view .LVU464
 1405              		.loc 1 1045 20 is_stmt 0 view .LVU465
 1406 0032 6361     		str	r3, [r4, #20]
1046:..\..\..\..\..\..\Software\uCOS-III\Source/os_tmr.c ****     p_spoke->NbrEntries--;
 1407              		.loc 1 1046 5 is_stmt 1 view .LVU466
 1408              		.loc 1 1046 12 is_stmt 0 view .LVU467
 1409 0034 C900     		lsls	r1, r1, #3
 1410              	.LVL122:
 1411              		.loc 1 1046 12 view .LVU468
 1412 0036 084B     		ldr	r3, .L101+4
 1413 0038 5918     		adds	r1, r3, r1
 1414 003a 8B88     		ldrh	r3, [r1, #4]
 1415              		.loc 1 1046 24 view .LVU469
 1416 003c 013B     		subs	r3, r3, #1
 1417 003e 8B80     		strh	r3, [r1, #4]
1047:..\..\..\..\..\..\Software\uCOS-III\Source/os_tmr.c **** }
 1418              		.loc 1 1047 1 view .LVU470
 1419              		@ sp needed
 1420              	.LVL123:
 1421              		.loc 1 1047 1 view .LVU471
 1422 0040 10BD     		pop	{r4, pc}
 1423              	.LVL124:
 1424              	.L100:
1030:..\..\..\..\..\..\Software\uCOS-III\Source/os_tmr.c ****         p_spoke->FirstPtr = (OS_TMR *)p_tmr1;
ARM GAS  C:\Users\EDULU~1.DES\AppData\Local\Temp\ccmSuQZN.s 			page 48


 1425              		.loc 1 1030 9 is_stmt 1 view .LVU472
1030:..\..\..\..\..\..\Software\uCOS-III\Source/os_tmr.c ****         p_spoke->FirstPtr = (OS_TMR *)p_tmr1;
 1426              		.loc 1 1030 27 is_stmt 0 view .LVU473
 1427 0042 2269     		ldr	r2, [r4, #16]
 1428              	.LVL125:
1031:..\..\..\..\..\..\Software\uCOS-III\Source/os_tmr.c ****         if (p_tmr1 != (OS_TMR *)0) {
 1429              		.loc 1 1031 9 is_stmt 1 view .LVU474
1031:..\..\..\..\..\..\Software\uCOS-III\Source/os_tmr.c ****         if (p_tmr1 != (OS_TMR *)0) {
 1430              		.loc 1 1031 27 is_stmt 0 view .LVU475
 1431 0044 CB00     		lsls	r3, r1, #3
 1432 0046 0448     		ldr	r0, .L101+4
 1433 0048 1A50     		str	r2, [r3, r0]
1032:..\..\..\..\..\..\Software\uCOS-III\Source/os_tmr.c ****             p_tmr1->PrevPtr = (OS_TMR *)0;
 1434              		.loc 1 1032 9 is_stmt 1 view .LVU476
1032:..\..\..\..\..\..\Software\uCOS-III\Source/os_tmr.c ****             p_tmr1->PrevPtr = (OS_TMR *)0;
 1435              		.loc 1 1032 12 is_stmt 0 view .LVU477
 1436 004a 002A     		cmp	r2, #0
 1437 004c ECD0     		beq	.L99
1033:..\..\..\..\..\..\Software\uCOS-III\Source/os_tmr.c ****         }
 1438              		.loc 1 1033 13 is_stmt 1 view .LVU478
1033:..\..\..\..\..\..\Software\uCOS-III\Source/os_tmr.c ****         }
 1439              		.loc 1 1033 29 is_stmt 0 view .LVU479
 1440 004e 0023     		movs	r3, #0
 1441 0050 5361     		str	r3, [r2, #20]
 1442 0052 E9E7     		b	.L99
 1443              	.L102:
 1444              		.align	2
 1445              	.L101:
 1446 0054 00000000 		.word	OSCfg_TmrWheelSize
 1447 0058 00000000 		.word	OSCfg_TmrWheel
 1448              		.cfi_endproc
 1449              	.LFE14:
 1450              		.size	OS_TmrUnlink, .-OS_TmrUnlink
 1451              		.section	.text.OSTmrStart,"ax",%progbits
 1452              		.align	1
 1453              		.global	OSTmrStart
 1454              		.syntax unified
 1455              		.code	16
 1456              		.thumb_func
 1457              		.fpu softvfp
 1458              		.type	OSTmrStart, %function
 1459              	OSTmrStart:
 1460              	.LVL126:
 1461              	.LFB5:
 423:..\..\..\..\..\..\Software\uCOS-III\Source/os_tmr.c ****     OS_ERR       err;
 1462              		.loc 1 423 1 is_stmt 1 view -0
 1463              		.cfi_startproc
 1464              		@ args = 0, pretend = 0, frame = 8
 1465              		@ frame_needed = 0, uses_anonymous_args = 0
 423:..\..\..\..\..\..\Software\uCOS-III\Source/os_tmr.c ****     OS_ERR       err;
 1466              		.loc 1 423 1 is_stmt 0 view .LVU481
 1467 0000 30B5     		push	{r4, r5, lr}
 1468              		.cfi_def_cfa_offset 12
 1469              		.cfi_offset 4, -12
 1470              		.cfi_offset 5, -8
 1471              		.cfi_offset 14, -4
 1472 0002 83B0     		sub	sp, sp, #12
ARM GAS  C:\Users\EDULU~1.DES\AppData\Local\Temp\ccmSuQZN.s 			page 49


 1473              		.cfi_def_cfa_offset 24
 1474 0004 0400     		movs	r4, r0
 1475 0006 0D00     		movs	r5, r1
 424:..\..\..\..\..\..\Software\uCOS-III\Source/os_tmr.c ****     CPU_BOOLEAN  success;
 1476              		.loc 1 424 5 is_stmt 1 view .LVU482
 425:..\..\..\..\..\..\Software\uCOS-III\Source/os_tmr.c **** 
 1477              		.loc 1 425 5 view .LVU483
 437:..\..\..\..\..\..\Software\uCOS-III\Source/os_tmr.c ****        *p_err = OS_ERR_TMR_ISR;
 1478              		.loc 1 437 5 view .LVU484
 437:..\..\..\..\..\..\Software\uCOS-III\Source/os_tmr.c ****        *p_err = OS_ERR_TMR_ISR;
 1479              		.loc 1 437 25 is_stmt 0 view .LVU485
 1480 0008 234B     		ldr	r3, .L114
 1481 000a 1B78     		ldrb	r3, [r3]
 437:..\..\..\..\..\..\Software\uCOS-III\Source/os_tmr.c ****        *p_err = OS_ERR_TMR_ISR;
 1482              		.loc 1 437 8 view .LVU486
 1483 000c 002B     		cmp	r3, #0
 1484 000e 17D1     		bne	.L112
 444:..\..\..\..\..\..\Software\uCOS-III\Source/os_tmr.c ****        *p_err = OS_ERR_TMR_INVALID;
 1485              		.loc 1 444 5 is_stmt 1 view .LVU487
 444:..\..\..\..\..\..\Software\uCOS-III\Source/os_tmr.c ****        *p_err = OS_ERR_TMR_INVALID;
 1486              		.loc 1 444 8 is_stmt 0 view .LVU488
 1487 0010 0028     		cmp	r0, #0
 1488 0012 1AD0     		beq	.L113
 457:..\..\..\..\..\..\Software\uCOS-III\Source/os_tmr.c ****     switch (p_tmr->State) {
 1489              		.loc 1 457 5 is_stmt 1 view .LVU489
 1490 0014 6B46     		mov	r3, sp
 1491 0016 981D     		adds	r0, r3, #6
 1492              	.LVL127:
 457:..\..\..\..\..\..\Software\uCOS-III\Source/os_tmr.c ****     switch (p_tmr->State) {
 1493              		.loc 1 457 5 is_stmt 0 view .LVU490
 1494 0018 FFF7FEFF 		bl	OSSchedLock
 1495              	.LVL128:
 458:..\..\..\..\..\..\Software\uCOS-III\Source/os_tmr.c ****         case OS_TMR_STATE_RUNNING:                          /* Restart the timer                   
 1496              		.loc 1 458 5 is_stmt 1 view .LVU491
 458:..\..\..\..\..\..\Software\uCOS-III\Source/os_tmr.c ****         case OS_TMR_STATE_RUNNING:                          /* Restart the timer                   
 1497              		.loc 1 458 18 is_stmt 0 view .LVU492
 1498 001c 2A23     		movs	r3, #42
 1499 001e E35C     		ldrb	r3, [r4, r3]
 458:..\..\..\..\..\..\Software\uCOS-III\Source/os_tmr.c ****         case OS_TMR_STATE_RUNNING:                          /* Restart the timer                   
 1500              		.loc 1 458 5 view .LVU493
 1501 0020 012B     		cmp	r3, #1
 1502 0022 25D0     		beq	.L107
 1503 0024 002B     		cmp	r3, #0
 1504 0026 2FD0     		beq	.L108
 1505 0028 022B     		cmp	r3, #2
 1506 002a 12D0     		beq	.L109
 1507 002c 032B     		cmp	r3, #3
 1508 002e 1FD0     		beq	.L107
 482:..\..\..\..\..\..\Software\uCOS-III\Source/os_tmr.c ****             *p_err = OS_ERR_TMR_INVALID_STATE;
 1509              		.loc 1 482 14 is_stmt 1 view .LVU494
 1510 0030 6B46     		mov	r3, sp
 1511 0032 981D     		adds	r0, r3, #6
 1512 0034 FFF7FEFF 		bl	OSSchedUnlock
 1513              	.LVL129:
 483:..\..\..\..\..\..\Software\uCOS-III\Source/os_tmr.c ****              success = DEF_FALSE;
 1514              		.loc 1 483 13 view .LVU495
 483:..\..\..\..\..\..\Software\uCOS-III\Source/os_tmr.c ****              success = DEF_FALSE;
ARM GAS  C:\Users\EDULU~1.DES\AppData\Local\Temp\ccmSuQZN.s 			page 50


 1515              		.loc 1 483 20 is_stmt 0 view .LVU496
 1516 0038 184B     		ldr	r3, .L114+4
 1517 003a 2B80     		strh	r3, [r5]
 484:..\..\..\..\..\..\Software\uCOS-III\Source/os_tmr.c ****              break;
 1518              		.loc 1 484 14 is_stmt 1 view .LVU497
 1519              	.LVL130:
 485:..\..\..\..\..\..\Software\uCOS-III\Source/os_tmr.c ****     }
 1520              		.loc 1 485 14 view .LVU498
 484:..\..\..\..\..\..\Software\uCOS-III\Source/os_tmr.c ****              break;
 1521              		.loc 1 484 22 is_stmt 0 view .LVU499
 1522 003c 0020     		movs	r0, #0
 485:..\..\..\..\..\..\Software\uCOS-III\Source/os_tmr.c ****     }
 1523              		.loc 1 485 14 view .LVU500
 1524 003e 02E0     		b	.L105
 1525              	.LVL131:
 1526              	.L112:
 438:..\..\..\..\..\..\Software\uCOS-III\Source/os_tmr.c ****         return (DEF_FALSE);
 1527              		.loc 1 438 8 is_stmt 1 view .LVU501
 438:..\..\..\..\..\..\Software\uCOS-III\Source/os_tmr.c ****         return (DEF_FALSE);
 1528              		.loc 1 438 15 is_stmt 0 view .LVU502
 1529 0040 174B     		ldr	r3, .L114+8
 1530 0042 0B80     		strh	r3, [r1]
 439:..\..\..\..\..\..\Software\uCOS-III\Source/os_tmr.c ****     }
 1531              		.loc 1 439 9 is_stmt 1 view .LVU503
 439:..\..\..\..\..\..\Software\uCOS-III\Source/os_tmr.c ****     }
 1532              		.loc 1 439 16 is_stmt 0 view .LVU504
 1533 0044 0020     		movs	r0, #0
 1534              	.LVL132:
 1535              	.L105:
 488:..\..\..\..\..\..\Software\uCOS-III\Source/os_tmr.c **** 
 1536              		.loc 1 488 1 view .LVU505
 1537 0046 03B0     		add	sp, sp, #12
 1538              		@ sp needed
 1539              	.LVL133:
 1540              	.LVL134:
 488:..\..\..\..\..\..\Software\uCOS-III\Source/os_tmr.c **** 
 1541              		.loc 1 488 1 view .LVU506
 1542 0048 30BD     		pop	{r4, r5, pc}
 1543              	.LVL135:
 1544              	.L113:
 445:..\..\..\..\..\..\Software\uCOS-III\Source/os_tmr.c ****         return (DEF_FALSE);
 1545              		.loc 1 445 8 is_stmt 1 view .LVU507
 445:..\..\..\..\..\..\Software\uCOS-III\Source/os_tmr.c ****         return (DEF_FALSE);
 1546              		.loc 1 445 15 is_stmt 0 view .LVU508
 1547 004a 164B     		ldr	r3, .L114+12
 1548 004c 0B80     		strh	r3, [r1]
 446:..\..\..\..\..\..\Software\uCOS-III\Source/os_tmr.c ****     }
 1549              		.loc 1 446 9 is_stmt 1 view .LVU509
 446:..\..\..\..\..\..\Software\uCOS-III\Source/os_tmr.c ****     }
 1550              		.loc 1 446 16 is_stmt 0 view .LVU510
 1551 004e 0020     		movs	r0, #0
 1552              	.LVL136:
 446:..\..\..\..\..\..\Software\uCOS-III\Source/os_tmr.c ****     }
 1553              		.loc 1 446 16 view .LVU511
 1554 0050 F9E7     		b	.L105
 1555              	.LVL137:
 1556              	.L109:
ARM GAS  C:\Users\EDULU~1.DES\AppData\Local\Temp\ccmSuQZN.s 			page 51


 460:..\..\..\..\..\..\Software\uCOS-III\Source/os_tmr.c ****              OS_TmrLink(p_tmr, OS_OPT_LINK_DLY);            /* ... Link timer to timer wheel (see N
 1557              		.loc 1 460 14 is_stmt 1 view .LVU512
 1558 0052 2000     		movs	r0, r4
 1559 0054 FFF7FEFF 		bl	OS_TmrUnlink
 1560              	.LVL138:
 461:..\..\..\..\..\..\Software\uCOS-III\Source/os_tmr.c ****              OSSchedUnlock(&err);
 1561              		.loc 1 461 14 view .LVU513
 1562 0058 0021     		movs	r1, #0
 1563 005a 2000     		movs	r0, r4
 1564 005c FFF7FEFF 		bl	OS_TmrLink
 1565              	.LVL139:
 462:..\..\..\..\..\..\Software\uCOS-III\Source/os_tmr.c ****             *p_err   = OS_ERR_NONE;
 1566              		.loc 1 462 14 view .LVU514
 1567 0060 6B46     		mov	r3, sp
 1568 0062 981D     		adds	r0, r3, #6
 1569 0064 FFF7FEFF 		bl	OSSchedUnlock
 1570              	.LVL140:
 463:..\..\..\..\..\..\Software\uCOS-III\Source/os_tmr.c ****              success = DEF_TRUE;
 1571              		.loc 1 463 13 view .LVU515
 463:..\..\..\..\..\..\Software\uCOS-III\Source/os_tmr.c ****              success = DEF_TRUE;
 1572              		.loc 1 463 22 is_stmt 0 view .LVU516
 1573 0068 0023     		movs	r3, #0
 1574 006a 2B80     		strh	r3, [r5]
 464:..\..\..\..\..\..\Software\uCOS-III\Source/os_tmr.c ****              break;
 1575              		.loc 1 464 14 is_stmt 1 view .LVU517
 1576              	.LVL141:
 465:..\..\..\..\..\..\Software\uCOS-III\Source/os_tmr.c **** 
 1577              		.loc 1 465 14 view .LVU518
 464:..\..\..\..\..\..\Software\uCOS-III\Source/os_tmr.c ****              break;
 1578              		.loc 1 464 22 is_stmt 0 view .LVU519
 1579 006c 0120     		movs	r0, #1
 465:..\..\..\..\..\..\Software\uCOS-III\Source/os_tmr.c **** 
 1580              		.loc 1 465 14 view .LVU520
 1581 006e EAE7     		b	.L105
 1582              	.LVL142:
 1583              	.L107:
 469:..\..\..\..\..\..\Software\uCOS-III\Source/os_tmr.c ****              OSSchedUnlock(&err);
 1584              		.loc 1 469 14 is_stmt 1 view .LVU521
 1585 0070 0021     		movs	r1, #0
 1586 0072 2000     		movs	r0, r4
 1587 0074 FFF7FEFF 		bl	OS_TmrLink
 1588              	.LVL143:
 470:..\..\..\..\..\..\Software\uCOS-III\Source/os_tmr.c ****             *p_err   = OS_ERR_NONE;
 1589              		.loc 1 470 14 view .LVU522
 1590 0078 6B46     		mov	r3, sp
 1591 007a 981D     		adds	r0, r3, #6
 1592 007c FFF7FEFF 		bl	OSSchedUnlock
 1593              	.LVL144:
 471:..\..\..\..\..\..\Software\uCOS-III\Source/os_tmr.c ****              success = DEF_TRUE;
 1594              		.loc 1 471 13 view .LVU523
 471:..\..\..\..\..\..\Software\uCOS-III\Source/os_tmr.c ****              success = DEF_TRUE;
 1595              		.loc 1 471 22 is_stmt 0 view .LVU524
 1596 0080 0023     		movs	r3, #0
 1597 0082 2B80     		strh	r3, [r5]
 472:..\..\..\..\..\..\Software\uCOS-III\Source/os_tmr.c ****              break;
 1598              		.loc 1 472 14 is_stmt 1 view .LVU525
 1599              	.LVL145:
ARM GAS  C:\Users\EDULU~1.DES\AppData\Local\Temp\ccmSuQZN.s 			page 52


 473:..\..\..\..\..\..\Software\uCOS-III\Source/os_tmr.c **** 
 1600              		.loc 1 473 14 view .LVU526
 472:..\..\..\..\..\..\Software\uCOS-III\Source/os_tmr.c ****              break;
 1601              		.loc 1 472 22 is_stmt 0 view .LVU527
 1602 0084 0120     		movs	r0, #1
 473:..\..\..\..\..\..\Software\uCOS-III\Source/os_tmr.c **** 
 1603              		.loc 1 473 14 view .LVU528
 1604 0086 DEE7     		b	.L105
 1605              	.LVL146:
 1606              	.L108:
 476:..\..\..\..\..\..\Software\uCOS-III\Source/os_tmr.c ****             *p_err   = OS_ERR_TMR_INACTIVE;
 1607              		.loc 1 476 14 is_stmt 1 view .LVU529
 1608 0088 6B46     		mov	r3, sp
 1609 008a 981D     		adds	r0, r3, #6
 1610 008c FFF7FEFF 		bl	OSSchedUnlock
 1611              	.LVL147:
 477:..\..\..\..\..\..\Software\uCOS-III\Source/os_tmr.c ****              success = DEF_FALSE;
 1612              		.loc 1 477 13 view .LVU530
 477:..\..\..\..\..\..\Software\uCOS-III\Source/os_tmr.c ****              success = DEF_FALSE;
 1613              		.loc 1 477 22 is_stmt 0 view .LVU531
 1614 0090 054B     		ldr	r3, .L114+16
 1615 0092 2B80     		strh	r3, [r5]
 478:..\..\..\..\..\..\Software\uCOS-III\Source/os_tmr.c ****              break;
 1616              		.loc 1 478 14 is_stmt 1 view .LVU532
 1617              	.LVL148:
 479:..\..\..\..\..\..\Software\uCOS-III\Source/os_tmr.c **** 
 1618              		.loc 1 479 14 view .LVU533
 478:..\..\..\..\..\..\Software\uCOS-III\Source/os_tmr.c ****              break;
 1619              		.loc 1 478 22 is_stmt 0 view .LVU534
 1620 0094 0020     		movs	r0, #0
 479:..\..\..\..\..\..\Software\uCOS-III\Source/os_tmr.c **** 
 1621              		.loc 1 479 14 view .LVU535
 1622 0096 D6E7     		b	.L105
 1623              	.L115:
 1624              		.align	2
 1625              	.L114:
 1626 0098 00000000 		.word	OSIntNestingCtr
 1627 009c 41730000 		.word	29505
 1628 00a0 43730000 		.word	29507
 1629 00a4 42730000 		.word	29506
 1630 00a8 3D730000 		.word	29501
 1631              		.cfi_endproc
 1632              	.LFE5:
 1633              		.size	OSTmrStart, .-OSTmrStart
 1634              		.section	.text.OSTmrStop,"ax",%progbits
 1635              		.align	1
 1636              		.global	OSTmrStop
 1637              		.syntax unified
 1638              		.code	16
 1639              		.thumb_func
 1640              		.fpu softvfp
 1641              		.type	OSTmrStop, %function
 1642              	OSTmrStop:
 1643              	.LVL149:
 1644              	.LFB7:
 611:..\..\..\..\..\..\Software\uCOS-III\Source/os_tmr.c ****     OS_TMR_CALLBACK_PTR  p_fnct;
 1645              		.loc 1 611 1 is_stmt 1 view -0
ARM GAS  C:\Users\EDULU~1.DES\AppData\Local\Temp\ccmSuQZN.s 			page 53


 1646              		.cfi_startproc
 1647              		@ args = 0, pretend = 0, frame = 8
 1648              		@ frame_needed = 0, uses_anonymous_args = 0
 611:..\..\..\..\..\..\Software\uCOS-III\Source/os_tmr.c ****     OS_TMR_CALLBACK_PTR  p_fnct;
 1649              		.loc 1 611 1 is_stmt 0 view .LVU537
 1650 0000 F0B5     		push	{r4, r5, r6, r7, lr}
 1651              		.cfi_def_cfa_offset 20
 1652              		.cfi_offset 4, -20
 1653              		.cfi_offset 5, -16
 1654              		.cfi_offset 6, -12
 1655              		.cfi_offset 7, -8
 1656              		.cfi_offset 14, -4
 1657 0002 83B0     		sub	sp, sp, #12
 1658              		.cfi_def_cfa_offset 32
 1659 0004 0400     		movs	r4, r0
 1660 0006 0D00     		movs	r5, r1
 1661 0008 1600     		movs	r6, r2
 1662 000a 1F00     		movs	r7, r3
 612:..\..\..\..\..\..\Software\uCOS-III\Source/os_tmr.c ****     OS_ERR               err;
 1663              		.loc 1 612 5 is_stmt 1 view .LVU538
 613:..\..\..\..\..\..\Software\uCOS-III\Source/os_tmr.c ****     CPU_BOOLEAN          success;
 1664              		.loc 1 613 5 view .LVU539
 614:..\..\..\..\..\..\Software\uCOS-III\Source/os_tmr.c **** 
 1665              		.loc 1 614 5 view .LVU540
 626:..\..\..\..\..\..\Software\uCOS-III\Source/os_tmr.c ****        *p_err = OS_ERR_TMR_ISR;
 1666              		.loc 1 626 5 view .LVU541
 626:..\..\..\..\..\..\Software\uCOS-III\Source/os_tmr.c ****        *p_err = OS_ERR_TMR_ISR;
 1667              		.loc 1 626 25 is_stmt 0 view .LVU542
 1668 000c 304B     		ldr	r3, .L134
 1669              	.LVL150:
 626:..\..\..\..\..\..\Software\uCOS-III\Source/os_tmr.c ****        *p_err = OS_ERR_TMR_ISR;
 1670              		.loc 1 626 25 view .LVU543
 1671 000e 1B78     		ldrb	r3, [r3]
 626:..\..\..\..\..\..\Software\uCOS-III\Source/os_tmr.c ****        *p_err = OS_ERR_TMR_ISR;
 1672              		.loc 1 626 8 view .LVU544
 1673 0010 002B     		cmp	r3, #0
 1674 0012 17D1     		bne	.L132
 633:..\..\..\..\..\..\Software\uCOS-III\Source/os_tmr.c ****        *p_err = OS_ERR_TMR_INVALID;
 1675              		.loc 1 633 5 is_stmt 1 view .LVU545
 633:..\..\..\..\..\..\Software\uCOS-III\Source/os_tmr.c ****        *p_err = OS_ERR_TMR_INVALID;
 1676              		.loc 1 633 8 is_stmt 0 view .LVU546
 1677 0014 0028     		cmp	r0, #0
 1678 0016 1AD0     		beq	.L133
 646:..\..\..\..\..\..\Software\uCOS-III\Source/os_tmr.c ****     switch (p_tmr->State) {
 1679              		.loc 1 646 5 is_stmt 1 view .LVU547
 1680 0018 6B46     		mov	r3, sp
 1681 001a 981D     		adds	r0, r3, #6
 1682              	.LVL151:
 646:..\..\..\..\..\..\Software\uCOS-III\Source/os_tmr.c ****     switch (p_tmr->State) {
 1683              		.loc 1 646 5 is_stmt 0 view .LVU548
 1684 001c FFF7FEFF 		bl	OSSchedLock
 1685              	.LVL152:
 647:..\..\..\..\..\..\Software\uCOS-III\Source/os_tmr.c ****         case OS_TMR_STATE_RUNNING:
 1686              		.loc 1 647 5 is_stmt 1 view .LVU549
 647:..\..\..\..\..\..\Software\uCOS-III\Source/os_tmr.c ****         case OS_TMR_STATE_RUNNING:
 1687              		.loc 1 647 18 is_stmt 0 view .LVU550
 1688 0020 2A23     		movs	r3, #42
ARM GAS  C:\Users\EDULU~1.DES\AppData\Local\Temp\ccmSuQZN.s 			page 54


 1689 0022 E35C     		ldrb	r3, [r4, r3]
 647:..\..\..\..\..\..\Software\uCOS-III\Source/os_tmr.c ****         case OS_TMR_STATE_RUNNING:
 1690              		.loc 1 647 5 view .LVU551
 1691 0024 012B     		cmp	r3, #1
 1692 0026 42D0     		beq	.L120
 1693 0028 002B     		cmp	r3, #0
 1694 002a 48D0     		beq	.L121
 1695 002c 022B     		cmp	r3, #2
 1696 002e 12D0     		beq	.L122
 1697 0030 032B     		cmp	r3, #3
 1698 0032 3CD0     		beq	.L120
 696:..\..\..\..\..\..\Software\uCOS-III\Source/os_tmr.c ****             *p_err   = OS_ERR_TMR_INVALID_STATE;
 1699              		.loc 1 696 14 is_stmt 1 view .LVU552
 1700 0034 6B46     		mov	r3, sp
 1701 0036 981D     		adds	r0, r3, #6
 1702 0038 FFF7FEFF 		bl	OSSchedUnlock
 1703              	.LVL153:
 697:..\..\..\..\..\..\Software\uCOS-III\Source/os_tmr.c ****              success = DEF_FALSE;
 1704              		.loc 1 697 13 view .LVU553
 697:..\..\..\..\..\..\Software\uCOS-III\Source/os_tmr.c ****              success = DEF_FALSE;
 1705              		.loc 1 697 22 is_stmt 0 view .LVU554
 1706 003c 254B     		ldr	r3, .L134+4
 1707 003e 3B80     		strh	r3, [r7]
 698:..\..\..\..\..\..\Software\uCOS-III\Source/os_tmr.c ****              break;
 1708              		.loc 1 698 14 is_stmt 1 view .LVU555
 1709              	.LVL154:
 699:..\..\..\..\..\..\Software\uCOS-III\Source/os_tmr.c ****     }
 1710              		.loc 1 699 14 view .LVU556
 698:..\..\..\..\..\..\Software\uCOS-III\Source/os_tmr.c ****              break;
 1711              		.loc 1 698 22 is_stmt 0 view .LVU557
 1712 0040 0020     		movs	r0, #0
 699:..\..\..\..\..\..\Software\uCOS-III\Source/os_tmr.c ****     }
 1713              		.loc 1 699 14 view .LVU558
 1714 0042 02E0     		b	.L118
 1715              	.LVL155:
 1716              	.L132:
 627:..\..\..\..\..\..\Software\uCOS-III\Source/os_tmr.c ****         return (DEF_FALSE);
 1717              		.loc 1 627 8 is_stmt 1 view .LVU559
 627:..\..\..\..\..\..\Software\uCOS-III\Source/os_tmr.c ****         return (DEF_FALSE);
 1718              		.loc 1 627 15 is_stmt 0 view .LVU560
 1719 0044 244B     		ldr	r3, .L134+8
 1720 0046 3B80     		strh	r3, [r7]
 628:..\..\..\..\..\..\Software\uCOS-III\Source/os_tmr.c ****     }
 1721              		.loc 1 628 9 is_stmt 1 view .LVU561
 628:..\..\..\..\..\..\Software\uCOS-III\Source/os_tmr.c ****     }
 1722              		.loc 1 628 16 is_stmt 0 view .LVU562
 1723 0048 0020     		movs	r0, #0
 1724              	.LVL156:
 1725              	.L118:
 702:..\..\..\..\..\..\Software\uCOS-III\Source/os_tmr.c **** 
 1726              		.loc 1 702 1 view .LVU563
 1727 004a 03B0     		add	sp, sp, #12
 1728              		@ sp needed
 1729              	.LVL157:
 1730              	.LVL158:
 1731              	.LVL159:
 702:..\..\..\..\..\..\Software\uCOS-III\Source/os_tmr.c **** 
ARM GAS  C:\Users\EDULU~1.DES\AppData\Local\Temp\ccmSuQZN.s 			page 55


 1732              		.loc 1 702 1 view .LVU564
 1733 004c F0BD     		pop	{r4, r5, r6, r7, pc}
 1734              	.LVL160:
 1735              	.L133:
 634:..\..\..\..\..\..\Software\uCOS-III\Source/os_tmr.c ****         return (DEF_FALSE);
 1736              		.loc 1 634 8 is_stmt 1 view .LVU565
 634:..\..\..\..\..\..\Software\uCOS-III\Source/os_tmr.c ****         return (DEF_FALSE);
 1737              		.loc 1 634 15 is_stmt 0 view .LVU566
 1738 004e 234B     		ldr	r3, .L134+12
 1739 0050 3B80     		strh	r3, [r7]
 635:..\..\..\..\..\..\Software\uCOS-III\Source/os_tmr.c ****     }
 1740              		.loc 1 635 9 is_stmt 1 view .LVU567
 635:..\..\..\..\..\..\Software\uCOS-III\Source/os_tmr.c ****     }
 1741              		.loc 1 635 16 is_stmt 0 view .LVU568
 1742 0052 0020     		movs	r0, #0
 1743              	.LVL161:
 635:..\..\..\..\..\..\Software\uCOS-III\Source/os_tmr.c ****     }
 1744              		.loc 1 635 16 view .LVU569
 1745 0054 F9E7     		b	.L118
 1746              	.LVL162:
 1747              	.L122:
 649:..\..\..\..\..\..\Software\uCOS-III\Source/os_tmr.c ****             *p_err = OS_ERR_NONE;
 1748              		.loc 1 649 14 is_stmt 1 view .LVU570
 1749 0056 2000     		movs	r0, r4
 1750 0058 FFF7FEFF 		bl	OS_TmrUnlink
 1751              	.LVL163:
 650:..\..\..\..\..\..\Software\uCOS-III\Source/os_tmr.c ****              switch (opt) {
 1752              		.loc 1 650 13 view .LVU571
 650:..\..\..\..\..\..\Software\uCOS-III\Source/os_tmr.c ****              switch (opt) {
 1753              		.loc 1 650 20 is_stmt 0 view .LVU572
 1754 005c 0023     		movs	r3, #0
 1755 005e 3B80     		strh	r3, [r7]
 651:..\..\..\..\..\..\Software\uCOS-III\Source/os_tmr.c ****                  case OS_OPT_TMR_CALLBACK:
 1756              		.loc 1 651 14 is_stmt 1 view .LVU573
 1757 0060 032D     		cmp	r5, #3
 1758 0062 0BD0     		beq	.L124
 1759 0064 042D     		cmp	r5, #4
 1760 0066 18D0     		beq	.L125
 1761 0068 002D     		cmp	r5, #0
 1762 006a 0DD0     		beq	.L126
 674:..\..\..\..\..\..\Software\uCOS-III\Source/os_tmr.c ****                     *p_err = OS_ERR_OPT_INVALID;
 1763              		.loc 1 674 22 view .LVU574
 1764 006c 6B46     		mov	r3, sp
 1765 006e 981D     		adds	r0, r3, #6
 1766 0070 FFF7FEFF 		bl	OSSchedUnlock
 1767              	.LVL164:
 675:..\..\..\..\..\..\Software\uCOS-III\Source/os_tmr.c ****                      return (DEF_FALSE);
 1768              		.loc 1 675 21 view .LVU575
 675:..\..\..\..\..\..\Software\uCOS-III\Source/os_tmr.c ****                      return (DEF_FALSE);
 1769              		.loc 1 675 28 is_stmt 0 view .LVU576
 1770 0074 1A4B     		ldr	r3, .L134+16
 1771 0076 3B80     		strh	r3, [r7]
 676:..\..\..\..\..\..\Software\uCOS-III\Source/os_tmr.c ****              }
 1772              		.loc 1 676 22 is_stmt 1 view .LVU577
 676:..\..\..\..\..\..\Software\uCOS-III\Source/os_tmr.c ****              }
 1773              		.loc 1 676 29 is_stmt 0 view .LVU578
 1774 0078 0020     		movs	r0, #0
ARM GAS  C:\Users\EDULU~1.DES\AppData\Local\Temp\ccmSuQZN.s 			page 56


 1775 007a E6E7     		b	.L118
 1776              	.L124:
 653:..\..\..\..\..\..\Software\uCOS-III\Source/os_tmr.c ****                       if (p_fnct != (OS_TMR_CALLBACK_PTR)0) {              /* ... if available     
 1777              		.loc 1 653 23 is_stmt 1 view .LVU579
 653:..\..\..\..\..\..\Software\uCOS-III\Source/os_tmr.c ****                       if (p_fnct != (OS_TMR_CALLBACK_PTR)0) {              /* ... if available     
 1778              		.loc 1 653 30 is_stmt 0 view .LVU580
 1779 007c A368     		ldr	r3, [r4, #8]
 1780              	.LVL165:
 654:..\..\..\..\..\..\Software\uCOS-III\Source/os_tmr.c ****                         (*p_fnct)((void *)p_tmr, p_tmr->CallbackPtrArg);   /* Use callback arg when
 1781              		.loc 1 654 23 is_stmt 1 view .LVU581
 654:..\..\..\..\..\..\Software\uCOS-III\Source/os_tmr.c ****                         (*p_fnct)((void *)p_tmr, p_tmr->CallbackPtrArg);   /* Use callback arg when
 1782              		.loc 1 654 26 is_stmt 0 view .LVU582
 1783 007e 002B     		cmp	r3, #0
 1784 0080 08D0     		beq	.L128
 655:..\..\..\..\..\..\Software\uCOS-III\Source/os_tmr.c ****                       } else {
 1785              		.loc 1 655 25 is_stmt 1 view .LVU583
 655:..\..\..\..\..\..\Software\uCOS-III\Source/os_tmr.c ****                       } else {
 1786              		.loc 1 655 26 is_stmt 0 view .LVU584
 1787 0082 E168     		ldr	r1, [r4, #12]
 1788 0084 2000     		movs	r0, r4
 1789 0086 9847     		blx	r3
 1790              	.LVL166:
 1791              	.L126:
 678:..\..\..\..\..\..\Software\uCOS-III\Source/os_tmr.c ****              success = DEF_TRUE;
 1792              		.loc 1 678 14 is_stmt 1 view .LVU585
 1793 0088 6B46     		mov	r3, sp
 1794 008a 981D     		adds	r0, r3, #6
 1795 008c FFF7FEFF 		bl	OSSchedUnlock
 1796              	.LVL167:
 679:..\..\..\..\..\..\Software\uCOS-III\Source/os_tmr.c ****              break;
 1797              		.loc 1 679 14 view .LVU586
 680:..\..\..\..\..\..\Software\uCOS-III\Source/os_tmr.c **** 
 1798              		.loc 1 680 14 view .LVU587
 679:..\..\..\..\..\..\Software\uCOS-III\Source/os_tmr.c ****              break;
 1799              		.loc 1 679 22 is_stmt 0 view .LVU588
 1800 0090 0120     		movs	r0, #1
 680:..\..\..\..\..\..\Software\uCOS-III\Source/os_tmr.c **** 
 1801              		.loc 1 680 14 view .LVU589
 1802 0092 DAE7     		b	.L118
 1803              	.LVL168:
 1804              	.L128:
 657:..\..\..\..\..\..\Software\uCOS-III\Source/os_tmr.c ****                       }
 1805              		.loc 1 657 26 is_stmt 1 view .LVU590
 657:..\..\..\..\..\..\Software\uCOS-III\Source/os_tmr.c ****                       }
 1806              		.loc 1 657 33 is_stmt 0 view .LVU591
 1807 0094 134B     		ldr	r3, .L134+20
 1808              	.LVL169:
 657:..\..\..\..\..\..\Software\uCOS-III\Source/os_tmr.c ****                       }
 1809              		.loc 1 657 33 view .LVU592
 1810 0096 3B80     		strh	r3, [r7]
 1811              	.LVL170:
 657:..\..\..\..\..\..\Software\uCOS-III\Source/os_tmr.c ****                       }
 1812              		.loc 1 657 33 view .LVU593
 1813 0098 F6E7     		b	.L126
 1814              	.L125:
 662:..\..\..\..\..\..\Software\uCOS-III\Source/os_tmr.c ****                       if (p_fnct != (OS_TMR_CALLBACK_PTR)0) {
 1815              		.loc 1 662 23 is_stmt 1 view .LVU594
ARM GAS  C:\Users\EDULU~1.DES\AppData\Local\Temp\ccmSuQZN.s 			page 57


 662:..\..\..\..\..\..\Software\uCOS-III\Source/os_tmr.c ****                       if (p_fnct != (OS_TMR_CALLBACK_PTR)0) {
 1816              		.loc 1 662 30 is_stmt 0 view .LVU595
 1817 009a A368     		ldr	r3, [r4, #8]
 1818              	.LVL171:
 663:..\..\..\..\..\..\Software\uCOS-III\Source/os_tmr.c ****                         (*p_fnct)((void *)p_tmr, p_callback_arg);     /* .. using the 'callback_arg
 1819              		.loc 1 663 23 is_stmt 1 view .LVU596
 663:..\..\..\..\..\..\Software\uCOS-III\Source/os_tmr.c ****                         (*p_fnct)((void *)p_tmr, p_callback_arg);     /* .. using the 'callback_arg
 1820              		.loc 1 663 26 is_stmt 0 view .LVU597
 1821 009c 002B     		cmp	r3, #0
 1822 009e 03D0     		beq	.L129
 664:..\..\..\..\..\..\Software\uCOS-III\Source/os_tmr.c ****                       } else {
 1823              		.loc 1 664 25 is_stmt 1 view .LVU598
 664:..\..\..\..\..\..\Software\uCOS-III\Source/os_tmr.c ****                       } else {
 1824              		.loc 1 664 26 is_stmt 0 view .LVU599
 1825 00a0 3100     		movs	r1, r6
 1826 00a2 2000     		movs	r0, r4
 1827 00a4 9847     		blx	r3
 1828              	.LVL172:
 664:..\..\..\..\..\..\Software\uCOS-III\Source/os_tmr.c ****                       } else {
 1829              		.loc 1 664 26 view .LVU600
 1830 00a6 EFE7     		b	.L126
 1831              	.LVL173:
 1832              	.L129:
 666:..\..\..\..\..\..\Software\uCOS-III\Source/os_tmr.c ****                       }
 1833              		.loc 1 666 26 is_stmt 1 view .LVU601
 666:..\..\..\..\..\..\Software\uCOS-III\Source/os_tmr.c ****                       }
 1834              		.loc 1 666 33 is_stmt 0 view .LVU602
 1835 00a8 0E4B     		ldr	r3, .L134+20
 1836              	.LVL174:
 666:..\..\..\..\..\..\Software\uCOS-III\Source/os_tmr.c ****                       }
 1837              		.loc 1 666 33 view .LVU603
 1838 00aa 3B80     		strh	r3, [r7]
 1839              	.LVL175:
 666:..\..\..\..\..\..\Software\uCOS-III\Source/os_tmr.c ****                       }
 1840              		.loc 1 666 33 view .LVU604
 1841 00ac ECE7     		b	.L126
 1842              	.L120:
 684:..\..\..\..\..\..\Software\uCOS-III\Source/os_tmr.c ****             *p_err   = OS_ERR_TMR_STOPPED;
 1843              		.loc 1 684 14 is_stmt 1 view .LVU605
 1844 00ae 6B46     		mov	r3, sp
 1845 00b0 981D     		adds	r0, r3, #6
 1846 00b2 FFF7FEFF 		bl	OSSchedUnlock
 1847              	.LVL176:
 685:..\..\..\..\..\..\Software\uCOS-III\Source/os_tmr.c ****              success = DEF_TRUE;
 1848              		.loc 1 685 13 view .LVU606
 685:..\..\..\..\..\..\Software\uCOS-III\Source/os_tmr.c ****              success = DEF_TRUE;
 1849              		.loc 1 685 22 is_stmt 0 view .LVU607
 1850 00b6 0C4B     		ldr	r3, .L134+24
 1851 00b8 3B80     		strh	r3, [r7]
 686:..\..\..\..\..\..\Software\uCOS-III\Source/os_tmr.c ****              break;
 1852              		.loc 1 686 14 is_stmt 1 view .LVU608
 1853              	.LVL177:
 687:..\..\..\..\..\..\Software\uCOS-III\Source/os_tmr.c **** 
 1854              		.loc 1 687 14 view .LVU609
 686:..\..\..\..\..\..\Software\uCOS-III\Source/os_tmr.c ****              break;
 1855              		.loc 1 686 22 is_stmt 0 view .LVU610
 1856 00ba 0120     		movs	r0, #1
ARM GAS  C:\Users\EDULU~1.DES\AppData\Local\Temp\ccmSuQZN.s 			page 58


 687:..\..\..\..\..\..\Software\uCOS-III\Source/os_tmr.c **** 
 1857              		.loc 1 687 14 view .LVU611
 1858 00bc C5E7     		b	.L118
 1859              	.LVL178:
 1860              	.L121:
 690:..\..\..\..\..\..\Software\uCOS-III\Source/os_tmr.c ****             *p_err   = OS_ERR_TMR_INACTIVE;
 1861              		.loc 1 690 14 is_stmt 1 view .LVU612
 1862 00be 6B46     		mov	r3, sp
 1863 00c0 981D     		adds	r0, r3, #6
 1864 00c2 FFF7FEFF 		bl	OSSchedUnlock
 1865              	.LVL179:
 691:..\..\..\..\..\..\Software\uCOS-III\Source/os_tmr.c ****              success = DEF_FALSE;
 1866              		.loc 1 691 13 view .LVU613
 691:..\..\..\..\..\..\Software\uCOS-III\Source/os_tmr.c ****              success = DEF_FALSE;
 1867              		.loc 1 691 22 is_stmt 0 view .LVU614
 1868 00c6 094B     		ldr	r3, .L134+28
 1869 00c8 3B80     		strh	r3, [r7]
 692:..\..\..\..\..\..\Software\uCOS-III\Source/os_tmr.c ****              break;
 1870              		.loc 1 692 14 is_stmt 1 view .LVU615
 1871              	.LVL180:
 693:..\..\..\..\..\..\Software\uCOS-III\Source/os_tmr.c **** 
 1872              		.loc 1 693 14 view .LVU616
 692:..\..\..\..\..\..\Software\uCOS-III\Source/os_tmr.c ****              break;
 1873              		.loc 1 692 22 is_stmt 0 view .LVU617
 1874 00ca 0020     		movs	r0, #0
 693:..\..\..\..\..\..\Software\uCOS-III\Source/os_tmr.c **** 
 1875              		.loc 1 693 14 view .LVU618
 1876 00cc BDE7     		b	.L118
 1877              	.L135:
 1878 00ce C046     		.align	2
 1879              	.L134:
 1880 00d0 00000000 		.word	OSIntNestingCtr
 1881 00d4 41730000 		.word	29505
 1882 00d8 43730000 		.word	29507
 1883 00dc 42730000 		.word	29506
 1884 00e0 255E0000 		.word	24101
 1885 00e4 44730000 		.word	29508
 1886 00e8 49730000 		.word	29513
 1887 00ec 3D730000 		.word	29501
 1888              		.cfi_endproc
 1889              	.LFE7:
 1890              		.size	OSTmrStop, .-OSTmrStop
 1891              		.section	.text.OS_TmrTask,"ax",%progbits
 1892              		.align	1
 1893              		.global	OS_TmrTask
 1894              		.syntax unified
 1895              		.code	16
 1896              		.thumb_func
 1897              		.fpu softvfp
 1898              		.type	OS_TmrTask, %function
 1899              	OS_TmrTask:
 1900              	.LFB15:
1048:..\..\..\..\..\..\Software\uCOS-III\Source/os_tmr.c **** 
1049:..\..\..\..\..\..\Software\uCOS-III\Source/os_tmr.c **** /*$PAGE*/
1050:..\..\..\..\..\..\Software\uCOS-III\Source/os_tmr.c **** /*
1051:..\..\..\..\..\..\Software\uCOS-III\Source/os_tmr.c **** ***************************************************************************************************
1052:..\..\..\..\..\..\Software\uCOS-III\Source/os_tmr.c **** *                                                 TIMER MANAGEMENT TASK
ARM GAS  C:\Users\EDULU~1.DES\AppData\Local\Temp\ccmSuQZN.s 			page 59


1053:..\..\..\..\..\..\Software\uCOS-III\Source/os_tmr.c **** *
1054:..\..\..\..\..\..\Software\uCOS-III\Source/os_tmr.c **** * Description: This task is created by OS_TmrInit().
1055:..\..\..\..\..\..\Software\uCOS-III\Source/os_tmr.c **** *
1056:..\..\..\..\..\..\Software\uCOS-III\Source/os_tmr.c **** * Arguments  : none
1057:..\..\..\..\..\..\Software\uCOS-III\Source/os_tmr.c **** *
1058:..\..\..\..\..\..\Software\uCOS-III\Source/os_tmr.c **** * Returns    : none
1059:..\..\..\..\..\..\Software\uCOS-III\Source/os_tmr.c **** *
1060:..\..\..\..\..\..\Software\uCOS-III\Source/os_tmr.c **** * Note(s)    : 1) This function is INTERNAL to uC/OS-III and your application MUST NOT call it.
1061:..\..\..\..\..\..\Software\uCOS-III\Source/os_tmr.c **** ***************************************************************************************************
1062:..\..\..\..\..\..\Software\uCOS-III\Source/os_tmr.c **** */
1063:..\..\..\..\..\..\Software\uCOS-III\Source/os_tmr.c **** 
1064:..\..\..\..\..\..\Software\uCOS-III\Source/os_tmr.c **** void  OS_TmrTask (void  *p_arg)
1065:..\..\..\..\..\..\Software\uCOS-III\Source/os_tmr.c **** {
 1901              		.loc 1 1065 1 is_stmt 1 view -0
 1902              		.cfi_startproc
 1903              		@ args = 0, pretend = 0, frame = 8
 1904              		@ frame_needed = 0, uses_anonymous_args = 0
 1905              	.LVL181:
 1906              		.loc 1 1065 1 is_stmt 0 view .LVU620
 1907 0000 70B5     		push	{r4, r5, r6, lr}
 1908              		.cfi_def_cfa_offset 16
 1909              		.cfi_offset 4, -16
 1910              		.cfi_offset 5, -12
 1911              		.cfi_offset 6, -8
 1912              		.cfi_offset 14, -4
 1913 0002 82B0     		sub	sp, sp, #8
 1914              		.cfi_def_cfa_offset 24
 1915 0004 2AE0     		b	.L143
 1916              	.LVL182:
 1917              	.L145:
1066:..\..\..\..\..\..\Software\uCOS-III\Source/os_tmr.c ****     CPU_BOOLEAN          done;
1067:..\..\..\..\..\..\Software\uCOS-III\Source/os_tmr.c ****     OS_ERR               err;
1068:..\..\..\..\..\..\Software\uCOS-III\Source/os_tmr.c ****     OS_TMR_CALLBACK_PTR  p_fnct;
1069:..\..\..\..\..\..\Software\uCOS-III\Source/os_tmr.c ****     OS_TMR_SPOKE        *p_spoke;
1070:..\..\..\..\..\..\Software\uCOS-III\Source/os_tmr.c ****     OS_TMR              *p_tmr;
1071:..\..\..\..\..\..\Software\uCOS-III\Source/os_tmr.c ****     OS_TMR              *p_tmr_next;
1072:..\..\..\..\..\..\Software\uCOS-III\Source/os_tmr.c ****     OS_TMR_SPOKE_IX      spoke;
1073:..\..\..\..\..\..\Software\uCOS-III\Source/os_tmr.c ****     CPU_TS               ts;
1074:..\..\..\..\..\..\Software\uCOS-III\Source/os_tmr.c ****     CPU_TS               ts_start;
1075:..\..\..\..\..\..\Software\uCOS-III\Source/os_tmr.c ****     CPU_TS               ts_end;
1076:..\..\..\..\..\..\Software\uCOS-III\Source/os_tmr.c **** 
1077:..\..\..\..\..\..\Software\uCOS-III\Source/os_tmr.c **** 
1078:..\..\..\..\..\..\Software\uCOS-III\Source/os_tmr.c **** 
1079:..\..\..\..\..\..\Software\uCOS-III\Source/os_tmr.c ****     p_arg = p_arg;                                               /* Not using 'p_arg', prevent comp
1080:..\..\..\..\..\..\Software\uCOS-III\Source/os_tmr.c ****     while (DEF_ON) {
1081:..\..\..\..\..\..\Software\uCOS-III\Source/os_tmr.c ****         (void)OSTaskSemPend((OS_TICK )0,                         /* Wait for signal indicating time
1082:..\..\..\..\..\..\Software\uCOS-III\Source/os_tmr.c ****                             (OS_OPT  )OS_OPT_PEND_BLOCKING,
1083:..\..\..\..\..\..\Software\uCOS-III\Source/os_tmr.c ****                             (CPU_TS *)&ts,
1084:..\..\..\..\..\..\Software\uCOS-III\Source/os_tmr.c ****                             (OS_ERR *)&err);
1085:..\..\..\..\..\..\Software\uCOS-III\Source/os_tmr.c **** 
1086:..\..\..\..\..\..\Software\uCOS-III\Source/os_tmr.c ****         OSSchedLock(&err);
1087:..\..\..\..\..\..\Software\uCOS-III\Source/os_tmr.c ****         ts_start = OS_TS_GET();
1088:..\..\..\..\..\..\Software\uCOS-III\Source/os_tmr.c ****         OSTmrTickCtr++;                                          /* Increment the current time     
1089:..\..\..\..\..\..\Software\uCOS-III\Source/os_tmr.c ****         spoke    = (OS_TMR_SPOKE_IX)(OSTmrTickCtr % OSCfg_TmrWheelSize);
1090:..\..\..\..\..\..\Software\uCOS-III\Source/os_tmr.c ****         p_spoke  = &OSCfg_TmrWheel[spoke];
1091:..\..\..\..\..\..\Software\uCOS-III\Source/os_tmr.c ****         p_tmr    = p_spoke->FirstPtr;
1092:..\..\..\..\..\..\Software\uCOS-III\Source/os_tmr.c ****         done     = DEF_FALSE;
ARM GAS  C:\Users\EDULU~1.DES\AppData\Local\Temp\ccmSuQZN.s 			page 60


1093:..\..\..\..\..\..\Software\uCOS-III\Source/os_tmr.c ****         while (done == DEF_FALSE) {
1094:..\..\..\..\..\..\Software\uCOS-III\Source/os_tmr.c ****             if (p_tmr != (OS_TMR *)0) {
1095:..\..\..\..\..\..\Software\uCOS-III\Source/os_tmr.c ****                 p_tmr_next = (OS_TMR *)p_tmr->NextPtr;           /* Point to next tmr to update bec
1096:..\..\..\..\..\..\Software\uCOS-III\Source/os_tmr.c ****                                                                  /* ... timer could get unlinked fr
1097:..\..\..\..\..\..\Software\uCOS-III\Source/os_tmr.c ****                 if (OSTmrTickCtr == p_tmr->Match) {              /* Process each timer that expires
1098:..\..\..\..\..\..\Software\uCOS-III\Source/os_tmr.c ****                     OS_TmrUnlink(p_tmr);                         /* Remove from current wheel spoke
1099:..\..\..\..\..\..\Software\uCOS-III\Source/os_tmr.c ****                     if (p_tmr->Opt == OS_OPT_TMR_PERIODIC) {
1100:..\..\..\..\..\..\Software\uCOS-III\Source/os_tmr.c ****                         OS_TmrLink(p_tmr,
 1918              		.loc 1 1100 25 is_stmt 1 view .LVU621
 1919 0006 0121     		movs	r1, #1
 1920 0008 2000     		movs	r0, r4
 1921 000a FFF7FEFF 		bl	OS_TmrLink
 1922              	.LVL183:
 1923 000e 11E0     		b	.L140
 1924              	.LVL184:
 1925              	.L141:
1065:..\..\..\..\..\..\Software\uCOS-III\Source/os_tmr.c ****     CPU_BOOLEAN          done;
 1926              		.loc 1 1065 1 is_stmt 0 view .LVU622
 1927 0010 2C00     		movs	r4, r5
 1928              	.LVL185:
 1929              	.L137:
1094:..\..\..\..\..\..\Software\uCOS-III\Source/os_tmr.c ****                 p_tmr_next = (OS_TMR *)p_tmr->NextPtr;           /* Point to next tmr to update bec
 1930              		.loc 1 1094 13 is_stmt 1 view .LVU623
1094:..\..\..\..\..\..\Software\uCOS-III\Source/os_tmr.c ****                 p_tmr_next = (OS_TMR *)p_tmr->NextPtr;           /* Point to next tmr to update bec
 1931              		.loc 1 1094 16 is_stmt 0 view .LVU624
 1932 0012 002C     		cmp	r4, #0
 1933 0014 15D0     		beq	.L138
1095:..\..\..\..\..\..\Software\uCOS-III\Source/os_tmr.c ****                                                                  /* ... timer could get unlinked fr
 1934              		.loc 1 1095 17 is_stmt 1 view .LVU625
1095:..\..\..\..\..\..\Software\uCOS-III\Source/os_tmr.c ****                                                                  /* ... timer could get unlinked fr
 1935              		.loc 1 1095 28 is_stmt 0 view .LVU626
 1936 0016 2569     		ldr	r5, [r4, #16]
 1937              	.LVL186:
1097:..\..\..\..\..\..\Software\uCOS-III\Source/os_tmr.c ****                     OS_TmrUnlink(p_tmr);                         /* Remove from current wheel spoke
 1938              		.loc 1 1097 17 is_stmt 1 view .LVU627
1097:..\..\..\..\..\..\Software\uCOS-III\Source/os_tmr.c ****                     OS_TmrUnlink(p_tmr);                         /* Remove from current wheel spoke
 1939              		.loc 1 1097 34 is_stmt 0 view .LVU628
 1940 0018 1E4B     		ldr	r3, .L146
 1941 001a 1B68     		ldr	r3, [r3]
1097:..\..\..\..\..\..\Software\uCOS-III\Source/os_tmr.c ****                     OS_TmrUnlink(p_tmr);                         /* Remove from current wheel spoke
 1942              		.loc 1 1097 20 view .LVU629
 1943 001c A269     		ldr	r2, [r4, #24]
 1944 001e 9A42     		cmp	r2, r3
 1945 0020 0FD1     		bne	.L138
1098:..\..\..\..\..\..\Software\uCOS-III\Source/os_tmr.c ****                     if (p_tmr->Opt == OS_OPT_TMR_PERIODIC) {
 1946              		.loc 1 1098 21 is_stmt 1 view .LVU630
 1947 0022 2000     		movs	r0, r4
 1948 0024 FFF7FEFF 		bl	OS_TmrUnlink
 1949              	.LVL187:
1099:..\..\..\..\..\..\Software\uCOS-III\Source/os_tmr.c ****                         OS_TmrLink(p_tmr,
 1950              		.loc 1 1099 21 view .LVU631
1099:..\..\..\..\..\..\Software\uCOS-III\Source/os_tmr.c ****                         OS_TmrLink(p_tmr,
 1951              		.loc 1 1099 30 is_stmt 0 view .LVU632
 1952 0028 238D     		ldrh	r3, [r4, #40]
1099:..\..\..\..\..\..\Software\uCOS-III\Source/os_tmr.c ****                         OS_TmrLink(p_tmr,
 1953              		.loc 1 1099 24 view .LVU633
 1954 002a 022B     		cmp	r3, #2
ARM GAS  C:\Users\EDULU~1.DES\AppData\Local\Temp\ccmSuQZN.s 			page 61


 1955 002c EBD0     		beq	.L145
1101:..\..\..\..\..\..\Software\uCOS-III\Source/os_tmr.c ****                                    OS_OPT_LINK_PERIODIC);        /* Recalculate new position of tim
1102:..\..\..\..\..\..\Software\uCOS-III\Source/os_tmr.c ****                     } else {
1103:..\..\..\..\..\..\Software\uCOS-III\Source/os_tmr.c ****                         p_tmr->State = OS_TMR_STATE_COMPLETED;   /* Indicate that the timer has com
 1956              		.loc 1 1103 25 is_stmt 1 view .LVU634
 1957              		.loc 1 1103 38 is_stmt 0 view .LVU635
 1958 002e 2A23     		movs	r3, #42
 1959 0030 0322     		movs	r2, #3
 1960 0032 E254     		strb	r2, [r4, r3]
 1961              	.L140:
1104:..\..\..\..\..\..\Software\uCOS-III\Source/os_tmr.c ****                     }
1105:..\..\..\..\..\..\Software\uCOS-III\Source/os_tmr.c ****                     p_fnct = p_tmr->CallbackPtr;                 /* Execute callback function if av
 1962              		.loc 1 1105 21 is_stmt 1 view .LVU636
 1963              		.loc 1 1105 28 is_stmt 0 view .LVU637
 1964 0034 A368     		ldr	r3, [r4, #8]
 1965              	.LVL188:
1106:..\..\..\..\..\..\Software\uCOS-III\Source/os_tmr.c ****                     if (p_fnct != (OS_TMR_CALLBACK_PTR)0) {
 1966              		.loc 1 1106 21 is_stmt 1 view .LVU638
 1967              		.loc 1 1106 24 is_stmt 0 view .LVU639
 1968 0036 002B     		cmp	r3, #0
 1969 0038 EAD0     		beq	.L141
1107:..\..\..\..\..\..\Software\uCOS-III\Source/os_tmr.c ****                         (*p_fnct)((void *)p_tmr,
 1970              		.loc 1 1107 25 is_stmt 1 view .LVU640
 1971              		.loc 1 1107 26 is_stmt 0 view .LVU641
 1972 003a E168     		ldr	r1, [r4, #12]
 1973 003c 2000     		movs	r0, r4
 1974 003e 9847     		blx	r3
 1975              	.LVL189:
 1976              		.loc 1 1107 26 view .LVU642
 1977 0040 E6E7     		b	.L141
 1978              	.LVL190:
 1979              	.L138:
1108:..\..\..\..\..\..\Software\uCOS-III\Source/os_tmr.c ****                                   p_tmr->CallbackPtrArg);
1109:..\..\..\..\..\..\Software\uCOS-III\Source/os_tmr.c ****                     }
1110:..\..\..\..\..\..\Software\uCOS-III\Source/os_tmr.c ****                     p_tmr = p_tmr_next;                          /* See if next timer matches      
1111:..\..\..\..\..\..\Software\uCOS-III\Source/os_tmr.c ****                 } else {
1112:..\..\..\..\..\..\Software\uCOS-III\Source/os_tmr.c ****                     done  = DEF_TRUE;
1113:..\..\..\..\..\..\Software\uCOS-III\Source/os_tmr.c ****                 }
1114:..\..\..\..\..\..\Software\uCOS-III\Source/os_tmr.c ****             } else {
1115:..\..\..\..\..\..\Software\uCOS-III\Source/os_tmr.c ****                 done = DEF_TRUE;
1116:..\..\..\..\..\..\Software\uCOS-III\Source/os_tmr.c ****             }
1117:..\..\..\..\..\..\Software\uCOS-III\Source/os_tmr.c ****         }
1118:..\..\..\..\..\..\Software\uCOS-III\Source/os_tmr.c ****         ts_end = OS_TS_GET() - ts_start;                         /* Measure execution time of timer
 1980              		.loc 1 1118 9 is_stmt 1 view .LVU643
 1981              		.loc 1 1118 18 is_stmt 0 view .LVU644
 1982 0042 FFF7FEFF 		bl	CPU_TS_TmrRd
 1983              	.LVL191:
 1984              		.loc 1 1118 16 view .LVU645
 1985 0046 861B     		subs	r6, r0, r6
 1986              	.LVL192:
1119:..\..\..\..\..\..\Software\uCOS-III\Source/os_tmr.c ****         OSSchedUnlock(&err);
 1987              		.loc 1 1119 9 is_stmt 1 view .LVU646
 1988 0048 6B46     		mov	r3, sp
 1989 004a 981D     		adds	r0, r3, #6
 1990 004c FFF7FEFF 		bl	OSSchedUnlock
 1991              	.LVL193:
1120:..\..\..\..\..\..\Software\uCOS-III\Source/os_tmr.c ****         if (OSTmrTaskTimeMax < ts_end) {
ARM GAS  C:\Users\EDULU~1.DES\AppData\Local\Temp\ccmSuQZN.s 			page 62


 1992              		.loc 1 1120 9 view .LVU647
 1993              		.loc 1 1120 30 is_stmt 0 view .LVU648
 1994 0050 114B     		ldr	r3, .L146+4
 1995 0052 1B68     		ldr	r3, [r3]
 1996              		.loc 1 1120 12 view .LVU649
 1997 0054 B342     		cmp	r3, r6
 1998 0056 01D2     		bcs	.L143
1121:..\..\..\..\..\..\Software\uCOS-III\Source/os_tmr.c ****             OSTmrTaskTimeMax = ts_end;
 1999              		.loc 1 1121 13 is_stmt 1 view .LVU650
 2000              		.loc 1 1121 30 is_stmt 0 view .LVU651
 2001 0058 0F4B     		ldr	r3, .L146+4
 2002 005a 1E60     		str	r6, [r3]
 2003              	.LVL194:
 2004              	.L143:
1080:..\..\..\..\..\..\Software\uCOS-III\Source/os_tmr.c ****         (void)OSTaskSemPend((OS_TICK )0,                         /* Wait for signal indicating time
 2005              		.loc 1 1080 5 is_stmt 1 view .LVU652
1081:..\..\..\..\..\..\Software\uCOS-III\Source/os_tmr.c ****                             (OS_OPT  )OS_OPT_PEND_BLOCKING,
 2006              		.loc 1 1081 9 view .LVU653
1081:..\..\..\..\..\..\Software\uCOS-III\Source/os_tmr.c ****                             (OS_OPT  )OS_OPT_PEND_BLOCKING,
 2007              		.loc 1 1081 15 is_stmt 0 view .LVU654
 2008 005c 6B46     		mov	r3, sp
 2009 005e 0633     		adds	r3, r3, #6
 2010 0060 6A46     		mov	r2, sp
 2011 0062 0021     		movs	r1, #0
 2012 0064 0020     		movs	r0, #0
 2013 0066 FFF7FEFF 		bl	OSTaskSemPend
 2014              	.LVL195:
1086:..\..\..\..\..\..\Software\uCOS-III\Source/os_tmr.c ****         ts_start = OS_TS_GET();
 2015              		.loc 1 1086 9 is_stmt 1 view .LVU655
 2016 006a 6B46     		mov	r3, sp
 2017 006c 981D     		adds	r0, r3, #6
 2018 006e FFF7FEFF 		bl	OSSchedLock
 2019              	.LVL196:
1087:..\..\..\..\..\..\Software\uCOS-III\Source/os_tmr.c ****         OSTmrTickCtr++;                                          /* Increment the current time     
 2020              		.loc 1 1087 9 view .LVU656
1087:..\..\..\..\..\..\Software\uCOS-III\Source/os_tmr.c ****         OSTmrTickCtr++;                                          /* Increment the current time     
 2021              		.loc 1 1087 20 is_stmt 0 view .LVU657
 2022 0072 FFF7FEFF 		bl	CPU_TS_TmrRd
 2023              	.LVL197:
 2024 0076 0600     		movs	r6, r0
 2025              	.LVL198:
1088:..\..\..\..\..\..\Software\uCOS-III\Source/os_tmr.c ****         spoke    = (OS_TMR_SPOKE_IX)(OSTmrTickCtr % OSCfg_TmrWheelSize);
 2026              		.loc 1 1088 9 is_stmt 1 view .LVU658
1088:..\..\..\..\..\..\Software\uCOS-III\Source/os_tmr.c ****         spoke    = (OS_TMR_SPOKE_IX)(OSTmrTickCtr % OSCfg_TmrWheelSize);
 2027              		.loc 1 1088 21 is_stmt 0 view .LVU659
 2028 0078 064B     		ldr	r3, .L146
 2029 007a 1A68     		ldr	r2, [r3]
 2030 007c 501C     		adds	r0, r2, #1
 2031              	.LVL199:
1088:..\..\..\..\..\..\Software\uCOS-III\Source/os_tmr.c ****         spoke    = (OS_TMR_SPOKE_IX)(OSTmrTickCtr % OSCfg_TmrWheelSize);
 2032              		.loc 1 1088 21 view .LVU660
 2033 007e 1860     		str	r0, [r3]
1089:..\..\..\..\..\..\Software\uCOS-III\Source/os_tmr.c ****         p_spoke  = &OSCfg_TmrWheel[spoke];
 2034              		.loc 1 1089 9 is_stmt 1 view .LVU661
1089:..\..\..\..\..\..\Software\uCOS-III\Source/os_tmr.c ****         p_spoke  = &OSCfg_TmrWheel[spoke];
 2035              		.loc 1 1089 51 is_stmt 0 view .LVU662
 2036 0080 064B     		ldr	r3, .L146+8
ARM GAS  C:\Users\EDULU~1.DES\AppData\Local\Temp\ccmSuQZN.s 			page 63


 2037 0082 1988     		ldrh	r1, [r3]
 2038 0084 FFF7FEFF 		bl	__aeabi_uidivmod
 2039              	.LVL200:
1090:..\..\..\..\..\..\Software\uCOS-III\Source/os_tmr.c ****         p_tmr    = p_spoke->FirstPtr;
 2040              		.loc 1 1090 9 is_stmt 1 view .LVU663
1090:..\..\..\..\..\..\Software\uCOS-III\Source/os_tmr.c ****         p_tmr    = p_spoke->FirstPtr;
 2041              		.loc 1 1090 35 is_stmt 0 view .LVU664
 2042 0088 0904     		lsls	r1, r1, #16
 2043              	.LVL201:
1091:..\..\..\..\..\..\Software\uCOS-III\Source/os_tmr.c ****         done     = DEF_FALSE;
 2044              		.loc 1 1091 9 is_stmt 1 view .LVU665
1091:..\..\..\..\..\..\Software\uCOS-III\Source/os_tmr.c ****         done     = DEF_FALSE;
 2045              		.loc 1 1091 18 is_stmt 0 view .LVU666
 2046 008a 490B     		lsrs	r1, r1, #13
 2047              	.LVL202:
1091:..\..\..\..\..\..\Software\uCOS-III\Source/os_tmr.c ****         done     = DEF_FALSE;
 2048              		.loc 1 1091 18 view .LVU667
 2049 008c 044B     		ldr	r3, .L146+12
 2050 008e CC58     		ldr	r4, [r1, r3]
 2051              	.LVL203:
1092:..\..\..\..\..\..\Software\uCOS-III\Source/os_tmr.c ****         while (done == DEF_FALSE) {
 2052              		.loc 1 1092 9 is_stmt 1 view .LVU668
1093:..\..\..\..\..\..\Software\uCOS-III\Source/os_tmr.c ****             if (p_tmr != (OS_TMR *)0) {
 2053              		.loc 1 1093 9 view .LVU669
1093:..\..\..\..\..\..\Software\uCOS-III\Source/os_tmr.c ****             if (p_tmr != (OS_TMR *)0) {
 2054              		.loc 1 1093 15 is_stmt 0 view .LVU670
 2055 0090 BFE7     		b	.L137
 2056              	.L147:
 2057 0092 C046     		.align	2
 2058              	.L146:
 2059 0094 00000000 		.word	OSTmrTickCtr
 2060 0098 00000000 		.word	OSTmrTaskTimeMax
 2061 009c 00000000 		.word	OSCfg_TmrWheelSize
 2062 00a0 00000000 		.word	OSCfg_TmrWheel
 2063              		.cfi_endproc
 2064              	.LFE15:
 2065              		.size	OS_TmrTask, .-OS_TmrTask
 2066              		.section	.rodata.str1.4,"aMS",%progbits,1
 2067              		.align	2
 2068              	.LC3:
 2069 0000 3F544D52 		.ascii	"?TMR\000"
 2069      00
 2070 0005 000000   		.space	3
 2071              	.LC23:
 2072 0008 75432F4F 		.ascii	"uC/OS-III Timer Task\000"
 2072      532D4949 
 2072      49205469 
 2072      6D657220 
 2072      5461736B 
 2073              		.text
 2074              	.Letext0:
 2075              		.file 2 "..\\..\\..\\..\\..\\..\\Software\\uC-CPU\\ARM-Cortex-M0\\GNU/cpu.h"
 2076              		.file 3 "c:\\program files (x86)\\gnu tools arm embedded\\8 2018-q4-major\\arm-none-eabi\\include\
 2077              		.file 4 "c:\\program files (x86)\\gnu tools arm embedded\\8 2018-q4-major\\arm-none-eabi\\include\
 2078              		.file 5 "c:\\program files (x86)\\gnu tools arm embedded\\8 2018-q4-major\\lib\\gcc\\arm-none-eabi
 2079              		.file 6 "c:\\program files (x86)\\gnu tools arm embedded\\8 2018-q4-major\\arm-none-eabi\\include\
 2080              		.file 7 "..\\..\\..\\..\\..\\..\\Software\\uC-CPU/cpu_core.h"
ARM GAS  C:\Users\EDULU~1.DES\AppData\Local\Temp\ccmSuQZN.s 			page 64


 2081              		.file 8 "..\\..\\..\\..\\..\\..\\Software\\uCOS-III\\Source/os_type.h"
 2082              		.file 9 "..\\..\\..\\..\\..\\..\\Software\\uCOS-III\\Ports\\ARM-Cortex-M0\\Generic\\GNU/os_cpu.h"
 2083              		.file 10 "..\\..\\..\\..\\..\\..\\Software\\uCOS-III\\Source/os.h"
 2084              		.section	.debug_info,"",%progbits
 2085              	.Ldebug_info0:
 2086 0000 67240000 		.4byte	0x2467
 2087 0004 0400     		.2byte	0x4
 2088 0006 00000000 		.4byte	.Ldebug_abbrev0
 2089 000a 04       		.byte	0x4
 2090 000b 01       		.uleb128 0x1
 2091 000c 68160000 		.4byte	.LASF536
 2092 0010 0C       		.byte	0xc
 2093 0011 1E030000 		.4byte	.LASF537
 2094 0015 490C0000 		.4byte	.LASF538
 2095 0019 00000000 		.4byte	.Ldebug_ranges0+0
 2096 001d 00000000 		.4byte	0
 2097 0021 00000000 		.4byte	.Ldebug_line0
 2098 0025 02       		.uleb128 0x2
 2099 0026 4E010000 		.4byte	.LASF0
 2100 002a 02       		.byte	0x2
 2101 002b 7C       		.byte	0x7c
 2102 002c 20       		.byte	0x20
 2103 002d 31000000 		.4byte	0x31
 2104 0031 03       		.uleb128 0x3
 2105 0032 01       		.byte	0x1
 2106 0033 08       		.byte	0x8
 2107 0034 D9070000 		.4byte	.LASF2
 2108 0038 04       		.uleb128 0x4
 2109 0039 31000000 		.4byte	0x31
 2110 003d 02       		.uleb128 0x2
 2111 003e 8D000000 		.4byte	.LASF1
 2112 0042 02       		.byte	0x2
 2113 0043 7D       		.byte	0x7d
 2114 0044 20       		.byte	0x20
 2115 0045 49000000 		.4byte	0x49
 2116 0049 03       		.uleb128 0x3
 2117 004a 01       		.byte	0x1
 2118 004b 08       		.byte	0x8
 2119 004c BE060000 		.4byte	.LASF3
 2120 0050 02       		.uleb128 0x2
 2121 0051 211C0000 		.4byte	.LASF4
 2122 0055 02       		.byte	0x2
 2123 0056 7E       		.byte	0x7e
 2124 0057 20       		.byte	0x20
 2125 0058 49000000 		.4byte	0x49
 2126 005c 03       		.uleb128 0x3
 2127 005d 01       		.byte	0x1
 2128 005e 06       		.byte	0x6
 2129 005f DD050000 		.4byte	.LASF5
 2130 0063 02       		.uleb128 0x2
 2131 0064 8F010000 		.4byte	.LASF6
 2132 0068 02       		.byte	0x2
 2133 0069 80       		.byte	0x80
 2134 006a 20       		.byte	0x20
 2135 006b 6F000000 		.4byte	0x6f
 2136 006f 03       		.uleb128 0x3
 2137 0070 02       		.byte	0x2
ARM GAS  C:\Users\EDULU~1.DES\AppData\Local\Temp\ccmSuQZN.s 			page 65


 2138 0071 07       		.byte	0x7
 2139 0072 521D0000 		.4byte	.LASF7
 2140 0076 03       		.uleb128 0x3
 2141 0077 02       		.byte	0x2
 2142 0078 05       		.byte	0x5
 2143 0079 F3190000 		.4byte	.LASF8
 2144 007d 02       		.uleb128 0x2
 2145 007e 5A090000 		.4byte	.LASF9
 2146 0082 02       		.byte	0x2
 2147 0083 82       		.byte	0x82
 2148 0084 20       		.byte	0x20
 2149 0085 8E000000 		.4byte	0x8e
 2150 0089 04       		.uleb128 0x4
 2151 008a 7D000000 		.4byte	0x7d
 2152 008e 03       		.uleb128 0x3
 2153 008f 04       		.byte	0x4
 2154 0090 07       		.byte	0x7
 2155 0091 83110000 		.4byte	.LASF10
 2156 0095 05       		.uleb128 0x5
 2157 0096 04       		.byte	0x4
 2158 0097 05       		.byte	0x5
 2159 0098 696E7400 		.ascii	"int\000"
 2160 009c 03       		.uleb128 0x3
 2161 009d 08       		.byte	0x8
 2162 009e 07       		.byte	0x7
 2163 009f 39150000 		.4byte	.LASF11
 2164 00a3 03       		.uleb128 0x3
 2165 00a4 08       		.byte	0x8
 2166 00a5 05       		.byte	0x5
 2167 00a6 840F0000 		.4byte	.LASF12
 2168 00aa 03       		.uleb128 0x3
 2169 00ab 04       		.byte	0x4
 2170 00ac 04       		.byte	0x4
 2171 00ad FA100000 		.4byte	.LASF13
 2172 00b1 03       		.uleb128 0x3
 2173 00b2 08       		.byte	0x8
 2174 00b3 04       		.byte	0x4
 2175 00b4 FB0F0000 		.4byte	.LASF14
 2176 00b8 06       		.uleb128 0x6
 2177 00b9 04       		.byte	0x4
 2178 00ba BE000000 		.4byte	0xbe
 2179 00be 07       		.uleb128 0x7
 2180 00bf 06       		.uleb128 0x6
 2181 00c0 04       		.byte	0x4
 2182 00c1 C5000000 		.4byte	0xc5
 2183 00c5 08       		.uleb128 0x8
 2184 00c6 D0000000 		.4byte	0xd0
 2185 00ca 09       		.uleb128 0x9
 2186 00cb D0000000 		.4byte	0xd0
 2187 00cf 00       		.byte	0
 2188 00d0 0A       		.uleb128 0xa
 2189 00d1 04       		.byte	0x4
 2190 00d2 02       		.uleb128 0x2
 2191 00d3 D4090000 		.4byte	.LASF15
 2192 00d7 02       		.byte	0x2
 2193 00d8 BA       		.byte	0xba
 2194 00d9 16       		.byte	0x16
ARM GAS  C:\Users\EDULU~1.DES\AppData\Local\Temp\ccmSuQZN.s 			page 66


 2195 00da 7D000000 		.4byte	0x7d
 2196 00de 02       		.uleb128 0x2
 2197 00df E9170000 		.4byte	.LASF16
 2198 00e3 02       		.byte	0x2
 2199 00e4 C3       		.byte	0xc3
 2200 00e5 16       		.byte	0x16
 2201 00e6 7D000000 		.4byte	0x7d
 2202 00ea 02       		.uleb128 0x2
 2203 00eb A3020000 		.4byte	.LASF17
 2204 00ef 02       		.byte	0x2
 2205 00f0 E5       		.byte	0xe5
 2206 00f1 23       		.byte	0x23
 2207 00f2 7D000000 		.4byte	0x7d
 2208 00f6 02       		.uleb128 0x2
 2209 00f7 2B110000 		.4byte	.LASF18
 2210 00fb 02       		.byte	0x2
 2211 00fc E6       		.byte	0xe6
 2212 00fd 23       		.byte	0x23
 2213 00fe D2000000 		.4byte	0xd2
 2214 0102 04       		.uleb128 0x4
 2215 0103 F6000000 		.4byte	0xf6
 2216 0107 0B       		.uleb128 0xb
 2217 0108 FC040000 		.4byte	.LASF19
 2218 010c 02       		.byte	0x2
 2219 010d 3301     		.2byte	0x133
 2220 010f 25       		.byte	0x25
 2221 0110 7D000000 		.4byte	0x7d
 2222 0114 03       		.uleb128 0x3
 2223 0115 04       		.byte	0x4
 2224 0116 05       		.byte	0x5
 2225 0117 89040000 		.4byte	.LASF20
 2226 011b 03       		.uleb128 0x3
 2227 011c 04       		.byte	0x4
 2228 011d 07       		.byte	0x7
 2229 011e 3A0D0000 		.4byte	.LASF21
 2230 0122 03       		.uleb128 0x3
 2231 0123 08       		.byte	0x8
 2232 0124 04       		.byte	0x4
 2233 0125 C6130000 		.4byte	.LASF22
 2234 0129 02       		.uleb128 0x2
 2235 012a 501B0000 		.4byte	.LASF23
 2236 012e 03       		.byte	0x3
 2237 012f 22       		.byte	0x22
 2238 0130 19       		.byte	0x19
 2239 0131 35010000 		.4byte	0x135
 2240 0135 06       		.uleb128 0x6
 2241 0136 04       		.byte	0x4
 2242 0137 3B010000 		.4byte	0x13b
 2243 013b 0C       		.uleb128 0xc
 2244 013c 670B0000 		.4byte	.LASF129
 2245 0140 02       		.uleb128 0x2
 2246 0141 DF1C0000 		.4byte	.LASF24
 2247 0145 04       		.byte	0x4
 2248 0146 2C       		.byte	0x2c
 2249 0147 0E       		.byte	0xe
 2250 0148 14010000 		.4byte	0x114
 2251 014c 02       		.uleb128 0x2
ARM GAS  C:\Users\EDULU~1.DES\AppData\Local\Temp\ccmSuQZN.s 			page 67


 2252 014d 6C140000 		.4byte	.LASF25
 2253 0151 04       		.byte	0x4
 2254 0152 72       		.byte	0x72
 2255 0153 0E       		.byte	0xe
 2256 0154 14010000 		.4byte	0x114
 2257 0158 0B       		.uleb128 0xb
 2258 0159 49180000 		.4byte	.LASF26
 2259 015d 05       		.byte	0x5
 2260 015e 6501     		.2byte	0x165
 2261 0160 17       		.byte	0x17
 2262 0161 8E000000 		.4byte	0x8e
 2263 0165 0D       		.uleb128 0xd
 2264 0166 04       		.byte	0x4
 2265 0167 04       		.byte	0x4
 2266 0168 A6       		.byte	0xa6
 2267 0169 03       		.byte	0x3
 2268 016a 87010000 		.4byte	0x187
 2269 016e 0E       		.uleb128 0xe
 2270 016f BC030000 		.4byte	.LASF27
 2271 0173 04       		.byte	0x4
 2272 0174 A8       		.byte	0xa8
 2273 0175 0C       		.byte	0xc
 2274 0176 58010000 		.4byte	0x158
 2275 017a 0E       		.uleb128 0xe
 2276 017b 8A140000 		.4byte	.LASF28
 2277 017f 04       		.byte	0x4
 2278 0180 A9       		.byte	0xa9
 2279 0181 13       		.byte	0x13
 2280 0182 87010000 		.4byte	0x187
 2281 0186 00       		.byte	0
 2282 0187 0F       		.uleb128 0xf
 2283 0188 49000000 		.4byte	0x49
 2284 018c 97010000 		.4byte	0x197
 2285 0190 10       		.uleb128 0x10
 2286 0191 8E000000 		.4byte	0x8e
 2287 0195 03       		.byte	0x3
 2288 0196 00       		.byte	0
 2289 0197 11       		.uleb128 0x11
 2290 0198 08       		.byte	0x8
 2291 0199 04       		.byte	0x4
 2292 019a A3       		.byte	0xa3
 2293 019b 09       		.byte	0x9
 2294 019c BB010000 		.4byte	0x1bb
 2295 01a0 12       		.uleb128 0x12
 2296 01a1 22130000 		.4byte	.LASF29
 2297 01a5 04       		.byte	0x4
 2298 01a6 A5       		.byte	0xa5
 2299 01a7 07       		.byte	0x7
 2300 01a8 95000000 		.4byte	0x95
 2301 01ac 00       		.byte	0
 2302 01ad 12       		.uleb128 0x12
 2303 01ae 85000000 		.4byte	.LASF30
 2304 01b2 04       		.byte	0x4
 2305 01b3 AA       		.byte	0xaa
 2306 01b4 05       		.byte	0x5
 2307 01b5 65010000 		.4byte	0x165
 2308 01b9 04       		.byte	0x4
ARM GAS  C:\Users\EDULU~1.DES\AppData\Local\Temp\ccmSuQZN.s 			page 68


 2309 01ba 00       		.byte	0
 2310 01bb 02       		.uleb128 0x2
 2311 01bc F2170000 		.4byte	.LASF31
 2312 01c0 04       		.byte	0x4
 2313 01c1 AB       		.byte	0xab
 2314 01c2 03       		.byte	0x3
 2315 01c3 97010000 		.4byte	0x197
 2316 01c7 02       		.uleb128 0x2
 2317 01c8 96170000 		.4byte	.LASF32
 2318 01cc 04       		.byte	0x4
 2319 01cd AF       		.byte	0xaf
 2320 01ce 1B       		.byte	0x1b
 2321 01cf 29010000 		.4byte	0x129
 2322 01d3 02       		.uleb128 0x2
 2323 01d4 191C0000 		.4byte	.LASF33
 2324 01d8 06       		.byte	0x6
 2325 01d9 16       		.byte	0x16
 2326 01da 19       		.byte	0x19
 2327 01db 1B010000 		.4byte	0x11b
 2328 01df 13       		.uleb128 0x13
 2329 01e0 BB0E0000 		.4byte	.LASF38
 2330 01e4 18       		.byte	0x18
 2331 01e5 06       		.byte	0x6
 2332 01e6 2F       		.byte	0x2f
 2333 01e7 08       		.byte	0x8
 2334 01e8 39020000 		.4byte	0x239
 2335 01ec 12       		.uleb128 0x12
 2336 01ed 62180000 		.4byte	.LASF34
 2337 01f1 06       		.byte	0x6
 2338 01f2 31       		.byte	0x31
 2339 01f3 13       		.byte	0x13
 2340 01f4 39020000 		.4byte	0x239
 2341 01f8 00       		.byte	0
 2342 01f9 14       		.uleb128 0x14
 2343 01fa 5F6B00   		.ascii	"_k\000"
 2344 01fd 06       		.byte	0x6
 2345 01fe 32       		.byte	0x32
 2346 01ff 07       		.byte	0x7
 2347 0200 95000000 		.4byte	0x95
 2348 0204 04       		.byte	0x4
 2349 0205 12       		.uleb128 0x12
 2350 0206 E90E0000 		.4byte	.LASF35
 2351 020a 06       		.byte	0x6
 2352 020b 32       		.byte	0x32
 2353 020c 0B       		.byte	0xb
 2354 020d 95000000 		.4byte	0x95
 2355 0211 08       		.byte	0x8
 2356 0212 12       		.uleb128 0x12
 2357 0213 D2100000 		.4byte	.LASF36
 2358 0217 06       		.byte	0x6
 2359 0218 32       		.byte	0x32
 2360 0219 14       		.byte	0x14
 2361 021a 95000000 		.4byte	0x95
 2362 021e 0C       		.byte	0xc
 2363 021f 12       		.uleb128 0x12
 2364 0220 450B0000 		.4byte	.LASF37
 2365 0224 06       		.byte	0x6
ARM GAS  C:\Users\EDULU~1.DES\AppData\Local\Temp\ccmSuQZN.s 			page 69


 2366 0225 32       		.byte	0x32
 2367 0226 1B       		.byte	0x1b
 2368 0227 95000000 		.4byte	0x95
 2369 022b 10       		.byte	0x10
 2370 022c 14       		.uleb128 0x14
 2371 022d 5F7800   		.ascii	"_x\000"
 2372 0230 06       		.byte	0x6
 2373 0231 33       		.byte	0x33
 2374 0232 0B       		.byte	0xb
 2375 0233 3F020000 		.4byte	0x23f
 2376 0237 14       		.byte	0x14
 2377 0238 00       		.byte	0
 2378 0239 06       		.uleb128 0x6
 2379 023a 04       		.byte	0x4
 2380 023b DF010000 		.4byte	0x1df
 2381 023f 0F       		.uleb128 0xf
 2382 0240 D3010000 		.4byte	0x1d3
 2383 0244 4F020000 		.4byte	0x24f
 2384 0248 10       		.uleb128 0x10
 2385 0249 8E000000 		.4byte	0x8e
 2386 024d 00       		.byte	0
 2387 024e 00       		.byte	0
 2388 024f 13       		.uleb128 0x13
 2389 0250 E7010000 		.4byte	.LASF39
 2390 0254 24       		.byte	0x24
 2391 0255 06       		.byte	0x6
 2392 0256 37       		.byte	0x37
 2393 0257 08       		.byte	0x8
 2394 0258 D2020000 		.4byte	0x2d2
 2395 025c 12       		.uleb128 0x12
 2396 025d 03020000 		.4byte	.LASF40
 2397 0261 06       		.byte	0x6
 2398 0262 39       		.byte	0x39
 2399 0263 09       		.byte	0x9
 2400 0264 95000000 		.4byte	0x95
 2401 0268 00       		.byte	0
 2402 0269 12       		.uleb128 0x12
 2403 026a DC1E0000 		.4byte	.LASF41
 2404 026e 06       		.byte	0x6
 2405 026f 3A       		.byte	0x3a
 2406 0270 09       		.byte	0x9
 2407 0271 95000000 		.4byte	0x95
 2408 0275 04       		.byte	0x4
 2409 0276 12       		.uleb128 0x12
 2410 0277 651D0000 		.4byte	.LASF42
 2411 027b 06       		.byte	0x6
 2412 027c 3B       		.byte	0x3b
 2413 027d 09       		.byte	0x9
 2414 027e 95000000 		.4byte	0x95
 2415 0282 08       		.byte	0x8
 2416 0283 12       		.uleb128 0x12
 2417 0284 13120000 		.4byte	.LASF43
 2418 0288 06       		.byte	0x6
 2419 0289 3C       		.byte	0x3c
 2420 028a 09       		.byte	0x9
 2421 028b 95000000 		.4byte	0x95
 2422 028f 0C       		.byte	0xc
ARM GAS  C:\Users\EDULU~1.DES\AppData\Local\Temp\ccmSuQZN.s 			page 70


 2423 0290 12       		.uleb128 0x12
 2424 0291 2B050000 		.4byte	.LASF44
 2425 0295 06       		.byte	0x6
 2426 0296 3D       		.byte	0x3d
 2427 0297 09       		.byte	0x9
 2428 0298 95000000 		.4byte	0x95
 2429 029c 10       		.byte	0x10
 2430 029d 12       		.uleb128 0x12
 2431 029e 5C1A0000 		.4byte	.LASF45
 2432 02a2 06       		.byte	0x6
 2433 02a3 3E       		.byte	0x3e
 2434 02a4 09       		.byte	0x9
 2435 02a5 95000000 		.4byte	0x95
 2436 02a9 14       		.byte	0x14
 2437 02aa 12       		.uleb128 0x12
 2438 02ab 91130000 		.4byte	.LASF46
 2439 02af 06       		.byte	0x6
 2440 02b0 3F       		.byte	0x3f
 2441 02b1 09       		.byte	0x9
 2442 02b2 95000000 		.4byte	0x95
 2443 02b6 18       		.byte	0x18
 2444 02b7 12       		.uleb128 0x12
 2445 02b8 D2130000 		.4byte	.LASF47
 2446 02bc 06       		.byte	0x6
 2447 02bd 40       		.byte	0x40
 2448 02be 09       		.byte	0x9
 2449 02bf 95000000 		.4byte	0x95
 2450 02c3 1C       		.byte	0x1c
 2451 02c4 12       		.uleb128 0x12
 2452 02c5 A11E0000 		.4byte	.LASF48
 2453 02c9 06       		.byte	0x6
 2454 02ca 41       		.byte	0x41
 2455 02cb 09       		.byte	0x9
 2456 02cc 95000000 		.4byte	0x95
 2457 02d0 20       		.byte	0x20
 2458 02d1 00       		.byte	0
 2459 02d2 15       		.uleb128 0x15
 2460 02d3 21040000 		.4byte	.LASF49
 2461 02d7 0801     		.2byte	0x108
 2462 02d9 06       		.byte	0x6
 2463 02da 4A       		.byte	0x4a
 2464 02db 08       		.byte	0x8
 2465 02dc 17030000 		.4byte	0x317
 2466 02e0 12       		.uleb128 0x12
 2467 02e1 901E0000 		.4byte	.LASF50
 2468 02e5 06       		.byte	0x6
 2469 02e6 4B       		.byte	0x4b
 2470 02e7 0A       		.byte	0xa
 2471 02e8 17030000 		.4byte	0x317
 2472 02ec 00       		.byte	0
 2473 02ed 12       		.uleb128 0x12
 2474 02ee C4150000 		.4byte	.LASF51
 2475 02f2 06       		.byte	0x6
 2476 02f3 4C       		.byte	0x4c
 2477 02f4 09       		.byte	0x9
 2478 02f5 17030000 		.4byte	0x317
 2479 02f9 80       		.byte	0x80
ARM GAS  C:\Users\EDULU~1.DES\AppData\Local\Temp\ccmSuQZN.s 			page 71


 2480 02fa 16       		.uleb128 0x16
 2481 02fb 491A0000 		.4byte	.LASF52
 2482 02ff 06       		.byte	0x6
 2483 0300 4E       		.byte	0x4e
 2484 0301 0A       		.byte	0xa
 2485 0302 D3010000 		.4byte	0x1d3
 2486 0306 0001     		.2byte	0x100
 2487 0308 16       		.uleb128 0x16
 2488 0309 481B0000 		.4byte	.LASF53
 2489 030d 06       		.byte	0x6
 2490 030e 51       		.byte	0x51
 2491 030f 0A       		.byte	0xa
 2492 0310 D3010000 		.4byte	0x1d3
 2493 0314 0401     		.2byte	0x104
 2494 0316 00       		.byte	0
 2495 0317 0F       		.uleb128 0xf
 2496 0318 D0000000 		.4byte	0xd0
 2497 031c 27030000 		.4byte	0x327
 2498 0320 10       		.uleb128 0x10
 2499 0321 8E000000 		.4byte	0x8e
 2500 0325 1F       		.byte	0x1f
 2501 0326 00       		.byte	0
 2502 0327 15       		.uleb128 0x15
 2503 0328 EE120000 		.4byte	.LASF54
 2504 032c 9001     		.2byte	0x190
 2505 032e 06       		.byte	0x6
 2506 032f 5D       		.byte	0x5d
 2507 0330 08       		.byte	0x8
 2508 0331 6A030000 		.4byte	0x36a
 2509 0335 12       		.uleb128 0x12
 2510 0336 62180000 		.4byte	.LASF34
 2511 033a 06       		.byte	0x6
 2512 033b 5E       		.byte	0x5e
 2513 033c 12       		.byte	0x12
 2514 033d 6A030000 		.4byte	0x36a
 2515 0341 00       		.byte	0
 2516 0342 12       		.uleb128 0x12
 2517 0343 101B0000 		.4byte	.LASF55
 2518 0347 06       		.byte	0x6
 2519 0348 5F       		.byte	0x5f
 2520 0349 06       		.byte	0x6
 2521 034a 95000000 		.4byte	0x95
 2522 034e 04       		.byte	0x4
 2523 034f 12       		.uleb128 0x12
 2524 0350 F0070000 		.4byte	.LASF56
 2525 0354 06       		.byte	0x6
 2526 0355 61       		.byte	0x61
 2527 0356 09       		.byte	0x9
 2528 0357 70030000 		.4byte	0x370
 2529 035b 08       		.byte	0x8
 2530 035c 12       		.uleb128 0x12
 2531 035d 21040000 		.4byte	.LASF49
 2532 0361 06       		.byte	0x6
 2533 0362 62       		.byte	0x62
 2534 0363 1E       		.byte	0x1e
 2535 0364 D2020000 		.4byte	0x2d2
 2536 0368 88       		.byte	0x88
ARM GAS  C:\Users\EDULU~1.DES\AppData\Local\Temp\ccmSuQZN.s 			page 72


 2537 0369 00       		.byte	0
 2538 036a 06       		.uleb128 0x6
 2539 036b 04       		.byte	0x4
 2540 036c 27030000 		.4byte	0x327
 2541 0370 0F       		.uleb128 0xf
 2542 0371 B8000000 		.4byte	0xb8
 2543 0375 80030000 		.4byte	0x380
 2544 0379 10       		.uleb128 0x10
 2545 037a 8E000000 		.4byte	0x8e
 2546 037e 1F       		.byte	0x1f
 2547 037f 00       		.byte	0
 2548 0380 13       		.uleb128 0x13
 2549 0381 411B0000 		.4byte	.LASF57
 2550 0385 08       		.byte	0x8
 2551 0386 06       		.byte	0x6
 2552 0387 75       		.byte	0x75
 2553 0388 08       		.byte	0x8
 2554 0389 A8030000 		.4byte	0x3a8
 2555 038d 12       		.uleb128 0x12
 2556 038e 65170000 		.4byte	.LASF58
 2557 0392 06       		.byte	0x6
 2558 0393 76       		.byte	0x76
 2559 0394 11       		.byte	0x11
 2560 0395 A8030000 		.4byte	0x3a8
 2561 0399 00       		.byte	0
 2562 039a 12       		.uleb128 0x12
 2563 039b D9040000 		.4byte	.LASF59
 2564 039f 06       		.byte	0x6
 2565 03a0 77       		.byte	0x77
 2566 03a1 06       		.byte	0x6
 2567 03a2 95000000 		.4byte	0x95
 2568 03a6 04       		.byte	0x4
 2569 03a7 00       		.byte	0
 2570 03a8 06       		.uleb128 0x6
 2571 03a9 04       		.byte	0x4
 2572 03aa 49000000 		.4byte	0x49
 2573 03ae 13       		.uleb128 0x13
 2574 03af BD0D0000 		.4byte	.LASF60
 2575 03b3 68       		.byte	0x68
 2576 03b4 06       		.byte	0x6
 2577 03b5 B5       		.byte	0xb5
 2578 03b6 08       		.byte	0x8
 2579 03b7 F1040000 		.4byte	0x4f1
 2580 03bb 14       		.uleb128 0x14
 2581 03bc 5F7000   		.ascii	"_p\000"
 2582 03bf 06       		.byte	0x6
 2583 03c0 B6       		.byte	0xb6
 2584 03c1 12       		.byte	0x12
 2585 03c2 A8030000 		.4byte	0x3a8
 2586 03c6 00       		.byte	0
 2587 03c7 14       		.uleb128 0x14
 2588 03c8 5F7200   		.ascii	"_r\000"
 2589 03cb 06       		.byte	0x6
 2590 03cc B7       		.byte	0xb7
 2591 03cd 07       		.byte	0x7
 2592 03ce 95000000 		.4byte	0x95
 2593 03d2 04       		.byte	0x4
ARM GAS  C:\Users\EDULU~1.DES\AppData\Local\Temp\ccmSuQZN.s 			page 73


 2594 03d3 14       		.uleb128 0x14
 2595 03d4 5F7700   		.ascii	"_w\000"
 2596 03d7 06       		.byte	0x6
 2597 03d8 B8       		.byte	0xb8
 2598 03d9 07       		.byte	0x7
 2599 03da 95000000 		.4byte	0x95
 2600 03de 08       		.byte	0x8
 2601 03df 12       		.uleb128 0x12
 2602 03e0 BF120000 		.4byte	.LASF61
 2603 03e4 06       		.byte	0x6
 2604 03e5 B9       		.byte	0xb9
 2605 03e6 09       		.byte	0x9
 2606 03e7 76000000 		.4byte	0x76
 2607 03eb 0C       		.byte	0xc
 2608 03ec 12       		.uleb128 0x12
 2609 03ed 03040000 		.4byte	.LASF62
 2610 03f1 06       		.byte	0x6
 2611 03f2 BA       		.byte	0xba
 2612 03f3 09       		.byte	0x9
 2613 03f4 76000000 		.4byte	0x76
 2614 03f8 0E       		.byte	0xe
 2615 03f9 14       		.uleb128 0x14
 2616 03fa 5F626600 		.ascii	"_bf\000"
 2617 03fe 06       		.byte	0x6
 2618 03ff BB       		.byte	0xbb
 2619 0400 11       		.byte	0x11
 2620 0401 80030000 		.4byte	0x380
 2621 0405 10       		.byte	0x10
 2622 0406 12       		.uleb128 0x12
 2623 0407 F71A0000 		.4byte	.LASF63
 2624 040b 06       		.byte	0x6
 2625 040c BC       		.byte	0xbc
 2626 040d 07       		.byte	0x7
 2627 040e 95000000 		.4byte	0x95
 2628 0412 18       		.byte	0x18
 2629 0413 12       		.uleb128 0x12
 2630 0414 1C0B0000 		.4byte	.LASF64
 2631 0418 06       		.byte	0x6
 2632 0419 C3       		.byte	0xc3
 2633 041a 0A       		.byte	0xa
 2634 041b D0000000 		.4byte	0xd0
 2635 041f 1C       		.byte	0x1c
 2636 0420 12       		.uleb128 0x12
 2637 0421 B3000000 		.4byte	.LASF65
 2638 0425 06       		.byte	0x6
 2639 0426 C5       		.byte	0xc5
 2640 0427 1D       		.byte	0x1d
 2641 0428 69060000 		.4byte	0x669
 2642 042c 20       		.byte	0x20
 2643 042d 12       		.uleb128 0x12
 2644 042e 01010000 		.4byte	.LASF66
 2645 0432 06       		.byte	0x6
 2646 0433 C7       		.byte	0xc7
 2647 0434 1D       		.byte	0x1d
 2648 0435 93060000 		.4byte	0x693
 2649 0439 24       		.byte	0x24
 2650 043a 12       		.uleb128 0x12
ARM GAS  C:\Users\EDULU~1.DES\AppData\Local\Temp\ccmSuQZN.s 			page 74


 2651 043b 1F140000 		.4byte	.LASF67
 2652 043f 06       		.byte	0x6
 2653 0440 CA       		.byte	0xca
 2654 0441 0D       		.byte	0xd
 2655 0442 B7060000 		.4byte	0x6b7
 2656 0446 28       		.byte	0x28
 2657 0447 12       		.uleb128 0x12
 2658 0448 2A080000 		.4byte	.LASF68
 2659 044c 06       		.byte	0x6
 2660 044d CB       		.byte	0xcb
 2661 044e 09       		.byte	0x9
 2662 044f D1060000 		.4byte	0x6d1
 2663 0453 2C       		.byte	0x2c
 2664 0454 14       		.uleb128 0x14
 2665 0455 5F756200 		.ascii	"_ub\000"
 2666 0459 06       		.byte	0x6
 2667 045a CE       		.byte	0xce
 2668 045b 11       		.byte	0x11
 2669 045c 80030000 		.4byte	0x380
 2670 0460 30       		.byte	0x30
 2671 0461 14       		.uleb128 0x14
 2672 0462 5F757000 		.ascii	"_up\000"
 2673 0466 06       		.byte	0x6
 2674 0467 CF       		.byte	0xcf
 2675 0468 12       		.byte	0x12
 2676 0469 A8030000 		.4byte	0x3a8
 2677 046d 38       		.byte	0x38
 2678 046e 14       		.uleb128 0x14
 2679 046f 5F757200 		.ascii	"_ur\000"
 2680 0473 06       		.byte	0x6
 2681 0474 D0       		.byte	0xd0
 2682 0475 07       		.byte	0x7
 2683 0476 95000000 		.4byte	0x95
 2684 047a 3C       		.byte	0x3c
 2685 047b 12       		.uleb128 0x12
 2686 047c 2E120000 		.4byte	.LASF69
 2687 0480 06       		.byte	0x6
 2688 0481 D3       		.byte	0xd3
 2689 0482 11       		.byte	0x11
 2690 0483 D7060000 		.4byte	0x6d7
 2691 0487 40       		.byte	0x40
 2692 0488 12       		.uleb128 0x12
 2693 0489 FD010000 		.4byte	.LASF70
 2694 048d 06       		.byte	0x6
 2695 048e D4       		.byte	0xd4
 2696 048f 11       		.byte	0x11
 2697 0490 E7060000 		.4byte	0x6e7
 2698 0494 43       		.byte	0x43
 2699 0495 14       		.uleb128 0x14
 2700 0496 5F6C6200 		.ascii	"_lb\000"
 2701 049a 06       		.byte	0x6
 2702 049b D7       		.byte	0xd7
 2703 049c 11       		.byte	0x11
 2704 049d 80030000 		.4byte	0x380
 2705 04a1 44       		.byte	0x44
 2706 04a2 12       		.uleb128 0x12
 2707 04a3 54160000 		.4byte	.LASF71
ARM GAS  C:\Users\EDULU~1.DES\AppData\Local\Temp\ccmSuQZN.s 			page 75


 2708 04a7 06       		.byte	0x6
 2709 04a8 DA       		.byte	0xda
 2710 04a9 07       		.byte	0x7
 2711 04aa 95000000 		.4byte	0x95
 2712 04ae 4C       		.byte	0x4c
 2713 04af 12       		.uleb128 0x12
 2714 04b0 B20B0000 		.4byte	.LASF72
 2715 04b4 06       		.byte	0x6
 2716 04b5 DB       		.byte	0xdb
 2717 04b6 0A       		.byte	0xa
 2718 04b7 40010000 		.4byte	0x140
 2719 04bb 50       		.byte	0x50
 2720 04bc 12       		.uleb128 0x12
 2721 04bd 68180000 		.4byte	.LASF73
 2722 04c1 06       		.byte	0x6
 2723 04c2 DE       		.byte	0xde
 2724 04c3 12       		.byte	0x12
 2725 04c4 0F050000 		.4byte	0x50f
 2726 04c8 54       		.byte	0x54
 2727 04c9 12       		.uleb128 0x12
 2728 04ca 8D020000 		.4byte	.LASF74
 2729 04ce 06       		.byte	0x6
 2730 04cf E2       		.byte	0xe2
 2731 04d0 0C       		.byte	0xc
 2732 04d1 C7010000 		.4byte	0x1c7
 2733 04d5 58       		.byte	0x58
 2734 04d6 12       		.uleb128 0x12
 2735 04d7 84120000 		.4byte	.LASF75
 2736 04db 06       		.byte	0x6
 2737 04dc E4       		.byte	0xe4
 2738 04dd 0E       		.byte	0xe
 2739 04de BB010000 		.4byte	0x1bb
 2740 04e2 5C       		.byte	0x5c
 2741 04e3 12       		.uleb128 0x12
 2742 04e4 D00D0000 		.4byte	.LASF76
 2743 04e8 06       		.byte	0x6
 2744 04e9 E5       		.byte	0xe5
 2745 04ea 09       		.byte	0x9
 2746 04eb 95000000 		.4byte	0x95
 2747 04ef 64       		.byte	0x64
 2748 04f0 00       		.byte	0
 2749 04f1 17       		.uleb128 0x17
 2750 04f2 95000000 		.4byte	0x95
 2751 04f6 0F050000 		.4byte	0x50f
 2752 04fa 09       		.uleb128 0x9
 2753 04fb 0F050000 		.4byte	0x50f
 2754 04ff 09       		.uleb128 0x9
 2755 0500 D0000000 		.4byte	0xd0
 2756 0504 09       		.uleb128 0x9
 2757 0505 63060000 		.4byte	0x663
 2758 0509 09       		.uleb128 0x9
 2759 050a 95000000 		.4byte	0x95
 2760 050e 00       		.byte	0
 2761 050f 06       		.uleb128 0x6
 2762 0510 04       		.byte	0x4
 2763 0511 1A050000 		.4byte	0x51a
 2764 0515 04       		.uleb128 0x4
ARM GAS  C:\Users\EDULU~1.DES\AppData\Local\Temp\ccmSuQZN.s 			page 76


 2765 0516 0F050000 		.4byte	0x50f
 2766 051a 18       		.uleb128 0x18
 2767 051b 3C070000 		.4byte	.LASF77
 2768 051f 2804     		.2byte	0x428
 2769 0521 06       		.byte	0x6
 2770 0522 6002     		.2byte	0x260
 2771 0524 08       		.byte	0x8
 2772 0525 63060000 		.4byte	0x663
 2773 0529 19       		.uleb128 0x19
 2774 052a 640E0000 		.4byte	.LASF78
 2775 052e 06       		.byte	0x6
 2776 052f 6202     		.2byte	0x262
 2777 0531 07       		.byte	0x7
 2778 0532 95000000 		.4byte	0x95
 2779 0536 00       		.byte	0
 2780 0537 19       		.uleb128 0x19
 2781 0538 BA080000 		.4byte	.LASF79
 2782 053c 06       		.byte	0x6
 2783 053d 6702     		.2byte	0x267
 2784 053f 0B       		.byte	0xb
 2785 0540 43070000 		.4byte	0x743
 2786 0544 04       		.byte	0x4
 2787 0545 19       		.uleb128 0x19
 2788 0546 00160000 		.4byte	.LASF80
 2789 054a 06       		.byte	0x6
 2790 054b 6702     		.2byte	0x267
 2791 054d 14       		.byte	0x14
 2792 054e 43070000 		.4byte	0x743
 2793 0552 08       		.byte	0x8
 2794 0553 19       		.uleb128 0x19
 2795 0554 4D120000 		.4byte	.LASF81
 2796 0558 06       		.byte	0x6
 2797 0559 6702     		.2byte	0x267
 2798 055b 1E       		.byte	0x1e
 2799 055c 43070000 		.4byte	0x743
 2800 0560 0C       		.byte	0xc
 2801 0561 19       		.uleb128 0x19
 2802 0562 0B1B0000 		.4byte	.LASF82
 2803 0566 06       		.byte	0x6
 2804 0567 6902     		.2byte	0x269
 2805 0569 08       		.byte	0x8
 2806 056a 95000000 		.4byte	0x95
 2807 056e 10       		.byte	0x10
 2808 056f 19       		.uleb128 0x19
 2809 0570 790F0000 		.4byte	.LASF83
 2810 0574 06       		.byte	0x6
 2811 0575 6A02     		.2byte	0x26a
 2812 0577 08       		.byte	0x8
 2813 0578 43090000 		.4byte	0x943
 2814 057c 14       		.byte	0x14
 2815 057d 19       		.uleb128 0x19
 2816 057e 23070000 		.4byte	.LASF84
 2817 0582 06       		.byte	0x6
 2818 0583 6D02     		.2byte	0x26d
 2819 0585 07       		.byte	0x7
 2820 0586 95000000 		.4byte	0x95
 2821 058a 30       		.byte	0x30
ARM GAS  C:\Users\EDULU~1.DES\AppData\Local\Temp\ccmSuQZN.s 			page 77


 2822 058b 19       		.uleb128 0x19
 2823 058c 111C0000 		.4byte	.LASF85
 2824 0590 06       		.byte	0x6
 2825 0591 6E02     		.2byte	0x26e
 2826 0593 16       		.byte	0x16
 2827 0594 58090000 		.4byte	0x958
 2828 0598 34       		.byte	0x34
 2829 0599 19       		.uleb128 0x19
 2830 059a C50D0000 		.4byte	.LASF86
 2831 059e 06       		.byte	0x6
 2832 059f 7002     		.2byte	0x270
 2833 05a1 07       		.byte	0x7
 2834 05a2 95000000 		.4byte	0x95
 2835 05a6 38       		.byte	0x38
 2836 05a7 19       		.uleb128 0x19
 2837 05a8 000F0000 		.4byte	.LASF87
 2838 05ac 06       		.byte	0x6
 2839 05ad 7202     		.2byte	0x272
 2840 05af 0A       		.byte	0xa
 2841 05b0 69090000 		.4byte	0x969
 2842 05b4 3C       		.byte	0x3c
 2843 05b5 19       		.uleb128 0x19
 2844 05b6 2C1C0000 		.4byte	.LASF88
 2845 05ba 06       		.byte	0x6
 2846 05bb 7502     		.2byte	0x275
 2847 05bd 13       		.byte	0x13
 2848 05be 39020000 		.4byte	0x239
 2849 05c2 40       		.byte	0x40
 2850 05c3 19       		.uleb128 0x19
 2851 05c4 BF040000 		.4byte	.LASF89
 2852 05c8 06       		.byte	0x6
 2853 05c9 7602     		.2byte	0x276
 2854 05cb 07       		.byte	0x7
 2855 05cc 95000000 		.4byte	0x95
 2856 05d0 44       		.byte	0x44
 2857 05d1 19       		.uleb128 0x19
 2858 05d2 350D0000 		.4byte	.LASF90
 2859 05d6 06       		.byte	0x6
 2860 05d7 7702     		.2byte	0x277
 2861 05d9 13       		.byte	0x13
 2862 05da 39020000 		.4byte	0x239
 2863 05de 48       		.byte	0x48
 2864 05df 19       		.uleb128 0x19
 2865 05e0 A3100000 		.4byte	.LASF91
 2866 05e4 06       		.byte	0x6
 2867 05e5 7802     		.2byte	0x278
 2868 05e7 14       		.byte	0x14
 2869 05e8 6F090000 		.4byte	0x96f
 2870 05ec 4C       		.byte	0x4c
 2871 05ed 19       		.uleb128 0x19
 2872 05ee 46010000 		.4byte	.LASF92
 2873 05f2 06       		.byte	0x6
 2874 05f3 7B02     		.2byte	0x27b
 2875 05f5 07       		.byte	0x7
 2876 05f6 95000000 		.4byte	0x95
 2877 05fa 50       		.byte	0x50
 2878 05fb 19       		.uleb128 0x19
ARM GAS  C:\Users\EDULU~1.DES\AppData\Local\Temp\ccmSuQZN.s 			page 78


 2879 05fc BA0B0000 		.4byte	.LASF93
 2880 0600 06       		.byte	0x6
 2881 0601 7C02     		.2byte	0x27c
 2882 0603 09       		.byte	0x9
 2883 0604 63060000 		.4byte	0x663
 2884 0608 54       		.byte	0x54
 2885 0609 19       		.uleb128 0x19
 2886 060a 1D120000 		.4byte	.LASF94
 2887 060e 06       		.byte	0x6
 2888 060f 9F02     		.2byte	0x29f
 2889 0611 07       		.byte	0x7
 2890 0612 1E090000 		.4byte	0x91e
 2891 0616 58       		.byte	0x58
 2892 0617 1A       		.uleb128 0x1a
 2893 0618 EE120000 		.4byte	.LASF54
 2894 061c 06       		.byte	0x6
 2895 061d A302     		.2byte	0x2a3
 2896 061f 13       		.byte	0x13
 2897 0620 6A030000 		.4byte	0x36a
 2898 0624 4801     		.2byte	0x148
 2899 0626 1A       		.uleb128 0x1a
 2900 0627 0A0F0000 		.4byte	.LASF95
 2901 062b 06       		.byte	0x6
 2902 062c A402     		.2byte	0x2a4
 2903 062e 12       		.byte	0x12
 2904 062f 27030000 		.4byte	0x327
 2905 0633 4C01     		.2byte	0x14c
 2906 0635 1A       		.uleb128 0x1a
 2907 0636 6E0B0000 		.4byte	.LASF96
 2908 063a 06       		.byte	0x6
 2909 063b A802     		.2byte	0x2a8
 2910 063d 0C       		.byte	0xc
 2911 063e 80090000 		.4byte	0x980
 2912 0642 DC02     		.2byte	0x2dc
 2913 0644 1A       		.uleb128 0x1a
 2914 0645 D30F0000 		.4byte	.LASF97
 2915 0649 06       		.byte	0x6
 2916 064a AD02     		.2byte	0x2ad
 2917 064c 10       		.byte	0x10
 2918 064d 04070000 		.4byte	0x704
 2919 0651 E002     		.2byte	0x2e0
 2920 0653 1A       		.uleb128 0x1a
 2921 0654 A7000000 		.4byte	.LASF98
 2922 0658 06       		.byte	0x6
 2923 0659 AF02     		.2byte	0x2af
 2924 065b 0A       		.byte	0xa
 2925 065c 8C090000 		.4byte	0x98c
 2926 0660 EC02     		.2byte	0x2ec
 2927 0662 00       		.byte	0
 2928 0663 06       		.uleb128 0x6
 2929 0664 04       		.byte	0x4
 2930 0665 31000000 		.4byte	0x31
 2931 0669 06       		.uleb128 0x6
 2932 066a 04       		.byte	0x4
 2933 066b F1040000 		.4byte	0x4f1
 2934 066f 17       		.uleb128 0x17
 2935 0670 95000000 		.4byte	0x95
ARM GAS  C:\Users\EDULU~1.DES\AppData\Local\Temp\ccmSuQZN.s 			page 79


 2936 0674 8D060000 		.4byte	0x68d
 2937 0678 09       		.uleb128 0x9
 2938 0679 0F050000 		.4byte	0x50f
 2939 067d 09       		.uleb128 0x9
 2940 067e D0000000 		.4byte	0xd0
 2941 0682 09       		.uleb128 0x9
 2942 0683 8D060000 		.4byte	0x68d
 2943 0687 09       		.uleb128 0x9
 2944 0688 95000000 		.4byte	0x95
 2945 068c 00       		.byte	0
 2946 068d 06       		.uleb128 0x6
 2947 068e 04       		.byte	0x4
 2948 068f 38000000 		.4byte	0x38
 2949 0693 06       		.uleb128 0x6
 2950 0694 04       		.byte	0x4
 2951 0695 6F060000 		.4byte	0x66f
 2952 0699 17       		.uleb128 0x17
 2953 069a 4C010000 		.4byte	0x14c
 2954 069e B7060000 		.4byte	0x6b7
 2955 06a2 09       		.uleb128 0x9
 2956 06a3 0F050000 		.4byte	0x50f
 2957 06a7 09       		.uleb128 0x9
 2958 06a8 D0000000 		.4byte	0xd0
 2959 06ac 09       		.uleb128 0x9
 2960 06ad 4C010000 		.4byte	0x14c
 2961 06b1 09       		.uleb128 0x9
 2962 06b2 95000000 		.4byte	0x95
 2963 06b6 00       		.byte	0
 2964 06b7 06       		.uleb128 0x6
 2965 06b8 04       		.byte	0x4
 2966 06b9 99060000 		.4byte	0x699
 2967 06bd 17       		.uleb128 0x17
 2968 06be 95000000 		.4byte	0x95
 2969 06c2 D1060000 		.4byte	0x6d1
 2970 06c6 09       		.uleb128 0x9
 2971 06c7 0F050000 		.4byte	0x50f
 2972 06cb 09       		.uleb128 0x9
 2973 06cc D0000000 		.4byte	0xd0
 2974 06d0 00       		.byte	0
 2975 06d1 06       		.uleb128 0x6
 2976 06d2 04       		.byte	0x4
 2977 06d3 BD060000 		.4byte	0x6bd
 2978 06d7 0F       		.uleb128 0xf
 2979 06d8 49000000 		.4byte	0x49
 2980 06dc E7060000 		.4byte	0x6e7
 2981 06e0 10       		.uleb128 0x10
 2982 06e1 8E000000 		.4byte	0x8e
 2983 06e5 02       		.byte	0x2
 2984 06e6 00       		.byte	0
 2985 06e7 0F       		.uleb128 0xf
 2986 06e8 49000000 		.4byte	0x49
 2987 06ec F7060000 		.4byte	0x6f7
 2988 06f0 10       		.uleb128 0x10
 2989 06f1 8E000000 		.4byte	0x8e
 2990 06f5 00       		.byte	0
 2991 06f6 00       		.byte	0
 2992 06f7 0B       		.uleb128 0xb
ARM GAS  C:\Users\EDULU~1.DES\AppData\Local\Temp\ccmSuQZN.s 			page 80


 2993 06f8 BE170000 		.4byte	.LASF99
 2994 06fc 06       		.byte	0x6
 2995 06fd 1F01     		.2byte	0x11f
 2996 06ff 1A       		.byte	0x1a
 2997 0700 AE030000 		.4byte	0x3ae
 2998 0704 1B       		.uleb128 0x1b
 2999 0705 B3100000 		.4byte	.LASF100
 3000 0709 0C       		.byte	0xc
 3001 070a 06       		.byte	0x6
 3002 070b 2301     		.2byte	0x123
 3003 070d 08       		.byte	0x8
 3004 070e 3D070000 		.4byte	0x73d
 3005 0712 19       		.uleb128 0x19
 3006 0713 62180000 		.4byte	.LASF34
 3007 0717 06       		.byte	0x6
 3008 0718 2501     		.2byte	0x125
 3009 071a 11       		.byte	0x11
 3010 071b 3D070000 		.4byte	0x73d
 3011 071f 00       		.byte	0
 3012 0720 19       		.uleb128 0x19
 3013 0721 C20F0000 		.4byte	.LASF101
 3014 0725 06       		.byte	0x6
 3015 0726 2601     		.2byte	0x126
 3016 0728 07       		.byte	0x7
 3017 0729 95000000 		.4byte	0x95
 3018 072d 04       		.byte	0x4
 3019 072e 19       		.uleb128 0x19
 3020 072f AD100000 		.4byte	.LASF102
 3021 0733 06       		.byte	0x6
 3022 0734 2701     		.2byte	0x127
 3023 0736 0B       		.byte	0xb
 3024 0737 43070000 		.4byte	0x743
 3025 073b 08       		.byte	0x8
 3026 073c 00       		.byte	0
 3027 073d 06       		.uleb128 0x6
 3028 073e 04       		.byte	0x4
 3029 073f 04070000 		.4byte	0x704
 3030 0743 06       		.uleb128 0x6
 3031 0744 04       		.byte	0x4
 3032 0745 F7060000 		.4byte	0x6f7
 3033 0749 1B       		.uleb128 0x1b
 3034 074a E6150000 		.4byte	.LASF103
 3035 074e 0E       		.byte	0xe
 3036 074f 06       		.byte	0x6
 3037 0750 3F01     		.2byte	0x13f
 3038 0752 08       		.byte	0x8
 3039 0753 82070000 		.4byte	0x782
 3040 0757 19       		.uleb128 0x19
 3041 0758 19140000 		.4byte	.LASF104
 3042 075c 06       		.byte	0x6
 3043 075d 4001     		.2byte	0x140
 3044 075f 12       		.byte	0x12
 3045 0760 82070000 		.4byte	0x782
 3046 0764 00       		.byte	0
 3047 0765 19       		.uleb128 0x19
 3048 0766 CF020000 		.4byte	.LASF105
 3049 076a 06       		.byte	0x6
ARM GAS  C:\Users\EDULU~1.DES\AppData\Local\Temp\ccmSuQZN.s 			page 81


 3050 076b 4101     		.2byte	0x141
 3051 076d 12       		.byte	0x12
 3052 076e 82070000 		.4byte	0x782
 3053 0772 06       		.byte	0x6
 3054 0773 19       		.uleb128 0x19
 3055 0774 1B1D0000 		.4byte	.LASF106
 3056 0778 06       		.byte	0x6
 3057 0779 4201     		.2byte	0x142
 3058 077b 12       		.byte	0x12
 3059 077c 6F000000 		.4byte	0x6f
 3060 0780 0C       		.byte	0xc
 3061 0781 00       		.byte	0
 3062 0782 0F       		.uleb128 0xf
 3063 0783 6F000000 		.4byte	0x6f
 3064 0787 92070000 		.4byte	0x792
 3065 078b 10       		.uleb128 0x10
 3066 078c 8E000000 		.4byte	0x8e
 3067 0790 02       		.byte	0x2
 3068 0791 00       		.byte	0
 3069 0792 1C       		.uleb128 0x1c
 3070 0793 D0       		.byte	0xd0
 3071 0794 06       		.byte	0x6
 3072 0795 8002     		.2byte	0x280
 3073 0797 07       		.byte	0x7
 3074 0798 A7080000 		.4byte	0x8a7
 3075 079c 19       		.uleb128 0x19
 3076 079d BE050000 		.4byte	.LASF107
 3077 07a1 06       		.byte	0x6
 3078 07a2 8202     		.2byte	0x282
 3079 07a4 18       		.byte	0x18
 3080 07a5 8E000000 		.4byte	0x8e
 3081 07a9 00       		.byte	0
 3082 07aa 19       		.uleb128 0x19
 3083 07ab 58170000 		.4byte	.LASF108
 3084 07af 06       		.byte	0x6
 3085 07b0 8302     		.2byte	0x283
 3086 07b2 12       		.byte	0x12
 3087 07b3 63060000 		.4byte	0x663
 3088 07b7 04       		.byte	0x4
 3089 07b8 19       		.uleb128 0x19
 3090 07b9 32010000 		.4byte	.LASF109
 3091 07bd 06       		.byte	0x6
 3092 07be 8402     		.2byte	0x284
 3093 07c0 10       		.byte	0x10
 3094 07c1 A7080000 		.4byte	0x8a7
 3095 07c5 08       		.byte	0x8
 3096 07c6 19       		.uleb128 0x19
 3097 07c7 ED040000 		.4byte	.LASF110
 3098 07cb 06       		.byte	0x6
 3099 07cc 8502     		.2byte	0x285
 3100 07ce 17       		.byte	0x17
 3101 07cf 4F020000 		.4byte	0x24f
 3102 07d3 24       		.byte	0x24
 3103 07d4 19       		.uleb128 0x19
 3104 07d5 17100000 		.4byte	.LASF111
 3105 07d9 06       		.byte	0x6
 3106 07da 8602     		.2byte	0x286
ARM GAS  C:\Users\EDULU~1.DES\AppData\Local\Temp\ccmSuQZN.s 			page 82


 3107 07dc 0F       		.byte	0xf
 3108 07dd 95000000 		.4byte	0x95
 3109 07e1 48       		.byte	0x48
 3110 07e2 19       		.uleb128 0x19
 3111 07e3 9F120000 		.4byte	.LASF112
 3112 07e7 06       		.byte	0x6
 3113 07e8 8702     		.2byte	0x287
 3114 07ea 2C       		.byte	0x2c
 3115 07eb 9C000000 		.4byte	0x9c
 3116 07ef 50       		.byte	0x50
 3117 07f0 19       		.uleb128 0x19
 3118 07f1 35180000 		.4byte	.LASF113
 3119 07f5 06       		.byte	0x6
 3120 07f6 8802     		.2byte	0x288
 3121 07f8 1A       		.byte	0x1a
 3122 07f9 49070000 		.4byte	0x749
 3123 07fd 58       		.byte	0x58
 3124 07fe 19       		.uleb128 0x19
 3125 07ff DE190000 		.4byte	.LASF114
 3126 0803 06       		.byte	0x6
 3127 0804 8902     		.2byte	0x289
 3128 0806 16       		.byte	0x16
 3129 0807 BB010000 		.4byte	0x1bb
 3130 080b 68       		.byte	0x68
 3131 080c 19       		.uleb128 0x19
 3132 080d B4140000 		.4byte	.LASF115
 3133 0811 06       		.byte	0x6
 3134 0812 8A02     		.2byte	0x28a
 3135 0814 16       		.byte	0x16
 3136 0815 BB010000 		.4byte	0x1bb
 3137 0819 70       		.byte	0x70
 3138 081a 19       		.uleb128 0x19
 3139 081b 60120000 		.4byte	.LASF116
 3140 081f 06       		.byte	0x6
 3141 0820 8B02     		.2byte	0x28b
 3142 0822 16       		.byte	0x16
 3143 0823 BB010000 		.4byte	0x1bb
 3144 0827 78       		.byte	0x78
 3145 0828 19       		.uleb128 0x19
 3146 0829 19020000 		.4byte	.LASF117
 3147 082d 06       		.byte	0x6
 3148 082e 8C02     		.2byte	0x28c
 3149 0830 10       		.byte	0x10
 3150 0831 B7080000 		.4byte	0x8b7
 3151 0835 80       		.byte	0x80
 3152 0836 19       		.uleb128 0x19
 3153 0837 7D0E0000 		.4byte	.LASF118
 3154 083b 06       		.byte	0x6
 3155 083c 8D02     		.2byte	0x28d
 3156 083e 10       		.byte	0x10
 3157 083f C7080000 		.4byte	0x8c7
 3158 0843 88       		.byte	0x88
 3159 0844 19       		.uleb128 0x19
 3160 0845 EF1E0000 		.4byte	.LASF119
 3161 0849 06       		.byte	0x6
 3162 084a 8E02     		.2byte	0x28e
 3163 084c 0F       		.byte	0xf
ARM GAS  C:\Users\EDULU~1.DES\AppData\Local\Temp\ccmSuQZN.s 			page 83


 3164 084d 95000000 		.4byte	0x95
 3165 0851 A0       		.byte	0xa0
 3166 0852 19       		.uleb128 0x19
 3167 0853 7B040000 		.4byte	.LASF120
 3168 0857 06       		.byte	0x6
 3169 0858 8F02     		.2byte	0x28f
 3170 085a 16       		.byte	0x16
 3171 085b BB010000 		.4byte	0x1bb
 3172 085f A4       		.byte	0xa4
 3173 0860 19       		.uleb128 0x19
 3174 0861 6B170000 		.4byte	.LASF121
 3175 0865 06       		.byte	0x6
 3176 0866 9002     		.2byte	0x290
 3177 0868 16       		.byte	0x16
 3178 0869 BB010000 		.4byte	0x1bb
 3179 086d AC       		.byte	0xac
 3180 086e 19       		.uleb128 0x19
 3181 086f D21D0000 		.4byte	.LASF122
 3182 0873 06       		.byte	0x6
 3183 0874 9102     		.2byte	0x291
 3184 0876 16       		.byte	0x16
 3185 0877 BB010000 		.4byte	0x1bb
 3186 087b B4       		.byte	0xb4
 3187 087c 19       		.uleb128 0x19
 3188 087d F4110000 		.4byte	.LASF123
 3189 0881 06       		.byte	0x6
 3190 0882 9202     		.2byte	0x292
 3191 0884 16       		.byte	0x16
 3192 0885 BB010000 		.4byte	0x1bb
 3193 0889 BC       		.byte	0xbc
 3194 088a 19       		.uleb128 0x19
 3195 088b EC010000 		.4byte	.LASF124
 3196 088f 06       		.byte	0x6
 3197 0890 9302     		.2byte	0x293
 3198 0892 16       		.byte	0x16
 3199 0893 BB010000 		.4byte	0x1bb
 3200 0897 C4       		.byte	0xc4
 3201 0898 19       		.uleb128 0x19
 3202 0899 E5110000 		.4byte	.LASF125
 3203 089d 06       		.byte	0x6
 3204 089e 9402     		.2byte	0x294
 3205 08a0 08       		.byte	0x8
 3206 08a1 95000000 		.4byte	0x95
 3207 08a5 CC       		.byte	0xcc
 3208 08a6 00       		.byte	0
 3209 08a7 0F       		.uleb128 0xf
 3210 08a8 31000000 		.4byte	0x31
 3211 08ac B7080000 		.4byte	0x8b7
 3212 08b0 10       		.uleb128 0x10
 3213 08b1 8E000000 		.4byte	0x8e
 3214 08b5 19       		.byte	0x19
 3215 08b6 00       		.byte	0
 3216 08b7 0F       		.uleb128 0xf
 3217 08b8 31000000 		.4byte	0x31
 3218 08bc C7080000 		.4byte	0x8c7
 3219 08c0 10       		.uleb128 0x10
 3220 08c1 8E000000 		.4byte	0x8e
ARM GAS  C:\Users\EDULU~1.DES\AppData\Local\Temp\ccmSuQZN.s 			page 84


 3221 08c5 07       		.byte	0x7
 3222 08c6 00       		.byte	0
 3223 08c7 0F       		.uleb128 0xf
 3224 08c8 31000000 		.4byte	0x31
 3225 08cc D7080000 		.4byte	0x8d7
 3226 08d0 10       		.uleb128 0x10
 3227 08d1 8E000000 		.4byte	0x8e
 3228 08d5 17       		.byte	0x17
 3229 08d6 00       		.byte	0
 3230 08d7 1C       		.uleb128 0x1c
 3231 08d8 F0       		.byte	0xf0
 3232 08d9 06       		.byte	0x6
 3233 08da 9902     		.2byte	0x299
 3234 08dc 07       		.byte	0x7
 3235 08dd FE080000 		.4byte	0x8fe
 3236 08e1 19       		.uleb128 0x19
 3237 08e2 631B0000 		.4byte	.LASF126
 3238 08e6 06       		.byte	0x6
 3239 08e7 9C02     		.2byte	0x29c
 3240 08e9 1B       		.byte	0x1b
 3241 08ea FE080000 		.4byte	0x8fe
 3242 08ee 00       		.byte	0
 3243 08ef 19       		.uleb128 0x19
 3244 08f0 DB0F0000 		.4byte	.LASF127
 3245 08f4 06       		.byte	0x6
 3246 08f5 9D02     		.2byte	0x29d
 3247 08f7 18       		.byte	0x18
 3248 08f8 0E090000 		.4byte	0x90e
 3249 08fc 78       		.byte	0x78
 3250 08fd 00       		.byte	0
 3251 08fe 0F       		.uleb128 0xf
 3252 08ff A8030000 		.4byte	0x3a8
 3253 0903 0E090000 		.4byte	0x90e
 3254 0907 10       		.uleb128 0x10
 3255 0908 8E000000 		.4byte	0x8e
 3256 090c 1D       		.byte	0x1d
 3257 090d 00       		.byte	0
 3258 090e 0F       		.uleb128 0xf
 3259 090f 8E000000 		.4byte	0x8e
 3260 0913 1E090000 		.4byte	0x91e
 3261 0917 10       		.uleb128 0x10
 3262 0918 8E000000 		.4byte	0x8e
 3263 091c 1D       		.byte	0x1d
 3264 091d 00       		.byte	0
 3265 091e 1D       		.uleb128 0x1d
 3266 091f F0       		.byte	0xf0
 3267 0920 06       		.byte	0x6
 3268 0921 7E02     		.2byte	0x27e
 3269 0923 03       		.byte	0x3
 3270 0924 43090000 		.4byte	0x943
 3271 0928 1E       		.uleb128 0x1e
 3272 0929 3C070000 		.4byte	.LASF77
 3273 092d 06       		.byte	0x6
 3274 092e 9502     		.2byte	0x295
 3275 0930 0B       		.byte	0xb
 3276 0931 92070000 		.4byte	0x792
 3277 0935 1E       		.uleb128 0x1e
ARM GAS  C:\Users\EDULU~1.DES\AppData\Local\Temp\ccmSuQZN.s 			page 85


 3278 0936 DF010000 		.4byte	.LASF128
 3279 093a 06       		.byte	0x6
 3280 093b 9E02     		.2byte	0x29e
 3281 093d 0B       		.byte	0xb
 3282 093e D7080000 		.4byte	0x8d7
 3283 0942 00       		.byte	0
 3284 0943 0F       		.uleb128 0xf
 3285 0944 31000000 		.4byte	0x31
 3286 0948 53090000 		.4byte	0x953
 3287 094c 10       		.uleb128 0x10
 3288 094d 8E000000 		.4byte	0x8e
 3289 0951 18       		.byte	0x18
 3290 0952 00       		.byte	0
 3291 0953 0C       		.uleb128 0xc
 3292 0954 7A000000 		.4byte	.LASF130
 3293 0958 06       		.uleb128 0x6
 3294 0959 04       		.byte	0x4
 3295 095a 53090000 		.4byte	0x953
 3296 095e 08       		.uleb128 0x8
 3297 095f 69090000 		.4byte	0x969
 3298 0963 09       		.uleb128 0x9
 3299 0964 0F050000 		.4byte	0x50f
 3300 0968 00       		.byte	0
 3301 0969 06       		.uleb128 0x6
 3302 096a 04       		.byte	0x4
 3303 096b 5E090000 		.4byte	0x95e
 3304 096f 06       		.uleb128 0x6
 3305 0970 04       		.byte	0x4
 3306 0971 39020000 		.4byte	0x239
 3307 0975 08       		.uleb128 0x8
 3308 0976 80090000 		.4byte	0x980
 3309 097a 09       		.uleb128 0x9
 3310 097b 95000000 		.4byte	0x95
 3311 097f 00       		.byte	0
 3312 0980 06       		.uleb128 0x6
 3313 0981 04       		.byte	0x4
 3314 0982 86090000 		.4byte	0x986
 3315 0986 06       		.uleb128 0x6
 3316 0987 04       		.byte	0x4
 3317 0988 75090000 		.4byte	0x975
 3318 098c 0F       		.uleb128 0xf
 3319 098d F7060000 		.4byte	0x6f7
 3320 0991 9C090000 		.4byte	0x99c
 3321 0995 10       		.uleb128 0x10
 3322 0996 8E000000 		.4byte	0x8e
 3323 099a 02       		.byte	0x2
 3324 099b 00       		.byte	0
 3325 099c 1F       		.uleb128 0x1f
 3326 099d A4040000 		.4byte	.LASF131
 3327 09a1 06       		.byte	0x6
 3328 09a2 2E03     		.2byte	0x32e
 3329 09a4 17       		.byte	0x17
 3330 09a5 0F050000 		.4byte	0x50f
 3331 09a9 1F       		.uleb128 0x1f
 3332 09aa 4A070000 		.4byte	.LASF132
 3333 09ae 06       		.byte	0x6
 3334 09af 2F03     		.2byte	0x32f
ARM GAS  C:\Users\EDULU~1.DES\AppData\Local\Temp\ccmSuQZN.s 			page 86


 3335 09b1 1D       		.byte	0x1d
 3336 09b2 15050000 		.4byte	0x515
 3337 09b6 02       		.uleb128 0x2
 3338 09b7 3C0B0000 		.4byte	.LASF133
 3339 09bb 07       		.byte	0x7
 3340 09bc C4       		.byte	0xc4
 3341 09bd 16       		.byte	0x16
 3342 09be 7D000000 		.4byte	0x7d
 3343 09c2 02       		.uleb128 0x2
 3344 09c3 7C050000 		.4byte	.LASF134
 3345 09c7 07       		.byte	0x7
 3346 09c8 C7       		.byte	0xc7
 3347 09c9 16       		.byte	0x16
 3348 09ca B6090000 		.4byte	0x9b6
 3349 09ce 02       		.uleb128 0x2
 3350 09cf A1150000 		.4byte	.LASF135
 3351 09d3 07       		.byte	0x7
 3352 09d4 D2       		.byte	0xd2
 3353 09d5 16       		.byte	0x16
 3354 09d6 7D000000 		.4byte	0x7d
 3355 09da 02       		.uleb128 0x2
 3356 09db 6B030000 		.4byte	.LASF136
 3357 09df 07       		.byte	0x7
 3358 09e0 DD       		.byte	0xdd
 3359 09e1 16       		.byte	0x16
 3360 09e2 7D000000 		.4byte	0x7d
 3361 09e6 0F       		.uleb128 0xf
 3362 09e7 25000000 		.4byte	0x25
 3363 09eb F6090000 		.4byte	0x9f6
 3364 09ef 10       		.uleb128 0x10
 3365 09f0 8E000000 		.4byte	0x8e
 3366 09f4 0F       		.byte	0xf
 3367 09f5 00       		.byte	0
 3368 09f6 20       		.uleb128 0x20
 3369 09f7 39170000 		.4byte	.LASF137
 3370 09fb 07       		.byte	0x7
 3371 09fc E7       		.byte	0xe7
 3372 09fd 20       		.byte	0x20
 3373 09fe E6090000 		.4byte	0x9e6
 3374 0a02 20       		.uleb128 0x20
 3375 0a03 8D120000 		.4byte	.LASF138
 3376 0a07 07       		.byte	0x7
 3377 0a08 F8       		.byte	0xf8
 3378 0a09 20       		.byte	0x20
 3379 0a0a DA090000 		.4byte	0x9da
 3380 0a0e 20       		.uleb128 0x20
 3381 0a0f EE150000 		.4byte	.LASF139
 3382 0a13 07       		.byte	0x7
 3383 0a14 FD       		.byte	0xfd
 3384 0a15 20       		.byte	0x20
 3385 0a16 63000000 		.4byte	0x63
 3386 0a1a 20       		.uleb128 0x20
 3387 0a1b E1180000 		.4byte	.LASF140
 3388 0a1f 07       		.byte	0x7
 3389 0a20 FE       		.byte	0xfe
 3390 0a21 20       		.byte	0x20
 3391 0a22 63000000 		.4byte	0x63
ARM GAS  C:\Users\EDULU~1.DES\AppData\Local\Temp\ccmSuQZN.s 			page 87


 3392 0a26 1F       		.uleb128 0x1f
 3393 0a27 57190000 		.4byte	.LASF141
 3394 0a2b 07       		.byte	0x7
 3395 0a2c 0001     		.2byte	0x100
 3396 0a2e 20       		.byte	0x20
 3397 0a2f CE090000 		.4byte	0x9ce
 3398 0a33 1F       		.uleb128 0x1f
 3399 0a34 FC140000 		.4byte	.LASF142
 3400 0a38 07       		.byte	0x7
 3401 0a39 0101     		.2byte	0x101
 3402 0a3b 20       		.byte	0x20
 3403 0a3c CE090000 		.4byte	0x9ce
 3404 0a40 1F       		.uleb128 0x1f
 3405 0a41 890E0000 		.4byte	.LASF143
 3406 0a45 07       		.byte	0x7
 3407 0a46 0201     		.2byte	0x102
 3408 0a48 20       		.byte	0x20
 3409 0a49 CE090000 		.4byte	0x9ce
 3410 0a4d 1F       		.uleb128 0x1f
 3411 0a4e C2110000 		.4byte	.LASF144
 3412 0a52 07       		.byte	0x7
 3413 0a53 0301     		.2byte	0x103
 3414 0a55 20       		.byte	0x20
 3415 0a56 CE090000 		.4byte	0x9ce
 3416 0a5a 1F       		.uleb128 0x1f
 3417 0a5b 13080000 		.4byte	.LASF145
 3418 0a5f 07       		.byte	0x7
 3419 0a60 0401     		.2byte	0x104
 3420 0a62 20       		.byte	0x20
 3421 0a63 CE090000 		.4byte	0x9ce
 3422 0a67 02       		.uleb128 0x2
 3423 0a68 540D0000 		.4byte	.LASF146
 3424 0a6c 08       		.byte	0x8
 3425 0a6d 30       		.byte	0x30
 3426 0a6e 1B       		.byte	0x1b
 3427 0a6f 63000000 		.4byte	0x63
 3428 0a73 02       		.uleb128 0x2
 3429 0a74 051A0000 		.4byte	.LASF147
 3430 0a78 08       		.byte	0x8
 3431 0a79 32       		.byte	0x32
 3432 0a7a 1B       		.byte	0x1b
 3433 0a7b 7D000000 		.4byte	0x7d
 3434 0a7f 02       		.uleb128 0x2
 3435 0a80 590B0000 		.4byte	.LASF148
 3436 0a84 08       		.byte	0x8
 3437 0a85 34       		.byte	0x34
 3438 0a86 1B       		.byte	0x1b
 3439 0a87 7D000000 		.4byte	0x7d
 3440 0a8b 02       		.uleb128 0x2
 3441 0a8c 51020000 		.4byte	.LASF149
 3442 0a90 08       		.byte	0x8
 3443 0a91 3A       		.byte	0x3a
 3444 0a92 1B       		.byte	0x1b
 3445 0a93 7D000000 		.4byte	0x7d
 3446 0a97 02       		.uleb128 0x2
 3447 0a98 F91B0000 		.4byte	.LASF150
 3448 0a9c 08       		.byte	0x8
ARM GAS  C:\Users\EDULU~1.DES\AppData\Local\Temp\ccmSuQZN.s 			page 88


 3449 0a9d 3F       		.byte	0x3f
 3450 0a9e 1B       		.byte	0x1b
 3451 0a9f 63000000 		.4byte	0x63
 3452 0aa3 02       		.uleb128 0x2
 3453 0aa4 22120000 		.4byte	.LASF151
 3454 0aa8 08       		.byte	0x8
 3455 0aa9 40       		.byte	0x40
 3456 0aaa 1B       		.byte	0x1b
 3457 0aab 63000000 		.4byte	0x63
 3458 0aaf 04       		.uleb128 0x4
 3459 0ab0 A30A0000 		.4byte	0xaa3
 3460 0ab4 02       		.uleb128 0x2
 3461 0ab5 C3100000 		.4byte	.LASF152
 3462 0ab9 08       		.byte	0x8
 3463 0aba 42       		.byte	0x42
 3464 0abb 1B       		.byte	0x1b
 3465 0abc 50000000 		.4byte	0x50
 3466 0ac0 02       		.uleb128 0x2
 3467 0ac1 590E0000 		.4byte	.LASF153
 3468 0ac5 08       		.byte	0x8
 3469 0ac6 44       		.byte	0x44
 3470 0ac7 1B       		.byte	0x1b
 3471 0ac8 63000000 		.4byte	0x63
 3472 0acc 04       		.uleb128 0x4
 3473 0acd C00A0000 		.4byte	0xac0
 3474 0ad1 02       		.uleb128 0x2
 3475 0ad2 B7070000 		.4byte	.LASF154
 3476 0ad6 08       		.byte	0x8
 3477 0ad7 45       		.byte	0x45
 3478 0ad8 1B       		.byte	0x1b
 3479 0ad9 7D000000 		.4byte	0x7d
 3480 0add 02       		.uleb128 0x2
 3481 0ade 7B030000 		.4byte	.LASF155
 3482 0ae2 08       		.byte	0x8
 3483 0ae3 47       		.byte	0x47
 3484 0ae4 1B       		.byte	0x1b
 3485 0ae5 63000000 		.4byte	0x63
 3486 0ae9 02       		.uleb128 0x2
 3487 0aea 710F0000 		.4byte	.LASF156
 3488 0aee 08       		.byte	0x8
 3489 0aef 49       		.byte	0x49
 3490 0af0 1B       		.byte	0x1b
 3491 0af1 50000000 		.4byte	0x50
 3492 0af5 04       		.uleb128 0x4
 3493 0af6 E90A0000 		.4byte	0xae9
 3494 0afa 02       		.uleb128 0x2
 3495 0afb 5D160000 		.4byte	.LASF157
 3496 0aff 08       		.byte	0x8
 3497 0b00 4D       		.byte	0x4d
 3498 0b01 1B       		.byte	0x1b
 3499 0b02 7D000000 		.4byte	0x7d
 3500 0b06 04       		.uleb128 0x4
 3501 0b07 FA0A0000 		.4byte	0xafa
 3502 0b0b 02       		.uleb128 0x2
 3503 0b0c 580A0000 		.4byte	.LASF158
 3504 0b10 08       		.byte	0x8
 3505 0b11 4F       		.byte	0x4f
ARM GAS  C:\Users\EDULU~1.DES\AppData\Local\Temp\ccmSuQZN.s 			page 89


 3506 0b12 1B       		.byte	0x1b
 3507 0b13 7D000000 		.4byte	0x7d
 3508 0b17 02       		.uleb128 0x2
 3509 0b18 53050000 		.4byte	.LASF159
 3510 0b1c 08       		.byte	0x8
 3511 0b1d 50       		.byte	0x50
 3512 0b1e 1B       		.byte	0x1b
 3513 0b1f 50000000 		.4byte	0x50
 3514 0b23 02       		.uleb128 0x2
 3515 0b24 59100000 		.4byte	.LASF160
 3516 0b28 08       		.byte	0x8
 3517 0b29 52       		.byte	0x52
 3518 0b2a 1B       		.byte	0x1b
 3519 0b2b 7D000000 		.4byte	0x7d
 3520 0b2f 02       		.uleb128 0x2
 3521 0b30 A7070000 		.4byte	.LASF161
 3522 0b34 08       		.byte	0x8
 3523 0b35 54       		.byte	0x54
 3524 0b36 1B       		.byte	0x1b
 3525 0b37 50000000 		.4byte	0x50
 3526 0b3b 02       		.uleb128 0x2
 3527 0b3c 7D130000 		.4byte	.LASF162
 3528 0b40 08       		.byte	0x8
 3529 0b41 56       		.byte	0x56
 3530 0b42 1B       		.byte	0x1b
 3531 0b43 50000000 		.4byte	0x50
 3532 0b47 02       		.uleb128 0x2
 3533 0b48 920F0000 		.4byte	.LASF163
 3534 0b4c 08       		.byte	0x8
 3535 0b4d 58       		.byte	0x58
 3536 0b4e 1B       		.byte	0x1b
 3537 0b4f 7D000000 		.4byte	0x7d
 3538 0b53 02       		.uleb128 0x2
 3539 0b54 29170000 		.4byte	.LASF164
 3540 0b58 08       		.byte	0x8
 3541 0b59 5B       		.byte	0x5b
 3542 0b5a 1B       		.byte	0x1b
 3543 0b5b 63000000 		.4byte	0x63
 3544 0b5f 20       		.uleb128 0x20
 3545 0b60 79060000 		.4byte	.LASF165
 3546 0b64 09       		.byte	0x9
 3547 0b65 95       		.byte	0x95
 3548 0b66 17       		.byte	0x17
 3549 0b67 6B0B0000 		.4byte	0xb6b
 3550 0b6b 06       		.uleb128 0x6
 3551 0b6c 04       		.byte	0x4
 3552 0b6d EA000000 		.4byte	0xea
 3553 0b71 04       		.uleb128 0x4
 3554 0b72 6B0B0000 		.4byte	0xb6b
 3555 0b76 21       		.uleb128 0x21
 3556 0b77 12140000 		.4byte	.LASF539
 3557 0b7b 07       		.byte	0x7
 3558 0b7c 02       		.byte	0x2
 3559 0b7d 6F000000 		.4byte	0x6f
 3560 0b81 0A       		.byte	0xa
 3561 0b82 A501     		.2byte	0x1a5
 3562 0b84 10       		.byte	0x10
ARM GAS  C:\Users\EDULU~1.DES\AppData\Local\Temp\ccmSuQZN.s 			page 90


 3563 0b85 F00F0000 		.4byte	0xff0
 3564 0b89 22       		.uleb128 0x22
 3565 0b8a 1B0F0000 		.4byte	.LASF166
 3566 0b8e 00       		.byte	0
 3567 0b8f 23       		.uleb128 0x23
 3568 0b90 88050000 		.4byte	.LASF167
 3569 0b94 1027     		.2byte	0x2710
 3570 0b96 23       		.uleb128 0x23
 3571 0b97 63080000 		.4byte	.LASF168
 3572 0b9b 1127     		.2byte	0x2711
 3573 0b9d 23       		.uleb128 0x23
 3574 0b9e 91050000 		.4byte	.LASF169
 3575 0ba2 F82A     		.2byte	0x2af8
 3576 0ba4 23       		.uleb128 0x23
 3577 0ba5 9A050000 		.4byte	.LASF170
 3578 0ba9 E02E     		.2byte	0x2ee0
 3579 0bab 23       		.uleb128 0x23
 3580 0bac D80D0000 		.4byte	.LASF171
 3581 0bb0 E12E     		.2byte	0x2ee1
 3582 0bb2 23       		.uleb128 0x23
 3583 0bb3 A3050000 		.4byte	.LASF172
 3584 0bb7 C832     		.2byte	0x32c8
 3585 0bb9 23       		.uleb128 0x23
 3586 0bba 0C1A0000 		.4byte	.LASF173
 3587 0bbe C932     		.2byte	0x32c9
 3588 0bc0 23       		.uleb128 0x23
 3589 0bc1 AC050000 		.4byte	.LASF174
 3590 0bc5 B036     		.2byte	0x36b0
 3591 0bc7 23       		.uleb128 0x23
 3592 0bc8 B5050000 		.4byte	.LASF175
 3593 0bcc 983A     		.2byte	0x3a98
 3594 0bce 23       		.uleb128 0x23
 3595 0bcf 68050000 		.4byte	.LASF176
 3596 0bd3 993A     		.2byte	0x3a99
 3597 0bd5 23       		.uleb128 0x23
 3598 0bd6 DB0C0000 		.4byte	.LASF177
 3599 0bda FD3A     		.2byte	0x3afd
 3600 0bdc 23       		.uleb128 0x23
 3601 0bdd CC060000 		.4byte	.LASF178
 3602 0be1 FE3A     		.2byte	0x3afe
 3603 0be3 23       		.uleb128 0x23
 3604 0be4 7D1B0000 		.4byte	.LASF179
 3605 0be8 FF3A     		.2byte	0x3aff
 3606 0bea 23       		.uleb128 0x23
 3607 0beb EB140000 		.4byte	.LASF180
 3608 0bef 003B     		.2byte	0x3b00
 3609 0bf1 23       		.uleb128 0x23
 3610 0bf2 B9000000 		.4byte	.LASF181
 3611 0bf6 803E     		.2byte	0x3e80
 3612 0bf8 23       		.uleb128 0x23
 3613 0bf9 CB050000 		.4byte	.LASF182
 3614 0bfd 6842     		.2byte	0x4268
 3615 0bff 23       		.uleb128 0x23
 3616 0c00 D4050000 		.4byte	.LASF183
 3617 0c04 5046     		.2byte	0x4650
 3618 0c06 23       		.uleb128 0x23
 3619 0c07 38110000 		.4byte	.LASF184
ARM GAS  C:\Users\EDULU~1.DES\AppData\Local\Temp\ccmSuQZN.s 			page 91


 3620 0c0b 5146     		.2byte	0x4651
 3621 0c0d 23       		.uleb128 0x23
 3622 0c0e AD1D0000 		.4byte	.LASF185
 3623 0c12 5246     		.2byte	0x4652
 3624 0c14 23       		.uleb128 0x23
 3625 0c15 92040000 		.4byte	.LASF186
 3626 0c19 5346     		.2byte	0x4653
 3627 0c1b 23       		.uleb128 0x23
 3628 0c1c 23180000 		.4byte	.LASF187
 3629 0c20 5446     		.2byte	0x4654
 3630 0c22 23       		.uleb128 0x23
 3631 0c23 A30A0000 		.4byte	.LASF188
 3632 0c27 5546     		.2byte	0x4655
 3633 0c29 23       		.uleb128 0x23
 3634 0c2a C20A0000 		.4byte	.LASF189
 3635 0c2e 5646     		.2byte	0x4656
 3636 0c30 23       		.uleb128 0x23
 3637 0c31 D8000000 		.4byte	.LASF190
 3638 0c35 384A     		.2byte	0x4a38
 3639 0c37 23       		.uleb128 0x23
 3640 0c38 E9050000 		.4byte	.LASF191
 3641 0c3c 204E     		.2byte	0x4e20
 3642 0c3e 23       		.uleb128 0x23
 3643 0c3f F2050000 		.4byte	.LASF192
 3644 0c43 0852     		.2byte	0x5208
 3645 0c45 23       		.uleb128 0x23
 3646 0c46 C9180000 		.4byte	.LASF193
 3647 0c4a 0952     		.2byte	0x5209
 3648 0c4c 23       		.uleb128 0x23
 3649 0c4d FB050000 		.4byte	.LASF194
 3650 0c51 F055     		.2byte	0x55f0
 3651 0c53 23       		.uleb128 0x23
 3652 0c54 C3070000 		.4byte	.LASF195
 3653 0c58 B956     		.2byte	0x56b9
 3654 0c5a 23       		.uleb128 0x23
 3655 0c5b 00000000 		.4byte	.LASF196
 3656 0c5f BA56     		.2byte	0x56ba
 3657 0c61 23       		.uleb128 0x23
 3658 0c62 8A080000 		.4byte	.LASF197
 3659 0c66 BB56     		.2byte	0x56bb
 3660 0c68 23       		.uleb128 0x23
 3661 0c69 FB070000 		.4byte	.LASF198
 3662 0c6d BC56     		.2byte	0x56bc
 3663 0c6f 23       		.uleb128 0x23
 3664 0c70 F80A0000 		.4byte	.LASF199
 3665 0c74 BD56     		.2byte	0x56bd
 3666 0c76 23       		.uleb128 0x23
 3667 0c77 D2140000 		.4byte	.LASF200
 3668 0c7b BE56     		.2byte	0x56be
 3669 0c7d 23       		.uleb128 0x23
 3670 0c7e 34120000 		.4byte	.LASF201
 3671 0c82 BF56     		.2byte	0x56bf
 3672 0c84 23       		.uleb128 0x23
 3673 0c85 3A160000 		.4byte	.LASF202
 3674 0c89 C056     		.2byte	0x56c0
 3675 0c8b 23       		.uleb128 0x23
 3676 0c8c A6170000 		.4byte	.LASF203
ARM GAS  C:\Users\EDULU~1.DES\AppData\Local\Temp\ccmSuQZN.s 			page 92


 3677 0c90 C156     		.2byte	0x56c1
 3678 0c92 23       		.uleb128 0x23
 3679 0c93 09040000 		.4byte	.LASF204
 3680 0c97 C256     		.2byte	0x56c2
 3681 0c99 23       		.uleb128 0x23
 3682 0c9a 95030000 		.4byte	.LASF205
 3683 0c9e 1D57     		.2byte	0x571d
 3684 0ca0 23       		.uleb128 0x23
 3685 0ca1 921B0000 		.4byte	.LASF206
 3686 0ca5 1E57     		.2byte	0x571e
 3687 0ca7 23       		.uleb128 0x23
 3688 0ca8 C30E0000 		.4byte	.LASF207
 3689 0cac 8157     		.2byte	0x5781
 3690 0cae 23       		.uleb128 0x23
 3691 0caf 3E040000 		.4byte	.LASF208
 3692 0cb3 8257     		.2byte	0x5782
 3693 0cb5 23       		.uleb128 0x23
 3694 0cb6 9F140000 		.4byte	.LASF209
 3695 0cba 8357     		.2byte	0x5783
 3696 0cbc 23       		.uleb128 0x23
 3697 0cbd 04060000 		.4byte	.LASF210
 3698 0cc1 D859     		.2byte	0x59d8
 3699 0cc3 23       		.uleb128 0x23
 3700 0cc4 5F130000 		.4byte	.LASF211
 3701 0cc8 D959     		.2byte	0x59d9
 3702 0cca 23       		.uleb128 0x23
 3703 0ccb 310C0000 		.4byte	.LASF212
 3704 0ccf DA59     		.2byte	0x59da
 3705 0cd1 23       		.uleb128 0x23
 3706 0cd2 0D060000 		.4byte	.LASF213
 3707 0cd6 C05D     		.2byte	0x5dc0
 3708 0cd8 23       		.uleb128 0x23
 3709 0cd9 C2030000 		.4byte	.LASF214
 3710 0cdd C15D     		.2byte	0x5dc1
 3711 0cdf 23       		.uleb128 0x23
 3712 0ce0 F10E0000 		.4byte	.LASF215
 3713 0ce4 C25D     		.2byte	0x5dc2
 3714 0ce6 23       		.uleb128 0x23
 3715 0ce7 A01C0000 		.4byte	.LASF216
 3716 0ceb C35D     		.2byte	0x5dc3
 3717 0ced 23       		.uleb128 0x23
 3718 0cee FC1D0000 		.4byte	.LASF217
 3719 0cf2 C45D     		.2byte	0x5dc4
 3720 0cf4 23       		.uleb128 0x23
 3721 0cf5 6A1B0000 		.4byte	.LASF218
 3722 0cf9 255E     		.2byte	0x5e25
 3723 0cfb 23       		.uleb128 0x23
 3724 0cfc 6E120000 		.4byte	.LASF219
 3725 0d00 895E     		.2byte	0x5e89
 3726 0d02 23       		.uleb128 0x23
 3727 0d03 6B130000 		.4byte	.LASF220
 3728 0d07 8A5E     		.2byte	0x5e8a
 3729 0d09 23       		.uleb128 0x23
 3730 0d0a 16060000 		.4byte	.LASF221
 3731 0d0e A861     		.2byte	0x61a8
 3732 0d10 23       		.uleb128 0x23
 3733 0d11 C8080000 		.4byte	.LASF222
ARM GAS  C:\Users\EDULU~1.DES\AppData\Local\Temp\ccmSuQZN.s 			page 93


 3734 0d15 A961     		.2byte	0x61a9
 3735 0d17 23       		.uleb128 0x23
 3736 0d18 F60D0000 		.4byte	.LASF223
 3737 0d1c AA61     		.2byte	0x61aa
 3738 0d1e 23       		.uleb128 0x23
 3739 0d1f 64020000 		.4byte	.LASF224
 3740 0d23 AB61     		.2byte	0x61ab
 3741 0d25 23       		.uleb128 0x23
 3742 0d26 E40F0000 		.4byte	.LASF225
 3743 0d2a AC61     		.2byte	0x61ac
 3744 0d2c 23       		.uleb128 0x23
 3745 0d2d C2140000 		.4byte	.LASF226
 3746 0d31 AD61     		.2byte	0x61ad
 3747 0d33 23       		.uleb128 0x23
 3748 0d34 C9040000 		.4byte	.LASF227
 3749 0d38 AE61     		.2byte	0x61ae
 3750 0d3a 23       		.uleb128 0x23
 3751 0d3b B3130000 		.4byte	.LASF228
 3752 0d3f AF61     		.2byte	0x61af
 3753 0d41 23       		.uleb128 0x23
 3754 0d42 7F190000 		.4byte	.LASF229
 3755 0d46 B061     		.2byte	0x61b0
 3756 0d48 23       		.uleb128 0x23
 3757 0d49 2A130000 		.4byte	.LASF230
 3758 0d4d 0D62     		.2byte	0x620d
 3759 0d4f 23       		.uleb128 0x23
 3760 0d50 A3060000 		.4byte	.LASF231
 3761 0d54 0E62     		.2byte	0x620e
 3762 0d56 23       		.uleb128 0x23
 3763 0d57 B61A0000 		.4byte	.LASF232
 3764 0d5b 7162     		.2byte	0x6271
 3765 0d5d 23       		.uleb128 0x23
 3766 0d5e A11D0000 		.4byte	.LASF233
 3767 0d62 7262     		.2byte	0x6272
 3768 0d64 23       		.uleb128 0x23
 3769 0d65 0E170000 		.4byte	.LASF234
 3770 0d69 7362     		.2byte	0x6273
 3771 0d6b 23       		.uleb128 0x23
 3772 0d6c 8E150000 		.4byte	.LASF235
 3773 0d70 D562     		.2byte	0x62d5
 3774 0d72 23       		.uleb128 0x23
 3775 0d73 1F060000 		.4byte	.LASF236
 3776 0d77 9065     		.2byte	0x6590
 3777 0d79 23       		.uleb128 0x23
 3778 0d7a 2B150000 		.4byte	.LASF237
 3779 0d7e 9165     		.2byte	0x6591
 3780 0d80 23       		.uleb128 0x23
 3781 0d81 1B1A0000 		.4byte	.LASF238
 3782 0d85 9265     		.2byte	0x6592
 3783 0d87 23       		.uleb128 0x23
 3784 0d88 041C0000 		.4byte	.LASF239
 3785 0d8c 9365     		.2byte	0x6593
 3786 0d8e 23       		.uleb128 0x23
 3787 0d8f AC080000 		.4byte	.LASF240
 3788 0d93 9465     		.2byte	0x6594
 3789 0d95 23       		.uleb128 0x23
 3790 0d96 28060000 		.4byte	.LASF241
ARM GAS  C:\Users\EDULU~1.DES\AppData\Local\Temp\ccmSuQZN.s 			page 94


 3791 0d9a 7869     		.2byte	0x6978
 3792 0d9c 23       		.uleb128 0x23
 3793 0d9d 42170000 		.4byte	.LASF242
 3794 0da1 7969     		.2byte	0x6979
 3795 0da3 23       		.uleb128 0x23
 3796 0da4 57010000 		.4byte	.LASF243
 3797 0da8 7A69     		.2byte	0x697a
 3798 0daa 23       		.uleb128 0x23
 3799 0dab 581C0000 		.4byte	.LASF244
 3800 0daf 7B69     		.2byte	0x697b
 3801 0db1 23       		.uleb128 0x23
 3802 0db2 31060000 		.4byte	.LASF245
 3803 0db6 606D     		.2byte	0x6d60
 3804 0db8 23       		.uleb128 0x23
 3805 0db9 3F130000 		.4byte	.LASF246
 3806 0dbd 616D     		.2byte	0x6d61
 3807 0dbf 23       		.uleb128 0x23
 3808 0dc0 1E1F0000 		.4byte	.LASF247
 3809 0dc4 626D     		.2byte	0x6d62
 3810 0dc6 23       		.uleb128 0x23
 3811 0dc7 7B010000 		.4byte	.LASF248
 3812 0dcb 636D     		.2byte	0x6d63
 3813 0dcd 23       		.uleb128 0x23
 3814 0dce 240B0000 		.4byte	.LASF249
 3815 0dd2 646D     		.2byte	0x6d64
 3816 0dd4 23       		.uleb128 0x23
 3817 0dd5 140A0000 		.4byte	.LASF250
 3818 0dd9 656D     		.2byte	0x6d65
 3819 0ddb 23       		.uleb128 0x23
 3820 0ddc 6C010000 		.4byte	.LASF251
 3821 0de0 C56D     		.2byte	0x6dc5
 3822 0de2 23       		.uleb128 0x23
 3823 0de3 F5130000 		.4byte	.LASF252
 3824 0de7 C66D     		.2byte	0x6dc6
 3825 0de9 23       		.uleb128 0x23
 3826 0dea 661A0000 		.4byte	.LASF253
 3827 0dee 296E     		.2byte	0x6e29
 3828 0df0 23       		.uleb128 0x23
 3829 0df1 D8100000 		.4byte	.LASF254
 3830 0df5 2A6E     		.2byte	0x6e2a
 3831 0df7 23       		.uleb128 0x23
 3832 0df8 23020000 		.4byte	.LASF255
 3833 0dfc 2B6E     		.2byte	0x6e2b
 3834 0dfe 23       		.uleb128 0x23
 3835 0dff 31090000 		.4byte	.LASF256
 3836 0e03 2C6E     		.2byte	0x6e2c
 3837 0e05 23       		.uleb128 0x23
 3838 0e06 92070000 		.4byte	.LASF257
 3839 0e0a 2D6E     		.2byte	0x6e2d
 3840 0e0c 23       		.uleb128 0x23
 3841 0e0d 9D180000 		.4byte	.LASF258
 3842 0e11 2E6E     		.2byte	0x6e2e
 3843 0e13 23       		.uleb128 0x23
 3844 0e14 DB120000 		.4byte	.LASF259
 3845 0e18 2F6E     		.2byte	0x6e2f
 3846 0e1a 23       		.uleb128 0x23
 3847 0e1b EF080000 		.4byte	.LASF260
ARM GAS  C:\Users\EDULU~1.DES\AppData\Local\Temp\ccmSuQZN.s 			page 95


 3848 0e1f 306E     		.2byte	0x6e30
 3849 0e21 23       		.uleb128 0x23
 3850 0e22 12110000 		.4byte	.LASF261
 3851 0e26 316E     		.2byte	0x6e31
 3852 0e28 23       		.uleb128 0x23
 3853 0e29 3A060000 		.4byte	.LASF262
 3854 0e2d 4871     		.2byte	0x7148
 3855 0e2f 23       		.uleb128 0x23
 3856 0e30 131E0000 		.4byte	.LASF263
 3857 0e34 4971     		.2byte	0x7149
 3858 0e36 23       		.uleb128 0x23
 3859 0e37 C40C0000 		.4byte	.LASF264
 3860 0e3b 4A71     		.2byte	0x714a
 3861 0e3d 23       		.uleb128 0x23
 3862 0e3e 50140000 		.4byte	.LASF265
 3863 0e42 4B71     		.2byte	0x714b
 3864 0e44 23       		.uleb128 0x23
 3865 0e45 811D0000 		.4byte	.LASF266
 3866 0e49 4C71     		.2byte	0x714c
 3867 0e4b 23       		.uleb128 0x23
 3868 0e4c C5170000 		.4byte	.LASF267
 3869 0e50 4D71     		.2byte	0x714d
 3870 0e52 23       		.uleb128 0x23
 3871 0e53 45100000 		.4byte	.LASF268
 3872 0e57 4E71     		.2byte	0x714e
 3873 0e59 23       		.uleb128 0x23
 3874 0e5a 7C1A0000 		.4byte	.LASF269
 3875 0e5e 4F71     		.2byte	0x714f
 3876 0e60 23       		.uleb128 0x23
 3877 0e61 06030000 		.4byte	.LASF270
 3878 0e65 5071     		.2byte	0x7150
 3879 0e67 23       		.uleb128 0x23
 3880 0e68 860D0000 		.4byte	.LASF271
 3881 0e6c 5171     		.2byte	0x7151
 3882 0e6e 23       		.uleb128 0x23
 3883 0e6f 74140000 		.4byte	.LASF272
 3884 0e73 5271     		.2byte	0x7152
 3885 0e75 23       		.uleb128 0x23
 3886 0e76 17090000 		.4byte	.LASF273
 3887 0e7a 5371     		.2byte	0x7153
 3888 0e7c 23       		.uleb128 0x23
 3889 0e7d 82070000 		.4byte	.LASF274
 3890 0e81 5471     		.2byte	0x7154
 3891 0e83 23       		.uleb128 0x23
 3892 0e84 610D0000 		.4byte	.LASF275
 3893 0e88 5571     		.2byte	0x7155
 3894 0e8a 23       		.uleb128 0x23
 3895 0e8b AC150000 		.4byte	.LASF276
 3896 0e8f 5671     		.2byte	0x7156
 3897 0e91 23       		.uleb128 0x23
 3898 0e92 50150000 		.4byte	.LASF277
 3899 0e96 5771     		.2byte	0x7157
 3900 0e98 23       		.uleb128 0x23
 3901 0e99 E31D0000 		.4byte	.LASF278
 3902 0e9d 5871     		.2byte	0x7158
 3903 0e9f 23       		.uleb128 0x23
 3904 0ea0 0C0E0000 		.4byte	.LASF279
ARM GAS  C:\Users\EDULU~1.DES\AppData\Local\Temp\ccmSuQZN.s 			page 96


 3905 0ea4 5971     		.2byte	0x7159
 3906 0ea6 23       		.uleb128 0x23
 3907 0ea7 03050000 		.4byte	.LASF280
 3908 0eab 5A71     		.2byte	0x715a
 3909 0ead 23       		.uleb128 0x23
 3910 0eae 25140000 		.4byte	.LASF281
 3911 0eb2 5B71     		.2byte	0x715b
 3912 0eb4 23       		.uleb128 0x23
 3913 0eb5 FD180000 		.4byte	.LASF282
 3914 0eb9 5C71     		.2byte	0x715c
 3915 0ebb 23       		.uleb128 0x23
 3916 0ebc E00A0000 		.4byte	.LASF283
 3917 0ec0 5D71     		.2byte	0x715d
 3918 0ec2 23       		.uleb128 0x23
 3919 0ec3 201D0000 		.4byte	.LASF284
 3920 0ec7 5E71     		.2byte	0x715e
 3921 0ec9 23       		.uleb128 0x23
 3922 0eca 151B0000 		.4byte	.LASF285
 3923 0ece 5F71     		.2byte	0x715f
 3924 0ed0 23       		.uleb128 0x23
 3925 0ed1 82030000 		.4byte	.LASF286
 3926 0ed5 AD71     		.2byte	0x71ad
 3927 0ed7 23       		.uleb128 0x23
 3928 0ed8 3B020000 		.4byte	.LASF287
 3929 0edc C071     		.2byte	0x71c0
 3930 0ede 23       		.uleb128 0x23
 3931 0edf 2F040000 		.4byte	.LASF288
 3932 0ee3 C171     		.2byte	0x71c1
 3933 0ee5 23       		.uleb128 0x23
 3934 0ee6 240E0000 		.4byte	.LASF289
 3935 0eea C271     		.2byte	0x71c2
 3936 0eec 23       		.uleb128 0x23
 3937 0eed 6F1D0000 		.4byte	.LASF290
 3938 0ef1 C371     		.2byte	0x71c3
 3939 0ef3 23       		.uleb128 0x23
 3940 0ef4 B7090000 		.4byte	.LASF291
 3941 0ef8 C471     		.2byte	0x71c4
 3942 0efa 23       		.uleb128 0x23
 3943 0efb 571E0000 		.4byte	.LASF292
 3944 0eff 1172     		.2byte	0x7211
 3945 0f01 23       		.uleb128 0x23
 3946 0f02 741C0000 		.4byte	.LASF293
 3947 0f06 1272     		.2byte	0x7212
 3948 0f08 23       		.uleb128 0x23
 3949 0f09 E7060000 		.4byte	.LASF294
 3950 0f0d 1372     		.2byte	0x7213
 3951 0f0f 23       		.uleb128 0x23
 3952 0f10 B41C0000 		.4byte	.LASF295
 3953 0f14 1472     		.2byte	0x7214
 3954 0f16 23       		.uleb128 0x23
 3955 0f17 CB1C0000 		.4byte	.LASF296
 3956 0f1b 7572     		.2byte	0x7275
 3957 0f1d 23       		.uleb128 0x23
 3958 0f1e 83090000 		.4byte	.LASF297
 3959 0f22 7672     		.2byte	0x7276
 3960 0f24 23       		.uleb128 0x23
 3961 0f25 FC1E0000 		.4byte	.LASF298
ARM GAS  C:\Users\EDULU~1.DES\AppData\Local\Temp\ccmSuQZN.s 			page 97


 3962 0f29 7772     		.2byte	0x7277
 3963 0f2b 23       		.uleb128 0x23
 3964 0f2c 720A0000 		.4byte	.LASF299
 3965 0f30 7872     		.2byte	0x7278
 3966 0f32 23       		.uleb128 0x23
 3967 0f33 3D0E0000 		.4byte	.LASF300
 3968 0f37 7972     		.2byte	0x7279
 3969 0f39 23       		.uleb128 0x23
 3970 0f3a C20B0000 		.4byte	.LASF301
 3971 0f3e 7A72     		.2byte	0x727a
 3972 0f40 23       		.uleb128 0x23
 3973 0f41 36190000 		.4byte	.LASF302
 3974 0f45 7B72     		.2byte	0x727b
 3975 0f47 23       		.uleb128 0x23
 3976 0f48 F2020000 		.4byte	.LASF303
 3977 0f4c 7C72     		.2byte	0x727c
 3978 0f4e 23       		.uleb128 0x23
 3979 0f4f 8C1C0000 		.4byte	.LASF304
 3980 0f53 7D72     		.2byte	0x727d
 3981 0f55 23       		.uleb128 0x23
 3982 0f56 8E060000 		.4byte	.LASF305
 3983 0f5a 7E72     		.2byte	0x727e
 3984 0f5c 23       		.uleb128 0x23
 3985 0f5d 220C0000 		.4byte	.LASF306
 3986 0f61 D972     		.2byte	0x72d9
 3987 0f63 23       		.uleb128 0x23
 3988 0f64 901A0000 		.4byte	.LASF307
 3989 0f68 3D73     		.2byte	0x733d
 3990 0f6a 23       		.uleb128 0x23
 3991 0f6b 6B090000 		.4byte	.LASF308
 3992 0f6f 3E73     		.2byte	0x733e
 3993 0f71 23       		.uleb128 0x23
 3994 0f72 AB110000 		.4byte	.LASF309
 3995 0f76 3F73     		.2byte	0x733f
 3996 0f78 23       		.uleb128 0x23
 3997 0f79 DD1A0000 		.4byte	.LASF310
 3998 0f7d 4073     		.2byte	0x7340
 3999 0f7f 23       		.uleb128 0x23
 4000 0f80 9E090000 		.4byte	.LASF311
 4001 0f84 4173     		.2byte	0x7341
 4002 0f86 23       		.uleb128 0x23
 4003 0f87 90100000 		.4byte	.LASF312
 4004 0f8b 4273     		.2byte	0x7342
 4005 0f8d 23       		.uleb128 0x23
 4006 0f8e 491C0000 		.4byte	.LASF313
 4007 0f92 4373     		.2byte	0x7343
 4008 0f94 23       		.uleb128 0x23
 4009 0f95 77150000 		.4byte	.LASF314
 4010 0f99 4473     		.2byte	0x7344
 4011 0f9b 23       		.uleb128 0x23
 4012 0f9c 090D0000 		.4byte	.LASF315
 4013 0fa0 4573     		.2byte	0x7345
 4014 0fa2 23       		.uleb128 0x23
 4015 0fa3 08010000 		.4byte	.LASF316
 4016 0fa7 4673     		.2byte	0x7346
 4017 0fa9 23       		.uleb128 0x23
 4018 0faa 4C000000 		.4byte	.LASF317
ARM GAS  C:\Users\EDULU~1.DES\AppData\Local\Temp\ccmSuQZN.s 			page 98


 4019 0fae 4773     		.2byte	0x7347
 4020 0fb0 23       		.uleb128 0x23
 4021 0fb1 1E160000 		.4byte	.LASF318
 4022 0fb5 4873     		.2byte	0x7348
 4023 0fb7 23       		.uleb128 0x23
 4024 0fb8 E1000000 		.4byte	.LASF319
 4025 0fbc 4973     		.2byte	0x7349
 4026 0fbe 23       		.uleb128 0x23
 4027 0fbf 43060000 		.4byte	.LASF320
 4028 0fc3 3075     		.2byte	0x7530
 4029 0fc5 23       		.uleb128 0x23
 4030 0fc6 4C060000 		.4byte	.LASF321
 4031 0fca 1879     		.2byte	0x7918
 4032 0fcc 23       		.uleb128 0x23
 4033 0fcd 55060000 		.4byte	.LASF322
 4034 0fd1 007D     		.2byte	0x7d00
 4035 0fd3 23       		.uleb128 0x23
 4036 0fd4 5E060000 		.4byte	.LASF323
 4037 0fd8 E880     		.2byte	0x80e8
 4038 0fda 23       		.uleb128 0x23
 4039 0fdb 67060000 		.4byte	.LASF324
 4040 0fdf D084     		.2byte	0x84d0
 4041 0fe1 23       		.uleb128 0x23
 4042 0fe2 34100000 		.4byte	.LASF325
 4043 0fe6 D184     		.2byte	0x84d1
 4044 0fe8 23       		.uleb128 0x23
 4045 0fe9 70060000 		.4byte	.LASF326
 4046 0fed B888     		.2byte	0x88b8
 4047 0fef 00       		.byte	0
 4048 0ff0 0B       		.uleb128 0xb
 4049 0ff1 E6040000 		.4byte	.LASF327
 4050 0ff5 0A       		.byte	0xa
 4051 0ff6 7202     		.2byte	0x272
 4052 0ff8 03       		.byte	0x3
 4053 0ff9 760B0000 		.4byte	0xb76
 4054 0ffd 0B       		.uleb128 0xb
 4055 0ffe 70190000 		.4byte	.LASF328
 4056 1002 0A       		.byte	0xa
 4057 1003 8202     		.2byte	0x282
 4058 1005 26       		.byte	0x26
 4059 1006 0A100000 		.4byte	0x100a
 4060 100a 1B       		.uleb128 0x1b
 4061 100b C1080000 		.4byte	.LASF329
 4062 100f 10       		.byte	0x10
 4063 1010 0A       		.byte	0xa
 4064 1011 4003     		.2byte	0x340
 4065 1013 09       		.byte	0x9
 4066 1014 51100000 		.4byte	0x1051
 4067 1018 19       		.uleb128 0x19
 4068 1019 77190000 		.4byte	.LASF330
 4069 101d 0A       		.byte	0xa
 4070 101e 4103     		.2byte	0x341
 4071 1020 1A       		.byte	0x1a
 4072 1021 2F160000 		.4byte	0x162f
 4073 1025 00       		.byte	0
 4074 1026 19       		.uleb128 0x19
 4075 1027 3F010000 		.4byte	.LASF331
ARM GAS  C:\Users\EDULU~1.DES\AppData\Local\Temp\ccmSuQZN.s 			page 99


 4076 102b 0A       		.byte	0xa
 4077 102c 4203     		.2byte	0x342
 4078 102e 1A       		.byte	0x1a
 4079 102f D0000000 		.4byte	0xd0
 4080 1033 04       		.byte	0x4
 4081 1034 19       		.uleb128 0x19
 4082 1035 C81A0000 		.4byte	.LASF332
 4083 1039 0A       		.byte	0xa
 4084 103a 4303     		.2byte	0x343
 4085 103c 1A       		.byte	0x1a
 4086 103d A30A0000 		.4byte	0xaa3
 4087 1041 08       		.byte	0x8
 4088 1042 19       		.uleb128 0x19
 4089 1043 75080000 		.4byte	.LASF333
 4090 1047 0A       		.byte	0xa
 4091 1048 4403     		.2byte	0x344
 4092 104a 1A       		.byte	0x1a
 4093 104b C2090000 		.4byte	0x9c2
 4094 104f 0C       		.byte	0xc
 4095 1050 00       		.byte	0
 4096 1051 0B       		.uleb128 0xb
 4097 1052 981E0000 		.4byte	.LASF334
 4098 1056 0A       		.byte	0xa
 4099 1057 8802     		.2byte	0x288
 4100 1059 26       		.byte	0x26
 4101 105a 5E100000 		.4byte	0x105e
 4102 105e 0C       		.uleb128 0xc
 4103 105f F1100000 		.4byte	.LASF335
 4104 1063 0B       		.uleb128 0xb
 4105 1064 C41E0000 		.4byte	.LASF336
 4106 1068 0A       		.byte	0xa
 4107 1069 8C02     		.2byte	0x28c
 4108 106b 26       		.byte	0x26
 4109 106c 70100000 		.4byte	0x1070
 4110 1070 1B       		.uleb128 0x1b
 4111 1071 B2010000 		.4byte	.LASF337
 4112 1075 28       		.byte	0x28
 4113 1076 0A       		.byte	0xa
 4114 1077 9503     		.2byte	0x395
 4115 1079 09       		.byte	0x9
 4116 107a EE100000 		.4byte	0x10ee
 4117 107e 19       		.uleb128 0x19
 4118 107f C6120000 		.4byte	.LASF338
 4119 1083 0A       		.byte	0xa
 4120 1084 9703     		.2byte	0x397
 4121 1086 1A       		.byte	0x1a
 4122 1087 D10A0000 		.4byte	0xad1
 4123 108b 00       		.byte	0
 4124 108c 19       		.uleb128 0x19
 4125 108d FD190000 		.4byte	.LASF339
 4126 1091 0A       		.byte	0xa
 4127 1092 9803     		.2byte	0x398
 4128 1094 1A       		.byte	0x1a
 4129 1095 29160000 		.4byte	0x1629
 4130 1099 04       		.byte	0x4
 4131 109a 19       		.uleb128 0x19
 4132 109b 190C0000 		.4byte	.LASF340
ARM GAS  C:\Users\EDULU~1.DES\AppData\Local\Temp\ccmSuQZN.s 			page 100


 4133 109f 0A       		.byte	0xa
 4134 10a0 9903     		.2byte	0x399
 4135 10a2 1A       		.byte	0x1a
 4136 10a3 61150000 		.4byte	0x1561
 4137 10a7 08       		.byte	0x8
 4138 10a8 19       		.uleb128 0x19
 4139 10a9 18070000 		.4byte	.LASF341
 4140 10ad 0A       		.byte	0xa
 4141 10ae 9B03     		.2byte	0x39b
 4142 10b0 1A       		.byte	0x1a
 4143 10b1 3A160000 		.4byte	0x163a
 4144 10b5 14       		.byte	0x14
 4145 10b6 19       		.uleb128 0x19
 4146 10b7 581B0000 		.4byte	.LASF342
 4147 10bb 0A       		.byte	0xa
 4148 10bc 9C03     		.2byte	0x39c
 4149 10be 1A       		.byte	0x1a
 4150 10bf 3A160000 		.4byte	0x163a
 4151 10c3 18       		.byte	0x18
 4152 10c4 19       		.uleb128 0x19
 4153 10c5 B3060000 		.4byte	.LASF343
 4154 10c9 0A       		.byte	0xa
 4155 10ca 9D03     		.2byte	0x39d
 4156 10cc 1A       		.byte	0x1a
 4157 10cd 29160000 		.4byte	0x1629
 4158 10d1 1C       		.byte	0x1c
 4159 10d2 24       		.uleb128 0x24
 4160 10d3 43747200 		.ascii	"Ctr\000"
 4161 10d7 0A       		.byte	0xa
 4162 10d8 A003     		.2byte	0x3a0
 4163 10da 1A       		.byte	0x1a
 4164 10db 230B0000 		.4byte	0xb23
 4165 10df 20       		.byte	0x20
 4166 10e0 24       		.uleb128 0x24
 4167 10e1 545300   		.ascii	"TS\000"
 4168 10e4 0A       		.byte	0xa
 4169 10e5 A103     		.2byte	0x3a1
 4170 10e7 1A       		.byte	0x1a
 4171 10e8 C2090000 		.4byte	0x9c2
 4172 10ec 24       		.byte	0x24
 4173 10ed 00       		.byte	0
 4174 10ee 0B       		.uleb128 0xb
 4175 10ef BF1B0000 		.4byte	.LASF344
 4176 10f3 0A       		.byte	0xa
 4177 10f4 8E02     		.2byte	0x28e
 4178 10f6 26       		.byte	0x26
 4179 10f7 BF000000 		.4byte	0xbf
 4180 10fb 0B       		.uleb128 0xb
 4181 10fc F4000000 		.4byte	.LASF345
 4182 1100 0A       		.byte	0xa
 4183 1101 9002     		.2byte	0x290
 4184 1103 26       		.byte	0x26
 4185 1104 08110000 		.4byte	0x1108
 4186 1108 1B       		.uleb128 0x1b
 4187 1109 5D020000 		.4byte	.LASF346
 4188 110d 7C       		.byte	0x7c
 4189 110e 0A       		.byte	0xa
ARM GAS  C:\Users\EDULU~1.DES\AppData\Local\Temp\ccmSuQZN.s 			page 101


 4190 110f AB03     		.2byte	0x3ab
 4191 1111 08       		.byte	0x8
 4192 1112 00130000 		.4byte	0x1300
 4193 1116 19       		.uleb128 0x19
 4194 1117 43070000 		.4byte	.LASF347
 4195 111b 0A       		.byte	0xa
 4196 111c AC03     		.2byte	0x3ac
 4197 111e 1A       		.byte	0x1a
 4198 111f 6B0B0000 		.4byte	0xb6b
 4199 1123 00       		.byte	0
 4200 1124 19       		.uleb128 0x19
 4201 1125 B0070000 		.4byte	.LASF348
 4202 1129 0A       		.byte	0xa
 4203 112a AE03     		.2byte	0x3ae
 4204 112c 1A       		.byte	0x1a
 4205 112d D0000000 		.4byte	0xd0
 4206 1131 04       		.byte	0x4
 4207 1132 19       		.uleb128 0x19
 4208 1133 4E090000 		.4byte	.LASF349
 4209 1137 0A       		.byte	0xa
 4210 1138 B003     		.2byte	0x3b0
 4211 113a 1A       		.byte	0x1a
 4212 113b 6B0B0000 		.4byte	0xb6b
 4213 113f 08       		.byte	0x8
 4214 1140 19       		.uleb128 0x19
 4215 1141 77190000 		.4byte	.LASF330
 4216 1145 0A       		.byte	0xa
 4217 1146 B203     		.2byte	0x3b2
 4218 1148 1A       		.byte	0x1a
 4219 1149 17160000 		.4byte	0x1617
 4220 114d 0C       		.byte	0xc
 4221 114e 19       		.uleb128 0x19
 4222 114f 80180000 		.4byte	.LASF350
 4223 1153 0A       		.byte	0xa
 4224 1154 B303     		.2byte	0x3b3
 4225 1156 1A       		.byte	0x1a
 4226 1157 17160000 		.4byte	0x1617
 4227 115b 10       		.byte	0x10
 4228 115c 19       		.uleb128 0x19
 4229 115d 20000000 		.4byte	.LASF351
 4230 1161 0A       		.byte	0xa
 4231 1162 B503     		.2byte	0x3b5
 4232 1164 1A       		.byte	0x1a
 4233 1165 17160000 		.4byte	0x1617
 4234 1169 14       		.byte	0x14
 4235 116a 19       		.uleb128 0x19
 4236 116b 100B0000 		.4byte	.LASF352
 4237 116f 0A       		.byte	0xa
 4238 1170 B603     		.2byte	0x3b6
 4239 1172 1A       		.byte	0x1a
 4240 1173 17160000 		.4byte	0x1617
 4241 1177 18       		.byte	0x18
 4242 1178 19       		.uleb128 0x19
 4243 1179 88180000 		.4byte	.LASF353
 4244 117d 0A       		.byte	0xa
 4245 117e B803     		.2byte	0x3b8
 4246 1180 1A       		.byte	0x1a
ARM GAS  C:\Users\EDULU~1.DES\AppData\Local\Temp\ccmSuQZN.s 			page 102


 4247 1181 40160000 		.4byte	0x1640
 4248 1185 1C       		.byte	0x1c
 4249 1186 19       		.uleb128 0x19
 4250 1187 FD190000 		.4byte	.LASF339
 4251 118b 0A       		.byte	0xa
 4252 118c BA03     		.2byte	0x3ba
 4253 118e 1A       		.byte	0x1a
 4254 118f 29160000 		.4byte	0x1629
 4255 1193 20       		.byte	0x20
 4256 1194 19       		.uleb128 0x19
 4257 1195 291B0000 		.4byte	.LASF354
 4258 1199 0A       		.byte	0xa
 4259 119a BC03     		.2byte	0x3bc
 4260 119c 1A       		.byte	0x1a
 4261 119d 6B0B0000 		.4byte	0xb6b
 4262 11a1 24       		.byte	0x24
 4263 11a2 19       		.uleb128 0x19
 4264 11a3 04140000 		.4byte	.LASF355
 4265 11a7 0A       		.byte	0xa
 4266 11a8 C203     		.2byte	0x3c2
 4267 11aa 1A       		.byte	0x1a
 4268 11ab EE100000 		.4byte	0x10ee
 4269 11af 28       		.byte	0x28
 4270 11b0 19       		.uleb128 0x19
 4271 11b1 16180000 		.4byte	.LASF356
 4272 11b5 0A       		.byte	0xa
 4273 11b6 C303     		.2byte	0x3c3
 4274 11b8 1A       		.byte	0x1a
 4275 11b9 D0000000 		.4byte	0xd0
 4276 11bd 2C       		.byte	0x2c
 4277 11be 19       		.uleb128 0x19
 4278 11bf 7B080000 		.4byte	.LASF357
 4279 11c3 0A       		.byte	0xa
 4280 11c4 C503     		.2byte	0x3c5
 4281 11c6 1A       		.byte	0x1a
 4282 11c7 1D160000 		.4byte	0x161d
 4283 11cb 30       		.byte	0x30
 4284 11cc 19       		.uleb128 0x19
 4285 11cd 22170000 		.4byte	.LASF358
 4286 11d1 0A       		.byte	0xa
 4287 11d2 C603     		.2byte	0x3c6
 4288 11d4 1A       		.byte	0x1a
 4289 11d5 2F0B0000 		.4byte	0xb2f
 4290 11d9 34       		.byte	0x34
 4291 11da 19       		.uleb128 0x19
 4292 11db 001B0000 		.4byte	.LASF359
 4293 11df 0A       		.byte	0xa
 4294 11e0 C703     		.2byte	0x3c7
 4295 11e2 1A       		.byte	0x1a
 4296 11e3 3B0B0000 		.4byte	0xb3b
 4297 11e7 35       		.byte	0x35
 4298 11e8 19       		.uleb128 0x19
 4299 11e9 57110000 		.4byte	.LASF360
 4300 11ed 0A       		.byte	0xa
 4301 11ee C903     		.2byte	0x3c9
 4302 11f0 1A       		.byte	0x1a
 4303 11f1 2F0B0000 		.4byte	0xb2f
ARM GAS  C:\Users\EDULU~1.DES\AppData\Local\Temp\ccmSuQZN.s 			page 103


 4304 11f5 36       		.byte	0x36
 4305 11f6 19       		.uleb128 0x19
 4306 11f7 F71D0000 		.4byte	.LASF361
 4307 11fb 0A       		.byte	0xa
 4308 11fc CA03     		.2byte	0x3ca
 4309 11fe 1A       		.byte	0x1a
 4310 11ff E90A0000 		.4byte	0xae9
 4311 1203 37       		.byte	0x37
 4312 1204 19       		.uleb128 0x19
 4313 1205 130F0000 		.4byte	.LASF362
 4314 1209 0A       		.byte	0xa
 4315 120a CB03     		.2byte	0x3cb
 4316 120c 1A       		.byte	0x1a
 4317 120d F6000000 		.4byte	0xf6
 4318 1211 38       		.byte	0x38
 4319 1212 24       		.uleb128 0x24
 4320 1213 4F707400 		.ascii	"Opt\000"
 4321 1217 0A       		.byte	0xa
 4322 1218 CC03     		.2byte	0x3cc
 4323 121a 1A       		.byte	0x1a
 4324 121b DD0A0000 		.4byte	0xadd
 4325 121f 3C       		.byte	0x3c
 4326 1220 19       		.uleb128 0x19
 4327 1221 2C000000 		.4byte	.LASF363
 4328 1225 0A       		.byte	0xa
 4329 1226 CE03     		.2byte	0x3ce
 4330 1228 1A       		.byte	0x1a
 4331 1229 C00A0000 		.4byte	0xac0
 4332 122d 3E       		.byte	0x3e
 4333 122e 24       		.uleb128 0x24
 4334 122f 545300   		.ascii	"TS\000"
 4335 1232 0A       		.byte	0xa
 4336 1233 D003     		.2byte	0x3d0
 4337 1235 1A       		.byte	0x1a
 4338 1236 C2090000 		.4byte	0x9c2
 4339 123a 40       		.byte	0x40
 4340 123b 19       		.uleb128 0x19
 4341 123c 0C1E0000 		.4byte	.LASF364
 4342 1240 0A       		.byte	0xa
 4343 1241 D203     		.2byte	0x3d2
 4344 1243 1A       		.byte	0x1a
 4345 1244 230B0000 		.4byte	0xb23
 4346 1248 44       		.byte	0x44
 4347 1249 19       		.uleb128 0x19
 4348 124a E6020000 		.4byte	.LASF365
 4349 124e 0A       		.byte	0xa
 4350 124f D503     		.2byte	0x3d5
 4351 1251 1A       		.byte	0x1a
 4352 1252 470B0000 		.4byte	0xb47
 4353 1256 48       		.byte	0x48
 4354 1257 19       		.uleb128 0x19
 4355 1258 A6130000 		.4byte	.LASF366
 4356 125c 0A       		.byte	0xa
 4357 125d D603     		.2byte	0x3d6
 4358 125f 1A       		.byte	0x1a
 4359 1260 470B0000 		.4byte	0xb47
 4360 1264 4C       		.byte	0x4c
ARM GAS  C:\Users\EDULU~1.DES\AppData\Local\Temp\ccmSuQZN.s 			page 104


 4361 1265 19       		.uleb128 0x19
 4362 1266 40080000 		.4byte	.LASF367
 4363 126a 0A       		.byte	0xa
 4364 126b D703     		.2byte	0x3d7
 4365 126d 1A       		.byte	0x1a
 4366 126e 470B0000 		.4byte	0xb47
 4367 1272 50       		.byte	0x50
 4368 1273 19       		.uleb128 0x19
 4369 1274 270F0000 		.4byte	.LASF368
 4370 1278 0A       		.byte	0xa
 4371 1279 D903     		.2byte	0x3d9
 4372 127b 1A       		.byte	0x1a
 4373 127c 470B0000 		.4byte	0xb47
 4374 1280 54       		.byte	0x54
 4375 1281 19       		.uleb128 0x19
 4376 1282 51040000 		.4byte	.LASF369
 4377 1286 0A       		.byte	0xa
 4378 1287 DA03     		.2byte	0x3da
 4379 1289 1A       		.byte	0x1a
 4380 128a 470B0000 		.4byte	0xb47
 4381 128e 58       		.byte	0x58
 4382 128f 19       		.uleb128 0x19
 4383 1290 5F040000 		.4byte	.LASF370
 4384 1294 0A       		.byte	0xa
 4385 1295 EA03     		.2byte	0x3ea
 4386 1297 1A       		.byte	0x1a
 4387 1298 46160000 		.4byte	0x1646
 4388 129c 5C       		.byte	0x5c
 4389 129d 19       		.uleb128 0x19
 4390 129e AB020000 		.4byte	.LASF371
 4391 12a2 0A       		.byte	0xa
 4392 12a3 F403     		.2byte	0x3f4
 4393 12a5 1A       		.byte	0x1a
 4394 12a6 B40A0000 		.4byte	0xab4
 4395 12aa 60       		.byte	0x60
 4396 12ab 19       		.uleb128 0x19
 4397 12ac EB190000 		.4byte	.LASF372
 4398 12b0 0A       		.byte	0xa
 4399 12b1 0504     		.2byte	0x405
 4400 12b3 1A       		.byte	0x1a
 4401 12b4 F6000000 		.4byte	0xf6
 4402 12b8 64       		.byte	0x64
 4403 12b9 19       		.uleb128 0x19
 4404 12ba 750E0000 		.4byte	.LASF373
 4405 12be 0A       		.byte	0xa
 4406 12bf 0604     		.2byte	0x406
 4407 12c1 1A       		.byte	0x1a
 4408 12c2 F6000000 		.4byte	0xf6
 4409 12c6 68       		.byte	0x68
 4410 12c7 19       		.uleb128 0x19
 4411 12c8 88170000 		.4byte	.LASF374
 4412 12cc 0A       		.byte	0xa
 4413 12cd 0A04     		.2byte	0x40a
 4414 12cf 1A       		.byte	0x1a
 4415 12d0 C2090000 		.4byte	0x9c2
 4416 12d4 6C       		.byte	0x6c
 4417 12d5 19       		.uleb128 0x19
ARM GAS  C:\Users\EDULU~1.DES\AppData\Local\Temp\ccmSuQZN.s 			page 105


 4418 12d6 18070000 		.4byte	.LASF341
 4419 12da 0A       		.byte	0xa
 4420 12db 1104     		.2byte	0x411
 4421 12dd 1A       		.byte	0x1a
 4422 12de 17160000 		.4byte	0x1617
 4423 12e2 70       		.byte	0x70
 4424 12e3 19       		.uleb128 0x19
 4425 12e4 581B0000 		.4byte	.LASF342
 4426 12e8 0A       		.byte	0xa
 4427 12e9 1204     		.2byte	0x412
 4428 12eb 1A       		.byte	0x1a
 4429 12ec 17160000 		.4byte	0x1617
 4430 12f0 74       		.byte	0x74
 4431 12f1 19       		.uleb128 0x19
 4432 12f2 B3060000 		.4byte	.LASF343
 4433 12f6 0A       		.byte	0xa
 4434 12f7 1304     		.2byte	0x413
 4435 12f9 1A       		.byte	0x1a
 4436 12fa 29160000 		.4byte	0x1629
 4437 12fe 78       		.byte	0x78
 4438 12ff 00       		.byte	0
 4439 1300 0B       		.uleb128 0xb
 4440 1301 701E0000 		.4byte	.LASF375
 4441 1305 0A       		.byte	0xa
 4442 1306 9C02     		.2byte	0x29c
 4443 1308 26       		.byte	0x26
 4444 1309 0D130000 		.4byte	0x130d
 4445 130d 1B       		.uleb128 0x1b
 4446 130e FA090000 		.4byte	.LASF376
 4447 1312 0C       		.byte	0xc
 4448 1313 0A       		.byte	0xa
 4449 1314 D002     		.2byte	0x2d0
 4450 1316 09       		.byte	0x9
 4451 1317 46130000 		.4byte	0x1346
 4452 131b 19       		.uleb128 0x19
 4453 131c 7A070000 		.4byte	.LASF377
 4454 1320 0A       		.byte	0xa
 4455 1321 D102     		.2byte	0x2d1
 4456 1323 1A       		.byte	0x1a
 4457 1324 17160000 		.4byte	0x1617
 4458 1328 00       		.byte	0
 4459 1329 19       		.uleb128 0x19
 4460 132a A4080000 		.4byte	.LASF378
 4461 132e 0A       		.byte	0xa
 4462 132f D202     		.2byte	0x2d2
 4463 1331 1A       		.byte	0x1a
 4464 1332 17160000 		.4byte	0x1617
 4465 1336 04       		.byte	0x4
 4466 1337 19       		.uleb128 0x19
 4467 1338 AB1A0000 		.4byte	.LASF379
 4468 133c 0A       		.byte	0xa
 4469 133d D302     		.2byte	0x2d3
 4470 133f 1A       		.byte	0x1a
 4471 1340 C00A0000 		.4byte	0xac0
 4472 1344 08       		.byte	0x8
 4473 1345 00       		.byte	0
 4474 1346 0B       		.uleb128 0xb
ARM GAS  C:\Users\EDULU~1.DES\AppData\Local\Temp\ccmSuQZN.s 			page 106


 4475 1347 7A170000 		.4byte	.LASF380
 4476 134b 0A       		.byte	0xa
 4477 134c 9E02     		.2byte	0x29e
 4478 134e 26       		.byte	0x26
 4479 134f 53130000 		.4byte	0x1353
 4480 1353 1B       		.uleb128 0x1b
 4481 1354 26100000 		.4byte	.LASF381
 4482 1358 08       		.byte	0x8
 4483 1359 0A       		.byte	0xa
 4484 135a 1E04     		.2byte	0x41e
 4485 135c 09       		.byte	0x9
 4486 135d 8C130000 		.4byte	0x138c
 4487 1361 19       		.uleb128 0x19
 4488 1362 DC110000 		.4byte	.LASF382
 4489 1366 0A       		.byte	0xa
 4490 1367 1F04     		.2byte	0x41f
 4491 1369 1A       		.byte	0x1a
 4492 136a 17160000 		.4byte	0x1617
 4493 136e 00       		.byte	0
 4494 136f 19       		.uleb128 0x19
 4495 1370 AB1A0000 		.4byte	.LASF379
 4496 1374 0A       		.byte	0xa
 4497 1375 2004     		.2byte	0x420
 4498 1377 1A       		.byte	0x1a
 4499 1378 C00A0000 		.4byte	0xac0
 4500 137c 04       		.byte	0x4
 4501 137d 19       		.uleb128 0x19
 4502 137e 91140000 		.4byte	.LASF383
 4503 1382 0A       		.byte	0xa
 4504 1383 2104     		.2byte	0x421
 4505 1385 1A       		.byte	0x1a
 4506 1386 C00A0000 		.4byte	0xac0
 4507 138a 06       		.byte	0x6
 4508 138b 00       		.byte	0
 4509 138c 0B       		.uleb128 0xb
 4510 138d 9A0D0000 		.4byte	.LASF384
 4511 1391 0A       		.byte	0xa
 4512 1392 A002     		.2byte	0x2a0
 4513 1394 26       		.byte	0x26
 4514 1395 99130000 		.4byte	0x1399
 4515 1399 06       		.uleb128 0x6
 4516 139a 04       		.byte	0x4
 4517 139b 9F130000 		.4byte	0x139f
 4518 139f 08       		.uleb128 0x8
 4519 13a0 AF130000 		.4byte	0x13af
 4520 13a4 09       		.uleb128 0x9
 4521 13a5 D0000000 		.4byte	0xd0
 4522 13a9 09       		.uleb128 0x9
 4523 13aa D0000000 		.4byte	0xd0
 4524 13ae 00       		.byte	0
 4525 13af 0B       		.uleb128 0xb
 4526 13b0 AC000000 		.4byte	.LASF385
 4527 13b4 0A       		.byte	0xa
 4528 13b5 A102     		.2byte	0x2a1
 4529 13b7 26       		.byte	0x26
 4530 13b8 BC130000 		.4byte	0x13bc
 4531 13bc 1B       		.uleb128 0x1b
ARM GAS  C:\Users\EDULU~1.DES\AppData\Local\Temp\ccmSuQZN.s 			page 107


 4532 13bd 02100000 		.4byte	.LASF386
 4533 13c1 34       		.byte	0x34
 4534 13c2 0A       		.byte	0xa
 4535 13c3 2B04     		.2byte	0x42b
 4536 13c5 09       		.byte	0x9
 4537 13c6 8F140000 		.4byte	0x148f
 4538 13ca 19       		.uleb128 0x19
 4539 13cb C6120000 		.4byte	.LASF338
 4540 13cf 0A       		.byte	0xa
 4541 13d0 2C04     		.2byte	0x42c
 4542 13d2 1A       		.byte	0x1a
 4543 13d3 D10A0000 		.4byte	0xad1
 4544 13d7 00       		.byte	0
 4545 13d8 19       		.uleb128 0x19
 4546 13d9 FD190000 		.4byte	.LASF339
 4547 13dd 0A       		.byte	0xa
 4548 13de 2D04     		.2byte	0x42d
 4549 13e0 1A       		.byte	0x1a
 4550 13e1 29160000 		.4byte	0x1629
 4551 13e5 04       		.byte	0x4
 4552 13e6 19       		.uleb128 0x19
 4553 13e7 9A010000 		.4byte	.LASF387
 4554 13eb 0A       		.byte	0xa
 4555 13ec 2E04     		.2byte	0x42e
 4556 13ee 1A       		.byte	0x1a
 4557 13ef 8C130000 		.4byte	0x138c
 4558 13f3 08       		.byte	0x8
 4559 13f4 19       		.uleb128 0x19
 4560 13f5 44050000 		.4byte	.LASF388
 4561 13f9 0A       		.byte	0xa
 4562 13fa 2F04     		.2byte	0x42f
 4563 13fc 1A       		.byte	0x1a
 4564 13fd D0000000 		.4byte	0xd0
 4565 1401 0C       		.byte	0xc
 4566 1402 19       		.uleb128 0x19
 4567 1403 77190000 		.4byte	.LASF330
 4568 1407 0A       		.byte	0xa
 4569 1408 3004     		.2byte	0x430
 4570 140a 1A       		.byte	0x1a
 4571 140b 56160000 		.4byte	0x1656
 4572 140f 10       		.byte	0x10
 4573 1410 19       		.uleb128 0x19
 4574 1411 80180000 		.4byte	.LASF350
 4575 1415 0A       		.byte	0xa
 4576 1416 3104     		.2byte	0x431
 4577 1418 1A       		.byte	0x1a
 4578 1419 56160000 		.4byte	0x1656
 4579 141d 14       		.byte	0x14
 4580 141e 19       		.uleb128 0x19
 4581 141f 65090000 		.4byte	.LASF389
 4582 1423 0A       		.byte	0xa
 4583 1424 3204     		.2byte	0x432
 4584 1426 1A       		.byte	0x1a
 4585 1427 470B0000 		.4byte	0xb47
 4586 142b 18       		.byte	0x18
 4587 142c 19       		.uleb128 0x19
 4588 142d 5C080000 		.4byte	.LASF390
ARM GAS  C:\Users\EDULU~1.DES\AppData\Local\Temp\ccmSuQZN.s 			page 108


 4589 1431 0A       		.byte	0xa
 4590 1432 3304     		.2byte	0x433
 4591 1434 1A       		.byte	0x1a
 4592 1435 470B0000 		.4byte	0xb47
 4593 1439 1C       		.byte	0x1c
 4594 143a 24       		.uleb128 0x24
 4595 143b 446C7900 		.ascii	"Dly\000"
 4596 143f 0A       		.byte	0xa
 4597 1440 3404     		.2byte	0x434
 4598 1442 1A       		.byte	0x1a
 4599 1443 470B0000 		.4byte	0xb47
 4600 1447 20       		.byte	0x20
 4601 1448 19       		.uleb128 0x19
 4602 1449 A41A0000 		.4byte	.LASF391
 4603 144d 0A       		.byte	0xa
 4604 144e 3504     		.2byte	0x435
 4605 1450 1A       		.byte	0x1a
 4606 1451 470B0000 		.4byte	0xb47
 4607 1455 24       		.byte	0x24
 4608 1456 24       		.uleb128 0x24
 4609 1457 4F707400 		.ascii	"Opt\000"
 4610 145b 0A       		.byte	0xa
 4611 145c 3604     		.2byte	0x436
 4612 145e 1A       		.byte	0x1a
 4613 145f DD0A0000 		.4byte	0xadd
 4614 1463 28       		.byte	0x28
 4615 1464 19       		.uleb128 0x19
 4616 1465 FB000000 		.4byte	.LASF392
 4617 1469 0A       		.byte	0xa
 4618 146a 3704     		.2byte	0x437
 4619 146c 1A       		.byte	0x1a
 4620 146d 2F0B0000 		.4byte	0xb2f
 4621 1471 2A       		.byte	0x2a
 4622 1472 19       		.uleb128 0x19
 4623 1473 18070000 		.4byte	.LASF341
 4624 1477 0A       		.byte	0xa
 4625 1478 3904     		.2byte	0x439
 4626 147a 1A       		.byte	0x1a
 4627 147b 56160000 		.4byte	0x1656
 4628 147f 2C       		.byte	0x2c
 4629 1480 19       		.uleb128 0x19
 4630 1481 581B0000 		.4byte	.LASF342
 4631 1485 0A       		.byte	0xa
 4632 1486 3A04     		.2byte	0x43a
 4633 1488 1A       		.byte	0x1a
 4634 1489 56160000 		.4byte	0x1656
 4635 148d 30       		.byte	0x30
 4636 148e 00       		.byte	0
 4637 148f 0B       		.uleb128 0xb
 4638 1490 D01A0000 		.4byte	.LASF393
 4639 1494 0A       		.byte	0xa
 4640 1495 A202     		.2byte	0x2a2
 4641 1497 26       		.byte	0x26
 4642 1498 9C140000 		.4byte	0x149c
 4643 149c 1B       		.uleb128 0x1b
 4644 149d 08160000 		.4byte	.LASF394
 4645 14a1 08       		.byte	0x8
ARM GAS  C:\Users\EDULU~1.DES\AppData\Local\Temp\ccmSuQZN.s 			page 109


 4646 14a2 0A       		.byte	0xa
 4647 14a3 4004     		.2byte	0x440
 4648 14a5 09       		.byte	0x9
 4649 14a6 D5140000 		.4byte	0x14d5
 4650 14aa 19       		.uleb128 0x19
 4651 14ab DC110000 		.4byte	.LASF382
 4652 14af 0A       		.byte	0xa
 4653 14b0 4104     		.2byte	0x441
 4654 14b2 1A       		.byte	0x1a
 4655 14b3 56160000 		.4byte	0x1656
 4656 14b7 00       		.byte	0
 4657 14b8 19       		.uleb128 0x19
 4658 14b9 AB1A0000 		.4byte	.LASF379
 4659 14bd 0A       		.byte	0xa
 4660 14be 4204     		.2byte	0x442
 4661 14c0 1A       		.byte	0x1a
 4662 14c1 C00A0000 		.4byte	0xac0
 4663 14c5 04       		.byte	0x4
 4664 14c6 19       		.uleb128 0x19
 4665 14c7 91140000 		.4byte	.LASF383
 4666 14cb 0A       		.byte	0xa
 4667 14cc 4304     		.2byte	0x443
 4668 14ce 1A       		.byte	0x1a
 4669 14cf C00A0000 		.4byte	0xac0
 4670 14d3 06       		.byte	0x6
 4671 14d4 00       		.byte	0
 4672 14d5 0B       		.uleb128 0xb
 4673 14d6 8F0B0000 		.4byte	.LASF395
 4674 14da 0A       		.byte	0xa
 4675 14db A502     		.2byte	0x2a5
 4676 14dd 26       		.byte	0x26
 4677 14de E2140000 		.4byte	0x14e2
 4678 14e2 1B       		.uleb128 0x1b
 4679 14e3 D5030000 		.4byte	.LASF396
 4680 14e7 20       		.byte	0x20
 4681 14e8 0A       		.byte	0xa
 4682 14e9 DD02     		.2byte	0x2dd
 4683 14eb 09       		.byte	0x9
 4684 14ec 61150000 		.4byte	0x1561
 4685 14f0 19       		.uleb128 0x19
 4686 14f1 80180000 		.4byte	.LASF350
 4687 14f5 0A       		.byte	0xa
 4688 14f6 DE02     		.2byte	0x2de
 4689 14f8 1A       		.byte	0x1a
 4690 14f9 1D160000 		.4byte	0x161d
 4691 14fd 00       		.byte	0
 4692 14fe 19       		.uleb128 0x19
 4693 14ff 77190000 		.4byte	.LASF330
 4694 1503 0A       		.byte	0xa
 4695 1504 DF02     		.2byte	0x2df
 4696 1506 1A       		.byte	0x1a
 4697 1507 1D160000 		.4byte	0x161d
 4698 150b 04       		.byte	0x4
 4699 150c 19       		.uleb128 0x19
 4700 150d DF040000 		.4byte	.LASF397
 4701 1511 0A       		.byte	0xa
 4702 1512 E002     		.2byte	0x2e0
ARM GAS  C:\Users\EDULU~1.DES\AppData\Local\Temp\ccmSuQZN.s 			page 110


 4703 1514 1A       		.byte	0x1a
 4704 1515 17160000 		.4byte	0x1617
 4705 1519 08       		.byte	0x8
 4706 151a 19       		.uleb128 0x19
 4707 151b 97190000 		.4byte	.LASF398
 4708 151f 0A       		.byte	0xa
 4709 1520 E102     		.2byte	0x2e1
 4710 1522 1A       		.byte	0x1a
 4711 1523 23160000 		.4byte	0x1623
 4712 1527 0C       		.byte	0xc
 4713 1528 19       		.uleb128 0x19
 4714 1529 21150000 		.4byte	.LASF399
 4715 152d 0A       		.byte	0xa
 4716 152e E202     		.2byte	0x2e2
 4717 1530 1A       		.byte	0x1a
 4718 1531 23160000 		.4byte	0x1623
 4719 1535 10       		.byte	0x10
 4720 1536 19       		.uleb128 0x19
 4721 1537 E51E0000 		.4byte	.LASF400
 4722 153b 0A       		.byte	0xa
 4723 153c E302     		.2byte	0x2e3
 4724 153e 1A       		.byte	0x1a
 4725 153f D0000000 		.4byte	0xd0
 4726 1543 14       		.byte	0x14
 4727 1544 19       		.uleb128 0x19
 4728 1545 9B130000 		.4byte	.LASF401
 4729 1549 0A       		.byte	0xa
 4730 154a E402     		.2byte	0x2e4
 4731 154c 1A       		.byte	0x1a
 4732 154d A30A0000 		.4byte	0xaa3
 4733 1551 18       		.byte	0x18
 4734 1552 19       		.uleb128 0x19
 4735 1553 90110000 		.4byte	.LASF402
 4736 1557 0A       		.byte	0xa
 4737 1558 E502     		.2byte	0x2e5
 4738 155a 1A       		.byte	0x1a
 4739 155b C2090000 		.4byte	0x9c2
 4740 155f 1C       		.byte	0x1c
 4741 1560 00       		.byte	0
 4742 1561 0B       		.uleb128 0xb
 4743 1562 3F000000 		.4byte	.LASF403
 4744 1566 0A       		.byte	0xa
 4745 1567 A602     		.2byte	0x2a6
 4746 1569 26       		.byte	0x26
 4747 156a 6E150000 		.4byte	0x156e
 4748 156e 1B       		.uleb128 0x1b
 4749 156f ED1C0000 		.4byte	.LASF404
 4750 1573 0C       		.byte	0xc
 4751 1574 0A       		.byte	0xa
 4752 1575 E902     		.2byte	0x2e9
 4753 1577 09       		.byte	0x9
 4754 1578 A7150000 		.4byte	0x15a7
 4755 157c 19       		.uleb128 0x19
 4756 157d 7A070000 		.4byte	.LASF377
 4757 1581 0A       		.byte	0xa
 4758 1582 EA02     		.2byte	0x2ea
 4759 1584 1A       		.byte	0x1a
ARM GAS  C:\Users\EDULU~1.DES\AppData\Local\Temp\ccmSuQZN.s 			page 111


 4760 1585 1D160000 		.4byte	0x161d
 4761 1589 00       		.byte	0
 4762 158a 19       		.uleb128 0x19
 4763 158b A4080000 		.4byte	.LASF378
 4764 158f 0A       		.byte	0xa
 4765 1590 EB02     		.2byte	0x2eb
 4766 1592 1A       		.byte	0x1a
 4767 1593 1D160000 		.4byte	0x161d
 4768 1597 04       		.byte	0x4
 4769 1598 19       		.uleb128 0x19
 4770 1599 AB1A0000 		.4byte	.LASF379
 4771 159d 0A       		.byte	0xa
 4772 159e EC02     		.2byte	0x2ec
 4773 15a0 1A       		.byte	0x1a
 4774 15a1 C00A0000 		.4byte	0xac0
 4775 15a5 08       		.byte	0x8
 4776 15a6 00       		.byte	0
 4777 15a7 0B       		.uleb128 0xb
 4778 15a8 EA0D0000 		.4byte	.LASF405
 4779 15ac 0A       		.byte	0xa
 4780 15ad A702     		.2byte	0x2a7
 4781 15af 26       		.byte	0x26
 4782 15b0 B4150000 		.4byte	0x15b4
 4783 15b4 1B       		.uleb128 0x1b
 4784 15b5 60140000 		.4byte	.LASF406
 4785 15b9 20       		.byte	0x20
 4786 15ba 0A       		.byte	0xa
 4787 15bb FF02     		.2byte	0x2ff
 4788 15bd 09       		.byte	0x9
 4789 15be 17160000 		.4byte	0x1617
 4790 15c2 19       		.uleb128 0x19
 4791 15c3 C6120000 		.4byte	.LASF338
 4792 15c7 0A       		.byte	0xa
 4793 15c8 0003     		.2byte	0x300
 4794 15ca 1A       		.byte	0x1a
 4795 15cb D10A0000 		.4byte	0xad1
 4796 15cf 00       		.byte	0
 4797 15d0 19       		.uleb128 0x19
 4798 15d1 FD190000 		.4byte	.LASF339
 4799 15d5 0A       		.byte	0xa
 4800 15d6 0103     		.2byte	0x301
 4801 15d8 1A       		.byte	0x1a
 4802 15d9 29160000 		.4byte	0x1629
 4803 15dd 04       		.byte	0x4
 4804 15de 19       		.uleb128 0x19
 4805 15df 190C0000 		.4byte	.LASF340
 4806 15e3 0A       		.byte	0xa
 4807 15e4 0203     		.2byte	0x302
 4808 15e6 1A       		.byte	0x1a
 4809 15e7 61150000 		.4byte	0x1561
 4810 15eb 08       		.byte	0x8
 4811 15ec 19       		.uleb128 0x19
 4812 15ed 18070000 		.4byte	.LASF341
 4813 15f1 0A       		.byte	0xa
 4814 15f2 0403     		.2byte	0x304
 4815 15f4 1A       		.byte	0x1a
 4816 15f5 D0000000 		.4byte	0xd0
ARM GAS  C:\Users\EDULU~1.DES\AppData\Local\Temp\ccmSuQZN.s 			page 112


 4817 15f9 14       		.byte	0x14
 4818 15fa 19       		.uleb128 0x19
 4819 15fb 581B0000 		.4byte	.LASF342
 4820 15ff 0A       		.byte	0xa
 4821 1600 0503     		.2byte	0x305
 4822 1602 1A       		.byte	0x1a
 4823 1603 D0000000 		.4byte	0xd0
 4824 1607 18       		.byte	0x18
 4825 1608 19       		.uleb128 0x19
 4826 1609 B3060000 		.4byte	.LASF343
 4827 160d 0A       		.byte	0xa
 4828 160e 0603     		.2byte	0x306
 4829 1610 1A       		.byte	0x1a
 4830 1611 29160000 		.4byte	0x1629
 4831 1615 1C       		.byte	0x1c
 4832 1616 00       		.byte	0
 4833 1617 06       		.uleb128 0x6
 4834 1618 04       		.byte	0x4
 4835 1619 FB100000 		.4byte	0x10fb
 4836 161d 06       		.uleb128 0x6
 4837 161e 04       		.byte	0x4
 4838 161f D5140000 		.4byte	0x14d5
 4839 1623 06       		.uleb128 0x6
 4840 1624 04       		.byte	0x4
 4841 1625 A7150000 		.4byte	0x15a7
 4842 1629 06       		.uleb128 0x6
 4843 162a 04       		.byte	0x4
 4844 162b 25000000 		.4byte	0x25
 4845 162f 06       		.uleb128 0x6
 4846 1630 04       		.byte	0x4
 4847 1631 FD0F0000 		.4byte	0xffd
 4848 1635 04       		.uleb128 0x4
 4849 1636 2F160000 		.4byte	0x162f
 4850 163a 06       		.uleb128 0x6
 4851 163b 04       		.byte	0x4
 4852 163c 63100000 		.4byte	0x1063
 4853 1640 06       		.uleb128 0x6
 4854 1641 04       		.byte	0x4
 4855 1642 46130000 		.4byte	0x1346
 4856 1646 0F       		.uleb128 0xf
 4857 1647 0B0B0000 		.4byte	0xb0b
 4858 164b 56160000 		.4byte	0x1656
 4859 164f 10       		.uleb128 0x10
 4860 1650 8E000000 		.4byte	0x8e
 4861 1654 00       		.byte	0
 4862 1655 00       		.byte	0
 4863 1656 06       		.uleb128 0x6
 4864 1657 04       		.byte	0x4
 4865 1658 AF130000 		.4byte	0x13af
 4866 165c 1F       		.uleb128 0x1f
 4867 165d 99000000 		.4byte	.LASF407
 4868 1661 0A       		.byte	0xa
 4869 1662 5B04     		.2byte	0x45b
 4870 1664 2D       		.byte	0x2d
 4871 1665 8B0A0000 		.4byte	0xa8b
 4872 1669 1F       		.uleb128 0x1f
 4873 166a C4190000 		.4byte	.LASF408
ARM GAS  C:\Users\EDULU~1.DES\AppData\Local\Temp\ccmSuQZN.s 			page 113


 4874 166e 0A       		.byte	0xa
 4875 166f 5C04     		.2byte	0x45c
 4876 1671 2D       		.byte	0x2d
 4877 1672 FB100000 		.4byte	0x10fb
 4878 1676 1F       		.uleb128 0x1f
 4879 1677 6A070000 		.4byte	.LASF409
 4880 167b 0A       		.byte	0xa
 4881 167c 5F04     		.2byte	0x45f
 4882 167e 2D       		.byte	0x2d
 4883 167f B40A0000 		.4byte	0xab4
 4884 1683 1F       		.uleb128 0x1f
 4885 1684 73110000 		.4byte	.LASF410
 4886 1688 0A       		.byte	0xa
 4887 1689 6104     		.2byte	0x461
 4888 168b 2D       		.byte	0x2d
 4889 168c C2090000 		.4byte	0x9c2
 4890 1690 1F       		.uleb128 0x1f
 4891 1691 FA1C0000 		.4byte	.LASF411
 4892 1695 0A       		.byte	0xa
 4893 1696 6404     		.2byte	0x464
 4894 1698 2D       		.byte	0x2d
 4895 1699 2F0B0000 		.4byte	0xb2f
 4896 169d 1F       		.uleb128 0x1f
 4897 169e C90F0000 		.4byte	.LASF412
 4898 16a2 0A       		.byte	0xa
 4899 16a3 9004     		.2byte	0x490
 4900 16a5 2D       		.byte	0x2d
 4901 16a6 E90A0000 		.4byte	0xae9
 4902 16aa 1F       		.uleb128 0x1f
 4903 16ab 09100000 		.4byte	.LASF413
 4904 16af 0A       		.byte	0xa
 4905 16b0 9104     		.2byte	0x491
 4906 16b2 2D       		.byte	0x2d
 4907 16b3 E90A0000 		.4byte	0xae9
 4908 16b7 1F       		.uleb128 0x1f
 4909 16b8 DD170000 		.4byte	.LASF414
 4910 16bc 0A       		.byte	0xa
 4911 16bd 9204     		.2byte	0x492
 4912 16bf 2D       		.byte	0x2d
 4913 16c0 E90A0000 		.4byte	0xae9
 4914 16c4 0F       		.uleb128 0xf
 4915 16c5 DE000000 		.4byte	0xde
 4916 16c9 D4160000 		.4byte	0x16d4
 4917 16cd 10       		.uleb128 0x10
 4918 16ce 8E000000 		.4byte	0x8e
 4919 16d2 00       		.byte	0
 4920 16d3 00       		.byte	0
 4921 16d4 1F       		.uleb128 0x1f
 4922 16d5 E5080000 		.4byte	.LASF415
 4923 16d9 0A       		.byte	0xa
 4924 16da 9304     		.2byte	0x493
 4925 16dc 2D       		.byte	0x2d
 4926 16dd C4160000 		.4byte	0x16c4
 4927 16e1 0F       		.uleb128 0xf
 4928 16e2 00130000 		.4byte	0x1300
 4929 16e6 F1160000 		.4byte	0x16f1
 4930 16ea 10       		.uleb128 0x10
ARM GAS  C:\Users\EDULU~1.DES\AppData\Local\Temp\ccmSuQZN.s 			page 114


 4931 16eb 8E000000 		.4byte	0x8e
 4932 16ef 1F       		.byte	0x1f
 4933 16f0 00       		.byte	0
 4934 16f1 1F       		.uleb128 0x1f
 4935 16f2 B9100000 		.4byte	.LASF416
 4936 16f6 0A       		.byte	0xa
 4937 16f7 A004     		.2byte	0x4a0
 4938 16f9 2D       		.byte	0x2d
 4939 16fa E1160000 		.4byte	0x16e1
 4940 16fe 1F       		.uleb128 0x1f
 4941 16ff D0150000 		.4byte	.LASF417
 4942 1703 0A       		.byte	0xa
 4943 1704 AD04     		.2byte	0x4ad
 4944 1706 2D       		.byte	0x2d
 4945 1707 B40A0000 		.4byte	0xab4
 4946 170b 1F       		.uleb128 0x1f
 4947 170c CB120000 		.4byte	.LASF418
 4948 1710 0A       		.byte	0xa
 4949 1711 B504     		.2byte	0x4b5
 4950 1713 2D       		.byte	0x2d
 4951 1714 3A160000 		.4byte	0x163a
 4952 1718 1F       		.uleb128 0x1f
 4953 1719 15160000 		.4byte	.LASF419
 4954 171d 0A       		.byte	0xa
 4955 171e B704     		.2byte	0x4b7
 4956 1720 2D       		.byte	0x2d
 4957 1721 C00A0000 		.4byte	0xac0
 4958 1725 1F       		.uleb128 0x1f
 4959 1726 34050000 		.4byte	.LASF420
 4960 172a 0A       		.byte	0xa
 4961 172b BC04     		.2byte	0x4bc
 4962 172d 2D       		.byte	0x2d
 4963 172e 3D000000 		.4byte	0x3d
 4964 1732 1F       		.uleb128 0x1f
 4965 1733 B9010000 		.4byte	.LASF421
 4966 1737 0A       		.byte	0xa
 4967 1738 BD04     		.2byte	0x4bd
 4968 173a 2D       		.byte	0x2d
 4969 173b 670A0000 		.4byte	0xa67
 4970 173f 1F       		.uleb128 0x1f
 4971 1740 C2000000 		.4byte	.LASF422
 4972 1744 0A       		.byte	0xa
 4973 1745 BE04     		.2byte	0x4be
 4974 1747 2D       		.byte	0x2d
 4975 1748 670A0000 		.4byte	0xa67
 4976 174c 1F       		.uleb128 0x1f
 4977 174d 060A0000 		.4byte	.LASF423
 4978 1751 0A       		.byte	0xa
 4979 1752 BF04     		.2byte	0x4bf
 4980 1754 2D       		.byte	0x2d
 4981 1755 470B0000 		.4byte	0xb47
 4982 1759 1F       		.uleb128 0x1f
 4983 175a D5020000 		.4byte	.LASF424
 4984 175e 0A       		.byte	0xa
 4985 175f C004     		.2byte	0x4c0
 4986 1761 2D       		.byte	0x2d
 4987 1762 470B0000 		.4byte	0xb47
ARM GAS  C:\Users\EDULU~1.DES\AppData\Local\Temp\ccmSuQZN.s 			page 115


 4988 1766 1F       		.uleb128 0x1f
 4989 1767 CB1E0000 		.4byte	.LASF425
 4990 176b 0A       		.byte	0xa
 4991 176c C104     		.2byte	0x4c1
 4992 176e 2D       		.byte	0x2d
 4993 176f 470B0000 		.4byte	0xb47
 4994 1773 1F       		.uleb128 0x1f
 4995 1774 3B1A0000 		.4byte	.LASF426
 4996 1778 0A       		.byte	0xa
 4997 1779 C204     		.2byte	0x4c2
 4998 177b 2D       		.byte	0x2d
 4999 177c 3D000000 		.4byte	0x3d
 5000 1780 1F       		.uleb128 0x1f
 5001 1781 F5030000 		.4byte	.LASF427
 5002 1785 0A       		.byte	0xa
 5003 1786 C304     		.2byte	0x4c3
 5004 1788 2D       		.byte	0x2d
 5005 1789 FB100000 		.4byte	0x10fb
 5006 178d 1F       		.uleb128 0x1f
 5007 178e 6E180000 		.4byte	.LASF428
 5008 1792 0A       		.byte	0xa
 5009 1793 C404     		.2byte	0x4c4
 5010 1795 2D       		.byte	0x2d
 5011 1796 C2090000 		.4byte	0x9c2
 5012 179a 1F       		.uleb128 0x1f
 5013 179b 3A180000 		.4byte	.LASF429
 5014 179f 0A       		.byte	0xa
 5015 17a0 C804     		.2byte	0x4c8
 5016 17a2 2D       		.byte	0x2d
 5017 17a3 7F0A0000 		.4byte	0xa7f
 5018 17a7 1F       		.uleb128 0x1f
 5019 17a8 B31E0000 		.4byte	.LASF430
 5020 17ac 0A       		.byte	0xa
 5021 17ad CA04     		.2byte	0x4ca
 5022 17af 2D       		.byte	0x2d
 5023 17b0 17160000 		.4byte	0x1617
 5024 17b4 1F       		.uleb128 0x1f
 5025 17b5 521A0000 		.4byte	.LASF431
 5026 17b9 0A       		.byte	0xa
 5027 17ba CC04     		.2byte	0x4cc
 5028 17bc 2D       		.byte	0x2d
 5029 17bd C00A0000 		.4byte	0xac0
 5030 17c1 1F       		.uleb128 0x1f
 5031 17c2 F40C0000 		.4byte	.LASF432
 5032 17c6 0A       		.byte	0xa
 5033 17c7 CF04     		.2byte	0x4cf
 5034 17c9 2D       		.byte	0x2d
 5035 17ca 170B0000 		.4byte	0xb17
 5036 17ce 1F       		.uleb128 0x1f
 5037 17cf 87130000 		.4byte	.LASF433
 5038 17d3 0A       		.byte	0xa
 5039 17d4 D304     		.2byte	0x4d3
 5040 17d6 2D       		.byte	0x2d
 5041 17d7 470B0000 		.4byte	0xb47
 5042 17db 1F       		.uleb128 0x1f
 5043 17dc A2190000 		.4byte	.LASF434
 5044 17e0 0A       		.byte	0xa
ARM GAS  C:\Users\EDULU~1.DES\AppData\Local\Temp\ccmSuQZN.s 			page 116


 5045 17e1 D404     		.2byte	0x4d4
 5046 17e3 2D       		.byte	0x2d
 5047 17e4 FB100000 		.4byte	0x10fb
 5048 17e8 1F       		.uleb128 0x1f
 5049 17e9 20010000 		.4byte	.LASF435
 5050 17ed 0A       		.byte	0xa
 5051 17ee D504     		.2byte	0x4d5
 5052 17f0 2D       		.byte	0x2d
 5053 17f1 C2090000 		.4byte	0x9c2
 5054 17f5 1F       		.uleb128 0x1f
 5055 17f6 7F0B0000 		.4byte	.LASF436
 5056 17fa 0A       		.byte	0xa
 5057 17fb DA04     		.2byte	0x4da
 5058 17fd 2D       		.byte	0x2d
 5059 17fe 56160000 		.4byte	0x1656
 5060 1802 1F       		.uleb128 0x1f
 5061 1803 01130000 		.4byte	.LASF437
 5062 1807 0A       		.byte	0xa
 5063 1808 DC04     		.2byte	0x4dc
 5064 180a 2D       		.byte	0x2d
 5065 180b C00A0000 		.4byte	0xac0
 5066 180f 1F       		.uleb128 0x1f
 5067 1810 0A130000 		.4byte	.LASF438
 5068 1814 0A       		.byte	0xa
 5069 1815 DD04     		.2byte	0x4dd
 5070 1817 2D       		.byte	0x2d
 5071 1818 FB100000 		.4byte	0x10fb
 5072 181c 1F       		.uleb128 0x1f
 5073 181d E81B0000 		.4byte	.LASF439
 5074 1821 0A       		.byte	0xa
 5075 1822 DE04     		.2byte	0x4de
 5076 1824 2D       		.byte	0x2d
 5077 1825 C2090000 		.4byte	0x9c2
 5078 1829 1F       		.uleb128 0x1f
 5079 182a 341B0000 		.4byte	.LASF440
 5080 182e 0A       		.byte	0xa
 5081 182f DF04     		.2byte	0x4df
 5082 1831 2D       		.byte	0x2d
 5083 1832 470B0000 		.4byte	0xb47
 5084 1836 1F       		.uleb128 0x1f
 5085 1837 AE0D0000 		.4byte	.LASF441
 5086 183b 0A       		.byte	0xa
 5087 183c E004     		.2byte	0x4e0
 5088 183e 2D       		.byte	0x2d
 5089 183f 730A0000 		.4byte	0xa73
 5090 1843 1F       		.uleb128 0x1f
 5091 1844 B0040000 		.4byte	.LASF442
 5092 1848 0A       		.byte	0xa
 5093 1849 E104     		.2byte	0x4e1
 5094 184b 2D       		.byte	0x2d
 5095 184c 730A0000 		.4byte	0xa73
 5096 1850 1F       		.uleb128 0x1f
 5097 1851 A6010000 		.4byte	.LASF443
 5098 1855 0A       		.byte	0xa
 5099 1856 E504     		.2byte	0x4e5
 5100 1858 2D       		.byte	0x2d
 5101 1859 17160000 		.4byte	0x1617
ARM GAS  C:\Users\EDULU~1.DES\AppData\Local\Temp\ccmSuQZN.s 			page 117


 5102 185d 1F       		.uleb128 0x1f
 5103 185e 93020000 		.4byte	.LASF444
 5104 1862 0A       		.byte	0xa
 5105 1863 E604     		.2byte	0x4e6
 5106 1865 2D       		.byte	0x2d
 5107 1866 17160000 		.4byte	0x1617
 5108 186a 1F       		.uleb128 0x1f
 5109 186b 2F1E0000 		.4byte	.LASF445
 5110 186f 0A       		.byte	0xa
 5111 1870 F104     		.2byte	0x4f1
 5112 1872 1D       		.byte	0x1d
 5113 1873 710B0000 		.4byte	0xb71
 5114 1877 1F       		.uleb128 0x1f
 5115 1878 CB1B0000 		.4byte	.LASF446
 5116 187c 0A       		.byte	0xa
 5117 187d F204     		.2byte	0x4f2
 5118 187f 1D       		.byte	0x1d
 5119 1880 02010000 		.4byte	0x102
 5120 1884 1F       		.uleb128 0x1f
 5121 1885 2C0A0000 		.4byte	.LASF447
 5122 1889 0A       		.byte	0xa
 5123 188a F304     		.2byte	0x4f3
 5124 188c 1D       		.byte	0x1d
 5125 188d 02010000 		.4byte	0x102
 5126 1891 1F       		.uleb128 0x1f
 5127 1892 DC130000 		.4byte	.LASF448
 5128 1896 0A       		.byte	0xa
 5129 1897 F404     		.2byte	0x4f4
 5130 1899 1D       		.byte	0x1d
 5131 189a 89000000 		.4byte	0x89
 5132 189e 1F       		.uleb128 0x1f
 5133 189f 460F0000 		.4byte	.LASF449
 5134 18a3 0A       		.byte	0xa
 5135 18a4 F604     		.2byte	0x4f6
 5136 18a6 1D       		.byte	0x1d
 5137 18a7 B1180000 		.4byte	0x18b1
 5138 18ab 06       		.uleb128 0x6
 5139 18ac 04       		.byte	0x4
 5140 18ad 51100000 		.4byte	0x1051
 5141 18b1 04       		.uleb128 0x4
 5142 18b2 AB180000 		.4byte	0x18ab
 5143 18b6 1F       		.uleb128 0x1f
 5144 18b7 DA0E0000 		.4byte	.LASF450
 5145 18bb 0A       		.byte	0xa
 5146 18bc F704     		.2byte	0x4f7
 5147 18be 1D       		.byte	0x1d
 5148 18bf CC0A0000 		.4byte	0xacc
 5149 18c3 1F       		.uleb128 0x1f
 5150 18c4 19050000 		.4byte	.LASF451
 5151 18c8 0A       		.byte	0xa
 5152 18c9 F804     		.2byte	0x4f8
 5153 18cb 1D       		.byte	0x1d
 5154 18cc 89000000 		.4byte	0x89
 5155 18d0 1F       		.uleb128 0x1f
 5156 18d1 1D190000 		.4byte	.LASF452
 5157 18d5 0A       		.byte	0xa
 5158 18d6 F904     		.2byte	0x4f9
ARM GAS  C:\Users\EDULU~1.DES\AppData\Local\Temp\ccmSuQZN.s 			page 118


 5159 18d8 1D       		.byte	0x1d
 5160 18d9 710B0000 		.4byte	0xb71
 5161 18dd 1F       		.uleb128 0x1f
 5162 18de 63000000 		.4byte	.LASF453
 5163 18e2 0A       		.byte	0xa
 5164 18e3 FA04     		.2byte	0x4fa
 5165 18e5 1D       		.byte	0x1d
 5166 18e6 02010000 		.4byte	0x102
 5167 18ea 1F       		.uleb128 0x1f
 5168 18eb 9C0B0000 		.4byte	.LASF454
 5169 18ef 0A       		.byte	0xa
 5170 18f0 FB04     		.2byte	0x4fb
 5171 18f2 1D       		.byte	0x1d
 5172 18f3 02010000 		.4byte	0x102
 5173 18f7 1F       		.uleb128 0x1f
 5174 18f8 580F0000 		.4byte	.LASF455
 5175 18fc 0A       		.byte	0xa
 5176 18fd FC04     		.2byte	0x4fc
 5177 18ff 1D       		.byte	0x1d
 5178 1900 89000000 		.4byte	0x89
 5179 1904 1F       		.uleb128 0x1f
 5180 1905 B0190000 		.4byte	.LASF456
 5181 1909 0A       		.byte	0xa
 5182 190a FE04     		.2byte	0x4fe
 5183 190c 1D       		.byte	0x1d
 5184 190d 710B0000 		.4byte	0xb71
 5185 1911 1F       		.uleb128 0x1f
 5186 1912 2A1A0000 		.4byte	.LASF457
 5187 1916 0A       		.byte	0xa
 5188 1917 FF04     		.2byte	0x4ff
 5189 1919 1D       		.byte	0x1d
 5190 191a 02010000 		.4byte	0x102
 5191 191e 1F       		.uleb128 0x1f
 5192 191f 04070000 		.4byte	.LASF458
 5193 1923 0A       		.byte	0xa
 5194 1924 0005     		.2byte	0x500
 5195 1926 1D       		.byte	0x1d
 5196 1927 89000000 		.4byte	0x89
 5197 192b 1F       		.uleb128 0x1f
 5198 192c 3E140000 		.4byte	.LASF459
 5199 1930 0A       		.byte	0xa
 5200 1931 0205     		.2byte	0x502
 5201 1933 1D       		.byte	0x1d
 5202 1934 AF0A0000 		.4byte	0xaaf
 5203 1938 1F       		.uleb128 0x1f
 5204 1939 AA120000 		.4byte	.LASF460
 5205 193d 0A       		.byte	0xa
 5206 193e 0305     		.2byte	0x503
 5207 1940 1D       		.byte	0x1d
 5208 1941 89000000 		.4byte	0x89
 5209 1945 1F       		.uleb128 0x1f
 5210 1946 341C0000 		.4byte	.LASF461
 5211 194a 0A       		.byte	0xa
 5212 194b 0405     		.2byte	0x504
 5213 194d 1D       		.byte	0x1d
 5214 194e 35160000 		.4byte	0x1635
 5215 1952 1F       		.uleb128 0x1f
ARM GAS  C:\Users\EDULU~1.DES\AppData\Local\Temp\ccmSuQZN.s 			page 119


 5216 1953 E2030000 		.4byte	.LASF462
 5217 1957 0A       		.byte	0xa
 5218 1958 0605     		.2byte	0x506
 5219 195a 1D       		.byte	0x1d
 5220 195b F50A0000 		.4byte	0xaf5
 5221 195f 1F       		.uleb128 0x1f
 5222 1960 420A0000 		.4byte	.LASF463
 5223 1964 0A       		.byte	0xa
 5224 1965 0705     		.2byte	0x507
 5225 1967 1D       		.byte	0x1d
 5226 1968 060B0000 		.4byte	0xb06
 5227 196c 1F       		.uleb128 0x1f
 5228 196d B6020000 		.4byte	.LASF464
 5229 1971 0A       		.byte	0xa
 5230 1972 0805     		.2byte	0x508
 5231 1974 1D       		.byte	0x1d
 5232 1975 710B0000 		.4byte	0xb71
 5233 1979 1F       		.uleb128 0x1f
 5234 197a 1E0D0000 		.4byte	.LASF465
 5235 197e 0A       		.byte	0xa
 5236 197f 0905     		.2byte	0x509
 5237 1981 1D       		.byte	0x1d
 5238 1982 02010000 		.4byte	0x102
 5239 1986 1F       		.uleb128 0x1f
 5240 1987 7A100000 		.4byte	.LASF466
 5241 198b 0A       		.byte	0xa
 5242 198c 0A05     		.2byte	0x50a
 5243 198e 1D       		.byte	0x1d
 5244 198f 02010000 		.4byte	0x102
 5245 1993 1F       		.uleb128 0x1f
 5246 1994 A20E0000 		.4byte	.LASF467
 5247 1998 0A       		.byte	0xa
 5248 1999 0B05     		.2byte	0x50b
 5249 199b 1D       		.byte	0x1d
 5250 199c 89000000 		.4byte	0x89
 5251 19a0 1F       		.uleb128 0x1f
 5252 19a1 080C0000 		.4byte	.LASF468
 5253 19a5 0A       		.byte	0xa
 5254 19a6 0D05     		.2byte	0x50d
 5255 19a8 1D       		.byte	0x1d
 5256 19a9 02010000 		.4byte	0x102
 5257 19ad 1F       		.uleb128 0x1f
 5258 19ae 50180000 		.4byte	.LASF469
 5259 19b2 0A       		.byte	0xa
 5260 19b3 0F05     		.2byte	0x50f
 5261 19b5 1D       		.byte	0x1d
 5262 19b6 060B0000 		.4byte	0xb06
 5263 19ba 1F       		.uleb128 0x1f
 5264 19bb 9A0F0000 		.4byte	.LASF470
 5265 19bf 0A       		.byte	0xa
 5266 19c0 1005     		.2byte	0x510
 5267 19c2 1D       		.byte	0x1d
 5268 19c3 F50A0000 		.4byte	0xaf5
 5269 19c7 1F       		.uleb128 0x1f
 5270 19c8 FD170000 		.4byte	.LASF471
 5271 19cc 0A       		.byte	0xa
 5272 19cd 1105     		.2byte	0x511
ARM GAS  C:\Users\EDULU~1.DES\AppData\Local\Temp\ccmSuQZN.s 			page 120


 5273 19cf 1D       		.byte	0x1d
 5274 19d0 710B0000 		.4byte	0xb71
 5275 19d4 1F       		.uleb128 0x1f
 5276 19d5 041D0000 		.4byte	.LASF472
 5277 19d9 0A       		.byte	0xa
 5278 19da 1205     		.2byte	0x512
 5279 19dc 1D       		.byte	0x1d
 5280 19dd 02010000 		.4byte	0x102
 5281 19e1 1F       		.uleb128 0x1f
 5282 19e2 B3180000 		.4byte	.LASF473
 5283 19e6 0A       		.byte	0xa
 5284 19e7 1305     		.2byte	0x513
 5285 19e9 1D       		.byte	0x1d
 5286 19ea 02010000 		.4byte	0x102
 5287 19ee 1F       		.uleb128 0x1f
 5288 19ef 391D0000 		.4byte	.LASF474
 5289 19f3 0A       		.byte	0xa
 5290 19f4 1405     		.2byte	0x514
 5291 19f6 1D       		.byte	0x1d
 5292 19f7 89000000 		.4byte	0x89
 5293 19fb 1F       		.uleb128 0x1f
 5294 19fc 7C1E0000 		.4byte	.LASF475
 5295 1a00 0A       		.byte	0xa
 5296 1a01 1505     		.2byte	0x515
 5297 1a03 1D       		.byte	0x1d
 5298 1a04 CC0A0000 		.4byte	0xacc
 5299 1a08 1F       		.uleb128 0x1f
 5300 1a09 8C0A0000 		.4byte	.LASF476
 5301 1a0d 0A       		.byte	0xa
 5302 1a0e 1605     		.2byte	0x516
 5303 1a10 1D       		.byte	0x1d
 5304 1a11 89000000 		.4byte	0x89
 5305 1a15 1F       		.uleb128 0x1f
 5306 1a16 00110000 		.4byte	.LASF477
 5307 1a1a 0A       		.byte	0xa
 5308 1a1b 1805     		.2byte	0x518
 5309 1a1d 1D       		.byte	0x1d
 5310 1a1e F50A0000 		.4byte	0xaf5
 5311 1a22 1F       		.uleb128 0x1f
 5312 1a23 AD0F0000 		.4byte	.LASF478
 5313 1a27 0A       		.byte	0xa
 5314 1a28 1905     		.2byte	0x519
 5315 1a2a 1D       		.byte	0x1d
 5316 1a2b 060B0000 		.4byte	0xb06
 5317 1a2f 1F       		.uleb128 0x1f
 5318 1a30 BA1D0000 		.4byte	.LASF479
 5319 1a34 0A       		.byte	0xa
 5320 1a35 1A05     		.2byte	0x51a
 5321 1a37 1D       		.byte	0x1d
 5322 1a38 710B0000 		.4byte	0xb71
 5323 1a3c 1F       		.uleb128 0x1f
 5324 1a3d 64100000 		.4byte	.LASF480
 5325 1a41 0A       		.byte	0xa
 5326 1a42 1B05     		.2byte	0x51b
 5327 1a44 1D       		.byte	0x1d
 5328 1a45 02010000 		.4byte	0x102
 5329 1a49 1F       		.uleb128 0x1f
ARM GAS  C:\Users\EDULU~1.DES\AppData\Local\Temp\ccmSuQZN.s 			page 121


 5330 1a4a 66040000 		.4byte	.LASF481
 5331 1a4e 0A       		.byte	0xa
 5332 1a4f 1C05     		.2byte	0x51c
 5333 1a51 1D       		.byte	0x1d
 5334 1a52 02010000 		.4byte	0x102
 5335 1a56 1F       		.uleb128 0x1f
 5336 1a57 DE0B0000 		.4byte	.LASF482
 5337 1a5b 0A       		.byte	0xa
 5338 1a5c 1D05     		.2byte	0x51d
 5339 1a5e 1D       		.byte	0x1d
 5340 1a5f 89000000 		.4byte	0x89
 5341 1a63 1F       		.uleb128 0x1f
 5342 1a64 CC010000 		.4byte	.LASF483
 5343 1a68 0A       		.byte	0xa
 5344 1a69 1E05     		.2byte	0x51e
 5345 1a6b 1D       		.byte	0x1d
 5346 1a6c CC0A0000 		.4byte	0xacc
 5347 1a70 1F       		.uleb128 0x1f
 5348 1a71 AB030000 		.4byte	.LASF484
 5349 1a75 0A       		.byte	0xa
 5350 1a76 1F05     		.2byte	0x51f
 5351 1a78 1D       		.byte	0x1d
 5352 1a79 89000000 		.4byte	0x89
 5353 1a7d 0F       		.uleb128 0xf
 5354 1a7e EA000000 		.4byte	0xea
 5355 1a82 881A0000 		.4byte	0x1a88
 5356 1a86 25       		.uleb128 0x25
 5357 1a87 00       		.byte	0
 5358 1a88 1F       		.uleb128 0x1f
 5359 1a89 61110000 		.4byte	.LASF485
 5360 1a8d 0A       		.byte	0xa
 5361 1a8e 2205     		.2byte	0x522
 5362 1a90 18       		.byte	0x18
 5363 1a91 7D1A0000 		.4byte	0x1a7d
 5364 1a95 1F       		.uleb128 0x1f
 5365 1a96 B70C0000 		.4byte	.LASF486
 5366 1a9a 0A       		.byte	0xa
 5367 1a9b 2905     		.2byte	0x529
 5368 1a9d 18       		.byte	0x18
 5369 1a9e 7D1A0000 		.4byte	0x1a7d
 5370 1aa2 1F       		.uleb128 0x1f
 5371 1aa3 F60B0000 		.4byte	.LASF487
 5372 1aa7 0A       		.byte	0xa
 5373 1aa8 3005     		.2byte	0x530
 5374 1aaa 18       		.byte	0x18
 5375 1aab 7D1A0000 		.4byte	0x1a7d
 5376 1aaf 1F       		.uleb128 0x1f
 5377 1ab0 DE070000 		.4byte	.LASF488
 5378 1ab4 0A       		.byte	0xa
 5379 1ab5 3305     		.2byte	0x533
 5380 1ab7 18       		.byte	0x18
 5381 1ab8 7D1A0000 		.4byte	0x1a7d
 5382 1abc 0F       		.uleb128 0xf
 5383 1abd 46130000 		.4byte	0x1346
 5384 1ac1 C71A0000 		.4byte	0x1ac7
 5385 1ac5 25       		.uleb128 0x25
 5386 1ac6 00       		.byte	0
ARM GAS  C:\Users\EDULU~1.DES\AppData\Local\Temp\ccmSuQZN.s 			page 122


 5387 1ac7 1F       		.uleb128 0x1f
 5388 1ac8 03120000 		.4byte	.LASF489
 5389 1acc 0A       		.byte	0xa
 5390 1acd 3405     		.2byte	0x534
 5391 1acf 18       		.byte	0x18
 5392 1ad0 BC1A0000 		.4byte	0x1abc
 5393 1ad4 1F       		.uleb128 0x1f
 5394 1ad5 4B080000 		.4byte	.LASF490
 5395 1ad9 0A       		.byte	0xa
 5396 1ada 3705     		.2byte	0x537
 5397 1adc 18       		.byte	0x18
 5398 1add 7D1A0000 		.4byte	0x1a7d
 5399 1ae1 0F       		.uleb128 0xf
 5400 1ae2 8F140000 		.4byte	0x148f
 5401 1ae6 EC1A0000 		.4byte	0x1aec
 5402 1aea 25       		.uleb128 0x25
 5403 1aeb 00       		.byte	0
 5404 1aec 1F       		.uleb128 0x1f
 5405 1aed 68150000 		.4byte	.LASF491
 5406 1af1 0A       		.byte	0xa
 5407 1af2 3805     		.2byte	0x538
 5408 1af4 18       		.byte	0x18
 5409 1af5 E11A0000 		.4byte	0x1ae1
 5410 1af9 26       		.uleb128 0x26
 5411 1afa 5D050000 		.4byte	.LASF499
 5412 1afe 01       		.byte	0x1
 5413 1aff 2804     		.2byte	0x428
 5414 1b01 07       		.byte	0x7
 5415 1b02 00000000 		.4byte	.LFB15
 5416 1b06 A4000000 		.4byte	.LFE15-.LFB15
 5417 1b0a 01       		.uleb128 0x1
 5418 1b0b 9C       		.byte	0x9c
 5419 1b0c 801C0000 		.4byte	0x1c80
 5420 1b10 27       		.uleb128 0x27
 5421 1b11 E21B0000 		.4byte	.LASF501
 5422 1b15 01       		.byte	0x1
 5423 1b16 2804     		.2byte	0x428
 5424 1b18 1A       		.byte	0x1a
 5425 1b19 D0000000 		.4byte	0xd0
 5426 1b1d 04000000 		.4byte	.LLST41
 5427 1b21 00000000 		.4byte	.LVUS41
 5428 1b25 28       		.uleb128 0x28
 5429 1b26 83050000 		.4byte	.LASF492
 5430 1b2a 01       		.byte	0x1
 5431 1b2b 2A04     		.2byte	0x42a
 5432 1b2d 1A       		.byte	0x1a
 5433 1b2e 3D000000 		.4byte	0x3d
 5434 1b32 29000000 		.4byte	.LLST42
 5435 1b36 25000000 		.4byte	.LVUS42
 5436 1b3a 29       		.uleb128 0x29
 5437 1b3b 65727200 		.ascii	"err\000"
 5438 1b3f 01       		.byte	0x1
 5439 1b40 2B04     		.2byte	0x42b
 5440 1b42 1A       		.byte	0x1a
 5441 1b43 F00F0000 		.4byte	0xff0
 5442 1b47 02       		.uleb128 0x2
 5443 1b48 91       		.byte	0x91
ARM GAS  C:\Users\EDULU~1.DES\AppData\Local\Temp\ccmSuQZN.s 			page 123


 5444 1b49 6E       		.sleb128 -18
 5445 1b4a 28       		.uleb128 0x28
 5446 1b4b E0060000 		.4byte	.LASF493
 5447 1b4f 01       		.byte	0x1
 5448 1b50 2C04     		.2byte	0x42c
 5449 1b52 1A       		.byte	0x1a
 5450 1b53 8C130000 		.4byte	0x138c
 5451 1b57 4B000000 		.4byte	.LLST43
 5452 1b5b 49000000 		.4byte	.LVUS43
 5453 1b5f 2A       		.uleb128 0x2a
 5454 1b60 95180000 		.4byte	.LASF502
 5455 1b64 01       		.byte	0x1
 5456 1b65 2D04     		.2byte	0x42d
 5457 1b67 1A       		.byte	0x1a
 5458 1b68 801C0000 		.4byte	0x1c80
 5459 1b6c 28       		.uleb128 0x28
 5460 1b6d F5070000 		.4byte	.LASF494
 5461 1b71 01       		.byte	0x1
 5462 1b72 2E04     		.2byte	0x42e
 5463 1b74 1A       		.byte	0x1a
 5464 1b75 56160000 		.4byte	0x1656
 5465 1b79 62000000 		.4byte	.LLST44
 5466 1b7d 5E000000 		.4byte	.LVUS44
 5467 1b81 28       		.uleb128 0x28
 5468 1b82 F6120000 		.4byte	.LASF495
 5469 1b86 01       		.byte	0x1
 5470 1b87 2F04     		.2byte	0x42f
 5471 1b89 1A       		.byte	0x1a
 5472 1b8a 56160000 		.4byte	0x1656
 5473 1b8e 84000000 		.4byte	.LLST45
 5474 1b92 80000000 		.4byte	.LVUS45
 5475 1b96 28       		.uleb128 0x28
 5476 1b97 EE110000 		.4byte	.LASF496
 5477 1b9b 01       		.byte	0x1
 5478 1b9c 3004     		.2byte	0x430
 5479 1b9e 1A       		.byte	0x1a
 5480 1b9f 530B0000 		.4byte	0xb53
 5481 1ba3 A4000000 		.4byte	.LLST46
 5482 1ba7 A2000000 		.4byte	.LVUS46
 5483 1bab 29       		.uleb128 0x29
 5484 1bac 747300   		.ascii	"ts\000"
 5485 1baf 01       		.byte	0x1
 5486 1bb0 3104     		.2byte	0x431
 5487 1bb2 1A       		.byte	0x1a
 5488 1bb3 C2090000 		.4byte	0x9c2
 5489 1bb7 02       		.uleb128 0x2
 5490 1bb8 91       		.byte	0x91
 5491 1bb9 68       		.sleb128 -24
 5492 1bba 28       		.uleb128 0x28
 5493 1bbb 10000000 		.4byte	.LASF497
 5494 1bbf 01       		.byte	0x1
 5495 1bc0 3204     		.2byte	0x432
 5496 1bc2 1A       		.byte	0x1a
 5497 1bc3 C2090000 		.4byte	0x9c2
 5498 1bc7 BD000000 		.4byte	.LLST47
 5499 1bcb B7000000 		.4byte	.LVUS47
 5500 1bcf 28       		.uleb128 0x28
ARM GAS  C:\Users\EDULU~1.DES\AppData\Local\Temp\ccmSuQZN.s 			page 124


 5501 1bd0 E61C0000 		.4byte	.LASF498
 5502 1bd4 01       		.byte	0x1
 5503 1bd5 3304     		.2byte	0x433
 5504 1bd7 1A       		.byte	0x1a
 5505 1bd8 C2090000 		.4byte	0x9c2
 5506 1bdc E8000000 		.4byte	.LLST48
 5507 1be0 E6000000 		.4byte	.LVUS48
 5508 1be4 2B       		.uleb128 0x2b
 5509 1be5 0E000000 		.4byte	.LVL183
 5510 1be9 3F1D0000 		.4byte	0x1d3f
 5511 1bed FD1B0000 		.4byte	0x1bfd
 5512 1bf1 2C       		.uleb128 0x2c
 5513 1bf2 01       		.uleb128 0x1
 5514 1bf3 50       		.byte	0x50
 5515 1bf4 02       		.uleb128 0x2
 5516 1bf5 74       		.byte	0x74
 5517 1bf6 00       		.sleb128 0
 5518 1bf7 2C       		.uleb128 0x2c
 5519 1bf8 01       		.uleb128 0x1
 5520 1bf9 51       		.byte	0x51
 5521 1bfa 01       		.uleb128 0x1
 5522 1bfb 31       		.byte	0x31
 5523 1bfc 00       		.byte	0
 5524 1bfd 2B       		.uleb128 0x2b
 5525 1bfe 28000000 		.4byte	.LVL187
 5526 1c02 861C0000 		.4byte	0x1c86
 5527 1c06 111C0000 		.4byte	0x1c11
 5528 1c0a 2C       		.uleb128 0x2c
 5529 1c0b 01       		.uleb128 0x1
 5530 1c0c 50       		.byte	0x50
 5531 1c0d 02       		.uleb128 0x2
 5532 1c0e 74       		.byte	0x74
 5533 1c0f 00       		.sleb128 0
 5534 1c10 00       		.byte	0
 5535 1c11 2D       		.uleb128 0x2d
 5536 1c12 40000000 		.4byte	.LVL189
 5537 1c16 211C0000 		.4byte	0x1c21
 5538 1c1a 2C       		.uleb128 0x2c
 5539 1c1b 01       		.uleb128 0x1
 5540 1c1c 50       		.byte	0x50
 5541 1c1d 02       		.uleb128 0x2
 5542 1c1e 74       		.byte	0x74
 5543 1c1f 00       		.sleb128 0
 5544 1c20 00       		.byte	0
 5545 1c21 2E       		.uleb128 0x2e
 5546 1c22 46000000 		.4byte	.LVL191
 5547 1c26 F5230000 		.4byte	0x23f5
 5548 1c2a 2B       		.uleb128 0x2b
 5549 1c2b 50000000 		.4byte	.LVL193
 5550 1c2f 02240000 		.4byte	0x2402
 5551 1c33 3E1C0000 		.4byte	0x1c3e
 5552 1c37 2C       		.uleb128 0x2c
 5553 1c38 01       		.uleb128 0x1
 5554 1c39 50       		.byte	0x50
 5555 1c3a 02       		.uleb128 0x2
 5556 1c3b 7D       		.byte	0x7d
 5557 1c3c 06       		.sleb128 6
ARM GAS  C:\Users\EDULU~1.DES\AppData\Local\Temp\ccmSuQZN.s 			page 125


 5558 1c3d 00       		.byte	0
 5559 1c3e 2B       		.uleb128 0x2b
 5560 1c3f 6A000000 		.4byte	.LVL195
 5561 1c43 0F240000 		.4byte	0x240f
 5562 1c47 621C0000 		.4byte	0x1c62
 5563 1c4b 2C       		.uleb128 0x2c
 5564 1c4c 01       		.uleb128 0x1
 5565 1c4d 50       		.byte	0x50
 5566 1c4e 01       		.uleb128 0x1
 5567 1c4f 30       		.byte	0x30
 5568 1c50 2C       		.uleb128 0x2c
 5569 1c51 01       		.uleb128 0x1
 5570 1c52 51       		.byte	0x51
 5571 1c53 01       		.uleb128 0x1
 5572 1c54 30       		.byte	0x30
 5573 1c55 2C       		.uleb128 0x2c
 5574 1c56 01       		.uleb128 0x1
 5575 1c57 52       		.byte	0x52
 5576 1c58 02       		.uleb128 0x2
 5577 1c59 7D       		.byte	0x7d
 5578 1c5a 00       		.sleb128 0
 5579 1c5b 2C       		.uleb128 0x2c
 5580 1c5c 01       		.uleb128 0x1
 5581 1c5d 53       		.byte	0x53
 5582 1c5e 02       		.uleb128 0x2
 5583 1c5f 7D       		.byte	0x7d
 5584 1c60 06       		.sleb128 6
 5585 1c61 00       		.byte	0
 5586 1c62 2B       		.uleb128 0x2b
 5587 1c63 72000000 		.4byte	.LVL196
 5588 1c67 1C240000 		.4byte	0x241c
 5589 1c6b 761C0000 		.4byte	0x1c76
 5590 1c6f 2C       		.uleb128 0x2c
 5591 1c70 01       		.uleb128 0x1
 5592 1c71 50       		.byte	0x50
 5593 1c72 02       		.uleb128 0x2
 5594 1c73 7D       		.byte	0x7d
 5595 1c74 06       		.sleb128 6
 5596 1c75 00       		.byte	0
 5597 1c76 2E       		.uleb128 0x2e
 5598 1c77 76000000 		.4byte	.LVL197
 5599 1c7b F5230000 		.4byte	0x23f5
 5600 1c7f 00       		.byte	0
 5601 1c80 06       		.uleb128 0x6
 5602 1c81 04       		.byte	0x4
 5603 1c82 8F140000 		.4byte	0x148f
 5604 1c86 26       		.uleb128 0x26
 5605 1c87 14150000 		.4byte	.LASF500
 5606 1c8b 01       		.byte	0x1
 5607 1c8c F903     		.2byte	0x3f9
 5608 1c8e 07       		.byte	0x7
 5609 1c8f 00000000 		.4byte	.LFB14
 5610 1c93 5C000000 		.4byte	.LFE14-.LFB14
 5611 1c97 01       		.uleb128 0x1
 5612 1c98 9C       		.byte	0x9c
 5613 1c99 FF1C0000 		.4byte	0x1cff
 5614 1c9d 27       		.uleb128 0x27
ARM GAS  C:\Users\EDULU~1.DES\AppData\Local\Temp\ccmSuQZN.s 			page 126


 5615 1c9e F5070000 		.4byte	.LASF494
 5616 1ca2 01       		.byte	0x1
 5617 1ca3 F903     		.2byte	0x3f9
 5618 1ca5 1E       		.byte	0x1e
 5619 1ca6 56160000 		.4byte	0x1656
 5620 1caa 03010000 		.4byte	.LLST28
 5621 1cae FB000000 		.4byte	.LVUS28
 5622 1cb2 2A       		.uleb128 0x2a
 5623 1cb3 95180000 		.4byte	.LASF502
 5624 1cb7 01       		.byte	0x1
 5625 1cb8 FB03     		.2byte	0x3fb
 5626 1cba 16       		.byte	0x16
 5627 1cbb 801C0000 		.4byte	0x1c80
 5628 1cbf 28       		.uleb128 0x28
 5629 1cc0 9D110000 		.4byte	.LASF503
 5630 1cc4 01       		.byte	0x1
 5631 1cc5 FC03     		.2byte	0x3fc
 5632 1cc7 16       		.byte	0x16
 5633 1cc8 56160000 		.4byte	0x1656
 5634 1ccc 3E010000 		.4byte	.LLST29
 5635 1cd0 3A010000 		.4byte	.LVUS29
 5636 1cd4 28       		.uleb128 0x28
 5637 1cd5 A4110000 		.4byte	.LASF504
 5638 1cd9 01       		.byte	0x1
 5639 1cda FD03     		.2byte	0x3fd
 5640 1cdc 16       		.byte	0x16
 5641 1cdd 56160000 		.4byte	0x1656
 5642 1ce1 5E010000 		.4byte	.LLST30
 5643 1ce5 5C010000 		.4byte	.LVUS30
 5644 1ce9 28       		.uleb128 0x28
 5645 1cea EE110000 		.4byte	.LASF496
 5646 1cee 01       		.byte	0x1
 5647 1cef FE03     		.2byte	0x3fe
 5648 1cf1 16       		.byte	0x16
 5649 1cf2 530B0000 		.4byte	0xb53
 5650 1cf6 73010000 		.4byte	.LLST31
 5651 1cfa 71010000 		.4byte	.LVUS31
 5652 1cfe 00       		.byte	0
 5653 1cff 2F       		.uleb128 0x2f
 5654 1d00 07090000 		.4byte	.LASF505
 5655 1d04 01       		.byte	0x1
 5656 1d05 DC03     		.2byte	0x3dc
 5657 1d07 07       		.byte	0x7
 5658 1d08 00000000 		.4byte	.LFB13
 5659 1d0c 24000000 		.4byte	.LFE13-.LFB13
 5660 1d10 01       		.uleb128 0x1
 5661 1d11 9C       		.byte	0x9c
 5662 1d12 3F1D0000 		.4byte	0x1d3f
 5663 1d16 28       		.uleb128 0x28
 5664 1d17 95180000 		.4byte	.LASF502
 5665 1d1b 01       		.byte	0x1
 5666 1d1c DE03     		.2byte	0x3de
 5667 1d1e 17       		.byte	0x17
 5668 1d1f 801C0000 		.4byte	0x1c80
 5669 1d23 88010000 		.4byte	.LLST26
 5670 1d27 86010000 		.4byte	.LVUS26
 5671 1d2b 30       		.uleb128 0x30
ARM GAS  C:\Users\EDULU~1.DES\AppData\Local\Temp\ccmSuQZN.s 			page 127


 5672 1d2c 6900     		.ascii	"i\000"
 5673 1d2e 01       		.byte	0x1
 5674 1d2f DF03     		.2byte	0x3df
 5675 1d31 17       		.byte	0x17
 5676 1d32 530B0000 		.4byte	0xb53
 5677 1d36 A1010000 		.4byte	.LLST27
 5678 1d3a 9B010000 		.4byte	.LVUS27
 5679 1d3e 00       		.byte	0
 5680 1d3f 26       		.uleb128 0x26
 5681 1d40 55120000 		.4byte	.LASF506
 5682 1d44 01       		.byte	0x1
 5683 1d45 8A03     		.2byte	0x38a
 5684 1d47 07       		.byte	0x7
 5685 1d48 00000000 		.4byte	.LFB12
 5686 1d4c E0000000 		.4byte	.LFE12-.LFB12
 5687 1d50 01       		.uleb128 0x1
 5688 1d51 9C       		.byte	0x9c
 5689 1d52 CD1D0000 		.4byte	0x1dcd
 5690 1d56 27       		.uleb128 0x27
 5691 1d57 F5070000 		.4byte	.LASF494
 5692 1d5b 01       		.byte	0x1
 5693 1d5c 8A03     		.2byte	0x38a
 5694 1d5e 1C       		.byte	0x1c
 5695 1d5f 56160000 		.4byte	0x1656
 5696 1d63 D7010000 		.4byte	.LLST21
 5697 1d67 CB010000 		.4byte	.LVUS21
 5698 1d6b 31       		.uleb128 0x31
 5699 1d6c 6F707400 		.ascii	"opt\000"
 5700 1d70 01       		.byte	0x1
 5701 1d71 8B03     		.2byte	0x38b
 5702 1d73 1C       		.byte	0x1c
 5703 1d74 DD0A0000 		.4byte	0xadd
 5704 1d78 2C020000 		.4byte	.LLST22
 5705 1d7c 24020000 		.4byte	.LVUS22
 5706 1d80 2A       		.uleb128 0x2a
 5707 1d81 95180000 		.4byte	.LASF502
 5708 1d85 01       		.byte	0x1
 5709 1d86 8D03     		.2byte	0x38d
 5710 1d88 17       		.byte	0x17
 5711 1d89 801C0000 		.4byte	0x1c80
 5712 1d8d 28       		.uleb128 0x28
 5713 1d8e 96110000 		.4byte	.LASF507
 5714 1d92 01       		.byte	0x1
 5715 1d93 8E03     		.2byte	0x38e
 5716 1d95 17       		.byte	0x17
 5717 1d96 56160000 		.4byte	0x1656
 5718 1d9a 68020000 		.4byte	.LLST23
 5719 1d9e 66020000 		.4byte	.LVUS23
 5720 1da2 28       		.uleb128 0x28
 5721 1da3 9D110000 		.4byte	.LASF503
 5722 1da7 01       		.byte	0x1
 5723 1da8 8F03     		.2byte	0x38f
 5724 1daa 17       		.byte	0x17
 5725 1dab 56160000 		.4byte	0x1656
 5726 1daf 81020000 		.4byte	.LLST24
 5727 1db3 7B020000 		.4byte	.LVUS24
 5728 1db7 28       		.uleb128 0x28
ARM GAS  C:\Users\EDULU~1.DES\AppData\Local\Temp\ccmSuQZN.s 			page 128


 5729 1db8 EE110000 		.4byte	.LASF496
 5730 1dbc 01       		.byte	0x1
 5731 1dbd 9003     		.2byte	0x390
 5732 1dbf 17       		.byte	0x17
 5733 1dc0 530B0000 		.4byte	0xb53
 5734 1dc4 AC020000 		.4byte	.LLST25
 5735 1dc8 AA020000 		.4byte	.LVUS25
 5736 1dcc 00       		.byte	0
 5737 1dcd 26       		.uleb128 0x26
 5738 1dce 961D0000 		.4byte	.LASF508
 5739 1dd2 01       		.byte	0x1
 5740 1dd3 3103     		.2byte	0x331
 5741 1dd5 07       		.byte	0x7
 5742 1dd6 00000000 		.4byte	.LFB11
 5743 1dda 08010000 		.4byte	.LFE11-.LFB11
 5744 1dde 01       		.uleb128 0x1
 5745 1ddf 9C       		.byte	0x9c
 5746 1de0 621E0000 		.4byte	0x1e62
 5747 1de4 27       		.uleb128 0x27
 5748 1de5 BC0A0000 		.4byte	.LASF509
 5749 1de9 01       		.byte	0x1
 5750 1dea 3103     		.2byte	0x331
 5751 1dec 1C       		.byte	0x1c
 5752 1ded 621E0000 		.4byte	0x1e62
 5753 1df1 CB020000 		.4byte	.LLST18
 5754 1df5 BF020000 		.4byte	.LVUS18
 5755 1df9 30       		.uleb128 0x30
 5756 1dfa 6900     		.ascii	"i\000"
 5757 1dfc 01       		.byte	0x1
 5758 1dfd 3303     		.2byte	0x333
 5759 1dff 17       		.byte	0x17
 5760 1e00 530B0000 		.4byte	0xb53
 5761 1e04 1E030000 		.4byte	.LLST19
 5762 1e08 18030000 		.4byte	.LVUS19
 5763 1e0c 28       		.uleb128 0x28
 5764 1e0d 95180000 		.4byte	.LASF502
 5765 1e11 01       		.byte	0x1
 5766 1e12 3403     		.2byte	0x334
 5767 1e14 17       		.byte	0x17
 5768 1e15 801C0000 		.4byte	0x1c80
 5769 1e19 49030000 		.4byte	.LLST20
 5770 1e1d 47030000 		.4byte	.LVUS20
 5771 1e21 32       		.uleb128 0x32
 5772 1e22 B4000000 		.4byte	.LVL87
 5773 1e26 29240000 		.4byte	0x2429
 5774 1e2a 2C       		.uleb128 0x2c
 5775 1e2b 01       		.uleb128 0x1
 5776 1e2c 51       		.byte	0x51
 5777 1e2d 05       		.uleb128 0x5
 5778 1e2e 03       		.byte	0x3
 5779 1e2f 08000000 		.4byte	.LC23
 5780 1e33 2C       		.uleb128 0x2c
 5781 1e34 01       		.uleb128 0x1
 5782 1e35 52       		.byte	0x52
 5783 1e36 05       		.uleb128 0x5
 5784 1e37 03       		.byte	0x3
 5785 1e38 00000000 		.4byte	OS_TmrTask
ARM GAS  C:\Users\EDULU~1.DES\AppData\Local\Temp\ccmSuQZN.s 			page 129


 5786 1e3c 2C       		.uleb128 0x2c
 5787 1e3d 01       		.uleb128 0x1
 5788 1e3e 53       		.byte	0x53
 5789 1e3f 01       		.uleb128 0x1
 5790 1e40 30       		.byte	0x30
 5791 1e41 2C       		.uleb128 0x2c
 5792 1e42 02       		.uleb128 0x2
 5793 1e43 7D       		.byte	0x7d
 5794 1e44 10       		.sleb128 16
 5795 1e45 01       		.uleb128 0x1
 5796 1e46 30       		.byte	0x30
 5797 1e47 2C       		.uleb128 0x2c
 5798 1e48 02       		.uleb128 0x2
 5799 1e49 7D       		.byte	0x7d
 5800 1e4a 14       		.sleb128 20
 5801 1e4b 01       		.uleb128 0x1
 5802 1e4c 30       		.byte	0x30
 5803 1e4d 2C       		.uleb128 0x2c
 5804 1e4e 02       		.uleb128 0x2
 5805 1e4f 7D       		.byte	0x7d
 5806 1e50 18       		.sleb128 24
 5807 1e51 01       		.uleb128 0x1
 5808 1e52 30       		.byte	0x30
 5809 1e53 2C       		.uleb128 0x2c
 5810 1e54 02       		.uleb128 0x2
 5811 1e55 7D       		.byte	0x7d
 5812 1e56 1C       		.sleb128 28
 5813 1e57 01       		.uleb128 0x1
 5814 1e58 3B       		.byte	0x3b
 5815 1e59 2C       		.uleb128 0x2c
 5816 1e5a 02       		.uleb128 0x2
 5817 1e5b 7D       		.byte	0x7d
 5818 1e5c 20       		.sleb128 32
 5819 1e5d 02       		.uleb128 0x2
 5820 1e5e 75       		.byte	0x75
 5821 1e5f 00       		.sleb128 0
 5822 1e60 00       		.byte	0
 5823 1e61 00       		.byte	0
 5824 1e62 06       		.uleb128 0x6
 5825 1e63 04       		.byte	0x4
 5826 1e64 F00F0000 		.4byte	0xff0
 5827 1e68 2F       		.uleb128 0x2f
 5828 1e69 320F0000 		.4byte	.LASF510
 5829 1e6d 01       		.byte	0x1
 5830 1e6e FF02     		.2byte	0x2ff
 5831 1e70 07       		.byte	0x7
 5832 1e71 00000000 		.4byte	.LFB10
 5833 1e75 34000000 		.4byte	.LFE10-.LFB10
 5834 1e79 01       		.uleb128 0x1
 5835 1e7a 9C       		.byte	0x9c
 5836 1e7b B91E0000 		.4byte	0x1eb9
 5837 1e7f 33       		.uleb128 0x33
 5838 1e80 F5070000 		.4byte	.LASF494
 5839 1e84 01       		.byte	0x1
 5840 1e85 FF02     		.2byte	0x2ff
 5841 1e87 25       		.byte	0x25
 5842 1e88 56160000 		.4byte	0x1656
ARM GAS  C:\Users\EDULU~1.DES\AppData\Local\Temp\ccmSuQZN.s 			page 130


 5843 1e8c 01       		.uleb128 0x1
 5844 1e8d 50       		.byte	0x50
 5845 1e8e 28       		.uleb128 0x28
 5846 1e8f F6120000 		.4byte	.LASF495
 5847 1e93 01       		.byte	0x1
 5848 1e94 0103     		.2byte	0x301
 5849 1e96 0E       		.byte	0xe
 5850 1e97 56160000 		.4byte	0x1656
 5851 1e9b 62030000 		.4byte	.LLST16
 5852 1e9f 5C030000 		.4byte	.LVUS16
 5853 1ea3 28       		.uleb128 0x28
 5854 1ea4 17130000 		.4byte	.LASF511
 5855 1ea8 01       		.byte	0x1
 5856 1ea9 0203     		.2byte	0x302
 5857 1eab 0E       		.byte	0xe
 5858 1eac 56160000 		.4byte	0x1656
 5859 1eb0 93030000 		.4byte	.LLST17
 5860 1eb4 8B030000 		.4byte	.LVUS17
 5861 1eb8 00       		.byte	0
 5862 1eb9 2F       		.uleb128 0x2f
 5863 1eba E9090000 		.4byte	.LASF512
 5864 1ebe 01       		.byte	0x1
 5865 1ebf F102     		.2byte	0x2f1
 5866 1ec1 07       		.byte	0x7
 5867 1ec2 00000000 		.4byte	.LFB9
 5868 1ec6 20000000 		.4byte	.LFE9-.LFB9
 5869 1eca 01       		.uleb128 0x1
 5870 1ecb 9C       		.byte	0x9c
 5871 1ecc E01E0000 		.4byte	0x1ee0
 5872 1ed0 33       		.uleb128 0x33
 5873 1ed1 F5070000 		.4byte	.LASF494
 5874 1ed5 01       		.byte	0x1
 5875 1ed6 F102     		.2byte	0x2f1
 5876 1ed8 22       		.byte	0x22
 5877 1ed9 56160000 		.4byte	0x1656
 5878 1edd 01       		.uleb128 0x1
 5879 1ede 50       		.byte	0x50
 5880 1edf 00       		.byte	0
 5881 1ee0 2F       		.uleb128 0x2f
 5882 1ee1 F3180000 		.4byte	.LASF513
 5883 1ee5 01       		.byte	0x1
 5884 1ee6 D002     		.2byte	0x2d0
 5885 1ee8 07       		.byte	0x7
 5886 1ee9 00000000 		.4byte	.LFB8
 5887 1eed 2C000000 		.4byte	.LFE8-.LFB8
 5888 1ef1 01       		.uleb128 0x1
 5889 1ef2 9C       		.byte	0x9c
 5890 1ef3 071F0000 		.4byte	0x1f07
 5891 1ef7 33       		.uleb128 0x33
 5892 1ef8 F5070000 		.4byte	.LASF494
 5893 1efc 01       		.byte	0x1
 5894 1efd D002     		.2byte	0x2d0
 5895 1eff 1B       		.byte	0x1b
 5896 1f00 56160000 		.4byte	0x1656
 5897 1f04 01       		.uleb128 0x1
 5898 1f05 50       		.byte	0x50
 5899 1f06 00       		.byte	0
ARM GAS  C:\Users\EDULU~1.DES\AppData\Local\Temp\ccmSuQZN.s 			page 131


 5900 1f07 34       		.uleb128 0x34
 5901 1f08 6B0E0000 		.4byte	.LASF516
 5902 1f0c 01       		.byte	0x1
 5903 1f0d 5F02     		.2byte	0x25f
 5904 1f0f 0E       		.byte	0xe
 5905 1f10 3D000000 		.4byte	0x3d
 5906 1f14 00000000 		.4byte	.LFB7
 5907 1f18 F0000000 		.4byte	.LFE7-.LFB7
 5908 1f1c 01       		.uleb128 0x1
 5909 1f1d 9C       		.byte	0x9c
 5910 1f1e 5F200000 		.4byte	0x205f
 5911 1f22 27       		.uleb128 0x27
 5912 1f23 F5070000 		.4byte	.LASF494
 5913 1f27 01       		.byte	0x1
 5914 1f28 5F02     		.2byte	0x25f
 5915 1f2a 22       		.byte	0x22
 5916 1f2b 56160000 		.4byte	0x1656
 5917 1f2f D6030000 		.4byte	.LLST35
 5918 1f33 C8030000 		.4byte	.LVUS35
 5919 1f37 31       		.uleb128 0x31
 5920 1f38 6F707400 		.ascii	"opt\000"
 5921 1f3c 01       		.byte	0x1
 5922 1f3d 6002     		.2byte	0x260
 5923 1f3f 22       		.byte	0x22
 5924 1f40 DD0A0000 		.4byte	0xadd
 5925 1f44 3A040000 		.4byte	.LLST36
 5926 1f48 2E040000 		.4byte	.LVUS36
 5927 1f4c 27       		.uleb128 0x27
 5928 1f4d 31080000 		.4byte	.LASF514
 5929 1f51 01       		.byte	0x1
 5930 1f52 6102     		.2byte	0x261
 5931 1f54 22       		.byte	0x22
 5932 1f55 D0000000 		.4byte	0xd0
 5933 1f59 9B040000 		.4byte	.LLST37
 5934 1f5d 8D040000 		.4byte	.LVUS37
 5935 1f61 27       		.uleb128 0x27
 5936 1f62 BC0A0000 		.4byte	.LASF509
 5937 1f66 01       		.byte	0x1
 5938 1f67 6202     		.2byte	0x262
 5939 1f69 22       		.byte	0x22
 5940 1f6a 621E0000 		.4byte	0x1e62
 5941 1f6e FB040000 		.4byte	.LLST38
 5942 1f72 F3040000 		.4byte	.LVUS38
 5943 1f76 28       		.uleb128 0x28
 5944 1f77 E0060000 		.4byte	.LASF493
 5945 1f7b 01       		.byte	0x1
 5946 1f7c 6402     		.2byte	0x264
 5947 1f7e 1A       		.byte	0x1a
 5948 1f7f 8C130000 		.4byte	0x138c
 5949 1f83 3E050000 		.4byte	.LLST39
 5950 1f87 32050000 		.4byte	.LVUS39
 5951 1f8b 29       		.uleb128 0x29
 5952 1f8c 65727200 		.ascii	"err\000"
 5953 1f90 01       		.byte	0x1
 5954 1f91 6502     		.2byte	0x265
 5955 1f93 1A       		.byte	0x1a
 5956 1f94 F00F0000 		.4byte	0xff0
ARM GAS  C:\Users\EDULU~1.DES\AppData\Local\Temp\ccmSuQZN.s 			page 132


 5957 1f98 02       		.uleb128 0x2
 5958 1f99 91       		.byte	0x91
 5959 1f9a 66       		.sleb128 -26
 5960 1f9b 28       		.uleb128 0x28
 5961 1f9c 4C0D0000 		.4byte	.LASF515
 5962 1fa0 01       		.byte	0x1
 5963 1fa1 6602     		.2byte	0x266
 5964 1fa3 1A       		.byte	0x1a
 5965 1fa4 3D000000 		.4byte	0x3d
 5966 1fa8 92050000 		.4byte	.LLST40
 5967 1fac 8A050000 		.4byte	.LVUS40
 5968 1fb0 2B       		.uleb128 0x2b
 5969 1fb1 20000000 		.4byte	.LVL152
 5970 1fb5 1C240000 		.4byte	0x241c
 5971 1fb9 C41F0000 		.4byte	0x1fc4
 5972 1fbd 2C       		.uleb128 0x2c
 5973 1fbe 01       		.uleb128 0x1
 5974 1fbf 50       		.byte	0x50
 5975 1fc0 02       		.uleb128 0x2
 5976 1fc1 7D       		.byte	0x7d
 5977 1fc2 06       		.sleb128 6
 5978 1fc3 00       		.byte	0
 5979 1fc4 2B       		.uleb128 0x2b
 5980 1fc5 3C000000 		.4byte	.LVL153
 5981 1fc9 02240000 		.4byte	0x2402
 5982 1fcd D81F0000 		.4byte	0x1fd8
 5983 1fd1 2C       		.uleb128 0x2c
 5984 1fd2 01       		.uleb128 0x1
 5985 1fd3 50       		.byte	0x50
 5986 1fd4 02       		.uleb128 0x2
 5987 1fd5 7D       		.byte	0x7d
 5988 1fd6 06       		.sleb128 6
 5989 1fd7 00       		.byte	0
 5990 1fd8 2B       		.uleb128 0x2b
 5991 1fd9 5C000000 		.4byte	.LVL163
 5992 1fdd 861C0000 		.4byte	0x1c86
 5993 1fe1 EC1F0000 		.4byte	0x1fec
 5994 1fe5 2C       		.uleb128 0x2c
 5995 1fe6 01       		.uleb128 0x1
 5996 1fe7 50       		.byte	0x50
 5997 1fe8 02       		.uleb128 0x2
 5998 1fe9 74       		.byte	0x74
 5999 1fea 00       		.sleb128 0
 6000 1feb 00       		.byte	0
 6001 1fec 2B       		.uleb128 0x2b
 6002 1fed 74000000 		.4byte	.LVL164
 6003 1ff1 02240000 		.4byte	0x2402
 6004 1ff5 00200000 		.4byte	0x2000
 6005 1ff9 2C       		.uleb128 0x2c
 6006 1ffa 01       		.uleb128 0x1
 6007 1ffb 50       		.byte	0x50
 6008 1ffc 02       		.uleb128 0x2
 6009 1ffd 7D       		.byte	0x7d
 6010 1ffe 06       		.sleb128 6
 6011 1fff 00       		.byte	0
 6012 2000 2D       		.uleb128 0x2d
 6013 2001 88000000 		.4byte	.LVL166
ARM GAS  C:\Users\EDULU~1.DES\AppData\Local\Temp\ccmSuQZN.s 			page 133


 6014 2005 10200000 		.4byte	0x2010
 6015 2009 2C       		.uleb128 0x2c
 6016 200a 01       		.uleb128 0x1
 6017 200b 50       		.byte	0x50
 6018 200c 02       		.uleb128 0x2
 6019 200d 74       		.byte	0x74
 6020 200e 00       		.sleb128 0
 6021 200f 00       		.byte	0
 6022 2010 2B       		.uleb128 0x2b
 6023 2011 90000000 		.4byte	.LVL167
 6024 2015 02240000 		.4byte	0x2402
 6025 2019 24200000 		.4byte	0x2024
 6026 201d 2C       		.uleb128 0x2c
 6027 201e 01       		.uleb128 0x1
 6028 201f 50       		.byte	0x50
 6029 2020 02       		.uleb128 0x2
 6030 2021 7D       		.byte	0x7d
 6031 2022 06       		.sleb128 6
 6032 2023 00       		.byte	0
 6033 2024 2D       		.uleb128 0x2d
 6034 2025 A6000000 		.4byte	.LVL172
 6035 2029 3A200000 		.4byte	0x203a
 6036 202d 2C       		.uleb128 0x2c
 6037 202e 01       		.uleb128 0x1
 6038 202f 50       		.byte	0x50
 6039 2030 02       		.uleb128 0x2
 6040 2031 74       		.byte	0x74
 6041 2032 00       		.sleb128 0
 6042 2033 2C       		.uleb128 0x2c
 6043 2034 01       		.uleb128 0x1
 6044 2035 51       		.byte	0x51
 6045 2036 02       		.uleb128 0x2
 6046 2037 76       		.byte	0x76
 6047 2038 00       		.sleb128 0
 6048 2039 00       		.byte	0
 6049 203a 2B       		.uleb128 0x2b
 6050 203b B6000000 		.4byte	.LVL176
 6051 203f 02240000 		.4byte	0x2402
 6052 2043 4E200000 		.4byte	0x204e
 6053 2047 2C       		.uleb128 0x2c
 6054 2048 01       		.uleb128 0x1
 6055 2049 50       		.byte	0x50
 6056 204a 02       		.uleb128 0x2
 6057 204b 7D       		.byte	0x7d
 6058 204c 06       		.sleb128 6
 6059 204d 00       		.byte	0
 6060 204e 32       		.uleb128 0x32
 6061 204f C6000000 		.4byte	.LVL179
 6062 2053 02240000 		.4byte	0x2402
 6063 2057 2C       		.uleb128 0x2c
 6064 2058 01       		.uleb128 0x1
 6065 2059 50       		.byte	0x50
 6066 205a 02       		.uleb128 0x2
 6067 205b 7D       		.byte	0x7d
 6068 205c 06       		.sleb128 6
 6069 205d 00       		.byte	0
 6070 205e 00       		.byte	0
ARM GAS  C:\Users\EDULU~1.DES\AppData\Local\Temp\ccmSuQZN.s 			page 134


 6071 205f 34       		.uleb128 0x34
 6072 2060 780D0000 		.4byte	.LASF517
 6073 2064 01       		.byte	0x1
 6074 2065 0402     		.2byte	0x204
 6075 2067 0B       		.byte	0xb
 6076 2068 2F0B0000 		.4byte	0xb2f
 6077 206c 00000000 		.4byte	.LFB6
 6078 2070 5C000000 		.4byte	.LFE6-.LFB6
 6079 2074 01       		.uleb128 0x1
 6080 2075 9C       		.byte	0x9c
 6081 2076 FA200000 		.4byte	0x20fa
 6082 207a 27       		.uleb128 0x27
 6083 207b F5070000 		.4byte	.LASF494
 6084 207f 01       		.byte	0x1
 6085 2080 0402     		.2byte	0x204
 6086 2082 23       		.byte	0x23
 6087 2083 56160000 		.4byte	0x1656
 6088 2087 D4050000 		.4byte	.LLST3
 6089 208b CA050000 		.4byte	.LVUS3
 6090 208f 27       		.uleb128 0x27
 6091 2090 BC0A0000 		.4byte	.LASF509
 6092 2094 01       		.byte	0x1
 6093 2095 0502     		.2byte	0x205
 6094 2097 23       		.byte	0x23
 6095 2098 621E0000 		.4byte	0x1e62
 6096 209c 23060000 		.4byte	.LLST4
 6097 20a0 19060000 		.4byte	.LVUS4
 6098 20a4 28       		.uleb128 0x28
 6099 20a5 7B020000 		.4byte	.LASF518
 6100 20a9 01       		.byte	0x1
 6101 20aa 0702     		.2byte	0x207
 6102 20ac 0F       		.byte	0xf
 6103 20ad 2F0B0000 		.4byte	0xb2f
 6104 20b1 69060000 		.4byte	.LLST5
 6105 20b5 65060000 		.4byte	.LVUS5
 6106 20b9 28       		.uleb128 0x28
 6107 20ba 780B0000 		.4byte	.LASF519
 6108 20be 01       		.byte	0x1
 6109 20bf 0802     		.2byte	0x208
 6110 20c1 05       		.byte	0x5
 6111 20c2 07010000 		.4byte	0x107
 6112 20c6 91060000 		.4byte	.LLST6
 6113 20ca 87060000 		.4byte	.LVUS6
 6114 20ce 2E       		.uleb128 0x2e
 6115 20cf 16000000 		.4byte	.LVL26
 6116 20d3 36240000 		.4byte	0x2436
 6117 20d7 2E       		.uleb128 0x2e
 6118 20d8 1C000000 		.4byte	.LVL28
 6119 20dc 43240000 		.4byte	0x2443
 6120 20e0 2E       		.uleb128 0x2e
 6121 20e1 2C000000 		.4byte	.LVL30
 6122 20e5 50240000 		.4byte	0x2450
 6123 20e9 32       		.uleb128 0x32
 6124 20ea 32000000 		.4byte	.LVL31
 6125 20ee 5D240000 		.4byte	0x245d
 6126 20f2 2C       		.uleb128 0x2c
 6127 20f3 01       		.uleb128 0x1
ARM GAS  C:\Users\EDULU~1.DES\AppData\Local\Temp\ccmSuQZN.s 			page 135


 6128 20f4 50       		.byte	0x50
 6129 20f5 02       		.uleb128 0x2
 6130 20f6 76       		.byte	0x76
 6131 20f7 00       		.sleb128 0
 6132 20f8 00       		.byte	0
 6133 20f9 00       		.byte	0
 6134 20fa 34       		.uleb128 0x34
 6135 20fb 60030000 		.4byte	.LASF520
 6136 20ff 01       		.byte	0x1
 6137 2100 A501     		.2byte	0x1a5
 6138 2102 0E       		.byte	0xe
 6139 2103 3D000000 		.4byte	0x3d
 6140 2107 00000000 		.4byte	.LFB5
 6141 210b AC000000 		.4byte	.LFE5-.LFB5
 6142 210f 01       		.uleb128 0x1
 6143 2110 9C       		.byte	0x9c
 6144 2111 0B220000 		.4byte	0x220b
 6145 2115 27       		.uleb128 0x27
 6146 2116 F5070000 		.4byte	.LASF494
 6147 211a 01       		.byte	0x1
 6148 211b A501     		.2byte	0x1a5
 6149 211d 23       		.byte	0x23
 6150 211e 56160000 		.4byte	0x1656
 6151 2122 E0060000 		.4byte	.LLST32
 6152 2126 D2060000 		.4byte	.LVUS32
 6153 212a 27       		.uleb128 0x27
 6154 212b BC0A0000 		.4byte	.LASF509
 6155 212f 01       		.byte	0x1
 6156 2130 A601     		.2byte	0x1a6
 6157 2132 23       		.byte	0x23
 6158 2133 621E0000 		.4byte	0x1e62
 6159 2137 46070000 		.4byte	.LLST33
 6160 213b 38070000 		.4byte	.LVUS33
 6161 213f 29       		.uleb128 0x29
 6162 2140 65727200 		.ascii	"err\000"
 6163 2144 01       		.byte	0x1
 6164 2145 A801     		.2byte	0x1a8
 6165 2147 12       		.byte	0x12
 6166 2148 F00F0000 		.4byte	0xff0
 6167 214c 02       		.uleb128 0x2
 6168 214d 91       		.byte	0x91
 6169 214e 6E       		.sleb128 -18
 6170 214f 28       		.uleb128 0x28
 6171 2150 4C0D0000 		.4byte	.LASF515
 6172 2154 01       		.byte	0x1
 6173 2155 A901     		.2byte	0x1a9
 6174 2157 12       		.byte	0x12
 6175 2158 3D000000 		.4byte	0x3d
 6176 215c A6070000 		.4byte	.LLST34
 6177 2160 9E070000 		.4byte	.LVUS34
 6178 2164 2B       		.uleb128 0x2b
 6179 2165 1C000000 		.4byte	.LVL128
 6180 2169 1C240000 		.4byte	0x241c
 6181 216d 78210000 		.4byte	0x2178
 6182 2171 2C       		.uleb128 0x2c
 6183 2172 01       		.uleb128 0x1
 6184 2173 50       		.byte	0x50
ARM GAS  C:\Users\EDULU~1.DES\AppData\Local\Temp\ccmSuQZN.s 			page 136


 6185 2174 02       		.uleb128 0x2
 6186 2175 7D       		.byte	0x7d
 6187 2176 06       		.sleb128 6
 6188 2177 00       		.byte	0
 6189 2178 2B       		.uleb128 0x2b
 6190 2179 38000000 		.4byte	.LVL129
 6191 217d 02240000 		.4byte	0x2402
 6192 2181 8C210000 		.4byte	0x218c
 6193 2185 2C       		.uleb128 0x2c
 6194 2186 01       		.uleb128 0x1
 6195 2187 50       		.byte	0x50
 6196 2188 02       		.uleb128 0x2
 6197 2189 7D       		.byte	0x7d
 6198 218a 06       		.sleb128 6
 6199 218b 00       		.byte	0
 6200 218c 2B       		.uleb128 0x2b
 6201 218d 58000000 		.4byte	.LVL138
 6202 2191 861C0000 		.4byte	0x1c86
 6203 2195 A0210000 		.4byte	0x21a0
 6204 2199 2C       		.uleb128 0x2c
 6205 219a 01       		.uleb128 0x1
 6206 219b 50       		.byte	0x50
 6207 219c 02       		.uleb128 0x2
 6208 219d 74       		.byte	0x74
 6209 219e 00       		.sleb128 0
 6210 219f 00       		.byte	0
 6211 21a0 2B       		.uleb128 0x2b
 6212 21a1 60000000 		.4byte	.LVL139
 6213 21a5 3F1D0000 		.4byte	0x1d3f
 6214 21a9 B9210000 		.4byte	0x21b9
 6215 21ad 2C       		.uleb128 0x2c
 6216 21ae 01       		.uleb128 0x1
 6217 21af 50       		.byte	0x50
 6218 21b0 02       		.uleb128 0x2
 6219 21b1 74       		.byte	0x74
 6220 21b2 00       		.sleb128 0
 6221 21b3 2C       		.uleb128 0x2c
 6222 21b4 01       		.uleb128 0x1
 6223 21b5 51       		.byte	0x51
 6224 21b6 01       		.uleb128 0x1
 6225 21b7 30       		.byte	0x30
 6226 21b8 00       		.byte	0
 6227 21b9 2B       		.uleb128 0x2b
 6228 21ba 68000000 		.4byte	.LVL140
 6229 21be 02240000 		.4byte	0x2402
 6230 21c2 CD210000 		.4byte	0x21cd
 6231 21c6 2C       		.uleb128 0x2c
 6232 21c7 01       		.uleb128 0x1
 6233 21c8 50       		.byte	0x50
 6234 21c9 02       		.uleb128 0x2
 6235 21ca 7D       		.byte	0x7d
 6236 21cb 06       		.sleb128 6
 6237 21cc 00       		.byte	0
 6238 21cd 2B       		.uleb128 0x2b
 6239 21ce 78000000 		.4byte	.LVL143
 6240 21d2 3F1D0000 		.4byte	0x1d3f
 6241 21d6 E6210000 		.4byte	0x21e6
ARM GAS  C:\Users\EDULU~1.DES\AppData\Local\Temp\ccmSuQZN.s 			page 137


 6242 21da 2C       		.uleb128 0x2c
 6243 21db 01       		.uleb128 0x1
 6244 21dc 50       		.byte	0x50
 6245 21dd 02       		.uleb128 0x2
 6246 21de 74       		.byte	0x74
 6247 21df 00       		.sleb128 0
 6248 21e0 2C       		.uleb128 0x2c
 6249 21e1 01       		.uleb128 0x1
 6250 21e2 51       		.byte	0x51
 6251 21e3 01       		.uleb128 0x1
 6252 21e4 30       		.byte	0x30
 6253 21e5 00       		.byte	0
 6254 21e6 2B       		.uleb128 0x2b
 6255 21e7 80000000 		.4byte	.LVL144
 6256 21eb 02240000 		.4byte	0x2402
 6257 21ef FA210000 		.4byte	0x21fa
 6258 21f3 2C       		.uleb128 0x2c
 6259 21f4 01       		.uleb128 0x1
 6260 21f5 50       		.byte	0x50
 6261 21f6 02       		.uleb128 0x2
 6262 21f7 7D       		.byte	0x7d
 6263 21f8 06       		.sleb128 6
 6264 21f9 00       		.byte	0
 6265 21fa 32       		.uleb128 0x32
 6266 21fb 90000000 		.4byte	.LVL147
 6267 21ff 02240000 		.4byte	0x2402
 6268 2203 2C       		.uleb128 0x2c
 6269 2204 01       		.uleb128 0x1
 6270 2205 50       		.byte	0x50
 6271 2206 02       		.uleb128 0x2
 6272 2207 7D       		.byte	0x7d
 6273 2208 06       		.sleb128 6
 6274 2209 00       		.byte	0
 6275 220a 00       		.byte	0
 6276 220b 34       		.uleb128 0x34
 6277 220c 481E0000 		.4byte	.LASF521
 6278 2210 01       		.byte	0x1
 6279 2211 3701     		.2byte	0x137
 6280 2213 0A       		.byte	0xa
 6281 2214 470B0000 		.4byte	0xb47
 6282 2218 00000000 		.4byte	.LFB4
 6283 221c C8000000 		.4byte	.LFE4-.LFB4
 6284 2220 01       		.uleb128 0x1
 6285 2221 9C       		.byte	0x9c
 6286 2222 EA220000 		.4byte	0x22ea
 6287 2226 27       		.uleb128 0x27
 6288 2227 F5070000 		.4byte	.LASF494
 6289 222b 01       		.byte	0x1
 6290 222c 3701     		.2byte	0x137
 6291 222e 23       		.byte	0x23
 6292 222f 56160000 		.4byte	0x1656
 6293 2233 EC070000 		.4byte	.LLST0
 6294 2237 DE070000 		.4byte	.LVUS0
 6295 223b 27       		.uleb128 0x27
 6296 223c BC0A0000 		.4byte	.LASF509
 6297 2240 01       		.byte	0x1
 6298 2241 3801     		.2byte	0x138
ARM GAS  C:\Users\EDULU~1.DES\AppData\Local\Temp\ccmSuQZN.s 			page 138


 6299 2243 23       		.byte	0x23
 6300 2244 621E0000 		.4byte	0x1e62
 6301 2248 52080000 		.4byte	.LLST1
 6302 224c 44080000 		.4byte	.LVUS1
 6303 2250 28       		.uleb128 0x28
 6304 2251 19000000 		.4byte	.LASF522
 6305 2255 01       		.byte	0x1
 6306 2256 3A01     		.2byte	0x13a
 6307 2258 0E       		.byte	0xe
 6308 2259 470B0000 		.4byte	0xb47
 6309 225d B6080000 		.4byte	.LLST2
 6310 2261 AA080000 		.4byte	.LVUS2
 6311 2265 29       		.uleb128 0x29
 6312 2266 65727200 		.ascii	"err\000"
 6313 226a 01       		.byte	0x1
 6314 226b 3B01     		.2byte	0x13b
 6315 226d 0E       		.byte	0xe
 6316 226e F00F0000 		.4byte	0xff0
 6317 2272 02       		.uleb128 0x2
 6318 2273 91       		.byte	0x91
 6319 2274 6E       		.sleb128 -18
 6320 2275 2B       		.uleb128 0x2b
 6321 2276 1C000000 		.4byte	.LVL2
 6322 227a 1C240000 		.4byte	0x241c
 6323 227e 89220000 		.4byte	0x2289
 6324 2282 2C       		.uleb128 0x2c
 6325 2283 01       		.uleb128 0x1
 6326 2284 50       		.byte	0x50
 6327 2285 02       		.uleb128 0x2
 6328 2286 7D       		.byte	0x7d
 6329 2287 06       		.sleb128 6
 6330 2288 00       		.byte	0
 6331 2289 2B       		.uleb128 0x2b
 6332 228a 38000000 		.4byte	.LVL3
 6333 228e 02240000 		.4byte	0x2402
 6334 2292 9D220000 		.4byte	0x229d
 6335 2296 2C       		.uleb128 0x2c
 6336 2297 01       		.uleb128 0x1
 6337 2298 50       		.byte	0x50
 6338 2299 02       		.uleb128 0x2
 6339 229a 7D       		.byte	0x7d
 6340 229b 06       		.sleb128 6
 6341 229c 00       		.byte	0
 6342 229d 2B       		.uleb128 0x2b
 6343 229e 66000000 		.4byte	.LVL12
 6344 22a2 02240000 		.4byte	0x2402
 6345 22a6 B1220000 		.4byte	0x22b1
 6346 22aa 2C       		.uleb128 0x2c
 6347 22ab 01       		.uleb128 0x1
 6348 22ac 50       		.byte	0x50
 6349 22ad 02       		.uleb128 0x2
 6350 22ae 7D       		.byte	0x7d
 6351 22af 06       		.sleb128 6
 6352 22b0 00       		.byte	0
 6353 22b1 2B       		.uleb128 0x2b
 6354 22b2 7E000000 		.4byte	.LVL15
 6355 22b6 02240000 		.4byte	0x2402
ARM GAS  C:\Users\EDULU~1.DES\AppData\Local\Temp\ccmSuQZN.s 			page 139


 6356 22ba C5220000 		.4byte	0x22c5
 6357 22be 2C       		.uleb128 0x2c
 6358 22bf 01       		.uleb128 0x1
 6359 22c0 50       		.byte	0x50
 6360 22c1 02       		.uleb128 0x2
 6361 22c2 7D       		.byte	0x7d
 6362 22c3 06       		.sleb128 6
 6363 22c4 00       		.byte	0
 6364 22c5 2B       		.uleb128 0x2b
 6365 22c6 96000000 		.4byte	.LVL19
 6366 22ca 02240000 		.4byte	0x2402
 6367 22ce D9220000 		.4byte	0x22d9
 6368 22d2 2C       		.uleb128 0x2c
 6369 22d3 01       		.uleb128 0x1
 6370 22d4 50       		.byte	0x50
 6371 22d5 02       		.uleb128 0x2
 6372 22d6 7D       		.byte	0x7d
 6373 22d7 06       		.sleb128 6
 6374 22d8 00       		.byte	0
 6375 22d9 32       		.uleb128 0x32
 6376 22da A6000000 		.4byte	.LVL22
 6377 22de 02240000 		.4byte	0x2402
 6378 22e2 2C       		.uleb128 0x2c
 6379 22e3 01       		.uleb128 0x1
 6380 22e4 50       		.byte	0x50
 6381 22e5 02       		.uleb128 0x2
 6382 22e6 7D       		.byte	0x7d
 6383 22e7 06       		.sleb128 6
 6384 22e8 00       		.byte	0
 6385 22e9 00       		.byte	0
 6386 22ea 35       		.uleb128 0x35
 6387 22eb 81020000 		.4byte	.LASF523
 6388 22ef 01       		.byte	0x1
 6389 22f0 68       		.byte	0x68
 6390 22f1 07       		.byte	0x7
 6391 22f2 00000000 		.4byte	.LFB3
 6392 22f6 C4000000 		.4byte	.LFE3-.LFB3
 6393 22fa 01       		.uleb128 0x1
 6394 22fb 9C       		.byte	0x9c
 6395 22fc F5230000 		.4byte	0x23f5
 6396 2300 36       		.uleb128 0x36
 6397 2301 F5070000 		.4byte	.LASF494
 6398 2305 01       		.byte	0x1
 6399 2306 68       		.byte	0x68
 6400 2307 2A       		.byte	0x2a
 6401 2308 56160000 		.4byte	0x1656
 6402 230c 0F090000 		.4byte	.LLST7
 6403 2310 03090000 		.4byte	.LVUS7
 6404 2314 36       		.uleb128 0x36
 6405 2315 AC1E0000 		.4byte	.LASF524
 6406 2319 01       		.byte	0x1
 6407 231a 69       		.byte	0x69
 6408 231b 2A       		.byte	0x2a
 6409 231c 29160000 		.4byte	0x1629
 6410 2320 68090000 		.4byte	.LLST8
 6411 2324 5C090000 		.4byte	.LVUS8
 6412 2328 37       		.uleb128 0x37
ARM GAS  C:\Users\EDULU~1.DES\AppData\Local\Temp\ccmSuQZN.s 			page 140


 6413 2329 646C7900 		.ascii	"dly\000"
 6414 232d 01       		.byte	0x1
 6415 232e 6A       		.byte	0x6a
 6416 232f 2A       		.byte	0x2a
 6417 2330 470B0000 		.4byte	0xb47
 6418 2334 D3090000 		.4byte	.LLST9
 6419 2338 B5090000 		.4byte	.LVUS9
 6420 233c 36       		.uleb128 0x36
 6421 233d 9F170000 		.4byte	.LASF525
 6422 2341 01       		.byte	0x1
 6423 2342 6B       		.byte	0x6b
 6424 2343 2A       		.byte	0x2a
 6425 2344 470B0000 		.4byte	0xb47
 6426 2348 8F0A0000 		.4byte	.LLST10
 6427 234c 870A0000 		.4byte	.LVUS10
 6428 2350 37       		.uleb128 0x37
 6429 2351 6F707400 		.ascii	"opt\000"
 6430 2355 01       		.byte	0x1
 6431 2356 6C       		.byte	0x6c
 6432 2357 2A       		.byte	0x2a
 6433 2358 DD0A0000 		.4byte	0xadd
 6434 235c CC0A0000 		.4byte	.LLST11
 6435 2360 C60A0000 		.4byte	.LVUS11
 6436 2364 36       		.uleb128 0x36
 6437 2365 DA080000 		.4byte	.LASF526
 6438 2369 01       		.byte	0x1
 6439 236a 6D       		.byte	0x6d
 6440 236b 2A       		.byte	0x2a
 6441 236c 8C130000 		.4byte	0x138c
 6442 2370 FE0A0000 		.4byte	.LLST12
 6443 2374 F80A0000 		.4byte	.LVUS12
 6444 2378 36       		.uleb128 0x36
 6445 2379 31080000 		.4byte	.LASF514
 6446 237d 01       		.byte	0x1
 6447 237e 6E       		.byte	0x6e
 6448 237f 2A       		.byte	0x2a
 6449 2380 D0000000 		.4byte	0xd0
 6450 2384 300B0000 		.4byte	.LLST13
 6451 2388 2A0B0000 		.4byte	.LVUS13
 6452 238c 36       		.uleb128 0x36
 6453 238d BC0A0000 		.4byte	.LASF509
 6454 2391 01       		.byte	0x1
 6455 2392 6F       		.byte	0x6f
 6456 2393 2A       		.byte	0x2a
 6457 2394 621E0000 		.4byte	0x1e62
 6458 2398 620B0000 		.4byte	.LLST14
 6459 239c 5C0B0000 		.4byte	.LVUS14
 6460 23a0 38       		.uleb128 0x38
 6461 23a1 780B0000 		.4byte	.LASF519
 6462 23a5 01       		.byte	0x1
 6463 23a6 71       		.byte	0x71
 6464 23a7 05       		.byte	0x5
 6465 23a8 07010000 		.4byte	0x107
 6466 23ac 980B0000 		.4byte	.LLST15
 6467 23b0 8E0B0000 		.4byte	.LVUS15
 6468 23b4 2E       		.uleb128 0x2e
 6469 23b5 2C000000 		.4byte	.LVL41
ARM GAS  C:\Users\EDULU~1.DES\AppData\Local\Temp\ccmSuQZN.s 			page 141


 6470 23b9 36240000 		.4byte	0x2436
 6471 23bd 2E       		.uleb128 0x2e
 6472 23be 32000000 		.4byte	.LVL43
 6473 23c2 43240000 		.4byte	0x2443
 6474 23c6 2B       		.uleb128 0x2b
 6475 23c7 5E000000 		.4byte	.LVL45
 6476 23cb B91E0000 		.4byte	0x1eb9
 6477 23cf DA230000 		.4byte	0x23da
 6478 23d3 2C       		.uleb128 0x2c
 6479 23d4 01       		.uleb128 0x1
 6480 23d5 50       		.byte	0x50
 6481 23d6 02       		.uleb128 0x2
 6482 23d7 77       		.byte	0x77
 6483 23d8 00       		.sleb128 0
 6484 23d9 00       		.byte	0
 6485 23da 2E       		.uleb128 0x2e
 6486 23db 6A000000 		.4byte	.LVL46
 6487 23df 50240000 		.4byte	0x2450
 6488 23e3 32       		.uleb128 0x32
 6489 23e4 70000000 		.4byte	.LVL47
 6490 23e8 5D240000 		.4byte	0x245d
 6491 23ec 2C       		.uleb128 0x2c
 6492 23ed 01       		.uleb128 0x1
 6493 23ee 50       		.byte	0x50
 6494 23ef 03       		.uleb128 0x3
 6495 23f0 91       		.byte	0x91
 6496 23f1 64       		.sleb128 -28
 6497 23f2 06       		.byte	0x6
 6498 23f3 00       		.byte	0
 6499 23f4 00       		.byte	0
 6500 23f5 39       		.uleb128 0x39
 6501 23f6 5D070000 		.4byte	.LASF527
 6502 23fa 5D070000 		.4byte	.LASF527
 6503 23fe 07       		.byte	0x7
 6504 23ff EC02     		.2byte	0x2ec
 6505 2401 0D       		.byte	0xd
 6506 2402 39       		.uleb128 0x39
 6507 2403 52030000 		.4byte	.LASF528
 6508 2407 52030000 		.4byte	.LASF528
 6509 240b 0A       		.byte	0xa
 6510 240c 8107     		.2byte	0x781
 6511 240e 0F       		.byte	0xf
 6512 240f 39       		.uleb128 0x39
 6513 2410 101F0000 		.4byte	.LASF529
 6514 2414 101F0000 		.4byte	.LASF529
 6515 2418 0A       		.byte	0xa
 6516 2419 AB06     		.2byte	0x6ab
 6517 241b 0F       		.byte	0xf
 6518 241c 39       		.uleb128 0x39
 6519 241d DD090000 		.4byte	.LASF530
 6520 2421 DD090000 		.4byte	.LASF530
 6521 2425 0A       		.byte	0xa
 6522 2426 8007     		.2byte	0x780
 6523 2428 0F       		.byte	0xf
 6524 2429 39       		.uleb128 0x39
 6525 242a 0C020000 		.4byte	.LASF531
 6526 242e 0C020000 		.4byte	.LASF531
ARM GAS  C:\Users\EDULU~1.DES\AppData\Local\Temp\ccmSuQZN.s 			page 142


 6527 2432 0A       		.byte	0xa
 6528 2433 6D06     		.2byte	0x66d
 6529 2435 0F       		.byte	0xf
 6530 2436 39       		.uleb128 0x39
 6531 2437 D2190000 		.4byte	.LASF532
 6532 243b D2190000 		.4byte	.LASF532
 6533 243f 02       		.byte	0x2
 6534 2440 7701     		.2byte	0x177
 6535 2442 0D       		.byte	0xd
 6536 2443 39       		.uleb128 0x39
 6537 2444 AB1B0000 		.4byte	.LASF533
 6538 2448 AB1B0000 		.4byte	.LASF533
 6539 244c 07       		.byte	0x7
 6540 244d 2F02     		.2byte	0x22f
 6541 244f 12       		.byte	0x12
 6542 2450 39       		.uleb128 0x39
 6543 2451 5F0A0000 		.4byte	.LASF534
 6544 2455 5F0A0000 		.4byte	.LASF534
 6545 2459 07       		.byte	0x7
 6546 245a 3102     		.2byte	0x231
 6547 245c 12       		.byte	0x12
 6548 245d 39       		.uleb128 0x39
 6549 245e 4A0B0000 		.4byte	.LASF535
 6550 2462 4A0B0000 		.4byte	.LASF535
 6551 2466 02       		.byte	0x2
 6552 2467 7801     		.2byte	0x178
 6553 2469 0D       		.byte	0xd
 6554 246a 00       		.byte	0
 6555              		.section	.debug_abbrev,"",%progbits
 6556              	.Ldebug_abbrev0:
 6557 0000 01       		.uleb128 0x1
 6558 0001 11       		.uleb128 0x11
 6559 0002 01       		.byte	0x1
 6560 0003 25       		.uleb128 0x25
 6561 0004 0E       		.uleb128 0xe
 6562 0005 13       		.uleb128 0x13
 6563 0006 0B       		.uleb128 0xb
 6564 0007 03       		.uleb128 0x3
 6565 0008 0E       		.uleb128 0xe
 6566 0009 1B       		.uleb128 0x1b
 6567 000a 0E       		.uleb128 0xe
 6568 000b 55       		.uleb128 0x55
 6569 000c 17       		.uleb128 0x17
 6570 000d 11       		.uleb128 0x11
 6571 000e 01       		.uleb128 0x1
 6572 000f 10       		.uleb128 0x10
 6573 0010 17       		.uleb128 0x17
 6574 0011 00       		.byte	0
 6575 0012 00       		.byte	0
 6576 0013 02       		.uleb128 0x2
 6577 0014 16       		.uleb128 0x16
 6578 0015 00       		.byte	0
 6579 0016 03       		.uleb128 0x3
 6580 0017 0E       		.uleb128 0xe
 6581 0018 3A       		.uleb128 0x3a
 6582 0019 0B       		.uleb128 0xb
 6583 001a 3B       		.uleb128 0x3b
ARM GAS  C:\Users\EDULU~1.DES\AppData\Local\Temp\ccmSuQZN.s 			page 143


 6584 001b 0B       		.uleb128 0xb
 6585 001c 39       		.uleb128 0x39
 6586 001d 0B       		.uleb128 0xb
 6587 001e 49       		.uleb128 0x49
 6588 001f 13       		.uleb128 0x13
 6589 0020 00       		.byte	0
 6590 0021 00       		.byte	0
 6591 0022 03       		.uleb128 0x3
 6592 0023 24       		.uleb128 0x24
 6593 0024 00       		.byte	0
 6594 0025 0B       		.uleb128 0xb
 6595 0026 0B       		.uleb128 0xb
 6596 0027 3E       		.uleb128 0x3e
 6597 0028 0B       		.uleb128 0xb
 6598 0029 03       		.uleb128 0x3
 6599 002a 0E       		.uleb128 0xe
 6600 002b 00       		.byte	0
 6601 002c 00       		.byte	0
 6602 002d 04       		.uleb128 0x4
 6603 002e 26       		.uleb128 0x26
 6604 002f 00       		.byte	0
 6605 0030 49       		.uleb128 0x49
 6606 0031 13       		.uleb128 0x13
 6607 0032 00       		.byte	0
 6608 0033 00       		.byte	0
 6609 0034 05       		.uleb128 0x5
 6610 0035 24       		.uleb128 0x24
 6611 0036 00       		.byte	0
 6612 0037 0B       		.uleb128 0xb
 6613 0038 0B       		.uleb128 0xb
 6614 0039 3E       		.uleb128 0x3e
 6615 003a 0B       		.uleb128 0xb
 6616 003b 03       		.uleb128 0x3
 6617 003c 08       		.uleb128 0x8
 6618 003d 00       		.byte	0
 6619 003e 00       		.byte	0
 6620 003f 06       		.uleb128 0x6
 6621 0040 0F       		.uleb128 0xf
 6622 0041 00       		.byte	0
 6623 0042 0B       		.uleb128 0xb
 6624 0043 0B       		.uleb128 0xb
 6625 0044 49       		.uleb128 0x49
 6626 0045 13       		.uleb128 0x13
 6627 0046 00       		.byte	0
 6628 0047 00       		.byte	0
 6629 0048 07       		.uleb128 0x7
 6630 0049 15       		.uleb128 0x15
 6631 004a 00       		.byte	0
 6632 004b 27       		.uleb128 0x27
 6633 004c 19       		.uleb128 0x19
 6634 004d 00       		.byte	0
 6635 004e 00       		.byte	0
 6636 004f 08       		.uleb128 0x8
 6637 0050 15       		.uleb128 0x15
 6638 0051 01       		.byte	0x1
 6639 0052 27       		.uleb128 0x27
 6640 0053 19       		.uleb128 0x19
ARM GAS  C:\Users\EDULU~1.DES\AppData\Local\Temp\ccmSuQZN.s 			page 144


 6641 0054 01       		.uleb128 0x1
 6642 0055 13       		.uleb128 0x13
 6643 0056 00       		.byte	0
 6644 0057 00       		.byte	0
 6645 0058 09       		.uleb128 0x9
 6646 0059 05       		.uleb128 0x5
 6647 005a 00       		.byte	0
 6648 005b 49       		.uleb128 0x49
 6649 005c 13       		.uleb128 0x13
 6650 005d 00       		.byte	0
 6651 005e 00       		.byte	0
 6652 005f 0A       		.uleb128 0xa
 6653 0060 0F       		.uleb128 0xf
 6654 0061 00       		.byte	0
 6655 0062 0B       		.uleb128 0xb
 6656 0063 0B       		.uleb128 0xb
 6657 0064 00       		.byte	0
 6658 0065 00       		.byte	0
 6659 0066 0B       		.uleb128 0xb
 6660 0067 16       		.uleb128 0x16
 6661 0068 00       		.byte	0
 6662 0069 03       		.uleb128 0x3
 6663 006a 0E       		.uleb128 0xe
 6664 006b 3A       		.uleb128 0x3a
 6665 006c 0B       		.uleb128 0xb
 6666 006d 3B       		.uleb128 0x3b
 6667 006e 05       		.uleb128 0x5
 6668 006f 39       		.uleb128 0x39
 6669 0070 0B       		.uleb128 0xb
 6670 0071 49       		.uleb128 0x49
 6671 0072 13       		.uleb128 0x13
 6672 0073 00       		.byte	0
 6673 0074 00       		.byte	0
 6674 0075 0C       		.uleb128 0xc
 6675 0076 13       		.uleb128 0x13
 6676 0077 00       		.byte	0
 6677 0078 03       		.uleb128 0x3
 6678 0079 0E       		.uleb128 0xe
 6679 007a 3C       		.uleb128 0x3c
 6680 007b 19       		.uleb128 0x19
 6681 007c 00       		.byte	0
 6682 007d 00       		.byte	0
 6683 007e 0D       		.uleb128 0xd
 6684 007f 17       		.uleb128 0x17
 6685 0080 01       		.byte	0x1
 6686 0081 0B       		.uleb128 0xb
 6687 0082 0B       		.uleb128 0xb
 6688 0083 3A       		.uleb128 0x3a
 6689 0084 0B       		.uleb128 0xb
 6690 0085 3B       		.uleb128 0x3b
 6691 0086 0B       		.uleb128 0xb
 6692 0087 39       		.uleb128 0x39
 6693 0088 0B       		.uleb128 0xb
 6694 0089 01       		.uleb128 0x1
 6695 008a 13       		.uleb128 0x13
 6696 008b 00       		.byte	0
 6697 008c 00       		.byte	0
ARM GAS  C:\Users\EDULU~1.DES\AppData\Local\Temp\ccmSuQZN.s 			page 145


 6698 008d 0E       		.uleb128 0xe
 6699 008e 0D       		.uleb128 0xd
 6700 008f 00       		.byte	0
 6701 0090 03       		.uleb128 0x3
 6702 0091 0E       		.uleb128 0xe
 6703 0092 3A       		.uleb128 0x3a
 6704 0093 0B       		.uleb128 0xb
 6705 0094 3B       		.uleb128 0x3b
 6706 0095 0B       		.uleb128 0xb
 6707 0096 39       		.uleb128 0x39
 6708 0097 0B       		.uleb128 0xb
 6709 0098 49       		.uleb128 0x49
 6710 0099 13       		.uleb128 0x13
 6711 009a 00       		.byte	0
 6712 009b 00       		.byte	0
 6713 009c 0F       		.uleb128 0xf
 6714 009d 01       		.uleb128 0x1
 6715 009e 01       		.byte	0x1
 6716 009f 49       		.uleb128 0x49
 6717 00a0 13       		.uleb128 0x13
 6718 00a1 01       		.uleb128 0x1
 6719 00a2 13       		.uleb128 0x13
 6720 00a3 00       		.byte	0
 6721 00a4 00       		.byte	0
 6722 00a5 10       		.uleb128 0x10
 6723 00a6 21       		.uleb128 0x21
 6724 00a7 00       		.byte	0
 6725 00a8 49       		.uleb128 0x49
 6726 00a9 13       		.uleb128 0x13
 6727 00aa 2F       		.uleb128 0x2f
 6728 00ab 0B       		.uleb128 0xb
 6729 00ac 00       		.byte	0
 6730 00ad 00       		.byte	0
 6731 00ae 11       		.uleb128 0x11
 6732 00af 13       		.uleb128 0x13
 6733 00b0 01       		.byte	0x1
 6734 00b1 0B       		.uleb128 0xb
 6735 00b2 0B       		.uleb128 0xb
 6736 00b3 3A       		.uleb128 0x3a
 6737 00b4 0B       		.uleb128 0xb
 6738 00b5 3B       		.uleb128 0x3b
 6739 00b6 0B       		.uleb128 0xb
 6740 00b7 39       		.uleb128 0x39
 6741 00b8 0B       		.uleb128 0xb
 6742 00b9 01       		.uleb128 0x1
 6743 00ba 13       		.uleb128 0x13
 6744 00bb 00       		.byte	0
 6745 00bc 00       		.byte	0
 6746 00bd 12       		.uleb128 0x12
 6747 00be 0D       		.uleb128 0xd
 6748 00bf 00       		.byte	0
 6749 00c0 03       		.uleb128 0x3
 6750 00c1 0E       		.uleb128 0xe
 6751 00c2 3A       		.uleb128 0x3a
 6752 00c3 0B       		.uleb128 0xb
 6753 00c4 3B       		.uleb128 0x3b
 6754 00c5 0B       		.uleb128 0xb
ARM GAS  C:\Users\EDULU~1.DES\AppData\Local\Temp\ccmSuQZN.s 			page 146


 6755 00c6 39       		.uleb128 0x39
 6756 00c7 0B       		.uleb128 0xb
 6757 00c8 49       		.uleb128 0x49
 6758 00c9 13       		.uleb128 0x13
 6759 00ca 38       		.uleb128 0x38
 6760 00cb 0B       		.uleb128 0xb
 6761 00cc 00       		.byte	0
 6762 00cd 00       		.byte	0
 6763 00ce 13       		.uleb128 0x13
 6764 00cf 13       		.uleb128 0x13
 6765 00d0 01       		.byte	0x1
 6766 00d1 03       		.uleb128 0x3
 6767 00d2 0E       		.uleb128 0xe
 6768 00d3 0B       		.uleb128 0xb
 6769 00d4 0B       		.uleb128 0xb
 6770 00d5 3A       		.uleb128 0x3a
 6771 00d6 0B       		.uleb128 0xb
 6772 00d7 3B       		.uleb128 0x3b
 6773 00d8 0B       		.uleb128 0xb
 6774 00d9 39       		.uleb128 0x39
 6775 00da 0B       		.uleb128 0xb
 6776 00db 01       		.uleb128 0x1
 6777 00dc 13       		.uleb128 0x13
 6778 00dd 00       		.byte	0
 6779 00de 00       		.byte	0
 6780 00df 14       		.uleb128 0x14
 6781 00e0 0D       		.uleb128 0xd
 6782 00e1 00       		.byte	0
 6783 00e2 03       		.uleb128 0x3
 6784 00e3 08       		.uleb128 0x8
 6785 00e4 3A       		.uleb128 0x3a
 6786 00e5 0B       		.uleb128 0xb
 6787 00e6 3B       		.uleb128 0x3b
 6788 00e7 0B       		.uleb128 0xb
 6789 00e8 39       		.uleb128 0x39
 6790 00e9 0B       		.uleb128 0xb
 6791 00ea 49       		.uleb128 0x49
 6792 00eb 13       		.uleb128 0x13
 6793 00ec 38       		.uleb128 0x38
 6794 00ed 0B       		.uleb128 0xb
 6795 00ee 00       		.byte	0
 6796 00ef 00       		.byte	0
 6797 00f0 15       		.uleb128 0x15
 6798 00f1 13       		.uleb128 0x13
 6799 00f2 01       		.byte	0x1
 6800 00f3 03       		.uleb128 0x3
 6801 00f4 0E       		.uleb128 0xe
 6802 00f5 0B       		.uleb128 0xb
 6803 00f6 05       		.uleb128 0x5
 6804 00f7 3A       		.uleb128 0x3a
 6805 00f8 0B       		.uleb128 0xb
 6806 00f9 3B       		.uleb128 0x3b
 6807 00fa 0B       		.uleb128 0xb
 6808 00fb 39       		.uleb128 0x39
 6809 00fc 0B       		.uleb128 0xb
 6810 00fd 01       		.uleb128 0x1
 6811 00fe 13       		.uleb128 0x13
ARM GAS  C:\Users\EDULU~1.DES\AppData\Local\Temp\ccmSuQZN.s 			page 147


 6812 00ff 00       		.byte	0
 6813 0100 00       		.byte	0
 6814 0101 16       		.uleb128 0x16
 6815 0102 0D       		.uleb128 0xd
 6816 0103 00       		.byte	0
 6817 0104 03       		.uleb128 0x3
 6818 0105 0E       		.uleb128 0xe
 6819 0106 3A       		.uleb128 0x3a
 6820 0107 0B       		.uleb128 0xb
 6821 0108 3B       		.uleb128 0x3b
 6822 0109 0B       		.uleb128 0xb
 6823 010a 39       		.uleb128 0x39
 6824 010b 0B       		.uleb128 0xb
 6825 010c 49       		.uleb128 0x49
 6826 010d 13       		.uleb128 0x13
 6827 010e 38       		.uleb128 0x38
 6828 010f 05       		.uleb128 0x5
 6829 0110 00       		.byte	0
 6830 0111 00       		.byte	0
 6831 0112 17       		.uleb128 0x17
 6832 0113 15       		.uleb128 0x15
 6833 0114 01       		.byte	0x1
 6834 0115 27       		.uleb128 0x27
 6835 0116 19       		.uleb128 0x19
 6836 0117 49       		.uleb128 0x49
 6837 0118 13       		.uleb128 0x13
 6838 0119 01       		.uleb128 0x1
 6839 011a 13       		.uleb128 0x13
 6840 011b 00       		.byte	0
 6841 011c 00       		.byte	0
 6842 011d 18       		.uleb128 0x18
 6843 011e 13       		.uleb128 0x13
 6844 011f 01       		.byte	0x1
 6845 0120 03       		.uleb128 0x3
 6846 0121 0E       		.uleb128 0xe
 6847 0122 0B       		.uleb128 0xb
 6848 0123 05       		.uleb128 0x5
 6849 0124 3A       		.uleb128 0x3a
 6850 0125 0B       		.uleb128 0xb
 6851 0126 3B       		.uleb128 0x3b
 6852 0127 05       		.uleb128 0x5
 6853 0128 39       		.uleb128 0x39
 6854 0129 0B       		.uleb128 0xb
 6855 012a 01       		.uleb128 0x1
 6856 012b 13       		.uleb128 0x13
 6857 012c 00       		.byte	0
 6858 012d 00       		.byte	0
 6859 012e 19       		.uleb128 0x19
 6860 012f 0D       		.uleb128 0xd
 6861 0130 00       		.byte	0
 6862 0131 03       		.uleb128 0x3
 6863 0132 0E       		.uleb128 0xe
 6864 0133 3A       		.uleb128 0x3a
 6865 0134 0B       		.uleb128 0xb
 6866 0135 3B       		.uleb128 0x3b
 6867 0136 05       		.uleb128 0x5
 6868 0137 39       		.uleb128 0x39
ARM GAS  C:\Users\EDULU~1.DES\AppData\Local\Temp\ccmSuQZN.s 			page 148


 6869 0138 0B       		.uleb128 0xb
 6870 0139 49       		.uleb128 0x49
 6871 013a 13       		.uleb128 0x13
 6872 013b 38       		.uleb128 0x38
 6873 013c 0B       		.uleb128 0xb
 6874 013d 00       		.byte	0
 6875 013e 00       		.byte	0
 6876 013f 1A       		.uleb128 0x1a
 6877 0140 0D       		.uleb128 0xd
 6878 0141 00       		.byte	0
 6879 0142 03       		.uleb128 0x3
 6880 0143 0E       		.uleb128 0xe
 6881 0144 3A       		.uleb128 0x3a
 6882 0145 0B       		.uleb128 0xb
 6883 0146 3B       		.uleb128 0x3b
 6884 0147 05       		.uleb128 0x5
 6885 0148 39       		.uleb128 0x39
 6886 0149 0B       		.uleb128 0xb
 6887 014a 49       		.uleb128 0x49
 6888 014b 13       		.uleb128 0x13
 6889 014c 38       		.uleb128 0x38
 6890 014d 05       		.uleb128 0x5
 6891 014e 00       		.byte	0
 6892 014f 00       		.byte	0
 6893 0150 1B       		.uleb128 0x1b
 6894 0151 13       		.uleb128 0x13
 6895 0152 01       		.byte	0x1
 6896 0153 03       		.uleb128 0x3
 6897 0154 0E       		.uleb128 0xe
 6898 0155 0B       		.uleb128 0xb
 6899 0156 0B       		.uleb128 0xb
 6900 0157 3A       		.uleb128 0x3a
 6901 0158 0B       		.uleb128 0xb
 6902 0159 3B       		.uleb128 0x3b
 6903 015a 05       		.uleb128 0x5
 6904 015b 39       		.uleb128 0x39
 6905 015c 0B       		.uleb128 0xb
 6906 015d 01       		.uleb128 0x1
 6907 015e 13       		.uleb128 0x13
 6908 015f 00       		.byte	0
 6909 0160 00       		.byte	0
 6910 0161 1C       		.uleb128 0x1c
 6911 0162 13       		.uleb128 0x13
 6912 0163 01       		.byte	0x1
 6913 0164 0B       		.uleb128 0xb
 6914 0165 0B       		.uleb128 0xb
 6915 0166 3A       		.uleb128 0x3a
 6916 0167 0B       		.uleb128 0xb
 6917 0168 3B       		.uleb128 0x3b
 6918 0169 05       		.uleb128 0x5
 6919 016a 39       		.uleb128 0x39
 6920 016b 0B       		.uleb128 0xb
 6921 016c 01       		.uleb128 0x1
 6922 016d 13       		.uleb128 0x13
 6923 016e 00       		.byte	0
 6924 016f 00       		.byte	0
 6925 0170 1D       		.uleb128 0x1d
ARM GAS  C:\Users\EDULU~1.DES\AppData\Local\Temp\ccmSuQZN.s 			page 149


 6926 0171 17       		.uleb128 0x17
 6927 0172 01       		.byte	0x1
 6928 0173 0B       		.uleb128 0xb
 6929 0174 0B       		.uleb128 0xb
 6930 0175 3A       		.uleb128 0x3a
 6931 0176 0B       		.uleb128 0xb
 6932 0177 3B       		.uleb128 0x3b
 6933 0178 05       		.uleb128 0x5
 6934 0179 39       		.uleb128 0x39
 6935 017a 0B       		.uleb128 0xb
 6936 017b 01       		.uleb128 0x1
 6937 017c 13       		.uleb128 0x13
 6938 017d 00       		.byte	0
 6939 017e 00       		.byte	0
 6940 017f 1E       		.uleb128 0x1e
 6941 0180 0D       		.uleb128 0xd
 6942 0181 00       		.byte	0
 6943 0182 03       		.uleb128 0x3
 6944 0183 0E       		.uleb128 0xe
 6945 0184 3A       		.uleb128 0x3a
 6946 0185 0B       		.uleb128 0xb
 6947 0186 3B       		.uleb128 0x3b
 6948 0187 05       		.uleb128 0x5
 6949 0188 39       		.uleb128 0x39
 6950 0189 0B       		.uleb128 0xb
 6951 018a 49       		.uleb128 0x49
 6952 018b 13       		.uleb128 0x13
 6953 018c 00       		.byte	0
 6954 018d 00       		.byte	0
 6955 018e 1F       		.uleb128 0x1f
 6956 018f 34       		.uleb128 0x34
 6957 0190 00       		.byte	0
 6958 0191 03       		.uleb128 0x3
 6959 0192 0E       		.uleb128 0xe
 6960 0193 3A       		.uleb128 0x3a
 6961 0194 0B       		.uleb128 0xb
 6962 0195 3B       		.uleb128 0x3b
 6963 0196 05       		.uleb128 0x5
 6964 0197 39       		.uleb128 0x39
 6965 0198 0B       		.uleb128 0xb
 6966 0199 49       		.uleb128 0x49
 6967 019a 13       		.uleb128 0x13
 6968 019b 3F       		.uleb128 0x3f
 6969 019c 19       		.uleb128 0x19
 6970 019d 3C       		.uleb128 0x3c
 6971 019e 19       		.uleb128 0x19
 6972 019f 00       		.byte	0
 6973 01a0 00       		.byte	0
 6974 01a1 20       		.uleb128 0x20
 6975 01a2 34       		.uleb128 0x34
 6976 01a3 00       		.byte	0
 6977 01a4 03       		.uleb128 0x3
 6978 01a5 0E       		.uleb128 0xe
 6979 01a6 3A       		.uleb128 0x3a
 6980 01a7 0B       		.uleb128 0xb
 6981 01a8 3B       		.uleb128 0x3b
 6982 01a9 0B       		.uleb128 0xb
ARM GAS  C:\Users\EDULU~1.DES\AppData\Local\Temp\ccmSuQZN.s 			page 150


 6983 01aa 39       		.uleb128 0x39
 6984 01ab 0B       		.uleb128 0xb
 6985 01ac 49       		.uleb128 0x49
 6986 01ad 13       		.uleb128 0x13
 6987 01ae 3F       		.uleb128 0x3f
 6988 01af 19       		.uleb128 0x19
 6989 01b0 3C       		.uleb128 0x3c
 6990 01b1 19       		.uleb128 0x19
 6991 01b2 00       		.byte	0
 6992 01b3 00       		.byte	0
 6993 01b4 21       		.uleb128 0x21
 6994 01b5 04       		.uleb128 0x4
 6995 01b6 01       		.byte	0x1
 6996 01b7 03       		.uleb128 0x3
 6997 01b8 0E       		.uleb128 0xe
 6998 01b9 3E       		.uleb128 0x3e
 6999 01ba 0B       		.uleb128 0xb
 7000 01bb 0B       		.uleb128 0xb
 7001 01bc 0B       		.uleb128 0xb
 7002 01bd 49       		.uleb128 0x49
 7003 01be 13       		.uleb128 0x13
 7004 01bf 3A       		.uleb128 0x3a
 7005 01c0 0B       		.uleb128 0xb
 7006 01c1 3B       		.uleb128 0x3b
 7007 01c2 05       		.uleb128 0x5
 7008 01c3 39       		.uleb128 0x39
 7009 01c4 0B       		.uleb128 0xb
 7010 01c5 01       		.uleb128 0x1
 7011 01c6 13       		.uleb128 0x13
 7012 01c7 00       		.byte	0
 7013 01c8 00       		.byte	0
 7014 01c9 22       		.uleb128 0x22
 7015 01ca 28       		.uleb128 0x28
 7016 01cb 00       		.byte	0
 7017 01cc 03       		.uleb128 0x3
 7018 01cd 0E       		.uleb128 0xe
 7019 01ce 1C       		.uleb128 0x1c
 7020 01cf 0B       		.uleb128 0xb
 7021 01d0 00       		.byte	0
 7022 01d1 00       		.byte	0
 7023 01d2 23       		.uleb128 0x23
 7024 01d3 28       		.uleb128 0x28
 7025 01d4 00       		.byte	0
 7026 01d5 03       		.uleb128 0x3
 7027 01d6 0E       		.uleb128 0xe
 7028 01d7 1C       		.uleb128 0x1c
 7029 01d8 05       		.uleb128 0x5
 7030 01d9 00       		.byte	0
 7031 01da 00       		.byte	0
 7032 01db 24       		.uleb128 0x24
 7033 01dc 0D       		.uleb128 0xd
 7034 01dd 00       		.byte	0
 7035 01de 03       		.uleb128 0x3
 7036 01df 08       		.uleb128 0x8
 7037 01e0 3A       		.uleb128 0x3a
 7038 01e1 0B       		.uleb128 0xb
 7039 01e2 3B       		.uleb128 0x3b
ARM GAS  C:\Users\EDULU~1.DES\AppData\Local\Temp\ccmSuQZN.s 			page 151


 7040 01e3 05       		.uleb128 0x5
 7041 01e4 39       		.uleb128 0x39
 7042 01e5 0B       		.uleb128 0xb
 7043 01e6 49       		.uleb128 0x49
 7044 01e7 13       		.uleb128 0x13
 7045 01e8 38       		.uleb128 0x38
 7046 01e9 0B       		.uleb128 0xb
 7047 01ea 00       		.byte	0
 7048 01eb 00       		.byte	0
 7049 01ec 25       		.uleb128 0x25
 7050 01ed 21       		.uleb128 0x21
 7051 01ee 00       		.byte	0
 7052 01ef 00       		.byte	0
 7053 01f0 00       		.byte	0
 7054 01f1 26       		.uleb128 0x26
 7055 01f2 2E       		.uleb128 0x2e
 7056 01f3 01       		.byte	0x1
 7057 01f4 3F       		.uleb128 0x3f
 7058 01f5 19       		.uleb128 0x19
 7059 01f6 03       		.uleb128 0x3
 7060 01f7 0E       		.uleb128 0xe
 7061 01f8 3A       		.uleb128 0x3a
 7062 01f9 0B       		.uleb128 0xb
 7063 01fa 3B       		.uleb128 0x3b
 7064 01fb 05       		.uleb128 0x5
 7065 01fc 39       		.uleb128 0x39
 7066 01fd 0B       		.uleb128 0xb
 7067 01fe 27       		.uleb128 0x27
 7068 01ff 19       		.uleb128 0x19
 7069 0200 11       		.uleb128 0x11
 7070 0201 01       		.uleb128 0x1
 7071 0202 12       		.uleb128 0x12
 7072 0203 06       		.uleb128 0x6
 7073 0204 40       		.uleb128 0x40
 7074 0205 18       		.uleb128 0x18
 7075 0206 9642     		.uleb128 0x2116
 7076 0208 19       		.uleb128 0x19
 7077 0209 01       		.uleb128 0x1
 7078 020a 13       		.uleb128 0x13
 7079 020b 00       		.byte	0
 7080 020c 00       		.byte	0
 7081 020d 27       		.uleb128 0x27
 7082 020e 05       		.uleb128 0x5
 7083 020f 00       		.byte	0
 7084 0210 03       		.uleb128 0x3
 7085 0211 0E       		.uleb128 0xe
 7086 0212 3A       		.uleb128 0x3a
 7087 0213 0B       		.uleb128 0xb
 7088 0214 3B       		.uleb128 0x3b
 7089 0215 05       		.uleb128 0x5
 7090 0216 39       		.uleb128 0x39
 7091 0217 0B       		.uleb128 0xb
 7092 0218 49       		.uleb128 0x49
 7093 0219 13       		.uleb128 0x13
 7094 021a 02       		.uleb128 0x2
 7095 021b 17       		.uleb128 0x17
 7096 021c B742     		.uleb128 0x2137
ARM GAS  C:\Users\EDULU~1.DES\AppData\Local\Temp\ccmSuQZN.s 			page 152


 7097 021e 17       		.uleb128 0x17
 7098 021f 00       		.byte	0
 7099 0220 00       		.byte	0
 7100 0221 28       		.uleb128 0x28
 7101 0222 34       		.uleb128 0x34
 7102 0223 00       		.byte	0
 7103 0224 03       		.uleb128 0x3
 7104 0225 0E       		.uleb128 0xe
 7105 0226 3A       		.uleb128 0x3a
 7106 0227 0B       		.uleb128 0xb
 7107 0228 3B       		.uleb128 0x3b
 7108 0229 05       		.uleb128 0x5
 7109 022a 39       		.uleb128 0x39
 7110 022b 0B       		.uleb128 0xb
 7111 022c 49       		.uleb128 0x49
 7112 022d 13       		.uleb128 0x13
 7113 022e 02       		.uleb128 0x2
 7114 022f 17       		.uleb128 0x17
 7115 0230 B742     		.uleb128 0x2137
 7116 0232 17       		.uleb128 0x17
 7117 0233 00       		.byte	0
 7118 0234 00       		.byte	0
 7119 0235 29       		.uleb128 0x29
 7120 0236 34       		.uleb128 0x34
 7121 0237 00       		.byte	0
 7122 0238 03       		.uleb128 0x3
 7123 0239 08       		.uleb128 0x8
 7124 023a 3A       		.uleb128 0x3a
 7125 023b 0B       		.uleb128 0xb
 7126 023c 3B       		.uleb128 0x3b
 7127 023d 05       		.uleb128 0x5
 7128 023e 39       		.uleb128 0x39
 7129 023f 0B       		.uleb128 0xb
 7130 0240 49       		.uleb128 0x49
 7131 0241 13       		.uleb128 0x13
 7132 0242 02       		.uleb128 0x2
 7133 0243 18       		.uleb128 0x18
 7134 0244 00       		.byte	0
 7135 0245 00       		.byte	0
 7136 0246 2A       		.uleb128 0x2a
 7137 0247 34       		.uleb128 0x34
 7138 0248 00       		.byte	0
 7139 0249 03       		.uleb128 0x3
 7140 024a 0E       		.uleb128 0xe
 7141 024b 3A       		.uleb128 0x3a
 7142 024c 0B       		.uleb128 0xb
 7143 024d 3B       		.uleb128 0x3b
 7144 024e 05       		.uleb128 0x5
 7145 024f 39       		.uleb128 0x39
 7146 0250 0B       		.uleb128 0xb
 7147 0251 49       		.uleb128 0x49
 7148 0252 13       		.uleb128 0x13
 7149 0253 00       		.byte	0
 7150 0254 00       		.byte	0
 7151 0255 2B       		.uleb128 0x2b
 7152 0256 898201   		.uleb128 0x4109
 7153 0259 01       		.byte	0x1
ARM GAS  C:\Users\EDULU~1.DES\AppData\Local\Temp\ccmSuQZN.s 			page 153


 7154 025a 11       		.uleb128 0x11
 7155 025b 01       		.uleb128 0x1
 7156 025c 31       		.uleb128 0x31
 7157 025d 13       		.uleb128 0x13
 7158 025e 01       		.uleb128 0x1
 7159 025f 13       		.uleb128 0x13
 7160 0260 00       		.byte	0
 7161 0261 00       		.byte	0
 7162 0262 2C       		.uleb128 0x2c
 7163 0263 8A8201   		.uleb128 0x410a
 7164 0266 00       		.byte	0
 7165 0267 02       		.uleb128 0x2
 7166 0268 18       		.uleb128 0x18
 7167 0269 9142     		.uleb128 0x2111
 7168 026b 18       		.uleb128 0x18
 7169 026c 00       		.byte	0
 7170 026d 00       		.byte	0
 7171 026e 2D       		.uleb128 0x2d
 7172 026f 898201   		.uleb128 0x4109
 7173 0272 01       		.byte	0x1
 7174 0273 11       		.uleb128 0x11
 7175 0274 01       		.uleb128 0x1
 7176 0275 01       		.uleb128 0x1
 7177 0276 13       		.uleb128 0x13
 7178 0277 00       		.byte	0
 7179 0278 00       		.byte	0
 7180 0279 2E       		.uleb128 0x2e
 7181 027a 898201   		.uleb128 0x4109
 7182 027d 00       		.byte	0
 7183 027e 11       		.uleb128 0x11
 7184 027f 01       		.uleb128 0x1
 7185 0280 31       		.uleb128 0x31
 7186 0281 13       		.uleb128 0x13
 7187 0282 00       		.byte	0
 7188 0283 00       		.byte	0
 7189 0284 2F       		.uleb128 0x2f
 7190 0285 2E       		.uleb128 0x2e
 7191 0286 01       		.byte	0x1
 7192 0287 3F       		.uleb128 0x3f
 7193 0288 19       		.uleb128 0x19
 7194 0289 03       		.uleb128 0x3
 7195 028a 0E       		.uleb128 0xe
 7196 028b 3A       		.uleb128 0x3a
 7197 028c 0B       		.uleb128 0xb
 7198 028d 3B       		.uleb128 0x3b
 7199 028e 05       		.uleb128 0x5
 7200 028f 39       		.uleb128 0x39
 7201 0290 0B       		.uleb128 0xb
 7202 0291 27       		.uleb128 0x27
 7203 0292 19       		.uleb128 0x19
 7204 0293 11       		.uleb128 0x11
 7205 0294 01       		.uleb128 0x1
 7206 0295 12       		.uleb128 0x12
 7207 0296 06       		.uleb128 0x6
 7208 0297 40       		.uleb128 0x40
 7209 0298 18       		.uleb128 0x18
 7210 0299 9742     		.uleb128 0x2117
ARM GAS  C:\Users\EDULU~1.DES\AppData\Local\Temp\ccmSuQZN.s 			page 154


 7211 029b 19       		.uleb128 0x19
 7212 029c 01       		.uleb128 0x1
 7213 029d 13       		.uleb128 0x13
 7214 029e 00       		.byte	0
 7215 029f 00       		.byte	0
 7216 02a0 30       		.uleb128 0x30
 7217 02a1 34       		.uleb128 0x34
 7218 02a2 00       		.byte	0
 7219 02a3 03       		.uleb128 0x3
 7220 02a4 08       		.uleb128 0x8
 7221 02a5 3A       		.uleb128 0x3a
 7222 02a6 0B       		.uleb128 0xb
 7223 02a7 3B       		.uleb128 0x3b
 7224 02a8 05       		.uleb128 0x5
 7225 02a9 39       		.uleb128 0x39
 7226 02aa 0B       		.uleb128 0xb
 7227 02ab 49       		.uleb128 0x49
 7228 02ac 13       		.uleb128 0x13
 7229 02ad 02       		.uleb128 0x2
 7230 02ae 17       		.uleb128 0x17
 7231 02af B742     		.uleb128 0x2137
 7232 02b1 17       		.uleb128 0x17
 7233 02b2 00       		.byte	0
 7234 02b3 00       		.byte	0
 7235 02b4 31       		.uleb128 0x31
 7236 02b5 05       		.uleb128 0x5
 7237 02b6 00       		.byte	0
 7238 02b7 03       		.uleb128 0x3
 7239 02b8 08       		.uleb128 0x8
 7240 02b9 3A       		.uleb128 0x3a
 7241 02ba 0B       		.uleb128 0xb
 7242 02bb 3B       		.uleb128 0x3b
 7243 02bc 05       		.uleb128 0x5
 7244 02bd 39       		.uleb128 0x39
 7245 02be 0B       		.uleb128 0xb
 7246 02bf 49       		.uleb128 0x49
 7247 02c0 13       		.uleb128 0x13
 7248 02c1 02       		.uleb128 0x2
 7249 02c2 17       		.uleb128 0x17
 7250 02c3 B742     		.uleb128 0x2137
 7251 02c5 17       		.uleb128 0x17
 7252 02c6 00       		.byte	0
 7253 02c7 00       		.byte	0
 7254 02c8 32       		.uleb128 0x32
 7255 02c9 898201   		.uleb128 0x4109
 7256 02cc 01       		.byte	0x1
 7257 02cd 11       		.uleb128 0x11
 7258 02ce 01       		.uleb128 0x1
 7259 02cf 31       		.uleb128 0x31
 7260 02d0 13       		.uleb128 0x13
 7261 02d1 00       		.byte	0
 7262 02d2 00       		.byte	0
 7263 02d3 33       		.uleb128 0x33
 7264 02d4 05       		.uleb128 0x5
 7265 02d5 00       		.byte	0
 7266 02d6 03       		.uleb128 0x3
 7267 02d7 0E       		.uleb128 0xe
ARM GAS  C:\Users\EDULU~1.DES\AppData\Local\Temp\ccmSuQZN.s 			page 155


 7268 02d8 3A       		.uleb128 0x3a
 7269 02d9 0B       		.uleb128 0xb
 7270 02da 3B       		.uleb128 0x3b
 7271 02db 05       		.uleb128 0x5
 7272 02dc 39       		.uleb128 0x39
 7273 02dd 0B       		.uleb128 0xb
 7274 02de 49       		.uleb128 0x49
 7275 02df 13       		.uleb128 0x13
 7276 02e0 02       		.uleb128 0x2
 7277 02e1 18       		.uleb128 0x18
 7278 02e2 00       		.byte	0
 7279 02e3 00       		.byte	0
 7280 02e4 34       		.uleb128 0x34
 7281 02e5 2E       		.uleb128 0x2e
 7282 02e6 01       		.byte	0x1
 7283 02e7 3F       		.uleb128 0x3f
 7284 02e8 19       		.uleb128 0x19
 7285 02e9 03       		.uleb128 0x3
 7286 02ea 0E       		.uleb128 0xe
 7287 02eb 3A       		.uleb128 0x3a
 7288 02ec 0B       		.uleb128 0xb
 7289 02ed 3B       		.uleb128 0x3b
 7290 02ee 05       		.uleb128 0x5
 7291 02ef 39       		.uleb128 0x39
 7292 02f0 0B       		.uleb128 0xb
 7293 02f1 27       		.uleb128 0x27
 7294 02f2 19       		.uleb128 0x19
 7295 02f3 49       		.uleb128 0x49
 7296 02f4 13       		.uleb128 0x13
 7297 02f5 11       		.uleb128 0x11
 7298 02f6 01       		.uleb128 0x1
 7299 02f7 12       		.uleb128 0x12
 7300 02f8 06       		.uleb128 0x6
 7301 02f9 40       		.uleb128 0x40
 7302 02fa 18       		.uleb128 0x18
 7303 02fb 9742     		.uleb128 0x2117
 7304 02fd 19       		.uleb128 0x19
 7305 02fe 01       		.uleb128 0x1
 7306 02ff 13       		.uleb128 0x13
 7307 0300 00       		.byte	0
 7308 0301 00       		.byte	0
 7309 0302 35       		.uleb128 0x35
 7310 0303 2E       		.uleb128 0x2e
 7311 0304 01       		.byte	0x1
 7312 0305 3F       		.uleb128 0x3f
 7313 0306 19       		.uleb128 0x19
 7314 0307 03       		.uleb128 0x3
 7315 0308 0E       		.uleb128 0xe
 7316 0309 3A       		.uleb128 0x3a
 7317 030a 0B       		.uleb128 0xb
 7318 030b 3B       		.uleb128 0x3b
 7319 030c 0B       		.uleb128 0xb
 7320 030d 39       		.uleb128 0x39
 7321 030e 0B       		.uleb128 0xb
 7322 030f 27       		.uleb128 0x27
 7323 0310 19       		.uleb128 0x19
 7324 0311 11       		.uleb128 0x11
ARM GAS  C:\Users\EDULU~1.DES\AppData\Local\Temp\ccmSuQZN.s 			page 156


 7325 0312 01       		.uleb128 0x1
 7326 0313 12       		.uleb128 0x12
 7327 0314 06       		.uleb128 0x6
 7328 0315 40       		.uleb128 0x40
 7329 0316 18       		.uleb128 0x18
 7330 0317 9742     		.uleb128 0x2117
 7331 0319 19       		.uleb128 0x19
 7332 031a 01       		.uleb128 0x1
 7333 031b 13       		.uleb128 0x13
 7334 031c 00       		.byte	0
 7335 031d 00       		.byte	0
 7336 031e 36       		.uleb128 0x36
 7337 031f 05       		.uleb128 0x5
 7338 0320 00       		.byte	0
 7339 0321 03       		.uleb128 0x3
 7340 0322 0E       		.uleb128 0xe
 7341 0323 3A       		.uleb128 0x3a
 7342 0324 0B       		.uleb128 0xb
 7343 0325 3B       		.uleb128 0x3b
 7344 0326 0B       		.uleb128 0xb
 7345 0327 39       		.uleb128 0x39
 7346 0328 0B       		.uleb128 0xb
 7347 0329 49       		.uleb128 0x49
 7348 032a 13       		.uleb128 0x13
 7349 032b 02       		.uleb128 0x2
 7350 032c 17       		.uleb128 0x17
 7351 032d B742     		.uleb128 0x2137
 7352 032f 17       		.uleb128 0x17
 7353 0330 00       		.byte	0
 7354 0331 00       		.byte	0
 7355 0332 37       		.uleb128 0x37
 7356 0333 05       		.uleb128 0x5
 7357 0334 00       		.byte	0
 7358 0335 03       		.uleb128 0x3
 7359 0336 08       		.uleb128 0x8
 7360 0337 3A       		.uleb128 0x3a
 7361 0338 0B       		.uleb128 0xb
 7362 0339 3B       		.uleb128 0x3b
 7363 033a 0B       		.uleb128 0xb
 7364 033b 39       		.uleb128 0x39
 7365 033c 0B       		.uleb128 0xb
 7366 033d 49       		.uleb128 0x49
 7367 033e 13       		.uleb128 0x13
 7368 033f 02       		.uleb128 0x2
 7369 0340 17       		.uleb128 0x17
 7370 0341 B742     		.uleb128 0x2137
 7371 0343 17       		.uleb128 0x17
 7372 0344 00       		.byte	0
 7373 0345 00       		.byte	0
 7374 0346 38       		.uleb128 0x38
 7375 0347 34       		.uleb128 0x34
 7376 0348 00       		.byte	0
 7377 0349 03       		.uleb128 0x3
 7378 034a 0E       		.uleb128 0xe
 7379 034b 3A       		.uleb128 0x3a
 7380 034c 0B       		.uleb128 0xb
 7381 034d 3B       		.uleb128 0x3b
ARM GAS  C:\Users\EDULU~1.DES\AppData\Local\Temp\ccmSuQZN.s 			page 157


 7382 034e 0B       		.uleb128 0xb
 7383 034f 39       		.uleb128 0x39
 7384 0350 0B       		.uleb128 0xb
 7385 0351 49       		.uleb128 0x49
 7386 0352 13       		.uleb128 0x13
 7387 0353 02       		.uleb128 0x2
 7388 0354 17       		.uleb128 0x17
 7389 0355 B742     		.uleb128 0x2137
 7390 0357 17       		.uleb128 0x17
 7391 0358 00       		.byte	0
 7392 0359 00       		.byte	0
 7393 035a 39       		.uleb128 0x39
 7394 035b 2E       		.uleb128 0x2e
 7395 035c 00       		.byte	0
 7396 035d 3F       		.uleb128 0x3f
 7397 035e 19       		.uleb128 0x19
 7398 035f 3C       		.uleb128 0x3c
 7399 0360 19       		.uleb128 0x19
 7400 0361 6E       		.uleb128 0x6e
 7401 0362 0E       		.uleb128 0xe
 7402 0363 03       		.uleb128 0x3
 7403 0364 0E       		.uleb128 0xe
 7404 0365 3A       		.uleb128 0x3a
 7405 0366 0B       		.uleb128 0xb
 7406 0367 3B       		.uleb128 0x3b
 7407 0368 05       		.uleb128 0x5
 7408 0369 39       		.uleb128 0x39
 7409 036a 0B       		.uleb128 0xb
 7410 036b 00       		.byte	0
 7411 036c 00       		.byte	0
 7412 036d 00       		.byte	0
 7413              		.section	.debug_loc,"",%progbits
 7414              	.Ldebug_loc0:
 7415              	.LVUS41:
 7416 0000 01       		.uleb128 .LVU620
 7417 0001 00       		.uleb128 .LVU621
 7418 0002 00       		.uleb128 .LVU621
 7419 0003 00       		.uleb128 0
 7420              	.LLST41:
 7421 0004 00000000 		.4byte	.LVL181
 7422 0008 06000000 		.4byte	.LVL182
 7423 000c 0100     		.2byte	0x1
 7424 000e 50       		.byte	0x50
 7425 000f 06000000 		.4byte	.LVL182
 7426 0013 A4000000 		.4byte	.LFE15
 7427 0017 0400     		.2byte	0x4
 7428 0019 F3       		.byte	0xf3
 7429 001a 01       		.uleb128 0x1
 7430 001b 50       		.byte	0x50
 7431 001c 9F       		.byte	0x9f
 7432 001d 00000000 		.4byte	0
 7433 0021 00000000 		.4byte	0
 7434              	.LVUS42:
 7435 0025 00       		.uleb128 .LVU621
 7436 0026 00       		.uleb128 .LVU652
 7437 0027 01       		.uleb128 .LVU669
 7438 0028 00       		.uleb128 0
ARM GAS  C:\Users\EDULU~1.DES\AppData\Local\Temp\ccmSuQZN.s 			page 158


 7439              	.LLST42:
 7440 0029 06000000 		.4byte	.LVL182
 7441 002d 5C000000 		.4byte	.LVL194
 7442 0031 0200     		.2byte	0x2
 7443 0033 30       		.byte	0x30
 7444 0034 9F       		.byte	0x9f
 7445 0035 90000000 		.4byte	.LVL203
 7446 0039 A4000000 		.4byte	.LFE15
 7447 003d 0200     		.2byte	0x2
 7448 003f 30       		.byte	0x30
 7449 0040 9F       		.byte	0x9f
 7450 0041 00000000 		.4byte	0
 7451 0045 00000000 		.4byte	0
 7452              	.LVUS43:
 7453 0049 00       		.uleb128 .LVU638
 7454 004a 00       		.uleb128 .LVU642
 7455              	.LLST43:
 7456 004b 36000000 		.4byte	.LVL188
 7457 004f 3F000000 		.4byte	.LVL189-1
 7458 0053 0100     		.2byte	0x1
 7459 0055 53       		.byte	0x53
 7460 0056 00000000 		.4byte	0
 7461 005a 00000000 		.4byte	0
 7462              	.LVUS44:
 7463 005e 00       		.uleb128 .LVU621
 7464 005f 00       		.uleb128 .LVU652
 7465 0060 00       		.uleb128 .LVU668
 7466 0061 00       		.uleb128 0
 7467              	.LLST44:
 7468 0062 06000000 		.4byte	.LVL182
 7469 0066 5C000000 		.4byte	.LVL194
 7470 006a 0100     		.2byte	0x1
 7471 006c 54       		.byte	0x54
 7472 006d 90000000 		.4byte	.LVL203
 7473 0071 A4000000 		.4byte	.LFE15
 7474 0075 0100     		.2byte	0x1
 7475 0077 54       		.byte	0x54
 7476 0078 00000000 		.4byte	0
 7477 007c 00000000 		.4byte	0
 7478              	.LVUS45:
 7479 0080 00       		.uleb128 .LVU621
 7480 0081 00       		.uleb128 .LVU623
 7481 0082 00       		.uleb128 .LVU627
 7482 0083 00       		.uleb128 .LVU643
 7483              	.LLST45:
 7484 0084 06000000 		.4byte	.LVL182
 7485 0088 12000000 		.4byte	.LVL185
 7486 008c 0100     		.2byte	0x1
 7487 008e 55       		.byte	0x55
 7488 008f 18000000 		.4byte	.LVL186
 7489 0093 42000000 		.4byte	.LVL190
 7490 0097 0100     		.2byte	0x1
 7491 0099 55       		.byte	0x55
 7492 009a 00000000 		.4byte	0
 7493 009e 00000000 		.4byte	0
 7494              	.LVUS46:
 7495 00a2 00       		.uleb128 .LVU663
ARM GAS  C:\Users\EDULU~1.DES\AppData\Local\Temp\ccmSuQZN.s 			page 159


 7496 00a3 00       		.uleb128 .LVU665
 7497              	.LLST46:
 7498 00a4 88000000 		.4byte	.LVL200
 7499 00a8 8A000000 		.4byte	.LVL201
 7500 00ac 0100     		.2byte	0x1
 7501 00ae 51       		.byte	0x51
 7502 00af 00000000 		.4byte	0
 7503 00b3 00000000 		.4byte	0
 7504              	.LVUS47:
 7505 00b7 00       		.uleb128 .LVU621
 7506 00b8 00       		.uleb128 .LVU646
 7507 00b9 00       		.uleb128 .LVU658
 7508 00ba 00       		.uleb128 .LVU660
 7509 00bb 00       		.uleb128 .LVU660
 7510 00bc 00       		.uleb128 0
 7511              	.LLST47:
 7512 00bd 06000000 		.4byte	.LVL182
 7513 00c1 48000000 		.4byte	.LVL192
 7514 00c5 0100     		.2byte	0x1
 7515 00c7 56       		.byte	0x56
 7516 00c8 78000000 		.4byte	.LVL198
 7517 00cc 7E000000 		.4byte	.LVL199
 7518 00d0 0100     		.2byte	0x1
 7519 00d2 50       		.byte	0x50
 7520 00d3 7E000000 		.4byte	.LVL199
 7521 00d7 A4000000 		.4byte	.LFE15
 7522 00db 0100     		.2byte	0x1
 7523 00dd 56       		.byte	0x56
 7524 00de 00000000 		.4byte	0
 7525 00e2 00000000 		.4byte	0
 7526              	.LVUS48:
 7527 00e6 00       		.uleb128 .LVU646
 7528 00e7 00       		.uleb128 .LVU652
 7529              	.LLST48:
 7530 00e8 48000000 		.4byte	.LVL192
 7531 00ec 5C000000 		.4byte	.LVL194
 7532 00f0 0100     		.2byte	0x1
 7533 00f2 56       		.byte	0x56
 7534 00f3 00000000 		.4byte	0
 7535 00f7 00000000 		.4byte	0
 7536              	.LVUS28:
 7537 00fb 00       		.uleb128 0
 7538 00fc 00       		.uleb128 .LVU442
 7539 00fd 00       		.uleb128 .LVU442
 7540 00fe 01       		.uleb128 .LVU471
 7541 00ff 01       		.uleb128 .LVU471
 7542 0100 00       		.uleb128 .LVU472
 7543 0101 00       		.uleb128 .LVU472
 7544 0102 00       		.uleb128 0
 7545              	.LLST28:
 7546 0103 00000000 		.4byte	.LVL113
 7547 0107 0A000000 		.4byte	.LVL114
 7548 010b 0100     		.2byte	0x1
 7549 010d 50       		.byte	0x50
 7550 010e 0A000000 		.4byte	.LVL114
 7551 0112 40000000 		.4byte	.LVL123
 7552 0116 0100     		.2byte	0x1
ARM GAS  C:\Users\EDULU~1.DES\AppData\Local\Temp\ccmSuQZN.s 			page 160


 7553 0118 54       		.byte	0x54
 7554 0119 40000000 		.4byte	.LVL123
 7555 011d 42000000 		.4byte	.LVL124
 7556 0121 0400     		.2byte	0x4
 7557 0123 F3       		.byte	0xf3
 7558 0124 01       		.uleb128 0x1
 7559 0125 50       		.byte	0x50
 7560 0126 9F       		.byte	0x9f
 7561 0127 42000000 		.4byte	.LVL124
 7562 012b 5C000000 		.4byte	.LFE14
 7563 012f 0100     		.2byte	0x1
 7564 0131 54       		.byte	0x54
 7565 0132 00000000 		.4byte	0
 7566 0136 00000000 		.4byte	0
 7567              	.LVUS29:
 7568 013a 00       		.uleb128 .LVU451
 7569 013b 00       		.uleb128 .LVU461
 7570 013c 00       		.uleb128 .LVU474
 7571 013d 00       		.uleb128 0
 7572              	.LLST29:
 7573 013e 1E000000 		.4byte	.LVL118
 7574 0142 2C000000 		.4byte	.LVL121
 7575 0146 0100     		.2byte	0x1
 7576 0148 52       		.byte	0x52
 7577 0149 44000000 		.4byte	.LVL125
 7578 014d 5C000000 		.4byte	.LFE14
 7579 0151 0100     		.2byte	0x1
 7580 0153 52       		.byte	0x52
 7581 0154 00000000 		.4byte	0
 7582 0158 00000000 		.4byte	0
 7583              	.LVUS30:
 7584 015c 00       		.uleb128 .LVU453
 7585 015d 00       		.uleb128 .LVU459
 7586              	.LLST30:
 7587 015e 20000000 		.4byte	.LVL119
 7588 0162 28000000 		.4byte	.LVL120
 7589 0166 0100     		.2byte	0x1
 7590 0168 53       		.byte	0x53
 7591 0169 00000000 		.4byte	0
 7592 016d 00000000 		.4byte	0
 7593              	.LVUS31:
 7594 0171 00       		.uleb128 .LVU443
 7595 0172 00       		.uleb128 .LVU445
 7596              	.LLST31:
 7597 0173 0E000000 		.4byte	.LVL115
 7598 0177 10000000 		.4byte	.LVL116
 7599 017b 0100     		.2byte	0x1
 7600 017d 51       		.byte	0x51
 7601 017e 00000000 		.4byte	0
 7602 0182 00000000 		.4byte	0
 7603              	.LVUS26:
 7604 0186 00       		.uleb128 .LVU429
 7605 0187 00       		.uleb128 .LVU433
 7606              	.LLST26:
 7607 0188 10000000 		.4byte	.LVL109
 7608 018c 1A000000 		.4byte	.LVL112
 7609 0190 0100     		.2byte	0x1
ARM GAS  C:\Users\EDULU~1.DES\AppData\Local\Temp\ccmSuQZN.s 			page 161


 7610 0192 52       		.byte	0x52
 7611 0193 00000000 		.4byte	0
 7612 0197 00000000 		.4byte	0
 7613              	.LVUS27:
 7614 019b 04       		.uleb128 .LVU423
 7615 019c 00       		.uleb128 .LVU424
 7616 019d 00       		.uleb128 .LVU424
 7617 019e 00       		.uleb128 .LVU431
 7618 019f 00       		.uleb128 .LVU432
 7619 01a0 00       		.uleb128 0
 7620              	.LLST27:
 7621 01a1 00000000 		.4byte	.LVL106
 7622 01a5 02000000 		.4byte	.LVL107
 7623 01a9 0200     		.2byte	0x2
 7624 01ab 30       		.byte	0x30
 7625 01ac 9F       		.byte	0x9f
 7626 01ad 02000000 		.4byte	.LVL107
 7627 01b1 16000000 		.4byte	.LVL110
 7628 01b5 0100     		.2byte	0x1
 7629 01b7 53       		.byte	0x53
 7630 01b8 18000000 		.4byte	.LVL111
 7631 01bc 24000000 		.4byte	.LFE13
 7632 01c0 0100     		.2byte	0x1
 7633 01c2 53       		.byte	0x53
 7634 01c3 00000000 		.4byte	0
 7635 01c7 00000000 		.4byte	0
 7636              	.LVUS21:
 7637 01cb 00       		.uleb128 0
 7638 01cc 00       		.uleb128 .LVU344
 7639 01cd 00       		.uleb128 .LVU344
 7640 01ce 00       		.uleb128 .LVU368
 7641 01cf 00       		.uleb128 .LVU368
 7642 01d0 00       		.uleb128 .LVU371
 7643 01d1 00       		.uleb128 .LVU371
 7644 01d2 01       		.uleb128 .LVU397
 7645 01d3 01       		.uleb128 .LVU397
 7646 01d4 00       		.uleb128 .LVU398
 7647 01d5 00       		.uleb128 .LVU398
 7648 01d6 00       		.uleb128 0
 7649              	.LLST21:
 7650 01d7 00000000 		.4byte	.LVL88
 7651 01db 36000000 		.4byte	.LVL90
 7652 01df 0100     		.2byte	0x1
 7653 01e1 50       		.byte	0x50
 7654 01e2 36000000 		.4byte	.LVL90
 7655 01e6 70000000 		.4byte	.LVL96
 7656 01ea 0100     		.2byte	0x1
 7657 01ec 54       		.byte	0x54
 7658 01ed 70000000 		.4byte	.LVL96
 7659 01f1 7A000000 		.4byte	.LVL97
 7660 01f5 0100     		.2byte	0x1
 7661 01f7 50       		.byte	0x50
 7662 01f8 7A000000 		.4byte	.LVL97
 7663 01fc B2000000 		.4byte	.LVL101
 7664 0200 0100     		.2byte	0x1
 7665 0202 54       		.byte	0x54
 7666 0203 B2000000 		.4byte	.LVL101
ARM GAS  C:\Users\EDULU~1.DES\AppData\Local\Temp\ccmSuQZN.s 			page 162


 7667 0207 B4000000 		.4byte	.LVL102
 7668 020b 0400     		.2byte	0x4
 7669 020d F3       		.byte	0xf3
 7670 020e 01       		.uleb128 0x1
 7671 020f 50       		.byte	0x50
 7672 0210 9F       		.byte	0x9f
 7673 0211 B4000000 		.4byte	.LVL102
 7674 0215 E0000000 		.4byte	.LFE12
 7675 0219 0100     		.2byte	0x1
 7676 021b 54       		.byte	0x54
 7677 021c 00000000 		.4byte	0
 7678 0220 00000000 		.4byte	0
 7679              	.LVUS22:
 7680 0224 00       		.uleb128 0
 7681 0225 00       		.uleb128 .LVU343
 7682 0226 00       		.uleb128 .LVU343
 7683 0227 00       		.uleb128 .LVU368
 7684 0228 00       		.uleb128 .LVU368
 7685 0229 00       		.uleb128 .LVU371
 7686 022a 00       		.uleb128 .LVU371
 7687 022b 00       		.uleb128 0
 7688              	.LLST22:
 7689 022c 00000000 		.4byte	.LVL88
 7690 0230 34000000 		.4byte	.LVL89
 7691 0234 0100     		.2byte	0x1
 7692 0236 51       		.byte	0x51
 7693 0237 34000000 		.4byte	.LVL89
 7694 023b 70000000 		.4byte	.LVL96
 7695 023f 0400     		.2byte	0x4
 7696 0241 F3       		.byte	0xf3
 7697 0242 01       		.uleb128 0x1
 7698 0243 51       		.byte	0x51
 7699 0244 9F       		.byte	0x9f
 7700 0245 70000000 		.4byte	.LVL96
 7701 0249 7A000000 		.4byte	.LVL97
 7702 024d 0100     		.2byte	0x1
 7703 024f 51       		.byte	0x51
 7704 0250 7A000000 		.4byte	.LVL97
 7705 0254 E0000000 		.4byte	.LFE12
 7706 0258 0400     		.2byte	0x4
 7707 025a F3       		.byte	0xf3
 7708 025b 01       		.uleb128 0x1
 7709 025c 51       		.byte	0x51
 7710 025d 9F       		.byte	0x9f
 7711 025e 00000000 		.4byte	0
 7712 0262 00000000 		.4byte	0
 7713              	.LVUS23:
 7714 0266 01       		.uleb128 .LVU402
 7715 0267 00       		.uleb128 .LVU410
 7716              	.LLST23:
 7717 0268 BA000000 		.4byte	.LVL103
 7718 026c C4000000 		.4byte	.LVL104
 7719 0270 0100     		.2byte	0x1
 7720 0272 52       		.byte	0x52
 7721 0273 00000000 		.4byte	0
 7722 0277 00000000 		.4byte	0
 7723              	.LVUS24:
ARM GAS  C:\Users\EDULU~1.DES\AppData\Local\Temp\ccmSuQZN.s 			page 163


 7724 027b 00       		.uleb128 .LVU356
 7725 027c 00       		.uleb128 .LVU367
 7726 027d 00       		.uleb128 .LVU379
 7727 027e 01       		.uleb128 .LVU386
 7728 027f 00       		.uleb128 .LVU398
 7729 0280 00       		.uleb128 .LVU418
 7730              	.LLST24:
 7731 0281 56000000 		.4byte	.LVL94
 7732 0285 6E000000 		.4byte	.LVL95
 7733 0289 0100     		.2byte	0x1
 7734 028b 53       		.byte	0x53
 7735 028c 8A000000 		.4byte	.LVL98
 7736 0290 90000000 		.4byte	.LVL99
 7737 0294 0100     		.2byte	0x1
 7738 0296 53       		.byte	0x53
 7739 0297 B4000000 		.4byte	.LVL102
 7740 029b CC000000 		.4byte	.LVL105
 7741 029f 0100     		.2byte	0x1
 7742 02a1 53       		.byte	0x53
 7743 02a2 00000000 		.4byte	0
 7744 02a6 00000000 		.4byte	0
 7745              	.LVUS25:
 7746 02aa 00       		.uleb128 .LVU345
 7747 02ab 00       		.uleb128 .LVU347
 7748              	.LLST25:
 7749 02ac 3A000000 		.4byte	.LVL91
 7750 02b0 3C000000 		.4byte	.LVL92
 7751 02b4 0100     		.2byte	0x1
 7752 02b6 51       		.byte	0x51
 7753 02b7 00000000 		.4byte	0
 7754 02bb 00000000 		.4byte	0
 7755              	.LVUS18:
 7756 02bf 00       		.uleb128 0
 7757 02c0 00       		.uleb128 .LVU273
 7758 02c1 00       		.uleb128 .LVU273
 7759 02c2 00       		.uleb128 .LVU295
 7760 02c3 00       		.uleb128 .LVU295
 7761 02c4 00       		.uleb128 .LVU297
 7762 02c5 00       		.uleb128 .LVU297
 7763 02c6 00       		.uleb128 .LVU319
 7764 02c7 00       		.uleb128 .LVU319
 7765 02c8 00       		.uleb128 .LVU320
 7766 02c9 00       		.uleb128 .LVU320
 7767 02ca 00       		.uleb128 0
 7768              	.LLST18:
 7769 02cb 00000000 		.4byte	.LVL72
 7770 02cf 18000000 		.4byte	.LVL73
 7771 02d3 0100     		.2byte	0x1
 7772 02d5 50       		.byte	0x50
 7773 02d6 18000000 		.4byte	.LVL73
 7774 02da 4E000000 		.4byte	.LVL80
 7775 02de 0100     		.2byte	0x1
 7776 02e0 55       		.byte	0x55
 7777 02e1 4E000000 		.4byte	.LVL80
 7778 02e5 52000000 		.4byte	.LVL81
 7779 02e9 0100     		.2byte	0x1
 7780 02eb 50       		.byte	0x50
ARM GAS  C:\Users\EDULU~1.DES\AppData\Local\Temp\ccmSuQZN.s 			page 164


 7781 02ec 52000000 		.4byte	.LVL81
 7782 02f0 8C000000 		.4byte	.LVL85
 7783 02f4 0100     		.2byte	0x1
 7784 02f6 55       		.byte	0x55
 7785 02f7 8C000000 		.4byte	.LVL85
 7786 02fb 8E000000 		.4byte	.LVL86
 7787 02ff 0400     		.2byte	0x4
 7788 0301 F3       		.byte	0xf3
 7789 0302 01       		.uleb128 0x1
 7790 0303 50       		.byte	0x50
 7791 0304 9F       		.byte	0x9f
 7792 0305 8E000000 		.4byte	.LVL86
 7793 0309 08010000 		.4byte	.LFE11
 7794 030d 0100     		.2byte	0x1
 7795 030f 55       		.byte	0x55
 7796 0310 00000000 		.4byte	0
 7797 0314 00000000 		.4byte	0
 7798              	.LVUS19:
 7799 0318 01       		.uleb128 .LVU282
 7800 0319 00       		.uleb128 .LVU293
 7801 031a 00       		.uleb128 .LVU294
 7802 031b 00       		.uleb128 .LVU295
 7803 031c 00       		.uleb128 .LVU299
 7804 031d 00       		.uleb128 .LVU301
 7805              	.LLST19:
 7806 031e 32000000 		.4byte	.LVL75
 7807 0322 4A000000 		.4byte	.LVL78
 7808 0326 0100     		.2byte	0x1
 7809 0328 53       		.byte	0x53
 7810 0329 4C000000 		.4byte	.LVL79
 7811 032d 4E000000 		.4byte	.LVL80
 7812 0331 0100     		.2byte	0x1
 7813 0333 53       		.byte	0x53
 7814 0334 5E000000 		.4byte	.LVL83
 7815 0338 60000000 		.4byte	.LVL84
 7816 033c 0100     		.2byte	0x1
 7817 033e 53       		.byte	0x53
 7818 033f 00000000 		.4byte	0
 7819 0343 00000000 		.4byte	0
 7820              	.LVUS20:
 7821 0347 00       		.uleb128 .LVU287
 7822 0348 00       		.uleb128 .LVU295
 7823              	.LLST20:
 7824 0349 40000000 		.4byte	.LVL77
 7825 034d 4E000000 		.4byte	.LVL80
 7826 0351 0100     		.2byte	0x1
 7827 0353 54       		.byte	0x54
 7828 0354 00000000 		.4byte	0
 7829 0358 00000000 		.4byte	0
 7830              	.LVUS16:
 7831 035c 00       		.uleb128 .LVU234
 7832 035d 00       		.uleb128 .LVU244
 7833 035e 00       		.uleb128 .LVU248
 7834 035f 00       		.uleb128 .LVU257
 7835 0360 00       		.uleb128 .LVU258
 7836 0361 00       		.uleb128 0
 7837              	.LLST16:
ARM GAS  C:\Users\EDULU~1.DES\AppData\Local\Temp\ccmSuQZN.s 			page 165


 7838 0362 04000000 		.4byte	.LVL64
 7839 0366 12000000 		.4byte	.LVL65
 7840 036a 0100     		.2byte	0x1
 7841 036c 53       		.byte	0x53
 7842 036d 18000000 		.4byte	.LVL67
 7843 0371 26000000 		.4byte	.LVL70
 7844 0375 0100     		.2byte	0x1
 7845 0377 53       		.byte	0x53
 7846 0378 2A000000 		.4byte	.LVL71
 7847 037c 34000000 		.4byte	.LFE10
 7848 0380 0100     		.2byte	0x1
 7849 0382 53       		.byte	0x53
 7850 0383 00000000 		.4byte	0
 7851 0387 00000000 		.4byte	0
 7852              	.LVUS17:
 7853 038b 00       		.uleb128 .LVU232
 7854 038c 00       		.uleb128 .LVU247
 7855 038d 00       		.uleb128 .LVU248
 7856 038e 00       		.uleb128 .LVU250
 7857 038f 00       		.uleb128 .LVU250
 7858 0390 00       		.uleb128 .LVU255
 7859 0391 00       		.uleb128 .LVU258
 7860 0392 00       		.uleb128 0
 7861              	.LLST17:
 7862 0393 02000000 		.4byte	.LVL63
 7863 0397 16000000 		.4byte	.LVL66
 7864 039b 0100     		.2byte	0x1
 7865 039d 52       		.byte	0x52
 7866 039e 18000000 		.4byte	.LVL67
 7867 03a2 1A000000 		.4byte	.LVL68
 7868 03a6 0100     		.2byte	0x1
 7869 03a8 52       		.byte	0x52
 7870 03a9 1A000000 		.4byte	.LVL68
 7871 03ad 24000000 		.4byte	.LVL69
 7872 03b1 0200     		.2byte	0x2
 7873 03b3 70       		.byte	0x70
 7874 03b4 2C       		.sleb128 44
 7875 03b5 2A000000 		.4byte	.LVL71
 7876 03b9 34000000 		.4byte	.LFE10
 7877 03bd 0100     		.2byte	0x1
 7878 03bf 52       		.byte	0x52
 7879 03c0 00000000 		.4byte	0
 7880 03c4 00000000 		.4byte	0
 7881              	.LVUS35:
 7882 03c8 00       		.uleb128 0
 7883 03c9 00       		.uleb128 .LVU548
 7884 03ca 00       		.uleb128 .LVU548
 7885 03cb 00       		.uleb128 .LVU559
 7886 03cc 00       		.uleb128 .LVU559
 7887 03cd 00       		.uleb128 .LVU563
 7888 03ce 00       		.uleb128 .LVU563
 7889 03cf 00       		.uleb128 .LVU564
 7890 03d0 00       		.uleb128 .LVU564
 7891 03d1 00       		.uleb128 .LVU565
 7892 03d2 00       		.uleb128 .LVU565
 7893 03d3 00       		.uleb128 .LVU569
 7894 03d4 00       		.uleb128 .LVU569
ARM GAS  C:\Users\EDULU~1.DES\AppData\Local\Temp\ccmSuQZN.s 			page 166


 7895 03d5 00       		.uleb128 0
 7896              	.LLST35:
 7897 03d6 00000000 		.4byte	.LVL149
 7898 03da 1C000000 		.4byte	.LVL151
 7899 03de 0100     		.2byte	0x1
 7900 03e0 50       		.byte	0x50
 7901 03e1 1C000000 		.4byte	.LVL151
 7902 03e5 44000000 		.4byte	.LVL155
 7903 03e9 0100     		.2byte	0x1
 7904 03eb 54       		.byte	0x54
 7905 03ec 44000000 		.4byte	.LVL155
 7906 03f0 4A000000 		.4byte	.LVL156
 7907 03f4 0100     		.2byte	0x1
 7908 03f6 50       		.byte	0x50
 7909 03f7 4A000000 		.4byte	.LVL156
 7910 03fb 4C000000 		.4byte	.LVL157
 7911 03ff 0100     		.2byte	0x1
 7912 0401 54       		.byte	0x54
 7913 0402 4C000000 		.4byte	.LVL157
 7914 0406 4E000000 		.4byte	.LVL160
 7915 040a 0400     		.2byte	0x4
 7916 040c F3       		.byte	0xf3
 7917 040d 01       		.uleb128 0x1
 7918 040e 50       		.byte	0x50
 7919 040f 9F       		.byte	0x9f
 7920 0410 4E000000 		.4byte	.LVL160
 7921 0414 54000000 		.4byte	.LVL161
 7922 0418 0100     		.2byte	0x1
 7923 041a 50       		.byte	0x50
 7924 041b 54000000 		.4byte	.LVL161
 7925 041f F0000000 		.4byte	.LFE7
 7926 0423 0100     		.2byte	0x1
 7927 0425 54       		.byte	0x54
 7928 0426 00000000 		.4byte	0
 7929 042a 00000000 		.4byte	0
 7930              	.LVUS36:
 7931 042e 00       		.uleb128 0
 7932 042f 00       		.uleb128 .LVU549
 7933 0430 00       		.uleb128 .LVU549
 7934 0431 00       		.uleb128 .LVU559
 7935 0432 00       		.uleb128 .LVU559
 7936 0433 00       		.uleb128 .LVU563
 7937 0434 00       		.uleb128 .LVU563
 7938 0435 00       		.uleb128 .LVU565
 7939 0436 00       		.uleb128 .LVU565
 7940 0437 00       		.uleb128 .LVU570
 7941 0438 00       		.uleb128 .LVU570
 7942 0439 00       		.uleb128 0
 7943              	.LLST36:
 7944 043a 00000000 		.4byte	.LVL149
 7945 043e 1F000000 		.4byte	.LVL152-1
 7946 0442 0100     		.2byte	0x1
 7947 0444 51       		.byte	0x51
 7948 0445 1F000000 		.4byte	.LVL152-1
 7949 0449 44000000 		.4byte	.LVL155
 7950 044d 0400     		.2byte	0x4
 7951 044f F3       		.byte	0xf3
ARM GAS  C:\Users\EDULU~1.DES\AppData\Local\Temp\ccmSuQZN.s 			page 167


 7952 0450 01       		.uleb128 0x1
 7953 0451 51       		.byte	0x51
 7954 0452 9F       		.byte	0x9f
 7955 0453 44000000 		.4byte	.LVL155
 7956 0457 4A000000 		.4byte	.LVL156
 7957 045b 0100     		.2byte	0x1
 7958 045d 51       		.byte	0x51
 7959 045e 4A000000 		.4byte	.LVL156
 7960 0462 4E000000 		.4byte	.LVL160
 7961 0466 0400     		.2byte	0x4
 7962 0468 F3       		.byte	0xf3
 7963 0469 01       		.uleb128 0x1
 7964 046a 51       		.byte	0x51
 7965 046b 9F       		.byte	0x9f
 7966 046c 4E000000 		.4byte	.LVL160
 7967 0470 56000000 		.4byte	.LVL162
 7968 0474 0100     		.2byte	0x1
 7969 0476 51       		.byte	0x51
 7970 0477 56000000 		.4byte	.LVL162
 7971 047b F0000000 		.4byte	.LFE7
 7972 047f 0400     		.2byte	0x4
 7973 0481 F3       		.byte	0xf3
 7974 0482 01       		.uleb128 0x1
 7975 0483 51       		.byte	0x51
 7976 0484 9F       		.byte	0x9f
 7977 0485 00000000 		.4byte	0
 7978 0489 00000000 		.4byte	0
 7979              	.LVUS37:
 7980 048d 00       		.uleb128 0
 7981 048e 00       		.uleb128 .LVU549
 7982 048f 00       		.uleb128 .LVU549
 7983 0490 00       		.uleb128 .LVU559
 7984 0491 00       		.uleb128 .LVU559
 7985 0492 00       		.uleb128 .LVU563
 7986 0493 00       		.uleb128 .LVU563
 7987 0494 00       		.uleb128 .LVU564
 7988 0495 00       		.uleb128 .LVU564
 7989 0496 00       		.uleb128 .LVU565
 7990 0497 00       		.uleb128 .LVU565
 7991 0498 00       		.uleb128 .LVU570
 7992 0499 00       		.uleb128 .LVU570
 7993 049a 00       		.uleb128 0
 7994              	.LLST37:
 7995 049b 00000000 		.4byte	.LVL149
 7996 049f 1F000000 		.4byte	.LVL152-1
 7997 04a3 0100     		.2byte	0x1
 7998 04a5 52       		.byte	0x52
 7999 04a6 1F000000 		.4byte	.LVL152-1
 8000 04aa 44000000 		.4byte	.LVL155
 8001 04ae 0100     		.2byte	0x1
 8002 04b0 56       		.byte	0x56
 8003 04b1 44000000 		.4byte	.LVL155
 8004 04b5 4A000000 		.4byte	.LVL156
 8005 04b9 0100     		.2byte	0x1
 8006 04bb 52       		.byte	0x52
 8007 04bc 4A000000 		.4byte	.LVL156
 8008 04c0 4C000000 		.4byte	.LVL158
ARM GAS  C:\Users\EDULU~1.DES\AppData\Local\Temp\ccmSuQZN.s 			page 168


 8009 04c4 0100     		.2byte	0x1
 8010 04c6 56       		.byte	0x56
 8011 04c7 4C000000 		.4byte	.LVL158
 8012 04cb 4E000000 		.4byte	.LVL160
 8013 04cf 0400     		.2byte	0x4
 8014 04d1 F3       		.byte	0xf3
 8015 04d2 01       		.uleb128 0x1
 8016 04d3 52       		.byte	0x52
 8017 04d4 9F       		.byte	0x9f
 8018 04d5 4E000000 		.4byte	.LVL160
 8019 04d9 56000000 		.4byte	.LVL162
 8020 04dd 0100     		.2byte	0x1
 8021 04df 52       		.byte	0x52
 8022 04e0 56000000 		.4byte	.LVL162
 8023 04e4 F0000000 		.4byte	.LFE7
 8024 04e8 0100     		.2byte	0x1
 8025 04ea 56       		.byte	0x56
 8026 04eb 00000000 		.4byte	0
 8027 04ef 00000000 		.4byte	0
 8028              	.LVUS38:
 8029 04f3 00       		.uleb128 0
 8030 04f4 00       		.uleb128 .LVU543
 8031 04f5 00       		.uleb128 .LVU543
 8032 04f6 00       		.uleb128 .LVU564
 8033 04f7 00       		.uleb128 .LVU564
 8034 04f8 00       		.uleb128 .LVU565
 8035 04f9 00       		.uleb128 .LVU565
 8036 04fa 00       		.uleb128 0
 8037              	.LLST38:
 8038 04fb 00000000 		.4byte	.LVL149
 8039 04ff 0E000000 		.4byte	.LVL150
 8040 0503 0100     		.2byte	0x1
 8041 0505 53       		.byte	0x53
 8042 0506 0E000000 		.4byte	.LVL150
 8043 050a 4C000000 		.4byte	.LVL159
 8044 050e 0100     		.2byte	0x1
 8045 0510 57       		.byte	0x57
 8046 0511 4C000000 		.4byte	.LVL159
 8047 0515 4E000000 		.4byte	.LVL160
 8048 0519 0400     		.2byte	0x4
 8049 051b F3       		.byte	0xf3
 8050 051c 01       		.uleb128 0x1
 8051 051d 53       		.byte	0x53
 8052 051e 9F       		.byte	0x9f
 8053 051f 4E000000 		.4byte	.LVL160
 8054 0523 F0000000 		.4byte	.LFE7
 8055 0527 0100     		.2byte	0x1
 8056 0529 57       		.byte	0x57
 8057 052a 00000000 		.4byte	0
 8058 052e 00000000 		.4byte	0
 8059              	.LVUS39:
 8060 0532 00       		.uleb128 .LVU581
 8061 0533 00       		.uleb128 .LVU585
 8062 0534 00       		.uleb128 .LVU590
 8063 0535 00       		.uleb128 .LVU592
 8064 0536 00       		.uleb128 .LVU592
 8065 0537 00       		.uleb128 .LVU593
ARM GAS  C:\Users\EDULU~1.DES\AppData\Local\Temp\ccmSuQZN.s 			page 169


 8066 0538 00       		.uleb128 .LVU596
 8067 0539 00       		.uleb128 .LVU600
 8068 053a 00       		.uleb128 .LVU601
 8069 053b 00       		.uleb128 .LVU603
 8070 053c 00       		.uleb128 .LVU603
 8071 053d 00       		.uleb128 .LVU604
 8072              	.LLST39:
 8073 053e 7E000000 		.4byte	.LVL165
 8074 0542 87000000 		.4byte	.LVL166-1
 8075 0546 0100     		.2byte	0x1
 8076 0548 53       		.byte	0x53
 8077 0549 94000000 		.4byte	.LVL168
 8078 054d 96000000 		.4byte	.LVL169
 8079 0551 0100     		.2byte	0x1
 8080 0553 53       		.byte	0x53
 8081 0554 96000000 		.4byte	.LVL169
 8082 0558 98000000 		.4byte	.LVL170
 8083 055c 0200     		.2byte	0x2
 8084 055e 74       		.byte	0x74
 8085 055f 08       		.sleb128 8
 8086 0560 9C000000 		.4byte	.LVL171
 8087 0564 A5000000 		.4byte	.LVL172-1
 8088 0568 0100     		.2byte	0x1
 8089 056a 53       		.byte	0x53
 8090 056b A8000000 		.4byte	.LVL173
 8091 056f AA000000 		.4byte	.LVL174
 8092 0573 0100     		.2byte	0x1
 8093 0575 53       		.byte	0x53
 8094 0576 AA000000 		.4byte	.LVL174
 8095 057a AC000000 		.4byte	.LVL175
 8096 057e 0200     		.2byte	0x2
 8097 0580 74       		.byte	0x74
 8098 0581 08       		.sleb128 8
 8099 0582 00000000 		.4byte	0
 8100 0586 00000000 		.4byte	0
 8101              	.LVUS40:
 8102 058a 01       		.uleb128 .LVU556
 8103 058b 00       		.uleb128 .LVU559
 8104 058c 01       		.uleb128 .LVU587
 8105 058d 00       		.uleb128 .LVU590
 8106 058e 01       		.uleb128 .LVU609
 8107 058f 00       		.uleb128 .LVU612
 8108 0590 01       		.uleb128 .LVU616
 8109 0591 00       		.uleb128 0
 8110              	.LLST40:
 8111 0592 40000000 		.4byte	.LVL154
 8112 0596 44000000 		.4byte	.LVL155
 8113 059a 0200     		.2byte	0x2
 8114 059c 30       		.byte	0x30
 8115 059d 9F       		.byte	0x9f
 8116 059e 90000000 		.4byte	.LVL167
 8117 05a2 94000000 		.4byte	.LVL168
 8118 05a6 0200     		.2byte	0x2
 8119 05a8 31       		.byte	0x31
 8120 05a9 9F       		.byte	0x9f
 8121 05aa BA000000 		.4byte	.LVL177
 8122 05ae BE000000 		.4byte	.LVL178
ARM GAS  C:\Users\EDULU~1.DES\AppData\Local\Temp\ccmSuQZN.s 			page 170


 8123 05b2 0200     		.2byte	0x2
 8124 05b4 31       		.byte	0x31
 8125 05b5 9F       		.byte	0x9f
 8126 05b6 CA000000 		.4byte	.LVL180
 8127 05ba F0000000 		.4byte	.LFE7
 8128 05be 0200     		.2byte	0x2
 8129 05c0 30       		.byte	0x30
 8130 05c1 9F       		.byte	0x9f
 8131 05c2 00000000 		.4byte	0
 8132 05c6 00000000 		.4byte	0
 8133              	.LVUS3:
 8134 05ca 00       		.uleb128 0
 8135 05cb 00       		.uleb128 .LVU83
 8136 05cc 00       		.uleb128 .LVU83
 8137 05cd 00       		.uleb128 .LVU87
 8138 05ce 00       		.uleb128 .LVU87
 8139 05cf 00       		.uleb128 .LVU98
 8140 05d0 00       		.uleb128 .LVU98
 8141 05d1 00       		.uleb128 .LVU106
 8142 05d2 00       		.uleb128 .LVU106
 8143 05d3 00       		.uleb128 0
 8144              	.LLST3:
 8145 05d4 00000000 		.4byte	.LVL24
 8146 05d8 15000000 		.4byte	.LVL26-1
 8147 05dc 0100     		.2byte	0x1
 8148 05de 50       		.byte	0x50
 8149 05df 15000000 		.4byte	.LVL26-1
 8150 05e3 20000000 		.4byte	.LVL29
 8151 05e7 0100     		.2byte	0x1
 8152 05e9 54       		.byte	0x54
 8153 05ea 20000000 		.4byte	.LVL29
 8154 05ee 36000000 		.4byte	.LVL33
 8155 05f2 0400     		.2byte	0x4
 8156 05f4 F3       		.byte	0xf3
 8157 05f5 01       		.uleb128 0x1
 8158 05f6 50       		.byte	0x50
 8159 05f7 9F       		.byte	0x9f
 8160 05f8 36000000 		.4byte	.LVL33
 8161 05fc 44000000 		.4byte	.LVL34
 8162 0600 0100     		.2byte	0x1
 8163 0602 50       		.byte	0x50
 8164 0603 44000000 		.4byte	.LVL34
 8165 0607 5C000000 		.4byte	.LFE6
 8166 060b 0400     		.2byte	0x4
 8167 060d F3       		.byte	0xf3
 8168 060e 01       		.uleb128 0x1
 8169 060f 50       		.byte	0x50
 8170 0610 9F       		.byte	0x9f
 8171 0611 00000000 		.4byte	0
 8172 0615 00000000 		.4byte	0
 8173              	.LVUS4:
 8174 0619 00       		.uleb128 0
 8175 061a 00       		.uleb128 .LVU83
 8176 061b 00       		.uleb128 .LVU83
 8177 061c 00       		.uleb128 .LVU97
 8178 061d 00       		.uleb128 .LVU97
 8179 061e 00       		.uleb128 .LVU98
ARM GAS  C:\Users\EDULU~1.DES\AppData\Local\Temp\ccmSuQZN.s 			page 171


 8180 061f 00       		.uleb128 .LVU98
 8181 0620 00       		.uleb128 .LVU106
 8182 0621 00       		.uleb128 .LVU106
 8183 0622 00       		.uleb128 0
 8184              	.LLST4:
 8185 0623 00000000 		.4byte	.LVL24
 8186 0627 15000000 		.4byte	.LVL26-1
 8187 062b 0100     		.2byte	0x1
 8188 062d 51       		.byte	0x51
 8189 062e 15000000 		.4byte	.LVL26-1
 8190 0632 34000000 		.4byte	.LVL32
 8191 0636 0100     		.2byte	0x1
 8192 0638 55       		.byte	0x55
 8193 0639 34000000 		.4byte	.LVL32
 8194 063d 36000000 		.4byte	.LVL33
 8195 0641 0400     		.2byte	0x4
 8196 0643 F3       		.byte	0xf3
 8197 0644 01       		.uleb128 0x1
 8198 0645 51       		.byte	0x51
 8199 0646 9F       		.byte	0x9f
 8200 0647 36000000 		.4byte	.LVL33
 8201 064b 44000000 		.4byte	.LVL34
 8202 064f 0100     		.2byte	0x1
 8203 0651 51       		.byte	0x51
 8204 0652 44000000 		.4byte	.LVL34
 8205 0656 5C000000 		.4byte	.LFE6
 8206 065a 0100     		.2byte	0x1
 8207 065c 55       		.byte	0x55
 8208 065d 00000000 		.4byte	0
 8209 0661 00000000 		.4byte	0
 8210              	.LVUS5:
 8211 0665 00       		.uleb128 .LVU87
 8212 0666 01       		.uleb128 .LVU96
 8213 0667 00       		.uleb128 .LVU106
 8214 0668 00       		.uleb128 0
 8215              	.LLST5:
 8216 0669 20000000 		.4byte	.LVL29
 8217 066d 32000000 		.4byte	.LVL31
 8218 0671 0100     		.2byte	0x1
 8219 0673 54       		.byte	0x54
 8220 0674 44000000 		.4byte	.LVL34
 8221 0678 5C000000 		.4byte	.LFE6
 8222 067c 0100     		.2byte	0x1
 8223 067e 54       		.byte	0x54
 8224 067f 00000000 		.4byte	0
 8225 0683 00000000 		.4byte	0
 8226              	.LVUS6:
 8227 0687 02       		.uleb128 .LVU75
 8228 0688 00       		.uleb128 .LVU84
 8229 0689 00       		.uleb128 .LVU84
 8230 068a 00       		.uleb128 .LVU85
 8231 068b 00       		.uleb128 .LVU85
 8232 068c 01       		.uleb128 .LVU96
 8233 068d 00       		.uleb128 .LVU98
 8234 068e 00       		.uleb128 .LVU106
 8235 068f 00       		.uleb128 .LVU106
 8236 0690 00       		.uleb128 0
ARM GAS  C:\Users\EDULU~1.DES\AppData\Local\Temp\ccmSuQZN.s 			page 172


 8237              	.LLST6:
 8238 0691 06000000 		.4byte	.LVL25
 8239 0695 18000000 		.4byte	.LVL27
 8240 0699 0200     		.2byte	0x2
 8241 069b 30       		.byte	0x30
 8242 069c 9F       		.byte	0x9f
 8243 069d 18000000 		.4byte	.LVL27
 8244 06a1 1B000000 		.4byte	.LVL28-1
 8245 06a5 0100     		.2byte	0x1
 8246 06a7 50       		.byte	0x50
 8247 06a8 1B000000 		.4byte	.LVL28-1
 8248 06ac 32000000 		.4byte	.LVL31
 8249 06b0 0100     		.2byte	0x1
 8250 06b2 56       		.byte	0x56
 8251 06b3 36000000 		.4byte	.LVL33
 8252 06b7 44000000 		.4byte	.LVL34
 8253 06bb 0200     		.2byte	0x2
 8254 06bd 30       		.byte	0x30
 8255 06be 9F       		.byte	0x9f
 8256 06bf 44000000 		.4byte	.LVL34
 8257 06c3 5C000000 		.4byte	.LFE6
 8258 06c7 0100     		.2byte	0x1
 8259 06c9 56       		.byte	0x56
 8260 06ca 00000000 		.4byte	0
 8261 06ce 00000000 		.4byte	0
 8262              	.LVUS32:
 8263 06d2 00       		.uleb128 0
 8264 06d3 00       		.uleb128 .LVU490
 8265 06d4 00       		.uleb128 .LVU490
 8266 06d5 00       		.uleb128 .LVU501
 8267 06d6 00       		.uleb128 .LVU501
 8268 06d7 00       		.uleb128 .LVU505
 8269 06d8 00       		.uleb128 .LVU505
 8270 06d9 00       		.uleb128 .LVU506
 8271 06da 00       		.uleb128 .LVU506
 8272 06db 00       		.uleb128 .LVU507
 8273 06dc 00       		.uleb128 .LVU507
 8274 06dd 00       		.uleb128 .LVU511
 8275 06de 00       		.uleb128 .LVU511
 8276 06df 00       		.uleb128 0
 8277              	.LLST32:
 8278 06e0 00000000 		.4byte	.LVL126
 8279 06e4 18000000 		.4byte	.LVL127
 8280 06e8 0100     		.2byte	0x1
 8281 06ea 50       		.byte	0x50
 8282 06eb 18000000 		.4byte	.LVL127
 8283 06ef 40000000 		.4byte	.LVL131
 8284 06f3 0100     		.2byte	0x1
 8285 06f5 54       		.byte	0x54
 8286 06f6 40000000 		.4byte	.LVL131
 8287 06fa 46000000 		.4byte	.LVL132
 8288 06fe 0100     		.2byte	0x1
 8289 0700 50       		.byte	0x50
 8290 0701 46000000 		.4byte	.LVL132
 8291 0705 48000000 		.4byte	.LVL133
 8292 0709 0100     		.2byte	0x1
 8293 070b 54       		.byte	0x54
ARM GAS  C:\Users\EDULU~1.DES\AppData\Local\Temp\ccmSuQZN.s 			page 173


 8294 070c 48000000 		.4byte	.LVL133
 8295 0710 4A000000 		.4byte	.LVL135
 8296 0714 0400     		.2byte	0x4
 8297 0716 F3       		.byte	0xf3
 8298 0717 01       		.uleb128 0x1
 8299 0718 50       		.byte	0x50
 8300 0719 9F       		.byte	0x9f
 8301 071a 4A000000 		.4byte	.LVL135
 8302 071e 50000000 		.4byte	.LVL136
 8303 0722 0100     		.2byte	0x1
 8304 0724 50       		.byte	0x50
 8305 0725 50000000 		.4byte	.LVL136
 8306 0729 AC000000 		.4byte	.LFE5
 8307 072d 0100     		.2byte	0x1
 8308 072f 54       		.byte	0x54
 8309 0730 00000000 		.4byte	0
 8310 0734 00000000 		.4byte	0
 8311              	.LVUS33:
 8312 0738 00       		.uleb128 0
 8313 0739 00       		.uleb128 .LVU491
 8314 073a 00       		.uleb128 .LVU491
 8315 073b 00       		.uleb128 .LVU501
 8316 073c 00       		.uleb128 .LVU501
 8317 073d 00       		.uleb128 .LVU505
 8318 073e 00       		.uleb128 .LVU505
 8319 073f 00       		.uleb128 .LVU506
 8320 0740 00       		.uleb128 .LVU506
 8321 0741 00       		.uleb128 .LVU507
 8322 0742 00       		.uleb128 .LVU507
 8323 0743 00       		.uleb128 .LVU512
 8324 0744 00       		.uleb128 .LVU512
 8325 0745 00       		.uleb128 0
 8326              	.LLST33:
 8327 0746 00000000 		.4byte	.LVL126
 8328 074a 1B000000 		.4byte	.LVL128-1
 8329 074e 0100     		.2byte	0x1
 8330 0750 51       		.byte	0x51
 8331 0751 1B000000 		.4byte	.LVL128-1
 8332 0755 40000000 		.4byte	.LVL131
 8333 0759 0100     		.2byte	0x1
 8334 075b 55       		.byte	0x55
 8335 075c 40000000 		.4byte	.LVL131
 8336 0760 46000000 		.4byte	.LVL132
 8337 0764 0100     		.2byte	0x1
 8338 0766 51       		.byte	0x51
 8339 0767 46000000 		.4byte	.LVL132
 8340 076b 48000000 		.4byte	.LVL134
 8341 076f 0100     		.2byte	0x1
 8342 0771 55       		.byte	0x55
 8343 0772 48000000 		.4byte	.LVL134
 8344 0776 4A000000 		.4byte	.LVL135
 8345 077a 0400     		.2byte	0x4
 8346 077c F3       		.byte	0xf3
 8347 077d 01       		.uleb128 0x1
 8348 077e 51       		.byte	0x51
 8349 077f 9F       		.byte	0x9f
 8350 0780 4A000000 		.4byte	.LVL135
ARM GAS  C:\Users\EDULU~1.DES\AppData\Local\Temp\ccmSuQZN.s 			page 174


 8351 0784 52000000 		.4byte	.LVL137
 8352 0788 0100     		.2byte	0x1
 8353 078a 51       		.byte	0x51
 8354 078b 52000000 		.4byte	.LVL137
 8355 078f AC000000 		.4byte	.LFE5
 8356 0793 0100     		.2byte	0x1
 8357 0795 55       		.byte	0x55
 8358 0796 00000000 		.4byte	0
 8359 079a 00000000 		.4byte	0
 8360              	.LVUS34:
 8361 079e 01       		.uleb128 .LVU498
 8362 079f 00       		.uleb128 .LVU501
 8363 07a0 01       		.uleb128 .LVU518
 8364 07a1 00       		.uleb128 .LVU521
 8365 07a2 01       		.uleb128 .LVU526
 8366 07a3 00       		.uleb128 .LVU529
 8367 07a4 01       		.uleb128 .LVU533
 8368 07a5 00       		.uleb128 0
 8369              	.LLST34:
 8370 07a6 3C000000 		.4byte	.LVL130
 8371 07aa 40000000 		.4byte	.LVL131
 8372 07ae 0200     		.2byte	0x2
 8373 07b0 30       		.byte	0x30
 8374 07b1 9F       		.byte	0x9f
 8375 07b2 6C000000 		.4byte	.LVL141
 8376 07b6 70000000 		.4byte	.LVL142
 8377 07ba 0200     		.2byte	0x2
 8378 07bc 31       		.byte	0x31
 8379 07bd 9F       		.byte	0x9f
 8380 07be 84000000 		.4byte	.LVL145
 8381 07c2 88000000 		.4byte	.LVL146
 8382 07c6 0200     		.2byte	0x2
 8383 07c8 31       		.byte	0x31
 8384 07c9 9F       		.byte	0x9f
 8385 07ca 94000000 		.4byte	.LVL148
 8386 07ce AC000000 		.4byte	.LFE5
 8387 07d2 0200     		.2byte	0x2
 8388 07d4 30       		.byte	0x30
 8389 07d5 9F       		.byte	0x9f
 8390 07d6 00000000 		.4byte	0
 8391 07da 00000000 		.4byte	0
 8392              	.LVUS0:
 8393 07de 00       		.uleb128 0
 8394 07df 00       		.uleb128 .LVU10
 8395 07e0 00       		.uleb128 .LVU10
 8396 07e1 00       		.uleb128 .LVU21
 8397 07e2 00       		.uleb128 .LVU21
 8398 07e3 00       		.uleb128 .LVU25
 8399 07e4 00       		.uleb128 .LVU25
 8400 07e5 00       		.uleb128 .LVU26
 8401 07e6 00       		.uleb128 .LVU26
 8402 07e7 00       		.uleb128 .LVU27
 8403 07e8 00       		.uleb128 .LVU27
 8404 07e9 00       		.uleb128 .LVU31
 8405 07ea 00       		.uleb128 .LVU31
 8406 07eb 00       		.uleb128 0
 8407              	.LLST0:
ARM GAS  C:\Users\EDULU~1.DES\AppData\Local\Temp\ccmSuQZN.s 			page 175


 8408 07ec 00000000 		.4byte	.LVL0
 8409 07f0 18000000 		.4byte	.LVL1
 8410 07f4 0100     		.2byte	0x1
 8411 07f6 50       		.byte	0x50
 8412 07f7 18000000 		.4byte	.LVL1
 8413 07fb 40000000 		.4byte	.LVL5
 8414 07ff 0100     		.2byte	0x1
 8415 0801 54       		.byte	0x54
 8416 0802 40000000 		.4byte	.LVL5
 8417 0806 46000000 		.4byte	.LVL6
 8418 080a 0100     		.2byte	0x1
 8419 080c 50       		.byte	0x50
 8420 080d 46000000 		.4byte	.LVL6
 8421 0811 4A000000 		.4byte	.LVL7
 8422 0815 0100     		.2byte	0x1
 8423 0817 54       		.byte	0x54
 8424 0818 4A000000 		.4byte	.LVL7
 8425 081c 4C000000 		.4byte	.LVL9
 8426 0820 0400     		.2byte	0x4
 8427 0822 F3       		.byte	0xf3
 8428 0823 01       		.uleb128 0x1
 8429 0824 50       		.byte	0x50
 8430 0825 9F       		.byte	0x9f
 8431 0826 4C000000 		.4byte	.LVL9
 8432 082a 54000000 		.4byte	.LVL10
 8433 082e 0100     		.2byte	0x1
 8434 0830 50       		.byte	0x50
 8435 0831 54000000 		.4byte	.LVL10
 8436 0835 C8000000 		.4byte	.LFE4
 8437 0839 0100     		.2byte	0x1
 8438 083b 54       		.byte	0x54
 8439 083c 00000000 		.4byte	0
 8440 0840 00000000 		.4byte	0
 8441              	.LVUS1:
 8442 0844 00       		.uleb128 0
 8443 0845 00       		.uleb128 .LVU11
 8444 0846 00       		.uleb128 .LVU11
 8445 0847 00       		.uleb128 .LVU21
 8446 0848 00       		.uleb128 .LVU21
 8447 0849 00       		.uleb128 .LVU25
 8448 084a 00       		.uleb128 .LVU25
 8449 084b 00       		.uleb128 .LVU26
 8450 084c 00       		.uleb128 .LVU26
 8451 084d 00       		.uleb128 .LVU27
 8452 084e 00       		.uleb128 .LVU27
 8453 084f 00       		.uleb128 .LVU31
 8454 0850 00       		.uleb128 .LVU31
 8455 0851 00       		.uleb128 0
 8456              	.LLST1:
 8457 0852 00000000 		.4byte	.LVL0
 8458 0856 1B000000 		.4byte	.LVL2-1
 8459 085a 0100     		.2byte	0x1
 8460 085c 51       		.byte	0x51
 8461 085d 1B000000 		.4byte	.LVL2-1
 8462 0861 40000000 		.4byte	.LVL5
 8463 0865 0100     		.2byte	0x1
 8464 0867 56       		.byte	0x56
ARM GAS  C:\Users\EDULU~1.DES\AppData\Local\Temp\ccmSuQZN.s 			page 176


 8465 0868 40000000 		.4byte	.LVL5
 8466 086c 46000000 		.4byte	.LVL6
 8467 0870 0100     		.2byte	0x1
 8468 0872 51       		.byte	0x51
 8469 0873 46000000 		.4byte	.LVL6
 8470 0877 4A000000 		.4byte	.LVL8
 8471 087b 0100     		.2byte	0x1
 8472 087d 56       		.byte	0x56
 8473 087e 4A000000 		.4byte	.LVL8
 8474 0882 4C000000 		.4byte	.LVL9
 8475 0886 0400     		.2byte	0x4
 8476 0888 F3       		.byte	0xf3
 8477 0889 01       		.uleb128 0x1
 8478 088a 51       		.byte	0x51
 8479 088b 9F       		.byte	0x9f
 8480 088c 4C000000 		.4byte	.LVL9
 8481 0890 54000000 		.4byte	.LVL10
 8482 0894 0100     		.2byte	0x1
 8483 0896 51       		.byte	0x51
 8484 0897 54000000 		.4byte	.LVL10
 8485 089b C8000000 		.4byte	.LFE4
 8486 089f 0100     		.2byte	0x1
 8487 08a1 56       		.byte	0x56
 8488 08a2 00000000 		.4byte	0
 8489 08a6 00000000 		.4byte	0
 8490              	.LVUS2:
 8491 08aa 01       		.uleb128 .LVU18
 8492 08ab 00       		.uleb128 .LVU21
 8493 08ac 00       		.uleb128 .LVU34
 8494 08ad 00       		.uleb128 .LVU40
 8495 08ae 00       		.uleb128 .LVU45
 8496 08af 00       		.uleb128 .LVU51
 8497 08b0 00       		.uleb128 .LVU56
 8498 08b1 00       		.uleb128 .LVU57
 8499 08b2 01       		.uleb128 .LVU61
 8500 08b3 00       		.uleb128 .LVU64
 8501 08b4 01       		.uleb128 .LVU68
 8502 08b5 00       		.uleb128 0
 8503              	.LLST2:
 8504 08b6 3C000000 		.4byte	.LVL4
 8505 08ba 40000000 		.4byte	.LVL5
 8506 08be 0200     		.2byte	0x2
 8507 08c0 30       		.byte	0x30
 8508 08c1 9F       		.byte	0x9f
 8509 08c2 5C000000 		.4byte	.LVL11
 8510 08c6 6C000000 		.4byte	.LVL13
 8511 08ca 0100     		.2byte	0x1
 8512 08cc 55       		.byte	0x55
 8513 08cd 74000000 		.4byte	.LVL14
 8514 08d1 84000000 		.4byte	.LVL16
 8515 08d5 0100     		.2byte	0x1
 8516 08d7 55       		.byte	0x55
 8517 08d8 8C000000 		.4byte	.LVL17
 8518 08dc 8E000000 		.4byte	.LVL18
 8519 08e0 0100     		.2byte	0x1
 8520 08e2 55       		.byte	0x55
 8521 08e3 9A000000 		.4byte	.LVL20
ARM GAS  C:\Users\EDULU~1.DES\AppData\Local\Temp\ccmSuQZN.s 			page 177


 8522 08e7 9E000000 		.4byte	.LVL21
 8523 08eb 0200     		.2byte	0x2
 8524 08ed 30       		.byte	0x30
 8525 08ee 9F       		.byte	0x9f
 8526 08ef AA000000 		.4byte	.LVL23
 8527 08f3 C8000000 		.4byte	.LFE4
 8528 08f7 0200     		.2byte	0x2
 8529 08f9 30       		.byte	0x30
 8530 08fa 9F       		.byte	0x9f
 8531 08fb 00000000 		.4byte	0
 8532 08ff 00000000 		.4byte	0
 8533              	.LVUS7:
 8534 0903 00       		.uleb128 0
 8535 0904 00       		.uleb128 .LVU166
 8536 0905 00       		.uleb128 .LVU166
 8537 0906 00       		.uleb128 .LVU202
 8538 0907 00       		.uleb128 .LVU202
 8539 0908 01       		.uleb128 .LVU206
 8540 0909 01       		.uleb128 .LVU206
 8541 090a 01       		.uleb128 .LVU208
 8542 090b 01       		.uleb128 .LVU208
 8543 090c 00       		.uleb128 .LVU209
 8544 090d 00       		.uleb128 .LVU209
 8545 090e 00       		.uleb128 0
 8546              	.LLST7:
 8547 090f 00000000 		.4byte	.LVL37
 8548 0913 2B000000 		.4byte	.LVL41-1
 8549 0917 0100     		.2byte	0x1
 8550 0919 50       		.byte	0x50
 8551 091a 2B000000 		.4byte	.LVL41-1
 8552 091e 76000000 		.4byte	.LVL48
 8553 0922 0100     		.2byte	0x1
 8554 0924 57       		.byte	0x57
 8555 0925 76000000 		.4byte	.LVL48
 8556 0929 7C000000 		.4byte	.LVL50
 8557 092d 0100     		.2byte	0x1
 8558 092f 50       		.byte	0x50
 8559 0930 7C000000 		.4byte	.LVL50
 8560 0934 7E000000 		.4byte	.LVL53
 8561 0938 0100     		.2byte	0x1
 8562 093a 57       		.byte	0x57
 8563 093b 7E000000 		.4byte	.LVL53
 8564 093f 80000000 		.4byte	.LVL54
 8565 0943 0400     		.2byte	0x4
 8566 0945 F3       		.byte	0xf3
 8567 0946 01       		.uleb128 0x1
 8568 0947 50       		.byte	0x50
 8569 0948 9F       		.byte	0x9f
 8570 0949 80000000 		.4byte	.LVL54
 8571 094d C4000000 		.4byte	.LFE3
 8572 0951 0100     		.2byte	0x1
 8573 0953 50       		.byte	0x50
 8574 0954 00000000 		.4byte	0
 8575 0958 00000000 		.4byte	0
 8576              	.LVUS8:
 8577 095c 00       		.uleb128 0
 8578 095d 00       		.uleb128 .LVU166
ARM GAS  C:\Users\EDULU~1.DES\AppData\Local\Temp\ccmSuQZN.s 			page 178


 8579 095e 00       		.uleb128 .LVU166
 8580 095f 00       		.uleb128 .LVU202
 8581 0960 00       		.uleb128 .LVU202
 8582 0961 01       		.uleb128 .LVU206
 8583 0962 01       		.uleb128 .LVU206
 8584 0963 00       		.uleb128 .LVU207
 8585 0964 00       		.uleb128 .LVU207
 8586 0965 00       		.uleb128 .LVU209
 8587 0966 00       		.uleb128 .LVU209
 8588 0967 00       		.uleb128 0
 8589              	.LLST8:
 8590 0968 00000000 		.4byte	.LVL37
 8591 096c 2B000000 		.4byte	.LVL41-1
 8592 0970 0100     		.2byte	0x1
 8593 0972 51       		.byte	0x51
 8594 0973 2B000000 		.4byte	.LVL41-1
 8595 0977 76000000 		.4byte	.LVL48
 8596 097b 0200     		.2byte	0x2
 8597 097d 7D       		.byte	0x7d
 8598 097e 00       		.sleb128 0
 8599 097f 76000000 		.4byte	.LVL48
 8600 0983 7C000000 		.4byte	.LVL50
 8601 0987 0100     		.2byte	0x1
 8602 0989 51       		.byte	0x51
 8603 098a 7C000000 		.4byte	.LVL50
 8604 098e 7E000000 		.4byte	.LVL51
 8605 0992 0200     		.2byte	0x2
 8606 0994 7D       		.byte	0x7d
 8607 0995 00       		.sleb128 0
 8608 0996 7E000000 		.4byte	.LVL51
 8609 099a 80000000 		.4byte	.LVL54
 8610 099e 0200     		.2byte	0x2
 8611 09a0 91       		.byte	0x91
 8612 09a1 60       		.sleb128 -32
 8613 09a2 80000000 		.4byte	.LVL54
 8614 09a6 C4000000 		.4byte	.LFE3
 8615 09aa 0100     		.2byte	0x1
 8616 09ac 51       		.byte	0x51
 8617 09ad 00000000 		.4byte	0
 8618 09b1 00000000 		.4byte	0
 8619              	.LVUS9:
 8620 09b5 00       		.uleb128 0
 8621 09b6 00       		.uleb128 .LVU166
 8622 09b7 00       		.uleb128 .LVU166
 8623 09b8 00       		.uleb128 .LVU178
 8624 09b9 00       		.uleb128 .LVU178
 8625 09ba 00       		.uleb128 .LVU194
 8626 09bb 00       		.uleb128 .LVU194
 8627 09bc 00       		.uleb128 .LVU202
 8628 09bd 00       		.uleb128 .LVU202
 8629 09be 00       		.uleb128 .LVU204
 8630 09bf 00       		.uleb128 .LVU204
 8631 09c0 01       		.uleb128 .LVU206
 8632 09c1 01       		.uleb128 .LVU206
 8633 09c2 00       		.uleb128 .LVU209
 8634 09c3 00       		.uleb128 .LVU209
 8635 09c4 00       		.uleb128 .LVU211
ARM GAS  C:\Users\EDULU~1.DES\AppData\Local\Temp\ccmSuQZN.s 			page 179


 8636 09c5 00       		.uleb128 .LVU211
 8637 09c6 00       		.uleb128 .LVU213
 8638 09c7 00       		.uleb128 .LVU213
 8639 09c8 00       		.uleb128 .LVU215
 8640 09c9 00       		.uleb128 .LVU215
 8641 09ca 00       		.uleb128 .LVU217
 8642 09cb 00       		.uleb128 .LVU217
 8643 09cc 00       		.uleb128 .LVU221
 8644 09cd 00       		.uleb128 .LVU221
 8645 09ce 00       		.uleb128 .LVU223
 8646 09cf 00       		.uleb128 .LVU223
 8647 09d0 00       		.uleb128 .LVU225
 8648 09d1 00       		.uleb128 .LVU225
 8649 09d2 00       		.uleb128 0
 8650              	.LLST9:
 8651 09d3 00000000 		.4byte	.LVL37
 8652 09d7 2B000000 		.4byte	.LVL41-1
 8653 09db 0100     		.2byte	0x1
 8654 09dd 52       		.byte	0x52
 8655 09de 2B000000 		.4byte	.LVL41-1
 8656 09e2 44000000 		.4byte	.LVL44
 8657 09e6 0100     		.2byte	0x1
 8658 09e8 55       		.byte	0x55
 8659 09e9 44000000 		.4byte	.LVL44
 8660 09ed 5D000000 		.4byte	.LVL45-1
 8661 09f1 0200     		.2byte	0x2
 8662 09f3 77       		.byte	0x77
 8663 09f4 20       		.sleb128 32
 8664 09f5 5D000000 		.4byte	.LVL45-1
 8665 09f9 76000000 		.4byte	.LVL48
 8666 09fd 0400     		.2byte	0x4
 8667 09ff F3       		.byte	0xf3
 8668 0a00 01       		.uleb128 0x1
 8669 0a01 52       		.byte	0x52
 8670 0a02 9F       		.byte	0x9f
 8671 0a03 76000000 		.4byte	.LVL48
 8672 0a07 7A000000 		.4byte	.LVL49
 8673 0a0b 0100     		.2byte	0x1
 8674 0a0d 52       		.byte	0x52
 8675 0a0e 7A000000 		.4byte	.LVL49
 8676 0a12 7C000000 		.4byte	.LVL50
 8677 0a16 0100     		.2byte	0x1
 8678 0a18 55       		.byte	0x55
 8679 0a19 7C000000 		.4byte	.LVL50
 8680 0a1d 80000000 		.4byte	.LVL54
 8681 0a21 0400     		.2byte	0x4
 8682 0a23 F3       		.byte	0xf3
 8683 0a24 01       		.uleb128 0x1
 8684 0a25 52       		.byte	0x52
 8685 0a26 9F       		.byte	0x9f
 8686 0a27 80000000 		.4byte	.LVL54
 8687 0a2b 84000000 		.4byte	.LVL55
 8688 0a2f 0100     		.2byte	0x1
 8689 0a31 52       		.byte	0x52
 8690 0a32 84000000 		.4byte	.LVL55
 8691 0a36 88000000 		.4byte	.LVL56
 8692 0a3a 0100     		.2byte	0x1
ARM GAS  C:\Users\EDULU~1.DES\AppData\Local\Temp\ccmSuQZN.s 			page 180


 8693 0a3c 55       		.byte	0x55
 8694 0a3d 88000000 		.4byte	.LVL56
 8695 0a41 8C000000 		.4byte	.LVL57
 8696 0a45 0100     		.2byte	0x1
 8697 0a47 52       		.byte	0x52
 8698 0a48 8C000000 		.4byte	.LVL57
 8699 0a4c 90000000 		.4byte	.LVL58
 8700 0a50 0100     		.2byte	0x1
 8701 0a52 55       		.byte	0x55
 8702 0a53 90000000 		.4byte	.LVL58
 8703 0a57 98000000 		.4byte	.LVL59
 8704 0a5b 0100     		.2byte	0x1
 8705 0a5d 52       		.byte	0x52
 8706 0a5e 98000000 		.4byte	.LVL59
 8707 0a62 9C000000 		.4byte	.LVL60
 8708 0a66 0100     		.2byte	0x1
 8709 0a68 55       		.byte	0x55
 8710 0a69 9C000000 		.4byte	.LVL60
 8711 0a6d A0000000 		.4byte	.LVL61
 8712 0a71 0100     		.2byte	0x1
 8713 0a73 52       		.byte	0x52
 8714 0a74 A0000000 		.4byte	.LVL61
 8715 0a78 C4000000 		.4byte	.LFE3
 8716 0a7c 0100     		.2byte	0x1
 8717 0a7e 55       		.byte	0x55
 8718 0a7f 00000000 		.4byte	0
 8719 0a83 00000000 		.4byte	0
 8720              	.LVUS10:
 8721 0a87 00       		.uleb128 0
 8722 0a88 00       		.uleb128 .LVU152
 8723 0a89 00       		.uleb128 .LVU152
 8724 0a8a 01       		.uleb128 .LVU208
 8725 0a8b 01       		.uleb128 .LVU208
 8726 0a8c 00       		.uleb128 .LVU209
 8727 0a8d 00       		.uleb128 .LVU209
 8728 0a8e 00       		.uleb128 0
 8729              	.LLST10:
 8730 0a8f 00000000 		.4byte	.LVL37
 8731 0a93 0E000000 		.4byte	.LVL38
 8732 0a97 0100     		.2byte	0x1
 8733 0a99 53       		.byte	0x53
 8734 0a9a 0E000000 		.4byte	.LVL38
 8735 0a9e 7E000000 		.4byte	.LVL52
 8736 0aa2 0100     		.2byte	0x1
 8737 0aa4 54       		.byte	0x54
 8738 0aa5 7E000000 		.4byte	.LVL52
 8739 0aa9 80000000 		.4byte	.LVL54
 8740 0aad 0400     		.2byte	0x4
 8741 0aaf F3       		.byte	0xf3
 8742 0ab0 01       		.uleb128 0x1
 8743 0ab1 53       		.byte	0x53
 8744 0ab2 9F       		.byte	0x9f
 8745 0ab3 80000000 		.4byte	.LVL54
 8746 0ab7 C4000000 		.4byte	.LFE3
 8747 0abb 0100     		.2byte	0x1
 8748 0abd 54       		.byte	0x54
 8749 0abe 00000000 		.4byte	0
ARM GAS  C:\Users\EDULU~1.DES\AppData\Local\Temp\ccmSuQZN.s 			page 181


 8750 0ac2 00000000 		.4byte	0
 8751              	.LVUS11:
 8752 0ac6 00       		.uleb128 0
 8753 0ac7 00       		.uleb128 .LVU152
 8754 0ac8 00       		.uleb128 .LVU152
 8755 0ac9 00       		.uleb128 .LVU156
 8756 0aca 00       		.uleb128 .LVU156
 8757 0acb 00       		.uleb128 0
 8758              	.LLST11:
 8759 0acc 00000000 		.4byte	.LVL37
 8760 0ad0 0E000000 		.4byte	.LVL38
 8761 0ad4 0200     		.2byte	0x2
 8762 0ad6 91       		.byte	0x91
 8763 0ad7 00       		.sleb128 0
 8764 0ad8 0E000000 		.4byte	.LVL38
 8765 0adc 12000000 		.4byte	.LVL40
 8766 0ae0 0200     		.2byte	0x2
 8767 0ae2 73       		.byte	0x73
 8768 0ae3 00       		.sleb128 0
 8769 0ae4 12000000 		.4byte	.LVL40
 8770 0ae8 C4000000 		.4byte	.LFE3
 8771 0aec 0200     		.2byte	0x2
 8772 0aee 91       		.byte	0x91
 8773 0aef 00       		.sleb128 0
 8774 0af0 00000000 		.4byte	0
 8775 0af4 00000000 		.4byte	0
 8776              	.LVUS12:
 8777 0af8 00       		.uleb128 0
 8778 0af9 00       		.uleb128 .LVU152
 8779 0afa 00       		.uleb128 .LVU152
 8780 0afb 00       		.uleb128 .LVU156
 8781 0afc 00       		.uleb128 .LVU156
 8782 0afd 00       		.uleb128 0
 8783              	.LLST12:
 8784 0afe 00000000 		.4byte	.LVL37
 8785 0b02 0E000000 		.4byte	.LVL38
 8786 0b06 0200     		.2byte	0x2
 8787 0b08 91       		.byte	0x91
 8788 0b09 04       		.sleb128 4
 8789 0b0a 0E000000 		.4byte	.LVL38
 8790 0b0e 12000000 		.4byte	.LVL40
 8791 0b12 0200     		.2byte	0x2
 8792 0b14 73       		.byte	0x73
 8793 0b15 04       		.sleb128 4
 8794 0b16 12000000 		.4byte	.LVL40
 8795 0b1a C4000000 		.4byte	.LFE3
 8796 0b1e 0200     		.2byte	0x2
 8797 0b20 91       		.byte	0x91
 8798 0b21 04       		.sleb128 4
 8799 0b22 00000000 		.4byte	0
 8800 0b26 00000000 		.4byte	0
 8801              	.LVUS13:
 8802 0b2a 00       		.uleb128 0
 8803 0b2b 00       		.uleb128 .LVU152
 8804 0b2c 00       		.uleb128 .LVU152
 8805 0b2d 00       		.uleb128 .LVU156
 8806 0b2e 00       		.uleb128 .LVU156
ARM GAS  C:\Users\EDULU~1.DES\AppData\Local\Temp\ccmSuQZN.s 			page 182


 8807 0b2f 00       		.uleb128 0
 8808              	.LLST13:
 8809 0b30 00000000 		.4byte	.LVL37
 8810 0b34 0E000000 		.4byte	.LVL38
 8811 0b38 0200     		.2byte	0x2
 8812 0b3a 91       		.byte	0x91
 8813 0b3b 08       		.sleb128 8
 8814 0b3c 0E000000 		.4byte	.LVL38
 8815 0b40 12000000 		.4byte	.LVL40
 8816 0b44 0200     		.2byte	0x2
 8817 0b46 73       		.byte	0x73
 8818 0b47 08       		.sleb128 8
 8819 0b48 12000000 		.4byte	.LVL40
 8820 0b4c C4000000 		.4byte	.LFE3
 8821 0b50 0200     		.2byte	0x2
 8822 0b52 91       		.byte	0x91
 8823 0b53 08       		.sleb128 8
 8824 0b54 00000000 		.4byte	0
 8825 0b58 00000000 		.4byte	0
 8826              	.LVUS14:
 8827 0b5c 00       		.uleb128 0
 8828 0b5d 00       		.uleb128 .LVU152
 8829 0b5e 00       		.uleb128 .LVU152
 8830 0b5f 00       		.uleb128 .LVU156
 8831 0b60 00       		.uleb128 .LVU156
 8832 0b61 00       		.uleb128 0
 8833              	.LLST14:
 8834 0b62 00000000 		.4byte	.LVL37
 8835 0b66 0E000000 		.4byte	.LVL38
 8836 0b6a 0200     		.2byte	0x2
 8837 0b6c 91       		.byte	0x91
 8838 0b6d 0C       		.sleb128 12
 8839 0b6e 0E000000 		.4byte	.LVL38
 8840 0b72 12000000 		.4byte	.LVL40
 8841 0b76 0200     		.2byte	0x2
 8842 0b78 73       		.byte	0x73
 8843 0b79 0C       		.sleb128 12
 8844 0b7a 12000000 		.4byte	.LVL40
 8845 0b7e C4000000 		.4byte	.LFE3
 8846 0b82 0200     		.2byte	0x2
 8847 0b84 91       		.byte	0x91
 8848 0b85 0C       		.sleb128 12
 8849 0b86 00000000 		.4byte	0
 8850 0b8a 00000000 		.4byte	0
 8851              	.LVUS15:
 8852 0b8e 01       		.uleb128 .LVU154
 8853 0b8f 00       		.uleb128 .LVU167
 8854 0b90 00       		.uleb128 .LVU167
 8855 0b91 00       		.uleb128 .LVU168
 8856 0b92 00       		.uleb128 .LVU168
 8857 0b93 00       		.uleb128 .LVU202
 8858 0b94 00       		.uleb128 .LVU202
 8859 0b95 01       		.uleb128 .LVU206
 8860 0b96 00       		.uleb128 .LVU209
 8861 0b97 00       		.uleb128 0
 8862              	.LLST15:
 8863 0b98 10000000 		.4byte	.LVL39
ARM GAS  C:\Users\EDULU~1.DES\AppData\Local\Temp\ccmSuQZN.s 			page 183


 8864 0b9c 2E000000 		.4byte	.LVL42
 8865 0ba0 0200     		.2byte	0x2
 8866 0ba2 30       		.byte	0x30
 8867 0ba3 9F       		.byte	0x9f
 8868 0ba4 2E000000 		.4byte	.LVL42
 8869 0ba8 31000000 		.4byte	.LVL43-1
 8870 0bac 0100     		.2byte	0x1
 8871 0bae 50       		.byte	0x50
 8872 0baf 31000000 		.4byte	.LVL43-1
 8873 0bb3 76000000 		.4byte	.LVL48
 8874 0bb7 0200     		.2byte	0x2
 8875 0bb9 91       		.byte	0x91
 8876 0bba 64       		.sleb128 -28
 8877 0bbb 76000000 		.4byte	.LVL48
 8878 0bbf 7C000000 		.4byte	.LVL50
 8879 0bc3 0200     		.2byte	0x2
 8880 0bc5 30       		.byte	0x30
 8881 0bc6 9F       		.byte	0x9f
 8882 0bc7 80000000 		.4byte	.LVL54
 8883 0bcb C4000000 		.4byte	.LFE3
 8884 0bcf 0200     		.2byte	0x2
 8885 0bd1 30       		.byte	0x30
 8886 0bd2 9F       		.byte	0x9f
 8887 0bd3 00000000 		.4byte	0
 8888 0bd7 00000000 		.4byte	0
 8889              		.section	.debug_aranges,"",%progbits
 8890 0000 7C000000 		.4byte	0x7c
 8891 0004 0200     		.2byte	0x2
 8892 0006 00000000 		.4byte	.Ldebug_info0
 8893 000a 04       		.byte	0x4
 8894 000b 00       		.byte	0
 8895 000c 0000     		.2byte	0
 8896 000e 0000     		.2byte	0
 8897 0010 00000000 		.4byte	.LFB4
 8898 0014 C8000000 		.4byte	.LFE4-.LFB4
 8899 0018 00000000 		.4byte	.LFB6
 8900 001c 5C000000 		.4byte	.LFE6-.LFB6
 8901 0020 00000000 		.4byte	.LFB8
 8902 0024 2C000000 		.4byte	.LFE8-.LFB8
 8903 0028 00000000 		.4byte	.LFB9
 8904 002c 20000000 		.4byte	.LFE9-.LFB9
 8905 0030 00000000 		.4byte	.LFB3
 8906 0034 C4000000 		.4byte	.LFE3-.LFB3
 8907 0038 00000000 		.4byte	.LFB10
 8908 003c 34000000 		.4byte	.LFE10-.LFB10
 8909 0040 00000000 		.4byte	.LFB11
 8910 0044 08010000 		.4byte	.LFE11-.LFB11
 8911 0048 00000000 		.4byte	.LFB12
 8912 004c E0000000 		.4byte	.LFE12-.LFB12
 8913 0050 00000000 		.4byte	.LFB13
 8914 0054 24000000 		.4byte	.LFE13-.LFB13
 8915 0058 00000000 		.4byte	.LFB14
 8916 005c 5C000000 		.4byte	.LFE14-.LFB14
 8917 0060 00000000 		.4byte	.LFB5
 8918 0064 AC000000 		.4byte	.LFE5-.LFB5
 8919 0068 00000000 		.4byte	.LFB7
 8920 006c F0000000 		.4byte	.LFE7-.LFB7
ARM GAS  C:\Users\EDULU~1.DES\AppData\Local\Temp\ccmSuQZN.s 			page 184


 8921 0070 00000000 		.4byte	.LFB15
 8922 0074 A4000000 		.4byte	.LFE15-.LFB15
 8923 0078 00000000 		.4byte	0
 8924 007c 00000000 		.4byte	0
 8925              		.section	.debug_ranges,"",%progbits
 8926              	.Ldebug_ranges0:
 8927 0000 00000000 		.4byte	.LFB4
 8928 0004 C8000000 		.4byte	.LFE4
 8929 0008 00000000 		.4byte	.LFB6
 8930 000c 5C000000 		.4byte	.LFE6
 8931 0010 00000000 		.4byte	.LFB8
 8932 0014 2C000000 		.4byte	.LFE8
 8933 0018 00000000 		.4byte	.LFB9
 8934 001c 20000000 		.4byte	.LFE9
 8935 0020 00000000 		.4byte	.LFB3
 8936 0024 C4000000 		.4byte	.LFE3
 8937 0028 00000000 		.4byte	.LFB10
 8938 002c 34000000 		.4byte	.LFE10
 8939 0030 00000000 		.4byte	.LFB11
 8940 0034 08010000 		.4byte	.LFE11
 8941 0038 00000000 		.4byte	.LFB12
 8942 003c E0000000 		.4byte	.LFE12
 8943 0040 00000000 		.4byte	.LFB13
 8944 0044 24000000 		.4byte	.LFE13
 8945 0048 00000000 		.4byte	.LFB14
 8946 004c 5C000000 		.4byte	.LFE14
 8947 0050 00000000 		.4byte	.LFB5
 8948 0054 AC000000 		.4byte	.LFE5
 8949 0058 00000000 		.4byte	.LFB7
 8950 005c F0000000 		.4byte	.LFE7
 8951 0060 00000000 		.4byte	.LFB15
 8952 0064 A4000000 		.4byte	.LFE15
 8953 0068 00000000 		.4byte	0
 8954 006c 00000000 		.4byte	0
 8955              		.section	.debug_line,"",%progbits
 8956              	.Ldebug_line0:
 8957 0000 1D0C0000 		.section	.debug_str,"MS",%progbits,1
 8957      03000302 
 8957      00000201 
 8957      FB0E0D00 
 8957      01010101 
 8958              	.LASF196:
 8959 0000 4F535F45 		.ascii	"OS_ERR_MEM_FULL\000"
 8959      52525F4D 
 8959      454D5F46 
 8959      554C4C00 
 8960              	.LASF497:
 8961 0010 74735F73 		.ascii	"ts_start\000"
 8961      74617274 
 8961      00
 8962              	.LASF522:
 8963 0019 72656D61 		.ascii	"remain\000"
 8963      696E00
 8964              	.LASF351:
 8965 0020 5469636B 		.ascii	"TickNextPtr\000"
 8965      4E657874 
 8965      50747200 
ARM GAS  C:\Users\EDULU~1.DES\AppData\Local\Temp\ccmSuQZN.s 			page 185


 8966              	.LASF363:
 8967 002c 50656E64 		.ascii	"PendDataTblEntries\000"
 8967      44617461 
 8967      54626C45 
 8967      6E747269 
 8967      657300
 8968              	.LASF403:
 8969 003f 4F535F50 		.ascii	"OS_PEND_LIST\000"
 8969      454E445F 
 8969      4C495354 
 8969      00
 8970              	.LASF317:
 8971 004c 4F535F45 		.ascii	"OS_ERR_TMR_STK_INVALID\000"
 8971      52525F54 
 8971      4D525F53 
 8971      544B5F49 
 8971      4E56414C 
 8972              	.LASF453:
 8973 0063 4F534366 		.ascii	"OSCfg_IntQTaskStkLimit\000"
 8973      675F496E 
 8973      74515461 
 8973      736B5374 
 8973      6B4C696D 
 8974              	.LASF130:
 8975 007a 5F5F6C6F 		.ascii	"__locale_t\000"
 8975      63616C65 
 8975      5F7400
 8976              	.LASF30:
 8977 0085 5F5F7661 		.ascii	"__value\000"
 8977      6C756500 
 8978              	.LASF1:
 8979 008d 4350555F 		.ascii	"CPU_BOOLEAN\000"
 8979      424F4F4C 
 8979      45414E00 
 8980              	.LASF407:
 8981 0099 4F534964 		.ascii	"OSIdleTaskCtr\000"
 8981      6C655461 
 8981      736B4374 
 8981      7200
 8982              	.LASF98:
 8983 00a7 5F5F7366 		.ascii	"__sf\000"
 8983      00
 8984              	.LASF385:
 8985 00ac 4F535F54 		.ascii	"OS_TMR\000"
 8985      4D5200
 8986              	.LASF65:
 8987 00b3 5F726561 		.ascii	"_read\000"
 8987      6400
 8988              	.LASF181:
 8989 00b9 4F535F45 		.ascii	"OS_ERR_G\000"
 8989      52525F47 
 8989      00
 8990              	.LASF422:
 8991 00c2 4F535374 		.ascii	"OSStatTaskCPUUsageMax\000"
 8991      61745461 
 8991      736B4350 
 8991      55557361 
ARM GAS  C:\Users\EDULU~1.DES\AppData\Local\Temp\ccmSuQZN.s 			page 186


 8991      67654D61 
 8992              	.LASF190:
 8993 00d8 4F535F45 		.ascii	"OS_ERR_J\000"
 8993      52525F4A 
 8993      00
 8994              	.LASF319:
 8995 00e1 4F535F45 		.ascii	"OS_ERR_TMR_STOPPED\000"
 8995      52525F54 
 8995      4D525F53 
 8995      544F5050 
 8995      454400
 8996              	.LASF345:
 8997 00f4 4F535F54 		.ascii	"OS_TCB\000"
 8997      434200
 8998              	.LASF392:
 8999 00fb 53746174 		.ascii	"State\000"
 8999      6500
 9000              	.LASF66:
 9001 0101 5F777269 		.ascii	"_write\000"
 9001      746500
 9002              	.LASF316:
 9003 0108 4F535F45 		.ascii	"OS_ERR_TMR_PRIO_INVALID\000"
 9003      52525F54 
 9003      4D525F50 
 9003      52494F5F 
 9003      494E5641 
 9004              	.LASF435:
 9005 0120 4F535469 		.ascii	"OSTickTaskTimeMax\000"
 9005      636B5461 
 9005      736B5469 
 9005      6D654D61 
 9005      7800
 9006              	.LASF109:
 9007 0132 5F617363 		.ascii	"_asctime_buf\000"
 9007      74696D65 
 9007      5F627566 
 9007      00
 9008              	.LASF331:
 9009 013f 4D736750 		.ascii	"MsgPtr\000"
 9009      747200
 9010              	.LASF92:
 9011 0146 5F637674 		.ascii	"_cvtlen\000"
 9011      6C656E00 
 9012              	.LASF0:
 9013 014e 4350555F 		.ascii	"CPU_CHAR\000"
 9013      43484152 
 9013      00
 9014              	.LASF243:
 9015 0157 4F535F45 		.ascii	"OS_ERR_ROUND_ROBIN_1\000"
 9015      52525F52 
 9015      4F554E44 
 9015      5F524F42 
 9015      494E5F31 
 9016              	.LASF251:
 9017 016c 4F535F45 		.ascii	"OS_ERR_SEM_OVF\000"
 9017      52525F53 
 9017      454D5F4F 
ARM GAS  C:\Users\EDULU~1.DES\AppData\Local\Temp\ccmSuQZN.s 			page 187


 9017      564600
 9018              	.LASF248:
 9019 017b 4F535F45 		.ascii	"OS_ERR_SCHED_LOCKED\000"
 9019      52525F53 
 9019      43484544 
 9019      5F4C4F43 
 9019      4B454400 
 9020              	.LASF6:
 9021 018f 4350555F 		.ascii	"CPU_INT16U\000"
 9021      494E5431 
 9021      365500
 9022              	.LASF387:
 9023 019a 43616C6C 		.ascii	"CallbackPtr\000"
 9023      6261636B 
 9023      50747200 
 9024              	.LASF443:
 9025 01a6 4F535443 		.ascii	"OSTCBCurPtr\000"
 9025      42437572 
 9025      50747200 
 9026              	.LASF337:
 9027 01b2 6F735F73 		.ascii	"os_sem\000"
 9027      656D00
 9028              	.LASF421:
 9029 01b9 4F535374 		.ascii	"OSStatTaskCPUUsage\000"
 9029      61745461 
 9029      736B4350 
 9029      55557361 
 9029      676500
 9030              	.LASF483:
 9031 01cc 4F534366 		.ascii	"OSCfg_TmrWheelSize\000"
 9031      675F546D 
 9031      72576865 
 9031      656C5369 
 9031      7A6500
 9032              	.LASF128:
 9033 01df 5F756E75 		.ascii	"_unused\000"
 9033      73656400 
 9034              	.LASF39:
 9035 01e7 5F5F746D 		.ascii	"__tm\000"
 9035      00
 9036              	.LASF124:
 9037 01ec 5F776373 		.ascii	"_wcsrtombs_state\000"
 9037      72746F6D 
 9037      62735F73 
 9037      74617465 
 9037      00
 9038              	.LASF70:
 9039 01fd 5F6E6275 		.ascii	"_nbuf\000"
 9039      6600
 9040              	.LASF40:
 9041 0203 5F5F746D 		.ascii	"__tm_sec\000"
 9041      5F736563 
 9041      00
 9042              	.LASF531:
 9043 020c 4F535461 		.ascii	"OSTaskCreate\000"
 9043      736B4372 
 9043      65617465 
ARM GAS  C:\Users\EDULU~1.DES\AppData\Local\Temp\ccmSuQZN.s 			page 188


 9043      00
 9044              	.LASF117:
 9045 0219 5F6C3634 		.ascii	"_l64a_buf\000"
 9045      615F6275 
 9045      6600
 9046              	.LASF255:
 9047 0223 4F535F45 		.ascii	"OS_ERR_STAT_STK_INVALID\000"
 9047      52525F53 
 9047      5441545F 
 9047      53544B5F 
 9047      494E5641 
 9048              	.LASF287:
 9049 023b 4F535F45 		.ascii	"OS_ERR_TLS_ID_INVALID\000"
 9049      52525F54 
 9049      4C535F49 
 9049      445F494E 
 9049      56414C49 
 9050              	.LASF149:
 9051 0251 4F535F49 		.ascii	"OS_IDLE_CTR\000"
 9051      444C455F 
 9051      43545200 
 9052              	.LASF346:
 9053 025d 6F735F74 		.ascii	"os_tcb\000"
 9053      636200
 9054              	.LASF224:
 9055 0264 4F535F45 		.ascii	"OS_ERR_PEND_ABORT_NONE\000"
 9055      52525F50 
 9055      454E445F 
 9055      41424F52 
 9055      545F4E4F 
 9056              	.LASF518:
 9057 027b 73746174 		.ascii	"state\000"
 9057      6500
 9058              	.LASF523:
 9059 0281 4F53546D 		.ascii	"OSTmrCreate\000"
 9059      72437265 
 9059      61746500 
 9060              	.LASF74:
 9061 028d 5F6C6F63 		.ascii	"_lock\000"
 9061      6B00
 9062              	.LASF444:
 9063 0293 4F535443 		.ascii	"OSTCBHighRdyPtr\000"
 9063      42486967 
 9063      68526479 
 9063      50747200 
 9064              	.LASF17:
 9065 02a3 4350555F 		.ascii	"CPU_STK\000"
 9065      53544B00 
 9066              	.LASF371:
 9067 02ab 53757370 		.ascii	"SuspendCtr\000"
 9067      656E6443 
 9067      747200
 9068              	.LASF464:
 9069 02b6 4F534366 		.ascii	"OSCfg_StatTaskStkBasePtr\000"
 9069      675F5374 
 9069      61745461 
 9069      736B5374 
ARM GAS  C:\Users\EDULU~1.DES\AppData\Local\Temp\ccmSuQZN.s 			page 189


 9069      6B426173 
 9070              	.LASF105:
 9071 02cf 5F6D756C 		.ascii	"_mult\000"
 9071      7400
 9072              	.LASF424:
 9073 02d5 4F535374 		.ascii	"OSStatTaskCtrMax\000"
 9073      61745461 
 9073      736B4374 
 9073      724D6178 
 9073      00
 9074              	.LASF365:
 9075 02e6 5469636B 		.ascii	"TickCtrPrev\000"
 9075      43747250 
 9075      72657600 
 9076              	.LASF303:
 9077 02f2 4F535F45 		.ascii	"OS_ERR_TIME_NOT_DLY\000"
 9077      52525F54 
 9077      494D455F 
 9077      4E4F545F 
 9077      444C5900 
 9078              	.LASF270:
 9079 0306 4F535F45 		.ascii	"OS_ERR_TASK_NO_MORE_TCB\000"
 9079      52525F54 
 9079      41534B5F 
 9079      4E4F5F4D 
 9079      4F52455F 
 9080              	.LASF537:
 9081 031e 2E2E5C2E 		.ascii	"..\\..\\..\\..\\..\\..\\Software\\uCOS-III\\Source\\"
 9081      2E5C2E2E 
 9081      5C2E2E5C 
 9081      2E2E5C2E 
 9081      2E5C536F 
 9082 0349 6F735F74 		.ascii	"os_tmr.c\000"
 9082      6D722E63 
 9082      00
 9083              	.LASF528:
 9084 0352 4F535363 		.ascii	"OSSchedUnlock\000"
 9084      68656455 
 9084      6E6C6F63 
 9084      6B00
 9085              	.LASF520:
 9086 0360 4F53546D 		.ascii	"OSTmrStart\000"
 9086      72537461 
 9086      727400
 9087              	.LASF136:
 9088 036b 4350555F 		.ascii	"CPU_TS_TMR_FREQ\000"
 9088      54535F54 
 9088      4D525F46 
 9088      52455100 
 9089              	.LASF155:
 9090 037b 4F535F4F 		.ascii	"OS_OPT\000"
 9090      505400
 9091              	.LASF286:
 9092 0382 4F535F45 		.ascii	"OS_ERR_TCB_INVALID\000"
 9092      52525F54 
 9092      43425F49 
 9092      4E56414C 
ARM GAS  C:\Users\EDULU~1.DES\AppData\Local\Temp\ccmSuQZN.s 			page 190


 9092      494400
 9093              	.LASF205:
 9094 0395 4F535F45 		.ascii	"OS_ERR_MSG_POOL_EMPTY\000"
 9094      52525F4D 
 9094      53475F50 
 9094      4F4F4C5F 
 9094      454D5054 
 9095              	.LASF484:
 9096 03ab 4F534366 		.ascii	"OSCfg_TmrSizeRAM\000"
 9096      675F546D 
 9096      7253697A 
 9096      6552414D 
 9096      00
 9097              	.LASF27:
 9098 03bc 5F5F7763 		.ascii	"__wch\000"
 9098      6800
 9099              	.LASF214:
 9100 03c2 4F535F45 		.ascii	"OS_ERR_OBJ_CREATED\000"
 9100      52525F4F 
 9100      424A5F43 
 9100      52454154 
 9100      454400
 9101              	.LASF396:
 9102 03d5 6F735F70 		.ascii	"os_pend_data\000"
 9102      656E645F 
 9102      64617461 
 9102      00
 9103              	.LASF462:
 9104 03e2 4F534366 		.ascii	"OSCfg_StatTaskPrio\000"
 9104      675F5374 
 9104      61745461 
 9104      736B5072 
 9104      696F00
 9105              	.LASF427:
 9106 03f5 4F535374 		.ascii	"OSStatTaskTCB\000"
 9106      61745461 
 9106      736B5443 
 9106      4200
 9107              	.LASF62:
 9108 0403 5F66696C 		.ascii	"_file\000"
 9108      6500
 9109              	.LASF204:
 9110 0409 4F535F45 		.ascii	"OS_ERR_MEM_NO_FREE_BLKS\000"
 9110      52525F4D 
 9110      454D5F4E 
 9110      4F5F4652 
 9110      45455F42 
 9111              	.LASF49:
 9112 0421 5F6F6E5F 		.ascii	"_on_exit_args\000"
 9112      65786974 
 9112      5F617267 
 9112      7300
 9113              	.LASF288:
 9114 042f 4F535F45 		.ascii	"OS_ERR_TLS_ISR\000"
 9114      52525F54 
 9114      4C535F49 
 9114      535200
ARM GAS  C:\Users\EDULU~1.DES\AppData\Local\Temp\ccmSuQZN.s 			page 191


 9115              	.LASF208:
 9116 043e 4F535F45 		.ascii	"OS_ERR_MUTEX_OWNER\000"
 9116      52525F4D 
 9116      55544558 
 9116      5F4F574E 
 9116      455200
 9117              	.LASF369:
 9118 0451 54696D65 		.ascii	"TimeQuantaCtr\000"
 9118      5175616E 
 9118      74614374 
 9118      7200
 9119              	.LASF370:
 9120 045f 52656754 		.ascii	"RegTbl\000"
 9120      626C00
 9121              	.LASF481:
 9122 0466 4F534366 		.ascii	"OSCfg_TmrTaskStkSize\000"
 9122      675F546D 
 9122      72546173 
 9122      6B53746B 
 9122      53697A65 
 9123              	.LASF120:
 9124 047b 5F6D6272 		.ascii	"_mbrlen_state\000"
 9124      6C656E5F 
 9124      73746174 
 9124      6500
 9125              	.LASF20:
 9126 0489 6C6F6E67 		.ascii	"long int\000"
 9126      20696E74 
 9126      00
 9127              	.LASF186:
 9128 0492 4F535F45 		.ascii	"OS_ERR_INT_Q_FULL\000"
 9128      52525F49 
 9128      4E545F51 
 9128      5F46554C 
 9128      4C00
 9129              	.LASF131:
 9130 04a4 5F696D70 		.ascii	"_impure_ptr\000"
 9130      7572655F 
 9130      70747200 
 9131              	.LASF442:
 9132 04b0 4F53546D 		.ascii	"OSTmrUpdateCtr\000"
 9132      72557064 
 9132      61746543 
 9132      747200
 9133              	.LASF89:
 9134 04bf 5F726573 		.ascii	"_result_k\000"
 9134      756C745F 
 9134      6B00
 9135              	.LASF227:
 9136 04c9 4F535F45 		.ascii	"OS_ERR_PEND_ISR\000"
 9136      52525F50 
 9136      454E445F 
 9136      49535200 
 9137              	.LASF59:
 9138 04d9 5F73697A 		.ascii	"_size\000"
 9138      6500
 9139              	.LASF397:
ARM GAS  C:\Users\EDULU~1.DES\AppData\Local\Temp\ccmSuQZN.s 			page 192


 9140 04df 54434250 		.ascii	"TCBPtr\000"
 9140      747200
 9141              	.LASF327:
 9142 04e6 4F535F45 		.ascii	"OS_ERR\000"
 9142      525200
 9143              	.LASF110:
 9144 04ed 5F6C6F63 		.ascii	"_localtime_buf\000"
 9144      616C7469 
 9144      6D655F62 
 9144      756600
 9145              	.LASF19:
 9146 04fc 4350555F 		.ascii	"CPU_SR\000"
 9146      535200
 9147              	.LASF280:
 9148 0503 4F535F45 		.ascii	"OS_ERR_TASK_SUSPENDED\000"
 9148      52525F54 
 9148      41534B5F 
 9148      53555350 
 9148      454E4445 
 9149              	.LASF451:
 9150 0519 4F534366 		.ascii	"OSCfg_IntQSizeRAM\000"
 9150      675F496E 
 9150      74515369 
 9150      7A655241 
 9150      4D00
 9151              	.LASF44:
 9152 052b 5F5F746D 		.ascii	"__tm_mon\000"
 9152      5F6D6F6E 
 9152      00
 9153              	.LASF420:
 9154 0534 4F535374 		.ascii	"OSStatResetFlag\000"
 9154      61745265 
 9154      73657446 
 9154      6C616700 
 9155              	.LASF388:
 9156 0544 43616C6C 		.ascii	"CallbackPtrArg\000"
 9156      6261636B 
 9156      50747241 
 9156      726700
 9157              	.LASF159:
 9158 0553 4F535F52 		.ascii	"OS_REG_ID\000"
 9158      45475F49 
 9158      4400
 9159              	.LASF499:
 9160 055d 4F535F54 		.ascii	"OS_TmrTask\000"
 9160      6D725461 
 9160      736B00
 9161              	.LASF176:
 9162 0568 4F535F45 		.ascii	"OS_ERR_FATAL_RETURN\000"
 9162      52525F46 
 9162      4154414C 
 9162      5F524554 
 9162      55524E00 
 9163              	.LASF134:
 9164 057c 4350555F 		.ascii	"CPU_TS\000"
 9164      545300
 9165              	.LASF492:
ARM GAS  C:\Users\EDULU~1.DES\AppData\Local\Temp\ccmSuQZN.s 			page 193


 9166 0583 646F6E65 		.ascii	"done\000"
 9166      00
 9167              	.LASF167:
 9168 0588 4F535F45 		.ascii	"OS_ERR_A\000"
 9168      52525F41 
 9168      00
 9169              	.LASF169:
 9170 0591 4F535F45 		.ascii	"OS_ERR_B\000"
 9170      52525F42 
 9170      00
 9171              	.LASF170:
 9172 059a 4F535F45 		.ascii	"OS_ERR_C\000"
 9172      52525F43 
 9172      00
 9173              	.LASF172:
 9174 05a3 4F535F45 		.ascii	"OS_ERR_D\000"
 9174      52525F44 
 9174      00
 9175              	.LASF174:
 9176 05ac 4F535F45 		.ascii	"OS_ERR_E\000"
 9176      52525F45 
 9176      00
 9177              	.LASF175:
 9178 05b5 4F535F45 		.ascii	"OS_ERR_F\000"
 9178      52525F46 
 9178      00
 9179              	.LASF107:
 9180 05be 5F756E75 		.ascii	"_unused_rand\000"
 9180      7365645F 
 9180      72616E64 
 9180      00
 9181              	.LASF182:
 9182 05cb 4F535F45 		.ascii	"OS_ERR_H\000"
 9182      52525F48 
 9182      00
 9183              	.LASF183:
 9184 05d4 4F535F45 		.ascii	"OS_ERR_I\000"
 9184      52525F49 
 9184      00
 9185              	.LASF5:
 9186 05dd 7369676E 		.ascii	"signed char\000"
 9186      65642063 
 9186      68617200 
 9187              	.LASF191:
 9188 05e9 4F535F45 		.ascii	"OS_ERR_K\000"
 9188      52525F4B 
 9188      00
 9189              	.LASF192:
 9190 05f2 4F535F45 		.ascii	"OS_ERR_L\000"
 9190      52525F4C 
 9190      00
 9191              	.LASF194:
 9192 05fb 4F535F45 		.ascii	"OS_ERR_M\000"
 9192      52525F4D 
 9192      00
 9193              	.LASF210:
 9194 0604 4F535F45 		.ascii	"OS_ERR_N\000"
ARM GAS  C:\Users\EDULU~1.DES\AppData\Local\Temp\ccmSuQZN.s 			page 194


 9194      52525F4E 
 9194      00
 9195              	.LASF213:
 9196 060d 4F535F45 		.ascii	"OS_ERR_O\000"
 9196      52525F4F 
 9196      00
 9197              	.LASF221:
 9198 0616 4F535F45 		.ascii	"OS_ERR_P\000"
 9198      52525F50 
 9198      00
 9199              	.LASF236:
 9200 061f 4F535F45 		.ascii	"OS_ERR_Q\000"
 9200      52525F51 
 9200      00
 9201              	.LASF241:
 9202 0628 4F535F45 		.ascii	"OS_ERR_R\000"
 9202      52525F52 
 9202      00
 9203              	.LASF245:
 9204 0631 4F535F45 		.ascii	"OS_ERR_S\000"
 9204      52525F53 
 9204      00
 9205              	.LASF262:
 9206 063a 4F535F45 		.ascii	"OS_ERR_T\000"
 9206      52525F54 
 9206      00
 9207              	.LASF320:
 9208 0643 4F535F45 		.ascii	"OS_ERR_U\000"
 9208      52525F55 
 9208      00
 9209              	.LASF321:
 9210 064c 4F535F45 		.ascii	"OS_ERR_V\000"
 9210      52525F56 
 9210      00
 9211              	.LASF322:
 9212 0655 4F535F45 		.ascii	"OS_ERR_W\000"
 9212      52525F57 
 9212      00
 9213              	.LASF323:
 9214 065e 4F535F45 		.ascii	"OS_ERR_X\000"
 9214      52525F58 
 9214      00
 9215              	.LASF324:
 9216 0667 4F535F45 		.ascii	"OS_ERR_Y\000"
 9216      52525F59 
 9216      00
 9217              	.LASF326:
 9218 0670 4F535F45 		.ascii	"OS_ERR_Z\000"
 9218      52525F5A 
 9218      00
 9219              	.LASF165:
 9220 0679 4F535F43 		.ascii	"OS_CPU_ExceptStkBase\000"
 9220      50555F45 
 9220      78636570 
 9220      7453746B 
 9220      42617365 
 9221              	.LASF305:
ARM GAS  C:\Users\EDULU~1.DES\AppData\Local\Temp\ccmSuQZN.s 			page 195


 9222 068e 4F535F45 		.ascii	"OS_ERR_TIME_ZERO_DLY\000"
 9222      52525F54 
 9222      494D455F 
 9222      5A45524F 
 9222      5F444C59 
 9223              	.LASF231:
 9224 06a3 4F535F45 		.ascii	"OS_ERR_POST_ISR\000"
 9224      52525F50 
 9224      4F53545F 
 9224      49535200 
 9225              	.LASF343:
 9226 06b3 4462674E 		.ascii	"DbgNamePtr\000"
 9226      616D6550 
 9226      747200
 9227              	.LASF3:
 9228 06be 756E7369 		.ascii	"unsigned char\000"
 9228      676E6564 
 9228      20636861 
 9228      7200
 9229              	.LASF178:
 9230 06cc 4F535F45 		.ascii	"OS_ERR_FLAG_NOT_RDY\000"
 9230      52525F46 
 9230      4C41475F 
 9230      4E4F545F 
 9230      52445900 
 9231              	.LASF493:
 9232 06e0 705F666E 		.ascii	"p_fnct\000"
 9232      637400
 9233              	.LASF294:
 9234 06e7 4F535F45 		.ascii	"OS_ERR_TICK_STK_SIZE_INVALID\000"
 9234      52525F54 
 9234      49434B5F 
 9234      53544B5F 
 9234      53495A45 
 9235              	.LASF458:
 9236 0704 4F534366 		.ascii	"OSCfg_ISRStkSizeRAM\000"
 9236      675F4953 
 9236      5253746B 
 9236      53697A65 
 9236      52414D00 
 9237              	.LASF341:
 9238 0718 44626750 		.ascii	"DbgPrevPtr\000"
 9238      72657650 
 9238      747200
 9239              	.LASF84:
 9240 0723 5F756E73 		.ascii	"_unspecified_locale_info\000"
 9240      70656369 
 9240      66696564 
 9240      5F6C6F63 
 9240      616C655F 
 9241              	.LASF77:
 9242 073c 5F726565 		.ascii	"_reent\000"
 9242      6E7400
 9243              	.LASF347:
 9244 0743 53746B50 		.ascii	"StkPtr\000"
 9244      747200
 9245              	.LASF132:
ARM GAS  C:\Users\EDULU~1.DES\AppData\Local\Temp\ccmSuQZN.s 			page 196


 9246 074a 5F676C6F 		.ascii	"_global_impure_ptr\000"
 9246      62616C5F 
 9246      696D7075 
 9246      72655F70 
 9246      747200
 9247              	.LASF527:
 9248 075d 4350555F 		.ascii	"CPU_TS_TmrRd\000"
 9248      54535F54 
 9248      6D725264 
 9248      00
 9249              	.LASF409:
 9250 076a 4F53496E 		.ascii	"OSIntNestingCtr\000"
 9250      744E6573 
 9250      74696E67 
 9250      43747200 
 9251              	.LASF377:
 9252 077a 48656164 		.ascii	"HeadPtr\000"
 9252      50747200 
 9253              	.LASF274:
 9254 0782 4F535F45 		.ascii	"OS_ERR_TASK_OPT\000"
 9254      52525F54 
 9254      41534B5F 
 9254      4F505400 
 9255              	.LASF257:
 9256 0792 4F535F45 		.ascii	"OS_ERR_STATE_INVALID\000"
 9256      52525F53 
 9256      54415445 
 9256      5F494E56 
 9256      414C4944 
 9257              	.LASF161:
 9258 07a7 4F535F53 		.ascii	"OS_STATE\000"
 9258      54415445 
 9258      00
 9259              	.LASF348:
 9260 07b0 45787450 		.ascii	"ExtPtr\000"
 9260      747200
 9261              	.LASF154:
 9262 07b7 4F535F4F 		.ascii	"OS_OBJ_TYPE\000"
 9262      424A5F54 
 9262      59504500 
 9263              	.LASF195:
 9264 07c3 4F535F45 		.ascii	"OS_ERR_MEM_CREATE_ISR\000"
 9264      52525F4D 
 9264      454D5F43 
 9264      52454154 
 9264      455F4953 
 9265              	.LASF2:
 9266 07d9 63686172 		.ascii	"char\000"
 9266      00
 9267              	.LASF488:
 9268 07de 4F534366 		.ascii	"OSCfg_TickTaskStk\000"
 9268      675F5469 
 9268      636B5461 
 9268      736B5374 
 9268      6B00
 9269              	.LASF56:
 9270 07f0 5F666E73 		.ascii	"_fns\000"
ARM GAS  C:\Users\EDULU~1.DES\AppData\Local\Temp\ccmSuQZN.s 			page 197


 9270      00
 9271              	.LASF494:
 9272 07f5 705F746D 		.ascii	"p_tmr\000"
 9272      7200
 9273              	.LASF198:
 9274 07fb 4F535F45 		.ascii	"OS_ERR_MEM_INVALID_BLKS\000"
 9274      52525F4D 
 9274      454D5F49 
 9274      4E56414C 
 9274      49445F42 
 9275              	.LASF145:
 9276 0813 4350555F 		.ascii	"CPU_IntDisMeasMax_cnts\000"
 9276      496E7444 
 9276      69734D65 
 9276      61734D61 
 9276      785F636E 
 9277              	.LASF68:
 9278 082a 5F636C6F 		.ascii	"_close\000"
 9278      736500
 9279              	.LASF514:
 9280 0831 705F6361 		.ascii	"p_callback_arg\000"
 9280      6C6C6261 
 9280      636B5F61 
 9280      726700
 9281              	.LASF367:
 9282 0840 5469636B 		.ascii	"TickRemain\000"
 9282      52656D61 
 9282      696E00
 9283              	.LASF490:
 9284 084b 4F534366 		.ascii	"OSCfg_TmrTaskStk\000"
 9284      675F546D 
 9284      72546173 
 9284      6B53746B 
 9284      00
 9285              	.LASF390:
 9286 085c 52656D61 		.ascii	"Remain\000"
 9286      696E00
 9287              	.LASF168:
 9288 0863 4F535F45 		.ascii	"OS_ERR_ACCEPT_ISR\000"
 9288      52525F41 
 9288      43434550 
 9288      545F4953 
 9288      5200
 9289              	.LASF333:
 9290 0875 4D736754 		.ascii	"MsgTS\000"
 9290      5300
 9291              	.LASF357:
 9292 087b 50656E64 		.ascii	"PendDataTblPtr\000"
 9292      44617461 
 9292      54626C50 
 9292      747200
 9293              	.LASF197:
 9294 088a 4F535F45 		.ascii	"OS_ERR_MEM_INVALID_P_ADDR\000"
 9294      52525F4D 
 9294      454D5F49 
 9294      4E56414C 
 9294      49445F50 
ARM GAS  C:\Users\EDULU~1.DES\AppData\Local\Temp\ccmSuQZN.s 			page 198


 9295              	.LASF378:
 9296 08a4 5461696C 		.ascii	"TailPtr\000"
 9296      50747200 
 9297              	.LASF240:
 9298 08ac 4F535F45 		.ascii	"OS_ERR_Q_SIZE\000"
 9298      52525F51 
 9298      5F53495A 
 9298      4500
 9299              	.LASF79:
 9300 08ba 5F737464 		.ascii	"_stdin\000"
 9300      696E00
 9301              	.LASF329:
 9302 08c1 6F735F6D 		.ascii	"os_msg\000"
 9302      736700
 9303              	.LASF222:
 9304 08c8 4F535F45 		.ascii	"OS_ERR_PEND_ABORT\000"
 9304      52525F50 
 9304      454E445F 
 9304      41424F52 
 9304      5400
 9305              	.LASF526:
 9306 08da 705F6361 		.ascii	"p_callback\000"
 9306      6C6C6261 
 9306      636B00
 9307              	.LASF415:
 9308 08e5 4F535072 		.ascii	"OSPrioTbl\000"
 9308      696F5462 
 9308      6C00
 9309              	.LASF260:
 9310 08ef 4F535F45 		.ascii	"OS_ERR_STK_SIZE_INVALID\000"
 9310      52525F53 
 9310      544B5F53 
 9310      495A455F 
 9310      494E5641 
 9311              	.LASF505:
 9312 0907 4F535F54 		.ascii	"OS_TmrResetPeak\000"
 9312      6D725265 
 9312      73657450 
 9312      65616B00 
 9313              	.LASF273:
 9314 0917 4F535F45 		.ascii	"OS_ERR_TASK_NOT_SUSPENDED\000"
 9314      52525F54 
 9314      41534B5F 
 9314      4E4F545F 
 9314      53555350 
 9315              	.LASF256:
 9316 0931 4F535F45 		.ascii	"OS_ERR_STAT_STK_SIZE_INVALID\000"
 9316      52525F53 
 9316      5441545F 
 9316      53544B5F 
 9316      53495A45 
 9317              	.LASF349:
 9318 094e 53746B4C 		.ascii	"StkLimitPtr\000"
 9318      696D6974 
 9318      50747200 
 9319              	.LASF9:
 9320 095a 4350555F 		.ascii	"CPU_INT32U\000"
ARM GAS  C:\Users\EDULU~1.DES\AppData\Local\Temp\ccmSuQZN.s 			page 199


 9320      494E5433 
 9320      325500
 9321              	.LASF389:
 9322 0965 4D617463 		.ascii	"Match\000"
 9322      6800
 9323              	.LASF308:
 9324 096b 4F535F45 		.ascii	"OS_ERR_TMR_INVALID_DEST\000"
 9324      52525F54 
 9324      4D525F49 
 9324      4E56414C 
 9324      49445F44 
 9325              	.LASF297:
 9326 0983 4F535F45 		.ascii	"OS_ERR_TIME_DLY_RESUME_ISR\000"
 9326      52525F54 
 9326      494D455F 
 9326      444C595F 
 9326      52455355 
 9327              	.LASF311:
 9328 099e 4F535F45 		.ascii	"OS_ERR_TMR_INVALID_STATE\000"
 9328      52525F54 
 9328      4D525F49 
 9328      4E56414C 
 9328      49445F53 
 9329              	.LASF291:
 9330 09b7 4F535F45 		.ascii	"OS_ERR_TLS_DESTRUCT_ASSIGNED\000"
 9330      52525F54 
 9330      4C535F44 
 9330      45535452 
 9330      5543545F 
 9331              	.LASF15:
 9332 09d4 4350555F 		.ascii	"CPU_ADDR\000"
 9332      41444452 
 9332      00
 9333              	.LASF530:
 9334 09dd 4F535363 		.ascii	"OSSchedLock\000"
 9334      6865644C 
 9334      6F636B00 
 9335              	.LASF512:
 9336 09e9 4F535F54 		.ascii	"OS_TmrDbgListAdd\000"
 9336      6D724462 
 9336      674C6973 
 9336      74416464 
 9336      00
 9337              	.LASF376:
 9338 09fa 6F735F72 		.ascii	"os_rdy_list\000"
 9338      64795F6C 
 9338      69737400 
 9339              	.LASF423:
 9340 0a06 4F535374 		.ascii	"OSStatTaskCtr\000"
 9340      61745461 
 9340      736B4374 
 9340      7200
 9341              	.LASF250:
 9342 0a14 4F535F45 		.ascii	"OS_ERR_SCHED_UNLOCK_ISR\000"
 9342      52525F53 
 9342      43484544 
 9342      5F554E4C 
ARM GAS  C:\Users\EDULU~1.DES\AppData\Local\Temp\ccmSuQZN.s 			page 200


 9342      4F434B5F 
 9343              	.LASF447:
 9344 0a2c 4F534366 		.ascii	"OSCfg_IdleTaskStkSize\000"
 9344      675F4964 
 9344      6C655461 
 9344      736B5374 
 9344      6B53697A 
 9345              	.LASF463:
 9346 0a42 4F534366 		.ascii	"OSCfg_StatTaskRate_Hz\000"
 9346      675F5374 
 9346      61745461 
 9346      736B5261 
 9346      74655F48 
 9347              	.LASF158:
 9348 0a58 4F535F52 		.ascii	"OS_REG\000"
 9348      454700
 9349              	.LASF534:
 9350 0a5f 4350555F 		.ascii	"CPU_IntDisMeasStop\000"
 9350      496E7444 
 9350      69734D65 
 9350      61735374 
 9350      6F7000
 9351              	.LASF299:
 9352 0a72 4F535F45 		.ascii	"OS_ERR_TIME_INVALID_HOURS\000"
 9352      52525F54 
 9352      494D455F 
 9352      494E5641 
 9352      4C49445F 
 9353              	.LASF476:
 9354 0a8c 4F534366 		.ascii	"OSCfg_TickWheelSizeRAM\000"
 9354      675F5469 
 9354      636B5768 
 9354      65656C53 
 9354      697A6552 
 9355              	.LASF188:
 9356 0aa3 4F535F45 		.ascii	"OS_ERR_INT_Q_STK_INVALID\000"
 9356      52525F49 
 9356      4E545F51 
 9356      5F53544B 
 9356      5F494E56 
 9357              	.LASF509:
 9358 0abc 705F6572 		.ascii	"p_err\000"
 9358      7200
 9359              	.LASF189:
 9360 0ac2 4F535F45 		.ascii	"OS_ERR_INT_Q_STK_SIZE_INVALID\000"
 9360      52525F49 
 9360      4E545F51 
 9360      5F53544B 
 9360      5F53495A 
 9361              	.LASF283:
 9362 0ae0 4F535F45 		.ascii	"OS_ERR_TASK_SUSPEND_ISR\000"
 9362      52525F54 
 9362      41534B5F 
 9362      53555350 
 9362      454E445F 
 9363              	.LASF199:
 9364 0af8 4F535F45 		.ascii	"OS_ERR_MEM_INVALID_PART\000"
ARM GAS  C:\Users\EDULU~1.DES\AppData\Local\Temp\ccmSuQZN.s 			page 201


 9364      52525F4D 
 9364      454D5F49 
 9364      4E56414C 
 9364      49445F50 
 9365              	.LASF352:
 9366 0b10 5469636B 		.ascii	"TickPrevPtr\000"
 9366      50726576 
 9366      50747200 
 9367              	.LASF64:
 9368 0b1c 5F636F6F 		.ascii	"_cookie\000"
 9368      6B696500 
 9369              	.LASF249:
 9370 0b24 4F535F45 		.ascii	"OS_ERR_SCHED_NOT_LOCKED\000"
 9370      52525F53 
 9370      43484544 
 9370      5F4E4F54 
 9370      5F4C4F43 
 9371              	.LASF133:
 9372 0b3c 4350555F 		.ascii	"CPU_TS32\000"
 9372      54533332 
 9372      00
 9373              	.LASF37:
 9374 0b45 5F776473 		.ascii	"_wds\000"
 9374      00
 9375              	.LASF535:
 9376 0b4a 4350555F 		.ascii	"CPU_SR_Restore\000"
 9376      53525F52 
 9376      6573746F 
 9376      726500
 9377              	.LASF148:
 9378 0b59 4F535F43 		.ascii	"OS_CTX_SW_CTR\000"
 9378      54585F53 
 9378      575F4354 
 9378      5200
 9379              	.LASF129:
 9380 0b67 5F5F6C6F 		.ascii	"__lock\000"
 9380      636B00
 9381              	.LASF96:
 9382 0b6e 5F736967 		.ascii	"_sig_func\000"
 9382      5F66756E 
 9382      6300
 9383              	.LASF519:
 9384 0b78 6370755F 		.ascii	"cpu_sr\000"
 9384      737200
 9385              	.LASF436:
 9386 0b7f 4F53546D 		.ascii	"OSTmrDbgListPtr\000"
 9386      72446267 
 9386      4C697374 
 9386      50747200 
 9387              	.LASF395:
 9388 0b8f 4F535F50 		.ascii	"OS_PEND_DATA\000"
 9388      454E445F 
 9388      44415441 
 9388      00
 9389              	.LASF454:
 9390 0b9c 4F534366 		.ascii	"OSCfg_IntQTaskStkSize\000"
 9390      675F496E 
ARM GAS  C:\Users\EDULU~1.DES\AppData\Local\Temp\ccmSuQZN.s 			page 202


 9390      74515461 
 9390      736B5374 
 9390      6B53697A 
 9391              	.LASF72:
 9392 0bb2 5F6F6666 		.ascii	"_offset\000"
 9392      73657400 
 9393              	.LASF93:
 9394 0bba 5F637674 		.ascii	"_cvtbuf\000"
 9394      62756600 
 9395              	.LASF301:
 9396 0bc2 4F535F45 		.ascii	"OS_ERR_TIME_INVALID_SECONDS\000"
 9396      52525F54 
 9396      494D455F 
 9396      494E5641 
 9396      4C49445F 
 9397              	.LASF482:
 9398 0bde 4F534366 		.ascii	"OSCfg_TmrTaskStkSizeRAM\000"
 9398      675F546D 
 9398      72546173 
 9398      6B53746B 
 9398      53697A65 
 9399              	.LASF487:
 9400 0bf6 4F534366 		.ascii	"OSCfg_StatTaskStk\000"
 9400      675F5374 
 9400      61745461 
 9400      736B5374 
 9400      6B00
 9401              	.LASF468:
 9402 0c08 4F534366 		.ascii	"OSCfg_StkSizeMin\000"
 9402      675F5374 
 9402      6B53697A 
 9402      654D696E 
 9402      00
 9403              	.LASF340:
 9404 0c19 50656E64 		.ascii	"PendList\000"
 9404      4C697374 
 9404      00
 9405              	.LASF306:
 9406 0c22 4F535F45 		.ascii	"OS_ERR_TIMEOUT\000"
 9406      52525F54 
 9406      494D454F 
 9406      555400
 9407              	.LASF212:
 9408 0c31 4F535F45 		.ascii	"OS_ERR_NO_MORE_ID_AVAIL\000"
 9408      52525F4E 
 9408      4F5F4D4F 
 9408      52455F49 
 9408      445F4156 
 9409              	.LASF538:
 9410 0c49 433A5C55 		.ascii	"C:\\Users\\edulu.DESKTOP-961TG4K\\Documents\\PSoC C"
 9410      73657273 
 9410      5C656475 
 9410      6C752E44 
 9410      45534B54 
 9411 0c78 72656174 		.ascii	"reator\\Micrium\\Examples\\Cypress\\CY8CKIT-044\\OS"
 9411      6F725C4D 
 9411      69637269 
ARM GAS  C:\Users\EDULU~1.DES\AppData\Local\Temp\ccmSuQZN.s 			page 203


 9411      756D5C45 
 9411      78616D70 
 9412 0ca6 335C5053 		.ascii	"3\\PSoC\\OS3.cydsn\000"
 9412      6F435C4F 
 9412      53332E63 
 9412      7964736E 
 9412      00
 9413              	.LASF486:
 9414 0cb7 4F534366 		.ascii	"OSCfg_ISRStk\000"
 9414      675F4953 
 9414      5253746B 
 9414      00
 9415              	.LASF264:
 9416 0cc4 4F535F45 		.ascii	"OS_ERR_TASK_CREATE_ISR\000"
 9416      52525F54 
 9416      41534B5F 
 9416      43524541 
 9416      54455F49 
 9417              	.LASF177:
 9418 0cdb 4F535F45 		.ascii	"OS_ERR_FLAG_GRP_DEPLETED\000"
 9418      52525F46 
 9418      4C41475F 
 9418      4752505F 
 9418      4445504C 
 9419              	.LASF432:
 9420 0cf4 4F535461 		.ascii	"OSTaskRegNextAvailID\000"
 9420      736B5265 
 9420      674E6578 
 9420      74417661 
 9420      696C4944 
 9421              	.LASF315:
 9422 0d09 4F535F45 		.ascii	"OS_ERR_TMR_NON_AVAIL\000"
 9422      52525F54 
 9422      4D525F4E 
 9422      4F4E5F41 
 9422      5641494C 
 9423              	.LASF465:
 9424 0d1e 4F534366 		.ascii	"OSCfg_StatTaskStkLimit\000"
 9424      675F5374 
 9424      61745461 
 9424      736B5374 
 9424      6B4C696D 
 9425              	.LASF90:
 9426 0d35 5F703573 		.ascii	"_p5s\000"
 9426      00
 9427              	.LASF21:
 9428 0d3a 6C6F6E67 		.ascii	"long unsigned int\000"
 9428      20756E73 
 9428      69676E65 
 9428      6420696E 
 9428      7400
 9429              	.LASF515:
 9430 0d4c 73756363 		.ascii	"success\000"
 9430      65737300 
 9431              	.LASF146:
 9432 0d54 4F535F43 		.ascii	"OS_CPU_USAGE\000"
 9432      50555F55 
ARM GAS  C:\Users\EDULU~1.DES\AppData\Local\Temp\ccmSuQZN.s 			page 204


 9432      53414745 
 9432      00
 9433              	.LASF275:
 9434 0d61 4F535F45 		.ascii	"OS_ERR_TASK_RESUME_ISR\000"
 9434      52525F54 
 9434      41534B5F 
 9434      52455355 
 9434      4D455F49 
 9435              	.LASF517:
 9436 0d78 4F53546D 		.ascii	"OSTmrStateGet\000"
 9436      72537461 
 9436      74654765 
 9436      7400
 9437              	.LASF271:
 9438 0d86 4F535F45 		.ascii	"OS_ERR_TASK_NOT_DLY\000"
 9438      52525F54 
 9438      41534B5F 
 9438      4E4F545F 
 9438      444C5900 
 9439              	.LASF384:
 9440 0d9a 4F535F54 		.ascii	"OS_TMR_CALLBACK_PTR\000"
 9440      4D525F43 
 9440      414C4C42 
 9440      41434B5F 
 9440      50545200 
 9441              	.LASF441:
 9442 0dae 4F53546D 		.ascii	"OSTmrUpdateCnt\000"
 9442      72557064 
 9442      61746543 
 9442      6E7400
 9443              	.LASF60:
 9444 0dbd 5F5F7346 		.ascii	"__sFILE\000"
 9444      494C4500 
 9445              	.LASF86:
 9446 0dc5 5F5F7364 		.ascii	"__sdidinit\000"
 9446      6964696E 
 9446      697400
 9447              	.LASF76:
 9448 0dd0 5F666C61 		.ascii	"_flags2\000"
 9448      67733200 
 9449              	.LASF171:
 9450 0dd8 4F535F45 		.ascii	"OS_ERR_CREATE_ISR\000"
 9450      52525F43 
 9450      52454154 
 9450      455F4953 
 9450      5200
 9451              	.LASF405:
 9452 0dea 4F535F50 		.ascii	"OS_PEND_OBJ\000"
 9452      454E445F 
 9452      4F424A00 
 9453              	.LASF223:
 9454 0df6 4F535F45 		.ascii	"OS_ERR_PEND_ABORT_ISR\000"
 9454      52525F50 
 9454      454E445F 
 9454      41424F52 
 9454      545F4953 
 9455              	.LASF279:
ARM GAS  C:\Users\EDULU~1.DES\AppData\Local\Temp\ccmSuQZN.s 			page 205


 9456 0e0c 4F535F45 		.ascii	"OS_ERR_TASK_STK_CHK_ISR\000"
 9456      52525F54 
 9456      41534B5F 
 9456      53544B5F 
 9456      43484B5F 
 9457              	.LASF289:
 9458 0e24 4F535F45 		.ascii	"OS_ERR_TLS_NO_MORE_AVAIL\000"
 9458      52525F54 
 9458      4C535F4E 
 9458      4F5F4D4F 
 9458      52455F41 
 9459              	.LASF300:
 9460 0e3d 4F535F45 		.ascii	"OS_ERR_TIME_INVALID_MINUTES\000"
 9460      52525F54 
 9460      494D455F 
 9460      494E5641 
 9460      4C49445F 
 9461              	.LASF153:
 9462 0e59 4F535F4F 		.ascii	"OS_OBJ_QTY\000"
 9462      424A5F51 
 9462      545900
 9463              	.LASF78:
 9464 0e64 5F657272 		.ascii	"_errno\000"
 9464      6E6F00
 9465              	.LASF516:
 9466 0e6b 4F53546D 		.ascii	"OSTmrStop\000"
 9466      7253746F 
 9466      7000
 9467              	.LASF373:
 9468 0e75 53746B46 		.ascii	"StkFree\000"
 9468      72656500 
 9469              	.LASF118:
 9470 0e7d 5F736967 		.ascii	"_signal_buf\000"
 9470      6E616C5F 
 9470      62756600 
 9471              	.LASF143:
 9472 0e89 4350555F 		.ascii	"CPU_IntDisMeasOvrhd_cnts\000"
 9472      496E7444 
 9472      69734D65 
 9472      61734F76 
 9472      7268645F 
 9473              	.LASF467:
 9474 0ea2 4F534366 		.ascii	"OSCfg_StatTaskStkSizeRAM\000"
 9474      675F5374 
 9474      61745461 
 9474      736B5374 
 9474      6B53697A 
 9475              	.LASF38:
 9476 0ebb 5F426967 		.ascii	"_Bigint\000"
 9476      696E7400 
 9477              	.LASF207:
 9478 0ec3 4F535F45 		.ascii	"OS_ERR_MUTEX_NOT_OWNER\000"
 9478      52525F4D 
 9478      55544558 
 9478      5F4E4F54 
 9478      5F4F574E 
 9479              	.LASF450:
ARM GAS  C:\Users\EDULU~1.DES\AppData\Local\Temp\ccmSuQZN.s 			page 206


 9480 0eda 4F534366 		.ascii	"OSCfg_IntQSize\000"
 9480      675F496E 
 9480      74515369 
 9480      7A6500
 9481              	.LASF35:
 9482 0ee9 5F6D6178 		.ascii	"_maxwds\000"
 9482      77647300 
 9483              	.LASF215:
 9484 0ef1 4F535F45 		.ascii	"OS_ERR_OBJ_DEL\000"
 9484      52525F4F 
 9484      424A5F44 
 9484      454C00
 9485              	.LASF87:
 9486 0f00 5F5F636C 		.ascii	"__cleanup\000"
 9486      65616E75 
 9486      7000
 9487              	.LASF95:
 9488 0f0a 5F617465 		.ascii	"_atexit0\000"
 9488      78697430 
 9488      00
 9489              	.LASF362:
 9490 0f13 53746B53 		.ascii	"StkSize\000"
 9490      697A6500 
 9491              	.LASF166:
 9492 0f1b 4F535F45 		.ascii	"OS_ERR_NONE\000"
 9492      52525F4E 
 9492      4F4E4500 
 9493              	.LASF368:
 9494 0f27 54696D65 		.ascii	"TimeQuanta\000"
 9494      5175616E 
 9494      746100
 9495              	.LASF510:
 9496 0f32 4F535F54 		.ascii	"OS_TmrDbgListRemove\000"
 9496      6D724462 
 9496      674C6973 
 9496      7452656D 
 9496      6F766500 
 9497              	.LASF449:
 9498 0f46 4F534366 		.ascii	"OSCfg_IntQBasePtr\000"
 9498      675F496E 
 9498      74514261 
 9498      73655074 
 9498      7200
 9499              	.LASF455:
 9500 0f58 4F534366 		.ascii	"OSCfg_IntQTaskStkSizeRAM\000"
 9500      675F496E 
 9500      74515461 
 9500      736B5374 
 9500      6B53697A 
 9501              	.LASF156:
 9502 0f71 4F535F50 		.ascii	"OS_PRIO\000"
 9502      52494F00 
 9503              	.LASF83:
 9504 0f79 5F656D65 		.ascii	"_emergency\000"
 9504      7267656E 
 9504      637900
 9505              	.LASF12:
ARM GAS  C:\Users\EDULU~1.DES\AppData\Local\Temp\ccmSuQZN.s 			page 207


 9506 0f84 6C6F6E67 		.ascii	"long long int\000"
 9506      206C6F6E 
 9506      6720696E 
 9506      7400
 9507              	.LASF163:
 9508 0f92 4F535F54 		.ascii	"OS_TICK\000"
 9508      49434B00 
 9509              	.LASF470:
 9510 0f9a 4F534366 		.ascii	"OSCfg_TickTaskPrio\000"
 9510      675F5469 
 9510      636B5461 
 9510      736B5072 
 9510      696F00
 9511              	.LASF478:
 9512 0fad 4F534366 		.ascii	"OSCfg_TmrTaskRate_Hz\000"
 9512      675F546D 
 9512      72546173 
 9512      6B526174 
 9512      655F487A 
 9513              	.LASF101:
 9514 0fc2 5F6E696F 		.ascii	"_niobs\000"
 9514      627300
 9515              	.LASF412:
 9516 0fc9 4F535072 		.ascii	"OSPrioCur\000"
 9516      696F4375 
 9516      7200
 9517              	.LASF97:
 9518 0fd3 5F5F7367 		.ascii	"__sglue\000"
 9518      6C756500 
 9519              	.LASF127:
 9520 0fdb 5F6E6D61 		.ascii	"_nmalloc\000"
 9520      6C6C6F63 
 9520      00
 9521              	.LASF225:
 9522 0fe4 4F535F45 		.ascii	"OS_ERR_PEND_ABORT_SELF\000"
 9522      52525F50 
 9522      454E445F 
 9522      41424F52 
 9522      545F5345 
 9523              	.LASF14:
 9524 0ffb 646F7562 		.ascii	"double\000"
 9524      6C6500
 9525              	.LASF386:
 9526 1002 6F735F74 		.ascii	"os_tmr\000"
 9526      6D7200
 9527              	.LASF413:
 9528 1009 4F535072 		.ascii	"OSPrioHighRdy\000"
 9528      696F4869 
 9528      67685264 
 9528      7900
 9529              	.LASF111:
 9530 1017 5F67616D 		.ascii	"_gamma_signgam\000"
 9530      6D615F73 
 9530      69676E67 
 9530      616D00
 9531              	.LASF381:
 9532 1026 6F735F74 		.ascii	"os_tick_spoke\000"
ARM GAS  C:\Users\EDULU~1.DES\AppData\Local\Temp\ccmSuQZN.s 			page 208


 9532      69636B5F 
 9532      73706F6B 
 9532      6500
 9533              	.LASF325:
 9534 1034 4F535F45 		.ascii	"OS_ERR_YIELD_ISR\000"
 9534      52525F59 
 9534      49454C44 
 9534      5F495352 
 9534      00
 9535              	.LASF268:
 9536 1045 4F535F45 		.ascii	"OS_ERR_TASK_DEL_ISR\000"
 9536      52525F54 
 9536      41534B5F 
 9536      44454C5F 
 9536      49535200 
 9537              	.LASF160:
 9538 1059 4F535F53 		.ascii	"OS_SEM_CTR\000"
 9538      454D5F43 
 9538      545200
 9539              	.LASF480:
 9540 1064 4F534366 		.ascii	"OSCfg_TmrTaskStkLimit\000"
 9540      675F546D 
 9540      72546173 
 9540      6B53746B 
 9540      4C696D69 
 9541              	.LASF466:
 9542 107a 4F534366 		.ascii	"OSCfg_StatTaskStkSize\000"
 9542      675F5374 
 9542      61745461 
 9542      736B5374 
 9542      6B53697A 
 9543              	.LASF312:
 9544 1090 4F535F45 		.ascii	"OS_ERR_TMR_INVALID\000"
 9544      52525F54 
 9544      4D525F49 
 9544      4E56414C 
 9544      494400
 9545              	.LASF91:
 9546 10a3 5F667265 		.ascii	"_freelist\000"
 9546      656C6973 
 9546      7400
 9547              	.LASF102:
 9548 10ad 5F696F62 		.ascii	"_iobs\000"
 9548      7300
 9549              	.LASF100:
 9550 10b3 5F676C75 		.ascii	"_glue\000"
 9550      6500
 9551              	.LASF416:
 9552 10b9 4F535264 		.ascii	"OSRdyList\000"
 9552      794C6973 
 9552      7400
 9553              	.LASF152:
 9554 10c3 4F535F4E 		.ascii	"OS_NESTING_CTR\000"
 9554      45535449 
 9554      4E475F43 
 9554      545200
 9555              	.LASF36:
ARM GAS  C:\Users\EDULU~1.DES\AppData\Local\Temp\ccmSuQZN.s 			page 209


 9556 10d2 5F736967 		.ascii	"_sign\000"
 9556      6E00
 9557              	.LASF254:
 9558 10d8 4F535F45 		.ascii	"OS_ERR_STAT_PRIO_INVALID\000"
 9558      52525F53 
 9558      5441545F 
 9558      5052494F 
 9558      5F494E56 
 9559              	.LASF335:
 9560 10f1 6F735F69 		.ascii	"os_int_q\000"
 9560      6E745F71 
 9560      00
 9561              	.LASF13:
 9562 10fa 666C6F61 		.ascii	"float\000"
 9562      7400
 9563              	.LASF477:
 9564 1100 4F534366 		.ascii	"OSCfg_TmrTaskPrio\000"
 9564      675F546D 
 9564      72546173 
 9564      6B507269 
 9564      6F00
 9565              	.LASF261:
 9566 1112 4F535F45 		.ascii	"OS_ERR_STK_LIMIT_INVALID\000"
 9566      52525F53 
 9566      544B5F4C 
 9566      494D4954 
 9566      5F494E56 
 9567              	.LASF18:
 9568 112b 4350555F 		.ascii	"CPU_STK_SIZE\000"
 9568      53544B5F 
 9568      53495A45 
 9568      00
 9569              	.LASF184:
 9570 1138 4F535F45 		.ascii	"OS_ERR_ILLEGAL_CREATE_RUN_TIME\000"
 9570      52525F49 
 9570      4C4C4547 
 9570      414C5F43 
 9570      52454154 
 9571              	.LASF360:
 9572 1157 5461736B 		.ascii	"TaskState\000"
 9572      53746174 
 9572      6500
 9573              	.LASF485:
 9574 1161 4F534366 		.ascii	"OSCfg_IdleTaskStk\000"
 9574      675F4964 
 9574      6C655461 
 9574      736B5374 
 9574      6B00
 9575              	.LASF410:
 9576 1173 4F53496E 		.ascii	"OSIntDisTimeMax\000"
 9576      74446973 
 9576      54696D65 
 9576      4D617800 
 9577              	.LASF10:
 9578 1183 756E7369 		.ascii	"unsigned int\000"
 9578      676E6564 
 9578      20696E74 
ARM GAS  C:\Users\EDULU~1.DES\AppData\Local\Temp\ccmSuQZN.s 			page 210


 9578      00
 9579              	.LASF402:
 9580 1190 52647954 		.ascii	"RdyTS\000"
 9580      5300
 9581              	.LASF507:
 9582 1196 705F746D 		.ascii	"p_tmr0\000"
 9582      723000
 9583              	.LASF503:
 9584 119d 705F746D 		.ascii	"p_tmr1\000"
 9584      723100
 9585              	.LASF504:
 9586 11a4 705F746D 		.ascii	"p_tmr2\000"
 9586      723200
 9587              	.LASF309:
 9588 11ab 4F535F45 		.ascii	"OS_ERR_TMR_INVALID_DLY\000"
 9588      52525F54 
 9588      4D525F49 
 9588      4E56414C 
 9588      49445F44 
 9589              	.LASF144:
 9590 11c2 4350555F 		.ascii	"CPU_IntDisMeasMaxCur_cnts\000"
 9590      496E7444 
 9590      69734D65 
 9590      61734D61 
 9590      78437572 
 9591              	.LASF382:
 9592 11dc 46697273 		.ascii	"FirstPtr\000"
 9592      74507472 
 9592      00
 9593              	.LASF125:
 9594 11e5 5F685F65 		.ascii	"_h_errno\000"
 9594      72726E6F 
 9594      00
 9595              	.LASF496:
 9596 11ee 73706F6B 		.ascii	"spoke\000"
 9596      6500
 9597              	.LASF123:
 9598 11f4 5F776372 		.ascii	"_wcrtomb_state\000"
 9598      746F6D62 
 9598      5F737461 
 9598      746500
 9599              	.LASF489:
 9600 1203 4F534366 		.ascii	"OSCfg_TickWheel\000"
 9600      675F5469 
 9600      636B5768 
 9600      65656C00 
 9601              	.LASF43:
 9602 1213 5F5F746D 		.ascii	"__tm_mday\000"
 9602      5F6D6461 
 9602      7900
 9603              	.LASF94:
 9604 121d 5F6E6577 		.ascii	"_new\000"
 9604      00
 9605              	.LASF151:
 9606 1222 4F535F4D 		.ascii	"OS_MSG_SIZE\000"
 9606      53475F53 
 9606      495A4500 
ARM GAS  C:\Users\EDULU~1.DES\AppData\Local\Temp\ccmSuQZN.s 			page 211


 9607              	.LASF69:
 9608 122e 5F756275 		.ascii	"_ubuf\000"
 9608      6600
 9609              	.LASF201:
 9610 1234 4F535F45 		.ascii	"OS_ERR_MEM_INVALID_P_MEM\000"
 9610      52525F4D 
 9610      454D5F49 
 9610      4E56414C 
 9610      49445F50 
 9611              	.LASF81:
 9612 124d 5F737464 		.ascii	"_stderr\000"
 9612      65727200 
 9613              	.LASF506:
 9614 1255 4F535F54 		.ascii	"OS_TmrLink\000"
 9614      6D724C69 
 9614      6E6B00
 9615              	.LASF116:
 9616 1260 5F776374 		.ascii	"_wctomb_state\000"
 9616      6F6D625F 
 9616      73746174 
 9616      6500
 9617              	.LASF219:
 9618 126e 4F535F45 		.ascii	"OS_ERR_OS_NOT_RUNNING\000"
 9618      52525F4F 
 9618      535F4E4F 
 9618      545F5255 
 9618      4E4E494E 
 9619              	.LASF75:
 9620 1284 5F6D6273 		.ascii	"_mbstate\000"
 9620      74617465 
 9620      00
 9621              	.LASF138:
 9622 128d 4350555F 		.ascii	"CPU_TS_TmrFreq_Hz\000"
 9622      54535F54 
 9622      6D724672 
 9622      65715F48 
 9622      7A00
 9623              	.LASF112:
 9624 129f 5F72616E 		.ascii	"_rand_next\000"
 9624      645F6E65 
 9624      787400
 9625              	.LASF460:
 9626 12aa 4F534366 		.ascii	"OSCfg_MsgPoolSizeRAM\000"
 9626      675F4D73 
 9626      67506F6F 
 9626      6C53697A 
 9626      6552414D 
 9627              	.LASF61:
 9628 12bf 5F666C61 		.ascii	"_flags\000"
 9628      677300
 9629              	.LASF338:
 9630 12c6 54797065 		.ascii	"Type\000"
 9630      00
 9631              	.LASF418:
 9632 12cb 4F535365 		.ascii	"OSSemDbgListPtr\000"
 9632      6D446267 
 9632      4C697374 
ARM GAS  C:\Users\EDULU~1.DES\AppData\Local\Temp\ccmSuQZN.s 			page 212


 9632      50747200 
 9633              	.LASF259:
 9634 12db 4F535F45 		.ascii	"OS_ERR_STK_INVALID\000"
 9634      52525F53 
 9634      544B5F49 
 9634      4E56414C 
 9634      494400
 9635              	.LASF54:
 9636 12ee 5F617465 		.ascii	"_atexit\000"
 9636      78697400 
 9637              	.LASF495:
 9638 12f6 705F746D 		.ascii	"p_tmr_next\000"
 9638      725F6E65 
 9638      787400
 9639              	.LASF437:
 9640 1301 4F53546D 		.ascii	"OSTmrQty\000"
 9640      72517479 
 9640      00
 9641              	.LASF438:
 9642 130a 4F53546D 		.ascii	"OSTmrTaskTCB\000"
 9642      72546173 
 9642      6B544342 
 9642      00
 9643              	.LASF511:
 9644 1317 705F746D 		.ascii	"p_tmr_prev\000"
 9644      725F7072 
 9644      657600
 9645              	.LASF29:
 9646 1322 5F5F636F 		.ascii	"__count\000"
 9646      756E7400 
 9647              	.LASF230:
 9648 132a 4F535F45 		.ascii	"OS_ERR_POST_NULL_PTR\000"
 9648      52525F50 
 9648      4F53545F 
 9648      4E554C4C 
 9648      5F505452 
 9649              	.LASF246:
 9650 133f 4F535F45 		.ascii	"OS_ERR_SCHED_INVALID_TIME_SLICE\000"
 9650      52525F53 
 9650      43484544 
 9650      5F494E56 
 9650      414C4944 
 9651              	.LASF211:
 9652 135f 4F535F45 		.ascii	"OS_ERR_NAME\000"
 9652      52525F4E 
 9652      414D4500 
 9653              	.LASF220:
 9654 136b 4F535F45 		.ascii	"OS_ERR_OS_RUNNING\000"
 9654      52525F4F 
 9654      535F5255 
 9654      4E4E494E 
 9654      4700
 9655              	.LASF162:
 9656 137d 4F535F53 		.ascii	"OS_STATUS\000"
 9656      54415455 
 9656      5300
 9657              	.LASF433:
ARM GAS  C:\Users\EDULU~1.DES\AppData\Local\Temp\ccmSuQZN.s 			page 213


 9658 1387 4F535469 		.ascii	"OSTickCtr\000"
 9658      636B4374 
 9658      7200
 9659              	.LASF46:
 9660 1391 5F5F746D 		.ascii	"__tm_wday\000"
 9660      5F776461 
 9660      7900
 9661              	.LASF401:
 9662 139b 5264794D 		.ascii	"RdyMsgSize\000"
 9662      73675369 
 9662      7A6500
 9663              	.LASF366:
 9664 13a6 5469636B 		.ascii	"TickCtrMatch\000"
 9664      4374724D 
 9664      61746368 
 9664      00
 9665              	.LASF228:
 9666 13b3 4F535F45 		.ascii	"OS_ERR_PEND_LOCKED\000"
 9666      52525F50 
 9666      454E445F 
 9666      4C4F434B 
 9666      454400
 9667              	.LASF22:
 9668 13c6 6C6F6E67 		.ascii	"long double\000"
 9668      20646F75 
 9668      626C6500 
 9669              	.LASF47:
 9670 13d2 5F5F746D 		.ascii	"__tm_yday\000"
 9670      5F796461 
 9670      7900
 9671              	.LASF448:
 9672 13dc 4F534366 		.ascii	"OSCfg_IdleTaskStkSizeRAM\000"
 9672      675F4964 
 9672      6C655461 
 9672      736B5374 
 9672      6B53697A 
 9673              	.LASF252:
 9674 13f5 4F535F45 		.ascii	"OS_ERR_SET_ISR\000"
 9674      52525F53 
 9674      45545F49 
 9674      535200
 9675              	.LASF355:
 9676 1404 5461736B 		.ascii	"TaskEntryAddr\000"
 9676      456E7472 
 9676      79416464 
 9676      7200
 9677              	.LASF539:
 9678 1412 6F735F65 		.ascii	"os_err\000"
 9678      727200
 9679              	.LASF104:
 9680 1419 5F736565 		.ascii	"_seed\000"
 9680      6400
 9681              	.LASF67:
 9682 141f 5F736565 		.ascii	"_seek\000"
 9682      6B00
 9683              	.LASF281:
 9684 1425 4F535F45 		.ascii	"OS_ERR_TASK_SUSPEND_IDLE\000"
ARM GAS  C:\Users\EDULU~1.DES\AppData\Local\Temp\ccmSuQZN.s 			page 214


 9684      52525F54 
 9684      41534B5F 
 9684      53555350 
 9684      454E445F 
 9685              	.LASF459:
 9686 143e 4F534366 		.ascii	"OSCfg_MsgPoolSize\000"
 9686      675F4D73 
 9686      67506F6F 
 9686      6C53697A 
 9686      6500
 9687              	.LASF265:
 9688 1450 4F535F45 		.ascii	"OS_ERR_TASK_DEL\000"
 9688      52525F54 
 9688      41534B5F 
 9688      44454C00 
 9689              	.LASF406:
 9690 1460 6F735F70 		.ascii	"os_pend_obj\000"
 9690      656E645F 
 9690      6F626A00 
 9691              	.LASF25:
 9692 146c 5F66706F 		.ascii	"_fpos_t\000"
 9692      735F7400 
 9693              	.LASF272:
 9694 1474 4F535F45 		.ascii	"OS_ERR_TASK_NOT_EXIST\000"
 9694      52525F54 
 9694      41534B5F 
 9694      4E4F545F 
 9694      45584953 
 9695              	.LASF28:
 9696 148a 5F5F7763 		.ascii	"__wchb\000"
 9696      686200
 9697              	.LASF383:
 9698 1491 4E627245 		.ascii	"NbrEntriesMax\000"
 9698      6E747269 
 9698      65734D61 
 9698      7800
 9699              	.LASF209:
 9700 149f 4F535F45 		.ascii	"OS_ERR_MUTEX_NESTING\000"
 9700      52525F4D 
 9700      55544558 
 9700      5F4E4553 
 9700      54494E47 
 9701              	.LASF115:
 9702 14b4 5F6D6274 		.ascii	"_mbtowc_state\000"
 9702      6F77635F 
 9702      73746174 
 9702      6500
 9703              	.LASF226:
 9704 14c2 4F535F45 		.ascii	"OS_ERR_PEND_DEL\000"
 9704      52525F50 
 9704      454E445F 
 9704      44454C00 
 9705              	.LASF200:
 9706 14d2 4F535F45 		.ascii	"OS_ERR_MEM_INVALID_P_BLK\000"
 9706      52525F4D 
 9706      454D5F49 
 9706      4E56414C 
ARM GAS  C:\Users\EDULU~1.DES\AppData\Local\Temp\ccmSuQZN.s 			page 215


 9706      49445F50 
 9707              	.LASF180:
 9708 14eb 4F535F45 		.ascii	"OS_ERR_FLUSH_ISR\000"
 9708      52525F46 
 9708      4C555348 
 9708      5F495352 
 9708      00
 9709              	.LASF142:
 9710 14fc 4350555F 		.ascii	"CPU_IntDisMeasStop_cnts\000"
 9710      496E7444 
 9710      69734D65 
 9710      61735374 
 9710      6F705F63 
 9711              	.LASF500:
 9712 1514 4F535F54 		.ascii	"OS_TmrUnlink\000"
 9712      6D72556E 
 9712      6C696E6B 
 9712      00
 9713              	.LASF399:
 9714 1521 5264794F 		.ascii	"RdyObjPtr\000"
 9714      626A5074 
 9714      7200
 9715              	.LASF237:
 9716 152b 4F535F45 		.ascii	"OS_ERR_Q_FULL\000"
 9716      52525F51 
 9716      5F46554C 
 9716      4C00
 9717              	.LASF11:
 9718 1539 6C6F6E67 		.ascii	"long long unsigned int\000"
 9718      206C6F6E 
 9718      6720756E 
 9718      7369676E 
 9718      65642069 
 9719              	.LASF277:
 9720 1550 4F535F45 		.ascii	"OS_ERR_TASK_RESUME_SELF\000"
 9720      52525F54 
 9720      41534B5F 
 9720      52455355 
 9720      4D455F53 
 9721              	.LASF491:
 9722 1568 4F534366 		.ascii	"OSCfg_TmrWheel\000"
 9722      675F546D 
 9722      72576865 
 9722      656C00
 9723              	.LASF314:
 9724 1577 4F535F45 		.ascii	"OS_ERR_TMR_NO_CALLBACK\000"
 9724      52525F54 
 9724      4D525F4E 
 9724      4F5F4341 
 9724      4C4C4241 
 9725              	.LASF235:
 9726 158e 4F535F45 		.ascii	"OS_ERR_PTR_INVALID\000"
 9726      52525F50 
 9726      54525F49 
 9726      4E56414C 
 9726      494400
 9727              	.LASF135:
ARM GAS  C:\Users\EDULU~1.DES\AppData\Local\Temp\ccmSuQZN.s 			page 216


 9728 15a1 4350555F 		.ascii	"CPU_TS_TMR\000"
 9728      54535F54 
 9728      4D5200
 9729              	.LASF276:
 9730 15ac 4F535F45 		.ascii	"OS_ERR_TASK_RESUME_PRIO\000"
 9730      52525F54 
 9730      41534B5F 
 9730      52455355 
 9730      4D455F50 
 9731              	.LASF51:
 9732 15c4 5F64736F 		.ascii	"_dso_handle\000"
 9732      5F68616E 
 9732      646C6500 
 9733              	.LASF417:
 9734 15d0 4F535363 		.ascii	"OSSchedLockNestingCtr\000"
 9734      6865644C 
 9734      6F636B4E 
 9734      65737469 
 9734      6E674374 
 9735              	.LASF103:
 9736 15e6 5F72616E 		.ascii	"_rand48\000"
 9736      64343800 
 9737              	.LASF139:
 9738 15ee 4350555F 		.ascii	"CPU_IntDisMeasCtr\000"
 9738      496E7444 
 9738      69734D65 
 9738      61734374 
 9738      7200
 9739              	.LASF80:
 9740 1600 5F737464 		.ascii	"_stdout\000"
 9740      6F757400 
 9741              	.LASF394:
 9742 1608 6F735F74 		.ascii	"os_tmr_spoke\000"
 9742      6D725F73 
 9742      706F6B65 
 9742      00
 9743              	.LASF419:
 9744 1615 4F535365 		.ascii	"OSSemQty\000"
 9744      6D517479 
 9744      00
 9745              	.LASF318:
 9746 161e 4F535F45 		.ascii	"OS_ERR_TMR_STK_SIZE_INVALID\000"
 9746      52525F54 
 9746      4D525F53 
 9746      544B5F53 
 9746      495A455F 
 9747              	.LASF202:
 9748 163a 4F535F45 		.ascii	"OS_ERR_MEM_INVALID_P_DATA\000"
 9748      52525F4D 
 9748      454D5F49 
 9748      4E56414C 
 9748      49445F50 
 9749              	.LASF71:
 9750 1654 5F626C6B 		.ascii	"_blksize\000"
 9750      73697A65 
 9750      00
 9751              	.LASF157:
ARM GAS  C:\Users\EDULU~1.DES\AppData\Local\Temp\ccmSuQZN.s 			page 217


 9752 165d 4F535F52 		.ascii	"OS_RATE_HZ\000"
 9752      4154455F 
 9752      485A00
 9753              	.LASF536:
 9754 1668 474E5520 		.ascii	"GNU C17 8.2.1 20181213 (release) [gcc-8-branch revi"
 9754      43313720 
 9754      382E322E 
 9754      31203230 
 9754      31383132 
 9755 169b 73696F6E 		.ascii	"sion 267074] -mcpu=cortex-m0 -mthumb -mfloat-abi=so"
 9755      20323637 
 9755      3037345D 
 9755      202D6D63 
 9755      70753D63 
 9756 16ce 6674202D 		.ascii	"ft -march=armv6s-m -g -Og -ffunction-sections -ffat"
 9756      6D617263 
 9756      683D6172 
 9756      6D763673 
 9756      2D6D202D 
 9757 1701 2D6C746F 		.ascii	"-lto-objects\000"
 9757      2D6F626A 
 9757      65637473 
 9757      00
 9758              	.LASF234:
 9759 170e 4F535F45 		.ascii	"OS_ERR_PRIO_INVALID\000"
 9759      52525F50 
 9759      52494F5F 
 9759      494E5641 
 9759      4C494400 
 9760              	.LASF358:
 9761 1722 50656E64 		.ascii	"PendOn\000"
 9761      4F6E00
 9762              	.LASF164:
 9763 1729 4F535F54 		.ascii	"OS_TMR_SPOKE_IX\000"
 9763      4D525F53 
 9763      504F4B45 
 9763      5F495800 
 9764              	.LASF137:
 9765 1739 4350555F 		.ascii	"CPU_Name\000"
 9765      4E616D65 
 9765      00
 9766              	.LASF242:
 9767 1742 4F535F45 		.ascii	"OS_ERR_REG_ID_INVALID\000"
 9767      52525F52 
 9767      45475F49 
 9767      445F494E 
 9767      56414C49 
 9768              	.LASF108:
 9769 1758 5F737472 		.ascii	"_strtok_last\000"
 9769      746F6B5F 
 9769      6C617374 
 9769      00
 9770              	.LASF58:
 9771 1765 5F626173 		.ascii	"_base\000"
 9771      6500
 9772              	.LASF121:
 9773 176b 5F6D6272 		.ascii	"_mbrtowc_state\000"
ARM GAS  C:\Users\EDULU~1.DES\AppData\Local\Temp\ccmSuQZN.s 			page 218


 9773      746F7763 
 9773      5F737461 
 9773      746500
 9774              	.LASF380:
 9775 177a 4F535F54 		.ascii	"OS_TICK_SPOKE\000"
 9775      49434B5F 
 9775      53504F4B 
 9775      4500
 9776              	.LASF374:
 9777 1788 496E7444 		.ascii	"IntDisTimeMax\000"
 9777      69735469 
 9777      6D654D61 
 9777      7800
 9778              	.LASF32:
 9779 1796 5F666C6F 		.ascii	"_flock_t\000"
 9779      636B5F74 
 9779      00
 9780              	.LASF525:
 9781 179f 70657269 		.ascii	"period\000"
 9781      6F6400
 9782              	.LASF203:
 9783 17a6 4F535F45 		.ascii	"OS_ERR_MEM_INVALID_SIZE\000"
 9783      52525F4D 
 9783      454D5F49 
 9783      4E56414C 
 9783      49445F53 
 9784              	.LASF99:
 9785 17be 5F5F4649 		.ascii	"__FILE\000"
 9785      4C4500
 9786              	.LASF267:
 9787 17c5 4F535F45 		.ascii	"OS_ERR_TASK_DEL_INVALID\000"
 9787      52525F54 
 9787      41534B5F 
 9787      44454C5F 
 9787      494E5641 
 9788              	.LASF414:
 9789 17dd 4F535072 		.ascii	"OSPrioSaved\000"
 9789      696F5361 
 9789      76656400 
 9790              	.LASF16:
 9791 17e9 4350555F 		.ascii	"CPU_DATA\000"
 9791      44415441 
 9791      00
 9792              	.LASF31:
 9793 17f2 5F6D6273 		.ascii	"_mbstate_t\000"
 9793      74617465 
 9793      5F7400
 9794              	.LASF471:
 9795 17fd 4F534366 		.ascii	"OSCfg_TickTaskStkBasePtr\000"
 9795      675F5469 
 9795      636B5461 
 9795      736B5374 
 9795      6B426173 
 9796              	.LASF356:
 9797 1816 5461736B 		.ascii	"TaskEntryArg\000"
 9797      456E7472 
 9797      79417267 
ARM GAS  C:\Users\EDULU~1.DES\AppData\Local\Temp\ccmSuQZN.s 			page 219


 9797      00
 9798              	.LASF187:
 9799 1823 4F535F45 		.ascii	"OS_ERR_INT_Q_SIZE\000"
 9799      52525F49 
 9799      4E545F51 
 9799      5F53495A 
 9799      4500
 9800              	.LASF113:
 9801 1835 5F723438 		.ascii	"_r48\000"
 9801      00
 9802              	.LASF429:
 9803 183a 4F535461 		.ascii	"OSTaskCtxSwCtr\000"
 9803      736B4374 
 9803      78537743 
 9803      747200
 9804              	.LASF26:
 9805 1849 77696E74 		.ascii	"wint_t\000"
 9805      5F7400
 9806              	.LASF469:
 9807 1850 4F534366 		.ascii	"OSCfg_TickRate_Hz\000"
 9807      675F5469 
 9807      636B5261 
 9807      74655F48 
 9807      7A00
 9808              	.LASF34:
 9809 1862 5F6E6578 		.ascii	"_next\000"
 9809      7400
 9810              	.LASF73:
 9811 1868 5F646174 		.ascii	"_data\000"
 9811      6100
 9812              	.LASF428:
 9813 186e 4F535374 		.ascii	"OSStatTaskTimeMax\000"
 9813      61745461 
 9813      736B5469 
 9813      6D654D61 
 9813      7800
 9814              	.LASF350:
 9815 1880 50726576 		.ascii	"PrevPtr\000"
 9815      50747200 
 9816              	.LASF353:
 9817 1888 5469636B 		.ascii	"TickSpokePtr\000"
 9817      53706F6B 
 9817      65507472 
 9817      00
 9818              	.LASF502:
 9819 1895 705F7370 		.ascii	"p_spoke\000"
 9819      6F6B6500 
 9820              	.LASF258:
 9821 189d 4F535F45 		.ascii	"OS_ERR_STATUS_INVALID\000"
 9821      52525F53 
 9821      54415455 
 9821      535F494E 
 9821      56414C49 
 9822              	.LASF473:
 9823 18b3 4F534366 		.ascii	"OSCfg_TickTaskStkSize\000"
 9823      675F5469 
 9823      636B5461 
ARM GAS  C:\Users\EDULU~1.DES\AppData\Local\Temp\ccmSuQZN.s 			page 220


 9823      736B5374 
 9823      6B53697A 
 9824              	.LASF193:
 9825 18c9 4F535F45 		.ascii	"OS_ERR_LOCK_NESTING_OVF\000"
 9825      52525F4C 
 9825      4F434B5F 
 9825      4E455354 
 9825      494E475F 
 9826              	.LASF140:
 9827 18e1 4350555F 		.ascii	"CPU_IntDisNestCtr\000"
 9827      496E7444 
 9827      69734E65 
 9827      73744374 
 9827      7200
 9828              	.LASF513:
 9829 18f3 4F535F54 		.ascii	"OS_TmrClr\000"
 9829      6D72436C 
 9829      7200
 9830              	.LASF282:
 9831 18fd 4F535F45 		.ascii	"OS_ERR_TASK_SUSPEND_INT_HANDLER\000"
 9831      52525F54 
 9831      41534B5F 
 9831      53555350 
 9831      454E445F 
 9832              	.LASF452:
 9833 191d 4F534366 		.ascii	"OSCfg_IntQTaskStkBasePtr\000"
 9833      675F496E 
 9833      74515461 
 9833      736B5374 
 9833      6B426173 
 9834              	.LASF302:
 9835 1936 4F535F45 		.ascii	"OS_ERR_TIME_INVALID_MILLISECONDS\000"
 9835      52525F54 
 9835      494D455F 
 9835      494E5641 
 9835      4C49445F 
 9836              	.LASF141:
 9837 1957 4350555F 		.ascii	"CPU_IntDisMeasStart_cnts\000"
 9837      496E7444 
 9837      69734D65 
 9837      61735374 
 9837      6172745F 
 9838              	.LASF328:
 9839 1970 4F535F4D 		.ascii	"OS_MSG\000"
 9839      534700
 9840              	.LASF330:
 9841 1977 4E657874 		.ascii	"NextPtr\000"
 9841      50747200 
 9842              	.LASF229:
 9843 197f 4F535F45 		.ascii	"OS_ERR_PEND_WOULD_BLOCK\000"
 9843      52525F50 
 9843      454E445F 
 9843      574F554C 
 9843      445F424C 
 9844              	.LASF398:
 9845 1997 50656E64 		.ascii	"PendObjPtr\000"
 9845      4F626A50 
ARM GAS  C:\Users\EDULU~1.DES\AppData\Local\Temp\ccmSuQZN.s 			page 221


 9845      747200
 9846              	.LASF434:
 9847 19a2 4F535469 		.ascii	"OSTickTaskTCB\000"
 9847      636B5461 
 9847      736B5443 
 9847      4200
 9848              	.LASF456:
 9849 19b0 4F534366 		.ascii	"OSCfg_ISRStkBasePtr\000"
 9849      675F4953 
 9849      5253746B 
 9849      42617365 
 9849      50747200 
 9850              	.LASF408:
 9851 19c4 4F534964 		.ascii	"OSIdleTaskTCB\000"
 9851      6C655461 
 9851      736B5443 
 9851      4200
 9852              	.LASF532:
 9853 19d2 4350555F 		.ascii	"CPU_SR_Save\000"
 9853      53525F53 
 9853      61766500 
 9854              	.LASF114:
 9855 19de 5F6D626C 		.ascii	"_mblen_state\000"
 9855      656E5F73 
 9855      74617465 
 9855      00
 9856              	.LASF372:
 9857 19eb 53746B55 		.ascii	"StkUsed\000"
 9857      73656400 
 9858              	.LASF8:
 9859 19f3 73686F72 		.ascii	"short int\000"
 9859      7420696E 
 9859      7400
 9860              	.LASF339:
 9861 19fd 4E616D65 		.ascii	"NamePtr\000"
 9861      50747200 
 9862              	.LASF147:
 9863 1a05 4F535F43 		.ascii	"OS_CTR\000"
 9863      545200
 9864              	.LASF173:
 9865 1a0c 4F535F45 		.ascii	"OS_ERR_DEL_ISR\000"
 9865      52525F44 
 9865      454C5F49 
 9865      535200
 9866              	.LASF238:
 9867 1a1b 4F535F45 		.ascii	"OS_ERR_Q_EMPTY\000"
 9867      52525F51 
 9867      5F454D50 
 9867      545900
 9868              	.LASF457:
 9869 1a2a 4F534366 		.ascii	"OSCfg_ISRStkSize\000"
 9869      675F4953 
 9869      5253746B 
 9869      53697A65 
 9869      00
 9870              	.LASF426:
 9871 1a3b 4F535374 		.ascii	"OSStatTaskRdy\000"
ARM GAS  C:\Users\EDULU~1.DES\AppData\Local\Temp\ccmSuQZN.s 			page 222


 9871      61745461 
 9871      736B5264 
 9871      7900
 9872              	.LASF52:
 9873 1a49 5F666E74 		.ascii	"_fntypes\000"
 9873      79706573 
 9873      00
 9874              	.LASF431:
 9875 1a52 4F535461 		.ascii	"OSTaskQty\000"
 9875      736B5174 
 9875      7900
 9876              	.LASF45:
 9877 1a5c 5F5F746D 		.ascii	"__tm_year\000"
 9877      5F796561 
 9877      7200
 9878              	.LASF253:
 9879 1a66 4F535F45 		.ascii	"OS_ERR_STAT_RESET_ISR\000"
 9879      52525F53 
 9879      5441545F 
 9879      52455345 
 9879      545F4953 
 9880              	.LASF269:
 9881 1a7c 4F535F45 		.ascii	"OS_ERR_TASK_INVALID\000"
 9881      52525F54 
 9881      41534B5F 
 9881      494E5641 
 9881      4C494400 
 9882              	.LASF307:
 9883 1a90 4F535F45 		.ascii	"OS_ERR_TMR_INACTIVE\000"
 9883      52525F54 
 9883      4D525F49 
 9883      4E414354 
 9883      49564500 
 9884              	.LASF391:
 9885 1aa4 50657269 		.ascii	"Period\000"
 9885      6F6400
 9886              	.LASF379:
 9887 1aab 4E627245 		.ascii	"NbrEntries\000"
 9887      6E747269 
 9887      657300
 9888              	.LASF232:
 9889 1ab6 4F535F45 		.ascii	"OS_ERR_PRIO_EXIST\000"
 9889      52525F50 
 9889      52494F5F 
 9889      45584953 
 9889      5400
 9890              	.LASF332:
 9891 1ac8 4D736753 		.ascii	"MsgSize\000"
 9891      697A6500 
 9892              	.LASF393:
 9893 1ad0 4F535F54 		.ascii	"OS_TMR_SPOKE\000"
 9893      4D525F53 
 9893      504F4B45 
 9893      00
 9894              	.LASF310:
 9895 1add 4F535F45 		.ascii	"OS_ERR_TMR_INVALID_PERIOD\000"
 9895      52525F54 
ARM GAS  C:\Users\EDULU~1.DES\AppData\Local\Temp\ccmSuQZN.s 			page 223


 9895      4D525F49 
 9895      4E56414C 
 9895      49445F50 
 9896              	.LASF63:
 9897 1af7 5F6C6266 		.ascii	"_lbfsize\000"
 9897      73697A65 
 9897      00
 9898              	.LASF359:
 9899 1b00 50656E64 		.ascii	"PendStatus\000"
 9899      53746174 
 9899      757300
 9900              	.LASF82:
 9901 1b0b 5F696E63 		.ascii	"_inc\000"
 9901      00
 9902              	.LASF55:
 9903 1b10 5F696E64 		.ascii	"_ind\000"
 9903      00
 9904              	.LASF285:
 9905 1b15 4F535F45 		.ascii	"OS_ERR_TASK_WAITING\000"
 9905      52525F54 
 9905      41534B5F 
 9905      57414954 
 9905      494E4700 
 9906              	.LASF354:
 9907 1b29 53746B42 		.ascii	"StkBasePtr\000"
 9907      61736550 
 9907      747200
 9908              	.LASF440:
 9909 1b34 4F53546D 		.ascii	"OSTmrTickCtr\000"
 9909      72546963 
 9909      6B437472 
 9909      00
 9910              	.LASF57:
 9911 1b41 5F5F7362 		.ascii	"__sbuf\000"
 9911      756600
 9912              	.LASF53:
 9913 1b48 5F69735F 		.ascii	"_is_cxa\000"
 9913      63786100 
 9914              	.LASF23:
 9915 1b50 5F4C4F43 		.ascii	"_LOCK_T\000"
 9915      4B5F5400 
 9916              	.LASF342:
 9917 1b58 4462674E 		.ascii	"DbgNextPtr\000"
 9917      65787450 
 9917      747200
 9918              	.LASF126:
 9919 1b63 5F6E6578 		.ascii	"_nextf\000"
 9919      746600
 9920              	.LASF218:
 9921 1b6a 4F535F45 		.ascii	"OS_ERR_OPT_INVALID\000"
 9921      52525F4F 
 9921      50545F49 
 9921      4E56414C 
 9921      494400
 9922              	.LASF179:
 9923 1b7d 4F535F45 		.ascii	"OS_ERR_FLAG_PEND_OPT\000"
 9923      52525F46 
ARM GAS  C:\Users\EDULU~1.DES\AppData\Local\Temp\ccmSuQZN.s 			page 224


 9923      4C41475F 
 9923      50454E44 
 9923      5F4F5054 
 9924              	.LASF206:
 9925 1b92 4F535F45 		.ascii	"OS_ERR_MSG_POOL_NULL_PTR\000"
 9925      52525F4D 
 9925      53475F50 
 9925      4F4F4C5F 
 9925      4E554C4C 
 9926              	.LASF533:
 9927 1bab 4350555F 		.ascii	"CPU_IntDisMeasStart\000"
 9927      496E7444 
 9927      69734D65 
 9927      61735374 
 9927      61727400 
 9928              	.LASF344:
 9929 1bbf 4F535F54 		.ascii	"OS_TASK_PTR\000"
 9929      41534B5F 
 9929      50545200 
 9930              	.LASF446:
 9931 1bcb 4F534366 		.ascii	"OSCfg_IdleTaskStkLimit\000"
 9931      675F4964 
 9931      6C655461 
 9931      736B5374 
 9931      6B4C696D 
 9932              	.LASF501:
 9933 1be2 705F6172 		.ascii	"p_arg\000"
 9933      6700
 9934              	.LASF439:
 9935 1be8 4F53546D 		.ascii	"OSTmrTaskTimeMax\000"
 9935      72546173 
 9935      6B54696D 
 9935      654D6178 
 9935      00
 9936              	.LASF150:
 9937 1bf9 4F535F4D 		.ascii	"OS_MSG_QTY\000"
 9937      53475F51 
 9937      545900
 9938              	.LASF239:
 9939 1c04 4F535F45 		.ascii	"OS_ERR_Q_MAX\000"
 9939      52525F51 
 9939      5F4D4158 
 9939      00
 9940              	.LASF85:
 9941 1c11 5F6C6F63 		.ascii	"_locale\000"
 9941      616C6500 
 9942              	.LASF33:
 9943 1c19 5F5F554C 		.ascii	"__ULong\000"
 9943      6F6E6700 
 9944              	.LASF4:
 9945 1c21 4350555F 		.ascii	"CPU_INT08U\000"
 9945      494E5430 
 9945      385500
 9946              	.LASF88:
 9947 1c2c 5F726573 		.ascii	"_result\000"
 9947      756C7400 
 9948              	.LASF461:
ARM GAS  C:\Users\EDULU~1.DES\AppData\Local\Temp\ccmSuQZN.s 			page 225


 9949 1c34 4F534366 		.ascii	"OSCfg_MsgPoolBasePtr\000"
 9949      675F4D73 
 9949      67506F6F 
 9949      6C426173 
 9949      65507472 
 9950              	.LASF313:
 9951 1c49 4F535F45 		.ascii	"OS_ERR_TMR_ISR\000"
 9951      52525F54 
 9951      4D525F49 
 9951      535200
 9952              	.LASF244:
 9953 1c58 4F535F45 		.ascii	"OS_ERR_ROUND_ROBIN_DISABLED\000"
 9953      52525F52 
 9953      4F554E44 
 9953      5F524F42 
 9953      494E5F44 
 9954              	.LASF293:
 9955 1c74 4F535F45 		.ascii	"OS_ERR_TICK_STK_INVALID\000"
 9955      52525F54 
 9955      49434B5F 
 9955      53544B5F 
 9955      494E5641 
 9956              	.LASF304:
 9957 1c8c 4F535F45 		.ascii	"OS_ERR_TIME_SET_ISR\000"
 9957      52525F54 
 9957      494D455F 
 9957      5345545F 
 9957      49535200 
 9958              	.LASF216:
 9959 1ca0 4F535F45 		.ascii	"OS_ERR_OBJ_PTR_NULL\000"
 9959      52525F4F 
 9959      424A5F50 
 9959      54525F4E 
 9959      554C4C00 
 9960              	.LASF295:
 9961 1cb4 4F535F45 		.ascii	"OS_ERR_TICK_WHEEL_SIZE\000"
 9961      52525F54 
 9961      49434B5F 
 9961      57484545 
 9961      4C5F5349 
 9962              	.LASF296:
 9963 1ccb 4F535F45 		.ascii	"OS_ERR_TIME_DLY_ISR\000"
 9963      52525F54 
 9963      494D455F 
 9963      444C595F 
 9963      49535200 
 9964              	.LASF24:
 9965 1cdf 5F6F6666 		.ascii	"_off_t\000"
 9965      5F7400
 9966              	.LASF498:
 9967 1ce6 74735F65 		.ascii	"ts_end\000"
 9967      6E6400
 9968              	.LASF404:
 9969 1ced 6F735F70 		.ascii	"os_pend_list\000"
 9969      656E645F 
 9969      6C697374 
 9969      00
ARM GAS  C:\Users\EDULU~1.DES\AppData\Local\Temp\ccmSuQZN.s 			page 226


 9970              	.LASF411:
 9971 1cfa 4F535275 		.ascii	"OSRunning\000"
 9971      6E6E696E 
 9971      6700
 9972              	.LASF472:
 9973 1d04 4F534366 		.ascii	"OSCfg_TickTaskStkLimit\000"
 9973      675F5469 
 9973      636B5461 
 9973      736B5374 
 9973      6B4C696D 
 9974              	.LASF106:
 9975 1d1b 5F616464 		.ascii	"_add\000"
 9975      00
 9976              	.LASF284:
 9977 1d20 4F535F45 		.ascii	"OS_ERR_TASK_SUSPEND_PRIO\000"
 9977      52525F54 
 9977      41534B5F 
 9977      53555350 
 9977      454E445F 
 9978              	.LASF474:
 9979 1d39 4F534366 		.ascii	"OSCfg_TickTaskStkSizeRAM\000"
 9979      675F5469 
 9979      636B5461 
 9979      736B5374 
 9979      6B53697A 
 9980              	.LASF7:
 9981 1d52 73686F72 		.ascii	"short unsigned int\000"
 9981      7420756E 
 9981      7369676E 
 9981      65642069 
 9981      6E7400
 9982              	.LASF42:
 9983 1d65 5F5F746D 		.ascii	"__tm_hour\000"
 9983      5F686F75 
 9983      7200
 9984              	.LASF290:
 9985 1d6f 4F535F45 		.ascii	"OS_ERR_TLS_NOT_EN\000"
 9985      52525F54 
 9985      4C535F4E 
 9985      4F545F45 
 9985      4E00
 9986              	.LASF266:
 9987 1d81 4F535F45 		.ascii	"OS_ERR_TASK_DEL_IDLE\000"
 9987      52525F54 
 9987      41534B5F 
 9987      44454C5F 
 9987      49444C45 
 9988              	.LASF508:
 9989 1d96 4F535F54 		.ascii	"OS_TmrInit\000"
 9989      6D72496E 
 9989      697400
 9990              	.LASF233:
 9991 1da1 4F535F45 		.ascii	"OS_ERR_PRIO\000"
 9991      52525F50 
 9991      52494F00 
 9992              	.LASF185:
 9993 1dad 4F535F45 		.ascii	"OS_ERR_INT_Q\000"
ARM GAS  C:\Users\EDULU~1.DES\AppData\Local\Temp\ccmSuQZN.s 			page 227


 9993      52525F49 
 9993      4E545F51 
 9993      00
 9994              	.LASF479:
 9995 1dba 4F534366 		.ascii	"OSCfg_TmrTaskStkBasePtr\000"
 9995      675F546D 
 9995      72546173 
 9995      6B53746B 
 9995      42617365 
 9996              	.LASF122:
 9997 1dd2 5F6D6273 		.ascii	"_mbsrtowcs_state\000"
 9997      72746F77 
 9997      63735F73 
 9997      74617465 
 9997      00
 9998              	.LASF278:
 9999 1de3 4F535F45 		.ascii	"OS_ERR_TASK_RUNNING\000"
 9999      52525F54 
 9999      41534B5F 
 9999      52554E4E 
 9999      494E4700 
 10000              	.LASF361:
 10001 1df7 5072696F 		.ascii	"Prio\000"
 10001      00
 10002              	.LASF217:
 10003 1dfc 4F535F45 		.ascii	"OS_ERR_OBJ_TYPE\000"
 10003      52525F4F 
 10003      424A5F54 
 10003      59504500 
 10004              	.LASF364:
 10005 1e0c 53656D43 		.ascii	"SemCtr\000"
 10005      747200
 10006              	.LASF263:
 10007 1e13 4F535F45 		.ascii	"OS_ERR_TASK_CHANGE_PRIO_ISR\000"
 10007      52525F54 
 10007      41534B5F 
 10007      4348414E 
 10007      47455F50 
 10008              	.LASF445:
 10009 1e2f 4F534366 		.ascii	"OSCfg_IdleTaskStkBasePtr\000"
 10009      675F4964 
 10009      6C655461 
 10009      736B5374 
 10009      6B426173 
 10010              	.LASF521:
 10011 1e48 4F53546D 		.ascii	"OSTmrRemainGet\000"
 10011      7252656D 
 10011      61696E47 
 10011      657400
 10012              	.LASF292:
 10013 1e57 4F535F45 		.ascii	"OS_ERR_TICK_PRIO_INVALID\000"
 10013      52525F54 
 10013      49434B5F 
 10013      5052494F 
 10013      5F494E56 
 10014              	.LASF375:
 10015 1e70 4F535F52 		.ascii	"OS_RDY_LIST\000"
ARM GAS  C:\Users\EDULU~1.DES\AppData\Local\Temp\ccmSuQZN.s 			page 228


 10015      44595F4C 
 10015      49535400 
 10016              	.LASF475:
 10017 1e7c 4F534366 		.ascii	"OSCfg_TickWheelSize\000"
 10017      675F5469 
 10017      636B5768 
 10017      65656C53 
 10017      697A6500 
 10018              	.LASF50:
 10019 1e90 5F666E61 		.ascii	"_fnargs\000"
 10019      72677300 
 10020              	.LASF334:
 10021 1e98 4F535F49 		.ascii	"OS_INT_Q\000"
 10021      4E545F51 
 10021      00
 10022              	.LASF48:
 10023 1ea1 5F5F746D 		.ascii	"__tm_isdst\000"
 10023      5F697364 
 10023      737400
 10024              	.LASF524:
 10025 1eac 705F6E61 		.ascii	"p_name\000"
 10025      6D6500
 10026              	.LASF430:
 10027 1eb3 4F535461 		.ascii	"OSTaskDbgListPtr\000"
 10027      736B4462 
 10027      674C6973 
 10027      74507472 
 10027      00
 10028              	.LASF336:
 10029 1ec4 4F535F53 		.ascii	"OS_SEM\000"
 10029      454D00
 10030              	.LASF425:
 10031 1ecb 4F535374 		.ascii	"OSStatTaskCtrRun\000"
 10031      61745461 
 10031      736B4374 
 10031      7252756E 
 10031      00
 10032              	.LASF41:
 10033 1edc 5F5F746D 		.ascii	"__tm_min\000"
 10033      5F6D696E 
 10033      00
 10034              	.LASF400:
 10035 1ee5 5264794D 		.ascii	"RdyMsgPtr\000"
 10035      73675074 
 10035      7200
 10036              	.LASF119:
 10037 1eef 5F676574 		.ascii	"_getdate_err\000"
 10037      64617465 
 10037      5F657272 
 10037      00
 10038              	.LASF298:
 10039 1efc 4F535F45 		.ascii	"OS_ERR_TIME_GET_ISR\000"
 10039      52525F54 
 10039      494D455F 
 10039      4745545F 
 10039      49535200 
 10040              	.LASF529:
ARM GAS  C:\Users\EDULU~1.DES\AppData\Local\Temp\ccmSuQZN.s 			page 229


 10041 1f10 4F535461 		.ascii	"OSTaskSemPend\000"
 10041      736B5365 
 10041      6D50656E 
 10041      6400
 10042              	.LASF247:
 10043 1f1e 4F535F45 		.ascii	"OS_ERR_SCHED_LOCK_ISR\000"
 10043      52525F53 
 10043      43484544 
 10043      5F4C4F43 
 10043      4B5F4953 
 10044              		.ident	"GCC: (GNU Tools for Arm Embedded Processors 8-2018-q4-major) 8.2.1 20181213 (release) [gcc
