ARM GAS  C:\Users\EDULU~1.DES\AppData\Local\Temp\ccxcKTgR.s 			page 1


   1              		.cpu cortex-m0
   2              		.eabi_attribute 20, 1
   3              		.eabi_attribute 21, 1
   4              		.eabi_attribute 23, 3
   5              		.eabi_attribute 24, 1
   6              		.eabi_attribute 25, 1
   7              		.eabi_attribute 26, 1
   8              		.eabi_attribute 30, 1
   9              		.eabi_attribute 34, 0
  10              		.eabi_attribute 18, 4
  11              		.file	"os_task.c"
  12              		.text
  13              	.Ltext0:
  14              		.cfi_sections	.debug_frame
  15              		.section	.text.OSTaskChangePrio,"ax",%progbits
  16              		.align	1
  17              		.global	OSTaskChangePrio
  18              		.arch armv6s-m
  19              		.syntax unified
  20              		.code	16
  21              		.thumb_func
  22              		.fpu softvfp
  23              		.type	OSTaskChangePrio, %function
  24              	OSTaskChangePrio:
  25              	.LVL0:
  26              	.LFB3:
  27              		.file 1 "..\\..\\..\\..\\..\\..\\Software\\uCOS-III\\Source\\os_task.c"
   1:..\..\..\..\..\..\Software\uCOS-III\Source/os_task.c **** /*
   2:..\..\..\..\..\..\Software\uCOS-III\Source/os_task.c **** ***************************************************************************************************
   3:..\..\..\..\..\..\Software\uCOS-III\Source/os_task.c **** *                                                      uC/OS-III
   4:..\..\..\..\..\..\Software\uCOS-III\Source/os_task.c **** *                                                 The Real-Time Kernel
   5:..\..\..\..\..\..\Software\uCOS-III\Source/os_task.c **** *
   6:..\..\..\..\..\..\Software\uCOS-III\Source/os_task.c **** *                                  (c) Copyright 2009-2012; Micrium, Inc.; Weston, FL
   7:..\..\..\..\..\..\Software\uCOS-III\Source/os_task.c **** *                           All rights reserved.  Protected by international copyright laws.
   8:..\..\..\..\..\..\Software\uCOS-III\Source/os_task.c **** *
   9:..\..\..\..\..\..\Software\uCOS-III\Source/os_task.c **** *                                                   TASK MANAGEMENT
  10:..\..\..\..\..\..\Software\uCOS-III\Source/os_task.c **** *
  11:..\..\..\..\..\..\Software\uCOS-III\Source/os_task.c **** * File    : OS_TASK.C
  12:..\..\..\..\..\..\Software\uCOS-III\Source/os_task.c **** * By      : JJL
  13:..\..\..\..\..\..\Software\uCOS-III\Source/os_task.c **** * Version : V3.03.01
  14:..\..\..\..\..\..\Software\uCOS-III\Source/os_task.c **** *
  15:..\..\..\..\..\..\Software\uCOS-III\Source/os_task.c **** * LICENSING TERMS:
  16:..\..\..\..\..\..\Software\uCOS-III\Source/os_task.c **** * ---------------
  17:..\..\..\..\..\..\Software\uCOS-III\Source/os_task.c **** *           uC/OS-III is provided in source form for FREE short-term evaluation, for educational us
  18:..\..\..\..\..\..\Software\uCOS-III\Source/os_task.c **** *           for peaceful research.  If you plan or intend to use uC/OS-III in a commercial applicat
  19:..\..\..\..\..\..\Software\uCOS-III\Source/os_task.c **** *           product then, you need to contact Micrium to properly license uC/OS-III for its use in 
  20:..\..\..\..\..\..\Software\uCOS-III\Source/os_task.c **** *           application/product.   We provide ALL the source code for your convenience and to help 
  21:..\..\..\..\..\..\Software\uCOS-III\Source/os_task.c **** *           experience uC/OS-III.  The fact that the source is provided does NOT mean that you can 
  22:..\..\..\..\..\..\Software\uCOS-III\Source/os_task.c **** *           it commercially without paying a licensing fee.
  23:..\..\..\..\..\..\Software\uCOS-III\Source/os_task.c **** *
  24:..\..\..\..\..\..\Software\uCOS-III\Source/os_task.c **** *           Knowledge of the source code may NOT be used to develop a similar product.
  25:..\..\..\..\..\..\Software\uCOS-III\Source/os_task.c **** *
  26:..\..\..\..\..\..\Software\uCOS-III\Source/os_task.c **** *           Please help us continue to provide the embedded community with the finest software avai
  27:..\..\..\..\..\..\Software\uCOS-III\Source/os_task.c **** *           Your honesty is greatly appreciated.
  28:..\..\..\..\..\..\Software\uCOS-III\Source/os_task.c **** *
  29:..\..\..\..\..\..\Software\uCOS-III\Source/os_task.c **** *           You can contact us at www.micrium.com, or by phone at +1 (954) 217-2036.
  30:..\..\..\..\..\..\Software\uCOS-III\Source/os_task.c **** ***************************************************************************************************
ARM GAS  C:\Users\EDULU~1.DES\AppData\Local\Temp\ccxcKTgR.s 			page 2


  31:..\..\..\..\..\..\Software\uCOS-III\Source/os_task.c **** */
  32:..\..\..\..\..\..\Software\uCOS-III\Source/os_task.c **** 
  33:..\..\..\..\..\..\Software\uCOS-III\Source/os_task.c **** #define  MICRIUM_SOURCE
  34:..\..\..\..\..\..\Software\uCOS-III\Source/os_task.c **** #include <os.h>
  35:..\..\..\..\..\..\Software\uCOS-III\Source/os_task.c **** 
  36:..\..\..\..\..\..\Software\uCOS-III\Source/os_task.c **** #ifdef VSC_INCLUDE_SOURCE_FILE_NAMES
  37:..\..\..\..\..\..\Software\uCOS-III\Source/os_task.c **** const  CPU_CHAR  *os_task__c = "$Id: $";
  38:..\..\..\..\..\..\Software\uCOS-III\Source/os_task.c **** #endif
  39:..\..\..\..\..\..\Software\uCOS-III\Source/os_task.c **** 
  40:..\..\..\..\..\..\Software\uCOS-III\Source/os_task.c **** /*
  41:..\..\..\..\..\..\Software\uCOS-III\Source/os_task.c **** ***************************************************************************************************
  42:..\..\..\..\..\..\Software\uCOS-III\Source/os_task.c **** *                                                CHANGE PRIORITY OF A TASK
  43:..\..\..\..\..\..\Software\uCOS-III\Source/os_task.c **** *
  44:..\..\..\..\..\..\Software\uCOS-III\Source/os_task.c **** * Description: This function allows you to change the priority of a task dynamically.  Note that th
  45:..\..\..\..\..\..\Software\uCOS-III\Source/os_task.c **** *              priority MUST be available.
  46:..\..\..\..\..\..\Software\uCOS-III\Source/os_task.c **** *
  47:..\..\..\..\..\..\Software\uCOS-III\Source/os_task.c **** * Arguments  : p_tcb      is the TCB of the tack to change the priority for
  48:..\..\..\..\..\..\Software\uCOS-III\Source/os_task.c **** *
  49:..\..\..\..\..\..\Software\uCOS-III\Source/os_task.c **** *              prio_new   is the new priority
  50:..\..\..\..\..\..\Software\uCOS-III\Source/os_task.c **** *
  51:..\..\..\..\..\..\Software\uCOS-III\Source/os_task.c **** *              p_err      is a pointer to an error code returned by this function:
  52:..\..\..\..\..\..\Software\uCOS-III\Source/os_task.c **** *
  53:..\..\..\..\..\..\Software\uCOS-III\Source/os_task.c **** *                             OS_ERR_NONE                 is the call was successful
  54:..\..\..\..\..\..\Software\uCOS-III\Source/os_task.c **** *                             OS_ERR_PRIO_INVALID         if the priority you specify is higher tha
  55:..\..\..\..\..\..\Software\uCOS-III\Source/os_task.c **** *                                                         (i.e. >= (OS_CFG_PRIO_MAX-1))
  56:..\..\..\..\..\..\Software\uCOS-III\Source/os_task.c **** *                             OS_ERR_STATE_INVALID        if the task is in an invalid state
  57:..\..\..\..\..\..\Software\uCOS-III\Source/os_task.c **** *                             OS_ERR_TASK_CHANGE_PRIO_ISR if you tried to change the task's priorit
  58:..\..\..\..\..\..\Software\uCOS-III\Source/os_task.c **** ***************************************************************************************************
  59:..\..\..\..\..\..\Software\uCOS-III\Source/os_task.c **** */
  60:..\..\..\..\..\..\Software\uCOS-III\Source/os_task.c **** 
  61:..\..\..\..\..\..\Software\uCOS-III\Source/os_task.c **** #if OS_CFG_TASK_CHANGE_PRIO_EN > 0u
  62:..\..\..\..\..\..\Software\uCOS-III\Source/os_task.c **** void  OSTaskChangePrio (OS_TCB   *p_tcb,
  63:..\..\..\..\..\..\Software\uCOS-III\Source/os_task.c ****                         OS_PRIO   prio_new,
  64:..\..\..\..\..\..\Software\uCOS-III\Source/os_task.c ****                         OS_ERR   *p_err)
  65:..\..\..\..\..\..\Software\uCOS-III\Source/os_task.c **** {
  28              		.loc 1 65 1 view -0
  29              		.cfi_startproc
  30              		@ args = 0, pretend = 0, frame = 8
  31              		@ frame_needed = 0, uses_anonymous_args = 0
  32              		.loc 1 65 1 is_stmt 0 view .LVU1
  33 0000 F0B5     		push	{r4, r5, r6, r7, lr}
  34              		.cfi_def_cfa_offset 20
  35              		.cfi_offset 4, -20
  36              		.cfi_offset 5, -16
  37              		.cfi_offset 6, -12
  38              		.cfi_offset 7, -8
  39              		.cfi_offset 14, -4
  40 0002 83B0     		sub	sp, sp, #12
  41              		.cfi_def_cfa_offset 32
  42 0004 0400     		movs	r4, r0
  43 0006 0D00     		movs	r5, r1
  44 0008 1600     		movs	r6, r2
  66:..\..\..\..\..\..\Software\uCOS-III\Source/os_task.c ****     CPU_BOOLEAN   self;
  45              		.loc 1 66 5 is_stmt 1 view .LVU2
  67:..\..\..\..\..\..\Software\uCOS-III\Source/os_task.c ****     CPU_SR_ALLOC();
  46              		.loc 1 67 5 view .LVU3
  47              	.LVL1:
ARM GAS  C:\Users\EDULU~1.DES\AppData\Local\Temp\ccxcKTgR.s 			page 3


  68:..\..\..\..\..\..\Software\uCOS-III\Source/os_task.c **** 
  69:..\..\..\..\..\..\Software\uCOS-III\Source/os_task.c **** 
  70:..\..\..\..\..\..\Software\uCOS-III\Source/os_task.c **** 
  71:..\..\..\..\..\..\Software\uCOS-III\Source/os_task.c **** #ifdef OS_SAFETY_CRITICAL
  72:..\..\..\..\..\..\Software\uCOS-III\Source/os_task.c ****     if (p_err == (OS_ERR *)0) {
  73:..\..\..\..\..\..\Software\uCOS-III\Source/os_task.c ****         OS_SAFETY_CRITICAL_EXCEPTION();
  74:..\..\..\..\..\..\Software\uCOS-III\Source/os_task.c ****         return;
  75:..\..\..\..\..\..\Software\uCOS-III\Source/os_task.c ****     }
  76:..\..\..\..\..\..\Software\uCOS-III\Source/os_task.c **** #endif
  77:..\..\..\..\..\..\Software\uCOS-III\Source/os_task.c **** 
  78:..\..\..\..\..\..\Software\uCOS-III\Source/os_task.c **** #if OS_CFG_CALLED_FROM_ISR_CHK_EN > 0u
  79:..\..\..\..\..\..\Software\uCOS-III\Source/os_task.c ****     if (OSIntNestingCtr > (OS_NESTING_CTR)0) {              /* ---------- CANNOT CREATE A TASK FROM
  48              		.loc 1 79 5 view .LVU4
  49              		.loc 1 79 25 is_stmt 0 view .LVU5
  50 000a 304B     		ldr	r3, .L21
  51 000c 1B78     		ldrb	r3, [r3]
  52              		.loc 1 79 8 view .LVU6
  53 000e 002B     		cmp	r3, #0
  54 0010 11D1     		bne	.L17
  80:..\..\..\..\..\..\Software\uCOS-III\Source/os_task.c ****        *p_err = OS_ERR_TASK_CHANGE_PRIO_ISR;
  81:..\..\..\..\..\..\Software\uCOS-III\Source/os_task.c ****         return;
  82:..\..\..\..\..\..\Software\uCOS-III\Source/os_task.c ****     }
  83:..\..\..\..\..\..\Software\uCOS-III\Source/os_task.c **** #endif
  84:..\..\..\..\..\..\Software\uCOS-III\Source/os_task.c **** 
  85:..\..\..\..\..\..\Software\uCOS-III\Source/os_task.c **** #if OS_CFG_ISR_POST_DEFERRED_EN > 0u
  86:..\..\..\..\..\..\Software\uCOS-III\Source/os_task.c ****     if (prio_new == 0) {                                    /* Cannot set to IntQueue Task priority
  87:..\..\..\..\..\..\Software\uCOS-III\Source/os_task.c ****        *p_err = OS_ERR_PRIO_INVALID;
  88:..\..\..\..\..\..\Software\uCOS-III\Source/os_task.c ****         return;
  89:..\..\..\..\..\..\Software\uCOS-III\Source/os_task.c ****     }
  90:..\..\..\..\..\..\Software\uCOS-III\Source/os_task.c **** #endif
  91:..\..\..\..\..\..\Software\uCOS-III\Source/os_task.c **** 
  92:..\..\..\..\..\..\Software\uCOS-III\Source/os_task.c ****     if (prio_new >= (OS_CFG_PRIO_MAX - 1u)) {               /* Cannot set to Idle Task priority    
  55              		.loc 1 92 5 is_stmt 1 view .LVU7
  56              		.loc 1 92 8 is_stmt 0 view .LVU8
  57 0012 1E29     		cmp	r1, #30
  58 0014 13D8     		bhi	.L18
  93:..\..\..\..\..\..\Software\uCOS-III\Source/os_task.c ****        *p_err = OS_ERR_PRIO_INVALID;
  94:..\..\..\..\..\..\Software\uCOS-III\Source/os_task.c ****         return;
  95:..\..\..\..\..\..\Software\uCOS-III\Source/os_task.c ****     }
  96:..\..\..\..\..\..\Software\uCOS-III\Source/os_task.c **** 
  97:..\..\..\..\..\..\Software\uCOS-III\Source/os_task.c ****     if (p_tcb == (OS_TCB *)0) {                             /* See if want to change priority of 's
  59              		.loc 1 97 5 is_stmt 1 view .LVU9
  60              		.loc 1 97 8 is_stmt 0 view .LVU10
  61 0016 0028     		cmp	r0, #0
  62 0018 14D0     		beq	.L19
  98:..\..\..\..\..\..\Software\uCOS-III\Source/os_task.c ****         CPU_CRITICAL_ENTER();
  99:..\..\..\..\..\..\Software\uCOS-III\Source/os_task.c ****         p_tcb = OSTCBCurPtr;
 100:..\..\..\..\..\..\Software\uCOS-III\Source/os_task.c ****         CPU_CRITICAL_EXIT();
 101:..\..\..\..\..\..\Software\uCOS-III\Source/os_task.c ****         self  = DEF_TRUE;
 102:..\..\..\..\..\..\Software\uCOS-III\Source/os_task.c ****     } else {
 103:..\..\..\..\..\..\Software\uCOS-III\Source/os_task.c ****         self  = DEF_FALSE;
  63              		.loc 1 103 15 view .LVU11
  64 001a 0027     		movs	r7, #0
  65              	.LVL2:
  66              	.L5:
 104:..\..\..\..\..\..\Software\uCOS-III\Source/os_task.c ****     }
 105:..\..\..\..\..\..\Software\uCOS-III\Source/os_task.c **** 
ARM GAS  C:\Users\EDULU~1.DES\AppData\Local\Temp\ccxcKTgR.s 			page 4


 106:..\..\..\..\..\..\Software\uCOS-III\Source/os_task.c ****     OS_CRITICAL_ENTER();
  67              		.loc 1 106 5 is_stmt 1 view .LVU12
  68              		.loc 1 106 5 view .LVU13
  69              		.loc 1 106 5 view .LVU14
  70 001c FFF7FEFF 		bl	CPU_SR_Save
  71              	.LVL3:
  72 0020 0190     		str	r0, [sp, #4]
  73              	.LVL4:
  74              		.loc 1 106 5 view .LVU15
  75 0022 FFF7FEFF 		bl	CPU_IntDisMeasStart
  76              	.LVL5:
 107:..\..\..\..\..\..\Software\uCOS-III\Source/os_task.c ****     switch (p_tcb->TaskState) {
  77              		.loc 1 107 5 view .LVU16
  78              		.loc 1 107 18 is_stmt 0 view .LVU17
  79 0026 3623     		movs	r3, #54
  80 0028 E35C     		ldrb	r3, [r4, r3]
  81              		.loc 1 107 5 view .LVU18
  82 002a 072B     		cmp	r3, #7
  83 002c 46D8     		bhi	.L6
  84              		.loc 1 107 5 view .LVU19
  85 002e 9B00     		lsls	r3, r3, #2
  86 0030 274A     		ldr	r2, .L21+4
  87 0032 D358     		ldr	r3, [r2, r3]
  88 0034 9F46     		mov	pc, r3
  89              		.section	.rodata
  90              		.align	2
  91              	.L8:
  92 0000 60000000 		.word	.L10
  93 0004 84000000 		.word	.L9
  94 0008 9C000000 		.word	.L7
  95 000c 9C000000 		.word	.L7
  96 0010 84000000 		.word	.L9
  97 0014 84000000 		.word	.L9
  98 0018 9C000000 		.word	.L7
  99 001c 9C000000 		.word	.L7
 100              		.section	.text.OSTaskChangePrio
 101              	.LVL6:
 102              	.L17:
  80:..\..\..\..\..\..\Software\uCOS-III\Source/os_task.c ****         return;
 103              		.loc 1 80 8 is_stmt 1 view .LVU20
  80:..\..\..\..\..\..\Software\uCOS-III\Source/os_task.c ****         return;
 104              		.loc 1 80 15 is_stmt 0 view .LVU21
 105 0036 274B     		ldr	r3, .L21+8
 106 0038 1380     		strh	r3, [r2]
  81:..\..\..\..\..\..\Software\uCOS-III\Source/os_task.c ****     }
 107              		.loc 1 81 9 is_stmt 1 view .LVU22
 108              	.LVL7:
 109              	.L1:
 108:..\..\..\..\..\..\Software\uCOS-III\Source/os_task.c ****         case OS_TASK_STATE_RDY:
 109:..\..\..\..\..\..\Software\uCOS-III\Source/os_task.c ****              OS_RdyListRemove(p_tcb);                       /* Remove from current priority        
 110:..\..\..\..\..\..\Software\uCOS-III\Source/os_task.c ****              p_tcb->Prio = prio_new;                        /* Set new task priority               
 111:..\..\..\..\..\..\Software\uCOS-III\Source/os_task.c ****              OS_PrioInsert(p_tcb->Prio);
 112:..\..\..\..\..\..\Software\uCOS-III\Source/os_task.c ****              if (self == DEF_TRUE) {
 113:..\..\..\..\..\..\Software\uCOS-III\Source/os_task.c ****                  OS_RdyListInsertHead(p_tcb);
 114:..\..\..\..\..\..\Software\uCOS-III\Source/os_task.c ****              } else {
 115:..\..\..\..\..\..\Software\uCOS-III\Source/os_task.c ****                  OS_RdyListInsertTail(p_tcb);
 116:..\..\..\..\..\..\Software\uCOS-III\Source/os_task.c ****              }
ARM GAS  C:\Users\EDULU~1.DES\AppData\Local\Temp\ccxcKTgR.s 			page 5


 117:..\..\..\..\..\..\Software\uCOS-III\Source/os_task.c ****              break;
 118:..\..\..\..\..\..\Software\uCOS-III\Source/os_task.c **** 
 119:..\..\..\..\..\..\Software\uCOS-III\Source/os_task.c ****         case OS_TASK_STATE_DLY:                             /* Nothing to do except change the prio
 120:..\..\..\..\..\..\Software\uCOS-III\Source/os_task.c ****         case OS_TASK_STATE_SUSPENDED:
 121:..\..\..\..\..\..\Software\uCOS-III\Source/os_task.c ****         case OS_TASK_STATE_DLY_SUSPENDED:
 122:..\..\..\..\..\..\Software\uCOS-III\Source/os_task.c ****              p_tcb->Prio = prio_new;                        /* Set new task priority               
 123:..\..\..\..\..\..\Software\uCOS-III\Source/os_task.c ****              break;
 124:..\..\..\..\..\..\Software\uCOS-III\Source/os_task.c **** 
 125:..\..\..\..\..\..\Software\uCOS-III\Source/os_task.c ****         case OS_TASK_STATE_PEND:
 126:..\..\..\..\..\..\Software\uCOS-III\Source/os_task.c ****         case OS_TASK_STATE_PEND_TIMEOUT:
 127:..\..\..\..\..\..\Software\uCOS-III\Source/os_task.c ****         case OS_TASK_STATE_PEND_SUSPENDED:
 128:..\..\..\..\..\..\Software\uCOS-III\Source/os_task.c ****         case OS_TASK_STATE_PEND_TIMEOUT_SUSPENDED:
 129:..\..\..\..\..\..\Software\uCOS-III\Source/os_task.c ****              switch (p_tcb->PendOn) {                       /* What to do depends on what we are pe
 130:..\..\..\..\..\..\Software\uCOS-III\Source/os_task.c ****                  case OS_TASK_PEND_ON_TASK_Q:               /* Nothing to do except change the prio
 131:..\..\..\..\..\..\Software\uCOS-III\Source/os_task.c ****                  case OS_TASK_PEND_ON_TASK_SEM:
 132:..\..\..\..\..\..\Software\uCOS-III\Source/os_task.c ****                  case OS_TASK_PEND_ON_FLAG:
 133:..\..\..\..\..\..\Software\uCOS-III\Source/os_task.c ****                       p_tcb->Prio = prio_new;               /* Set new task priority               
 134:..\..\..\..\..\..\Software\uCOS-III\Source/os_task.c ****                       break;
 135:..\..\..\..\..\..\Software\uCOS-III\Source/os_task.c **** 
 136:..\..\..\..\..\..\Software\uCOS-III\Source/os_task.c ****                  case OS_TASK_PEND_ON_MUTEX:
 137:..\..\..\..\..\..\Software\uCOS-III\Source/os_task.c ****                  case OS_TASK_PEND_ON_MULTI:
 138:..\..\..\..\..\..\Software\uCOS-III\Source/os_task.c ****                  case OS_TASK_PEND_ON_Q:
 139:..\..\..\..\..\..\Software\uCOS-III\Source/os_task.c ****                  case OS_TASK_PEND_ON_SEM:
 140:..\..\..\..\..\..\Software\uCOS-III\Source/os_task.c ****                       OS_PendListChangePrio(p_tcb,
 141:..\..\..\..\..\..\Software\uCOS-III\Source/os_task.c ****                                             prio_new);
 142:..\..\..\..\..\..\Software\uCOS-III\Source/os_task.c ****                       break;
 143:..\..\..\..\..\..\Software\uCOS-III\Source/os_task.c **** 
 144:..\..\..\..\..\..\Software\uCOS-III\Source/os_task.c ****                  default:
 145:..\..\..\..\..\..\Software\uCOS-III\Source/os_task.c ****                       break;
 146:..\..\..\..\..\..\Software\uCOS-III\Source/os_task.c ****             }
 147:..\..\..\..\..\..\Software\uCOS-III\Source/os_task.c ****              break;
 148:..\..\..\..\..\..\Software\uCOS-III\Source/os_task.c **** 
 149:..\..\..\..\..\..\Software\uCOS-III\Source/os_task.c ****         default:
 150:..\..\..\..\..\..\Software\uCOS-III\Source/os_task.c ****              OS_CRITICAL_EXIT();
 151:..\..\..\..\..\..\Software\uCOS-III\Source/os_task.c ****             *p_err = OS_ERR_STATE_INVALID;
 152:..\..\..\..\..\..\Software\uCOS-III\Source/os_task.c ****              return;
 153:..\..\..\..\..\..\Software\uCOS-III\Source/os_task.c ****     }
 154:..\..\..\..\..\..\Software\uCOS-III\Source/os_task.c **** 
 155:..\..\..\..\..\..\Software\uCOS-III\Source/os_task.c ****     OS_CRITICAL_EXIT_NO_SCHED();
 156:..\..\..\..\..\..\Software\uCOS-III\Source/os_task.c **** 
 157:..\..\..\..\..\..\Software\uCOS-III\Source/os_task.c ****     OSSched();                                              /* Run highest priority task ready     
 158:..\..\..\..\..\..\Software\uCOS-III\Source/os_task.c **** 
 159:..\..\..\..\..\..\Software\uCOS-III\Source/os_task.c ****    *p_err = OS_ERR_NONE;
 160:..\..\..\..\..\..\Software\uCOS-III\Source/os_task.c **** }
 110              		.loc 1 160 1 is_stmt 0 view .LVU23
 111 003a 03B0     		add	sp, sp, #12
 112              		@ sp needed
 113              	.LVL8:
 114              	.LVL9:
 115              		.loc 1 160 1 view .LVU24
 116 003c F0BD     		pop	{r4, r5, r6, r7, pc}
 117              	.LVL10:
 118              	.L18:
  93:..\..\..\..\..\..\Software\uCOS-III\Source/os_task.c ****         return;
 119              		.loc 1 93 8 is_stmt 1 view .LVU25
  93:..\..\..\..\..\..\Software\uCOS-III\Source/os_task.c ****         return;
 120              		.loc 1 93 15 is_stmt 0 view .LVU26
ARM GAS  C:\Users\EDULU~1.DES\AppData\Local\Temp\ccxcKTgR.s 			page 6


 121 003e 264B     		ldr	r3, .L21+12
 122 0040 1380     		strh	r3, [r2]
  94:..\..\..\..\..\..\Software\uCOS-III\Source/os_task.c ****     }
 123              		.loc 1 94 9 is_stmt 1 view .LVU27
 124 0042 FAE7     		b	.L1
 125              	.L19:
  98:..\..\..\..\..\..\Software\uCOS-III\Source/os_task.c ****         p_tcb = OSTCBCurPtr;
 126              		.loc 1 98 9 view .LVU28
  98:..\..\..\..\..\..\Software\uCOS-III\Source/os_task.c ****         p_tcb = OSTCBCurPtr;
 127              		.loc 1 98 9 view .LVU29
  98:..\..\..\..\..\..\Software\uCOS-III\Source/os_task.c ****         p_tcb = OSTCBCurPtr;
 128              		.loc 1 98 9 view .LVU30
 129 0044 FFF7FEFF 		bl	CPU_SR_Save
 130              	.LVL11:
  98:..\..\..\..\..\..\Software\uCOS-III\Source/os_task.c ****         p_tcb = OSTCBCurPtr;
 131              		.loc 1 98 9 is_stmt 0 view .LVU31
 132 0048 0700     		movs	r7, r0
 133              	.LVL12:
  98:..\..\..\..\..\..\Software\uCOS-III\Source/os_task.c ****         p_tcb = OSTCBCurPtr;
 134              		.loc 1 98 9 is_stmt 1 view .LVU32
 135 004a FFF7FEFF 		bl	CPU_IntDisMeasStart
 136              	.LVL13:
  99:..\..\..\..\..\..\Software\uCOS-III\Source/os_task.c ****         CPU_CRITICAL_EXIT();
 137              		.loc 1 99 9 view .LVU33
  99:..\..\..\..\..\..\Software\uCOS-III\Source/os_task.c ****         CPU_CRITICAL_EXIT();
 138              		.loc 1 99 15 is_stmt 0 view .LVU34
 139 004e 234B     		ldr	r3, .L21+16
 140 0050 1C68     		ldr	r4, [r3]
 141              	.LVL14:
 100:..\..\..\..\..\..\Software\uCOS-III\Source/os_task.c ****         self  = DEF_TRUE;
 142              		.loc 1 100 9 is_stmt 1 view .LVU35
 100:..\..\..\..\..\..\Software\uCOS-III\Source/os_task.c ****         self  = DEF_TRUE;
 143              		.loc 1 100 9 view .LVU36
 144 0052 FFF7FEFF 		bl	CPU_IntDisMeasStop
 145              	.LVL15:
 100:..\..\..\..\..\..\Software\uCOS-III\Source/os_task.c ****         self  = DEF_TRUE;
 146              		.loc 1 100 9 view .LVU37
 100:..\..\..\..\..\..\Software\uCOS-III\Source/os_task.c ****         self  = DEF_TRUE;
 147              		.loc 1 100 9 view .LVU38
 148 0056 3800     		movs	r0, r7
 149 0058 FFF7FEFF 		bl	CPU_SR_Restore
 150              	.LVL16:
 101:..\..\..\..\..\..\Software\uCOS-III\Source/os_task.c ****     } else {
 151              		.loc 1 101 9 view .LVU39
 101:..\..\..\..\..\..\Software\uCOS-III\Source/os_task.c ****     } else {
 152              		.loc 1 101 15 is_stmt 0 view .LVU40
 153 005c 0127     		movs	r7, #1
 154              	.LVL17:
 101:..\..\..\..\..\..\Software\uCOS-III\Source/os_task.c ****     } else {
 155              		.loc 1 101 15 view .LVU41
 156 005e DDE7     		b	.L5
 157              	.LVL18:
 158              	.L10:
 109:..\..\..\..\..\..\Software\uCOS-III\Source/os_task.c ****              p_tcb->Prio = prio_new;                        /* Set new task priority               
 159              		.loc 1 109 14 is_stmt 1 view .LVU42
 160 0060 2000     		movs	r0, r4
 161 0062 FFF7FEFF 		bl	OS_RdyListRemove
ARM GAS  C:\Users\EDULU~1.DES\AppData\Local\Temp\ccxcKTgR.s 			page 7


 162              	.LVL19:
 110:..\..\..\..\..\..\Software\uCOS-III\Source/os_task.c ****              OS_PrioInsert(p_tcb->Prio);
 163              		.loc 1 110 14 view .LVU43
 110:..\..\..\..\..\..\Software\uCOS-III\Source/os_task.c ****              OS_PrioInsert(p_tcb->Prio);
 164              		.loc 1 110 26 is_stmt 0 view .LVU44
 165 0066 3723     		movs	r3, #55
 166 0068 E554     		strb	r5, [r4, r3]
 111:..\..\..\..\..\..\Software\uCOS-III\Source/os_task.c ****              if (self == DEF_TRUE) {
 167              		.loc 1 111 14 is_stmt 1 view .LVU45
 168 006a 2800     		movs	r0, r5
 169 006c FFF7FEFF 		bl	OS_PrioInsert
 170              	.LVL20:
 112:..\..\..\..\..\..\Software\uCOS-III\Source/os_task.c ****                  OS_RdyListInsertHead(p_tcb);
 171              		.loc 1 112 14 view .LVU46
 112:..\..\..\..\..\..\Software\uCOS-III\Source/os_task.c ****                  OS_RdyListInsertHead(p_tcb);
 172              		.loc 1 112 17 is_stmt 0 view .LVU47
 173 0070 012F     		cmp	r7, #1
 174 0072 03D0     		beq	.L20
 115:..\..\..\..\..\..\Software\uCOS-III\Source/os_task.c ****              }
 175              		.loc 1 115 18 is_stmt 1 view .LVU48
 176 0074 2000     		movs	r0, r4
 177 0076 FFF7FEFF 		bl	OS_RdyListInsertTail
 178              	.LVL21:
 179 007a 05E0     		b	.L12
 180              	.L20:
 113:..\..\..\..\..\..\Software\uCOS-III\Source/os_task.c ****              } else {
 181              		.loc 1 113 18 view .LVU49
 182 007c 2000     		movs	r0, r4
 183 007e FFF7FEFF 		bl	OS_RdyListInsertHead
 184              	.LVL22:
 185 0082 01E0     		b	.L12
 186              	.L9:
 122:..\..\..\..\..\..\Software\uCOS-III\Source/os_task.c ****              break;
 187              		.loc 1 122 14 view .LVU50
 122:..\..\..\..\..\..\Software\uCOS-III\Source/os_task.c ****              break;
 188              		.loc 1 122 26 is_stmt 0 view .LVU51
 189 0084 3723     		movs	r3, #55
 190 0086 E554     		strb	r5, [r4, r3]
 123:..\..\..\..\..\..\Software\uCOS-III\Source/os_task.c **** 
 191              		.loc 1 123 14 is_stmt 1 view .LVU52
 192              	.L12:
 155:..\..\..\..\..\..\Software\uCOS-III\Source/os_task.c **** 
 193              		.loc 1 155 5 view .LVU53
 155:..\..\..\..\..\..\Software\uCOS-III\Source/os_task.c **** 
 194              		.loc 1 155 5 view .LVU54
 195 0088 FFF7FEFF 		bl	CPU_IntDisMeasStop
 196              	.LVL23:
 155:..\..\..\..\..\..\Software\uCOS-III\Source/os_task.c **** 
 197              		.loc 1 155 5 view .LVU55
 155:..\..\..\..\..\..\Software\uCOS-III\Source/os_task.c **** 
 198              		.loc 1 155 5 view .LVU56
 199 008c 0198     		ldr	r0, [sp, #4]
 200 008e FFF7FEFF 		bl	CPU_SR_Restore
 201              	.LVL24:
 157:..\..\..\..\..\..\Software\uCOS-III\Source/os_task.c **** 
 202              		.loc 1 157 5 view .LVU57
 203 0092 FFF7FEFF 		bl	OSSched
ARM GAS  C:\Users\EDULU~1.DES\AppData\Local\Temp\ccxcKTgR.s 			page 8


 204              	.LVL25:
 159:..\..\..\..\..\..\Software\uCOS-III\Source/os_task.c **** }
 205              		.loc 1 159 4 view .LVU58
 159:..\..\..\..\..\..\Software\uCOS-III\Source/os_task.c **** }
 206              		.loc 1 159 11 is_stmt 0 view .LVU59
 207 0096 0023     		movs	r3, #0
 208 0098 3380     		strh	r3, [r6]
 209 009a CEE7     		b	.L1
 210              	.L7:
 129:..\..\..\..\..\..\Software\uCOS-III\Source/os_task.c ****                  case OS_TASK_PEND_ON_TASK_Q:               /* Nothing to do except change the prio
 211              		.loc 1 129 14 is_stmt 1 view .LVU60
 129:..\..\..\..\..\..\Software\uCOS-III\Source/os_task.c ****                  case OS_TASK_PEND_ON_TASK_Q:               /* Nothing to do except change the prio
 212              		.loc 1 129 27 is_stmt 0 view .LVU61
 213 009c 3423     		movs	r3, #52
 214 009e E35C     		ldrb	r3, [r4, r3]
 215 00a0 072B     		cmp	r3, #7
 216 00a2 F1D8     		bhi	.L12
 217 00a4 9B00     		lsls	r3, r3, #2
 218 00a6 0E4A     		ldr	r2, .L21+20
 219 00a8 D358     		ldr	r3, [r2, r3]
 220 00aa 9F46     		mov	pc, r3
 221              		.section	.rodata
 222              		.align	2
 223              	.L14:
 224 0020 88000000 		.word	.L12
 225 0024 AC000000 		.word	.L13
 226 0028 AC000000 		.word	.L13
 227 002c B2000000 		.word	.L15
 228 0030 B2000000 		.word	.L15
 229 0034 B2000000 		.word	.L15
 230 0038 B2000000 		.word	.L15
 231 003c AC000000 		.word	.L13
 232              		.section	.text.OSTaskChangePrio
 233              	.L13:
 133:..\..\..\..\..\..\Software\uCOS-III\Source/os_task.c ****                       break;
 234              		.loc 1 133 23 is_stmt 1 view .LVU62
 133:..\..\..\..\..\..\Software\uCOS-III\Source/os_task.c ****                       break;
 235              		.loc 1 133 35 is_stmt 0 view .LVU63
 236 00ac 3723     		movs	r3, #55
 237 00ae E554     		strb	r5, [r4, r3]
 134:..\..\..\..\..\..\Software\uCOS-III\Source/os_task.c **** 
 238              		.loc 1 134 23 is_stmt 1 view .LVU64
 239 00b0 EAE7     		b	.L12
 240              	.L15:
 140:..\..\..\..\..\..\Software\uCOS-III\Source/os_task.c ****                                             prio_new);
 241              		.loc 1 140 23 view .LVU65
 242 00b2 2900     		movs	r1, r5
 243 00b4 2000     		movs	r0, r4
 244 00b6 FFF7FEFF 		bl	OS_PendListChangePrio
 245              	.LVL26:
 142:..\..\..\..\..\..\Software\uCOS-III\Source/os_task.c **** 
 246              		.loc 1 142 23 view .LVU66
 247 00ba E5E7     		b	.L12
 248              	.L6:
 150:..\..\..\..\..\..\Software\uCOS-III\Source/os_task.c ****             *p_err = OS_ERR_STATE_INVALID;
 249              		.loc 1 150 14 view .LVU67
 150:..\..\..\..\..\..\Software\uCOS-III\Source/os_task.c ****             *p_err = OS_ERR_STATE_INVALID;
ARM GAS  C:\Users\EDULU~1.DES\AppData\Local\Temp\ccxcKTgR.s 			page 9


 250              		.loc 1 150 14 view .LVU68
 251 00bc FFF7FEFF 		bl	CPU_IntDisMeasStop
 252              	.LVL27:
 150:..\..\..\..\..\..\Software\uCOS-III\Source/os_task.c ****             *p_err = OS_ERR_STATE_INVALID;
 253              		.loc 1 150 14 view .LVU69
 150:..\..\..\..\..\..\Software\uCOS-III\Source/os_task.c ****             *p_err = OS_ERR_STATE_INVALID;
 254              		.loc 1 150 14 view .LVU70
 255 00c0 0198     		ldr	r0, [sp, #4]
 256 00c2 FFF7FEFF 		bl	CPU_SR_Restore
 257              	.LVL28:
 151:..\..\..\..\..\..\Software\uCOS-III\Source/os_task.c ****              return;
 258              		.loc 1 151 13 view .LVU71
 151:..\..\..\..\..\..\Software\uCOS-III\Source/os_task.c ****              return;
 259              		.loc 1 151 20 is_stmt 0 view .LVU72
 260 00c6 074B     		ldr	r3, .L21+24
 261 00c8 3380     		strh	r3, [r6]
 152:..\..\..\..\..\..\Software\uCOS-III\Source/os_task.c ****     }
 262              		.loc 1 152 14 is_stmt 1 view .LVU73
 263 00ca B6E7     		b	.L1
 264              	.L22:
 265              		.align	2
 266              	.L21:
 267 00cc 00000000 		.word	OSIntNestingCtr
 268 00d0 00000000 		.word	.L8
 269 00d4 49710000 		.word	29001
 270 00d8 73620000 		.word	25203
 271 00dc 00000000 		.word	OSTCBCurPtr
 272 00e0 20000000 		.word	.L14
 273 00e4 2D6E0000 		.word	28205
 274              		.cfi_endproc
 275              	.LFE3:
 276              		.size	OSTaskChangePrio, .-OSTaskChangePrio
 277              		.section	.text.OSTaskRegGet,"ax",%progbits
 278              		.align	1
 279              		.global	OSTaskRegGet
 280              		.syntax unified
 281              		.code	16
 282              		.thumb_func
 283              		.fpu softvfp
 284              		.type	OSTaskRegGet, %function
 285              	OSTaskRegGet:
 286              	.LVL29:
 287              	.LFB5:
 161:..\..\..\..\..\..\Software\uCOS-III\Source/os_task.c **** #endif
 162:..\..\..\..\..\..\Software\uCOS-III\Source/os_task.c **** 
 163:..\..\..\..\..\..\Software\uCOS-III\Source/os_task.c **** /*$PAGE*/
 164:..\..\..\..\..\..\Software\uCOS-III\Source/os_task.c **** /*
 165:..\..\..\..\..\..\Software\uCOS-III\Source/os_task.c **** ***************************************************************************************************
 166:..\..\..\..\..\..\Software\uCOS-III\Source/os_task.c **** *                                                    CREATE A TASK
 167:..\..\..\..\..\..\Software\uCOS-III\Source/os_task.c **** *
 168:..\..\..\..\..\..\Software\uCOS-III\Source/os_task.c **** * Description: This function is used to have uC/OS-III manage the execution of a task.  Tasks can e
 169:..\..\..\..\..\..\Software\uCOS-III\Source/os_task.c **** *              prior to the start of multitasking or by a running task.  A task cannot be created b
 170:..\..\..\..\..\..\Software\uCOS-III\Source/os_task.c **** *
 171:..\..\..\..\..\..\Software\uCOS-III\Source/os_task.c **** * Arguments  : p_tcb          is a pointer to the task's TCB
 172:..\..\..\..\..\..\Software\uCOS-III\Source/os_task.c **** *
 173:..\..\..\..\..\..\Software\uCOS-III\Source/os_task.c **** *              p_name         is a pointer to an ASCII string to provide a name to the task.
 174:..\..\..\..\..\..\Software\uCOS-III\Source/os_task.c **** *
ARM GAS  C:\Users\EDULU~1.DES\AppData\Local\Temp\ccxcKTgR.s 			page 10


 175:..\..\..\..\..\..\Software\uCOS-III\Source/os_task.c **** *              p_task         is a pointer to the task's code
 176:..\..\..\..\..\..\Software\uCOS-III\Source/os_task.c **** *
 177:..\..\..\..\..\..\Software\uCOS-III\Source/os_task.c **** *              p_arg          is a pointer to an optional data area which can be used to pass param
 178:..\..\..\..\..\..\Software\uCOS-III\Source/os_task.c **** *                             the task when the task first executes.  Where the task is concerned i
 179:..\..\..\..\..\..\Software\uCOS-III\Source/os_task.c **** *                             it was invoked and passed the argument 'p_arg' as follows:
 180:..\..\..\..\..\..\Software\uCOS-III\Source/os_task.c **** *
 181:..\..\..\..\..\..\Software\uCOS-III\Source/os_task.c **** *                                 void Task (void *p_arg)
 182:..\..\..\..\..\..\Software\uCOS-III\Source/os_task.c **** *                                 {
 183:..\..\..\..\..\..\Software\uCOS-III\Source/os_task.c **** *                                     for (;;) {
 184:..\..\..\..\..\..\Software\uCOS-III\Source/os_task.c **** *                                         Task code;
 185:..\..\..\..\..\..\Software\uCOS-III\Source/os_task.c **** *                                     }
 186:..\..\..\..\..\..\Software\uCOS-III\Source/os_task.c **** *                                 }
 187:..\..\..\..\..\..\Software\uCOS-III\Source/os_task.c **** *
 188:..\..\..\..\..\..\Software\uCOS-III\Source/os_task.c **** *              prio           is the task's priority.  A unique priority MUST be assigned to each t
 189:..\..\..\..\..\..\Software\uCOS-III\Source/os_task.c **** *                             lower the number, the higher the priority.
 190:..\..\..\..\..\..\Software\uCOS-III\Source/os_task.c **** *
 191:..\..\..\..\..\..\Software\uCOS-III\Source/os_task.c **** *              p_stk_base     is a pointer to the base address of the stack (i.e. low address).
 192:..\..\..\..\..\..\Software\uCOS-III\Source/os_task.c **** *
 193:..\..\..\..\..\..\Software\uCOS-III\Source/os_task.c **** *              stk_limit      is the number of stack elements to set as 'watermark' limit for the s
 194:..\..\..\..\..\..\Software\uCOS-III\Source/os_task.c **** *                             represents the number of CPU_STK entries left before the stack is ful
 195:..\..\..\..\..\..\Software\uCOS-III\Source/os_task.c **** *                             specifying 10% of the 'stk_size' value indicates that the stack limit
 196:..\..\..\..\..\..\Software\uCOS-III\Source/os_task.c **** *                             when the stack reaches 90% full.
 197:..\..\..\..\..\..\Software\uCOS-III\Source/os_task.c **** *
 198:..\..\..\..\..\..\Software\uCOS-III\Source/os_task.c **** *              stk_size       is the size of the stack in number of elements.  If CPU_STK is set to
 199:..\..\..\..\..\..\Software\uCOS-III\Source/os_task.c **** *                             'stk_size' corresponds to the number of bytes available.  If CPU_STK 
 200:..\..\..\..\..\..\Software\uCOS-III\Source/os_task.c **** *                             CPU_INT16U, 'stk_size' contains the number of 16-bit entries availabl
 201:..\..\..\..\..\..\Software\uCOS-III\Source/os_task.c **** *                             CPU_STK is set to CPU_INT32U, 'stk_size' contains the number of 32-bi
 202:..\..\..\..\..\..\Software\uCOS-III\Source/os_task.c **** *                             available on the stack.
 203:..\..\..\..\..\..\Software\uCOS-III\Source/os_task.c **** *
 204:..\..\..\..\..\..\Software\uCOS-III\Source/os_task.c **** *              q_size         is the maximum number of messages that can be sent to the task
 205:..\..\..\..\..\..\Software\uCOS-III\Source/os_task.c **** *
 206:..\..\..\..\..\..\Software\uCOS-III\Source/os_task.c **** *              time_quanta    amount of time (in ticks) for time slice when round-robin between tas
 207:..\..\..\..\..\..\Software\uCOS-III\Source/os_task.c **** *                             the default.
 208:..\..\..\..\..\..\Software\uCOS-III\Source/os_task.c **** *
 209:..\..\..\..\..\..\Software\uCOS-III\Source/os_task.c **** *              p_ext          is a pointer to a user supplied memory location which is used as a TC
 210:..\..\..\..\..\..\Software\uCOS-III\Source/os_task.c **** *                             For example, this user memory can hold the contents of floating-point
 211:..\..\..\..\..\..\Software\uCOS-III\Source/os_task.c **** *                             during a context switch, the time each task takes to execute, the num
 212:..\..\..\..\..\..\Software\uCOS-III\Source/os_task.c **** *                             the task has been switched-in, etc.
 213:..\..\..\..\..\..\Software\uCOS-III\Source/os_task.c **** *
 214:..\..\..\..\..\..\Software\uCOS-III\Source/os_task.c **** *              opt            contains additional information (or options) about the behavior of th
 215:..\..\..\..\..\..\Software\uCOS-III\Source/os_task.c **** *                             See OS_OPT_TASK_xxx in OS.H.  Current choices are:
 216:..\..\..\..\..\..\Software\uCOS-III\Source/os_task.c **** *
 217:..\..\..\..\..\..\Software\uCOS-III\Source/os_task.c **** *                                 OS_OPT_TASK_NONE            No option selected
 218:..\..\..\..\..\..\Software\uCOS-III\Source/os_task.c **** *                                 OS_OPT_TASK_STK_CHK         Stack checking to be allowed for the 
 219:..\..\..\..\..\..\Software\uCOS-III\Source/os_task.c **** *                                 OS_OPT_TASK_STK_CLR         Clear the stack when the task is crea
 220:..\..\..\..\..\..\Software\uCOS-III\Source/os_task.c **** *                                 OS_OPT_TASK_SAVE_FP         If the CPU has floating-point registe
 221:..\..\..\..\..\..\Software\uCOS-III\Source/os_task.c **** *                                                             during a context switch.
 222:..\..\..\..\..\..\Software\uCOS-III\Source/os_task.c **** *                                 OS_OPT_TASK_NO_TLS          If the caller doesn't want or need TL
 223:..\..\..\..\..\..\Software\uCOS-III\Source/os_task.c **** *                                                             Storage) support for the task.  If yo
 224:..\..\..\..\..\..\Software\uCOS-III\Source/os_task.c **** *                                                             option, TLS will be supported by defa
 225:..\..\..\..\..\..\Software\uCOS-III\Source/os_task.c **** *
 226:..\..\..\..\..\..\Software\uCOS-III\Source/os_task.c **** *              p_err          is a pointer to an error code that will be set during this call.  The
 227:..\..\..\..\..\..\Software\uCOS-III\Source/os_task.c **** *                             to by 'p_err' can be:
 228:..\..\..\..\..\..\Software\uCOS-III\Source/os_task.c **** *
 229:..\..\..\..\..\..\Software\uCOS-III\Source/os_task.c **** *                                 OS_ERR_NONE                    if the function was successful.
 230:..\..\..\..\..\..\Software\uCOS-III\Source/os_task.c **** *                                 OS_ERR_ILLEGAL_CREATE_RUN_TIME if you are trying to create the ta
 231:..\..\..\..\..\..\Software\uCOS-III\Source/os_task.c **** *                                                                   OSSafetyCriticalStart().
ARM GAS  C:\Users\EDULU~1.DES\AppData\Local\Temp\ccxcKTgR.s 			page 11


 232:..\..\..\..\..\..\Software\uCOS-III\Source/os_task.c **** *                                 OS_ERR_NAME                    if 'p_name' is a NULL pointer
 233:..\..\..\..\..\..\Software\uCOS-III\Source/os_task.c **** *                                 OS_ERR_PRIO_INVALID            if the priority you specify is hig
 234:..\..\..\..\..\..\Software\uCOS-III\Source/os_task.c **** *                                                                   allowed (i.e. >= OS_CFG_PRIO_MA
 235:..\..\..\..\..\..\Software\uCOS-III\Source/os_task.c **** *                                                                if OS_CFG_ISR_POST_DEFERRED_EN is 
 236:..\..\..\..\..\..\Software\uCOS-III\Source/os_task.c **** *                                                                   to use priority 0 which is rese
 237:..\..\..\..\..\..\Software\uCOS-III\Source/os_task.c **** *                                 OS_ERR_STK_INVALID             if you specified a NULL pointer fo
 238:..\..\..\..\..\..\Software\uCOS-III\Source/os_task.c **** *                                 OS_ERR_STK_SIZE_INVALID        if you specified zero for the 'stk
 239:..\..\..\..\..\..\Software\uCOS-III\Source/os_task.c **** *                                 OS_ERR_STK_LIMIT_INVALID       if you specified a 'stk_limit' gre
 240:..\..\..\..\..\..\Software\uCOS-III\Source/os_task.c **** *                                                                   to 'stk_size'
 241:..\..\..\..\..\..\Software\uCOS-III\Source/os_task.c **** *                                 OS_ERR_TASK_CREATE_ISR         if you tried to create a task from
 242:..\..\..\..\..\..\Software\uCOS-III\Source/os_task.c **** *                                 OS_ERR_TASK_INVALID            if you specified a NULL pointer fo
 243:..\..\..\..\..\..\Software\uCOS-III\Source/os_task.c **** *                                 OS_ERR_TCB_INVALID             if you specified a NULL pointer fo
 244:..\..\..\..\..\..\Software\uCOS-III\Source/os_task.c **** *
 245:..\..\..\..\..\..\Software\uCOS-III\Source/os_task.c **** * Returns    : A pointer to the TCB of the task created.  This pointer must be used as an ID (i.e h
 246:..\..\..\..\..\..\Software\uCOS-III\Source/os_task.c **** ***************************************************************************************************
 247:..\..\..\..\..\..\Software\uCOS-III\Source/os_task.c **** */
 248:..\..\..\..\..\..\Software\uCOS-III\Source/os_task.c **** /*$PAGE*/
 249:..\..\..\..\..\..\Software\uCOS-III\Source/os_task.c **** void  OSTaskCreate (OS_TCB        *p_tcb,
 250:..\..\..\..\..\..\Software\uCOS-III\Source/os_task.c ****                     CPU_CHAR      *p_name,
 251:..\..\..\..\..\..\Software\uCOS-III\Source/os_task.c ****                     OS_TASK_PTR    p_task,
 252:..\..\..\..\..\..\Software\uCOS-III\Source/os_task.c ****                     void          *p_arg,
 253:..\..\..\..\..\..\Software\uCOS-III\Source/os_task.c ****                     OS_PRIO        prio,
 254:..\..\..\..\..\..\Software\uCOS-III\Source/os_task.c ****                     CPU_STK       *p_stk_base,
 255:..\..\..\..\..\..\Software\uCOS-III\Source/os_task.c ****                     CPU_STK_SIZE   stk_limit,
 256:..\..\..\..\..\..\Software\uCOS-III\Source/os_task.c ****                     CPU_STK_SIZE   stk_size,
 257:..\..\..\..\..\..\Software\uCOS-III\Source/os_task.c ****                     OS_MSG_QTY     q_size,
 258:..\..\..\..\..\..\Software\uCOS-III\Source/os_task.c ****                     OS_TICK        time_quanta,
 259:..\..\..\..\..\..\Software\uCOS-III\Source/os_task.c ****                     void          *p_ext,
 260:..\..\..\..\..\..\Software\uCOS-III\Source/os_task.c ****                     OS_OPT         opt,
 261:..\..\..\..\..\..\Software\uCOS-III\Source/os_task.c ****                     OS_ERR        *p_err)
 262:..\..\..\..\..\..\Software\uCOS-III\Source/os_task.c **** {
 263:..\..\..\..\..\..\Software\uCOS-III\Source/os_task.c ****     CPU_STK_SIZE   i;
 264:..\..\..\..\..\..\Software\uCOS-III\Source/os_task.c **** #if OS_CFG_TASK_REG_TBL_SIZE > 0u
 265:..\..\..\..\..\..\Software\uCOS-III\Source/os_task.c ****     OS_REG_ID      reg_nbr;
 266:..\..\..\..\..\..\Software\uCOS-III\Source/os_task.c **** #endif
 267:..\..\..\..\..\..\Software\uCOS-III\Source/os_task.c **** #if defined(OS_CFG_TLS_TBL_SIZE) && (OS_CFG_TLS_TBL_SIZE > 0u)
 268:..\..\..\..\..\..\Software\uCOS-III\Source/os_task.c ****     OS_TLS_ID      id;
 269:..\..\..\..\..\..\Software\uCOS-III\Source/os_task.c **** #endif
 270:..\..\..\..\..\..\Software\uCOS-III\Source/os_task.c **** 
 271:..\..\..\..\..\..\Software\uCOS-III\Source/os_task.c ****     CPU_STK       *p_sp;
 272:..\..\..\..\..\..\Software\uCOS-III\Source/os_task.c ****     CPU_STK       *p_stk_limit;
 273:..\..\..\..\..\..\Software\uCOS-III\Source/os_task.c ****     CPU_SR_ALLOC();
 274:..\..\..\..\..\..\Software\uCOS-III\Source/os_task.c **** 
 275:..\..\..\..\..\..\Software\uCOS-III\Source/os_task.c **** 
 276:..\..\..\..\..\..\Software\uCOS-III\Source/os_task.c **** 
 277:..\..\..\..\..\..\Software\uCOS-III\Source/os_task.c **** #ifdef OS_SAFETY_CRITICAL
 278:..\..\..\..\..\..\Software\uCOS-III\Source/os_task.c ****     if (p_err == (OS_ERR *)0) {
 279:..\..\..\..\..\..\Software\uCOS-III\Source/os_task.c ****         OS_SAFETY_CRITICAL_EXCEPTION();
 280:..\..\..\..\..\..\Software\uCOS-III\Source/os_task.c ****         return;
 281:..\..\..\..\..\..\Software\uCOS-III\Source/os_task.c ****     }
 282:..\..\..\..\..\..\Software\uCOS-III\Source/os_task.c **** #endif
 283:..\..\..\..\..\..\Software\uCOS-III\Source/os_task.c **** 
 284:..\..\..\..\..\..\Software\uCOS-III\Source/os_task.c **** #ifdef OS_SAFETY_CRITICAL_IEC61508
 285:..\..\..\..\..\..\Software\uCOS-III\Source/os_task.c ****     if (OSSafetyCriticalStartFlag == DEF_TRUE) {
 286:..\..\..\..\..\..\Software\uCOS-III\Source/os_task.c ****        *p_err = OS_ERR_ILLEGAL_CREATE_RUN_TIME;
 287:..\..\..\..\..\..\Software\uCOS-III\Source/os_task.c ****         return;
 288:..\..\..\..\..\..\Software\uCOS-III\Source/os_task.c ****     }
ARM GAS  C:\Users\EDULU~1.DES\AppData\Local\Temp\ccxcKTgR.s 			page 12


 289:..\..\..\..\..\..\Software\uCOS-III\Source/os_task.c **** #endif
 290:..\..\..\..\..\..\Software\uCOS-III\Source/os_task.c **** 
 291:..\..\..\..\..\..\Software\uCOS-III\Source/os_task.c **** #if OS_CFG_CALLED_FROM_ISR_CHK_EN > 0u
 292:..\..\..\..\..\..\Software\uCOS-III\Source/os_task.c ****     if (OSIntNestingCtr > (OS_NESTING_CTR)0) {              /* ---------- CANNOT CREATE A TASK FROM
 293:..\..\..\..\..\..\Software\uCOS-III\Source/os_task.c ****        *p_err = OS_ERR_TASK_CREATE_ISR;
 294:..\..\..\..\..\..\Software\uCOS-III\Source/os_task.c ****         return;
 295:..\..\..\..\..\..\Software\uCOS-III\Source/os_task.c ****     }
 296:..\..\..\..\..\..\Software\uCOS-III\Source/os_task.c **** #endif
 297:..\..\..\..\..\..\Software\uCOS-III\Source/os_task.c **** 
 298:..\..\..\..\..\..\Software\uCOS-III\Source/os_task.c **** #if OS_CFG_ARG_CHK_EN > 0u                                  /* ---------------- VALIDATE ARGUMENTS 
 299:..\..\..\..\..\..\Software\uCOS-III\Source/os_task.c ****     if (p_tcb == (OS_TCB *)0) {                             /* User must supply a valid OS_TCB     
 300:..\..\..\..\..\..\Software\uCOS-III\Source/os_task.c ****        *p_err = OS_ERR_TCB_INVALID;
 301:..\..\..\..\..\..\Software\uCOS-III\Source/os_task.c ****         return;
 302:..\..\..\..\..\..\Software\uCOS-III\Source/os_task.c ****     }
 303:..\..\..\..\..\..\Software\uCOS-III\Source/os_task.c ****     if (p_task == (OS_TASK_PTR)0) {                         /* User must supply a valid task       
 304:..\..\..\..\..\..\Software\uCOS-III\Source/os_task.c ****        *p_err = OS_ERR_TASK_INVALID;
 305:..\..\..\..\..\..\Software\uCOS-III\Source/os_task.c ****         return;
 306:..\..\..\..\..\..\Software\uCOS-III\Source/os_task.c ****     }
 307:..\..\..\..\..\..\Software\uCOS-III\Source/os_task.c ****     if (p_stk_base == (CPU_STK *)0) {                       /* User must supply a valid stack base 
 308:..\..\..\..\..\..\Software\uCOS-III\Source/os_task.c ****        *p_err = OS_ERR_STK_INVALID;
 309:..\..\..\..\..\..\Software\uCOS-III\Source/os_task.c ****         return;
 310:..\..\..\..\..\..\Software\uCOS-III\Source/os_task.c ****     }
 311:..\..\..\..\..\..\Software\uCOS-III\Source/os_task.c ****     if (stk_size < OSCfg_StkSizeMin) {                      /* User must supply a valid minimum sta
 312:..\..\..\..\..\..\Software\uCOS-III\Source/os_task.c ****        *p_err = OS_ERR_STK_SIZE_INVALID;
 313:..\..\..\..\..\..\Software\uCOS-III\Source/os_task.c ****         return;
 314:..\..\..\..\..\..\Software\uCOS-III\Source/os_task.c ****     }
 315:..\..\..\..\..\..\Software\uCOS-III\Source/os_task.c ****     if (stk_limit >= stk_size) {                            /* User must supply a valid stack limit
 316:..\..\..\..\..\..\Software\uCOS-III\Source/os_task.c ****        *p_err = OS_ERR_STK_LIMIT_INVALID;
 317:..\..\..\..\..\..\Software\uCOS-III\Source/os_task.c ****         return;
 318:..\..\..\..\..\..\Software\uCOS-III\Source/os_task.c ****     }
 319:..\..\..\..\..\..\Software\uCOS-III\Source/os_task.c ****     if (prio >= OS_CFG_PRIO_MAX) {                          /* Priority must be within 0 and OS_CFG
 320:..\..\..\..\..\..\Software\uCOS-III\Source/os_task.c ****        *p_err = OS_ERR_PRIO_INVALID;
 321:..\..\..\..\..\..\Software\uCOS-III\Source/os_task.c ****         return;
 322:..\..\..\..\..\..\Software\uCOS-III\Source/os_task.c ****     }
 323:..\..\..\..\..\..\Software\uCOS-III\Source/os_task.c **** #endif
 324:..\..\..\..\..\..\Software\uCOS-III\Source/os_task.c **** 
 325:..\..\..\..\..\..\Software\uCOS-III\Source/os_task.c **** #if OS_CFG_ISR_POST_DEFERRED_EN > 0u
 326:..\..\..\..\..\..\Software\uCOS-III\Source/os_task.c ****     if (prio == (OS_PRIO)0) {
 327:..\..\..\..\..\..\Software\uCOS-III\Source/os_task.c ****         if (p_tcb != &OSIntQTaskTCB) {
 328:..\..\..\..\..\..\Software\uCOS-III\Source/os_task.c ****            *p_err = OS_ERR_PRIO_INVALID;                    /* Not allowed to use priority 0       
 329:..\..\..\..\..\..\Software\uCOS-III\Source/os_task.c ****             return;
 330:..\..\..\..\..\..\Software\uCOS-III\Source/os_task.c ****         }
 331:..\..\..\..\..\..\Software\uCOS-III\Source/os_task.c ****     }
 332:..\..\..\..\..\..\Software\uCOS-III\Source/os_task.c **** #endif
 333:..\..\..\..\..\..\Software\uCOS-III\Source/os_task.c **** 
 334:..\..\..\..\..\..\Software\uCOS-III\Source/os_task.c ****     if (prio == (OS_CFG_PRIO_MAX - 1u)) {
 335:..\..\..\..\..\..\Software\uCOS-III\Source/os_task.c ****         if (p_tcb != &OSIdleTaskTCB) {
 336:..\..\..\..\..\..\Software\uCOS-III\Source/os_task.c ****            *p_err = OS_ERR_PRIO_INVALID;                    /* Not allowed to use same priority as 
 337:..\..\..\..\..\..\Software\uCOS-III\Source/os_task.c ****             return;
 338:..\..\..\..\..\..\Software\uCOS-III\Source/os_task.c ****         }
 339:..\..\..\..\..\..\Software\uCOS-III\Source/os_task.c ****     }
 340:..\..\..\..\..\..\Software\uCOS-III\Source/os_task.c **** 
 341:..\..\..\..\..\..\Software\uCOS-III\Source/os_task.c ****     OS_TaskInitTCB(p_tcb);                                  /* Initialize the TCB to default values
 342:..\..\..\..\..\..\Software\uCOS-III\Source/os_task.c **** 
 343:..\..\..\..\..\..\Software\uCOS-III\Source/os_task.c ****    *p_err = OS_ERR_NONE;
 344:..\..\..\..\..\..\Software\uCOS-III\Source/os_task.c ****                                                             /* --------------- CLEAR THE TASK'S STA
 345:..\..\..\..\..\..\Software\uCOS-III\Source/os_task.c ****     if ((opt & OS_OPT_TASK_STK_CHK) != (OS_OPT)0) {         /* See if stack checking has been enabl
ARM GAS  C:\Users\EDULU~1.DES\AppData\Local\Temp\ccxcKTgR.s 			page 13


 346:..\..\..\..\..\..\Software\uCOS-III\Source/os_task.c ****         if ((opt & OS_OPT_TASK_STK_CLR) != (OS_OPT)0) {     /* See if stack needs to be cleared    
 347:..\..\..\..\..\..\Software\uCOS-III\Source/os_task.c ****             p_sp = p_stk_base;
 348:..\..\..\..\..\..\Software\uCOS-III\Source/os_task.c ****             for (i = 0u; i < stk_size; i++) {               /* Stack grows from HIGH to LOW memory 
 349:..\..\..\..\..\..\Software\uCOS-III\Source/os_task.c ****                *p_sp = (CPU_STK)0;                          /* Clear from bottom of stack and up!  
 350:..\..\..\..\..\..\Software\uCOS-III\Source/os_task.c ****                 p_sp++;
 351:..\..\..\..\..\..\Software\uCOS-III\Source/os_task.c ****             }
 352:..\..\..\..\..\..\Software\uCOS-III\Source/os_task.c ****         }
 353:..\..\..\..\..\..\Software\uCOS-III\Source/os_task.c ****     }
 354:..\..\..\..\..\..\Software\uCOS-III\Source/os_task.c ****                                                             /* ------- INITIALIZE THE STACK FRAME O
 355:..\..\..\..\..\..\Software\uCOS-III\Source/os_task.c **** #if (CPU_CFG_STK_GROWTH == CPU_STK_GROWTH_HI_TO_LO)
 356:..\..\..\..\..\..\Software\uCOS-III\Source/os_task.c ****     p_stk_limit = p_stk_base + stk_limit;
 357:..\..\..\..\..\..\Software\uCOS-III\Source/os_task.c **** #else
 358:..\..\..\..\..\..\Software\uCOS-III\Source/os_task.c ****     p_stk_limit = p_stk_base + (stk_size - 1u) - stk_limit;
 359:..\..\..\..\..\..\Software\uCOS-III\Source/os_task.c **** #endif
 360:..\..\..\..\..\..\Software\uCOS-III\Source/os_task.c **** 
 361:..\..\..\..\..\..\Software\uCOS-III\Source/os_task.c ****     p_sp = OSTaskStkInit(p_task,
 362:..\..\..\..\..\..\Software\uCOS-III\Source/os_task.c ****                          p_arg,
 363:..\..\..\..\..\..\Software\uCOS-III\Source/os_task.c ****                          p_stk_base,
 364:..\..\..\..\..\..\Software\uCOS-III\Source/os_task.c ****                          p_stk_limit,
 365:..\..\..\..\..\..\Software\uCOS-III\Source/os_task.c ****                          stk_size,
 366:..\..\..\..\..\..\Software\uCOS-III\Source/os_task.c ****                          opt);
 367:..\..\..\..\..\..\Software\uCOS-III\Source/os_task.c **** 
 368:..\..\..\..\..\..\Software\uCOS-III\Source/os_task.c ****                                                             /* -------------- INITIALIZE THE TCB FI
 369:..\..\..\..\..\..\Software\uCOS-III\Source/os_task.c ****     p_tcb->TaskEntryAddr = p_task;                          /* Save task entry point address       
 370:..\..\..\..\..\..\Software\uCOS-III\Source/os_task.c ****     p_tcb->TaskEntryArg  = p_arg;                           /* Save task entry argument            
 371:..\..\..\..\..\..\Software\uCOS-III\Source/os_task.c **** 
 372:..\..\..\..\..\..\Software\uCOS-III\Source/os_task.c ****     p_tcb->NamePtr       = p_name;                          /* Save task name                      
 373:..\..\..\..\..\..\Software\uCOS-III\Source/os_task.c **** 
 374:..\..\..\..\..\..\Software\uCOS-III\Source/os_task.c ****     p_tcb->Prio          = prio;                            /* Save the task's priority            
 375:..\..\..\..\..\..\Software\uCOS-III\Source/os_task.c **** 
 376:..\..\..\..\..\..\Software\uCOS-III\Source/os_task.c ****     p_tcb->StkPtr        = p_sp;                            /* Save the new top-of-stack pointer   
 377:..\..\..\..\..\..\Software\uCOS-III\Source/os_task.c ****     p_tcb->StkLimitPtr   = p_stk_limit;                     /* Save the stack limit pointer        
 378:..\..\..\..\..\..\Software\uCOS-III\Source/os_task.c **** 
 379:..\..\..\..\..\..\Software\uCOS-III\Source/os_task.c ****     p_tcb->TimeQuanta    = time_quanta;                     /* Save the #ticks for time slice (0 me
 380:..\..\..\..\..\..\Software\uCOS-III\Source/os_task.c **** #if OS_CFG_SCHED_ROUND_ROBIN_EN > 0u
 381:..\..\..\..\..\..\Software\uCOS-III\Source/os_task.c ****     if (time_quanta == (OS_TICK)0) {
 382:..\..\..\..\..\..\Software\uCOS-III\Source/os_task.c ****         p_tcb->TimeQuantaCtr = OSSchedRoundRobinDfltTimeQuanta;
 383:..\..\..\..\..\..\Software\uCOS-III\Source/os_task.c ****     } else {
 384:..\..\..\..\..\..\Software\uCOS-III\Source/os_task.c ****         p_tcb->TimeQuantaCtr = time_quanta;
 385:..\..\..\..\..\..\Software\uCOS-III\Source/os_task.c ****     }
 386:..\..\..\..\..\..\Software\uCOS-III\Source/os_task.c **** #endif
 387:..\..\..\..\..\..\Software\uCOS-III\Source/os_task.c ****     p_tcb->ExtPtr        = p_ext;                           /* Save pointer to TCB extension       
 388:..\..\..\..\..\..\Software\uCOS-III\Source/os_task.c ****     p_tcb->StkBasePtr    = p_stk_base;                      /* Save pointer to the base address of 
 389:..\..\..\..\..\..\Software\uCOS-III\Source/os_task.c ****     p_tcb->StkSize       = stk_size;                        /* Save the stack size (in number of CP
 390:..\..\..\..\..\..\Software\uCOS-III\Source/os_task.c ****     p_tcb->Opt           = opt;                             /* Save task options                   
 391:..\..\..\..\..\..\Software\uCOS-III\Source/os_task.c **** 
 392:..\..\..\..\..\..\Software\uCOS-III\Source/os_task.c **** #if OS_CFG_TASK_REG_TBL_SIZE > 0u
 393:..\..\..\..\..\..\Software\uCOS-III\Source/os_task.c ****     for (reg_nbr = 0u; reg_nbr < OS_CFG_TASK_REG_TBL_SIZE; reg_nbr++) {
 394:..\..\..\..\..\..\Software\uCOS-III\Source/os_task.c ****         p_tcb->RegTbl[reg_nbr] = (OS_REG)0;
 395:..\..\..\..\..\..\Software\uCOS-III\Source/os_task.c ****     }
 396:..\..\..\..\..\..\Software\uCOS-III\Source/os_task.c **** #endif
 397:..\..\..\..\..\..\Software\uCOS-III\Source/os_task.c **** 
 398:..\..\..\..\..\..\Software\uCOS-III\Source/os_task.c **** #if OS_CFG_TASK_Q_EN > 0u
 399:..\..\..\..\..\..\Software\uCOS-III\Source/os_task.c ****     OS_MsgQInit(&p_tcb->MsgQ,                               /* Initialize the task's message queue 
 400:..\..\..\..\..\..\Software\uCOS-III\Source/os_task.c ****                 q_size);
 401:..\..\..\..\..\..\Software\uCOS-III\Source/os_task.c **** #else
 402:..\..\..\..\..\..\Software\uCOS-III\Source/os_task.c ****     (void)&q_size;
ARM GAS  C:\Users\EDULU~1.DES\AppData\Local\Temp\ccxcKTgR.s 			page 14


 403:..\..\..\..\..\..\Software\uCOS-III\Source/os_task.c **** #endif
 404:..\..\..\..\..\..\Software\uCOS-III\Source/os_task.c **** 
 405:..\..\..\..\..\..\Software\uCOS-III\Source/os_task.c ****     OSTaskCreateHook(p_tcb);                                /* Call user defined hook              
 406:..\..\..\..\..\..\Software\uCOS-III\Source/os_task.c **** 
 407:..\..\..\..\..\..\Software\uCOS-III\Source/os_task.c **** #if defined(OS_CFG_TLS_TBL_SIZE) && (OS_CFG_TLS_TBL_SIZE > 0u)
 408:..\..\..\..\..\..\Software\uCOS-III\Source/os_task.c ****     for (id = 0u; id < OS_CFG_TLS_TBL_SIZE; id++) {
 409:..\..\..\..\..\..\Software\uCOS-III\Source/os_task.c ****         p_tcb->TLS_Tbl[id] = (OS_TLS)0;
 410:..\..\..\..\..\..\Software\uCOS-III\Source/os_task.c ****     }
 411:..\..\..\..\..\..\Software\uCOS-III\Source/os_task.c ****     OS_TLS_TaskCreate(p_tcb);                               /* Call TLS hook                       
 412:..\..\..\..\..\..\Software\uCOS-III\Source/os_task.c **** #endif
 413:..\..\..\..\..\..\Software\uCOS-III\Source/os_task.c ****                                                             /* --------------- ADD TASK TO READY LI
 414:..\..\..\..\..\..\Software\uCOS-III\Source/os_task.c ****     OS_CRITICAL_ENTER();
 415:..\..\..\..\..\..\Software\uCOS-III\Source/os_task.c ****     OS_PrioInsert(p_tcb->Prio);
 416:..\..\..\..\..\..\Software\uCOS-III\Source/os_task.c ****     OS_RdyListInsertTail(p_tcb);
 417:..\..\..\..\..\..\Software\uCOS-III\Source/os_task.c **** 
 418:..\..\..\..\..\..\Software\uCOS-III\Source/os_task.c **** #if OS_CFG_DBG_EN > 0u
 419:..\..\..\..\..\..\Software\uCOS-III\Source/os_task.c ****     OS_TaskDbgListAdd(p_tcb);
 420:..\..\..\..\..\..\Software\uCOS-III\Source/os_task.c **** #endif
 421:..\..\..\..\..\..\Software\uCOS-III\Source/os_task.c **** 
 422:..\..\..\..\..\..\Software\uCOS-III\Source/os_task.c ****     OSTaskQty++;                                            /* Increment the #tasks counter        
 423:..\..\..\..\..\..\Software\uCOS-III\Source/os_task.c **** 
 424:..\..\..\..\..\..\Software\uCOS-III\Source/os_task.c ****     if (OSRunning != OS_STATE_OS_RUNNING) {                 /* Return if multitasking has not start
 425:..\..\..\..\..\..\Software\uCOS-III\Source/os_task.c ****         OS_CRITICAL_EXIT();
 426:..\..\..\..\..\..\Software\uCOS-III\Source/os_task.c ****         return;
 427:..\..\..\..\..\..\Software\uCOS-III\Source/os_task.c ****     }
 428:..\..\..\..\..\..\Software\uCOS-III\Source/os_task.c **** 
 429:..\..\..\..\..\..\Software\uCOS-III\Source/os_task.c ****     OS_CRITICAL_EXIT_NO_SCHED();
 430:..\..\..\..\..\..\Software\uCOS-III\Source/os_task.c **** 
 431:..\..\..\..\..\..\Software\uCOS-III\Source/os_task.c ****     OSSched();
 432:..\..\..\..\..\..\Software\uCOS-III\Source/os_task.c **** }
 433:..\..\..\..\..\..\Software\uCOS-III\Source/os_task.c **** 
 434:..\..\..\..\..\..\Software\uCOS-III\Source/os_task.c **** /*$PAGE*/
 435:..\..\..\..\..\..\Software\uCOS-III\Source/os_task.c **** /*
 436:..\..\..\..\..\..\Software\uCOS-III\Source/os_task.c **** ***************************************************************************************************
 437:..\..\..\..\..\..\Software\uCOS-III\Source/os_task.c **** *                                                     DELETE A TASK
 438:..\..\..\..\..\..\Software\uCOS-III\Source/os_task.c **** *
 439:..\..\..\..\..\..\Software\uCOS-III\Source/os_task.c **** * Description: This function allows you to delete a task.  The calling task can delete itself by sp
 440:..\..\..\..\..\..\Software\uCOS-III\Source/os_task.c **** *              pointer for 'p_tcb'.  The deleted task is returned to the dormant state and can be r
 441:..\..\..\..\..\..\Software\uCOS-III\Source/os_task.c **** *              creating the deleted task again.
 442:..\..\..\..\..\..\Software\uCOS-III\Source/os_task.c **** *
 443:..\..\..\..\..\..\Software\uCOS-III\Source/os_task.c **** * Arguments  : p_tcb      is the TCB of the tack to delete
 444:..\..\..\..\..\..\Software\uCOS-III\Source/os_task.c **** *
 445:..\..\..\..\..\..\Software\uCOS-III\Source/os_task.c **** *              p_err      is a pointer to an error code returned by this function:
 446:..\..\..\..\..\..\Software\uCOS-III\Source/os_task.c **** *
 447:..\..\..\..\..\..\Software\uCOS-III\Source/os_task.c **** *                             OS_ERR_NONE                  if the call is successful
 448:..\..\..\..\..\..\Software\uCOS-III\Source/os_task.c **** *                             OS_ERR_STATE_INVALID         if the state of the task is invalid
 449:..\..\..\..\..\..\Software\uCOS-III\Source/os_task.c **** *                             OS_ERR_TASK_DEL_IDLE         if you attempted to delete uC/OS-III's i
 450:..\..\..\..\..\..\Software\uCOS-III\Source/os_task.c **** *                             OS_ERR_TASK_DEL_INVALID      if you attempted to delete uC/OS-III's I
 451:..\..\..\..\..\..\Software\uCOS-III\Source/os_task.c **** *                             OS_ERR_TASK_DEL_ISR          if you tried to delete a task from an IS
 452:..\..\..\..\..\..\Software\uCOS-III\Source/os_task.c **** *
 453:..\..\..\..\..\..\Software\uCOS-III\Source/os_task.c **** * Note(s)    : 1) 'p_err' gets set to OS_ERR_NONE before OSSched() to allow the returned error code
 454:..\..\..\..\..\..\Software\uCOS-III\Source/os_task.c **** *                 for a task that is deleting itself. In this case, 'p_err' MUST point to a global 
 455:..\..\..\..\..\..\Software\uCOS-III\Source/os_task.c **** *                 accessed by another task.
 456:..\..\..\..\..\..\Software\uCOS-III\Source/os_task.c **** ***************************************************************************************************
 457:..\..\..\..\..\..\Software\uCOS-III\Source/os_task.c **** */
 458:..\..\..\..\..\..\Software\uCOS-III\Source/os_task.c **** 
 459:..\..\..\..\..\..\Software\uCOS-III\Source/os_task.c **** #if OS_CFG_TASK_DEL_EN > 0u
ARM GAS  C:\Users\EDULU~1.DES\AppData\Local\Temp\ccxcKTgR.s 			page 15


 460:..\..\..\..\..\..\Software\uCOS-III\Source/os_task.c **** void  OSTaskDel (OS_TCB  *p_tcb,
 461:..\..\..\..\..\..\Software\uCOS-III\Source/os_task.c ****                  OS_ERR  *p_err)
 462:..\..\..\..\..\..\Software\uCOS-III\Source/os_task.c **** {
 463:..\..\..\..\..\..\Software\uCOS-III\Source/os_task.c ****     CPU_SR_ALLOC();
 464:..\..\..\..\..\..\Software\uCOS-III\Source/os_task.c **** 
 465:..\..\..\..\..\..\Software\uCOS-III\Source/os_task.c **** 
 466:..\..\..\..\..\..\Software\uCOS-III\Source/os_task.c **** 
 467:..\..\..\..\..\..\Software\uCOS-III\Source/os_task.c **** #ifdef OS_SAFETY_CRITICAL
 468:..\..\..\..\..\..\Software\uCOS-III\Source/os_task.c ****     if (p_err == (OS_ERR *)0) {
 469:..\..\..\..\..\..\Software\uCOS-III\Source/os_task.c ****         OS_SAFETY_CRITICAL_EXCEPTION();
 470:..\..\..\..\..\..\Software\uCOS-III\Source/os_task.c ****         return;
 471:..\..\..\..\..\..\Software\uCOS-III\Source/os_task.c ****     }
 472:..\..\..\..\..\..\Software\uCOS-III\Source/os_task.c **** #endif
 473:..\..\..\..\..\..\Software\uCOS-III\Source/os_task.c **** 
 474:..\..\..\..\..\..\Software\uCOS-III\Source/os_task.c **** #if OS_CFG_CALLED_FROM_ISR_CHK_EN > 0u
 475:..\..\..\..\..\..\Software\uCOS-III\Source/os_task.c ****     if (OSIntNestingCtr > (OS_NESTING_CTR)0) {              /* See if trying to delete from ISR    
 476:..\..\..\..\..\..\Software\uCOS-III\Source/os_task.c ****        *p_err = OS_ERR_TASK_DEL_ISR;
 477:..\..\..\..\..\..\Software\uCOS-III\Source/os_task.c ****         return;
 478:..\..\..\..\..\..\Software\uCOS-III\Source/os_task.c ****     }
 479:..\..\..\..\..\..\Software\uCOS-III\Source/os_task.c **** #endif
 480:..\..\..\..\..\..\Software\uCOS-III\Source/os_task.c **** 
 481:..\..\..\..\..\..\Software\uCOS-III\Source/os_task.c ****     if (p_tcb == &OSIdleTaskTCB) {                          /* Not allowed to delete the idle task 
 482:..\..\..\..\..\..\Software\uCOS-III\Source/os_task.c ****        *p_err = OS_ERR_TASK_DEL_IDLE;
 483:..\..\..\..\..\..\Software\uCOS-III\Source/os_task.c ****         return;
 484:..\..\..\..\..\..\Software\uCOS-III\Source/os_task.c ****     }
 485:..\..\..\..\..\..\Software\uCOS-III\Source/os_task.c **** 
 486:..\..\..\..\..\..\Software\uCOS-III\Source/os_task.c **** #if OS_CFG_ISR_POST_DEFERRED_EN > 0u
 487:..\..\..\..\..\..\Software\uCOS-III\Source/os_task.c ****     if (p_tcb == &OSIntQTaskTCB) {                          /* Cannot delete the ISR handler task  
 488:..\..\..\..\..\..\Software\uCOS-III\Source/os_task.c ****        *p_err = OS_ERR_TASK_DEL_INVALID;
 489:..\..\..\..\..\..\Software\uCOS-III\Source/os_task.c ****         return;
 490:..\..\..\..\..\..\Software\uCOS-III\Source/os_task.c ****     }
 491:..\..\..\..\..\..\Software\uCOS-III\Source/os_task.c **** #endif
 492:..\..\..\..\..\..\Software\uCOS-III\Source/os_task.c **** 
 493:..\..\..\..\..\..\Software\uCOS-III\Source/os_task.c ****     if (p_tcb == (OS_TCB *)0) {                             /* Delete 'Self'?                      
 494:..\..\..\..\..\..\Software\uCOS-III\Source/os_task.c ****         CPU_CRITICAL_ENTER();
 495:..\..\..\..\..\..\Software\uCOS-III\Source/os_task.c ****         p_tcb  = OSTCBCurPtr;                               /* Yes.                                
 496:..\..\..\..\..\..\Software\uCOS-III\Source/os_task.c ****         CPU_CRITICAL_EXIT();
 497:..\..\..\..\..\..\Software\uCOS-III\Source/os_task.c ****     }
 498:..\..\..\..\..\..\Software\uCOS-III\Source/os_task.c **** 
 499:..\..\..\..\..\..\Software\uCOS-III\Source/os_task.c ****     OS_CRITICAL_ENTER();
 500:..\..\..\..\..\..\Software\uCOS-III\Source/os_task.c ****     switch (p_tcb->TaskState) {
 501:..\..\..\..\..\..\Software\uCOS-III\Source/os_task.c ****         case OS_TASK_STATE_RDY:
 502:..\..\..\..\..\..\Software\uCOS-III\Source/os_task.c ****              OS_RdyListRemove(p_tcb);
 503:..\..\..\..\..\..\Software\uCOS-III\Source/os_task.c ****              break;
 504:..\..\..\..\..\..\Software\uCOS-III\Source/os_task.c **** 
 505:..\..\..\..\..\..\Software\uCOS-III\Source/os_task.c ****         case OS_TASK_STATE_SUSPENDED:
 506:..\..\..\..\..\..\Software\uCOS-III\Source/os_task.c ****              break;
 507:..\..\..\..\..\..\Software\uCOS-III\Source/os_task.c **** 
 508:..\..\..\..\..\..\Software\uCOS-III\Source/os_task.c ****         case OS_TASK_STATE_DLY:                             /* Task is only delayed, not on any wai
 509:..\..\..\..\..\..\Software\uCOS-III\Source/os_task.c ****         case OS_TASK_STATE_DLY_SUSPENDED:
 510:..\..\..\..\..\..\Software\uCOS-III\Source/os_task.c ****              OS_TickListRemove(p_tcb);
 511:..\..\..\..\..\..\Software\uCOS-III\Source/os_task.c ****              break;
 512:..\..\..\..\..\..\Software\uCOS-III\Source/os_task.c **** 
 513:..\..\..\..\..\..\Software\uCOS-III\Source/os_task.c ****         case OS_TASK_STATE_PEND:
 514:..\..\..\..\..\..\Software\uCOS-III\Source/os_task.c ****         case OS_TASK_STATE_PEND_SUSPENDED:
 515:..\..\..\..\..\..\Software\uCOS-III\Source/os_task.c ****         case OS_TASK_STATE_PEND_TIMEOUT:
 516:..\..\..\..\..\..\Software\uCOS-III\Source/os_task.c ****         case OS_TASK_STATE_PEND_TIMEOUT_SUSPENDED:
ARM GAS  C:\Users\EDULU~1.DES\AppData\Local\Temp\ccxcKTgR.s 			page 16


 517:..\..\..\..\..\..\Software\uCOS-III\Source/os_task.c ****              OS_TickListRemove(p_tcb);
 518:..\..\..\..\..\..\Software\uCOS-III\Source/os_task.c ****              switch (p_tcb->PendOn) {                       /* See what we are pending on          
 519:..\..\..\..\..\..\Software\uCOS-III\Source/os_task.c ****                  case OS_TASK_PEND_ON_NOTHING:
 520:..\..\..\..\..\..\Software\uCOS-III\Source/os_task.c ****                  case OS_TASK_PEND_ON_TASK_Q:               /* There is no wait list for these two 
 521:..\..\..\..\..\..\Software\uCOS-III\Source/os_task.c ****                  case OS_TASK_PEND_ON_TASK_SEM:
 522:..\..\..\..\..\..\Software\uCOS-III\Source/os_task.c ****                       break;
 523:..\..\..\..\..\..\Software\uCOS-III\Source/os_task.c **** 
 524:..\..\..\..\..\..\Software\uCOS-III\Source/os_task.c ****                  case OS_TASK_PEND_ON_FLAG:                 /* Remove from wait list               
 525:..\..\..\..\..\..\Software\uCOS-III\Source/os_task.c ****                  case OS_TASK_PEND_ON_MULTI:
 526:..\..\..\..\..\..\Software\uCOS-III\Source/os_task.c ****                  case OS_TASK_PEND_ON_MUTEX:
 527:..\..\..\..\..\..\Software\uCOS-III\Source/os_task.c ****                  case OS_TASK_PEND_ON_Q:
 528:..\..\..\..\..\..\Software\uCOS-III\Source/os_task.c ****                  case OS_TASK_PEND_ON_SEM:
 529:..\..\..\..\..\..\Software\uCOS-III\Source/os_task.c ****                       OS_PendListRemove(p_tcb);
 530:..\..\..\..\..\..\Software\uCOS-III\Source/os_task.c ****                       break;
 531:..\..\..\..\..\..\Software\uCOS-III\Source/os_task.c **** 
 532:..\..\..\..\..\..\Software\uCOS-III\Source/os_task.c ****                  default:
 533:..\..\..\..\..\..\Software\uCOS-III\Source/os_task.c ****                       break;
 534:..\..\..\..\..\..\Software\uCOS-III\Source/os_task.c ****              }
 535:..\..\..\..\..\..\Software\uCOS-III\Source/os_task.c ****              break;
 536:..\..\..\..\..\..\Software\uCOS-III\Source/os_task.c **** 
 537:..\..\..\..\..\..\Software\uCOS-III\Source/os_task.c ****         default:
 538:..\..\..\..\..\..\Software\uCOS-III\Source/os_task.c ****             OS_CRITICAL_EXIT();
 539:..\..\..\..\..\..\Software\uCOS-III\Source/os_task.c ****            *p_err = OS_ERR_STATE_INVALID;
 540:..\..\..\..\..\..\Software\uCOS-III\Source/os_task.c ****             return;
 541:..\..\..\..\..\..\Software\uCOS-III\Source/os_task.c ****     }
 542:..\..\..\..\..\..\Software\uCOS-III\Source/os_task.c **** 
 543:..\..\..\..\..\..\Software\uCOS-III\Source/os_task.c **** #if OS_CFG_TASK_Q_EN > 0u
 544:..\..\..\..\..\..\Software\uCOS-III\Source/os_task.c ****     (void)OS_MsgQFreeAll(&p_tcb->MsgQ);                     /* Free task's message queue messages  
 545:..\..\..\..\..\..\Software\uCOS-III\Source/os_task.c **** #endif
 546:..\..\..\..\..\..\Software\uCOS-III\Source/os_task.c **** 
 547:..\..\..\..\..\..\Software\uCOS-III\Source/os_task.c ****     OSTaskDelHook(p_tcb);                                   /* Call user defined hook              
 548:..\..\..\..\..\..\Software\uCOS-III\Source/os_task.c **** 
 549:..\..\..\..\..\..\Software\uCOS-III\Source/os_task.c **** #if defined(OS_CFG_TLS_TBL_SIZE) && (OS_CFG_TLS_TBL_SIZE > 0u)
 550:..\..\..\..\..\..\Software\uCOS-III\Source/os_task.c ****     OS_TLS_TaskDel(p_tcb);                                  /* Call TLS hook                       
 551:..\..\..\..\..\..\Software\uCOS-III\Source/os_task.c **** #endif
 552:..\..\..\..\..\..\Software\uCOS-III\Source/os_task.c **** 
 553:..\..\..\..\..\..\Software\uCOS-III\Source/os_task.c **** #if OS_CFG_DBG_EN > 0u
 554:..\..\..\..\..\..\Software\uCOS-III\Source/os_task.c ****     OS_TaskDbgListRemove(p_tcb);
 555:..\..\..\..\..\..\Software\uCOS-III\Source/os_task.c **** #endif
 556:..\..\..\..\..\..\Software\uCOS-III\Source/os_task.c ****     OSTaskQty--;                                            /* One less task being managed         
 557:..\..\..\..\..\..\Software\uCOS-III\Source/os_task.c **** 
 558:..\..\..\..\..\..\Software\uCOS-III\Source/os_task.c ****     OS_TaskInitTCB(p_tcb);                                  /* Initialize the TCB to default values
 559:..\..\..\..\..\..\Software\uCOS-III\Source/os_task.c ****     p_tcb->TaskState = (OS_STATE)OS_TASK_STATE_DEL;         /* Indicate that the task was deleted  
 560:..\..\..\..\..\..\Software\uCOS-III\Source/os_task.c **** 
 561:..\..\..\..\..\..\Software\uCOS-III\Source/os_task.c ****     OS_CRITICAL_EXIT_NO_SCHED();
 562:..\..\..\..\..\..\Software\uCOS-III\Source/os_task.c **** 
 563:..\..\..\..\..\..\Software\uCOS-III\Source/os_task.c ****    *p_err = OS_ERR_NONE;                                    /* See Note #1.                        
 564:..\..\..\..\..\..\Software\uCOS-III\Source/os_task.c **** 
 565:..\..\..\..\..\..\Software\uCOS-III\Source/os_task.c ****     OSSched();                                              /* Find new highest priority task      
 566:..\..\..\..\..\..\Software\uCOS-III\Source/os_task.c **** }
 567:..\..\..\..\..\..\Software\uCOS-III\Source/os_task.c **** #endif
 568:..\..\..\..\..\..\Software\uCOS-III\Source/os_task.c **** 
 569:..\..\..\..\..\..\Software\uCOS-III\Source/os_task.c **** /*$PAGE*/
 570:..\..\..\..\..\..\Software\uCOS-III\Source/os_task.c **** /*
 571:..\..\..\..\..\..\Software\uCOS-III\Source/os_task.c **** ***************************************************************************************************
 572:..\..\..\..\..\..\Software\uCOS-III\Source/os_task.c **** *                                                    FLUSH TASK's QUEUE
 573:..\..\..\..\..\..\Software\uCOS-III\Source/os_task.c **** *
ARM GAS  C:\Users\EDULU~1.DES\AppData\Local\Temp\ccxcKTgR.s 			page 17


 574:..\..\..\..\..\..\Software\uCOS-III\Source/os_task.c **** * Description: This function is used to flush the task's internal message queue.
 575:..\..\..\..\..\..\Software\uCOS-III\Source/os_task.c **** *
 576:..\..\..\..\..\..\Software\uCOS-III\Source/os_task.c **** * Arguments  : p_tcb       is a pointer to the task's OS_TCB.  Specifying a NULL pointer indicates 
 577:..\..\..\..\..\..\Software\uCOS-III\Source/os_task.c **** *                          flush the message queue of the calling task.
 578:..\..\..\..\..\..\Software\uCOS-III\Source/os_task.c **** *
 579:..\..\..\..\..\..\Software\uCOS-III\Source/os_task.c **** *              p_err       is a pointer to a variable that will contain an error code returned by t
 580:..\..\..\..\..\..\Software\uCOS-III\Source/os_task.c **** *
 581:..\..\..\..\..\..\Software\uCOS-III\Source/os_task.c **** *                              OS_ERR_NONE           upon success
 582:..\..\..\..\..\..\Software\uCOS-III\Source/os_task.c **** *                              OS_ERR_FLUSH_ISR      if you called this function from an ISR
 583:..\..\..\..\..\..\Software\uCOS-III\Source/os_task.c **** *
 584:..\..\..\..\..\..\Software\uCOS-III\Source/os_task.c **** * Returns     : The number of entries freed from the queue
 585:..\..\..\..\..\..\Software\uCOS-III\Source/os_task.c **** *
 586:..\..\..\..\..\..\Software\uCOS-III\Source/os_task.c **** * Note(s)     : 1) You should use this function with great care because, when to flush the queue, y
 587:..\..\..\..\..\..\Software\uCOS-III\Source/os_task.c **** *                  references to what the queue entries are pointing to and thus, you could cause '
 588:..\..\..\..\..\..\Software\uCOS-III\Source/os_task.c **** *                  other words, the data you are pointing to that's being referenced by the queue e
 589:..\..\..\..\..\..\Software\uCOS-III\Source/os_task.c **** *                  likely, need to be de-allocated (i.e. freed).
 590:..\..\..\..\..\..\Software\uCOS-III\Source/os_task.c **** ***************************************************************************************************
 591:..\..\..\..\..\..\Software\uCOS-III\Source/os_task.c **** */
 592:..\..\..\..\..\..\Software\uCOS-III\Source/os_task.c **** 
 593:..\..\..\..\..\..\Software\uCOS-III\Source/os_task.c **** #if OS_CFG_TASK_Q_EN > 0u
 594:..\..\..\..\..\..\Software\uCOS-III\Source/os_task.c **** OS_MSG_QTY  OSTaskQFlush (OS_TCB  *p_tcb,
 595:..\..\..\..\..\..\Software\uCOS-III\Source/os_task.c ****                           OS_ERR  *p_err)
 596:..\..\..\..\..\..\Software\uCOS-III\Source/os_task.c **** {
 597:..\..\..\..\..\..\Software\uCOS-III\Source/os_task.c ****     OS_MSG_QTY  entries;
 598:..\..\..\..\..\..\Software\uCOS-III\Source/os_task.c ****     CPU_SR_ALLOC();
 599:..\..\..\..\..\..\Software\uCOS-III\Source/os_task.c **** 
 600:..\..\..\..\..\..\Software\uCOS-III\Source/os_task.c **** 
 601:..\..\..\..\..\..\Software\uCOS-III\Source/os_task.c **** 
 602:..\..\..\..\..\..\Software\uCOS-III\Source/os_task.c **** #ifdef OS_SAFETY_CRITICAL
 603:..\..\..\..\..\..\Software\uCOS-III\Source/os_task.c ****     if (p_err == (OS_ERR *)0) {
 604:..\..\..\..\..\..\Software\uCOS-III\Source/os_task.c ****         OS_SAFETY_CRITICAL_EXCEPTION();
 605:..\..\..\..\..\..\Software\uCOS-III\Source/os_task.c ****         return ((OS_MSG_QTY)0);
 606:..\..\..\..\..\..\Software\uCOS-III\Source/os_task.c ****     }
 607:..\..\..\..\..\..\Software\uCOS-III\Source/os_task.c **** #endif
 608:..\..\..\..\..\..\Software\uCOS-III\Source/os_task.c **** 
 609:..\..\..\..\..\..\Software\uCOS-III\Source/os_task.c **** #if OS_CFG_CALLED_FROM_ISR_CHK_EN > 0u
 610:..\..\..\..\..\..\Software\uCOS-III\Source/os_task.c ****     if (OSIntNestingCtr > (OS_NESTING_CTR)0) {              /* Can't flush a message queue from an 
 611:..\..\..\..\..\..\Software\uCOS-III\Source/os_task.c ****        *p_err = OS_ERR_FLUSH_ISR;
 612:..\..\..\..\..\..\Software\uCOS-III\Source/os_task.c ****         return ((OS_MSG_QTY)0);
 613:..\..\..\..\..\..\Software\uCOS-III\Source/os_task.c ****     }
 614:..\..\..\..\..\..\Software\uCOS-III\Source/os_task.c **** #endif
 615:..\..\..\..\..\..\Software\uCOS-III\Source/os_task.c **** 
 616:..\..\..\..\..\..\Software\uCOS-III\Source/os_task.c ****     if (p_tcb == (OS_TCB *)0) {                             /* Flush message queue of calling task?
 617:..\..\..\..\..\..\Software\uCOS-III\Source/os_task.c ****         CPU_CRITICAL_ENTER();
 618:..\..\..\..\..\..\Software\uCOS-III\Source/os_task.c ****         p_tcb = OSTCBCurPtr;
 619:..\..\..\..\..\..\Software\uCOS-III\Source/os_task.c ****         CPU_CRITICAL_EXIT();
 620:..\..\..\..\..\..\Software\uCOS-III\Source/os_task.c ****     }
 621:..\..\..\..\..\..\Software\uCOS-III\Source/os_task.c **** 
 622:..\..\..\..\..\..\Software\uCOS-III\Source/os_task.c ****     OS_CRITICAL_ENTER();
 623:..\..\..\..\..\..\Software\uCOS-III\Source/os_task.c ****     entries = OS_MsgQFreeAll(&p_tcb->MsgQ);                 /* Return all OS_MSGs to the OS_MSG poo
 624:..\..\..\..\..\..\Software\uCOS-III\Source/os_task.c ****     OS_CRITICAL_EXIT();
 625:..\..\..\..\..\..\Software\uCOS-III\Source/os_task.c ****    *p_err   = OS_ERR_NONE;
 626:..\..\..\..\..\..\Software\uCOS-III\Source/os_task.c ****     return (entries);
 627:..\..\..\..\..\..\Software\uCOS-III\Source/os_task.c **** }
 628:..\..\..\..\..\..\Software\uCOS-III\Source/os_task.c **** #endif
 629:..\..\..\..\..\..\Software\uCOS-III\Source/os_task.c **** 
 630:..\..\..\..\..\..\Software\uCOS-III\Source/os_task.c **** /*$PAGE*/
ARM GAS  C:\Users\EDULU~1.DES\AppData\Local\Temp\ccxcKTgR.s 			page 18


 631:..\..\..\..\..\..\Software\uCOS-III\Source/os_task.c **** /*
 632:..\..\..\..\..\..\Software\uCOS-III\Source/os_task.c **** ***************************************************************************************************
 633:..\..\..\..\..\..\Software\uCOS-III\Source/os_task.c **** *                                                  WAIT FOR A MESSAGE
 634:..\..\..\..\..\..\Software\uCOS-III\Source/os_task.c **** *
 635:..\..\..\..\..\..\Software\uCOS-III\Source/os_task.c **** * Description: This function causes the current task to wait for a message to be posted to it.
 636:..\..\..\..\..\..\Software\uCOS-III\Source/os_task.c **** *
 637:..\..\..\..\..\..\Software\uCOS-III\Source/os_task.c **** * Arguments  : timeout       is an optional timeout period (in clock ticks).  If non-zero, your tas
 638:..\..\..\..\..\..\Software\uCOS-III\Source/os_task.c **** *                            message to arrive up to the amount of time specified by this argument.
 639:..\..\..\..\..\..\Software\uCOS-III\Source/os_task.c **** *                            If you specify 0, however, your task will wait forever or, until a mes
 640:..\..\..\..\..\..\Software\uCOS-III\Source/os_task.c **** *
 641:..\..\..\..\..\..\Software\uCOS-III\Source/os_task.c **** *              opt           determines whether the user wants to block if the task's queue is empt
 642:..\..\..\..\..\..\Software\uCOS-III\Source/os_task.c **** *
 643:..\..\..\..\..\..\Software\uCOS-III\Source/os_task.c **** *                                OS_OPT_PEND_BLOCKING
 644:..\..\..\..\..\..\Software\uCOS-III\Source/os_task.c **** *                                OS_OPT_PEND_NON_BLOCKING
 645:..\..\..\..\..\..\Software\uCOS-III\Source/os_task.c **** *
 646:..\..\..\..\..\..\Software\uCOS-III\Source/os_task.c **** *              p_msg_size    is a pointer to a variable that will receive the size of the message
 647:..\..\..\..\..\..\Software\uCOS-III\Source/os_task.c **** *
 648:..\..\..\..\..\..\Software\uCOS-III\Source/os_task.c **** *              p_ts          is a pointer to a variable that will receive the timestamp of when the
 649:..\..\..\..\..\..\Software\uCOS-III\Source/os_task.c **** *                            received.  If you pass a NULL pointer (i.e. (CPU_TS *)0) then you will
 650:..\..\..\..\..\..\Software\uCOS-III\Source/os_task.c **** *                            timestamp.  In other words, passing a NULL pointer is valid and indica
 651:..\..\..\..\..\..\Software\uCOS-III\Source/os_task.c **** *                            need the timestamp.
 652:..\..\..\..\..\..\Software\uCOS-III\Source/os_task.c **** *
 653:..\..\..\..\..\..\Software\uCOS-III\Source/os_task.c **** *              p_err         is a pointer to where an error message will be deposited.  Possible er
 654:..\..\..\..\..\..\Software\uCOS-III\Source/os_task.c **** *                            messages are:
 655:..\..\..\..\..\..\Software\uCOS-III\Source/os_task.c **** *
 656:..\..\..\..\..\..\Software\uCOS-III\Source/os_task.c **** *                                OS_ERR_NONE               The call was successful and your task re
 657:..\..\..\..\..\..\Software\uCOS-III\Source/os_task.c **** *                                OS_ERR_PEND_ABORT
 658:..\..\..\..\..\..\Software\uCOS-III\Source/os_task.c **** *                                OS_ERR_PEND_ISR           If you called this function from an ISR 
 659:..\..\..\..\..\..\Software\uCOS-III\Source/os_task.c **** *                                OS_ERR_PEND_WOULD_BLOCK   If you specified non-blocking but the qu
 660:..\..\..\..\..\..\Software\uCOS-III\Source/os_task.c **** *                                OS_ERR_Q_EMPTY
 661:..\..\..\..\..\..\Software\uCOS-III\Source/os_task.c **** *                                OS_ERR_SCHED_LOCKED       If the scheduler is locked
 662:..\..\..\..\..\..\Software\uCOS-III\Source/os_task.c **** *                                OS_ERR_TIMEOUT            A message was not received within the sp
 663:..\..\..\..\..\..\Software\uCOS-III\Source/os_task.c **** *                                                          would lead to a suspension.
 664:..\..\..\..\..\..\Software\uCOS-III\Source/os_task.c **** *
 665:..\..\..\..\..\..\Software\uCOS-III\Source/os_task.c **** * Returns    : A pointer to the message received or a NULL pointer upon error.
 666:..\..\..\..\..\..\Software\uCOS-III\Source/os_task.c **** *
 667:..\..\..\..\..\..\Software\uCOS-III\Source/os_task.c **** * Note(s)    : 1) It is possible to receive NULL pointers when there are no errors.
 668:..\..\..\..\..\..\Software\uCOS-III\Source/os_task.c **** ***************************************************************************************************
 669:..\..\..\..\..\..\Software\uCOS-III\Source/os_task.c **** */
 670:..\..\..\..\..\..\Software\uCOS-III\Source/os_task.c **** 
 671:..\..\..\..\..\..\Software\uCOS-III\Source/os_task.c **** #if OS_CFG_TASK_Q_EN > 0u
 672:..\..\..\..\..\..\Software\uCOS-III\Source/os_task.c **** void  *OSTaskQPend (OS_TICK       timeout,
 673:..\..\..\..\..\..\Software\uCOS-III\Source/os_task.c ****                     OS_OPT        opt,
 674:..\..\..\..\..\..\Software\uCOS-III\Source/os_task.c ****                     OS_MSG_SIZE  *p_msg_size,
 675:..\..\..\..\..\..\Software\uCOS-III\Source/os_task.c ****                     CPU_TS       *p_ts,
 676:..\..\..\..\..\..\Software\uCOS-III\Source/os_task.c ****                     OS_ERR       *p_err)
 677:..\..\..\..\..\..\Software\uCOS-III\Source/os_task.c **** {
 678:..\..\..\..\..\..\Software\uCOS-III\Source/os_task.c ****     OS_MSG_Q     *p_msg_q;
 679:..\..\..\..\..\..\Software\uCOS-III\Source/os_task.c ****     void         *p_void;
 680:..\..\..\..\..\..\Software\uCOS-III\Source/os_task.c ****     CPU_SR_ALLOC();
 681:..\..\..\..\..\..\Software\uCOS-III\Source/os_task.c **** 
 682:..\..\..\..\..\..\Software\uCOS-III\Source/os_task.c **** 
 683:..\..\..\..\..\..\Software\uCOS-III\Source/os_task.c **** 
 684:..\..\..\..\..\..\Software\uCOS-III\Source/os_task.c **** #ifdef OS_SAFETY_CRITICAL
 685:..\..\..\..\..\..\Software\uCOS-III\Source/os_task.c ****     if (p_err == (OS_ERR *)0) {
 686:..\..\..\..\..\..\Software\uCOS-III\Source/os_task.c ****         OS_SAFETY_CRITICAL_EXCEPTION();
 687:..\..\..\..\..\..\Software\uCOS-III\Source/os_task.c ****         return ((void *)0);
ARM GAS  C:\Users\EDULU~1.DES\AppData\Local\Temp\ccxcKTgR.s 			page 19


 688:..\..\..\..\..\..\Software\uCOS-III\Source/os_task.c ****     }
 689:..\..\..\..\..\..\Software\uCOS-III\Source/os_task.c **** #endif
 690:..\..\..\..\..\..\Software\uCOS-III\Source/os_task.c **** 
 691:..\..\..\..\..\..\Software\uCOS-III\Source/os_task.c **** #if OS_CFG_CALLED_FROM_ISR_CHK_EN > 0u
 692:..\..\..\..\..\..\Software\uCOS-III\Source/os_task.c ****     if (OSIntNestingCtr > (OS_NESTING_CTR)0) {              /* Can't Pend from an ISR              
 693:..\..\..\..\..\..\Software\uCOS-III\Source/os_task.c ****        *p_err = OS_ERR_PEND_ISR;
 694:..\..\..\..\..\..\Software\uCOS-III\Source/os_task.c ****         return ((void *)0);
 695:..\..\..\..\..\..\Software\uCOS-III\Source/os_task.c ****     }
 696:..\..\..\..\..\..\Software\uCOS-III\Source/os_task.c **** #endif
 697:..\..\..\..\..\..\Software\uCOS-III\Source/os_task.c **** 
 698:..\..\..\..\..\..\Software\uCOS-III\Source/os_task.c **** #if OS_CFG_ARG_CHK_EN > 0u                                  /* ---------------- VALIDATE ARGUMENTS 
 699:..\..\..\..\..\..\Software\uCOS-III\Source/os_task.c ****     if (p_msg_size == (OS_MSG_SIZE *)0) {                   /* User must supply a valid destination
 700:..\..\..\..\..\..\Software\uCOS-III\Source/os_task.c ****        *p_err = OS_ERR_PTR_INVALID;
 701:..\..\..\..\..\..\Software\uCOS-III\Source/os_task.c ****         return ((void *)0);
 702:..\..\..\..\..\..\Software\uCOS-III\Source/os_task.c ****     }
 703:..\..\..\..\..\..\Software\uCOS-III\Source/os_task.c ****     switch (opt) {                                          /* User must supply a valid option     
 704:..\..\..\..\..\..\Software\uCOS-III\Source/os_task.c ****         case OS_OPT_PEND_BLOCKING:
 705:..\..\..\..\..\..\Software\uCOS-III\Source/os_task.c ****         case OS_OPT_PEND_NON_BLOCKING:
 706:..\..\..\..\..\..\Software\uCOS-III\Source/os_task.c ****              break;
 707:..\..\..\..\..\..\Software\uCOS-III\Source/os_task.c **** 
 708:..\..\..\..\..\..\Software\uCOS-III\Source/os_task.c ****         default:
 709:..\..\..\..\..\..\Software\uCOS-III\Source/os_task.c ****             *p_err = OS_ERR_OPT_INVALID;
 710:..\..\..\..\..\..\Software\uCOS-III\Source/os_task.c ****              return ((void *)0);
 711:..\..\..\..\..\..\Software\uCOS-III\Source/os_task.c ****     }
 712:..\..\..\..\..\..\Software\uCOS-III\Source/os_task.c **** #endif
 713:..\..\..\..\..\..\Software\uCOS-III\Source/os_task.c **** 
 714:..\..\..\..\..\..\Software\uCOS-III\Source/os_task.c ****     if (p_ts != (CPU_TS *)0) {
 715:..\..\..\..\..\..\Software\uCOS-III\Source/os_task.c ****        *p_ts  = (CPU_TS  )0;                                /* Initialize the returned timestamp   
 716:..\..\..\..\..\..\Software\uCOS-III\Source/os_task.c ****     }
 717:..\..\..\..\..\..\Software\uCOS-III\Source/os_task.c **** 
 718:..\..\..\..\..\..\Software\uCOS-III\Source/os_task.c ****     CPU_CRITICAL_ENTER();
 719:..\..\..\..\..\..\Software\uCOS-III\Source/os_task.c ****     p_msg_q = &OSTCBCurPtr->MsgQ;                           /* Any message waiting in the message q
 720:..\..\..\..\..\..\Software\uCOS-III\Source/os_task.c ****     p_void  = OS_MsgQGet(p_msg_q,
 721:..\..\..\..\..\..\Software\uCOS-III\Source/os_task.c ****                          p_msg_size,
 722:..\..\..\..\..\..\Software\uCOS-III\Source/os_task.c ****                          p_ts,
 723:..\..\..\..\..\..\Software\uCOS-III\Source/os_task.c ****                          p_err);
 724:..\..\..\..\..\..\Software\uCOS-III\Source/os_task.c ****     if (*p_err == OS_ERR_NONE) {
 725:..\..\..\..\..\..\Software\uCOS-III\Source/os_task.c **** #if OS_CFG_TASK_PROFILE_EN > 0u
 726:..\..\..\..\..\..\Software\uCOS-III\Source/os_task.c ****         if (p_ts != (CPU_TS *)0) {
 727:..\..\..\..\..\..\Software\uCOS-III\Source/os_task.c ****             OSTCBCurPtr->MsgQPendTime = OS_TS_GET() - *p_ts;
 728:..\..\..\..\..\..\Software\uCOS-III\Source/os_task.c ****             if (OSTCBCurPtr->MsgQPendTimeMax < OSTCBCurPtr->MsgQPendTime) {
 729:..\..\..\..\..\..\Software\uCOS-III\Source/os_task.c ****                 OSTCBCurPtr->MsgQPendTimeMax = OSTCBCurPtr->MsgQPendTime;
 730:..\..\..\..\..\..\Software\uCOS-III\Source/os_task.c ****             }
 731:..\..\..\..\..\..\Software\uCOS-III\Source/os_task.c ****         }
 732:..\..\..\..\..\..\Software\uCOS-III\Source/os_task.c **** #endif
 733:..\..\..\..\..\..\Software\uCOS-III\Source/os_task.c ****         CPU_CRITICAL_EXIT();
 734:..\..\..\..\..\..\Software\uCOS-III\Source/os_task.c ****         return (p_void);                                    /* Yes, Return oldest message received 
 735:..\..\..\..\..\..\Software\uCOS-III\Source/os_task.c ****     }
 736:..\..\..\..\..\..\Software\uCOS-III\Source/os_task.c **** 
 737:..\..\..\..\..\..\Software\uCOS-III\Source/os_task.c ****     if ((opt & OS_OPT_PEND_NON_BLOCKING) != (OS_OPT)0) {    /* Caller wants to block if not availab
 738:..\..\..\..\..\..\Software\uCOS-III\Source/os_task.c ****        *p_err = OS_ERR_PEND_WOULD_BLOCK;                    /* No                                  
 739:..\..\..\..\..\..\Software\uCOS-III\Source/os_task.c ****         CPU_CRITICAL_EXIT();
 740:..\..\..\..\..\..\Software\uCOS-III\Source/os_task.c ****         return ((void *)0);
 741:..\..\..\..\..\..\Software\uCOS-III\Source/os_task.c ****     } else {                                                /* Yes                                 
 742:..\..\..\..\..\..\Software\uCOS-III\Source/os_task.c ****         if (OSSchedLockNestingCtr > (OS_NESTING_CTR)0) {    /*     Can't block when the scheduler i
 743:..\..\..\..\..\..\Software\uCOS-III\Source/os_task.c ****             CPU_CRITICAL_EXIT();
 744:..\..\..\..\..\..\Software\uCOS-III\Source/os_task.c ****            *p_err = OS_ERR_SCHED_LOCKED;
ARM GAS  C:\Users\EDULU~1.DES\AppData\Local\Temp\ccxcKTgR.s 			page 20


 745:..\..\..\..\..\..\Software\uCOS-III\Source/os_task.c ****             return ((void *)0);
 746:..\..\..\..\..\..\Software\uCOS-III\Source/os_task.c ****         }
 747:..\..\..\..\..\..\Software\uCOS-III\Source/os_task.c ****     }
 748:..\..\..\..\..\..\Software\uCOS-III\Source/os_task.c ****                                                             /* Lock the scheduler/re-enable interru
 749:..\..\..\..\..\..\Software\uCOS-III\Source/os_task.c ****     OS_CRITICAL_ENTER_CPU_EXIT();
 750:..\..\..\..\..\..\Software\uCOS-III\Source/os_task.c ****     OS_Pend((OS_PEND_DATA *)0,                              /* Block task pending on Message       
 751:..\..\..\..\..\..\Software\uCOS-III\Source/os_task.c ****             (OS_PEND_OBJ  *)0,
 752:..\..\..\..\..\..\Software\uCOS-III\Source/os_task.c ****             (OS_STATE      )OS_TASK_PEND_ON_TASK_Q,
 753:..\..\..\..\..\..\Software\uCOS-III\Source/os_task.c ****             (OS_TICK       )timeout);
 754:..\..\..\..\..\..\Software\uCOS-III\Source/os_task.c ****     OS_CRITICAL_EXIT_NO_SCHED();
 755:..\..\..\..\..\..\Software\uCOS-III\Source/os_task.c **** 
 756:..\..\..\..\..\..\Software\uCOS-III\Source/os_task.c ****     OSSched();                                              /* Find the next highest priority task 
 757:..\..\..\..\..\..\Software\uCOS-III\Source/os_task.c **** 
 758:..\..\..\..\..\..\Software\uCOS-III\Source/os_task.c ****     CPU_CRITICAL_ENTER();
 759:..\..\..\..\..\..\Software\uCOS-III\Source/os_task.c ****     switch (OSTCBCurPtr->PendStatus) {
 760:..\..\..\..\..\..\Software\uCOS-III\Source/os_task.c ****         case OS_STATUS_PEND_OK:                             /* Extract message from TCB (Put there 
 761:..\..\..\..\..\..\Software\uCOS-III\Source/os_task.c ****              p_void      = OSTCBCurPtr->MsgPtr;
 762:..\..\..\..\..\..\Software\uCOS-III\Source/os_task.c ****             *p_msg_size  = OSTCBCurPtr->MsgSize;
 763:..\..\..\..\..\..\Software\uCOS-III\Source/os_task.c ****              if (p_ts != (CPU_TS *)0) {
 764:..\..\..\..\..\..\Software\uCOS-III\Source/os_task.c ****                 *p_ts  = OSTCBCurPtr->TS;
 765:..\..\..\..\..\..\Software\uCOS-III\Source/os_task.c **** #if OS_CFG_TASK_PROFILE_EN > 0u
 766:..\..\..\..\..\..\Software\uCOS-III\Source/os_task.c ****                 OSTCBCurPtr->MsgQPendTime = OS_TS_GET() - OSTCBCurPtr->TS;
 767:..\..\..\..\..\..\Software\uCOS-III\Source/os_task.c ****                 if (OSTCBCurPtr->MsgQPendTimeMax < OSTCBCurPtr->MsgQPendTime) {
 768:..\..\..\..\..\..\Software\uCOS-III\Source/os_task.c ****                     OSTCBCurPtr->MsgQPendTimeMax = OSTCBCurPtr->MsgQPendTime;
 769:..\..\..\..\..\..\Software\uCOS-III\Source/os_task.c ****                 }
 770:..\..\..\..\..\..\Software\uCOS-III\Source/os_task.c **** #endif
 771:..\..\..\..\..\..\Software\uCOS-III\Source/os_task.c ****              }
 772:..\..\..\..\..\..\Software\uCOS-III\Source/os_task.c ****             *p_err = OS_ERR_NONE;
 773:..\..\..\..\..\..\Software\uCOS-III\Source/os_task.c ****              break;
 774:..\..\..\..\..\..\Software\uCOS-III\Source/os_task.c **** 
 775:..\..\..\..\..\..\Software\uCOS-III\Source/os_task.c ****         case OS_STATUS_PEND_ABORT:                          /* Indicate that we aborted            
 776:..\..\..\..\..\..\Software\uCOS-III\Source/os_task.c ****              p_void     = (void      *)0;
 777:..\..\..\..\..\..\Software\uCOS-III\Source/os_task.c ****             *p_msg_size = (OS_MSG_SIZE)0;
 778:..\..\..\..\..\..\Software\uCOS-III\Source/os_task.c ****              if (p_ts  != (CPU_TS *)0) {
 779:..\..\..\..\..\..\Software\uCOS-III\Source/os_task.c ****                 *p_ts   = (CPU_TS  )0;
 780:..\..\..\..\..\..\Software\uCOS-III\Source/os_task.c ****              }
 781:..\..\..\..\..\..\Software\uCOS-III\Source/os_task.c ****             *p_err      =  OS_ERR_PEND_ABORT;
 782:..\..\..\..\..\..\Software\uCOS-III\Source/os_task.c ****              break;
 783:..\..\..\..\..\..\Software\uCOS-III\Source/os_task.c **** 
 784:..\..\..\..\..\..\Software\uCOS-III\Source/os_task.c ****         case OS_STATUS_PEND_TIMEOUT:                        /* Indicate that we didn't get event wi
 785:..\..\..\..\..\..\Software\uCOS-III\Source/os_task.c ****         default:
 786:..\..\..\..\..\..\Software\uCOS-III\Source/os_task.c ****              p_void     = (void      *)0;
 787:..\..\..\..\..\..\Software\uCOS-III\Source/os_task.c ****             *p_msg_size = (OS_MSG_SIZE)0;
 788:..\..\..\..\..\..\Software\uCOS-III\Source/os_task.c ****              if (p_ts  != (CPU_TS *)0) {
 789:..\..\..\..\..\..\Software\uCOS-III\Source/os_task.c ****                 *p_ts   =  OSTCBCurPtr->TS;
 790:..\..\..\..\..\..\Software\uCOS-III\Source/os_task.c ****              }
 791:..\..\..\..\..\..\Software\uCOS-III\Source/os_task.c ****             *p_err      =  OS_ERR_TIMEOUT;
 792:..\..\..\..\..\..\Software\uCOS-III\Source/os_task.c ****              break;
 793:..\..\..\..\..\..\Software\uCOS-III\Source/os_task.c ****     }
 794:..\..\..\..\..\..\Software\uCOS-III\Source/os_task.c ****     CPU_CRITICAL_EXIT();
 795:..\..\..\..\..\..\Software\uCOS-III\Source/os_task.c ****     return (p_void);                                        /* Return received message             
 796:..\..\..\..\..\..\Software\uCOS-III\Source/os_task.c **** }
 797:..\..\..\..\..\..\Software\uCOS-III\Source/os_task.c **** #endif
 798:..\..\..\..\..\..\Software\uCOS-III\Source/os_task.c **** 
 799:..\..\..\..\..\..\Software\uCOS-III\Source/os_task.c **** /*$PAGE*/
 800:..\..\..\..\..\..\Software\uCOS-III\Source/os_task.c **** /*
 801:..\..\..\..\..\..\Software\uCOS-III\Source/os_task.c **** ***************************************************************************************************
ARM GAS  C:\Users\EDULU~1.DES\AppData\Local\Temp\ccxcKTgR.s 			page 21


 802:..\..\..\..\..\..\Software\uCOS-III\Source/os_task.c **** *                                              ABORT WAITING FOR A MESSAGE
 803:..\..\..\..\..\..\Software\uCOS-III\Source/os_task.c **** *
 804:..\..\..\..\..\..\Software\uCOS-III\Source/os_task.c **** * Description: This function aborts & readies the task specified.  This function should be used to 
 805:..\..\..\..\..\..\Software\uCOS-III\Source/os_task.c **** *              for a message, rather than to normally post the message to the task via OSTaskQPost(
 806:..\..\..\..\..\..\Software\uCOS-III\Source/os_task.c **** *
 807:..\..\..\..\..\..\Software\uCOS-III\Source/os_task.c **** * Arguments  : p_tcb     is a pointer to the task to pend abort
 808:..\..\..\..\..\..\Software\uCOS-III\Source/os_task.c **** *
 809:..\..\..\..\..\..\Software\uCOS-III\Source/os_task.c **** *              opt       provides options for this function:
 810:..\..\..\..\..\..\Software\uCOS-III\Source/os_task.c **** *
 811:..\..\..\..\..\..\Software\uCOS-III\Source/os_task.c **** *                            OS_OPT_POST_NONE         No option specified
 812:..\..\..\..\..\..\Software\uCOS-III\Source/os_task.c **** *                            OS_OPT_POST_NO_SCHED     Indicates that the scheduler will not be call
 813:..\..\..\..\..\..\Software\uCOS-III\Source/os_task.c **** *
 814:..\..\..\..\..\..\Software\uCOS-III\Source/os_task.c **** *              p_err     is a pointer to a variable that will contain an error code returned by thi
 815:..\..\..\..\..\..\Software\uCOS-III\Source/os_task.c **** *
 816:..\..\..\..\..\..\Software\uCOS-III\Source/os_task.c **** *                            OS_ERR_NONE              If the task was readied and informed of the a
 817:..\..\..\..\..\..\Software\uCOS-III\Source/os_task.c **** *                            OS_ERR_PEND_ABORT_ISR    If you called this function from an ISR
 818:..\..\..\..\..\..\Software\uCOS-III\Source/os_task.c **** *                            OS_ERR_PEND_ABORT_NONE   If task was not pending on a message and thus
 819:..\..\..\..\..\..\Software\uCOS-III\Source/os_task.c **** *                                                     abort.
 820:..\..\..\..\..\..\Software\uCOS-III\Source/os_task.c **** *                            OS_ERR_PEND_ABORT_SELF   If you passed a NULL pointer for 'p_tcb'
 821:..\..\..\..\..\..\Software\uCOS-III\Source/os_task.c **** *
 822:..\..\..\..\..\..\Software\uCOS-III\Source/os_task.c **** * Returns    : == DEF_FALSE   if task was not waiting for a message, or upon error.
 823:..\..\..\..\..\..\Software\uCOS-III\Source/os_task.c **** *              == DEF_TRUE    if task was waiting for a message and was readied and informed.
 824:..\..\..\..\..\..\Software\uCOS-III\Source/os_task.c **** ***************************************************************************************************
 825:..\..\..\..\..\..\Software\uCOS-III\Source/os_task.c **** */
 826:..\..\..\..\..\..\Software\uCOS-III\Source/os_task.c **** 
 827:..\..\..\..\..\..\Software\uCOS-III\Source/os_task.c **** #if (OS_CFG_TASK_Q_EN > 0u) && (OS_CFG_TASK_Q_PEND_ABORT_EN > 0u)
 828:..\..\..\..\..\..\Software\uCOS-III\Source/os_task.c **** CPU_BOOLEAN  OSTaskQPendAbort (OS_TCB  *p_tcb,
 829:..\..\..\..\..\..\Software\uCOS-III\Source/os_task.c ****                                OS_OPT   opt,
 830:..\..\..\..\..\..\Software\uCOS-III\Source/os_task.c ****                                OS_ERR  *p_err)
 831:..\..\..\..\..\..\Software\uCOS-III\Source/os_task.c **** {
 832:..\..\..\..\..\..\Software\uCOS-III\Source/os_task.c ****     CPU_TS         ts;
 833:..\..\..\..\..\..\Software\uCOS-III\Source/os_task.c ****     CPU_SR_ALLOC();
 834:..\..\..\..\..\..\Software\uCOS-III\Source/os_task.c **** 
 835:..\..\..\..\..\..\Software\uCOS-III\Source/os_task.c **** 
 836:..\..\..\..\..\..\Software\uCOS-III\Source/os_task.c **** 
 837:..\..\..\..\..\..\Software\uCOS-III\Source/os_task.c **** #ifdef OS_SAFETY_CRITICAL
 838:..\..\..\..\..\..\Software\uCOS-III\Source/os_task.c ****     if (p_err == (OS_ERR *)0) {
 839:..\..\..\..\..\..\Software\uCOS-III\Source/os_task.c ****         OS_SAFETY_CRITICAL_EXCEPTION();
 840:..\..\..\..\..\..\Software\uCOS-III\Source/os_task.c ****         return (DEF_FALSE);
 841:..\..\..\..\..\..\Software\uCOS-III\Source/os_task.c ****     }
 842:..\..\..\..\..\..\Software\uCOS-III\Source/os_task.c **** #endif
 843:..\..\..\..\..\..\Software\uCOS-III\Source/os_task.c **** 
 844:..\..\..\..\..\..\Software\uCOS-III\Source/os_task.c **** #if OS_CFG_CALLED_FROM_ISR_CHK_EN > 0u
 845:..\..\..\..\..\..\Software\uCOS-III\Source/os_task.c ****     if (OSIntNestingCtr > (OS_NESTING_CTR)0) {              /* See if called from ISR ...          
 846:..\..\..\..\..\..\Software\uCOS-III\Source/os_task.c ****        *p_err = OS_ERR_PEND_ABORT_ISR;                      /* ... can't Pend Abort from an ISR    
 847:..\..\..\..\..\..\Software\uCOS-III\Source/os_task.c ****         return (DEF_FALSE);
 848:..\..\..\..\..\..\Software\uCOS-III\Source/os_task.c ****     }
 849:..\..\..\..\..\..\Software\uCOS-III\Source/os_task.c **** #endif
 850:..\..\..\..\..\..\Software\uCOS-III\Source/os_task.c **** 
 851:..\..\..\..\..\..\Software\uCOS-III\Source/os_task.c **** #if OS_CFG_ARG_CHK_EN > 0u                                  /* ---------------- VALIDATE ARGUMENTS 
 852:..\..\..\..\..\..\Software\uCOS-III\Source/os_task.c ****     switch (opt) {                                          /* User must supply a valid option     
 853:..\..\..\..\..\..\Software\uCOS-III\Source/os_task.c ****         case OS_OPT_POST_NONE:
 854:..\..\..\..\..\..\Software\uCOS-III\Source/os_task.c ****         case OS_OPT_POST_NO_SCHED:
 855:..\..\..\..\..\..\Software\uCOS-III\Source/os_task.c ****              break;
 856:..\..\..\..\..\..\Software\uCOS-III\Source/os_task.c **** 
 857:..\..\..\..\..\..\Software\uCOS-III\Source/os_task.c ****         default:
 858:..\..\..\..\..\..\Software\uCOS-III\Source/os_task.c ****             *p_err = OS_ERR_OPT_INVALID;
ARM GAS  C:\Users\EDULU~1.DES\AppData\Local\Temp\ccxcKTgR.s 			page 22


 859:..\..\..\..\..\..\Software\uCOS-III\Source/os_task.c ****              return (DEF_FALSE);
 860:..\..\..\..\..\..\Software\uCOS-III\Source/os_task.c ****     }
 861:..\..\..\..\..\..\Software\uCOS-III\Source/os_task.c **** #endif
 862:..\..\..\..\..\..\Software\uCOS-III\Source/os_task.c **** 
 863:..\..\..\..\..\..\Software\uCOS-III\Source/os_task.c ****     CPU_CRITICAL_ENTER();
 864:..\..\..\..\..\..\Software\uCOS-III\Source/os_task.c **** #if OS_CFG_ARG_CHK_EN > 0u
 865:..\..\..\..\..\..\Software\uCOS-III\Source/os_task.c ****     if ((p_tcb == (OS_TCB *)0) ||                           /* Pend abort self?                    
 866:..\..\..\..\..\..\Software\uCOS-III\Source/os_task.c ****         (p_tcb == OSTCBCurPtr)) {
 867:..\..\..\..\..\..\Software\uCOS-III\Source/os_task.c ****         CPU_CRITICAL_EXIT();
 868:..\..\..\..\..\..\Software\uCOS-III\Source/os_task.c ****        *p_err = OS_ERR_PEND_ABORT_SELF;                     /* ... doesn't make sense              
 869:..\..\..\..\..\..\Software\uCOS-III\Source/os_task.c ****         return (DEF_FALSE);
 870:..\..\..\..\..\..\Software\uCOS-III\Source/os_task.c ****     }
 871:..\..\..\..\..\..\Software\uCOS-III\Source/os_task.c **** #endif
 872:..\..\..\..\..\..\Software\uCOS-III\Source/os_task.c **** 
 873:..\..\..\..\..\..\Software\uCOS-III\Source/os_task.c ****     if (p_tcb->PendOn != OS_TASK_PEND_ON_TASK_Q) {          /* Is task waiting for a message?      
 874:..\..\..\..\..\..\Software\uCOS-III\Source/os_task.c ****         CPU_CRITICAL_EXIT();                                /* No                                  
 875:..\..\..\..\..\..\Software\uCOS-III\Source/os_task.c ****        *p_err = OS_ERR_PEND_ABORT_NONE;
 876:..\..\..\..\..\..\Software\uCOS-III\Source/os_task.c ****         return (DEF_FALSE);
 877:..\..\..\..\..\..\Software\uCOS-III\Source/os_task.c ****     }
 878:..\..\..\..\..\..\Software\uCOS-III\Source/os_task.c **** 
 879:..\..\..\..\..\..\Software\uCOS-III\Source/os_task.c ****     OS_CRITICAL_ENTER_CPU_EXIT();
 880:..\..\..\..\..\..\Software\uCOS-III\Source/os_task.c ****     ts = OS_TS_GET();                                       /* Get timestamp of when the abort occu
 881:..\..\..\..\..\..\Software\uCOS-III\Source/os_task.c ****     OS_PendAbort((OS_PEND_OBJ *)0,                          /* Abort the pend                      
 882:..\..\..\..\..\..\Software\uCOS-III\Source/os_task.c ****                  p_tcb,
 883:..\..\..\..\..\..\Software\uCOS-III\Source/os_task.c ****                  ts);
 884:..\..\..\..\..\..\Software\uCOS-III\Source/os_task.c ****     OS_CRITICAL_EXIT_NO_SCHED();
 885:..\..\..\..\..\..\Software\uCOS-III\Source/os_task.c ****     if ((opt & OS_OPT_POST_NO_SCHED) == (OS_OPT)0) {
 886:..\..\..\..\..\..\Software\uCOS-III\Source/os_task.c ****         OSSched();                                          /* Run the scheduler                   
 887:..\..\..\..\..\..\Software\uCOS-III\Source/os_task.c ****     }
 888:..\..\..\..\..\..\Software\uCOS-III\Source/os_task.c ****    *p_err = OS_ERR_NONE;
 889:..\..\..\..\..\..\Software\uCOS-III\Source/os_task.c ****     return (DEF_TRUE);
 890:..\..\..\..\..\..\Software\uCOS-III\Source/os_task.c **** }
 891:..\..\..\..\..\..\Software\uCOS-III\Source/os_task.c **** #endif
 892:..\..\..\..\..\..\Software\uCOS-III\Source/os_task.c **** 
 893:..\..\..\..\..\..\Software\uCOS-III\Source/os_task.c **** /*$PAGE*/
 894:..\..\..\..\..\..\Software\uCOS-III\Source/os_task.c **** /*
 895:..\..\..\..\..\..\Software\uCOS-III\Source/os_task.c **** ***************************************************************************************************
 896:..\..\..\..\..\..\Software\uCOS-III\Source/os_task.c **** *                                               POST MESSAGE TO A TASK
 897:..\..\..\..\..\..\Software\uCOS-III\Source/os_task.c **** *
 898:..\..\..\..\..\..\Software\uCOS-III\Source/os_task.c **** * Description: This function sends a message to a task
 899:..\..\..\..\..\..\Software\uCOS-III\Source/os_task.c **** *
 900:..\..\..\..\..\..\Software\uCOS-III\Source/os_task.c **** * Arguments  : p_tcb      is a pointer to the TCB of the task receiving a message.  If you specify 
 901:..\..\..\..\..\..\Software\uCOS-III\Source/os_task.c **** *                         the message will be posted to the task's queue of the calling task.  In o
 902:..\..\..\..\..\..\Software\uCOS-III\Source/os_task.c **** *                         posting a message to yourself.
 903:..\..\..\..\..\..\Software\uCOS-III\Source/os_task.c **** *
 904:..\..\..\..\..\..\Software\uCOS-III\Source/os_task.c **** *              p_void     is a pointer to the message to send.
 905:..\..\..\..\..\..\Software\uCOS-III\Source/os_task.c **** *
 906:..\..\..\..\..\..\Software\uCOS-III\Source/os_task.c **** *              msg_size   is the size of the message sent (in #bytes)
 907:..\..\..\..\..\..\Software\uCOS-III\Source/os_task.c **** *
 908:..\..\..\..\..\..\Software\uCOS-III\Source/os_task.c **** *              opt        specifies whether the post will be FIFO or LIFO:
 909:..\..\..\..\..\..\Software\uCOS-III\Source/os_task.c **** *
 910:..\..\..\..\..\..\Software\uCOS-III\Source/os_task.c **** *                             OS_OPT_POST_FIFO       Post at the end   of the queue
 911:..\..\..\..\..\..\Software\uCOS-III\Source/os_task.c **** *                             OS_OPT_POST_LIFO       Post at the front of the queue
 912:..\..\..\..\..\..\Software\uCOS-III\Source/os_task.c **** *
 913:..\..\..\..\..\..\Software\uCOS-III\Source/os_task.c **** *                             OS_OPT_POST_NO_SCHED   Do not run the scheduler after the post
 914:..\..\..\..\..\..\Software\uCOS-III\Source/os_task.c **** *
 915:..\..\..\..\..\..\Software\uCOS-III\Source/os_task.c **** *                          Note(s): 1) OS_OPT_POST_NO_SCHED can be added with one of the other opti
ARM GAS  C:\Users\EDULU~1.DES\AppData\Local\Temp\ccxcKTgR.s 			page 23


 916:..\..\..\..\..\..\Software\uCOS-III\Source/os_task.c **** *
 917:..\..\..\..\..\..\Software\uCOS-III\Source/os_task.c **** *
 918:..\..\..\..\..\..\Software\uCOS-III\Source/os_task.c **** *              p_err      is a pointer to a variable that will hold the error code associated
 919:..\..\..\..\..\..\Software\uCOS-III\Source/os_task.c **** *                         with the outcome of this call.  Errors can be:
 920:..\..\..\..\..\..\Software\uCOS-III\Source/os_task.c **** *
 921:..\..\..\..\..\..\Software\uCOS-III\Source/os_task.c **** *                             OS_ERR_NONE            The call was successful and the message was se
 922:..\..\..\..\..\..\Software\uCOS-III\Source/os_task.c **** *                             OS_ERR_Q_MAX           If the queue is full
 923:..\..\..\..\..\..\Software\uCOS-III\Source/os_task.c **** *                             OS_ERR_MSG_POOL_EMPTY  If there are no more OS_MSGs available from th
 924:..\..\..\..\..\..\Software\uCOS-III\Source/os_task.c **** *
 925:..\..\..\..\..\..\Software\uCOS-III\Source/os_task.c **** * Returns    : none
 926:..\..\..\..\..\..\Software\uCOS-III\Source/os_task.c **** ***************************************************************************************************
 927:..\..\..\..\..\..\Software\uCOS-III\Source/os_task.c **** */
 928:..\..\..\..\..\..\Software\uCOS-III\Source/os_task.c **** 
 929:..\..\..\..\..\..\Software\uCOS-III\Source/os_task.c **** #if OS_CFG_TASK_Q_EN > 0u
 930:..\..\..\..\..\..\Software\uCOS-III\Source/os_task.c **** void  OSTaskQPost (OS_TCB       *p_tcb,
 931:..\..\..\..\..\..\Software\uCOS-III\Source/os_task.c ****                    void         *p_void,
 932:..\..\..\..\..\..\Software\uCOS-III\Source/os_task.c ****                    OS_MSG_SIZE   msg_size,
 933:..\..\..\..\..\..\Software\uCOS-III\Source/os_task.c ****                    OS_OPT        opt,
 934:..\..\..\..\..\..\Software\uCOS-III\Source/os_task.c ****                    OS_ERR       *p_err)
 935:..\..\..\..\..\..\Software\uCOS-III\Source/os_task.c **** {
 936:..\..\..\..\..\..\Software\uCOS-III\Source/os_task.c ****     CPU_TS   ts;
 937:..\..\..\..\..\..\Software\uCOS-III\Source/os_task.c **** 
 938:..\..\..\..\..\..\Software\uCOS-III\Source/os_task.c **** 
 939:..\..\..\..\..\..\Software\uCOS-III\Source/os_task.c **** 
 940:..\..\..\..\..\..\Software\uCOS-III\Source/os_task.c **** #ifdef OS_SAFETY_CRITICAL
 941:..\..\..\..\..\..\Software\uCOS-III\Source/os_task.c ****     if (p_err == (OS_ERR *)0) {
 942:..\..\..\..\..\..\Software\uCOS-III\Source/os_task.c ****         OS_SAFETY_CRITICAL_EXCEPTION();
 943:..\..\..\..\..\..\Software\uCOS-III\Source/os_task.c ****         return;
 944:..\..\..\..\..\..\Software\uCOS-III\Source/os_task.c ****     }
 945:..\..\..\..\..\..\Software\uCOS-III\Source/os_task.c **** #endif
 946:..\..\..\..\..\..\Software\uCOS-III\Source/os_task.c **** 
 947:..\..\..\..\..\..\Software\uCOS-III\Source/os_task.c **** #if OS_CFG_ARG_CHK_EN > 0u                                  /* ---------------- VALIDATE ARGUMENTS 
 948:..\..\..\..\..\..\Software\uCOS-III\Source/os_task.c ****     switch (opt) {                                          /* User must supply a valid option     
 949:..\..\..\..\..\..\Software\uCOS-III\Source/os_task.c ****         case OS_OPT_POST_FIFO:
 950:..\..\..\..\..\..\Software\uCOS-III\Source/os_task.c ****         case OS_OPT_POST_LIFO:
 951:..\..\..\..\..\..\Software\uCOS-III\Source/os_task.c ****         case OS_OPT_POST_FIFO | OS_OPT_POST_NO_SCHED:
 952:..\..\..\..\..\..\Software\uCOS-III\Source/os_task.c ****         case OS_OPT_POST_LIFO | OS_OPT_POST_NO_SCHED:
 953:..\..\..\..\..\..\Software\uCOS-III\Source/os_task.c ****              break;
 954:..\..\..\..\..\..\Software\uCOS-III\Source/os_task.c **** 
 955:..\..\..\..\..\..\Software\uCOS-III\Source/os_task.c ****         default:
 956:..\..\..\..\..\..\Software\uCOS-III\Source/os_task.c ****             *p_err = OS_ERR_OPT_INVALID;
 957:..\..\..\..\..\..\Software\uCOS-III\Source/os_task.c ****              return;
 958:..\..\..\..\..\..\Software\uCOS-III\Source/os_task.c ****     }
 959:..\..\..\..\..\..\Software\uCOS-III\Source/os_task.c **** #endif
 960:..\..\..\..\..\..\Software\uCOS-III\Source/os_task.c **** 
 961:..\..\..\..\..\..\Software\uCOS-III\Source/os_task.c ****     ts = OS_TS_GET();                                       /* Get timestamp                       
 962:..\..\..\..\..\..\Software\uCOS-III\Source/os_task.c **** 
 963:..\..\..\..\..\..\Software\uCOS-III\Source/os_task.c **** #if OS_CFG_ISR_POST_DEFERRED_EN > 0u
 964:..\..\..\..\..\..\Software\uCOS-III\Source/os_task.c ****     if (OSIntNestingCtr > (OS_NESTING_CTR)0) {
 965:..\..\..\..\..\..\Software\uCOS-III\Source/os_task.c ****         OS_IntQPost((OS_OBJ_TYPE)OS_OBJ_TYPE_TASK_MSG,      /* Post to ISR queue                   
 966:..\..\..\..\..\..\Software\uCOS-III\Source/os_task.c ****                     (void      *)p_tcb,
 967:..\..\..\..\..\..\Software\uCOS-III\Source/os_task.c ****                     (void      *)p_void,
 968:..\..\..\..\..\..\Software\uCOS-III\Source/os_task.c ****                     (OS_MSG_SIZE)msg_size,
 969:..\..\..\..\..\..\Software\uCOS-III\Source/os_task.c ****                     (OS_FLAGS   )0,
 970:..\..\..\..\..\..\Software\uCOS-III\Source/os_task.c ****                     (OS_OPT     )opt,
 971:..\..\..\..\..\..\Software\uCOS-III\Source/os_task.c ****                     (CPU_TS     )ts,
 972:..\..\..\..\..\..\Software\uCOS-III\Source/os_task.c ****                     (OS_ERR    *)p_err);
ARM GAS  C:\Users\EDULU~1.DES\AppData\Local\Temp\ccxcKTgR.s 			page 24


 973:..\..\..\..\..\..\Software\uCOS-III\Source/os_task.c ****         return;
 974:..\..\..\..\..\..\Software\uCOS-III\Source/os_task.c ****     }
 975:..\..\..\..\..\..\Software\uCOS-III\Source/os_task.c **** #endif
 976:..\..\..\..\..\..\Software\uCOS-III\Source/os_task.c **** 
 977:..\..\..\..\..\..\Software\uCOS-III\Source/os_task.c ****     OS_TaskQPost(p_tcb,
 978:..\..\..\..\..\..\Software\uCOS-III\Source/os_task.c ****                  p_void,
 979:..\..\..\..\..\..\Software\uCOS-III\Source/os_task.c ****                  msg_size,
 980:..\..\..\..\..\..\Software\uCOS-III\Source/os_task.c ****                  opt,
 981:..\..\..\..\..\..\Software\uCOS-III\Source/os_task.c ****                  ts,
 982:..\..\..\..\..\..\Software\uCOS-III\Source/os_task.c ****                  p_err);
 983:..\..\..\..\..\..\Software\uCOS-III\Source/os_task.c **** }
 984:..\..\..\..\..\..\Software\uCOS-III\Source/os_task.c **** #endif
 985:..\..\..\..\..\..\Software\uCOS-III\Source/os_task.c **** 
 986:..\..\..\..\..\..\Software\uCOS-III\Source/os_task.c **** /*$PAGE*/
 987:..\..\..\..\..\..\Software\uCOS-III\Source/os_task.c **** /*
 988:..\..\..\..\..\..\Software\uCOS-III\Source/os_task.c **** ***************************************************************************************************
 989:..\..\..\..\..\..\Software\uCOS-III\Source/os_task.c **** *                                       GET THE CURRENT VALUE OF A TASK REGISTER
 990:..\..\..\..\..\..\Software\uCOS-III\Source/os_task.c **** *
 991:..\..\..\..\..\..\Software\uCOS-III\Source/os_task.c **** * Description: This function is called to obtain the current value of a task register.  Task regist
 992:..\..\..\..\..\..\Software\uCOS-III\Source/os_task.c **** *              specific and can be used to store task specific values such as 'error numbers' (i.e.
 993:..\..\..\..\..\..\Software\uCOS-III\Source/os_task.c **** *              etc.
 994:..\..\..\..\..\..\Software\uCOS-III\Source/os_task.c **** *
 995:..\..\..\..\..\..\Software\uCOS-III\Source/os_task.c **** * Arguments  : p_tcb     is a pointer to the OS_TCB of the task you want to read the register from.
 996:..\..\..\..\..\..\Software\uCOS-III\Source/os_task.c **** *                        NULL pointer then you will get the register of the current task.
 997:..\..\..\..\..\..\Software\uCOS-III\Source/os_task.c **** *
 998:..\..\..\..\..\..\Software\uCOS-III\Source/os_task.c **** *              id        is the 'id' of the desired task variable.  Note that the 'id' must be less
 999:..\..\..\..\..\..\Software\uCOS-III\Source/os_task.c **** *                        OS_CFG_TASK_REG_TBL_SIZE
1000:..\..\..\..\..\..\Software\uCOS-III\Source/os_task.c **** *
1001:..\..\..\..\..\..\Software\uCOS-III\Source/os_task.c **** *              p_err     is a pointer to a variable that will hold an error code related to this ca
1002:..\..\..\..\..\..\Software\uCOS-III\Source/os_task.c **** *
1003:..\..\..\..\..\..\Software\uCOS-III\Source/os_task.c **** *                            OS_ERR_NONE            if the call was successful
1004:..\..\..\..\..\..\Software\uCOS-III\Source/os_task.c **** *                            OS_ERR_REG_ID_INVALID  if the 'id' is not between 0 and OS_CFG_TASK_RE
1005:..\..\..\..\..\..\Software\uCOS-III\Source/os_task.c **** *
1006:..\..\..\..\..\..\Software\uCOS-III\Source/os_task.c **** * Returns    : The current value of the task's register or 0 if an error is detected.
1007:..\..\..\..\..\..\Software\uCOS-III\Source/os_task.c **** ***************************************************************************************************
1008:..\..\..\..\..\..\Software\uCOS-III\Source/os_task.c **** */
1009:..\..\..\..\..\..\Software\uCOS-III\Source/os_task.c **** 
1010:..\..\..\..\..\..\Software\uCOS-III\Source/os_task.c **** #if OS_CFG_TASK_REG_TBL_SIZE > 0u
1011:..\..\..\..\..\..\Software\uCOS-III\Source/os_task.c **** OS_REG  OSTaskRegGet (OS_TCB     *p_tcb,
1012:..\..\..\..\..\..\Software\uCOS-III\Source/os_task.c ****                       OS_REG_ID   id,
1013:..\..\..\..\..\..\Software\uCOS-III\Source/os_task.c ****                       OS_ERR     *p_err)
1014:..\..\..\..\..\..\Software\uCOS-III\Source/os_task.c **** {
 288              		.loc 1 1014 1 view -0
 289              		.cfi_startproc
 290              		@ args = 0, pretend = 0, frame = 0
 291              		@ frame_needed = 0, uses_anonymous_args = 0
 292              		.loc 1 1014 1 is_stmt 0 view .LVU75
 293 0000 F8B5     		push	{r3, r4, r5, r6, r7, lr}
 294              		.cfi_def_cfa_offset 24
 295              		.cfi_offset 3, -24
 296              		.cfi_offset 4, -20
 297              		.cfi_offset 5, -16
 298              		.cfi_offset 6, -12
 299              		.cfi_offset 7, -8
 300              		.cfi_offset 14, -4
 301 0002 0600     		movs	r6, r0
 302 0004 0C00     		movs	r4, r1
ARM GAS  C:\Users\EDULU~1.DES\AppData\Local\Temp\ccxcKTgR.s 			page 25


 303 0006 1700     		movs	r7, r2
1015:..\..\..\..\..\..\Software\uCOS-III\Source/os_task.c ****     OS_REG     value;
 304              		.loc 1 1015 5 is_stmt 1 view .LVU76
1016:..\..\..\..\..\..\Software\uCOS-III\Source/os_task.c ****     CPU_SR_ALLOC();
 305              		.loc 1 1016 5 view .LVU77
 306              	.LVL30:
1017:..\..\..\..\..\..\Software\uCOS-III\Source/os_task.c **** 
1018:..\..\..\..\..\..\Software\uCOS-III\Source/os_task.c **** 
1019:..\..\..\..\..\..\Software\uCOS-III\Source/os_task.c **** 
1020:..\..\..\..\..\..\Software\uCOS-III\Source/os_task.c **** #ifdef OS_SAFETY_CRITICAL
1021:..\..\..\..\..\..\Software\uCOS-III\Source/os_task.c ****     if (p_err == (OS_ERR *)0) {
1022:..\..\..\..\..\..\Software\uCOS-III\Source/os_task.c ****         OS_SAFETY_CRITICAL_EXCEPTION();
1023:..\..\..\..\..\..\Software\uCOS-III\Source/os_task.c ****         return ((OS_REG)0);
1024:..\..\..\..\..\..\Software\uCOS-III\Source/os_task.c ****     }
1025:..\..\..\..\..\..\Software\uCOS-III\Source/os_task.c **** #endif
1026:..\..\..\..\..\..\Software\uCOS-III\Source/os_task.c **** 
1027:..\..\..\..\..\..\Software\uCOS-III\Source/os_task.c **** #if OS_CFG_ARG_CHK_EN > 0u
1028:..\..\..\..\..\..\Software\uCOS-III\Source/os_task.c ****     if (id >= OS_CFG_TASK_REG_TBL_SIZE) {
 307              		.loc 1 1028 5 view .LVU78
 308              		.loc 1 1028 8 is_stmt 0 view .LVU79
 309 0008 0029     		cmp	r1, #0
 310 000a 04D0     		beq	.L24
1029:..\..\..\..\..\..\Software\uCOS-III\Source/os_task.c ****        *p_err = OS_ERR_REG_ID_INVALID;
 311              		.loc 1 1029 8 is_stmt 1 view .LVU80
 312              		.loc 1 1029 15 is_stmt 0 view .LVU81
 313 000c 0D4B     		ldr	r3, .L28
 314 000e 1380     		strh	r3, [r2]
1030:..\..\..\..\..\..\Software\uCOS-III\Source/os_task.c ****         return ((OS_REG)0);
 315              		.loc 1 1030 9 is_stmt 1 view .LVU82
 316              		.loc 1 1030 16 is_stmt 0 view .LVU83
 317 0010 0024     		movs	r4, #0
 318              	.LVL31:
 319              	.L23:
1031:..\..\..\..\..\..\Software\uCOS-III\Source/os_task.c ****     }
1032:..\..\..\..\..\..\Software\uCOS-III\Source/os_task.c **** #endif
1033:..\..\..\..\..\..\Software\uCOS-III\Source/os_task.c **** 
1034:..\..\..\..\..\..\Software\uCOS-III\Source/os_task.c ****     CPU_CRITICAL_ENTER();
1035:..\..\..\..\..\..\Software\uCOS-III\Source/os_task.c ****     if (p_tcb == (OS_TCB *)0) {
1036:..\..\..\..\..\..\Software\uCOS-III\Source/os_task.c ****         p_tcb = OSTCBCurPtr;
1037:..\..\..\..\..\..\Software\uCOS-III\Source/os_task.c ****     }
1038:..\..\..\..\..\..\Software\uCOS-III\Source/os_task.c ****     value = p_tcb->RegTbl[id];
1039:..\..\..\..\..\..\Software\uCOS-III\Source/os_task.c ****     CPU_CRITICAL_EXIT();
1040:..\..\..\..\..\..\Software\uCOS-III\Source/os_task.c ****    *p_err = OS_ERR_NONE;
1041:..\..\..\..\..\..\Software\uCOS-III\Source/os_task.c ****     return ((OS_REG)value);
1042:..\..\..\..\..\..\Software\uCOS-III\Source/os_task.c **** }
 320              		.loc 1 1042 1 view .LVU84
 321 0012 2000     		movs	r0, r4
 322              		@ sp needed
 323              	.LVL32:
 324              	.LVL33:
 325              		.loc 1 1042 1 view .LVU85
 326 0014 F8BD     		pop	{r3, r4, r5, r6, r7, pc}
 327              	.LVL34:
 328              	.L24:
1034:..\..\..\..\..\..\Software\uCOS-III\Source/os_task.c ****     if (p_tcb == (OS_TCB *)0) {
 329              		.loc 1 1034 5 is_stmt 1 view .LVU86
1034:..\..\..\..\..\..\Software\uCOS-III\Source/os_task.c ****     if (p_tcb == (OS_TCB *)0) {
ARM GAS  C:\Users\EDULU~1.DES\AppData\Local\Temp\ccxcKTgR.s 			page 26


 330              		.loc 1 1034 5 view .LVU87
1034:..\..\..\..\..\..\Software\uCOS-III\Source/os_task.c ****     if (p_tcb == (OS_TCB *)0) {
 331              		.loc 1 1034 5 view .LVU88
 332 0016 FFF7FEFF 		bl	CPU_SR_Save
 333              	.LVL35:
1034:..\..\..\..\..\..\Software\uCOS-III\Source/os_task.c ****     if (p_tcb == (OS_TCB *)0) {
 334              		.loc 1 1034 5 is_stmt 0 view .LVU89
 335 001a 0500     		movs	r5, r0
 336              	.LVL36:
1034:..\..\..\..\..\..\Software\uCOS-III\Source/os_task.c ****     if (p_tcb == (OS_TCB *)0) {
 337              		.loc 1 1034 5 is_stmt 1 view .LVU90
 338 001c FFF7FEFF 		bl	CPU_IntDisMeasStart
 339              	.LVL37:
1035:..\..\..\..\..\..\Software\uCOS-III\Source/os_task.c ****         p_tcb = OSTCBCurPtr;
 340              		.loc 1 1035 5 view .LVU91
1035:..\..\..\..\..\..\Software\uCOS-III\Source/os_task.c ****         p_tcb = OSTCBCurPtr;
 341              		.loc 1 1035 8 is_stmt 0 view .LVU92
 342 0020 002E     		cmp	r6, #0
 343 0022 0BD0     		beq	.L27
 344              	.L26:
1038:..\..\..\..\..\..\Software\uCOS-III\Source/os_task.c ****     CPU_CRITICAL_EXIT();
 345              		.loc 1 1038 5 is_stmt 1 view .LVU93
1038:..\..\..\..\..\..\Software\uCOS-III\Source/os_task.c ****     CPU_CRITICAL_EXIT();
 346              		.loc 1 1038 11 is_stmt 0 view .LVU94
 347 0024 1634     		adds	r4, r4, #22
 348 0026 A400     		lsls	r4, r4, #2
 349 0028 3419     		adds	r4, r6, r4
 350 002a 6468     		ldr	r4, [r4, #4]
 351              	.LVL38:
1039:..\..\..\..\..\..\Software\uCOS-III\Source/os_task.c ****    *p_err = OS_ERR_NONE;
 352              		.loc 1 1039 5 is_stmt 1 view .LVU95
1039:..\..\..\..\..\..\Software\uCOS-III\Source/os_task.c ****    *p_err = OS_ERR_NONE;
 353              		.loc 1 1039 5 view .LVU96
 354 002c FFF7FEFF 		bl	CPU_IntDisMeasStop
 355              	.LVL39:
1039:..\..\..\..\..\..\Software\uCOS-III\Source/os_task.c ****    *p_err = OS_ERR_NONE;
 356              		.loc 1 1039 5 view .LVU97
1039:..\..\..\..\..\..\Software\uCOS-III\Source/os_task.c ****    *p_err = OS_ERR_NONE;
 357              		.loc 1 1039 5 view .LVU98
 358 0030 2800     		movs	r0, r5
 359 0032 FFF7FEFF 		bl	CPU_SR_Restore
 360              	.LVL40:
1040:..\..\..\..\..\..\Software\uCOS-III\Source/os_task.c ****     return ((OS_REG)value);
 361              		.loc 1 1040 4 view .LVU99
1040:..\..\..\..\..\..\Software\uCOS-III\Source/os_task.c ****     return ((OS_REG)value);
 362              		.loc 1 1040 11 is_stmt 0 view .LVU100
 363 0036 0023     		movs	r3, #0
 364 0038 3B80     		strh	r3, [r7]
1041:..\..\..\..\..\..\Software\uCOS-III\Source/os_task.c **** }
 365              		.loc 1 1041 5 is_stmt 1 view .LVU101
1041:..\..\..\..\..\..\Software\uCOS-III\Source/os_task.c **** }
 366              		.loc 1 1041 13 is_stmt 0 view .LVU102
 367 003a EAE7     		b	.L23
 368              	.LVL41:
 369              	.L27:
1036:..\..\..\..\..\..\Software\uCOS-III\Source/os_task.c ****     }
 370              		.loc 1 1036 9 is_stmt 1 view .LVU103
ARM GAS  C:\Users\EDULU~1.DES\AppData\Local\Temp\ccxcKTgR.s 			page 27


1036:..\..\..\..\..\..\Software\uCOS-III\Source/os_task.c ****     }
 371              		.loc 1 1036 15 is_stmt 0 view .LVU104
 372 003c 024B     		ldr	r3, .L28+4
 373 003e 1E68     		ldr	r6, [r3]
 374              	.LVL42:
1036:..\..\..\..\..\..\Software\uCOS-III\Source/os_task.c ****     }
 375              		.loc 1 1036 15 view .LVU105
 376 0040 F0E7     		b	.L26
 377              	.L29:
 378 0042 C046     		.align	2
 379              	.L28:
 380 0044 79690000 		.word	27001
 381 0048 00000000 		.word	OSTCBCurPtr
 382              		.cfi_endproc
 383              	.LFE5:
 384              		.size	OSTaskRegGet, .-OSTaskRegGet
 385              		.section	.text.OSTaskRegGetID,"ax",%progbits
 386              		.align	1
 387              		.global	OSTaskRegGetID
 388              		.syntax unified
 389              		.code	16
 390              		.thumb_func
 391              		.fpu softvfp
 392              		.type	OSTaskRegGetID, %function
 393              	OSTaskRegGetID:
 394              	.LVL43:
 395              	.LFB6:
1043:..\..\..\..\..\..\Software\uCOS-III\Source/os_task.c **** #endif
1044:..\..\..\..\..\..\Software\uCOS-III\Source/os_task.c **** 
1045:..\..\..\..\..\..\Software\uCOS-III\Source/os_task.c **** /*$PAGE*/
1046:..\..\..\..\..\..\Software\uCOS-III\Source/os_task.c **** /*
1047:..\..\..\..\..\..\Software\uCOS-III\Source/os_task.c **** ***************************************************************************************************
1048:..\..\..\..\..\..\Software\uCOS-III\Source/os_task.c **** *                                    ALLOCATE THE NEXT AVAILABLE TASK REGISTER ID
1049:..\..\..\..\..\..\Software\uCOS-III\Source/os_task.c **** *
1050:..\..\..\..\..\..\Software\uCOS-III\Source/os_task.c **** * Description: This function is called to obtain a task register ID.  This function thus allows tas
1051:..\..\..\..\..\..\Software\uCOS-III\Source/os_task.c **** *              allocated dynamically instead of statically.
1052:..\..\..\..\..\..\Software\uCOS-III\Source/os_task.c **** *
1053:..\..\..\..\..\..\Software\uCOS-III\Source/os_task.c **** * Arguments  : p_err       is a pointer to a variable that will hold an error code related to this 
1054:..\..\..\..\..\..\Software\uCOS-III\Source/os_task.c **** *
1055:..\..\..\..\..\..\Software\uCOS-III\Source/os_task.c **** *                            OS_ERR_NONE               if the call was successful
1056:..\..\..\..\..\..\Software\uCOS-III\Source/os_task.c **** *                            OS_ERR_NO_MORE_ID_AVAIL   if you are attempting to assign more task re
1057:..\..\..\..\..\..\Software\uCOS-III\Source/os_task.c **** *                                                           have available through OS_CFG_TASK_REG_
1058:..\..\..\..\..\..\Software\uCOS-III\Source/os_task.c **** *
1059:..\..\..\..\..\..\Software\uCOS-III\Source/os_task.c **** * Returns    : The next available task register 'id' or OS_CFG_TASK_REG_TBL_SIZE if an error is det
1060:..\..\..\..\..\..\Software\uCOS-III\Source/os_task.c **** ***************************************************************************************************
1061:..\..\..\..\..\..\Software\uCOS-III\Source/os_task.c **** */
1062:..\..\..\..\..\..\Software\uCOS-III\Source/os_task.c **** 
1063:..\..\..\..\..\..\Software\uCOS-III\Source/os_task.c **** #if OS_CFG_TASK_REG_TBL_SIZE > 0u
1064:..\..\..\..\..\..\Software\uCOS-III\Source/os_task.c **** OS_REG_ID  OSTaskRegGetID (OS_ERR  *p_err)
1065:..\..\..\..\..\..\Software\uCOS-III\Source/os_task.c **** {
 396              		.loc 1 1065 1 is_stmt 1 view -0
 397              		.cfi_startproc
 398              		@ args = 0, pretend = 0, frame = 0
 399              		@ frame_needed = 0, uses_anonymous_args = 0
 400              		.loc 1 1065 1 is_stmt 0 view .LVU107
 401 0000 70B5     		push	{r4, r5, r6, lr}
 402              		.cfi_def_cfa_offset 16
ARM GAS  C:\Users\EDULU~1.DES\AppData\Local\Temp\ccxcKTgR.s 			page 28


 403              		.cfi_offset 4, -16
 404              		.cfi_offset 5, -12
 405              		.cfi_offset 6, -8
 406              		.cfi_offset 14, -4
 407 0002 0600     		movs	r6, r0
1066:..\..\..\..\..\..\Software\uCOS-III\Source/os_task.c ****     OS_REG_ID  id;
 408              		.loc 1 1066 5 is_stmt 1 view .LVU108
1067:..\..\..\..\..\..\Software\uCOS-III\Source/os_task.c ****     CPU_SR_ALLOC();
 409              		.loc 1 1067 5 view .LVU109
 410              	.LVL44:
1068:..\..\..\..\..\..\Software\uCOS-III\Source/os_task.c **** 
1069:..\..\..\..\..\..\Software\uCOS-III\Source/os_task.c **** 
1070:..\..\..\..\..\..\Software\uCOS-III\Source/os_task.c **** 
1071:..\..\..\..\..\..\Software\uCOS-III\Source/os_task.c **** #ifdef OS_SAFETY_CRITICAL
1072:..\..\..\..\..\..\Software\uCOS-III\Source/os_task.c ****     if (p_err == (OS_ERR *)0) {
1073:..\..\..\..\..\..\Software\uCOS-III\Source/os_task.c ****         OS_SAFETY_CRITICAL_EXCEPTION();
1074:..\..\..\..\..\..\Software\uCOS-III\Source/os_task.c ****         return ((OS_REG_ID)OS_CFG_TASK_REG_TBL_SIZE);
1075:..\..\..\..\..\..\Software\uCOS-III\Source/os_task.c ****     }
1076:..\..\..\..\..\..\Software\uCOS-III\Source/os_task.c **** #endif
1077:..\..\..\..\..\..\Software\uCOS-III\Source/os_task.c **** 
1078:..\..\..\..\..\..\Software\uCOS-III\Source/os_task.c ****     CPU_CRITICAL_ENTER();
 411              		.loc 1 1078 5 view .LVU110
 412              		.loc 1 1078 5 view .LVU111
 413              		.loc 1 1078 5 view .LVU112
 414 0004 FFF7FEFF 		bl	CPU_SR_Save
 415              	.LVL45:
 416              		.loc 1 1078 5 is_stmt 0 view .LVU113
 417 0008 0500     		movs	r5, r0
 418              	.LVL46:
 419              		.loc 1 1078 5 is_stmt 1 view .LVU114
 420 000a FFF7FEFF 		bl	CPU_IntDisMeasStart
 421              	.LVL47:
1079:..\..\..\..\..\..\Software\uCOS-III\Source/os_task.c ****     if (OSTaskRegNextAvailID >= OS_CFG_TASK_REG_TBL_SIZE) {       /* See if we exceeded the number 
 422              		.loc 1 1079 5 view .LVU115
 423              		.loc 1 1079 30 is_stmt 0 view .LVU116
 424 000e 0C4B     		ldr	r3, .L34
 425 0010 1C78     		ldrb	r4, [r3]
 426              		.loc 1 1079 8 view .LVU117
 427 0012 002C     		cmp	r4, #0
 428 0014 0BD1     		bne	.L33
1080:..\..\..\..\..\..\Software\uCOS-III\Source/os_task.c ****        *p_err = OS_ERR_NO_MORE_ID_AVAIL;                          /* Yes, cannot allocate more task
1081:..\..\..\..\..\..\Software\uCOS-III\Source/os_task.c ****         CPU_CRITICAL_EXIT();
1082:..\..\..\..\..\..\Software\uCOS-III\Source/os_task.c ****         return ((OS_REG_ID)OS_CFG_TASK_REG_TBL_SIZE);
1083:..\..\..\..\..\..\Software\uCOS-III\Source/os_task.c ****     }
1084:..\..\..\..\..\..\Software\uCOS-III\Source/os_task.c ****      
1085:..\..\..\..\..\..\Software\uCOS-III\Source/os_task.c ****     id    = OSTaskRegNextAvailID;								  /* Assign the next available ID                     */
 429              		.loc 1 1085 5 is_stmt 1 view .LVU118
 430              	.LVL48:
1086:..\..\..\..\..\..\Software\uCOS-III\Source/os_task.c ****     OSTaskRegNextAvailID++;										  /* Increment available ID for next request          */
 431              		.loc 1 1086 5 view .LVU119
 432              		.loc 1 1086 25 is_stmt 0 view .LVU120
 433 0016 631C     		adds	r3, r4, #1
 434 0018 094A     		ldr	r2, .L34
 435 001a 1370     		strb	r3, [r2]
1087:..\..\..\..\..\..\Software\uCOS-III\Source/os_task.c ****     CPU_CRITICAL_EXIT();
 436              		.loc 1 1087 5 is_stmt 1 view .LVU121
 437              		.loc 1 1087 5 view .LVU122
ARM GAS  C:\Users\EDULU~1.DES\AppData\Local\Temp\ccxcKTgR.s 			page 29


 438 001c FFF7FEFF 		bl	CPU_IntDisMeasStop
 439              	.LVL49:
 440              		.loc 1 1087 5 view .LVU123
 441              		.loc 1 1087 5 view .LVU124
 442 0020 2800     		movs	r0, r5
 443 0022 FFF7FEFF 		bl	CPU_SR_Restore
 444              	.LVL50:
1088:..\..\..\..\..\..\Software\uCOS-III\Source/os_task.c ****    *p_err = OS_ERR_NONE;
 445              		.loc 1 1088 4 view .LVU125
 446              		.loc 1 1088 11 is_stmt 0 view .LVU126
 447 0026 0023     		movs	r3, #0
 448 0028 3380     		strh	r3, [r6]
1089:..\..\..\..\..\..\Software\uCOS-III\Source/os_task.c ****     return (id);
 449              		.loc 1 1089 5 is_stmt 1 view .LVU127
 450              	.LVL51:
 451              	.L32:
1090:..\..\..\..\..\..\Software\uCOS-III\Source/os_task.c **** }
 452              		.loc 1 1090 1 is_stmt 0 view .LVU128
 453 002a 2000     		movs	r0, r4
 454              		@ sp needed
 455              	.LVL52:
 456              	.LVL53:
 457              		.loc 1 1090 1 view .LVU129
 458 002c 70BD     		pop	{r4, r5, r6, pc}
 459              	.LVL54:
 460              	.L33:
1080:..\..\..\..\..\..\Software\uCOS-III\Source/os_task.c ****         CPU_CRITICAL_EXIT();
 461              		.loc 1 1080 8 is_stmt 1 view .LVU130
1080:..\..\..\..\..\..\Software\uCOS-III\Source/os_task.c ****         CPU_CRITICAL_EXIT();
 462              		.loc 1 1080 15 is_stmt 0 view .LVU131
 463 002e 054B     		ldr	r3, .L34+4
 464 0030 3380     		strh	r3, [r6]
1081:..\..\..\..\..\..\Software\uCOS-III\Source/os_task.c ****         return ((OS_REG_ID)OS_CFG_TASK_REG_TBL_SIZE);
 465              		.loc 1 1081 9 is_stmt 1 view .LVU132
1081:..\..\..\..\..\..\Software\uCOS-III\Source/os_task.c ****         return ((OS_REG_ID)OS_CFG_TASK_REG_TBL_SIZE);
 466              		.loc 1 1081 9 view .LVU133
 467 0032 FFF7FEFF 		bl	CPU_IntDisMeasStop
 468              	.LVL55:
1081:..\..\..\..\..\..\Software\uCOS-III\Source/os_task.c ****         return ((OS_REG_ID)OS_CFG_TASK_REG_TBL_SIZE);
 469              		.loc 1 1081 9 view .LVU134
1081:..\..\..\..\..\..\Software\uCOS-III\Source/os_task.c ****         return ((OS_REG_ID)OS_CFG_TASK_REG_TBL_SIZE);
 470              		.loc 1 1081 9 view .LVU135
 471 0036 2800     		movs	r0, r5
 472 0038 FFF7FEFF 		bl	CPU_SR_Restore
 473              	.LVL56:
1082:..\..\..\..\..\..\Software\uCOS-III\Source/os_task.c ****     }
 474              		.loc 1 1082 9 view .LVU136
1082:..\..\..\..\..\..\Software\uCOS-III\Source/os_task.c ****     }
 475              		.loc 1 1082 16 is_stmt 0 view .LVU137
 476 003c 0124     		movs	r4, #1
 477 003e F4E7     		b	.L32
 478              	.L35:
 479              		.align	2
 480              	.L34:
 481 0040 00000000 		.word	OSTaskRegNextAvailID
 482 0044 DA590000 		.word	23002
 483              		.cfi_endproc
ARM GAS  C:\Users\EDULU~1.DES\AppData\Local\Temp\ccxcKTgR.s 			page 30


 484              	.LFE6:
 485              		.size	OSTaskRegGetID, .-OSTaskRegGetID
 486              		.section	.text.OSTaskRegSet,"ax",%progbits
 487              		.align	1
 488              		.global	OSTaskRegSet
 489              		.syntax unified
 490              		.code	16
 491              		.thumb_func
 492              		.fpu softvfp
 493              		.type	OSTaskRegSet, %function
 494              	OSTaskRegSet:
 495              	.LVL57:
 496              	.LFB7:
1091:..\..\..\..\..\..\Software\uCOS-III\Source/os_task.c **** #endif
1092:..\..\..\..\..\..\Software\uCOS-III\Source/os_task.c **** 
1093:..\..\..\..\..\..\Software\uCOS-III\Source/os_task.c **** /*$PAGE*/
1094:..\..\..\..\..\..\Software\uCOS-III\Source/os_task.c **** /*
1095:..\..\..\..\..\..\Software\uCOS-III\Source/os_task.c **** ***************************************************************************************************
1096:..\..\..\..\..\..\Software\uCOS-III\Source/os_task.c **** *                                       SET THE CURRENT VALUE OF A TASK REGISTER
1097:..\..\..\..\..\..\Software\uCOS-III\Source/os_task.c **** *
1098:..\..\..\..\..\..\Software\uCOS-III\Source/os_task.c **** * Description: This function is called to change the current value of a task register.  Task regist
1099:..\..\..\..\..\..\Software\uCOS-III\Source/os_task.c **** *              specific and can be used to store task specific values such as 'error numbers' (i.e.
1100:..\..\..\..\..\..\Software\uCOS-III\Source/os_task.c **** *              etc.
1101:..\..\..\..\..\..\Software\uCOS-III\Source/os_task.c **** *
1102:..\..\..\..\..\..\Software\uCOS-III\Source/os_task.c **** * Arguments  : p_tcb     is a pointer to the OS_TCB of the task you want to set the register for.  
1103:..\..\..\..\..\..\Software\uCOS-III\Source/os_task.c **** *                        pointer then you will change the register of the current task.
1104:..\..\..\..\..\..\Software\uCOS-III\Source/os_task.c **** *
1105:..\..\..\..\..\..\Software\uCOS-III\Source/os_task.c **** *              id        is the 'id' of the desired task register.  Note that the 'id' must be less
1106:..\..\..\..\..\..\Software\uCOS-III\Source/os_task.c **** *                        OS_CFG_TASK_REG_TBL_SIZE
1107:..\..\..\..\..\..\Software\uCOS-III\Source/os_task.c **** *
1108:..\..\..\..\..\..\Software\uCOS-III\Source/os_task.c **** *              value     is the desired value for the task register.
1109:..\..\..\..\..\..\Software\uCOS-III\Source/os_task.c **** *
1110:..\..\..\..\..\..\Software\uCOS-III\Source/os_task.c **** *              p_err     is a pointer to a variable that will hold an error code related to this ca
1111:..\..\..\..\..\..\Software\uCOS-III\Source/os_task.c **** *
1112:..\..\..\..\..\..\Software\uCOS-III\Source/os_task.c **** *                            OS_ERR_NONE            if the call was successful
1113:..\..\..\..\..\..\Software\uCOS-III\Source/os_task.c **** *                            OS_ERR_REG_ID_INVALID  if the 'id' is not between 0 and OS_CFG_TASK_RE
1114:..\..\..\..\..\..\Software\uCOS-III\Source/os_task.c **** *
1115:..\..\..\..\..\..\Software\uCOS-III\Source/os_task.c **** * Returns    : none
1116:..\..\..\..\..\..\Software\uCOS-III\Source/os_task.c **** ***************************************************************************************************
1117:..\..\..\..\..\..\Software\uCOS-III\Source/os_task.c **** */
1118:..\..\..\..\..\..\Software\uCOS-III\Source/os_task.c **** 
1119:..\..\..\..\..\..\Software\uCOS-III\Source/os_task.c **** #if OS_CFG_TASK_REG_TBL_SIZE > 0u
1120:..\..\..\..\..\..\Software\uCOS-III\Source/os_task.c **** void  OSTaskRegSet (OS_TCB     *p_tcb,
1121:..\..\..\..\..\..\Software\uCOS-III\Source/os_task.c ****                     OS_REG_ID   id,
1122:..\..\..\..\..\..\Software\uCOS-III\Source/os_task.c ****                     OS_REG      value,
1123:..\..\..\..\..\..\Software\uCOS-III\Source/os_task.c ****                     OS_ERR     *p_err)
1124:..\..\..\..\..\..\Software\uCOS-III\Source/os_task.c **** {
 497              		.loc 1 1124 1 is_stmt 1 view -0
 498              		.cfi_startproc
 499              		@ args = 0, pretend = 0, frame = 8
 500              		@ frame_needed = 0, uses_anonymous_args = 0
 501              		.loc 1 1124 1 is_stmt 0 view .LVU139
 502 0000 F0B5     		push	{r4, r5, r6, r7, lr}
 503              		.cfi_def_cfa_offset 20
 504              		.cfi_offset 4, -20
 505              		.cfi_offset 5, -16
 506              		.cfi_offset 6, -12
ARM GAS  C:\Users\EDULU~1.DES\AppData\Local\Temp\ccxcKTgR.s 			page 31


 507              		.cfi_offset 7, -8
 508              		.cfi_offset 14, -4
 509 0002 83B0     		sub	sp, sp, #12
 510              		.cfi_def_cfa_offset 32
 511 0004 0700     		movs	r7, r0
 512 0006 0C00     		movs	r4, r1
 513 0008 1500     		movs	r5, r2
 514 000a 1E00     		movs	r6, r3
1125:..\..\..\..\..\..\Software\uCOS-III\Source/os_task.c ****     CPU_SR_ALLOC();
 515              		.loc 1 1125 5 is_stmt 1 view .LVU140
 516              	.LVL58:
1126:..\..\..\..\..\..\Software\uCOS-III\Source/os_task.c **** 
1127:..\..\..\..\..\..\Software\uCOS-III\Source/os_task.c **** 
1128:..\..\..\..\..\..\Software\uCOS-III\Source/os_task.c **** 
1129:..\..\..\..\..\..\Software\uCOS-III\Source/os_task.c **** #ifdef OS_SAFETY_CRITICAL
1130:..\..\..\..\..\..\Software\uCOS-III\Source/os_task.c ****     if (p_err == (OS_ERR *)0) {
1131:..\..\..\..\..\..\Software\uCOS-III\Source/os_task.c ****         OS_SAFETY_CRITICAL_EXCEPTION();
1132:..\..\..\..\..\..\Software\uCOS-III\Source/os_task.c ****         return;
1133:..\..\..\..\..\..\Software\uCOS-III\Source/os_task.c ****     }
1134:..\..\..\..\..\..\Software\uCOS-III\Source/os_task.c **** #endif
1135:..\..\..\..\..\..\Software\uCOS-III\Source/os_task.c **** 
1136:..\..\..\..\..\..\Software\uCOS-III\Source/os_task.c **** #if OS_CFG_ARG_CHK_EN > 0u
1137:..\..\..\..\..\..\Software\uCOS-III\Source/os_task.c ****     if (id >= OS_CFG_TASK_REG_TBL_SIZE) {
 517              		.loc 1 1137 5 view .LVU141
 518              		.loc 1 1137 8 is_stmt 0 view .LVU142
 519 000c 0029     		cmp	r1, #0
 520 000e 03D0     		beq	.L37
1138:..\..\..\..\..\..\Software\uCOS-III\Source/os_task.c ****        *p_err = OS_ERR_REG_ID_INVALID;
 521              		.loc 1 1138 8 is_stmt 1 view .LVU143
 522              		.loc 1 1138 15 is_stmt 0 view .LVU144
 523 0010 0C4B     		ldr	r3, .L41
 524              	.LVL59:
 525              		.loc 1 1138 15 view .LVU145
 526 0012 3380     		strh	r3, [r6]
1139:..\..\..\..\..\..\Software\uCOS-III\Source/os_task.c ****         return;
 527              		.loc 1 1139 9 is_stmt 1 view .LVU146
 528              	.LVL60:
 529              	.L36:
1140:..\..\..\..\..\..\Software\uCOS-III\Source/os_task.c ****     }
1141:..\..\..\..\..\..\Software\uCOS-III\Source/os_task.c **** #endif
1142:..\..\..\..\..\..\Software\uCOS-III\Source/os_task.c **** 
1143:..\..\..\..\..\..\Software\uCOS-III\Source/os_task.c ****     CPU_CRITICAL_ENTER();
1144:..\..\..\..\..\..\Software\uCOS-III\Source/os_task.c ****     if (p_tcb == (OS_TCB *)0) {
1145:..\..\..\..\..\..\Software\uCOS-III\Source/os_task.c ****         p_tcb = OSTCBCurPtr;
1146:..\..\..\..\..\..\Software\uCOS-III\Source/os_task.c ****     }
1147:..\..\..\..\..\..\Software\uCOS-III\Source/os_task.c ****     p_tcb->RegTbl[id] = value;
1148:..\..\..\..\..\..\Software\uCOS-III\Source/os_task.c ****     CPU_CRITICAL_EXIT();
1149:..\..\..\..\..\..\Software\uCOS-III\Source/os_task.c ****    *p_err             = OS_ERR_NONE;
1150:..\..\..\..\..\..\Software\uCOS-III\Source/os_task.c **** }
 530              		.loc 1 1150 1 is_stmt 0 view .LVU147
 531 0014 03B0     		add	sp, sp, #12
 532              		@ sp needed
 533              	.LVL61:
 534              	.LVL62:
 535              	.LVL63:
 536              		.loc 1 1150 1 view .LVU148
 537 0016 F0BD     		pop	{r4, r5, r6, r7, pc}
ARM GAS  C:\Users\EDULU~1.DES\AppData\Local\Temp\ccxcKTgR.s 			page 32


 538              	.LVL64:
 539              	.L37:
1143:..\..\..\..\..\..\Software\uCOS-III\Source/os_task.c ****     if (p_tcb == (OS_TCB *)0) {
 540              		.loc 1 1143 5 is_stmt 1 view .LVU149
1143:..\..\..\..\..\..\Software\uCOS-III\Source/os_task.c ****     if (p_tcb == (OS_TCB *)0) {
 541              		.loc 1 1143 5 view .LVU150
1143:..\..\..\..\..\..\Software\uCOS-III\Source/os_task.c ****     if (p_tcb == (OS_TCB *)0) {
 542              		.loc 1 1143 5 view .LVU151
 543 0018 FFF7FEFF 		bl	CPU_SR_Save
 544              	.LVL65:
1143:..\..\..\..\..\..\Software\uCOS-III\Source/os_task.c ****     if (p_tcb == (OS_TCB *)0) {
 545              		.loc 1 1143 5 is_stmt 0 view .LVU152
 546 001c 0190     		str	r0, [sp, #4]
 547              	.LVL66:
1143:..\..\..\..\..\..\Software\uCOS-III\Source/os_task.c ****     if (p_tcb == (OS_TCB *)0) {
 548              		.loc 1 1143 5 is_stmt 1 view .LVU153
 549 001e FFF7FEFF 		bl	CPU_IntDisMeasStart
 550              	.LVL67:
1144:..\..\..\..\..\..\Software\uCOS-III\Source/os_task.c ****         p_tcb = OSTCBCurPtr;
 551              		.loc 1 1144 5 view .LVU154
1144:..\..\..\..\..\..\Software\uCOS-III\Source/os_task.c ****         p_tcb = OSTCBCurPtr;
 552              		.loc 1 1144 8 is_stmt 0 view .LVU155
 553 0022 002F     		cmp	r7, #0
 554 0024 0BD0     		beq	.L40
 555              	.L39:
1147:..\..\..\..\..\..\Software\uCOS-III\Source/os_task.c ****     CPU_CRITICAL_EXIT();
 556              		.loc 1 1147 5 is_stmt 1 view .LVU156
1147:..\..\..\..\..\..\Software\uCOS-III\Source/os_task.c ****     CPU_CRITICAL_EXIT();
 557              		.loc 1 1147 23 is_stmt 0 view .LVU157
 558 0026 1634     		adds	r4, r4, #22
 559 0028 A400     		lsls	r4, r4, #2
 560 002a 3C19     		adds	r4, r7, r4
 561 002c 6560     		str	r5, [r4, #4]
1148:..\..\..\..\..\..\Software\uCOS-III\Source/os_task.c ****    *p_err             = OS_ERR_NONE;
 562              		.loc 1 1148 5 is_stmt 1 view .LVU158
1148:..\..\..\..\..\..\Software\uCOS-III\Source/os_task.c ****    *p_err             = OS_ERR_NONE;
 563              		.loc 1 1148 5 view .LVU159
 564 002e FFF7FEFF 		bl	CPU_IntDisMeasStop
 565              	.LVL68:
1148:..\..\..\..\..\..\Software\uCOS-III\Source/os_task.c ****    *p_err             = OS_ERR_NONE;
 566              		.loc 1 1148 5 view .LVU160
1148:..\..\..\..\..\..\Software\uCOS-III\Source/os_task.c ****    *p_err             = OS_ERR_NONE;
 567              		.loc 1 1148 5 view .LVU161
 568 0032 0198     		ldr	r0, [sp, #4]
 569 0034 FFF7FEFF 		bl	CPU_SR_Restore
 570              	.LVL69:
1149:..\..\..\..\..\..\Software\uCOS-III\Source/os_task.c **** }
 571              		.loc 1 1149 4 view .LVU162
1149:..\..\..\..\..\..\Software\uCOS-III\Source/os_task.c **** }
 572              		.loc 1 1149 23 is_stmt 0 view .LVU163
 573 0038 0023     		movs	r3, #0
 574 003a 3380     		strh	r3, [r6]
 575 003c EAE7     		b	.L36
 576              	.L40:
1145:..\..\..\..\..\..\Software\uCOS-III\Source/os_task.c ****     }
 577              		.loc 1 1145 9 is_stmt 1 view .LVU164
1145:..\..\..\..\..\..\Software\uCOS-III\Source/os_task.c ****     }
ARM GAS  C:\Users\EDULU~1.DES\AppData\Local\Temp\ccxcKTgR.s 			page 33


 578              		.loc 1 1145 15 is_stmt 0 view .LVU165
 579 003e 024B     		ldr	r3, .L41+4
 580 0040 1F68     		ldr	r7, [r3]
 581              	.LVL70:
1145:..\..\..\..\..\..\Software\uCOS-III\Source/os_task.c ****     }
 582              		.loc 1 1145 15 view .LVU166
 583 0042 F0E7     		b	.L39
 584              	.L42:
 585              		.align	2
 586              	.L41:
 587 0044 79690000 		.word	27001
 588 0048 00000000 		.word	OSTCBCurPtr
 589              		.cfi_endproc
 590              	.LFE7:
 591              		.size	OSTaskRegSet, .-OSTaskRegSet
 592              		.section	.text.OSTaskSemPend,"ax",%progbits
 593              		.align	1
 594              		.global	OSTaskSemPend
 595              		.syntax unified
 596              		.code	16
 597              		.thumb_func
 598              		.fpu softvfp
 599              		.type	OSTaskSemPend, %function
 600              	OSTaskSemPend:
 601              	.LVL71:
 602              	.LFB9:
1151:..\..\..\..\..\..\Software\uCOS-III\Source/os_task.c **** #endif
1152:..\..\..\..\..\..\Software\uCOS-III\Source/os_task.c **** 
1153:..\..\..\..\..\..\Software\uCOS-III\Source/os_task.c **** /*$PAGE*/
1154:..\..\..\..\..\..\Software\uCOS-III\Source/os_task.c **** /*
1155:..\..\..\..\..\..\Software\uCOS-III\Source/os_task.c **** ***************************************************************************************************
1156:..\..\..\..\..\..\Software\uCOS-III\Source/os_task.c **** *                                               RESUME A SUSPENDED TASK
1157:..\..\..\..\..\..\Software\uCOS-III\Source/os_task.c **** *
1158:..\..\..\..\..\..\Software\uCOS-III\Source/os_task.c **** * Description: This function is called to resume a previously suspended task.  This is the only cal
1159:..\..\..\..\..\..\Software\uCOS-III\Source/os_task.c **** *              explicit task suspension.
1160:..\..\..\..\..\..\Software\uCOS-III\Source/os_task.c **** *
1161:..\..\..\..\..\..\Software\uCOS-III\Source/os_task.c **** * Arguments  : p_tcb      Is a pointer to the task's OS_TCB to resume
1162:..\..\..\..\..\..\Software\uCOS-III\Source/os_task.c **** *
1163:..\..\..\..\..\..\Software\uCOS-III\Source/os_task.c **** *              p_err      Is a pointer to a variable that will contain an error code returned by th
1164:..\..\..\..\..\..\Software\uCOS-III\Source/os_task.c **** *
1165:..\..\..\..\..\..\Software\uCOS-III\Source/os_task.c **** *                             OS_ERR_NONE                  if the requested task is resumed
1166:..\..\..\..\..\..\Software\uCOS-III\Source/os_task.c **** *                             OS_ERR_STATE_INVALID         if the task is in an invalid state
1167:..\..\..\..\..\..\Software\uCOS-III\Source/os_task.c **** *                             OS_ERR_TASK_RESUME_ISR       if you called this function from an ISR
1168:..\..\..\..\..\..\Software\uCOS-III\Source/os_task.c **** *                             OS_ERR_TASK_RESUME_SELF      You cannot resume 'self'
1169:..\..\..\..\..\..\Software\uCOS-III\Source/os_task.c **** *                             OS_ERR_TASK_NOT_SUSPENDED    if the task to resume has not been suspe
1170:..\..\..\..\..\..\Software\uCOS-III\Source/os_task.c **** *
1171:..\..\..\..\..\..\Software\uCOS-III\Source/os_task.c **** * Returns    : none
1172:..\..\..\..\..\..\Software\uCOS-III\Source/os_task.c **** ***************************************************************************************************
1173:..\..\..\..\..\..\Software\uCOS-III\Source/os_task.c **** */
1174:..\..\..\..\..\..\Software\uCOS-III\Source/os_task.c **** 
1175:..\..\..\..\..\..\Software\uCOS-III\Source/os_task.c **** #if OS_CFG_TASK_SUSPEND_EN > 0u
1176:..\..\..\..\..\..\Software\uCOS-III\Source/os_task.c **** void  OSTaskResume (OS_TCB  *p_tcb,
1177:..\..\..\..\..\..\Software\uCOS-III\Source/os_task.c ****                     OS_ERR  *p_err)
1178:..\..\..\..\..\..\Software\uCOS-III\Source/os_task.c **** {
1179:..\..\..\..\..\..\Software\uCOS-III\Source/os_task.c ****     CPU_SR_ALLOC();
1180:..\..\..\..\..\..\Software\uCOS-III\Source/os_task.c **** 
1181:..\..\..\..\..\..\Software\uCOS-III\Source/os_task.c **** 
ARM GAS  C:\Users\EDULU~1.DES\AppData\Local\Temp\ccxcKTgR.s 			page 34


1182:..\..\..\..\..\..\Software\uCOS-III\Source/os_task.c **** 
1183:..\..\..\..\..\..\Software\uCOS-III\Source/os_task.c **** #ifdef OS_SAFETY_CRITICAL
1184:..\..\..\..\..\..\Software\uCOS-III\Source/os_task.c ****     if (p_err == (OS_ERR *)0) {
1185:..\..\..\..\..\..\Software\uCOS-III\Source/os_task.c ****         OS_SAFETY_CRITICAL_EXCEPTION();
1186:..\..\..\..\..\..\Software\uCOS-III\Source/os_task.c ****         return;
1187:..\..\..\..\..\..\Software\uCOS-III\Source/os_task.c ****     }
1188:..\..\..\..\..\..\Software\uCOS-III\Source/os_task.c **** #endif
1189:..\..\..\..\..\..\Software\uCOS-III\Source/os_task.c **** 
1190:..\..\..\..\..\..\Software\uCOS-III\Source/os_task.c **** #if (OS_CFG_ISR_POST_DEFERRED_EN   == 0u) && \
1191:..\..\..\..\..\..\Software\uCOS-III\Source/os_task.c ****     (OS_CFG_CALLED_FROM_ISR_CHK_EN >  0u)
1192:..\..\..\..\..\..\Software\uCOS-III\Source/os_task.c ****     if (OSIntNestingCtr > (OS_NESTING_CTR)0) {              /* Not allowed to call from an ISR     
1193:..\..\..\..\..\..\Software\uCOS-III\Source/os_task.c ****        *p_err = OS_ERR_TASK_RESUME_ISR;
1194:..\..\..\..\..\..\Software\uCOS-III\Source/os_task.c ****         return;
1195:..\..\..\..\..\..\Software\uCOS-III\Source/os_task.c ****     }
1196:..\..\..\..\..\..\Software\uCOS-III\Source/os_task.c **** #endif
1197:..\..\..\..\..\..\Software\uCOS-III\Source/os_task.c **** 
1198:..\..\..\..\..\..\Software\uCOS-III\Source/os_task.c **** 
1199:..\..\..\..\..\..\Software\uCOS-III\Source/os_task.c ****     CPU_CRITICAL_ENTER();
1200:..\..\..\..\..\..\Software\uCOS-III\Source/os_task.c **** #if OS_CFG_ARG_CHK_EN > 0u
1201:..\..\..\..\..\..\Software\uCOS-III\Source/os_task.c ****     if ((p_tcb == (OS_TCB *)0) ||                           /* We cannot resume 'self'             
1202:..\..\..\..\..\..\Software\uCOS-III\Source/os_task.c ****         (p_tcb == OSTCBCurPtr)) {
1203:..\..\..\..\..\..\Software\uCOS-III\Source/os_task.c ****         CPU_CRITICAL_EXIT();
1204:..\..\..\..\..\..\Software\uCOS-III\Source/os_task.c ****        *p_err  = OS_ERR_TASK_RESUME_SELF;
1205:..\..\..\..\..\..\Software\uCOS-III\Source/os_task.c ****         return;
1206:..\..\..\..\..\..\Software\uCOS-III\Source/os_task.c ****     }
1207:..\..\..\..\..\..\Software\uCOS-III\Source/os_task.c **** #endif
1208:..\..\..\..\..\..\Software\uCOS-III\Source/os_task.c ****     CPU_CRITICAL_EXIT();
1209:..\..\..\..\..\..\Software\uCOS-III\Source/os_task.c **** 
1210:..\..\..\..\..\..\Software\uCOS-III\Source/os_task.c **** #if OS_CFG_ISR_POST_DEFERRED_EN > 0u
1211:..\..\..\..\..\..\Software\uCOS-III\Source/os_task.c ****     if (OSIntNestingCtr > (OS_NESTING_CTR)0) {              /* See if called from an ISR           
1212:..\..\..\..\..\..\Software\uCOS-III\Source/os_task.c ****         OS_IntQPost((OS_OBJ_TYPE)OS_OBJ_TYPE_TASK_RESUME,   /* Post to ISR queue                   
1213:..\..\..\..\..\..\Software\uCOS-III\Source/os_task.c ****                     (void      *)p_tcb,
1214:..\..\..\..\..\..\Software\uCOS-III\Source/os_task.c ****                     (void      *)0,
1215:..\..\..\..\..\..\Software\uCOS-III\Source/os_task.c ****                     (OS_MSG_SIZE)0,
1216:..\..\..\..\..\..\Software\uCOS-III\Source/os_task.c ****                     (OS_FLAGS   )0,
1217:..\..\..\..\..\..\Software\uCOS-III\Source/os_task.c ****                     (OS_OPT     )0,
1218:..\..\..\..\..\..\Software\uCOS-III\Source/os_task.c ****                     (CPU_TS     )0,
1219:..\..\..\..\..\..\Software\uCOS-III\Source/os_task.c ****                     (OS_ERR    *)p_err);
1220:..\..\..\..\..\..\Software\uCOS-III\Source/os_task.c ****         return;
1221:..\..\..\..\..\..\Software\uCOS-III\Source/os_task.c ****     }
1222:..\..\..\..\..\..\Software\uCOS-III\Source/os_task.c **** #endif
1223:..\..\..\..\..\..\Software\uCOS-III\Source/os_task.c **** 
1224:..\..\..\..\..\..\Software\uCOS-III\Source/os_task.c ****     OS_TaskResume(p_tcb, p_err);
1225:..\..\..\..\..\..\Software\uCOS-III\Source/os_task.c **** }
1226:..\..\..\..\..\..\Software\uCOS-III\Source/os_task.c **** #endif
1227:..\..\..\..\..\..\Software\uCOS-III\Source/os_task.c **** 
1228:..\..\..\..\..\..\Software\uCOS-III\Source/os_task.c **** /*$PAGE*/
1229:..\..\..\..\..\..\Software\uCOS-III\Source/os_task.c **** /*
1230:..\..\..\..\..\..\Software\uCOS-III\Source/os_task.c **** ***************************************************************************************************
1231:..\..\..\..\..\..\Software\uCOS-III\Source/os_task.c **** *                                              WAIT FOR A TASK SEMAPHORE
1232:..\..\..\..\..\..\Software\uCOS-III\Source/os_task.c **** *
1233:..\..\..\..\..\..\Software\uCOS-III\Source/os_task.c **** * Description: This function is called to block the current task until a signal is sent by another 
1234:..\..\..\..\..\..\Software\uCOS-III\Source/os_task.c **** *
1235:..\..\..\..\..\..\Software\uCOS-III\Source/os_task.c **** * Arguments  : timeout       is the amount of time you are will to wait for the signal
1236:..\..\..\..\..\..\Software\uCOS-III\Source/os_task.c **** *
1237:..\..\..\..\..\..\Software\uCOS-III\Source/os_task.c **** *              opt           determines whether the user wants to block if a semaphore post was not
1238:..\..\..\..\..\..\Software\uCOS-III\Source/os_task.c **** *
ARM GAS  C:\Users\EDULU~1.DES\AppData\Local\Temp\ccxcKTgR.s 			page 35


1239:..\..\..\..\..\..\Software\uCOS-III\Source/os_task.c **** *                                OS_OPT_PEND_BLOCKING
1240:..\..\..\..\..\..\Software\uCOS-III\Source/os_task.c **** *                                OS_OPT_PEND_NON_BLOCKING
1241:..\..\..\..\..\..\Software\uCOS-III\Source/os_task.c **** *
1242:..\..\..\..\..\..\Software\uCOS-III\Source/os_task.c **** *              p_ts          is a pointer to a variable that will receive the timestamp of when the
1243:..\..\..\..\..\..\Software\uCOS-III\Source/os_task.c **** *                            or pend aborted.  If you pass a NULL pointer (i.e. (CPU_TS *)0) then y
1244:..\..\..\..\..\..\Software\uCOS-III\Source/os_task.c **** *                            timestamp.  In other words, passing a NULL pointer is valid and indica
1245:..\..\..\..\..\..\Software\uCOS-III\Source/os_task.c **** *                            need the timestamp.
1246:..\..\..\..\..\..\Software\uCOS-III\Source/os_task.c **** *
1247:..\..\..\..\..\..\Software\uCOS-III\Source/os_task.c **** *              p_err         is a pointer to an error code that will be set by this function
1248:..\..\..\..\..\..\Software\uCOS-III\Source/os_task.c **** *
1249:..\..\..\..\..\..\Software\uCOS-III\Source/os_task.c **** *                                OS_ERR_NONE               The call was successful and your task re
1250:..\..\..\..\..\..\Software\uCOS-III\Source/os_task.c **** *                                OS_ERR_PEND_ABORT
1251:..\..\..\..\..\..\Software\uCOS-III\Source/os_task.c **** *                                OS_ERR_PEND_ISR           If you called this function from an ISR 
1252:..\..\..\..\..\..\Software\uCOS-III\Source/os_task.c **** *                                OS_ERR_PEND_WOULD_BLOCK   If you specified non-blocking but no sig
1253:..\..\..\..\..\..\Software\uCOS-III\Source/os_task.c **** *                                OS_ERR_SCHED_LOCKED       If the scheduler is locked
1254:..\..\..\..\..\..\Software\uCOS-III\Source/os_task.c **** *                                OS_ERR_STATUS_INVALID     If the pend status is invalid
1255:..\..\..\..\..\..\Software\uCOS-III\Source/os_task.c **** *                                OS_ERR_TIMEOUT            A message was not received within the sp
1256:..\..\..\..\..\..\Software\uCOS-III\Source/os_task.c **** *                                                          would lead to a suspension.
1257:..\..\..\..\..\..\Software\uCOS-III\Source/os_task.c **** *
1258:..\..\..\..\..\..\Software\uCOS-III\Source/os_task.c **** * Returns    : The current count of signals the task received, 0 if none.
1259:..\..\..\..\..\..\Software\uCOS-III\Source/os_task.c **** ***************************************************************************************************
1260:..\..\..\..\..\..\Software\uCOS-III\Source/os_task.c **** */
1261:..\..\..\..\..\..\Software\uCOS-III\Source/os_task.c **** 
1262:..\..\..\..\..\..\Software\uCOS-III\Source/os_task.c **** OS_SEM_CTR  OSTaskSemPend (OS_TICK   timeout,
1263:..\..\..\..\..\..\Software\uCOS-III\Source/os_task.c ****                            OS_OPT    opt,
1264:..\..\..\..\..\..\Software\uCOS-III\Source/os_task.c ****                            CPU_TS   *p_ts,
1265:..\..\..\..\..\..\Software\uCOS-III\Source/os_task.c ****                            OS_ERR   *p_err)
1266:..\..\..\..\..\..\Software\uCOS-III\Source/os_task.c **** {
 603              		.loc 1 1266 1 is_stmt 1 view -0
 604              		.cfi_startproc
 605              		@ args = 0, pretend = 0, frame = 8
 606              		@ frame_needed = 0, uses_anonymous_args = 0
 607              		.loc 1 1266 1 is_stmt 0 view .LVU168
 608 0000 F0B5     		push	{r4, r5, r6, r7, lr}
 609              		.cfi_def_cfa_offset 20
 610              		.cfi_offset 4, -20
 611              		.cfi_offset 5, -16
 612              		.cfi_offset 6, -12
 613              		.cfi_offset 7, -8
 614              		.cfi_offset 14, -4
 615 0002 83B0     		sub	sp, sp, #12
 616              		.cfi_def_cfa_offset 32
 617 0004 0090     		str	r0, [sp]
 618 0006 0C00     		movs	r4, r1
 619 0008 1500     		movs	r5, r2
 620 000a 1E00     		movs	r6, r3
1267:..\..\..\..\..\..\Software\uCOS-III\Source/os_task.c ****     OS_SEM_CTR    ctr;
 621              		.loc 1 1267 5 is_stmt 1 view .LVU169
1268:..\..\..\..\..\..\Software\uCOS-III\Source/os_task.c ****     CPU_SR_ALLOC();
 622              		.loc 1 1268 5 view .LVU170
 623              	.LVL72:
1269:..\..\..\..\..\..\Software\uCOS-III\Source/os_task.c **** 
1270:..\..\..\..\..\..\Software\uCOS-III\Source/os_task.c **** 
1271:..\..\..\..\..\..\Software\uCOS-III\Source/os_task.c **** 
1272:..\..\..\..\..\..\Software\uCOS-III\Source/os_task.c **** #ifdef OS_SAFETY_CRITICAL
1273:..\..\..\..\..\..\Software\uCOS-III\Source/os_task.c ****     if (p_err == (OS_ERR *)0) {
1274:..\..\..\..\..\..\Software\uCOS-III\Source/os_task.c ****         OS_SAFETY_CRITICAL_EXCEPTION();
ARM GAS  C:\Users\EDULU~1.DES\AppData\Local\Temp\ccxcKTgR.s 			page 36


1275:..\..\..\..\..\..\Software\uCOS-III\Source/os_task.c ****         return ((OS_SEM_CTR)0);
1276:..\..\..\..\..\..\Software\uCOS-III\Source/os_task.c ****     }
1277:..\..\..\..\..\..\Software\uCOS-III\Source/os_task.c **** #endif
1278:..\..\..\..\..\..\Software\uCOS-III\Source/os_task.c **** 
1279:..\..\..\..\..\..\Software\uCOS-III\Source/os_task.c **** #if OS_CFG_CALLED_FROM_ISR_CHK_EN > 0u
1280:..\..\..\..\..\..\Software\uCOS-III\Source/os_task.c ****     if (OSIntNestingCtr > (OS_NESTING_CTR)0) {              /* Not allowed to call from an ISR     
 624              		.loc 1 1280 5 view .LVU171
 625              		.loc 1 1280 25 is_stmt 0 view .LVU172
 626 000c 414B     		ldr	r3, .L65
 627              	.LVL73:
 628              		.loc 1 1280 25 view .LVU173
 629 000e 1B78     		ldrb	r3, [r3]
 630              		.loc 1 1280 8 view .LVU174
 631 0010 002B     		cmp	r3, #0
 632 0012 09D1     		bne	.L61
1281:..\..\..\..\..\..\Software\uCOS-III\Source/os_task.c ****        *p_err = OS_ERR_PEND_ISR;
1282:..\..\..\..\..\..\Software\uCOS-III\Source/os_task.c ****         return ((OS_SEM_CTR)0);
1283:..\..\..\..\..\..\Software\uCOS-III\Source/os_task.c ****     }
1284:..\..\..\..\..\..\Software\uCOS-III\Source/os_task.c **** #endif
1285:..\..\..\..\..\..\Software\uCOS-III\Source/os_task.c **** 
1286:..\..\..\..\..\..\Software\uCOS-III\Source/os_task.c **** #if OS_CFG_ARG_CHK_EN > 0u
1287:..\..\..\..\..\..\Software\uCOS-III\Source/os_task.c ****     switch (opt) {                                          /* Validate 'opt'                      
 633              		.loc 1 1287 5 is_stmt 1 view .LVU175
 634 0014 0029     		cmp	r1, #0
 635 0016 0DD0     		beq	.L46
 636 0018 8023     		movs	r3, #128
 637 001a 1B02     		lsls	r3, r3, #8
 638 001c 9942     		cmp	r1, r3
 639 001e 09D0     		beq	.L46
1288:..\..\..\..\..\..\Software\uCOS-III\Source/os_task.c ****         case OS_OPT_PEND_BLOCKING:
1289:..\..\..\..\..\..\Software\uCOS-III\Source/os_task.c ****         case OS_OPT_PEND_NON_BLOCKING:
1290:..\..\..\..\..\..\Software\uCOS-III\Source/os_task.c ****              break;
1291:..\..\..\..\..\..\Software\uCOS-III\Source/os_task.c **** 
1292:..\..\..\..\..\..\Software\uCOS-III\Source/os_task.c ****         default:
1293:..\..\..\..\..\..\Software\uCOS-III\Source/os_task.c ****             *p_err = OS_ERR_OPT_INVALID;
 640              		.loc 1 1293 13 view .LVU176
 641              		.loc 1 1293 20 is_stmt 0 view .LVU177
 642 0020 3D4B     		ldr	r3, .L65+4
 643 0022 3380     		strh	r3, [r6]
1294:..\..\..\..\..\..\Software\uCOS-III\Source/os_task.c ****              return ((OS_SEM_CTR)0);
 644              		.loc 1 1294 14 is_stmt 1 view .LVU178
 645              		.loc 1 1294 21 is_stmt 0 view .LVU179
 646 0024 0027     		movs	r7, #0
 647 0026 02E0     		b	.L43
 648              	.L61:
1281:..\..\..\..\..\..\Software\uCOS-III\Source/os_task.c ****        *p_err = OS_ERR_PEND_ISR;
 649              		.loc 1 1281 8 is_stmt 1 view .LVU180
1281:..\..\..\..\..\..\Software\uCOS-III\Source/os_task.c ****        *p_err = OS_ERR_PEND_ISR;
 650              		.loc 1 1281 15 is_stmt 0 view .LVU181
 651 0028 3C4B     		ldr	r3, .L65+8
 652 002a 3380     		strh	r3, [r6]
1282:..\..\..\..\..\..\Software\uCOS-III\Source/os_task.c ****     }
 653              		.loc 1 1282 9 is_stmt 1 view .LVU182
1282:..\..\..\..\..\..\Software\uCOS-III\Source/os_task.c ****     }
 654              		.loc 1 1282 16 is_stmt 0 view .LVU183
 655 002c 0027     		movs	r7, #0
 656              	.LVL74:
ARM GAS  C:\Users\EDULU~1.DES\AppData\Local\Temp\ccxcKTgR.s 			page 37


 657              	.L43:
1295:..\..\..\..\..\..\Software\uCOS-III\Source/os_task.c ****     }
1296:..\..\..\..\..\..\Software\uCOS-III\Source/os_task.c **** #endif
1297:..\..\..\..\..\..\Software\uCOS-III\Source/os_task.c **** 
1298:..\..\..\..\..\..\Software\uCOS-III\Source/os_task.c ****     if (p_ts != (CPU_TS *)0) {
1299:..\..\..\..\..\..\Software\uCOS-III\Source/os_task.c ****        *p_ts  = (CPU_TS  )0;                                /* Initialize the returned timestamp   
1300:..\..\..\..\..\..\Software\uCOS-III\Source/os_task.c ****     }
1301:..\..\..\..\..\..\Software\uCOS-III\Source/os_task.c **** 
1302:..\..\..\..\..\..\Software\uCOS-III\Source/os_task.c ****     CPU_CRITICAL_ENTER();
1303:..\..\..\..\..\..\Software\uCOS-III\Source/os_task.c ****     if (OSTCBCurPtr->SemCtr > (OS_SEM_CTR)0) {              /* See if task already been signaled   
1304:..\..\..\..\..\..\Software\uCOS-III\Source/os_task.c ****         OSTCBCurPtr->SemCtr--;
1305:..\..\..\..\..\..\Software\uCOS-III\Source/os_task.c ****         ctr    = OSTCBCurPtr->SemCtr;
1306:..\..\..\..\..\..\Software\uCOS-III\Source/os_task.c ****         if (p_ts != (CPU_TS *)0) {
1307:..\..\..\..\..\..\Software\uCOS-III\Source/os_task.c ****            *p_ts  = OSTCBCurPtr->TS;
1308:..\..\..\..\..\..\Software\uCOS-III\Source/os_task.c ****         }
1309:..\..\..\..\..\..\Software\uCOS-III\Source/os_task.c **** #if OS_CFG_TASK_PROFILE_EN > 0u
1310:..\..\..\..\..\..\Software\uCOS-III\Source/os_task.c ****         OSTCBCurPtr->SemPendTime = OS_TS_GET() - OSTCBCurPtr->TS;
1311:..\..\..\..\..\..\Software\uCOS-III\Source/os_task.c ****         if (OSTCBCurPtr->SemPendTimeMax < OSTCBCurPtr->SemPendTime) {
1312:..\..\..\..\..\..\Software\uCOS-III\Source/os_task.c ****             OSTCBCurPtr->SemPendTimeMax = OSTCBCurPtr->SemPendTime;
1313:..\..\..\..\..\..\Software\uCOS-III\Source/os_task.c ****         }
1314:..\..\..\..\..\..\Software\uCOS-III\Source/os_task.c **** #endif
1315:..\..\..\..\..\..\Software\uCOS-III\Source/os_task.c ****         CPU_CRITICAL_EXIT();
1316:..\..\..\..\..\..\Software\uCOS-III\Source/os_task.c ****        *p_err = OS_ERR_NONE;
1317:..\..\..\..\..\..\Software\uCOS-III\Source/os_task.c ****         return (ctr);
1318:..\..\..\..\..\..\Software\uCOS-III\Source/os_task.c ****     }
1319:..\..\..\..\..\..\Software\uCOS-III\Source/os_task.c **** 
1320:..\..\..\..\..\..\Software\uCOS-III\Source/os_task.c ****     if ((opt & OS_OPT_PEND_NON_BLOCKING) != (OS_OPT)0) {    /* Caller wants to block if not availab
1321:..\..\..\..\..\..\Software\uCOS-III\Source/os_task.c ****         CPU_CRITICAL_EXIT();
1322:..\..\..\..\..\..\Software\uCOS-III\Source/os_task.c ****        *p_err = OS_ERR_PEND_WOULD_BLOCK;                    /* No                                  
1323:..\..\..\..\..\..\Software\uCOS-III\Source/os_task.c ****         return ((OS_SEM_CTR)0);
1324:..\..\..\..\..\..\Software\uCOS-III\Source/os_task.c ****     } else {                                                /* Yes                                 
1325:..\..\..\..\..\..\Software\uCOS-III\Source/os_task.c ****         if (OSSchedLockNestingCtr > (OS_NESTING_CTR)0) {    /* Can't pend when the scheduler is loc
1326:..\..\..\..\..\..\Software\uCOS-III\Source/os_task.c ****             CPU_CRITICAL_EXIT();
1327:..\..\..\..\..\..\Software\uCOS-III\Source/os_task.c ****            *p_err = OS_ERR_SCHED_LOCKED;
1328:..\..\..\..\..\..\Software\uCOS-III\Source/os_task.c ****             return ((OS_SEM_CTR)0);
1329:..\..\..\..\..\..\Software\uCOS-III\Source/os_task.c ****         }
1330:..\..\..\..\..\..\Software\uCOS-III\Source/os_task.c ****     }
1331:..\..\..\..\..\..\Software\uCOS-III\Source/os_task.c ****                                                             /* Lock the scheduler/re-enable interru
1332:..\..\..\..\..\..\Software\uCOS-III\Source/os_task.c ****     OS_CRITICAL_ENTER_CPU_EXIT();                           
1333:..\..\..\..\..\..\Software\uCOS-III\Source/os_task.c ****     OS_Pend((OS_PEND_DATA *)0,                              /* Block task pending on Signal        
1334:..\..\..\..\..\..\Software\uCOS-III\Source/os_task.c ****             (OS_PEND_OBJ  *)0,
1335:..\..\..\..\..\..\Software\uCOS-III\Source/os_task.c ****             (OS_STATE      )OS_TASK_PEND_ON_TASK_SEM,
1336:..\..\..\..\..\..\Software\uCOS-III\Source/os_task.c ****             (OS_TICK       )timeout);
1337:..\..\..\..\..\..\Software\uCOS-III\Source/os_task.c ****     OS_CRITICAL_EXIT_NO_SCHED();
1338:..\..\..\..\..\..\Software\uCOS-III\Source/os_task.c **** 
1339:..\..\..\..\..\..\Software\uCOS-III\Source/os_task.c ****     OSSched();                                              /* Find next highest priority task read
1340:..\..\..\..\..\..\Software\uCOS-III\Source/os_task.c **** 
1341:..\..\..\..\..\..\Software\uCOS-III\Source/os_task.c ****     CPU_CRITICAL_ENTER();
1342:..\..\..\..\..\..\Software\uCOS-III\Source/os_task.c ****     switch (OSTCBCurPtr->PendStatus) {                      /* See if we timed-out or aborted      
1343:..\..\..\..\..\..\Software\uCOS-III\Source/os_task.c ****         case OS_STATUS_PEND_OK:
1344:..\..\..\..\..\..\Software\uCOS-III\Source/os_task.c ****              if (p_ts != (CPU_TS *)0) {
1345:..\..\..\..\..\..\Software\uCOS-III\Source/os_task.c ****                 *p_ts                    =  OSTCBCurPtr->TS;
1346:..\..\..\..\..\..\Software\uCOS-III\Source/os_task.c **** #if OS_CFG_TASK_PROFILE_EN > 0u
1347:..\..\..\..\..\..\Software\uCOS-III\Source/os_task.c ****                 OSTCBCurPtr->SemPendTime = OS_TS_GET() - OSTCBCurPtr->TS;
1348:..\..\..\..\..\..\Software\uCOS-III\Source/os_task.c ****                 if (OSTCBCurPtr->SemPendTimeMax < OSTCBCurPtr->SemPendTime) {
1349:..\..\..\..\..\..\Software\uCOS-III\Source/os_task.c ****                     OSTCBCurPtr->SemPendTimeMax = OSTCBCurPtr->SemPendTime;
1350:..\..\..\..\..\..\Software\uCOS-III\Source/os_task.c ****                 }
ARM GAS  C:\Users\EDULU~1.DES\AppData\Local\Temp\ccxcKTgR.s 			page 38


1351:..\..\..\..\..\..\Software\uCOS-III\Source/os_task.c **** #endif
1352:..\..\..\..\..\..\Software\uCOS-III\Source/os_task.c ****              }
1353:..\..\..\..\..\..\Software\uCOS-III\Source/os_task.c ****             *p_err = OS_ERR_NONE;
1354:..\..\..\..\..\..\Software\uCOS-III\Source/os_task.c ****              break;
1355:..\..\..\..\..\..\Software\uCOS-III\Source/os_task.c **** 
1356:..\..\..\..\..\..\Software\uCOS-III\Source/os_task.c ****         case OS_STATUS_PEND_ABORT:
1357:..\..\..\..\..\..\Software\uCOS-III\Source/os_task.c ****              if (p_ts != (CPU_TS *)0) {
1358:..\..\..\..\..\..\Software\uCOS-III\Source/os_task.c ****                 *p_ts  =  OSTCBCurPtr->TS;
1359:..\..\..\..\..\..\Software\uCOS-III\Source/os_task.c ****              }
1360:..\..\..\..\..\..\Software\uCOS-III\Source/os_task.c ****             *p_err = OS_ERR_PEND_ABORT;                     /* Indicate that we aborted            
1361:..\..\..\..\..\..\Software\uCOS-III\Source/os_task.c ****              break;
1362:..\..\..\..\..\..\Software\uCOS-III\Source/os_task.c **** 
1363:..\..\..\..\..\..\Software\uCOS-III\Source/os_task.c ****         case OS_STATUS_PEND_TIMEOUT:
1364:..\..\..\..\..\..\Software\uCOS-III\Source/os_task.c ****              if (p_ts != (CPU_TS *)0) {
1365:..\..\..\..\..\..\Software\uCOS-III\Source/os_task.c ****                 *p_ts  = (CPU_TS  )0;
1366:..\..\..\..\..\..\Software\uCOS-III\Source/os_task.c ****              }
1367:..\..\..\..\..\..\Software\uCOS-III\Source/os_task.c ****             *p_err = OS_ERR_TIMEOUT;                        /* Indicate that we didn't get event wi
1368:..\..\..\..\..\..\Software\uCOS-III\Source/os_task.c ****              break;
1369:..\..\..\..\..\..\Software\uCOS-III\Source/os_task.c **** 
1370:..\..\..\..\..\..\Software\uCOS-III\Source/os_task.c ****         default:
1371:..\..\..\..\..\..\Software\uCOS-III\Source/os_task.c ****             *p_err = OS_ERR_STATUS_INVALID;
1372:..\..\..\..\..\..\Software\uCOS-III\Source/os_task.c ****              break;
1373:..\..\..\..\..\..\Software\uCOS-III\Source/os_task.c ****     }
1374:..\..\..\..\..\..\Software\uCOS-III\Source/os_task.c ****     ctr = OSTCBCurPtr->SemCtr;
1375:..\..\..\..\..\..\Software\uCOS-III\Source/os_task.c ****     CPU_CRITICAL_EXIT();
1376:..\..\..\..\..\..\Software\uCOS-III\Source/os_task.c ****     return (ctr);
1377:..\..\..\..\..\..\Software\uCOS-III\Source/os_task.c **** }
 658              		.loc 1 1377 1 view .LVU184
 659 002e 3800     		movs	r0, r7
 660 0030 03B0     		add	sp, sp, #12
 661              	.LVL75:
 662              		.loc 1 1377 1 view .LVU185
 663              		@ sp needed
 664              	.LVL76:
 665              	.LVL77:
 666              		.loc 1 1377 1 view .LVU186
 667 0032 F0BD     		pop	{r4, r5, r6, r7, pc}
 668              	.LVL78:
 669              	.L46:
1290:..\..\..\..\..\..\Software\uCOS-III\Source/os_task.c **** 
 670              		.loc 1 1290 14 is_stmt 1 view .LVU187
1298:..\..\..\..\..\..\Software\uCOS-III\Source/os_task.c ****        *p_ts  = (CPU_TS  )0;                                /* Initialize the returned timestamp   
 671              		.loc 1 1298 5 view .LVU188
1298:..\..\..\..\..\..\Software\uCOS-III\Source/os_task.c ****        *p_ts  = (CPU_TS  )0;                                /* Initialize the returned timestamp   
 672              		.loc 1 1298 8 is_stmt 0 view .LVU189
 673 0034 002D     		cmp	r5, #0
 674 0036 01D0     		beq	.L47
1299:..\..\..\..\..\..\Software\uCOS-III\Source/os_task.c ****     }
 675              		.loc 1 1299 8 is_stmt 1 view .LVU190
1299:..\..\..\..\..\..\Software\uCOS-III\Source/os_task.c ****     }
 676              		.loc 1 1299 15 is_stmt 0 view .LVU191
 677 0038 0023     		movs	r3, #0
 678 003a 2B60     		str	r3, [r5]
 679              	.L47:
1302:..\..\..\..\..\..\Software\uCOS-III\Source/os_task.c ****     if (OSTCBCurPtr->SemCtr > (OS_SEM_CTR)0) {              /* See if task already been signaled   
 680              		.loc 1 1302 5 is_stmt 1 view .LVU192
1302:..\..\..\..\..\..\Software\uCOS-III\Source/os_task.c ****     if (OSTCBCurPtr->SemCtr > (OS_SEM_CTR)0) {              /* See if task already been signaled   
ARM GAS  C:\Users\EDULU~1.DES\AppData\Local\Temp\ccxcKTgR.s 			page 39


 681              		.loc 1 1302 5 view .LVU193
1302:..\..\..\..\..\..\Software\uCOS-III\Source/os_task.c ****     if (OSTCBCurPtr->SemCtr > (OS_SEM_CTR)0) {              /* See if task already been signaled   
 682              		.loc 1 1302 5 view .LVU194
 683 003c FFF7FEFF 		bl	CPU_SR_Save
 684              	.LVL79:
1302:..\..\..\..\..\..\Software\uCOS-III\Source/os_task.c ****     if (OSTCBCurPtr->SemCtr > (OS_SEM_CTR)0) {              /* See if task already been signaled   
 685              		.loc 1 1302 5 is_stmt 0 view .LVU195
 686 0040 0190     		str	r0, [sp, #4]
 687              	.LVL80:
1302:..\..\..\..\..\..\Software\uCOS-III\Source/os_task.c ****     if (OSTCBCurPtr->SemCtr > (OS_SEM_CTR)0) {              /* See if task already been signaled   
 688              		.loc 1 1302 5 is_stmt 1 view .LVU196
 689 0042 FFF7FEFF 		bl	CPU_IntDisMeasStart
 690              	.LVL81:
1303:..\..\..\..\..\..\Software\uCOS-III\Source/os_task.c ****         OSTCBCurPtr->SemCtr--;
 691              		.loc 1 1303 5 view .LVU197
1303:..\..\..\..\..\..\Software\uCOS-III\Source/os_task.c ****         OSTCBCurPtr->SemCtr--;
 692              		.loc 1 1303 20 is_stmt 0 view .LVU198
 693 0046 364B     		ldr	r3, .L65+12
 694 0048 1B68     		ldr	r3, [r3]
 695 004a 5F6C     		ldr	r7, [r3, #68]
1303:..\..\..\..\..\..\Software\uCOS-III\Source/os_task.c ****         OSTCBCurPtr->SemCtr--;
 696              		.loc 1 1303 8 view .LVU199
 697 004c 002F     		cmp	r7, #0
 698 004e 25D1     		bne	.L62
1320:..\..\..\..\..\..\Software\uCOS-III\Source/os_task.c ****         CPU_CRITICAL_EXIT();
 699              		.loc 1 1320 5 is_stmt 1 view .LVU200
1320:..\..\..\..\..\..\Software\uCOS-III\Source/os_task.c ****         CPU_CRITICAL_EXIT();
 700              		.loc 1 1320 42 is_stmt 0 view .LVU201
 701 0050 24B2     		sxth	r4, r4
1320:..\..\..\..\..\..\Software\uCOS-III\Source/os_task.c ****         CPU_CRITICAL_EXIT();
 702              		.loc 1 1320 8 view .LVU202
 703 0052 002C     		cmp	r4, #0
 704 0054 30DB     		blt	.L63
1325:..\..\..\..\..\..\Software\uCOS-III\Source/os_task.c ****             CPU_CRITICAL_EXIT();
 705              		.loc 1 1325 9 is_stmt 1 view .LVU203
1325:..\..\..\..\..\..\Software\uCOS-III\Source/os_task.c ****             CPU_CRITICAL_EXIT();
 706              		.loc 1 1325 35 is_stmt 0 view .LVU204
 707 0056 334B     		ldr	r3, .L65+16
 708 0058 1B78     		ldrb	r3, [r3]
1325:..\..\..\..\..\..\Software\uCOS-III\Source/os_task.c ****             CPU_CRITICAL_EXIT();
 709              		.loc 1 1325 12 view .LVU205
 710 005a 002B     		cmp	r3, #0
 711 005c 34D1     		bne	.L64
1332:..\..\..\..\..\..\Software\uCOS-III\Source/os_task.c ****     OS_Pend((OS_PEND_DATA *)0,                              /* Block task pending on Signal        
 712              		.loc 1 1332 33 is_stmt 1 view .LVU206
1333:..\..\..\..\..\..\Software\uCOS-III\Source/os_task.c ****             (OS_PEND_OBJ  *)0,
 713              		.loc 1 1333 5 view .LVU207
 714 005e 009B     		ldr	r3, [sp]
 715 0060 0722     		movs	r2, #7
 716 0062 0021     		movs	r1, #0
 717 0064 0020     		movs	r0, #0
 718 0066 FFF7FEFF 		bl	OS_Pend
 719              	.LVL82:
1337:..\..\..\..\..\..\Software\uCOS-III\Source/os_task.c **** 
 720              		.loc 1 1337 5 view .LVU208
1337:..\..\..\..\..\..\Software\uCOS-III\Source/os_task.c **** 
 721              		.loc 1 1337 5 view .LVU209
ARM GAS  C:\Users\EDULU~1.DES\AppData\Local\Temp\ccxcKTgR.s 			page 40


 722 006a FFF7FEFF 		bl	CPU_IntDisMeasStop
 723              	.LVL83:
1337:..\..\..\..\..\..\Software\uCOS-III\Source/os_task.c **** 
 724              		.loc 1 1337 5 view .LVU210
1337:..\..\..\..\..\..\Software\uCOS-III\Source/os_task.c **** 
 725              		.loc 1 1337 5 view .LVU211
 726 006e 0198     		ldr	r0, [sp, #4]
 727 0070 FFF7FEFF 		bl	CPU_SR_Restore
 728              	.LVL84:
1339:..\..\..\..\..\..\Software\uCOS-III\Source/os_task.c **** 
 729              		.loc 1 1339 5 view .LVU212
 730 0074 FFF7FEFF 		bl	OSSched
 731              	.LVL85:
1341:..\..\..\..\..\..\Software\uCOS-III\Source/os_task.c ****     switch (OSTCBCurPtr->PendStatus) {                      /* See if we timed-out or aborted      
 732              		.loc 1 1341 5 view .LVU213
1341:..\..\..\..\..\..\Software\uCOS-III\Source/os_task.c ****     switch (OSTCBCurPtr->PendStatus) {                      /* See if we timed-out or aborted      
 733              		.loc 1 1341 5 view .LVU214
1341:..\..\..\..\..\..\Software\uCOS-III\Source/os_task.c ****     switch (OSTCBCurPtr->PendStatus) {                      /* See if we timed-out or aborted      
 734              		.loc 1 1341 5 view .LVU215
 735 0078 FFF7FEFF 		bl	CPU_SR_Save
 736              	.LVL86:
 737 007c 0400     		movs	r4, r0
 738              	.LVL87:
1341:..\..\..\..\..\..\Software\uCOS-III\Source/os_task.c ****     switch (OSTCBCurPtr->PendStatus) {                      /* See if we timed-out or aborted      
 739              		.loc 1 1341 5 view .LVU216
 740 007e FFF7FEFF 		bl	CPU_IntDisMeasStart
 741              	.LVL88:
1342:..\..\..\..\..\..\Software\uCOS-III\Source/os_task.c ****         case OS_STATUS_PEND_OK:
 742              		.loc 1 1342 5 view .LVU217
1342:..\..\..\..\..\..\Software\uCOS-III\Source/os_task.c ****         case OS_STATUS_PEND_OK:
 743              		.loc 1 1342 24 is_stmt 0 view .LVU218
 744 0082 274B     		ldr	r3, .L65+12
 745 0084 1A68     		ldr	r2, [r3]
 746 0086 3523     		movs	r3, #53
 747 0088 D35C     		ldrb	r3, [r2, r3]
1342:..\..\..\..\..\..\Software\uCOS-III\Source/os_task.c ****         case OS_STATUS_PEND_OK:
 748              		.loc 1 1342 5 view .LVU219
 749 008a 012B     		cmp	r3, #1
 750 008c 33D0     		beq	.L52
 751 008e 002B     		cmp	r3, #0
 752 0090 22D0     		beq	.L53
 753 0092 032B     		cmp	r3, #3
 754 0094 36D0     		beq	.L54
1371:..\..\..\..\..\..\Software\uCOS-III\Source/os_task.c ****              break;
 755              		.loc 1 1371 13 is_stmt 1 view .LVU220
1371:..\..\..\..\..\..\Software\uCOS-III\Source/os_task.c ****              break;
 756              		.loc 1 1371 20 is_stmt 0 view .LVU221
 757 0096 244B     		ldr	r3, .L65+20
 758 0098 3380     		strh	r3, [r6]
1372:..\..\..\..\..\..\Software\uCOS-III\Source/os_task.c ****     }
 759              		.loc 1 1372 14 is_stmt 1 view .LVU222
 760 009a 23E0     		b	.L57
 761              	.LVL89:
 762              	.L62:
1304:..\..\..\..\..\..\Software\uCOS-III\Source/os_task.c ****         ctr    = OSTCBCurPtr->SemCtr;
 763              		.loc 1 1304 9 view .LVU223
1304:..\..\..\..\..\..\Software\uCOS-III\Source/os_task.c ****         ctr    = OSTCBCurPtr->SemCtr;
ARM GAS  C:\Users\EDULU~1.DES\AppData\Local\Temp\ccxcKTgR.s 			page 41


 764              		.loc 1 1304 28 is_stmt 0 view .LVU224
 765 009c 013F     		subs	r7, r7, #1
 766 009e 5F64     		str	r7, [r3, #68]
1305:..\..\..\..\..\..\Software\uCOS-III\Source/os_task.c ****         if (p_ts != (CPU_TS *)0) {
 767              		.loc 1 1305 9 is_stmt 1 view .LVU225
 768              	.LVL90:
1306:..\..\..\..\..\..\Software\uCOS-III\Source/os_task.c ****            *p_ts  = OSTCBCurPtr->TS;
 769              		.loc 1 1306 9 view .LVU226
1306:..\..\..\..\..\..\Software\uCOS-III\Source/os_task.c ****            *p_ts  = OSTCBCurPtr->TS;
 770              		.loc 1 1306 12 is_stmt 0 view .LVU227
 771 00a0 002D     		cmp	r5, #0
 772 00a2 01D0     		beq	.L49
1307:..\..\..\..\..\..\Software\uCOS-III\Source/os_task.c ****         }
 773              		.loc 1 1307 12 is_stmt 1 view .LVU228
1307:..\..\..\..\..\..\Software\uCOS-III\Source/os_task.c ****         }
 774              		.loc 1 1307 32 is_stmt 0 view .LVU229
 775 00a4 1B6C     		ldr	r3, [r3, #64]
 776 00a6 2B60     		str	r3, [r5]
 777              	.L49:
1315:..\..\..\..\..\..\Software\uCOS-III\Source/os_task.c ****        *p_err = OS_ERR_NONE;
 778              		.loc 1 1315 9 is_stmt 1 view .LVU230
1315:..\..\..\..\..\..\Software\uCOS-III\Source/os_task.c ****        *p_err = OS_ERR_NONE;
 779              		.loc 1 1315 9 view .LVU231
 780 00a8 FFF7FEFF 		bl	CPU_IntDisMeasStop
 781              	.LVL91:
1315:..\..\..\..\..\..\Software\uCOS-III\Source/os_task.c ****        *p_err = OS_ERR_NONE;
 782              		.loc 1 1315 9 view .LVU232
1315:..\..\..\..\..\..\Software\uCOS-III\Source/os_task.c ****        *p_err = OS_ERR_NONE;
 783              		.loc 1 1315 9 view .LVU233
 784 00ac 0198     		ldr	r0, [sp, #4]
 785 00ae FFF7FEFF 		bl	CPU_SR_Restore
 786              	.LVL92:
1316:..\..\..\..\..\..\Software\uCOS-III\Source/os_task.c ****         return (ctr);
 787              		.loc 1 1316 8 view .LVU234
1316:..\..\..\..\..\..\Software\uCOS-III\Source/os_task.c ****         return (ctr);
 788              		.loc 1 1316 15 is_stmt 0 view .LVU235
 789 00b2 0023     		movs	r3, #0
 790 00b4 3380     		strh	r3, [r6]
1317:..\..\..\..\..\..\Software\uCOS-III\Source/os_task.c ****     }
 791              		.loc 1 1317 9 is_stmt 1 view .LVU236
1317:..\..\..\..\..\..\Software\uCOS-III\Source/os_task.c ****     }
 792              		.loc 1 1317 16 is_stmt 0 view .LVU237
 793 00b6 BAE7     		b	.L43
 794              	.LVL93:
 795              	.L63:
1321:..\..\..\..\..\..\Software\uCOS-III\Source/os_task.c ****        *p_err = OS_ERR_PEND_WOULD_BLOCK;                    /* No                                  
 796              		.loc 1 1321 9 is_stmt 1 view .LVU238
1321:..\..\..\..\..\..\Software\uCOS-III\Source/os_task.c ****        *p_err = OS_ERR_PEND_WOULD_BLOCK;                    /* No                                  
 797              		.loc 1 1321 9 view .LVU239
 798 00b8 FFF7FEFF 		bl	CPU_IntDisMeasStop
 799              	.LVL94:
1321:..\..\..\..\..\..\Software\uCOS-III\Source/os_task.c ****        *p_err = OS_ERR_PEND_WOULD_BLOCK;                    /* No                                  
 800              		.loc 1 1321 9 view .LVU240
1321:..\..\..\..\..\..\Software\uCOS-III\Source/os_task.c ****        *p_err = OS_ERR_PEND_WOULD_BLOCK;                    /* No                                  
 801              		.loc 1 1321 9 view .LVU241
 802 00bc 0198     		ldr	r0, [sp, #4]
 803 00be FFF7FEFF 		bl	CPU_SR_Restore
ARM GAS  C:\Users\EDULU~1.DES\AppData\Local\Temp\ccxcKTgR.s 			page 42


 804              	.LVL95:
1322:..\..\..\..\..\..\Software\uCOS-III\Source/os_task.c ****         return ((OS_SEM_CTR)0);
 805              		.loc 1 1322 8 view .LVU242
1322:..\..\..\..\..\..\Software\uCOS-III\Source/os_task.c ****         return ((OS_SEM_CTR)0);
 806              		.loc 1 1322 15 is_stmt 0 view .LVU243
 807 00c2 1A4B     		ldr	r3, .L65+24
 808 00c4 3380     		strh	r3, [r6]
1323:..\..\..\..\..\..\Software\uCOS-III\Source/os_task.c ****     } else {                                                /* Yes                                 
 809              		.loc 1 1323 9 is_stmt 1 view .LVU244
1323:..\..\..\..\..\..\Software\uCOS-III\Source/os_task.c ****     } else {                                                /* Yes                                 
 810              		.loc 1 1323 16 is_stmt 0 view .LVU245
 811 00c6 B2E7     		b	.L43
 812              	.L64:
1326:..\..\..\..\..\..\Software\uCOS-III\Source/os_task.c ****            *p_err = OS_ERR_SCHED_LOCKED;
 813              		.loc 1 1326 13 is_stmt 1 view .LVU246
1326:..\..\..\..\..\..\Software\uCOS-III\Source/os_task.c ****            *p_err = OS_ERR_SCHED_LOCKED;
 814              		.loc 1 1326 13 view .LVU247
 815 00c8 FFF7FEFF 		bl	CPU_IntDisMeasStop
 816              	.LVL96:
1326:..\..\..\..\..\..\Software\uCOS-III\Source/os_task.c ****            *p_err = OS_ERR_SCHED_LOCKED;
 817              		.loc 1 1326 13 view .LVU248
1326:..\..\..\..\..\..\Software\uCOS-III\Source/os_task.c ****            *p_err = OS_ERR_SCHED_LOCKED;
 818              		.loc 1 1326 13 view .LVU249
 819 00cc 0198     		ldr	r0, [sp, #4]
 820 00ce FFF7FEFF 		bl	CPU_SR_Restore
 821              	.LVL97:
1327:..\..\..\..\..\..\Software\uCOS-III\Source/os_task.c ****             return ((OS_SEM_CTR)0);
 822              		.loc 1 1327 12 view .LVU250
1327:..\..\..\..\..\..\Software\uCOS-III\Source/os_task.c ****             return ((OS_SEM_CTR)0);
 823              		.loc 1 1327 19 is_stmt 0 view .LVU251
 824 00d2 174B     		ldr	r3, .L65+28
 825 00d4 3380     		strh	r3, [r6]
1328:..\..\..\..\..\..\Software\uCOS-III\Source/os_task.c ****         }
 826              		.loc 1 1328 13 is_stmt 1 view .LVU252
1328:..\..\..\..\..\..\Software\uCOS-III\Source/os_task.c ****         }
 827              		.loc 1 1328 20 is_stmt 0 view .LVU253
 828 00d6 AAE7     		b	.L43
 829              	.LVL98:
 830              	.L53:
1344:..\..\..\..\..\..\Software\uCOS-III\Source/os_task.c ****                 *p_ts                    =  OSTCBCurPtr->TS;
 831              		.loc 1 1344 14 is_stmt 1 view .LVU254
1344:..\..\..\..\..\..\Software\uCOS-III\Source/os_task.c ****                 *p_ts                    =  OSTCBCurPtr->TS;
 832              		.loc 1 1344 17 is_stmt 0 view .LVU255
 833 00d8 002D     		cmp	r5, #0
 834 00da 01D0     		beq	.L56
1345:..\..\..\..\..\..\Software\uCOS-III\Source/os_task.c **** #if OS_CFG_TASK_PROFILE_EN > 0u
 835              		.loc 1 1345 17 is_stmt 1 view .LVU256
1345:..\..\..\..\..\..\Software\uCOS-III\Source/os_task.c **** #if OS_CFG_TASK_PROFILE_EN > 0u
 836              		.loc 1 1345 56 is_stmt 0 view .LVU257
 837 00dc 136C     		ldr	r3, [r2, #64]
 838 00de 2B60     		str	r3, [r5]
 839              	.L56:
1353:..\..\..\..\..\..\Software\uCOS-III\Source/os_task.c ****              break;
 840              		.loc 1 1353 13 is_stmt 1 view .LVU258
1353:..\..\..\..\..\..\Software\uCOS-III\Source/os_task.c ****              break;
 841              		.loc 1 1353 20 is_stmt 0 view .LVU259
 842 00e0 0023     		movs	r3, #0
ARM GAS  C:\Users\EDULU~1.DES\AppData\Local\Temp\ccxcKTgR.s 			page 43


 843 00e2 3380     		strh	r3, [r6]
1354:..\..\..\..\..\..\Software\uCOS-III\Source/os_task.c **** 
 844              		.loc 1 1354 14 is_stmt 1 view .LVU260
 845              	.L57:
1374:..\..\..\..\..\..\Software\uCOS-III\Source/os_task.c ****     CPU_CRITICAL_EXIT();
 846              		.loc 1 1374 5 view .LVU261
1374:..\..\..\..\..\..\Software\uCOS-III\Source/os_task.c ****     CPU_CRITICAL_EXIT();
 847              		.loc 1 1374 22 is_stmt 0 view .LVU262
 848 00e4 0E4B     		ldr	r3, .L65+12
 849 00e6 1B68     		ldr	r3, [r3]
1374:..\..\..\..\..\..\Software\uCOS-III\Source/os_task.c ****     CPU_CRITICAL_EXIT();
 850              		.loc 1 1374 9 view .LVU263
 851 00e8 5F6C     		ldr	r7, [r3, #68]
 852              	.LVL99:
1375:..\..\..\..\..\..\Software\uCOS-III\Source/os_task.c ****     return (ctr);
 853              		.loc 1 1375 5 is_stmt 1 view .LVU264
1375:..\..\..\..\..\..\Software\uCOS-III\Source/os_task.c ****     return (ctr);
 854              		.loc 1 1375 5 view .LVU265
 855 00ea FFF7FEFF 		bl	CPU_IntDisMeasStop
 856              	.LVL100:
1375:..\..\..\..\..\..\Software\uCOS-III\Source/os_task.c ****     return (ctr);
 857              		.loc 1 1375 5 view .LVU266
1375:..\..\..\..\..\..\Software\uCOS-III\Source/os_task.c ****     return (ctr);
 858              		.loc 1 1375 5 view .LVU267
 859 00ee 2000     		movs	r0, r4
 860 00f0 FFF7FEFF 		bl	CPU_SR_Restore
 861              	.LVL101:
1376:..\..\..\..\..\..\Software\uCOS-III\Source/os_task.c **** }
 862              		.loc 1 1376 5 view .LVU268
1376:..\..\..\..\..\..\Software\uCOS-III\Source/os_task.c **** }
 863              		.loc 1 1376 12 is_stmt 0 view .LVU269
 864 00f4 9BE7     		b	.L43
 865              	.LVL102:
 866              	.L52:
1357:..\..\..\..\..\..\Software\uCOS-III\Source/os_task.c ****                 *p_ts  =  OSTCBCurPtr->TS;
 867              		.loc 1 1357 14 is_stmt 1 view .LVU270
1357:..\..\..\..\..\..\Software\uCOS-III\Source/os_task.c ****                 *p_ts  =  OSTCBCurPtr->TS;
 868              		.loc 1 1357 17 is_stmt 0 view .LVU271
 869 00f6 002D     		cmp	r5, #0
 870 00f8 01D0     		beq	.L58
1358:..\..\..\..\..\..\Software\uCOS-III\Source/os_task.c ****              }
 871              		.loc 1 1358 17 is_stmt 1 view .LVU272
1358:..\..\..\..\..\..\Software\uCOS-III\Source/os_task.c ****              }
 872              		.loc 1 1358 38 is_stmt 0 view .LVU273
 873 00fa 136C     		ldr	r3, [r2, #64]
 874 00fc 2B60     		str	r3, [r5]
 875              	.L58:
1360:..\..\..\..\..\..\Software\uCOS-III\Source/os_task.c ****              break;
 876              		.loc 1 1360 13 is_stmt 1 view .LVU274
1360:..\..\..\..\..\..\Software\uCOS-III\Source/os_task.c ****              break;
 877              		.loc 1 1360 20 is_stmt 0 view .LVU275
 878 00fe 0D4B     		ldr	r3, .L65+32
 879 0100 3380     		strh	r3, [r6]
1361:..\..\..\..\..\..\Software\uCOS-III\Source/os_task.c **** 
 880              		.loc 1 1361 14 is_stmt 1 view .LVU276
 881 0102 EFE7     		b	.L57
 882              	.L54:
ARM GAS  C:\Users\EDULU~1.DES\AppData\Local\Temp\ccxcKTgR.s 			page 44


1364:..\..\..\..\..\..\Software\uCOS-III\Source/os_task.c ****                 *p_ts  = (CPU_TS  )0;
 883              		.loc 1 1364 14 view .LVU277
1364:..\..\..\..\..\..\Software\uCOS-III\Source/os_task.c ****                 *p_ts  = (CPU_TS  )0;
 884              		.loc 1 1364 17 is_stmt 0 view .LVU278
 885 0104 002D     		cmp	r5, #0
 886 0106 01D0     		beq	.L59
1365:..\..\..\..\..\..\Software\uCOS-III\Source/os_task.c ****              }
 887              		.loc 1 1365 17 is_stmt 1 view .LVU279
1365:..\..\..\..\..\..\Software\uCOS-III\Source/os_task.c ****              }
 888              		.loc 1 1365 24 is_stmt 0 view .LVU280
 889 0108 0023     		movs	r3, #0
 890 010a 2B60     		str	r3, [r5]
 891              	.L59:
1367:..\..\..\..\..\..\Software\uCOS-III\Source/os_task.c ****              break;
 892              		.loc 1 1367 13 is_stmt 1 view .LVU281
1367:..\..\..\..\..\..\Software\uCOS-III\Source/os_task.c ****              break;
 893              		.loc 1 1367 20 is_stmt 0 view .LVU282
 894 010c 0A4B     		ldr	r3, .L65+36
 895 010e 3380     		strh	r3, [r6]
1368:..\..\..\..\..\..\Software\uCOS-III\Source/os_task.c **** 
 896              		.loc 1 1368 14 is_stmt 1 view .LVU283
 897 0110 E8E7     		b	.L57
 898              	.L66:
 899 0112 C046     		.align	2
 900              	.L65:
 901 0114 00000000 		.word	OSIntNestingCtr
 902 0118 255E0000 		.word	24101
 903 011c AE610000 		.word	25006
 904 0120 00000000 		.word	OSTCBCurPtr
 905 0124 00000000 		.word	OSSchedLockNestingCtr
 906 0128 2E6E0000 		.word	28206
 907 012c B0610000 		.word	25008
 908 0130 636D0000 		.word	28003
 909 0134 A9610000 		.word	25001
 910 0138 D9720000 		.word	29401
 911              		.cfi_endproc
 912              	.LFE9:
 913              		.size	OSTaskSemPend, .-OSTaskSemPend
 914              		.section	.text.OSTaskSemSet,"ax",%progbits
 915              		.align	1
 916              		.global	OSTaskSemSet
 917              		.syntax unified
 918              		.code	16
 919              		.thumb_func
 920              		.fpu softvfp
 921              		.type	OSTaskSemSet, %function
 922              	OSTaskSemSet:
 923              	.LVL103:
 924              	.LFB11:
1378:..\..\..\..\..\..\Software\uCOS-III\Source/os_task.c **** 
1379:..\..\..\..\..\..\Software\uCOS-III\Source/os_task.c **** /*$PAGE*/
1380:..\..\..\..\..\..\Software\uCOS-III\Source/os_task.c **** /*
1381:..\..\..\..\..\..\Software\uCOS-III\Source/os_task.c **** ***************************************************************************************************
1382:..\..\..\..\..\..\Software\uCOS-III\Source/os_task.c **** *                                               ABORT WAITING FOR A SIGNAL
1383:..\..\..\..\..\..\Software\uCOS-III\Source/os_task.c **** *
1384:..\..\..\..\..\..\Software\uCOS-III\Source/os_task.c **** * Description: This function aborts & readies the task specified.  This function should be used to 
1385:..\..\..\..\..\..\Software\uCOS-III\Source/os_task.c **** *              for a signal, rather than to normally post the signal to the task via OSTaskSemPost(
ARM GAS  C:\Users\EDULU~1.DES\AppData\Local\Temp\ccxcKTgR.s 			page 45


1386:..\..\..\..\..\..\Software\uCOS-III\Source/os_task.c **** *
1387:..\..\..\..\..\..\Software\uCOS-III\Source/os_task.c **** * Arguments  : p_tcb     is a pointer to the task to pend abort
1388:..\..\..\..\..\..\Software\uCOS-III\Source/os_task.c **** *
1389:..\..\..\..\..\..\Software\uCOS-III\Source/os_task.c **** *              opt       provides options for this function:
1390:..\..\..\..\..\..\Software\uCOS-III\Source/os_task.c **** *
1391:..\..\..\..\..\..\Software\uCOS-III\Source/os_task.c **** *                            OS_OPT_POST_NONE         No option selected
1392:..\..\..\..\..\..\Software\uCOS-III\Source/os_task.c **** *                            OS_OPT_POST_NO_SCHED     Indicates that the scheduler will not be call
1393:..\..\..\..\..\..\Software\uCOS-III\Source/os_task.c **** *
1394:..\..\..\..\..\..\Software\uCOS-III\Source/os_task.c **** *              p_err     is a pointer to a variable that will contain an error code returned by thi
1395:..\..\..\..\..\..\Software\uCOS-III\Source/os_task.c **** *
1396:..\..\..\..\..\..\Software\uCOS-III\Source/os_task.c **** *                            OS_ERR_NONE              If the task was readied and informed of the a
1397:..\..\..\..\..\..\Software\uCOS-III\Source/os_task.c **** *                            OS_ERR_PEND_ABORT_ISR    If you tried calling this function from an IS
1398:..\..\..\..\..\..\Software\uCOS-III\Source/os_task.c **** *                            OS_ERR_PEND_ABORT_NONE   If the task was not waiting for a signal
1399:..\..\..\..\..\..\Software\uCOS-III\Source/os_task.c **** *                            OS_ERR_PEND_ABORT_SELF   If you attempted to pend abort the calling ta
1400:..\..\..\..\..\..\Software\uCOS-III\Source/os_task.c **** *                                                     possible since the calling task cannot be pen
1401:..\..\..\..\..\..\Software\uCOS-III\Source/os_task.c **** *                                                     running.
1402:..\..\..\..\..\..\Software\uCOS-III\Source/os_task.c **** *
1403:..\..\..\..\..\..\Software\uCOS-III\Source/os_task.c **** * Returns    : == DEF_FALSE   if task was not waiting for a message, or upon error.
1404:..\..\..\..\..\..\Software\uCOS-III\Source/os_task.c **** *              == DEF_TRUE    if task was waiting for a message and was readied and informed.
1405:..\..\..\..\..\..\Software\uCOS-III\Source/os_task.c **** ***************************************************************************************************
1406:..\..\..\..\..\..\Software\uCOS-III\Source/os_task.c **** */
1407:..\..\..\..\..\..\Software\uCOS-III\Source/os_task.c **** 
1408:..\..\..\..\..\..\Software\uCOS-III\Source/os_task.c **** #if OS_CFG_TASK_SEM_PEND_ABORT_EN > 0u
1409:..\..\..\..\..\..\Software\uCOS-III\Source/os_task.c **** CPU_BOOLEAN  OSTaskSemPendAbort (OS_TCB  *p_tcb,
1410:..\..\..\..\..\..\Software\uCOS-III\Source/os_task.c ****                                  OS_OPT   opt,
1411:..\..\..\..\..\..\Software\uCOS-III\Source/os_task.c ****                                  OS_ERR  *p_err)
1412:..\..\..\..\..\..\Software\uCOS-III\Source/os_task.c **** {
1413:..\..\..\..\..\..\Software\uCOS-III\Source/os_task.c ****     CPU_TS         ts;
1414:..\..\..\..\..\..\Software\uCOS-III\Source/os_task.c ****     CPU_SR_ALLOC();
1415:..\..\..\..\..\..\Software\uCOS-III\Source/os_task.c **** 
1416:..\..\..\..\..\..\Software\uCOS-III\Source/os_task.c **** 
1417:..\..\..\..\..\..\Software\uCOS-III\Source/os_task.c **** 
1418:..\..\..\..\..\..\Software\uCOS-III\Source/os_task.c **** #ifdef OS_SAFETY_CRITICAL
1419:..\..\..\..\..\..\Software\uCOS-III\Source/os_task.c ****     if (p_err == (OS_ERR *)0) {
1420:..\..\..\..\..\..\Software\uCOS-III\Source/os_task.c ****         OS_SAFETY_CRITICAL_EXCEPTION();
1421:..\..\..\..\..\..\Software\uCOS-III\Source/os_task.c ****         return (DEF_FALSE);
1422:..\..\..\..\..\..\Software\uCOS-III\Source/os_task.c ****     }
1423:..\..\..\..\..\..\Software\uCOS-III\Source/os_task.c **** #endif
1424:..\..\..\..\..\..\Software\uCOS-III\Source/os_task.c **** 
1425:..\..\..\..\..\..\Software\uCOS-III\Source/os_task.c **** #if OS_CFG_CALLED_FROM_ISR_CHK_EN > 0u
1426:..\..\..\..\..\..\Software\uCOS-III\Source/os_task.c ****     if (OSIntNestingCtr > (OS_NESTING_CTR)0) {              /* See if called from ISR ...          
1427:..\..\..\..\..\..\Software\uCOS-III\Source/os_task.c ****        *p_err = OS_ERR_PEND_ABORT_ISR;                      /* ... can't Pend Abort from an ISR    
1428:..\..\..\..\..\..\Software\uCOS-III\Source/os_task.c ****         return (DEF_FALSE);
1429:..\..\..\..\..\..\Software\uCOS-III\Source/os_task.c ****     }
1430:..\..\..\..\..\..\Software\uCOS-III\Source/os_task.c **** #endif
1431:..\..\..\..\..\..\Software\uCOS-III\Source/os_task.c **** 
1432:..\..\..\..\..\..\Software\uCOS-III\Source/os_task.c **** #if OS_CFG_ARG_CHK_EN > 0u
1433:..\..\..\..\..\..\Software\uCOS-III\Source/os_task.c ****     switch (opt) {                                          /* Validate 'opt'                      
1434:..\..\..\..\..\..\Software\uCOS-III\Source/os_task.c ****         case OS_OPT_POST_NONE:
1435:..\..\..\..\..\..\Software\uCOS-III\Source/os_task.c ****         case OS_OPT_POST_NO_SCHED:
1436:..\..\..\..\..\..\Software\uCOS-III\Source/os_task.c ****              break;
1437:..\..\..\..\..\..\Software\uCOS-III\Source/os_task.c **** 
1438:..\..\..\..\..\..\Software\uCOS-III\Source/os_task.c ****         default:
1439:..\..\..\..\..\..\Software\uCOS-III\Source/os_task.c ****             *p_err =  OS_ERR_OPT_INVALID;
1440:..\..\..\..\..\..\Software\uCOS-III\Source/os_task.c ****              return (DEF_FALSE);
1441:..\..\..\..\..\..\Software\uCOS-III\Source/os_task.c ****     }
1442:..\..\..\..\..\..\Software\uCOS-III\Source/os_task.c **** #endif
ARM GAS  C:\Users\EDULU~1.DES\AppData\Local\Temp\ccxcKTgR.s 			page 46


1443:..\..\..\..\..\..\Software\uCOS-III\Source/os_task.c **** 
1444:..\..\..\..\..\..\Software\uCOS-III\Source/os_task.c ****     CPU_CRITICAL_ENTER();
1445:..\..\..\..\..\..\Software\uCOS-III\Source/os_task.c ****     if ((p_tcb == (OS_TCB *)0) ||                           /* Pend abort self?                    
1446:..\..\..\..\..\..\Software\uCOS-III\Source/os_task.c ****         (p_tcb == OSTCBCurPtr)) {
1447:..\..\..\..\..\..\Software\uCOS-III\Source/os_task.c ****         CPU_CRITICAL_EXIT();                                /* ... doesn't make sense!             
1448:..\..\..\..\..\..\Software\uCOS-III\Source/os_task.c ****        *p_err = OS_ERR_PEND_ABORT_SELF;
1449:..\..\..\..\..\..\Software\uCOS-III\Source/os_task.c ****         return (DEF_FALSE);
1450:..\..\..\..\..\..\Software\uCOS-III\Source/os_task.c ****     }
1451:..\..\..\..\..\..\Software\uCOS-III\Source/os_task.c **** 
1452:..\..\..\..\..\..\Software\uCOS-III\Source/os_task.c ****     if (p_tcb->PendOn != OS_TASK_PEND_ON_TASK_SEM) {        /* Is task waiting for a signal?       
1453:..\..\..\..\..\..\Software\uCOS-III\Source/os_task.c ****         CPU_CRITICAL_EXIT();
1454:..\..\..\..\..\..\Software\uCOS-III\Source/os_task.c ****        *p_err = OS_ERR_PEND_ABORT_NONE;
1455:..\..\..\..\..\..\Software\uCOS-III\Source/os_task.c ****         return (DEF_FALSE);
1456:..\..\..\..\..\..\Software\uCOS-III\Source/os_task.c ****     }
1457:..\..\..\..\..\..\Software\uCOS-III\Source/os_task.c ****     CPU_CRITICAL_EXIT();
1458:..\..\..\..\..\..\Software\uCOS-III\Source/os_task.c **** 
1459:..\..\..\..\..\..\Software\uCOS-III\Source/os_task.c ****     OS_CRITICAL_ENTER();
1460:..\..\..\..\..\..\Software\uCOS-III\Source/os_task.c ****     ts = OS_TS_GET();
1461:..\..\..\..\..\..\Software\uCOS-III\Source/os_task.c ****     OS_PendAbort((OS_PEND_OBJ *)0,
1462:..\..\..\..\..\..\Software\uCOS-III\Source/os_task.c ****                  p_tcb,
1463:..\..\..\..\..\..\Software\uCOS-III\Source/os_task.c ****                  ts);
1464:..\..\..\..\..\..\Software\uCOS-III\Source/os_task.c ****     OS_CRITICAL_EXIT_NO_SCHED();
1465:..\..\..\..\..\..\Software\uCOS-III\Source/os_task.c ****     if ((opt & OS_OPT_POST_NO_SCHED) == (OS_OPT)0) {
1466:..\..\..\..\..\..\Software\uCOS-III\Source/os_task.c ****         OSSched();                                          /* Run the scheduler                   
1467:..\..\..\..\..\..\Software\uCOS-III\Source/os_task.c ****     }
1468:..\..\..\..\..\..\Software\uCOS-III\Source/os_task.c ****    *p_err = OS_ERR_NONE;
1469:..\..\..\..\..\..\Software\uCOS-III\Source/os_task.c ****     return (DEF_TRUE);
1470:..\..\..\..\..\..\Software\uCOS-III\Source/os_task.c **** }
1471:..\..\..\..\..\..\Software\uCOS-III\Source/os_task.c **** #endif
1472:..\..\..\..\..\..\Software\uCOS-III\Source/os_task.c **** 
1473:..\..\..\..\..\..\Software\uCOS-III\Source/os_task.c **** /*$PAGE*/
1474:..\..\..\..\..\..\Software\uCOS-III\Source/os_task.c **** /*
1475:..\..\..\..\..\..\Software\uCOS-III\Source/os_task.c **** ***************************************************************************************************
1476:..\..\..\..\..\..\Software\uCOS-III\Source/os_task.c **** *                                                    SIGNAL A TASK
1477:..\..\..\..\..\..\Software\uCOS-III\Source/os_task.c **** *
1478:..\..\..\..\..\..\Software\uCOS-III\Source/os_task.c **** * Description: This function is called to signal a task waiting for a signal.
1479:..\..\..\..\..\..\Software\uCOS-III\Source/os_task.c **** *
1480:..\..\..\..\..\..\Software\uCOS-III\Source/os_task.c **** * Arguments  : p_tcb     is the pointer to the TCB of the task to signal.  A NULL pointer indicates
1481:..\..\..\..\..\..\Software\uCOS-III\Source/os_task.c **** *                        a signal to yourself.
1482:..\..\..\..\..\..\Software\uCOS-III\Source/os_task.c **** *
1483:..\..\..\..\..\..\Software\uCOS-III\Source/os_task.c **** *              opt       determines the type of POST performed:
1484:..\..\..\..\..\..\Software\uCOS-III\Source/os_task.c **** *
1485:..\..\..\..\..\..\Software\uCOS-III\Source/os_task.c **** *                             OS_OPT_POST_NONE         No option
1486:..\..\..\..\..\..\Software\uCOS-III\Source/os_task.c **** *                             OS_OPT_POST_NO_SCHED     Do not call the scheduler
1487:..\..\..\..\..\..\Software\uCOS-III\Source/os_task.c **** *
1488:..\..\..\..\..\..\Software\uCOS-III\Source/os_task.c **** *              p_err     is a pointer to an error code returned by this function:
1489:..\..\..\..\..\..\Software\uCOS-III\Source/os_task.c **** *
1490:..\..\..\..\..\..\Software\uCOS-III\Source/os_task.c **** *                            OS_ERR_NONE              If the requested task is signaled
1491:..\..\..\..\..\..\Software\uCOS-III\Source/os_task.c **** *                            OS_ERR_SEM_OVF           If the post would cause the semaphore count t
1492:..\..\..\..\..\..\Software\uCOS-III\Source/os_task.c **** *
1493:..\..\..\..\..\..\Software\uCOS-III\Source/os_task.c **** * Returns    : The current value of the task's signal counter or 0 if called from an ISR
1494:..\..\..\..\..\..\Software\uCOS-III\Source/os_task.c **** ***************************************************************************************************
1495:..\..\..\..\..\..\Software\uCOS-III\Source/os_task.c **** */
1496:..\..\..\..\..\..\Software\uCOS-III\Source/os_task.c **** 
1497:..\..\..\..\..\..\Software\uCOS-III\Source/os_task.c **** OS_SEM_CTR  OSTaskSemPost (OS_TCB  *p_tcb,
1498:..\..\..\..\..\..\Software\uCOS-III\Source/os_task.c ****                            OS_OPT   opt,
1499:..\..\..\..\..\..\Software\uCOS-III\Source/os_task.c ****                            OS_ERR  *p_err)
ARM GAS  C:\Users\EDULU~1.DES\AppData\Local\Temp\ccxcKTgR.s 			page 47


1500:..\..\..\..\..\..\Software\uCOS-III\Source/os_task.c **** {
1501:..\..\..\..\..\..\Software\uCOS-III\Source/os_task.c ****     OS_SEM_CTR  ctr;
1502:..\..\..\..\..\..\Software\uCOS-III\Source/os_task.c ****     CPU_TS      ts;
1503:..\..\..\..\..\..\Software\uCOS-III\Source/os_task.c **** 
1504:..\..\..\..\..\..\Software\uCOS-III\Source/os_task.c **** 
1505:..\..\..\..\..\..\Software\uCOS-III\Source/os_task.c **** 
1506:..\..\..\..\..\..\Software\uCOS-III\Source/os_task.c **** #ifdef OS_SAFETY_CRITICAL
1507:..\..\..\..\..\..\Software\uCOS-III\Source/os_task.c ****     if (p_err == (OS_ERR *)0) {
1508:..\..\..\..\..\..\Software\uCOS-III\Source/os_task.c ****         OS_SAFETY_CRITICAL_EXCEPTION();
1509:..\..\..\..\..\..\Software\uCOS-III\Source/os_task.c ****         return ((OS_SEM_CTR)0);
1510:..\..\..\..\..\..\Software\uCOS-III\Source/os_task.c ****     }
1511:..\..\..\..\..\..\Software\uCOS-III\Source/os_task.c **** #endif
1512:..\..\..\..\..\..\Software\uCOS-III\Source/os_task.c **** 
1513:..\..\..\..\..\..\Software\uCOS-III\Source/os_task.c **** #if OS_CFG_ARG_CHK_EN > 0u
1514:..\..\..\..\..\..\Software\uCOS-III\Source/os_task.c ****     switch (opt) {                                          /* Validate 'opt'                      
1515:..\..\..\..\..\..\Software\uCOS-III\Source/os_task.c ****         case OS_OPT_POST_NONE:
1516:..\..\..\..\..\..\Software\uCOS-III\Source/os_task.c ****         case OS_OPT_POST_NO_SCHED:
1517:..\..\..\..\..\..\Software\uCOS-III\Source/os_task.c ****              break;
1518:..\..\..\..\..\..\Software\uCOS-III\Source/os_task.c **** 
1519:..\..\..\..\..\..\Software\uCOS-III\Source/os_task.c ****         default:
1520:..\..\..\..\..\..\Software\uCOS-III\Source/os_task.c ****             *p_err =  OS_ERR_OPT_INVALID;
1521:..\..\..\..\..\..\Software\uCOS-III\Source/os_task.c ****              return ((OS_SEM_CTR)0u);
1522:..\..\..\..\..\..\Software\uCOS-III\Source/os_task.c ****     }
1523:..\..\..\..\..\..\Software\uCOS-III\Source/os_task.c **** #endif
1524:..\..\..\..\..\..\Software\uCOS-III\Source/os_task.c **** 
1525:..\..\..\..\..\..\Software\uCOS-III\Source/os_task.c ****     ts = OS_TS_GET();                                       /* Get timestamp                       
1526:..\..\..\..\..\..\Software\uCOS-III\Source/os_task.c **** 
1527:..\..\..\..\..\..\Software\uCOS-III\Source/os_task.c **** #if OS_CFG_ISR_POST_DEFERRED_EN > 0u
1528:..\..\..\..\..\..\Software\uCOS-III\Source/os_task.c ****     if (OSIntNestingCtr > (OS_NESTING_CTR)0) {              /* See if called from an ISR           
1529:..\..\..\..\..\..\Software\uCOS-III\Source/os_task.c ****         OS_IntQPost((OS_OBJ_TYPE)OS_OBJ_TYPE_TASK_SIGNAL,   /* Post to ISR queue                   
1530:..\..\..\..\..\..\Software\uCOS-III\Source/os_task.c ****                     (void      *)p_tcb,
1531:..\..\..\..\..\..\Software\uCOS-III\Source/os_task.c ****                     (void      *)0,
1532:..\..\..\..\..\..\Software\uCOS-III\Source/os_task.c ****                     (OS_MSG_SIZE)0,
1533:..\..\..\..\..\..\Software\uCOS-III\Source/os_task.c ****                     (OS_FLAGS   )0,
1534:..\..\..\..\..\..\Software\uCOS-III\Source/os_task.c ****                     (OS_OPT     )0,
1535:..\..\..\..\..\..\Software\uCOS-III\Source/os_task.c ****                     (CPU_TS     )ts,
1536:..\..\..\..\..\..\Software\uCOS-III\Source/os_task.c ****                     (OS_ERR    *)p_err);
1537:..\..\..\..\..\..\Software\uCOS-III\Source/os_task.c ****         return ((OS_SEM_CTR)0);
1538:..\..\..\..\..\..\Software\uCOS-III\Source/os_task.c ****     }
1539:..\..\..\..\..\..\Software\uCOS-III\Source/os_task.c **** #endif
1540:..\..\..\..\..\..\Software\uCOS-III\Source/os_task.c **** 
1541:..\..\..\..\..\..\Software\uCOS-III\Source/os_task.c ****     ctr = OS_TaskSemPost(p_tcb,
1542:..\..\..\..\..\..\Software\uCOS-III\Source/os_task.c ****                          opt,
1543:..\..\..\..\..\..\Software\uCOS-III\Source/os_task.c ****                          ts,
1544:..\..\..\..\..\..\Software\uCOS-III\Source/os_task.c ****                          p_err);
1545:..\..\..\..\..\..\Software\uCOS-III\Source/os_task.c **** 
1546:..\..\..\..\..\..\Software\uCOS-III\Source/os_task.c ****     return (ctr);
1547:..\..\..\..\..\..\Software\uCOS-III\Source/os_task.c **** }
1548:..\..\..\..\..\..\Software\uCOS-III\Source/os_task.c **** 
1549:..\..\..\..\..\..\Software\uCOS-III\Source/os_task.c **** /*$PAGE*/
1550:..\..\..\..\..\..\Software\uCOS-III\Source/os_task.c **** /*
1551:..\..\..\..\..\..\Software\uCOS-III\Source/os_task.c **** ***************************************************************************************************
1552:..\..\..\..\..\..\Software\uCOS-III\Source/os_task.c **** *                                            SET THE SIGNAL COUNTER OF A TASK
1553:..\..\..\..\..\..\Software\uCOS-III\Source/os_task.c **** *
1554:..\..\..\..\..\..\Software\uCOS-III\Source/os_task.c **** * Description: This function is called to clear the signal counter
1555:..\..\..\..\..\..\Software\uCOS-III\Source/os_task.c **** *
1556:..\..\..\..\..\..\Software\uCOS-III\Source/os_task.c **** * Arguments  : p_tcb      is the pointer to the TCB of the task to clear the counter.  If you speci
ARM GAS  C:\Users\EDULU~1.DES\AppData\Local\Temp\ccxcKTgR.s 			page 48


1557:..\..\..\..\..\..\Software\uCOS-III\Source/os_task.c **** *                         then the signal counter of the current task will be cleared.
1558:..\..\..\..\..\..\Software\uCOS-III\Source/os_task.c **** *
1559:..\..\..\..\..\..\Software\uCOS-III\Source/os_task.c **** *              cnt        is the desired value of the semaphore counter
1560:..\..\..\..\..\..\Software\uCOS-III\Source/os_task.c **** *
1561:..\..\..\..\..\..\Software\uCOS-III\Source/os_task.c **** *              p_err      is a pointer to an error code returned by this function
1562:..\..\..\..\..\..\Software\uCOS-III\Source/os_task.c **** *
1563:..\..\..\..\..\..\Software\uCOS-III\Source/os_task.c **** *                             OS_ERR_NONE        if the signal counter of the requested task is cle
1564:..\..\..\..\..\..\Software\uCOS-III\Source/os_task.c **** *                             OS_ERR_SET_ISR     if the function was called from an ISR
1565:..\..\..\..\..\..\Software\uCOS-III\Source/os_task.c **** *
1566:..\..\..\..\..\..\Software\uCOS-III\Source/os_task.c **** * Returns    : none
1567:..\..\..\..\..\..\Software\uCOS-III\Source/os_task.c **** ***************************************************************************************************
1568:..\..\..\..\..\..\Software\uCOS-III\Source/os_task.c **** */
1569:..\..\..\..\..\..\Software\uCOS-III\Source/os_task.c **** 
1570:..\..\..\..\..\..\Software\uCOS-III\Source/os_task.c **** OS_SEM_CTR  OSTaskSemSet (OS_TCB      *p_tcb,
1571:..\..\..\..\..\..\Software\uCOS-III\Source/os_task.c ****                           OS_SEM_CTR   cnt,
1572:..\..\..\..\..\..\Software\uCOS-III\Source/os_task.c ****                           OS_ERR      *p_err)
1573:..\..\..\..\..\..\Software\uCOS-III\Source/os_task.c **** {
 925              		.loc 1 1573 1 view -0
 926              		.cfi_startproc
 927              		@ args = 0, pretend = 0, frame = 8
 928              		@ frame_needed = 0, uses_anonymous_args = 0
 929              		.loc 1 1573 1 is_stmt 0 view .LVU285
 930 0000 F0B5     		push	{r4, r5, r6, r7, lr}
 931              		.cfi_def_cfa_offset 20
 932              		.cfi_offset 4, -20
 933              		.cfi_offset 5, -16
 934              		.cfi_offset 6, -12
 935              		.cfi_offset 7, -8
 936              		.cfi_offset 14, -4
 937 0002 83B0     		sub	sp, sp, #12
 938              		.cfi_def_cfa_offset 32
 939 0004 0400     		movs	r4, r0
 940 0006 0D00     		movs	r5, r1
 941 0008 1700     		movs	r7, r2
1574:..\..\..\..\..\..\Software\uCOS-III\Source/os_task.c ****     OS_SEM_CTR  ctr;
 942              		.loc 1 1574 5 is_stmt 1 view .LVU286
1575:..\..\..\..\..\..\Software\uCOS-III\Source/os_task.c ****     CPU_SR_ALLOC();
 943              		.loc 1 1575 5 view .LVU287
 944              	.LVL104:
1576:..\..\..\..\..\..\Software\uCOS-III\Source/os_task.c **** 
1577:..\..\..\..\..\..\Software\uCOS-III\Source/os_task.c **** 
1578:..\..\..\..\..\..\Software\uCOS-III\Source/os_task.c **** 
1579:..\..\..\..\..\..\Software\uCOS-III\Source/os_task.c **** #ifdef OS_SAFETY_CRITICAL
1580:..\..\..\..\..\..\Software\uCOS-III\Source/os_task.c ****     if (p_err == (OS_ERR *)0) {
1581:..\..\..\..\..\..\Software\uCOS-III\Source/os_task.c ****         OS_SAFETY_CRITICAL_EXCEPTION();
1582:..\..\..\..\..\..\Software\uCOS-III\Source/os_task.c ****         return ((OS_SEM_CTR)0);
1583:..\..\..\..\..\..\Software\uCOS-III\Source/os_task.c ****     }
1584:..\..\..\..\..\..\Software\uCOS-III\Source/os_task.c **** #endif
1585:..\..\..\..\..\..\Software\uCOS-III\Source/os_task.c **** 
1586:..\..\..\..\..\..\Software\uCOS-III\Source/os_task.c **** #if OS_CFG_CALLED_FROM_ISR_CHK_EN > 0u
1587:..\..\..\..\..\..\Software\uCOS-III\Source/os_task.c ****     if (OSIntNestingCtr > (OS_NESTING_CTR)0) {              /* Not allowed to call from an ISR     
 945              		.loc 1 1587 5 view .LVU288
 946              		.loc 1 1587 25 is_stmt 0 view .LVU289
 947 000a 0F4B     		ldr	r3, .L72
 948 000c 1B78     		ldrb	r3, [r3]
 949              		.loc 1 1587 8 view .LVU290
 950 000e 002B     		cmp	r3, #0
ARM GAS  C:\Users\EDULU~1.DES\AppData\Local\Temp\ccxcKTgR.s 			page 49


 951 0010 05D0     		beq	.L68
1588:..\..\..\..\..\..\Software\uCOS-III\Source/os_task.c ****        *p_err = OS_ERR_SET_ISR;
 952              		.loc 1 1588 8 is_stmt 1 view .LVU291
 953              		.loc 1 1588 15 is_stmt 0 view .LVU292
 954 0012 0E4B     		ldr	r3, .L72+4
 955 0014 1380     		strh	r3, [r2]
1589:..\..\..\..\..\..\Software\uCOS-III\Source/os_task.c ****         return ((OS_SEM_CTR)0);
 956              		.loc 1 1589 9 is_stmt 1 view .LVU293
 957              		.loc 1 1589 16 is_stmt 0 view .LVU294
 958 0016 0026     		movs	r6, #0
 959              	.LVL105:
 960              	.L67:
1590:..\..\..\..\..\..\Software\uCOS-III\Source/os_task.c ****     }
1591:..\..\..\..\..\..\Software\uCOS-III\Source/os_task.c **** #endif
1592:..\..\..\..\..\..\Software\uCOS-III\Source/os_task.c **** 
1593:..\..\..\..\..\..\Software\uCOS-III\Source/os_task.c ****     CPU_CRITICAL_ENTER();
1594:..\..\..\..\..\..\Software\uCOS-III\Source/os_task.c ****     if (p_tcb == (OS_TCB *)0) {
1595:..\..\..\..\..\..\Software\uCOS-III\Source/os_task.c ****         p_tcb = OSTCBCurPtr;
1596:..\..\..\..\..\..\Software\uCOS-III\Source/os_task.c ****     }
1597:..\..\..\..\..\..\Software\uCOS-III\Source/os_task.c ****     ctr           = p_tcb->SemCtr;
1598:..\..\..\..\..\..\Software\uCOS-III\Source/os_task.c ****     p_tcb->SemCtr = (OS_SEM_CTR)cnt;
1599:..\..\..\..\..\..\Software\uCOS-III\Source/os_task.c ****     CPU_CRITICAL_EXIT();
1600:..\..\..\..\..\..\Software\uCOS-III\Source/os_task.c ****    *p_err         =  OS_ERR_NONE;
1601:..\..\..\..\..\..\Software\uCOS-III\Source/os_task.c ****     return (ctr);
1602:..\..\..\..\..\..\Software\uCOS-III\Source/os_task.c **** }
 961              		.loc 1 1602 1 view .LVU295
 962 0018 3000     		movs	r0, r6
 963 001a 03B0     		add	sp, sp, #12
 964              		@ sp needed
 965              	.LVL106:
 966              	.LVL107:
 967              	.LVL108:
 968              		.loc 1 1602 1 view .LVU296
 969 001c F0BD     		pop	{r4, r5, r6, r7, pc}
 970              	.LVL109:
 971              	.L68:
1593:..\..\..\..\..\..\Software\uCOS-III\Source/os_task.c ****     if (p_tcb == (OS_TCB *)0) {
 972              		.loc 1 1593 5 is_stmt 1 view .LVU297
1593:..\..\..\..\..\..\Software\uCOS-III\Source/os_task.c ****     if (p_tcb == (OS_TCB *)0) {
 973              		.loc 1 1593 5 view .LVU298
1593:..\..\..\..\..\..\Software\uCOS-III\Source/os_task.c ****     if (p_tcb == (OS_TCB *)0) {
 974              		.loc 1 1593 5 view .LVU299
 975 001e FFF7FEFF 		bl	CPU_SR_Save
 976              	.LVL110:
1593:..\..\..\..\..\..\Software\uCOS-III\Source/os_task.c ****     if (p_tcb == (OS_TCB *)0) {
 977              		.loc 1 1593 5 is_stmt 0 view .LVU300
 978 0022 0190     		str	r0, [sp, #4]
 979              	.LVL111:
1593:..\..\..\..\..\..\Software\uCOS-III\Source/os_task.c ****     if (p_tcb == (OS_TCB *)0) {
 980              		.loc 1 1593 5 is_stmt 1 view .LVU301
 981 0024 FFF7FEFF 		bl	CPU_IntDisMeasStart
 982              	.LVL112:
1594:..\..\..\..\..\..\Software\uCOS-III\Source/os_task.c ****         p_tcb = OSTCBCurPtr;
 983              		.loc 1 1594 5 view .LVU302
1594:..\..\..\..\..\..\Software\uCOS-III\Source/os_task.c ****         p_tcb = OSTCBCurPtr;
 984              		.loc 1 1594 8 is_stmt 0 view .LVU303
 985 0028 002C     		cmp	r4, #0
ARM GAS  C:\Users\EDULU~1.DES\AppData\Local\Temp\ccxcKTgR.s 			page 50


 986 002a 09D0     		beq	.L71
 987              	.L70:
1597:..\..\..\..\..\..\Software\uCOS-III\Source/os_task.c ****     p_tcb->SemCtr = (OS_SEM_CTR)cnt;
 988              		.loc 1 1597 5 is_stmt 1 view .LVU304
1597:..\..\..\..\..\..\Software\uCOS-III\Source/os_task.c ****     p_tcb->SemCtr = (OS_SEM_CTR)cnt;
 989              		.loc 1 1597 19 is_stmt 0 view .LVU305
 990 002c 666C     		ldr	r6, [r4, #68]
 991              	.LVL113:
1598:..\..\..\..\..\..\Software\uCOS-III\Source/os_task.c ****     CPU_CRITICAL_EXIT();
 992              		.loc 1 1598 5 is_stmt 1 view .LVU306
1598:..\..\..\..\..\..\Software\uCOS-III\Source/os_task.c ****     CPU_CRITICAL_EXIT();
 993              		.loc 1 1598 19 is_stmt 0 view .LVU307
 994 002e 6564     		str	r5, [r4, #68]
1599:..\..\..\..\..\..\Software\uCOS-III\Source/os_task.c ****    *p_err         =  OS_ERR_NONE;
 995              		.loc 1 1599 5 is_stmt 1 view .LVU308
1599:..\..\..\..\..\..\Software\uCOS-III\Source/os_task.c ****    *p_err         =  OS_ERR_NONE;
 996              		.loc 1 1599 5 view .LVU309
 997 0030 FFF7FEFF 		bl	CPU_IntDisMeasStop
 998              	.LVL114:
1599:..\..\..\..\..\..\Software\uCOS-III\Source/os_task.c ****    *p_err         =  OS_ERR_NONE;
 999              		.loc 1 1599 5 view .LVU310
1599:..\..\..\..\..\..\Software\uCOS-III\Source/os_task.c ****    *p_err         =  OS_ERR_NONE;
 1000              		.loc 1 1599 5 view .LVU311
 1001 0034 0198     		ldr	r0, [sp, #4]
 1002 0036 FFF7FEFF 		bl	CPU_SR_Restore
 1003              	.LVL115:
1600:..\..\..\..\..\..\Software\uCOS-III\Source/os_task.c ****     return (ctr);
 1004              		.loc 1 1600 4 view .LVU312
1600:..\..\..\..\..\..\Software\uCOS-III\Source/os_task.c ****     return (ctr);
 1005              		.loc 1 1600 19 is_stmt 0 view .LVU313
 1006 003a 0023     		movs	r3, #0
 1007 003c 3B80     		strh	r3, [r7]
1601:..\..\..\..\..\..\Software\uCOS-III\Source/os_task.c **** }
 1008              		.loc 1 1601 5 is_stmt 1 view .LVU314
1601:..\..\..\..\..\..\Software\uCOS-III\Source/os_task.c **** }
 1009              		.loc 1 1601 12 is_stmt 0 view .LVU315
 1010 003e EBE7     		b	.L67
 1011              	.LVL116:
 1012              	.L71:
1595:..\..\..\..\..\..\Software\uCOS-III\Source/os_task.c ****     }
 1013              		.loc 1 1595 9 is_stmt 1 view .LVU316
1595:..\..\..\..\..\..\Software\uCOS-III\Source/os_task.c ****     }
 1014              		.loc 1 1595 15 is_stmt 0 view .LVU317
 1015 0040 034B     		ldr	r3, .L72+8
 1016 0042 1C68     		ldr	r4, [r3]
 1017              	.LVL117:
1595:..\..\..\..\..\..\Software\uCOS-III\Source/os_task.c ****     }
 1018              		.loc 1 1595 15 view .LVU318
 1019 0044 F2E7     		b	.L70
 1020              	.L73:
 1021 0046 C046     		.align	2
 1022              	.L72:
 1023 0048 00000000 		.word	OSIntNestingCtr
 1024 004c C66D0000 		.word	28102
 1025 0050 00000000 		.word	OSTCBCurPtr
 1026              		.cfi_endproc
 1027              	.LFE11:
ARM GAS  C:\Users\EDULU~1.DES\AppData\Local\Temp\ccxcKTgR.s 			page 51


 1028              		.size	OSTaskSemSet, .-OSTaskSemSet
 1029              		.section	.text.OSTaskStkChk,"ax",%progbits
 1030              		.align	1
 1031              		.global	OSTaskStkChk
 1032              		.syntax unified
 1033              		.code	16
 1034              		.thumb_func
 1035              		.fpu softvfp
 1036              		.type	OSTaskStkChk, %function
 1037              	OSTaskStkChk:
 1038              	.LVL118:
 1039              	.LFB12:
1603:..\..\..\..\..\..\Software\uCOS-III\Source/os_task.c **** 
1604:..\..\..\..\..\..\Software\uCOS-III\Source/os_task.c **** /*$PAGE*/
1605:..\..\..\..\..\..\Software\uCOS-III\Source/os_task.c **** /*
1606:..\..\..\..\..\..\Software\uCOS-III\Source/os_task.c **** ***************************************************************************************************
1607:..\..\..\..\..\..\Software\uCOS-III\Source/os_task.c **** *                                                    STACK CHECKING
1608:..\..\..\..\..\..\Software\uCOS-III\Source/os_task.c **** *
1609:..\..\..\..\..\..\Software\uCOS-III\Source/os_task.c **** * Description: This function is called to calculate the amount of free memory left on the specified
1610:..\..\..\..\..\..\Software\uCOS-III\Source/os_task.c **** *
1611:..\..\..\..\..\..\Software\uCOS-III\Source/os_task.c **** * Arguments  : p_tcb       is a pointer to the TCB of the task to check.  If you specify a NULL poi
1612:..\..\..\..\..\..\Software\uCOS-III\Source/os_task.c **** *                          you are specifying that you want to check the stack of the current task.
1613:..\..\..\..\..\..\Software\uCOS-III\Source/os_task.c **** *
1614:..\..\..\..\..\..\Software\uCOS-III\Source/os_task.c **** *              p_free      is a pointer to a variable that will receive the number of free 'entries
1615:..\..\..\..\..\..\Software\uCOS-III\Source/os_task.c **** *
1616:..\..\..\..\..\..\Software\uCOS-III\Source/os_task.c **** *              p_used      is a pointer to a variable that will receive the number of used 'entries
1617:..\..\..\..\..\..\Software\uCOS-III\Source/os_task.c **** *
1618:..\..\..\..\..\..\Software\uCOS-III\Source/os_task.c **** *              p_err       is a pointer to a variable that will contain an error code.
1619:..\..\..\..\..\..\Software\uCOS-III\Source/os_task.c **** *
1620:..\..\..\..\..\..\Software\uCOS-III\Source/os_task.c **** *                              OS_ERR_NONE               upon success
1621:..\..\..\..\..\..\Software\uCOS-III\Source/os_task.c **** *                              OS_ERR_PTR_INVALID        if either 'p_free' or 'p_used' are NULL po
1622:..\..\..\..\..\..\Software\uCOS-III\Source/os_task.c **** *                              OS_ERR_TASK_NOT_EXIST     if the stack pointer of the task is a NULL
1623:..\..\..\..\..\..\Software\uCOS-III\Source/os_task.c **** *                              OS_ERR_TASK_OPT           if you did NOT specified OS_OPT_TASK_STK_C
1624:..\..\..\..\..\..\Software\uCOS-III\Source/os_task.c **** *                                                        was created
1625:..\..\..\..\..\..\Software\uCOS-III\Source/os_task.c **** *                              OS_ERR_TASK_STK_CHK_ISR   you called this function from an ISR
1626:..\..\..\..\..\..\Software\uCOS-III\Source/os_task.c **** ***************************************************************************************************
1627:..\..\..\..\..\..\Software\uCOS-III\Source/os_task.c **** */
1628:..\..\..\..\..\..\Software\uCOS-III\Source/os_task.c **** 
1629:..\..\..\..\..\..\Software\uCOS-III\Source/os_task.c **** #if OS_CFG_STAT_TASK_STK_CHK_EN > 0u
1630:..\..\..\..\..\..\Software\uCOS-III\Source/os_task.c **** void  OSTaskStkChk (OS_TCB        *p_tcb,
1631:..\..\..\..\..\..\Software\uCOS-III\Source/os_task.c ****                     CPU_STK_SIZE  *p_free,
1632:..\..\..\..\..\..\Software\uCOS-III\Source/os_task.c ****                     CPU_STK_SIZE  *p_used,
1633:..\..\..\..\..\..\Software\uCOS-III\Source/os_task.c ****                     OS_ERR        *p_err)
1634:..\..\..\..\..\..\Software\uCOS-III\Source/os_task.c **** {
 1040              		.loc 1 1634 1 is_stmt 1 view -0
 1041              		.cfi_startproc
 1042              		@ args = 0, pretend = 0, frame = 8
 1043              		@ frame_needed = 0, uses_anonymous_args = 0
 1044              		.loc 1 1634 1 is_stmt 0 view .LVU320
 1045 0000 F0B5     		push	{r4, r5, r6, r7, lr}
 1046              		.cfi_def_cfa_offset 20
 1047              		.cfi_offset 4, -20
 1048              		.cfi_offset 5, -16
 1049              		.cfi_offset 6, -12
 1050              		.cfi_offset 7, -8
 1051              		.cfi_offset 14, -4
 1052 0002 83B0     		sub	sp, sp, #12
ARM GAS  C:\Users\EDULU~1.DES\AppData\Local\Temp\ccxcKTgR.s 			page 52


 1053              		.cfi_def_cfa_offset 32
 1054 0004 0400     		movs	r4, r0
 1055 0006 0D00     		movs	r5, r1
 1056 0008 1700     		movs	r7, r2
 1057 000a 1E00     		movs	r6, r3
1635:..\..\..\..\..\..\Software\uCOS-III\Source/os_task.c ****     CPU_STK_SIZE  free_stk;
 1058              		.loc 1 1635 5 is_stmt 1 view .LVU321
1636:..\..\..\..\..\..\Software\uCOS-III\Source/os_task.c ****     CPU_STK      *p_stk;
 1059              		.loc 1 1636 5 view .LVU322
1637:..\..\..\..\..\..\Software\uCOS-III\Source/os_task.c ****     CPU_SR_ALLOC();
 1060              		.loc 1 1637 5 view .LVU323
 1061              	.LVL119:
1638:..\..\..\..\..\..\Software\uCOS-III\Source/os_task.c **** 
1639:..\..\..\..\..\..\Software\uCOS-III\Source/os_task.c **** 
1640:..\..\..\..\..\..\Software\uCOS-III\Source/os_task.c **** 
1641:..\..\..\..\..\..\Software\uCOS-III\Source/os_task.c **** #ifdef OS_SAFETY_CRITICAL
1642:..\..\..\..\..\..\Software\uCOS-III\Source/os_task.c ****     if (p_err == (OS_ERR *)0) {
1643:..\..\..\..\..\..\Software\uCOS-III\Source/os_task.c ****         OS_SAFETY_CRITICAL_EXCEPTION();
1644:..\..\..\..\..\..\Software\uCOS-III\Source/os_task.c ****         return;
1645:..\..\..\..\..\..\Software\uCOS-III\Source/os_task.c ****     }
1646:..\..\..\..\..\..\Software\uCOS-III\Source/os_task.c **** #endif
1647:..\..\..\..\..\..\Software\uCOS-III\Source/os_task.c **** 
1648:..\..\..\..\..\..\Software\uCOS-III\Source/os_task.c **** #if OS_CFG_CALLED_FROM_ISR_CHK_EN > 0u
1649:..\..\..\..\..\..\Software\uCOS-III\Source/os_task.c ****     if (OSIntNestingCtr > (OS_NESTING_CTR)0) {              /* See if trying to check stack from IS
 1062              		.loc 1 1649 5 view .LVU324
 1063              		.loc 1 1649 25 is_stmt 0 view .LVU325
 1064 000c 254B     		ldr	r3, .L91
 1065              	.LVL120:
 1066              		.loc 1 1649 25 view .LVU326
 1067 000e 1B78     		ldrb	r3, [r3]
 1068              		.loc 1 1649 8 view .LVU327
 1069 0010 002B     		cmp	r3, #0
 1070 0012 1DD1     		bne	.L84
1650:..\..\..\..\..\..\Software\uCOS-III\Source/os_task.c ****        *p_err = OS_ERR_TASK_STK_CHK_ISR;
1651:..\..\..\..\..\..\Software\uCOS-III\Source/os_task.c ****         return;
1652:..\..\..\..\..\..\Software\uCOS-III\Source/os_task.c ****     }
1653:..\..\..\..\..\..\Software\uCOS-III\Source/os_task.c **** #endif
1654:..\..\..\..\..\..\Software\uCOS-III\Source/os_task.c **** 
1655:..\..\..\..\..\..\Software\uCOS-III\Source/os_task.c **** #if OS_CFG_ARG_CHK_EN > 0u
1656:..\..\..\..\..\..\Software\uCOS-III\Source/os_task.c ****     if (p_free == (CPU_STK_SIZE*)0) {                       /* User must specify valid destinations
 1071              		.loc 1 1656 5 is_stmt 1 view .LVU328
 1072              		.loc 1 1656 8 is_stmt 0 view .LVU329
 1073 0014 0029     		cmp	r1, #0
 1074 0016 1FD0     		beq	.L85
1657:..\..\..\..\..\..\Software\uCOS-III\Source/os_task.c ****        *p_err  = OS_ERR_PTR_INVALID;
1658:..\..\..\..\..\..\Software\uCOS-III\Source/os_task.c ****         return;
1659:..\..\..\..\..\..\Software\uCOS-III\Source/os_task.c ****     }
1660:..\..\..\..\..\..\Software\uCOS-III\Source/os_task.c **** 
1661:..\..\..\..\..\..\Software\uCOS-III\Source/os_task.c ****     if (p_used == (CPU_STK_SIZE*)0) {
 1075              		.loc 1 1661 5 is_stmt 1 view .LVU330
 1076              		.loc 1 1661 8 is_stmt 0 view .LVU331
 1077 0018 002A     		cmp	r2, #0
 1078 001a 20D0     		beq	.L86
1662:..\..\..\..\..\..\Software\uCOS-III\Source/os_task.c ****        *p_err  = OS_ERR_PTR_INVALID;
1663:..\..\..\..\..\..\Software\uCOS-III\Source/os_task.c ****         return;
1664:..\..\..\..\..\..\Software\uCOS-III\Source/os_task.c ****     }
1665:..\..\..\..\..\..\Software\uCOS-III\Source/os_task.c **** #endif
ARM GAS  C:\Users\EDULU~1.DES\AppData\Local\Temp\ccxcKTgR.s 			page 53


1666:..\..\..\..\..\..\Software\uCOS-III\Source/os_task.c **** 
1667:..\..\..\..\..\..\Software\uCOS-III\Source/os_task.c ****     CPU_CRITICAL_ENTER();
 1079              		.loc 1 1667 5 is_stmt 1 view .LVU332
 1080              		.loc 1 1667 5 view .LVU333
 1081              		.loc 1 1667 5 view .LVU334
 1082 001c FFF7FEFF 		bl	CPU_SR_Save
 1083              	.LVL121:
 1084              		.loc 1 1667 5 is_stmt 0 view .LVU335
 1085 0020 0190     		str	r0, [sp, #4]
 1086              	.LVL122:
 1087              		.loc 1 1667 5 is_stmt 1 view .LVU336
 1088 0022 FFF7FEFF 		bl	CPU_IntDisMeasStart
 1089              	.LVL123:
1668:..\..\..\..\..\..\Software\uCOS-III\Source/os_task.c ****     if (p_tcb == (OS_TCB *)0) {                             /* Check the stack of the current task?
 1090              		.loc 1 1668 5 view .LVU337
 1091              		.loc 1 1668 8 is_stmt 0 view .LVU338
 1092 0026 002C     		cmp	r4, #0
 1093 0028 1CD0     		beq	.L87
 1094              	.L79:
1669:..\..\..\..\..\..\Software\uCOS-III\Source/os_task.c ****         p_tcb = OSTCBCurPtr;                                /* Yes                                 
1670:..\..\..\..\..\..\Software\uCOS-III\Source/os_task.c ****     }
1671:..\..\..\..\..\..\Software\uCOS-III\Source/os_task.c **** 
1672:..\..\..\..\..\..\Software\uCOS-III\Source/os_task.c ****     if (p_tcb->StkPtr == (CPU_STK*)0) {                     /* Make sure task exist                
 1095              		.loc 1 1672 5 is_stmt 1 view .LVU339
 1096              		.loc 1 1672 8 is_stmt 0 view .LVU340
 1097 002a 2368     		ldr	r3, [r4]
 1098 002c 002B     		cmp	r3, #0
 1099 002e 1CD0     		beq	.L88
1673:..\..\..\..\..\..\Software\uCOS-III\Source/os_task.c ****         CPU_CRITICAL_EXIT();
1674:..\..\..\..\..\..\Software\uCOS-III\Source/os_task.c ****        *p_free = (CPU_STK_SIZE)0;
1675:..\..\..\..\..\..\Software\uCOS-III\Source/os_task.c ****        *p_used = (CPU_STK_SIZE)0;
1676:..\..\..\..\..\..\Software\uCOS-III\Source/os_task.c ****        *p_err  =  OS_ERR_TASK_NOT_EXIST;
1677:..\..\..\..\..\..\Software\uCOS-III\Source/os_task.c ****         return;
1678:..\..\..\..\..\..\Software\uCOS-III\Source/os_task.c ****     }
1679:..\..\..\..\..\..\Software\uCOS-III\Source/os_task.c **** 
1680:..\..\..\..\..\..\Software\uCOS-III\Source/os_task.c ****     if ((p_tcb->Opt & OS_OPT_TASK_STK_CHK) == (OS_OPT)0) {  /* Make sure stack checking option is s
 1100              		.loc 1 1680 5 is_stmt 1 view .LVU341
 1101              		.loc 1 1680 15 is_stmt 0 view .LVU342
 1102 0030 A38F     		ldrh	r3, [r4, #60]
 1103              		.loc 1 1680 8 view .LVU343
 1104 0032 DB07     		lsls	r3, r3, #31
 1105 0034 24D5     		bpl	.L89
1681:..\..\..\..\..\..\Software\uCOS-III\Source/os_task.c ****         CPU_CRITICAL_EXIT();
1682:..\..\..\..\..\..\Software\uCOS-III\Source/os_task.c ****        *p_free = (CPU_STK_SIZE)0;
1683:..\..\..\..\..\..\Software\uCOS-III\Source/os_task.c ****        *p_used = (CPU_STK_SIZE)0;
1684:..\..\..\..\..\..\Software\uCOS-III\Source/os_task.c ****        *p_err  =  OS_ERR_TASK_OPT;
1685:..\..\..\..\..\..\Software\uCOS-III\Source/os_task.c ****         return;
1686:..\..\..\..\..\..\Software\uCOS-III\Source/os_task.c ****     }
1687:..\..\..\..\..\..\Software\uCOS-III\Source/os_task.c ****     CPU_CRITICAL_EXIT();
 1106              		.loc 1 1687 5 is_stmt 1 view .LVU344
 1107              		.loc 1 1687 5 view .LVU345
 1108 0036 FFF7FEFF 		bl	CPU_IntDisMeasStop
 1109              	.LVL124:
 1110              		.loc 1 1687 5 view .LVU346
 1111              		.loc 1 1687 5 view .LVU347
 1112 003a 0198     		ldr	r0, [sp, #4]
 1113 003c FFF7FEFF 		bl	CPU_SR_Restore
ARM GAS  C:\Users\EDULU~1.DES\AppData\Local\Temp\ccxcKTgR.s 			page 54


 1114              	.LVL125:
1688:..\..\..\..\..\..\Software\uCOS-III\Source/os_task.c **** 
1689:..\..\..\..\..\..\Software\uCOS-III\Source/os_task.c ****     free_stk  = 0u;
 1115              		.loc 1 1689 5 view .LVU348
1690:..\..\..\..\..\..\Software\uCOS-III\Source/os_task.c **** #if CPU_CFG_STK_GROWTH == CPU_STK_GROWTH_HI_TO_LO
1691:..\..\..\..\..\..\Software\uCOS-III\Source/os_task.c ****     p_stk = p_tcb->StkBasePtr;                              /* Start at the lowest memory and go up
 1116              		.loc 1 1691 5 view .LVU349
 1117              		.loc 1 1691 11 is_stmt 0 view .LVU350
 1118 0040 636A     		ldr	r3, [r4, #36]
 1119              	.LVL126:
1692:..\..\..\..\..\..\Software\uCOS-III\Source/os_task.c ****     while (*p_stk == (CPU_STK)0) {                          /* Compute the number of zero entries o
 1120              		.loc 1 1692 5 is_stmt 1 view .LVU351
1689:..\..\..\..\..\..\Software\uCOS-III\Source/os_task.c **** #if CPU_CFG_STK_GROWTH == CPU_STK_GROWTH_HI_TO_LO
 1121              		.loc 1 1689 15 is_stmt 0 view .LVU352
 1122 0042 0022     		movs	r2, #0
 1123              	.LVL127:
 1124              	.L82:
 1125              		.loc 1 1692 11 view .LVU353
 1126 0044 1968     		ldr	r1, [r3]
 1127 0046 0029     		cmp	r1, #0
 1128 0048 25D1     		bne	.L90
1693:..\..\..\..\..\..\Software\uCOS-III\Source/os_task.c ****         p_stk++;
 1129              		.loc 1 1693 9 is_stmt 1 view .LVU354
 1130              		.loc 1 1693 14 is_stmt 0 view .LVU355
 1131 004a 0433     		adds	r3, r3, #4
 1132              	.LVL128:
1694:..\..\..\..\..\..\Software\uCOS-III\Source/os_task.c ****         free_stk++;
 1133              		.loc 1 1694 9 is_stmt 1 view .LVU356
 1134              		.loc 1 1694 17 is_stmt 0 view .LVU357
 1135 004c 0132     		adds	r2, r2, #1
 1136              	.LVL129:
 1137              		.loc 1 1694 17 view .LVU358
 1138 004e F9E7     		b	.L82
 1139              	.LVL130:
 1140              	.L84:
1650:..\..\..\..\..\..\Software\uCOS-III\Source/os_task.c ****         return;
 1141              		.loc 1 1650 8 is_stmt 1 view .LVU359
1650:..\..\..\..\..\..\Software\uCOS-III\Source/os_task.c ****         return;
 1142              		.loc 1 1650 15 is_stmt 0 view .LVU360
 1143 0050 154B     		ldr	r3, .L91+4
 1144 0052 3380     		strh	r3, [r6]
1651:..\..\..\..\..\..\Software\uCOS-III\Source/os_task.c ****     }
 1145              		.loc 1 1651 9 is_stmt 1 view .LVU361
 1146              	.LVL131:
 1147              	.L74:
1695:..\..\..\..\..\..\Software\uCOS-III\Source/os_task.c ****     }
1696:..\..\..\..\..\..\Software\uCOS-III\Source/os_task.c **** #else
1697:..\..\..\..\..\..\Software\uCOS-III\Source/os_task.c ****     p_stk = p_tcb->StkBasePtr + p_tcb->StkSize - 1u;        /* Start at the highest memory and go d
1698:..\..\..\..\..\..\Software\uCOS-III\Source/os_task.c ****     while (*p_stk == (CPU_STK)0) {
1699:..\..\..\..\..\..\Software\uCOS-III\Source/os_task.c ****         free_stk++;
1700:..\..\..\..\..\..\Software\uCOS-III\Source/os_task.c ****         p_stk--;
1701:..\..\..\..\..\..\Software\uCOS-III\Source/os_task.c ****     }
1702:..\..\..\..\..\..\Software\uCOS-III\Source/os_task.c **** #endif
1703:..\..\..\..\..\..\Software\uCOS-III\Source/os_task.c ****    *p_free = free_stk;
1704:..\..\..\..\..\..\Software\uCOS-III\Source/os_task.c ****    *p_used = (p_tcb->StkSize - free_stk);                   /* Compute number of entries used on th
1705:..\..\..\..\..\..\Software\uCOS-III\Source/os_task.c ****    *p_err  = OS_ERR_NONE;
1706:..\..\..\..\..\..\Software\uCOS-III\Source/os_task.c **** }
ARM GAS  C:\Users\EDULU~1.DES\AppData\Local\Temp\ccxcKTgR.s 			page 55


 1148              		.loc 1 1706 1 is_stmt 0 view .LVU362
 1149 0054 03B0     		add	sp, sp, #12
 1150              		@ sp needed
 1151              	.LVL132:
 1152              	.LVL133:
 1153              	.LVL134:
 1154              	.LVL135:
 1155              		.loc 1 1706 1 view .LVU363
 1156 0056 F0BD     		pop	{r4, r5, r6, r7, pc}
 1157              	.LVL136:
 1158              	.L85:
1657:..\..\..\..\..\..\Software\uCOS-III\Source/os_task.c ****         return;
 1159              		.loc 1 1657 8 is_stmt 1 view .LVU364
1657:..\..\..\..\..\..\Software\uCOS-III\Source/os_task.c ****         return;
 1160              		.loc 1 1657 16 is_stmt 0 view .LVU365
 1161 0058 144B     		ldr	r3, .L91+8
 1162 005a 3380     		strh	r3, [r6]
1658:..\..\..\..\..\..\Software\uCOS-III\Source/os_task.c ****     }
 1163              		.loc 1 1658 9 is_stmt 1 view .LVU366
 1164 005c FAE7     		b	.L74
 1165              	.L86:
1662:..\..\..\..\..\..\Software\uCOS-III\Source/os_task.c ****         return;
 1166              		.loc 1 1662 8 view .LVU367
1662:..\..\..\..\..\..\Software\uCOS-III\Source/os_task.c ****         return;
 1167              		.loc 1 1662 16 is_stmt 0 view .LVU368
 1168 005e 134B     		ldr	r3, .L91+8
 1169 0060 3380     		strh	r3, [r6]
1663:..\..\..\..\..\..\Software\uCOS-III\Source/os_task.c ****     }
 1170              		.loc 1 1663 9 is_stmt 1 view .LVU369
 1171 0062 F7E7     		b	.L74
 1172              	.LVL137:
 1173              	.L87:
1669:..\..\..\..\..\..\Software\uCOS-III\Source/os_task.c ****     }
 1174              		.loc 1 1669 9 view .LVU370
1669:..\..\..\..\..\..\Software\uCOS-III\Source/os_task.c ****     }
 1175              		.loc 1 1669 15 is_stmt 0 view .LVU371
 1176 0064 124B     		ldr	r3, .L91+12
 1177 0066 1C68     		ldr	r4, [r3]
 1178              	.LVL138:
1669:..\..\..\..\..\..\Software\uCOS-III\Source/os_task.c ****     }
 1179              		.loc 1 1669 15 view .LVU372
 1180 0068 DFE7     		b	.L79
 1181              	.L88:
1673:..\..\..\..\..\..\Software\uCOS-III\Source/os_task.c ****        *p_free = (CPU_STK_SIZE)0;
 1182              		.loc 1 1673 9 is_stmt 1 view .LVU373
1673:..\..\..\..\..\..\Software\uCOS-III\Source/os_task.c ****        *p_free = (CPU_STK_SIZE)0;
 1183              		.loc 1 1673 9 view .LVU374
 1184 006a FFF7FEFF 		bl	CPU_IntDisMeasStop
 1185              	.LVL139:
1673:..\..\..\..\..\..\Software\uCOS-III\Source/os_task.c ****        *p_free = (CPU_STK_SIZE)0;
 1186              		.loc 1 1673 9 view .LVU375
1673:..\..\..\..\..\..\Software\uCOS-III\Source/os_task.c ****        *p_free = (CPU_STK_SIZE)0;
 1187              		.loc 1 1673 9 view .LVU376
 1188 006e 0198     		ldr	r0, [sp, #4]
