ARM GAS  C:\Users\EDULU~1.DES\AppData\Local\Temp\ccqOMtWj.s 			page 1


   1              		.cpu cortex-m0
   2              		.eabi_attribute 20, 1
   3              		.eabi_attribute 21, 1
   4              		.eabi_attribute 23, 3
   5              		.eabi_attribute 24, 1
   6              		.eabi_attribute 25, 1
   7              		.eabi_attribute 26, 1
   8              		.eabi_attribute 30, 1
   9              		.eabi_attribute 34, 0
  10              		.eabi_attribute 18, 4
  11              		.file	"os_tick.c"
  12              		.text
  13              	.Ltext0:
  14              		.cfi_sections	.debug_frame
  15              		.section	.text.OS_TickListInit,"ax",%progbits
  16              		.align	1
  17              		.global	OS_TickListInit
  18              		.arch armv6s-m
  19              		.syntax unified
  20              		.code	16
  21              		.thumb_func
  22              		.fpu softvfp
  23              		.type	OS_TickListInit, %function
  24              	OS_TickListInit:
  25              	.LFB5:
  26              		.file 1 "..\\..\\..\\..\\..\\..\\Software\\uCOS-III\\Source\\os_tick.c"
   1:..\..\..\..\..\..\Software\uCOS-III\Source/os_tick.c **** /*
   2:..\..\..\..\..\..\Software\uCOS-III\Source/os_tick.c **** ***************************************************************************************************
   3:..\..\..\..\..\..\Software\uCOS-III\Source/os_tick.c **** *                                                      uC/OS-III
   4:..\..\..\..\..\..\Software\uCOS-III\Source/os_tick.c **** *                                                 The Real-Time Kernel
   5:..\..\..\..\..\..\Software\uCOS-III\Source/os_tick.c **** *
   6:..\..\..\..\..\..\Software\uCOS-III\Source/os_tick.c **** *                                  (c) Copyright 2009-2012; Micrium, Inc.; Weston, FL
   7:..\..\..\..\..\..\Software\uCOS-III\Source/os_tick.c **** *                           All rights reserved.  Protected by international copyright laws.
   8:..\..\..\..\..\..\Software\uCOS-III\Source/os_tick.c **** *
   9:..\..\..\..\..\..\Software\uCOS-III\Source/os_tick.c **** *                                                   TICK MANAGEMENT
  10:..\..\..\..\..\..\Software\uCOS-III\Source/os_tick.c **** *
  11:..\..\..\..\..\..\Software\uCOS-III\Source/os_tick.c **** * File    : OS_TICK.C
  12:..\..\..\..\..\..\Software\uCOS-III\Source/os_tick.c **** * By      : JJL
  13:..\..\..\..\..\..\Software\uCOS-III\Source/os_tick.c **** * Version : V3.03.01
  14:..\..\..\..\..\..\Software\uCOS-III\Source/os_tick.c **** *
  15:..\..\..\..\..\..\Software\uCOS-III\Source/os_tick.c **** * LICENSING TERMS:
  16:..\..\..\..\..\..\Software\uCOS-III\Source/os_tick.c **** * ---------------
  17:..\..\..\..\..\..\Software\uCOS-III\Source/os_tick.c **** *           uC/OS-III is provided in source form for FREE short-term evaluation, for educational us
  18:..\..\..\..\..\..\Software\uCOS-III\Source/os_tick.c **** *           for peaceful research.  If you plan or intend to use uC/OS-III in a commercial applicat
  19:..\..\..\..\..\..\Software\uCOS-III\Source/os_tick.c **** *           product then, you need to contact Micrium to properly license uC/OS-III for its use in 
  20:..\..\..\..\..\..\Software\uCOS-III\Source/os_tick.c **** *           application/product.   We provide ALL the source code for your convenience and to help 
  21:..\..\..\..\..\..\Software\uCOS-III\Source/os_tick.c **** *           experience uC/OS-III.  The fact that the source is provided does NOT mean that you can 
  22:..\..\..\..\..\..\Software\uCOS-III\Source/os_tick.c **** *           it commercially without paying a licensing fee.
  23:..\..\..\..\..\..\Software\uCOS-III\Source/os_tick.c **** *
  24:..\..\..\..\..\..\Software\uCOS-III\Source/os_tick.c **** *           Knowledge of the source code may NOT be used to develop a similar product.
  25:..\..\..\..\..\..\Software\uCOS-III\Source/os_tick.c **** *
  26:..\..\..\..\..\..\Software\uCOS-III\Source/os_tick.c **** *           Please help us continue to provide the embedded community with the finest software avai
  27:..\..\..\..\..\..\Software\uCOS-III\Source/os_tick.c **** *           Your honesty is greatly appreciated.
  28:..\..\..\..\..\..\Software\uCOS-III\Source/os_tick.c **** *
  29:..\..\..\..\..\..\Software\uCOS-III\Source/os_tick.c **** *           You can contact us at www.micrium.com, or by phone at +1 (954) 217-2036.
  30:..\..\..\..\..\..\Software\uCOS-III\Source/os_tick.c **** ***************************************************************************************************
  31:..\..\..\..\..\..\Software\uCOS-III\Source/os_tick.c **** */
ARM GAS  C:\Users\EDULU~1.DES\AppData\Local\Temp\ccqOMtWj.s 			page 2


  32:..\..\..\..\..\..\Software\uCOS-III\Source/os_tick.c **** 
  33:..\..\..\..\..\..\Software\uCOS-III\Source/os_tick.c **** #define  MICRIUM_SOURCE
  34:..\..\..\..\..\..\Software\uCOS-III\Source/os_tick.c **** #include <os.h>
  35:..\..\..\..\..\..\Software\uCOS-III\Source/os_tick.c **** 
  36:..\..\..\..\..\..\Software\uCOS-III\Source/os_tick.c **** #ifdef VSC_INCLUDE_SOURCE_FILE_NAMES
  37:..\..\..\..\..\..\Software\uCOS-III\Source/os_tick.c **** const  CPU_CHAR  *os_tick__c = "$Id: $";
  38:..\..\..\..\..\..\Software\uCOS-III\Source/os_tick.c **** #endif
  39:..\..\..\..\..\..\Software\uCOS-III\Source/os_tick.c **** 
  40:..\..\..\..\..\..\Software\uCOS-III\Source/os_tick.c **** /*
  41:..\..\..\..\..\..\Software\uCOS-III\Source/os_tick.c **** ***************************************************************************************************
  42:..\..\..\..\..\..\Software\uCOS-III\Source/os_tick.c **** *                                                  LOCAL PROTOTYPES
  43:..\..\..\..\..\..\Software\uCOS-III\Source/os_tick.c **** ***************************************************************************************************
  44:..\..\..\..\..\..\Software\uCOS-III\Source/os_tick.c **** */
  45:..\..\..\..\..\..\Software\uCOS-III\Source/os_tick.c **** 
  46:..\..\..\..\..\..\Software\uCOS-III\Source/os_tick.c **** 
  47:..\..\..\..\..\..\Software\uCOS-III\Source/os_tick.c **** /*
  48:..\..\..\..\..\..\Software\uCOS-III\Source/os_tick.c **** ***************************************************************************************************
  49:..\..\..\..\..\..\Software\uCOS-III\Source/os_tick.c **** *                                                      TICK TASK
  50:..\..\..\..\..\..\Software\uCOS-III\Source/os_tick.c **** *
  51:..\..\..\..\..\..\Software\uCOS-III\Source/os_tick.c **** * Description: This task is internal to uC/OS-III and is triggered by the tick interrupt.
  52:..\..\..\..\..\..\Software\uCOS-III\Source/os_tick.c **** *
  53:..\..\..\..\..\..\Software\uCOS-III\Source/os_tick.c **** * Arguments  : p_arg     is an argument passed to the task when the task is created (unused).
  54:..\..\..\..\..\..\Software\uCOS-III\Source/os_tick.c **** *
  55:..\..\..\..\..\..\Software\uCOS-III\Source/os_tick.c **** * Returns    : none
  56:..\..\..\..\..\..\Software\uCOS-III\Source/os_tick.c **** *
  57:..\..\..\..\..\..\Software\uCOS-III\Source/os_tick.c **** * Note(s)    : This function is INTERNAL to uC/OS-III and your application should not call it.
  58:..\..\..\..\..\..\Software\uCOS-III\Source/os_tick.c **** ***************************************************************************************************
  59:..\..\..\..\..\..\Software\uCOS-III\Source/os_tick.c **** */
  60:..\..\..\..\..\..\Software\uCOS-III\Source/os_tick.c **** 
  61:..\..\..\..\..\..\Software\uCOS-III\Source/os_tick.c **** void  OS_TickTask (void  *p_arg)
  62:..\..\..\..\..\..\Software\uCOS-III\Source/os_tick.c **** {
  63:..\..\..\..\..\..\Software\uCOS-III\Source/os_tick.c ****     OS_ERR  err;
  64:..\..\..\..\..\..\Software\uCOS-III\Source/os_tick.c ****     CPU_TS  ts;
  65:..\..\..\..\..\..\Software\uCOS-III\Source/os_tick.c **** 
  66:..\..\..\..\..\..\Software\uCOS-III\Source/os_tick.c **** 
  67:..\..\..\..\..\..\Software\uCOS-III\Source/os_tick.c ****     p_arg = p_arg;                                          /* Prevent compiler warning            
  68:..\..\..\..\..\..\Software\uCOS-III\Source/os_tick.c **** 
  69:..\..\..\..\..\..\Software\uCOS-III\Source/os_tick.c ****     while (DEF_ON) {
  70:..\..\..\..\..\..\Software\uCOS-III\Source/os_tick.c ****         (void)OSTaskSemPend((OS_TICK  )0,
  71:..\..\..\..\..\..\Software\uCOS-III\Source/os_tick.c ****                             (OS_OPT   )OS_OPT_PEND_BLOCKING,
  72:..\..\..\..\..\..\Software\uCOS-III\Source/os_tick.c ****                             (CPU_TS  *)&ts,
  73:..\..\..\..\..\..\Software\uCOS-III\Source/os_tick.c ****                             (OS_ERR  *)&err);               /* Wait for signal from tick interrupt 
  74:..\..\..\..\..\..\Software\uCOS-III\Source/os_tick.c ****         if (err == OS_ERR_NONE) {
  75:..\..\..\..\..\..\Software\uCOS-III\Source/os_tick.c ****             if (OSRunning == OS_STATE_OS_RUNNING) {
  76:..\..\..\..\..\..\Software\uCOS-III\Source/os_tick.c ****                 OS_TickListUpdate();                        /* Update all tasks waiting for time   
  77:..\..\..\..\..\..\Software\uCOS-III\Source/os_tick.c ****             }
  78:..\..\..\..\..\..\Software\uCOS-III\Source/os_tick.c ****         }
  79:..\..\..\..\..\..\Software\uCOS-III\Source/os_tick.c ****     }
  80:..\..\..\..\..\..\Software\uCOS-III\Source/os_tick.c **** }
  81:..\..\..\..\..\..\Software\uCOS-III\Source/os_tick.c **** 
  82:..\..\..\..\..\..\Software\uCOS-III\Source/os_tick.c **** /*$PAGE*/
  83:..\..\..\..\..\..\Software\uCOS-III\Source/os_tick.c **** /*
  84:..\..\..\..\..\..\Software\uCOS-III\Source/os_tick.c **** ***************************************************************************************************
  85:..\..\..\..\..\..\Software\uCOS-III\Source/os_tick.c **** *                                                 INITIALIZE TICK TASK
  86:..\..\..\..\..\..\Software\uCOS-III\Source/os_tick.c **** *
  87:..\..\..\..\..\..\Software\uCOS-III\Source/os_tick.c **** * Description: This function is called by OSInit() to create the tick task.
  88:..\..\..\..\..\..\Software\uCOS-III\Source/os_tick.c **** *
ARM GAS  C:\Users\EDULU~1.DES\AppData\Local\Temp\ccqOMtWj.s 			page 3


  89:..\..\..\..\..\..\Software\uCOS-III\Source/os_tick.c **** * Arguments  : p_err   is a pointer to a variable that will hold the value of an error code:
  90:..\..\..\..\..\..\Software\uCOS-III\Source/os_tick.c **** *
  91:..\..\..\..\..\..\Software\uCOS-III\Source/os_tick.c **** *                          OS_ERR_TICK_STK_INVALID   if the pointer to the tick task stack is a NUL
  92:..\..\..\..\..\..\Software\uCOS-III\Source/os_tick.c **** *                          OS_ERR_TICK_STK_SIZE      indicates that the specified stack size
  93:..\..\..\..\..\..\Software\uCOS-III\Source/os_tick.c **** *                          OS_ERR_PRIO_INVALID       if the priority you specified in the configura
  94:..\..\..\..\..\..\Software\uCOS-III\Source/os_tick.c **** *                                                      (There could be only one task at the Idle Ta
  95:..\..\..\..\..\..\Software\uCOS-III\Source/os_tick.c **** *                                                      (Maybe the priority you specified is higher 
  96:..\..\..\..\..\..\Software\uCOS-III\Source/os_tick.c **** *                          OS_ERR_??                 other error code returned by OSTaskCreate()
  97:..\..\..\..\..\..\Software\uCOS-III\Source/os_tick.c **** *
  98:..\..\..\..\..\..\Software\uCOS-III\Source/os_tick.c **** * Returns    : none
  99:..\..\..\..\..\..\Software\uCOS-III\Source/os_tick.c **** *
 100:..\..\..\..\..\..\Software\uCOS-III\Source/os_tick.c **** * Note(s)    : This function is INTERNAL to uC/OS-III and your application should not call it.
 101:..\..\..\..\..\..\Software\uCOS-III\Source/os_tick.c **** ***************************************************************************************************
 102:..\..\..\..\..\..\Software\uCOS-III\Source/os_tick.c **** */
 103:..\..\..\..\..\..\Software\uCOS-III\Source/os_tick.c **** 
 104:..\..\..\..\..\..\Software\uCOS-III\Source/os_tick.c **** void  OS_TickTaskInit (OS_ERR  *p_err)
 105:..\..\..\..\..\..\Software\uCOS-III\Source/os_tick.c **** {
 106:..\..\..\..\..\..\Software\uCOS-III\Source/os_tick.c **** #ifdef OS_SAFETY_CRITICAL
 107:..\..\..\..\..\..\Software\uCOS-III\Source/os_tick.c ****     if (p_err == (OS_ERR *)0) {
 108:..\..\..\..\..\..\Software\uCOS-III\Source/os_tick.c ****         OS_SAFETY_CRITICAL_EXCEPTION();
 109:..\..\..\..\..\..\Software\uCOS-III\Source/os_tick.c ****         return;
 110:..\..\..\..\..\..\Software\uCOS-III\Source/os_tick.c ****     }
 111:..\..\..\..\..\..\Software\uCOS-III\Source/os_tick.c **** #endif
 112:..\..\..\..\..\..\Software\uCOS-III\Source/os_tick.c **** 
 113:..\..\..\..\..\..\Software\uCOS-III\Source/os_tick.c ****     OSTickCtr         = (OS_TICK)0u;                        /* Clear the tick counter              
 114:..\..\..\..\..\..\Software\uCOS-III\Source/os_tick.c **** 
 115:..\..\..\..\..\..\Software\uCOS-III\Source/os_tick.c ****     OSTickTaskTimeMax = (CPU_TS)0u;
 116:..\..\..\..\..\..\Software\uCOS-III\Source/os_tick.c **** 
 117:..\..\..\..\..\..\Software\uCOS-III\Source/os_tick.c **** 
 118:..\..\..\..\..\..\Software\uCOS-III\Source/os_tick.c ****     OS_TickListInit();                                      /* Initialize the tick list data struct
 119:..\..\..\..\..\..\Software\uCOS-III\Source/os_tick.c **** 
 120:..\..\..\..\..\..\Software\uCOS-III\Source/os_tick.c ****                                                             /* ---------------- CREATE THE TICK TAS
 121:..\..\..\..\..\..\Software\uCOS-III\Source/os_tick.c ****     if (OSCfg_TickTaskStkBasePtr == (CPU_STK *)0) {
 122:..\..\..\..\..\..\Software\uCOS-III\Source/os_tick.c ****        *p_err = OS_ERR_TICK_STK_INVALID;
 123:..\..\..\..\..\..\Software\uCOS-III\Source/os_tick.c ****         return;
 124:..\..\..\..\..\..\Software\uCOS-III\Source/os_tick.c ****     }
 125:..\..\..\..\..\..\Software\uCOS-III\Source/os_tick.c **** 
 126:..\..\..\..\..\..\Software\uCOS-III\Source/os_tick.c ****     if (OSCfg_TickTaskStkSize < OSCfg_StkSizeMin) {
 127:..\..\..\..\..\..\Software\uCOS-III\Source/os_tick.c ****        *p_err = OS_ERR_TICK_STK_SIZE_INVALID;
 128:..\..\..\..\..\..\Software\uCOS-III\Source/os_tick.c ****         return;
 129:..\..\..\..\..\..\Software\uCOS-III\Source/os_tick.c ****     }
 130:..\..\..\..\..\..\Software\uCOS-III\Source/os_tick.c **** 
 131:..\..\..\..\..\..\Software\uCOS-III\Source/os_tick.c ****     if (OSCfg_TickTaskPrio >= (OS_CFG_PRIO_MAX - 1u)) {     /* Only one task at the 'Idle Task' pri
 132:..\..\..\..\..\..\Software\uCOS-III\Source/os_tick.c ****        *p_err = OS_ERR_TICK_PRIO_INVALID;
 133:..\..\..\..\..\..\Software\uCOS-III\Source/os_tick.c ****         return;
 134:..\..\..\..\..\..\Software\uCOS-III\Source/os_tick.c ****     }
 135:..\..\..\..\..\..\Software\uCOS-III\Source/os_tick.c **** 
 136:..\..\..\..\..\..\Software\uCOS-III\Source/os_tick.c ****     OSTaskCreate((OS_TCB     *)&OSTickTaskTCB,
 137:..\..\..\..\..\..\Software\uCOS-III\Source/os_tick.c ****                  (CPU_CHAR   *)((void *)"uC/OS-III Tick Task"),
 138:..\..\..\..\..\..\Software\uCOS-III\Source/os_tick.c ****                  (OS_TASK_PTR )OS_TickTask,
 139:..\..\..\..\..\..\Software\uCOS-III\Source/os_tick.c ****                  (void       *)0,
 140:..\..\..\..\..\..\Software\uCOS-III\Source/os_tick.c ****                  (OS_PRIO     )OSCfg_TickTaskPrio,
 141:..\..\..\..\..\..\Software\uCOS-III\Source/os_tick.c ****                  (CPU_STK    *)OSCfg_TickTaskStkBasePtr,
 142:..\..\..\..\..\..\Software\uCOS-III\Source/os_tick.c ****                  (CPU_STK_SIZE)OSCfg_TickTaskStkLimit,
 143:..\..\..\..\..\..\Software\uCOS-III\Source/os_tick.c ****                  (CPU_STK_SIZE)OSCfg_TickTaskStkSize,
 144:..\..\..\..\..\..\Software\uCOS-III\Source/os_tick.c ****                  (OS_MSG_QTY  )0u,
 145:..\..\..\..\..\..\Software\uCOS-III\Source/os_tick.c ****                  (OS_TICK     )0u,
ARM GAS  C:\Users\EDULU~1.DES\AppData\Local\Temp\ccqOMtWj.s 			page 4


 146:..\..\..\..\..\..\Software\uCOS-III\Source/os_tick.c ****                  (void       *)0,
 147:..\..\..\..\..\..\Software\uCOS-III\Source/os_tick.c ****                  (OS_OPT      )(OS_OPT_TASK_STK_CHK | OS_OPT_TASK_STK_CLR | OS_OPT_TASK_NO_TLS),
 148:..\..\..\..\..\..\Software\uCOS-III\Source/os_tick.c ****                  (OS_ERR     *)p_err);
 149:..\..\..\..\..\..\Software\uCOS-III\Source/os_tick.c **** }
 150:..\..\..\..\..\..\Software\uCOS-III\Source/os_tick.c **** 
 151:..\..\..\..\..\..\Software\uCOS-III\Source/os_tick.c **** /*$PAGE*/
 152:..\..\..\..\..\..\Software\uCOS-III\Source/os_tick.c **** /*
 153:..\..\..\..\..\..\Software\uCOS-III\Source/os_tick.c **** ***************************************************************************************************
 154:..\..\..\..\..\..\Software\uCOS-III\Source/os_tick.c **** *                                               INITIALIZE THE TICK LIST
 155:..\..\..\..\..\..\Software\uCOS-III\Source/os_tick.c **** *
 156:..\..\..\..\..\..\Software\uCOS-III\Source/os_tick.c **** * Description: This function initializes the tick handling data structures of uC/OS-III.
 157:..\..\..\..\..\..\Software\uCOS-III\Source/os_tick.c **** *
 158:..\..\..\..\..\..\Software\uCOS-III\Source/os_tick.c **** * Arguments  : none
 159:..\..\..\..\..\..\Software\uCOS-III\Source/os_tick.c **** *
 160:..\..\..\..\..\..\Software\uCOS-III\Source/os_tick.c **** * Returns    : None
 161:..\..\..\..\..\..\Software\uCOS-III\Source/os_tick.c **** *
 162:..\..\..\..\..\..\Software\uCOS-III\Source/os_tick.c **** * Note(s)    : This function is INTERNAL to uC/OS-III and your application MUST NOT call it.
 163:..\..\..\..\..\..\Software\uCOS-III\Source/os_tick.c **** ***************************************************************************************************
 164:..\..\..\..\..\..\Software\uCOS-III\Source/os_tick.c **** */
 165:..\..\..\..\..\..\Software\uCOS-III\Source/os_tick.c **** 
 166:..\..\..\..\..\..\Software\uCOS-III\Source/os_tick.c **** void  OS_TickListInit (void)
 167:..\..\..\..\..\..\Software\uCOS-III\Source/os_tick.c **** {
  27              		.loc 1 167 1 view -0
  28              		.cfi_startproc
  29              		@ args = 0, pretend = 0, frame = 0
  30              		@ frame_needed = 0, uses_anonymous_args = 0
  31              		@ link register save eliminated.
 168:..\..\..\..\..\..\Software\uCOS-III\Source/os_tick.c ****     OS_TICK_SPOKE_IX   i;
  32              		.loc 1 168 5 view .LVU1
 169:..\..\..\..\..\..\Software\uCOS-III\Source/os_tick.c ****     OS_TICK_SPOKE     *p_spoke;
  33              		.loc 1 169 5 view .LVU2
 170:..\..\..\..\..\..\Software\uCOS-III\Source/os_tick.c **** 
 171:..\..\..\..\..\..\Software\uCOS-III\Source/os_tick.c **** 
 172:..\..\..\..\..\..\Software\uCOS-III\Source/os_tick.c **** 
 173:..\..\..\..\..\..\Software\uCOS-III\Source/os_tick.c ****     for (i = 0u; i < OSCfg_TickWheelSize; i++) {
  34              		.loc 1 173 5 view .LVU3
  35              	.LVL0:
  36              		.loc 1 173 12 is_stmt 0 view .LVU4
  37 0000 0023     		movs	r3, #0
  38              	.LVL1:
  39              	.L2:
  40              		.loc 1 173 20 discriminator 1 view .LVU5
  41 0002 074A     		ldr	r2, .L5
  42 0004 1288     		ldrh	r2, [r2]
  43              		.loc 1 173 5 discriminator 1 view .LVU6
  44 0006 9A42     		cmp	r2, r3
  45 0008 09D9     		bls	.L4
 174:..\..\..\..\..\..\Software\uCOS-III\Source/os_tick.c ****         p_spoke                = (OS_TICK_SPOKE *)&OSCfg_TickWheel[i];
  46              		.loc 1 174 9 is_stmt 1 discriminator 3 view .LVU7
  47              	.LVL2:
 175:..\..\..\..\..\..\Software\uCOS-III\Source/os_tick.c ****         p_spoke->FirstPtr      = (OS_TCB        *)0;
  48              		.loc 1 175 9 discriminator 3 view .LVU8
  49              		.loc 1 175 32 is_stmt 0 discriminator 3 view .LVU9
  50 000a 064A     		ldr	r2, .L5+4
  51 000c D800     		lsls	r0, r3, #3
  52 000e 0021     		movs	r1, #0
  53 0010 8150     		str	r1, [r0, r2]
ARM GAS  C:\Users\EDULU~1.DES\AppData\Local\Temp\ccqOMtWj.s 			page 5


 176:..\..\..\..\..\..\Software\uCOS-III\Source/os_tick.c ****         p_spoke->NbrEntries    = (OS_OBJ_QTY     )0u;
  54              		.loc 1 176 9 is_stmt 1 discriminator 3 view .LVU10
  55              		.loc 1 176 32 is_stmt 0 discriminator 3 view .LVU11
  56 0012 1218     		adds	r2, r2, r0
  57              	.LVL3:
  58              		.loc 1 176 32 discriminator 3 view .LVU12
  59 0014 9180     		strh	r1, [r2, #4]
 177:..\..\..\..\..\..\Software\uCOS-III\Source/os_tick.c ****         p_spoke->NbrEntriesMax = (OS_OBJ_QTY     )0u;
  60              		.loc 1 177 9 is_stmt 1 discriminator 3 view .LVU13
  61              		.loc 1 177 32 is_stmt 0 discriminator 3 view .LVU14
  62 0016 D180     		strh	r1, [r2, #6]
 173:..\..\..\..\..\..\Software\uCOS-III\Source/os_tick.c ****         p_spoke                = (OS_TICK_SPOKE *)&OSCfg_TickWheel[i];
  63              		.loc 1 173 44 discriminator 3 view .LVU15
  64 0018 0133     		adds	r3, r3, #1
  65              	.LVL4:
 173:..\..\..\..\..\..\Software\uCOS-III\Source/os_tick.c ****         p_spoke                = (OS_TICK_SPOKE *)&OSCfg_TickWheel[i];
  66              		.loc 1 173 44 discriminator 3 view .LVU16
  67 001a 9BB2     		uxth	r3, r3
  68              	.LVL5:
 173:..\..\..\..\..\..\Software\uCOS-III\Source/os_tick.c ****         p_spoke                = (OS_TICK_SPOKE *)&OSCfg_TickWheel[i];
  69              		.loc 1 173 44 discriminator 3 view .LVU17
  70 001c F1E7     		b	.L2
  71              	.LVL6:
  72              	.L4:
 178:..\..\..\..\..\..\Software\uCOS-III\Source/os_tick.c ****     }
 179:..\..\..\..\..\..\Software\uCOS-III\Source/os_tick.c **** }
  73              		.loc 1 179 1 view .LVU18
  74              		@ sp needed
  75 001e 7047     		bx	lr
  76              	.L6:
  77              		.align	2
  78              	.L5:
  79 0020 00000000 		.word	OSCfg_TickWheelSize
  80 0024 00000000 		.word	OSCfg_TickWheel
  81              		.cfi_endproc
  82              	.LFE5:
  83              		.size	OS_TickListInit, .-OS_TickListInit
  84              		.section	.text.OS_TickTaskInit,"ax",%progbits
  85              		.align	1
  86              		.global	OS_TickTaskInit
  87              		.syntax unified
  88              		.code	16
  89              		.thumb_func
  90              		.fpu softvfp
  91              		.type	OS_TickTaskInit, %function
  92              	OS_TickTaskInit:
  93              	.LVL7:
  94              	.LFB4:
 105:..\..\..\..\..\..\Software\uCOS-III\Source/os_tick.c **** #ifdef OS_SAFETY_CRITICAL
  95              		.loc 1 105 1 is_stmt 1 view -0
  96              		.cfi_startproc
  97              		@ args = 0, pretend = 0, frame = 0
  98              		@ frame_needed = 0, uses_anonymous_args = 0
 105:..\..\..\..\..\..\Software\uCOS-III\Source/os_tick.c **** #ifdef OS_SAFETY_CRITICAL
  99              		.loc 1 105 1 is_stmt 0 view .LVU20
 100 0000 10B5     		push	{r4, lr}
 101              		.cfi_def_cfa_offset 8
ARM GAS  C:\Users\EDULU~1.DES\AppData\Local\Temp\ccqOMtWj.s 			page 6


 102              		.cfi_offset 4, -8
 103              		.cfi_offset 14, -4
 104 0002 8AB0     		sub	sp, sp, #40
 105              		.cfi_def_cfa_offset 48
 106 0004 0400     		movs	r4, r0
 113:..\..\..\..\..\..\Software\uCOS-III\Source/os_tick.c **** 
 107              		.loc 1 113 5 is_stmt 1 view .LVU21
 113:..\..\..\..\..\..\Software\uCOS-III\Source/os_tick.c **** 
 108              		.loc 1 113 23 is_stmt 0 view .LVU22
 109 0006 0023     		movs	r3, #0
 110 0008 184A     		ldr	r2, .L14
 111 000a 1360     		str	r3, [r2]
 115:..\..\..\..\..\..\Software\uCOS-III\Source/os_tick.c **** 
 112              		.loc 1 115 5 is_stmt 1 view .LVU23
 115:..\..\..\..\..\..\Software\uCOS-III\Source/os_tick.c **** 
 113              		.loc 1 115 23 is_stmt 0 view .LVU24
 114 000c 184A     		ldr	r2, .L14+4
 115 000e 1360     		str	r3, [r2]
 118:..\..\..\..\..\..\Software\uCOS-III\Source/os_tick.c **** 
 116              		.loc 1 118 5 is_stmt 1 view .LVU25
 117 0010 FFF7FEFF 		bl	OS_TickListInit
 118              	.LVL8:
 121:..\..\..\..\..\..\Software\uCOS-III\Source/os_tick.c ****        *p_err = OS_ERR_TICK_STK_INVALID;
 119              		.loc 1 121 5 view .LVU26
 121:..\..\..\..\..\..\Software\uCOS-III\Source/os_tick.c ****        *p_err = OS_ERR_TICK_STK_INVALID;
 120              		.loc 1 121 34 is_stmt 0 view .LVU27
 121 0014 174B     		ldr	r3, .L14+8
 122 0016 1B68     		ldr	r3, [r3]
 121:..\..\..\..\..\..\Software\uCOS-III\Source/os_tick.c ****        *p_err = OS_ERR_TICK_STK_INVALID;
 123              		.loc 1 121 8 view .LVU28
 124 0018 002B     		cmp	r3, #0
 125 001a 0CD0     		beq	.L12
 126:..\..\..\..\..\..\Software\uCOS-III\Source/os_tick.c ****        *p_err = OS_ERR_TICK_STK_SIZE_INVALID;
 126              		.loc 1 126 5 is_stmt 1 view .LVU29
 126:..\..\..\..\..\..\Software\uCOS-III\Source/os_tick.c ****        *p_err = OS_ERR_TICK_STK_SIZE_INVALID;
 127              		.loc 1 126 31 is_stmt 0 view .LVU30
 128 001c 164A     		ldr	r2, .L14+12
 129 001e 1268     		ldr	r2, [r2]
 130 0020 1649     		ldr	r1, .L14+16
 131 0022 0968     		ldr	r1, [r1]
 126:..\..\..\..\..\..\Software\uCOS-III\Source/os_tick.c ****        *p_err = OS_ERR_TICK_STK_SIZE_INVALID;
 132              		.loc 1 126 8 view .LVU31
 133 0024 8A42     		cmp	r2, r1
 134 0026 09D3     		bcc	.L13
 131:..\..\..\..\..\..\Software\uCOS-III\Source/os_tick.c ****        *p_err = OS_ERR_TICK_PRIO_INVALID;
 135              		.loc 1 131 5 is_stmt 1 view .LVU32
 131:..\..\..\..\..\..\Software\uCOS-III\Source/os_tick.c ****        *p_err = OS_ERR_TICK_PRIO_INVALID;
 136              		.loc 1 131 28 is_stmt 0 view .LVU33
 137 0028 1549     		ldr	r1, .L14+20
 138 002a 0978     		ldrb	r1, [r1]
 131:..\..\..\..\..\..\Software\uCOS-III\Source/os_tick.c ****        *p_err = OS_ERR_TICK_PRIO_INVALID;
 139              		.loc 1 131 8 view .LVU34
 140 002c 1E29     		cmp	r1, #30
 141 002e 09D9     		bls	.L11
 132:..\..\..\..\..\..\Software\uCOS-III\Source/os_tick.c ****         return;
 142              		.loc 1 132 8 is_stmt 1 view .LVU35
 132:..\..\..\..\..\..\Software\uCOS-III\Source/os_tick.c ****         return;
ARM GAS  C:\Users\EDULU~1.DES\AppData\Local\Temp\ccqOMtWj.s 			page 7


 143              		.loc 1 132 15 is_stmt 0 view .LVU36
 144 0030 144B     		ldr	r3, .L14+24
 145 0032 2380     		strh	r3, [r4]
 133:..\..\..\..\..\..\Software\uCOS-III\Source/os_tick.c ****     }
 146              		.loc 1 133 9 is_stmt 1 view .LVU37
 147 0034 04E0     		b	.L7
 148              	.L12:
 122:..\..\..\..\..\..\Software\uCOS-III\Source/os_tick.c ****         return;
 149              		.loc 1 122 8 view .LVU38
 122:..\..\..\..\..\..\Software\uCOS-III\Source/os_tick.c ****         return;
 150              		.loc 1 122 15 is_stmt 0 view .LVU39
 151 0036 144B     		ldr	r3, .L14+28
 152 0038 2380     		strh	r3, [r4]
 123:..\..\..\..\..\..\Software\uCOS-III\Source/os_tick.c ****     }
 153              		.loc 1 123 9 is_stmt 1 view .LVU40
 154 003a 01E0     		b	.L7
 155              	.L13:
 127:..\..\..\..\..\..\Software\uCOS-III\Source/os_tick.c ****         return;
 156              		.loc 1 127 8 view .LVU41
 127:..\..\..\..\..\..\Software\uCOS-III\Source/os_tick.c ****         return;
 157              		.loc 1 127 15 is_stmt 0 view .LVU42
 158 003c 134B     		ldr	r3, .L14+32
 159 003e 2380     		strh	r3, [r4]
 128:..\..\..\..\..\..\Software\uCOS-III\Source/os_tick.c ****     }
 160              		.loc 1 128 9 is_stmt 1 view .LVU43
 161              	.L7:
 149:..\..\..\..\..\..\Software\uCOS-III\Source/os_tick.c **** 
 162              		.loc 1 149 1 is_stmt 0 view .LVU44
 163 0040 0AB0     		add	sp, sp, #40
 164              		@ sp needed
 165              	.LVL9:
 149:..\..\..\..\..\..\Software\uCOS-III\Source/os_tick.c **** 
 166              		.loc 1 149 1 view .LVU45
 167 0042 10BD     		pop	{r4, pc}
 168              	.LVL10:
 169              	.L11:
 136:..\..\..\..\..\..\Software\uCOS-III\Source/os_tick.c ****                  (CPU_CHAR   *)((void *)"uC/OS-III Tick Task"),
 170              		.loc 1 136 5 is_stmt 1 view .LVU46
 171 0044 0894     		str	r4, [sp, #32]
 172 0046 0B20     		movs	r0, #11
 173 0048 0790     		str	r0, [sp, #28]
 174 004a 0020     		movs	r0, #0
 175 004c 0690     		str	r0, [sp, #24]
 176 004e 0590     		str	r0, [sp, #20]
 177 0050 0490     		str	r0, [sp, #16]
 178 0052 0392     		str	r2, [sp, #12]
 179 0054 0E4A     		ldr	r2, .L14+36
 180 0056 1268     		ldr	r2, [r2]
 181 0058 0292     		str	r2, [sp, #8]
 182 005a 0193     		str	r3, [sp, #4]
 183 005c 0091     		str	r1, [sp]
 184 005e 0023     		movs	r3, #0
 185 0060 0C4A     		ldr	r2, .L14+40
 186 0062 0D49     		ldr	r1, .L14+44
 187 0064 0D48     		ldr	r0, .L14+48
 188 0066 FFF7FEFF 		bl	OSTaskCreate
 189              	.LVL11:
ARM GAS  C:\Users\EDULU~1.DES\AppData\Local\Temp\ccqOMtWj.s 			page 8


 190 006a E9E7     		b	.L7
 191              	.L15:
 192              		.align	2
 193              	.L14:
 194 006c 00000000 		.word	OSTickCtr
 195 0070 00000000 		.word	OSTickTaskTimeMax
 196 0074 00000000 		.word	OSCfg_TickTaskStkBasePtr
 197 0078 00000000 		.word	OSCfg_TickTaskStkSize
 198 007c 00000000 		.word	OSCfg_StkSizeMin
 199 0080 00000000 		.word	OSCfg_TickTaskPrio
 200 0084 11720000 		.word	29201
 201 0088 12720000 		.word	29202
 202 008c 13720000 		.word	29203
 203 0090 00000000 		.word	OSCfg_TickTaskStkLimit
 204 0094 00000000 		.word	OS_TickTask
 205 0098 00000000 		.word	.LC9
 206 009c 00000000 		.word	OSTickTaskTCB
 207              		.cfi_endproc
 208              	.LFE4:
 209              		.size	OS_TickTaskInit, .-OS_TickTaskInit
 210              		.global	__aeabi_uidivmod
 211              		.section	.text.OS_TickListInsert,"ax",%progbits
 212              		.align	1
 213              		.global	OS_TickListInsert
 214              		.syntax unified
 215              		.code	16
 216              		.thumb_func
 217              		.fpu softvfp
 218              		.type	OS_TickListInsert, %function
 219              	OS_TickListInsert:
 220              	.LVL12:
 221              	.LFB6:
 180:..\..\..\..\..\..\Software\uCOS-III\Source/os_tick.c **** 
 181:..\..\..\..\..\..\Software\uCOS-III\Source/os_tick.c **** /*$PAGE*/
 182:..\..\..\..\..\..\Software\uCOS-III\Source/os_tick.c **** /*
 183:..\..\..\..\..\..\Software\uCOS-III\Source/os_tick.c **** ***************************************************************************************************
 184:..\..\..\..\..\..\Software\uCOS-III\Source/os_tick.c **** *                                                ADD TASK TO TICK LIST
 185:..\..\..\..\..\..\Software\uCOS-III\Source/os_tick.c **** *
 186:..\..\..\..\..\..\Software\uCOS-III\Source/os_tick.c **** * Description: This function is called to place a task in a list of task waiting for either time to
 187:..\..\..\..\..\..\Software\uCOS-III\Source/os_tick.c **** *              timeout on a pend call.
 188:..\..\..\..\..\..\Software\uCOS-III\Source/os_tick.c **** *
 189:..\..\..\..\..\..\Software\uCOS-III\Source/os_tick.c **** * Arguments  : p_tcb          is a pointer to the OS_TCB of the task to add to the tick list
 190:..\..\..\..\..\..\Software\uCOS-III\Source/os_tick.c **** *              -----
 191:..\..\..\..\..\..\Software\uCOS-III\Source/os_tick.c **** *
 192:..\..\..\..\..\..\Software\uCOS-III\Source/os_tick.c **** *              time           represents either the 'match' value of OSTickCtr or a relative time f
 193:..\..\..\..\..\..\Software\uCOS-III\Source/os_tick.c **** *                             value of OSTickCtr as specified by the 'opt' argument..
 194:..\..\..\..\..\..\Software\uCOS-III\Source/os_tick.c **** *
 195:..\..\..\..\..\..\Software\uCOS-III\Source/os_tick.c **** *                             relative when 'opt' is set to OS_OPT_TIME_DLY
 196:..\..\..\..\..\..\Software\uCOS-III\Source/os_tick.c **** *                             relative when 'opt' is set to OS_OPT_TIME_TIMEOUT
 197:..\..\..\..\..\..\Software\uCOS-III\Source/os_tick.c **** *                             match    when 'opt' is set to OS_OPT_TIME_MATCH
 198:..\..\..\..\..\..\Software\uCOS-III\Source/os_tick.c **** *                             periodic when 'opt' is set to OS_OPT_TIME_PERIODIC
 199:..\..\..\..\..\..\Software\uCOS-III\Source/os_tick.c **** *
 200:..\..\..\..\..\..\Software\uCOS-III\Source/os_tick.c **** *              opt            is an option specifying how to calculate time.  The valid values are:
 201:..\..\..\..\..\..\Software\uCOS-III\Source/os_tick.c **** *              ---
 202:..\..\..\..\..\..\Software\uCOS-III\Source/os_tick.c **** *                                 OS_OPT_TIME_DLY
 203:..\..\..\..\..\..\Software\uCOS-III\Source/os_tick.c **** *                                 OS_OPT_TIME_TIMEOUT
 204:..\..\..\..\..\..\Software\uCOS-III\Source/os_tick.c **** *                                 OS_OPT_TIME_PERIODIC
ARM GAS  C:\Users\EDULU~1.DES\AppData\Local\Temp\ccqOMtWj.s 			page 9


 205:..\..\..\..\..\..\Software\uCOS-III\Source/os_tick.c **** *                                 OS_OPT_TIME_MATCH
 206:..\..\..\..\..\..\Software\uCOS-III\Source/os_tick.c **** *
 207:..\..\..\..\..\..\Software\uCOS-III\Source/os_tick.c **** *              p_err          is a pointer to a variable that will contain an error code returned b
 208:..\..\..\..\..\..\Software\uCOS-III\Source/os_tick.c **** *              -----
 209:..\..\..\..\..\..\Software\uCOS-III\Source/os_tick.c **** *                                 OS_ERR_NONE           the call was successful and the time delay 
 210:..\..\..\..\..\..\Software\uCOS-III\Source/os_tick.c **** *                                 OS_ERR_TIME_ZERO_DLY  if delay is zero or already occurred.
 211:..\..\..\..\..\..\Software\uCOS-III\Source/os_tick.c **** *
 212:..\..\..\..\..\..\Software\uCOS-III\Source/os_tick.c **** * Returns    : None
 213:..\..\..\..\..\..\Software\uCOS-III\Source/os_tick.c **** *
 214:..\..\..\..\..\..\Software\uCOS-III\Source/os_tick.c **** * Note(s)    : 1) This function is INTERNAL to uC/OS-III and your application MUST NOT call it.
 215:..\..\..\..\..\..\Software\uCOS-III\Source/os_tick.c **** *
 216:..\..\..\..\..\..\Software\uCOS-III\Source/os_tick.c **** *              2) This function is assumed to be called with interrupts disabled.
 217:..\..\..\..\..\..\Software\uCOS-III\Source/os_tick.c **** ***************************************************************************************************
 218:..\..\..\..\..\..\Software\uCOS-III\Source/os_tick.c **** */
 219:..\..\..\..\..\..\Software\uCOS-III\Source/os_tick.c **** 
 220:..\..\..\..\..\..\Software\uCOS-III\Source/os_tick.c **** void  OS_TickListInsert (OS_TCB   *p_tcb,
 221:..\..\..\..\..\..\Software\uCOS-III\Source/os_tick.c ****                          OS_TICK   time,
 222:..\..\..\..\..\..\Software\uCOS-III\Source/os_tick.c ****                          OS_OPT    opt,
 223:..\..\..\..\..\..\Software\uCOS-III\Source/os_tick.c ****                          OS_ERR   *p_err)
 224:..\..\..\..\..\..\Software\uCOS-III\Source/os_tick.c **** {
 222              		.loc 1 224 1 view -0
 223              		.cfi_startproc
 224              		@ args = 0, pretend = 0, frame = 0
 225              		@ frame_needed = 0, uses_anonymous_args = 0
 226              		.loc 1 224 1 is_stmt 0 view .LVU48
 227 0000 70B5     		push	{r4, r5, r6, lr}
 228              		.cfi_def_cfa_offset 16
 229              		.cfi_offset 4, -16
 230              		.cfi_offset 5, -12
 231              		.cfi_offset 6, -8
 232              		.cfi_offset 14, -4
 233 0002 0400     		movs	r4, r0
 234 0004 1D00     		movs	r5, r3
 225:..\..\..\..\..\..\Software\uCOS-III\Source/os_tick.c ****     OS_TICK            tick_delta;
 235              		.loc 1 225 5 is_stmt 1 view .LVU49
 226:..\..\..\..\..\..\Software\uCOS-III\Source/os_tick.c ****     OS_TICK            tick_next;
 236              		.loc 1 226 5 view .LVU50
 227:..\..\..\..\..\..\Software\uCOS-III\Source/os_tick.c ****     OS_TICK_SPOKE     *p_spoke;
 237              		.loc 1 227 5 view .LVU51
 228:..\..\..\..\..\..\Software\uCOS-III\Source/os_tick.c ****     OS_TCB            *p_tcb0;
 238              		.loc 1 228 5 view .LVU52
 229:..\..\..\..\..\..\Software\uCOS-III\Source/os_tick.c ****     OS_TCB            *p_tcb1;
 239              		.loc 1 229 5 view .LVU53
 230:..\..\..\..\..\..\Software\uCOS-III\Source/os_tick.c ****     OS_TICK_SPOKE_IX   spoke;
 240              		.loc 1 230 5 view .LVU54
 231:..\..\..\..\..\..\Software\uCOS-III\Source/os_tick.c **** 
 232:..\..\..\..\..\..\Software\uCOS-III\Source/os_tick.c **** 
 233:..\..\..\..\..\..\Software\uCOS-III\Source/os_tick.c **** 
 234:..\..\..\..\..\..\Software\uCOS-III\Source/os_tick.c ****     if (opt == OS_OPT_TIME_MATCH) {                              /* Task time is absolute.         
 241              		.loc 1 234 5 view .LVU55
 242              		.loc 1 234 8 is_stmt 0 view .LVU56
 243 0006 042A     		cmp	r2, #4
 244 0008 2BD0     		beq	.L34
 235:..\..\..\..\..\..\Software\uCOS-III\Source/os_tick.c ****         tick_delta = time - OSTickCtr - 1u;
 236:..\..\..\..\..\..\Software\uCOS-III\Source/os_tick.c ****         if (tick_delta > OS_TICK_TH_RDY) {                       /* If delay already occurred, ... 
 237:..\..\..\..\..\..\Software\uCOS-III\Source/os_tick.c ****             p_tcb->TickCtrMatch = (OS_TICK        )0u;
 238:..\..\..\..\..\..\Software\uCOS-III\Source/os_tick.c ****             p_tcb->TickRemain   = (OS_TICK        )0u;
ARM GAS  C:\Users\EDULU~1.DES\AppData\Local\Temp\ccqOMtWj.s 			page 10


 239:..\..\..\..\..\..\Software\uCOS-III\Source/os_tick.c ****             p_tcb->TickSpokePtr = (OS_TICK_SPOKE *)0;
 240:..\..\..\..\..\..\Software\uCOS-III\Source/os_tick.c ****            *p_err               =  OS_ERR_TIME_ZERO_DLY;         /* ... do NOT delay.              
 241:..\..\..\..\..\..\Software\uCOS-III\Source/os_tick.c ****             return;
 242:..\..\..\..\..\..\Software\uCOS-III\Source/os_tick.c ****         }
 243:..\..\..\..\..\..\Software\uCOS-III\Source/os_tick.c ****         p_tcb->TickCtrMatch = time;
 244:..\..\..\..\..\..\Software\uCOS-III\Source/os_tick.c ****         p_tcb->TickRemain   = tick_delta + 1u;
 245:..\..\..\..\..\..\Software\uCOS-III\Source/os_tick.c **** 
 246:..\..\..\..\..\..\Software\uCOS-III\Source/os_tick.c ****     } else if (time > (OS_TICK)0u) {
 245              		.loc 1 246 12 is_stmt 1 view .LVU57
 246              		.loc 1 246 15 is_stmt 0 view .LVU58
 247 000a 0029     		cmp	r1, #0
 248 000c 4BD0     		beq	.L21
 247:..\..\..\..\..\..\Software\uCOS-III\Source/os_tick.c ****         if (opt == OS_OPT_TIME_PERIODIC) {                       /* Task time is periodic.         
 249              		.loc 1 247 9 is_stmt 1 view .LVU59
 250              		.loc 1 247 12 is_stmt 0 view .LVU60
 251 000e 082A     		cmp	r2, #8
 252 0010 38D0     		beq	.L35
 248:..\..\..\..\..\..\Software\uCOS-III\Source/os_tick.c ****             tick_next  = p_tcb->TickCtrPrev + time;
 249:..\..\..\..\..\..\Software\uCOS-III\Source/os_tick.c ****             tick_delta = tick_next - OSTickCtr - 1u;
 250:..\..\..\..\..\..\Software\uCOS-III\Source/os_tick.c ****             if (tick_delta < time) {                             /* If next periodic delay did NOT 
 251:..\..\..\..\..\..\Software\uCOS-III\Source/os_tick.c ****                 p_tcb->TickCtrMatch = tick_next;                 /* ... set  next  periodic delay; 
 252:..\..\..\..\..\..\Software\uCOS-III\Source/os_tick.c ****             } else {
 253:..\..\..\..\..\..\Software\uCOS-III\Source/os_tick.c ****                 p_tcb->TickCtrMatch = OSTickCtr + time;          /* ... else reset periodic delay. 
 254:..\..\..\..\..\..\Software\uCOS-III\Source/os_tick.c ****             }
 255:..\..\..\..\..\..\Software\uCOS-III\Source/os_tick.c ****             p_tcb->TickRemain   = p_tcb->TickCtrMatch - OSTickCtr;
 256:..\..\..\..\..\..\Software\uCOS-III\Source/os_tick.c ****             p_tcb->TickCtrPrev  = p_tcb->TickCtrMatch;
 257:..\..\..\..\..\..\Software\uCOS-III\Source/os_tick.c **** 
 258:..\..\..\..\..\..\Software\uCOS-III\Source/os_tick.c ****         } else {                                                 /* Task time is relative to curren
 259:..\..\..\..\..\..\Software\uCOS-III\Source/os_tick.c ****             p_tcb->TickCtrMatch = OSTickCtr + time;
 253              		.loc 1 259 13 is_stmt 1 view .LVU61
 254              		.loc 1 259 45 is_stmt 0 view .LVU62
 255 0012 3E4B     		ldr	r3, .L39
 256              	.LVL13:
 257              		.loc 1 259 45 view .LVU63
 258 0014 1B68     		ldr	r3, [r3]
 259 0016 CB18     		adds	r3, r1, r3
 260              		.loc 1 259 33 view .LVU64
 261 0018 C364     		str	r3, [r0, #76]
 260:..\..\..\..\..\..\Software\uCOS-III\Source/os_tick.c ****             p_tcb->TickRemain   = time;
 262              		.loc 1 260 13 is_stmt 1 view .LVU65
 263              		.loc 1 260 33 is_stmt 0 view .LVU66
 264 001a 0165     		str	r1, [r0, #80]
 265              	.LVL14:
 266              	.L20:
 261:..\..\..\..\..\..\Software\uCOS-III\Source/os_tick.c ****         }
 262:..\..\..\..\..\..\Software\uCOS-III\Source/os_tick.c **** 
 263:..\..\..\..\..\..\Software\uCOS-III\Source/os_tick.c ****     } else {                                                     /* Zero time delay; ...           
 264:..\..\..\..\..\..\Software\uCOS-III\Source/os_tick.c ****         p_tcb->TickCtrMatch = (OS_TICK        )0u;
 265:..\..\..\..\..\..\Software\uCOS-III\Source/os_tick.c ****         p_tcb->TickRemain   = (OS_TICK        )0u;
 266:..\..\..\..\..\..\Software\uCOS-III\Source/os_tick.c ****         p_tcb->TickSpokePtr = (OS_TICK_SPOKE *)0;
 267:..\..\..\..\..\..\Software\uCOS-III\Source/os_tick.c ****        *p_err               =  OS_ERR_TIME_ZERO_DLY;             /* ... do NOT delay.              
 268:..\..\..\..\..\..\Software\uCOS-III\Source/os_tick.c ****         return;
 269:..\..\..\..\..\..\Software\uCOS-III\Source/os_tick.c ****     }
 270:..\..\..\..\..\..\Software\uCOS-III\Source/os_tick.c **** 
 271:..\..\..\..\..\..\Software\uCOS-III\Source/os_tick.c **** 
 272:..\..\..\..\..\..\Software\uCOS-III\Source/os_tick.c ****     spoke   = (OS_TICK_SPOKE_IX)(p_tcb->TickCtrMatch % OSCfg_TickWheelSize);
 267              		.loc 1 272 5 is_stmt 1 view .LVU67
ARM GAS  C:\Users\EDULU~1.DES\AppData\Local\Temp\ccqOMtWj.s 			page 11


 268              		.loc 1 272 54 is_stmt 0 view .LVU68
 269 001c 3C4B     		ldr	r3, .L39+4
 270 001e 1988     		ldrh	r1, [r3]
 271 0020 E06C     		ldr	r0, [r4, #76]
 272 0022 FFF7FEFF 		bl	__aeabi_uidivmod
 273              	.LVL15:
 273:..\..\..\..\..\..\Software\uCOS-III\Source/os_tick.c ****     p_spoke = &OSCfg_TickWheel[spoke];
 274              		.loc 1 273 5 is_stmt 1 view .LVU69
 275              		.loc 1 273 31 is_stmt 0 view .LVU70
 276 0026 0904     		lsls	r1, r1, #16
 277              	.LVL16:
 278              		.loc 1 273 31 view .LVU71
 279 0028 090C     		lsrs	r1, r1, #16
 280              		.loc 1 273 13 view .LVU72
 281 002a C800     		lsls	r0, r1, #3
 282 002c 394B     		ldr	r3, .L39+8
 283 002e C018     		adds	r0, r0, r3
 284              	.LVL17:
 274:..\..\..\..\..\..\Software\uCOS-III\Source/os_tick.c **** 
 275:..\..\..\..\..\..\Software\uCOS-III\Source/os_tick.c ****     if (p_spoke->NbrEntries == (OS_OBJ_QTY)0u) {                 /* First entry in the spoke       
 285              		.loc 1 275 5 is_stmt 1 view .LVU73
 286              		.loc 1 275 16 is_stmt 0 view .LVU74
 287 0030 8388     		ldrh	r3, [r0, #4]
 288              		.loc 1 275 8 view .LVU75
 289 0032 002B     		cmp	r3, #0
 290 0034 3ED1     		bne	.L25
 276:..\..\..\..\..\..\Software\uCOS-III\Source/os_tick.c ****         p_tcb->TickNextPtr   = (OS_TCB   *)0;
 291              		.loc 1 276 9 is_stmt 1 view .LVU76
 292              		.loc 1 276 30 is_stmt 0 view .LVU77
 293 0036 6361     		str	r3, [r4, #20]
 277:..\..\..\..\..\..\Software\uCOS-III\Source/os_tick.c ****         p_tcb->TickPrevPtr   = (OS_TCB   *)0;
 294              		.loc 1 277 9 is_stmt 1 view .LVU78
 295              		.loc 1 277 30 is_stmt 0 view .LVU79
 296 0038 A361     		str	r3, [r4, #24]
 278:..\..\..\..\..\..\Software\uCOS-III\Source/os_tick.c ****         p_spoke->FirstPtr    =  p_tcb;
 297              		.loc 1 278 9 is_stmt 1 view .LVU80
 298              		.loc 1 278 30 is_stmt 0 view .LVU81
 299 003a 364B     		ldr	r3, .L39+8
 300 003c CA00     		lsls	r2, r1, #3
 301 003e D450     		str	r4, [r2, r3]
 279:..\..\..\..\..\..\Software\uCOS-III\Source/os_tick.c ****         p_spoke->NbrEntries  = (OS_OBJ_QTY)1u;
 302              		.loc 1 279 9 is_stmt 1 view .LVU82
 303              		.loc 1 279 30 is_stmt 0 view .LVU83
 304 0040 0122     		movs	r2, #1
 305 0042 8280     		strh	r2, [r0, #4]
 306              	.L26:
 280:..\..\..\..\..\..\Software\uCOS-III\Source/os_tick.c ****     } else {
 281:..\..\..\..\..\..\Software\uCOS-III\Source/os_tick.c ****         p_tcb1     = p_spoke->FirstPtr;                          /* Point to current first TCB in t
 282:..\..\..\..\..\..\Software\uCOS-III\Source/os_tick.c ****         while (p_tcb1 != (OS_TCB *)0) {
 283:..\..\..\..\..\..\Software\uCOS-III\Source/os_tick.c ****             p_tcb1->TickRemain = p_tcb1->TickCtrMatch            /* Compute time remaining of curre
 284:..\..\..\..\..\..\Software\uCOS-III\Source/os_tick.c ****                                - OSTickCtr;
 285:..\..\..\..\..\..\Software\uCOS-III\Source/os_tick.c ****             if (p_tcb->TickRemain > p_tcb1->TickRemain) {        /* Do we need to insert AFTER curr
 286:..\..\..\..\..\..\Software\uCOS-III\Source/os_tick.c ****                 if (p_tcb1->TickNextPtr != (OS_TCB *)0) {        /* Yes, are we pointing at the las
 287:..\..\..\..\..\..\Software\uCOS-III\Source/os_tick.c ****                     p_tcb1               =  p_tcb1->TickNextPtr; /* No,  Point to next TCB in the l
 288:..\..\..\..\..\..\Software\uCOS-III\Source/os_tick.c ****                 } else {
 289:..\..\..\..\..\..\Software\uCOS-III\Source/os_tick.c ****                     p_tcb->TickNextPtr   = (OS_TCB *)0;
 290:..\..\..\..\..\..\Software\uCOS-III\Source/os_tick.c ****                     p_tcb->TickPrevPtr   =  p_tcb1;
ARM GAS  C:\Users\EDULU~1.DES\AppData\Local\Temp\ccqOMtWj.s 			page 12


 291:..\..\..\..\..\..\Software\uCOS-III\Source/os_tick.c ****                     p_tcb1->TickNextPtr  =  p_tcb;               /* Yes, TCB to add is now new last
 292:..\..\..\..\..\..\Software\uCOS-III\Source/os_tick.c ****                     p_tcb1               = (OS_TCB *)0;          /* Break loop                     
 293:..\..\..\..\..\..\Software\uCOS-III\Source/os_tick.c ****                 }
 294:..\..\..\..\..\..\Software\uCOS-III\Source/os_tick.c ****             } else {                                             /* Insert before the current TCB  
 295:..\..\..\..\..\..\Software\uCOS-III\Source/os_tick.c ****                 if (p_tcb1->TickPrevPtr == (OS_TCB *)0) {        /* Are we inserting before the fir
 296:..\..\..\..\..\..\Software\uCOS-III\Source/os_tick.c ****                     p_tcb->TickPrevPtr   = (OS_TCB *)0;
 297:..\..\..\..\..\..\Software\uCOS-III\Source/os_tick.c ****                     p_tcb->TickNextPtr   =  p_tcb1;
 298:..\..\..\..\..\..\Software\uCOS-III\Source/os_tick.c ****                     p_tcb1->TickPrevPtr  =  p_tcb;
 299:..\..\..\..\..\..\Software\uCOS-III\Source/os_tick.c ****                     p_spoke->FirstPtr    =  p_tcb;
 300:..\..\..\..\..\..\Software\uCOS-III\Source/os_tick.c ****                 } else {                                         /* Insert in between 2 TCBs alread
 301:..\..\..\..\..\..\Software\uCOS-III\Source/os_tick.c ****                     p_tcb0               =  p_tcb1->TickPrevPtr;
 302:..\..\..\..\..\..\Software\uCOS-III\Source/os_tick.c ****                     p_tcb->TickPrevPtr   =  p_tcb0;
 303:..\..\..\..\..\..\Software\uCOS-III\Source/os_tick.c ****                     p_tcb->TickNextPtr   =  p_tcb1;
 304:..\..\..\..\..\..\Software\uCOS-III\Source/os_tick.c ****                     p_tcb0->TickNextPtr  =  p_tcb;
 305:..\..\..\..\..\..\Software\uCOS-III\Source/os_tick.c ****                     p_tcb1->TickPrevPtr  =  p_tcb;
 306:..\..\..\..\..\..\Software\uCOS-III\Source/os_tick.c ****                 }
 307:..\..\..\..\..\..\Software\uCOS-III\Source/os_tick.c ****                 p_tcb1 = (OS_TCB *)0;                            /* Break loop                     
 308:..\..\..\..\..\..\Software\uCOS-III\Source/os_tick.c ****             }
 309:..\..\..\..\..\..\Software\uCOS-III\Source/os_tick.c ****         }
 310:..\..\..\..\..\..\Software\uCOS-III\Source/os_tick.c ****         p_spoke->NbrEntries++;
 311:..\..\..\..\..\..\Software\uCOS-III\Source/os_tick.c ****     }
 312:..\..\..\..\..\..\Software\uCOS-III\Source/os_tick.c ****     if (p_spoke->NbrEntriesMax < p_spoke->NbrEntries) {          /* Keep track of maximum # of entr
 307              		.loc 1 312 5 is_stmt 1 view .LVU84
 308              		.loc 1 312 16 is_stmt 0 view .LVU85
 309 0044 CA00     		lsls	r2, r1, #3
 310 0046 334B     		ldr	r3, .L39+8
 311 0048 9B18     		adds	r3, r3, r2
 312 004a DA88     		ldrh	r2, [r3, #6]
 313              		.loc 1 312 41 view .LVU86
 314 004c 9B88     		ldrh	r3, [r3, #4]
 315              		.loc 1 312 8 view .LVU87
 316 004e 9A42     		cmp	r2, r3
 317 0050 03D2     		bcs	.L32
 313:..\..\..\..\..\..\Software\uCOS-III\Source/os_tick.c ****         p_spoke->NbrEntriesMax = p_spoke->NbrEntries;
 318              		.loc 1 313 9 is_stmt 1 view .LVU88
 319              		.loc 1 313 32 is_stmt 0 view .LVU89
 320 0052 C900     		lsls	r1, r1, #3
 321 0054 2F4A     		ldr	r2, .L39+8
 322 0056 5118     		adds	r1, r2, r1
 323 0058 CB80     		strh	r3, [r1, #6]
 324              	.L32:
 314:..\..\..\..\..\..\Software\uCOS-III\Source/os_tick.c ****     }
 315:..\..\..\..\..\..\Software\uCOS-III\Source/os_tick.c ****     p_tcb->TickSpokePtr = p_spoke;                               /* Link back to tick spoke        
 325              		.loc 1 315 5 is_stmt 1 view .LVU90
 326              		.loc 1 315 25 is_stmt 0 view .LVU91
 327 005a E061     		str	r0, [r4, #28]
 316:..\..\..\..\..\..\Software\uCOS-III\Source/os_tick.c ****    *p_err               = OS_ERR_NONE;
 328              		.loc 1 316 4 is_stmt 1 view .LVU92
 329              		.loc 1 316 25 is_stmt 0 view .LVU93
 330 005c 0023     		movs	r3, #0
 331 005e 2B80     		strh	r3, [r5]
 332              	.LVL18:
 333              	.L16:
 317:..\..\..\..\..\..\Software\uCOS-III\Source/os_tick.c **** }
 334              		.loc 1 317 1 view .LVU94
 335              		@ sp needed
 336              	.LVL19:
ARM GAS  C:\Users\EDULU~1.DES\AppData\Local\Temp\ccqOMtWj.s 			page 13


 337              	.LVL20:
 338              		.loc 1 317 1 view .LVU95
 339 0060 70BD     		pop	{r4, r5, r6, pc}
 340              	.LVL21:
 341              	.L34:
 235:..\..\..\..\..\..\Software\uCOS-III\Source/os_tick.c ****         if (tick_delta > OS_TICK_TH_RDY) {                       /* If delay already occurred, ... 
 342              		.loc 1 235 9 is_stmt 1 view .LVU96
 235:..\..\..\..\..\..\Software\uCOS-III\Source/os_tick.c ****         if (tick_delta > OS_TICK_TH_RDY) {                       /* If delay already occurred, ... 
 343              		.loc 1 235 27 is_stmt 0 view .LVU97
 344 0062 2A4B     		ldr	r3, .L39
 345              	.LVL22:
 235:..\..\..\..\..\..\Software\uCOS-III\Source/os_tick.c ****         if (tick_delta > OS_TICK_TH_RDY) {                       /* If delay already occurred, ... 
 346              		.loc 1 235 27 view .LVU98
 347 0064 1B68     		ldr	r3, [r3]
 348 0066 CB1A     		subs	r3, r1, r3
 235:..\..\..\..\..\..\Software\uCOS-III\Source/os_tick.c ****         if (tick_delta > OS_TICK_TH_RDY) {                       /* If delay already occurred, ... 
 349              		.loc 1 235 20 view .LVU99
 350 0068 581E     		subs	r0, r3, #1
 351              	.LVL23:
 236:..\..\..\..\..\..\Software\uCOS-III\Source/os_tick.c ****             p_tcb->TickCtrMatch = (OS_TICK        )0u;
 352              		.loc 1 236 9 is_stmt 1 view .LVU100
 236:..\..\..\..\..\..\Software\uCOS-III\Source/os_tick.c ****             p_tcb->TickCtrMatch = (OS_TICK        )0u;
 353              		.loc 1 236 12 is_stmt 0 view .LVU101
 354 006a 2B4A     		ldr	r2, .L39+12
 355              	.LVL24:
 236:..\..\..\..\..\..\Software\uCOS-III\Source/os_tick.c ****             p_tcb->TickCtrMatch = (OS_TICK        )0u;
 356              		.loc 1 236 12 view .LVU102
 357 006c 9042     		cmp	r0, r2
 358 006e 02D8     		bhi	.L36
 243:..\..\..\..\..\..\Software\uCOS-III\Source/os_tick.c ****         p_tcb->TickRemain   = tick_delta + 1u;
 359              		.loc 1 243 9 is_stmt 1 view .LVU103
 243:..\..\..\..\..\..\Software\uCOS-III\Source/os_tick.c ****         p_tcb->TickRemain   = tick_delta + 1u;
 360              		.loc 1 243 29 is_stmt 0 view .LVU104
 361 0070 E164     		str	r1, [r4, #76]
 244:..\..\..\..\..\..\Software\uCOS-III\Source/os_tick.c **** 
 362              		.loc 1 244 9 is_stmt 1 view .LVU105
 244:..\..\..\..\..\..\Software\uCOS-III\Source/os_tick.c **** 
 363              		.loc 1 244 29 is_stmt 0 view .LVU106
 364 0072 2365     		str	r3, [r4, #80]
 365 0074 D2E7     		b	.L20
 366              	.L36:
 237:..\..\..\..\..\..\Software\uCOS-III\Source/os_tick.c ****             p_tcb->TickRemain   = (OS_TICK        )0u;
 367              		.loc 1 237 13 is_stmt 1 view .LVU107
 237:..\..\..\..\..\..\Software\uCOS-III\Source/os_tick.c ****             p_tcb->TickRemain   = (OS_TICK        )0u;
 368              		.loc 1 237 33 is_stmt 0 view .LVU108
 369 0076 0023     		movs	r3, #0
 370 0078 E364     		str	r3, [r4, #76]
 238:..\..\..\..\..\..\Software\uCOS-III\Source/os_tick.c ****             p_tcb->TickSpokePtr = (OS_TICK_SPOKE *)0;
 371              		.loc 1 238 13 is_stmt 1 view .LVU109
 238:..\..\..\..\..\..\Software\uCOS-III\Source/os_tick.c ****             p_tcb->TickSpokePtr = (OS_TICK_SPOKE *)0;
 372              		.loc 1 238 33 is_stmt 0 view .LVU110
 373 007a 2365     		str	r3, [r4, #80]
 239:..\..\..\..\..\..\Software\uCOS-III\Source/os_tick.c ****            *p_err               =  OS_ERR_TIME_ZERO_DLY;         /* ... do NOT delay.              
 374              		.loc 1 239 13 is_stmt 1 view .LVU111
 239:..\..\..\..\..\..\Software\uCOS-III\Source/os_tick.c ****            *p_err               =  OS_ERR_TIME_ZERO_DLY;         /* ... do NOT delay.              
 375              		.loc 1 239 33 is_stmt 0 view .LVU112
 376 007c E361     		str	r3, [r4, #28]
ARM GAS  C:\Users\EDULU~1.DES\AppData\Local\Temp\ccqOMtWj.s 			page 14


 240:..\..\..\..\..\..\Software\uCOS-III\Source/os_tick.c ****             return;
 377              		.loc 1 240 12 is_stmt 1 view .LVU113
 240:..\..\..\..\..\..\Software\uCOS-III\Source/os_tick.c ****             return;
 378              		.loc 1 240 33 is_stmt 0 view .LVU114
 379 007e 274B     		ldr	r3, .L39+16
 380 0080 2B80     		strh	r3, [r5]
 241:..\..\..\..\..\..\Software\uCOS-III\Source/os_tick.c ****         }
 381              		.loc 1 241 13 is_stmt 1 view .LVU115
 382 0082 EDE7     		b	.L16
 383              	.LVL25:
 384              	.L35:
 248:..\..\..\..\..\..\Software\uCOS-III\Source/os_tick.c ****             tick_delta = tick_next - OSTickCtr - 1u;
 385              		.loc 1 248 13 view .LVU116
 248:..\..\..\..\..\..\Software\uCOS-III\Source/os_tick.c ****             tick_delta = tick_next - OSTickCtr - 1u;
 386              		.loc 1 248 24 is_stmt 0 view .LVU117
 387 0084 836C     		ldr	r3, [r0, #72]
 388              	.LVL26:
 248:..\..\..\..\..\..\Software\uCOS-III\Source/os_tick.c ****             tick_delta = tick_next - OSTickCtr - 1u;
 389              		.loc 1 248 24 view .LVU118
 390 0086 5A18     		adds	r2, r3, r1
 391              	.LVL27:
 249:..\..\..\..\..\..\Software\uCOS-III\Source/os_tick.c ****             if (tick_delta < time) {                             /* If next periodic delay did NOT 
 392              		.loc 1 249 13 is_stmt 1 view .LVU119
 249:..\..\..\..\..\..\Software\uCOS-III\Source/os_tick.c ****             if (tick_delta < time) {                             /* If next periodic delay did NOT 
 393              		.loc 1 249 36 is_stmt 0 view .LVU120
 394 0088 204B     		ldr	r3, .L39
 395 008a 1B68     		ldr	r3, [r3]
 396 008c D01A     		subs	r0, r2, r3
 397              	.LVL28:
 249:..\..\..\..\..\..\Software\uCOS-III\Source/os_tick.c ****             if (tick_delta < time) {                             /* If next periodic delay did NOT 
 398              		.loc 1 249 24 view .LVU121
 399 008e 0138     		subs	r0, r0, #1
 400              	.LVL29:
 250:..\..\..\..\..\..\Software\uCOS-III\Source/os_tick.c ****                 p_tcb->TickCtrMatch = tick_next;                 /* ... set  next  periodic delay; 
 401              		.loc 1 250 13 is_stmt 1 view .LVU122
 250:..\..\..\..\..\..\Software\uCOS-III\Source/os_tick.c ****                 p_tcb->TickCtrMatch = tick_next;                 /* ... set  next  periodic delay; 
 402              		.loc 1 250 16 is_stmt 0 view .LVU123
 403 0090 8142     		cmp	r1, r0
 404 0092 05D9     		bls	.L23
 251:..\..\..\..\..\..\Software\uCOS-III\Source/os_tick.c ****             } else {
 405              		.loc 1 251 17 is_stmt 1 view .LVU124
 251:..\..\..\..\..\..\Software\uCOS-III\Source/os_tick.c ****             } else {
 406              		.loc 1 251 37 is_stmt 0 view .LVU125
 407 0094 E264     		str	r2, [r4, #76]
 408              	.LVL30:
 409              	.L24:
 255:..\..\..\..\..\..\Software\uCOS-III\Source/os_tick.c ****             p_tcb->TickCtrPrev  = p_tcb->TickCtrMatch;
 410              		.loc 1 255 13 is_stmt 1 view .LVU126
 255:..\..\..\..\..\..\Software\uCOS-III\Source/os_tick.c ****             p_tcb->TickCtrPrev  = p_tcb->TickCtrMatch;
 411              		.loc 1 255 40 is_stmt 0 view .LVU127
 412 0096 E26C     		ldr	r2, [r4, #76]
 413              	.LVL31:
 255:..\..\..\..\..\..\Software\uCOS-III\Source/os_tick.c ****             p_tcb->TickCtrPrev  = p_tcb->TickCtrMatch;
 414              		.loc 1 255 55 view .LVU128
 415 0098 D31A     		subs	r3, r2, r3
 255:..\..\..\..\..\..\Software\uCOS-III\Source/os_tick.c ****             p_tcb->TickCtrPrev  = p_tcb->TickCtrMatch;
 416              		.loc 1 255 33 view .LVU129
ARM GAS  C:\Users\EDULU~1.DES\AppData\Local\Temp\ccqOMtWj.s 			page 15


 417 009a 2365     		str	r3, [r4, #80]
 256:..\..\..\..\..\..\Software\uCOS-III\Source/os_tick.c **** 
 418              		.loc 1 256 13 is_stmt 1 view .LVU130
 256:..\..\..\..\..\..\Software\uCOS-III\Source/os_tick.c **** 
 419              		.loc 1 256 33 is_stmt 0 view .LVU131
 420 009c A264     		str	r2, [r4, #72]
 421              	.LVL32:
 256:..\..\..\..\..\..\Software\uCOS-III\Source/os_tick.c **** 
 422              		.loc 1 256 33 view .LVU132
 423 009e BDE7     		b	.L20
 424              	.LVL33:
 425              	.L23:
 253:..\..\..\..\..\..\Software\uCOS-III\Source/os_tick.c ****             }
 426              		.loc 1 253 17 is_stmt 1 view .LVU133
 253:..\..\..\..\..\..\Software\uCOS-III\Source/os_tick.c ****             }
 427              		.loc 1 253 49 is_stmt 0 view .LVU134
 428 00a0 5918     		adds	r1, r3, r1
 429              	.LVL34:
 253:..\..\..\..\..\..\Software\uCOS-III\Source/os_tick.c ****             }
 430              		.loc 1 253 37 view .LVU135
 431 00a2 E164     		str	r1, [r4, #76]
 432 00a4 F7E7     		b	.L24
 433              	.LVL35:
 434              	.L21:
 264:..\..\..\..\..\..\Software\uCOS-III\Source/os_tick.c ****         p_tcb->TickRemain   = (OS_TICK        )0u;
 435              		.loc 1 264 9 is_stmt 1 view .LVU136
 264:..\..\..\..\..\..\Software\uCOS-III\Source/os_tick.c ****         p_tcb->TickRemain   = (OS_TICK        )0u;
 436              		.loc 1 264 29 is_stmt 0 view .LVU137
 437 00a6 0023     		movs	r3, #0
 438              	.LVL36:
 264:..\..\..\..\..\..\Software\uCOS-III\Source/os_tick.c ****         p_tcb->TickRemain   = (OS_TICK        )0u;
 439              		.loc 1 264 29 view .LVU138
 440 00a8 C364     		str	r3, [r0, #76]
 265:..\..\..\..\..\..\Software\uCOS-III\Source/os_tick.c ****         p_tcb->TickSpokePtr = (OS_TICK_SPOKE *)0;
 441              		.loc 1 265 9 is_stmt 1 view .LVU139
 265:..\..\..\..\..\..\Software\uCOS-III\Source/os_tick.c ****         p_tcb->TickSpokePtr = (OS_TICK_SPOKE *)0;
 442              		.loc 1 265 29 is_stmt 0 view .LVU140
 443 00aa 0365     		str	r3, [r0, #80]
 266:..\..\..\..\..\..\Software\uCOS-III\Source/os_tick.c ****        *p_err               =  OS_ERR_TIME_ZERO_DLY;             /* ... do NOT delay.              
 444              		.loc 1 266 9 is_stmt 1 view .LVU141
 266:..\..\..\..\..\..\Software\uCOS-III\Source/os_tick.c ****        *p_err               =  OS_ERR_TIME_ZERO_DLY;             /* ... do NOT delay.              
 445              		.loc 1 266 29 is_stmt 0 view .LVU142
 446 00ac C361     		str	r3, [r0, #28]
 267:..\..\..\..\..\..\Software\uCOS-III\Source/os_tick.c ****         return;
 447              		.loc 1 267 8 is_stmt 1 view .LVU143
 267:..\..\..\..\..\..\Software\uCOS-III\Source/os_tick.c ****         return;
 448              		.loc 1 267 29 is_stmt 0 view .LVU144
 449 00ae 1B4B     		ldr	r3, .L39+16
 450 00b0 2B80     		strh	r3, [r5]
 268:..\..\..\..\..\..\Software\uCOS-III\Source/os_tick.c ****     }
 451              		.loc 1 268 9 is_stmt 1 view .LVU145
 452 00b2 D5E7     		b	.L16
 453              	.LVL37:
 454              	.L25:
 281:..\..\..\..\..\..\Software\uCOS-III\Source/os_tick.c ****         while (p_tcb1 != (OS_TCB *)0) {
 455              		.loc 1 281 9 view .LVU146
 281:..\..\..\..\..\..\Software\uCOS-III\Source/os_tick.c ****         while (p_tcb1 != (OS_TCB *)0) {
ARM GAS  C:\Users\EDULU~1.DES\AppData\Local\Temp\ccqOMtWj.s 			page 16


 456              		.loc 1 281 20 is_stmt 0 view .LVU147
 457 00b4 CB00     		lsls	r3, r1, #3
 458 00b6 174A     		ldr	r2, .L39+8
 459 00b8 9B58     		ldr	r3, [r3, r2]
 460              	.LVL38:
 282:..\..\..\..\..\..\Software\uCOS-III\Source/os_tick.c ****             p_tcb1->TickRemain = p_tcb1->TickCtrMatch            /* Compute time remaining of curre
 461              		.loc 1 282 9 is_stmt 1 view .LVU148
 462              	.L27:
 282:..\..\..\..\..\..\Software\uCOS-III\Source/os_tick.c ****             p_tcb1->TickRemain = p_tcb1->TickCtrMatch            /* Compute time remaining of curre
 463              		.loc 1 282 15 is_stmt 0 view .LVU149
 464 00ba 002B     		cmp	r3, #0
 465 00bc 0FD0     		beq	.L29
 283:..\..\..\..\..\..\Software\uCOS-III\Source/os_tick.c ****                                - OSTickCtr;
 466              		.loc 1 283 13 is_stmt 1 view .LVU150
 284:..\..\..\..\..\..\Software\uCOS-III\Source/os_tick.c ****             if (p_tcb->TickRemain > p_tcb1->TickRemain) {        /* Do we need to insert AFTER curr
 467              		.loc 1 284 32 is_stmt 0 view .LVU151
 468 00be 134A     		ldr	r2, .L39
 469 00c0 1268     		ldr	r2, [r2]
 470 00c2 DE6C     		ldr	r6, [r3, #76]
 471 00c4 B21A     		subs	r2, r6, r2
 283:..\..\..\..\..\..\Software\uCOS-III\Source/os_tick.c ****                                - OSTickCtr;
 472              		.loc 1 283 32 view .LVU152
 473 00c6 1A65     		str	r2, [r3, #80]
 285:..\..\..\..\..\..\Software\uCOS-III\Source/os_tick.c ****                 if (p_tcb1->TickNextPtr != (OS_TCB *)0) {        /* Yes, are we pointing at the las
 474              		.loc 1 285 13 is_stmt 1 view .LVU153
 285:..\..\..\..\..\..\Software\uCOS-III\Source/os_tick.c ****                 if (p_tcb1->TickNextPtr != (OS_TCB *)0) {        /* Yes, are we pointing at the las
 475              		.loc 1 285 16 is_stmt 0 view .LVU154
 476 00c8 266D     		ldr	r6, [r4, #80]
 477 00ca B242     		cmp	r2, r6
 478 00cc 0ED2     		bcs	.L28
 286:..\..\..\..\..\..\Software\uCOS-III\Source/os_tick.c ****                     p_tcb1               =  p_tcb1->TickNextPtr; /* No,  Point to next TCB in the l
 479              		.loc 1 286 17 is_stmt 1 view .LVU155
 286:..\..\..\..\..\..\Software\uCOS-III\Source/os_tick.c ****                     p_tcb1               =  p_tcb1->TickNextPtr; /* No,  Point to next TCB in the l
 480              		.loc 1 286 27 is_stmt 0 view .LVU156
 481 00ce 5A69     		ldr	r2, [r3, #20]
 286:..\..\..\..\..\..\Software\uCOS-III\Source/os_tick.c ****                     p_tcb1               =  p_tcb1->TickNextPtr; /* No,  Point to next TCB in the l
 482              		.loc 1 286 20 view .LVU157
 483 00d0 002A     		cmp	r2, #0
 484 00d2 01D0     		beq	.L37
 287:..\..\..\..\..\..\Software\uCOS-III\Source/os_tick.c ****                 } else {
 485              		.loc 1 287 42 view .LVU158
 486 00d4 1300     		movs	r3, r2
 487              	.LVL39:
 287:..\..\..\..\..\..\Software\uCOS-III\Source/os_tick.c ****                 } else {
 488              		.loc 1 287 42 view .LVU159
 489 00d6 F0E7     		b	.L27
 490              	.LVL40:
 491              	.L37:
 289:..\..\..\..\..\..\Software\uCOS-III\Source/os_tick.c ****                     p_tcb->TickPrevPtr   =  p_tcb1;
 492              		.loc 1 289 21 is_stmt 1 view .LVU160
 289:..\..\..\..\..\..\Software\uCOS-III\Source/os_tick.c ****                     p_tcb->TickPrevPtr   =  p_tcb1;
 493              		.loc 1 289 42 is_stmt 0 view .LVU161
 494 00d8 6261     		str	r2, [r4, #20]
 290:..\..\..\..\..\..\Software\uCOS-III\Source/os_tick.c ****                     p_tcb1->TickNextPtr  =  p_tcb;               /* Yes, TCB to add is now new last
 495              		.loc 1 290 21 is_stmt 1 view .LVU162
 290:..\..\..\..\..\..\Software\uCOS-III\Source/os_tick.c ****                     p_tcb1->TickNextPtr  =  p_tcb;               /* Yes, TCB to add is now new last
 496              		.loc 1 290 42 is_stmt 0 view .LVU163
ARM GAS  C:\Users\EDULU~1.DES\AppData\Local\Temp\ccqOMtWj.s 			page 17


 497 00da A361     		str	r3, [r4, #24]
 291:..\..\..\..\..\..\Software\uCOS-III\Source/os_tick.c ****                     p_tcb1               = (OS_TCB *)0;          /* Break loop                     
 498              		.loc 1 291 21 is_stmt 1 view .LVU164
 291:..\..\..\..\..\..\Software\uCOS-III\Source/os_tick.c ****                     p_tcb1               = (OS_TCB *)0;          /* Break loop                     
 499              		.loc 1 291 42 is_stmt 0 view .LVU165
 500 00dc 5C61     		str	r4, [r3, #20]
 292:..\..\..\..\..\..\Software\uCOS-III\Source/os_tick.c ****                 }
 501              		.loc 1 292 21 is_stmt 1 view .LVU166
 502              	.LVL41:
 503              	.L29:
 310:..\..\..\..\..\..\Software\uCOS-III\Source/os_tick.c ****     }
 504              		.loc 1 310 9 view .LVU167
 310:..\..\..\..\..\..\Software\uCOS-III\Source/os_tick.c ****     }
 505              		.loc 1 310 16 is_stmt 0 view .LVU168
 506 00de CA00     		lsls	r2, r1, #3
 507 00e0 0C4B     		ldr	r3, .L39+8
 508 00e2 9B18     		adds	r3, r3, r2
 509 00e4 9A88     		ldrh	r2, [r3, #4]
 310:..\..\..\..\..\..\Software\uCOS-III\Source/os_tick.c ****     }
 510              		.loc 1 310 28 view .LVU169
 511 00e6 0132     		adds	r2, r2, #1
 512 00e8 9A80     		strh	r2, [r3, #4]
 513 00ea ABE7     		b	.L26
 514              	.LVL42:
 515              	.L28:
 295:..\..\..\..\..\..\Software\uCOS-III\Source/os_tick.c ****                     p_tcb->TickPrevPtr   = (OS_TCB *)0;
 516              		.loc 1 295 17 is_stmt 1 view .LVU170
 295:..\..\..\..\..\..\Software\uCOS-III\Source/os_tick.c ****                     p_tcb->TickPrevPtr   = (OS_TCB *)0;
 517              		.loc 1 295 27 is_stmt 0 view .LVU171
 518 00ec 9A69     		ldr	r2, [r3, #24]
 295:..\..\..\..\..\..\Software\uCOS-III\Source/os_tick.c ****                     p_tcb->TickPrevPtr   = (OS_TCB *)0;
 519              		.loc 1 295 20 view .LVU172
 520 00ee 002A     		cmp	r2, #0
 521 00f0 04D0     		beq	.L38
 301:..\..\..\..\..\..\Software\uCOS-III\Source/os_tick.c ****                     p_tcb->TickPrevPtr   =  p_tcb0;
 522              		.loc 1 301 21 is_stmt 1 view .LVU173
 523              	.LVL43:
 302:..\..\..\..\..\..\Software\uCOS-III\Source/os_tick.c ****                     p_tcb->TickNextPtr   =  p_tcb1;
 524              		.loc 1 302 21 view .LVU174
 302:..\..\..\..\..\..\Software\uCOS-III\Source/os_tick.c ****                     p_tcb->TickNextPtr   =  p_tcb1;
 525              		.loc 1 302 42 is_stmt 0 view .LVU175
 526 00f2 A261     		str	r2, [r4, #24]
 303:..\..\..\..\..\..\Software\uCOS-III\Source/os_tick.c ****                     p_tcb0->TickNextPtr  =  p_tcb;
 527              		.loc 1 303 21 is_stmt 1 view .LVU176
 303:..\..\..\..\..\..\Software\uCOS-III\Source/os_tick.c ****                     p_tcb0->TickNextPtr  =  p_tcb;
 528              		.loc 1 303 42 is_stmt 0 view .LVU177
 529 00f4 6361     		str	r3, [r4, #20]
 304:..\..\..\..\..\..\Software\uCOS-III\Source/os_tick.c ****                     p_tcb1->TickPrevPtr  =  p_tcb;
 530              		.loc 1 304 21 is_stmt 1 view .LVU178
 304:..\..\..\..\..\..\Software\uCOS-III\Source/os_tick.c ****                     p_tcb1->TickPrevPtr  =  p_tcb;
 531              		.loc 1 304 42 is_stmt 0 view .LVU179
 532 00f6 5461     		str	r4, [r2, #20]
 305:..\..\..\..\..\..\Software\uCOS-III\Source/os_tick.c ****                 }
 533              		.loc 1 305 21 is_stmt 1 view .LVU180
 305:..\..\..\..\..\..\Software\uCOS-III\Source/os_tick.c ****                 }
 534              		.loc 1 305 42 is_stmt 0 view .LVU181
 535 00f8 9C61     		str	r4, [r3, #24]
ARM GAS  C:\Users\EDULU~1.DES\AppData\Local\Temp\ccqOMtWj.s 			page 18


 536 00fa F0E7     		b	.L29
 537              	.LVL44:
 538              	.L38:
 296:..\..\..\..\..\..\Software\uCOS-III\Source/os_tick.c ****                     p_tcb->TickNextPtr   =  p_tcb1;
 539              		.loc 1 296 21 is_stmt 1 view .LVU182
 296:..\..\..\..\..\..\Software\uCOS-III\Source/os_tick.c ****                     p_tcb->TickNextPtr   =  p_tcb1;
 540              		.loc 1 296 42 is_stmt 0 view .LVU183
 541 00fc A261     		str	r2, [r4, #24]
 297:..\..\..\..\..\..\Software\uCOS-III\Source/os_tick.c ****                     p_tcb1->TickPrevPtr  =  p_tcb;
 542              		.loc 1 297 21 is_stmt 1 view .LVU184
 297:..\..\..\..\..\..\Software\uCOS-III\Source/os_tick.c ****                     p_tcb1->TickPrevPtr  =  p_tcb;
 543              		.loc 1 297 42 is_stmt 0 view .LVU185
 544 00fe 6361     		str	r3, [r4, #20]
 298:..\..\..\..\..\..\Software\uCOS-III\Source/os_tick.c ****                     p_spoke->FirstPtr    =  p_tcb;
 545              		.loc 1 298 21 is_stmt 1 view .LVU186
 298:..\..\..\..\..\..\Software\uCOS-III\Source/os_tick.c ****                     p_spoke->FirstPtr    =  p_tcb;
 546              		.loc 1 298 42 is_stmt 0 view .LVU187
 547 0100 9C61     		str	r4, [r3, #24]
 299:..\..\..\..\..\..\Software\uCOS-III\Source/os_tick.c ****                 } else {                                         /* Insert in between 2 TCBs alread
 548              		.loc 1 299 21 is_stmt 1 view .LVU188
 299:..\..\..\..\..\..\Software\uCOS-III\Source/os_tick.c ****                 } else {                                         /* Insert in between 2 TCBs alread
 549              		.loc 1 299 42 is_stmt 0 view .LVU189
 550 0102 CB00     		lsls	r3, r1, #3
 551              	.LVL45:
 299:..\..\..\..\..\..\Software\uCOS-III\Source/os_tick.c ****                 } else {                                         /* Insert in between 2 TCBs alread
 552              		.loc 1 299 42 view .LVU190
 553 0104 034A     		ldr	r2, .L39+8
 554 0106 9C50     		str	r4, [r3, r2]
 555 0108 E9E7     		b	.L29
 556              	.L40:
 557 010a C046     		.align	2
 558              	.L39:
 559 010c 00000000 		.word	OSTickCtr
 560 0110 00000000 		.word	OSCfg_TickWheelSize
 561 0114 00000000 		.word	OSCfg_TickWheel
 562 0118 0000FFFF 		.word	-65536
 563 011c 7E720000 		.word	29310
 564              		.cfi_endproc
 565              	.LFE6:
 566              		.size	OS_TickListInsert, .-OS_TickListInsert
 567              		.section	.text.OS_TickListRemove,"ax",%progbits
 568              		.align	1
 569              		.global	OS_TickListRemove
 570              		.syntax unified
 571              		.code	16
 572              		.thumb_func
 573              		.fpu softvfp
 574              		.type	OS_TickListRemove, %function
 575              	OS_TickListRemove:
 576              	.LVL46:
 577              	.LFB7:
 318:..\..\..\..\..\..\Software\uCOS-III\Source/os_tick.c **** 
 319:..\..\..\..\..\..\Software\uCOS-III\Source/os_tick.c **** /*$PAGE*/
 320:..\..\..\..\..\..\Software\uCOS-III\Source/os_tick.c **** /*
 321:..\..\..\..\..\..\Software\uCOS-III\Source/os_tick.c **** ***************************************************************************************************
 322:..\..\..\..\..\..\Software\uCOS-III\Source/os_tick.c **** *                                         REMOVE A TASK FROM THE TICK LIST
 323:..\..\..\..\..\..\Software\uCOS-III\Source/os_tick.c **** *
ARM GAS  C:\Users\EDULU~1.DES\AppData\Local\Temp\ccqOMtWj.s 			page 19


 324:..\..\..\..\..\..\Software\uCOS-III\Source/os_tick.c **** * Description: This function is called to remove a task from the tick list
 325:..\..\..\..\..\..\Software\uCOS-III\Source/os_tick.c **** *
 326:..\..\..\..\..\..\Software\uCOS-III\Source/os_tick.c **** * Arguments  : p_tcb          Is a pointer to the OS_TCB to remove.
 327:..\..\..\..\..\..\Software\uCOS-III\Source/os_tick.c **** *              -----
 328:..\..\..\..\..\..\Software\uCOS-III\Source/os_tick.c **** *
 329:..\..\..\..\..\..\Software\uCOS-III\Source/os_tick.c **** * Returns    : none
 330:..\..\..\..\..\..\Software\uCOS-III\Source/os_tick.c **** *
 331:..\..\..\..\..\..\Software\uCOS-III\Source/os_tick.c **** * Note(s)    : 1) This function is INTERNAL to uC/OS-III and your application MUST NOT call it.
 332:..\..\..\..\..\..\Software\uCOS-III\Source/os_tick.c **** *
 333:..\..\..\..\..\..\Software\uCOS-III\Source/os_tick.c **** *              2) This function is assumed to be called with interrupts disabled.
 334:..\..\..\..\..\..\Software\uCOS-III\Source/os_tick.c **** ***************************************************************************************************
 335:..\..\..\..\..\..\Software\uCOS-III\Source/os_tick.c **** */
 336:..\..\..\..\..\..\Software\uCOS-III\Source/os_tick.c **** 
 337:..\..\..\..\..\..\Software\uCOS-III\Source/os_tick.c **** void  OS_TickListRemove (OS_TCB  *p_tcb)
 338:..\..\..\..\..\..\Software\uCOS-III\Source/os_tick.c **** {
 578              		.loc 1 338 1 is_stmt 1 view -0
 579              		.cfi_startproc
 580              		@ args = 0, pretend = 0, frame = 0
 581              		@ frame_needed = 0, uses_anonymous_args = 0
 582              		@ link register save eliminated.
 339:..\..\..\..\..\..\Software\uCOS-III\Source/os_tick.c ****     OS_TICK_SPOKE  *p_spoke;
 583              		.loc 1 339 5 view .LVU192
 340:..\..\..\..\..\..\Software\uCOS-III\Source/os_tick.c ****     OS_TCB         *p_tcb1;
 584              		.loc 1 340 5 view .LVU193
 341:..\..\..\..\..\..\Software\uCOS-III\Source/os_tick.c ****     OS_TCB         *p_tcb2;
 585              		.loc 1 341 5 view .LVU194
 342:..\..\..\..\..\..\Software\uCOS-III\Source/os_tick.c **** 
 343:..\..\..\..\..\..\Software\uCOS-III\Source/os_tick.c **** 
 344:..\..\..\..\..\..\Software\uCOS-III\Source/os_tick.c **** 
 345:..\..\..\..\..\..\Software\uCOS-III\Source/os_tick.c ****     p_spoke = p_tcb->TickSpokePtr;
 586              		.loc 1 345 5 view .LVU195
 587              		.loc 1 345 13 is_stmt 0 view .LVU196
 588 0000 C369     		ldr	r3, [r0, #28]
 589              	.LVL47:
 346:..\..\..\..\..\..\Software\uCOS-III\Source/os_tick.c ****     if (p_spoke != (OS_TICK_SPOKE *)0) {                              /* Confirm that task is in ti
 590              		.loc 1 346 5 is_stmt 1 view .LVU197
 591              		.loc 1 346 8 is_stmt 0 view .LVU198
 592 0002 002B     		cmp	r3, #0
 593 0004 12D0     		beq	.L41
 347:..\..\..\..\..\..\Software\uCOS-III\Source/os_tick.c ****         p_tcb->TickRemain = (OS_TICK)0u;
 594              		.loc 1 347 9 is_stmt 1 view .LVU199
 595              		.loc 1 347 27 is_stmt 0 view .LVU200
 596 0006 0022     		movs	r2, #0
 597 0008 0265     		str	r2, [r0, #80]
 348:..\..\..\..\..\..\Software\uCOS-III\Source/os_tick.c ****         if (p_spoke->FirstPtr == p_tcb) {                             /* Is timer to remove at the 
 598              		.loc 1 348 9 is_stmt 1 view .LVU201
 599              		.loc 1 348 12 is_stmt 0 view .LVU202
 600 000a 1A68     		ldr	r2, [r3]
 601 000c 8242     		cmp	r2, r0
 602 000e 0ED0     		beq	.L45
 349:..\..\..\..\..\..\Software\uCOS-III\Source/os_tick.c ****             p_tcb1            = (OS_TCB *)p_tcb->TickNextPtr;         /* Yes                       
 350:..\..\..\..\..\..\Software\uCOS-III\Source/os_tick.c ****             p_spoke->FirstPtr = p_tcb1;
 351:..\..\..\..\..\..\Software\uCOS-III\Source/os_tick.c ****             if (p_tcb1 != (OS_TCB *)0) {
 352:..\..\..\..\..\..\Software\uCOS-III\Source/os_tick.c ****                 p_tcb1->TickPrevPtr = (OS_TCB *)0;
 353:..\..\..\..\..\..\Software\uCOS-III\Source/os_tick.c ****             }
 354:..\..\..\..\..\..\Software\uCOS-III\Source/os_tick.c ****         } else {
 355:..\..\..\..\..\..\Software\uCOS-III\Source/os_tick.c ****             p_tcb1              = p_tcb->TickPrevPtr;                 /* No, remove timer from some
ARM GAS  C:\Users\EDULU~1.DES\AppData\Local\Temp\ccqOMtWj.s 			page 20


 603              		.loc 1 355 13 is_stmt 1 view .LVU203
 604              		.loc 1 355 33 is_stmt 0 view .LVU204
 605 0010 8169     		ldr	r1, [r0, #24]
 606              	.LVL48:
 356:..\..\..\..\..\..\Software\uCOS-III\Source/os_tick.c ****             p_tcb2              = p_tcb->TickNextPtr;
 607              		.loc 1 356 13 is_stmt 1 view .LVU205
 608              		.loc 1 356 33 is_stmt 0 view .LVU206
 609 0012 4269     		ldr	r2, [r0, #20]
 610              	.LVL49:
 357:..\..\..\..\..\..\Software\uCOS-III\Source/os_tick.c ****             p_tcb1->TickNextPtr = p_tcb2;
 611              		.loc 1 357 13 is_stmt 1 view .LVU207
 612              		.loc 1 357 33 is_stmt 0 view .LVU208
 613 0014 4A61     		str	r2, [r1, #20]
 358:..\..\..\..\..\..\Software\uCOS-III\Source/os_tick.c ****             if (p_tcb2 != (OS_TCB *)0) {
 614              		.loc 1 358 13 is_stmt 1 view .LVU209
 615              		.loc 1 358 16 is_stmt 0 view .LVU210
 616 0016 002A     		cmp	r2, #0
 617 0018 00D0     		beq	.L44
 359:..\..\..\..\..\..\Software\uCOS-III\Source/os_tick.c ****                 p_tcb2->TickPrevPtr = p_tcb1;
 618              		.loc 1 359 17 is_stmt 1 view .LVU211
 619              		.loc 1 359 37 is_stmt 0 view .LVU212
 620 001a 9161     		str	r1, [r2, #24]
 621              	.LVL50:
 622              	.L44:
 360:..\..\..\..\..\..\Software\uCOS-III\Source/os_tick.c ****             }
 361:..\..\..\..\..\..\Software\uCOS-III\Source/os_tick.c ****         }
 362:..\..\..\..\..\..\Software\uCOS-III\Source/os_tick.c ****         p_tcb->TickNextPtr  = (OS_TCB        *)0;
 623              		.loc 1 362 9 is_stmt 1 view .LVU213
 624              		.loc 1 362 29 is_stmt 0 view .LVU214
 625 001c 0022     		movs	r2, #0
 626 001e 4261     		str	r2, [r0, #20]
 363:..\..\..\..\..\..\Software\uCOS-III\Source/os_tick.c ****         p_tcb->TickPrevPtr  = (OS_TCB        *)0;
 627              		.loc 1 363 9 is_stmt 1 view .LVU215
 628              		.loc 1 363 29 is_stmt 0 view .LVU216
 629 0020 8261     		str	r2, [r0, #24]
 364:..\..\..\..\..\..\Software\uCOS-III\Source/os_tick.c ****         p_tcb->TickSpokePtr = (OS_TICK_SPOKE *)0;
 630              		.loc 1 364 9 is_stmt 1 view .LVU217
 631              		.loc 1 364 29 is_stmt 0 view .LVU218
 632 0022 C261     		str	r2, [r0, #28]
 365:..\..\..\..\..\..\Software\uCOS-III\Source/os_tick.c ****         p_tcb->TickCtrMatch = (OS_TICK        )0u;
 633              		.loc 1 365 9 is_stmt 1 view .LVU219
 634              		.loc 1 365 29 is_stmt 0 view .LVU220
 635 0024 C264     		str	r2, [r0, #76]
 366:..\..\..\..\..\..\Software\uCOS-III\Source/os_tick.c ****         p_spoke->NbrEntries--;
 636              		.loc 1 366 9 is_stmt 1 view .LVU221
 637              		.loc 1 366 16 is_stmt 0 view .LVU222
 638 0026 9A88     		ldrh	r2, [r3, #4]
 639              		.loc 1 366 28 view .LVU223
 640 0028 013A     		subs	r2, r2, #1
 641 002a 9A80     		strh	r2, [r3, #4]
 642              	.L41:
 367:..\..\..\..\..\..\Software\uCOS-III\Source/os_tick.c ****     }
 368:..\..\..\..\..\..\Software\uCOS-III\Source/os_tick.c **** }
 643              		.loc 1 368 1 view .LVU224
 644              		@ sp needed
 645 002c 7047     		bx	lr
 646              	.L45:
ARM GAS  C:\Users\EDULU~1.DES\AppData\Local\Temp\ccqOMtWj.s 			page 21


 349:..\..\..\..\..\..\Software\uCOS-III\Source/os_tick.c ****             p_spoke->FirstPtr = p_tcb1;
 647              		.loc 1 349 13 is_stmt 1 view .LVU225
 349:..\..\..\..\..\..\Software\uCOS-III\Source/os_tick.c ****             p_spoke->FirstPtr = p_tcb1;
 648              		.loc 1 349 31 is_stmt 0 view .LVU226
 649 002e 4269     		ldr	r2, [r0, #20]
 650              	.LVL51:
 350:..\..\..\..\..\..\Software\uCOS-III\Source/os_tick.c ****             if (p_tcb1 != (OS_TCB *)0) {
 651              		.loc 1 350 13 is_stmt 1 view .LVU227
 350:..\..\..\..\..\..\Software\uCOS-III\Source/os_tick.c ****             if (p_tcb1 != (OS_TCB *)0) {
 652              		.loc 1 350 31 is_stmt 0 view .LVU228
 653 0030 1A60     		str	r2, [r3]
 351:..\..\..\..\..\..\Software\uCOS-III\Source/os_tick.c ****                 p_tcb1->TickPrevPtr = (OS_TCB *)0;
 654              		.loc 1 351 13 is_stmt 1 view .LVU229
 351:..\..\..\..\..\..\Software\uCOS-III\Source/os_tick.c ****                 p_tcb1->TickPrevPtr = (OS_TCB *)0;
 655              		.loc 1 351 16 is_stmt 0 view .LVU230
 656 0032 002A     		cmp	r2, #0
 657 0034 F2D0     		beq	.L44
 352:..\..\..\..\..\..\Software\uCOS-III\Source/os_tick.c ****             }
 658              		.loc 1 352 17 is_stmt 1 view .LVU231
 352:..\..\..\..\..\..\Software\uCOS-III\Source/os_tick.c ****             }
 659              		.loc 1 352 37 is_stmt 0 view .LVU232
 660 0036 0021     		movs	r1, #0
 661 0038 9161     		str	r1, [r2, #24]
 662 003a EFE7     		b	.L44
 663              		.cfi_endproc
 664              	.LFE7:
 665              		.size	OS_TickListRemove, .-OS_TickListRemove
 666              		.section	.text.OS_TickListResetPeak,"ax",%progbits
 667              		.align	1
 668              		.global	OS_TickListResetPeak
 669              		.syntax unified
 670              		.code	16
 671              		.thumb_func
 672              		.fpu softvfp
 673              		.type	OS_TickListResetPeak, %function
 674              	OS_TickListResetPeak:
 675              	.LFB8:
 369:..\..\..\..\..\..\Software\uCOS-III\Source/os_tick.c **** 
 370:..\..\..\..\..\..\Software\uCOS-III\Source/os_tick.c **** /*$PAGE*/
 371:..\..\..\..\..\..\Software\uCOS-III\Source/os_tick.c **** /*
 372:..\..\..\..\..\..\Software\uCOS-III\Source/os_tick.c **** ***************************************************************************************************
 373:..\..\..\..\..\..\Software\uCOS-III\Source/os_tick.c **** *                                              RESET TICK LIST PEAK DETECTOR
 374:..\..\..\..\..\..\Software\uCOS-III\Source/os_tick.c **** *
 375:..\..\..\..\..\..\Software\uCOS-III\Source/os_tick.c **** * Description: This function is used to reset the peak detector for the number of entries in each s
 376:..\..\..\..\..\..\Software\uCOS-III\Source/os_tick.c **** *
 377:..\..\..\..\..\..\Software\uCOS-III\Source/os_tick.c **** * Arguments  : void
 378:..\..\..\..\..\..\Software\uCOS-III\Source/os_tick.c **** *
 379:..\..\..\..\..\..\Software\uCOS-III\Source/os_tick.c **** * Returns    : none
 380:..\..\..\..\..\..\Software\uCOS-III\Source/os_tick.c **** *
 381:..\..\..\..\..\..\Software\uCOS-III\Source/os_tick.c **** * Note(s)    : This function is INTERNAL to uC/OS-III and your application should not call it.
 382:..\..\..\..\..\..\Software\uCOS-III\Source/os_tick.c **** ***************************************************************************************************
 383:..\..\..\..\..\..\Software\uCOS-III\Source/os_tick.c **** */
 384:..\..\..\..\..\..\Software\uCOS-III\Source/os_tick.c **** 
 385:..\..\..\..\..\..\Software\uCOS-III\Source/os_tick.c **** 
 386:..\..\..\..\..\..\Software\uCOS-III\Source/os_tick.c **** void  OS_TickListResetPeak (void)
 387:..\..\..\..\..\..\Software\uCOS-III\Source/os_tick.c **** {
 676              		.loc 1 387 1 is_stmt 1 view -0
ARM GAS  C:\Users\EDULU~1.DES\AppData\Local\Temp\ccqOMtWj.s 			page 22


 677              		.cfi_startproc
 678              		@ args = 0, pretend = 0, frame = 0
 679              		@ frame_needed = 0, uses_anonymous_args = 0
 680              		@ link register save eliminated.
 388:..\..\..\..\..\..\Software\uCOS-III\Source/os_tick.c ****     OS_TICK_SPOKE_IX   i;
 681              		.loc 1 388 5 view .LVU234
 389:..\..\..\..\..\..\Software\uCOS-III\Source/os_tick.c ****     OS_TICK_SPOKE     *p_spoke;
 682              		.loc 1 389 5 view .LVU235
 390:..\..\..\..\..\..\Software\uCOS-III\Source/os_tick.c **** 
 391:..\..\..\..\..\..\Software\uCOS-III\Source/os_tick.c **** 
 392:..\..\..\..\..\..\Software\uCOS-III\Source/os_tick.c **** 
 393:..\..\..\..\..\..\Software\uCOS-III\Source/os_tick.c ****     for (i = 0u; i < OSCfg_TickWheelSize; i++) {
 683              		.loc 1 393 5 view .LVU236
 684              	.LVL52:
 685              		.loc 1 393 12 is_stmt 0 view .LVU237
 686 0000 0023     		movs	r3, #0
 687              	.LVL53:
 688              	.L47:
 689              		.loc 1 393 20 discriminator 1 view .LVU238
 690 0002 064A     		ldr	r2, .L50
 691 0004 1288     		ldrh	r2, [r2]
 692              		.loc 1 393 5 discriminator 1 view .LVU239
 693 0006 9A42     		cmp	r2, r3
 694 0008 07D9     		bls	.L49
 394:..\..\..\..\..\..\Software\uCOS-III\Source/os_tick.c ****         p_spoke                = (OS_TICK_SPOKE *)&OSCfg_TickWheel[i];
 695              		.loc 1 394 9 is_stmt 1 discriminator 3 view .LVU240
 696              	.LVL54:
 395:..\..\..\..\..\..\Software\uCOS-III\Source/os_tick.c ****         p_spoke->NbrEntriesMax = (OS_OBJ_QTY     )0u;
 697              		.loc 1 395 9 discriminator 3 view .LVU241
 698              		.loc 1 395 32 is_stmt 0 discriminator 3 view .LVU242
 699 000a D900     		lsls	r1, r3, #3
 700 000c 044A     		ldr	r2, .L50+4
 701 000e 5218     		adds	r2, r2, r1
 702              	.LVL55:
 703              		.loc 1 395 32 discriminator 3 view .LVU243
 704 0010 0021     		movs	r1, #0
 705 0012 D180     		strh	r1, [r2, #6]
 393:..\..\..\..\..\..\Software\uCOS-III\Source/os_tick.c ****         p_spoke                = (OS_TICK_SPOKE *)&OSCfg_TickWheel[i];
 706              		.loc 1 393 44 discriminator 3 view .LVU244
 707 0014 0133     		adds	r3, r3, #1
 708              	.LVL56:
 393:..\..\..\..\..\..\Software\uCOS-III\Source/os_tick.c ****         p_spoke                = (OS_TICK_SPOKE *)&OSCfg_TickWheel[i];
 709              		.loc 1 393 44 discriminator 3 view .LVU245
 710 0016 9BB2     		uxth	r3, r3
 711              	.LVL57:
 393:..\..\..\..\..\..\Software\uCOS-III\Source/os_tick.c ****         p_spoke                = (OS_TICK_SPOKE *)&OSCfg_TickWheel[i];
 712              		.loc 1 393 44 discriminator 3 view .LVU246
 713 0018 F3E7     		b	.L47
 714              	.LVL58:
 715              	.L49:
 396:..\..\..\..\..\..\Software\uCOS-III\Source/os_tick.c ****     }
 397:..\..\..\..\..\..\Software\uCOS-III\Source/os_tick.c **** }
 716              		.loc 1 397 1 view .LVU247
 717              		@ sp needed
 718 001a 7047     		bx	lr
 719              	.L51:
 720              		.align	2
ARM GAS  C:\Users\EDULU~1.DES\AppData\Local\Temp\ccqOMtWj.s 			page 23


 721              	.L50:
 722 001c 00000000 		.word	OSCfg_TickWheelSize
 723 0020 00000000 		.word	OSCfg_TickWheel
 724              		.cfi_endproc
 725              	.LFE8:
 726              		.size	OS_TickListResetPeak, .-OS_TickListResetPeak
 727              		.section	.text.OS_TickListUpdate,"ax",%progbits
 728              		.align	1
 729              		.global	OS_TickListUpdate
 730              		.syntax unified
 731              		.code	16
 732              		.thumb_func
 733              		.fpu softvfp
 734              		.type	OS_TickListUpdate, %function
 735              	OS_TickListUpdate:
 736              	.LFB9:
 398:..\..\..\..\..\..\Software\uCOS-III\Source/os_tick.c **** 
 399:..\..\..\..\..\..\Software\uCOS-III\Source/os_tick.c **** /*$PAGE*/
 400:..\..\..\..\..\..\Software\uCOS-III\Source/os_tick.c **** /*
 401:..\..\..\..\..\..\Software\uCOS-III\Source/os_tick.c **** ***************************************************************************************************
 402:..\..\..\..\..\..\Software\uCOS-III\Source/os_tick.c **** *                                                UPDATE THE TICK LIST
 403:..\..\..\..\..\..\Software\uCOS-III\Source/os_tick.c **** *
 404:..\..\..\..\..\..\Software\uCOS-III\Source/os_tick.c **** * Description: This function is called when a tick occurs and determines if the timeout waiting for
 405:..\..\..\..\..\..\Software\uCOS-III\Source/os_tick.c **** *              expired or a delay has expired.
 406:..\..\..\..\..\..\Software\uCOS-III\Source/os_tick.c **** *
 407:..\..\..\..\..\..\Software\uCOS-III\Source/os_tick.c **** * Arguments  : non
 408:..\..\..\..\..\..\Software\uCOS-III\Source/os_tick.c **** *
 409:..\..\..\..\..\..\Software\uCOS-III\Source/os_tick.c **** * Returns    : none
 410:..\..\..\..\..\..\Software\uCOS-III\Source/os_tick.c **** *
 411:..\..\..\..\..\..\Software\uCOS-III\Source/os_tick.c **** * Note(s)    : 1) This function is INTERNAL to uC/OS-III and your application MUST NOT call it.
 412:..\..\..\..\..\..\Software\uCOS-III\Source/os_tick.c **** ***************************************************************************************************
 413:..\..\..\..\..\..\Software\uCOS-III\Source/os_tick.c **** */
 414:..\..\..\..\..\..\Software\uCOS-III\Source/os_tick.c **** 
 415:..\..\..\..\..\..\Software\uCOS-III\Source/os_tick.c **** void  OS_TickListUpdate (void)
 416:..\..\..\..\..\..\Software\uCOS-III\Source/os_tick.c **** {
 737              		.loc 1 416 1 is_stmt 1 view -0
 738              		.cfi_startproc
 739              		@ args = 0, pretend = 0, frame = 0
 740              		@ frame_needed = 0, uses_anonymous_args = 0
 741 0000 F8B5     		push	{r3, r4, r5, r6, r7, lr}
 742              		.cfi_def_cfa_offset 24
 743              		.cfi_offset 3, -24
 744              		.cfi_offset 4, -20
 745              		.cfi_offset 5, -16
 746              		.cfi_offset 6, -12
 747              		.cfi_offset 7, -8
 748              		.cfi_offset 14, -4
 417:..\..\..\..\..\..\Software\uCOS-III\Source/os_tick.c ****     CPU_BOOLEAN        done;
 749              		.loc 1 417 5 view .LVU249
 418:..\..\..\..\..\..\Software\uCOS-III\Source/os_tick.c ****     OS_TICK_SPOKE     *p_spoke;
 750              		.loc 1 418 5 view .LVU250
 419:..\..\..\..\..\..\Software\uCOS-III\Source/os_tick.c ****     OS_TCB            *p_tcb;
 751              		.loc 1 419 5 view .LVU251
 420:..\..\..\..\..\..\Software\uCOS-III\Source/os_tick.c ****     OS_TCB            *p_tcb_next;
 752              		.loc 1 420 5 view .LVU252
 421:..\..\..\..\..\..\Software\uCOS-III\Source/os_tick.c ****     OS_TICK_SPOKE_IX   spoke;
 753              		.loc 1 421 5 view .LVU253
ARM GAS  C:\Users\EDULU~1.DES\AppData\Local\Temp\ccqOMtWj.s 			page 24


 422:..\..\..\..\..\..\Software\uCOS-III\Source/os_tick.c ****     CPU_TS             ts_start;
 754              		.loc 1 422 5 view .LVU254
 423:..\..\..\..\..\..\Software\uCOS-III\Source/os_tick.c ****     CPU_TS             ts_end;
 755              		.loc 1 423 5 view .LVU255
 424:..\..\..\..\..\..\Software\uCOS-III\Source/os_tick.c ****     CPU_SR_ALLOC();
 756              		.loc 1 424 5 view .LVU256
 757              	.LVL59:
 425:..\..\..\..\..\..\Software\uCOS-III\Source/os_tick.c **** 
 426:..\..\..\..\..\..\Software\uCOS-III\Source/os_tick.c **** 
 427:..\..\..\..\..\..\Software\uCOS-III\Source/os_tick.c ****     OS_CRITICAL_ENTER();
 758              		.loc 1 427 5 view .LVU257
 759              		.loc 1 427 5 view .LVU258
 760              		.loc 1 427 5 view .LVU259
 761 0002 FFF7FEFF 		bl	CPU_SR_Save
 762              	.LVL60:
 763 0006 0500     		movs	r5, r0
 764              	.LVL61:
 765              		.loc 1 427 5 view .LVU260
 766 0008 FFF7FEFF 		bl	CPU_IntDisMeasStart
 767              	.LVL62:
 428:..\..\..\..\..\..\Software\uCOS-III\Source/os_tick.c ****     ts_start = OS_TS_GET();
 768              		.loc 1 428 5 view .LVU261
 769              		.loc 1 428 16 is_stmt 0 view .LVU262
 770 000c FFF7FEFF 		bl	CPU_TS_TmrRd
 771              	.LVL63:
 772 0010 0700     		movs	r7, r0
 773              	.LVL64:
 429:..\..\..\..\..\..\Software\uCOS-III\Source/os_tick.c ****     OSTickCtr++;                                                       /* Keep track of the number 
 774              		.loc 1 429 5 is_stmt 1 view .LVU263
 775              		.loc 1 429 14 is_stmt 0 view .LVU264
 776 0012 3C4B     		ldr	r3, .L64
 777 0014 1A68     		ldr	r2, [r3]
 778 0016 501C     		adds	r0, r2, #1
 779              	.LVL65:
 780              		.loc 1 429 14 view .LVU265
 781 0018 1860     		str	r0, [r3]
 430:..\..\..\..\..\..\Software\uCOS-III\Source/os_tick.c ****     spoke    = (OS_TICK_SPOKE_IX)(OSTickCtr % OSCfg_TickWheelSize);
 782              		.loc 1 430 5 is_stmt 1 view .LVU266
 783              		.loc 1 430 45 is_stmt 0 view .LVU267
 784 001a 3B4B     		ldr	r3, .L64+4
 785 001c 1988     		ldrh	r1, [r3]
 786 001e FFF7FEFF 		bl	__aeabi_uidivmod
 787              	.LVL66:
 431:..\..\..\..\..\..\Software\uCOS-III\Source/os_tick.c ****     p_spoke  = &OSCfg_TickWheel[spoke];
 788              		.loc 1 431 5 is_stmt 1 view .LVU268
 789              		.loc 1 431 32 is_stmt 0 view .LVU269
 790 0022 0904     		lsls	r1, r1, #16
 791              	.LVL67:
 432:..\..\..\..\..\..\Software\uCOS-III\Source/os_tick.c ****     p_tcb    = p_spoke->FirstPtr;
 792              		.loc 1 432 5 is_stmt 1 view .LVU270
 793              		.loc 1 432 14 is_stmt 0 view .LVU271
 794 0024 490B     		lsrs	r1, r1, #13
 795              	.LVL68:
 796              		.loc 1 432 14 view .LVU272
 797 0026 394B     		ldr	r3, .L64+8
 798 0028 CC58     		ldr	r4, [r1, r3]
 799              	.LVL69:
ARM GAS  C:\Users\EDULU~1.DES\AppData\Local\Temp\ccqOMtWj.s 			page 25


 433:..\..\..\..\..\..\Software\uCOS-III\Source/os_tick.c ****     done     = DEF_FALSE;
 800              		.loc 1 433 5 is_stmt 1 view .LVU273
 434:..\..\..\..\..\..\Software\uCOS-III\Source/os_tick.c ****     while (done == DEF_FALSE) {
 801              		.loc 1 434 5 view .LVU274
 802              		.loc 1 434 11 is_stmt 0 view .LVU275
 803 002a 0FE0     		b	.L53
 804              	.LVL70:
 805              	.L63:
 435:..\..\..\..\..\..\Software\uCOS-III\Source/os_tick.c ****         if (p_tcb != (OS_TCB *)0) {
 436:..\..\..\..\..\..\Software\uCOS-III\Source/os_tick.c ****             p_tcb_next = p_tcb->TickNextPtr;                           /* Point to next TCB to upda
 437:..\..\..\..\..\..\Software\uCOS-III\Source/os_tick.c ****             switch (p_tcb->TaskState) {
 806              		.loc 1 437 13 view .LVU276
 807 002c 012B     		cmp	r3, #1
 808 002e 0CD1     		bne	.L57
 438:..\..\..\..\..\..\Software\uCOS-III\Source/os_tick.c ****                 case OS_TASK_STATE_RDY:
 439:..\..\..\..\..\..\Software\uCOS-III\Source/os_tick.c ****                 case OS_TASK_STATE_PEND:
 440:..\..\..\..\..\..\Software\uCOS-III\Source/os_tick.c ****                 case OS_TASK_STATE_SUSPENDED:
 441:..\..\..\..\..\..\Software\uCOS-III\Source/os_tick.c ****                 case OS_TASK_STATE_PEND_SUSPENDED:
 442:..\..\..\..\..\..\Software\uCOS-III\Source/os_tick.c ****                      break;
 443:..\..\..\..\..\..\Software\uCOS-III\Source/os_tick.c **** 
 444:..\..\..\..\..\..\Software\uCOS-III\Source/os_tick.c ****                 case OS_TASK_STATE_DLY:
 445:..\..\..\..\..\..\Software\uCOS-III\Source/os_tick.c ****                      p_tcb->TickRemain = p_tcb->TickCtrMatch           /* Compute time remaining of
 809              		.loc 1 445 22 is_stmt 1 view .LVU277
 810              		.loc 1 445 47 is_stmt 0 view .LVU278
 811 0030 E26C     		ldr	r2, [r4, #76]
 446:..\..\..\..\..\..\Software\uCOS-III\Source/os_tick.c ****                                        - OSTickCtr;
 812              		.loc 1 446 40 view .LVU279
 813 0032 344B     		ldr	r3, .L64
 814 0034 1B68     		ldr	r3, [r3]
 815 0036 D11A     		subs	r1, r2, r3
 445:..\..\..\..\..\..\Software\uCOS-III\Source/os_tick.c ****                                        - OSTickCtr;
 816              		.loc 1 445 40 view .LVU280
 817 0038 2165     		str	r1, [r4, #80]
 447:..\..\..\..\..\..\Software\uCOS-III\Source/os_tick.c ****                      if (OSTickCtr == p_tcb->TickCtrMatch) {           /* Process each TCB that exp
 818              		.loc 1 447 22 is_stmt 1 view .LVU281
 819              		.loc 1 447 25 is_stmt 0 view .LVU282
 820 003a 9A42     		cmp	r2, r3
 821 003c 53D1     		bne	.L60
 448:..\..\..\..\..\..\Software\uCOS-III\Source/os_tick.c ****                          p_tcb->TaskState = OS_TASK_STATE_RDY;
 822              		.loc 1 448 26 is_stmt 1 view .LVU283
 823              		.loc 1 448 43 is_stmt 0 view .LVU284
 824 003e 3623     		movs	r3, #54
 825 0040 0022     		movs	r2, #0
 826 0042 E254     		strb	r2, [r4, r3]
 449:..\..\..\..\..\..\Software\uCOS-III\Source/os_tick.c ****                          OS_TaskRdy(p_tcb);                            /* Make task ready to run   
 827              		.loc 1 449 26 is_stmt 1 view .LVU285
 828 0044 2000     		movs	r0, r4
 829 0046 FFF7FEFF 		bl	OS_TaskRdy
 830              	.LVL71:
 831              	.L57:
 416:..\..\..\..\..\..\Software\uCOS-III\Source/os_tick.c ****     CPU_BOOLEAN        done;
 832              		.loc 1 416 1 is_stmt 0 view .LVU286
 833 004a 3400     		movs	r4, r6
 834              	.LVL72:
 835              	.L53:
 435:..\..\..\..\..\..\Software\uCOS-III\Source/os_tick.c ****             p_tcb_next = p_tcb->TickNextPtr;                           /* Point to next TCB to upda
 836              		.loc 1 435 9 is_stmt 1 view .LVU287
ARM GAS  C:\Users\EDULU~1.DES\AppData\Local\Temp\ccqOMtWj.s 			page 26


 435:..\..\..\..\..\..\Software\uCOS-III\Source/os_tick.c ****             p_tcb_next = p_tcb->TickNextPtr;                           /* Point to next TCB to upda
 837              		.loc 1 435 12 is_stmt 0 view .LVU288
 838 004c 002C     		cmp	r4, #0
 839 004e 4AD0     		beq	.L60
 436:..\..\..\..\..\..\Software\uCOS-III\Source/os_tick.c ****             switch (p_tcb->TaskState) {
 840              		.loc 1 436 13 is_stmt 1 view .LVU289
 436:..\..\..\..\..\..\Software\uCOS-III\Source/os_tick.c ****             switch (p_tcb->TaskState) {
 841              		.loc 1 436 24 is_stmt 0 view .LVU290
 842 0050 6669     		ldr	r6, [r4, #20]
 843              	.LVL73:
 437:..\..\..\..\..\..\Software\uCOS-III\Source/os_tick.c ****                 case OS_TASK_STATE_RDY:
 844              		.loc 1 437 13 is_stmt 1 view .LVU291
 437:..\..\..\..\..\..\Software\uCOS-III\Source/os_tick.c ****                 case OS_TASK_STATE_RDY:
 845              		.loc 1 437 26 is_stmt 0 view .LVU292
 846 0052 3623     		movs	r3, #54
 847 0054 E35C     		ldrb	r3, [r4, r3]
 437:..\..\..\..\..\..\Software\uCOS-III\Source/os_tick.c ****                 case OS_TASK_STATE_RDY:
 848              		.loc 1 437 13 view .LVU293
 849 0056 032B     		cmp	r3, #3
 850 0058 1ED0     		beq	.L54
 851 005a E7D9     		bls	.L63
 852 005c 052B     		cmp	r3, #5
 853 005e 34D0     		beq	.L58
 854 0060 072B     		cmp	r3, #7
 855 0062 F2D1     		bne	.L57
 450:..\..\..\..\..\..\Software\uCOS-III\Source/os_tick.c ****                      } else {
 451:..\..\..\..\..\..\Software\uCOS-III\Source/os_tick.c ****                          done             = DEF_TRUE;                  /* Don't find a match, we're
 452:..\..\..\..\..\..\Software\uCOS-III\Source/os_tick.c ****                      }
 453:..\..\..\..\..\..\Software\uCOS-III\Source/os_tick.c ****                      break;
 454:..\..\..\..\..\..\Software\uCOS-III\Source/os_tick.c **** 
 455:..\..\..\..\..\..\Software\uCOS-III\Source/os_tick.c ****                 case OS_TASK_STATE_PEND_TIMEOUT:
 456:..\..\..\..\..\..\Software\uCOS-III\Source/os_tick.c ****                      p_tcb->TickRemain = p_tcb->TickCtrMatch           /* Compute time remaining of
 457:..\..\..\..\..\..\Software\uCOS-III\Source/os_tick.c ****                                        - OSTickCtr;
 458:..\..\..\..\..\..\Software\uCOS-III\Source/os_tick.c ****                      if (OSTickCtr == p_tcb->TickCtrMatch) {           /* Process each TCB that exp
 459:..\..\..\..\..\..\Software\uCOS-III\Source/os_tick.c **** #if (OS_MSG_EN > 0u)
 460:..\..\..\..\..\..\Software\uCOS-III\Source/os_tick.c ****                          p_tcb->MsgPtr     = (void      *)0;
 461:..\..\..\..\..\..\Software\uCOS-III\Source/os_tick.c ****                          p_tcb->MsgSize    = (OS_MSG_SIZE)0u;
 462:..\..\..\..\..\..\Software\uCOS-III\Source/os_tick.c **** #endif
 463:..\..\..\..\..\..\Software\uCOS-III\Source/os_tick.c ****                          p_tcb->TS         = OS_TS_GET();
 464:..\..\..\..\..\..\Software\uCOS-III\Source/os_tick.c ****                          OS_PendListRemove(p_tcb);                     /* Remove from wait list    
 465:..\..\..\..\..\..\Software\uCOS-III\Source/os_tick.c ****                          OS_TaskRdy(p_tcb);
 466:..\..\..\..\..\..\Software\uCOS-III\Source/os_tick.c ****                          p_tcb->TaskState  = OS_TASK_STATE_RDY;
 467:..\..\..\..\..\..\Software\uCOS-III\Source/os_tick.c ****                          p_tcb->PendStatus = OS_STATUS_PEND_TIMEOUT;   /* Indicate pend timed out  
 468:..\..\..\..\..\..\Software\uCOS-III\Source/os_tick.c ****                          p_tcb->PendOn     = OS_TASK_PEND_ON_NOTHING;  /* Indicate no longer pendin
 469:..\..\..\..\..\..\Software\uCOS-III\Source/os_tick.c ****                      } else {
 470:..\..\..\..\..\..\Software\uCOS-III\Source/os_tick.c ****                          done              = DEF_TRUE;                 /* Don't find a match, we're
 471:..\..\..\..\..\..\Software\uCOS-III\Source/os_tick.c ****                      }
 472:..\..\..\..\..\..\Software\uCOS-III\Source/os_tick.c ****                      break;
 473:..\..\..\..\..\..\Software\uCOS-III\Source/os_tick.c **** 
 474:..\..\..\..\..\..\Software\uCOS-III\Source/os_tick.c ****                 case OS_TASK_STATE_DLY_SUSPENDED:
 475:..\..\..\..\..\..\Software\uCOS-III\Source/os_tick.c ****                      p_tcb->TickRemain = p_tcb->TickCtrMatch           /* Compute time remaining of
 476:..\..\..\..\..\..\Software\uCOS-III\Source/os_tick.c ****                                        - OSTickCtr;
 477:..\..\..\..\..\..\Software\uCOS-III\Source/os_tick.c ****                      if (OSTickCtr == p_tcb->TickCtrMatch) {           /* Process each TCB that exp
 478:..\..\..\..\..\..\Software\uCOS-III\Source/os_tick.c ****                          p_tcb->TaskState  = OS_TASK_STATE_SUSPENDED;
 479:..\..\..\..\..\..\Software\uCOS-III\Source/os_tick.c ****                          OS_TickListRemove(p_tcb);                     /* Remove from current wheel
 480:..\..\..\..\..\..\Software\uCOS-III\Source/os_tick.c ****                      } else {
 481:..\..\..\..\..\..\Software\uCOS-III\Source/os_tick.c ****                          done              = DEF_TRUE;                 /* Don't find a match, we're
ARM GAS  C:\Users\EDULU~1.DES\AppData\Local\Temp\ccqOMtWj.s 			page 27


 482:..\..\..\..\..\..\Software\uCOS-III\Source/os_tick.c ****                      }
 483:..\..\..\..\..\..\Software\uCOS-III\Source/os_tick.c ****                      break;
 484:..\..\..\..\..\..\Software\uCOS-III\Source/os_tick.c **** 
 485:..\..\..\..\..\..\Software\uCOS-III\Source/os_tick.c ****                 case OS_TASK_STATE_PEND_TIMEOUT_SUSPENDED:
 486:..\..\..\..\..\..\Software\uCOS-III\Source/os_tick.c ****                      p_tcb->TickRemain = p_tcb->TickCtrMatch           /* Compute time remaining of
 856              		.loc 1 486 22 is_stmt 1 view .LVU294
 857              		.loc 1 486 47 is_stmt 0 view .LVU295
 858 0064 E26C     		ldr	r2, [r4, #76]
 487:..\..\..\..\..\..\Software\uCOS-III\Source/os_tick.c ****                                        - OSTickCtr;
 859              		.loc 1 487 40 view .LVU296
 860 0066 274B     		ldr	r3, .L64
 861 0068 1B68     		ldr	r3, [r3]
 862 006a D11A     		subs	r1, r2, r3
 486:..\..\..\..\..\..\Software\uCOS-III\Source/os_tick.c ****                                        - OSTickCtr;
 863              		.loc 1 486 40 view .LVU297
 864 006c 2165     		str	r1, [r4, #80]
 488:..\..\..\..\..\..\Software\uCOS-III\Source/os_tick.c ****                      if (OSTickCtr == p_tcb->TickCtrMatch) {           /* Process each TCB that exp
 865              		.loc 1 488 22 is_stmt 1 view .LVU298
 866              		.loc 1 488 25 is_stmt 0 view .LVU299
 867 006e 9A42     		cmp	r2, r3
 868 0070 39D1     		bne	.L60
 489:..\..\..\..\..\..\Software\uCOS-III\Source/os_tick.c **** #if (OS_MSG_EN > 0u)
 490:..\..\..\..\..\..\Software\uCOS-III\Source/os_tick.c ****                          p_tcb->MsgPtr     = (void      *)0;
 491:..\..\..\..\..\..\Software\uCOS-III\Source/os_tick.c ****                          p_tcb->MsgSize    = (OS_MSG_SIZE)0u;
 492:..\..\..\..\..\..\Software\uCOS-III\Source/os_tick.c **** #endif
 493:..\..\..\..\..\..\Software\uCOS-III\Source/os_tick.c ****                          p_tcb->TS         = OS_TS_GET();
 869              		.loc 1 493 26 is_stmt 1 view .LVU300
 870              		.loc 1 493 46 is_stmt 0 view .LVU301
 871 0072 FFF7FEFF 		bl	CPU_TS_TmrRd
 872              	.LVL74:
 873              		.loc 1 493 44 view .LVU302
 874 0076 2064     		str	r0, [r4, #64]
 494:..\..\..\..\..\..\Software\uCOS-III\Source/os_tick.c ****                          OS_PendListRemove(p_tcb);                     /* Remove from wait list    
 875              		.loc 1 494 26 is_stmt 1 view .LVU303
 876 0078 2000     		movs	r0, r4
 877 007a FFF7FEFF 		bl	OS_PendListRemove
 878              	.LVL75:
 495:..\..\..\..\..\..\Software\uCOS-III\Source/os_tick.c ****                          OS_TickListRemove(p_tcb);                     /* Remove from current wheel
 879              		.loc 1 495 26 view .LVU304
 880 007e 2000     		movs	r0, r4
 881 0080 FFF7FEFF 		bl	OS_TickListRemove
 882              	.LVL76:
 496:..\..\..\..\..\..\Software\uCOS-III\Source/os_tick.c ****                          p_tcb->TaskState  = OS_TASK_STATE_SUSPENDED;
 883              		.loc 1 496 26 view .LVU305
 884              		.loc 1 496 44 is_stmt 0 view .LVU306
 885 0084 3623     		movs	r3, #54
 886 0086 0422     		movs	r2, #4
 887 0088 E254     		strb	r2, [r4, r3]
 497:..\..\..\..\..\..\Software\uCOS-III\Source/os_tick.c ****                          p_tcb->PendStatus = OS_STATUS_PEND_TIMEOUT;   /* Indicate pend timed out  
 888              		.loc 1 497 26 is_stmt 1 view .LVU307
 889              		.loc 1 497 44 is_stmt 0 view .LVU308
 890 008a 013B     		subs	r3, r3, #1
 891 008c 013A     		subs	r2, r2, #1
 892 008e E254     		strb	r2, [r4, r3]
 498:..\..\..\..\..\..\Software\uCOS-III\Source/os_tick.c ****                          p_tcb->PendOn     = OS_TASK_PEND_ON_NOTHING;  /* Indicate no longer pendin
 893              		.loc 1 498 26 is_stmt 1 view .LVU309
 894              		.loc 1 498 44 is_stmt 0 view .LVU310
ARM GAS  C:\Users\EDULU~1.DES\AppData\Local\Temp\ccqOMtWj.s 			page 28


 895 0090 013B     		subs	r3, r3, #1
 896 0092 0022     		movs	r2, #0
 897 0094 E254     		strb	r2, [r4, r3]
 898 0096 D8E7     		b	.L57
 899              	.L54:
 456:..\..\..\..\..\..\Software\uCOS-III\Source/os_tick.c ****                                        - OSTickCtr;
 900              		.loc 1 456 22 is_stmt 1 view .LVU311
 456:..\..\..\..\..\..\Software\uCOS-III\Source/os_tick.c ****                                        - OSTickCtr;
 901              		.loc 1 456 47 is_stmt 0 view .LVU312
 902 0098 E26C     		ldr	r2, [r4, #76]
 457:..\..\..\..\..\..\Software\uCOS-III\Source/os_tick.c ****                      if (OSTickCtr == p_tcb->TickCtrMatch) {           /* Process each TCB that exp
 903              		.loc 1 457 40 view .LVU313
 904 009a 1A4B     		ldr	r3, .L64
 905 009c 1B68     		ldr	r3, [r3]
 906 009e D11A     		subs	r1, r2, r3
 456:..\..\..\..\..\..\Software\uCOS-III\Source/os_tick.c ****                                        - OSTickCtr;
 907              		.loc 1 456 40 view .LVU314
 908 00a0 2165     		str	r1, [r4, #80]
 458:..\..\..\..\..\..\Software\uCOS-III\Source/os_tick.c **** #if (OS_MSG_EN > 0u)
 909              		.loc 1 458 22 is_stmt 1 view .LVU315
 458:..\..\..\..\..\..\Software\uCOS-III\Source/os_tick.c **** #if (OS_MSG_EN > 0u)
 910              		.loc 1 458 25 is_stmt 0 view .LVU316
 911 00a2 9A42     		cmp	r2, r3
 912 00a4 1FD1     		bne	.L60
 463:..\..\..\..\..\..\Software\uCOS-III\Source/os_tick.c ****                          OS_PendListRemove(p_tcb);                     /* Remove from wait list    
 913              		.loc 1 463 26 is_stmt 1 view .LVU317
 463:..\..\..\..\..\..\Software\uCOS-III\Source/os_tick.c ****                          OS_PendListRemove(p_tcb);                     /* Remove from wait list    
 914              		.loc 1 463 46 is_stmt 0 view .LVU318
 915 00a6 FFF7FEFF 		bl	CPU_TS_TmrRd
 916              	.LVL77:
 463:..\..\..\..\..\..\Software\uCOS-III\Source/os_tick.c ****                          OS_PendListRemove(p_tcb);                     /* Remove from wait list    
 917              		.loc 1 463 44 view .LVU319
 918 00aa 2064     		str	r0, [r4, #64]
 464:..\..\..\..\..\..\Software\uCOS-III\Source/os_tick.c ****                          OS_TaskRdy(p_tcb);
 919              		.loc 1 464 26 is_stmt 1 view .LVU320
 920 00ac 2000     		movs	r0, r4
 921 00ae FFF7FEFF 		bl	OS_PendListRemove
 922              	.LVL78:
 465:..\..\..\..\..\..\Software\uCOS-III\Source/os_tick.c ****                          p_tcb->TaskState  = OS_TASK_STATE_RDY;
 923              		.loc 1 465 26 view .LVU321
 924 00b2 2000     		movs	r0, r4
 925 00b4 FFF7FEFF 		bl	OS_TaskRdy
 926              	.LVL79:
 466:..\..\..\..\..\..\Software\uCOS-III\Source/os_tick.c ****                          p_tcb->PendStatus = OS_STATUS_PEND_TIMEOUT;   /* Indicate pend timed out  
 927              		.loc 1 466 26 view .LVU322
 466:..\..\..\..\..\..\Software\uCOS-III\Source/os_tick.c ****                          p_tcb->PendStatus = OS_STATUS_PEND_TIMEOUT;   /* Indicate pend timed out  
 928              		.loc 1 466 44 is_stmt 0 view .LVU323
 929 00b8 0023     		movs	r3, #0
 930 00ba 3622     		movs	r2, #54
 931 00bc A354     		strb	r3, [r4, r2]
 467:..\..\..\..\..\..\Software\uCOS-III\Source/os_tick.c ****                          p_tcb->PendOn     = OS_TASK_PEND_ON_NOTHING;  /* Indicate no longer pendin
 932              		.loc 1 467 26 is_stmt 1 view .LVU324
 467:..\..\..\..\..\..\Software\uCOS-III\Source/os_tick.c ****                          p_tcb->PendOn     = OS_TASK_PEND_ON_NOTHING;  /* Indicate no longer pendin
 933              		.loc 1 467 44 is_stmt 0 view .LVU325
 934 00be 013A     		subs	r2, r2, #1
 935 00c0 0321     		movs	r1, #3
 936 00c2 A154     		strb	r1, [r4, r2]
ARM GAS  C:\Users\EDULU~1.DES\AppData\Local\Temp\ccqOMtWj.s 			page 29


 468:..\..\..\..\..\..\Software\uCOS-III\Source/os_tick.c ****                      } else {
 937              		.loc 1 468 26 is_stmt 1 view .LVU326
 468:..\..\..\..\..\..\Software\uCOS-III\Source/os_tick.c ****                      } else {
 938              		.loc 1 468 44 is_stmt 0 view .LVU327
 939 00c4 013A     		subs	r2, r2, #1
 940 00c6 A354     		strb	r3, [r4, r2]
 941 00c8 BFE7     		b	.L57
 942              	.L58:
 475:..\..\..\..\..\..\Software\uCOS-III\Source/os_tick.c ****                                        - OSTickCtr;
 943              		.loc 1 475 22 is_stmt 1 view .LVU328
 475:..\..\..\..\..\..\Software\uCOS-III\Source/os_tick.c ****                                        - OSTickCtr;
 944              		.loc 1 475 47 is_stmt 0 view .LVU329
 945 00ca E26C     		ldr	r2, [r4, #76]
 476:..\..\..\..\..\..\Software\uCOS-III\Source/os_tick.c ****                      if (OSTickCtr == p_tcb->TickCtrMatch) {           /* Process each TCB that exp
 946              		.loc 1 476 40 view .LVU330
 947 00cc 0D4B     		ldr	r3, .L64
 948 00ce 1B68     		ldr	r3, [r3]
 949 00d0 D11A     		subs	r1, r2, r3
 475:..\..\..\..\..\..\Software\uCOS-III\Source/os_tick.c ****                                        - OSTickCtr;
 950              		.loc 1 475 40 view .LVU331
 951 00d2 2165     		str	r1, [r4, #80]
 477:..\..\..\..\..\..\Software\uCOS-III\Source/os_tick.c ****                          p_tcb->TaskState  = OS_TASK_STATE_SUSPENDED;
 952              		.loc 1 477 22 is_stmt 1 view .LVU332
 477:..\..\..\..\..\..\Software\uCOS-III\Source/os_tick.c ****                          p_tcb->TaskState  = OS_TASK_STATE_SUSPENDED;
 953              		.loc 1 477 25 is_stmt 0 view .LVU333
 954 00d4 9A42     		cmp	r2, r3
 955 00d6 06D1     		bne	.L60
 478:..\..\..\..\..\..\Software\uCOS-III\Source/os_tick.c ****                          OS_TickListRemove(p_tcb);                     /* Remove from current wheel
 956              		.loc 1 478 26 is_stmt 1 view .LVU334
 478:..\..\..\..\..\..\Software\uCOS-III\Source/os_tick.c ****                          OS_TickListRemove(p_tcb);                     /* Remove from current wheel
 957              		.loc 1 478 44 is_stmt 0 view .LVU335
 958 00d8 3623     		movs	r3, #54
 959 00da 0422     		movs	r2, #4
 960 00dc E254     		strb	r2, [r4, r3]
 479:..\..\..\..\..\..\Software\uCOS-III\Source/os_tick.c ****                      } else {
 961              		.loc 1 479 26 is_stmt 1 view .LVU336
 962 00de 2000     		movs	r0, r4
 963 00e0 FFF7FEFF 		bl	OS_TickListRemove
 964              	.LVL80:
 965 00e4 B1E7     		b	.L57
 966              	.LVL81:
 967              	.L60:
 499:..\..\..\..\..\..\Software\uCOS-III\Source/os_tick.c ****                      } else {
 500:..\..\..\..\..\..\Software\uCOS-III\Source/os_tick.c ****                          done              = DEF_TRUE;                 /* Don't find a match, we're
 501:..\..\..\..\..\..\Software\uCOS-III\Source/os_tick.c ****                      }
 502:..\..\..\..\..\..\Software\uCOS-III\Source/os_tick.c ****                      break;
 503:..\..\..\..\..\..\Software\uCOS-III\Source/os_tick.c **** 
 504:..\..\..\..\..\..\Software\uCOS-III\Source/os_tick.c ****                 default:
 505:..\..\..\..\..\..\Software\uCOS-III\Source/os_tick.c ****                      break;
 506:..\..\..\..\..\..\Software\uCOS-III\Source/os_tick.c ****             }
 507:..\..\..\..\..\..\Software\uCOS-III\Source/os_tick.c ****             p_tcb = p_tcb_next;
 508:..\..\..\..\..\..\Software\uCOS-III\Source/os_tick.c ****         } else {
 509:..\..\..\..\..\..\Software\uCOS-III\Source/os_tick.c ****             done  = DEF_TRUE;
 510:..\..\..\..\..\..\Software\uCOS-III\Source/os_tick.c ****         }
 511:..\..\..\..\..\..\Software\uCOS-III\Source/os_tick.c ****     }
 512:..\..\..\..\..\..\Software\uCOS-III\Source/os_tick.c ****     ts_end = OS_TS_GET() - ts_start;                                   /* Measure execution time of
 968              		.loc 1 512 5 view .LVU337
ARM GAS  C:\Users\EDULU~1.DES\AppData\Local\Temp\ccqOMtWj.s 			page 30


 969              		.loc 1 512 14 is_stmt 0 view .LVU338
 970 00e6 FFF7FEFF 		bl	CPU_TS_TmrRd
 971              	.LVL82:
 972              		.loc 1 512 12 view .LVU339
 973 00ea C71B     		subs	r7, r0, r7
 974              	.LVL83:
 513:..\..\..\..\..\..\Software\uCOS-III\Source/os_tick.c ****     if (OSTickTaskTimeMax < ts_end) {
 975              		.loc 1 513 5 is_stmt 1 view .LVU340
 976              		.loc 1 513 27 is_stmt 0 view .LVU341
 977 00ec 084B     		ldr	r3, .L64+12
 978 00ee 1B68     		ldr	r3, [r3]
 979              		.loc 1 513 8 view .LVU342
 980 00f0 BB42     		cmp	r3, r7
 981 00f2 01D2     		bcs	.L62
 514:..\..\..\..\..\..\Software\uCOS-III\Source/os_tick.c ****         OSTickTaskTimeMax = ts_end;
 982              		.loc 1 514 9 is_stmt 1 view .LVU343
 983              		.loc 1 514 27 is_stmt 0 view .LVU344
 984 00f4 064B     		ldr	r3, .L64+12
 985 00f6 1F60     		str	r7, [r3]
 986              	.L62:
 515:..\..\..\..\..\..\Software\uCOS-III\Source/os_tick.c ****     }
 516:..\..\..\..\..\..\Software\uCOS-III\Source/os_tick.c ****     OS_CRITICAL_EXIT();
 987              		.loc 1 516 5 is_stmt 1 view .LVU345
 988              		.loc 1 516 5 view .LVU346
 989 00f8 FFF7FEFF 		bl	CPU_IntDisMeasStop
 990              	.LVL84:
 991              		.loc 1 516 5 view .LVU347
 992              		.loc 1 516 5 view .LVU348
 993 00fc 2800     		movs	r0, r5
 994 00fe FFF7FEFF 		bl	CPU_SR_Restore
 995              	.LVL85:
 517:..\..\..\..\..\..\Software\uCOS-III\Source/os_tick.c **** }
 996              		.loc 1 517 1 is_stmt 0 view .LVU349
 997              		@ sp needed
 998              	.LVL86:
 999              	.LVL87:
 1000              	.LVL88:
 1001              		.loc 1 517 1 view .LVU350
 1002 0102 F8BD     		pop	{r3, r4, r5, r6, r7, pc}
 1003              	.L65:
 1004              		.align	2
 1005              	.L64:
 1006 0104 00000000 		.word	OSTickCtr
 1007 0108 00000000 		.word	OSCfg_TickWheelSize
 1008 010c 00000000 		.word	OSCfg_TickWheel
 1009 0110 00000000 		.word	OSTickTaskTimeMax
 1010              		.cfi_endproc
 1011              	.LFE9:
 1012              		.size	OS_TickListUpdate, .-OS_TickListUpdate
 1013              		.section	.text.OS_TickTask,"ax",%progbits
 1014              		.align	1
 1015              		.global	OS_TickTask
 1016              		.syntax unified
 1017              		.code	16
 1018              		.thumb_func
 1019              		.fpu softvfp
 1020              		.type	OS_TickTask, %function
ARM GAS  C:\Users\EDULU~1.DES\AppData\Local\Temp\ccqOMtWj.s 			page 31


 1021              	OS_TickTask:
 1022              	.LFB3:
  62:..\..\..\..\..\..\Software\uCOS-III\Source/os_tick.c ****     OS_ERR  err;
 1023              		.loc 1 62 1 is_stmt 1 view -0
 1024              		.cfi_startproc
 1025              		@ Volatile: function does not return.
 1026              		@ args = 0, pretend = 0, frame = 8
 1027              		@ frame_needed = 0, uses_anonymous_args = 0
 1028              	.LVL89:
  62:..\..\..\..\..\..\Software\uCOS-III\Source/os_tick.c ****     OS_ERR  err;
 1029              		.loc 1 62 1 is_stmt 0 view .LVU352
 1030 0000 10B5     		push	{r4, lr}
 1031              		.cfi_def_cfa_offset 8
 1032              		.cfi_offset 4, -8
 1033              		.cfi_offset 14, -4
 1034 0002 82B0     		sub	sp, sp, #8
 1035              		.cfi_def_cfa_offset 16
 1036 0004 01E0     		b	.L67
 1037              	.LVL90:
 1038              	.L69:
  76:..\..\..\..\..\..\Software\uCOS-III\Source/os_tick.c ****             }
 1039              		.loc 1 76 17 is_stmt 1 view .LVU353
 1040 0006 FFF7FEFF 		bl	OS_TickListUpdate
 1041              	.LVL91:
 1042              	.L67:
  69:..\..\..\..\..\..\Software\uCOS-III\Source/os_tick.c ****         (void)OSTaskSemPend((OS_TICK  )0,
 1043              		.loc 1 69 5 view .LVU354
  70:..\..\..\..\..\..\Software\uCOS-III\Source/os_tick.c ****                             (OS_OPT   )OS_OPT_PEND_BLOCKING,
 1044              		.loc 1 70 9 view .LVU355
  70:..\..\..\..\..\..\Software\uCOS-III\Source/os_tick.c ****                             (OS_OPT   )OS_OPT_PEND_BLOCKING,
 1045              		.loc 1 70 15 is_stmt 0 view .LVU356
 1046 000a 6B46     		mov	r3, sp
 1047 000c 9C1D     		adds	r4, r3, #6
 1048 000e 2300     		movs	r3, r4
 1049 0010 6A46     		mov	r2, sp
 1050 0012 0021     		movs	r1, #0
 1051 0014 0020     		movs	r0, #0
 1052 0016 FFF7FEFF 		bl	OSTaskSemPend
 1053              	.LVL92:
  74:..\..\..\..\..\..\Software\uCOS-III\Source/os_tick.c ****             if (OSRunning == OS_STATE_OS_RUNNING) {
 1054              		.loc 1 74 9 is_stmt 1 view .LVU357
  74:..\..\..\..\..\..\Software\uCOS-III\Source/os_tick.c ****             if (OSRunning == OS_STATE_OS_RUNNING) {
 1055              		.loc 1 74 17 is_stmt 0 view .LVU358
 1056 001a 2388     		ldrh	r3, [r4]
  74:..\..\..\..\..\..\Software\uCOS-III\Source/os_tick.c ****             if (OSRunning == OS_STATE_OS_RUNNING) {
 1057              		.loc 1 74 12 view .LVU359
 1058 001c 002B     		cmp	r3, #0
 1059 001e F4D1     		bne	.L67
  75:..\..\..\..\..\..\Software\uCOS-III\Source/os_tick.c ****                 OS_TickListUpdate();                        /* Update all tasks waiting for time   
 1060              		.loc 1 75 13 is_stmt 1 view .LVU360
  75:..\..\..\..\..\..\Software\uCOS-III\Source/os_tick.c ****                 OS_TickListUpdate();                        /* Update all tasks waiting for time   
 1061              		.loc 1 75 27 is_stmt 0 view .LVU361
 1062 0020 024B     		ldr	r3, .L70
 1063 0022 1B78     		ldrb	r3, [r3]
  75:..\..\..\..\..\..\Software\uCOS-III\Source/os_tick.c ****                 OS_TickListUpdate();                        /* Update all tasks waiting for time   
 1064              		.loc 1 75 16 view .LVU362
 1065 0024 012B     		cmp	r3, #1
ARM GAS  C:\Users\EDULU~1.DES\AppData\Local\Temp\ccqOMtWj.s 			page 32


 1066 0026 F0D1     		bne	.L67
 1067 0028 EDE7     		b	.L69
 1068              	.L71:
 1069 002a C046     		.align	2
 1070              	.L70:
 1071 002c 00000000 		.word	OSRunning
 1072              		.cfi_endproc
 1073              	.LFE3:
 1074              		.size	OS_TickTask, .-OS_TickTask
 1075              		.section	.rodata.str1.4,"aMS",%progbits,1
 1076              		.align	2
 1077              	.LC9:
 1078 0000 75432F4F 		.ascii	"uC/OS-III Tick Task\000"
 1078      532D4949 
 1078      49205469 
 1078      636B2054 
 1078      61736B00 
 1079              		.text
 1080              	.Letext0:
 1081              		.file 2 "..\\..\\..\\..\\..\\..\\Software\\uC-CPU\\ARM-Cortex-M0\\GNU/cpu.h"
 1082              		.file 3 "c:\\program files (x86)\\gnu tools arm embedded\\8 2018-q4-major\\arm-none-eabi\\include\
 1083              		.file 4 "c:\\program files (x86)\\gnu tools arm embedded\\8 2018-q4-major\\arm-none-eabi\\include\
 1084              		.file 5 "c:\\program files (x86)\\gnu tools arm embedded\\8 2018-q4-major\\lib\\gcc\\arm-none-eabi
 1085              		.file 6 "c:\\program files (x86)\\gnu tools arm embedded\\8 2018-q4-major\\arm-none-eabi\\include\
 1086              		.file 7 "..\\..\\..\\..\\..\\..\\Software\\uC-CPU/cpu_core.h"
 1087              		.file 8 "..\\..\\..\\..\\..\\..\\Software\\uCOS-III\\Source/os_type.h"
 1088              		.file 9 "..\\..\\..\\..\\..\\..\\Software\\uCOS-III\\Ports\\ARM-Cortex-M0\\Generic\\GNU/os_cpu.h"
 1089              		.file 10 "..\\..\\..\\..\\..\\..\\Software\\uCOS-III\\Source/os.h"