ARM GAS  C:\Users\EDULU~1.DES\AppData\Local\Temp\ccmSuQZN.s 			page 1


   1              		.cpu cortex-m0
   2              		.eabi_attribute 20, 1
   3              		.eabi_attribute 21, 1
   4              		.eabi_attribute 23, 3
   5              		.eabi_attribute 24, 1
   6              		.eabi_attribute 25, 1
   7              		.eabi_attribute 26, 1
   8              		.eabi_attribute 30, 1
   9              		.eabi_attribute 34, 0
  10              		.eabi_attribute 18, 4
  11              		.file	"os_tmr.c"
  12              		.text
  13              	.Ltext0:
  14              		.cfi_sections	.debug_frame
  15              		.section	.text.OSTmrRemainGet,"ax",%progbits
  16              		.align	1
  17              		.global	OSTmrRemainGet
  18              		.arch armv6s-m
  19              		.syntax unified
  20              		.code	16
  21              		.thumb_func
  22              		.fpu softvfp
  23              		.type	OSTmrRemainGet, %function
  24              	OSTmrRemainGet:
  25              	.LVL0:
  26              	.LFB4:
  27              		.file 1 "..\\..\\..\\..\\..\\..\\Software\\uCOS-III\\Source\\os_tmr.c"
   1:..\..\..\..\..\..\Software\uCOS-III\Source/os_tmr.c **** /*
   2:..\..\..\..\..\..\Software\uCOS-III\Source/os_tmr.c **** ***************************************************************************************************
   3:..\..\..\..\..\..\Software\uCOS-III\Source/os_tmr.c **** *                                                      uC/OS-III
   4:..\..\..\..\..\..\Software\uCOS-III\Source/os_tmr.c **** *                                                 The Real-Time Kernel
   5:..\..\..\..\..\..\Software\uCOS-III\Source/os_tmr.c **** *
   6:..\..\..\..\..\..\Software\uCOS-III\Source/os_tmr.c **** *                                  (c) Copyright 2009-2012; Micrium, Inc.; Weston, FL
   7:..\..\..\..\..\..\Software\uCOS-III\Source/os_tmr.c **** *                           All rights reserved.  Protected by international copyright laws.
   8:..\..\..\..\..\..\Software\uCOS-III\Source/os_tmr.c **** *
   9:..\..\..\..\..\..\Software\uCOS-III\Source/os_tmr.c **** *                                                   TIMER MANAGEMENT
  10:..\..\..\..\..\..\Software\uCOS-III\Source/os_tmr.c **** *
  11:..\..\..\..\..\..\Software\uCOS-III\Source/os_tmr.c **** * File    : OS_TMR.C
  12:..\..\..\..\..\..\Software\uCOS-III\Source/os_tmr.c **** * By      : JJL
  13:..\..\..\..\..\..\Software\uCOS-III\Source/os_tmr.c **** * Version : V3.03.01
  14:..\..\..\..\..\..\Software\uCOS-III\Source/os_tmr.c **** *
  15:..\..\..\..\..\..\Software\uCOS-III\Source/os_tmr.c **** * LICENSING TERMS:
  16:..\..\..\..\..\..\Software\uCOS-III\Source/os_tmr.c **** * ---------------
  17:..\..\..\..\..\..\Software\uCOS-III\Source/os_tmr.c **** *           uC/OS-III is provided in source form for FREE short-term evaluation, for educational us
  18:..\..\..\..\..\..\Software\uCOS-III\Source/os_tmr.c **** *           for peaceful research.  If you plan or intend to use uC/OS-III in a commercial applicat
  19:..\..\..\..\..\..\Software\uCOS-III\Source/os_tmr.c **** *           product then, you need to contact Micrium to properly license uC/OS-III for its use in 
  20:..\..\..\..\..\..\Software\uCOS-III\Source/os_tmr.c **** *           application/product.   We provide ALL the source code for your convenience and to help 
  21:..\..\..\..\..\..\Software\uCOS-III\Source/os_tmr.c **** *           experience uC/OS-III.  The fact that the source is provided does NOT mean that you can 
  22:..\..\..\..\..\..\Software\uCOS-III\Source/os_tmr.c **** *           it commercially without paying a licensing fee.
  23:..\..\..\..\..\..\Software\uCOS-III\Source/os_tmr.c **** *
  24:..\..\..\..\..\..\Software\uCOS-III\Source/os_tmr.c **** *           Knowledge of the source code may NOT be used to develop a similar product.
  25:..\..\..\..\..\..\Software\uCOS-III\Source/os_tmr.c **** *
  26:..\..\..\..\..\..\Software\uCOS-III\Source/os_tmr.c **** *           Please help us continue to provide the embedded community with the finest software avai
  27:..\..\..\..\..\..\Software\uCOS-III\Source/os_tmr.c **** *           Your honesty is greatly appreciated.
  28:..\..\..\..\..\..\Software\uCOS-III\Source/os_tmr.c **** *
  29:..\..\..\..\..\..\Software\uCOS-III\Source/os_tmr.c **** *           You can contact us at www.micrium.com, or by phone at +1 (954) 217-2036.
  30:..\..\..\..\..\..\Software\uCOS-III\Source/os_tmr.c **** ***************************************************************************************************
ARM GAS  C:\Users\EDULU~1.DES\AppData\Local\Temp\ccmSuQZN.s 			page 2


  31:..\..\..\..\..\..\Software\uCOS-III\Source/os_tmr.c **** */
  32:..\..\..\..\..\..\Software\uCOS-III\Source/os_tmr.c **** 
  33:..\..\..\..\..\..\Software\uCOS-III\Source/os_tmr.c **** #define  MICRIUM_SOURCE
  34:..\..\..\..\..\..\Software\uCOS-III\Source/os_tmr.c **** #include <os.h>
  35:..\..\..\..\..\..\Software\uCOS-III\Source/os_tmr.c **** 
  36:..\..\..\..\..\..\Software\uCOS-III\Source/os_tmr.c **** #ifdef VSC_INCLUDE_SOURCE_FILE_NAMES
  37:..\..\..\..\..\..\Software\uCOS-III\Source/os_tmr.c **** const  CPU_CHAR  *os_tmr__c = "$Id: $";
  38:..\..\..\..\..\..\Software\uCOS-III\Source/os_tmr.c **** #endif
  39:..\..\..\..\..\..\Software\uCOS-III\Source/os_tmr.c **** 
  40:..\..\..\..\..\..\Software\uCOS-III\Source/os_tmr.c **** 
  41:..\..\..\..\..\..\Software\uCOS-III\Source/os_tmr.c **** #if OS_CFG_TMR_EN > 0u
  42:..\..\..\..\..\..\Software\uCOS-III\Source/os_tmr.c **** /*
  43:..\..\..\..\..\..\Software\uCOS-III\Source/os_tmr.c **** ***************************************************************************************************
  44:..\..\..\..\..\..\Software\uCOS-III\Source/os_tmr.c **** *                                                     CONSTANTS
  45:..\..\..\..\..\..\Software\uCOS-III\Source/os_tmr.c **** ***************************************************************************************************
  46:..\..\..\..\..\..\Software\uCOS-III\Source/os_tmr.c **** */
  47:..\..\..\..\..\..\Software\uCOS-III\Source/os_tmr.c **** 
  48:..\..\..\..\..\..\Software\uCOS-III\Source/os_tmr.c **** #define  OS_OPT_LINK_DLY       (OS_OPT)(0u)
  49:..\..\..\..\..\..\Software\uCOS-III\Source/os_tmr.c **** #define  OS_OPT_LINK_PERIODIC  (OS_OPT)(1u)
  50:..\..\..\..\..\..\Software\uCOS-III\Source/os_tmr.c **** 
  51:..\..\..\..\..\..\Software\uCOS-III\Source/os_tmr.c **** /*$PAGE*/
  52:..\..\..\..\..\..\Software\uCOS-III\Source/os_tmr.c **** /*
  53:..\..\..\..\..\..\Software\uCOS-III\Source/os_tmr.c **** ***************************************************************************************************
  54:..\..\..\..\..\..\Software\uCOS-III\Source/os_tmr.c **** *                                                   CREATE A TIMER
  55:..\..\..\..\..\..\Software\uCOS-III\Source/os_tmr.c **** *
  56:..\..\..\..\..\..\Software\uCOS-III\Source/os_tmr.c **** * Description: This function is called by your application code to create a timer.
  57:..\..\..\..\..\..\Software\uCOS-III\Source/os_tmr.c **** *
  58:..\..\..\..\..\..\Software\uCOS-III\Source/os_tmr.c **** * Arguments  : p_tmr           Is a pointer to a timer control block
  59:..\..\..\..\..\..\Software\uCOS-III\Source/os_tmr.c **** *
  60:..\..\..\..\..\..\Software\uCOS-III\Source/os_tmr.c **** *              p_name          Is a pointer to an ASCII string that is used to name the timer.  Nam
  61:..\..\..\..\..\..\Software\uCOS-III\Source/os_tmr.c **** *                              debugging.
  62:..\..\..\..\..\..\Software\uCOS-III\Source/os_tmr.c **** *
  63:..\..\..\..\..\..\Software\uCOS-III\Source/os_tmr.c **** *              dly             Initial delay.
  64:..\..\..\..\..\..\Software\uCOS-III\Source/os_tmr.c **** *                              If the timer is configured for ONE-SHOT mode, this is the timeout us
  65:..\..\..\..\..\..\Software\uCOS-III\Source/os_tmr.c **** *                              If the timer is configured for PERIODIC mode, this is the first time
  66:..\..\..\..\..\..\Software\uCOS-III\Source/os_tmr.c **** *                              before the timer starts entering periodic mode
  67:..\..\..\..\..\..\Software\uCOS-III\Source/os_tmr.c **** *
  68:..\..\..\..\..\..\Software\uCOS-III\Source/os_tmr.c **** *              period          The 'period' being repeated for the timer.
  69:..\..\..\..\..\..\Software\uCOS-III\Source/os_tmr.c **** *                              If you specified 'OS_OPT_TMR_PERIODIC' as an option, when the timer 
  70:..\..\..\..\..\..\Software\uCOS-III\Source/os_tmr.c **** *                              automatically restart with the same period.
  71:..\..\..\..\..\..\Software\uCOS-III\Source/os_tmr.c **** *
  72:..\..\..\..\..\..\Software\uCOS-III\Source/os_tmr.c **** *              opt             Specifies either:
  73:..\..\..\..\..\..\Software\uCOS-III\Source/os_tmr.c **** *
  74:..\..\..\..\..\..\Software\uCOS-III\Source/os_tmr.c **** *                                  OS_OPT_TMR_ONE_SHOT       The timer counts down only once
  75:..\..\..\..\..\..\Software\uCOS-III\Source/os_tmr.c **** *                                  OS_OPT_TMR_PERIODIC       The timer counts down and then reloads
  76:..\..\..\..\..\..\Software\uCOS-III\Source/os_tmr.c **** *
  77:..\..\..\..\..\..\Software\uCOS-III\Source/os_tmr.c **** *              p_callback      Is a pointer to a callback function that will be called when the tim
  78:..\..\..\..\..\..\Software\uCOS-III\Source/os_tmr.c **** *                              callback function must be declared as follows:
  79:..\..\..\..\..\..\Software\uCOS-III\Source/os_tmr.c **** *
  80:..\..\..\..\..\..\Software\uCOS-III\Source/os_tmr.c **** *                                  void  MyCallback (OS_TMR *p_tmr, void *p_arg);
  81:..\..\..\..\..\..\Software\uCOS-III\Source/os_tmr.c **** *
  82:..\..\..\..\..\..\Software\uCOS-III\Source/os_tmr.c **** *              p_callback_arg  Is an argument (a pointer) that is passed to the callback function w
  83:..\..\..\..\..\..\Software\uCOS-III\Source/os_tmr.c **** *
  84:..\..\..\..\..\..\Software\uCOS-III\Source/os_tmr.c **** *              p_err           Is a pointer to an error code.  '*p_err' will contain one of the fol
  85:..\..\..\..\..\..\Software\uCOS-III\Source/os_tmr.c **** *
  86:..\..\..\..\..\..\Software\uCOS-III\Source/os_tmr.c **** *                                 OS_ERR_NONE
  87:..\..\..\..\..\..\Software\uCOS-III\Source/os_tmr.c **** *                                 OS_ERR_ILLEGAL_CREATE_RUN_TIME if you are trying to create the ti
ARM GAS  C:\Users\EDULU~1.DES\AppData\Local\Temp\ccmSuQZN.s 			page 3


  88:..\..\..\..\..\..\Software\uCOS-III\Source/os_tmr.c **** *                                                                  OSSafetyCriticalStart().
  89:..\..\..\..\..\..\Software\uCOS-III\Source/os_tmr.c **** *                                 OS_ERR_OBJ_CREATED             if the timer has already been crea
  90:..\..\..\..\..\..\Software\uCOS-III\Source/os_tmr.c **** *                                 OS_ERR_OBJ_PTR_NULL            is 'p_tmr' is a NULL pointer
  91:..\..\..\..\..\..\Software\uCOS-III\Source/os_tmr.c **** *                                 OS_ERR_OBJ_TYPE                if the object type is invalid
  92:..\..\..\..\..\..\Software\uCOS-III\Source/os_tmr.c **** *                                 OS_ERR_OPT_INVALID             you specified an invalid option
  93:..\..\..\..\..\..\Software\uCOS-III\Source/os_tmr.c **** *                                 OS_ERR_TMR_INVALID_DLY         you specified an invalid delay
  94:..\..\..\..\..\..\Software\uCOS-III\Source/os_tmr.c **** *                                 OS_ERR_TMR_INVALID_PERIOD      you specified an invalid period
  95:..\..\..\..\..\..\Software\uCOS-III\Source/os_tmr.c **** *                                 OS_ERR_TMR_ISR                 if the call was made from an ISR
  96:..\..\..\..\..\..\Software\uCOS-III\Source/os_tmr.c **** *
  97:..\..\..\..\..\..\Software\uCOS-III\Source/os_tmr.c **** * Returns    : none
  98:..\..\..\..\..\..\Software\uCOS-III\Source/os_tmr.c **** *
  99:..\..\..\..\..\..\Software\uCOS-III\Source/os_tmr.c **** * Note(s)    : 1) This function only creates the timer.  In other words, the timer is not started w
 100:..\..\..\..\..\..\Software\uCOS-III\Source/os_tmr.c **** *                 start the timer, call OSTmrStart().
 101:..\..\..\..\..\..\Software\uCOS-III\Source/os_tmr.c **** ***************************************************************************************************
 102:..\..\..\..\..\..\Software\uCOS-III\Source/os_tmr.c **** */
 103:..\..\..\..\..\..\Software\uCOS-III\Source/os_tmr.c **** 
 104:..\..\..\..\..\..\Software\uCOS-III\Source/os_tmr.c **** void  OSTmrCreate (OS_TMR               *p_tmr,
 105:..\..\..\..\..\..\Software\uCOS-III\Source/os_tmr.c ****                    CPU_CHAR             *p_name,
 106:..\..\..\..\..\..\Software\uCOS-III\Source/os_tmr.c ****                    OS_TICK               dly,
 107:..\..\..\..\..\..\Software\uCOS-III\Source/os_tmr.c ****                    OS_TICK               period,
 108:..\..\..\..\..\..\Software\uCOS-III\Source/os_tmr.c ****                    OS_OPT                opt,
 109:..\..\..\..\..\..\Software\uCOS-III\Source/os_tmr.c ****                    OS_TMR_CALLBACK_PTR   p_callback,
 110:..\..\..\..\..\..\Software\uCOS-III\Source/os_tmr.c ****                    void                 *p_callback_arg,
 111:..\..\..\..\..\..\Software\uCOS-III\Source/os_tmr.c ****                    OS_ERR               *p_err)
 112:..\..\..\..\..\..\Software\uCOS-III\Source/os_tmr.c **** {
 113:..\..\..\..\..\..\Software\uCOS-III\Source/os_tmr.c ****     CPU_SR_ALLOC();
 114:..\..\..\..\..\..\Software\uCOS-III\Source/os_tmr.c **** 
 115:..\..\..\..\..\..\Software\uCOS-III\Source/os_tmr.c **** 
 116:..\..\..\..\..\..\Software\uCOS-III\Source/os_tmr.c **** 
 117:..\..\..\..\..\..\Software\uCOS-III\Source/os_tmr.c **** #ifdef OS_SAFETY_CRITICAL
 118:..\..\..\..\..\..\Software\uCOS-III\Source/os_tmr.c ****     if (p_err == (OS_ERR *)0) {
 119:..\..\..\..\..\..\Software\uCOS-III\Source/os_tmr.c ****         OS_SAFETY_CRITICAL_EXCEPTION();
 120:..\..\..\..\..\..\Software\uCOS-III\Source/os_tmr.c ****         return;
 121:..\..\..\..\..\..\Software\uCOS-III\Source/os_tmr.c ****     }
 122:..\..\..\..\..\..\Software\uCOS-III\Source/os_tmr.c **** #endif
 123:..\..\..\..\..\..\Software\uCOS-III\Source/os_tmr.c **** 
 124:..\..\..\..\..\..\Software\uCOS-III\Source/os_tmr.c **** #ifdef OS_SAFETY_CRITICAL_IEC61508
 125:..\..\..\..\..\..\Software\uCOS-III\Source/os_tmr.c ****     if (OSSafetyCriticalStartFlag == DEF_TRUE) {
 126:..\..\..\..\..\..\Software\uCOS-III\Source/os_tmr.c ****        *p_err = OS_ERR_ILLEGAL_CREATE_RUN_TIME;
 127:..\..\..\..\..\..\Software\uCOS-III\Source/os_tmr.c ****         return;
 128:..\..\..\..\..\..\Software\uCOS-III\Source/os_tmr.c ****     }
 129:..\..\..\..\..\..\Software\uCOS-III\Source/os_tmr.c **** #endif
 130:..\..\..\..\..\..\Software\uCOS-III\Source/os_tmr.c **** 
 131:..\..\..\..\..\..\Software\uCOS-III\Source/os_tmr.c **** #if OS_CFG_CALLED_FROM_ISR_CHK_EN > 0u
 132:..\..\..\..\..\..\Software\uCOS-III\Source/os_tmr.c ****     if (OSIntNestingCtr > (OS_NESTING_CTR)0) {              /* See if trying to call from an ISR   
 133:..\..\..\..\..\..\Software\uCOS-III\Source/os_tmr.c ****        *p_err = OS_ERR_TMR_ISR;
 134:..\..\..\..\..\..\Software\uCOS-III\Source/os_tmr.c ****         return;
 135:..\..\..\..\..\..\Software\uCOS-III\Source/os_tmr.c ****     }
 136:..\..\..\..\..\..\Software\uCOS-III\Source/os_tmr.c **** #endif
 137:..\..\..\..\..\..\Software\uCOS-III\Source/os_tmr.c **** 
 138:..\..\..\..\..\..\Software\uCOS-III\Source/os_tmr.c **** #if OS_CFG_ARG_CHK_EN > 0u
 139:..\..\..\..\..\..\Software\uCOS-III\Source/os_tmr.c ****     if (p_tmr == (OS_TMR *)0) {                             /* Validate 'p_tmr'                    
 140:..\..\..\..\..\..\Software\uCOS-III\Source/os_tmr.c ****        *p_err = OS_ERR_OBJ_PTR_NULL;
 141:..\..\..\..\..\..\Software\uCOS-III\Source/os_tmr.c ****         return;
 142:..\..\..\..\..\..\Software\uCOS-III\Source/os_tmr.c ****     }
 143:..\..\..\..\..\..\Software\uCOS-III\Source/os_tmr.c **** 
 144:..\..\..\..\..\..\Software\uCOS-III\Source/os_tmr.c ****     switch (opt) {
ARM GAS  C:\Users\EDULU~1.DES\AppData\Local\Temp\ccmSuQZN.s 			page 4


 145:..\..\..\..\..\..\Software\uCOS-III\Source/os_tmr.c ****         case OS_OPT_TMR_PERIODIC:
 146:..\..\..\..\..\..\Software\uCOS-III\Source/os_tmr.c ****              if (period == (OS_TICK)0) {
 147:..\..\..\..\..\..\Software\uCOS-III\Source/os_tmr.c ****                 *p_err = OS_ERR_TMR_INVALID_PERIOD;
 148:..\..\..\..\..\..\Software\uCOS-III\Source/os_tmr.c ****                  return;
 149:..\..\..\..\..\..\Software\uCOS-III\Source/os_tmr.c ****              }
 150:..\..\..\..\..\..\Software\uCOS-III\Source/os_tmr.c ****              break;
 151:..\..\..\..\..\..\Software\uCOS-III\Source/os_tmr.c **** 
 152:..\..\..\..\..\..\Software\uCOS-III\Source/os_tmr.c ****         case OS_OPT_TMR_ONE_SHOT:
 153:..\..\..\..\..\..\Software\uCOS-III\Source/os_tmr.c ****              if (dly == (OS_TICK)0) {
 154:..\..\..\..\..\..\Software\uCOS-III\Source/os_tmr.c ****                 *p_err = OS_ERR_TMR_INVALID_DLY;
 155:..\..\..\..\..\..\Software\uCOS-III\Source/os_tmr.c ****                  return;
 156:..\..\..\..\..\..\Software\uCOS-III\Source/os_tmr.c ****              }
 157:..\..\..\..\..\..\Software\uCOS-III\Source/os_tmr.c ****              break;
 158:..\..\..\..\..\..\Software\uCOS-III\Source/os_tmr.c **** 
 159:..\..\..\..\..\..\Software\uCOS-III\Source/os_tmr.c ****         default:
 160:..\..\..\..\..\..\Software\uCOS-III\Source/os_tmr.c ****             *p_err = OS_ERR_OPT_INVALID;
 161:..\..\..\..\..\..\Software\uCOS-III\Source/os_tmr.c ****              return;
 162:..\..\..\..\..\..\Software\uCOS-III\Source/os_tmr.c ****     }
 163:..\..\..\..\..\..\Software\uCOS-III\Source/os_tmr.c **** #endif
 164:..\..\..\..\..\..\Software\uCOS-III\Source/os_tmr.c **** 
 165:..\..\..\..\..\..\Software\uCOS-III\Source/os_tmr.c ****     OS_CRITICAL_ENTER();
 166:..\..\..\..\..\..\Software\uCOS-III\Source/os_tmr.c ****     p_tmr->State          = (OS_STATE           )OS_TMR_STATE_STOPPED;     /* Initialize the timer 
 167:..\..\..\..\..\..\Software\uCOS-III\Source/os_tmr.c ****     p_tmr->Type           = (OS_OBJ_TYPE        )OS_OBJ_TYPE_TMR;
 168:..\..\..\..\..\..\Software\uCOS-III\Source/os_tmr.c ****     p_tmr->NamePtr        = (CPU_CHAR          *)p_name;
 169:..\..\..\..\..\..\Software\uCOS-III\Source/os_tmr.c ****     p_tmr->Dly            = (OS_TICK            )dly;
 170:..\..\..\..\..\..\Software\uCOS-III\Source/os_tmr.c ****     p_tmr->Match          = (OS_TICK            )0;
 171:..\..\..\..\..\..\Software\uCOS-III\Source/os_tmr.c ****     p_tmr->Remain         = (OS_TICK            )0;
 172:..\..\..\..\..\..\Software\uCOS-III\Source/os_tmr.c ****     p_tmr->Period         = (OS_TICK            )period;
 173:..\..\..\..\..\..\Software\uCOS-III\Source/os_tmr.c ****     p_tmr->Opt            = (OS_OPT             )opt;
 174:..\..\..\..\..\..\Software\uCOS-III\Source/os_tmr.c ****     p_tmr->CallbackPtr    = (OS_TMR_CALLBACK_PTR)p_callback;
 175:..\..\..\..\..\..\Software\uCOS-III\Source/os_tmr.c ****     p_tmr->CallbackPtrArg = (void              *)p_callback_arg;
 176:..\..\..\..\..\..\Software\uCOS-III\Source/os_tmr.c ****     p_tmr->NextPtr        = (OS_TMR            *)0;
 177:..\..\..\..\..\..\Software\uCOS-III\Source/os_tmr.c ****     p_tmr->PrevPtr        = (OS_TMR            *)0;
 178:..\..\..\..\..\..\Software\uCOS-III\Source/os_tmr.c **** 
 179:..\..\..\..\..\..\Software\uCOS-III\Source/os_tmr.c **** #if OS_CFG_DBG_EN > 0u
 180:..\..\..\..\..\..\Software\uCOS-III\Source/os_tmr.c ****     OS_TmrDbgListAdd(p_tmr);
 181:..\..\..\..\..\..\Software\uCOS-III\Source/os_tmr.c **** #endif
 182:..\..\..\..\..\..\Software\uCOS-III\Source/os_tmr.c ****     OSTmrQty++;                                             /* Keep track of the number of timers c
 183:..\..\..\..\..\..\Software\uCOS-III\Source/os_tmr.c **** 
 184:..\..\..\..\..\..\Software\uCOS-III\Source/os_tmr.c ****     OS_CRITICAL_EXIT_NO_SCHED();
 185:..\..\..\..\..\..\Software\uCOS-III\Source/os_tmr.c ****    *p_err = OS_ERR_NONE;
 186:..\..\..\..\..\..\Software\uCOS-III\Source/os_tmr.c **** }
 187:..\..\..\..\..\..\Software\uCOS-III\Source/os_tmr.c **** 
 188:..\..\..\..\..\..\Software\uCOS-III\Source/os_tmr.c **** /*$PAGE*/
 189:..\..\..\..\..\..\Software\uCOS-III\Source/os_tmr.c **** /*
 190:..\..\..\..\..\..\Software\uCOS-III\Source/os_tmr.c **** ***************************************************************************************************
 191:..\..\..\..\..\..\Software\uCOS-III\Source/os_tmr.c **** *                                                   DELETE A TIMER
 192:..\..\..\..\..\..\Software\uCOS-III\Source/os_tmr.c **** *
 193:..\..\..\..\..\..\Software\uCOS-III\Source/os_tmr.c **** * Description: This function is called by your application code to delete a timer.
 194:..\..\..\..\..\..\Software\uCOS-III\Source/os_tmr.c **** *
 195:..\..\..\..\..\..\Software\uCOS-III\Source/os_tmr.c **** * Arguments  : p_tmr          Is a pointer to the timer to stop and delete.
 196:..\..\..\..\..\..\Software\uCOS-III\Source/os_tmr.c **** *
 197:..\..\..\..\..\..\Software\uCOS-III\Source/os_tmr.c **** *              p_err          Is a pointer to an error code.  '*p_err' will contain one of the foll
 198:..\..\..\..\..\..\Software\uCOS-III\Source/os_tmr.c **** *
 199:..\..\..\..\..\..\Software\uCOS-III\Source/os_tmr.c **** *                                 OS_ERR_NONE
 200:..\..\..\..\..\..\Software\uCOS-III\Source/os_tmr.c **** *                                 OS_ERR_OBJ_TYPE             'p_tmr' is not pointing to a timer
 201:..\..\..\..\..\..\Software\uCOS-III\Source/os_tmr.c **** *                                 OS_ERR_TMR_INVALID          'p_tmr' is a NULL pointer
ARM GAS  C:\Users\EDULU~1.DES\AppData\Local\Temp\ccmSuQZN.s 			page 5


 202:..\..\..\..\..\..\Software\uCOS-III\Source/os_tmr.c **** *                                 OS_ERR_TMR_ISR              if the function was called from an IS
 203:..\..\..\..\..\..\Software\uCOS-III\Source/os_tmr.c **** *                                 OS_ERR_TMR_INACTIVE         if the timer was not created
 204:..\..\..\..\..\..\Software\uCOS-III\Source/os_tmr.c **** *                                 OS_ERR_TMR_INVALID_STATE    the timer is in an invalid state
 205:..\..\..\..\..\..\Software\uCOS-III\Source/os_tmr.c **** *
 206:..\..\..\..\..\..\Software\uCOS-III\Source/os_tmr.c **** * Returns    : DEF_TRUE   if the timer was deleted
 207:..\..\..\..\..\..\Software\uCOS-III\Source/os_tmr.c **** *              DEF_FALSE  if not or upon an error
 208:..\..\..\..\..\..\Software\uCOS-III\Source/os_tmr.c **** ***************************************************************************************************
 209:..\..\..\..\..\..\Software\uCOS-III\Source/os_tmr.c **** */
 210:..\..\..\..\..\..\Software\uCOS-III\Source/os_tmr.c **** 
 211:..\..\..\..\..\..\Software\uCOS-III\Source/os_tmr.c **** #if OS_CFG_TMR_DEL_EN > 0u
 212:..\..\..\..\..\..\Software\uCOS-III\Source/os_tmr.c **** CPU_BOOLEAN  OSTmrDel (OS_TMR  *p_tmr,
 213:..\..\..\..\..\..\Software\uCOS-III\Source/os_tmr.c ****                        OS_ERR  *p_err)
 214:..\..\..\..\..\..\Software\uCOS-III\Source/os_tmr.c **** {
 215:..\..\..\..\..\..\Software\uCOS-III\Source/os_tmr.c ****     OS_ERR       err;
 216:..\..\..\..\..\..\Software\uCOS-III\Source/os_tmr.c ****     CPU_BOOLEAN  success;
 217:..\..\..\..\..\..\Software\uCOS-III\Source/os_tmr.c **** 
 218:..\..\..\..\..\..\Software\uCOS-III\Source/os_tmr.c **** 
 219:..\..\..\..\..\..\Software\uCOS-III\Source/os_tmr.c **** 
 220:..\..\..\..\..\..\Software\uCOS-III\Source/os_tmr.c **** #ifdef OS_SAFETY_CRITICAL
 221:..\..\..\..\..\..\Software\uCOS-III\Source/os_tmr.c ****     if (p_err == (OS_ERR *)0) {
 222:..\..\..\..\..\..\Software\uCOS-III\Source/os_tmr.c ****         OS_SAFETY_CRITICAL_EXCEPTION();
 223:..\..\..\..\..\..\Software\uCOS-III\Source/os_tmr.c ****         return (DEF_FALSE);
 224:..\..\..\..\..\..\Software\uCOS-III\Source/os_tmr.c ****     }
 225:..\..\..\..\..\..\Software\uCOS-III\Source/os_tmr.c **** #endif
 226:..\..\..\..\..\..\Software\uCOS-III\Source/os_tmr.c **** 
 227:..\..\..\..\..\..\Software\uCOS-III\Source/os_tmr.c **** #if OS_CFG_CALLED_FROM_ISR_CHK_EN > 0u
 228:..\..\..\..\..\..\Software\uCOS-III\Source/os_tmr.c ****     if (OSIntNestingCtr > (OS_NESTING_CTR)0) {              /* See if trying to call from an ISR   
 229:..\..\..\..\..\..\Software\uCOS-III\Source/os_tmr.c ****        *p_err  = OS_ERR_TMR_ISR;
 230:..\..\..\..\..\..\Software\uCOS-III\Source/os_tmr.c ****         return (DEF_FALSE);
 231:..\..\..\..\..\..\Software\uCOS-III\Source/os_tmr.c ****     }
 232:..\..\..\..\..\..\Software\uCOS-III\Source/os_tmr.c **** #endif
 233:..\..\..\..\..\..\Software\uCOS-III\Source/os_tmr.c **** 
 234:..\..\..\..\..\..\Software\uCOS-III\Source/os_tmr.c **** #if OS_CFG_ARG_CHK_EN > 0u
 235:..\..\..\..\..\..\Software\uCOS-III\Source/os_tmr.c ****     if (p_tmr == (OS_TMR *)0) {
 236:..\..\..\..\..\..\Software\uCOS-III\Source/os_tmr.c ****        *p_err = OS_ERR_TMR_INVALID;
 237:..\..\..\..\..\..\Software\uCOS-III\Source/os_tmr.c ****         return (DEF_FALSE);
 238:..\..\..\..\..\..\Software\uCOS-III\Source/os_tmr.c ****     }
 239:..\..\..\..\..\..\Software\uCOS-III\Source/os_tmr.c **** #endif
 240:..\..\..\..\..\..\Software\uCOS-III\Source/os_tmr.c **** 
 241:..\..\..\..\..\..\Software\uCOS-III\Source/os_tmr.c **** #if OS_CFG_OBJ_TYPE_CHK_EN > 0u
 242:..\..\..\..\..\..\Software\uCOS-III\Source/os_tmr.c ****     if (p_tmr->Type != OS_OBJ_TYPE_TMR) {                   /* Make sure timer was created         
 243:..\..\..\..\..\..\Software\uCOS-III\Source/os_tmr.c ****        *p_err = OS_ERR_OBJ_TYPE;
 244:..\..\..\..\..\..\Software\uCOS-III\Source/os_tmr.c ****         return (DEF_FALSE);
 245:..\..\..\..\..\..\Software\uCOS-III\Source/os_tmr.c ****     }
 246:..\..\..\..\..\..\Software\uCOS-III\Source/os_tmr.c **** #endif
 247:..\..\..\..\..\..\Software\uCOS-III\Source/os_tmr.c **** 
 248:..\..\..\..\..\..\Software\uCOS-III\Source/os_tmr.c ****     OSSchedLock(&err);
 249:..\..\..\..\..\..\Software\uCOS-III\Source/os_tmr.c **** #if OS_CFG_DBG_EN > 0u
 250:..\..\..\..\..\..\Software\uCOS-III\Source/os_tmr.c ****     OS_TmrDbgListRemove(p_tmr);
 251:..\..\..\..\..\..\Software\uCOS-III\Source/os_tmr.c **** #endif
 252:..\..\..\..\..\..\Software\uCOS-III\Source/os_tmr.c ****     OSTmrQty--;                                             /* One less timer                      
 253:..\..\..\..\..\..\Software\uCOS-III\Source/os_tmr.c **** 
 254:..\..\..\..\..\..\Software\uCOS-III\Source/os_tmr.c ****     switch (p_tmr->State) {
 255:..\..\..\..\..\..\Software\uCOS-III\Source/os_tmr.c ****         case OS_TMR_STATE_RUNNING:
 256:..\..\..\..\..\..\Software\uCOS-III\Source/os_tmr.c ****              OS_TmrUnlink(p_tmr);                           /* Remove from current wheel spoke     
 257:..\..\..\..\..\..\Software\uCOS-III\Source/os_tmr.c ****              OS_TmrClr(p_tmr);
 258:..\..\..\..\..\..\Software\uCOS-III\Source/os_tmr.c ****              OSSchedUnlock(&err);
ARM GAS  C:\Users\EDULU~1.DES\AppData\Local\Temp\ccmSuQZN.s 			page 6


 259:..\..\..\..\..\..\Software\uCOS-III\Source/os_tmr.c ****             *p_err   = OS_ERR_NONE;
 260:..\..\..\..\..\..\Software\uCOS-III\Source/os_tmr.c ****              success = DEF_TRUE;
 261:..\..\..\..\..\..\Software\uCOS-III\Source/os_tmr.c ****              break;
 262:..\..\..\..\..\..\Software\uCOS-III\Source/os_tmr.c **** 
 263:..\..\..\..\..\..\Software\uCOS-III\Source/os_tmr.c ****         case OS_TMR_STATE_STOPPED:                          /* Timer has not started or ...        
 264:..\..\..\..\..\..\Software\uCOS-III\Source/os_tmr.c ****         case OS_TMR_STATE_COMPLETED:                        /* ... timer has completed the ONE-SHOT
 265:..\..\..\..\..\..\Software\uCOS-III\Source/os_tmr.c ****              OS_TmrClr(p_tmr);                              /* Clear timer fields                  
 266:..\..\..\..\..\..\Software\uCOS-III\Source/os_tmr.c ****              OSSchedUnlock(&err);
 267:..\..\..\..\..\..\Software\uCOS-III\Source/os_tmr.c ****             *p_err   = OS_ERR_NONE;
 268:..\..\..\..\..\..\Software\uCOS-III\Source/os_tmr.c ****              success = DEF_TRUE;
 269:..\..\..\..\..\..\Software\uCOS-III\Source/os_tmr.c ****              break;
 270:..\..\..\..\..\..\Software\uCOS-III\Source/os_tmr.c ****              
 271:..\..\..\..\..\..\Software\uCOS-III\Source/os_tmr.c ****         case OS_TMR_STATE_UNUSED:                           /* Already deleted                     
 272:..\..\..\..\..\..\Software\uCOS-III\Source/os_tmr.c ****              OSSchedUnlock(&err);
 273:..\..\..\..\..\..\Software\uCOS-III\Source/os_tmr.c ****             *p_err   = OS_ERR_TMR_INACTIVE;
 274:..\..\..\..\..\..\Software\uCOS-III\Source/os_tmr.c ****              success = DEF_FALSE;
 275:..\..\..\..\..\..\Software\uCOS-III\Source/os_tmr.c ****              break;
 276:..\..\..\..\..\..\Software\uCOS-III\Source/os_tmr.c **** 
 277:..\..\..\..\..\..\Software\uCOS-III\Source/os_tmr.c ****         default:
 278:..\..\..\..\..\..\Software\uCOS-III\Source/os_tmr.c ****              OSSchedUnlock(&err);
 279:..\..\..\..\..\..\Software\uCOS-III\Source/os_tmr.c ****             *p_err   = OS_ERR_TMR_INVALID_STATE;
 280:..\..\..\..\..\..\Software\uCOS-III\Source/os_tmr.c ****              success = DEF_FALSE;
 281:..\..\..\..\..\..\Software\uCOS-III\Source/os_tmr.c ****              break;
 282:..\..\..\..\..\..\Software\uCOS-III\Source/os_tmr.c ****     }
 283:..\..\..\..\..\..\Software\uCOS-III\Source/os_tmr.c ****     return (success);
 284:..\..\..\..\..\..\Software\uCOS-III\Source/os_tmr.c **** }
 285:..\..\..\..\..\..\Software\uCOS-III\Source/os_tmr.c **** #endif
 286:..\..\..\..\..\..\Software\uCOS-III\Source/os_tmr.c **** 
 287:..\..\..\..\..\..\Software\uCOS-III\Source/os_tmr.c **** /*$PAGE*/
 288:..\..\..\..\..\..\Software\uCOS-III\Source/os_tmr.c **** /*
 289:..\..\..\..\..\..\Software\uCOS-III\Source/os_tmr.c **** ***************************************************************************************************
 290:..\..\..\..\..\..\Software\uCOS-III\Source/os_tmr.c **** *                                    GET HOW MUCH TIME IS LEFT BEFORE A TIMER EXPIRES
 291:..\..\..\..\..\..\Software\uCOS-III\Source/os_tmr.c **** *
 292:..\..\..\..\..\..\Software\uCOS-III\Source/os_tmr.c **** * Description: This function is called to get the number of ticks before a timer times out.
 293:..\..\..\..\..\..\Software\uCOS-III\Source/os_tmr.c **** *
 294:..\..\..\..\..\..\Software\uCOS-III\Source/os_tmr.c **** * Arguments  : p_tmr    Is a pointer to the timer to obtain the remaining time from.
 295:..\..\..\..\..\..\Software\uCOS-III\Source/os_tmr.c **** *
 296:..\..\..\..\..\..\Software\uCOS-III\Source/os_tmr.c **** *              p_err    Is a pointer to an error code.  '*p_err' will contain one of the following:
 297:..\..\..\..\..\..\Software\uCOS-III\Source/os_tmr.c **** *
 298:..\..\..\..\..\..\Software\uCOS-III\Source/os_tmr.c **** *                           OS_ERR_NONE
 299:..\..\..\..\..\..\Software\uCOS-III\Source/os_tmr.c **** *                           OS_ERR_OBJ_TYPE           'p_tmr' is not pointing to a timer
 300:..\..\..\..\..\..\Software\uCOS-III\Source/os_tmr.c **** *                           OS_ERR_TMR_INVALID        'p_tmr' is a NULL pointer
 301:..\..\..\..\..\..\Software\uCOS-III\Source/os_tmr.c **** *                           OS_ERR_TMR_ISR            if the call was made from an ISR
 302:..\..\..\..\..\..\Software\uCOS-III\Source/os_tmr.c **** *                           OS_ERR_TMR_INACTIVE       'p_tmr' points to a timer that is not active
 303:..\..\..\..\..\..\Software\uCOS-III\Source/os_tmr.c **** *                           OS_ERR_TMR_INVALID_STATE  the timer is in an invalid state
 304:..\..\..\..\..\..\Software\uCOS-III\Source/os_tmr.c **** *
 305:..\..\..\..\..\..\Software\uCOS-III\Source/os_tmr.c **** * Returns    : The time remaining for the timer to expire.  The time represents 'timer' increments.
 306:..\..\..\..\..\..\Software\uCOS-III\Source/os_tmr.c **** *              OS_TmrTask() is signaled every 1/10 of a second then the returned value represents t
 307:..\..\..\..\..\..\Software\uCOS-III\Source/os_tmr.c **** *              a second remaining before the timer expires.
 308:..\..\..\..\..\..\Software\uCOS-III\Source/os_tmr.c **** ***************************************************************************************************
 309:..\..\..\..\..\..\Software\uCOS-III\Source/os_tmr.c **** */
 310:..\..\..\..\..\..\Software\uCOS-III\Source/os_tmr.c **** 
 311:..\..\..\..\..\..\Software\uCOS-III\Source/os_tmr.c **** OS_TICK  OSTmrRemainGet (OS_TMR  *p_tmr,
 312:..\..\..\..\..\..\Software\uCOS-III\Source/os_tmr.c ****                          OS_ERR  *p_err)
 313:..\..\..\..\..\..\Software\uCOS-III\Source/os_tmr.c **** {
  28              		.loc 1 313 1 view -0
  29              		.cfi_startproc
ARM GAS  C:\Users\EDULU~1.DES\AppData\Local\Temp\ccmSuQZN.s 			page 7


  30              		@ args = 0, pretend = 0, frame = 8
  31              		@ frame_needed = 0, uses_anonymous_args = 0
  32              		.loc 1 313 1 is_stmt 0 view .LVU1
  33 0000 70B5     		push	{r4, r5, r6, lr}
  34              		.cfi_def_cfa_offset 16
  35              		.cfi_offset 4, -16
  36              		.cfi_offset 5, -12
  37              		.cfi_offset 6, -8
  38              		.cfi_offset 14, -4
  39 0002 82B0     		sub	sp, sp, #8
  40              		.cfi_def_cfa_offset 24
  41 0004 0400     		movs	r4, r0
  42 0006 0E00     		movs	r6, r1
 314:..\..\..\..\..\..\Software\uCOS-III\Source/os_tmr.c ****     OS_TICK  remain;
  43              		.loc 1 314 5 is_stmt 1 view .LVU2
 315:..\..\..\..\..\..\Software\uCOS-III\Source/os_tmr.c ****     OS_ERR   err;
  44              		.loc 1 315 5 view .LVU3
 316:..\..\..\..\..\..\Software\uCOS-III\Source/os_tmr.c **** 
 317:..\..\..\..\..\..\Software\uCOS-III\Source/os_tmr.c **** 
 318:..\..\..\..\..\..\Software\uCOS-III\Source/os_tmr.c **** 
 319:..\..\..\..\..\..\Software\uCOS-III\Source/os_tmr.c **** #ifdef OS_SAFETY_CRITICAL
 320:..\..\..\..\..\..\Software\uCOS-III\Source/os_tmr.c ****     if (p_err == (OS_ERR *)0) {
 321:..\..\..\..\..\..\Software\uCOS-III\Source/os_tmr.c ****         OS_SAFETY_CRITICAL_EXCEPTION();
 322:..\..\..\..\..\..\Software\uCOS-III\Source/os_tmr.c ****         return ((OS_TICK)0);
 323:..\..\..\..\..\..\Software\uCOS-III\Source/os_tmr.c ****     }
 324:..\..\..\..\..\..\Software\uCOS-III\Source/os_tmr.c **** #endif
 325:..\..\..\..\..\..\Software\uCOS-III\Source/os_tmr.c **** 
 326:..\..\..\..\..\..\Software\uCOS-III\Source/os_tmr.c **** #if OS_CFG_CALLED_FROM_ISR_CHK_EN > 0u
 327:..\..\..\..\..\..\Software\uCOS-III\Source/os_tmr.c ****     if (OSIntNestingCtr > (OS_NESTING_CTR)0) {              /* See if trying to call from an ISR   
  45              		.loc 1 327 5 view .LVU4
  46              		.loc 1 327 25 is_stmt 0 view .LVU5
  47 0008 294B     		ldr	r3, .L16
  48 000a 1B78     		ldrb	r3, [r3]
  49              		.loc 1 327 8 view .LVU6
  50 000c 002B     		cmp	r3, #0
  51 000e 17D1     		bne	.L13
 328:..\..\..\..\..\..\Software\uCOS-III\Source/os_tmr.c ****        *p_err = OS_ERR_TMR_ISR;
 329:..\..\..\..\..\..\Software\uCOS-III\Source/os_tmr.c ****         return ((OS_TICK)0);
 330:..\..\..\..\..\..\Software\uCOS-III\Source/os_tmr.c ****     }
 331:..\..\..\..\..\..\Software\uCOS-III\Source/os_tmr.c **** #endif
 332:..\..\..\..\..\..\Software\uCOS-III\Source/os_tmr.c **** 
 333:..\..\..\..\..\..\Software\uCOS-III\Source/os_tmr.c **** #if OS_CFG_ARG_CHK_EN > 0u
 334:..\..\..\..\..\..\Software\uCOS-III\Source/os_tmr.c ****     if (p_tmr == (OS_TMR *)0) {
  52              		.loc 1 334 5 is_stmt 1 view .LVU7
  53              		.loc 1 334 8 is_stmt 0 view .LVU8
  54 0010 0028     		cmp	r0, #0
  55 0012 1BD0     		beq	.L14
 335:..\..\..\..\..\..\Software\uCOS-III\Source/os_tmr.c ****        *p_err = OS_ERR_TMR_INVALID;
 336:..\..\..\..\..\..\Software\uCOS-III\Source/os_tmr.c ****         return ((OS_TICK)0);
 337:..\..\..\..\..\..\Software\uCOS-III\Source/os_tmr.c ****     }
 338:..\..\..\..\..\..\Software\uCOS-III\Source/os_tmr.c **** #endif
 339:..\..\..\..\..\..\Software\uCOS-III\Source/os_tmr.c **** 
 340:..\..\..\..\..\..\Software\uCOS-III\Source/os_tmr.c **** #if OS_CFG_OBJ_TYPE_CHK_EN > 0u
 341:..\..\..\..\..\..\Software\uCOS-III\Source/os_tmr.c ****     if (p_tmr->Type != OS_OBJ_TYPE_TMR) {                   /* Make sure timer was created         
 342:..\..\..\..\..\..\Software\uCOS-III\Source/os_tmr.c ****        *p_err = OS_ERR_OBJ_TYPE;
 343:..\..\..\..\..\..\Software\uCOS-III\Source/os_tmr.c ****         return ((OS_TICK)0);
 344:..\..\..\..\..\..\Software\uCOS-III\Source/os_tmr.c ****     }
ARM GAS  C:\Users\EDULU~1.DES\AppData\Local\Temp\ccmSuQZN.s 			page 8


 345:..\..\..\..\..\..\Software\uCOS-III\Source/os_tmr.c **** #endif
 346:..\..\..\..\..\..\Software\uCOS-III\Source/os_tmr.c **** 
 347:..\..\..\..\..\..\Software\uCOS-III\Source/os_tmr.c ****     OSSchedLock(&err);
  56              		.loc 1 347 5 is_stmt 1 view .LVU9
  57 0014 6B46     		mov	r3, sp
  58 0016 981D     		adds	r0, r3, #6
  59              	.LVL1:
  60              		.loc 1 347 5 is_stmt 0 view .LVU10
  61 0018 FFF7FEFF 		bl	OSSchedLock
  62              	.LVL2:
 348:..\..\..\..\..\..\Software\uCOS-III\Source/os_tmr.c ****     switch (p_tmr->State) {
  63              		.loc 1 348 5 is_stmt 1 view .LVU11
  64              		.loc 1 348 18 is_stmt 0 view .LVU12
  65 001c 2A23     		movs	r3, #42
  66 001e E35C     		ldrb	r3, [r4, r3]
  67              		.loc 1 348 5 view .LVU13
  68 0020 012B     		cmp	r3, #1
  69 0022 23D0     		beq	.L5
  70 0024 002B     		cmp	r3, #0
  71 0026 3AD0     		beq	.L6
  72 0028 022B     		cmp	r3, #2
  73 002a 13D0     		beq	.L7
  74 002c 032B     		cmp	r3, #3
  75 002e 2ED0     		beq	.L8
 349:..\..\..\..\..\..\Software\uCOS-III\Source/os_tmr.c ****         case OS_TMR_STATE_RUNNING:
 350:..\..\..\..\..\..\Software\uCOS-III\Source/os_tmr.c ****              remain        = p_tmr->Match                   /* Determine how much time is left to t
 351:..\..\..\..\..\..\Software\uCOS-III\Source/os_tmr.c ****                            - OSTmrTickCtr;
 352:..\..\..\..\..\..\Software\uCOS-III\Source/os_tmr.c ****              p_tmr->Remain = remain;
 353:..\..\..\..\..\..\Software\uCOS-III\Source/os_tmr.c ****              OSSchedUnlock(&err);
 354:..\..\..\..\..\..\Software\uCOS-III\Source/os_tmr.c ****             *p_err         = OS_ERR_NONE;
 355:..\..\..\..\..\..\Software\uCOS-III\Source/os_tmr.c ****              break;
 356:..\..\..\..\..\..\Software\uCOS-III\Source/os_tmr.c **** 
 357:..\..\..\..\..\..\Software\uCOS-III\Source/os_tmr.c ****         case OS_TMR_STATE_STOPPED:                          /* It's assumed that the timer has not 
 358:..\..\..\..\..\..\Software\uCOS-III\Source/os_tmr.c ****              if (p_tmr->Opt == OS_OPT_TMR_PERIODIC) {
 359:..\..\..\..\..\..\Software\uCOS-III\Source/os_tmr.c ****                  if (p_tmr->Dly == 0u) {
 360:..\..\..\..\..\..\Software\uCOS-III\Source/os_tmr.c ****                      remain = p_tmr->Period;
 361:..\..\..\..\..\..\Software\uCOS-III\Source/os_tmr.c ****                  } else {
 362:..\..\..\..\..\..\Software\uCOS-III\Source/os_tmr.c ****                      remain = p_tmr->Dly;
 363:..\..\..\..\..\..\Software\uCOS-III\Source/os_tmr.c ****                  }
 364:..\..\..\..\..\..\Software\uCOS-III\Source/os_tmr.c ****              } else {
 365:..\..\..\..\..\..\Software\uCOS-III\Source/os_tmr.c ****                  remain = p_tmr->Dly;
 366:..\..\..\..\..\..\Software\uCOS-III\Source/os_tmr.c ****              }
 367:..\..\..\..\..\..\Software\uCOS-III\Source/os_tmr.c ****              p_tmr->Remain = remain;
 368:..\..\..\..\..\..\Software\uCOS-III\Source/os_tmr.c ****              OSSchedUnlock(&err);
 369:..\..\..\..\..\..\Software\uCOS-III\Source/os_tmr.c ****             *p_err         = OS_ERR_NONE;
 370:..\..\..\..\..\..\Software\uCOS-III\Source/os_tmr.c ****              break;
 371:..\..\..\..\..\..\Software\uCOS-III\Source/os_tmr.c **** 
 372:..\..\..\..\..\..\Software\uCOS-III\Source/os_tmr.c ****         case OS_TMR_STATE_COMPLETED:                        /* Only ONE-SHOT that timed out can be 
 373:..\..\..\..\..\..\Software\uCOS-III\Source/os_tmr.c ****              OSSchedUnlock(&err);
 374:..\..\..\..\..\..\Software\uCOS-III\Source/os_tmr.c ****             *p_err  = OS_ERR_NONE;
 375:..\..\..\..\..\..\Software\uCOS-III\Source/os_tmr.c ****              remain = (OS_TICK)0;
 376:..\..\..\..\..\..\Software\uCOS-III\Source/os_tmr.c ****              break;
 377:..\..\..\..\..\..\Software\uCOS-III\Source/os_tmr.c **** 
 378:..\..\..\..\..\..\Software\uCOS-III\Source/os_tmr.c ****         case OS_TMR_STATE_UNUSED:
 379:..\..\..\..\..\..\Software\uCOS-III\Source/os_tmr.c ****              OSSchedUnlock(&err);
 380:..\..\..\..\..\..\Software\uCOS-III\Source/os_tmr.c ****             *p_err  = OS_ERR_TMR_INACTIVE;
 381:..\..\..\..\..\..\Software\uCOS-III\Source/os_tmr.c ****              remain = (OS_TICK)0;
ARM GAS  C:\Users\EDULU~1.DES\AppData\Local\Temp\ccmSuQZN.s 			page 9


 382:..\..\..\..\..\..\Software\uCOS-III\Source/os_tmr.c ****              break;
 383:..\..\..\..\..\..\Software\uCOS-III\Source/os_tmr.c **** 
 384:..\..\..\..\..\..\Software\uCOS-III\Source/os_tmr.c ****         default:
 385:..\..\..\..\..\..\Software\uCOS-III\Source/os_tmr.c ****              OSSchedUnlock(&err);
  76              		.loc 1 385 14 is_stmt 1 view .LVU14
  77 0030 6B46     		mov	r3, sp
  78 0032 981D     		adds	r0, r3, #6
  79 0034 FFF7FEFF 		bl	OSSchedUnlock
  80              	.LVL3:
 386:..\..\..\..\..\..\Software\uCOS-III\Source/os_tmr.c ****             *p_err = OS_ERR_TMR_INVALID_STATE;
  81              		.loc 1 386 13 view .LVU15
  82              		.loc 1 386 20 is_stmt 0 view .LVU16
  83 0038 1E4B     		ldr	r3, .L16+4
  84 003a 3380     		strh	r3, [r6]
 387:..\..\..\..\..\..\Software\uCOS-III\Source/os_tmr.c ****              remain = (OS_TICK)0;
  85              		.loc 1 387 14 is_stmt 1 view .LVU17
  86              	.LVL4:
 388:..\..\..\..\..\..\Software\uCOS-III\Source/os_tmr.c ****              break;
  87              		.loc 1 388 14 view .LVU18
 387:..\..\..\..\..\..\Software\uCOS-III\Source/os_tmr.c ****              remain = (OS_TICK)0;
  88              		.loc 1 387 21 is_stmt 0 view .LVU19
  89 003c 0025     		movs	r5, #0
  90              		.loc 1 388 14 view .LVU20
  91 003e 02E0     		b	.L1
  92              	.LVL5:
  93              	.L13:
 328:..\..\..\..\..\..\Software\uCOS-III\Source/os_tmr.c ****         return ((OS_TICK)0);
  94              		.loc 1 328 8 is_stmt 1 view .LVU21
 328:..\..\..\..\..\..\Software\uCOS-III\Source/os_tmr.c ****         return ((OS_TICK)0);
  95              		.loc 1 328 15 is_stmt 0 view .LVU22
  96 0040 1D4B     		ldr	r3, .L16+8
  97 0042 0B80     		strh	r3, [r1]
 329:..\..\..\..\..\..\Software\uCOS-III\Source/os_tmr.c ****     }
  98              		.loc 1 329 9 is_stmt 1 view .LVU23
 329:..\..\..\..\..\..\Software\uCOS-III\Source/os_tmr.c ****     }
  99              		.loc 1 329 16 is_stmt 0 view .LVU24
 100 0044 0025     		movs	r5, #0
 101              	.LVL6:
 102              	.L1:
 389:..\..\..\..\..\..\Software\uCOS-III\Source/os_tmr.c ****     }
 390:..\..\..\..\..\..\Software\uCOS-III\Source/os_tmr.c ****     return (remain);
 391:..\..\..\..\..\..\Software\uCOS-III\Source/os_tmr.c **** }
 103              		.loc 1 391 1 view .LVU25
 104 0046 2800     		movs	r0, r5
 105 0048 02B0     		add	sp, sp, #8
 106              		@ sp needed
 107              	.LVL7:
 108              	.LVL8:
 109              		.loc 1 391 1 view .LVU26
 110 004a 70BD     		pop	{r4, r5, r6, pc}
 111              	.LVL9:
 112              	.L14:
 335:..\..\..\..\..\..\Software\uCOS-III\Source/os_tmr.c ****         return ((OS_TICK)0);
 113              		.loc 1 335 8 is_stmt 1 view .LVU27
 335:..\..\..\..\..\..\Software\uCOS-III\Source/os_tmr.c ****         return ((OS_TICK)0);
 114              		.loc 1 335 15 is_stmt 0 view .LVU28
 115 004c 1B4B     		ldr	r3, .L16+12
ARM GAS  C:\Users\EDULU~1.DES\AppData\Local\Temp\ccmSuQZN.s 			page 10


 116 004e 0B80     		strh	r3, [r1]
 336:..\..\..\..\..\..\Software\uCOS-III\Source/os_tmr.c ****     }
 117              		.loc 1 336 9 is_stmt 1 view .LVU29
 336:..\..\..\..\..\..\Software\uCOS-III\Source/os_tmr.c ****     }
 118              		.loc 1 336 16 is_stmt 0 view .LVU30
 119 0050 0025     		movs	r5, #0
 120 0052 F8E7     		b	.L1
 121              	.LVL10:
 122              	.L7:
 350:..\..\..\..\..\..\Software\uCOS-III\Source/os_tmr.c ****                            - OSTmrTickCtr;
 123              		.loc 1 350 14 is_stmt 1 view .LVU31
 351:..\..\..\..\..\..\Software\uCOS-III\Source/os_tmr.c ****              p_tmr->Remain = remain;
 124              		.loc 1 351 28 is_stmt 0 view .LVU32
 125 0054 1A4B     		ldr	r3, .L16+16
 126 0056 1D68     		ldr	r5, [r3]
 350:..\..\..\..\..\..\Software\uCOS-III\Source/os_tmr.c ****                            - OSTmrTickCtr;
 127              		.loc 1 350 28 view .LVU33
 128 0058 A369     		ldr	r3, [r4, #24]
 129 005a 5D1B     		subs	r5, r3, r5
 130              	.LVL11:
 352:..\..\..\..\..\..\Software\uCOS-III\Source/os_tmr.c ****              OSSchedUnlock(&err);
 131              		.loc 1 352 14 is_stmt 1 view .LVU34
 352:..\..\..\..\..\..\Software\uCOS-III\Source/os_tmr.c ****              OSSchedUnlock(&err);
 132              		.loc 1 352 28 is_stmt 0 view .LVU35
 133 005c E561     		str	r5, [r4, #28]
 353:..\..\..\..\..\..\Software\uCOS-III\Source/os_tmr.c ****             *p_err         = OS_ERR_NONE;
 134              		.loc 1 353 14 is_stmt 1 view .LVU36
 135 005e 6B46     		mov	r3, sp
 136 0060 981D     		adds	r0, r3, #6
 137 0062 FFF7FEFF 		bl	OSSchedUnlock
 138              	.LVL12:
 354:..\..\..\..\..\..\Software\uCOS-III\Source/os_tmr.c ****              break;
 139              		.loc 1 354 13 view .LVU37
 354:..\..\..\..\..\..\Software\uCOS-III\Source/os_tmr.c ****              break;
 140              		.loc 1 354 28 is_stmt 0 view .LVU38
 141 0066 0023     		movs	r3, #0
 142 0068 3380     		strh	r3, [r6]
 355:..\..\..\..\..\..\Software\uCOS-III\Source/os_tmr.c **** 
 143              		.loc 1 355 14 is_stmt 1 view .LVU39
 144 006a ECE7     		b	.L1
 145              	.LVL13:
 146              	.L5:
 358:..\..\..\..\..\..\Software\uCOS-III\Source/os_tmr.c ****                  if (p_tmr->Dly == 0u) {
 147              		.loc 1 358 14 view .LVU40
 358:..\..\..\..\..\..\Software\uCOS-III\Source/os_tmr.c ****                  if (p_tmr->Dly == 0u) {
 148              		.loc 1 358 23 is_stmt 0 view .LVU41
 149 006c 238D     		ldrh	r3, [r4, #40]
 358:..\..\..\..\..\..\Software\uCOS-III\Source/os_tmr.c ****                  if (p_tmr->Dly == 0u) {
 150              		.loc 1 358 17 view .LVU42
 151 006e 022B     		cmp	r3, #2
 152 0070 08D0     		beq	.L15
 365:..\..\..\..\..\..\Software\uCOS-III\Source/os_tmr.c ****              }
 153              		.loc 1 365 18 is_stmt 1 view .LVU43
 365:..\..\..\..\..\..\Software\uCOS-III\Source/os_tmr.c ****              }
 154              		.loc 1 365 25 is_stmt 0 view .LVU44
 155 0072 256A     		ldr	r5, [r4, #32]
 156              	.LVL14:
ARM GAS  C:\Users\EDULU~1.DES\AppData\Local\Temp\ccmSuQZN.s 			page 11


 157              	.L11:
 367:..\..\..\..\..\..\Software\uCOS-III\Source/os_tmr.c ****              OSSchedUnlock(&err);
 158              		.loc 1 367 14 is_stmt 1 view .LVU45
 367:..\..\..\..\..\..\Software\uCOS-III\Source/os_tmr.c ****              OSSchedUnlock(&err);
 159              		.loc 1 367 28 is_stmt 0 view .LVU46
 160 0074 E561     		str	r5, [r4, #28]
 368:..\..\..\..\..\..\Software\uCOS-III\Source/os_tmr.c ****             *p_err         = OS_ERR_NONE;
 161              		.loc 1 368 14 is_stmt 1 view .LVU47
 162 0076 6B46     		mov	r3, sp
 163 0078 981D     		adds	r0, r3, #6
 164 007a FFF7FEFF 		bl	OSSchedUnlock
 165              	.LVL15:
 369:..\..\..\..\..\..\Software\uCOS-III\Source/os_tmr.c ****              break;
 166              		.loc 1 369 13 view .LVU48
 369:..\..\..\..\..\..\Software\uCOS-III\Source/os_tmr.c ****              break;
 167              		.loc 1 369 28 is_stmt 0 view .LVU49
 168 007e 0023     		movs	r3, #0
 169 0080 3380     		strh	r3, [r6]
 370:..\..\..\..\..\..\Software\uCOS-III\Source/os_tmr.c **** 
 170              		.loc 1 370 14 is_stmt 1 view .LVU50
 171 0082 E0E7     		b	.L1
 172              	.LVL16:
 173              	.L15:
 359:..\..\..\..\..\..\Software\uCOS-III\Source/os_tmr.c ****                      remain = p_tmr->Period;
 174              		.loc 1 359 18 view .LVU51
 359:..\..\..\..\..\..\Software\uCOS-III\Source/os_tmr.c ****                      remain = p_tmr->Period;
 175              		.loc 1 359 27 is_stmt 0 view .LVU52
 176 0084 256A     		ldr	r5, [r4, #32]
 359:..\..\..\..\..\..\Software\uCOS-III\Source/os_tmr.c ****                      remain = p_tmr->Period;
 177              		.loc 1 359 21 view .LVU53
 178 0086 002D     		cmp	r5, #0
 179 0088 F4D1     		bne	.L11
 360:..\..\..\..\..\..\Software\uCOS-III\Source/os_tmr.c ****                  } else {
 180              		.loc 1 360 22 is_stmt 1 view .LVU54
 360:..\..\..\..\..\..\Software\uCOS-III\Source/os_tmr.c ****                  } else {
 181              		.loc 1 360 29 is_stmt 0 view .LVU55
 182 008a 656A     		ldr	r5, [r4, #36]
 183              	.LVL17:
 360:..\..\..\..\..\..\Software\uCOS-III\Source/os_tmr.c ****                  } else {
 184              		.loc 1 360 29 view .LVU56
 185 008c F2E7     		b	.L11
 186              	.LVL18:
 187              	.L8:
 373:..\..\..\..\..\..\Software\uCOS-III\Source/os_tmr.c ****             *p_err  = OS_ERR_NONE;
 188              		.loc 1 373 14 is_stmt 1 view .LVU57
 189 008e 6B46     		mov	r3, sp
 190 0090 981D     		adds	r0, r3, #6
 191 0092 FFF7FEFF 		bl	OSSchedUnlock
 192              	.LVL19:
 374:..\..\..\..\..\..\Software\uCOS-III\Source/os_tmr.c ****              remain = (OS_TICK)0;
 193              		.loc 1 374 13 view .LVU58
 374:..\..\..\..\..\..\Software\uCOS-III\Source/os_tmr.c ****              remain = (OS_TICK)0;
 194              		.loc 1 374 21 is_stmt 0 view .LVU59
 195 0096 0023     		movs	r3, #0
 196 0098 3380     		strh	r3, [r6]
 375:..\..\..\..\..\..\Software\uCOS-III\Source/os_tmr.c ****              break;
 197              		.loc 1 375 14 is_stmt 1 view .LVU60
ARM GAS  C:\Users\EDULU~1.DES\AppData\Local\Temp\ccmSuQZN.s 			page 12


 198              	.LVL20:
 376:..\..\..\..\..\..\Software\uCOS-III\Source/os_tmr.c **** 
 199              		.loc 1 376 14 view .LVU61
 375:..\..\..\..\..\..\Software\uCOS-III\Source/os_tmr.c ****              break;
 200              		.loc 1 375 21 is_stmt 0 view .LVU62
 201 009a 0025     		movs	r5, #0
 376:..\..\..\..\..\..\Software\uCOS-III\Source/os_tmr.c **** 
 202              		.loc 1 376 14 view .LVU63
 203 009c D3E7     		b	.L1
 204              	.LVL21:
 205              	.L6:
 379:..\..\..\..\..\..\Software\uCOS-III\Source/os_tmr.c ****             *p_err  = OS_ERR_TMR_INACTIVE;
 206              		.loc 1 379 14 is_stmt 1 view .LVU64
 207 009e 6B46     		mov	r3, sp
 208 00a0 981D     		adds	r0, r3, #6
 209 00a2 FFF7FEFF 		bl	OSSchedUnlock
 210              	.LVL22:
 380:..\..\..\..\..\..\Software\uCOS-III\Source/os_tmr.c ****              remain = (OS_TICK)0;
 211              		.loc 1 380 13 view .LVU65
 380:..\..\..\..\..\..\Software\uCOS-III\Source/os_tmr.c ****              remain = (OS_TICK)0;
 212              		.loc 1 380 21 is_stmt 0 view .LVU66
 213 00a6 074B     		ldr	r3, .L16+20
 214 00a8 3380     		strh	r3, [r6]
 381:..\..\..\..\..\..\Software\uCOS-III\Source/os_tmr.c ****              break;
 215              		.loc 1 381 14 is_stmt 1 view .LVU67
 216              	.LVL23:
 382:..\..\..\..\..\..\Software\uCOS-III\Source/os_tmr.c **** 
 217              		.loc 1 382 14 view .LVU68
 381:..\..\..\..\..\..\Software\uCOS-III\Source/os_tmr.c ****              break;
 218              		.loc 1 381 21 is_stmt 0 view .LVU69
 219 00aa 0025     		movs	r5, #0
 382:..\..\..\..\..\..\Software\uCOS-III\Source/os_tmr.c **** 
 220              		.loc 1 382 14 view .LVU70
 221 00ac CBE7     		b	.L1
 222              	.L17:
 223 00ae C046     		.align	2
 224              	.L16:
 225 00b0 00000000 		.word	OSIntNestingCtr
 226 00b4 41730000 		.word	29505
 227 00b8 43730000 		.word	29507
 228 00bc 42730000 		.word	29506
 229 00c0 00000000 		.word	OSTmrTickCtr
 230 00c4 3D730000 		.word	29501
 231              		.cfi_endproc
 232              	.LFE4:
 233              		.size	OSTmrRemainGet, .-OSTmrRemainGet
 234              		.section	.text.OSTmrStateGet,"ax",%progbits
 235              		.align	1
 236              		.global	OSTmrStateGet
 237              		.syntax unified
 238              		.code	16
 239              		.thumb_func
 240              		.fpu softvfp
 241              		.type	OSTmrStateGet, %function
 242              	OSTmrStateGet:
 243              	.LVL24:
 244              	.LFB6:
ARM GAS  C:\Users\EDULU~1.DES\AppData\Local\Temp\ccmSuQZN.s 			page 13


 392:..\..\..\..\..\..\Software\uCOS-III\Source/os_tmr.c **** 
 393:..\..\..\..\..\..\Software\uCOS-III\Source/os_tmr.c **** /*$PAGE*/
 394:..\..\..\..\..\..\Software\uCOS-III\Source/os_tmr.c **** /*
 395:..\..\..\..\..\..\Software\uCOS-III\Source/os_tmr.c **** ***************************************************************************************************
 396:..\..\..\..\..\..\Software\uCOS-III\Source/os_tmr.c **** *                                                   START A TIMER
 397:..\..\..\..\..\..\Software\uCOS-III\Source/os_tmr.c **** *
 398:..\..\..\..\..\..\Software\uCOS-III\Source/os_tmr.c **** * Description: This function is called by your application code to start a timer.
 399:..\..\..\..\..\..\Software\uCOS-III\Source/os_tmr.c **** *
 400:..\..\..\..\..\..\Software\uCOS-III\Source/os_tmr.c **** * Arguments  : p_tmr    Is a pointer to an OS_TMR
 401:..\..\..\..\..\..\Software\uCOS-III\Source/os_tmr.c **** *
 402:..\..\..\..\..\..\Software\uCOS-III\Source/os_tmr.c **** *              p_err    Is a pointer to an error code.  '*p_err' will contain one of the following:
 403:..\..\..\..\..\..\Software\uCOS-III\Source/os_tmr.c **** *
 404:..\..\..\..\..\..\Software\uCOS-III\Source/os_tmr.c **** *                           OS_ERR_NONE
 405:..\..\..\..\..\..\Software\uCOS-III\Source/os_tmr.c **** *                           OS_ERR_OBJ_TYPE            if 'p_tmr' is not pointing to a timer
 406:..\..\..\..\..\..\Software\uCOS-III\Source/os_tmr.c **** *                           OS_ERR_TMR_INVALID
 407:..\..\..\..\..\..\Software\uCOS-III\Source/os_tmr.c **** *                           OS_ERR_TMR_INACTIVE        if the timer was not created
 408:..\..\..\..\..\..\Software\uCOS-III\Source/os_tmr.c **** *                           OS_ERR_TMR_INVALID_STATE   the timer is in an invalid state
 409:..\..\..\..\..\..\Software\uCOS-III\Source/os_tmr.c **** *                           OS_ERR_TMR_ISR             if the call was made from an ISR
 410:..\..\..\..\..\..\Software\uCOS-III\Source/os_tmr.c **** *
 411:..\..\..\..\..\..\Software\uCOS-III\Source/os_tmr.c **** * Returns    : DEF_TRUE      is the timer was started
 412:..\..\..\..\..\..\Software\uCOS-III\Source/os_tmr.c **** *              DEF_FALSE     if not or upon an error
 413:..\..\..\..\..\..\Software\uCOS-III\Source/os_tmr.c **** *
 414:..\..\..\..\..\..\Software\uCOS-III\Source/os_tmr.c **** * Note(s)    : 1) When starting/restarting a timer, regardless if it is in PERIODIC or ONE-SHOT mod
 415:..\..\..\..\..\..\Software\uCOS-III\Source/os_tmr.c **** *                 linked to the timer wheel with the OS_OPT_LINK_DLY option. This option sets the i
 416:..\..\..\..\..\..\Software\uCOS-III\Source/os_tmr.c **** *                 time for the timer. For timers in PERIODIC mode, subsequent expiration times are 
 417:..\..\..\..\..\..\Software\uCOS-III\Source/os_tmr.c **** *                 the OS_TmrTask().
 418:..\..\..\..\..\..\Software\uCOS-III\Source/os_tmr.c **** ***************************************************************************************************
 419:..\..\..\..\..\..\Software\uCOS-III\Source/os_tmr.c **** */
 420:..\..\..\..\..\..\Software\uCOS-III\Source/os_tmr.c **** 
 421:..\..\..\..\..\..\Software\uCOS-III\Source/os_tmr.c **** CPU_BOOLEAN  OSTmrStart (OS_TMR  *p_tmr,
 422:..\..\..\..\..\..\Software\uCOS-III\Source/os_tmr.c ****                          OS_ERR  *p_err)
 423:..\..\..\..\..\..\Software\uCOS-III\Source/os_tmr.c **** {
 424:..\..\..\..\..\..\Software\uCOS-III\Source/os_tmr.c ****     OS_ERR       err;
 425:..\..\..\..\..\..\Software\uCOS-III\Source/os_tmr.c ****     CPU_BOOLEAN  success;
 426:..\..\..\..\..\..\Software\uCOS-III\Source/os_tmr.c **** 
 427:..\..\..\..\..\..\Software\uCOS-III\Source/os_tmr.c **** 
 428:..\..\..\..\..\..\Software\uCOS-III\Source/os_tmr.c **** 
 429:..\..\..\..\..\..\Software\uCOS-III\Source/os_tmr.c **** #ifdef OS_SAFETY_CRITICAL
 430:..\..\..\..\..\..\Software\uCOS-III\Source/os_tmr.c ****     if (p_err == (OS_ERR *)0) {
 431:..\..\..\..\..\..\Software\uCOS-III\Source/os_tmr.c ****         OS_SAFETY_CRITICAL_EXCEPTION();
 432:..\..\..\..\..\..\Software\uCOS-III\Source/os_tmr.c ****         return (DEF_FALSE);
 433:..\..\..\..\..\..\Software\uCOS-III\Source/os_tmr.c ****     }
 434:..\..\..\..\..\..\Software\uCOS-III\Source/os_tmr.c **** #endif
 435:..\..\..\..\..\..\Software\uCOS-III\Source/os_tmr.c **** 
 436:..\..\..\..\..\..\Software\uCOS-III\Source/os_tmr.c **** #if OS_CFG_CALLED_FROM_ISR_CHK_EN > 0u
 437:..\..\..\..\..\..\Software\uCOS-III\Source/os_tmr.c ****     if (OSIntNestingCtr > (OS_NESTING_CTR)0) {              /* See if trying to call from an ISR   
 438:..\..\..\..\..\..\Software\uCOS-III\Source/os_tmr.c ****        *p_err = OS_ERR_TMR_ISR;
 439:..\..\..\..\..\..\Software\uCOS-III\Source/os_tmr.c ****         return (DEF_FALSE);
 440:..\..\..\..\..\..\Software\uCOS-III\Source/os_tmr.c ****     }
 441:..\..\..\..\..\..\Software\uCOS-III\Source/os_tmr.c **** #endif
 442:..\..\..\..\..\..\Software\uCOS-III\Source/os_tmr.c **** 
 443:..\..\..\..\..\..\Software\uCOS-III\Source/os_tmr.c **** #if OS_CFG_ARG_CHK_EN > 0u
 444:..\..\..\..\..\..\Software\uCOS-III\Source/os_tmr.c ****     if (p_tmr == (OS_TMR *)0) {
 445:..\..\..\..\..\..\Software\uCOS-III\Source/os_tmr.c ****        *p_err = OS_ERR_TMR_INVALID;
 446:..\..\..\..\..\..\Software\uCOS-III\Source/os_tmr.c ****         return (DEF_FALSE);
 447:..\..\..\..\..\..\Software\uCOS-III\Source/os_tmr.c ****     }
 448:..\..\..\..\..\..\Software\uCOS-III\Source/os_tmr.c **** #endif
ARM GAS  C:\Users\EDULU~1.DES\AppData\Local\Temp\ccmSuQZN.s 			page 14


 449:..\..\..\..\..\..\Software\uCOS-III\Source/os_tmr.c **** 
 450:..\..\..\..\..\..\Software\uCOS-III\Source/os_tmr.c **** #if OS_CFG_OBJ_TYPE_CHK_EN > 0u
 451:..\..\..\..\..\..\Software\uCOS-III\Source/os_tmr.c ****     if (p_tmr->Type != OS_OBJ_TYPE_TMR) {                   /* Make sure timer was created         
 452:..\..\..\..\..\..\Software\uCOS-III\Source/os_tmr.c ****        *p_err = OS_ERR_OBJ_TYPE;
 453:..\..\..\..\..\..\Software\uCOS-III\Source/os_tmr.c ****         return (DEF_FALSE);
 454:..\..\..\..\..\..\Software\uCOS-III\Source/os_tmr.c ****     }
 455:..\..\..\..\..\..\Software\uCOS-III\Source/os_tmr.c **** #endif
 456:..\..\..\..\..\..\Software\uCOS-III\Source/os_tmr.c **** 
 457:..\..\..\..\..\..\Software\uCOS-III\Source/os_tmr.c ****     OSSchedLock(&err);
 458:..\..\..\..\..\..\Software\uCOS-III\Source/os_tmr.c ****     switch (p_tmr->State) {
 459:..\..\..\..\..\..\Software\uCOS-III\Source/os_tmr.c ****         case OS_TMR_STATE_RUNNING:                          /* Restart the timer                   
 460:..\..\..\..\..\..\Software\uCOS-III\Source/os_tmr.c ****              OS_TmrUnlink(p_tmr);                           /* ... Stop the timer                  
 461:..\..\..\..\..\..\Software\uCOS-III\Source/os_tmr.c ****              OS_TmrLink(p_tmr, OS_OPT_LINK_DLY);            /* ... Link timer to timer wheel (see N
 462:..\..\..\..\..\..\Software\uCOS-III\Source/os_tmr.c ****              OSSchedUnlock(&err);
 463:..\..\..\..\..\..\Software\uCOS-III\Source/os_tmr.c ****             *p_err   = OS_ERR_NONE;
 464:..\..\..\..\..\..\Software\uCOS-III\Source/os_tmr.c ****              success = DEF_TRUE;
 465:..\..\..\..\..\..\Software\uCOS-III\Source/os_tmr.c ****              break;
 466:..\..\..\..\..\..\Software\uCOS-III\Source/os_tmr.c **** 
 467:..\..\..\..\..\..\Software\uCOS-III\Source/os_tmr.c ****         case OS_TMR_STATE_STOPPED:                          /* Start the timer                     
 468:..\..\..\..\..\..\Software\uCOS-III\Source/os_tmr.c ****         case OS_TMR_STATE_COMPLETED:
 469:..\..\..\..\..\..\Software\uCOS-III\Source/os_tmr.c ****              OS_TmrLink(p_tmr, OS_OPT_LINK_DLY);            /* ... Link timer to timer wheel (see N
 470:..\..\..\..\..\..\Software\uCOS-III\Source/os_tmr.c ****              OSSchedUnlock(&err);
 471:..\..\..\..\..\..\Software\uCOS-III\Source/os_tmr.c ****             *p_err   = OS_ERR_NONE;
 472:..\..\..\..\..\..\Software\uCOS-III\Source/os_tmr.c ****              success = DEF_TRUE;
 473:..\..\..\..\..\..\Software\uCOS-III\Source/os_tmr.c ****              break;
 474:..\..\..\..\..\..\Software\uCOS-III\Source/os_tmr.c **** 
 475:..\..\..\..\..\..\Software\uCOS-III\Source/os_tmr.c ****         case OS_TMR_STATE_UNUSED:                           /* Timer not created                   
 476:..\..\..\..\..\..\Software\uCOS-III\Source/os_tmr.c ****              OSSchedUnlock(&err);
 477:..\..\..\..\..\..\Software\uCOS-III\Source/os_tmr.c ****             *p_err   = OS_ERR_TMR_INACTIVE;
 478:..\..\..\..\..\..\Software\uCOS-III\Source/os_tmr.c ****              success = DEF_FALSE;
 479:..\..\..\..\..\..\Software\uCOS-III\Source/os_tmr.c ****              break;
 480:..\..\..\..\..\..\Software\uCOS-III\Source/os_tmr.c **** 
 481:..\..\..\..\..\..\Software\uCOS-III\Source/os_tmr.c ****         default:
 482:..\..\..\..\..\..\Software\uCOS-III\Source/os_tmr.c ****              OSSchedUnlock(&err);
 483:..\..\..\..\..\..\Software\uCOS-III\Source/os_tmr.c ****             *p_err = OS_ERR_TMR_INVALID_STATE;
 484:..\..\..\..\..\..\Software\uCOS-III\Source/os_tmr.c ****              success = DEF_FALSE;
 485:..\..\..\..\..\..\Software\uCOS-III\Source/os_tmr.c ****              break;
 486:..\..\..\..\..\..\Software\uCOS-III\Source/os_tmr.c ****     }
 487:..\..\..\..\..\..\Software\uCOS-III\Source/os_tmr.c ****     return (success);
 488:..\..\..\..\..\..\Software\uCOS-III\Source/os_tmr.c **** }
 489:..\..\..\..\..\..\Software\uCOS-III\Source/os_tmr.c **** 
 490:..\..\..\..\..\..\Software\uCOS-III\Source/os_tmr.c **** /*$PAGE*/
 491:..\..\..\..\..\..\Software\uCOS-III\Source/os_tmr.c **** /*
 492:..\..\..\..\..\..\Software\uCOS-III\Source/os_tmr.c **** ***************************************************************************************************
 493:..\..\..\..\..\..\Software\uCOS-III\Source/os_tmr.c **** *                                           FIND OUT WHAT STATE A TIMER IS IN
 494:..\..\..\..\..\..\Software\uCOS-III\Source/os_tmr.c **** *
 495:..\..\..\..\..\..\Software\uCOS-III\Source/os_tmr.c **** * Description: This function is called to determine what state the timer is in:
 496:..\..\..\..\..\..\Software\uCOS-III\Source/os_tmr.c **** *
 497:..\..\..\..\..\..\Software\uCOS-III\Source/os_tmr.c **** *                  OS_TMR_STATE_UNUSED     the timer has not been created
 498:..\..\..\..\..\..\Software\uCOS-III\Source/os_tmr.c **** *                  OS_TMR_STATE_STOPPED    the timer has been created but has not been started or h
 499:..\..\..\..\..\..\Software\uCOS-III\Source/os_tmr.c **** *                  OS_TMR_COMPLETED        the timer is in ONE-SHOT mode and has completed it's tim
 500:..\..\..\..\..\..\Software\uCOS-III\Source/os_tmr.c **** *                  OS_TMR_RUNNING          the timer is currently running
 501:..\..\..\..\..\..\Software\uCOS-III\Source/os_tmr.c **** *
 502:..\..\..\..\..\..\Software\uCOS-III\Source/os_tmr.c **** * Arguments  : p_tmr    Is a pointer to the desired timer
 503:..\..\..\..\..\..\Software\uCOS-III\Source/os_tmr.c **** *
 504:..\..\..\..\..\..\Software\uCOS-III\Source/os_tmr.c **** *              p_err    Is a pointer to an error code.  '*p_err' will contain one of the following:
 505:..\..\..\..\..\..\Software\uCOS-III\Source/os_tmr.c **** *
ARM GAS  C:\Users\EDULU~1.DES\AppData\Local\Temp\ccmSuQZN.s 			page 15


 506:..\..\..\..\..\..\Software\uCOS-III\Source/os_tmr.c **** *                           OS_ERR_NONE
 507:..\..\..\..\..\..\Software\uCOS-III\Source/os_tmr.c **** *                           OS_ERR_OBJ_TYPE            if 'p_tmr' is not pointing to a timer
 508:..\..\..\..\..\..\Software\uCOS-III\Source/os_tmr.c **** *                           OS_ERR_TMR_INVALID        'p_tmr' is a NULL pointer
 509:..\..\..\..\..\..\Software\uCOS-III\Source/os_tmr.c **** *                           OS_ERR_TMR_INVALID_STATE  if the timer is not in a valid state
 510:..\..\..\..\..\..\Software\uCOS-III\Source/os_tmr.c **** *                           OS_ERR_TMR_ISR            if the call was made from an ISR
 511:..\..\..\..\..\..\Software\uCOS-III\Source/os_tmr.c **** *
 512:..\..\..\..\..\..\Software\uCOS-III\Source/os_tmr.c **** * Returns    : The current state of the timer (see description).
 513:..\..\..\..\..\..\Software\uCOS-III\Source/os_tmr.c **** ***************************************************************************************************
 514:..\..\..\..\..\..\Software\uCOS-III\Source/os_tmr.c **** */
 515:..\..\..\..\..\..\Software\uCOS-III\Source/os_tmr.c **** 
 516:..\..\..\..\..\..\Software\uCOS-III\Source/os_tmr.c **** OS_STATE  OSTmrStateGet (OS_TMR  *p_tmr,
 517:..\..\..\..\..\..\Software\uCOS-III\Source/os_tmr.c ****                          OS_ERR  *p_err)
 518:..\..\..\..\..\..\Software\uCOS-III\Source/os_tmr.c **** {
 245              		.loc 1 518 1 is_stmt 1 view -0
 246              		.cfi_startproc
 247              		@ args = 0, pretend = 0, frame = 0
 248              		@ frame_needed = 0, uses_anonymous_args = 0
 249              		.loc 1 518 1 is_stmt 0 view .LVU72
 250 0000 70B5     		push	{r4, r5, r6, lr}
 251              		.cfi_def_cfa_offset 16
 252              		.cfi_offset 4, -16
 253              		.cfi_offset 5, -12
 254              		.cfi_offset 6, -8
 255              		.cfi_offset 14, -4
 256 0002 0400     		movs	r4, r0
 257 0004 0D00     		movs	r5, r1
 519:..\..\..\..\..\..\Software\uCOS-III\Source/os_tmr.c ****     OS_STATE  state;
 258              		.loc 1 519 5 is_stmt 1 view .LVU73
 520:..\..\..\..\..\..\Software\uCOS-III\Source/os_tmr.c ****     CPU_SR_ALLOC();
 259              		.loc 1 520 5 view .LVU74
 260              	.LVL25:
 521:..\..\..\..\..\..\Software\uCOS-III\Source/os_tmr.c **** 
 522:..\..\..\..\..\..\Software\uCOS-III\Source/os_tmr.c **** 
 523:..\..\..\..\..\..\Software\uCOS-III\Source/os_tmr.c **** 
 524:..\..\..\..\..\..\Software\uCOS-III\Source/os_tmr.c **** #ifdef OS_SAFETY_CRITICAL
 525:..\..\..\..\..\..\Software\uCOS-III\Source/os_tmr.c ****     if (p_err == (OS_ERR *)0) {
 526:..\..\..\..\..\..\Software\uCOS-III\Source/os_tmr.c ****         OS_SAFETY_CRITICAL_EXCEPTION();
 527:..\..\..\..\..\..\Software\uCOS-III\Source/os_tmr.c ****         return (OS_TMR_STATE_UNUSED);
 528:..\..\..\..\..\..\Software\uCOS-III\Source/os_tmr.c ****     }
 529:..\..\..\..\..\..\Software\uCOS-III\Source/os_tmr.c **** #endif
 530:..\..\..\..\..\..\Software\uCOS-III\Source/os_tmr.c **** 
 531:..\..\..\..\..\..\Software\uCOS-III\Source/os_tmr.c **** #if OS_CFG_CALLED_FROM_ISR_CHK_EN > 0u
 532:..\..\..\..\..\..\Software\uCOS-III\Source/os_tmr.c ****     if (OSIntNestingCtr > (OS_NESTING_CTR)0) {              /* See if trying to call from an ISR   
 261              		.loc 1 532 5 view .LVU75
 262              		.loc 1 532 25 is_stmt 0 view .LVU76
 263 0006 114B     		ldr	r3, .L26
 264 0008 1B78     		ldrb	r3, [r3]
 265              		.loc 1 532 8 view .LVU77
 266 000a 002B     		cmp	r3, #0
 267 000c 13D1     		bne	.L24
 533:..\..\..\..\..\..\Software\uCOS-III\Source/os_tmr.c ****        *p_err = OS_ERR_TMR_ISR;
 534:..\..\..\..\..\..\Software\uCOS-III\Source/os_tmr.c ****         return (OS_TMR_STATE_UNUSED);
 535:..\..\..\..\..\..\Software\uCOS-III\Source/os_tmr.c ****     }
 536:..\..\..\..\..\..\Software\uCOS-III\Source/os_tmr.c **** #endif
 537:..\..\..\..\..\..\Software\uCOS-III\Source/os_tmr.c **** 
 538:..\..\..\..\..\..\Software\uCOS-III\Source/os_tmr.c **** #if OS_CFG_ARG_CHK_EN > 0u
 539:..\..\..\..\..\..\Software\uCOS-III\Source/os_tmr.c ****     if (p_tmr == (OS_TMR *)0) {
ARM GAS  C:\Users\EDULU~1.DES\AppData\Local\Temp\ccmSuQZN.s 			page 16


 268              		.loc 1 539 5 is_stmt 1 view .LVU78
 269              		.loc 1 539 8 is_stmt 0 view .LVU79
 270 000e 0028     		cmp	r0, #0
 271 0010 15D0     		beq	.L25
 540:..\..\..\..\..\..\Software\uCOS-III\Source/os_tmr.c ****        *p_err = OS_ERR_TMR_INVALID;
 541:..\..\..\..\..\..\Software\uCOS-III\Source/os_tmr.c ****         return (OS_TMR_STATE_UNUSED);
 542:..\..\..\..\..\..\Software\uCOS-III\Source/os_tmr.c ****     }
 543:..\..\..\..\..\..\Software\uCOS-III\Source/os_tmr.c **** #endif
 544:..\..\..\..\..\..\Software\uCOS-III\Source/os_tmr.c **** 
 545:..\..\..\..\..\..\Software\uCOS-III\Source/os_tmr.c **** #if OS_CFG_OBJ_TYPE_CHK_EN > 0u
 546:..\..\..\..\..\..\Software\uCOS-III\Source/os_tmr.c ****     if (p_tmr->Type != OS_OBJ_TYPE_TMR) {                   /* Make sure timer was created         
 547:..\..\..\..\..\..\Software\uCOS-III\Source/os_tmr.c ****        *p_err = OS_ERR_OBJ_TYPE;
 548:..\..\..\..\..\..\Software\uCOS-III\Source/os_tmr.c ****         return (OS_TMR_STATE_UNUSED);
 549:..\..\..\..\..\..\Software\uCOS-III\Source/os_tmr.c ****     }
 550:..\..\..\..\..\..\Software\uCOS-III\Source/os_tmr.c **** #endif
 551:..\..\..\..\..\..\Software\uCOS-III\Source/os_tmr.c **** 
 552:..\..\..\..\..\..\Software\uCOS-III\Source/os_tmr.c ****     CPU_CRITICAL_ENTER();
 272              		.loc 1 552 5 is_stmt 1 view .LVU80
 273              		.loc 1 552 5 view .LVU81
 274              		.loc 1 552 5 view .LVU82
 275 0012 FFF7FEFF 		bl	CPU_SR_Save
 276              	.LVL26:
 277              		.loc 1 552 5 is_stmt 0 view .LVU83
 278 0016 0600     		movs	r6, r0
 279              	.LVL27:
 280              		.loc 1 552 5 is_stmt 1 view .LVU84
 281 0018 FFF7FEFF 		bl	CPU_IntDisMeasStart
 282              	.LVL28:
 553:..\..\..\..\..\..\Software\uCOS-III\Source/os_tmr.c ****     state = p_tmr->State;
 283              		.loc 1 553 5 view .LVU85
 284              		.loc 1 553 11 is_stmt 0 view .LVU86
 285 001c 2A23     		movs	r3, #42
 286 001e E45C     		ldrb	r4, [r4, r3]
 287              	.LVL29:
 554:..\..\..\..\..\..\Software\uCOS-III\Source/os_tmr.c ****     switch (state) {
 288              		.loc 1 554 5 is_stmt 1 view .LVU87
 289 0020 032C     		cmp	r4, #3
 290 0022 0FD8     		bhi	.L22
 555:..\..\..\..\..\..\Software\uCOS-III\Source/os_tmr.c ****         case OS_TMR_STATE_UNUSED:
 556:..\..\..\..\..\..\Software\uCOS-III\Source/os_tmr.c ****         case OS_TMR_STATE_STOPPED:
 557:..\..\..\..\..\..\Software\uCOS-III\Source/os_tmr.c ****         case OS_TMR_STATE_COMPLETED:
 558:..\..\..\..\..\..\Software\uCOS-III\Source/os_tmr.c ****         case OS_TMR_STATE_RUNNING:
 559:..\..\..\..\..\..\Software\uCOS-III\Source/os_tmr.c ****             *p_err = OS_ERR_NONE;
 291              		.loc 1 559 13 view .LVU88
 292              		.loc 1 559 20 is_stmt 0 view .LVU89
 293 0024 0023     		movs	r3, #0
 294 0026 2B80     		strh	r3, [r5]
 560:..\..\..\..\..\..\Software\uCOS-III\Source/os_tmr.c ****              break;
 295              		.loc 1 560 14 is_stmt 1 view .LVU90
 296              	.L23:
 561:..\..\..\..\..\..\Software\uCOS-III\Source/os_tmr.c **** 
 562:..\..\..\..\..\..\Software\uCOS-III\Source/os_tmr.c ****         default:
 563:..\..\..\..\..\..\Software\uCOS-III\Source/os_tmr.c ****             *p_err = OS_ERR_TMR_INVALID_STATE;
 564:..\..\..\..\..\..\Software\uCOS-III\Source/os_tmr.c ****              break;
 565:..\..\..\..\..\..\Software\uCOS-III\Source/os_tmr.c ****     }
 566:..\..\..\..\..\..\Software\uCOS-III\Source/os_tmr.c ****     CPU_CRITICAL_EXIT();
 297              		.loc 1 566 5 view .LVU91
ARM GAS  C:\Users\EDULU~1.DES\AppData\Local\Temp\ccmSuQZN.s 			page 17


 298              		.loc 1 566 5 view .LVU92
 299 0028 FFF7FEFF 		bl	CPU_IntDisMeasStop
 300              	.LVL30:
 301              		.loc 1 566 5 view .LVU93
 302              		.loc 1 566 5 view .LVU94
 303 002c 3000     		movs	r0, r6
 304 002e FFF7FEFF 		bl	CPU_SR_Restore
 305              	.LVL31:
 567:..\..\..\..\..\..\Software\uCOS-III\Source/os_tmr.c ****     return (state);
 306              		.loc 1 567 5 view .LVU95
 307              	.L20:
 568:..\..\..\..\..\..\Software\uCOS-III\Source/os_tmr.c **** }
 308              		.loc 1 568 1 is_stmt 0 view .LVU96
 309 0032 2000     		movs	r0, r4
 310              		@ sp needed
 311              	.LVL32:
 312              		.loc 1 568 1 view .LVU97
 313 0034 70BD     		pop	{r4, r5, r6, pc}
 314              	.LVL33:
 315              	.L24:
 533:..\..\..\..\..\..\Software\uCOS-III\Source/os_tmr.c ****         return (OS_TMR_STATE_UNUSED);
 316              		.loc 1 533 8 is_stmt 1 view .LVU98
 533:..\..\..\..\..\..\Software\uCOS-III\Source/os_tmr.c ****         return (OS_TMR_STATE_UNUSED);
 317              		.loc 1 533 15 is_stmt 0 view .LVU99
 318 0036 064B     		ldr	r3, .L26+4
 319 0038 0B80     		strh	r3, [r1]
 534:..\..\..\..\..\..\Software\uCOS-III\Source/os_tmr.c ****     }
 320              		.loc 1 534 9 is_stmt 1 view .LVU100
 534:..\..\..\..\..\..\Software\uCOS-III\Source/os_tmr.c ****     }
 321              		.loc 1 534 16 is_stmt 0 view .LVU101
 322 003a 0024     		movs	r4, #0
 323 003c F9E7     		b	.L20
 324              	.L25:
 540:..\..\..\..\..\..\Software\uCOS-III\Source/os_tmr.c ****         return (OS_TMR_STATE_UNUSED);
 325              		.loc 1 540 8 is_stmt 1 view .LVU102
 540:..\..\..\..\..\..\Software\uCOS-III\Source/os_tmr.c ****         return (OS_TMR_STATE_UNUSED);
 326              		.loc 1 540 15 is_stmt 0 view .LVU103
 327 003e 054B     		ldr	r3, .L26+8
 328 0040 0B80     		strh	r3, [r1]
 541:..\..\..\..\..\..\Software\uCOS-III\Source/os_tmr.c ****     }
 329              		.loc 1 541 9 is_stmt 1 view .LVU104
 541:..\..\..\..\..\..\Software\uCOS-III\Source/os_tmr.c ****     }
 330              		.loc 1 541 16 is_stmt 0 view .LVU105
 331 0042 F6E7     		b	.L20
 332              	.LVL34:
 333              	.L22:
 563:..\..\..\..\..\..\Software\uCOS-III\Source/os_tmr.c ****              break;
 334              		.loc 1 563 13 is_stmt 1 view .LVU106
 563:..\..\..\..\..\..\Software\uCOS-III\Source/os_tmr.c ****              break;
 335              		.loc 1 563 20 is_stmt 0 view .LVU107
 336 0044 044B     		ldr	r3, .L26+12
 337 0046 2B80     		strh	r3, [r5]
 564:..\..\..\..\..\..\Software\uCOS-III\Source/os_tmr.c ****     }
 338              		.loc 1 564 14 is_stmt 1 view .LVU108
 339 0048 EEE7     		b	.L23
 340              	.L27:
 341 004a C046     		.align	2
ARM GAS  C:\Users\EDULU~1.DES\AppData\Local\Temp\ccmSuQZN.s 			page 18


 342              	.L26:
 343 004c 00000000 		.word	OSIntNestingCtr
 344 0050 43730000 		.word	29507
 345 0054 42730000 		.word	29506
 346 0058 41730000 		.word	29505
 347              		.cfi_endproc
 348              	.LFE6:
 349              		.size	OSTmrStateGet, .-OSTmrStateGet
 350              		.section	.text.OS_TmrClr,"ax",%progbits
 351              		.align	1
 352              		.global	OS_TmrClr
 353              		.syntax unified
 354              		.code	16
 355              		.thumb_func
 356              		.fpu softvfp
 357              		.type	OS_TmrClr, %function
 358              	OS_TmrClr:
 359              	.LVL35:
 360              	.LFB8:
 569:..\..\..\..\..\..\Software\uCOS-III\Source/os_tmr.c **** 
 570:..\..\..\..\..\..\Software\uCOS-III\Source/os_tmr.c **** /*$PAGE*/
 571:..\..\..\..\..\..\Software\uCOS-III\Source/os_tmr.c **** /*
 572:..\..\..\..\..\..\Software\uCOS-III\Source/os_tmr.c **** ***************************************************************************************************
 573:..\..\..\..\..\..\Software\uCOS-III\Source/os_tmr.c **** *                                                    STOP A TIMER
 574:..\..\..\..\..\..\Software\uCOS-III\Source/os_tmr.c **** *
 575:..\..\..\..\..\..\Software\uCOS-III\Source/os_tmr.c **** * Description: This function is called by your application code to stop a timer.
 576:..\..\..\..\..\..\Software\uCOS-III\Source/os_tmr.c **** *
 577:..\..\..\..\..\..\Software\uCOS-III\Source/os_tmr.c **** * Arguments  : p_tmr          Is a pointer to the timer to stop.
 578:..\..\..\..\..\..\Software\uCOS-III\Source/os_tmr.c **** *
 579:..\..\..\..\..\..\Software\uCOS-III\Source/os_tmr.c **** *              opt           Allows you to specify an option to this functions which can be:
 580:..\..\..\..\..\..\Software\uCOS-III\Source/os_tmr.c **** *
 581:..\..\..\..\..\..\Software\uCOS-III\Source/os_tmr.c **** *                               OS_OPT_TMR_NONE            Do nothing special but stop the timer
 582:..\..\..\..\..\..\Software\uCOS-III\Source/os_tmr.c **** *                               OS_OPT_TMR_CALLBACK        Execute the callback function, pass it t
 583:..\..\..\..\..\..\Software\uCOS-III\Source/os_tmr.c **** *                                                          specified when the timer was created.
 584:..\..\..\..\..\..\Software\uCOS-III\Source/os_tmr.c **** *                               OS_OPT_TMR_CALLBACK_ARG    Execute the callback function, pass it t
 585:..\..\..\..\..\..\Software\uCOS-III\Source/os_tmr.c **** *                                                          specified in THIS function call
 586:..\..\..\..\..\..\Software\uCOS-III\Source/os_tmr.c **** *
 587:..\..\..\..\..\..\Software\uCOS-III\Source/os_tmr.c **** *              callback_arg  Is a pointer to a 'new' callback argument that can be passed to the ca
 588:..\..\..\..\..\..\Software\uCOS-III\Source/os_tmr.c **** *                               instead of the timer's callback argument.  In other words, use 'cal
 589:..\..\..\..\..\..\Software\uCOS-III\Source/os_tmr.c **** *                               THIS function INSTEAD of p_tmr->OSTmrCallbackArg
 590:..\..\..\..\..\..\Software\uCOS-III\Source/os_tmr.c **** *
 591:..\..\..\..\..\..\Software\uCOS-III\Source/os_tmr.c **** *              p_err          Is a pointer to an error code.  '*p_err' will contain one of the foll
 592:..\..\..\..\..\..\Software\uCOS-III\Source/os_tmr.c **** *                               OS_ERR_NONE
 593:..\..\..\..\..\..\Software\uCOS-III\Source/os_tmr.c **** *                               OS_ERR_OBJ_TYPE            if 'p_tmr' is not pointing to a timer
 594:..\..\..\..\..\..\Software\uCOS-III\Source/os_tmr.c **** *                               OS_ERR_OPT_INVALID         if you specified an invalid option for '
 595:..\..\..\..\..\..\Software\uCOS-III\Source/os_tmr.c **** *                               OS_ERR_TMR_INACTIVE        if the timer was not created
 596:..\..\..\..\..\..\Software\uCOS-III\Source/os_tmr.c **** *                               OS_ERR_TMR_INVALID         'p_tmr' is a NULL pointer
 597:..\..\..\..\..\..\Software\uCOS-III\Source/os_tmr.c **** *                               OS_ERR_TMR_INVALID_STATE   the timer is in an invalid state
 598:..\..\..\..\..\..\Software\uCOS-III\Source/os_tmr.c **** *                               OS_ERR_TMR_ISR             if the function was called from an ISR
 599:..\..\..\..\..\..\Software\uCOS-III\Source/os_tmr.c **** *                               OS_ERR_TMR_NO_CALLBACK     if the timer does not have a callback fu
 600:..\..\..\..\..\..\Software\uCOS-III\Source/os_tmr.c **** *                               OS_ERR_TMR_STOPPED         if the timer was already stopped
 601:..\..\..\..\..\..\Software\uCOS-III\Source/os_tmr.c **** *
 602:..\..\..\..\..\..\Software\uCOS-III\Source/os_tmr.c **** * Returns    : DEF_TRUE       If we stopped the timer (if the timer is already stopped, we also ret
 603:..\..\..\..\..\..\Software\uCOS-III\Source/os_tmr.c **** *              DEF_FALSE      If not
 604:..\..\..\..\..\..\Software\uCOS-III\Source/os_tmr.c **** ***************************************************************************************************
 605:..\..\..\..\..\..\Software\uCOS-III\Source/os_tmr.c **** */
 606:..\..\..\..\..\..\Software\uCOS-III\Source/os_tmr.c **** 
ARM GAS  C:\Users\EDULU~1.DES\AppData\Local\Temp\ccmSuQZN.s 			page 19


 607:..\..\..\..\..\..\Software\uCOS-III\Source/os_tmr.c **** CPU_BOOLEAN  OSTmrStop (OS_TMR  *p_tmr,
 608:..\..\..\..\..\..\Software\uCOS-III\Source/os_tmr.c ****                         OS_OPT   opt,
 609:..\..\..\..\..\..\Software\uCOS-III\Source/os_tmr.c ****                         void    *p_callback_arg,
 610:..\..\..\..\..\..\Software\uCOS-III\Source/os_tmr.c ****                         OS_ERR  *p_err)
 611:..\..\..\..\..\..\Software\uCOS-III\Source/os_tmr.c **** {
 612:..\..\..\..\..\..\Software\uCOS-III\Source/os_tmr.c ****     OS_TMR_CALLBACK_PTR  p_fnct;
 613:..\..\..\..\..\..\Software\uCOS-III\Source/os_tmr.c ****     OS_ERR               err;
 614:..\..\..\..\..\..\Software\uCOS-III\Source/os_tmr.c ****     CPU_BOOLEAN          success;
 615:..\..\..\..\..\..\Software\uCOS-III\Source/os_tmr.c **** 
 616:..\..\..\..\..\..\Software\uCOS-III\Source/os_tmr.c **** 
 617:..\..\..\..\..\..\Software\uCOS-III\Source/os_tmr.c **** 
 618:..\..\..\..\..\..\Software\uCOS-III\Source/os_tmr.c **** #ifdef OS_SAFETY_CRITICAL
 619:..\..\..\..\..\..\Software\uCOS-III\Source/os_tmr.c ****     if (p_err == (OS_ERR *)0) {
 620:..\..\..\..\..\..\Software\uCOS-III\Source/os_tmr.c ****         OS_SAFETY_CRITICAL_EXCEPTION();
 621:..\..\..\..\..\..\Software\uCOS-III\Source/os_tmr.c ****         return (DEF_FALSE);
 622:..\..\..\..\..\..\Software\uCOS-III\Source/os_tmr.c ****     }
 623:..\..\..\..\..\..\Software\uCOS-III\Source/os_tmr.c **** #endif
 624:..\..\..\..\..\..\Software\uCOS-III\Source/os_tmr.c **** 
 625:..\..\..\..\..\..\Software\uCOS-III\Source/os_tmr.c **** #if OS_CFG_CALLED_FROM_ISR_CHK_EN > 0u
 626:..\..\..\..\..\..\Software\uCOS-III\Source/os_tmr.c ****     if (OSIntNestingCtr > (OS_NESTING_CTR)0) {                        /* See if trying to call from
 627:..\..\..\..\..\..\Software\uCOS-III\Source/os_tmr.c ****        *p_err = OS_ERR_TMR_ISR;
 628:..\..\..\..\..\..\Software\uCOS-III\Source/os_tmr.c ****         return (DEF_FALSE);
 629:..\..\..\..\..\..\Software\uCOS-III\Source/os_tmr.c ****     }
 630:..\..\..\..\..\..\Software\uCOS-III\Source/os_tmr.c **** #endif
 631:..\..\..\..\..\..\Software\uCOS-III\Source/os_tmr.c **** 
 632:..\..\..\..\..\..\Software\uCOS-III\Source/os_tmr.c **** #if OS_CFG_ARG_CHK_EN > 0u
 633:..\..\..\..\..\..\Software\uCOS-III\Source/os_tmr.c ****     if (p_tmr == (OS_TMR *)0) {
 634:..\..\..\..\..\..\Software\uCOS-III\Source/os_tmr.c ****        *p_err = OS_ERR_TMR_INVALID;
 635:..\..\..\..\..\..\Software\uCOS-III\Source/os_tmr.c ****         return (DEF_FALSE);
 636:..\..\..\..\..\..\Software\uCOS-III\Source/os_tmr.c ****     }
 637:..\..\..\..\..\..\Software\uCOS-III\Source/os_tmr.c **** #endif
 638:..\..\..\..\..\..\Software\uCOS-III\Source/os_tmr.c **** 
 639:..\..\..\..\..\..\Software\uCOS-III\Source/os_tmr.c **** #if OS_CFG_OBJ_TYPE_CHK_EN > 0u
 640:..\..\..\..\..\..\Software\uCOS-III\Source/os_tmr.c ****     if (p_tmr->Type != OS_OBJ_TYPE_TMR) {                             /* Make sure timer was create
 641:..\..\..\..\..\..\Software\uCOS-III\Source/os_tmr.c ****        *p_err = OS_ERR_OBJ_TYPE;
 642:..\..\..\..\..\..\Software\uCOS-III\Source/os_tmr.c ****         return (DEF_FALSE);
 643:..\..\..\..\..\..\Software\uCOS-III\Source/os_tmr.c ****     }
 644:..\..\..\..\..\..\Software\uCOS-III\Source/os_tmr.c **** #endif
 645:..\..\..\..\..\..\Software\uCOS-III\Source/os_tmr.c **** 
 646:..\..\..\..\..\..\Software\uCOS-III\Source/os_tmr.c ****     OSSchedLock(&err);
 647:..\..\..\..\..\..\Software\uCOS-III\Source/os_tmr.c ****     switch (p_tmr->State) {
 648:..\..\..\..\..\..\Software\uCOS-III\Source/os_tmr.c ****         case OS_TMR_STATE_RUNNING:
 649:..\..\..\..\..\..\Software\uCOS-III\Source/os_tmr.c ****              OS_TmrUnlink(p_tmr);                                     /* Remove from current wheel 
 650:..\..\..\..\..\..\Software\uCOS-III\Source/os_tmr.c ****             *p_err = OS_ERR_NONE;
 651:..\..\..\..\..\..\Software\uCOS-III\Source/os_tmr.c ****              switch (opt) {
 652:..\..\..\..\..\..\Software\uCOS-III\Source/os_tmr.c ****                  case OS_OPT_TMR_CALLBACK:
 653:..\..\..\..\..\..\Software\uCOS-III\Source/os_tmr.c ****                       p_fnct = p_tmr->CallbackPtr;                         /* Execute callback func
 654:..\..\..\..\..\..\Software\uCOS-III\Source/os_tmr.c ****                       if (p_fnct != (OS_TMR_CALLBACK_PTR)0) {              /* ... if available     
 655:..\..\..\..\..\..\Software\uCOS-III\Source/os_tmr.c ****                         (*p_fnct)((void *)p_tmr, p_tmr->CallbackPtrArg);   /* Use callback arg when
 656:..\..\..\..\..\..\Software\uCOS-III\Source/os_tmr.c ****                       } else {
 657:..\..\..\..\..\..\Software\uCOS-III\Source/os_tmr.c ****                          *p_err = OS_ERR_TMR_NO_CALLBACK;
 658:..\..\..\..\..\..\Software\uCOS-III\Source/os_tmr.c ****                       }
 659:..\..\..\..\..\..\Software\uCOS-III\Source/os_tmr.c ****                       break;
 660:..\..\..\..\..\..\Software\uCOS-III\Source/os_tmr.c **** 
 661:..\..\..\..\..\..\Software\uCOS-III\Source/os_tmr.c ****                  case OS_OPT_TMR_CALLBACK_ARG:
 662:..\..\..\..\..\..\Software\uCOS-III\Source/os_tmr.c ****                       p_fnct = p_tmr->CallbackPtr;                    /* Execute callback function 
 663:..\..\..\..\..\..\Software\uCOS-III\Source/os_tmr.c ****                       if (p_fnct != (OS_TMR_CALLBACK_PTR)0) {
ARM GAS  C:\Users\EDULU~1.DES\AppData\Local\Temp\ccmSuQZN.s 			page 20


 664:..\..\..\..\..\..\Software\uCOS-III\Source/os_tmr.c ****                         (*p_fnct)((void *)p_tmr, p_callback_arg);     /* .. using the 'callback_arg
 665:..\..\..\..\..\..\Software\uCOS-III\Source/os_tmr.c ****                       } else {
 666:..\..\..\..\..\..\Software\uCOS-III\Source/os_tmr.c ****                          *p_err = OS_ERR_TMR_NO_CALLBACK;
 667:..\..\..\..\..\..\Software\uCOS-III\Source/os_tmr.c ****                       }
 668:..\..\..\..\..\..\Software\uCOS-III\Source/os_tmr.c ****                       break;
 669:..\..\..\..\..\..\Software\uCOS-III\Source/os_tmr.c **** 
 670:..\..\..\..\..\..\Software\uCOS-III\Source/os_tmr.c ****                  case OS_OPT_TMR_NONE:
 671:..\..\..\..\..\..\Software\uCOS-III\Source/os_tmr.c ****                       break;
 672:..\..\..\..\..\..\Software\uCOS-III\Source/os_tmr.c **** 
 673:..\..\..\..\..\..\Software\uCOS-III\Source/os_tmr.c ****                  default:
 674:..\..\..\..\..\..\Software\uCOS-III\Source/os_tmr.c ****                      OSSchedUnlock(&err);
 675:..\..\..\..\..\..\Software\uCOS-III\Source/os_tmr.c ****                     *p_err = OS_ERR_OPT_INVALID;
 676:..\..\..\..\..\..\Software\uCOS-III\Source/os_tmr.c ****                      return (DEF_FALSE);
 677:..\..\..\..\..\..\Software\uCOS-III\Source/os_tmr.c ****              }
 678:..\..\..\..\..\..\Software\uCOS-III\Source/os_tmr.c ****              OSSchedUnlock(&err);
 679:..\..\..\..\..\..\Software\uCOS-III\Source/os_tmr.c ****              success = DEF_TRUE;
 680:..\..\..\..\..\..\Software\uCOS-III\Source/os_tmr.c ****              break;
 681:..\..\..\..\..\..\Software\uCOS-III\Source/os_tmr.c **** 
 682:..\..\..\..\..\..\Software\uCOS-III\Source/os_tmr.c ****         case OS_TMR_STATE_COMPLETED:                                  /* Timer has already complete
 683:..\..\..\..\..\..\Software\uCOS-III\Source/os_tmr.c ****         case OS_TMR_STATE_STOPPED:                                    /* ... timer has not started 
 684:..\..\..\..\..\..\Software\uCOS-III\Source/os_tmr.c ****              OSSchedUnlock(&err);
 685:..\..\..\..\..\..\Software\uCOS-III\Source/os_tmr.c ****             *p_err   = OS_ERR_TMR_STOPPED;
 686:..\..\..\..\..\..\Software\uCOS-III\Source/os_tmr.c ****              success = DEF_TRUE;
 687:..\..\..\..\..\..\Software\uCOS-III\Source/os_tmr.c ****              break;
 688:..\..\..\..\..\..\Software\uCOS-III\Source/os_tmr.c **** 
 689:..\..\..\..\..\..\Software\uCOS-III\Source/os_tmr.c ****         case OS_TMR_STATE_UNUSED:                                     /* Timer was not created     
 690:..\..\..\..\..\..\Software\uCOS-III\Source/os_tmr.c ****              OSSchedUnlock(&err);
 691:..\..\..\..\..\..\Software\uCOS-III\Source/os_tmr.c ****             *p_err   = OS_ERR_TMR_INACTIVE;
 692:..\..\..\..\..\..\Software\uCOS-III\Source/os_tmr.c ****              success = DEF_FALSE;
 693:..\..\..\..\..\..\Software\uCOS-III\Source/os_tmr.c ****              break;
 694:..\..\..\..\..\..\Software\uCOS-III\Source/os_tmr.c **** 
 695:..\..\..\..\..\..\Software\uCOS-III\Source/os_tmr.c ****         default:
 696:..\..\..\..\..\..\Software\uCOS-III\Source/os_tmr.c ****              OSSchedUnlock(&err);
 697:..\..\..\..\..\..\Software\uCOS-III\Source/os_tmr.c ****             *p_err   = OS_ERR_TMR_INVALID_STATE;
 698:..\..\..\..\..\..\Software\uCOS-III\Source/os_tmr.c ****              success = DEF_FALSE;
 699:..\..\..\..\..\..\Software\uCOS-III\Source/os_tmr.c ****              break;
 700:..\..\..\..\..\..\Software\uCOS-III\Source/os_tmr.c ****     }
 701:..\..\..\..\..\..\Software\uCOS-III\Source/os_tmr.c ****     return (success);
 702:..\..\..\..\..\..\Software\uCOS-III\Source/os_tmr.c **** }
 703:..\..\..\..\..\..\Software\uCOS-III\Source/os_tmr.c **** 
 704:..\..\..\..\..\..\Software\uCOS-III\Source/os_tmr.c **** /*$PAGE*/
 705:..\..\..\..\..\..\Software\uCOS-III\Source/os_tmr.c **** /*
 706:..\..\..\..\..\..\Software\uCOS-III\Source/os_tmr.c **** ***************************************************************************************************
 707:..\..\..\..\..\..\Software\uCOS-III\Source/os_tmr.c **** *                                                 CLEAR TIMER FIELDS
 708:..\..\..\..\..\..\Software\uCOS-III\Source/os_tmr.c **** *
 709:..\..\..\..\..\..\Software\uCOS-III\Source/os_tmr.c **** * Description: This function is called to clear all timer fields.
 710:..\..\..\..\..\..\Software\uCOS-III\Source/os_tmr.c **** *
 711:..\..\..\..\..\..\Software\uCOS-III\Source/os_tmr.c **** * Argument(s): p_tmr    is a pointer to the timer to clear
 712:..\..\..\..\..\..\Software\uCOS-III\Source/os_tmr.c **** *              -----
 713:..\..\..\..\..\..\Software\uCOS-III\Source/os_tmr.c **** *
 714:..\..\..\..\..\..\Software\uCOS-III\Source/os_tmr.c **** * Returns    : none
 715:..\..\..\..\..\..\Software\uCOS-III\Source/os_tmr.c **** *
 716:..\..\..\..\..\..\Software\uCOS-III\Source/os_tmr.c **** * Note(s)    : 1) This function is INTERNAL to uC/OS-III and your application MUST NOT call it.
 717:..\..\..\..\..\..\Software\uCOS-III\Source/os_tmr.c **** ***************************************************************************************************
 718:..\..\..\..\..\..\Software\uCOS-III\Source/os_tmr.c **** */
 719:..\..\..\..\..\..\Software\uCOS-III\Source/os_tmr.c **** 
 720:..\..\..\..\..\..\Software\uCOS-III\Source/os_tmr.c **** void  OS_TmrClr (OS_TMR  *p_tmr)
ARM GAS  C:\Users\EDULU~1.DES\AppData\Local\Temp\ccmSuQZN.s 			page 21


 721:..\..\..\..\..\..\Software\uCOS-III\Source/os_tmr.c **** {
 361              		.loc 1 721 1 view -0
 362              		.cfi_startproc
 363              		@ args = 0, pretend = 0, frame = 0
 364              		@ frame_needed = 0, uses_anonymous_args = 0
 365              		@ link register save eliminated.
 722:..\..\..\..\..\..\Software\uCOS-III\Source/os_tmr.c ****     p_tmr->State          = OS_TMR_STATE_UNUSED;            /* Clear timer fields                  
 366              		.loc 1 722 5 view .LVU110
 367              		.loc 1 722 27 is_stmt 0 view .LVU111
 368 0000 0023     		movs	r3, #0
 369 0002 2A22     		movs	r2, #42
 370 0004 8354     		strb	r3, [r0, r2]
 723:..\..\..\..\..\..\Software\uCOS-III\Source/os_tmr.c ****     p_tmr->Type           = OS_OBJ_TYPE_NONE;
 371              		.loc 1 723 5 is_stmt 1 view .LVU112
 372              		.loc 1 723 27 is_stmt 0 view .LVU113
 373 0006 074A     		ldr	r2, .L29
 374 0008 0260     		str	r2, [r0]
 724:..\..\..\..\..\..\Software\uCOS-III\Source/os_tmr.c ****     p_tmr->NamePtr        = (CPU_CHAR          *)((void *)"?TMR");
 375              		.loc 1 724 5 is_stmt 1 view .LVU114
 376              		.loc 1 724 27 is_stmt 0 view .LVU115
 377 000a 074A     		ldr	r2, .L29+4
 378 000c 4260     		str	r2, [r0, #4]
 725:..\..\..\..\..\..\Software\uCOS-III\Source/os_tmr.c ****     p_tmr->Dly            = (OS_TICK            )0;
 379              		.loc 1 725 5 is_stmt 1 view .LVU116
 380              		.loc 1 725 27 is_stmt 0 view .LVU117
 381 000e 0362     		str	r3, [r0, #32]
 726:..\..\..\..\..\..\Software\uCOS-III\Source/os_tmr.c ****     p_tmr->Match          = (OS_TICK            )0;
 382              		.loc 1 726 5 is_stmt 1 view .LVU118
 383              		.loc 1 726 27 is_stmt 0 view .LVU119
 384 0010 8361     		str	r3, [r0, #24]
 727:..\..\..\..\..\..\Software\uCOS-III\Source/os_tmr.c ****     p_tmr->Remain         = (OS_TICK            )0;
 385              		.loc 1 727 5 is_stmt 1 view .LVU120
 386              		.loc 1 727 27 is_stmt 0 view .LVU121
 387 0012 C361     		str	r3, [r0, #28]
 728:..\..\..\..\..\..\Software\uCOS-III\Source/os_tmr.c ****     p_tmr->Period         = (OS_TICK            )0;
 388              		.loc 1 728 5 is_stmt 1 view .LVU122
 389              		.loc 1 728 27 is_stmt 0 view .LVU123
 390 0014 4362     		str	r3, [r0, #36]
 729:..\..\..\..\..\..\Software\uCOS-III\Source/os_tmr.c ****     p_tmr->Opt            = (OS_OPT             )0;
 391              		.loc 1 729 5 is_stmt 1 view .LVU124
 392              		.loc 1 729 27 is_stmt 0 view .LVU125
 393 0016 0385     		strh	r3, [r0, #40]
 730:..\..\..\..\..\..\Software\uCOS-III\Source/os_tmr.c ****     p_tmr->CallbackPtr    = (OS_TMR_CALLBACK_PTR)0;
 394              		.loc 1 730 5 is_stmt 1 view .LVU126
 395              		.loc 1 730 27 is_stmt 0 view .LVU127
 396 0018 8360     		str	r3, [r0, #8]
 731:..\..\..\..\..\..\Software\uCOS-III\Source/os_tmr.c ****     p_tmr->CallbackPtrArg = (void              *)0;
 397              		.loc 1 731 5 is_stmt 1 view .LVU128
 398              		.loc 1 731 27 is_stmt 0 view .LVU129
 399 001a C360     		str	r3, [r0, #12]
 732:..\..\..\..\..\..\Software\uCOS-III\Source/os_tmr.c ****     p_tmr->NextPtr        = (OS_TMR            *)0;
 400              		.loc 1 732 5 is_stmt 1 view .LVU130
 401              		.loc 1 732 27 is_stmt 0 view .LVU131
 402 001c 0361     		str	r3, [r0, #16]
 733:..\..\..\..\..\..\Software\uCOS-III\Source/os_tmr.c ****     p_tmr->PrevPtr        = (OS_TMR            *)0;
 403              		.loc 1 733 5 is_stmt 1 view .LVU132
 404              		.loc 1 733 27 is_stmt 0 view .LVU133
ARM GAS  C:\Users\EDULU~1.DES\AppData\Local\Temp\ccmSuQZN.s 			page 22


 405 001e 4361     		str	r3, [r0, #20]
 734:..\..\..\..\..\..\Software\uCOS-III\Source/os_tmr.c **** }
 406              		.loc 1 734 1 view .LVU134
 407              		@ sp needed
 408 0020 7047     		bx	lr
 409              	.L30:
 410 0022 C046     		.align	2
 411              	.L29:
 412 0024 4E4F4E45 		.word	1162760014
 413 0028 00000000 		.word	.LC3
 414              		.cfi_endproc
 415              	.LFE8:
 416              		.size	OS_TmrClr, .-OS_TmrClr
 417              		.section	.text.OS_TmrDbgListAdd,"ax",%progbits
 418              		.align	1
 419              		.global	OS_TmrDbgListAdd
 420              		.syntax unified
 421              		.code	16
 422              		.thumb_func
 423              		.fpu softvfp
 424              		.type	OS_TmrDbgListAdd, %function
 425              	OS_TmrDbgListAdd:
 426              	.LVL36:
 427              	.LFB9:
 735:..\..\..\..\..\..\Software\uCOS-III\Source/os_tmr.c **** 
 736:..\..\..\..\..\..\Software\uCOS-III\Source/os_tmr.c **** /*$PAGE*/
 737:..\..\..\..\..\..\Software\uCOS-III\Source/os_tmr.c **** /*
 738:..\..\..\..\..\..\Software\uCOS-III\Source/os_tmr.c **** ***************************************************************************************************
 739:..\..\..\..\..\..\Software\uCOS-III\Source/os_tmr.c **** *                                         ADD/REMOVE TIMER TO/FROM DEBUG TABLE
 740:..\..\..\..\..\..\Software\uCOS-III\Source/os_tmr.c **** *
 741:..\..\..\..\..\..\Software\uCOS-III\Source/os_tmr.c **** * Description: These functions are called by uC/OS-III to add or remove a timer to/from a timer deb
 742:..\..\..\..\..\..\Software\uCOS-III\Source/os_tmr.c **** *
 743:..\..\..\..\..\..\Software\uCOS-III\Source/os_tmr.c **** * Arguments  : p_tmr     is a pointer to the timer to add/remove
 744:..\..\..\..\..\..\Software\uCOS-III\Source/os_tmr.c **** *
 745:..\..\..\..\..\..\Software\uCOS-III\Source/os_tmr.c **** * Returns    : none
 746:..\..\..\..\..\..\Software\uCOS-III\Source/os_tmr.c **** *
 747:..\..\..\..\..\..\Software\uCOS-III\Source/os_tmr.c **** * Note(s)    : These functions are INTERNAL to uC/OS-III and your application should not call it.
 748:..\..\..\..\..\..\Software\uCOS-III\Source/os_tmr.c **** ***************************************************************************************************
 749:..\..\..\..\..\..\Software\uCOS-III\Source/os_tmr.c **** */
 750:..\..\..\..\..\..\Software\uCOS-III\Source/os_tmr.c **** 
 751:..\..\..\..\..\..\Software\uCOS-III\Source/os_tmr.c **** 
 752:..\..\..\..\..\..\Software\uCOS-III\Source/os_tmr.c **** #if OS_CFG_DBG_EN > 0u
 753:..\..\..\..\..\..\Software\uCOS-III\Source/os_tmr.c **** void  OS_TmrDbgListAdd (OS_TMR  *p_tmr)
 754:..\..\..\..\..\..\Software\uCOS-III\Source/os_tmr.c **** {
 428              		.loc 1 754 1 is_stmt 1 view -0
 429              		.cfi_startproc
 430              		@ args = 0, pretend = 0, frame = 0
 431              		@ frame_needed = 0, uses_anonymous_args = 0
 432              		@ link register save eliminated.
 755:..\..\..\..\..\..\Software\uCOS-III\Source/os_tmr.c ****     p_tmr->DbgPrevPtr               = (OS_TMR *)0;
 433              		.loc 1 755 5 view .LVU136
 434              		.loc 1 755 37 is_stmt 0 view .LVU137
 435 0000 0023     		movs	r3, #0
 436 0002 C362     		str	r3, [r0, #44]
 756:..\..\..\..\..\..\Software\uCOS-III\Source/os_tmr.c ****     if (OSTmrDbgListPtr == (OS_TMR *)0) {
 437              		.loc 1 756 5 is_stmt 1 view .LVU138
 438              		.loc 1 756 25 is_stmt 0 view .LVU139
ARM GAS  C:\Users\EDULU~1.DES\AppData\Local\Temp\ccmSuQZN.s 			page 23


 439 0004 054B     		ldr	r3, .L35
 440 0006 1B68     		ldr	r3, [r3]
 441              		.loc 1 756 8 view .LVU140
 442 0008 002B     		cmp	r3, #0
 443 000a 04D0     		beq	.L34
 757:..\..\..\..\..\..\Software\uCOS-III\Source/os_tmr.c ****         p_tmr->DbgNextPtr           = (OS_TMR *)0;
 758:..\..\..\..\..\..\Software\uCOS-III\Source/os_tmr.c ****     } else {
 759:..\..\..\..\..\..\Software\uCOS-III\Source/os_tmr.c ****         p_tmr->DbgNextPtr           =  OSTmrDbgListPtr;
 444              		.loc 1 759 9 is_stmt 1 view .LVU141
 445              		.loc 1 759 37 is_stmt 0 view .LVU142
 446 000c 0363     		str	r3, [r0, #48]
 760:..\..\..\..\..\..\Software\uCOS-III\Source/os_tmr.c ****         OSTmrDbgListPtr->DbgPrevPtr =  p_tmr;
 447              		.loc 1 760 9 is_stmt 1 view .LVU143
 448              		.loc 1 760 37 is_stmt 0 view .LVU144
 449 000e D862     		str	r0, [r3, #44]
 450              	.L33:
 761:..\..\..\..\..\..\Software\uCOS-III\Source/os_tmr.c ****     }
 762:..\..\..\..\..\..\Software\uCOS-III\Source/os_tmr.c ****     OSTmrDbgListPtr                 =  p_tmr;
 451              		.loc 1 762 5 is_stmt 1 view .LVU145
 452              		.loc 1 762 37 is_stmt 0 view .LVU146
 453 0010 024B     		ldr	r3, .L35
 454 0012 1860     		str	r0, [r3]
 763:..\..\..\..\..\..\Software\uCOS-III\Source/os_tmr.c **** }
 455              		.loc 1 763 1 view .LVU147
 456              		@ sp needed
 457 0014 7047     		bx	lr
 458              	.L34:
 757:..\..\..\..\..\..\Software\uCOS-III\Source/os_tmr.c ****     } else {
 459              		.loc 1 757 9 is_stmt 1 view .LVU148
 757:..\..\..\..\..\..\Software\uCOS-III\Source/os_tmr.c ****     } else {
 460              		.loc 1 757 37 is_stmt 0 view .LVU149
 461 0016 0363     		str	r3, [r0, #48]
 462 0018 FAE7     		b	.L33
 463              	.L36:
 464 001a C046     		.align	2
 465              	.L35:
 466 001c 00000000 		.word	OSTmrDbgListPtr
 467              		.cfi_endproc
 468              	.LFE9:
 469              		.size	OS_TmrDbgListAdd, .-OS_TmrDbgListAdd
 470              		.section	.text.OSTmrCreate,"ax",%progbits
 471              		.align	1
 472              		.global	OSTmrCreate
 473              		.syntax unified
 474              		.code	16
 475              		.thumb_func
 476              		.fpu softvfp
 477              		.type	OSTmrCreate, %function
 478              	OSTmrCreate:
 479              	.LVL37:
 480              	.LFB3:
 112:..\..\..\..\..\..\Software\uCOS-III\Source/os_tmr.c ****     CPU_SR_ALLOC();
 481              		.loc 1 112 1 is_stmt 1 view -0
 482              		.cfi_startproc
 483              		@ args = 16, pretend = 0, frame = 8
 484              		@ frame_needed = 0, uses_anonymous_args = 0
 112:..\..\..\..\..\..\Software\uCOS-III\Source/os_tmr.c ****     CPU_SR_ALLOC();
ARM GAS  C:\Users\EDULU~1.DES\AppData\Local\Temp\ccmSuQZN.s 			page 24


 485              		.loc 1 112 1 is_stmt 0 view .LVU151
 486 0000 F0B5     		push	{r4, r5, r6, r7, lr}
 487              		.cfi_def_cfa_offset 20
 488              		.cfi_offset 4, -20
 489              		.cfi_offset 5, -16
 490              		.cfi_offset 6, -12
 491              		.cfi_offset 7, -8
 492              		.cfi_offset 14, -4
 493 0002 83B0     		sub	sp, sp, #12
 494              		.cfi_def_cfa_offset 32
 495 0004 0700     		movs	r7, r0
 496 0006 0091     		str	r1, [sp]
 497 0008 1500     		movs	r5, r2
 498 000a 1C00     		movs	r4, r3
 499 000c 08AB     		add	r3, sp, #32
 500              	.LVL38:
 112:..\..\..\..\..\..\Software\uCOS-III\Source/os_tmr.c ****     CPU_SR_ALLOC();
 501              		.loc 1 112 1 view .LVU152
 502 000e 1E88     		ldrh	r6, [r3]
 113:..\..\..\..\..\..\Software\uCOS-III\Source/os_tmr.c **** 
 503              		.loc 1 113 5 is_stmt 1 view .LVU153
 504              	.LVL39:
 132:..\..\..\..\..\..\Software\uCOS-III\Source/os_tmr.c ****        *p_err = OS_ERR_TMR_ISR;
 505              		.loc 1 132 5 view .LVU154
 132:..\..\..\..\..\..\Software\uCOS-III\Source/os_tmr.c ****        *p_err = OS_ERR_TMR_ISR;
 506              		.loc 1 132 25 is_stmt 0 view .LVU155
 507 0010 244B     		ldr	r3, .L47
 508              	.LVL40:
 132:..\..\..\..\..\..\Software\uCOS-III\Source/os_tmr.c ****        *p_err = OS_ERR_TMR_ISR;
 509              		.loc 1 132 25 view .LVU156
 510 0012 1B78     		ldrb	r3, [r3]
 132:..\..\..\..\..\..\Software\uCOS-III\Source/os_tmr.c ****        *p_err = OS_ERR_TMR_ISR;
 511              		.loc 1 132 8 view .LVU157
 512 0014 002B     		cmp	r3, #0
 513 0016 2ED1     		bne	.L44
 139:..\..\..\..\..\..\Software\uCOS-III\Source/os_tmr.c ****        *p_err = OS_ERR_OBJ_PTR_NULL;
 514              		.loc 1 139 5 is_stmt 1 view .LVU158
 139:..\..\..\..\..\..\Software\uCOS-III\Source/os_tmr.c ****        *p_err = OS_ERR_OBJ_PTR_NULL;
 515              		.loc 1 139 8 is_stmt 0 view .LVU159
 516 0018 0028     		cmp	r0, #0
 517 001a 31D0     		beq	.L45
 144:..\..\..\..\..\..\Software\uCOS-III\Source/os_tmr.c ****         case OS_OPT_TMR_PERIODIC:
 518              		.loc 1 144 5 is_stmt 1 view .LVU160
 519 001c 012E     		cmp	r6, #1
 520 001e 37D0     		beq	.L41
 521 0020 022E     		cmp	r6, #2
 522 0022 3BD1     		bne	.L42
 146:..\..\..\..\..\..\Software\uCOS-III\Source/os_tmr.c ****                 *p_err = OS_ERR_TMR_INVALID_PERIOD;
 523              		.loc 1 146 14 view .LVU161
 146:..\..\..\..\..\..\Software\uCOS-III\Source/os_tmr.c ****                 *p_err = OS_ERR_TMR_INVALID_PERIOD;
 524              		.loc 1 146 17 is_stmt 0 view .LVU162
 525 0024 002C     		cmp	r4, #0
 526 0026 2FD0     		beq	.L46
 527              	.L43:
 165:..\..\..\..\..\..\Software\uCOS-III\Source/os_tmr.c ****     p_tmr->State          = (OS_STATE           )OS_TMR_STATE_STOPPED;     /* Initialize the timer 
 528              		.loc 1 165 5 is_stmt 1 view .LVU163
 165:..\..\..\..\..\..\Software\uCOS-III\Source/os_tmr.c ****     p_tmr->State          = (OS_STATE           )OS_TMR_STATE_STOPPED;     /* Initialize the timer 
ARM GAS  C:\Users\EDULU~1.DES\AppData\Local\Temp\ccmSuQZN.s 			page 25


 529              		.loc 1 165 5 view .LVU164
 165:..\..\..\..\..\..\Software\uCOS-III\Source/os_tmr.c ****     p_tmr->State          = (OS_STATE           )OS_TMR_STATE_STOPPED;     /* Initialize the timer 
 530              		.loc 1 165 5 view .LVU165
 531 0028 FFF7FEFF 		bl	CPU_SR_Save
 532              	.LVL41:
 165:..\..\..\..\..\..\Software\uCOS-III\Source/os_tmr.c ****     p_tmr->State          = (OS_STATE           )OS_TMR_STATE_STOPPED;     /* Initialize the timer 
 533              		.loc 1 165 5 is_stmt 0 view .LVU166
 534 002c 0190     		str	r0, [sp, #4]
 535              	.LVL42:
 165:..\..\..\..\..\..\Software\uCOS-III\Source/os_tmr.c ****     p_tmr->State          = (OS_STATE           )OS_TMR_STATE_STOPPED;     /* Initialize the timer 
 536              		.loc 1 165 5 is_stmt 1 view .LVU167
 537 002e FFF7FEFF 		bl	CPU_IntDisMeasStart
 538              	.LVL43:
 166:..\..\..\..\..\..\Software\uCOS-III\Source/os_tmr.c ****     p_tmr->Type           = (OS_OBJ_TYPE        )OS_OBJ_TYPE_TMR;
 539              		.loc 1 166 5 view .LVU168
 166:..\..\..\..\..\..\Software\uCOS-III\Source/os_tmr.c ****     p_tmr->Type           = (OS_OBJ_TYPE        )OS_OBJ_TYPE_TMR;
 540              		.loc 1 166 27 is_stmt 0 view .LVU169
 541 0032 2A23     		movs	r3, #42
 542 0034 0122     		movs	r2, #1
 543 0036 FA54     		strb	r2, [r7, r3]
 167:..\..\..\..\..\..\Software\uCOS-III\Source/os_tmr.c ****     p_tmr->NamePtr        = (CPU_CHAR          *)p_name;
 544              		.loc 1 167 5 is_stmt 1 view .LVU170
 167:..\..\..\..\..\..\Software\uCOS-III\Source/os_tmr.c ****     p_tmr->NamePtr        = (CPU_CHAR          *)p_name;
 545              		.loc 1 167 27 is_stmt 0 view .LVU171
 546 0038 1B4B     		ldr	r3, .L47+4
 547 003a 3B60     		str	r3, [r7]
 168:..\..\..\..\..\..\Software\uCOS-III\Source/os_tmr.c ****     p_tmr->Dly            = (OS_TICK            )dly;
 548              		.loc 1 168 5 is_stmt 1 view .LVU172
 168:..\..\..\..\..\..\Software\uCOS-III\Source/os_tmr.c ****     p_tmr->Dly            = (OS_TICK            )dly;
 549              		.loc 1 168 27 is_stmt 0 view .LVU173
 550 003c 009B     		ldr	r3, [sp]
 551 003e 7B60     		str	r3, [r7, #4]
 169:..\..\..\..\..\..\Software\uCOS-III\Source/os_tmr.c ****     p_tmr->Match          = (OS_TICK            )0;
 552              		.loc 1 169 5 is_stmt 1 view .LVU174
 169:..\..\..\..\..\..\Software\uCOS-III\Source/os_tmr.c ****     p_tmr->Match          = (OS_TICK            )0;
 553              		.loc 1 169 27 is_stmt 0 view .LVU175
 554 0040 3D62     		str	r5, [r7, #32]
 170:..\..\..\..\..\..\Software\uCOS-III\Source/os_tmr.c ****     p_tmr->Remain         = (OS_TICK            )0;
 555              		.loc 1 170 5 is_stmt 1 view .LVU176
 170:..\..\..\..\..\..\Software\uCOS-III\Source/os_tmr.c ****     p_tmr->Remain         = (OS_TICK            )0;
 556              		.loc 1 170 27 is_stmt 0 view .LVU177
 557 0042 0025     		movs	r5, #0
 558              	.LVL44:
 170:..\..\..\..\..\..\Software\uCOS-III\Source/os_tmr.c ****     p_tmr->Remain         = (OS_TICK            )0;
 559              		.loc 1 170 27 view .LVU178
 560 0044 BD61     		str	r5, [r7, #24]
 171:..\..\..\..\..\..\Software\uCOS-III\Source/os_tmr.c ****     p_tmr->Period         = (OS_TICK            )period;
 561              		.loc 1 171 5 is_stmt 1 view .LVU179
 171:..\..\..\..\..\..\Software\uCOS-III\Source/os_tmr.c ****     p_tmr->Period         = (OS_TICK            )period;
 562              		.loc 1 171 27 is_stmt 0 view .LVU180
 563 0046 FD61     		str	r5, [r7, #28]
 172:..\..\..\..\..\..\Software\uCOS-III\Source/os_tmr.c ****     p_tmr->Opt            = (OS_OPT             )opt;
 564              		.loc 1 172 5 is_stmt 1 view .LVU181
 172:..\..\..\..\..\..\Software\uCOS-III\Source/os_tmr.c ****     p_tmr->Opt            = (OS_OPT             )opt;
 565              		.loc 1 172 27 is_stmt 0 view .LVU182
 566 0048 7C62     		str	r4, [r7, #36]
 173:..\..\..\..\..\..\Software\uCOS-III\Source/os_tmr.c ****     p_tmr->CallbackPtr    = (OS_TMR_CALLBACK_PTR)p_callback;
ARM GAS  C:\Users\EDULU~1.DES\AppData\Local\Temp\ccmSuQZN.s 			page 26


 567              		.loc 1 173 5 is_stmt 1 view .LVU183
 173:..\..\..\..\..\..\Software\uCOS-III\Source/os_tmr.c ****     p_tmr->CallbackPtr    = (OS_TMR_CALLBACK_PTR)p_callback;
 568              		.loc 1 173 27 is_stmt 0 view .LVU184
 569 004a 3E85     		strh	r6, [r7, #40]
 174:..\..\..\..\..\..\Software\uCOS-III\Source/os_tmr.c ****     p_tmr->CallbackPtrArg = (void              *)p_callback_arg;
 570              		.loc 1 174 5 is_stmt 1 view .LVU185
 174:..\..\..\..\..\..\Software\uCOS-III\Source/os_tmr.c ****     p_tmr->CallbackPtrArg = (void              *)p_callback_arg;
 571              		.loc 1 174 27 is_stmt 0 view .LVU186
 572 004c 099B     		ldr	r3, [sp, #36]
 573 004e BB60     		str	r3, [r7, #8]
 175:..\..\..\..\..\..\Software\uCOS-III\Source/os_tmr.c ****     p_tmr->NextPtr        = (OS_TMR            *)0;
 574              		.loc 1 175 5 is_stmt 1 view .LVU187
 175:..\..\..\..\..\..\Software\uCOS-III\Source/os_tmr.c ****     p_tmr->NextPtr        = (OS_TMR            *)0;
 575              		.loc 1 175 27 is_stmt 0 view .LVU188
 576 0050 0A9B     		ldr	r3, [sp, #40]
 577 0052 FB60     		str	r3, [r7, #12]
 176:..\..\..\..\..\..\Software\uCOS-III\Source/os_tmr.c ****     p_tmr->PrevPtr        = (OS_TMR            *)0;
 578              		.loc 1 176 5 is_stmt 1 view .LVU189
 176:..\..\..\..\..\..\Software\uCOS-III\Source/os_tmr.c ****     p_tmr->PrevPtr        = (OS_TMR            *)0;
 579              		.loc 1 176 27 is_stmt 0 view .LVU190
 580 0054 3D61     		str	r5, [r7, #16]
 177:..\..\..\..\..\..\Software\uCOS-III\Source/os_tmr.c **** 
 581              		.loc 1 177 5 is_stmt 1 view .LVU191
 177:..\..\..\..\..\..\Software\uCOS-III\Source/os_tmr.c **** 
 582              		.loc 1 177 27 is_stmt 0 view .LVU192
 583 0056 7D61     		str	r5, [r7, #20]
 180:..\..\..\..\..\..\Software\uCOS-III\Source/os_tmr.c **** #endif
 584              		.loc 1 180 5 is_stmt 1 view .LVU193
 585 0058 3800     		movs	r0, r7
 586 005a FFF7FEFF 		bl	OS_TmrDbgListAdd
 587              	.LVL45:
 182:..\..\..\..\..\..\Software\uCOS-III\Source/os_tmr.c **** 
 588              		.loc 1 182 5 view .LVU194
 182:..\..\..\..\..\..\Software\uCOS-III\Source/os_tmr.c **** 
 589              		.loc 1 182 13 is_stmt 0 view .LVU195
 590 005e 134A     		ldr	r2, .L47+8
 591 0060 1388     		ldrh	r3, [r2]
 592 0062 0133     		adds	r3, r3, #1
 593 0064 1380     		strh	r3, [r2]
 184:..\..\..\..\..\..\Software\uCOS-III\Source/os_tmr.c ****    *p_err = OS_ERR_NONE;
 594              		.loc 1 184 5 is_stmt 1 view .LVU196
 184:..\..\..\..\..\..\Software\uCOS-III\Source/os_tmr.c ****    *p_err = OS_ERR_NONE;
 595              		.loc 1 184 5 view .LVU197
 596 0066 FFF7FEFF 		bl	CPU_IntDisMeasStop
 597              	.LVL46:
 184:..\..\..\..\..\..\Software\uCOS-III\Source/os_tmr.c ****    *p_err = OS_ERR_NONE;
 598              		.loc 1 184 5 view .LVU198
 184:..\..\..\..\..\..\Software\uCOS-III\Source/os_tmr.c ****    *p_err = OS_ERR_NONE;
 599              		.loc 1 184 5 view .LVU199
 600 006a 0198     		ldr	r0, [sp, #4]
 601 006c FFF7FEFF 		bl	CPU_SR_Restore
 602              	.LVL47:
 185:..\..\..\..\..\..\Software\uCOS-III\Source/os_tmr.c **** }
 603              		.loc 1 185 4 view .LVU200
 185:..\..\..\..\..\..\Software\uCOS-III\Source/os_tmr.c **** }
 604              		.loc 1 185 11 is_stmt 0 view .LVU201
 605 0070 0B9B     		ldr	r3, [sp, #44]
ARM GAS  C:\Users\EDULU~1.DES\AppData\Local\Temp\ccmSuQZN.s 			page 27


 606 0072 1D80     		strh	r5, [r3]
 607 0074 02E0     		b	.L37
 608              	.LVL48:
 609              	.L44:
 133:..\..\..\..\..\..\Software\uCOS-III\Source/os_tmr.c ****         return;
 610              		.loc 1 133 8 is_stmt 1 view .LVU202
 133:..\..\..\..\..\..\Software\uCOS-III\Source/os_tmr.c ****         return;
 611              		.loc 1 133 15 is_stmt 0 view .LVU203
 612 0076 0E4B     		ldr	r3, .L47+12
 613 0078 0B9A     		ldr	r2, [sp, #44]
 614              	.LVL49:
 133:..\..\..\..\..\..\Software\uCOS-III\Source/os_tmr.c ****         return;
 615              		.loc 1 133 15 view .LVU204
 616 007a 1380     		strh	r3, [r2]
 134:..\..\..\..\..\..\Software\uCOS-III\Source/os_tmr.c ****     }
 617              		.loc 1 134 9 is_stmt 1 view .LVU205
 618              	.LVL50:
 619              	.L37:
 186:..\..\..\..\..\..\Software\uCOS-III\Source/os_tmr.c **** 
 620              		.loc 1 186 1 is_stmt 0 view .LVU206
 621 007c 03B0     		add	sp, sp, #12
 622              	.LVL51:
 186:..\..\..\..\..\..\Software\uCOS-III\Source/os_tmr.c **** 
 623              		.loc 1 186 1 view .LVU207
 624              		@ sp needed
 625              	.LVL52:
 626              	.LVL53:
 186:..\..\..\..\..\..\Software\uCOS-III\Source/os_tmr.c **** 
 627              		.loc 1 186 1 view .LVU208
 628 007e F0BD     		pop	{r4, r5, r6, r7, pc}
 629              	.LVL54:
 630              	.L45:
 140:..\..\..\..\..\..\Software\uCOS-III\Source/os_tmr.c ****         return;
 631              		.loc 1 140 8 is_stmt 1 view .LVU209
 140:..\..\..\..\..\..\Software\uCOS-III\Source/os_tmr.c ****         return;
 632              		.loc 1 140 15 is_stmt 0 view .LVU210
 633 0080 0C4B     		ldr	r3, .L47+16
 634 0082 0B9A     		ldr	r2, [sp, #44]
 635              	.LVL55:
 140:..\..\..\..\..\..\Software\uCOS-III\Source/os_tmr.c ****         return;
 636              		.loc 1 140 15 view .LVU211
 637 0084 1380     		strh	r3, [r2]
 141:..\..\..\..\..\..\Software\uCOS-III\Source/os_tmr.c ****     }
 638              		.loc 1 141 9 is_stmt 1 view .LVU212
 639 0086 F9E7     		b	.L37
 640              	.LVL56:
 641              	.L46:
 147:..\..\..\..\..\..\Software\uCOS-III\Source/os_tmr.c ****                  return;
 642              		.loc 1 147 17 view .LVU213
 147:..\..\..\..\..\..\Software\uCOS-III\Source/os_tmr.c ****                  return;
 643              		.loc 1 147 24 is_stmt 0 view .LVU214
 644 0088 0B4B     		ldr	r3, .L47+20
 645 008a 0B9A     		ldr	r2, [sp, #44]
 646              	.LVL57:
 147:..\..\..\..\..\..\Software\uCOS-III\Source/os_tmr.c ****                  return;
 647              		.loc 1 147 24 view .LVU215
 648 008c 1380     		strh	r3, [r2]
ARM GAS  C:\Users\EDULU~1.DES\AppData\Local\Temp\ccmSuQZN.s 			page 28


 148:..\..\..\..\..\..\Software\uCOS-III\Source/os_tmr.c ****              }
 649              		.loc 1 148 18 is_stmt 1 view .LVU216
 650 008e F5E7     		b	.L37
 651              	.LVL58:
 652              	.L41:
 153:..\..\..\..\..\..\Software\uCOS-III\Source/os_tmr.c ****                 *p_err = OS_ERR_TMR_INVALID_DLY;
 653              		.loc 1 153 14 view .LVU217
 153:..\..\..\..\..\..\Software\uCOS-III\Source/os_tmr.c ****                 *p_err = OS_ERR_TMR_INVALID_DLY;
 654              		.loc 1 153 17 is_stmt 0 view .LVU218
 655 0090 002A     		cmp	r2, #0
 656 0092 C9D1     		bne	.L43
 154:..\..\..\..\..\..\Software\uCOS-III\Source/os_tmr.c ****                  return;
 657              		.loc 1 154 17 is_stmt 1 view .LVU219
 154:..\..\..\..\..\..\Software\uCOS-III\Source/os_tmr.c ****                  return;
 658              		.loc 1 154 24 is_stmt 0 view .LVU220
 659 0094 094B     		ldr	r3, .L47+24
 660 0096 0B9A     		ldr	r2, [sp, #44]
 661              	.LVL59:
 154:..\..\..\..\..\..\Software\uCOS-III\Source/os_tmr.c ****                  return;
 662              		.loc 1 154 24 view .LVU221
 663 0098 1380     		strh	r3, [r2]
 155:..\..\..\..\..\..\Software\uCOS-III\Source/os_tmr.c ****              }
 664              		.loc 1 155 18 is_stmt 1 view .LVU222
 665 009a EFE7     		b	.L37
 666              	.LVL60:
 667              	.L42:
 160:..\..\..\..\..\..\Software\uCOS-III\Source/os_tmr.c ****              return;
 668              		.loc 1 160 13 view .LVU223
 160:..\..\..\..\..\..\Software\uCOS-III\Source/os_tmr.c ****              return;
 669              		.loc 1 160 20 is_stmt 0 view .LVU224
 670 009c 084B     		ldr	r3, .L47+28
 671 009e 0B9A     		ldr	r2, [sp, #44]
 672              	.LVL61:
 160:..\..\..\..\..\..\Software\uCOS-III\Source/os_tmr.c ****              return;
 673              		.loc 1 160 20 view .LVU225
 674 00a0 1380     		strh	r3, [r2]
 161:..\..\..\..\..\..\Software\uCOS-III\Source/os_tmr.c ****     }
 675              		.loc 1 161 14 is_stmt 1 view .LVU226
 676 00a2 EBE7     		b	.L37
 677              	.L48:
 678              		.align	2
 679              	.L47:
 680 00a4 00000000 		.word	OSIntNestingCtr
 681 00a8 544D5220 		.word	542264660
 682 00ac 00000000 		.word	OSTmrQty
 683 00b0 43730000 		.word	29507
 684 00b4 C35D0000 		.word	24003
 685 00b8 40730000 		.word	29504
 686 00bc 3F730000 		.word	29503
 687 00c0 255E0000 		.word	24101
 688              		.cfi_endproc
 689              	.LFE3:
 690              		.size	OSTmrCreate, .-OSTmrCreate
 691              		.section	.text.OS_TmrDbgListRemove,"ax",%progbits
 692              		.align	1
 693              		.global	OS_TmrDbgListRemove
 694              		.syntax unified
ARM GAS  C:\Users\EDULU~1.DES\AppData\Local\Temp\ccmSuQZN.s 			page 29


 695              		.code	16
 696              		.thumb_func
 697              		.fpu softvfp
 698              		.type	OS_TmrDbgListRemove, %function
 699              	OS_TmrDbgListRemove:
 700              	.LVL62:
 701              	.LFB10:
 764:..\..\..\..\..\..\Software\uCOS-III\Source/os_tmr.c **** 
 765:..\..\..\..\..\..\Software\uCOS-III\Source/os_tmr.c **** 
 766:..\..\..\..\..\..\Software\uCOS-III\Source/os_tmr.c **** 
 767:..\..\..\..\..\..\Software\uCOS-III\Source/os_tmr.c **** void  OS_TmrDbgListRemove (OS_TMR  *p_tmr)
 768:..\..\..\..\..\..\Software\uCOS-III\Source/os_tmr.c **** {
 702              		.loc 1 768 1 view -0
 703              		.cfi_startproc
 704              		@ args = 0, pretend = 0, frame = 0
 705              		@ frame_needed = 0, uses_anonymous_args = 0
 706              		@ link register save eliminated.
 769:..\..\..\..\..\..\Software\uCOS-III\Source/os_tmr.c ****     OS_TMR  *p_tmr_next;
 707              		.loc 1 769 5 view .LVU228
 770:..\..\..\..\..\..\Software\uCOS-III\Source/os_tmr.c ****     OS_TMR  *p_tmr_prev;
 708              		.loc 1 770 5 view .LVU229
 771:..\..\..\..\..\..\Software\uCOS-III\Source/os_tmr.c **** 
 772:..\..\..\..\..\..\Software\uCOS-III\Source/os_tmr.c **** 
 773:..\..\..\..\..\..\Software\uCOS-III\Source/os_tmr.c ****     p_tmr_prev = p_tmr->DbgPrevPtr;
 709              		.loc 1 773 5 view .LVU230
 710              		.loc 1 773 16 is_stmt 0 view .LVU231
 711 0000 C26A     		ldr	r2, [r0, #44]
 712              	.LVL63:
 774:..\..\..\..\..\..\Software\uCOS-III\Source/os_tmr.c ****     p_tmr_next = p_tmr->DbgNextPtr;
 713              		.loc 1 774 5 is_stmt 1 view .LVU232
 714              		.loc 1 774 16 is_stmt 0 view .LVU233
 715 0002 036B     		ldr	r3, [r0, #48]
 716              	.LVL64:
 775:..\..\..\..\..\..\Software\uCOS-III\Source/os_tmr.c **** 
 776:..\..\..\..\..\..\Software\uCOS-III\Source/os_tmr.c ****     if (p_tmr_prev == (OS_TMR *)0) {
 717              		.loc 1 776 5 is_stmt 1 view .LVU234
 718              		.loc 1 776 8 is_stmt 0 view .LVU235
 719 0004 002A     		cmp	r2, #0
 720 0006 07D0     		beq	.L54
 777:..\..\..\..\..\..\Software\uCOS-III\Source/os_tmr.c ****         OSTmrDbgListPtr = p_tmr_next;
 778:..\..\..\..\..\..\Software\uCOS-III\Source/os_tmr.c ****         if (p_tmr_next != (OS_TMR *)0) {
 779:..\..\..\..\..\..\Software\uCOS-III\Source/os_tmr.c ****             p_tmr_next->DbgPrevPtr = (OS_TMR *)0;
 780:..\..\..\..\..\..\Software\uCOS-III\Source/os_tmr.c ****         }
 781:..\..\..\..\..\..\Software\uCOS-III\Source/os_tmr.c ****         p_tmr->DbgNextPtr = (OS_TMR *)0;
 782:..\..\..\..\..\..\Software\uCOS-III\Source/os_tmr.c **** 
 783:..\..\..\..\..\..\Software\uCOS-III\Source/os_tmr.c ****     } else if (p_tmr_next == (OS_TMR *)0) {
 721              		.loc 1 783 12 is_stmt 1 view .LVU236
 722              		.loc 1 783 15 is_stmt 0 view .LVU237
 723 0008 002B     		cmp	r3, #0
 724 000a 0ED0     		beq	.L55
 784:..\..\..\..\..\..\Software\uCOS-III\Source/os_tmr.c ****         p_tmr_prev->DbgNextPtr = (OS_TMR *)0;
 785:..\..\..\..\..\..\Software\uCOS-III\Source/os_tmr.c ****         p_tmr->DbgPrevPtr      = (OS_TMR *)0;
 786:..\..\..\..\..\..\Software\uCOS-III\Source/os_tmr.c **** 
 787:..\..\..\..\..\..\Software\uCOS-III\Source/os_tmr.c ****     } else {
 788:..\..\..\..\..\..\Software\uCOS-III\Source/os_tmr.c ****         p_tmr_prev->DbgNextPtr =  p_tmr_next;
 725              		.loc 1 788 9 is_stmt 1 view .LVU238
 726              		.loc 1 788 32 is_stmt 0 view .LVU239
ARM GAS  C:\Users\EDULU~1.DES\AppData\Local\Temp\ccmSuQZN.s 			page 30


 727 000c 1363     		str	r3, [r2, #48]
 789:..\..\..\..\..\..\Software\uCOS-III\Source/os_tmr.c ****         p_tmr_next->DbgPrevPtr =  p_tmr_prev;
 728              		.loc 1 789 9 is_stmt 1 view .LVU240
 729              		.loc 1 789 32 is_stmt 0 view .LVU241
 730 000e DA62     		str	r2, [r3, #44]
 790:..\..\..\..\..\..\Software\uCOS-III\Source/os_tmr.c ****         p_tmr->DbgNextPtr      = (OS_TMR *)0;
 731              		.loc 1 790 9 is_stmt 1 view .LVU242
 732              		.loc 1 790 32 is_stmt 0 view .LVU243
 733 0010 0023     		movs	r3, #0
 734              	.LVL65:
 735              		.loc 1 790 32 view .LVU244
 736 0012 0363     		str	r3, [r0, #48]
 791:..\..\..\..\..\..\Software\uCOS-III\Source/os_tmr.c ****         p_tmr->DbgPrevPtr      = (OS_TMR *)0;
 737              		.loc 1 791 9 is_stmt 1 view .LVU245
 738              		.loc 1 791 32 is_stmt 0 view .LVU246
 739 0014 C362     		str	r3, [r0, #44]
 740              	.LVL66:
 741              	.L49:
 792:..\..\..\..\..\..\Software\uCOS-III\Source/os_tmr.c ****     }
 793:..\..\..\..\..\..\Software\uCOS-III\Source/os_tmr.c **** }
 742              		.loc 1 793 1 view .LVU247
 743              		@ sp needed
 744 0016 7047     		bx	lr
 745              	.LVL67:
 746              	.L54:
 777:..\..\..\..\..\..\Software\uCOS-III\Source/os_tmr.c ****         if (p_tmr_next != (OS_TMR *)0) {
 747              		.loc 1 777 9 is_stmt 1 view .LVU248
 777:..\..\..\..\..\..\Software\uCOS-III\Source/os_tmr.c ****         if (p_tmr_next != (OS_TMR *)0) {
 748              		.loc 1 777 25 is_stmt 0 view .LVU249
 749 0018 054A     		ldr	r2, .L56
 750              	.LVL68:
 777:..\..\..\..\..\..\Software\uCOS-III\Source/os_tmr.c ****         if (p_tmr_next != (OS_TMR *)0) {
 751              		.loc 1 777 25 view .LVU250
 752 001a 1360     		str	r3, [r2]
 778:..\..\..\..\..\..\Software\uCOS-III\Source/os_tmr.c ****             p_tmr_next->DbgPrevPtr = (OS_TMR *)0;
 753              		.loc 1 778 9 is_stmt 1 view .LVU251
 778:..\..\..\..\..\..\Software\uCOS-III\Source/os_tmr.c ****             p_tmr_next->DbgPrevPtr = (OS_TMR *)0;
 754              		.loc 1 778 12 is_stmt 0 view .LVU252
 755 001c 002B     		cmp	r3, #0
 756 001e 01D0     		beq	.L51
 779:..\..\..\..\..\..\Software\uCOS-III\Source/os_tmr.c ****         }
 757              		.loc 1 779 13 is_stmt 1 view .LVU253
 779:..\..\..\..\..\..\Software\uCOS-III\Source/os_tmr.c ****         }
 758              		.loc 1 779 36 is_stmt 0 view .LVU254
 759 0020 0022     		movs	r2, #0
 760 0022 DA62     		str	r2, [r3, #44]
 761              	.LVL69:
 762              	.L51:
 781:..\..\..\..\..\..\Software\uCOS-III\Source/os_tmr.c **** 
 763              		.loc 1 781 9 is_stmt 1 view .LVU255
 781:..\..\..\..\..\..\Software\uCOS-III\Source/os_tmr.c **** 
 764              		.loc 1 781 27 is_stmt 0 view .LVU256
 765 0024 0023     		movs	r3, #0
 766              	.LVL70:
 781:..\..\..\..\..\..\Software\uCOS-III\Source/os_tmr.c **** 
 767              		.loc 1 781 27 view .LVU257
 768 0026 0363     		str	r3, [r0, #48]
ARM GAS  C:\Users\EDULU~1.DES\AppData\Local\Temp\ccmSuQZN.s 			page 31


 769 0028 F5E7     		b	.L49
 770              	.LVL71:
 771              	.L55:
 784:..\..\..\..\..\..\Software\uCOS-III\Source/os_tmr.c ****         p_tmr->DbgPrevPtr      = (OS_TMR *)0;
 772              		.loc 1 784 9 is_stmt 1 view .LVU258
 784:..\..\..\..\..\..\Software\uCOS-III\Source/os_tmr.c ****         p_tmr->DbgPrevPtr      = (OS_TMR *)0;
 773              		.loc 1 784 32 is_stmt 0 view .LVU259
 774 002a 1363     		str	r3, [r2, #48]
 785:..\..\..\..\..\..\Software\uCOS-III\Source/os_tmr.c **** 
 775              		.loc 1 785 9 is_stmt 1 view .LVU260
 785:..\..\..\..\..\..\Software\uCOS-III\Source/os_tmr.c **** 
 776              		.loc 1 785 32 is_stmt 0 view .LVU261
 777 002c C362     		str	r3, [r0, #44]
 778 002e F2E7     		b	.L49
 779              	.L57:
 780              		.align	2
 781              	.L56:
 782 0030 00000000 		.word	OSTmrDbgListPtr
 783              		.cfi_endproc
 784              	.LFE10:
 785              		.size	OS_TmrDbgListRemove, .-OS_TmrDbgListRemove
 786              		.global	__aeabi_uidiv
 787              		.section	.text.OS_TmrInit,"ax",%progbits
 788              		.align	1
 789              		.global	OS_TmrInit
 790              		.syntax unified
 791              		.code	16
 792              		.thumb_func
 793              		.fpu softvfp
 794              		.type	OS_TmrInit, %function
 795              	OS_TmrInit:
 796              	.LVL72:
 797              	.LFB11:
 794:..\..\..\..\..\..\Software\uCOS-III\Source/os_tmr.c **** #endif
 795:..\..\..\..\..\..\Software\uCOS-III\Source/os_tmr.c **** 
 796:..\..\..\..\..\..\Software\uCOS-III\Source/os_tmr.c **** /*$PAGE*/
 797:..\..\..\..\..\..\Software\uCOS-III\Source/os_tmr.c **** /*
 798:..\..\..\..\..\..\Software\uCOS-III\Source/os_tmr.c **** ***************************************************************************************************
 799:..\..\..\..\..\..\Software\uCOS-III\Source/os_tmr.c **** *                                             INITIALIZE THE TIMER MANAGER
 800:..\..\..\..\..\..\Software\uCOS-III\Source/os_tmr.c **** *
 801:..\..\..\..\..\..\Software\uCOS-III\Source/os_tmr.c **** * Description: This function is called by OSInit() to initialize the timer manager module.
 802:..\..\..\..\..\..\Software\uCOS-III\Source/os_tmr.c **** *
 803:..\..\..\..\..\..\Software\uCOS-III\Source/os_tmr.c **** * Argument(s): p_err    is a pointer to a variable that will contain an error code returned by this
 804:..\..\..\..\..\..\Software\uCOS-III\Source/os_tmr.c **** *
 805:..\..\..\..\..\..\Software\uCOS-III\Source/os_tmr.c **** *                           OS_ERR_NONE
 806:..\..\..\..\..\..\Software\uCOS-III\Source/os_tmr.c **** *                           OS_ERR_TMR_STK_INVALID       if you didn't specify a stack for the time
 807:..\..\..\..\..\..\Software\uCOS-III\Source/os_tmr.c **** *                           OS_ERR_TMR_STK_SIZE_INVALID  if you didn't allocate enough space for th
 808:..\..\..\..\..\..\Software\uCOS-III\Source/os_tmr.c **** *                           OS_ERR_PRIO_INVALID          if you specified the same priority as the 
 809:..\..\..\..\..\..\Software\uCOS-III\Source/os_tmr.c **** *                           OS_ERR_xxx                   any error code returned by OSTaskCreate()
 810:..\..\..\..\..\..\Software\uCOS-III\Source/os_tmr.c **** *
 811:..\..\..\..\..\..\Software\uCOS-III\Source/os_tmr.c **** * Returns    : none
 812:..\..\..\..\..\..\Software\uCOS-III\Source/os_tmr.c **** *
 813:..\..\..\..\..\..\Software\uCOS-III\Source/os_tmr.c **** * Note(s)    : 1) This function is INTERNAL to uC/OS-III and your application MUST NOT call it.
 814:..\..\..\..\..\..\Software\uCOS-III\Source/os_tmr.c **** ***************************************************************************************************
 815:..\..\..\..\..\..\Software\uCOS-III\Source/os_tmr.c **** */
 816:..\..\..\..\..\..\Software\uCOS-III\Source/os_tmr.c **** 
 817:..\..\..\..\..\..\Software\uCOS-III\Source/os_tmr.c **** void  OS_TmrInit (OS_ERR  *p_err)
ARM GAS  C:\Users\EDULU~1.DES\AppData\Local\Temp\ccmSuQZN.s 			page 32


 818:..\..\..\..\..\..\Software\uCOS-III\Source/os_tmr.c **** {
 798              		.loc 1 818 1 is_stmt 1 view -0
 799              		.cfi_startproc
 800              		@ args = 0, pretend = 0, frame = 0
 801              		@ frame_needed = 0, uses_anonymous_args = 0
 802              		.loc 1 818 1 is_stmt 0 view .LVU263
 803 0000 30B5     		push	{r4, r5, lr}
 804              		.cfi_def_cfa_offset 12
 805              		.cfi_offset 4, -12
 806              		.cfi_offset 5, -8
 807              		.cfi_offset 14, -4
 808 0002 8BB0     		sub	sp, sp, #44
 809              		.cfi_def_cfa_offset 56
 810 0004 0500     		movs	r5, r0
 819:..\..\..\..\..\..\Software\uCOS-III\Source/os_tmr.c ****     OS_TMR_SPOKE_IX   i;
 811              		.loc 1 819 5 is_stmt 1 view .LVU264
 820:..\..\..\..\..\..\Software\uCOS-III\Source/os_tmr.c ****     OS_TMR_SPOKE     *p_spoke;
 812              		.loc 1 820 5 view .LVU265
 821:..\..\..\..\..\..\Software\uCOS-III\Source/os_tmr.c **** 
 822:..\..\..\..\..\..\Software\uCOS-III\Source/os_tmr.c **** 
 823:..\..\..\..\..\..\Software\uCOS-III\Source/os_tmr.c **** 
 824:..\..\..\..\..\..\Software\uCOS-III\Source/os_tmr.c **** #ifdef OS_SAFETY_CRITICAL
 825:..\..\..\..\..\..\Software\uCOS-III\Source/os_tmr.c ****     if (p_err == (OS_ERR *)0) {
 826:..\..\..\..\..\..\Software\uCOS-III\Source/os_tmr.c ****         OS_SAFETY_CRITICAL_EXCEPTION();
 827:..\..\..\..\..\..\Software\uCOS-III\Source/os_tmr.c ****         return;
 828:..\..\..\..\..\..\Software\uCOS-III\Source/os_tmr.c ****     }
 829:..\..\..\..\..\..\Software\uCOS-III\Source/os_tmr.c **** #endif
 830:..\..\..\..\..\..\Software\uCOS-III\Source/os_tmr.c **** 
 831:..\..\..\..\..\..\Software\uCOS-III\Source/os_tmr.c **** #if OS_CFG_DBG_EN > 0u
 832:..\..\..\..\..\..\Software\uCOS-III\Source/os_tmr.c ****     OSTmrDbgListPtr = (OS_TMR *)0;
 813              		.loc 1 832 5 view .LVU266
 814              		.loc 1 832 21 is_stmt 0 view .LVU267
 815 0006 2C4B     		ldr	r3, .L70
 816 0008 0022     		movs	r2, #0
 817 000a 1A60     		str	r2, [r3]
 833:..\..\..\..\..\..\Software\uCOS-III\Source/os_tmr.c **** #endif
 834:..\..\..\..\..\..\Software\uCOS-III\Source/os_tmr.c **** 
 835:..\..\..\..\..\..\Software\uCOS-III\Source/os_tmr.c ****     if (OSCfg_TmrTaskRate_Hz > (OS_RATE_HZ)0) {
 818              		.loc 1 835 5 is_stmt 1 view .LVU268
 819              		.loc 1 835 30 is_stmt 0 view .LVU269
 820 000c 2B4B     		ldr	r3, .L70+4
 821 000e 1968     		ldr	r1, [r3]
 822              		.loc 1 835 8 view .LVU270
 823 0010 0029     		cmp	r1, #0
 824 0012 1CD0     		beq	.L59
 836:..\..\..\..\..\..\Software\uCOS-III\Source/os_tmr.c ****         OSTmrUpdateCnt = OSCfg_TickRate_Hz / OSCfg_TmrTaskRate_Hz;
 825              		.loc 1 836 9 is_stmt 1 view .LVU271
 826              		.loc 1 836 44 is_stmt 0 view .LVU272
 827 0014 2A4B     		ldr	r3, .L70+8
 828 0016 1868     		ldr	r0, [r3]
 829              	.LVL73:
 830              		.loc 1 836 44 view .LVU273
 831 0018 FFF7FEFF 		bl	__aeabi_uidiv
 832              	.LVL74:
 833              		.loc 1 836 24 view .LVU274
 834 001c 294B     		ldr	r3, .L70+12
 835 001e 1860     		str	r0, [r3]
ARM GAS  C:\Users\EDULU~1.DES\AppData\Local\Temp\ccmSuQZN.s 			page 33


 836              	.L60:
 837:..\..\..\..\..\..\Software\uCOS-III\Source/os_tmr.c ****     } else {
 838:..\..\..\..\..\..\Software\uCOS-III\Source/os_tmr.c ****         OSTmrUpdateCnt = OSCfg_TickRate_Hz / (OS_RATE_HZ)10;
 839:..\..\..\..\..\..\Software\uCOS-III\Source/os_tmr.c ****     }
 840:..\..\..\..\..\..\Software\uCOS-III\Source/os_tmr.c ****     OSTmrUpdateCtr   = OSTmrUpdateCnt;
 837              		.loc 1 840 5 is_stmt 1 view .LVU275
 838              		.loc 1 840 22 is_stmt 0 view .LVU276
 839 0020 284B     		ldr	r3, .L70+12
 840 0022 1A68     		ldr	r2, [r3]
 841 0024 284B     		ldr	r3, .L70+16
 842 0026 1A60     		str	r2, [r3]
 841:..\..\..\..\..\..\Software\uCOS-III\Source/os_tmr.c **** 
 842:..\..\..\..\..\..\Software\uCOS-III\Source/os_tmr.c ****     OSTmrTickCtr     = (OS_TICK)0;
 843              		.loc 1 842 5 is_stmt 1 view .LVU277
 844              		.loc 1 842 22 is_stmt 0 view .LVU278
 845 0028 0023     		movs	r3, #0
 846 002a 284A     		ldr	r2, .L70+20
 847 002c 1360     		str	r3, [r2]
 843:..\..\..\..\..\..\Software\uCOS-III\Source/os_tmr.c **** 
 844:..\..\..\..\..\..\Software\uCOS-III\Source/os_tmr.c ****     OSTmrTaskTimeMax = (CPU_TS)0;
 848              		.loc 1 844 5 is_stmt 1 view .LVU279
 849              		.loc 1 844 22 is_stmt 0 view .LVU280
 850 002e 284A     		ldr	r2, .L70+24
 851 0030 1360     		str	r3, [r2]
 845:..\..\..\..\..\..\Software\uCOS-III\Source/os_tmr.c **** 
 846:..\..\..\..\..\..\Software\uCOS-III\Source/os_tmr.c ****     for (i = 0u; i < OSCfg_TmrWheelSize; i++) {
 852              		.loc 1 846 5 is_stmt 1 view .LVU281
 853              	.LVL75:
 854              	.L61:
 855              		.loc 1 846 20 is_stmt 0 discriminator 1 view .LVU282
 856 0032 284A     		ldr	r2, .L70+28
 857 0034 1288     		ldrh	r2, [r2]
 858              		.loc 1 846 5 discriminator 1 view .LVU283
 859 0036 9A42     		cmp	r2, r3
 860 0038 11D9     		bls	.L67
 847:..\..\..\..\..\..\Software\uCOS-III\Source/os_tmr.c ****         p_spoke                = &OSCfg_TmrWheel[i];
 861              		.loc 1 847 9 is_stmt 1 discriminator 3 view .LVU284
 862              	.LVL76:
 848:..\..\..\..\..\..\Software\uCOS-III\Source/os_tmr.c ****         p_spoke->NbrEntries    = (OS_OBJ_QTY)0;
 863              		.loc 1 848 9 discriminator 3 view .LVU285
 864              		.loc 1 848 32 is_stmt 0 discriminator 3 view .LVU286
 865 003a 2749     		ldr	r1, .L70+32
 866 003c D800     		lsls	r0, r3, #3
 867 003e 0C18     		adds	r4, r1, r0
 868              	.LVL77:
 869              		.loc 1 848 32 discriminator 3 view .LVU287
 870 0040 0022     		movs	r2, #0
 871 0042 A280     		strh	r2, [r4, #4]
 849:..\..\..\..\..\..\Software\uCOS-III\Source/os_tmr.c ****         p_spoke->NbrEntriesMax = (OS_OBJ_QTY)0;
 872              		.loc 1 849 9 is_stmt 1 discriminator 3 view .LVU288
 873              		.loc 1 849 32 is_stmt 0 discriminator 3 view .LVU289
 874 0044 E280     		strh	r2, [r4, #6]
 850:..\..\..\..\..\..\Software\uCOS-III\Source/os_tmr.c ****         p_spoke->FirstPtr      = (OS_TMR   *)0;
 875              		.loc 1 850 9 is_stmt 1 discriminator 3 view .LVU290
 876              		.loc 1 850 32 is_stmt 0 discriminator 3 view .LVU291
 877 0046 4250     		str	r2, [r0, r1]
 846:..\..\..\..\..\..\Software\uCOS-III\Source/os_tmr.c ****         p_spoke                = &OSCfg_TmrWheel[i];
ARM GAS  C:\Users\EDULU~1.DES\AppData\Local\Temp\ccmSuQZN.s 			page 34


 878              		.loc 1 846 43 discriminator 3 view .LVU292
 879 0048 0133     		adds	r3, r3, #1
 880              	.LVL78:
 846:..\..\..\..\..\..\Software\uCOS-III\Source/os_tmr.c ****         p_spoke                = &OSCfg_TmrWheel[i];
 881              		.loc 1 846 43 discriminator 3 view .LVU293
 882 004a 9BB2     		uxth	r3, r3
 883              	.LVL79:
 846:..\..\..\..\..\..\Software\uCOS-III\Source/os_tmr.c ****         p_spoke                = &OSCfg_TmrWheel[i];
 884              		.loc 1 846 43 discriminator 3 view .LVU294
 885 004c F1E7     		b	.L61
 886              	.LVL80:
 887              	.L59:
 838:..\..\..\..\..\..\Software\uCOS-III\Source/os_tmr.c ****     }
 888              		.loc 1 838 9 is_stmt 1 view .LVU295
 838:..\..\..\..\..\..\Software\uCOS-III\Source/os_tmr.c ****     }
 889              		.loc 1 838 44 is_stmt 0 view .LVU296
 890 004e 1C4B     		ldr	r3, .L70+8
 891 0050 1868     		ldr	r0, [r3]
 892              	.LVL81:
 838:..\..\..\..\..\..\Software\uCOS-III\Source/os_tmr.c ****     }
 893              		.loc 1 838 44 view .LVU297
 894 0052 0A21     		movs	r1, #10
 895 0054 FFF7FEFF 		bl	__aeabi_uidiv
 896              	.LVL82:
 838:..\..\..\..\..\..\Software\uCOS-III\Source/os_tmr.c ****     }
 897              		.loc 1 838 24 view .LVU298
 898 0058 1A4B     		ldr	r3, .L70+12
 899 005a 1860     		str	r0, [r3]
 900 005c E0E7     		b	.L60
 901              	.LVL83:
 902              	.L67:
 851:..\..\..\..\..\..\Software\uCOS-III\Source/os_tmr.c ****     }
 852:..\..\..\..\..\..\Software\uCOS-III\Source/os_tmr.c **** 
 853:..\..\..\..\..\..\Software\uCOS-III\Source/os_tmr.c ****                                                             /* ---------------- CREATE THE TIMER TA
 854:..\..\..\..\..\..\Software\uCOS-III\Source/os_tmr.c ****     if (OSCfg_TmrTaskStkBasePtr == (CPU_STK*)0) {
 903              		.loc 1 854 5 is_stmt 1 view .LVU299
 904              		.loc 1 854 33 is_stmt 0 view .LVU300
 905 005e 1F4B     		ldr	r3, .L70+36
 906              	.LVL84:
 907              		.loc 1 854 33 view .LVU301
 908 0060 1B68     		ldr	r3, [r3]
 909              		.loc 1 854 8 view .LVU302
 910 0062 002B     		cmp	r3, #0
 911 0064 0CD0     		beq	.L68
 855:..\..\..\..\..\..\Software\uCOS-III\Source/os_tmr.c ****        *p_err = OS_ERR_TMR_STK_INVALID;
 856:..\..\..\..\..\..\Software\uCOS-III\Source/os_tmr.c ****         return;
 857:..\..\..\..\..\..\Software\uCOS-III\Source/os_tmr.c ****     }
 858:..\..\..\..\..\..\Software\uCOS-III\Source/os_tmr.c **** 
 859:..\..\..\..\..\..\Software\uCOS-III\Source/os_tmr.c ****     if (OSCfg_TmrTaskStkSize < OSCfg_StkSizeMin) {
 912              		.loc 1 859 5 is_stmt 1 view .LVU303
 913              		.loc 1 859 30 is_stmt 0 view .LVU304
 914 0066 1E4A     		ldr	r2, .L70+40
 915 0068 1268     		ldr	r2, [r2]
 916 006a 1E49     		ldr	r1, .L70+44
 917 006c 0968     		ldr	r1, [r1]
 918              		.loc 1 859 8 view .LVU305
 919 006e 8A42     		cmp	r2, r1
ARM GAS  C:\Users\EDULU~1.DES\AppData\Local\Temp\ccmSuQZN.s 			page 35


 920 0070 09D3     		bcc	.L69
 860:..\..\..\..\..\..\Software\uCOS-III\Source/os_tmr.c ****        *p_err = OS_ERR_TMR_STK_SIZE_INVALID;
 861:..\..\..\..\..\..\Software\uCOS-III\Source/os_tmr.c ****         return;
 862:..\..\..\..\..\..\Software\uCOS-III\Source/os_tmr.c ****     }
 863:..\..\..\..\..\..\Software\uCOS-III\Source/os_tmr.c **** 
 864:..\..\..\..\..\..\Software\uCOS-III\Source/os_tmr.c ****     if (OSCfg_TmrTaskPrio >= (OS_CFG_PRIO_MAX - 1u)) {
 921              		.loc 1 864 5 is_stmt 1 view .LVU306
 922              		.loc 1 864 27 is_stmt 0 view .LVU307
 923 0072 1D49     		ldr	r1, .L70+48
 924 0074 0978     		ldrb	r1, [r1]
 925              		.loc 1 864 8 view .LVU308
 926 0076 1E29     		cmp	r1, #30
 927 0078 09D9     		bls	.L66
 865:..\..\..\..\..\..\Software\uCOS-III\Source/os_tmr.c ****        *p_err = OS_ERR_TMR_PRIO_INVALID;
 928              		.loc 1 865 8 is_stmt 1 view .LVU309
 929              		.loc 1 865 15 is_stmt 0 view .LVU310
 930 007a 1C4B     		ldr	r3, .L70+52
 931 007c 2B80     		strh	r3, [r5]
 866:..\..\..\..\..\..\Software\uCOS-III\Source/os_tmr.c ****         return;
 932              		.loc 1 866 9 is_stmt 1 view .LVU311
 933 007e 04E0     		b	.L58
 934              	.L68:
 855:..\..\..\..\..\..\Software\uCOS-III\Source/os_tmr.c ****         return;
 935              		.loc 1 855 8 view .LVU312
 855:..\..\..\..\..\..\Software\uCOS-III\Source/os_tmr.c ****         return;
 936              		.loc 1 855 15 is_stmt 0 view .LVU313
 937 0080 1B4B     		ldr	r3, .L70+56
 938 0082 2B80     		strh	r3, [r5]
 856:..\..\..\..\..\..\Software\uCOS-III\Source/os_tmr.c ****     }
 939              		.loc 1 856 9 is_stmt 1 view .LVU314
 940 0084 01E0     		b	.L58
 941              	.L69:
 860:..\..\..\..\..\..\Software\uCOS-III\Source/os_tmr.c ****         return;
 942              		.loc 1 860 8 view .LVU315
 860:..\..\..\..\..\..\Software\uCOS-III\Source/os_tmr.c ****         return;
 943              		.loc 1 860 15 is_stmt 0 view .LVU316
 944 0086 1B4B     		ldr	r3, .L70+60
 945 0088 2B80     		strh	r3, [r5]
 861:..\..\..\..\..\..\Software\uCOS-III\Source/os_tmr.c ****     }
 946              		.loc 1 861 9 is_stmt 1 view .LVU317
 947              	.L58:
 867:..\..\..\..\..\..\Software\uCOS-III\Source/os_tmr.c ****     }
 868:..\..\..\..\..\..\Software\uCOS-III\Source/os_tmr.c **** 
 869:..\..\..\..\..\..\Software\uCOS-III\Source/os_tmr.c ****     OSTaskCreate((OS_TCB     *)&OSTmrTaskTCB,
 870:..\..\..\..\..\..\Software\uCOS-III\Source/os_tmr.c ****                  (CPU_CHAR   *)((void *)"uC/OS-III Timer Task"),
 871:..\..\..\..\..\..\Software\uCOS-III\Source/os_tmr.c ****                  (OS_TASK_PTR )OS_TmrTask,
 872:..\..\..\..\..\..\Software\uCOS-III\Source/os_tmr.c ****                  (void       *)0,
 873:..\..\..\..\..\..\Software\uCOS-III\Source/os_tmr.c ****                  (OS_PRIO     )OSCfg_TmrTaskPrio,
 874:..\..\..\..\..\..\Software\uCOS-III\Source/os_tmr.c ****                  (CPU_STK    *)OSCfg_TmrTaskStkBasePtr,
 875:..\..\..\..\..\..\Software\uCOS-III\Source/os_tmr.c ****                  (CPU_STK_SIZE)OSCfg_TmrTaskStkLimit,
 876:..\..\..\..\..\..\Software\uCOS-III\Source/os_tmr.c ****                  (CPU_STK_SIZE)OSCfg_TmrTaskStkSize,
 877:..\..\..\..\..\..\Software\uCOS-III\Source/os_tmr.c ****                  (OS_MSG_QTY  )0,
 878:..\..\..\..\..\..\Software\uCOS-III\Source/os_tmr.c ****                  (OS_TICK     )0,
 879:..\..\..\..\..\..\Software\uCOS-III\Source/os_tmr.c ****                  (void       *)0,
 880:..\..\..\..\..\..\Software\uCOS-III\Source/os_tmr.c ****                  (OS_OPT      )(OS_OPT_TASK_STK_CHK | OS_OPT_TASK_STK_CLR | OS_OPT_TASK_NO_TLS),
 881:..\..\..\..\..\..\Software\uCOS-III\Source/os_tmr.c ****                  (OS_ERR     *)p_err);
 882:..\..\..\..\..\..\Software\uCOS-III\Source/os_tmr.c **** }
ARM GAS  C:\Users\EDULU~1.DES\AppData\Local\Temp\ccmSuQZN.s 			page 36


 948              		.loc 1 882 1 is_stmt 0 view .LVU318
 949 008a 0BB0     		add	sp, sp, #44
 950              		@ sp needed
 951              	.LVL85:
 952              		.loc 1 882 1 view .LVU319
 953 008c 30BD     		pop	{r4, r5, pc}
 954              	.LVL86:
 955              	.L66:
 869:..\..\..\..\..\..\Software\uCOS-III\Source/os_tmr.c ****                  (CPU_CHAR   *)((void *)"uC/OS-III Timer Task"),
 956              		.loc 1 869 5 is_stmt 1 view .LVU320
 957 008e 0895     		str	r5, [sp, #32]
 958 0090 0B20     		movs	r0, #11
 959 0092 0790     		str	r0, [sp, #28]
 960 0094 0020     		movs	r0, #0
 961 0096 0690     		str	r0, [sp, #24]
 962 0098 0590     		str	r0, [sp, #20]
 963 009a 0490     		str	r0, [sp, #16]
 964 009c 0392     		str	r2, [sp, #12]
 965 009e 164A     		ldr	r2, .L70+64
 966 00a0 1268     		ldr	r2, [r2]
 967 00a2 0292     		str	r2, [sp, #8]
 968 00a4 0193     		str	r3, [sp, #4]
 969 00a6 0091     		str	r1, [sp]
 970 00a8 0023     		movs	r3, #0
 971 00aa 144A     		ldr	r2, .L70+68
 972 00ac 1449     		ldr	r1, .L70+72
 973 00ae 1548     		ldr	r0, .L70+76
 974 00b0 FFF7FEFF 		bl	OSTaskCreate
 975              	.LVL87:
 976 00b4 E9E7     		b	.L58
 977              	.L71:
 978 00b6 C046     		.align	2
 979              	.L70:
 980 00b8 00000000 		.word	OSTmrDbgListPtr
 981 00bc 00000000 		.word	OSCfg_TmrTaskRate_Hz
 982 00c0 00000000 		.word	OSCfg_TickRate_Hz
 983 00c4 00000000 		.word	OSTmrUpdateCnt
 984 00c8 00000000 		.word	OSTmrUpdateCtr
 985 00cc 00000000 		.word	OSTmrTickCtr
 986 00d0 00000000 		.word	OSTmrTaskTimeMax
 987 00d4 00000000 		.word	OSCfg_TmrWheelSize
 988 00d8 00000000 		.word	OSCfg_TmrWheel
 989 00dc 00000000 		.word	OSCfg_TmrTaskStkBasePtr
 990 00e0 00000000 		.word	OSCfg_TmrTaskStkSize
 991 00e4 00000000 		.word	OSCfg_StkSizeMin
 992 00e8 00000000 		.word	OSCfg_TmrTaskPrio
 993 00ec 46730000 		.word	29510
 994 00f0 47730000 		.word	29511
 995 00f4 48730000 		.word	29512
 996 00f8 00000000 		.word	OSCfg_TmrTaskStkLimit
 997 00fc 00000000 		.word	OS_TmrTask
 998 0100 08000000 		.word	.LC23
 999 0104 00000000 		.word	OSTmrTaskTCB
 1000              		.cfi_endproc
 1001              	.LFE11:
 1002              		.size	OS_TmrInit, .-OS_TmrInit
 1003              		.global	__aeabi_uidivmod
ARM GAS  C:\Users\EDULU~1.DES\AppData\Local\Temp\ccmSuQZN.s 			page 37


 1004              		.section	.text.OS_TmrLink,"ax",%progbits
 1005              		.align	1
 1006              		.global	OS_TmrLink
 1007              		.syntax unified
 1008              		.code	16
 1009              		.thumb_func
 1010              		.fpu softvfp
 1011              		.type	OS_TmrLink, %function
 1012              	OS_TmrLink:
 1013              	.LVL88:
 1014              	.LFB12:
 883:..\..\..\..\..\..\Software\uCOS-III\Source/os_tmr.c **** 
 884:..\..\..\..\..\..\Software\uCOS-III\Source/os_tmr.c **** /*$PAGE*/
 885:..\..\..\..\..\..\Software\uCOS-III\Source/os_tmr.c **** /*
 886:..\..\..\..\..\..\Software\uCOS-III\Source/os_tmr.c **** ***************************************************************************************************
 887:..\..\..\..\..\..\Software\uCOS-III\Source/os_tmr.c **** *                                         INSERT A TIMER INTO THE TIMER WHEEL
 888:..\..\..\..\..\..\Software\uCOS-III\Source/os_tmr.c **** *
 889:..\..\..\..\..\..\Software\uCOS-III\Source/os_tmr.c **** * Description: This function is called to insert the timer into the timer wheel.  The timer is alwa
 890:..\..\..\..\..\..\Software\uCOS-III\Source/os_tmr.c **** *              beginning of the list.
 891:..\..\..\..\..\..\Software\uCOS-III\Source/os_tmr.c **** *
 892:..\..\..\..\..\..\Software\uCOS-III\Source/os_tmr.c **** * Arguments  : p_tmr          Is a pointer to the timer to insert.
 893:..\..\..\..\..\..\Software\uCOS-III\Source/os_tmr.c **** *              -----
 894:..\..\..\..\..\..\Software\uCOS-III\Source/os_tmr.c **** *
 895:..\..\..\..\..\..\Software\uCOS-III\Source/os_tmr.c **** *              opt            Is either:
 896:..\..\..\..\..\..\Software\uCOS-III\Source/os_tmr.c **** *
 897:..\..\..\..\..\..\Software\uCOS-III\Source/os_tmr.c **** *                               OS_OPT_LINK_PERIODIC    Means to re-insert the timer after a period
 898:..\..\..\..\..\..\Software\uCOS-III\Source/os_tmr.c **** *                               OS_OPT_LINK_DLY         Means to insert    the timer the first time
 899:..\..\..\..\..\..\Software\uCOS-III\Source/os_tmr.c **** *
 900:..\..\..\..\..\..\Software\uCOS-III\Source/os_tmr.c **** * Returns    : none
 901:..\..\..\..\..\..\Software\uCOS-III\Source/os_tmr.c **** *
 902:..\..\..\..\..\..\Software\uCOS-III\Source/os_tmr.c **** * Note(s)    : 1) This function is INTERNAL to uC/OS-III and your application MUST NOT call it.
 903:..\..\..\..\..\..\Software\uCOS-III\Source/os_tmr.c **** ***************************************************************************************************
 904:..\..\..\..\..\..\Software\uCOS-III\Source/os_tmr.c **** */
 905:..\..\..\..\..\..\Software\uCOS-III\Source/os_tmr.c **** 
 906:..\..\..\..\..\..\Software\uCOS-III\Source/os_tmr.c **** void  OS_TmrLink (OS_TMR  *p_tmr,
 907:..\..\..\..\..\..\Software\uCOS-III\Source/os_tmr.c ****                   OS_OPT   opt)
 908:..\..\..\..\..\..\Software\uCOS-III\Source/os_tmr.c **** {
 1015              		.loc 1 908 1 view -0
 1016              		.cfi_startproc
 1017              		@ args = 0, pretend = 0, frame = 0
 1018              		@ frame_needed = 0, uses_anonymous_args = 0
 1019              		.loc 1 908 1 is_stmt 0 view .LVU322
 1020 0000 70B5     		push	{r4, r5, r6, lr}
 1021              		.cfi_def_cfa_offset 16
 1022              		.cfi_offset 4, -16
 1023              		.cfi_offset 5, -12
 1024              		.cfi_offset 6, -8
 1025              		.cfi_offset 14, -4
 1026 0002 0400     		movs	r4, r0
 909:..\..\..\..\..\..\Software\uCOS-III\Source/os_tmr.c ****     OS_TMR_SPOKE     *p_spoke;
 1027              		.loc 1 909 5 is_stmt 1 view .LVU323
 910:..\..\..\..\..\..\Software\uCOS-III\Source/os_tmr.c ****     OS_TMR           *p_tmr0;
 1028              		.loc 1 910 5 view .LVU324
 911:..\..\..\..\..\..\Software\uCOS-III\Source/os_tmr.c ****     OS_TMR           *p_tmr1;
 1029              		.loc 1 911 5 view .LVU325
 912:..\..\..\..\..\..\Software\uCOS-III\Source/os_tmr.c ****     OS_TMR_SPOKE_IX   spoke;
 1030              		.loc 1 912 5 view .LVU326
ARM GAS  C:\Users\EDULU~1.DES\AppData\Local\Temp\ccmSuQZN.s 			page 38


 913:..\..\..\..\..\..\Software\uCOS-III\Source/os_tmr.c **** 
 914:..\..\..\..\..\..\Software\uCOS-III\Source/os_tmr.c **** 
 915:..\..\..\..\..\..\Software\uCOS-III\Source/os_tmr.c **** 
 916:..\..\..\..\..\..\Software\uCOS-III\Source/os_tmr.c ****     p_tmr->State = OS_TMR_STATE_RUNNING;
 1031              		.loc 1 916 5 view .LVU327
 1032              		.loc 1 916 18 is_stmt 0 view .LVU328
 1033 0004 2A23     		movs	r3, #42
 1034 0006 0222     		movs	r2, #2
 1035 0008 C254     		strb	r2, [r0, r3]
 917:..\..\..\..\..\..\Software\uCOS-III\Source/os_tmr.c ****     if (opt == OS_OPT_LINK_PERIODIC) {                      /* Determine when timer will expire    
 1036              		.loc 1 917 5 is_stmt 1 view .LVU329
 1037              		.loc 1 917 8 is_stmt 0 view .LVU330
 1038 000a 0129     		cmp	r1, #1
 1039 000c 09D0     		beq	.L85
 918:..\..\..\..\..\..\Software\uCOS-III\Source/os_tmr.c ****         p_tmr->Match = p_tmr->Period + OSTmrTickCtr;
 919:..\..\..\..\..\..\Software\uCOS-III\Source/os_tmr.c ****     } else {
 920:..\..\..\..\..\..\Software\uCOS-III\Source/os_tmr.c ****         if (p_tmr->Dly == (OS_TICK)0) {
 1040              		.loc 1 920 9 is_stmt 1 view .LVU331
 1041              		.loc 1 920 18 is_stmt 0 view .LVU332
 1042 000e 036A     		ldr	r3, [r0, #32]
 1043              		.loc 1 920 12 view .LVU333
 1044 0010 002B     		cmp	r3, #0
 1045 0012 2DD1     		bne	.L75
 921:..\..\..\..\..\..\Software\uCOS-III\Source/os_tmr.c ****             p_tmr->Match = p_tmr->Period + OSTmrTickCtr;
 1046              		.loc 1 921 13 is_stmt 1 view .LVU334
 1047              		.loc 1 921 42 is_stmt 0 view .LVU335
 1048 0014 2F4B     		ldr	r3, .L89
 1049 0016 1B68     		ldr	r3, [r3]
 1050 0018 426A     		ldr	r2, [r0, #36]
 1051 001a 9446     		mov	ip, r2
 1052 001c 6344     		add	r3, r3, ip
 1053              		.loc 1 921 26 view .LVU336
 1054 001e 8361     		str	r3, [r0, #24]
 1055 0020 05E0     		b	.L74
 1056              	.L85:
 918:..\..\..\..\..\..\Software\uCOS-III\Source/os_tmr.c ****         p_tmr->Match = p_tmr->Period + OSTmrTickCtr;
 1057              		.loc 1 918 9 is_stmt 1 view .LVU337
 918:..\..\..\..\..\..\Software\uCOS-III\Source/os_tmr.c ****         p_tmr->Match = p_tmr->Period + OSTmrTickCtr;
 1058              		.loc 1 918 38 is_stmt 0 view .LVU338
 1059 0022 2C4B     		ldr	r3, .L89
 1060 0024 1B68     		ldr	r3, [r3]
 1061 0026 426A     		ldr	r2, [r0, #36]
 1062 0028 9446     		mov	ip, r2
 1063 002a 6344     		add	r3, r3, ip
 918:..\..\..\..\..\..\Software\uCOS-III\Source/os_tmr.c ****         p_tmr->Match = p_tmr->Period + OSTmrTickCtr;
 1064              		.loc 1 918 22 view .LVU339
 1065 002c 8361     		str	r3, [r0, #24]
 1066              	.L74:
 922:..\..\..\..\..\..\Software\uCOS-III\Source/os_tmr.c ****         } else {
 923:..\..\..\..\..\..\Software\uCOS-III\Source/os_tmr.c ****             p_tmr->Match = p_tmr->Dly    + OSTmrTickCtr;
 924:..\..\..\..\..\..\Software\uCOS-III\Source/os_tmr.c ****         }
 925:..\..\..\..\..\..\Software\uCOS-III\Source/os_tmr.c ****     }
 926:..\..\..\..\..\..\Software\uCOS-III\Source/os_tmr.c ****     spoke  = (OS_TMR_SPOKE_IX)(p_tmr->Match % OSCfg_TmrWheelSize);
 1067              		.loc 1 926 5 is_stmt 1 view .LVU340
 1068              		.loc 1 926 37 is_stmt 0 view .LVU341
 1069 002e A669     		ldr	r6, [r4, #24]
 1070              		.loc 1 926 45 view .LVU342
ARM GAS  C:\Users\EDULU~1.DES\AppData\Local\Temp\ccmSuQZN.s 			page 39


 1071 0030 294B     		ldr	r3, .L89+4
 1072 0032 1988     		ldrh	r1, [r3]
 1073              	.LVL89:
 1074              		.loc 1 926 45 view .LVU343
 1075 0034 3000     		movs	r0, r6
 1076              	.LVL90:
 1077              		.loc 1 926 45 view .LVU344
 1078 0036 FFF7FEFF 		bl	__aeabi_uidivmod
 1079              	.LVL91:
 927:..\..\..\..\..\..\Software\uCOS-III\Source/os_tmr.c ****     p_spoke = &OSCfg_TmrWheel[spoke];
 1080              		.loc 1 927 5 is_stmt 1 view .LVU345
 1081              		.loc 1 927 30 is_stmt 0 view .LVU346
 1082 003a 0904     		lsls	r1, r1, #16
 1083              	.LVL92:
 1084              		.loc 1 927 30 view .LVU347
 1085 003c 090C     		lsrs	r1, r1, #16
 1086              	.LVL93:
 928:..\..\..\..\..\..\Software\uCOS-III\Source/os_tmr.c **** 
 929:..\..\..\..\..\..\Software\uCOS-III\Source/os_tmr.c ****     if (p_spoke->FirstPtr ==  (OS_TMR *)0) {                /* Link into timer wheel               
 1087              		.loc 1 929 5 is_stmt 1 view .LVU348
 1088              		.loc 1 929 16 is_stmt 0 view .LVU349
 1089 003e CA00     		lsls	r2, r1, #3
 1090 0040 264B     		ldr	r3, .L89+8
 1091 0042 D358     		ldr	r3, [r2, r3]
 1092              		.loc 1 929 8 view .LVU350
 1093 0044 002B     		cmp	r3, #0
 1094 0046 18D0     		beq	.L86
 930:..\..\..\..\..\..\Software\uCOS-III\Source/os_tmr.c ****         p_tmr->NextPtr      = (OS_TMR *)0;
 931:..\..\..\..\..\..\Software\uCOS-III\Source/os_tmr.c ****         p_tmr->PrevPtr      = (OS_TMR *)0;
 932:..\..\..\..\..\..\Software\uCOS-III\Source/os_tmr.c ****         p_spoke->FirstPtr   = p_tmr;
 933:..\..\..\..\..\..\Software\uCOS-III\Source/os_tmr.c ****         p_spoke->NbrEntries = 1u;
 934:..\..\..\..\..\..\Software\uCOS-III\Source/os_tmr.c ****     } else {
 935:..\..\..\..\..\..\Software\uCOS-III\Source/os_tmr.c ****         p_tmr->Remain  = p_tmr->Match                       /* Compute remaining time for timer    
 1095              		.loc 1 935 9 is_stmt 1 view .LVU351
 936:..\..\..\..\..\..\Software\uCOS-III\Source/os_tmr.c ****                        - OSTmrTickCtr;
 1096              		.loc 1 936 24 is_stmt 0 view .LVU352
 1097 0048 224B     		ldr	r3, .L89
 1098 004a 1D68     		ldr	r5, [r3]
 1099 004c 761B     		subs	r6, r6, r5
 935:..\..\..\..\..\..\Software\uCOS-III\Source/os_tmr.c ****                        - OSTmrTickCtr;
 1100              		.loc 1 935 24 view .LVU353
 1101 004e E661     		str	r6, [r4, #28]
 937:..\..\..\..\..\..\Software\uCOS-III\Source/os_tmr.c ****         p_tmr1         = p_spoke->FirstPtr;                 /* Point to current first timer in the 
 1102              		.loc 1 937 9 is_stmt 1 view .LVU354
 1103              		.loc 1 937 24 is_stmt 0 view .LVU355
 1104 0050 CB00     		lsls	r3, r1, #3
 1105 0052 224A     		ldr	r2, .L89+8
 1106 0054 9B58     		ldr	r3, [r3, r2]
 1107              	.LVL94:
 938:..\..\..\..\..\..\Software\uCOS-III\Source/os_tmr.c ****         while (p_tmr1 != (OS_TMR *)0) {
 1108              		.loc 1 938 9 is_stmt 1 view .LVU356
 1109              	.L78:
 1110              		.loc 1 938 15 is_stmt 0 view .LVU357
 1111 0056 002B     		cmp	r3, #0
 1112 0058 1AD0     		beq	.L80
 939:..\..\..\..\..\..\Software\uCOS-III\Source/os_tmr.c ****             p_tmr1->Remain = p_tmr1->Match                  /* Compute time remaining of current ti
 1113              		.loc 1 939 13 is_stmt 1 view .LVU358
ARM GAS  C:\Users\EDULU~1.DES\AppData\Local\Temp\ccmSuQZN.s 			page 40


 940:..\..\..\..\..\..\Software\uCOS-III\Source/os_tmr.c ****                            - OSTmrTickCtr;
 1114              		.loc 1 940 28 is_stmt 0 view .LVU359
 1115 005a 9A69     		ldr	r2, [r3, #24]
 1116 005c 521B     		subs	r2, r2, r5
 939:..\..\..\..\..\..\Software\uCOS-III\Source/os_tmr.c ****             p_tmr1->Remain = p_tmr1->Match                  /* Compute time remaining of current ti
 1117              		.loc 1 939 28 view .LVU360
 1118 005e DA61     		str	r2, [r3, #28]
 941:..\..\..\..\..\..\Software\uCOS-III\Source/os_tmr.c ****             if (p_tmr->Remain > p_tmr1->Remain) {           /* Do we need to insert AFTER current t
 1119              		.loc 1 941 13 is_stmt 1 view .LVU361
 1120              		.loc 1 941 16 is_stmt 0 view .LVU362
 1121 0060 E069     		ldr	r0, [r4, #28]
 1122 0062 8242     		cmp	r2, r0
 1123 0064 26D2     		bcs	.L79
 942:..\..\..\..\..\..\Software\uCOS-III\Source/os_tmr.c ****                 if (p_tmr1->NextPtr  != (OS_TMR *)0) {      /* Yes, are we pointing at the last tim
 1124              		.loc 1 942 17 is_stmt 1 view .LVU363
 1125              		.loc 1 942 27 is_stmt 0 view .LVU364
 1126 0066 1A69     		ldr	r2, [r3, #16]
 1127              		.loc 1 942 20 view .LVU365
 1128 0068 002A     		cmp	r2, #0
 1129 006a 0ED0     		beq	.L87
 943:..\..\..\..\..\..\Software\uCOS-III\Source/os_tmr.c ****                     p_tmr1            = p_tmr1->NextPtr;    /* No,  Point to next timer in the list
 1130              		.loc 1 943 39 view .LVU366
 1131 006c 1300     		movs	r3, r2
 1132              	.LVL95:
 1133              		.loc 1 943 39 view .LVU367
 1134 006e F2E7     		b	.L78
 1135              	.LVL96:
 1136              	.L75:
 923:..\..\..\..\..\..\Software\uCOS-III\Source/os_tmr.c ****         }
 1137              		.loc 1 923 13 is_stmt 1 view .LVU368
 923:..\..\..\..\..\..\Software\uCOS-III\Source/os_tmr.c ****         }
 1138              		.loc 1 923 42 is_stmt 0 view .LVU369
 1139 0070 184A     		ldr	r2, .L89
 1140 0072 1268     		ldr	r2, [r2]
 1141 0074 9B18     		adds	r3, r3, r2
 923:..\..\..\..\..\..\Software\uCOS-III\Source/os_tmr.c ****         }
 1142              		.loc 1 923 26 view .LVU370
 1143 0076 8361     		str	r3, [r0, #24]
 1144 0078 D9E7     		b	.L74
 1145              	.LVL97:
 1146              	.L86:
 930:..\..\..\..\..\..\Software\uCOS-III\Source/os_tmr.c ****         p_tmr->PrevPtr      = (OS_TMR *)0;
 1147              		.loc 1 930 9 is_stmt 1 view .LVU371
 930:..\..\..\..\..\..\Software\uCOS-III\Source/os_tmr.c ****         p_tmr->PrevPtr      = (OS_TMR *)0;
 1148              		.loc 1 930 29 is_stmt 0 view .LVU372
 1149 007a 2361     		str	r3, [r4, #16]
 931:..\..\..\..\..\..\Software\uCOS-III\Source/os_tmr.c ****         p_spoke->FirstPtr   = p_tmr;
 1150              		.loc 1 931 9 is_stmt 1 view .LVU373
 931:..\..\..\..\..\..\Software\uCOS-III\Source/os_tmr.c ****         p_spoke->FirstPtr   = p_tmr;
 1151              		.loc 1 931 29 is_stmt 0 view .LVU374
 1152 007c 6361     		str	r3, [r4, #20]
 932:..\..\..\..\..\..\Software\uCOS-III\Source/os_tmr.c ****         p_spoke->NbrEntries = 1u;
 1153              		.loc 1 932 9 is_stmt 1 view .LVU375
 932:..\..\..\..\..\..\Software\uCOS-III\Source/os_tmr.c ****         p_spoke->NbrEntries = 1u;
 1154              		.loc 1 932 29 is_stmt 0 view .LVU376
 1155 007e 174B     		ldr	r3, .L89+8
 1156 0080 D450     		str	r4, [r2, r3]
ARM GAS  C:\Users\EDULU~1.DES\AppData\Local\Temp\ccmSuQZN.s 			page 41


 933:..\..\..\..\..\..\Software\uCOS-III\Source/os_tmr.c ****     } else {
 1157              		.loc 1 933 9 is_stmt 1 view .LVU377
 933:..\..\..\..\..\..\Software\uCOS-III\Source/os_tmr.c ****     } else {
 1158              		.loc 1 933 29 is_stmt 0 view .LVU378
 1159 0082 9B18     		adds	r3, r3, r2
 1160 0084 0122     		movs	r2, #1
 1161 0086 9A80     		strh	r2, [r3, #4]
 1162 0088 08E0     		b	.L77
 1163              	.LVL98:
 1164              	.L87:
 944:..\..\..\..\..\..\Software\uCOS-III\Source/os_tmr.c ****                 } else {
 945:..\..\..\..\..\..\Software\uCOS-III\Source/os_tmr.c ****                     p_tmr->NextPtr    = (OS_TMR *)0;
 1165              		.loc 1 945 21 is_stmt 1 view .LVU379
 1166              		.loc 1 945 39 is_stmt 0 view .LVU380
 1167 008a 2261     		str	r2, [r4, #16]
 946:..\..\..\..\..\..\Software\uCOS-III\Source/os_tmr.c ****                     p_tmr->PrevPtr    =  p_tmr1;
 1168              		.loc 1 946 21 is_stmt 1 view .LVU381
 1169              		.loc 1 946 39 is_stmt 0 view .LVU382
 1170 008c 6361     		str	r3, [r4, #20]
 947:..\..\..\..\..\..\Software\uCOS-III\Source/os_tmr.c ****                     p_tmr1->NextPtr   =  p_tmr;             /* Yes, timer to insert is now new last
 1171              		.loc 1 947 21 is_stmt 1 view .LVU383
 1172              		.loc 1 947 39 is_stmt 0 view .LVU384
 1173 008e 1C61     		str	r4, [r3, #16]
 948:..\..\..\..\..\..\Software\uCOS-III\Source/os_tmr.c ****                     p_tmr1            = (OS_TMR *)0;        /* Break loop                          
 1174              		.loc 1 948 21 is_stmt 1 view .LVU385
 1175              	.LVL99:
 1176              	.L80:
 949:..\..\..\..\..\..\Software\uCOS-III\Source/os_tmr.c ****                 }
 950:..\..\..\..\..\..\Software\uCOS-III\Source/os_tmr.c ****             } else {                                        /* Insert before the current timer     
 951:..\..\..\..\..\..\Software\uCOS-III\Source/os_tmr.c ****                 if (p_tmr1->PrevPtr == (OS_TMR *)0) {       /* Are we inserting before the first ti
 952:..\..\..\..\..\..\Software\uCOS-III\Source/os_tmr.c ****                     p_tmr->PrevPtr    = (OS_TMR *)0;
 953:..\..\..\..\..\..\Software\uCOS-III\Source/os_tmr.c ****                     p_tmr->NextPtr    = p_tmr1;
 954:..\..\..\..\..\..\Software\uCOS-III\Source/os_tmr.c ****                     p_tmr1->PrevPtr   = p_tmr;
 955:..\..\..\..\..\..\Software\uCOS-III\Source/os_tmr.c ****                     p_spoke->FirstPtr = p_tmr;
 956:..\..\..\..\..\..\Software\uCOS-III\Source/os_tmr.c ****                 } else {                                    /* Insert in between 2 timers already i
 957:..\..\..\..\..\..\Software\uCOS-III\Source/os_tmr.c ****                     p_tmr0            = p_tmr1->PrevPtr;
 958:..\..\..\..\..\..\Software\uCOS-III\Source/os_tmr.c ****                     p_tmr->PrevPtr    = p_tmr0;
 959:..\..\..\..\..\..\Software\uCOS-III\Source/os_tmr.c ****                     p_tmr->NextPtr    = p_tmr1;
 960:..\..\..\..\..\..\Software\uCOS-III\Source/os_tmr.c ****                     p_tmr0->NextPtr   = p_tmr;
 961:..\..\..\..\..\..\Software\uCOS-III\Source/os_tmr.c ****                     p_tmr1->PrevPtr   = p_tmr;
 962:..\..\..\..\..\..\Software\uCOS-III\Source/os_tmr.c ****                 }
 963:..\..\..\..\..\..\Software\uCOS-III\Source/os_tmr.c ****                 p_tmr1 = (OS_TMR *)0;                       /* Break loop                          
 964:..\..\..\..\..\..\Software\uCOS-III\Source/os_tmr.c ****             }
 965:..\..\..\..\..\..\Software\uCOS-III\Source/os_tmr.c ****         }
 966:..\..\..\..\..\..\Software\uCOS-III\Source/os_tmr.c ****         p_spoke->NbrEntries++;
 1177              		.loc 1 966 9 view .LVU386
 1178              		.loc 1 966 16 is_stmt 0 view .LVU387
 1179 0090 CA00     		lsls	r2, r1, #3
 1180 0092 124B     		ldr	r3, .L89+8
 1181 0094 9B18     		adds	r3, r3, r2
 1182 0096 9A88     		ldrh	r2, [r3, #4]
 1183              		.loc 1 966 28 view .LVU388
 1184 0098 0132     		adds	r2, r2, #1
 1185 009a 9A80     		strh	r2, [r3, #4]
 1186              	.L77:
 967:..\..\..\..\..\..\Software\uCOS-III\Source/os_tmr.c ****     }
 968:..\..\..\..\..\..\Software\uCOS-III\Source/os_tmr.c ****     if (p_spoke->NbrEntriesMax < p_spoke->NbrEntries) {     /* Keep track of maximum number of entr
ARM GAS  C:\Users\EDULU~1.DES\AppData\Local\Temp\ccmSuQZN.s 			page 42


 1187              		.loc 1 968 5 is_stmt 1 view .LVU389
 1188              		.loc 1 968 16 is_stmt 0 view .LVU390
 1189 009c CA00     		lsls	r2, r1, #3
 1190 009e 0F4B     		ldr	r3, .L89+8
 1191 00a0 9B18     		adds	r3, r3, r2
 1192 00a2 DA88     		ldrh	r2, [r3, #6]
 1193              		.loc 1 968 41 view .LVU391
 1194 00a4 9B88     		ldrh	r3, [r3, #4]
 1195              		.loc 1 968 8 view .LVU392
 1196 00a6 9A42     		cmp	r2, r3
 1197 00a8 03D2     		bcs	.L72
 969:..\..\..\..\..\..\Software\uCOS-III\Source/os_tmr.c ****         p_spoke->NbrEntriesMax = p_spoke->NbrEntries;
 1198              		.loc 1 969 9 is_stmt 1 view .LVU393
 1199              		.loc 1 969 32 is_stmt 0 view .LVU394
 1200 00aa C900     		lsls	r1, r1, #3
 1201              	.LVL100:
 1202              		.loc 1 969 32 view .LVU395
 1203 00ac 0B4A     		ldr	r2, .L89+8
 1204 00ae 5118     		adds	r1, r2, r1
 1205 00b0 CB80     		strh	r3, [r1, #6]
 1206              	.L72:
 970:..\..\..\..\..\..\Software\uCOS-III\Source/os_tmr.c ****     }
 971:..\..\..\..\..\..\Software\uCOS-III\Source/os_tmr.c **** }
 1207              		.loc 1 971 1 view .LVU396
 1208              		@ sp needed
 1209              	.LVL101:
 1210              		.loc 1 971 1 view .LVU397
 1211 00b2 70BD     		pop	{r4, r5, r6, pc}
 1212              	.LVL102:
 1213              	.L79:
 951:..\..\..\..\..\..\Software\uCOS-III\Source/os_tmr.c ****                     p_tmr->PrevPtr    = (OS_TMR *)0;
 1214              		.loc 1 951 17 is_stmt 1 view .LVU398
 951:..\..\..\..\..\..\Software\uCOS-III\Source/os_tmr.c ****                     p_tmr->PrevPtr    = (OS_TMR *)0;
 1215              		.loc 1 951 27 is_stmt 0 view .LVU399
 1216 00b4 5A69     		ldr	r2, [r3, #20]
 951:..\..\..\..\..\..\Software\uCOS-III\Source/os_tmr.c ****                     p_tmr->PrevPtr    = (OS_TMR *)0;
 1217              		.loc 1 951 20 view .LVU400
 1218 00b6 002A     		cmp	r2, #0
 1219 00b8 04D0     		beq	.L88
 957:..\..\..\..\..\..\Software\uCOS-III\Source/os_tmr.c ****                     p_tmr->PrevPtr    = p_tmr0;
 1220              		.loc 1 957 21 is_stmt 1 view .LVU401
 1221              	.LVL103:
 958:..\..\..\..\..\..\Software\uCOS-III\Source/os_tmr.c ****                     p_tmr->NextPtr    = p_tmr1;
 1222              		.loc 1 958 21 view .LVU402
 958:..\..\..\..\..\..\Software\uCOS-III\Source/os_tmr.c ****                     p_tmr->NextPtr    = p_tmr1;
 1223              		.loc 1 958 39 is_stmt 0 view .LVU403
 1224 00ba 6261     		str	r2, [r4, #20]
 959:..\..\..\..\..\..\Software\uCOS-III\Source/os_tmr.c ****                     p_tmr0->NextPtr   = p_tmr;
 1225              		.loc 1 959 21 is_stmt 1 view .LVU404
 959:..\..\..\..\..\..\Software\uCOS-III\Source/os_tmr.c ****                     p_tmr0->NextPtr   = p_tmr;
 1226              		.loc 1 959 39 is_stmt 0 view .LVU405
 1227 00bc 2361     		str	r3, [r4, #16]
 960:..\..\..\..\..\..\Software\uCOS-III\Source/os_tmr.c ****                     p_tmr1->PrevPtr   = p_tmr;
 1228              		.loc 1 960 21 is_stmt 1 view .LVU406
 960:..\..\..\..\..\..\Software\uCOS-III\Source/os_tmr.c ****                     p_tmr1->PrevPtr   = p_tmr;
 1229              		.loc 1 960 39 is_stmt 0 view .LVU407
 1230 00be 1461     		str	r4, [r2, #16]
ARM GAS  C:\Users\EDULU~1.DES\AppData\Local\Temp\ccmSuQZN.s 			page 43


 961:..\..\..\..\..\..\Software\uCOS-III\Source/os_tmr.c ****                 }
 1231              		.loc 1 961 21 is_stmt 1 view .LVU408
 961:..\..\..\..\..\..\Software\uCOS-III\Source/os_tmr.c ****                 }
 1232              		.loc 1 961 39 is_stmt 0 view .LVU409
 1233 00c0 5C61     		str	r4, [r3, #20]
 1234 00c2 E5E7     		b	.L80
 1235              	.LVL104:
 1236              	.L88:
 952:..\..\..\..\..\..\Software\uCOS-III\Source/os_tmr.c ****                     p_tmr->NextPtr    = p_tmr1;
 1237              		.loc 1 952 21 is_stmt 1 view .LVU410
 952:..\..\..\..\..\..\Software\uCOS-III\Source/os_tmr.c ****                     p_tmr->NextPtr    = p_tmr1;
 1238              		.loc 1 952 39 is_stmt 0 view .LVU411
 1239 00c4 6261     		str	r2, [r4, #20]
 953:..\..\..\..\..\..\Software\uCOS-III\Source/os_tmr.c ****                     p_tmr1->PrevPtr   = p_tmr;
 1240              		.loc 1 953 21 is_stmt 1 view .LVU412
 953:..\..\..\..\..\..\Software\uCOS-III\Source/os_tmr.c ****                     p_tmr1->PrevPtr   = p_tmr;
 1241              		.loc 1 953 39 is_stmt 0 view .LVU413
 1242 00c6 2361     		str	r3, [r4, #16]
 954:..\..\..\..\..\..\Software\uCOS-III\Source/os_tmr.c ****                     p_spoke->FirstPtr = p_tmr;
 1243              		.loc 1 954 21 is_stmt 1 view .LVU414
 954:..\..\..\..\..\..\Software\uCOS-III\Source/os_tmr.c ****                     p_spoke->FirstPtr = p_tmr;
 1244              		.loc 1 954 39 is_stmt 0 view .LVU415
 1245 00c8 5C61     		str	r4, [r3, #20]
 955:..\..\..\..\..\..\Software\uCOS-III\Source/os_tmr.c ****                 } else {                                    /* Insert in between 2 timers already i
 1246              		.loc 1 955 21 is_stmt 1 view .LVU416
 955:..\..\..\..\..\..\Software\uCOS-III\Source/os_tmr.c ****                 } else {                                    /* Insert in between 2 timers already i
 1247              		.loc 1 955 39 is_stmt 0 view .LVU417
 1248 00ca CB00     		lsls	r3, r1, #3
 1249              	.LVL105:
 955:..\..\..\..\..\..\Software\uCOS-III\Source/os_tmr.c ****                 } else {                                    /* Insert in between 2 timers already i
 1250              		.loc 1 955 39 view .LVU418
 1251 00cc 034A     		ldr	r2, .L89+8
 1252 00ce 9C50     		str	r4, [r3, r2]
 1253 00d0 DEE7     		b	.L80
 1254              	.L90:
 1255 00d2 C046     		.align	2
 1256              	.L89:
 1257 00d4 00000000 		.word	OSTmrTickCtr
 1258 00d8 00000000 		.word	OSCfg_TmrWheelSize
 1259 00dc 00000000 		.word	OSCfg_TmrWheel
 1260              		.cfi_endproc
 1261              	.LFE12:
 1262              		.size	OS_TmrLink, .-OS_TmrLink
 1263              		.section	.text.OS_TmrResetPeak,"ax",%progbits
 1264              		.align	1
 1265              		.global	OS_TmrResetPeak
 1266              		.syntax unified
 1267              		.code	16
 1268              		.thumb_func
 1269              		.fpu softvfp
 1270              		.type	OS_TmrResetPeak, %function
 1271              	OS_TmrResetPeak:
 1272              	.LFB13:
 972:..\..\..\..\..\..\Software\uCOS-III\Source/os_tmr.c **** 
 973:..\..\..\..\..\..\Software\uCOS-III\Source/os_tmr.c **** /*$PAGE*/
 974:..\..\..\..\..\..\Software\uCOS-III\Source/os_tmr.c **** /*
 975:..\..\..\..\..\..\Software\uCOS-III\Source/os_tmr.c **** ***************************************************************************************************
ARM GAS  C:\Users\EDULU~1.DES\AppData\Local\Temp\ccmSuQZN.s 			page 44


 976:..\..\..\..\..\..\Software\uCOS-III\Source/os_tmr.c **** *                                              RESET TIMER LIST PEAK DETECTOR
 977:..\..\..\..\..\..\Software\uCOS-III\Source/os_tmr.c **** *
 978:..\..\..\..\..\..\Software\uCOS-III\Source/os_tmr.c **** * Description: This function is used to reset the peak detector for the number of entries in each s
 979:..\..\..\..\..\..\Software\uCOS-III\Source/os_tmr.c **** *
 980:..\..\..\..\..\..\Software\uCOS-III\Source/os_tmr.c **** * Arguments  : void
 981:..\..\..\..\..\..\Software\uCOS-III\Source/os_tmr.c **** *
 982:..\..\..\..\..\..\Software\uCOS-III\Source/os_tmr.c **** * Returns    : none
 983:..\..\..\..\..\..\Software\uCOS-III\Source/os_tmr.c **** *
 984:..\..\..\..\..\..\Software\uCOS-III\Source/os_tmr.c **** * Note(s)    : This function is INTERNAL to uC/OS-III and your application should not call it.
 985:..\..\..\..\..\..\Software\uCOS-III\Source/os_tmr.c **** ***************************************************************************************************
 986:..\..\..\..\..\..\Software\uCOS-III\Source/os_tmr.c **** */
 987:..\..\..\..\..\..\Software\uCOS-III\Source/os_tmr.c **** 
 988:..\..\..\..\..\..\Software\uCOS-III\Source/os_tmr.c **** void  OS_TmrResetPeak (void)
 989:..\..\..\..\..\..\Software\uCOS-III\Source/os_tmr.c **** {
 1273              		.loc 1 989 1 is_stmt 1 view -0
 1274              		.cfi_startproc
 1275              		@ args = 0, pretend = 0, frame = 0
 1276              		@ frame_needed = 0, uses_anonymous_args = 0
 1277              		@ link register save eliminated.
 990:..\..\..\..\..\..\Software\uCOS-III\Source/os_tmr.c ****     OS_TMR_SPOKE     *p_spoke;
 1278              		.loc 1 990 5 view .LVU420
 991:..\..\..\..\..\..\Software\uCOS-III\Source/os_tmr.c ****     OS_TMR_SPOKE_IX   i;
 1279              		.loc 1 991 5 view .LVU421
 992:..\..\..\..\..\..\Software\uCOS-III\Source/os_tmr.c **** 
 993:..\..\..\..\..\..\Software\uCOS-III\Source/os_tmr.c **** 
 994:..\..\..\..\..\..\Software\uCOS-III\Source/os_tmr.c **** 
 995:..\..\..\..\..\..\Software\uCOS-III\Source/os_tmr.c ****     for (i = 0u; i < OSCfg_TmrWheelSize; i++) {
 1280              		.loc 1 995 5 view .LVU422
 1281              	.LVL106:
 1282              		.loc 1 995 12 is_stmt 0 view .LVU423
 1283 0000 0023     		movs	r3, #0
 1284              	.LVL107:
 1285              	.L92:
 1286              		.loc 1 995 20 discriminator 1 view .LVU424
 1287 0002 064A     		ldr	r2, .L95
 1288 0004 1288     		ldrh	r2, [r2]
 1289              		.loc 1 995 5 discriminator 1 view .LVU425
 1290 0006 9A42     		cmp	r2, r3
 1291 0008 07D9     		bls	.L94
 996:..\..\..\..\..\..\Software\uCOS-III\Source/os_tmr.c ****         p_spoke                = (OS_TMR_SPOKE *)&OSCfg_TmrWheel[i];
 1292              		.loc 1 996 9 is_stmt 1 discriminator 3 view .LVU426
 1293              	.LVL108:
 997:..\..\..\..\..\..\Software\uCOS-III\Source/os_tmr.c ****         p_spoke->NbrEntriesMax = (OS_OBJ_QTY    )0u;
 1294              		.loc 1 997 9 discriminator 3 view .LVU427
 1295              		.loc 1 997 32 is_stmt 0 discriminator 3 view .LVU428
 1296 000a D900     		lsls	r1, r3, #3
 1297 000c 044A     		ldr	r2, .L95+4
 1298 000e 5218     		adds	r2, r2, r1
 1299              	.LVL109:
 1300              		.loc 1 997 32 discriminator 3 view .LVU429
 1301 0010 0021     		movs	r1, #0
 1302 0012 D180     		strh	r1, [r2, #6]
 995:..\..\..\..\..\..\Software\uCOS-III\Source/os_tmr.c ****         p_spoke                = (OS_TMR_SPOKE *)&OSCfg_TmrWheel[i];
 1303              		.loc 1 995 43 discriminator 3 view .LVU430
 1304 0014 0133     		adds	r3, r3, #1
 1305              	.LVL110:
 995:..\..\..\..\..\..\Software\uCOS-III\Source/os_tmr.c ****         p_spoke                = (OS_TMR_SPOKE *)&OSCfg_TmrWheel[i];
ARM GAS  C:\Users\EDULU~1.DES\AppData\Local\Temp\ccmSuQZN.s 			page 45


 1306              		.loc 1 995 43 discriminator 3 view .LVU431
 1307 0016 9BB2     		uxth	r3, r3
 1308              	.LVL111:
 995:..\..\..\..\..\..\Software\uCOS-III\Source/os_tmr.c ****         p_spoke                = (OS_TMR_SPOKE *)&OSCfg_TmrWheel[i];
 1309              		.loc 1 995 43 discriminator 3 view .LVU432
 1310 0018 F3E7     		b	.L92
 1311              	.LVL112:
 1312              	.L94:
 998:..\..\..\..\..\..\Software\uCOS-III\Source/os_tmr.c ****     }
 999:..\..\..\..\..\..\Software\uCOS-III\Source/os_tmr.c **** }
 1313              		.loc 1 999 1 view .LVU433
 1314              		@ sp needed
 1315 001a 7047     		bx	lr
 1316              	.L96:
 1317              		.align	2
 1318              	.L95:
 1319 001c 00000000 		.word	OSCfg_TmrWheelSize
 1320 0020 00000000 		.word	OSCfg_TmrWheel
 1321              		.cfi_endproc
 1322              	.LFE13:
 1323              		.size	OS_TmrResetPeak, .-OS_TmrResetPeak
 1324              		.section	.text.OS_TmrUnlink,"ax",%progbits
 1325              		.align	1
 1326              		.global	OS_TmrUnlink
 1327              		.syntax unified
 1328              		.code	16
 1329              		.thumb_func
 1330              		.fpu softvfp
 1331              		.type	OS_TmrUnlink, %function
 1332              	OS_TmrUnlink:
 1333              	.LVL113:
 1334              	.LFB14:
1000:..\..\..\..\..\..\Software\uCOS-III\Source/os_tmr.c **** 
1001:..\..\..\..\..\..\Software\uCOS-III\Source/os_tmr.c **** /*$PAGE*/
1002:..\..\..\..\..\..\Software\uCOS-III\Source/os_tmr.c **** /*
1003:..\..\..\..\..\..\Software\uCOS-III\Source/os_tmr.c **** ***************************************************************************************************
1004:..\..\..\..\..\..\Software\uCOS-III\Source/os_tmr.c **** *                                         REMOVE A TIMER FROM THE TIMER WHEEL
1005:..\..\..\..\..\..\Software\uCOS-III\Source/os_tmr.c **** *
1006:..\..\..\..\..\..\Software\uCOS-III\Source/os_tmr.c **** * Description: This function is called to remove the timer from the timer wheel.
1007:..\..\..\..\..\..\Software\uCOS-III\Source/os_tmr.c **** *
1008:..\..\..\..\..\..\Software\uCOS-III\Source/os_tmr.c **** * Arguments  : p_tmr          Is a pointer to the timer to remove.
1009:..\..\..\..\..\..\Software\uCOS-III\Source/os_tmr.c **** *              -----
1010:..\..\..\..\..\..\Software\uCOS-III\Source/os_tmr.c **** *
1011:..\..\..\..\..\..\Software\uCOS-III\Source/os_tmr.c **** * Returns    : none
1012:..\..\..\..\..\..\Software\uCOS-III\Source/os_tmr.c **** *
1013:..\..\..\..\..\..\Software\uCOS-III\Source/os_tmr.c **** * Note(s)    : 1) This function is INTERNAL to uC/OS-III and your application MUST NOT call it.
1014:..\..\..\..\..\..\Software\uCOS-III\Source/os_tmr.c **** ***************************************************************************************************
1015:..\..\..\..\..\..\Software\uCOS-III\Source/os_tmr.c **** */
1016:..\..\..\..\..\..\Software\uCOS-III\Source/os_tmr.c **** 
1017:..\..\..\..\..\..\Software\uCOS-III\Source/os_tmr.c **** void  OS_TmrUnlink (OS_TMR  *p_tmr)
1018:..\..\..\..\..\..\Software\uCOS-III\Source/os_tmr.c **** {
 1335              		.loc 1 1018 1 is_stmt 1 view -0
 1336              		.cfi_startproc
 1337              		@ args = 0, pretend = 0, frame = 0
 1338              		@ frame_needed = 0, uses_anonymous_args = 0
 1339              		.loc 1 1018 1 is_stmt 0 view .LVU435
 1340 0000 10B5     		push	{r4, lr}
ARM GAS  C:\Users\EDULU~1.DES\AppData\Local\Temp\ccmSuQZN.s 			page 46


 1341              		.cfi_def_cfa_offset 8
 1342              		.cfi_offset 4, -8
 1343              		.cfi_offset 14, -4
 1344 0002 0400     		movs	r4, r0
1019:..\..\..\..\..\..\Software\uCOS-III\Source/os_tmr.c ****     OS_TMR_SPOKE    *p_spoke;
 1345              		.loc 1 1019 5 is_stmt 1 view .LVU436
1020:..\..\..\..\..\..\Software\uCOS-III\Source/os_tmr.c ****     OS_TMR          *p_tmr1;
 1346              		.loc 1 1020 5 view .LVU437
1021:..\..\..\..\..\..\Software\uCOS-III\Source/os_tmr.c ****     OS_TMR          *p_tmr2;
 1347              		.loc 1 1021 5 view .LVU438
1022:..\..\..\..\..\..\Software\uCOS-III\Source/os_tmr.c ****     OS_TMR_SPOKE_IX  spoke;
 1348              		.loc 1 1022 5 view .LVU439
1023:..\..\..\..\..\..\Software\uCOS-III\Source/os_tmr.c **** 
1024:..\..\..\..\..\..\Software\uCOS-III\Source/os_tmr.c **** 
1025:..\..\..\..\..\..\Software\uCOS-III\Source/os_tmr.c **** 
1026:..\..\..\..\..\..\Software\uCOS-III\Source/os_tmr.c ****     spoke   = (OS_TMR_SPOKE_IX)(p_tmr->Match % OSCfg_TmrWheelSize);
 1349              		.loc 1 1026 5 view .LVU440
 1350              		.loc 1 1026 46 is_stmt 0 view .LVU441
 1351 0004 134B     		ldr	r3, .L101
 1352 0006 1988     		ldrh	r1, [r3]
 1353 0008 8069     		ldr	r0, [r0, #24]
 1354              	.LVL114:
 1355              		.loc 1 1026 46 view .LVU442
 1356 000a FFF7FEFF 		bl	__aeabi_uidivmod
 1357              	.LVL115:
1027:..\..\..\..\..\..\Software\uCOS-III\Source/os_tmr.c ****     p_spoke = &OSCfg_TmrWheel[spoke];
 1358              		.loc 1 1027 5 is_stmt 1 view .LVU443
 1359              		.loc 1 1027 30 is_stmt 0 view .LVU444
 1360 000e 0904     		lsls	r1, r1, #16
 1361              	.LVL116:
 1362              		.loc 1 1027 30 view .LVU445
 1363 0010 090C     		lsrs	r1, r1, #16
 1364              	.LVL117:
1028:..\..\..\..\..\..\Software\uCOS-III\Source/os_tmr.c **** 
1029:..\..\..\..\..\..\Software\uCOS-III\Source/os_tmr.c ****     if (p_spoke->FirstPtr == p_tmr) {                       /* See if timer to remove is at the beg
 1365              		.loc 1 1029 5 is_stmt 1 view .LVU446
 1366              		.loc 1 1029 16 is_stmt 0 view .LVU447
 1367 0012 CA00     		lsls	r2, r1, #3
 1368 0014 104B     		ldr	r3, .L101+4
 1369 0016 D358     		ldr	r3, [r2, r3]
 1370              		.loc 1 1029 8 view .LVU448
 1371 0018 A342     		cmp	r3, r4
 1372 001a 12D0     		beq	.L100
1030:..\..\..\..\..\..\Software\uCOS-III\Source/os_tmr.c ****         p_tmr1            = (OS_TMR *)p_tmr->NextPtr;
1031:..\..\..\..\..\..\Software\uCOS-III\Source/os_tmr.c ****         p_spoke->FirstPtr = (OS_TMR *)p_tmr1;
1032:..\..\..\..\..\..\Software\uCOS-III\Source/os_tmr.c ****         if (p_tmr1 != (OS_TMR *)0) {
1033:..\..\..\..\..\..\Software\uCOS-III\Source/os_tmr.c ****             p_tmr1->PrevPtr = (OS_TMR *)0;
1034:..\..\..\..\..\..\Software\uCOS-III\Source/os_tmr.c ****         }
1035:..\..\..\..\..\..\Software\uCOS-III\Source/os_tmr.c ****     } else {
1036:..\..\..\..\..\..\Software\uCOS-III\Source/os_tmr.c ****         p_tmr1          = (OS_TMR *)p_tmr->PrevPtr;         /* Remove timer from somewhere in the l
 1373              		.loc 1 1036 9 is_stmt 1 view .LVU449
 1374              		.loc 1 1036 25 is_stmt 0 view .LVU450
 1375 001c 6269     		ldr	r2, [r4, #20]
 1376              	.LVL118:
1037:..\..\..\..\..\..\Software\uCOS-III\Source/os_tmr.c ****         p_tmr2          = (OS_TMR *)p_tmr->NextPtr;
 1377              		.loc 1 1037 9 is_stmt 1 view .LVU451
 1378              		.loc 1 1037 25 is_stmt 0 view .LVU452
ARM GAS  C:\Users\EDULU~1.DES\AppData\Local\Temp\ccmSuQZN.s 			page 47


 1379 001e 2369     		ldr	r3, [r4, #16]
 1380              	.LVL119:
1038:..\..\..\..\..\..\Software\uCOS-III\Source/os_tmr.c ****         p_tmr1->NextPtr = p_tmr2;
 1381              		.loc 1 1038 9 is_stmt 1 view .LVU453
 1382              		.loc 1 1038 25 is_stmt 0 view .LVU454
 1383 0020 1361     		str	r3, [r2, #16]
1039:..\..\..\..\..\..\Software\uCOS-III\Source/os_tmr.c ****         if (p_tmr2 != (OS_TMR *)0) {
 1384              		.loc 1 1039 9 is_stmt 1 view .LVU455
 1385              		.loc 1 1039 12 is_stmt 0 view .LVU456
 1386 0022 002B     		cmp	r3, #0
 1387 0024 00D0     		beq	.L99
1040:..\..\..\..\..\..\Software\uCOS-III\Source/os_tmr.c ****             p_tmr2->PrevPtr = (OS_TMR *)p_tmr1;
 1388              		.loc 1 1040 13 is_stmt 1 view .LVU457
 1389              		.loc 1 1040 29 is_stmt 0 view .LVU458
 1390 0026 5A61     		str	r2, [r3, #20]
 1391              	.LVL120:
 1392              	.L99:
1041:..\..\..\..\..\..\Software\uCOS-III\Source/os_tmr.c ****         }
1042:..\..\..\..\..\..\Software\uCOS-III\Source/os_tmr.c ****     }
1043:..\..\..\..\..\..\Software\uCOS-III\Source/os_tmr.c ****     p_tmr->State   = OS_TMR_STATE_STOPPED;
 1393              		.loc 1 1043 5 is_stmt 1 view .LVU459
 1394              		.loc 1 1043 20 is_stmt 0 view .LVU460
 1395 0028 2A23     		movs	r3, #42
 1396 002a 0122     		movs	r2, #1
 1397              	.LVL121:
 1398              		.loc 1 1043 20 view .LVU461
 1399 002c E254     		strb	r2, [r4, r3]
1044:..\..\..\..\..\..\Software\uCOS-III\Source/os_tmr.c ****     p_tmr->NextPtr = (OS_TMR *)0;
 1400              		.loc 1 1044 5 is_stmt 1 view .LVU462
 1401              		.loc 1 1044 20 is_stmt 0 view .LVU463
 1402 002e 0023     		movs	r3, #0
 1403 0030 2361     		str	r3, [r4, #16]
1045:..\..\..\..\..\..\Software\uCOS-III\Source/os_tmr.c ****     p_tmr->PrevPtr = (OS_TMR *)0;
 1404              		.loc 1 1045 5 is_stmt 1 view .LVU464
 1405              		.loc 1 1045 20 is_stmt 0 view .LVU465
 1406 0032 6361     		str	r3, [r4, #20]
1046:..\..\..\..\..\..\Software\uCOS-III\Source/os_tmr.c ****     p_spoke->NbrEntries--;
 1407              		.loc 1 1046 5 is_stmt 1 view .LVU466
 1408              		.loc 1 1046 12 is_stmt 0 view .LVU467
 1409 0034 C900     		lsls	r1, r1, #3
 1410              	.LVL122:
 1411              		.loc 1 1046 12 view .LVU468
 1412 0036 084B     		ldr	r3, .L101+4
 1413 0038 5918     		adds	r1, r3, r1
 1414 003a 8B88     		ldrh	r3, [r1, #4]
 1415              		.loc 1 1046 24 view .LVU469
 1416 003c 013B     		subs	r3, r3, #1
 1417 003e 8B80     		strh	r3, [r1, #4]
1047:..\..\..\..\..\..\Software\uCOS-III\Source/os_tmr.c **** }
 1418              		.loc 1 1047 1 view .LVU470
 1419              		@ sp needed
 1420              	.LVL123:
 1421              		.loc 1 1047 1 view .LVU471
 1422 0040 10BD     		pop	{r4, pc}
 1423              	.LVL124:
 1424              	.L100:
1030:..\..\..\..\..\..\Software\uCOS-III\Source/os_tmr.c ****         p_spoke->FirstPtr = (OS_TMR *)p_tmr1;
ARM GAS  C:\Users\EDULU~1.DES\AppData\Local\Temp\ccmSuQZN.s 			page 48


 1425              		.loc 1 1030 9 is_stmt 1 view .LVU472
1030:..\..\..\..\..\..\Software\uCOS-III\Source/os_tmr.c ****         p_spoke->FirstPtr = (OS_TMR *)p_tmr1;
 1426              		.loc 1 1030 27 is_stmt 0 view .LVU473
 1427 0042 2269     		ldr	r2, [r4, #16]
 1428              	.LVL125:
1031:..\..\..\..\..\..\Software\uCOS-III\Source/os_tmr.c ****         if (p_tmr1 != (OS_TMR *)0) {
 1429              		.loc 1 1031 9 is_stmt 1 view .LVU474
1031:..\..\..\..\..\..\Software\uCOS-III\Source/os_tmr.c ****         if (p_tmr1 != (OS_TMR *)0) {
 1430              		.loc 1 1031 27 is_stmt 0 view .LVU475
 1431 0044 CB00     		lsls	r3, r1, #3
 1432 0046 0448     		ldr	r0, .L101+4
 1433 0048 1A50     		str	r2, [r3, r0]
1032:..\..\..\..\..\..\Software\uCOS-III\Source/os_tmr.c ****             p_tmr1->PrevPtr = (OS_TMR *)0;
 1434              		.loc 1 1032 9 is_stmt 1 view .LVU476
1032:..\..\..\..\..\..\Software\uCOS-III\Source/os_tmr.c ****             p_tmr1->PrevPtr = (OS_TMR *)0;
 1435              		.loc 1 1032 12 is_stmt 0 view .LVU477
 1436 004a 002A     		cmp	r2, #0
 1437 004c ECD0     		beq	.L99
1033:..\..\..\..\..\..\Software\uCOS-III\Source/os_tmr.c ****         }
 1438              		.loc 1 1033 13 is_stmt 1 view .LVU478
1033:..\..\..\..\..\..\Software\uCOS-III\Source/os_tmr.c ****         }
 1439              		.loc 1 1033 29 is_stmt 0 view .LVU479
 1440 004e 0023     		movs	r3, #0
 1441 0050 5361     		str	r3, [r2, #20]
 1442 0052 E9E7     		b	.L99
 1443              	.L102:
 1444              		.align	2
 1445              	.L101:
 1446 0054 00000000 		.word	OSCfg_TmrWheelSize
 1447 0058 00000000 		.word	OSCfg_TmrWheel
 1448              		.cfi_endproc
 1449              	.LFE14:
 1450              		.size	OS_TmrUnlink, .-OS_TmrUnlink
 1451              		.section	.text.OSTmrStart,"ax",%progbits
 1452              		.align	1
 1453              		.global	OSTmrStart
 1454              		.syntax unified
 1455              		.code	16
 1456              		.thumb_func
 1457              		.fpu softvfp
 1458              		.type	OSTmrStart, %function
 1459              	OSTmrStart:
 1460              	.LVL126:
 1461              	.LFB5:
 423:..\..\..\..\..\..\Software\uCOS-III\Source/os_tmr.c ****     OS_ERR       err;
 1462              		.loc 1 423 1 is_stmt 1 view -0
 1463              		.cfi_startproc
 1464              		@ args = 0, pretend = 0, frame = 8
 1465              		@ frame_needed = 0, uses_anonymous_args = 0
 423:..\..\..\..\..\..\Software\uCOS-III\Source/os_tmr.c ****     OS_ERR       err;
 1466              		.loc 1 423 1 is_stmt 0 view .LVU481
 1467 0000 30B5     		push	{r4, r5, lr}
 1468              		.cfi_def_cfa_offset 12
 1469              		.cfi_offset 4, -12
 1470              		.cfi_offset 5, -8
 1471              		.cfi_offset 14, -4
 1472 0002 83B0     		sub	sp, sp, #12
ARM GAS  C:\Users\EDULU~1.DES\AppData\Local\Temp\ccmSuQZN.s 			page 49


 1473              		.cfi_def_cfa_offset 24
 1474 0004 0400     		movs	r4, r0
 1475 0006 0D00     		movs	r5, r1
 424:..\..\..\..\..\..\Software\uCOS-III\Source/os_tmr.c ****     CPU_BOOLEAN  success;
 1476              		.loc 1 424 5 is_stmt 1 view .LVU482
 425:..\..\..\..\..\..\Software\uCOS-III\Source/os_tmr.c **** 
 1477              		.loc 1 425 5 view .LVU483
 437:..\..\..\..\..\..\Software\uCOS-III\Source/os_tmr.c ****        *p_err = OS_ERR_TMR_ISR;
 1478              		.loc 1 437 5 view .LVU484
 437:..\..\..\..\..\..\Software\uCOS-III\Source/os_tmr.c ****        *p_err = OS_ERR_TMR_ISR;
 1479              		.loc 1 437 25 is_stmt 0 view .LVU485
 1480 0008 234B     		ldr	r3, .L114
 1481 000a 1B78     		ldrb	r3, [r3]
 437:..\..\..\..\..\..\Software\uCOS-III\Source/os_tmr.c ****        *p_err = OS_ERR_TMR_ISR;
 1482              		.loc 1 437 8 view .LVU486
 1483 000c 002B     		cmp	r3, #0
 1484 000e 17D1     		bne	.L112
 444:..\..\..\..\..\..\Software\uCOS-III\Source/os_tmr.c ****        *p_err = OS_ERR_TMR_INVALID;
 1485              		.loc 1 444 5 is_stmt 1 view .LVU487
 444:..\..\..\..\..\..\Software\uCOS-III\Source/os_tmr.c ****        *p_err = OS_ERR_TMR_INVALID;
 1486              		.loc 1 444 8 is_stmt 0 view .LVU488
 1487 0010 0028     		cmp	r0, #0
 1488 0012 1AD0     		beq	.L113
 457:..\..\..\..\..\..\Software\uCOS-III\Source/os_tmr.c ****     switch (p_tmr->State) {
 1489              		.loc 1 457 5 is_stmt 1 view .LVU489
 1490 0014 6B46     		mov	r3, sp
 1491 0016 981D     		adds	r0, r3, #6
 1492              	.LVL127:
 457:..\..\..\..\..\..\Software\uCOS-III\Source/os_tmr.c ****     switch (p_tmr->State) {
 1493              		.loc 1 457 5 is_stmt 0 view .LVU490
 1494 0018 FFF7FEFF 		bl	OSSchedLock
 1495              	.LVL128:
 458:..\..\..\..\..\..\Software\uCOS-III\Source/os_tmr.c ****         case OS_TMR_STATE_RUNNING:                          /* Restart the timer                   
 1496              		.loc 1 458 5 is_stmt 1 view .LVU491
 458:..\..\..\..\..\..\Software\uCOS-III\Source/os_tmr.c ****         case OS_TMR_STATE_RUNNING:                          /* Restart the timer                   
 1497              		.loc 1 458 18 is_stmt 0 view .LVU492
 1498 001c 2A23     		movs	r3, #42
 1499 001e E35C     		ldrb	r3, [r4, r3]
 458:..\..\..\..\..\..\Software\uCOS-III\Source/os_tmr.c ****         case OS_TMR_STATE_RUNNING:                          /* Restart the timer                   
 1500              		.loc 1 458 5 view .LVU493
 1501 0020 012B     		cmp	r3, #1
 1502 0022 25D0     		beq	.L107
 1503 0024 002B     		cmp	r3, #0
 1504 0026 2FD0     		beq	.L108
 1505 0028 022B     		cmp	r3, #2
 1506 002a 12D0     		beq	.L109
 1507 002c 032B     		cmp	r3, #3
 1508 002e 1FD0     		beq	.L107
 482:..\..\..\..\..\..\Software\uCOS-III\Source/os_tmr.c ****             *p_err = OS_ERR_TMR_INVALID_STATE;
 1509              		.loc 1 482 14 is_stmt 1 view .LVU494
 1510 0030 6B46     		mov	r3, sp
 1511 0032 981D     		adds	r0, r3, #6
 1512 0034 FFF7FEFF 		bl	OSSchedUnlock
 1513              	.LVL129:
 483:..\..\..\..\..\..\Software\uCOS-III\Source/os_tmr.c ****              success = DEF_FALSE;
 1514              		.loc 1 483 13 view .LVU495
 483:..\..\..\..\..\..\Software\uCOS-III\Source/os_tmr.c ****              success = DEF_FALSE;
ARM GAS  C:\Users\EDULU~1.DES\AppData\Local\Temp\ccmSuQZN.s 			page 50


 1515              		.loc 1 483 20 is_stmt 0 view .LVU496
 1516 0038 184B     		ldr	r3, .L114+4
 1517 003a 2B80     		strh	r3, [r5]
 484:..\..\..\..\..\..\Software\uCOS-III\Source/os_tmr.c ****              break;
 1518              		.loc 1 484 14 is_stmt 1 view .LVU497
 1519              	.LVL130:
 485:..\..\..\..\..\..\Software\uCOS-III\Source/os_tmr.c ****     }
 1520              		.loc 1 485 14 view .LVU498
 484:..\..\..\..\..\..\Software\uCOS-III\Source/os_tmr.c ****              break;
 1521              		.loc 1 484 22 is_stmt 0 view .LVU499
 1522 003c 0020     		movs	r0, #0
 485:..\..\..\..\..\..\Software\uCOS-III\Source/os_tmr.c ****     }
 1523              		.loc 1 485 14 view .LVU500
 1524 003e 02E0     		b	.L105
 1525              	.LVL131:
 1526              	.L112:
 438:..\..\..\..\..\..\Software\uCOS-III\Source/os_tmr.c ****         return (DEF_FALSE);
 1527              		.loc 1 438 8 is_stmt 1 view .LVU501
 438:..\..\..\..\..\..\Software\uCOS-III\Source/os_tmr.c ****         return (DEF_FALSE);
 1528              		.loc 1 438 15 is_stmt 0 view .LVU502
 1529 0040 174B     		ldr	r3, .L114+8
 1530 0042 0B80     		strh	r3, [r1]
 439:..\..\..\..\..\..\Software\uCOS-III\Source/os_tmr.c ****     }
 1531              		.loc 1 439 9 is_stmt 1 view .LVU503
 439:..\..\..\..\..\..\Software\uCOS-III\Source/os_tmr.c ****     }
 1532              		.loc 1 439 16 is_stmt 0 view .LVU504
 1533 0044 0020     		movs	r0, #0
 1534              	.LVL132:
 1535              	.L105:
 488:..\..\..\..\..\..\Software\uCOS-III\Source/os_tmr.c **** 
 1536              		.loc 1 488 1 view .LVU505
 1537 0046 03B0     		add	sp, sp, #12
 1538              		@ sp needed
 1539              	.LVL133:
 1540              	.LVL134:
 488:..\..\..\..\..\..\Software\uCOS-III\Source/os_tmr.c **** 
 1541              		.loc 1 488 1 view .LVU506
 1542 0048 30BD     		pop	{r4, r5, pc}
 1543              	.LVL135:
 1544              	.L113:
 445:..\..\..\..\..\..\Software\uCOS-III\Source/os_tmr.c ****         return (DEF_FALSE);
 1545              		.loc 1 445 8 is_stmt 1 view .LVU507
 445:..\..\..\..\..\..\Software\uCOS-III\Source/os_tmr.c ****         return (DEF_FALSE);
 1546              		.loc 1 445 15 is_stmt 0 view .LVU508
 1547 004a 164B     		ldr	r3, .L114+12
 1548 004c 0B80     		strh	r3, [r1]
 446:..\..\..\..\..\..\Software\uCOS-III\Source/os_tmr.c ****     }
 1549              		.loc 1 446 9 is_stmt 1 view .LVU509
 446:..\..\..\..\..\..\Software\uCOS-III\Source/os_tmr.c ****     }
 1550              		.loc 1 446 16 is_stmt 0 view .LVU510
 1551 004e 0020     		movs	r0, #0
 1552              	.LVL136:
 446:..\..\..\..\..\..\Software\uCOS-III\Source/os_tmr.c ****     }
 1553              		.loc 1 446 16 view .LVU511
 1554 0050 F9E7     		b	.L105
 1555              	.LVL137:
 1556              	.L109:
ARM GAS  C:\Users\EDULU~1.DES\AppData\Local\Temp\ccmSuQZN.s 			page 51


 460:..\..\..\..\..\..\Software\uCOS-III\Source/os_tmr.c ****              OS_TmrLink(p_tmr, OS_OPT_LINK_DLY);            /* ... Link timer to timer wheel (see N
 1557              		.loc 1 460 14 is_stmt 1 view .LVU512
 1558 0052 2000     		movs	r0, r4
 1559 0054 FFF7FEFF 		bl	OS_TmrUnlink
 1560              	.LVL138:
 461:..\..\..\..\..\..\Software\uCOS-III\Source/os_tmr.c ****              OSSchedUnlock(&err);
 1561              		.loc 1 461 14 view .LVU513
 1562 0058 0021     		movs	r1, #0
 1563 005a 2000     		movs	r0, r4
 1564 005c FFF7FEFF 		bl	OS_TmrLink
 1565              	.LVL139:
 462:..\..\..\..\..\..\Software\uCOS-III\Source/os_tmr.c ****             *p_err   = OS_ERR_NONE;
 1566              		.loc 1 462 14 view .LVU514
 1567 0060 6B46     		mov	r3, sp
 1568 0062 981D     		adds	r0, r3, #6
 1569 0064 FFF7FEFF 		bl	OSSchedUnlock
 1570              	.LVL140:
 463:..\..\..\..\..\..\Software\uCOS-III\Source/os_tmr.c ****              success = DEF_TRUE;
 1571              		.loc 1 463 13 view .LVU515
 463:..\..\..\..\..\..\Software\uCOS-III\Source/os_tmr.c ****              success = DEF_TRUE;
 1572              		.loc 1 463 22 is_stmt 0 view .LVU516
 1573 0068 0023     		movs	r3, #0
 1574 006a 2B80     		strh	r3, [r5]
 464:..\..\..\..\..\..\Software\uCOS-III\Source/os_tmr.c ****              break;
 1575              		.loc 1 464 14 is_stmt 1 view .LVU517
 1576              	.LVL141:
 465:..\..\..\..\..\..\Software\uCOS-III\Source/os_tmr.c **** 
 1577              		.loc 1 465 14 view .LVU518
 464:..\..\..\..\..\..\Software\uCOS-III\Source/os_tmr.c ****              break;
 1578              		.loc 1 464 22 is_stmt 0 view .LVU519
 1579 006c 0120     		movs	r0, #1
 465:..\..\..\..\..\..\Software\uCOS-III\Source/os_tmr.c **** 
 1580              		.loc 1 465 14 view .LVU520
 1581 006e EAE7     		b	.L105
 1582              	.LVL142:
 1583              	.L107:
 469:..\..\..\..\..\..\Software\uCOS-III\Source/os_tmr.c ****              OSSchedUnlock(&err);
 1584              		.loc 1 469 14 is_stmt 1 view .LVU521
 1585 0070 0021     		movs	r1, #0
 1586 0072 2000     		movs	r0, r4
 1587 0074 FFF7FEFF 		bl	OS_TmrLink
 1588              	.LVL143:
 470:..\..\..\..\..\..\Software\uCOS-III\Source/os_tmr.c ****             *p_err   = OS_ERR_NONE;
 1589              		.loc 1 470 14 view .LVU522
 1590 0078 6B46     		mov	r3, sp
 1591 007a 981D     		adds	r0, r3, #6
 1592 007c FFF7FEFF 		bl	OSSchedUnlock
 1593              	.LVL144:
 471:..\..\..\..\..\..\Software\uCOS-III\Source/os_tmr.c ****              success = DEF_TRUE;
 1594              		.loc 1 471 13 view .LVU523
 471:..\..\..\..\..\..\Software\uCOS-III\Source/os_tmr.c ****              success = DEF_TRUE;
 1595              		.loc 1 471 22 is_stmt 0 view .LVU524
 1596 0080 0023     		movs	r3, #0
 1597 0082 2B80     		strh	r3, [r5]
 472:..\..\..\..\..\..\Software\uCOS-III\Source/os_tmr.c ****              break;
 1598              		.loc 1 472 14 is_stmt 1 view .LVU525
 1599              	.LVL145:
ARM GAS  C:\Users\EDULU~1.DES\AppData\Local\Temp\ccmSuQZN.s 			page 52


 473:..\..\..\..\..\..\Software\uCOS-III\Source/os_tmr.c **** 
 1600              		.loc 1 473 14 view .LVU526
 472:..\..\..\..\..\..\Software\uCOS-III\Source/os_tmr.c ****              break;
 1601              		.loc 1 472 22 is_stmt 0 view .LVU527
 1602 0084 0120     		movs	r0, #1
 473:..\..\..\..\..\..\Software\uCOS-III\Source/os_tmr.c **** 
 1603              		.loc 1 473 14 view .LVU528
 1604 0086 DEE7     		b	.L105
 1605              	.LVL146:
 1606              	.L108:
 476:..\..\..\..\..\..\Software\uCOS-III\Source/os_tmr.c ****             *p_err   = OS_ERR_TMR_INACTIVE;
 1607              		.loc 1 476 14 is_stmt 1 view .LVU529
 1608 0088 6B46     		mov	r3, sp
 1609 008a 981D     		adds	r0, r3, #6
 1610 008c FFF7FEFF 		bl	OSSchedUnlock
 1611              	.LVL147:
 477:..\..\..\..\..\..\Software\uCOS-III\Source/os_tmr.c ****              success = DEF_FALSE;
 1612              		.loc 1 477 13 view .LVU530
 477:..\..\..\..\..\..\Software\uCOS-III\Source/os_tmr.c ****              success = DEF_FALSE;
 1613              		.loc 1 477 22 is_stmt 0 view .LVU531
 1614 0090 054B     		ldr	r3, .L114+16
 1615 0092 2B80     		strh	r3, [r5]
 478:..\..\..\..\..\..\Software\uCOS-III\Source/os_tmr.c ****              break;
 1616              		.loc 1 478 14 is_stmt 1 view .LVU532
 1617              	.LVL148:
 479:..\..\..\..\..\..\Software\uCOS-III\Source/os_tmr.c **** 
 1618              		.loc 1 479 14 view .LVU533
 478:..\..\..\..\..\..\Software\uCOS-III\Source/os_tmr.c ****              break;
 1619              		.loc 1 478 22 is_stmt 0 view .LVU534
 1620 0094 0020     		movs	r0, #0
 479:..\..\..\..\..\..\Software\uCOS-III\Source/os_tmr.c **** 
 1621              		.loc 1 479 14 view .LVU535
 1622 0096 D6E7     		b	.L105
 1623              	.L115:
 1624              		.align	2
 1625              	.L114:
 1626 0098 00000000 		.word	OSIntNestingCtr
 1627 009c 41730000 		.word	29505
 1628 00a0 43730000 		.word	29507
 1629 00a4 42730000 		.word	29506
 1630 00a8 3D730000 		.word	29501
 1631              		.cfi_endproc
 1632              	.LFE5:
 1633              		.size	OSTmrStart, .-OSTmrStart
 1634              		.section	.text.OSTmrStop,"ax",%progbits
 1635              		.align	1
 1636              		.global	OSTmrStop
 1637              		.syntax unified
 1638              		.code	16
 1639              		.thumb_func
 1640              		.fpu softvfp
 1641              		.type	OSTmrStop, %function
 1642              	OSTmrStop:
 1643              	.LVL149:
 1644              	.LFB7:
 611:..\..\..\..\..\..\Software\uCOS-III\Source/os_tmr.c ****     OS_TMR_CALLBACK_PTR  p_fnct;
 1645              		.loc 1 611 1 is_stmt 1 view -0
ARM GAS  C:\Users\EDULU~1.DES\AppData\Local\Temp\ccmSuQZN.s 			page 53


 1646              		.cfi_startproc
 1647              		@ args = 0, pretend = 0, frame = 8
 1648              		@ frame_needed = 0, uses_anonymous_args = 0
 611:..\..\..\..\..\..\Software\uCOS-III\Source/os_tmr.c ****     OS_TMR_CALLBACK_PTR  p_fnct;
 1649              		.loc 1 611 1 is_stmt 0 view .LVU537
 1650 0000 F0B5     		push	{r4, r5, r6, r7, lr}
 1651              		.cfi_def_cfa_offset 20
 1652              		.cfi_offset 4, -20
 1653              		.cfi_offset 5, -16
 1654              		.cfi_offset 6, -12
 1655              		.cfi_offset 7, -8
 1656              		.cfi_offset 14, -4
 1657 0002 83B0     		sub	sp, sp, #12
 1658              		.cfi_def_cfa_offset 32
 1659 0004 0400     		movs	r4, r0
 1660 0006 0D00     		movs	r5, r1
 1661 0008 1600     		movs	r6, r2
 1662 000a 1F00     		movs	r7, r3
 612:..\..\..\..\..\..\Software\uCOS-III\Source/os_tmr.c ****     OS_ERR               err;
 1663              		.loc 1 612 5 is_stmt 1 view .LVU538
 613:..\..\..\..\..\..\Software\uCOS-III\Source/os_tmr.c ****     CPU_BOOLEAN          success;
 1664              		.loc 1 613 5 view .LVU539
 614:..\..\..\..\..\..\Software\uCOS-III\Source/os_tmr.c **** 
 1665              		.loc 1 614 5 view .LVU540
 626:..\..\..\..\..\..\Software\uCOS-III\Source/os_tmr.c ****        *p_err = OS_ERR_TMR_ISR;
 1666              		.loc 1 626 5 view .LVU541
 626:..\..\..\..\..\..\Software\uCOS-III\Source/os_tmr.c ****        *p_err = OS_ERR_TMR_ISR;
 1667              		.loc 1 626 25 is_stmt 0 view .LVU542
 1668 000c 304B     		ldr	r3, .L134
 1669              	.LVL150:
 626:..\..\..\..\..\..\Software\uCOS-III\Source/os_tmr.c ****        *p_err = OS_ERR_TMR_ISR;
 1670              		.loc 1 626 25 view .LVU543
 1671 000e 1B78     		ldrb	r3, [r3]
 626:..\..\..\..\..\..\Software\uCOS-III\Source/os_tmr.c ****        *p_err = OS_ERR_TMR_ISR;
 1672              		.loc 1 626 8 view .LVU544
 1673 0010 002B     		cmp	r3, #0
 1674 0012 17D1     		bne	.L132
 633:..\..\..\..\..\..\Software\uCOS-III\Source/os_tmr.c ****        *p_err = OS_ERR_TMR_INVALID;
 1675              		.loc 1 633 5 is_stmt 1 view .LVU545
 633:..\..\..\..\..\..\Software\uCOS-III\Source/os_tmr.c ****        *p_err = OS_ERR_TMR_INVALID;
 1676              		.loc 1 633 8 is_stmt 0 view .LVU546
 1677 0014 0028     		cmp	r0, #0
 1678 0016 1AD0     		beq	.L133
 646:..\..\..\..\..\..\Software\uCOS-III\Source/os_tmr.c ****     switch (p_tmr->State) {
 1679              		.loc 1 646 5 is_stmt 1 view .LVU547
 1680 0018 6B46     		mov	r3, sp
 1681 001a 981D     		adds	r0, r3, #6
 1682              	.LVL151:
 646:..\..\..\..\..\..\Software\uCOS-III\Source/os_tmr.c ****     switch (p_tmr->State) {
 1683              		.loc 1 646 5 is_stmt 0 view .LVU548
 1684 001c FFF7FEFF 		bl	OSSchedLock
 1685              	.LVL152:
 647:..\..\..\..\..\..\Software\uCOS-III\Source/os_tmr.c ****         case OS_TMR_STATE_RUNNING:
 1686              		.loc 1 647 5 is_stmt 1 view .LVU549
 647:..\..\..\..\..\..\Software\uCOS-III\Source/os_tmr.c ****         case OS_TMR_STATE_RUNNING:
 1687              		.loc 1 647 18 is_stmt 0 view .LVU550
 1688 0020 2A23     		movs	r3, #42
ARM GAS  C:\Users\EDULU~1.DES\AppData\Local\Temp\ccmSuQZN.s 			page 54


 1689 0022 E35C     		ldrb	r3, [r4, r3]
 647:..\..\..\..\..\..\Software\uCOS-III\Source/os_tmr.c ****         case OS_TMR_STATE_RUNNING:
 1690              		.loc 1 647 5 view .LVU551
 1691 0024 012B     		cmp	r3, #1
 1692 0026 42D0     		beq	.L120
 1693 0028 002B     		cmp	r3, #0
 1694 002a 48D0     		beq	.L121
 1695 002c 022B     		cmp	r3, #2
 1696 002e 12D0     		beq	.L122
 1697 0030 032B     		cmp	r3, #3
 1698 0032 3CD0     		beq	.L120
 696:..\..\..\..\..\..\Software\uCOS-III\Source/os_tmr.c ****             *p_err   = OS_ERR_TMR_INVALID_STATE;
 1699              		.loc 1 696 14 is_stmt 1 view .LVU552
 1700 0034 6B46     		mov	r3, sp
 1701 0036 981D     		adds	r0, r3, #6
 1702 0038 FFF7FEFF 		bl	OSSchedUnlock
 1703              	.LVL153:
 697:..\..\..\..\..\..\Software\uCOS-III\Source/os_tmr.c ****              success = DEF_FALSE;
 1704              		.loc 1 697 13 view .LVU553
 697:..\..\..\..\..\..\Software\uCOS-III\Source/os_tmr.c ****              success = DEF_FALSE;
 1705              		.loc 1 697 22 is_stmt 0 view .LVU554
 1706 003c 254B     		ldr	r3, .L134+4
 1707 003e 3B80     		strh	r3, [r7]
 698:..\..\..\..\..\..\Software\uCOS-III\Source/os_tmr.c ****              break;
 1708              		.loc 1 698 14 is_stmt 1 view .LVU555
 1709              	.LVL154:
 699:..\..\..\..\..\..\Software\uCOS-III\Source/os_tmr.c ****     }
 1710              		.loc 1 699 14 view .LVU556
 698:..\..\..\..\..\..\Software\uCOS-III\Source/os_tmr.c ****              break;
 1711              		.loc 1 698 22 is_stmt 0 view .LVU557
 1712 0040 0020     		movs	r0, #0
 699:..\..\..\..\..\..\Software\uCOS-III\Source/os_tmr.c ****     }
 1713              		.loc 1 699 14 view .LVU558
 1714 0042 02E0     		b	.L118
 1715              	.LVL155:
 1716              	.L132:
 627:..\..\..\..\..\..\Software\uCOS-III\Source/os_tmr.c ****         return (DEF_FALSE);
 1717              		.loc 1 627 8 is_stmt 1 view .LVU559
 627:..\..\..\..\..\..\Software\uCOS-III\Source/os_tmr.c ****         return (DEF_FALSE);
 1718              		.loc 1 627 15 is_stmt 0 view .LVU560
 1719 0044 244B     		ldr	r3, .L134+8
 1720 0046 3B80     		strh	r3, [r7]
 628:..\..\..\..\..\..\Software\uCOS-III\Source/os_tmr.c ****     }
 1721              		.loc 1 628 9 is_stmt 1 view .LVU561
 628:..\..\..\..\..\..\Software\uCOS-III\Source/os_tmr.c ****     }
 1722              		.loc 1 628 16 is_stmt 0 view .LVU562
 1723 0048 0020     		movs	r0, #0
 1724              	.LVL156:
 1725              	.L118:
 702:..\..\..\..\..\..\Software\uCOS-III\Source/os_tmr.c **** 
 1726              		.loc 1 702 1 view .LVU563
 1727 004a 03B0     		add	sp, sp, #12
 1728              		@ sp needed
 1729              	.LVL157:
 1730              	.LVL158:
 1731              	.LVL159:
 702:..\..\..\..\..\..\Software\uCOS-III\Source/os_tmr.c **** 
ARM GAS  C:\Users\EDULU~1.DES\AppData\Local\Temp\ccmSuQZN.s 			page 55


 1732              		.loc 1 702 1 view .LVU564
 1733 004c F0BD     		pop	{r4, r5, r6, r7, pc}
 1734              	.LVL160:
 1735              	.L133:
 634:..\..\..\..\..\..\Software\uCOS-III\Source/os_tmr.c ****         return (DEF_FALSE);
 1736              		.loc 1 634 8 is_stmt 1 view .LVU565
 634:..\..\..\..\..\..\Software\uCOS-III\Source/os_tmr.c ****         return (DEF_FALSE);
 1737              		.loc 1 634 15 is_stmt 0 view .LVU566
 1738 004e 234B     		ldr	r3, .L134+12
 1739 0050 3B80     		strh	r3, [r7]
 635:..\..\..\..\..\..\Software\uCOS-III\Source/os_tmr.c ****     }
 1740              		.loc 1 635 9 is_stmt 1 view .LVU567
 635:..\..\..\..\..\..\Software\uCOS-III\Source/os_tmr.c ****     }
 1741              		.loc 1 635 16 is_stmt 0 view .LVU568
 1742 0052 0020     		movs	r0, #0
 1743              	.LVL161:
 635:..\..\..\..\..\..\Software\uCOS-III\Source/os_tmr.c ****     }
 1744              		.loc 1 635 16 view .LVU569
 1745 0054 F9E7     		b	.L118
 1746              	.LVL162:
 1747              	.L122:
 649:..\..\..\..\..\..\Software\uCOS-III\Source/os_tmr.c ****             *p_err = OS_ERR_NONE;
 1748              		.loc 1 649 14 is_stmt 1 view .LVU570
 1749 0056 2000     		movs	r0, r4
 1750 0058 FFF7FEFF 		bl	OS_TmrUnlink
 1751              	.LVL163:
 650:..\..\..\..\..\..\Software\uCOS-III\Source/os_tmr.c ****              switch (opt) {
 1752              		.loc 1 650 13 view .LVU571
 650:..\..\..\..\..\..\Software\uCOS-III\Source/os_tmr.c ****              switch (opt) {
 1753              		.loc 1 650 20 is_stmt 0 view .LVU572
 1754 005c 0023     		movs	r3, #0
 1755 005e 3B80     		strh	r3, [r7]
 651:..\..\..\..\..\..\Software\uCOS-III\Source/os_tmr.c ****                  case OS_OPT_TMR_CALLBACK:
 1756              		.loc 1 651 14 is_stmt 1 view .LVU573
 1757 0060 032D     		cmp	r5, #3
 1758 0062 0BD0     		beq	.L124
 1759 0064 042D     		cmp	r5, #4
 1760 0066 18D0     		beq	.L125
 1761 0068 002D     		cmp	r5, #0
 1762 006a 0DD0     		beq	.L126
 674:..\..\..\..\..\..\Software\uCOS-III\Source/os_tmr.c ****                     *p_err = OS_ERR_OPT_INVALID;
 1763              		.loc 1 674 22 view .LVU574
 1764 006c 6B46     		mov	r3, sp
 1765 006e 981D     		adds	r0, r3, #6
 1766 0070 FFF7FEFF 		bl	OSSchedUnlock
 1767              	.LVL164:
 675:..\..\..\..\..\..\Software\uCOS-III\Source/os_tmr.c ****                      return (DEF_FALSE);
 1768              		.loc 1 675 21 view .LVU575
 675:..\..\..\..\..\..\Software\uCOS-III\Source/os_tmr.c ****                      return (DEF_FALSE);
 1769              		.loc 1 675 28 is_stmt 0 view .LVU576
 1770 0074 1A4B     		ldr	r3, .L134+16
 1771 0076 3B80     		strh	r3, [r7]
 676:..\..\..\..\..\..\Software\uCOS-III\Source/os_tmr.c ****              }
 1772              		.loc 1 676 22 is_stmt 1 view .LVU577
 676:..\..\..\..\..\..\Software\uCOS-III\Source/os_tmr.c ****              }
 1773              		.loc 1 676 29 is_stmt 0 view .LVU578
 1774 0078 0020     		movs	r0, #0
ARM GAS  C:\Users\EDULU~1.DES\AppData\Local\Temp\ccmSuQZN.s 			page 56


 1775 007a E6E7     		b	.L118
 1776              	.L124:
 653:..\..\..\..\..\..\Software\uCOS-III\Source/os_tmr.c ****                       if (p_fnct != (OS_TMR_CALLBACK_PTR)0) {              /* ... if available     
 1777              		.loc 1 653 23 is_stmt 1 view .LVU579
 653:..\..\..\..\..\..\Software\uCOS-III\Source/os_tmr.c ****                       if (p_fnct != (OS_TMR_CALLBACK_PTR)0) {              /* ... if available     
 1778              		.loc 1 653 30 is_stmt 0 view .LVU580
 1779 007c A368     		ldr	r3, [r4, #8]
 1780              	.LVL165:
 654:..\..\..\..\..\..\Software\uCOS-III\Source/os_tmr.c ****                         (*p_fnct)((void *)p_tmr, p_tmr->CallbackPtrArg);   /* Use callback arg when
 1781              		.loc 1 654 23 is_stmt 1 view .LVU581
 654:..\..\..\..\..\..\Software\uCOS-III\Source/os_tmr.c ****                         (*p_fnct)((void *)p_tmr, p_tmr->CallbackPtrArg);   /* Use callback arg when
 1782              		.loc 1 654 26 is_stmt 0 view .LVU582
 1783 007e 002B     		cmp	r3, #0
 1784 0080 08D0     		beq	.L128
 655:..\..\..\..\..\..\Software\uCOS-III\Source/os_tmr.c ****                       } else {
 1785              		.loc 1 655 25 is_stmt 1 view .LVU583
 655:..\..\..\..\..\..\Software\uCOS-III\Source/os_tmr.c ****                       } else {
 1786              		.loc 1 655 26 is_stmt 0 view .LVU584
 1787 0082 E168     		ldr	r1, [r4, #12]
 1788 0084 2000     		movs	r0, r4
 1789 0086 9847     		blx	r3
 1790              	.LVL166:
 1791              	.L126:
 678:..\..\..\..\..\..\Software\uCOS-III\Source/os_tmr.c ****              success = DEF_TRUE;
 1792              		.loc 1 678 14 is_stmt 1 view .LVU585
 1793 0088 6B46     		mov	r3, sp
 1794 008a 981D     		adds	r0, r3, #6
 1795 008c FFF7FEFF 		bl	OSSchedUnlock
 1796              	.LVL167:
 679:..\..\..\..\..\..\Software\uCOS-III\Source/os_tmr.c ****              break;
 1797              		.loc 1 679 14 view .LVU586
 680:..\..\..\..\..\..\Software\uCOS-III\Source/os_tmr.c **** 
 1798              		.loc 1 680 14 view .LVU587
 679:..\..\..\..\..\..\Software\uCOS-III\Source/os_tmr.c ****              break;
 1799              		.loc 1 679 22 is_stmt 0 view .LVU588
 1800 0090 0120     		movs	r0, #1
 680:..\..\..\..\..\..\Software\uCOS-III\Source/os_tmr.c **** 
 1801              		.loc 1 680 14 view .LVU589
 1802 0092 DAE7     		b	.L118
 1803              	.LVL168:
 1804              	.L128:
 657:..\..\..\..\..\..\Software\uCOS-III\Source/os_tmr.c ****                       }
 1805              		.loc 1 657 26 is_stmt 1 view .LVU590
 657:..\..\..\..\..\..\Software\uCOS-III\Source/os_tmr.c ****                       }
 1806              		.loc 1 657 33 is_stmt 0 view .LVU591
 1807 0094 134B     		ldr	r3, .L134+20
 1808              	.LVL169:
 657:..\..\..\..\..\..\Software\uCOS-III\Source/os_tmr.c ****                       }
 1809              		.loc 1 657 33 view .LVU592
 1810 0096 3B80     		strh	r3, [r7]
 1811              	.LVL170:
 657:..\..\..\..\..\..\Software\uCOS-III\Source/os_tmr.c ****                       }
 1812              		.loc 1 657 33 view .LVU593
 1813 0098 F6E7     		b	.L126
 1814              	.L125:
 662:..\..\..\..\..\..\Software\uCOS-III\Source/os_tmr.c ****                       if (p_fnct != (OS_TMR_CALLBACK_PTR)0) {
 1815              		.loc 1 662 23 is_stmt 1 view .LVU594
ARM GAS  C:\Users\EDULU~1.DES\AppData\Local\Temp\ccmSuQZN.s 			page 57


 662:..\..\..\..\..\..\Software\uCOS-III\Source/os_tmr.c ****                       if (p_fnct != (OS_TMR_CALLBACK_PTR)0) {
 1816              		.loc 1 662 30 is_stmt 0 view .LVU595
 1817 009a A368     		ldr	r3, [r4, #8]
 1818              	.LVL171:
 663:..\..\..\..\..\..\Software\uCOS-III\Source/os_tmr.c ****                         (*p_fnct)((void *)p_tmr, p_callback_arg);     /* .. using the 'callback_arg
 1819              		.loc 1 663 23 is_stmt 1 view .LVU596
 663:..\..\..\..\..\..\Software\uCOS-III\Source/os_tmr.c ****                         (*p_fnct)((void *)p_tmr, p_callback_arg);     /* .. using the 'callback_arg
 1820              		.loc 1 663 26 is_stmt 0 view .LVU597
 1821 009c 002B     		cmp	r3, #0
 1822 009e 03D0     		beq	.L129
 664:..\..\..\..\..\..\Software\uCOS-III\Source/os_tmr.c ****                       } else {
 1823              		.loc 1 664 25 is_stmt 1 view .LVU598
 664:..\..\..\..\..\..\Software\uCOS-III\Source/os_tmr.c ****                       } else {
 1824              		.loc 1 664 26 is_stmt 0 view .LVU599
 1825 00a0 3100     		movs	r1, r6
 1826 00a2 2000     		movs	r0, r4
 1827 00a4 9847     		blx	r3
 1828              	.LVL172:
 664:..\..\..\..\..\..\Software\uCOS-III\Source/os_tmr.c ****                       } else {
 1829              		.loc 1 664 26 view .LVU600
 1830 00a6 EFE7     		b	.L126
 1831              	.LVL173:
 1832              	.L129:
 666:..\..\..\..\..\..\Software\uCOS-III\Source/os_tmr.c ****                       }
 1833              		.loc 1 666 26 is_stmt 1 view .LVU601
 666:..\..\..\..\..\..\Software\uCOS-III\Source/os_tmr.c ****                       }
 1834              		.loc 1 666 33 is_stmt 0 view .LVU602
 1835 00a8 0E4B     		ldr	r3, .L134+20
 1836              	.LVL174:
 666:..\..\..\..\..\..\Software\uCOS-III\Source/os_tmr.c ****                       }
 1837              		.loc 1 666 33 view .LVU603
 1838 00aa 3B80     		strh	r3, [r7]
 1839              	.LVL175:
 666:..\..\..\..\..\..\Software\uCOS-III\Source/os_tmr.c ****                       }
 1840              		.loc 1 666 33 view .LVU604
 1841 00ac ECE7     		b	.L126
 1842              	.L120:
 684:..\..\..\..\..\..\Software\uCOS-III\Source/os_tmr.c ****             *p_err   = OS_ERR_TMR_STOPPED;
 1843              		.loc 1 684 14 is_stmt 1 view .LVU605
 1844 00ae 6B46     		mov	r3, sp
 1845 00b0 981D     		adds	r0, r3, #6
 1846 00b2 FFF7FEFF 		bl	OSSchedUnlock
 1847              	.LVL176:
 685:..\..\..\..\..\..\Software\uCOS-III\Source/os_tmr.c ****              success = DEF_TRUE;
 1848              		.loc 1 685 13 view .LVU606
 685:..\..\..\..\..\..\Software\uCOS-III\Source/os_tmr.c ****              success = DEF_TRUE;
 1849              		.loc 1 685 22 is_stmt 0 view .LVU607
 1850 00b6 0C4B     		ldr	r3, .L134+24
 1851 00b8 3B80     		strh	r3, [r7]
 686:..\..\..\..\..\..\Software\uCOS-III\Source/os_tmr.c ****              break;
 1852              		.loc 1 686 14 is_stmt 1 view .LVU608
 1853              	.LVL177:
 687:..\..\..\..\..\..\Software\uCOS-III\Source/os_tmr.c **** 
 1854              		.loc 1 687 14 view .LVU609
 686:..\..\..\..\..\..\Software\uCOS-III\Source/os_tmr.c ****              break;
 1855              		.loc 1 686 22 is_stmt 0 view .LVU610
 1856 00ba 0120     		movs	r0, #1
ARM GAS  C:\Users\EDULU~1.DES\AppData\Local\Temp\ccmSuQZN.s 			page 58


 687:..\..\..\..\..\..\Software\uCOS-III\Source/os_tmr.c **** 
 1857              		.loc 1 687 14 view .LVU611
 1858 00bc C5E7     		b	.L118
 1859              	.LVL178:
 1860              	.L121:
 690:..\..\..\..\..\..\Software\uCOS-III\Source/os_tmr.c ****             *p_err   = OS_ERR_TMR_INACTIVE;
 1861              		.loc 1 690 14 is_stmt 1 view .LVU612
 1862 00be 6B46     		mov	r3, sp
 1863 00c0 981D     		adds	r0, r3, #6
 1864 00c2 FFF7FEFF 		bl	OSSchedUnlock
 1865              	.LVL179:
 691:..\..\..\..\..\..\Software\uCOS-III\Source/os_tmr.c ****              success = DEF_FALSE;
 1866              		.loc 1 691 13 view .LVU613
 691:..\..\..\..\..\..\Software\uCOS-III\Source/os_tmr.c ****              success = DEF_FALSE;
 1867              		.loc 1 691 22 is_stmt 0 view .LVU614
 1868 00c6 094B     		ldr	r3, .L134+28
 1869 00c8 3B80     		strh	r3, [r7]
 692:..\..\..\..\..\..\Software\uCOS-III\Source/os_tmr.c ****              break;
 1870              		.loc 1 692 14 is_stmt 1 view .LVU615
 1871              	.LVL180:
 693:..\..\..\..\..\..\Software\uCOS-III\Source/os_tmr.c **** 
 1872              		.loc 1 693 14 view .LVU616
 692:..\..\..\..\..\..\Software\uCOS-III\Source/os_tmr.c ****              break;
 1873              		.loc 1 692 22 is_stmt 0 view .LVU617
 1874 00ca 0020     		movs	r0, #0
 693:..\..\..\..\..\..\Software\uCOS-III\Source/os_tmr.c **** 
 1875              		.loc 1 693 14 view .LVU618
 1876 00cc BDE7     		b	.L118
 1877              	.L135:
 1878 00ce C046     		.align	2
 1879              	.L134:
 1880 00d0 00000000 		.word	OSIntNestingCtr
 1881 00d4 41730000 		.word	29505
 1882 00d8 43730000 		.word	29507
 1883 00dc 42730000 		.word	29506
 1884 00e0 255E0000 		.word	24101
 1885 00e4 44730000 		.word	29508
 1886 00e8 49730000 		.word	29513
 1887 00ec 3D730000 		.word	29501
 1888              		.cfi_endproc
 1889              	.LFE7:
 1890              		.size	OSTmrStop, .-OSTmrStop
 1891              		.section	.text.OS_TmrTask,"ax",%progbits
 1892              		.align	1
 1893              		.global	OS_TmrTask
 1894              		.syntax unified
 1895              		.code	16
 1896              		.thumb_func
 1897              		.fpu softvfp
 1898              		.type	OS_TmrTask, %function
 1899              	OS_TmrTask:
 1900              	.LFB15:
1048:..\..\..\..\..\..\Software\uCOS-III\Source/os_tmr.c **** 
1049:..\..\..\..\..\..\Software\uCOS-III\Source/os_tmr.c **** /*$PAGE*/
1050:..\..\..\..\..\..\Software\uCOS-III\Source/os_tmr.c **** /*
1051:..\..\..\..\..\..\Software\uCOS-III\Source/os_tmr.c **** ***************************************************************************************************
1052:..\..\..\..\..\..\Software\uCOS-III\Source/os_tmr.c **** *                                                 TIMER MANAGEMENT TASK
ARM GAS  C:\Users\EDULU~1.DES\AppData\Local\Temp\ccmSuQZN.s 			page 59


1053:..\..\..\..\..\..\Software\uCOS-III\Source/os_tmr.c **** *
1054:..\..\..\..\..\..\Software\uCOS-III\Source/os_tmr.c **** * Description: This task is created by OS_TmrInit().
1055:..\..\..\..\..\..\Software\uCOS-III\Source/os_tmr.c **** *
1056:..\..\..\..\..\..\Software\uCOS-III\Source/os_tmr.c **** * Arguments  : none
1057:..\..\..\..\..\..\Software\uCOS-III\Source/os_tmr.c **** *
1058:..\..\..\..\..\..\Software\uCOS-III\Source/os_tmr.c **** * Returns    : none
1059:..\..\..\..\..\..\Software\uCOS-III\Source/os_tmr.c **** *
1060:..\..\..\..\..\..\Software\uCOS-III\Source/os_tmr.c **** * Note(s)    : 1) This function is INTERNAL to uC/OS-III and your application MUST NOT call it.
1061:..\..\..\..\..\..\Software\uCOS-III\Source/os_tmr.c **** ***************************************************************************************************
1062:..\..\..\..\..\..\Software\uCOS-III\Source/os_tmr.c **** */
1063:..\..\..\..\..\..\Software\uCOS-III\Source/os_tmr.c **** 
1064:..\..\..\..\..\..\Software\uCOS-III\Source/os_tmr.c **** void  OS_TmrTask (void  *p_arg)
1065:..\..\..\..\..\..\Software\uCOS-III\Source/os_tmr.c **** {
 1901              		.loc 1 1065 1 is_stmt 1 view -0
 1902              		.cfi_startproc
 1903              		@ args = 0, pretend = 0, frame = 8
 1904              		@ frame_needed = 0, uses_anonymous_args = 0
 1905              	.LVL181:
 1906              		.loc 1 1065 1 is_stmt 0 view .LVU620
 1907 0000 70B5     		push	{r4, r5, r6, lr}
 1908              		.cfi_def_cfa_offset 16
 1909              		.cfi_offset 4, -16
 1910              		.cfi_offset 5, -12
 1911              		.cfi_offset 6, -8
 1912              		.cfi_offset 14, -4
 1913 0002 82B0     		sub	sp, sp, #8
 1914              		.cfi_def_cfa_offset 24
 1915 0004 2AE0     		b	.L143
 1916              	.LVL182:
 1917              	.L145:
1066:..\..\..\..\..\..\Software\uCOS-III\Source/os_tmr.c ****     CPU_BOOLEAN          done;
1067:..\..\..\..\..\..\Software\uCOS-III\Source/os_tmr.c ****     OS_ERR               err;
1068:..\..\..\..\..\..\Software\uCOS-III\Source/os_tmr.c ****     OS_TMR_CALLBACK_PTR  p_fnct;
1069:..\..\..\..\..\..\Software\uCOS-III\Source/os_tmr.c ****     OS_TMR_SPOKE        *p_spoke;
1070:..\..\..\..\..\..\Software\uCOS-III\Source/os_tmr.c ****     OS_TMR              *p_tmr;
1071:..\..\..\..\..\..\Software\uCOS-III\Source/os_tmr.c ****     OS_TMR              *p_tmr_next;
1072:..\..\..\..\..\..\Software\uCOS-III\Source/os_tmr.c ****     OS_TMR_SPOKE_IX      spoke;
1073:..\..\..\..\..\..\Software\uCOS-III\Source/os_tmr.c ****     CPU_TS               ts;
1074:..\..\..\..\..\..\Software\uCOS-III\Source/os_tmr.c ****     CPU_TS               ts_start;
1075:..\..\..\..\..\..\Software\uCOS-III\Source/os_tmr.c ****     CPU_TS               ts_end;
1076:..\..\..\..\..\..\Software\uCOS-III\Source/os_tmr.c **** 
1077:..\..\..\..\..\..\Software\uCOS-III\Source/os_tmr.c **** 
1078:..\..\..\..\..\..\Software\uCOS-III\Source/os_tmr.c **** 
1079:..\..\..\..\..\..\Software\uCOS-III\Source/os_tmr.c ****     p_arg = p_arg;                                               /* Not using 'p_arg', prevent comp
1080:..\..\..\..\..\..\Software\uCOS-III\Source/os_tmr.c ****     while (DEF_ON) {
1081:..\..\..\..\..\..\Software\uCOS-III\Source/os_tmr.c ****         (void)OSTaskSemPend((OS_TICK )0,                         /* Wait for signal indicating time
1082:..\..\..\..\..\..\Software\uCOS-III\Source/os_tmr.c ****                             (OS_OPT  )OS_OPT_PEND_BLOCKING,
1083:..\..\..\..\..\..\Software\uCOS-III\Source/os_tmr.c ****                             (CPU_TS *)&ts,
1084:..\..\..\..\..\..\Software\uCOS-III\Source/os_tmr.c ****                             (OS_ERR *)&err);
1085:..\..\..\..\..\..\Software\uCOS-III\Source/os_tmr.c **** 
1086:..\..\..\..\..\..\Software\uCOS-III\Source/os_tmr.c ****         OSSchedLock(&err);
1087:..\..\..\..\..\..\Software\uCOS-III\Source/os_tmr.c ****         ts_start = OS_TS_GET();
1088:..\..\..\..\..\..\Software\uCOS-III\Source/os_tmr.c ****         OSTmrTickCtr++;                                          /* Increment the current time     
1089:..\..\..\..\..\..\Software\uCOS-III\Source/os_tmr.c ****         spoke    = (OS_TMR_SPOKE_IX)(OSTmrTickCtr % OSCfg_TmrWheelSize);
1090:..\..\..\..\..\..\Software\uCOS-III\Source/os_tmr.c ****         p_spoke  = &OSCfg_TmrWheel[spoke];
1091:..\..\..\..\..\..\Software\uCOS-III\Source/os_tmr.c ****         p_tmr    = p_spoke->FirstPtr;
1092:..\..\..\..\..\..\Software\uCOS-III\Source/os_tmr.c ****         done     = DEF_FALSE;
ARM GAS  C:\Users\EDULU~1.DES\AppData\Local\Temp\ccmSuQZN.s 			page 60


1093:..\..\..\..\..\..\Software\uCOS-III\Source/os_tmr.c ****         while (done == DEF_FALSE) {
1094:..\..\..\..\..\..\Software\uCOS-III\Source/os_tmr.c ****             if (p_tmr != (OS_TMR *)0) {
1095:..\..\..\..\..\..\Software\uCOS-III\Source/os_tmr.c ****                 p_tmr_next = (OS_TMR *)p_tmr->NextPtr;           /* Point to next tmr to update bec
1096:..\..\..\..\..\..\Software\uCOS-III\Source/os_tmr.c ****                                                                  /* ... timer could get unlinked fr
1097:..\..\..\..\..\..\Software\uCOS-III\Source/os_tmr.c ****                 if (OSTmrTickCtr == p_tmr->Match) {              /* Process each timer that expires
1098:..\..\..\..\..\..\Software\uCOS-III\Source/os_tmr.c ****                     OS_TmrUnlink(p_tmr);                         /* Remove from current wheel spoke
1099:..\..\..\..\..\..\Software\uCOS-III\Source/os_tmr.c ****                     if (p_tmr->Opt == OS_OPT_TMR_PERIODIC) {
1100:..\..\..\..\..\..\Software\uCOS-III\Source/os_tmr.c ****                         OS_TmrLink(p_tmr,
 1918              		.loc 1 1100 25 is_stmt 1 view .LVU621
 1919 0006 0121     		movs	r1, #1
 1920 0008 2000     		movs	r0, r4
 1921 000a FFF7FEFF 		bl	OS_TmrLink
 1922              	.LVL183:
 1923 000e 11E0     		b	.L140
 1924              	.LVL184:
 1925              	.L141:
1065:..\..\..\..\..\..\Software\uCOS-III\Source/os_tmr.c ****     CPU_BOOLEAN          done;
 1926              		.loc 1 1065 1 is_stmt 0 view .LVU622
 1927 0010 2C00     		movs	r4, r5
 1928              	.LVL185:
 1929              	.L137:
1094:..\..\..\..\..\..\Software\uCOS-III\Source/os_tmr.c ****                 p_tmr_next = (OS_TMR *)p_tmr->NextPtr;           /* Point to next tmr to update bec
 1930              		.loc 1 1094 13 is_stmt 1 view .LVU623
1094:..\..\..\..\..\..\Software\uCOS-III\Source/os_tmr.c ****                 p_tmr_next = (OS_TMR *)p_tmr->NextPtr;           /* Point to next tmr to update bec
 1931              		.loc 1 1094 16 is_stmt 0 view .LVU624
 1932 0012 002C     		cmp	r4, #0
 1933 0014 15D0     		beq	.L138
1095:..\..\..\..\..\..\Software\uCOS-III\Source/os_tmr.c ****                                                                  /* ... timer could get unlinked fr
 1934              		.loc 1 1095 17 is_stmt 1 view .LVU625
1095:..\..\..\..\..\..\Software\uCOS-III\Source/os_tmr.c ****                                                                  /* ... timer could get unlinked fr
 1935              		.loc 1 1095 28 is_stmt 0 view .LVU626
 1936 0016 2569     		ldr	r5, [r4, #16]
 1937              	.LVL186:
1097:..\..\..\..\..\..\Software\uCOS-III\Source/os_tmr.c ****                     OS_TmrUnlink(p_tmr);                         /* Remove from current wheel spoke
 1938              		.loc 1 1097 17 is_stmt 1 view .LVU627
1097:..\..\..\..\..\..\Software\uCOS-III\Source/os_tmr.c ****                     OS_TmrUnlink(p_tmr);                         /* Remove from current wheel spoke
 1939              		.loc 1 1097 34 is_stmt 0 view .LVU628
 1940 0018 1E4B     		ldr	r3, .L146
 1941 001a 1B68     		ldr	r3, [r3]
1097:..\..\..\..\..\..\Software\uCOS-III\Source/os_tmr.c ****                     OS_TmrUnlink(p_tmr);                         /* Remove from current wheel spoke
 1942              		.loc 1 1097 20 view .LVU629
 1943 001c A269     		ldr	r2, [r4, #24]
 1944 001e 9A42     		cmp	r2, r3
 1945 0020 0FD1     		bne	.L138
1098:..\..\..\..\..\..\Software\uCOS-III\Source/os_tmr.c ****                     if (p_tmr->Opt == OS_OPT_TMR_PERIODIC) {
 1946              		.loc 1 1098 21 is_stmt 1 view .LVU630
 1947 0022 2000     		movs	r0, r4
 1948 0024 FFF7FEFF 		bl	OS_TmrUnlink
 1949              	.LVL187:
1099:..\..\..\..\..\..\Software\uCOS-III\Source/os_tmr.c ****                         OS_TmrLink(p_tmr,
 1950              		.loc 1 1099 21 view .LVU631
1099:..\..\..\..\..\..\Software\uCOS-III\Source/os_tmr.c ****                         OS_TmrLink(p_tmr,
 1951              		.loc 1 1099 30 is_stmt 0 view .LVU632
 1952 0028 238D     		ldrh	r3, [r4, #40]
1099:..\..\..\..\..\..\Software\uCOS-III\Source/os_tmr.c ****                         OS_TmrLink(p_tmr,
 1953              		.loc 1 1099 24 view .LVU633
 1954 002a 022B     		cmp	r3, #2
ARM GAS  C:\Users\EDULU~1.DES\AppData\Local\Temp\ccmSuQZN.s 			page 61


 1955 002c EBD0     		beq	.L145
1101:..\..\..\..\..\..\Software\uCOS-III\Source/os_tmr.c ****                                    OS_OPT_LINK_PERIODIC);        /* Recalculate new position of tim
1102:..\..\..\..\..\..\Software\uCOS-III\Source/os_tmr.c ****                     } else {
1103:..\..\..\..\..\..\Software\uCOS-III\Source/os_tmr.c ****                         p_tmr->State = OS_TMR_STATE_COMPLETED;   /* Indicate that the timer has com
 1956              		.loc 1 1103 25 is_stmt 1 view .LVU634
 1957              		.loc 1 1103 38 is_stmt 0 view .LVU635
 1958 002e 2A23     		movs	r3, #42
 1959 0030 0322     		movs	r2, #3
 1960 0032 E254     		strb	r2, [r4, r3]
 1961              	.L140:
1104:..\..\..\..\..\..\Software\uCOS-III\Source/os_tmr.c ****                     }
1105:..\..\..\..\..\..\Software\uCOS-III\Source/os_tmr.c ****                     p_fnct = p_tmr->CallbackPtr;                 /* Execute callback function if av
 1962              		.loc 1 1105 21 is_stmt 1 view .LVU636
 1963              		.loc 1 1105 28 is_stmt 0 view .LVU637
 1964 0034 A368     		ldr	r3, [r4, #8]
 1965              	.LVL188:
1106:..\..\..\..\..\..\Software\uCOS-III\Source/os_tmr.c ****                     if (p_fnct != (OS_TMR_CALLBACK_PTR)0) {
 1966              		.loc 1 1106 21 is_stmt 1 view .LVU638
 1967              		.loc 1 1106 24 is_stmt 0 view .LVU639
 1968 0036 002B     		cmp	r3, #0
 1969 0038 EAD0     		beq	.L141
1107:..\..\..\..\..\..\Software\uCOS-III\Source/os_tmr.c ****                         (*p_fnct)((void *)p_tmr,
 1970              		.loc 1 1107 25 is_stmt 1 view .LVU640
 1971              		.loc 1 1107 26 is_stmt 0 view .LVU641
 1972 003a E168     		ldr	r1, [r4, #12]
 1973 003c 2000     		movs	r0, r4
 1974 003e 9847     		blx	r3
 1975              	.LVL189:
 1976              		.loc 1 1107 26 view .LVU642
 1977 0040 E6E7     		b	.L141
 1978              	.LVL190:
 1979              	.L138:
1108:..\..\..\..\..\..\Software\uCOS-III\Source/os_tmr.c ****                                   p_tmr->CallbackPtrArg);
1109:..\..\..\..\..\..\Software\uCOS-III\Source/os_tmr.c ****                     }
1110:..\..\..\..\..\..\Software\uCOS-III\Source/os_tmr.c ****                     p_tmr = p_tmr_next;                          /* See if next timer matches      
1111:..\..\..\..\..\..\Software\uCOS-III\Source/os_tmr.c ****                 } else {
1112:..\..\..\..\..\..\Software\uCOS-III\Source/os_tmr.c ****                     done  = DEF_TRUE;
1113:..\..\..\..\..\..\Software\uCOS-III\Source/os_tmr.c ****                 }
1114:..\..\..\..\..\..\Software\uCOS-III\Source/os_tmr.c ****             } else {
1115:..\..\..\..\..\..\Software\uCOS-III\Source/os_tmr.c ****                 done = DEF_TRUE;
1116:..\..\..\..\..\..\Software\uCOS-III\Source/os_tmr.c ****             }
1117:..\..\..\..\..\..\Software\uCOS-III\Source/os_tmr.c ****         }
1118:..\..\..\..\..\..\Software\uCOS-III\Source/os_tmr.c ****         ts_end = OS_TS_GET() - ts_start;                         /* Measure execution time of timer
 1980              		.loc 1 1118 9 is_stmt 1 view .LVU643
 1981              		.loc 1 1118 18 is_stmt 0 view .LVU644
 1982 0042 FFF7FEFF 		bl	CPU_TS_TmrRd
 1983              	.LVL191:
 1984              		.loc 1 1118 16 view .LVU645
 1985 0046 861B     		subs	r6, r0, r6
 1986              	.LVL192:
1119:..\..\..\..\..\..\Software\uCOS-III\Source/os_tmr.c ****         OSSchedUnlock(&err);
 1987              		.loc 1 1119 9 is_stmt 1 view .LVU646
 1988 0048 6B46     		mov	r3, sp
 1989 004a 981D     		adds	r0, r3, #6
 1990 004c FFF7FEFF 		bl	OSSchedUnlock
 1991              	.LVL193:
1120:..\..\..\..\..\..\Software\uCOS-III\Source/os_tmr.c ****         if (OSTmrTaskTimeMax < ts_end) {
ARM GAS  C:\Users\EDULU~1.DES\AppData\Local\Temp\ccmSuQZN.s 			page 62


 1992              		.loc 1 1120 9 view .LVU647
 1993              		.loc 1 1120 30 is_stmt 0 view .LVU648
 1994 0050 114B     		ldr	r3, .L146+4
 1995 0052 1B68     		ldr	r3, [r3]
 1996              		.loc 1 1120 12 view .LVU649
 1997 0054 B342     		cmp	r3, r6
 1998 0056 01D2     		bcs	.L143
1121:..\..\..\..\..\..\Software\uCOS-III\Source/os_tmr.c ****             OSTmrTaskTimeMax = ts_end;
 1999              		.loc 1 1121 13 is_stmt 1 view .LVU650
 2000              		.loc 1 1121 30 is_stmt 0 view .LVU651
 2001 0058 0F4B     		ldr	r3, .L146+4
 2002 005a 1E60     		str	r6, [r3]
 2003              	.LVL194:
 2004              	.L143:
1080:..\..\..\..\..\..\Software\uCOS-III\Source/os_tmr.c ****         (void)OSTaskSemPend((OS_TICK )0,                         /* Wait for signal indicating time
 2005              		.loc 1 1080 5 is_stmt 1 view .LVU652
1081:..\..\..\..\..\..\Software\uCOS-III\Source/os_tmr.c ****                             (OS_OPT  )OS_OPT_PEND_BLOCKING,
 2006              		.loc 1 1081 9 view .LVU653
1081:..\..\..\..\..\..\Software\uCOS-III\Source/os_tmr.c ****                             (OS_OPT  )OS_OPT_PEND_BLOCKING,
 2007              		.loc 1 1081 15 is_stmt 0 view .LVU654
 2008 005c 6B46     		mov	r3, sp
 2009 005e 0633     		adds	r3, r3, #6
 2010 0060 6A46     		mov	r2, sp
 2011 0062 0021     		movs	r1, #0
 2012 0064 0020     		movs	r0, #0
 2013 0066 FFF7FEFF 		bl	OSTaskSemPend
 2014              	.LVL195:
1086:..\..\..\..\..\..\Software\uCOS-III\Source/os_tmr.c ****         ts_start = OS_TS_GET();
 2015              		.loc 1 1086 9 is_stmt 1 view .LVU655
 2016 006a 6B46     		mov	r3, sp
 2017 006c 981D     		adds	r0, r3, #6
 2018 006e FFF7FEFF 		bl	OSSchedLock
 2019              	.LVL196:
1087:..\..\..\..\..\..\Software\uCOS-III\Source/os_tmr.c ****         OSTmrTickCtr++;                                          /* Increment the current time     
 2020              		.loc 1 1087 9 view .LVU656
1087:..\..\..\..\..\..\Software\uCOS-III\Source/os_tmr.c ****         OSTmrTickCtr++;                                          /* Increment the current time     
 2021              		.loc 1 1087 20 is_stmt 0 view .LVU657
 2022 0072 FFF7FEFF 		bl	CPU_TS_TmrRd
 2023              	.LVL197:
 2024 0076 0600     		movs	r6, r0
 2025              	.LVL198:
1088:..\..\..\..\..\..\Software\uCOS-III\Source/os_tmr.c ****         spoke    = (OS_TMR_SPOKE_IX)(OSTmrTickCtr % OSCfg_TmrWheelSize);
 2026              		.loc 1 1088 9 is_stmt 1 view .LVU658
1088:..\..\..\..\..\..\Software\uCOS-III\Source/os_tmr.c ****         spoke    = (OS_TMR_SPOKE_IX)(OSTmrTickCtr % OSCfg_TmrWheelSize);
 2027              		.loc 1 1088 21 is_stmt 0 view .LVU659
 2028 0078 064B     		ldr	r3, .L146
 2029 007a 1A68     		ldr	r2, [r3]
 2030 007c 501C     		adds	r0, r2, #1
 2031              	.LVL199:
1088:..\..\..\..\..\..\Software\uCOS-III\Source/os_tmr.c ****         spoke    = (OS_TMR_SPOKE_IX)(OSTmrTickCtr % OSCfg_TmrWheelSize);
 2032              		.loc 1 1088 21 view .LVU660
 2033 007e 1860     		str	r0, [r3]
1089:..\..\..\..\..\..\Software\uCOS-III\Source/os_tmr.c ****         p_spoke  = &OSCfg_TmrWheel[spoke];
 2034              		.loc 1 1089 9 is_stmt 1 view .LVU661
1089:..\..\..\..\..\..\Software\uCOS-III\Source/os_tmr.c ****         p_spoke  = &OSCfg_TmrWheel[spoke];
 2035              		.loc 1 1089 51 is_stmt 0 view .LVU662
 2036 0080 064B     		ldr	r3, .L146+8
ARM GAS  C:\Users\EDULU~1.DES\AppData\Local\Temp\ccmSuQZN.s 			page 63


 2037 0082 1988     		ldrh	r1, [r3]
 2038 0084 FFF7FEFF 		bl	__aeabi_uidivmod
 2039              	.LVL200:
1090:..\..\..\..\..\..\Software\uCOS-III\Source/os_tmr.c ****         p_tmr    = p_spoke->FirstPtr;
 2040              		.loc 1 1090 9 is_stmt 1 view .LVU663
1090:..\..\..\..\..\..\Software\uCOS-III\Source/os_tmr.c ****         p_tmr    = p_spoke->FirstPtr;
 2041              		.loc 1 1090 35 is_stmt 0 view .LVU664
 2042 0088 0904     		lsls	r1, r1, #16
 2043              	.LVL201:
1091:..\..\..\..\..\..\Software\uCOS-III\Source/os_tmr.c ****         done     = DEF_FALSE;
 2044              		.loc 1 1091 9 is_stmt 1 view .LVU665
1091:..\..\..\..\..\..\Software\uCOS-III\Source/os_tmr.c ****         done     = DEF_FALSE;
 2045              		.loc 1 1091 18 is_stmt 0 view .LVU666
 2046 008a 490B     		lsrs	r1, r1, #13
 2047              	.LVL202:
1091:..\..\..\..\..\..\Software\uCOS-III\Source/os_tmr.c ****         done     = DEF_FALSE;
 2048              		.loc 1 1091 18 view .LVU667
 2049 008c 044B     		ldr	r3, .L146+12
 2050 008e CC58     		ldr	r4, [r1, r3]
 2051              	.LVL203:
1092:..\..\..\..\..\..\Software\uCOS-III\Source/os_tmr.c ****         while (done == DEF_FALSE) {
 2052              		.loc 1 1092 9 is_stmt 1 view .LVU668
1093:..\..\..\..\..\..\Software\uCOS-III\Source/os_tmr.c ****             if (p_tmr != (OS_TMR *)0) {
 2053              		.loc 1 1093 9 view .LVU669
1093:..\..\..\..\..\..\Software\uCOS-III\Source/os_tmr.c ****             if (p_tmr != (OS_TMR *)0) {
 2054              		.loc 1 1093 15 is_stmt 0 view .LVU670
 2055 0090 BFE7     		b	.L137
 2056              	.L147:
 2057 0092 C046     		.align	2
 2058              	.L146:
 2059 0094 00000000 		.word	OSTmrTickCtr
 2060 0098 00000000 		.word	OSTmrTaskTimeMax
 2061 009c 00000000 		.word	OSCfg_TmrWheelSize
 2062 00a0 00000000 		.word	OSCfg_TmrWheel
 2063              		.cfi_endproc
 2064              	.LFE15:
 2065              		.size	OS_TmrTask, .-OS_TmrTask
 2066              		.section	.rodata.str1.4,"aMS",%progbits,1
 2067              		.align	2
 2068              	.LC3:
 2069 0000 3F544D52 		.ascii	"?TMR\000"
 2069      00
 2070 0005 000000   		.space	3
 2071              	.LC23:
 2072 0008 75432F4F 		.ascii	"uC/OS-III Timer Task\000"
 2072      532D4949 
 2072      49205469 
 2072      6D657220 
 2072      5461736B 
 2073              		.text
 2074              	.Letext0:
 2075              		.file 2 "..\\..\\..\\..\\..\\..\\Software\\uC-CPU\\ARM-Cortex-M0\\GNU/cpu.h"
 2076              		.file 3 "c:\\program files (x86)\\gnu tools arm embedded\\8 2018-q4-major\\arm-none-eabi\\include\
 2077              		.file 4 "c:\\program files (x86)\\gnu tools arm embedded\\8 2018-q4-major\\arm-none-eabi\\include\
 2078              		.file 5 "c:\\program files (x86)\\gnu tools arm embedded\\8 2018-q4-major\\lib\\gcc\\arm-none-eabi
 2079              		.file 6 "c:\\program files (x86)\\gnu tools arm embedded\\8 2018-q4-major\\arm-none-eabi\\include\
 2080              		.file 7 "..\\..\\..\\..\\..\\..\\Software\\uC-CPU/cpu_core.h"
ARM GAS  C:\Users\EDULU~1.DES\AppData\Local\Temp\ccmSuQZN.s 			page 64


 2081              		.file 8 "..\\..\\..\\..\\..\\..\\Software\\uCOS-III\\Source/os_type.h"
 2082              		.file 9 "..\\..\\..\\..\\..\\..\\Software\\uCOS-III\\Ports\\ARM-Cortex-M0\\Generic\\GNU/os_cpu.h"
 2083              		.file 10 "..\\..\\..\\..\\..\\..\\Software\\uCOS-III\\Source/os.h"