ARM GAS  C:\Users\EDULU~1.DES\AppData\Local\Temp\ccshEiWQ.s 			page 1


   1              		.cpu cortex-m0
   2              		.eabi_attribute 20, 1
   3              		.eabi_attribute 21, 1
   4              		.eabi_attribute 23, 3
   5              		.eabi_attribute 24, 1
   6              		.eabi_attribute 25, 1
   7              		.eabi_attribute 26, 1
   8              		.eabi_attribute 30, 1
   9              		.eabi_attribute 34, 0
  10              		.eabi_attribute 18, 4
  11              		.file	"Temp_Sensor_PM.c"
  12              		.text
  13              	.Ltext0:
  14              		.cfi_sections	.debug_frame
  15              		.section	.text.Temp_Sensor_SaveConfig,"ax",%progbits
  16              		.align	1
  17              		.global	Temp_Sensor_SaveConfig
  18              		.arch armv6s-m
  19              		.syntax unified
  20              		.code	16
  21              		.thumb_func
  22              		.fpu softvfp
  23              		.type	Temp_Sensor_SaveConfig, %function
  24              	Temp_Sensor_SaveConfig:
  25              	.LFB0:
  26              		.file 1 "Generated_Source\\PSoC4\\Temp_Sensor_PM.c"
   1:Generated_Source\PSoC4/Temp_Sensor_PM.c **** /*******************************************************************************
   2:Generated_Source\PSoC4/Temp_Sensor_PM.c **** * File Name: Temp_Sensor_PM.c
   3:Generated_Source\PSoC4/Temp_Sensor_PM.c **** * Version 1.10
   4:Generated_Source\PSoC4/Temp_Sensor_PM.c **** *
   5:Generated_Source\PSoC4/Temp_Sensor_PM.c **** * Description:
   6:Generated_Source\PSoC4/Temp_Sensor_PM.c **** *  This file contains the setup, control and status commands to support
   7:Generated_Source\PSoC4/Temp_Sensor_PM.c **** *  component operations in low power mode.
   8:Generated_Source\PSoC4/Temp_Sensor_PM.c **** *
   9:Generated_Source\PSoC4/Temp_Sensor_PM.c **** * Note:
  10:Generated_Source\PSoC4/Temp_Sensor_PM.c **** *  None
  11:Generated_Source\PSoC4/Temp_Sensor_PM.c **** *
  12:Generated_Source\PSoC4/Temp_Sensor_PM.c **** ********************************************************************************
  13:Generated_Source\PSoC4/Temp_Sensor_PM.c **** * Copyright 2012-2013, Cypress Semiconductor Corporation.  All rights reserved.
  14:Generated_Source\PSoC4/Temp_Sensor_PM.c **** * You may use this file only in accordance with the license, terms, conditions,
  15:Generated_Source\PSoC4/Temp_Sensor_PM.c **** * disclaimers, and limitations in the end user license agreement accompanying
  16:Generated_Source\PSoC4/Temp_Sensor_PM.c **** * the software package with which this file was provided.
  17:Generated_Source\PSoC4/Temp_Sensor_PM.c **** *******************************************************************************/
  18:Generated_Source\PSoC4/Temp_Sensor_PM.c **** 
  19:Generated_Source\PSoC4/Temp_Sensor_PM.c **** #include "Temp_Sensor_PVT.h"
  20:Generated_Source\PSoC4/Temp_Sensor_PM.c **** 
  21:Generated_Source\PSoC4/Temp_Sensor_PM.c **** static Temp_Sensor_BACKUP_STRUCT Temp_Sensor_backup;
  22:Generated_Source\PSoC4/Temp_Sensor_PM.c **** 
  23:Generated_Source\PSoC4/Temp_Sensor_PM.c **** 
  24:Generated_Source\PSoC4/Temp_Sensor_PM.c **** /*******************************************************************************
  25:Generated_Source\PSoC4/Temp_Sensor_PM.c **** * Function Name: Temp_Sensor_SaveConfig
  26:Generated_Source\PSoC4/Temp_Sensor_PM.c **** ********************************************************************************
  27:Generated_Source\PSoC4/Temp_Sensor_PM.c **** *
  28:Generated_Source\PSoC4/Temp_Sensor_PM.c **** * Summary:
  29:Generated_Source\PSoC4/Temp_Sensor_PM.c **** *  All configuration registers are retention. Nothing to save here.
  30:Generated_Source\PSoC4/Temp_Sensor_PM.c **** *
  31:Generated_Source\PSoC4/Temp_Sensor_PM.c **** * Parameters:
ARM GAS  C:\Users\EDULU~1.DES\AppData\Local\Temp\ccshEiWQ.s 			page 2


  32:Generated_Source\PSoC4/Temp_Sensor_PM.c **** *  None
  33:Generated_Source\PSoC4/Temp_Sensor_PM.c **** *
  34:Generated_Source\PSoC4/Temp_Sensor_PM.c **** * Return:
  35:Generated_Source\PSoC4/Temp_Sensor_PM.c **** *  None
  36:Generated_Source\PSoC4/Temp_Sensor_PM.c **** *
  37:Generated_Source\PSoC4/Temp_Sensor_PM.c **** *******************************************************************************/
  38:Generated_Source\PSoC4/Temp_Sensor_PM.c **** void Temp_Sensor_SaveConfig(void) 
  39:Generated_Source\PSoC4/Temp_Sensor_PM.c **** {
  27              		.loc 1 39 1 view -0
  28              		.cfi_startproc
  29              		@ args = 0, pretend = 0, frame = 0
  30              		@ frame_needed = 0, uses_anonymous_args = 0
  31              		@ link register save eliminated.
  40:Generated_Source\PSoC4/Temp_Sensor_PM.c **** 
  41:Generated_Source\PSoC4/Temp_Sensor_PM.c **** }
  32              		.loc 1 41 1 view .LVU1
  33              		@ sp needed
  34 0000 7047     		bx	lr
  35              		.cfi_endproc
  36              	.LFE0:
  37              		.size	Temp_Sensor_SaveConfig, .-Temp_Sensor_SaveConfig
  38              		.section	.text.Temp_Sensor_Sleep,"ax",%progbits
  39              		.align	1
  40              		.global	Temp_Sensor_Sleep
  41              		.syntax unified
  42              		.code	16
  43              		.thumb_func
  44              		.fpu softvfp
  45              		.type	Temp_Sensor_Sleep, %function
  46              	Temp_Sensor_Sleep:
  47              	.LFB1:
  42:Generated_Source\PSoC4/Temp_Sensor_PM.c **** 
  43:Generated_Source\PSoC4/Temp_Sensor_PM.c **** 
  44:Generated_Source\PSoC4/Temp_Sensor_PM.c **** /*******************************************************************************
  45:Generated_Source\PSoC4/Temp_Sensor_PM.c **** * Function Name: Temp_Sensor_Sleep
  46:Generated_Source\PSoC4/Temp_Sensor_PM.c **** ********************************************************************************
  47:Generated_Source\PSoC4/Temp_Sensor_PM.c **** *
  48:Generated_Source\PSoC4/Temp_Sensor_PM.c **** * Summary:
  49:Generated_Source\PSoC4/Temp_Sensor_PM.c **** *  Stops the TMP05 operation and saves the user configuration.
  50:Generated_Source\PSoC4/Temp_Sensor_PM.c **** *
  51:Generated_Source\PSoC4/Temp_Sensor_PM.c **** * Parameters:
  52:Generated_Source\PSoC4/Temp_Sensor_PM.c **** *  None
  53:Generated_Source\PSoC4/Temp_Sensor_PM.c **** *
  54:Generated_Source\PSoC4/Temp_Sensor_PM.c **** * Return:
  55:Generated_Source\PSoC4/Temp_Sensor_PM.c **** *  None
  56:Generated_Source\PSoC4/Temp_Sensor_PM.c **** *
  57:Generated_Source\PSoC4/Temp_Sensor_PM.c **** *******************************************************************************/
  58:Generated_Source\PSoC4/Temp_Sensor_PM.c **** void Temp_Sensor_Sleep(void) 
  59:Generated_Source\PSoC4/Temp_Sensor_PM.c **** {
  48              		.loc 1 59 1 view -0
  49              		.cfi_startproc
  50              		@ args = 0, pretend = 0, frame = 0
  51              		@ frame_needed = 0, uses_anonymous_args = 0
  52 0000 10B5     		push	{r4, lr}
  53              		.cfi_def_cfa_offset 8
  54              		.cfi_offset 4, -8
  55              		.cfi_offset 14, -4
ARM GAS  C:\Users\EDULU~1.DES\AppData\Local\Temp\ccshEiWQ.s 			page 3


  60:Generated_Source\PSoC4/Temp_Sensor_PM.c ****     if(0u != (Temp_Sensor_CONTROL_REG & Temp_Sensor_CTRL_REG_ENABLE))
  56              		.loc 1 60 5 view .LVU3
  57              		.loc 1 60 15 is_stmt 0 view .LVU4
  58 0002 074B     		ldr	r3, .L6
  59 0004 1B78     		ldrb	r3, [r3]
  60              		.loc 1 60 11 view .LVU5
  61 0006 5BB2     		sxtb	r3, r3
  62              		.loc 1 60 7 view .LVU6
  63 0008 002B     		cmp	r3, #0
  64 000a 05DB     		blt	.L5
  61:Generated_Source\PSoC4/Temp_Sensor_PM.c ****     {
  62:Generated_Source\PSoC4/Temp_Sensor_PM.c ****         Temp_Sensor_backup.enableState = 1u;
  63:Generated_Source\PSoC4/Temp_Sensor_PM.c ****     }
  64:Generated_Source\PSoC4/Temp_Sensor_PM.c ****     else /* The TMP05 block is disabled */
  65:Generated_Source\PSoC4/Temp_Sensor_PM.c ****     {
  66:Generated_Source\PSoC4/Temp_Sensor_PM.c ****         Temp_Sensor_backup.enableState = 0u;
  65              		.loc 1 66 9 is_stmt 1 view .LVU7
  66              		.loc 1 66 40 is_stmt 0 view .LVU8
  67 000c 054B     		ldr	r3, .L6+4
  68 000e 0022     		movs	r2, #0
  69 0010 1A70     		strb	r2, [r3]
  70              	.L4:
  67:Generated_Source\PSoC4/Temp_Sensor_PM.c ****     }
  68:Generated_Source\PSoC4/Temp_Sensor_PM.c **** 
  69:Generated_Source\PSoC4/Temp_Sensor_PM.c ****     Temp_Sensor_Stop();
  71              		.loc 1 69 5 is_stmt 1 view .LVU9
  72 0012 FFF7FEFF 		bl	Temp_Sensor_Stop
  73              	.LVL0:
  70:Generated_Source\PSoC4/Temp_Sensor_PM.c ****     Temp_Sensor_SaveConfig();
  74              		.loc 1 70 5 view .LVU10
  71:Generated_Source\PSoC4/Temp_Sensor_PM.c **** }
  75              		.loc 1 71 1 is_stmt 0 view .LVU11
  76              		@ sp needed
  77 0016 10BD     		pop	{r4, pc}
  78              	.L5:
  62:Generated_Source\PSoC4/Temp_Sensor_PM.c ****     }
  79              		.loc 1 62 9 is_stmt 1 view .LVU12
  62:Generated_Source\PSoC4/Temp_Sensor_PM.c ****     }
  80              		.loc 1 62 40 is_stmt 0 view .LVU13
  81 0018 024B     		ldr	r3, .L6+4
  82 001a 0122     		movs	r2, #1
  83 001c 1A70     		strb	r2, [r3]
  84 001e F8E7     		b	.L4
  85              	.L7:
  86              		.align	2
  87              	.L6:
  88 0020 72000F40 		.word	1074724978
  89 0024 00000000 		.word	.LANCHOR0
  90              		.cfi_endproc
  91              	.LFE1:
  92              		.size	Temp_Sensor_Sleep, .-Temp_Sensor_Sleep
  93              		.section	.text.Temp_Sensor_RestoreConfig,"ax",%progbits
  94              		.align	1
  95              		.global	Temp_Sensor_RestoreConfig
  96              		.syntax unified
  97              		.code	16
  98              		.thumb_func
ARM GAS  C:\Users\EDULU~1.DES\AppData\Local\Temp\ccshEiWQ.s 			page 4


  99              		.fpu softvfp
 100              		.type	Temp_Sensor_RestoreConfig, %function
 101              	Temp_Sensor_RestoreConfig:
 102              	.LFB2:
  72:Generated_Source\PSoC4/Temp_Sensor_PM.c **** 
  73:Generated_Source\PSoC4/Temp_Sensor_PM.c **** 
  74:Generated_Source\PSoC4/Temp_Sensor_PM.c **** /*******************************************************************************
  75:Generated_Source\PSoC4/Temp_Sensor_PM.c **** * Function Name: Temp_Sensor_RestoreConfig
  76:Generated_Source\PSoC4/Temp_Sensor_PM.c **** ********************************************************************************
  77:Generated_Source\PSoC4/Temp_Sensor_PM.c **** *
  78:Generated_Source\PSoC4/Temp_Sensor_PM.c **** * Summary:
  79:Generated_Source\PSoC4/Temp_Sensor_PM.c **** *  All configuration registers are retention. Nothing to restore here.
  80:Generated_Source\PSoC4/Temp_Sensor_PM.c **** *
  81:Generated_Source\PSoC4/Temp_Sensor_PM.c **** * Parameters:
  82:Generated_Source\PSoC4/Temp_Sensor_PM.c **** *  None
  83:Generated_Source\PSoC4/Temp_Sensor_PM.c **** *
  84:Generated_Source\PSoC4/Temp_Sensor_PM.c **** * Return:
  85:Generated_Source\PSoC4/Temp_Sensor_PM.c **** *  None
  86:Generated_Source\PSoC4/Temp_Sensor_PM.c **** *
  87:Generated_Source\PSoC4/Temp_Sensor_PM.c **** *******************************************************************************/
  88:Generated_Source\PSoC4/Temp_Sensor_PM.c **** void Temp_Sensor_RestoreConfig(void) 
  89:Generated_Source\PSoC4/Temp_Sensor_PM.c **** {
 103              		.loc 1 89 1 is_stmt 1 view -0
 104              		.cfi_startproc
 105              		@ args = 0, pretend = 0, frame = 0
 106              		@ frame_needed = 0, uses_anonymous_args = 0
 107              		@ link register save eliminated.
  90:Generated_Source\PSoC4/Temp_Sensor_PM.c **** 
  91:Generated_Source\PSoC4/Temp_Sensor_PM.c **** }
 108              		.loc 1 91 1 view .LVU15
 109              		@ sp needed
 110 0000 7047     		bx	lr
 111              		.cfi_endproc
 112              	.LFE2:
 113              		.size	Temp_Sensor_RestoreConfig, .-Temp_Sensor_RestoreConfig
 114              		.section	.text.Temp_Sensor_Wakeup,"ax",%progbits
 115              		.align	1
 116              		.global	Temp_Sensor_Wakeup
 117              		.syntax unified
 118              		.code	16
 119              		.thumb_func
 120              		.fpu softvfp
 121              		.type	Temp_Sensor_Wakeup, %function
 122              	Temp_Sensor_Wakeup:
 123              	.LFB3:
  92:Generated_Source\PSoC4/Temp_Sensor_PM.c **** 
  93:Generated_Source\PSoC4/Temp_Sensor_PM.c **** 
  94:Generated_Source\PSoC4/Temp_Sensor_PM.c **** /*******************************************************************************
  95:Generated_Source\PSoC4/Temp_Sensor_PM.c **** * Function Name: Temp_Sensor_Wakeup
  96:Generated_Source\PSoC4/Temp_Sensor_PM.c **** ********************************************************************************
  97:Generated_Source\PSoC4/Temp_Sensor_PM.c **** *
  98:Generated_Source\PSoC4/Temp_Sensor_PM.c **** * Summary:
  99:Generated_Source\PSoC4/Temp_Sensor_PM.c **** *  Restores the user configuration and restores the enable state.
 100:Generated_Source\PSoC4/Temp_Sensor_PM.c **** *
 101:Generated_Source\PSoC4/Temp_Sensor_PM.c **** * Parameters:
 102:Generated_Source\PSoC4/Temp_Sensor_PM.c **** *  None
 103:Generated_Source\PSoC4/Temp_Sensor_PM.c **** *
ARM GAS  C:\Users\EDULU~1.DES\AppData\Local\Temp\ccshEiWQ.s 			page 5


 104:Generated_Source\PSoC4/Temp_Sensor_PM.c **** * Return:
 105:Generated_Source\PSoC4/Temp_Sensor_PM.c **** *  None
 106:Generated_Source\PSoC4/Temp_Sensor_PM.c **** *
 107:Generated_Source\PSoC4/Temp_Sensor_PM.c **** *******************************************************************************/
 108:Generated_Source\PSoC4/Temp_Sensor_PM.c **** void Temp_Sensor_Wakeup(void) 
 109:Generated_Source\PSoC4/Temp_Sensor_PM.c **** {
 124              		.loc 1 109 1 view -0
 125              		.cfi_startproc
 126              		@ args = 0, pretend = 0, frame = 0
 127              		@ frame_needed = 0, uses_anonymous_args = 0
 128 0000 10B5     		push	{r4, lr}
 129              		.cfi_def_cfa_offset 8
 130              		.cfi_offset 4, -8
 131              		.cfi_offset 14, -4
 110:Generated_Source\PSoC4/Temp_Sensor_PM.c ****     Temp_Sensor_RestoreConfig();
 132              		.loc 1 110 5 view .LVU17
 111:Generated_Source\PSoC4/Temp_Sensor_PM.c **** 
 112:Generated_Source\PSoC4/Temp_Sensor_PM.c ****     if(0u != Temp_Sensor_backup.enableState)
 133              		.loc 1 112 5 view .LVU18
 134              		.loc 1 112 32 is_stmt 0 view .LVU19
 135 0002 064B     		ldr	r3, .L12
 136 0004 1B78     		ldrb	r3, [r3]
 137              		.loc 1 112 7 view .LVU20
 138 0006 002B     		cmp	r3, #0
 139 0008 04D0     		beq	.L10
 113:Generated_Source\PSoC4/Temp_Sensor_PM.c ****     {
 114:Generated_Source\PSoC4/Temp_Sensor_PM.c ****         /* Enable component's operation */
 115:Generated_Source\PSoC4/Temp_Sensor_PM.c ****         Temp_Sensor_Enable();
 140              		.loc 1 115 9 is_stmt 1 view .LVU21
 141 000a FFF7FEFF 		bl	Temp_Sensor_Enable
 142              	.LVL1:
 116:Generated_Source\PSoC4/Temp_Sensor_PM.c ****         Temp_Sensor_Trigger();
 143              		.loc 1 116 9 view .LVU22
 144 000e FFF7FEFF 		bl	Temp_Sensor_Trigger
 145              	.LVL2:
 146              	.L9:
 117:Generated_Source\PSoC4/Temp_Sensor_PM.c ****     } /* Do nothing if component's block was disabled before */
 118:Generated_Source\PSoC4/Temp_Sensor_PM.c ****     else
 119:Generated_Source\PSoC4/Temp_Sensor_PM.c ****     {
 120:Generated_Source\PSoC4/Temp_Sensor_PM.c ****         Temp_Sensor_Enable();
 121:Generated_Source\PSoC4/Temp_Sensor_PM.c ****     }
 122:Generated_Source\PSoC4/Temp_Sensor_PM.c **** }
 147              		.loc 1 122 1 is_stmt 0 view .LVU23
 148              		@ sp needed
 149 0012 10BD     		pop	{r4, pc}
 150              	.L10:
 120:Generated_Source\PSoC4/Temp_Sensor_PM.c ****     }
 151              		.loc 1 120 9 is_stmt 1 view .LVU24
 152 0014 FFF7FEFF 		bl	Temp_Sensor_Enable
 153              	.LVL3:
 154              		.loc 1 122 1 is_stmt 0 view .LVU25
 155 0018 FBE7     		b	.L9
 156              	.L13:
 157 001a C046     		.align	2
 158              	.L12:
 159 001c 00000000 		.word	.LANCHOR0
 160              		.cfi_endproc
ARM GAS  C:\Users\EDULU~1.DES\AppData\Local\Temp\ccshEiWQ.s 			page 6


 161              	.LFE3:
 162              		.size	Temp_Sensor_Wakeup, .-Temp_Sensor_Wakeup
 163              		.bss
 164              		.align	2
 165              		.set	.LANCHOR0,. + 0
 166              		.type	Temp_Sensor_backup, %object
 167              		.size	Temp_Sensor_backup, 1
 168              	Temp_Sensor_backup:
 169 0000 00       		.space	1
 170              		.text
 171              	.Letext0:
 172              		.file 2 "Generated_Source\\PSoC4\\cytypes.h"
 173              		.file 3 "c:\\program files (x86)\\gnu tools arm embedded\\8 2018-q4-major\\arm-none-eabi\\include\
 174              		.file 4 "c:\\program files (x86)\\gnu tools arm embedded\\8 2018-q4-major\\arm-none-eabi\\include\
 175              		.file 5 "c:\\program files (x86)\\gnu tools arm embedded\\8 2018-q4-major\\lib\\gcc\\arm-none-eabi
 176              		.file 6 "c:\\program files (x86)\\gnu tools arm embedded\\8 2018-q4-major\\arm-none-eabi\\include\
 177              		.file 7 "c:\\program files (x86)\\gnu tools arm embedded\\8 2018-q4-major\\arm-none-eabi\\include\
 178              		.file 8 "Generated_Source\\PSoC4\\CyLib.h"
 179              		.file 9 "Generated_Source\\PSoC4\\Temp_Sensor.h"
 180              		.file 10 "Generated_Source\\PSoC4\\Temp_Sensor_PVT.h"