ARM GAS  C:\Users\alex\AppData\Local\Temp\ccPvLLYc.s 			page 1


   1              		.syntax unified
   2              		.cpu cortex-m3
   3              		.fpu softvfp
   4              		.eabi_attribute 20, 1
   5              		.eabi_attribute 21, 1
   6              		.eabi_attribute 23, 3
   7              		.eabi_attribute 24, 1
   8              		.eabi_attribute 25, 1
   9              		.eabi_attribute 26, 1
  10              		.eabi_attribute 30, 6
  11              		.eabi_attribute 34, 1
  12              		.eabi_attribute 18, 4
  13              		.thumb
  14              		.syntax unified
  15              		.file	"main.c"
  16              		.text
  17              	.Ltext0:
  18              		.cfi_sections	.debug_frame
  19              		.syntax unified
  20              		.global _printf_float
  21              		.section	.rodata
  22              		.align	2
  23              	.LC0:
  24 0000 496E6974 		.ascii	"Initial\000"
  24      69616C00 
  25              		.align	2
  26              	.LC1:
  27 0008 56444143 		.ascii	"VDAC settings:\000"
  27      20736574 
  27      74696E67 
  27      733A00
  28 0017 00       		.align	2
  29              	.LC2:
  30 0018 433100   		.ascii	"C1\000"
  31              		.global	__aeabi_f2d
  32 001b 00       		.align	2
  33              	.LC3:
  34 001c 252B312E 		.ascii	"%+1.2f\000"
  34      326600
  35 0023 00       		.align	2
  36              	.LC4:
  37 0024 20433200 		.ascii	" C2\000"
  38              		.align	2
  39              	.LC5:
  40 0028 433300   		.ascii	"C3\000"
  41 002b 00       		.align	2
  42              	.LC6:
  43 002c 20433400 		.ascii	" C4\000"
  44              		.align	2
  45              	.LC7:
  46 0030 53746172 		.ascii	"Start\000"
  46      7400
  47 0036 0000     		.align	2
  48              	.LC8:
  49 0038 696E6372 		.ascii	"incrementing.. \000"
  49      656D656E 
  49      74696E67 
ARM GAS  C:\Users\alex\AppData\Local\Temp\ccPvLLYc.s 			page 2


  49      2E2E2000 
  50              		.thumb
  51              		.syntax unified
  52              		.section	.text.main,"ax",%progbits
  53              		.align	2
  54              		.global	main
  55              		.thumb
  56              		.thumb_func
  57              		.type	main, %function
  58              	main:
  59              	.LFB64:
  60              		.file 1 "main.c"
   1:main.c        **** /*******************************************************************************
   2:main.c        **** * File Name: main.c
   3:main.c        **** *
   4:main.c        **** * Version: 1.0
   5:main.c        **** *
   6:main.c        **** * Description:
   7:main.c        **** *  This is a source code of the example project  
   8:main.c        **** *  for PSoC 5LP ADC SAR Sequencer component.
   9:main.c        **** *
  10:main.c        **** *  Parameters used:
  11:main.c        **** *   Resolution:      12 bit
  12:main.c        **** *   Clock Frequency: 1.1 MHz
  13:main.c        **** *   Sample Mode:     Free Running
  14:main.c        **** *   Clock Source:    External
  15:main.c        **** *   Input Range:     Vssa to Vdda (Single Ended)
  16:main.c        **** *   Reference:       Internal Vref, bypassed
  17:main.c        **** *   Channels:        4
  18:main.c        **** *
  19:main.c        **** *  
  20:main.c        **** *  The project is configured to use with the 5V voltage, 
  21:main.c        **** *  therefore switch SW3 (VDD SELECT) to the 5V state. 
  22:main.c        **** *  If you want to use different input voltage, please, 
  23:main.c        **** *  change VDDA in the System Tab (.cydwr file) appropriately. 
  24:main.c        **** *  Four VDACs are used as input voltage sources for the component.
  25:main.c        **** *  Initial settings for channels (from 1 to 4) are: 0.2, 0.4, 0.6, 0.8 Volts.
  26:main.c        **** *  Actual converted initial voltages are displayed on the LCD to demonstrate 
  27:main.c        **** *  that they coincide with each VDAC initial voltage settings.
  28:main.c        **** *  VDAC APIs are used to subsequently increment each of four voltages in range 
  29:main.c        **** *  from 0 to DAC Range (4 Volts). 
  30:main.c        **** *  Converted voltages are displayed on the LCD.
  31:main.c        **** *
  32:main.c        **** ********************************************************************************/
  33:main.c        **** 
  34:main.c        **** #include <project.h>
  35:main.c        **** #include <stdio.h>
  36:main.c        **** 
  37:main.c        **** #if defined (__GNUC__)
  38:main.c        ****     /* Add an explicit reference to the floating point printf library */
  39:main.c        ****     /* to allow the usage of floating point conversion specifiers. */
  40:main.c        ****     /* This is not linked in by default with the newlib-nano library. */
  41:main.c        ****     asm (".global _printf_float");
  42:main.c        **** #endif
  43:main.c        **** 
  44:main.c        **** 
  45:main.c        **** int main()
ARM GAS  C:\Users\alex\AppData\Local\Temp\ccPvLLYc.s 			page 3


  46:main.c        **** {
  61              		.loc 1 46 0
  62              		.cfi_startproc
  63              		@ args = 0, pretend = 0, frame = 96
  64              		@ frame_needed = 1, uses_anonymous_args = 0
  65 0000 90B5     		push	{r4, r7, lr}
  66              		.cfi_def_cfa_offset 12
  67              		.cfi_offset 4, -12
  68              		.cfi_offset 7, -8
  69              		.cfi_offset 14, -4
  70 0002 99B0     		sub	sp, sp, #100
  71              		.cfi_def_cfa_offset 112
  72 0004 00AF     		add	r7, sp, #0
  73              		.cfi_def_cfa_register 7
  47:main.c        ****     /* Declaration of all required variables */
  48:main.c        ****     uint16 i = 0u;
  74              		.loc 1 48 0
  75 0006 0023     		movs	r3, #0
  76 0008 A7F85E30 		strh	r3, [r7, #94]	@ movhi
  49:main.c        ****     uint8 j = 0u;
  77              		.loc 1 49 0
  78 000c 0023     		movs	r3, #0
  79 000e 87F85D30 		strb	r3, [r7, #93]
  50:main.c        ****     uint8 k = 0u;
  80              		.loc 1 50 0
  81 0012 0023     		movs	r3, #0
  82 0014 87F85C30 		strb	r3, [r7, #92]
  51:main.c        ****     uint8 l = 0u; 
  83              		.loc 1 51 0
  84 0018 0023     		movs	r3, #0
  85 001a 87F85B30 		strb	r3, [r7, #91]
  52:main.c        ****     uint8 count = 0u;
  86              		.loc 1 52 0
  87 001e 0023     		movs	r3, #0
  88 0020 87F85A30 		strb	r3, [r7, #90]
  53:main.c        ****     uint8 flag = 0u;
  89              		.loc 1 53 0
  90 0024 0023     		movs	r3, #0
  91 0026 87F85930 		strb	r3, [r7, #89]
  54:main.c        ****     int16 result1 = 0u;
  92              		.loc 1 54 0
  93 002a 0023     		movs	r3, #0
  94 002c A7F85630 		strh	r3, [r7, #86]	@ movhi
  55:main.c        ****     int16 result2 = 0u;
  95              		.loc 1 55 0
  96 0030 0023     		movs	r3, #0
  97 0032 A7F85430 		strh	r3, [r7, #84]	@ movhi
  56:main.c        ****     int16 result3 = 0u;
  98              		.loc 1 56 0
  99 0036 0023     		movs	r3, #0
 100 0038 A7F85230 		strh	r3, [r7, #82]	@ movhi
  57:main.c        ****     int16 result4 = 0u;
 101              		.loc 1 57 0
 102 003c 0023     		movs	r3, #0
 103 003e A7F85030 		strh	r3, [r7, #80]	@ movhi
  58:main.c        ****     float res1 = 0u;
 104              		.loc 1 58 0
ARM GAS  C:\Users\alex\AppData\Local\Temp\ccPvLLYc.s 			page 4


 105 0042 4FF00003 		mov	r3, #0
 106 0046 FB64     		str	r3, [r7, #76]	@ float
  59:main.c        ****     float res2 = 0u;
 107              		.loc 1 59 0
 108 0048 4FF00003 		mov	r3, #0
 109 004c BB64     		str	r3, [r7, #72]	@ float
  60:main.c        ****     float res3 = 0u;
 110              		.loc 1 60 0
 111 004e 4FF00003 		mov	r3, #0
 112 0052 7B64     		str	r3, [r7, #68]	@ float
  61:main.c        ****     float res4 = 0u;
 113              		.loc 1 61 0
 114 0054 4FF00003 		mov	r3, #0
 115 0058 3B64     		str	r3, [r7, #64]	@ float
  62:main.c        ****     char8 resultStr1[16u];
  63:main.c        ****     char8 resultStr2[16u];
  64:main.c        ****     char8 resultStr3[16u];
  65:main.c        ****     char8 resultStr4[16u];
  66:main.c        ****     
  67:main.c        ****     /* Start of all components */
  68:main.c        ****     LCD_Start();
 116              		.loc 1 68 0
 117 005a FFF7FEFF 		bl	LCD_Start
  69:main.c        ****     LCD_ClearDisplay();
 118              		.loc 1 69 0
 119 005e 0120     		movs	r0, #1
 120 0060 FFF7FEFF 		bl	LCD_WriteControl
  70:main.c        ****     VDAC8_1_Start();
 121              		.loc 1 70 0
 122 0064 FFF7FEFF 		bl	VDAC8_1_Start
  71:main.c        ****     VDAC8_2_Start();
 123              		.loc 1 71 0
 124 0068 FFF7FEFF 		bl	VDAC8_2_Start
  72:main.c        ****     VDAC8_3_Start();
 125              		.loc 1 72 0
 126 006c FFF7FEFF 		bl	VDAC8_3_Start
  73:main.c        ****     VDAC8_4_Start();
 127              		.loc 1 73 0
 128 0070 FFF7FEFF 		bl	VDAC8_4_Start
  74:main.c        ****     ADC_SAR_Seq_Start();
 129              		.loc 1 74 0
 130 0074 FFF7FEFF 		bl	ADC_SAR_Seq_Start
  75:main.c        ****     
  76:main.c        ****     /* StartConvert() must be called to initiate 
  77:main.c        ****        conversion in Free Running Mode
  78:main.c        ****     */
  79:main.c        ****     ADC_SAR_Seq_StartConvert();
 131              		.loc 1 79 0
 132 0078 FFF7FEFF 		bl	ADC_SAR_Seq_StartConvert
 133              	.L11:
  80:main.c        **** 
  81:main.c        ****     
  82:main.c        ****     for(;;)
  83:main.c        ****     {   
  84:main.c        ****         /* Display initial VDAC voltages */
  85:main.c        ****         if(flag == 0u)
 134              		.loc 1 85 0
ARM GAS  C:\Users\alex\AppData\Local\Temp\ccPvLLYc.s 			page 5


 135 007c 97F85930 		ldrb	r3, [r7, #89]	@ zero_extendqisi2
 136 0080 002B     		cmp	r3, #0
 137 0082 40F0BA80 		bne	.L2
  86:main.c        ****         {
  87:main.c        ****             LCD_Position(0u,0u);
 138              		.loc 1 87 0
 139 0086 0021     		movs	r1, #0
 140 0088 0020     		movs	r0, #0
 141 008a FFF7FEFF 		bl	LCD_Position
  88:main.c        ****             LCD_PrintString("Initial");
 142              		.loc 1 88 0
 143 008e D548     		ldr	r0, .L12
 144 0090 FFF7FEFF 		bl	LCD_PrintString
  89:main.c        ****             LCD_Position(1u,0u);
 145              		.loc 1 89 0
 146 0094 0021     		movs	r1, #0
 147 0096 0120     		movs	r0, #1
 148 0098 FFF7FEFF 		bl	LCD_Position
  90:main.c        ****             LCD_PrintString("VDAC settings:");
 149              		.loc 1 90 0
 150 009c D248     		ldr	r0, .L12+4
 151 009e FFF7FEFF 		bl	LCD_PrintString
  91:main.c        ****             ADC_SAR_Seq_IsEndConversion(ADC_SAR_Seq_WAIT_FOR_RESULT);
 152              		.loc 1 91 0
 153 00a2 0020     		movs	r0, #0
 154 00a4 FFF7FEFF 		bl	ADC_SAR_Seq_IsEndConversion
  92:main.c        ****             result1 = ADC_SAR_Seq_GetResult16(0u);
 155              		.loc 1 92 0
 156 00a8 0020     		movs	r0, #0
 157 00aa FFF7FEFF 		bl	ADC_SAR_Seq_GetResult16
 158 00ae 0346     		mov	r3, r0
 159 00b0 A7F85630 		strh	r3, [r7, #86]	@ movhi
  93:main.c        ****             result2 = ADC_SAR_Seq_GetResult16(1u);
 160              		.loc 1 93 0
 161 00b4 0120     		movs	r0, #1
 162 00b6 FFF7FEFF 		bl	ADC_SAR_Seq_GetResult16
 163 00ba 0346     		mov	r3, r0
 164 00bc A7F85430 		strh	r3, [r7, #84]	@ movhi
  94:main.c        ****             result3 = ADC_SAR_Seq_GetResult16(2u);
 165              		.loc 1 94 0
 166 00c0 0220     		movs	r0, #2
 167 00c2 FFF7FEFF 		bl	ADC_SAR_Seq_GetResult16
 168 00c6 0346     		mov	r3, r0
 169 00c8 A7F85230 		strh	r3, [r7, #82]	@ movhi
  95:main.c        ****             result4 = ADC_SAR_Seq_GetResult16(3u);
 170              		.loc 1 95 0
 171 00cc 0320     		movs	r0, #3
 172 00ce FFF7FEFF 		bl	ADC_SAR_Seq_GetResult16
 173 00d2 0346     		mov	r3, r0
 174 00d4 A7F85030 		strh	r3, [r7, #80]	@ movhi
  96:main.c        ****             
  97:main.c        ****             res1 = ADC_SAR_Seq_CountsTo_Volts(result1);
 175              		.loc 1 97 0
 176 00d8 B7F95630 		ldrsh	r3, [r7, #86]
 177 00dc 1846     		mov	r0, r3
 178 00de FFF7FEFF 		bl	ADC_SAR_Seq_CountsTo_Volts
 179 00e2 F864     		str	r0, [r7, #76]	@ float
ARM GAS  C:\Users\alex\AppData\Local\Temp\ccPvLLYc.s 			page 6


  98:main.c        ****             res2 = ADC_SAR_Seq_CountsTo_Volts(result2);
 180              		.loc 1 98 0
 181 00e4 B7F95430 		ldrsh	r3, [r7, #84]
 182 00e8 1846     		mov	r0, r3
 183 00ea FFF7FEFF 		bl	ADC_SAR_Seq_CountsTo_Volts
 184 00ee B864     		str	r0, [r7, #72]	@ float
  99:main.c        ****             res3 = ADC_SAR_Seq_CountsTo_Volts(result3);
 185              		.loc 1 99 0
 186 00f0 B7F95230 		ldrsh	r3, [r7, #82]
 187 00f4 1846     		mov	r0, r3
 188 00f6 FFF7FEFF 		bl	ADC_SAR_Seq_CountsTo_Volts
 189 00fa 7864     		str	r0, [r7, #68]	@ float
 100:main.c        ****             res4 = ADC_SAR_Seq_CountsTo_Volts(result4);
 190              		.loc 1 100 0
 191 00fc B7F95030 		ldrsh	r3, [r7, #80]
 192 0100 1846     		mov	r0, r3
 193 0102 FFF7FEFF 		bl	ADC_SAR_Seq_CountsTo_Volts
 194 0106 3864     		str	r0, [r7, #64]	@ float
 101:main.c        ****             
 102:main.c        ****             CyDelay(2500u);
 195              		.loc 1 102 0
 196 0108 40F6C410 		movw	r0, #2500
 197 010c FFF7FEFF 		bl	CyDelay
 103:main.c        ****             LCD_ClearDisplay();
 198              		.loc 1 103 0
 199 0110 0120     		movs	r0, #1
 200 0112 FFF7FEFF 		bl	LCD_WriteControl
 104:main.c        ****             LCD_Position(0u,0u); 
 201              		.loc 1 104 0
 202 0116 0021     		movs	r1, #0
 203 0118 0020     		movs	r0, #0
 204 011a FFF7FEFF 		bl	LCD_Position
 105:main.c        ****             LCD_PrintString("C1");
 205              		.loc 1 105 0
 206 011e B348     		ldr	r0, .L12+8
 207 0120 FFF7FEFF 		bl	LCD_PrintString
 106:main.c        ****             sprintf((char *)resultStr1,"%+1.2f",res1);
 208              		.loc 1 106 0
 209 0124 F86C     		ldr	r0, [r7, #76]	@ float
 210 0126 FFF7FEFF 		bl	__aeabi_f2d
 211 012a 0346     		mov	r3, r0
 212 012c 0C46     		mov	r4, r1
 213 012e 07F13000 		add	r0, r7, #48
 214 0132 1A46     		mov	r2, r3
 215 0134 2346     		mov	r3, r4
 216 0136 AE49     		ldr	r1, .L12+12
 217 0138 FFF7FEFF 		bl	sprintf
 107:main.c        ****             LCD_PrintString(resultStr1);
 218              		.loc 1 107 0
 219 013c 07F13003 		add	r3, r7, #48
 220 0140 1846     		mov	r0, r3
 221 0142 FFF7FEFF 		bl	LCD_PrintString
 108:main.c        ****         
 109:main.c        ****             LCD_PrintString(" C2");
 222              		.loc 1 109 0
 223 0146 AB48     		ldr	r0, .L12+16
 224 0148 FFF7FEFF 		bl	LCD_PrintString
ARM GAS  C:\Users\alex\AppData\Local\Temp\ccPvLLYc.s 			page 7


 110:main.c        ****             sprintf((char *)resultStr2,"%+1.2f",res2);
 225              		.loc 1 110 0
 226 014c B86C     		ldr	r0, [r7, #72]	@ float
 227 014e FFF7FEFF 		bl	__aeabi_f2d
 228 0152 0346     		mov	r3, r0
 229 0154 0C46     		mov	r4, r1
 230 0156 07F12000 		add	r0, r7, #32
 231 015a 1A46     		mov	r2, r3
 232 015c 2346     		mov	r3, r4
 233 015e A449     		ldr	r1, .L12+12
 234 0160 FFF7FEFF 		bl	sprintf
 111:main.c        ****             LCD_PrintString(resultStr2);
 235              		.loc 1 111 0
 236 0164 07F12003 		add	r3, r7, #32
 237 0168 1846     		mov	r0, r3
 238 016a FFF7FEFF 		bl	LCD_PrintString
 112:main.c        ****             
 113:main.c        ****             LCD_Position(1u,0u); 
 239              		.loc 1 113 0
 240 016e 0021     		movs	r1, #0
 241 0170 0120     		movs	r0, #1
 242 0172 FFF7FEFF 		bl	LCD_Position
 114:main.c        ****             LCD_PrintString("C3");
 243              		.loc 1 114 0
 244 0176 A048     		ldr	r0, .L12+20
 245 0178 FFF7FEFF 		bl	LCD_PrintString
 115:main.c        ****             sprintf((char *)resultStr3,"%+1.2f",res3);
 246              		.loc 1 115 0
 247 017c 786C     		ldr	r0, [r7, #68]	@ float
 248 017e FFF7FEFF 		bl	__aeabi_f2d
 249 0182 0346     		mov	r3, r0
 250 0184 0C46     		mov	r4, r1
 251 0186 07F11000 		add	r0, r7, #16
 252 018a 1A46     		mov	r2, r3
 253 018c 2346     		mov	r3, r4
 254 018e 9849     		ldr	r1, .L12+12
 255 0190 FFF7FEFF 		bl	sprintf
 116:main.c        ****             LCD_PrintString(resultStr3);
 256              		.loc 1 116 0
 257 0194 07F11003 		add	r3, r7, #16
 258 0198 1846     		mov	r0, r3
 259 019a FFF7FEFF 		bl	LCD_PrintString
 117:main.c        ****         
 118:main.c        ****             LCD_PrintString(" C4");
 260              		.loc 1 118 0
 261 019e 9748     		ldr	r0, .L12+24
 262 01a0 FFF7FEFF 		bl	LCD_PrintString
 119:main.c        ****             sprintf((char *)resultStr4,"%+1.2f",res4);
 263              		.loc 1 119 0
 264 01a4 386C     		ldr	r0, [r7, #64]	@ float
 265 01a6 FFF7FEFF 		bl	__aeabi_f2d
 266 01aa 0346     		mov	r3, r0
 267 01ac 0C46     		mov	r4, r1
 268 01ae 3846     		mov	r0, r7
 269 01b0 1A46     		mov	r2, r3
 270 01b2 2346     		mov	r3, r4
 271 01b4 8E49     		ldr	r1, .L12+12
ARM GAS  C:\Users\alex\AppData\Local\Temp\ccPvLLYc.s 			page 8


 272 01b6 FFF7FEFF 		bl	sprintf
 120:main.c        ****             LCD_PrintString(resultStr4);
 273              		.loc 1 120 0
 274 01ba 3B46     		mov	r3, r7
 275 01bc 1846     		mov	r0, r3
 276 01be FFF7FEFF 		bl	LCD_PrintString
 121:main.c        ****             CyDelay(10000u);
 277              		.loc 1 121 0
 278 01c2 42F21070 		movw	r0, #10000
 279 01c6 FFF7FEFF 		bl	CyDelay
 122:main.c        ****             flag = 1u;
 280              		.loc 1 122 0
 281 01ca 0123     		movs	r3, #1
 282 01cc 87F85930 		strb	r3, [r7, #89]
 123:main.c        ****             LCD_ClearDisplay();
 283              		.loc 1 123 0
 284 01d0 0120     		movs	r0, #1
 285 01d2 FFF7FEFF 		bl	LCD_WriteControl
 124:main.c        ****             LCD_Position(0u,0u);
 286              		.loc 1 124 0
 287 01d6 0021     		movs	r1, #0
 288 01d8 0020     		movs	r0, #0
 289 01da FFF7FEFF 		bl	LCD_Position
 125:main.c        ****             LCD_PrintString("Start");
 290              		.loc 1 125 0
 291 01de 8848     		ldr	r0, .L12+28
 292 01e0 FFF7FEFF 		bl	LCD_PrintString
 126:main.c        ****             LCD_Position(1u,0u);
 293              		.loc 1 126 0
 294 01e4 0021     		movs	r1, #0
 295 01e6 0120     		movs	r0, #1
 296 01e8 FFF7FEFF 		bl	LCD_Position
 127:main.c        ****             LCD_PrintString("incrementing.. ");
 297              		.loc 1 127 0
 298 01ec 8548     		ldr	r0, .L12+32
 299 01ee FFF7FEFF 		bl	LCD_PrintString
 128:main.c        ****             CyDelay(2000u);
 300              		.loc 1 128 0
 301 01f2 4FF4FA60 		mov	r0, #2000
 302 01f6 FFF7FEFF 		bl	CyDelay
 303              	.L2:
 129:main.c        ****             
 130:main.c        ****         }
 131:main.c        ****     
 132:main.c        ****         /* Start subsequent voltage incrementing for each channel */
 133:main.c        ****         if(count < 20u)
 304              		.loc 1 133 0
 305 01fa 97F85A30 		ldrb	r3, [r7, #90]	@ zero_extendqisi2
 306 01fe 132B     		cmp	r3, #19
 307 0200 12D8     		bhi	.L3
 134:main.c        ****         {
 135:main.c        ****             VDAC8_1_SetValue(i);
 308              		.loc 1 135 0
 309 0202 B7F85E30 		ldrh	r3, [r7, #94]	@ movhi
 310 0206 DBB2     		uxtb	r3, r3
 311 0208 1846     		mov	r0, r3
 312 020a FFF7FEFF 		bl	VDAC8_1_SetValue
ARM GAS  C:\Users\alex\AppData\Local\Temp\ccPvLLYc.s 			page 9


 136:main.c        ****             i += 10u;
 313              		.loc 1 136 0
 314 020e B7F85E30 		ldrh	r3, [r7, #94]	@ movhi
 315 0212 0A33     		adds	r3, r3, #10
 316 0214 A7F85E30 		strh	r3, [r7, #94]	@ movhi
 137:main.c        ****             if(i > 255u)
 317              		.loc 1 137 0
 318 0218 B7F85E30 		ldrh	r3, [r7, #94]
 319 021c FF2B     		cmp	r3, #255
 320 021e 50D9     		bls	.L5
 138:main.c        ****             i = 0u;
 321              		.loc 1 138 0
 322 0220 0023     		movs	r3, #0
 323 0222 A7F85E30 		strh	r3, [r7, #94]	@ movhi
 324 0226 4CE0     		b	.L5
 325              	.L3:
 139:main.c        ****          }
 140:main.c        ****         else if((count > 20u) && (count < 40u))
 326              		.loc 1 140 0
 327 0228 97F85A30 		ldrb	r3, [r7, #90]	@ zero_extendqisi2
 328 022c 142B     		cmp	r3, #20
 329 022e 15D9     		bls	.L6
 330              		.loc 1 140 0 is_stmt 0 discriminator 1
 331 0230 97F85A30 		ldrb	r3, [r7, #90]	@ zero_extendqisi2
 332 0234 272B     		cmp	r3, #39
 333 0236 11D8     		bhi	.L6
 141:main.c        ****         {
 142:main.c        ****             VDAC8_2_SetValue(j);
 334              		.loc 1 142 0 is_stmt 1
 335 0238 97F85D30 		ldrb	r3, [r7, #93]	@ zero_extendqisi2
 336 023c 1846     		mov	r0, r3
 337 023e FFF7FEFF 		bl	VDAC8_2_SetValue
 143:main.c        ****             j += 10u;
 338              		.loc 1 143 0
 339 0242 97F85D30 		ldrb	r3, [r7, #93]
 340 0246 0A33     		adds	r3, r3, #10
 341 0248 87F85D30 		strb	r3, [r7, #93]
 144:main.c        ****             if(i > 255u)
 342              		.loc 1 144 0
 343 024c B7F85E30 		ldrh	r3, [r7, #94]
 344 0250 FF2B     		cmp	r3, #255
 345 0252 36D9     		bls	.L5
 145:main.c        ****             j = 0u;
 346              		.loc 1 145 0
 347 0254 0023     		movs	r3, #0
 348 0256 87F85D30 		strb	r3, [r7, #93]
 144:main.c        ****             if(i > 255u)
 349              		.loc 1 144 0
 350 025a 32E0     		b	.L5
 351              	.L6:
 146:main.c        ****         }
 147:main.c        ****         else if((count > 40u) && (count < 60u))
 352              		.loc 1 147 0
 353 025c 97F85A30 		ldrb	r3, [r7, #90]	@ zero_extendqisi2
 354 0260 282B     		cmp	r3, #40
 355 0262 15D9     		bls	.L8
 356              		.loc 1 147 0 is_stmt 0 discriminator 1
ARM GAS  C:\Users\alex\AppData\Local\Temp\ccPvLLYc.s 			page 10


 357 0264 97F85A30 		ldrb	r3, [r7, #90]	@ zero_extendqisi2
 358 0268 3B2B     		cmp	r3, #59
 359 026a 11D8     		bhi	.L8
 148:main.c        ****         {
 149:main.c        ****             VDAC8_3_SetValue(k);
 360              		.loc 1 149 0 is_stmt 1
 361 026c 97F85C30 		ldrb	r3, [r7, #92]	@ zero_extendqisi2
 362 0270 1846     		mov	r0, r3
 363 0272 FFF7FEFF 		bl	VDAC8_3_SetValue
 150:main.c        ****             k += 10u;
 364              		.loc 1 150 0
 365 0276 97F85C30 		ldrb	r3, [r7, #92]
 366 027a 0A33     		adds	r3, r3, #10
 367 027c 87F85C30 		strb	r3, [r7, #92]
 151:main.c        ****             if(i > 255u)
 368              		.loc 1 151 0
 369 0280 B7F85E30 		ldrh	r3, [r7, #94]
 370 0284 FF2B     		cmp	r3, #255
 371 0286 1CD9     		bls	.L5
 152:main.c        ****             k = 0u;
 372              		.loc 1 152 0
 373 0288 0023     		movs	r3, #0
 374 028a 87F85C30 		strb	r3, [r7, #92]
 151:main.c        ****             if(i > 255u)
 375              		.loc 1 151 0
 376 028e 18E0     		b	.L5
 377              	.L8:
 153:main.c        ****         }
 154:main.c        ****         
 155:main.c        ****         else if((count > 60u) && (count < 80u))
 378              		.loc 1 155 0
 379 0290 97F85A30 		ldrb	r3, [r7, #90]	@ zero_extendqisi2
 380 0294 3C2B     		cmp	r3, #60
 381 0296 14D9     		bls	.L5
 382              		.loc 1 155 0 is_stmt 0 discriminator 1
 383 0298 97F85A30 		ldrb	r3, [r7, #90]	@ zero_extendqisi2
 384 029c 4F2B     		cmp	r3, #79
 385 029e 10D8     		bhi	.L5
 156:main.c        ****         {
 157:main.c        ****             VDAC8_4_SetValue(l);
 386              		.loc 1 157 0 is_stmt 1
 387 02a0 97F85B30 		ldrb	r3, [r7, #91]	@ zero_extendqisi2
 388 02a4 1846     		mov	r0, r3
 389 02a6 FFF7FEFF 		bl	VDAC8_4_SetValue
 158:main.c        ****             l += 10u;
 390              		.loc 1 158 0
 391 02aa 97F85B30 		ldrb	r3, [r7, #91]
 392 02ae 0A33     		adds	r3, r3, #10
 393 02b0 87F85B30 		strb	r3, [r7, #91]
 159:main.c        ****             if(i > 255u)
 394              		.loc 1 159 0
 395 02b4 B7F85E30 		ldrh	r3, [r7, #94]
 396 02b8 FF2B     		cmp	r3, #255
 397 02ba 02D9     		bls	.L5
 160:main.c        ****             l = 0u;
 398              		.loc 1 160 0
 399 02bc 0023     		movs	r3, #0
ARM GAS  C:\Users\alex\AppData\Local\Temp\ccPvLLYc.s 			page 11


 400 02be 87F85B30 		strb	r3, [r7, #91]
 401              	.L5:
 161:main.c        ****         }
 162:main.c        ****         
 163:main.c        ****         count += 1u;
 402              		.loc 1 163 0
 403 02c2 97F85A30 		ldrb	r3, [r7, #90]
 404 02c6 0133     		adds	r3, r3, #1
 405 02c8 87F85A30 		strb	r3, [r7, #90]
 164:main.c        ****         if(count > 80u)
 406              		.loc 1 164 0
 407 02cc 97F85A30 		ldrb	r3, [r7, #90]	@ zero_extendqisi2
 408 02d0 502B     		cmp	r3, #80
 409 02d2 02D9     		bls	.L10
 165:main.c        ****         count = 0u;
 410              		.loc 1 165 0
 411 02d4 0023     		movs	r3, #0
 412 02d6 87F85A30 		strb	r3, [r7, #90]
 413              	.L10:
 166:main.c        ****         
 167:main.c        ****         CyDelay(200u); 
 414              		.loc 1 167 0
 415 02da C820     		movs	r0, #200
 416 02dc FFF7FEFF 		bl	CyDelay
 168:main.c        ****         result1 = ADC_SAR_Seq_finalArray[0u];
 417              		.loc 1 168 0
 418 02e0 494B     		ldr	r3, .L12+36
 419 02e2 1B88     		ldrh	r3, [r3]	@ movhi
 420 02e4 A7F85630 		strh	r3, [r7, #86]	@ movhi
 169:main.c        ****         result2 = ADC_SAR_Seq_finalArray[1u];
 421              		.loc 1 169 0
 422 02e8 474B     		ldr	r3, .L12+36
 423 02ea 5B88     		ldrh	r3, [r3, #2]	@ movhi
 424 02ec A7F85430 		strh	r3, [r7, #84]	@ movhi
 170:main.c        ****         result3 = ADC_SAR_Seq_finalArray[2u];
 425              		.loc 1 170 0
 426 02f0 454B     		ldr	r3, .L12+36
 427 02f2 9B88     		ldrh	r3, [r3, #4]	@ movhi
 428 02f4 A7F85230 		strh	r3, [r7, #82]	@ movhi
 171:main.c        ****         result4 = ADC_SAR_Seq_finalArray[3u];
 429              		.loc 1 171 0
 430 02f8 434B     		ldr	r3, .L12+36
 431 02fa DB88     		ldrh	r3, [r3, #6]	@ movhi
 432 02fc A7F85030 		strh	r3, [r7, #80]	@ movhi
 172:main.c        ****         
 173:main.c        ****         res1 = ADC_SAR_Seq_CountsTo_Volts(result1);
 433              		.loc 1 173 0
 434 0300 B7F95630 		ldrsh	r3, [r7, #86]
 435 0304 1846     		mov	r0, r3
 436 0306 FFF7FEFF 		bl	ADC_SAR_Seq_CountsTo_Volts
 437 030a F864     		str	r0, [r7, #76]	@ float
 174:main.c        ****         res2 = ADC_SAR_Seq_CountsTo_Volts(result2);
 438              		.loc 1 174 0
 439 030c B7F95430 		ldrsh	r3, [r7, #84]
 440 0310 1846     		mov	r0, r3
 441 0312 FFF7FEFF 		bl	ADC_SAR_Seq_CountsTo_Volts
 442 0316 B864     		str	r0, [r7, #72]	@ float
ARM GAS  C:\Users\alex\AppData\Local\Temp\ccPvLLYc.s 			page 12


 175:main.c        ****         res3 = ADC_SAR_Seq_CountsTo_Volts(result3);
 443              		.loc 1 175 0
 444 0318 B7F95230 		ldrsh	r3, [r7, #82]
 445 031c 1846     		mov	r0, r3
 446 031e FFF7FEFF 		bl	ADC_SAR_Seq_CountsTo_Volts
 447 0322 7864     		str	r0, [r7, #68]	@ float
 176:main.c        ****         res4 = ADC_SAR_Seq_CountsTo_Volts(result4);
 448              		.loc 1 176 0
 449 0324 B7F95030 		ldrsh	r3, [r7, #80]
 450 0328 1846     		mov	r0, r3
 451 032a FFF7FEFF 		bl	ADC_SAR_Seq_CountsTo_Volts
 452 032e 3864     		str	r0, [r7, #64]	@ float
 177:main.c        ****         
 178:main.c        ****         LCD_ClearDisplay();
 453              		.loc 1 178 0
 454 0330 0120     		movs	r0, #1
 455 0332 FFF7FEFF 		bl	LCD_WriteControl
 179:main.c        ****         LCD_Position(0u,0u); 
 456              		.loc 1 179 0
 457 0336 0021     		movs	r1, #0
 458 0338 0020     		movs	r0, #0
 459 033a FFF7FEFF 		bl	LCD_Position
 180:main.c        ****         LCD_PrintString("C1");
 460              		.loc 1 180 0
 461 033e 2B48     		ldr	r0, .L12+8
 462 0340 FFF7FEFF 		bl	LCD_PrintString
 181:main.c        ****         sprintf((char *)resultStr1,"%+1.2f",res4);
 463              		.loc 1 181 0
 464 0344 386C     		ldr	r0, [r7, #64]	@ float
 465 0346 FFF7FEFF 		bl	__aeabi_f2d
 466 034a 0346     		mov	r3, r0
 467 034c 0C46     		mov	r4, r1
 468 034e 07F13000 		add	r0, r7, #48
 469 0352 1A46     		mov	r2, r3
 470 0354 2346     		mov	r3, r4
 471 0356 2649     		ldr	r1, .L12+12
 472 0358 FFF7FEFF 		bl	sprintf
 182:main.c        ****         LCD_PrintString(resultStr1);
 473              		.loc 1 182 0
 474 035c 07F13003 		add	r3, r7, #48
 475 0360 1846     		mov	r0, r3
 476 0362 FFF7FEFF 		bl	LCD_PrintString
 183:main.c        ****     
 184:main.c        ****         LCD_PrintString(" C2");
 477              		.loc 1 184 0
 478 0366 2348     		ldr	r0, .L12+16
 479 0368 FFF7FEFF 		bl	LCD_PrintString
 185:main.c        ****         sprintf((char *)resultStr2,"%+1.2f",res3);
 480              		.loc 1 185 0
 481 036c 786C     		ldr	r0, [r7, #68]	@ float
 482 036e FFF7FEFF 		bl	__aeabi_f2d
 483 0372 0346     		mov	r3, r0
 484 0374 0C46     		mov	r4, r1
 485 0376 07F12000 		add	r0, r7, #32
 486 037a 1A46     		mov	r2, r3
 487 037c 2346     		mov	r3, r4
 488 037e 1C49     		ldr	r1, .L12+12
ARM GAS  C:\Users\alex\AppData\Local\Temp\ccPvLLYc.s 			page 13


 489 0380 FFF7FEFF 		bl	sprintf
 186:main.c        ****         LCD_PrintString(resultStr2);
 490              		.loc 1 186 0
 491 0384 07F12003 		add	r3, r7, #32
 492 0388 1846     		mov	r0, r3
 493 038a FFF7FEFF 		bl	LCD_PrintString
 187:main.c        ****         
 188:main.c        ****         LCD_Position(1u,0u); 
 494              		.loc 1 188 0
 495 038e 0021     		movs	r1, #0
 496 0390 0120     		movs	r0, #1
 497 0392 FFF7FEFF 		bl	LCD_Position
 189:main.c        ****         LCD_PrintString("C3");
 498              		.loc 1 189 0
 499 0396 1848     		ldr	r0, .L12+20
 500 0398 FFF7FEFF 		bl	LCD_PrintString
 190:main.c        ****         sprintf((char *)resultStr3,"%+1.2f",res2);
 501              		.loc 1 190 0
 502 039c B86C     		ldr	r0, [r7, #72]	@ float
 503 039e FFF7FEFF 		bl	__aeabi_f2d
 504 03a2 0346     		mov	r3, r0
 505 03a4 0C46     		mov	r4, r1
 506 03a6 07F11000 		add	r0, r7, #16
 507 03aa 1A46     		mov	r2, r3
 508 03ac 2346     		mov	r3, r4
 509 03ae 1049     		ldr	r1, .L12+12
 510 03b0 FFF7FEFF 		bl	sprintf
 191:main.c        ****         LCD_PrintString(resultStr3);
 511              		.loc 1 191 0
 512 03b4 07F11003 		add	r3, r7, #16
 513 03b8 1846     		mov	r0, r3
 514 03ba FFF7FEFF 		bl	LCD_PrintString
 192:main.c        ****     
 193:main.c        ****         LCD_PrintString(" C4");
 515              		.loc 1 193 0
 516 03be 0F48     		ldr	r0, .L12+24
 517 03c0 FFF7FEFF 		bl	LCD_PrintString
 194:main.c        ****         sprintf((char *)resultStr4,"%+1.2f",res1);
 518              		.loc 1 194 0
 519 03c4 F86C     		ldr	r0, [r7, #76]	@ float
 520 03c6 FFF7FEFF 		bl	__aeabi_f2d
 521 03ca 0346     		mov	r3, r0
 522 03cc 0C46     		mov	r4, r1
 523 03ce 3846     		mov	r0, r7
 524 03d0 1A46     		mov	r2, r3
 525 03d2 2346     		mov	r3, r4
 526 03d4 0649     		ldr	r1, .L12+12
 527 03d6 FFF7FEFF 		bl	sprintf
 195:main.c        ****         LCD_PrintString(resultStr4);
 528              		.loc 1 195 0
 529 03da 3B46     		mov	r3, r7
 530 03dc 1846     		mov	r0, r3
 531 03de FFF7FEFF 		bl	LCD_PrintString
 196:main.c        ****     }
 532              		.loc 1 196 0
 533 03e2 4BE6     		b	.L11
 534              	.L13:
ARM GAS  C:\Users\alex\AppData\Local\Temp\ccPvLLYc.s 			page 14


 535              		.align	2
 536              	.L12:
 537 03e4 00000000 		.word	.LC0
 538 03e8 08000000 		.word	.LC1
 539 03ec 18000000 		.word	.LC2
 540 03f0 1C000000 		.word	.LC3
 541 03f4 24000000 		.word	.LC4
 542 03f8 28000000 		.word	.LC5
 543 03fc 2C000000 		.word	.LC6
 544 0400 30000000 		.word	.LC7
 545 0404 38000000 		.word	.LC8
 546 0408 00000000 		.word	ADC_SAR_Seq_finalArray
 547              		.cfi_endproc
 548              	.LFE64:
 549              		.size	main, .-main
 550              		.text
 551              	.Letext0:
 552              		.file 2 "c:\\program files (x86)\\cypress\\psoc creator\\4.4\\psoc creator\\import\\gnu\\arm\\5.4.
 553              		.file 3 "c:\\program files (x86)\\cypress\\psoc creator\\4.4\\psoc creator\\import\\gnu\\arm\\5.4.
 554              		.file 4 "Generated_Source\\PSoC5/cytypes.h"
 555              		.file 5 "Generated_Source\\PSoC5/ADC_SAR_Seq.h"
 556              		.file 6 "Generated_Source\\PSoC5/core_cm3.h"