ARM GAS  C:\Users\daniel01\AppData\Local\Temp\ccCYjebD.s 			page 1


   1              		.syntax unified
   2              		.cpu cortex-m3
   3              		.fpu softvfp
   4              		.eabi_attribute 20, 1
   5              		.eabi_attribute 21, 1
   6              		.eabi_attribute 23, 3
   7              		.eabi_attribute 24, 1
   8              		.eabi_attribute 25, 1
   9              		.eabi_attribute 26, 1
  10              		.eabi_attribute 30, 6
  11              		.eabi_attribute 18, 4
  12              		.thumb
  13              		.file	"bsp.c"
  20 0000 4E010000 		.text
  20      02009100 
  20      00000201 
  20      FB0E0D00 
  20      01010101 
  21              	.Ltext0:
  22              		.cfi_sections	.debug_frame
  23              		.comm	LED_REG_VAL,1,1
  24              		.section	.text.BSP_PreInit,"ax",%progbits
  25              		.align	2
  26              		.global	BSP_PreInit
  27              		.thumb
  28              		.thumb_func
  29              		.type	BSP_PreInit, %function
  30              	BSP_PreInit:
  31              	.LFB0:
  32              		.file 1 "..\\..\\BSP\\bsp.c"
   1:..\..\BSP/bsp.c **** /*
   2:..\..\BSP/bsp.c **** ***************************************************************************************************
   3:..\..\BSP/bsp.c **** *                                     MICIRUM BOARD SUPPORT PACKAGE
   4:..\..\BSP/bsp.c **** *
   5:..\..\BSP/bsp.c **** *                             (c) Copyright 2012; Micrium, Inc.; Weston, FL
   6:..\..\BSP/bsp.c **** *
   7:..\..\BSP/bsp.c **** *               All rights reserved.  Protected by international copyright laws.
   8:..\..\BSP/bsp.c **** *               Knowledge of the source code may NOT be used to develop a similar product.
   9:..\..\BSP/bsp.c **** *               Please help us continue to provide the Embedded community with the finest
  10:..\..\BSP/bsp.c **** *               software available.  Your honesty is greatly appreciated.
  11:..\..\BSP/bsp.c **** ***************************************************************************************************
  12:..\..\BSP/bsp.c **** */
  13:..\..\BSP/bsp.c **** 
  14:..\..\BSP/bsp.c **** /*
  15:..\..\BSP/bsp.c **** ***************************************************************************************************
  16:..\..\BSP/bsp.c **** *
  17:..\..\BSP/bsp.c **** *                                        BOARD SUPPORT PACKAGE
  18:..\..\BSP/bsp.c **** *
  19:..\..\BSP/bsp.c **** *                                           CYPRESS PSoC5
  20:..\..\BSP/bsp.c **** *                                              with the
  21:..\..\BSP/bsp.c **** *                                     CY8CKIT-050 Development Kit
ARM GAS  C:\Users\daniel01\AppData\Local\Temp\ccCYjebD.s 			page 2


  22:..\..\BSP/bsp.c **** *
  23:..\..\BSP/bsp.c **** * Filename      : bsp.c
  24:..\..\BSP/bsp.c **** * Version       : V1.00
  25:..\..\BSP/bsp.c **** * Programmer(s) : DC
  26:..\..\BSP/bsp.c **** ***************************************************************************************************
  27:..\..\BSP/bsp.c **** */
  28:..\..\BSP/bsp.c **** 
  29:..\..\BSP/bsp.c **** /*
  30:..\..\BSP/bsp.c **** ***************************************************************************************************
  31:..\..\BSP/bsp.c **** *                                             INCLUDE FILES
  32:..\..\BSP/bsp.c **** ***************************************************************************************************
  33:..\..\BSP/bsp.c **** */
  34:..\..\BSP/bsp.c **** 
  35:..\..\BSP/bsp.c **** #define  BSP_MODULE
  36:..\..\BSP/bsp.c **** #include <bsp.h>
  37:..\..\BSP/bsp.c **** #include <bsp_psoc.h>
  38:..\..\BSP/bsp.c **** 
  39:..\..\BSP/bsp.c **** 
  40:..\..\BSP/bsp.c **** /*
  41:..\..\BSP/bsp.c **** ***************************************************************************************************
  42:..\..\BSP/bsp.c **** *                                            LOCAL DEFINES
  43:..\..\BSP/bsp.c **** ***************************************************************************************************
  44:..\..\BSP/bsp.c **** */
  45:..\..\BSP/bsp.c ****                                                     /* ------------------- LED DEFINITONS ---------
  46:..\..\BSP/bsp.c **** #define  LED_3                  1                   /* Represents 0x01, Control_0 Bit in Control Re
  47:..\..\BSP/bsp.c **** #define  LED_4                  2                   /* Represents 0x10, Control_1 Bit in Control Re
  48:..\..\BSP/bsp.c **** #define  ALL_LED                3                   /* Represents 0x11, Control_0 & 1 Bit in Contro
  49:..\..\BSP/bsp.c **** 
  50:..\..\BSP/bsp.c **** 
  51:..\..\BSP/bsp.c **** /*
  52:..\..\BSP/bsp.c **** ***************************************************************************************************
  53:..\..\BSP/bsp.c **** *                                           LOCAL CONSTANTS
  54:..\..\BSP/bsp.c **** ***************************************************************************************************
  55:..\..\BSP/bsp.c **** */
  56:..\..\BSP/bsp.c ****                                                                    
  57:..\..\BSP/bsp.c **** CPU_INT08U                      LED_REG_VAL;        /*
  58:..\..\BSP/bsp.c ****                                                     ***********************************************
  59:..\..\BSP/bsp.c ****                                                     * LED_REG_VAL is used to read the current value
  60:..\..\BSP/bsp.c ****                                                     * LED_Status Control Register using LED_Status_
  61:..\..\BSP/bsp.c ****                                                     * function and provides this information to the
  62:..\..\BSP/bsp.c ****                                                     * LED_Status_Write() function so it won't overw
  63:..\..\BSP/bsp.c ****                                                     * values from other LEDs. LED_Status_Write() th
  64:..\..\BSP/bsp.c ****                                                     * writes a single bit in the necessary control 
  65:..\..\BSP/bsp.c ****                                                     * register pin for the neceessary LED.
  66:..\..\BSP/bsp.c ****                                                     ***********************************************
  67:..\..\BSP/bsp.c ****                                                     */
  68:..\..\BSP/bsp.c **** 
  69:..\..\BSP/bsp.c **** /*
  70:..\..\BSP/bsp.c **** ***************************************************************************************************
  71:..\..\BSP/bsp.c **** *                                          LOCAL DATA TYPES
  72:..\..\BSP/bsp.c **** ***************************************************************************************************
  73:..\..\BSP/bsp.c **** */
  74:..\..\BSP/bsp.c **** 
  75:..\..\BSP/bsp.c **** 
  76:..\..\BSP/bsp.c **** /*
  77:..\..\BSP/bsp.c **** ***************************************************************************************************
  78:..\..\BSP/bsp.c **** *                                            LOCAL TABLES
ARM GAS  C:\Users\daniel01\AppData\Local\Temp\ccCYjebD.s 			page 3


  79:..\..\BSP/bsp.c **** ***************************************************************************************************
  80:..\..\BSP/bsp.c **** */
  81:..\..\BSP/bsp.c **** 
  82:..\..\BSP/bsp.c **** 
  83:..\..\BSP/bsp.c **** /*
  84:..\..\BSP/bsp.c **** ***************************************************************************************************
  85:..\..\BSP/bsp.c **** *                                       LOCAL GLOBAL VARIABLES
  86:..\..\BSP/bsp.c **** ***************************************************************************************************
  87:..\..\BSP/bsp.c **** */
  88:..\..\BSP/bsp.c **** 
  89:..\..\BSP/bsp.c **** 
  90:..\..\BSP/bsp.c **** 
  91:..\..\BSP/bsp.c **** /*
  92:..\..\BSP/bsp.c **** ***************************************************************************************************
  93:..\..\BSP/bsp.c **** *                                      LOCAL FUNCTION PROTOTYPES
  94:..\..\BSP/bsp.c **** ***************************************************************************************************
  95:..\..\BSP/bsp.c **** */
  96:..\..\BSP/bsp.c **** 
  97:..\..\BSP/bsp.c **** 
  98:..\..\BSP/bsp.c **** /*
  99:..\..\BSP/bsp.c **** ***************************************************************************************************
 100:..\..\BSP/bsp.c **** *                                            REGISTER BITS
 101:..\..\BSP/bsp.c **** ***************************************************************************************************
 102:..\..\BSP/bsp.c **** */
 103:..\..\BSP/bsp.c **** 
 104:..\..\BSP/bsp.c **** 
 105:..\..\BSP/bsp.c **** /*
 106:..\..\BSP/bsp.c **** ***************************************************************************************************
 107:..\..\BSP/bsp.c **** *                                     LOCAL CONFIGURATION ERRORS
 108:..\..\BSP/bsp.c **** ***************************************************************************************************
 109:..\..\BSP/bsp.c **** */
 110:..\..\BSP/bsp.c **** 
 111:..\..\BSP/bsp.c **** 
 112:..\..\BSP/bsp.c **** /*
 113:..\..\BSP/bsp.c **** ***************************************************************************************************
 114:..\..\BSP/bsp.c **** *                                             BSP_PreInit()
 115:..\..\BSP/bsp.c **** *
 116:..\..\BSP/bsp.c **** * Description : Board support package pre-initialization funtion.
 117:..\..\BSP/bsp.c **** *
 118:..\..\BSP/bsp.c **** * Argument(s) : none.
 119:..\..\BSP/bsp.c **** *
 120:..\..\BSP/bsp.c **** * Return(s)   : none.
 121:..\..\BSP/bsp.c **** *
 122:..\..\BSP/bsp.c **** * Caller(s)   : Application.
 123:..\..\BSP/bsp.c **** *
 124:..\..\BSP/bsp.c **** * Note(s)     : (1) This funtion initializes peripherals required before the OS is initialized (e.g
 125:..\..\BSP/bsp.c **** *                   external memory.
 126:..\..\BSP/bsp.c **** ***************************************************************************************************
 127:..\..\BSP/bsp.c **** */
 128:..\..\BSP/bsp.c **** 
 129:..\..\BSP/bsp.c **** 
 130:..\..\BSP/bsp.c **** void BSP_PreInit (void)
 131:..\..\BSP/bsp.c **** {
  33              		.loc 1 131 0
  34              		.cfi_startproc
  35              		@ args = 0, pretend = 0, frame = 8
  36              		@ frame_needed = 1, uses_anonymous_args = 0
ARM GAS  C:\Users\daniel01\AppData\Local\Temp\ccCYjebD.s 			page 4


  37              		@ link register save eliminated.
  38 0000 80B4     		push	{r7}
  39              	.LCFI0:
  40              		.cfi_def_cfa_offset 4
  41 0002 83B0     		sub	sp, sp, #12
  42              	.LCFI1:
  43              		.cfi_def_cfa_offset 16
  44 0004 00AF     		add	r7, sp, #0
  45              		.cfi_offset 7, -4
  46              	.LCFI2:
  47              		.cfi_def_cfa_register 7
 132:..\..\BSP/bsp.c ****     CPU_INT32U  reg_val;
 133:..\..\BSP/bsp.c ****     CPU_INT32U *p_vect_tbl;
 134:..\..\BSP/bsp.c ****     
 135:..\..\BSP/bsp.c ****     
 136:..\..\BSP/bsp.c ****     reg_val = CPU_REG_NVIC_VTOR;                                   /* Get the NVIC offset table    
  48              		.loc 1 136 0
  49 0006 4EF60853 		movw	r3, #:lower16:-536810232
  50 000a CEF20003 		movt	r3, #:upper16:-536810232
  51 000e 1B68     		ldr	r3, [r3, #0]
  52 0010 3B60     		str	r3, [r7, #0]
 137:..\..\BSP/bsp.c ****     DEF_BIT_CLR(reg_val, DEF_BIT_29);                              /* Clear the TBLBASE bit        
  53              		.loc 1 137 0
  54 0012 3B68     		ldr	r3, [r7, #0]
  55 0014 23F00053 		bic	r3, r3, #536870912
  56 0018 3B60     		str	r3, [r7, #0]
 138:..\..\BSP/bsp.c ****     
 139:..\..\BSP/bsp.c ****      
 140:..\..\BSP/bsp.c ****     p_vect_tbl                  = (CPU_INT32U *)reg_val;           
  57              		.loc 1 140 0
  58 001a 3B68     		ldr	r3, [r7, #0]
  59 001c 7B60     		str	r3, [r7, #4]
 141:..\..\BSP/bsp.c ****                                                                    /* Install the PendSV & Systick 
 142:..\..\BSP/bsp.c ****     p_vect_tbl[CPU_INT_PENDSV]  = (CPU_INT32U  )OS_CPU_PendSVHandler;
  60              		.loc 1 142 0
  61 001e 7B68     		ldr	r3, [r7, #4]
  62 0020 03F13802 		add	r2, r3, #56
  63 0024 40F20003 		movw	r3, #:lower16:OS_CPU_PendSVHandler
  64 0028 C0F20003 		movt	r3, #:upper16:OS_CPU_PendSVHandler
  65 002c 1360     		str	r3, [r2, #0]
 143:..\..\BSP/bsp.c ****     p_vect_tbl[CPU_INT_SYSTICK] = (CPU_INT32U  )OS_CPU_SysTickHandler;
  66              		.loc 1 143 0
  67 002e 7B68     		ldr	r3, [r7, #4]
  68 0030 03F13C02 		add	r2, r3, #60
  69 0034 40F20003 		movw	r3, #:lower16:OS_CPU_SysTickHandler
  70 0038 C0F20003 		movt	r3, #:upper16:OS_CPU_SysTickHandler
  71 003c 1360     		str	r3, [r2, #0]
 144:..\..\BSP/bsp.c **** }
  72              		.loc 1 144 0
  73 003e 07F10C07 		add	r7, r7, #12
  74 0042 BD46     		mov	sp, r7
  75 0044 80BC     		pop	{r7}
  76 0046 7047     		bx	lr
  77              		.cfi_endproc
  78              	.LFE0:
  79              		.size	BSP_PreInit, .-BSP_PreInit
  80              		.section	.text.BSP_PostInit,"ax",%progbits
ARM GAS  C:\Users\daniel01\AppData\Local\Temp\ccCYjebD.s 			page 5


  81              		.align	2
  82              		.global	BSP_PostInit
  83              		.thumb
  84              		.thumb_func
  85              		.type	BSP_PostInit, %function
  86              	BSP_PostInit:
  87              	.LFB1:
 145:..\..\BSP/bsp.c **** 
 146:..\..\BSP/bsp.c **** 
 147:..\..\BSP/bsp.c **** /*
 148:..\..\BSP/bsp.c **** ***************************************************************************************************
 149:..\..\BSP/bsp.c **** *                                               BSP_PostInit()
 150:..\..\BSP/bsp.c **** *
 151:..\..\BSP/bsp.c **** * Description : Board Support Package Post initialization.
 152:..\..\BSP/bsp.c **** *
 153:..\..\BSP/bsp.c **** * Argument(s) : none.
 154:..\..\BSP/bsp.c **** *
 155:..\..\BSP/bsp.c **** * Return(s)   : none.
 156:..\..\BSP/bsp.c **** *
 157:..\..\BSP/bsp.c **** * Caller(s)   : Application.
 158:..\..\BSP/bsp.c **** *
 159:..\..\BSP/bsp.c **** * Note(s)     : (1) This funtion initilize peripherlas that requires the OS to be initialized.
 160:..\..\BSP/bsp.c **** ***************************************************************************************************
 161:..\..\BSP/bsp.c **** */
 162:..\..\BSP/bsp.c **** 
 163:..\..\BSP/bsp.c **** void  BSP_PostInit (void)
 164:..\..\BSP/bsp.c **** {
  88              		.loc 1 164 0
  89              		.cfi_startproc
  90              		@ args = 0, pretend = 0, frame = 0
  91              		@ frame_needed = 1, uses_anonymous_args = 0
  92              		@ link register save eliminated.
  93 0000 80B4     		push	{r7}
  94              	.LCFI3:
  95              		.cfi_def_cfa_offset 4
  96 0002 00AF     		add	r7, sp, #0
  97              		.cfi_offset 7, -4
  98              	.LCFI4:
  99              		.cfi_def_cfa_register 7
 165:..\..\BSP/bsp.c **** 
 166:..\..\BSP/bsp.c **** }
 100              		.loc 1 166 0
 101 0004 BD46     		mov	sp, r7
 102 0006 80BC     		pop	{r7}
 103 0008 7047     		bx	lr
 104              		.cfi_endproc
 105              	.LFE1:
 106              		.size	BSP_PostInit, .-BSP_PostInit
 107 000a 00BF     		.section	.text.BSP_CPU_TickInit,"ax",%progbits
 108              		.align	2
 109              		.global	BSP_CPU_TickInit
 110              		.thumb
 111              		.thumb_func
 112              		.type	BSP_CPU_TickInit, %function
 113              	BSP_CPU_TickInit:
 114              	.LFB2:
 167:..\..\BSP/bsp.c **** 
ARM GAS  C:\Users\daniel01\AppData\Local\Temp\ccCYjebD.s 			page 6


 168:..\..\BSP/bsp.c **** 
 169:..\..\BSP/bsp.c **** /*
 170:..\..\BSP/bsp.c **** ***************************************************************************************************
 171:..\..\BSP/bsp.c **** *                                       BSP_CPU_TickInit()
 172:..\..\BSP/bsp.c **** *
 173:..\..\BSP/bsp.c **** * Description : This function reads CPU registers to determine the CPU clock frequency of the chip 
 174:..\..\BSP/bsp.c **** *
 175:..\..\BSP/bsp.c **** * Argument(s) : none.
 176:..\..\BSP/bsp.c **** *
 177:..\..\BSP/bsp.c **** * Return(s)   : none.
 178:..\..\BSP/bsp.c **** *
 179:..\..\BSP/bsp.c **** * Caller(s)   : Application.
 180:..\..\BSP/bsp.c **** *
 181:..\..\BSP/bsp.c **** * Note(s)     : none.
 182:..\..\BSP/bsp.c **** ***************************************************************************************************
 183:..\..\BSP/bsp.c **** */
 184:..\..\BSP/bsp.c **** void  BSP_CPU_TickInit  (void)
 185:..\..\BSP/bsp.c **** {
 115              		.loc 1 185 0
 116              		.cfi_startproc
 117              		@ args = 0, pretend = 0, frame = 8
 118              		@ frame_needed = 1, uses_anonymous_args = 0
 119 0000 80B5     		push	{r7, lr}
 120              	.LCFI5:
 121              		.cfi_def_cfa_offset 8
 122 0002 82B0     		sub	sp, sp, #8
 123              	.LCFI6:
 124              		.cfi_def_cfa_offset 16
 125 0004 00AF     		add	r7, sp, #0
 126              		.cfi_offset 14, -4
 127              		.cfi_offset 7, -8
 128              	.LCFI7:
 129              		.cfi_def_cfa_register 7
 186:..\..\BSP/bsp.c ****     CPU_INT32U   cpu_clk_freq;
 187:..\..\BSP/bsp.c ****     CPU_INT32U   cnts;
 188:..\..\BSP/bsp.c ****     
 189:..\..\BSP/bsp.c ****     cpu_clk_freq = BSP_CPU_ClkFreq();                             /* Determine SysTick reference fr
 130              		.loc 1 189 0
 131 0006 FFF7FEFF 		bl	BSP_CPU_ClkFreq
 132 000a 0346     		mov	r3, r0
 133 000c 3B60     		str	r3, [r7, #0]
 190:..\..\BSP/bsp.c **** #if (OS_VERSION > 30000u)                                         /* Determine nbr SysTick incremen
 191:..\..\BSP/bsp.c ****     cnts         = (cpu_clk_freq / OSCfg_TickRate_Hz);
 134              		.loc 1 191 0
 135 000e 40F20003 		movw	r3, #:lower16:OSCfg_TickRate_Hz
 136 0012 C0F20003 		movt	r3, #:upper16:OSCfg_TickRate_Hz
 137 0016 1B68     		ldr	r3, [r3, #0]
 138 0018 3A68     		ldr	r2, [r7, #0]
 139 001a B2FBF3F3 		udiv	r3, r2, r3
 140 001e 7B60     		str	r3, [r7, #4]
 192:..\..\BSP/bsp.c **** #else
 193:..\..\BSP/bsp.c ****     cnts         = (cpu_clk_freq / OS_TICKS_PER_SEC);
 194:..\..\BSP/bsp.c **** #endif
 195:..\..\BSP/bsp.c ****     OS_CPU_SysTickInit(cnts);                                     /* Init uC/OS periodic time src (
 141              		.loc 1 195 0
 142 0020 7868     		ldr	r0, [r7, #4]
 143 0022 FFF7FEFF 		bl	OS_CPU_SysTickInit
ARM GAS  C:\Users\daniel01\AppData\Local\Temp\ccCYjebD.s 			page 7


 196:..\..\BSP/bsp.c ****     
 197:..\..\BSP/bsp.c **** }
 144              		.loc 1 197 0
 145 0026 07F10807 		add	r7, r7, #8
 146 002a BD46     		mov	sp, r7
 147 002c 80BD     		pop	{r7, pc}
 148              		.cfi_endproc
 149              	.LFE2:
 150              		.size	BSP_CPU_TickInit, .-BSP_CPU_TickInit
 151 002e 00BF     		.section	.text.BSP_CPU_ClkFreq,"ax",%progbits
 152              		.align	2
 153              		.global	BSP_CPU_ClkFreq
 154              		.thumb
 155              		.thumb_func
 156              		.type	BSP_CPU_ClkFreq, %function
 157              	BSP_CPU_ClkFreq:
 158              	.LFB3:
 198:..\..\BSP/bsp.c **** 
 199:..\..\BSP/bsp.c **** /*
 200:..\..\BSP/bsp.c **** ***************************************************************************************************
 201:..\..\BSP/bsp.c **** *                                            BSP_CPU_ClkFreq()
 202:..\..\BSP/bsp.c **** *
 203:..\..\BSP/bsp.c **** * Description : Read CPU registers to determine the CPU clock frequency of the chip.
 204:..\..\BSP/bsp.c **** *
 205:..\..\BSP/bsp.c **** * Argument(s) : none.
 206:..\..\BSP/bsp.c **** *
 207:..\..\BSP/bsp.c **** * Return(s)   : The CPU clock frequency, in Hz.
 208:..\..\BSP/bsp.c **** *
 209:..\..\BSP/bsp.c **** * Caller(s)   : Application.
 210:..\..\BSP/bsp.c **** *
 211:..\..\BSP/bsp.c **** * Note(s)     : none.
 212:..\..\BSP/bsp.c **** ***************************************************************************************************
 213:..\..\BSP/bsp.c **** */
 214:..\..\BSP/bsp.c **** 
 215:..\..\BSP/bsp.c **** CPU_INT32U  BSP_CPU_ClkFreq (void)
 216:..\..\BSP/bsp.c **** {
 159              		.loc 1 216 0
 160              		.cfi_startproc
 161              		@ args = 0, pretend = 0, frame = 0
 162              		@ frame_needed = 1, uses_anonymous_args = 0
 163              		@ link register save eliminated.
 164 0000 80B4     		push	{r7}
 165              	.LCFI8:
 166              		.cfi_def_cfa_offset 4
 167 0002 00AF     		add	r7, sp, #0
 168              		.cfi_offset 7, -4
 169              	.LCFI9:
 170              		.cfi_def_cfa_register 7
 217:..\..\BSP/bsp.c ****     return ((CPU_INT32U)BSP_PSOC_CPU_FREQ);
 171              		.loc 1 217 0
 172 0004 48F20073 		movw	r3, #:lower16:60000000
 173 0008 C0F29333 		movt	r3, #:upper16:60000000
 218:..\..\BSP/bsp.c **** }
 174              		.loc 1 218 0
 175 000c 1846     		mov	r0, r3
 176 000e BD46     		mov	sp, r7
 177 0010 80BC     		pop	{r7}
ARM GAS  C:\Users\daniel01\AppData\Local\Temp\ccCYjebD.s 			page 8


 178 0012 7047     		bx	lr
 179              		.cfi_endproc
 180              	.LFE3:
 181              		.size	BSP_CPU_ClkFreq, .-BSP_CPU_ClkFreq
 182              		.section	.text.BSP_LED_On,"ax",%progbits
 183              		.align	2
 184              		.global	BSP_LED_On
 185              		.thumb
 186              		.thumb_func
 187              		.type	BSP_LED_On, %function
 188              	BSP_LED_On:
 189              	.LFB4:
 219:..\..\BSP/bsp.c **** 
 220:..\..\BSP/bsp.c **** 
 221:..\..\BSP/bsp.c **** /*
 222:..\..\BSP/bsp.c **** ***************************************************************************************************
 223:..\..\BSP/bsp.c **** ***************************************************************************************************
 224:..\..\BSP/bsp.c **** *                                              LED FUNCTIONS
 225:..\..\BSP/bsp.c **** ***************************************************************************************************
 226:..\..\BSP/bsp.c **** ***************************************************************************************************
 227:..\..\BSP/bsp.c **** */
 228:..\..\BSP/bsp.c **** 
 229:..\..\BSP/bsp.c **** 
 230:..\..\BSP/bsp.c **** /*
 231:..\..\BSP/bsp.c **** ***************************************************************************************************
 232:..\..\BSP/bsp.c **** *                                             BSP_LED_On()
 233:..\..\BSP/bsp.c **** *
 234:..\..\BSP/bsp.c **** * Description : Turn ON any or all the LEDs on the board.
 235:..\..\BSP/bsp.c **** *
 236:..\..\BSP/bsp.c **** * Argument(s) : led     The ID of the LED to control:
 237:..\..\BSP/bsp.c **** *
 238:..\..\BSP/bsp.c **** *                       0    turns ON ALL the LEDs
 239:..\..\BSP/bsp.c **** *                       1    turns ON user LED1  on the board
 240:..\..\BSP/bsp.c **** *                       2    turns ON user LED2  on the board
 241:..\..\BSP/bsp.c **** *                       3    turns ON user LED3  on the board
 242:..\..\BSP/bsp.c **** *
 243:..\..\BSP/bsp.c **** * Return(s)   : none.
 244:..\..\BSP/bsp.c **** *
 245:..\..\BSP/bsp.c **** * Caller(s)   : Application.
 246:..\..\BSP/bsp.c **** *
 247:..\..\BSP/bsp.c **** * Note(s)     : none.
 248:..\..\BSP/bsp.c **** ***************************************************************************************************
 249:..\..\BSP/bsp.c **** */
 250:..\..\BSP/bsp.c **** 
 251:..\..\BSP/bsp.c **** void  BSP_LED_On (CPU_INT08U led)
 252:..\..\BSP/bsp.c **** {
 190              		.loc 1 252 0
 191              		.cfi_startproc
 192              		@ args = 0, pretend = 0, frame = 8
 193              		@ frame_needed = 1, uses_anonymous_args = 0
 194 0000 80B5     		push	{r7, lr}
 195              	.LCFI10:
 196              		.cfi_def_cfa_offset 8
 197 0002 82B0     		sub	sp, sp, #8
 198              	.LCFI11:
 199              		.cfi_def_cfa_offset 16
 200 0004 00AF     		add	r7, sp, #0
ARM GAS  C:\Users\daniel01\AppData\Local\Temp\ccCYjebD.s 			page 9


 201              		.cfi_offset 14, -4
 202              		.cfi_offset 7, -8
 203              	.LCFI12:
 204              		.cfi_def_cfa_register 7
 205 0006 0346     		mov	r3, r0
 206 0008 FB71     		strb	r3, [r7, #7]
 253:..\..\BSP/bsp.c ****     switch (led) {
 207              		.loc 1 253 0
 208 000a FB79     		ldrb	r3, [r7, #7]	@ zero_extendqisi2
 209 000c 042B     		cmp	r3, #4
 210 000e 4BD8     		bhi	.L15
 211 0010 01A2     		adr	r2, .L14
 212 0012 52F823F0 		ldr	pc, [r2, r3, lsl #2]
 213 0016 00BF     		.align	2
 214              	.L14:
 215 0018 2D000000 		.word	.L11+1
 216 001c 57000000 		.word	.L12+1
 217 0020 57000000 		.word	.L12+1
 218 0024 57000000 		.word	.L12+1
 219 0028 81000000 		.word	.L13+1
 220              	.L11:
 254:..\..\BSP/bsp.c ****         case 0:
 255:..\..\BSP/bsp.c ****              LED_REG_VAL = LED_Status_Read();                   /* LED_Status Signifies the given n
 221              		.loc 1 255 0
 222 002c FFF7FEFF 		bl	LED_Status_Read
 223 0030 0346     		mov	r3, r0
 224 0032 DAB2     		uxtb	r2, r3
 225 0034 40F20003 		movw	r3, #:lower16:LED_REG_VAL
 226 0038 C0F20003 		movt	r3, #:upper16:LED_REG_VAL
 227 003c 1A70     		strb	r2, [r3, #0]
 256:..\..\BSP/bsp.c ****              LED_Status_Write(LED_REG_VAL | ALL_LED);           /* the Control Register controlling
 228              		.loc 1 256 0
 229 003e 40F20003 		movw	r3, #:lower16:LED_REG_VAL
 230 0042 C0F20003 		movt	r3, #:upper16:LED_REG_VAL
 231 0046 1B78     		ldrb	r3, [r3, #0]	@ zero_extendqisi2
 232 0048 43F00303 		orr	r3, r3, #3
 233 004c DBB2     		uxtb	r3, r3
 234 004e 1846     		mov	r0, r3
 235 0050 FFF7FEFF 		bl	LED_Status_Write
 257:..\..\BSP/bsp.c ****              break;
 236              		.loc 1 257 0
 237 0054 28E0     		b	.L15
 238              	.L12:
 258:..\..\BSP/bsp.c ****             
 259:..\..\BSP/bsp.c ****         case 1:
 260:..\..\BSP/bsp.c ****         case 2:
 261:..\..\BSP/bsp.c ****         case 3:
 262:..\..\BSP/bsp.c ****              LED_REG_VAL = LED_Status_Read();
 239              		.loc 1 262 0
 240 0056 FFF7FEFF 		bl	LED_Status_Read
 241 005a 0346     		mov	r3, r0
 242 005c DAB2     		uxtb	r2, r3
 243 005e 40F20003 		movw	r3, #:lower16:LED_REG_VAL
 244 0062 C0F20003 		movt	r3, #:upper16:LED_REG_VAL
 245 0066 1A70     		strb	r2, [r3, #0]
 263:..\..\BSP/bsp.c ****              LED_Status_Write(LED_REG_VAL | LED_3);
 246              		.loc 1 263 0
ARM GAS  C:\Users\daniel01\AppData\Local\Temp\ccCYjebD.s 			page 10


 247 0068 40F20003 		movw	r3, #:lower16:LED_REG_VAL
 248 006c C0F20003 		movt	r3, #:upper16:LED_REG_VAL
 249 0070 1B78     		ldrb	r3, [r3, #0]	@ zero_extendqisi2
 250 0072 43F00103 		orr	r3, r3, #1
 251 0076 DBB2     		uxtb	r3, r3
 252 0078 1846     		mov	r0, r3
 253 007a FFF7FEFF 		bl	LED_Status_Write
 264:..\..\BSP/bsp.c ****              break;
 254              		.loc 1 264 0
 255 007e 13E0     		b	.L15
 256              	.L13:
 265:..\..\BSP/bsp.c ****              
 266:..\..\BSP/bsp.c ****              
 267:..\..\BSP/bsp.c ****         case 4:
 268:..\..\BSP/bsp.c ****              LED_REG_VAL = LED_Status_Read();
 257              		.loc 1 268 0
 258 0080 FFF7FEFF 		bl	LED_Status_Read
 259 0084 0346     		mov	r3, r0
 260 0086 DAB2     		uxtb	r2, r3
 261 0088 40F20003 		movw	r3, #:lower16:LED_REG_VAL
 262 008c C0F20003 		movt	r3, #:upper16:LED_REG_VAL
 263 0090 1A70     		strb	r2, [r3, #0]
 269:..\..\BSP/bsp.c ****              LED_Status_Write(LED_REG_VAL | LED_4);
 264              		.loc 1 269 0
 265 0092 40F20003 		movw	r3, #:lower16:LED_REG_VAL
 266 0096 C0F20003 		movt	r3, #:upper16:LED_REG_VAL
 267 009a 1B78     		ldrb	r3, [r3, #0]	@ zero_extendqisi2
 268 009c 43F00203 		orr	r3, r3, #2
 269 00a0 DBB2     		uxtb	r3, r3
 270 00a2 1846     		mov	r0, r3
 271 00a4 FFF7FEFF 		bl	LED_Status_Write
 272              	.L15:
 270:..\..\BSP/bsp.c ****              break;
 271:..\..\BSP/bsp.c **** 
 272:..\..\BSP/bsp.c **** 
 273:..\..\BSP/bsp.c ****         default:
 274:..\..\BSP/bsp.c ****              break;
 275:..\..\BSP/bsp.c ****     }
 276:..\..\BSP/bsp.c **** }
 273              		.loc 1 276 0
 274 00a8 07F10807 		add	r7, r7, #8
 275 00ac BD46     		mov	sp, r7
 276 00ae 80BD     		pop	{r7, pc}
 277              		.cfi_endproc
 278              	.LFE4:
 279              		.size	BSP_LED_On, .-BSP_LED_On
 280              		.section	.text.BSP_LED_Off,"ax",%progbits
 281              		.align	2
 282              		.global	BSP_LED_Off
 283              		.thumb
 284              		.thumb_func
 285              		.type	BSP_LED_Off, %function
 286              	BSP_LED_Off:
 287              	.LFB5:
 277:..\..\BSP/bsp.c **** 
 278:..\..\BSP/bsp.c **** 
 279:..\..\BSP/bsp.c **** /*
ARM GAS  C:\Users\daniel01\AppData\Local\Temp\ccCYjebD.s 			page 11


 280:..\..\BSP/bsp.c **** ***************************************************************************************************
 281:..\..\BSP/bsp.c **** *                                              BSP_LED_Off()
 282:..\..\BSP/bsp.c **** *
 283:..\..\BSP/bsp.c **** * Description : Turn OFF any or all the LEDs on the board.
 284:..\..\BSP/bsp.c **** *
 285:..\..\BSP/bsp.c **** * Argument(s) : led     The ID of the LED to control:
 286:..\..\BSP/bsp.c **** *
 287:..\..\BSP/bsp.c **** *                       0    turns OFF ALL the LEDs
 288:..\..\BSP/bsp.c **** *                       1    turns OFF user LED1  on the board
 289:..\..\BSP/bsp.c **** *                       2    turns OFF user LED2  on the board
 290:..\..\BSP/bsp.c **** *                       3    turns OFF user LED3  on the board
 291:..\..\BSP/bsp.c **** *
 292:..\..\BSP/bsp.c **** * Return(s)   : none.
 293:..\..\BSP/bsp.c **** *
 294:..\..\BSP/bsp.c **** * Caller(s)   : Application.
 295:..\..\BSP/bsp.c **** *
 296:..\..\BSP/bsp.c **** * Note(s)     : none.
 297:..\..\BSP/bsp.c **** ***************************************************************************************************
 298:..\..\BSP/bsp.c **** */
 299:..\..\BSP/bsp.c **** 
 300:..\..\BSP/bsp.c **** void  BSP_LED_Off (CPU_INT08U led)
 301:..\..\BSP/bsp.c **** {
 288              		.loc 1 301 0
 289              		.cfi_startproc
 290              		@ args = 0, pretend = 0, frame = 8
 291              		@ frame_needed = 1, uses_anonymous_args = 0
 292 0000 80B5     		push	{r7, lr}
 293              	.LCFI13:
 294              		.cfi_def_cfa_offset 8
 295 0002 82B0     		sub	sp, sp, #8
 296              	.LCFI14:
 297              		.cfi_def_cfa_offset 16
 298 0004 00AF     		add	r7, sp, #0
 299              		.cfi_offset 14, -4
 300              		.cfi_offset 7, -8
 301              	.LCFI15:
 302              		.cfi_def_cfa_register 7
 303 0006 0346     		mov	r3, r0
 304 0008 FB71     		strb	r3, [r7, #7]
 302:..\..\BSP/bsp.c ****         switch (led) {
 305              		.loc 1 302 0
 306 000a FB79     		ldrb	r3, [r7, #7]	@ zero_extendqisi2
 307 000c 042B     		cmp	r3, #4
 308 000e 48D8     		bhi	.L22
 309 0010 01A2     		adr	r2, .L21
 310 0012 52F823F0 		ldr	pc, [r2, r3, lsl #2]
 311 0016 00BF     		.align	2
 312              	.L21:
 313 0018 2D000000 		.word	.L18+1
 314 001c 55000000 		.word	.L19+1
 315 0020 55000000 		.word	.L19+1
 316 0024 55000000 		.word	.L19+1
 317 0028 7D000000 		.word	.L20+1
 318              	.L18:
 303:..\..\BSP/bsp.c ****         case 0:
 304:..\..\BSP/bsp.c ****              LED_REG_VAL = LED_Status_Read();                   /* LED_Status Signifies the given n
 319              		.loc 1 304 0
ARM GAS  C:\Users\daniel01\AppData\Local\Temp\ccCYjebD.s 			page 12


 320 002c FFF7FEFF 		bl	LED_Status_Read
 321 0030 0346     		mov	r3, r0
 322 0032 DAB2     		uxtb	r2, r3
 323 0034 40F20003 		movw	r3, #:lower16:LED_REG_VAL
 324 0038 C0F20003 		movt	r3, #:upper16:LED_REG_VAL
 325 003c 1A70     		strb	r2, [r3, #0]
 305:..\..\BSP/bsp.c ****              LED_Status_Write(LED_REG_VAL & ~ALL_LED);          /* the Control Register controlling
 326              		.loc 1 305 0
 327 003e 40F20003 		movw	r3, #:lower16:LED_REG_VAL
 328 0042 C0F20003 		movt	r3, #:upper16:LED_REG_VAL
 329 0046 1B78     		ldrb	r3, [r3, #0]	@ zero_extendqisi2
 330 0048 23F00303 		bic	r3, r3, #3
 331 004c 1846     		mov	r0, r3
 332 004e FFF7FEFF 		bl	LED_Status_Write
 306:..\..\BSP/bsp.c ****              break;
 333              		.loc 1 306 0
 334 0052 26E0     		b	.L22
 335              	.L19:
 307:..\..\BSP/bsp.c ****             
 308:..\..\BSP/bsp.c ****         case 1:
 309:..\..\BSP/bsp.c ****         case 2:
 310:..\..\BSP/bsp.c ****         case 3:
 311:..\..\BSP/bsp.c ****              LED_REG_VAL = LED_Status_Read();
 336              		.loc 1 311 0
 337 0054 FFF7FEFF 		bl	LED_Status_Read
 338 0058 0346     		mov	r3, r0
 339 005a DAB2     		uxtb	r2, r3
 340 005c 40F20003 		movw	r3, #:lower16:LED_REG_VAL
 341 0060 C0F20003 		movt	r3, #:upper16:LED_REG_VAL
 342 0064 1A70     		strb	r2, [r3, #0]
 312:..\..\BSP/bsp.c ****              LED_Status_Write(LED_REG_VAL & ~LED_3);
 343              		.loc 1 312 0
 344 0066 40F20003 		movw	r3, #:lower16:LED_REG_VAL
 345 006a C0F20003 		movt	r3, #:upper16:LED_REG_VAL
 346 006e 1B78     		ldrb	r3, [r3, #0]	@ zero_extendqisi2
 347 0070 23F00103 		bic	r3, r3, #1
 348 0074 1846     		mov	r0, r3
 349 0076 FFF7FEFF 		bl	LED_Status_Write
 313:..\..\BSP/bsp.c ****              break;
 350              		.loc 1 313 0
 351 007a 12E0     		b	.L22
 352              	.L20:
 314:..\..\BSP/bsp.c ****              
 315:..\..\BSP/bsp.c ****              
 316:..\..\BSP/bsp.c ****         case 4:
 317:..\..\BSP/bsp.c ****              LED_REG_VAL = LED_Status_Read();
 353              		.loc 1 317 0
 354 007c FFF7FEFF 		bl	LED_Status_Read
 355 0080 0346     		mov	r3, r0
 356 0082 DAB2     		uxtb	r2, r3
 357 0084 40F20003 		movw	r3, #:lower16:LED_REG_VAL
 358 0088 C0F20003 		movt	r3, #:upper16:LED_REG_VAL
 359 008c 1A70     		strb	r2, [r3, #0]
 318:..\..\BSP/bsp.c ****              LED_Status_Write(LED_REG_VAL & ~LED_4);
 360              		.loc 1 318 0
 361 008e 40F20003 		movw	r3, #:lower16:LED_REG_VAL
 362 0092 C0F20003 		movt	r3, #:upper16:LED_REG_VAL
ARM GAS  C:\Users\daniel01\AppData\Local\Temp\ccCYjebD.s 			page 13


 363 0096 1B78     		ldrb	r3, [r3, #0]	@ zero_extendqisi2
 364 0098 23F00203 		bic	r3, r3, #2
 365 009c 1846     		mov	r0, r3
 366 009e FFF7FEFF 		bl	LED_Status_Write
 367              	.L22:
 319:..\..\BSP/bsp.c ****              break;
 320:..\..\BSP/bsp.c **** 
 321:..\..\BSP/bsp.c **** 
 322:..\..\BSP/bsp.c ****         default:
 323:..\..\BSP/bsp.c ****              break;
 324:..\..\BSP/bsp.c ****     }
 325:..\..\BSP/bsp.c **** }
 368              		.loc 1 325 0
 369 00a2 07F10807 		add	r7, r7, #8
 370 00a6 BD46     		mov	sp, r7
 371 00a8 80BD     		pop	{r7, pc}
 372              		.cfi_endproc
 373              	.LFE5:
 374              		.size	BSP_LED_Off, .-BSP_LED_Off
 375 00aa 00BF     		.section	.text.BSP_LED_Toggle,"ax",%progbits
 376              		.align	2
 377              		.global	BSP_LED_Toggle
 378              		.thumb
 379              		.thumb_func
 380              		.type	BSP_LED_Toggle, %function
 381              	BSP_LED_Toggle:
 382              	.LFB6:
 326:..\..\BSP/bsp.c **** 
 327:..\..\BSP/bsp.c **** 
 328:..\..\BSP/bsp.c **** /*
 329:..\..\BSP/bsp.c **** ***************************************************************************************************
 330:..\..\BSP/bsp.c **** *                                            BSP_LED_Toggle()
 331:..\..\BSP/bsp.c **** *
 332:..\..\BSP/bsp.c **** * Description : TOGGLE any or all the LEDs on the board.
 333:..\..\BSP/bsp.c **** *
 334:..\..\BSP/bsp.c **** * Argument(s) : led     The ID of the LED to control:
 335:..\..\BSP/bsp.c **** *
 336:..\..\BSP/bsp.c **** *                       0    TOGGLE ALL the LEDs
 337:..\..\BSP/bsp.c **** *                       1    TOGGLE user LED1  on the board
 338:..\..\BSP/bsp.c **** *                       2    TOGGLE user LED2  on the board
 339:..\..\BSP/bsp.c **** *                       3    TOGGLE user LED3  on the board
 340:..\..\BSP/bsp.c **** *
 341:..\..\BSP/bsp.c **** * Return(s)   : none.
 342:..\..\BSP/bsp.c **** *
 343:..\..\BSP/bsp.c **** * Caller(s)   : Application.
 344:..\..\BSP/bsp.c **** *
 345:..\..\BSP/bsp.c **** * Note(s)     : none.
 346:..\..\BSP/bsp.c **** ***************************************************************************************************
 347:..\..\BSP/bsp.c **** */
 348:..\..\BSP/bsp.c **** 
 349:..\..\BSP/bsp.c **** void  BSP_LED_Toggle (CPU_INT08U led)
 350:..\..\BSP/bsp.c **** {
 383              		.loc 1 350 0
 384              		.cfi_startproc
 385              		@ args = 0, pretend = 0, frame = 8
 386              		@ frame_needed = 1, uses_anonymous_args = 0
 387 0000 80B5     		push	{r7, lr}
ARM GAS  C:\Users\daniel01\AppData\Local\Temp\ccCYjebD.s 			page 14


 388              	.LCFI16:
 389              		.cfi_def_cfa_offset 8
 390 0002 82B0     		sub	sp, sp, #8
 391              	.LCFI17:
 392              		.cfi_def_cfa_offset 16
 393 0004 00AF     		add	r7, sp, #0
 394              		.cfi_offset 14, -4
 395              		.cfi_offset 7, -8
 396              	.LCFI18:
 397              		.cfi_def_cfa_register 7
 398 0006 0346     		mov	r3, r0
 399 0008 FB71     		strb	r3, [r7, #7]
 351:..\..\BSP/bsp.c ****         switch (led) {
 400              		.loc 1 351 0
 401 000a FB79     		ldrb	r3, [r7, #7]	@ zero_extendqisi2
 402 000c 042B     		cmp	r3, #4
 403 000e 4BD8     		bhi	.L29
 404 0010 01A2     		adr	r2, .L28
 405 0012 52F823F0 		ldr	pc, [r2, r3, lsl #2]
 406 0016 00BF     		.align	2
 407              	.L28:
 408 0018 2D000000 		.word	.L25+1
 409 001c 57000000 		.word	.L26+1
 410 0020 57000000 		.word	.L26+1
 411 0024 57000000 		.word	.L26+1
 412 0028 81000000 		.word	.L27+1
 413              	.L25:
 352:..\..\BSP/bsp.c ****         case 0:
 353:..\..\BSP/bsp.c ****              LED_REG_VAL = LED_Status_Read();                   /* LED_Status Signifies the given n
 414              		.loc 1 353 0
 415 002c FFF7FEFF 		bl	LED_Status_Read
 416 0030 0346     		mov	r3, r0
 417 0032 DAB2     		uxtb	r2, r3
 418 0034 40F20003 		movw	r3, #:lower16:LED_REG_VAL
 419 0038 C0F20003 		movt	r3, #:upper16:LED_REG_VAL
 420 003c 1A70     		strb	r2, [r3, #0]
 354:..\..\BSP/bsp.c ****              LED_Status_Write(LED_REG_VAL ^ ALL_LED);           /* the Control Register controlling
 421              		.loc 1 354 0
 422 003e 40F20003 		movw	r3, #:lower16:LED_REG_VAL
 423 0042 C0F20003 		movt	r3, #:upper16:LED_REG_VAL
 424 0046 1B78     		ldrb	r3, [r3, #0]	@ zero_extendqisi2
 425 0048 83F00303 		eor	r3, r3, #3
 426 004c DBB2     		uxtb	r3, r3
 427 004e 1846     		mov	r0, r3
 428 0050 FFF7FEFF 		bl	LED_Status_Write
 355:..\..\BSP/bsp.c ****              break;                                             
 429              		.loc 1 355 0
 430 0054 28E0     		b	.L29
 431              	.L26:
 356:..\..\BSP/bsp.c ****             
 357:..\..\BSP/bsp.c ****         case 1:
 358:..\..\BSP/bsp.c ****         case 2:
 359:..\..\BSP/bsp.c ****         case 3:
 360:..\..\BSP/bsp.c ****              LED_REG_VAL = LED_Status_Read();
 432              		.loc 1 360 0
 433 0056 FFF7FEFF 		bl	LED_Status_Read
 434 005a 0346     		mov	r3, r0
ARM GAS  C:\Users\daniel01\AppData\Local\Temp\ccCYjebD.s 			page 15


 435 005c DAB2     		uxtb	r2, r3
 436 005e 40F20003 		movw	r3, #:lower16:LED_REG_VAL
 437 0062 C0F20003 		movt	r3, #:upper16:LED_REG_VAL
 438 0066 1A70     		strb	r2, [r3, #0]
 361:..\..\BSP/bsp.c ****              LED_Status_Write(LED_REG_VAL ^ LED_3);
 439              		.loc 1 361 0
 440 0068 40F20003 		movw	r3, #:lower16:LED_REG_VAL
 441 006c C0F20003 		movt	r3, #:upper16:LED_REG_VAL
 442 0070 1B78     		ldrb	r3, [r3, #0]	@ zero_extendqisi2
 443 0072 83F00103 		eor	r3, r3, #1
 444 0076 DBB2     		uxtb	r3, r3
 445 0078 1846     		mov	r0, r3
 446 007a FFF7FEFF 		bl	LED_Status_Write
 362:..\..\BSP/bsp.c ****              break;
 447              		.loc 1 362 0
 448 007e 13E0     		b	.L29
 449              	.L27:
 363:..\..\BSP/bsp.c ****              
 364:..\..\BSP/bsp.c ****              
 365:..\..\BSP/bsp.c ****         case 4:
 366:..\..\BSP/bsp.c ****              LED_REG_VAL = LED_Status_Read();
 450              		.loc 1 366 0
 451 0080 FFF7FEFF 		bl	LED_Status_Read
 452 0084 0346     		mov	r3, r0
 453 0086 DAB2     		uxtb	r2, r3
 454 0088 40F20003 		movw	r3, #:lower16:LED_REG_VAL
 455 008c C0F20003 		movt	r3, #:upper16:LED_REG_VAL
 456 0090 1A70     		strb	r2, [r3, #0]
 367:..\..\BSP/bsp.c ****              LED_Status_Write(LED_REG_VAL ^ LED_4);
 457              		.loc 1 367 0
 458 0092 40F20003 		movw	r3, #:lower16:LED_REG_VAL
 459 0096 C0F20003 		movt	r3, #:upper16:LED_REG_VAL
 460 009a 1B78     		ldrb	r3, [r3, #0]	@ zero_extendqisi2
 461 009c 83F00203 		eor	r3, r3, #2
 462 00a0 DBB2     		uxtb	r3, r3
 463 00a2 1846     		mov	r0, r3
 464 00a4 FFF7FEFF 		bl	LED_Status_Write
 465              	.L29:
 368:..\..\BSP/bsp.c ****              break;
 369:..\..\BSP/bsp.c **** 
 370:..\..\BSP/bsp.c **** 
 371:..\..\BSP/bsp.c ****         default:
 372:..\..\BSP/bsp.c ****              break;
 373:..\..\BSP/bsp.c ****     }
 374:..\..\BSP/bsp.c **** }
 466              		.loc 1 374 0
 467 00a8 07F10807 		add	r7, r7, #8
 468 00ac BD46     		mov	sp, r7
 469 00ae 80BD     		pop	{r7, pc}
 470              		.cfi_endproc
 471              	.LFE6:
 472              		.size	BSP_LED_Toggle, .-BSP_LED_Toggle
 473              		.section	.text.BSP_PB_StatusGet,"ax",%progbits
 474              		.align	2
 475              		.global	BSP_PB_StatusGet
 476              		.thumb
 477              		.thumb_func
ARM GAS  C:\Users\daniel01\AppData\Local\Temp\ccCYjebD.s 			page 16


 478              		.type	BSP_PB_StatusGet, %function
 479              	BSP_PB_StatusGet:
 480              	.LFB7:
 375:..\..\BSP/bsp.c **** 
 376:..\..\BSP/bsp.c **** 
 377:..\..\BSP/bsp.c **** /*
 378:..\..\BSP/bsp.c **** ***************************************************************************************************
 379:..\..\BSP/bsp.c **** *                                            BSP_PB_StatusGet()
 380:..\..\BSP/bsp.c **** *
 381:..\..\BSP/bsp.c **** * Description : Get the current status of the push buttons.
 382:..\..\BSP/bsp.c **** *
 383:..\..\BSP/bsp.c **** * Argument(s) : pb    Push button identifier.
 384:..\..\BSP/bsp.c **** *
 385:..\..\BSP/bsp.c **** *                           1 Board SW1
 386:..\..\BSP/bsp.c **** *                           2 Board SW2
 387:..\..\BSP/bsp.c **** *
 388:..\..\BSP/bsp.c **** * Return(s)   : DEF_ON    If the push button is pressed.
 389:..\..\BSP/bsp.c **** *               DEF_OFF,  otherwise
 390:..\..\BSP/bsp.c **** *
 391:..\..\BSP/bsp.c **** * Caller(s)   : application
 392:..\..\BSP/bsp.c **** *
 393:..\..\BSP/bsp.c **** * Note(s)     : none.
 394:..\..\BSP/bsp.c **** ***************************************************************************************************
 395:..\..\BSP/bsp.c **** */
 396:..\..\BSP/bsp.c **** 
 397:..\..\BSP/bsp.c **** CPU_BOOLEAN  BSP_PB_StatusGet (CPU_INT08U  pb)
 398:..\..\BSP/bsp.c **** {
 481              		.loc 1 398 0
 482              		.cfi_startproc
 483              		@ args = 0, pretend = 0, frame = 16
 484              		@ frame_needed = 1, uses_anonymous_args = 0
 485 0000 80B5     		push	{r7, lr}
 486              	.LCFI19:
 487              		.cfi_def_cfa_offset 8
 488 0002 84B0     		sub	sp, sp, #16
 489              	.LCFI20:
 490              		.cfi_def_cfa_offset 24
 491 0004 00AF     		add	r7, sp, #0
 492              		.cfi_offset 14, -4
 493              		.cfi_offset 7, -8
 494              	.LCFI21:
 495              		.cfi_def_cfa_register 7
 496 0006 0346     		mov	r3, r0
 497 0008 FB71     		strb	r3, [r7, #7]
 399:..\..\BSP/bsp.c ****     CPU_INT08U    reg_val;
 400:..\..\BSP/bsp.c ****     CPU_BOOLEAN   pb_status;
 401:..\..\BSP/bsp.c **** 
 402:..\..\BSP/bsp.c **** 
 403:..\..\BSP/bsp.c ****     //reg_val   = BSP_PSOC_PB_RD();
 404:..\..\BSP/bsp.c ****     pb_status = DEF_OFF;
 498              		.loc 1 404 0
 499 000a 4FF00003 		mov	r3, #0
 500 000e FB73     		strb	r3, [r7, #15]
 405:..\..\BSP/bsp.c **** 
 406:..\..\BSP/bsp.c ****     switch (pb) {
 501              		.loc 1 406 0
 502 0010 FB79     		ldrb	r3, [r7, #7]	@ zero_extendqisi2
ARM GAS  C:\Users\daniel01\AppData\Local\Temp\ccCYjebD.s 			page 17


 503 0012 022B     		cmp	r3, #2
 504 0014 02D0     		beq	.L32
 505 0016 032B     		cmp	r3, #3
 506 0018 10D0     		beq	.L33
 507 001a 1EE0     		b	.L31
 508              	.L32:
 407:..\..\BSP/bsp.c ****         case 2u:
 408:..\..\BSP/bsp.c ****              reg_val   = BSP_PSOC_PB_2_RD();
 509              		.loc 1 408 0
 510 001c FFF7FEFF 		bl	PB_2_Read
 511 0020 0346     		mov	r3, r0
 512 0022 BB73     		strb	r3, [r7, #14]
 409:..\..\BSP/bsp.c ****              pb_status = DEF_BIT_IS_CLR(reg_val, DEF_BIT_00);
 513              		.loc 1 409 0
 514 0024 BB7B     		ldrb	r3, [r7, #14]	@ zero_extendqisi2
 515 0026 03F00103 		and	r3, r3, #1
 516 002a 002B     		cmp	r3, #0
 517 002c 02D1     		bne	.L34
 518 002e 4FF00103 		mov	r3, #1
 519 0032 01E0     		b	.L35
 520              	.L34:
 521 0034 4FF00003 		mov	r3, #0
 522              	.L35:
 523 0038 FB73     		strb	r3, [r7, #15]
 410:..\..\BSP/bsp.c ****              break;
 524              		.loc 1 410 0
 525 003a 0EE0     		b	.L31
 526              	.L33:
 411:..\..\BSP/bsp.c ****              
 412:..\..\BSP/bsp.c ****         case 3u:
 413:..\..\BSP/bsp.c ****              reg_val   = BSP_PSOC_PB_3_RD();
 527              		.loc 1 413 0
 528 003c FFF7FEFF 		bl	PB_3_Read
 529 0040 0346     		mov	r3, r0
 530 0042 BB73     		strb	r3, [r7, #14]
 414:..\..\BSP/bsp.c ****              pb_status = DEF_BIT_IS_CLR(reg_val, DEF_BIT_00);
 531              		.loc 1 414 0
 532 0044 BB7B     		ldrb	r3, [r7, #14]	@ zero_extendqisi2
 533 0046 03F00103 		and	r3, r3, #1
 534 004a 002B     		cmp	r3, #0
 535 004c 02D1     		bne	.L36
 536 004e 4FF00103 		mov	r3, #1
 537 0052 01E0     		b	.L37
 538              	.L36:
 539 0054 4FF00003 		mov	r3, #0
 540              	.L37:
 541 0058 FB73     		strb	r3, [r7, #15]
 542              	.L31:
 415:..\..\BSP/bsp.c ****              break;
 416:..\..\BSP/bsp.c **** 
 417:..\..\BSP/bsp.c ****         default:
 418:..\..\BSP/bsp.c ****              break;
 419:..\..\BSP/bsp.c ****     }
 420:..\..\BSP/bsp.c **** 
 421:..\..\BSP/bsp.c ****     return (pb_status);
 543              		.loc 1 421 0
 544 005a FB7B     		ldrb	r3, [r7, #15]	@ zero_extendqisi2
ARM GAS  C:\Users\daniel01\AppData\Local\Temp\ccCYjebD.s 			page 18


 422:..\..\BSP/bsp.c **** }
 545              		.loc 1 422 0
 546 005c 1846     		mov	r0, r3
 547 005e 07F11007 		add	r7, r7, #16
 548 0062 BD46     		mov	sp, r7
 549 0064 80BD     		pop	{r7, pc}
 550              		.cfi_endproc
 551              	.LFE7:
 552              		.size	BSP_PB_StatusGet, .-BSP_PB_StatusGet
 553 0066 00BF     		.text
 554              	.Letext0: