ARM GAS  C:\Users\daniel01\AppData\Local\Temp\ccj78Woo.s 			page 1


   1              		.syntax unified
   2              		.cpu cortex-m3
   3              		.fpu softvfp
   4              		.eabi_attribute 20, 1
   5              		.eabi_attribute 21, 1
   6              		.eabi_attribute 23, 3
   7              		.eabi_attribute 24, 1
   8              		.eabi_attribute 25, 1
   9              		.eabi_attribute 26, 1
  10              		.eabi_attribute 30, 6
  11              		.eabi_attribute 18, 4
  12              		.thumb
  13              		.file	"cyfitter_cfg.c"
  20 0000 5E010000 		.text
  20      02006400 
  20      00000201 
  20      FB0E0D00 
  20      01010101 
  21              	.Ltext0:
  22              		.cfi_sections	.debug_frame
  23              		.section	.text.CyClockStartupError,"ax",%progbits
  24              		.align	2
  25              		.thumb
  26              		.thumb_func
  27              		.type	CyClockStartupError, %function
  28              	CyClockStartupError:
  29              	.LFB0:
  30              		.file 1 ".\\Generated_Source\\PSoC5\\cyfitter_cfg.c"
   1:.\Generated_Source\PSoC5/cyfitter_cfg.c **** /*******************************************************************************
   2:.\Generated_Source\PSoC5/cyfitter_cfg.c **** * FILENAME: cyfitter_cfg.c
   3:.\Generated_Source\PSoC5/cyfitter_cfg.c **** * PSoC Creator 2.1 Component Pack 4
   4:.\Generated_Source\PSoC5/cyfitter_cfg.c **** *
   5:.\Generated_Source\PSoC5/cyfitter_cfg.c **** * Description:
   6:.\Generated_Source\PSoC5/cyfitter_cfg.c **** * This file is automatically generated by PSoC Creator with device 
   7:.\Generated_Source\PSoC5/cyfitter_cfg.c **** * initialization code.  Except for the user defined sections in
   8:.\Generated_Source\PSoC5/cyfitter_cfg.c **** * CyClockStartupError(), this file should not be modified.
   9:.\Generated_Source\PSoC5/cyfitter_cfg.c **** *
  10:.\Generated_Source\PSoC5/cyfitter_cfg.c **** ********************************************************************************
  11:.\Generated_Source\PSoC5/cyfitter_cfg.c **** * Copyright 2012, Cypress Semiconductor Corporation.  All rights reserved.
  12:.\Generated_Source\PSoC5/cyfitter_cfg.c **** * You may use this file only in accordance with the license, terms, conditions, 
  13:.\Generated_Source\PSoC5/cyfitter_cfg.c **** * disclaimers, and limitations in the end user license agreement accompanying 
  14:.\Generated_Source\PSoC5/cyfitter_cfg.c **** * the software package with which this file was provided.
  15:.\Generated_Source\PSoC5/cyfitter_cfg.c **** ********************************************************************************/
  16:.\Generated_Source\PSoC5/cyfitter_cfg.c **** 
  17:.\Generated_Source\PSoC5/cyfitter_cfg.c **** #include <string.h>
  18:.\Generated_Source\PSoC5/cyfitter_cfg.c **** #include <cytypes.h>
  19:.\Generated_Source\PSoC5/cyfitter_cfg.c **** #include <cydevice_trm.h>
  20:.\Generated_Source\PSoC5/cyfitter_cfg.c **** #include <cyfitter.h>
  21:.\Generated_Source\PSoC5/cyfitter_cfg.c **** #include <CyLib.h>
  22:.\Generated_Source\PSoC5/cyfitter_cfg.c **** #include <cyfitter_cfg.h>
  23:.\Generated_Source\PSoC5/cyfitter_cfg.c **** 
ARM GAS  C:\Users\daniel01\AppData\Local\Temp\ccj78Woo.s 			page 2


  24:.\Generated_Source\PSoC5/cyfitter_cfg.c **** /* Clock startup error codes                                                   */
  25:.\Generated_Source\PSoC5/cyfitter_cfg.c **** #define CYCLOCKSTART_NO_ERROR    0
  26:.\Generated_Source\PSoC5/cyfitter_cfg.c **** #define CYCLOCKSTART_XTAL_ERROR  1
  27:.\Generated_Source\PSoC5/cyfitter_cfg.c **** #define CYCLOCKSTART_32KHZ_ERROR 2
  28:.\Generated_Source\PSoC5/cyfitter_cfg.c **** #define CYCLOCKSTART_PLL_ERROR   3
  29:.\Generated_Source\PSoC5/cyfitter_cfg.c **** 
  30:.\Generated_Source\PSoC5/cyfitter_cfg.c **** /*******************************************************************************
  31:.\Generated_Source\PSoC5/cyfitter_cfg.c **** * Function Name: CyClockStartupError
  32:.\Generated_Source\PSoC5/cyfitter_cfg.c **** ********************************************************************************
  33:.\Generated_Source\PSoC5/cyfitter_cfg.c **** * Summary:
  34:.\Generated_Source\PSoC5/cyfitter_cfg.c **** *  If an error is encountered during clock configuration (crystal startup error,
  35:.\Generated_Source\PSoC5/cyfitter_cfg.c **** *  PLL lock error, etc) the system will end up here.  Unless reimplemented by 
  36:.\Generated_Source\PSoC5/cyfitter_cfg.c **** *  the customer, an infinite loop will be encountered.
  37:.\Generated_Source\PSoC5/cyfitter_cfg.c **** *
  38:.\Generated_Source\PSoC5/cyfitter_cfg.c **** * Parameters:  
  39:.\Generated_Source\PSoC5/cyfitter_cfg.c **** *   void
  40:.\Generated_Source\PSoC5/cyfitter_cfg.c **** *
  41:.\Generated_Source\PSoC5/cyfitter_cfg.c **** * Return:
  42:.\Generated_Source\PSoC5/cyfitter_cfg.c **** *   void
  43:.\Generated_Source\PSoC5/cyfitter_cfg.c **** *
  44:.\Generated_Source\PSoC5/cyfitter_cfg.c **** *******************************************************************************/
  45:.\Generated_Source\PSoC5/cyfitter_cfg.c **** #if defined(__GNUC__) || defined(__ARMCC_VERSION)
  46:.\Generated_Source\PSoC5/cyfitter_cfg.c **** __attribute__ ((unused))
  47:.\Generated_Source\PSoC5/cyfitter_cfg.c **** #endif
  48:.\Generated_Source\PSoC5/cyfitter_cfg.c **** static void CyClockStartupError(uint8 errorCode)
  49:.\Generated_Source\PSoC5/cyfitter_cfg.c **** {
  31              		.loc 1 49 0
  32              		.cfi_startproc
  33              		@ args = 0, pretend = 0, frame = 8
  34              		@ frame_needed = 1, uses_anonymous_args = 0
  35              		@ link register save eliminated.
  36 0000 80B4     		push	{r7}
  37              	.LCFI0:
  38              		.cfi_def_cfa_offset 4
  39 0002 83B0     		sub	sp, sp, #12
  40              	.LCFI1:
  41              		.cfi_def_cfa_offset 16
  42 0004 00AF     		add	r7, sp, #0
  43              		.cfi_offset 7, -4
  44              	.LCFI2:
  45              		.cfi_def_cfa_register 7
  46 0006 0346     		mov	r3, r0
  47 0008 FB71     		strb	r3, [r7, #7]
  48              	.L2:
  50:.\Generated_Source\PSoC5/cyfitter_cfg.c ****     /* To remove the compiler warning if errorCode not used.                */
  51:.\Generated_Source\PSoC5/cyfitter_cfg.c ****     errorCode = errorCode;
  52:.\Generated_Source\PSoC5/cyfitter_cfg.c **** 
  53:.\Generated_Source\PSoC5/cyfitter_cfg.c ****     /* `#START CyClockStartupError` */
  54:.\Generated_Source\PSoC5/cyfitter_cfg.c **** 
  55:.\Generated_Source\PSoC5/cyfitter_cfg.c ****     /* If we have a clock startup error (bad MHz crystal, PLL lock, etc)    */
  56:.\Generated_Source\PSoC5/cyfitter_cfg.c ****     /* we will end up here to allow the customer to implement something to  */
  57:.\Generated_Source\PSoC5/cyfitter_cfg.c ****     /* deal with the clock condition.                                       */
  58:.\Generated_Source\PSoC5/cyfitter_cfg.c **** 
  59:.\Generated_Source\PSoC5/cyfitter_cfg.c ****     /* `#END` */
  60:.\Generated_Source\PSoC5/cyfitter_cfg.c **** 
  61:.\Generated_Source\PSoC5/cyfitter_cfg.c ****     /* If nothing else, stop here since the clocks have not started         */
  62:.\Generated_Source\PSoC5/cyfitter_cfg.c ****     /* correctly.                                                           */
ARM GAS  C:\Users\daniel01\AppData\Local\Temp\ccj78Woo.s 			page 3


  63:.\Generated_Source\PSoC5/cyfitter_cfg.c ****     while(1) {}
  49              		.loc 1 63 0
  50 000a FEE7     		b	.L2
  51              		.cfi_endproc
  52              	.LFE0:
  53              		.size	CyClockStartupError, .-CyClockStartupError
  54              		.section	.text.cymemzero8,"ax",%progbits
  55              		.align	2
  56              		.thumb
  57              		.thumb_func
  58              		.type	cymemzero8, %function
  59              	cymemzero8:
  60              	.LFB1:
  64:.\Generated_Source\PSoC5/cyfitter_cfg.c **** }
  65:.\Generated_Source\PSoC5/cyfitter_cfg.c **** 
  66:.\Generated_Source\PSoC5/cyfitter_cfg.c **** 
  67:.\Generated_Source\PSoC5/cyfitter_cfg.c **** #undef CYCODE
  68:.\Generated_Source\PSoC5/cyfitter_cfg.c **** #undef CYDATA
  69:.\Generated_Source\PSoC5/cyfitter_cfg.c **** #undef CYXDATA
  70:.\Generated_Source\PSoC5/cyfitter_cfg.c **** #undef CYFAR
  71:.\Generated_Source\PSoC5/cyfitter_cfg.c **** #if defined(__GNUC__) || defined(__ARMCC_VERSION)
  72:.\Generated_Source\PSoC5/cyfitter_cfg.c **** 	#define CYCODE
  73:.\Generated_Source\PSoC5/cyfitter_cfg.c **** 	#define CYDATA
  74:.\Generated_Source\PSoC5/cyfitter_cfg.c **** 	#define CYXDATA
  75:.\Generated_Source\PSoC5/cyfitter_cfg.c **** 	#define CYFAR
  76:.\Generated_Source\PSoC5/cyfitter_cfg.c **** 
  77:.\Generated_Source\PSoC5/cyfitter_cfg.c **** 	#define CYPACKED __attribute__ ((packed))
  78:.\Generated_Source\PSoC5/cyfitter_cfg.c **** 	#define CYALIGNED __attribute__ ((aligned))
  79:.\Generated_Source\PSoC5/cyfitter_cfg.c **** 	
  80:.\Generated_Source\PSoC5/cyfitter_cfg.c **** 	#if defined(__ARMCC_VERSION)
  81:.\Generated_Source\PSoC5/cyfitter_cfg.c **** 		#define CY_CFG_MEMORY_BARRIER() __memory_changed()
  82:.\Generated_Source\PSoC5/cyfitter_cfg.c **** 	#else
  83:.\Generated_Source\PSoC5/cyfitter_cfg.c **** 		#define CY_CFG_MEMORY_BARRIER() __sync_synchronize()
  84:.\Generated_Source\PSoC5/cyfitter_cfg.c **** 	#endif
  85:.\Generated_Source\PSoC5/cyfitter_cfg.c **** 	
  86:.\Generated_Source\PSoC5/cyfitter_cfg.c ****     /*******************************************************************************
  87:.\Generated_Source\PSoC5/cyfitter_cfg.c ****     * Function Name: cymemzero8
  88:.\Generated_Source\PSoC5/cyfitter_cfg.c ****     ********************************************************************************
  89:.\Generated_Source\PSoC5/cyfitter_cfg.c ****     * Summary:
  90:.\Generated_Source\PSoC5/cyfitter_cfg.c ****     *  This function is provided as a way to initialize a block of memory to zero
  91:.\Generated_Source\PSoC5/cyfitter_cfg.c ****     *  one byte at a time.  While this is a 32bit processor, some of the 
  92:.\Generated_Source\PSoC5/cyfitter_cfg.c ****     *  configuration registers are only 8bits wide.  This allows us to initialize
  93:.\Generated_Source\PSoC5/cyfitter_cfg.c ****     *  just the registers we care about.
  94:.\Generated_Source\PSoC5/cyfitter_cfg.c ****     *
  95:.\Generated_Source\PSoC5/cyfitter_cfg.c ****     * Parameters:  
  96:.\Generated_Source\PSoC5/cyfitter_cfg.c ****     *   addr  - The first address to start writing zero to.
  97:.\Generated_Source\PSoC5/cyfitter_cfg.c ****     *   count - The number of bytes to write 0 to.
  98:.\Generated_Source\PSoC5/cyfitter_cfg.c ****     *
  99:.\Generated_Source\PSoC5/cyfitter_cfg.c ****     * Return:
 100:.\Generated_Source\PSoC5/cyfitter_cfg.c ****     *   void
 101:.\Generated_Source\PSoC5/cyfitter_cfg.c ****     *
 102:.\Generated_Source\PSoC5/cyfitter_cfg.c ****     *******************************************************************************/
 103:.\Generated_Source\PSoC5/cyfitter_cfg.c ****     __attribute__ ((unused))
 104:.\Generated_Source\PSoC5/cyfitter_cfg.c ****     static void cymemzero8(void *addr, unsigned int count)
 105:.\Generated_Source\PSoC5/cyfitter_cfg.c ****     {
  61              		.loc 1 105 0
  62              		.cfi_startproc
ARM GAS  C:\Users\daniel01\AppData\Local\Temp\ccj78Woo.s 			page 4


  63              		@ args = 0, pretend = 0, frame = 16
  64              		@ frame_needed = 1, uses_anonymous_args = 0
  65              		@ link register save eliminated.
  66 0000 80B4     		push	{r7}
  67              	.LCFI3:
  68              		.cfi_def_cfa_offset 4
  69 0002 85B0     		sub	sp, sp, #20
  70              	.LCFI4:
  71              		.cfi_def_cfa_offset 24
  72 0004 00AF     		add	r7, sp, #0
  73              		.cfi_offset 7, -4
  74              	.LCFI5:
  75              		.cfi_def_cfa_register 7
  76 0006 7860     		str	r0, [r7, #4]
  77 0008 3960     		str	r1, [r7, #0]
 106:.\Generated_Source\PSoC5/cyfitter_cfg.c **** 	    volatile uint8 *addr8 = (uint8 *)addr;
  78              		.loc 1 106 0
  79 000a 7B68     		ldr	r3, [r7, #4]
  80 000c FB60     		str	r3, [r7, #12]
 107:.\Generated_Source\PSoC5/cyfitter_cfg.c **** 	    while (count--)
  81              		.loc 1 107 0
  82 000e 07E0     		b	.L5
  83              	.L6:
 108:.\Generated_Source\PSoC5/cyfitter_cfg.c **** 	    {
 109:.\Generated_Source\PSoC5/cyfitter_cfg.c **** 		    *addr8 = 0;
  84              		.loc 1 109 0
  85 0010 FB68     		ldr	r3, [r7, #12]
  86 0012 4FF00002 		mov	r2, #0
  87 0016 1A70     		strb	r2, [r3, #0]
 110:.\Generated_Source\PSoC5/cyfitter_cfg.c **** 		    addr8++;
  88              		.loc 1 110 0
  89 0018 FB68     		ldr	r3, [r7, #12]
  90 001a 03F10103 		add	r3, r3, #1
  91 001e FB60     		str	r3, [r7, #12]
  92              	.L5:
  93              		.loc 1 107 0
  94 0020 3B68     		ldr	r3, [r7, #0]
  95 0022 002B     		cmp	r3, #0
  96 0024 0CBF     		ite	eq
  97 0026 0023     		moveq	r3, #0
  98 0028 0123     		movne	r3, #1
  99 002a DBB2     		uxtb	r3, r3
 100 002c 3A68     		ldr	r2, [r7, #0]
 101 002e 02F1FF32 		add	r2, r2, #-1
 102 0032 3A60     		str	r2, [r7, #0]
 103 0034 002B     		cmp	r3, #0
 104 0036 EBD1     		bne	.L6
 111:.\Generated_Source\PSoC5/cyfitter_cfg.c **** 	    }
 112:.\Generated_Source\PSoC5/cyfitter_cfg.c ****     }
 105              		.loc 1 112 0
 106 0038 07F11407 		add	r7, r7, #20
 107 003c BD46     		mov	sp, r7
 108 003e 80BC     		pop	{r7}
 109 0040 7047     		bx	lr
 110              		.cfi_endproc
 111              	.LFE1:
 112              		.size	cymemzero8, .-cymemzero8
ARM GAS  C:\Users\daniel01\AppData\Local\Temp\ccj78Woo.s 			page 5


 113 0042 00BF     		.section	.text.cymemcpy8,"ax",%progbits
 114              		.align	2
 115              		.thumb
 116              		.thumb_func
 117              		.type	cymemcpy8, %function
 118              	cymemcpy8:
 119              	.LFB2:
 113:.\Generated_Source\PSoC5/cyfitter_cfg.c **** 
 114:.\Generated_Source\PSoC5/cyfitter_cfg.c ****     /*******************************************************************************
 115:.\Generated_Source\PSoC5/cyfitter_cfg.c ****     * Function Name: cymemcpy8
 116:.\Generated_Source\PSoC5/cyfitter_cfg.c ****     ********************************************************************************
 117:.\Generated_Source\PSoC5/cyfitter_cfg.c ****     * Summary:
 118:.\Generated_Source\PSoC5/cyfitter_cfg.c ****     *  This function is provided as a way to copy data from one location to another
 119:.\Generated_Source\PSoC5/cyfitter_cfg.c ****     *  one byte at a time.  While this is a 32bit processor, some of the 
 120:.\Generated_Source\PSoC5/cyfitter_cfg.c ****     *  configuration registers are only 8bits wide.  This allows us to initialize
 121:.\Generated_Source\PSoC5/cyfitter_cfg.c ****     *  just the registers we care about.
 122:.\Generated_Source\PSoC5/cyfitter_cfg.c ****     *
 123:.\Generated_Source\PSoC5/cyfitter_cfg.c ****     * Parameters:  
 124:.\Generated_Source\PSoC5/cyfitter_cfg.c ****     *   dest  - The destination address to copy data to.
 125:.\Generated_Source\PSoC5/cyfitter_cfg.c ****     *   src   - The source address to copy data from.
 126:.\Generated_Source\PSoC5/cyfitter_cfg.c ****     *   count - The number of bytes to copy from 'src' to 'dest'.
 127:.\Generated_Source\PSoC5/cyfitter_cfg.c ****     *
 128:.\Generated_Source\PSoC5/cyfitter_cfg.c ****     * Return:
 129:.\Generated_Source\PSoC5/cyfitter_cfg.c ****     *   void
 130:.\Generated_Source\PSoC5/cyfitter_cfg.c ****     *
 131:.\Generated_Source\PSoC5/cyfitter_cfg.c ****     *******************************************************************************/
 132:.\Generated_Source\PSoC5/cyfitter_cfg.c ****     __attribute__ ((unused))
 133:.\Generated_Source\PSoC5/cyfitter_cfg.c ****     static void cymemcpy8(void *dest, const void *src, unsigned int count)
 134:.\Generated_Source\PSoC5/cyfitter_cfg.c ****     {
 120              		.loc 1 134 0
 121              		.cfi_startproc
 122              		@ args = 0, pretend = 0, frame = 24
 123              		@ frame_needed = 1, uses_anonymous_args = 0
 124              		@ link register save eliminated.
 125 0000 80B4     		push	{r7}
 126              	.LCFI6:
 127              		.cfi_def_cfa_offset 4
 128 0002 87B0     		sub	sp, sp, #28
 129              	.LCFI7:
 130              		.cfi_def_cfa_offset 32
 131 0004 00AF     		add	r7, sp, #0
 132              		.cfi_offset 7, -4
 133              	.LCFI8:
 134              		.cfi_def_cfa_register 7
 135 0006 F860     		str	r0, [r7, #12]
 136 0008 B960     		str	r1, [r7, #8]
 137 000a 7A60     		str	r2, [r7, #4]
 135:.\Generated_Source\PSoC5/cyfitter_cfg.c **** 	    volatile uint8 *dest8 = (uint8 *)dest;
 138              		.loc 1 135 0
 139 000c FB68     		ldr	r3, [r7, #12]
 140 000e 3B61     		str	r3, [r7, #16]
 136:.\Generated_Source\PSoC5/cyfitter_cfg.c **** 	    const uint8 *src8 = (const uint8 *)src;
 141              		.loc 1 136 0
 142 0010 BB68     		ldr	r3, [r7, #8]
 143 0012 7B61     		str	r3, [r7, #20]
 137:.\Generated_Source\PSoC5/cyfitter_cfg.c **** 
 138:.\Generated_Source\PSoC5/cyfitter_cfg.c **** 	    while (count--)
ARM GAS  C:\Users\daniel01\AppData\Local\Temp\ccj78Woo.s 			page 6


 144              		.loc 1 138 0
 145 0014 0BE0     		b	.L9
 146              	.L10:
 139:.\Generated_Source\PSoC5/cyfitter_cfg.c **** 	    {
 140:.\Generated_Source\PSoC5/cyfitter_cfg.c **** 		    *dest8 = *src8;
 147              		.loc 1 140 0
 148 0016 7B69     		ldr	r3, [r7, #20]
 149 0018 1A78     		ldrb	r2, [r3, #0]	@ zero_extendqisi2
 150 001a 3B69     		ldr	r3, [r7, #16]
 151 001c 1A70     		strb	r2, [r3, #0]
 141:.\Generated_Source\PSoC5/cyfitter_cfg.c **** 		    dest8++;
 152              		.loc 1 141 0
 153 001e 3B69     		ldr	r3, [r7, #16]
 154 0020 03F10103 		add	r3, r3, #1
 155 0024 3B61     		str	r3, [r7, #16]
 142:.\Generated_Source\PSoC5/cyfitter_cfg.c **** 		    src8++;
 156              		.loc 1 142 0
 157 0026 7B69     		ldr	r3, [r7, #20]
 158 0028 03F10103 		add	r3, r3, #1
 159 002c 7B61     		str	r3, [r7, #20]
 160              	.L9:
 161              		.loc 1 138 0
 162 002e 7B68     		ldr	r3, [r7, #4]
 163 0030 002B     		cmp	r3, #0
 164 0032 0CBF     		ite	eq
 165 0034 0023     		moveq	r3, #0
 166 0036 0123     		movne	r3, #1
 167 0038 DBB2     		uxtb	r3, r3
 168 003a 7A68     		ldr	r2, [r7, #4]
 169 003c 02F1FF32 		add	r2, r2, #-1
 170 0040 7A60     		str	r2, [r7, #4]
 171 0042 002B     		cmp	r3, #0
 172 0044 E7D1     		bne	.L10
 143:.\Generated_Source\PSoC5/cyfitter_cfg.c **** 	    }
 144:.\Generated_Source\PSoC5/cyfitter_cfg.c ****     }
 173              		.loc 1 144 0
 174 0046 07F11C07 		add	r7, r7, #28
 175 004a BD46     		mov	sp, r7
 176 004c 80BC     		pop	{r7}
 177 004e 7047     		bx	lr
 178              		.cfi_endproc
 179              	.LFE2:
 180              		.size	cymemcpy8, .-cymemcpy8
 181              		.section	.rodata
 182              		.align	2
 183              		.type	cfg_memset_list, %object
 184              		.size	cfg_memset_list, 48
 185              	cfg_memset_list:
 186 0000 10510040 		.word	1073762576
 187 0004 1000     		.short	16
 188 0006 30510040 		.4byte	1073762608
 189 000a 3000     		.short	48
 190 000c C0510040 		.word	1073762752
 191 0010 1000     		.short	16
 192 0012 00000140 		.4byte	1073807360
 193 0016 800E     		.short	3712
 194 0018 000F0140 		.word	1073811200
ARM GAS  C:\Users\daniel01\AppData\Local\Temp\ccj78Woo.s 			page 7


 195 001c 0001     		.short	256
 196 001e 00140140 		.4byte	1073812480
 197 0022 0008     		.short	2048
 198 0024 00400140 		.word	1073823744
 199 0028 000A     		.short	2560
 200 002a 004C0140 		.4byte	1073826816
 201 002e 0002     		.short	512
 202              		.align	2
 203              		.type	cfg_memcpy_list, %object
 204              		.size	cfg_memcpy_list, 10
 205              	cfg_memcpy_list:
 206 0030 800E0140 		.word	1073811072
 207 0034 A8020048 		.word	1207960232
 208 0038 8000     		.short	128
 209 003a 0000     		.section	.text.cfg_write_bytes32,"ax",%progbits
 210              		.align	2
 211              		.thumb
 212              		.thumb_func
 213              		.type	cfg_write_bytes32, %function
 214              	cfg_write_bytes32:
 215              	.LFB3:
 145:.\Generated_Source\PSoC5/cyfitter_cfg.c **** 
 146:.\Generated_Source\PSoC5/cyfitter_cfg.c ****     #define CYMEMZERO8(a,c) cymemzero8((a),(c))
 147:.\Generated_Source\PSoC5/cyfitter_cfg.c ****     #define CYCONFIGCPY8(d,s,c) cymemcpy8((d),(s),(c))
 148:.\Generated_Source\PSoC5/cyfitter_cfg.c ****     #define CYCONFIGCPYCODE8(d,s,c) cymemcpy8((d),(s),(c))
 149:.\Generated_Source\PSoC5/cyfitter_cfg.c **** 	
 150:.\Generated_Source\PSoC5/cyfitter_cfg.c **** 	#define CYMEMZERO(a,c) memset((a),0,(c))
 151:.\Generated_Source\PSoC5/cyfitter_cfg.c **** 	#define CYCONFIGCPY(d,s,c) memcpy((d),(s),(c))
 152:.\Generated_Source\PSoC5/cyfitter_cfg.c **** 	#define CYCONFIGCPYCODE(d,s,c) memcpy((d),(s),(c))
 153:.\Generated_Source\PSoC5/cyfitter_cfg.c **** #else
 154:.\Generated_Source\PSoC5/cyfitter_cfg.c **** 	#error Unsupported toolchain
 155:.\Generated_Source\PSoC5/cyfitter_cfg.c **** #endif
 156:.\Generated_Source\PSoC5/cyfitter_cfg.c **** 
 157:.\Generated_Source\PSoC5/cyfitter_cfg.c **** /* Defines the layout and meaning of each entry in the cfg_memset_list used for clearing registers 
 158:.\Generated_Source\PSoC5/cyfitter_cfg.c **** typedef struct {
 159:.\Generated_Source\PSoC5/cyfitter_cfg.c **** 	void CYFAR *address;
 160:.\Generated_Source\PSoC5/cyfitter_cfg.c **** 	uint16 size;
 161:.\Generated_Source\PSoC5/cyfitter_cfg.c **** } CYPACKED cfg_memset_t;
 162:.\Generated_Source\PSoC5/cyfitter_cfg.c **** 
 163:.\Generated_Source\PSoC5/cyfitter_cfg.c **** /* Defines the layout and meaning of each entry in the cfg_memcpy_list used for initializing regist
 164:.\Generated_Source\PSoC5/cyfitter_cfg.c **** typedef struct {
 165:.\Generated_Source\PSoC5/cyfitter_cfg.c **** 	void CYFAR *dest;
 166:.\Generated_Source\PSoC5/cyfitter_cfg.c **** 	const void CYFAR *src;
 167:.\Generated_Source\PSoC5/cyfitter_cfg.c **** 	uint16 size;
 168:.\Generated_Source\PSoC5/cyfitter_cfg.c **** } CYPACKED cfg_memcpy_t;
 169:.\Generated_Source\PSoC5/cyfitter_cfg.c **** 
 170:.\Generated_Source\PSoC5/cyfitter_cfg.c **** /* Contains the regions of memory that must be set to 0 during configuration */
 171:.\Generated_Source\PSoC5/cyfitter_cfg.c **** #define CFG_MEMSET_COUNT (sizeof(cfg_memset_list)/sizeof(*cfg_memset_list))
 172:.\Generated_Source\PSoC5/cyfitter_cfg.c **** static const cfg_memset_t CYCODE cfg_memset_list [] = {
 173:.\Generated_Source\PSoC5/cyfitter_cfg.c **** 	/* address, size */
 174:.\Generated_Source\PSoC5/cyfitter_cfg.c **** 	{(void CYFAR *)(CYREG_PRT1_DR), 16},
 175:.\Generated_Source\PSoC5/cyfitter_cfg.c **** 	{(void CYFAR *)(CYREG_PRT3_DR), 48},
 176:.\Generated_Source\PSoC5/cyfitter_cfg.c **** 	{(void CYFAR *)(CYREG_PRT12_DR), 16},
 177:.\Generated_Source\PSoC5/cyfitter_cfg.c **** 	{(void CYFAR *)(CYDEV_UCFG_B0_P0_U0_BASE), 3712},
 178:.\Generated_Source\PSoC5/cyfitter_cfg.c **** 	{(void CYFAR *)(CYDEV_UCFG_B0_P7_ROUTE_BASE), 256},
 179:.\Generated_Source\PSoC5/cyfitter_cfg.c **** 	{(void CYFAR *)(CYDEV_UCFG_B1_P2_U0_BASE), 2048},
 180:.\Generated_Source\PSoC5/cyfitter_cfg.c **** 	{(void CYFAR *)(CYDEV_UCFG_DSI0_BASE), 2560},
ARM GAS  C:\Users\daniel01\AppData\Local\Temp\ccj78Woo.s 			page 8


 181:.\Generated_Source\PSoC5/cyfitter_cfg.c **** 	{(void CYFAR *)(CYDEV_UCFG_DSI12_BASE), 512},
 182:.\Generated_Source\PSoC5/cyfitter_cfg.c **** };
 183:.\Generated_Source\PSoC5/cyfitter_cfg.c **** 
 184:.\Generated_Source\PSoC5/cyfitter_cfg.c **** #define CY_CFG_BASE_ADDR_COUNT 18
 185:.\Generated_Source\PSoC5/cyfitter_cfg.c **** typedef struct
 186:.\Generated_Source\PSoC5/cyfitter_cfg.c **** {
 187:.\Generated_Source\PSoC5/cyfitter_cfg.c **** 	uint8 offset;
 188:.\Generated_Source\PSoC5/cyfitter_cfg.c **** 	uint8 value;
 189:.\Generated_Source\PSoC5/cyfitter_cfg.c **** } CYPACKED cy_cfg_addrvalue_t;
 190:.\Generated_Source\PSoC5/cyfitter_cfg.c **** 
 191:.\Generated_Source\PSoC5/cyfitter_cfg.c **** #define cy_cfg_addr_table ((const uint32 CYFAR *)0x48000000)
 192:.\Generated_Source\PSoC5/cyfitter_cfg.c **** #define cy_cfg_data_table ((const cy_cfg_addrvalue_t CYFAR *)0x48000048)
 193:.\Generated_Source\PSoC5/cyfitter_cfg.c **** 
 194:.\Generated_Source\PSoC5/cyfitter_cfg.c **** /* UDB_0_5_1_CONFIG Address: CYDEV_UCFG_B0_P7_U1_BASE Size (bytes): 128 */
 195:.\Generated_Source\PSoC5/cyfitter_cfg.c **** #define BS_UDB_0_5_1_CONFIG_VAL ((const uint8 CYFAR *)0x480002A8)
 196:.\Generated_Source\PSoC5/cyfitter_cfg.c **** 
 197:.\Generated_Source\PSoC5/cyfitter_cfg.c **** /* IOPINS0_0 Address: CYREG_PRT0_DM0 Size (bytes): 8 */
 198:.\Generated_Source\PSoC5/cyfitter_cfg.c **** #define BS_IOPINS0_0_VAL ((const uint8 CYFAR *)0x48000328)
 199:.\Generated_Source\PSoC5/cyfitter_cfg.c **** 
 200:.\Generated_Source\PSoC5/cyfitter_cfg.c **** /* IOPINS0_8 Address: CYREG_PRT15_DR Size (bytes): 10 */
 201:.\Generated_Source\PSoC5/cyfitter_cfg.c **** #define BS_IOPINS0_8_VAL ((const uint8 CYFAR *)0x48000330)
 202:.\Generated_Source\PSoC5/cyfitter_cfg.c **** 
 203:.\Generated_Source\PSoC5/cyfitter_cfg.c **** /* IOPINS0_2 Address: CYREG_PRT2_DM0 Size (bytes): 8 */
 204:.\Generated_Source\PSoC5/cyfitter_cfg.c **** #define BS_IOPINS0_2_VAL ((const uint8 CYFAR *)0x4800033C)
 205:.\Generated_Source\PSoC5/cyfitter_cfg.c **** 
 206:.\Generated_Source\PSoC5/cyfitter_cfg.c **** /* IOPINS0_6 Address: CYREG_PRT6_DR Size (bytes): 10 */
 207:.\Generated_Source\PSoC5/cyfitter_cfg.c **** #define BS_IOPINS0_6_VAL ((const uint8 CYFAR *)0x48000344)
 208:.\Generated_Source\PSoC5/cyfitter_cfg.c **** 
 209:.\Generated_Source\PSoC5/cyfitter_cfg.c **** /* IOPORT_0 Address: CYDEV_PRTDSI_PRT0_BASE Size (bytes): 7 */
 210:.\Generated_Source\PSoC5/cyfitter_cfg.c **** #define BS_IOPORT_0_VAL ((const uint8 CYFAR *)0x48000350)
 211:.\Generated_Source\PSoC5/cyfitter_cfg.c **** 
 212:.\Generated_Source\PSoC5/cyfitter_cfg.c **** /* IOPORT_6 Address: CYDEV_PRTDSI_PRT6_BASE Size (bytes): 7 */
 213:.\Generated_Source\PSoC5/cyfitter_cfg.c **** #define BS_IOPORT_6_VAL ((const uint8 CYFAR *)0x48000358)
 214:.\Generated_Source\PSoC5/cyfitter_cfg.c **** 
 215:.\Generated_Source\PSoC5/cyfitter_cfg.c **** /* IOPORT_8 Address: CYDEV_PRTDSI_PRT15_BASE Size (bytes): 7 */
 216:.\Generated_Source\PSoC5/cyfitter_cfg.c **** #define BS_IOPORT_8_VAL ((const uint8 CYFAR *)0x48000360)
 217:.\Generated_Source\PSoC5/cyfitter_cfg.c **** 
 218:.\Generated_Source\PSoC5/cyfitter_cfg.c **** #define CFG_MEMCPY_COUNT (sizeof(cfg_memcpy_list)/sizeof(*cfg_memcpy_list))
 219:.\Generated_Source\PSoC5/cyfitter_cfg.c **** static const cfg_memcpy_t CYCODE cfg_memcpy_list [] = {
 220:.\Generated_Source\PSoC5/cyfitter_cfg.c **** 	/* dest, src, size */
 221:.\Generated_Source\PSoC5/cyfitter_cfg.c **** 	{(void CYFAR *)(CYDEV_UCFG_B0_P7_U1_BASE), BS_UDB_0_5_1_CONFIG_VAL, 128},
 222:.\Generated_Source\PSoC5/cyfitter_cfg.c **** };
 223:.\Generated_Source\PSoC5/cyfitter_cfg.c **** 
 224:.\Generated_Source\PSoC5/cyfitter_cfg.c **** 
 225:.\Generated_Source\PSoC5/cyfitter_cfg.c **** /*******************************************************************************
 226:.\Generated_Source\PSoC5/cyfitter_cfg.c **** * Function Name: cfg_write_bytes32
 227:.\Generated_Source\PSoC5/cyfitter_cfg.c **** ********************************************************************************
 228:.\Generated_Source\PSoC5/cyfitter_cfg.c **** * Summary:
 229:.\Generated_Source\PSoC5/cyfitter_cfg.c **** *  This function is used for setting up the chip configuration areas that 
 230:.\Generated_Source\PSoC5/cyfitter_cfg.c **** *  contain relativly sparse data.
 231:.\Generated_Source\PSoC5/cyfitter_cfg.c **** *
 232:.\Generated_Source\PSoC5/cyfitter_cfg.c **** * Parameters:  
 233:.\Generated_Source\PSoC5/cyfitter_cfg.c **** *   void
 234:.\Generated_Source\PSoC5/cyfitter_cfg.c **** *
 235:.\Generated_Source\PSoC5/cyfitter_cfg.c **** * Return:
 236:.\Generated_Source\PSoC5/cyfitter_cfg.c **** *   void
 237:.\Generated_Source\PSoC5/cyfitter_cfg.c **** *
ARM GAS  C:\Users\daniel01\AppData\Local\Temp\ccj78Woo.s 			page 9


 238:.\Generated_Source\PSoC5/cyfitter_cfg.c **** *******************************************************************************/
 239:.\Generated_Source\PSoC5/cyfitter_cfg.c **** /* For 32-bit little-endian architectures */
 240:.\Generated_Source\PSoC5/cyfitter_cfg.c **** static void cfg_write_bytes32(void)
 241:.\Generated_Source\PSoC5/cyfitter_cfg.c **** {
 216              		.loc 1 241 0
 217              		.cfi_startproc
 218              		@ args = 0, pretend = 0, frame = 16
 219              		@ frame_needed = 1, uses_anonymous_args = 0
 220              		@ link register save eliminated.
 221 0000 80B4     		push	{r7}
 222              	.LCFI9:
 223              		.cfi_def_cfa_offset 4
 224 0002 85B0     		sub	sp, sp, #20
 225              	.LCFI10:
 226              		.cfi_def_cfa_offset 24
 227 0004 00AF     		add	r7, sp, #0
 228              		.cfi_offset 7, -4
 229              	.LCFI11:
 230              		.cfi_def_cfa_register 7
 242:.\Generated_Source\PSoC5/cyfitter_cfg.c **** 	unsigned int i, j = 0;
 231              		.loc 1 242 0
 232 0006 4FF00003 		mov	r3, #0
 233 000a 7B60     		str	r3, [r7, #4]
 243:.\Generated_Source\PSoC5/cyfitter_cfg.c **** 	for (i = 0; i < CY_CFG_BASE_ADDR_COUNT; i++)
 234              		.loc 1 243 0
 235 000c 4FF00003 		mov	r3, #0
 236 0010 3B60     		str	r3, [r7, #0]
 237 0012 36E0     		b	.L13
 238              	.L16:
 239              	.LBB2:
 244:.\Generated_Source\PSoC5/cyfitter_cfg.c **** 	{
 245:.\Generated_Source\PSoC5/cyfitter_cfg.c **** 		uint32 baseAddr = cy_cfg_addr_table[i];
 240              		.loc 1 245 0
 241 0014 3B68     		ldr	r3, [r7, #0]
 242 0016 4FEA8303 		lsl	r3, r3, #2
 243 001a 03F19043 		add	r3, r3, #1207959552
 244 001e 1B68     		ldr	r3, [r3, #0]
 245 0020 BB60     		str	r3, [r7, #8]
 246:.\Generated_Source\PSoC5/cyfitter_cfg.c **** 		uint8 count = baseAddr & 0xFFu;
 246              		.loc 1 246 0
 247 0022 BB68     		ldr	r3, [r7, #8]
 248 0024 FB73     		strb	r3, [r7, #15]
 247:.\Generated_Source\PSoC5/cyfitter_cfg.c **** 		baseAddr &= 0xFFFFFF00u;
 249              		.loc 1 247 0
 250 0026 BB68     		ldr	r3, [r7, #8]
 251 0028 23F0FF03 		bic	r3, r3, #255
 252 002c BB60     		str	r3, [r7, #8]
 248:.\Generated_Source\PSoC5/cyfitter_cfg.c **** 		while (count--)
 253              		.loc 1 248 0
 254 002e 18E0     		b	.L14
 255              	.L15:
 249:.\Generated_Source\PSoC5/cyfitter_cfg.c **** 		{
 250:.\Generated_Source\PSoC5/cyfitter_cfg.c **** 			CY_SET_XTND_REG8((void CYFAR *)(baseAddr + cy_cfg_data_table[j].offset), cy_cfg_data_table[j].va
 256              		.loc 1 250 0
 257 0030 7B68     		ldr	r3, [r7, #4]
 258 0032 4FEA4303 		lsl	r3, r3, #1
 259 0036 03F19043 		add	r3, r3, #1207959552
ARM GAS  C:\Users\daniel01\AppData\Local\Temp\ccj78Woo.s 			page 10


 260 003a 03F14803 		add	r3, r3, #72
 261 003e 1B78     		ldrb	r3, [r3, #0]	@ zero_extendqisi2
 262 0040 1A46     		mov	r2, r3
 263 0042 BB68     		ldr	r3, [r7, #8]
 264 0044 1344     		add	r3, r2, r3
 265 0046 1A46     		mov	r2, r3
 266 0048 7B68     		ldr	r3, [r7, #4]
 267 004a 4FEA4303 		lsl	r3, r3, #1
 268 004e 03F19043 		add	r3, r3, #1207959552
 269 0052 03F14803 		add	r3, r3, #72
 270 0056 5B78     		ldrb	r3, [r3, #1]	@ zero_extendqisi2
 271 0058 1370     		strb	r3, [r2, #0]
 251:.\Generated_Source\PSoC5/cyfitter_cfg.c **** 			j++;
 272              		.loc 1 251 0
 273 005a 7B68     		ldr	r3, [r7, #4]
 274 005c 03F10103 		add	r3, r3, #1
 275 0060 7B60     		str	r3, [r7, #4]
 276              	.L14:
 277              		.loc 1 248 0
 278 0062 FB7B     		ldrb	r3, [r7, #15]	@ zero_extendqisi2
 279 0064 002B     		cmp	r3, #0
 280 0066 0CBF     		ite	eq
 281 0068 0023     		moveq	r3, #0
 282 006a 0123     		movne	r3, #1
 283 006c DBB2     		uxtb	r3, r3
 284 006e FA7B     		ldrb	r2, [r7, #15]
 285 0070 02F1FF32 		add	r2, r2, #-1
 286 0074 FA73     		strb	r2, [r7, #15]
 287 0076 002B     		cmp	r3, #0
 288 0078 DAD1     		bne	.L15
 289              	.LBE2:
 290              		.loc 1 243 0
 291 007a 3B68     		ldr	r3, [r7, #0]
 292 007c 03F10103 		add	r3, r3, #1
 293 0080 3B60     		str	r3, [r7, #0]
 294              	.L13:
 295 0082 3B68     		ldr	r3, [r7, #0]
 296 0084 112B     		cmp	r3, #17
 297 0086 C5D9     		bls	.L16
 252:.\Generated_Source\PSoC5/cyfitter_cfg.c **** 		}
 253:.\Generated_Source\PSoC5/cyfitter_cfg.c **** 	}
 254:.\Generated_Source\PSoC5/cyfitter_cfg.c **** }
 298              		.loc 1 254 0
 299 0088 07F11407 		add	r7, r7, #20
 300 008c BD46     		mov	sp, r7
 301 008e 80BC     		pop	{r7}
 302 0090 7047     		bx	lr
 303              		.cfi_endproc
 304              	.LFE3:
 305              		.size	cfg_write_bytes32, .-cfg_write_bytes32
 306 0092 00BF     		.section	.text.ClockSetup,"ax",%progbits
 307              		.align	2
 308              		.thumb
 309              		.thumb_func
 310              		.type	ClockSetup, %function
 311              	ClockSetup:
 312              	.LFB4:
ARM GAS  C:\Users\daniel01\AppData\Local\Temp\ccj78Woo.s 			page 11


 255:.\Generated_Source\PSoC5/cyfitter_cfg.c **** 
 256:.\Generated_Source\PSoC5/cyfitter_cfg.c **** /*******************************************************************************
 257:.\Generated_Source\PSoC5/cyfitter_cfg.c **** * Function Name: ClockSetup
 258:.\Generated_Source\PSoC5/cyfitter_cfg.c **** ********************************************************************************
 259:.\Generated_Source\PSoC5/cyfitter_cfg.c **** *
 260:.\Generated_Source\PSoC5/cyfitter_cfg.c **** * Summary:
 261:.\Generated_Source\PSoC5/cyfitter_cfg.c **** *  Performs the initialization of all of the clocks in the device based on the
 262:.\Generated_Source\PSoC5/cyfitter_cfg.c **** *  settings in the Clock tab of the DWR.  This includes enabling the requested
 263:.\Generated_Source\PSoC5/cyfitter_cfg.c **** *  clocks and setting the necessary dividers to produce the desired frequency. 
 264:.\Generated_Source\PSoC5/cyfitter_cfg.c **** *
 265:.\Generated_Source\PSoC5/cyfitter_cfg.c **** * Parameters:
 266:.\Generated_Source\PSoC5/cyfitter_cfg.c **** *  void
 267:.\Generated_Source\PSoC5/cyfitter_cfg.c **** *
 268:.\Generated_Source\PSoC5/cyfitter_cfg.c **** * Return:
 269:.\Generated_Source\PSoC5/cyfitter_cfg.c **** *  void
 270:.\Generated_Source\PSoC5/cyfitter_cfg.c **** *
 271:.\Generated_Source\PSoC5/cyfitter_cfg.c **** *******************************************************************************/
 272:.\Generated_Source\PSoC5/cyfitter_cfg.c **** static void ClockSetup(void)
 273:.\Generated_Source\PSoC5/cyfitter_cfg.c **** {
 313              		.loc 1 273 0
 314              		.cfi_startproc
 315              		@ args = 0, pretend = 0, frame = 16
 316              		@ frame_needed = 1, uses_anonymous_args = 0
 317 0000 80B5     		push	{r7, lr}
 318              	.LCFI12:
 319              		.cfi_def_cfa_offset 8
 320 0002 84B0     		sub	sp, sp, #16
 321              	.LCFI13:
 322              		.cfi_def_cfa_offset 24
 323 0004 00AF     		add	r7, sp, #0
 324              		.cfi_offset 14, -4
 325              		.cfi_offset 7, -8
 326              	.LCFI14:
 327              		.cfi_def_cfa_register 7
 274:.\Generated_Source\PSoC5/cyfitter_cfg.c **** 	reg32  timeout;
 275:.\Generated_Source\PSoC5/cyfitter_cfg.c **** 	reg32* timeout_p = &timeout;
 328              		.loc 1 275 0
 329 0006 07F10803 		add	r3, r7, #8
 330 000a FB60     		str	r3, [r7, #12]
 276:.\Generated_Source\PSoC5/cyfitter_cfg.c **** 	reg8   pllLock;
 277:.\Generated_Source\PSoC5/cyfitter_cfg.c **** 
 278:.\Generated_Source\PSoC5/cyfitter_cfg.c **** 
 279:.\Generated_Source\PSoC5/cyfitter_cfg.c **** 	/* Configure Digital Clocks based on settings from Clock DWR */
 280:.\Generated_Source\PSoC5/cyfitter_cfg.c **** 	CY_SET_XTND_REG24((void CYFAR *)(CYREG_CLKDIST_DCFG0_CFG0), 0x18030C);
 331              		.loc 1 280 0
 332 000c 44F28000 		movw	r0, #:lower16:1073758336
 333 0010 C4F20000 		movt	r0, #:upper16:1073758336
 334 0014 40F20C31 		movw	r1, #:lower16:1573644
 335 0018 C0F21801 		movt	r1, #:upper16:1573644
 336 001c FFF7FEFF 		bl	CySetReg24
 281:.\Generated_Source\PSoC5/cyfitter_cfg.c **** 
 282:.\Generated_Source\PSoC5/cyfitter_cfg.c **** 	/* Configure ILO based on settings from Clock DWR */
 283:.\Generated_Source\PSoC5/cyfitter_cfg.c **** 	CY_SET_XTND_REG8((void CYFAR *)(CYREG_SLOWCLK_ILO_CR0), 0x02);
 337              		.loc 1 283 0
 338 0020 44F20033 		movw	r3, #:lower16:1073758976
 339 0024 C4F20003 		movt	r3, #:upper16:1073758976
 340 0028 4FF00202 		mov	r2, #2
ARM GAS  C:\Users\daniel01\AppData\Local\Temp\ccj78Woo.s 			page 12


 341 002c 1A70     		strb	r2, [r3, #0]
 284:.\Generated_Source\PSoC5/cyfitter_cfg.c **** 	CY_SET_XTND_REG8((void CYFAR *)(CYREG_CLKDIST_CR), 0x08);
 342              		.loc 1 284 0
 343 002e 44F20003 		movw	r3, #:lower16:1073758208
 344 0032 C4F20003 		movt	r3, #:upper16:1073758208
 345 0036 4FF00802 		mov	r2, #8
 346 003a 1A70     		strb	r2, [r3, #0]
 285:.\Generated_Source\PSoC5/cyfitter_cfg.c **** 
 286:.\Generated_Source\PSoC5/cyfitter_cfg.c **** 	/* Configure IMO based on settings from Clock DWR */
 287:.\Generated_Source\PSoC5/cyfitter_cfg.c **** 	CY_SET_XTND_REG8((void CYFAR *)(CYREG_FASTCLK_IMO_CR), 0x03);
 347              		.loc 1 287 0
 348 003c 44F20023 		movw	r3, #:lower16:1073758720
 349 0040 C4F20003 		movt	r3, #:upper16:1073758720
 350 0044 4FF00302 		mov	r2, #3
 351 0048 1A70     		strb	r2, [r3, #0]
 288:.\Generated_Source\PSoC5/cyfitter_cfg.c **** 	CY_SET_XTND_REG8((void CYFAR *)(CYREG_IMO_TR1), (CY_GET_XTND_REG8(CYREG_FLSHID_CUST_TABLES_IMO_3MH
 352              		.loc 1 288 0
 353 004a 44F2A163 		movw	r3, #:lower16:1073759905
 354 004e C4F20003 		movt	r3, #:upper16:1073759905
 355 0052 40F20812 		movw	r2, #:lower16:1224737032
 356 0056 C4F60012 		movt	r2, #:upper16:1224737032
 357 005a 1278     		ldrb	r2, [r2, #0]
 358 005c D2B2     		uxtb	r2, r2
 359 005e 1A70     		strb	r2, [r3, #0]
 289:.\Generated_Source\PSoC5/cyfitter_cfg.c **** 
 290:.\Generated_Source\PSoC5/cyfitter_cfg.c **** 	/* Configure PLL based on settings from Clock DWR */
 291:.\Generated_Source\PSoC5/cyfitter_cfg.c **** 	CY_SET_XTND_REG16((void CYFAR *)(CYREG_FASTCLK_PLL_P), 0x0014);
 360              		.loc 1 291 0
 361 0060 44F22223 		movw	r3, #:lower16:1073758754
 362 0064 C4F20003 		movt	r3, #:upper16:1073758754
 363 0068 4FF01402 		mov	r2, #20
 364 006c 1A80     		strh	r2, [r3, #0]	@ movhi
 292:.\Generated_Source\PSoC5/cyfitter_cfg.c **** 	CY_SET_XTND_REG16((void CYFAR *)(CYREG_FASTCLK_PLL_CFG0), 0x1051);
 365              		.loc 1 292 0
 366 006e 44F22023 		movw	r3, #:lower16:1073758752
 367 0072 C4F20003 		movt	r3, #:upper16:1073758752
 368 0076 41F25102 		movw	r2, #4177
 369 007a 1A80     		strh	r2, [r3, #0]	@ movhi
 293:.\Generated_Source\PSoC5/cyfitter_cfg.c **** 	/* Wait up to 250us for the PLL to lock */
 294:.\Generated_Source\PSoC5/cyfitter_cfg.c **** 	pllLock = 0;
 370              		.loc 1 294 0
 371 007c 4FF00003 		mov	r3, #0
 372 0080 FB71     		strb	r3, [r7, #7]
 295:.\Generated_Source\PSoC5/cyfitter_cfg.c **** 	for (timeout = 250 / 10; *timeout_p && (pllLock != 0x03u); timeout--) { 
 373              		.loc 1 295 0
 374 0082 4FF01903 		mov	r3, #25
 375 0086 BB60     		str	r3, [r7, #8]
 376 0088 1AE0     		b	.L19
 377              	.L21:
 296:.\Generated_Source\PSoC5/cyfitter_cfg.c **** 		pllLock = 0x03u & ((pllLock << 1) | ((CY_GET_XTND_REG8(CYREG_FASTCLK_PLL_SR) & 0x01u) >> 0));
 378              		.loc 1 296 0
 379 008a FB79     		ldrb	r3, [r7, #7]
 380 008c DBB2     		uxtb	r3, r3
 381 008e 4FEA4303 		lsl	r3, r3, #1
 382 0092 DAB2     		uxtb	r2, r3
 383 0094 44F22523 		movw	r3, #:lower16:1073758757
 384 0098 C4F20003 		movt	r3, #:upper16:1073758757
ARM GAS  C:\Users\daniel01\AppData\Local\Temp\ccj78Woo.s 			page 13


 385 009c 1B78     		ldrb	r3, [r3, #0]
 386 009e DBB2     		uxtb	r3, r3
 387 00a0 03F00103 		and	r3, r3, #1
 388 00a4 42EA0303 		orr	r3, r2, r3
 389 00a8 DBB2     		uxtb	r3, r3
 390 00aa 03F00303 		and	r3, r3, #3
 391 00ae FB71     		strb	r3, [r7, #7]
 297:.\Generated_Source\PSoC5/cyfitter_cfg.c **** 		CyDelayCycles(10 * 12); /* Delay 10us based on 12MHz clock */
 392              		.loc 1 297 0
 393 00b0 4FF07800 		mov	r0, #120
 394 00b4 FFF7FEFF 		bl	CyDelayCycles
 395              		.loc 1 295 0
 396 00b8 BB68     		ldr	r3, [r7, #8]
 397 00ba 03F1FF33 		add	r3, r3, #-1
 398 00be BB60     		str	r3, [r7, #8]
 399              	.L19:
 400 00c0 FB68     		ldr	r3, [r7, #12]
 401 00c2 1B68     		ldr	r3, [r3, #0]
 402 00c4 002B     		cmp	r3, #0
 403 00c6 03D0     		beq	.L20
 404 00c8 FB79     		ldrb	r3, [r7, #7]
 405 00ca DBB2     		uxtb	r3, r3
 406 00cc 032B     		cmp	r3, #3
 407 00ce DCD1     		bne	.L21
 408              	.L20:
 298:.\Generated_Source\PSoC5/cyfitter_cfg.c **** 	}
 299:.\Generated_Source\PSoC5/cyfitter_cfg.c **** 
 300:.\Generated_Source\PSoC5/cyfitter_cfg.c **** 	/* Configure Bus/Master Clock based on settings from Clock DWR */
 301:.\Generated_Source\PSoC5/cyfitter_cfg.c **** 	CY_SET_XTND_REG8((void CYFAR *)(CYREG_CLKDIST_MSTR0), 0x03);
 409              		.loc 1 301 0
 410 00d0 44F20403 		movw	r3, #:lower16:1073758212
 411 00d4 C4F20003 		movt	r3, #:upper16:1073758212
 412 00d8 4FF00302 		mov	r2, #3
 413 00dc 1A70     		strb	r2, [r3, #0]
 302:.\Generated_Source\PSoC5/cyfitter_cfg.c **** 	CY_SET_XTND_REG8((void CYFAR *)(CYREG_CLKDIST_MSTR1), 0x01);
 414              		.loc 1 302 0
 415 00de 44F20503 		movw	r3, #:lower16:1073758213
 416 00e2 C4F20003 		movt	r3, #:upper16:1073758213
 417 00e6 4FF00102 		mov	r2, #1
 418 00ea 1A70     		strb	r2, [r3, #0]
 303:.\Generated_Source\PSoC5/cyfitter_cfg.c **** 	CY_SET_XTND_REG8((void CYFAR *)(CYREG_CLKDIST_MSTR0), 0x00);
 419              		.loc 1 303 0
 420 00ec 44F20403 		movw	r3, #:lower16:1073758212
 421 00f0 C4F20003 		movt	r3, #:upper16:1073758212
 422 00f4 4FF00002 		mov	r2, #0
 423 00f8 1A70     		strb	r2, [r3, #0]
 304:.\Generated_Source\PSoC5/cyfitter_cfg.c **** 	CY_SET_XTND_REG8((void CYFAR *)(CYREG_CLKDIST_MSTR0), 0x07);
 424              		.loc 1 304 0
 425 00fa 44F20403 		movw	r3, #:lower16:1073758212
 426 00fe C4F20003 		movt	r3, #:upper16:1073758212
 427 0102 4FF00702 		mov	r2, #7
 428 0106 1A70     		strb	r2, [r3, #0]
 305:.\Generated_Source\PSoC5/cyfitter_cfg.c **** 	CY_SET_XTND_REG8((void CYFAR *)(CYREG_CLKDIST_BCFG0), 0x00);
 429              		.loc 1 305 0
 430 0108 44F20603 		movw	r3, #:lower16:1073758214
 431 010c C4F20003 		movt	r3, #:upper16:1073758214
 432 0110 4FF00002 		mov	r2, #0
ARM GAS  C:\Users\daniel01\AppData\Local\Temp\ccj78Woo.s 			page 14


 433 0114 1A70     		strb	r2, [r3, #0]
 306:.\Generated_Source\PSoC5/cyfitter_cfg.c **** 	CY_SET_XTND_REG8((void CYFAR *)(CYREG_CLKDIST_BCFG2), 0x48);
 434              		.loc 1 306 0
 435 0116 44F20803 		movw	r3, #:lower16:1073758216
 436 011a C4F20003 		movt	r3, #:upper16:1073758216
 437 011e 4FF04802 		mov	r2, #72
 438 0122 1A70     		strb	r2, [r3, #0]
 307:.\Generated_Source\PSoC5/cyfitter_cfg.c **** 	CY_SET_XTND_REG8((void CYFAR *)(CYREG_CLKDIST_MSTR0), 0x00);
 439              		.loc 1 307 0
 440 0124 44F20403 		movw	r3, #:lower16:1073758212
 441 0128 C4F20003 		movt	r3, #:upper16:1073758212
 442 012c 4FF00002 		mov	r2, #0
 443 0130 1A70     		strb	r2, [r3, #0]
 308:.\Generated_Source\PSoC5/cyfitter_cfg.c **** 	CY_SET_XTND_REG8((void CYFAR *)(CYREG_CLKDIST_LD), 0x02);
 444              		.loc 1 308 0
 445 0132 44F20103 		movw	r3, #:lower16:1073758209
 446 0136 C4F20003 		movt	r3, #:upper16:1073758209
 447 013a 4FF00202 		mov	r2, #2
 448 013e 1A70     		strb	r2, [r3, #0]
 309:.\Generated_Source\PSoC5/cyfitter_cfg.c **** 
 310:.\Generated_Source\PSoC5/cyfitter_cfg.c **** 	CY_SET_XTND_REG8((void CYFAR *)(CYREG_PM_ACT_CFG2), ((CY_GET_XTND_REG8(CYREG_PM_ACT_CFG2) | 0x01))
 449              		.loc 1 310 0
 450 0140 44F2A233 		movw	r3, #:lower16:1073759138
 451 0144 C4F20003 		movt	r3, #:upper16:1073759138
 452 0148 44F2A232 		movw	r2, #:lower16:1073759138
 453 014c C4F20002 		movt	r2, #:upper16:1073759138
 454 0150 1278     		ldrb	r2, [r2, #0]
 455 0152 D2B2     		uxtb	r2, r2
 456 0154 42F00102 		orr	r2, r2, #1
 457 0158 D2B2     		uxtb	r2, r2
 458 015a 1A70     		strb	r2, [r3, #0]
 311:.\Generated_Source\PSoC5/cyfitter_cfg.c **** }
 459              		.loc 1 311 0
 460 015c 07F11007 		add	r7, r7, #16
 461 0160 BD46     		mov	sp, r7
 462 0162 80BD     		pop	{r7, pc}
 463              		.cfi_endproc
 464              	.LFE4:
 465              		.size	ClockSetup, .-ClockSetup
 466              		.section	.text.AnalogSetDefault,"ax",%progbits
 467              		.align	2
 468              		.global	AnalogSetDefault
 469              		.thumb
 470              		.thumb_func
 471              		.type	AnalogSetDefault, %function
 472              	AnalogSetDefault:
 473              	.LFB5:
 312:.\Generated_Source\PSoC5/cyfitter_cfg.c **** 
 313:.\Generated_Source\PSoC5/cyfitter_cfg.c **** 
 314:.\Generated_Source\PSoC5/cyfitter_cfg.c **** /* Analog API Functions */
 315:.\Generated_Source\PSoC5/cyfitter_cfg.c **** 
 316:.\Generated_Source\PSoC5/cyfitter_cfg.c **** /*******************************************************************************
 317:.\Generated_Source\PSoC5/cyfitter_cfg.c **** * Function Name: AnalogSetDefault
 318:.\Generated_Source\PSoC5/cyfitter_cfg.c **** ********************************************************************************
 319:.\Generated_Source\PSoC5/cyfitter_cfg.c **** *
 320:.\Generated_Source\PSoC5/cyfitter_cfg.c **** * Summary:
 321:.\Generated_Source\PSoC5/cyfitter_cfg.c **** *  Sets up the analog portions of the chip to default values based on chip
ARM GAS  C:\Users\daniel01\AppData\Local\Temp\ccj78Woo.s 			page 15


 322:.\Generated_Source\PSoC5/cyfitter_cfg.c **** *  configuration options from the project.
 323:.\Generated_Source\PSoC5/cyfitter_cfg.c **** *
 324:.\Generated_Source\PSoC5/cyfitter_cfg.c **** * Parameters:
 325:.\Generated_Source\PSoC5/cyfitter_cfg.c **** *  void
 326:.\Generated_Source\PSoC5/cyfitter_cfg.c **** *
 327:.\Generated_Source\PSoC5/cyfitter_cfg.c **** * Return:
 328:.\Generated_Source\PSoC5/cyfitter_cfg.c **** *  void
 329:.\Generated_Source\PSoC5/cyfitter_cfg.c **** *
 330:.\Generated_Source\PSoC5/cyfitter_cfg.c **** *******************************************************************************/
 331:.\Generated_Source\PSoC5/cyfitter_cfg.c **** void AnalogSetDefault(void)
 332:.\Generated_Source\PSoC5/cyfitter_cfg.c **** {
 474              		.loc 1 332 0
 475              		.cfi_startproc
 476              		@ args = 0, pretend = 0, frame = 0
 477              		@ frame_needed = 1, uses_anonymous_args = 0
 478              		@ link register save eliminated.
 479 0000 80B4     		push	{r7}
 480              	.LCFI15:
 481              		.cfi_def_cfa_offset 4
 482 0002 00AF     		add	r7, sp, #0
 483              		.cfi_offset 7, -4
 484              	.LCFI16:
 485              		.cfi_def_cfa_register 7
 333:.\Generated_Source\PSoC5/cyfitter_cfg.c **** 	CY_SET_XTND_REG16(CYREG_PM_ACT_CFG10, 0x0310);
 486              		.loc 1 333 0
 487 0004 44F2AA33 		movw	r3, #:lower16:1073759146
 488 0008 C4F20003 		movt	r3, #:upper16:1073759146
 489 000c 4FF44472 		mov	r2, #784
 490 0010 1A80     		strh	r2, [r3, #0]	@ movhi
 334:.\Generated_Source\PSoC5/cyfitter_cfg.c **** 	CY_SET_XTND_REG8(CYREG_DAC0_CR0, 0x1E);
 491              		.loc 1 334 0
 492 0012 45F62003 		movw	r3, #:lower16:1073764384
 493 0016 C4F20003 		movt	r3, #:upper16:1073764384
 494 001a 4FF01E02 		mov	r2, #30
 495 001e 1A70     		strb	r2, [r3, #0]
 335:.\Generated_Source\PSoC5/cyfitter_cfg.c **** 	CY_SET_XTND_REG8(CYREG_DAC1_CR0, 0x1E);
 496              		.loc 1 335 0
 497 0020 45F62403 		movw	r3, #:lower16:1073764388
 498 0024 C4F20003 		movt	r3, #:upper16:1073764388
 499 0028 4FF01E02 		mov	r2, #30
 500 002c 1A70     		strb	r2, [r3, #0]
 336:.\Generated_Source\PSoC5/cyfitter_cfg.c **** 	CY_SET_XTND_REG8(CYREG_DAC2_CR0, 0x1E);
 501              		.loc 1 336 0
 502 002e 45F62803 		movw	r3, #:lower16:1073764392
 503 0032 C4F20003 		movt	r3, #:upper16:1073764392
 504 0036 4FF01E02 		mov	r2, #30
 505 003a 1A70     		strb	r2, [r3, #0]
 337:.\Generated_Source\PSoC5/cyfitter_cfg.c **** 	CY_SET_XTND_REG8(CYREG_DAC3_CR0, 0x1E);
 506              		.loc 1 337 0
 507 003c 45F62C03 		movw	r3, #:lower16:1073764396
 508 0040 C4F20003 		movt	r3, #:upper16:1073764396
 509 0044 4FF01E02 		mov	r2, #30
 510 0048 1A70     		strb	r2, [r3, #0]
 338:.\Generated_Source\PSoC5/cyfitter_cfg.c **** 	CY_SET_XTND_REG8(CYREG_SAR0_CSR0, 0xC0);
 511              		.loc 1 338 0
 512 004a 45F60013 		movw	r3, #:lower16:1073764608
 513 004e C4F20003 		movt	r3, #:upper16:1073764608
ARM GAS  C:\Users\daniel01\AppData\Local\Temp\ccj78Woo.s 			page 16


 514 0052 6FF03F02 		mvn	r2, #63
 515 0056 1A70     		strb	r2, [r3, #0]
 339:.\Generated_Source\PSoC5/cyfitter_cfg.c **** 	CY_SET_XTND_REG8(CYREG_SAR0_CSR3, 0x0C);
 516              		.loc 1 339 0
 517 0058 45F60313 		movw	r3, #:lower16:1073764611
 518 005c C4F20003 		movt	r3, #:upper16:1073764611
 519 0060 4FF00C02 		mov	r2, #12
 520 0064 1A70     		strb	r2, [r3, #0]
 340:.\Generated_Source\PSoC5/cyfitter_cfg.c **** 	CY_SET_XTND_REG8(CYREG_SAR1_CSR0, 0xC0);
 521              		.loc 1 340 0
 522 0066 45F60813 		movw	r3, #:lower16:1073764616
 523 006a C4F20003 		movt	r3, #:upper16:1073764616
 524 006e 6FF03F02 		mvn	r2, #63
 525 0072 1A70     		strb	r2, [r3, #0]
 341:.\Generated_Source\PSoC5/cyfitter_cfg.c **** 	CY_SET_XTND_REG8(CYREG_SAR1_CSR3, 0x0C);
 526              		.loc 1 341 0
 527 0074 45F60B13 		movw	r3, #:lower16:1073764619
 528 0078 C4F20003 		movt	r3, #:upper16:1073764619
 529 007c 4FF00C02 		mov	r2, #12
 530 0080 1A70     		strb	r2, [r3, #0]
 342:.\Generated_Source\PSoC5/cyfitter_cfg.c **** 	CY_SET_XTND_REG8(CYREG_PUMP_CR0, 0x44);
 531              		.loc 1 342 0
 532 0082 45F67603 		movw	r3, #:lower16:1073764470
 533 0086 C4F20003 		movt	r3, #:upper16:1073764470
 534 008a 4FF04402 		mov	r2, #68
 535 008e 1A70     		strb	r2, [r3, #0]
 343:.\Generated_Source\PSoC5/cyfitter_cfg.c **** }
 536              		.loc 1 343 0
 537 0090 BD46     		mov	sp, r7
 538 0092 80BC     		pop	{r7}
 539 0094 7047     		bx	lr
 540              		.cfi_endproc
 541              	.LFE5:
 542              		.size	AnalogSetDefault, .-AnalogSetDefault
 543 0096 00BF     		.section	.text.SetAnalogRoutingPumps,"ax",%progbits
 544              		.align	2
 545              		.global	SetAnalogRoutingPumps
 546              		.thumb
 547              		.thumb_func
 548              		.type	SetAnalogRoutingPumps, %function
 549              	SetAnalogRoutingPumps:
 550              	.LFB6:
 344:.\Generated_Source\PSoC5/cyfitter_cfg.c **** 
 345:.\Generated_Source\PSoC5/cyfitter_cfg.c **** 
 346:.\Generated_Source\PSoC5/cyfitter_cfg.c **** /*******************************************************************************
 347:.\Generated_Source\PSoC5/cyfitter_cfg.c **** * Function Name: SetAnalogRoutingPumps
 348:.\Generated_Source\PSoC5/cyfitter_cfg.c **** ********************************************************************************
 349:.\Generated_Source\PSoC5/cyfitter_cfg.c **** *
 350:.\Generated_Source\PSoC5/cyfitter_cfg.c **** * Summary:
 351:.\Generated_Source\PSoC5/cyfitter_cfg.c **** * Enables or disables the analog pumps feeding analog routing switches.
 352:.\Generated_Source\PSoC5/cyfitter_cfg.c **** * Intended to be called at startup, based on the Vdda system configuration;
 353:.\Generated_Source\PSoC5/cyfitter_cfg.c **** * may be called during operation when the user informs us that the Vdda voltage crossed the pump th
 354:.\Generated_Source\PSoC5/cyfitter_cfg.c **** *
 355:.\Generated_Source\PSoC5/cyfitter_cfg.c **** * Parameters:
 356:.\Generated_Source\PSoC5/cyfitter_cfg.c **** *  enabled - 1 to enable the pumps, 0 to disable the pumps
 357:.\Generated_Source\PSoC5/cyfitter_cfg.c **** *
 358:.\Generated_Source\PSoC5/cyfitter_cfg.c **** * Return:
ARM GAS  C:\Users\daniel01\AppData\Local\Temp\ccj78Woo.s 			page 17


 359:.\Generated_Source\PSoC5/cyfitter_cfg.c **** *  void
 360:.\Generated_Source\PSoC5/cyfitter_cfg.c **** *
 361:.\Generated_Source\PSoC5/cyfitter_cfg.c **** *******************************************************************************/
 362:.\Generated_Source\PSoC5/cyfitter_cfg.c **** void SetAnalogRoutingPumps(uint8 enabled)
 363:.\Generated_Source\PSoC5/cyfitter_cfg.c **** {
 551              		.loc 1 363 0
 552              		.cfi_startproc
 553              		@ args = 0, pretend = 0, frame = 16
 554              		@ frame_needed = 1, uses_anonymous_args = 0
 555              		@ link register save eliminated.
 556 0000 80B4     		push	{r7}
 557              	.LCFI17:
 558              		.cfi_def_cfa_offset 4
 559 0002 85B0     		sub	sp, sp, #20
 560              	.LCFI18:
 561              		.cfi_def_cfa_offset 24
 562 0004 00AF     		add	r7, sp, #0
 563              		.cfi_offset 7, -4
 564              	.LCFI19:
 565              		.cfi_def_cfa_register 7
 566 0006 0346     		mov	r3, r0
 567 0008 FB71     		strb	r3, [r7, #7]
 364:.\Generated_Source\PSoC5/cyfitter_cfg.c **** 	uint8 regValue = CY_GET_XTND_REG8(CYREG_PUMP_CR0);
 568              		.loc 1 364 0
 569 000a 45F67603 		movw	r3, #:lower16:1073764470
 570 000e C4F20003 		movt	r3, #:upper16:1073764470
 571 0012 1B78     		ldrb	r3, [r3, #0]
 572 0014 FB73     		strb	r3, [r7, #15]
 365:.\Generated_Source\PSoC5/cyfitter_cfg.c **** 	if (enabled)
 573              		.loc 1 365 0
 574 0016 FB79     		ldrb	r3, [r7, #7]	@ zero_extendqisi2
 575 0018 002B     		cmp	r3, #0
 366:.\Generated_Source\PSoC5/cyfitter_cfg.c **** 		regValue |= 0x00;
 367:.\Generated_Source\PSoC5/cyfitter_cfg.c **** 	else
 368:.\Generated_Source\PSoC5/cyfitter_cfg.c **** 		regValue &= ~0x00;
 369:.\Generated_Source\PSoC5/cyfitter_cfg.c **** 	CY_SET_XTND_REG8(CYREG_PUMP_CR0, regValue);
 576              		.loc 1 369 0
 577 001a 45F67603 		movw	r3, #:lower16:1073764470
 578 001e C4F20003 		movt	r3, #:upper16:1073764470
 579 0022 FA7B     		ldrb	r2, [r7, #15]
 580 0024 1A70     		strb	r2, [r3, #0]
 370:.\Generated_Source\PSoC5/cyfitter_cfg.c **** }
 581              		.loc 1 370 0
 582 0026 07F11407 		add	r7, r7, #20
 583 002a BD46     		mov	sp, r7
 584 002c 80BC     		pop	{r7}
 585 002e 7047     		bx	lr
 586              		.cfi_endproc
 587              	.LFE6:
 588              		.size	SetAnalogRoutingPumps, .-SetAnalogRoutingPumps
 589              		.section	.text.cyfitter_cfg,"ax",%progbits
 590              		.align	2
 591              		.global	cyfitter_cfg
 592              		.thumb
 593              		.thumb_func
 594              		.type	cyfitter_cfg, %function
 595              	cyfitter_cfg:
ARM GAS  C:\Users\daniel01\AppData\Local\Temp\ccj78Woo.s 			page 18


 596              	.LFB7:
 371:.\Generated_Source\PSoC5/cyfitter_cfg.c **** 
 372:.\Generated_Source\PSoC5/cyfitter_cfg.c **** #define CY_AMUX_UNUSED CYREG_BOOST_SR
 373:.\Generated_Source\PSoC5/cyfitter_cfg.c **** 
 374:.\Generated_Source\PSoC5/cyfitter_cfg.c **** 
 375:.\Generated_Source\PSoC5/cyfitter_cfg.c **** /*******************************************************************************
 376:.\Generated_Source\PSoC5/cyfitter_cfg.c **** * Function Name: cyfitter_cfg
 377:.\Generated_Source\PSoC5/cyfitter_cfg.c **** ********************************************************************************
 378:.\Generated_Source\PSoC5/cyfitter_cfg.c **** * Summary:
 379:.\Generated_Source\PSoC5/cyfitter_cfg.c **** *  This function is called by the start-up code for the selected device. It
 380:.\Generated_Source\PSoC5/cyfitter_cfg.c **** *  performs all of the necessary device configuration based on the design
 381:.\Generated_Source\PSoC5/cyfitter_cfg.c **** *  settings.  This includes settings from the Design Wide Resources (DWR) such
 382:.\Generated_Source\PSoC5/cyfitter_cfg.c **** *  as Clocks and Pins as well as any component configuration that is necessary.
 383:.\Generated_Source\PSoC5/cyfitter_cfg.c **** *
 384:.\Generated_Source\PSoC5/cyfitter_cfg.c **** * Parameters:  
 385:.\Generated_Source\PSoC5/cyfitter_cfg.c **** *   void
 386:.\Generated_Source\PSoC5/cyfitter_cfg.c **** *
 387:.\Generated_Source\PSoC5/cyfitter_cfg.c **** * Return:
 388:.\Generated_Source\PSoC5/cyfitter_cfg.c **** *   void
 389:.\Generated_Source\PSoC5/cyfitter_cfg.c **** *
 390:.\Generated_Source\PSoC5/cyfitter_cfg.c **** *******************************************************************************/
 391:.\Generated_Source\PSoC5/cyfitter_cfg.c **** void cyfitter_cfg(void)
 392:.\Generated_Source\PSoC5/cyfitter_cfg.c **** {
 597              		.loc 1 392 0
 598              		.cfi_startproc
 599              		@ args = 0, pretend = 0, frame = 24
 600              		@ frame_needed = 1, uses_anonymous_args = 0
 601 0000 80B5     		push	{r7, lr}
 602              	.LCFI20:
 603              		.cfi_def_cfa_offset 8
 604 0002 86B0     		sub	sp, sp, #24
 605              	.LCFI21:
 606              		.cfi_def_cfa_offset 32
 607 0004 00AF     		add	r7, sp, #0
 608              		.cfi_offset 14, -4
 609              		.cfi_offset 7, -8
 610              	.LCFI22:
 611              		.cfi_def_cfa_register 7
 393:.\Generated_Source\PSoC5/cyfitter_cfg.c **** #ifdef CYGlobalIntDisable
 394:.\Generated_Source\PSoC5/cyfitter_cfg.c **** 	/* Disable interrupts by default. Let user enable if/when they want. */
 395:.\Generated_Source\PSoC5/cyfitter_cfg.c **** 	CYGlobalIntDisable;
 612              		.loc 1 395 0
 613              	@ 395 ".\Generated_Source\PSoC5\cyfitter_cfg.c" 1
 614 0006 72B6     		CPSID   i
 615              	@ 0 "" 2
 396:.\Generated_Source\PSoC5/cyfitter_cfg.c **** #endif
 397:.\Generated_Source\PSoC5/cyfitter_cfg.c **** 
 398:.\Generated_Source\PSoC5/cyfitter_cfg.c **** 
 399:.\Generated_Source\PSoC5/cyfitter_cfg.c **** 	/* Set Flash Cycles based on max possible frequency in case a glitch occurs during ClockSetup(). *
 400:.\Generated_Source\PSoC5/cyfitter_cfg.c **** 	CY_SET_XTND_REG8((void CYFAR *)(CYREG_CACHE_CC_CTL), ((CYDEV_INSTRUCT_CACHE_ENABLED) ? 0x00 : 0x01
 616              		.loc 1 400 0
 617              		.thumb
 618 0008 44F60003 		movw	r3, #:lower16:1073760256
 619 000c C4F20003 		movt	r3, #:upper16:1073760256
 620 0010 4FF00002 		mov	r2, #0
 621 0014 1A70     		strb	r2, [r3, #0]
 401:.\Generated_Source\PSoC5/cyfitter_cfg.c **** 	/* Setup clocks based on selections from Clock DWR */
ARM GAS  C:\Users\daniel01\AppData\Local\Temp\ccj78Woo.s 			page 19


 402:.\Generated_Source\PSoC5/cyfitter_cfg.c **** 	ClockSetup();
 622              		.loc 1 402 0
 623 0016 FFF7FEFF 		bl	ClockSetup
 403:.\Generated_Source\PSoC5/cyfitter_cfg.c **** 
 404:.\Generated_Source\PSoC5/cyfitter_cfg.c **** 	/* Disable DMA channels so they can be configured for chip initialization */
 405:.\Generated_Source\PSoC5/cyfitter_cfg.c **** 	CY_SET_XTND_REG8((void CYFAR *)(CYREG_PHUB_CH0_BASIC_CFG), 0x00);
 624              		.loc 1 405 0
 625 001a 47F21003 		movw	r3, #:lower16:1073770512
 626 001e C4F20003 		movt	r3, #:upper16:1073770512
 627 0022 4FF00002 		mov	r2, #0
 628 0026 1A70     		strb	r2, [r3, #0]
 406:.\Generated_Source\PSoC5/cyfitter_cfg.c **** 	CY_SET_XTND_REG8((void CYFAR *)(CYREG_PHUB_CH1_BASIC_CFG), 0x00);
 629              		.loc 1 406 0
 630 0028 47F22003 		movw	r3, #:lower16:1073770528
 631 002c C4F20003 		movt	r3, #:upper16:1073770528
 632 0030 4FF00002 		mov	r2, #0
 633 0034 1A70     		strb	r2, [r3, #0]
 407:.\Generated_Source\PSoC5/cyfitter_cfg.c **** 
 408:.\Generated_Source\PSoC5/cyfitter_cfg.c **** 	/* Enable analog pulldown switches */
 409:.\Generated_Source\PSoC5/cyfitter_cfg.c **** 	CY_SET_XTND_REG8((void CYFAR *)(CYREG_ANAIF_CFG_MISC_CR0), 0x01);
 634              		.loc 1 409 0
 635 0036 45F67C03 		movw	r3, #:lower16:1073764476
 636 003a C4F20003 		movt	r3, #:upper16:1073764476
 637 003e 4FF00102 		mov	r2, #1
 638 0042 1A70     		strb	r2, [r3, #0]
 410:.\Generated_Source\PSoC5/cyfitter_cfg.c **** 
 411:.\Generated_Source\PSoC5/cyfitter_cfg.c **** 	/* Enable/Disable Debug functionality based on settings from System DWR */
 412:.\Generated_Source\PSoC5/cyfitter_cfg.c **** 	CY_SET_XTND_REG8(CYREG_MLOGIC_DBG_DBE, (CY_GET_XTND_REG8(CYREG_MLOGIC_DBG_DBE) | 0x01));
 639              		.loc 1 412 0
 640 0044 44F2E863 		movw	r3, #:lower16:1073759976
 641 0048 C4F20003 		movt	r3, #:upper16:1073759976
 642 004c 44F2E862 		movw	r2, #:lower16:1073759976
 643 0050 C4F20002 		movt	r2, #:upper16:1073759976
 644 0054 1278     		ldrb	r2, [r2, #0]
 645 0056 D2B2     		uxtb	r2, r2
 646 0058 42F00102 		orr	r2, r2, #1
 647 005c D2B2     		uxtb	r2, r2
 648 005e 1A70     		strb	r2, [r3, #0]
 649              	.LBB3:
 413:.\Generated_Source\PSoC5/cyfitter_cfg.c **** 
 414:.\Generated_Source\PSoC5/cyfitter_cfg.c **** 	{
 415:.\Generated_Source\PSoC5/cyfitter_cfg.c **** 		uint8 CYDATA i;
 416:.\Generated_Source\PSoC5/cyfitter_cfg.c **** 
 417:.\Generated_Source\PSoC5/cyfitter_cfg.c **** 		/* Zero out critical memory blocks before beginning configuration */
 418:.\Generated_Source\PSoC5/cyfitter_cfg.c **** 		for (i = 0; i < CFG_MEMSET_COUNT; i++)
 650              		.loc 1 418 0
 651 0060 4FF00003 		mov	r3, #0
 652 0064 FB70     		strb	r3, [r7, #3]
 653 0066 31E0     		b	.L30
 654              	.L31:
 655              	.LBB4:
 419:.\Generated_Source\PSoC5/cyfitter_cfg.c **** 		{
 420:.\Generated_Source\PSoC5/cyfitter_cfg.c **** 			const cfg_memset_t CYCODE * CYDATA ms = &cfg_memset_list[i];
 656              		.loc 1 420 0
 657 0068 FA78     		ldrb	r2, [r7, #3]	@ zero_extendqisi2
 658 006a 1346     		mov	r3, r2
 659 006c 4FEA4303 		lsl	r3, r3, #1
ARM GAS  C:\Users\daniel01\AppData\Local\Temp\ccj78Woo.s 			page 20


 660 0070 1344     		add	r3, r3, r2
 661 0072 4FEA4303 		lsl	r3, r3, #1
 662 0076 1A46     		mov	r2, r3
 663 0078 40F20003 		movw	r3, #:lower16:cfg_memset_list
 664 007c C0F20003 		movt	r3, #:upper16:cfg_memset_list
 665 0080 1344     		add	r3, r2, r3
 666 0082 7B60     		str	r3, [r7, #4]
 421:.\Generated_Source\PSoC5/cyfitter_cfg.c **** 			CYMEMZERO(ms->address, ms->size);
 667              		.loc 1 421 0
 668 0084 7B68     		ldr	r3, [r7, #4]
 669 0086 1A78     		ldrb	r2, [r3, #0]	@ zero_extendqisi2
 670 0088 5978     		ldrb	r1, [r3, #1]	@ zero_extendqisi2
 671 008a 4FEA0121 		lsl	r1, r1, #8
 672 008e 41EA0202 		orr	r2, r1, r2
 673 0092 9978     		ldrb	r1, [r3, #2]	@ zero_extendqisi2
 674 0094 4FEA0141 		lsl	r1, r1, #16
 675 0098 41EA0202 		orr	r2, r1, r2
 676 009c DB78     		ldrb	r3, [r3, #3]	@ zero_extendqisi2
 677 009e 4FEA0363 		lsl	r3, r3, #24
 678 00a2 43EA0203 		orr	r3, r3, r2
 679 00a6 1A46     		mov	r2, r3
 680 00a8 7B68     		ldr	r3, [r7, #4]
 681 00aa 1979     		ldrb	r1, [r3, #4]	@ zero_extendqisi2
 682 00ac 5B79     		ldrb	r3, [r3, #5]	@ zero_extendqisi2
 683 00ae 4FEA0323 		lsl	r3, r3, #8
 684 00b2 43EA0103 		orr	r3, r3, r1
 685 00b6 9BB2     		uxth	r3, r3
 686 00b8 1046     		mov	r0, r2
 687 00ba 4FF00001 		mov	r1, #0
 688 00be 1A46     		mov	r2, r3
 689 00c0 FFF7FEFF 		bl	memset
 690              	.LBE4:
 691              		.loc 1 418 0
 692 00c4 FB78     		ldrb	r3, [r7, #3]
 693 00c6 03F10103 		add	r3, r3, #1
 694 00ca FB70     		strb	r3, [r7, #3]
 695              	.L30:
 696 00cc FB78     		ldrb	r3, [r7, #3]	@ zero_extendqisi2
 697 00ce 072B     		cmp	r3, #7
 698 00d0 CAD9     		bls	.L31
 422:.\Generated_Source\PSoC5/cyfitter_cfg.c **** 		}
 423:.\Generated_Source\PSoC5/cyfitter_cfg.c **** 
 424:.\Generated_Source\PSoC5/cyfitter_cfg.c **** 		/* Copy device configuration data into registers */
 425:.\Generated_Source\PSoC5/cyfitter_cfg.c **** 		for (i = 0; i < CFG_MEMCPY_COUNT; i++)
 699              		.loc 1 425 0
 700 00d2 4FF00003 		mov	r3, #0
 701 00d6 FB70     		strb	r3, [r7, #3]
 702 00d8 43E0     		b	.L32
 703              	.L33:
 704              	.LBB5:
 426:.\Generated_Source\PSoC5/cyfitter_cfg.c **** 		{
 427:.\Generated_Source\PSoC5/cyfitter_cfg.c **** 			const cfg_memcpy_t CYCODE * CYDATA mc = &cfg_memcpy_list[i];
 705              		.loc 1 427 0
 706 00da FA78     		ldrb	r2, [r7, #3]	@ zero_extendqisi2
 707 00dc 1346     		mov	r3, r2
 708 00de 4FEA8303 		lsl	r3, r3, #2
 709 00e2 1344     		add	r3, r3, r2
ARM GAS  C:\Users\daniel01\AppData\Local\Temp\ccj78Woo.s 			page 21


 710 00e4 4FEA4303 		lsl	r3, r3, #1
 711 00e8 1A46     		mov	r2, r3
 712 00ea 40F20003 		movw	r3, #:lower16:cfg_memcpy_list
 713 00ee C0F20003 		movt	r3, #:upper16:cfg_memcpy_list
 714 00f2 1344     		add	r3, r2, r3
 715 00f4 BB60     		str	r3, [r7, #8]
 428:.\Generated_Source\PSoC5/cyfitter_cfg.c **** 			void * CYDATA dest = mc->dest;
 716              		.loc 1 428 0
 717 00f6 BB68     		ldr	r3, [r7, #8]
 718 00f8 1A78     		ldrb	r2, [r3, #0]	@ zero_extendqisi2
 719 00fa 5978     		ldrb	r1, [r3, #1]	@ zero_extendqisi2
 720 00fc 4FEA0121 		lsl	r1, r1, #8
 721 0100 41EA0202 		orr	r2, r1, r2
 722 0104 9978     		ldrb	r1, [r3, #2]	@ zero_extendqisi2
 723 0106 4FEA0141 		lsl	r1, r1, #16
 724 010a 41EA0202 		orr	r2, r1, r2
 725 010e DB78     		ldrb	r3, [r3, #3]	@ zero_extendqisi2
 726 0110 4FEA0363 		lsl	r3, r3, #24
 727 0114 43EA0203 		orr	r3, r3, r2
 728 0118 FB60     		str	r3, [r7, #12]
 429:.\Generated_Source\PSoC5/cyfitter_cfg.c **** 			const void * CYDATA src = mc->src;
 729              		.loc 1 429 0
 730 011a BB68     		ldr	r3, [r7, #8]
 731 011c 1A79     		ldrb	r2, [r3, #4]	@ zero_extendqisi2
 732 011e 5979     		ldrb	r1, [r3, #5]	@ zero_extendqisi2
 733 0120 4FEA0121 		lsl	r1, r1, #8
 734 0124 41EA0202 		orr	r2, r1, r2
 735 0128 9979     		ldrb	r1, [r3, #6]	@ zero_extendqisi2
 736 012a 4FEA0141 		lsl	r1, r1, #16
 737 012e 41EA0202 		orr	r2, r1, r2
 738 0132 DB79     		ldrb	r3, [r3, #7]	@ zero_extendqisi2
 739 0134 4FEA0363 		lsl	r3, r3, #24
 740 0138 43EA0203 		orr	r3, r3, r2
 741 013c 3B61     		str	r3, [r7, #16]
 430:.\Generated_Source\PSoC5/cyfitter_cfg.c **** 			uint16 CYDATA size = mc->size;
 742              		.loc 1 430 0
 743 013e BB68     		ldr	r3, [r7, #8]
 744 0140 1A7A     		ldrb	r2, [r3, #8]	@ zero_extendqisi2
 745 0142 5B7A     		ldrb	r3, [r3, #9]	@ zero_extendqisi2
 746 0144 4FEA0323 		lsl	r3, r3, #8
 747 0148 43EA0203 		orr	r3, r3, r2
 748 014c FB82     		strh	r3, [r7, #22]	@ movhi
 431:.\Generated_Source\PSoC5/cyfitter_cfg.c **** 			CYCONFIGCPY(dest, src, size);
 749              		.loc 1 431 0
 750 014e FB8A     		ldrh	r3, [r7, #22]
 751 0150 F868     		ldr	r0, [r7, #12]
 752 0152 3969     		ldr	r1, [r7, #16]
 753 0154 1A46     		mov	r2, r3
 754 0156 FFF7FEFF 		bl	memcpy
 755              	.LBE5:
 756              		.loc 1 425 0
 757 015a FB78     		ldrb	r3, [r7, #3]
 758 015c 03F10103 		add	r3, r3, #1
 759 0160 FB70     		strb	r3, [r7, #3]
 760              	.L32:
 761 0162 FB78     		ldrb	r3, [r7, #3]	@ zero_extendqisi2
 762 0164 002B     		cmp	r3, #0
ARM GAS  C:\Users\daniel01\AppData\Local\Temp\ccj78Woo.s 			page 22


 763 0166 B8D0     		beq	.L33
 432:.\Generated_Source\PSoC5/cyfitter_cfg.c **** 		}
 433:.\Generated_Source\PSoC5/cyfitter_cfg.c **** 
 434:.\Generated_Source\PSoC5/cyfitter_cfg.c **** 		cfg_write_bytes32();
 764              		.loc 1 434 0
 765 0168 FFF7FEFF 		bl	cfg_write_bytes32
 435:.\Generated_Source\PSoC5/cyfitter_cfg.c **** 
 436:.\Generated_Source\PSoC5/cyfitter_cfg.c **** 		/* Perform normal device configuration. Order is not critical for these items. */
 437:.\Generated_Source\PSoC5/cyfitter_cfg.c **** 		CYCONFIGCPY8((void CYFAR *)(CYDEV_PRTDSI_PRT0_BASE), (void CYFAR *)(BS_IOPORT_0_VAL), 7);
 766              		.loc 1 437 0
 767 016c 45F20020 		movw	r0, #:lower16:1073762816
 768 0170 C4F20000 		movt	r0, #:upper16:1073762816
 769 0174 40F25031 		movw	r1, #:lower16:1207960400
 770 0178 C4F60001 		movt	r1, #:upper16:1207960400
 771 017c 4FF00702 		mov	r2, #7
 772 0180 FFF7FEFF 		bl	cymemcpy8
 438:.\Generated_Source\PSoC5/cyfitter_cfg.c **** 		CYMEMZERO8((void CYFAR *)(CYDEV_PRTDSI_PRT1_BASE), 7);
 773              		.loc 1 438 0
 774 0184 45F20820 		movw	r0, #:lower16:1073762824
 775 0188 C4F20000 		movt	r0, #:upper16:1073762824
 776 018c 4FF00701 		mov	r1, #7
 777 0190 FFF7FEFF 		bl	cymemzero8
 439:.\Generated_Source\PSoC5/cyfitter_cfg.c **** 		CYMEMZERO8((void CYFAR *)(CYDEV_PRTDSI_PRT2_BASE), 7);
 778              		.loc 1 439 0
 779 0194 45F21020 		movw	r0, #:lower16:1073762832
 780 0198 C4F20000 		movt	r0, #:upper16:1073762832
 781 019c 4FF00701 		mov	r1, #7
 782 01a0 FFF7FEFF 		bl	cymemzero8
 440:.\Generated_Source\PSoC5/cyfitter_cfg.c **** 		CYMEMZERO8((void CYFAR *)(CYDEV_PRTDSI_PRT3_BASE), 7);
 783              		.loc 1 440 0
 784 01a4 45F21820 		movw	r0, #:lower16:1073762840
 785 01a8 C4F20000 		movt	r0, #:upper16:1073762840
 786 01ac 4FF00701 		mov	r1, #7
 787 01b0 FFF7FEFF 		bl	cymemzero8
 441:.\Generated_Source\PSoC5/cyfitter_cfg.c **** 		CYMEMZERO8((void CYFAR *)(CYDEV_PRTDSI_PRT4_BASE), 7);
 788              		.loc 1 441 0
 789 01b4 45F22020 		movw	r0, #:lower16:1073762848
 790 01b8 C4F20000 		movt	r0, #:upper16:1073762848
 791 01bc 4FF00701 		mov	r1, #7
 792 01c0 FFF7FEFF 		bl	cymemzero8
 442:.\Generated_Source\PSoC5/cyfitter_cfg.c **** 		CYMEMZERO8((void CYFAR *)(CYDEV_PRTDSI_PRT5_BASE), 7);
 793              		.loc 1 442 0
 794 01c4 45F22820 		movw	r0, #:lower16:1073762856
 795 01c8 C4F20000 		movt	r0, #:upper16:1073762856
 796 01cc 4FF00701 		mov	r1, #7
 797 01d0 FFF7FEFF 		bl	cymemzero8
 443:.\Generated_Source\PSoC5/cyfitter_cfg.c **** 		CYCONFIGCPY8((void CYFAR *)(CYDEV_PRTDSI_PRT6_BASE), (void CYFAR *)(BS_IOPORT_6_VAL), 7);
 798              		.loc 1 443 0
 799 01d4 45F23020 		movw	r0, #:lower16:1073762864
 800 01d8 C4F20000 		movt	r0, #:upper16:1073762864
 801 01dc 40F25831 		movw	r1, #:lower16:1207960408
 802 01e0 C4F60001 		movt	r1, #:upper16:1207960408
 803 01e4 4FF00702 		mov	r2, #7
 804 01e8 FFF7FEFF 		bl	cymemcpy8
 444:.\Generated_Source\PSoC5/cyfitter_cfg.c **** 		CYMEMZERO8((void CYFAR *)(CYDEV_PRTDSI_PRT12_BASE), 6);
 805              		.loc 1 444 0
 806 01ec 45F26020 		movw	r0, #:lower16:1073762912
ARM GAS  C:\Users\daniel01\AppData\Local\Temp\ccj78Woo.s 			page 23


 807 01f0 C4F20000 		movt	r0, #:upper16:1073762912
 808 01f4 4FF00601 		mov	r1, #6
 809 01f8 FFF7FEFF 		bl	cymemzero8
 445:.\Generated_Source\PSoC5/cyfitter_cfg.c **** 		CYCONFIGCPY8((void CYFAR *)(CYDEV_PRTDSI_PRT15_BASE), (void CYFAR *)(BS_IOPORT_8_VAL), 7);
 810              		.loc 1 445 0
 811 01fc 45F27820 		movw	r0, #:lower16:1073762936
 812 0200 C4F20000 		movt	r0, #:upper16:1073762936
 813 0204 40F26031 		movw	r1, #:lower16:1207960416
 814 0208 C4F60001 		movt	r1, #:upper16:1207960416
 815 020c 4FF00702 		mov	r2, #7
 816 0210 FFF7FEFF 		bl	cymemcpy8
 446:.\Generated_Source\PSoC5/cyfitter_cfg.c **** 
 447:.\Generated_Source\PSoC5/cyfitter_cfg.c **** 		/* Enable digital routing */
 448:.\Generated_Source\PSoC5/cyfitter_cfg.c **** 		CY_SET_XTND_REG8(CYREG_BCTL0_BANK_CTL, CY_GET_XTND_REG8(CYREG_BCTL0_BANK_CTL) | 0x02u);
 817              		.loc 1 448 0
 818 0214 45F20303 		movw	r3, #:lower16:1073827843
 819 0218 C4F20103 		movt	r3, #:upper16:1073827843
 820 021c 45F20302 		movw	r2, #:lower16:1073827843
 821 0220 C4F20102 		movt	r2, #:upper16:1073827843
 822 0224 1278     		ldrb	r2, [r2, #0]
 823 0226 D2B2     		uxtb	r2, r2
 824 0228 42F00202 		orr	r2, r2, #2
 825 022c D2B2     		uxtb	r2, r2
 826 022e 1A70     		strb	r2, [r3, #0]
 449:.\Generated_Source\PSoC5/cyfitter_cfg.c **** 		CY_SET_XTND_REG8(CYREG_BCTL1_BANK_CTL, CY_GET_XTND_REG8(CYREG_BCTL1_BANK_CTL) | 0x02u);
 827              		.loc 1 449 0
 828 0230 45F21303 		movw	r3, #:lower16:1073827859
 829 0234 C4F20103 		movt	r3, #:upper16:1073827859
 830 0238 45F21302 		movw	r2, #:lower16:1073827859
 831 023c C4F20102 		movt	r2, #:upper16:1073827859
 832 0240 1278     		ldrb	r2, [r2, #0]
 833 0242 D2B2     		uxtb	r2, r2
 834 0244 42F00202 		orr	r2, r2, #2
 835 0248 D2B2     		uxtb	r2, r2
 836 024a 1A70     		strb	r2, [r3, #0]
 450:.\Generated_Source\PSoC5/cyfitter_cfg.c **** 
 451:.\Generated_Source\PSoC5/cyfitter_cfg.c **** 		/* Enable UDB array */
 452:.\Generated_Source\PSoC5/cyfitter_cfg.c **** 		CY_SET_XTND_REG8(CYREG_PM_ACT_CFG0, CY_GET_XTND_REG8(CYREG_PM_ACT_CFG0) | 0x40u);
 837              		.loc 1 452 0
 838 024c 44F2A033 		movw	r3, #:lower16:1073759136
 839 0250 C4F20003 		movt	r3, #:upper16:1073759136
 840 0254 44F2A032 		movw	r2, #:lower16:1073759136
 841 0258 C4F20002 		movt	r2, #:upper16:1073759136
 842 025c 1278     		ldrb	r2, [r2, #0]
 843 025e D2B2     		uxtb	r2, r2
 844 0260 42F04002 		orr	r2, r2, #64
 845 0264 D2B2     		uxtb	r2, r2
 846 0266 1A70     		strb	r2, [r3, #0]
 453:.\Generated_Source\PSoC5/cyfitter_cfg.c **** 		CY_SET_XTND_REG8(CYREG_PM_AVAIL_CR2, CY_GET_XTND_REG8(CYREG_PM_AVAIL_CR2) | 0x10u);
 847              		.loc 1 453 0
 848 0268 44F2C233 		movw	r3, #:lower16:1073759170
 849 026c C4F20003 		movt	r3, #:upper16:1073759170
 850 0270 44F2C232 		movw	r2, #:lower16:1073759170
 851 0274 C4F20002 		movt	r2, #:upper16:1073759170
 852 0278 1278     		ldrb	r2, [r2, #0]
 853 027a D2B2     		uxtb	r2, r2
 854 027c 42F01002 		orr	r2, r2, #16
ARM GAS  C:\Users\daniel01\AppData\Local\Temp\ccj78Woo.s 			page 24


 855 0280 D2B2     		uxtb	r2, r2
 856 0282 1A70     		strb	r2, [r3, #0]
 857              	.LBE3:
 454:.\Generated_Source\PSoC5/cyfitter_cfg.c **** 	}
 455:.\Generated_Source\PSoC5/cyfitter_cfg.c **** 
 456:.\Generated_Source\PSoC5/cyfitter_cfg.c **** 	/* Perform second pass device configuration. These items must be configured in specific order afte
 457:.\Generated_Source\PSoC5/cyfitter_cfg.c **** 	CYCONFIGCPY((void CYFAR *)(CYREG_PRT0_DM0), (void CYFAR *)(BS_IOPINS0_0_VAL), 8);
 858              		.loc 1 457 0
 859 0284 45F20210 		movw	r0, #:lower16:1073762562
 860 0288 C4F20000 		movt	r0, #:upper16:1073762562
 861 028c 40F22831 		movw	r1, #:lower16:1207960360
 862 0290 C4F60001 		movt	r1, #:upper16:1207960360
 863 0294 4FF00802 		mov	r2, #8
 864 0298 FFF7FEFF 		bl	memcpy
 458:.\Generated_Source\PSoC5/cyfitter_cfg.c **** 	CYCONFIGCPY((void CYFAR *)(CYREG_PRT15_DR), (void CYFAR *)(BS_IOPINS0_8_VAL), 10);
 865              		.loc 1 458 0
 866 029c 45F2F010 		movw	r0, #:lower16:1073762800
 867 02a0 C4F20000 		movt	r0, #:upper16:1073762800
 868 02a4 40F23031 		movw	r1, #:lower16:1207960368
 869 02a8 C4F60001 		movt	r1, #:upper16:1207960368
 870 02ac 4FF00A02 		mov	r2, #10
 871 02b0 FFF7FEFF 		bl	memcpy
 459:.\Generated_Source\PSoC5/cyfitter_cfg.c **** 	CYCONFIGCPY((void CYFAR *)(CYREG_PRT2_DM0), (void CYFAR *)(BS_IOPINS0_2_VAL), 8);
 872              		.loc 1 459 0
 873 02b4 45F22210 		movw	r0, #:lower16:1073762594
 874 02b8 C4F20000 		movt	r0, #:upper16:1073762594
 875 02bc 40F23C31 		movw	r1, #:lower16:1207960380
 876 02c0 C4F60001 		movt	r1, #:upper16:1207960380
 877 02c4 4FF00802 		mov	r2, #8
 878 02c8 FFF7FEFF 		bl	memcpy
 460:.\Generated_Source\PSoC5/cyfitter_cfg.c **** 	CYCONFIGCPY((void CYFAR *)(CYREG_PRT6_DR), (void CYFAR *)(BS_IOPINS0_6_VAL), 10);
 879              		.loc 1 460 0
 880 02cc 45F26010 		movw	r0, #:lower16:1073762656
 881 02d0 C4F20000 		movt	r0, #:upper16:1073762656
 882 02d4 40F24431 		movw	r1, #:lower16:1207960388
 883 02d8 C4F60001 		movt	r1, #:upper16:1207960388
 884 02dc 4FF00A02 		mov	r2, #10
 885 02e0 FFF7FEFF 		bl	memcpy
 461:.\Generated_Source\PSoC5/cyfitter_cfg.c **** 
 462:.\Generated_Source\PSoC5/cyfitter_cfg.c **** 
 463:.\Generated_Source\PSoC5/cyfitter_cfg.c **** 	/* Perform basic analog initialization to defaults */
 464:.\Generated_Source\PSoC5/cyfitter_cfg.c **** 	AnalogSetDefault();
 886              		.loc 1 464 0
 887 02e4 FFF7FEFF 		bl	AnalogSetDefault
 465:.\Generated_Source\PSoC5/cyfitter_cfg.c **** 
 466:.\Generated_Source\PSoC5/cyfitter_cfg.c **** 	/* Configure alternate active mode */
 467:.\Generated_Source\PSoC5/cyfitter_cfg.c **** 	CYCONFIGCPY((void CYFAR *)CYDEV_PM_STBY_BASE, (void CYFAR *)CYDEV_PM_ACT_BASE, 12);
 888              		.loc 1 467 0
 889 02e8 44F2B030 		movw	r0, #:lower16:1073759152
 890 02ec C4F20000 		movt	r0, #:upper16:1073759152
 891 02f0 44F2A031 		movw	r1, #:lower16:1073759136
 892 02f4 C4F20001 		movt	r1, #:upper16:1073759136
 893 02f8 4FF00C02 		mov	r2, #12
 894 02fc FFF7FEFF 		bl	memcpy
 468:.\Generated_Source\PSoC5/cyfitter_cfg.c **** 	CY_SET_XTND_REG8(CYREG_PM_STBY_CFG0, CY_GET_XTND_REG8(CYREG_PM_STBY_CFG0) & ~0x02u);	/* Disable CP
 895              		.loc 1 468 0
 896 0300 44F2B033 		movw	r3, #:lower16:1073759152
ARM GAS  C:\Users\daniel01\AppData\Local\Temp\ccj78Woo.s 			page 25


 897 0304 C4F20003 		movt	r3, #:upper16:1073759152
 898 0308 44F2B032 		movw	r2, #:lower16:1073759152
 899 030c C4F20002 		movt	r2, #:upper16:1073759152
 900 0310 1278     		ldrb	r2, [r2, #0]
 901 0312 D2B2     		uxtb	r2, r2
 902 0314 02F0FD02 		and	r2, r2, #253
 903 0318 1A70     		strb	r2, [r3, #0]
 469:.\Generated_Source\PSoC5/cyfitter_cfg.c **** }
 904              		.loc 1 469 0
 905 031a 07F11807 		add	r7, r7, #24
 906 031e BD46     		mov	sp, r7
 907 0320 80BD     		pop	{r7, pc}
 908              		.cfi_endproc
 909              	.LFE7:
 910              		.size	cyfitter_cfg, .-cyfitter_cfg
 911 0322 00BF     		.text
 912              	.Letext0: