ARM GAS  C:\Users\daniel01\AppData\Local\Temp\ccMhmzKg.s 			page 1


   1              		.syntax unified
   2              		.cpu cortex-m3
   3              		.fpu softvfp
   4              		.eabi_attribute 20, 1
   5              		.eabi_attribute 21, 1
   6              		.eabi_attribute 23, 3
   7              		.eabi_attribute 24, 1
   8              		.eabi_attribute 25, 1
   9              		.eabi_attribute 26, 1
  10              		.eabi_attribute 30, 6
  11              		.eabi_attribute 18, 4
  12              		.thumb
  13              		.file	"lib_math.c"
  20 0000 EF000000 		.text
  20      02009700 
  20      00000201 
  20      FB0E0D00 
  20      01010101 
  21              	.Ltext0:
  22              		.cfi_sections	.debug_frame
  23              		.comm	Math_RandSeedCur,4,4
  24              		.section	.text.Math_Init,"ax",%progbits
  25              		.align	2
  26              		.global	Math_Init
  27              		.thumb
  28              		.thumb_func
  29              		.type	Math_Init, %function
  30              	Math_Init:
  31              	.LFB0:
  32              		.file 1 "C:\\Micrium\\Software\\uC-LIB\\lib_math.c"
   1:C:\Micrium\Software\uC-LIB\lib_math.c **** /*
   2:C:\Micrium\Software\uC-LIB\lib_math.c **** ***************************************************************************************************
   3:C:\Micrium\Software\uC-LIB\lib_math.c **** *                                                uC/LIB
   4:C:\Micrium\Software\uC-LIB\lib_math.c **** *                                        CUSTOM LIBRARY MODULES
   5:C:\Micrium\Software\uC-LIB\lib_math.c **** *
   6:C:\Micrium\Software\uC-LIB\lib_math.c **** *                          (c) Copyright 2004-2012; Micrium, Inc.; Weston, FL
   7:C:\Micrium\Software\uC-LIB\lib_math.c **** *
   8:C:\Micrium\Software\uC-LIB\lib_math.c **** *               All rights reserved.  Protected by international copyright laws.
   9:C:\Micrium\Software\uC-LIB\lib_math.c **** *
  10:C:\Micrium\Software\uC-LIB\lib_math.c **** *               uC/LIB is provided in source form to registered licensees ONLY.  It is 
  11:C:\Micrium\Software\uC-LIB\lib_math.c **** *               illegal to distribute this source code to any third party unless you receive 
  12:C:\Micrium\Software\uC-LIB\lib_math.c **** *               written permission by an authorized Micrium representative.  Knowledge of 
  13:C:\Micrium\Software\uC-LIB\lib_math.c **** *               the source code may NOT be used to develop a similar product.
  14:C:\Micrium\Software\uC-LIB\lib_math.c **** *
  15:C:\Micrium\Software\uC-LIB\lib_math.c **** *               Please help us continue to provide the Embedded community with the finest 
  16:C:\Micrium\Software\uC-LIB\lib_math.c **** *               software available.  Your honesty is greatly appreciated.
  17:C:\Micrium\Software\uC-LIB\lib_math.c **** *
  18:C:\Micrium\Software\uC-LIB\lib_math.c **** *               You can contact us at www.micrium.com.
  19:C:\Micrium\Software\uC-LIB\lib_math.c **** ***************************************************************************************************
  20:C:\Micrium\Software\uC-LIB\lib_math.c **** */
  21:C:\Micrium\Software\uC-LIB\lib_math.c **** 
ARM GAS  C:\Users\daniel01\AppData\Local\Temp\ccMhmzKg.s 			page 2


  22:C:\Micrium\Software\uC-LIB\lib_math.c **** /*
  23:C:\Micrium\Software\uC-LIB\lib_math.c **** ***************************************************************************************************
  24:C:\Micrium\Software\uC-LIB\lib_math.c **** *
  25:C:\Micrium\Software\uC-LIB\lib_math.c **** *                                        MATHEMATIC OPERATIONS
  26:C:\Micrium\Software\uC-LIB\lib_math.c **** *
  27:C:\Micrium\Software\uC-LIB\lib_math.c **** * Filename      : lib_math.c
  28:C:\Micrium\Software\uC-LIB\lib_math.c **** * Version       : V1.37.00
  29:C:\Micrium\Software\uC-LIB\lib_math.c **** * Programmer(s) : SR
  30:C:\Micrium\Software\uC-LIB\lib_math.c **** *                 ITJ
  31:C:\Micrium\Software\uC-LIB\lib_math.c **** ***************************************************************************************************
  32:C:\Micrium\Software\uC-LIB\lib_math.c **** * Note(s)       : (1) NO compiler-supplied standard library functions are used in library or produc
  33:C:\Micrium\Software\uC-LIB\lib_math.c **** *
  34:C:\Micrium\Software\uC-LIB\lib_math.c **** *                     (a) ALL standard library functions are implemented in the custom library modu
  35:C:\Micrium\Software\uC-LIB\lib_math.c **** *
  36:C:\Micrium\Software\uC-LIB\lib_math.c **** *                         (1) \<Custom Library Directory>\lib_*.*
  37:C:\Micrium\Software\uC-LIB\lib_math.c **** *
  38:C:\Micrium\Software\uC-LIB\lib_math.c **** *                         (2) \<Custom Library Directory>\Ports\<cpu>\<compiler>\lib*_a.*
  39:C:\Micrium\Software\uC-LIB\lib_math.c **** *
  40:C:\Micrium\Software\uC-LIB\lib_math.c **** *                               where
  41:C:\Micrium\Software\uC-LIB\lib_math.c **** *                                       <Custom Library Directory>      directory path for custom l
  42:C:\Micrium\Software\uC-LIB\lib_math.c **** *                                       <cpu>                           directory name for specific
  43:C:\Micrium\Software\uC-LIB\lib_math.c **** *                                       <compiler>                      directory name for specific
  44:C:\Micrium\Software\uC-LIB\lib_math.c **** *
  45:C:\Micrium\Software\uC-LIB\lib_math.c **** *                     (b) Product-specific library functions are implemented in individual products
  46:C:\Micrium\Software\uC-LIB\lib_math.c **** *
  47:C:\Micrium\Software\uC-LIB\lib_math.c **** ***************************************************************************************************
  48:C:\Micrium\Software\uC-LIB\lib_math.c **** * Notice(s)     : (1) The Institute of Electrical and Electronics Engineers and The Open Group, hav
  49:C:\Micrium\Software\uC-LIB\lib_math.c **** *                     us permission to reprint portions of their documentation.  Portions of this t
  50:C:\Micrium\Software\uC-LIB\lib_math.c **** *                     reprinted and reproduced in electronic form from the IEEE Std 1003.1, 2004 Ed
  51:C:\Micrium\Software\uC-LIB\lib_math.c **** *                     Standard for Information Technology -- Portable Operating System Interface (P
  52:C:\Micrium\Software\uC-LIB\lib_math.c **** *                     The Open Group Base Specifications Issue 6, Copyright (C) 2001-2004 by the In
  53:C:\Micrium\Software\uC-LIB\lib_math.c **** *                     of Electrical and Electronics Engineers, Inc and The Open Group.  In the even
  54:C:\Micrium\Software\uC-LIB\lib_math.c **** *                     discrepancy between these versions and the original IEEE and The Open Group S
  55:C:\Micrium\Software\uC-LIB\lib_math.c **** *                     the original IEEE and The Open Group Standard is the referee document.  The o
  56:C:\Micrium\Software\uC-LIB\lib_math.c **** *                     Standard can be obtained online at http://www.opengroup.org/unix/online.html.
  57:C:\Micrium\Software\uC-LIB\lib_math.c **** ***************************************************************************************************
  58:C:\Micrium\Software\uC-LIB\lib_math.c **** */
  59:C:\Micrium\Software\uC-LIB\lib_math.c **** 
  60:C:\Micrium\Software\uC-LIB\lib_math.c **** 
  61:C:\Micrium\Software\uC-LIB\lib_math.c **** /*
  62:C:\Micrium\Software\uC-LIB\lib_math.c **** ***************************************************************************************************
  63:C:\Micrium\Software\uC-LIB\lib_math.c **** *                                            INCLUDE FILES
  64:C:\Micrium\Software\uC-LIB\lib_math.c **** ***************************************************************************************************
  65:C:\Micrium\Software\uC-LIB\lib_math.c **** */
  66:C:\Micrium\Software\uC-LIB\lib_math.c **** 
  67:C:\Micrium\Software\uC-LIB\lib_math.c **** #define    MICRIUM_SOURCE
  68:C:\Micrium\Software\uC-LIB\lib_math.c **** #define    LIB_MATH_MODULE
  69:C:\Micrium\Software\uC-LIB\lib_math.c **** #include  <lib_math.h>
  70:C:\Micrium\Software\uC-LIB\lib_math.c **** 
  71:C:\Micrium\Software\uC-LIB\lib_math.c **** 
  72:C:\Micrium\Software\uC-LIB\lib_math.c **** /*$PAGE*/
  73:C:\Micrium\Software\uC-LIB\lib_math.c **** /*
  74:C:\Micrium\Software\uC-LIB\lib_math.c **** ***************************************************************************************************
  75:C:\Micrium\Software\uC-LIB\lib_math.c **** *                                            LOCAL DEFINES
  76:C:\Micrium\Software\uC-LIB\lib_math.c **** ***************************************************************************************************
  77:C:\Micrium\Software\uC-LIB\lib_math.c **** */
  78:C:\Micrium\Software\uC-LIB\lib_math.c **** 
ARM GAS  C:\Users\daniel01\AppData\Local\Temp\ccMhmzKg.s 			page 3


  79:C:\Micrium\Software\uC-LIB\lib_math.c **** 
  80:C:\Micrium\Software\uC-LIB\lib_math.c **** /*
  81:C:\Micrium\Software\uC-LIB\lib_math.c **** ***************************************************************************************************
  82:C:\Micrium\Software\uC-LIB\lib_math.c **** *                                           LOCAL CONSTANTS
  83:C:\Micrium\Software\uC-LIB\lib_math.c **** ***************************************************************************************************
  84:C:\Micrium\Software\uC-LIB\lib_math.c **** */
  85:C:\Micrium\Software\uC-LIB\lib_math.c **** 
  86:C:\Micrium\Software\uC-LIB\lib_math.c **** 
  87:C:\Micrium\Software\uC-LIB\lib_math.c **** /*
  88:C:\Micrium\Software\uC-LIB\lib_math.c **** ***************************************************************************************************
  89:C:\Micrium\Software\uC-LIB\lib_math.c **** *                                          LOCAL DATA TYPES
  90:C:\Micrium\Software\uC-LIB\lib_math.c **** ***************************************************************************************************
  91:C:\Micrium\Software\uC-LIB\lib_math.c **** */
  92:C:\Micrium\Software\uC-LIB\lib_math.c **** 
  93:C:\Micrium\Software\uC-LIB\lib_math.c **** 
  94:C:\Micrium\Software\uC-LIB\lib_math.c **** /*
  95:C:\Micrium\Software\uC-LIB\lib_math.c **** ***************************************************************************************************
  96:C:\Micrium\Software\uC-LIB\lib_math.c **** *                                            LOCAL TABLES
  97:C:\Micrium\Software\uC-LIB\lib_math.c **** ***************************************************************************************************
  98:C:\Micrium\Software\uC-LIB\lib_math.c **** */
  99:C:\Micrium\Software\uC-LIB\lib_math.c **** 
 100:C:\Micrium\Software\uC-LIB\lib_math.c **** 
 101:C:\Micrium\Software\uC-LIB\lib_math.c **** /*
 102:C:\Micrium\Software\uC-LIB\lib_math.c **** ***************************************************************************************************
 103:C:\Micrium\Software\uC-LIB\lib_math.c **** *                                       LOCAL GLOBAL VARIABLES
 104:C:\Micrium\Software\uC-LIB\lib_math.c **** ***************************************************************************************************
 105:C:\Micrium\Software\uC-LIB\lib_math.c **** */
 106:C:\Micrium\Software\uC-LIB\lib_math.c **** 
 107:C:\Micrium\Software\uC-LIB\lib_math.c **** RAND_NBR  Math_RandSeedCur;                                     /* Cur rand nbr seed.              
 108:C:\Micrium\Software\uC-LIB\lib_math.c **** 
 109:C:\Micrium\Software\uC-LIB\lib_math.c **** 
 110:C:\Micrium\Software\uC-LIB\lib_math.c **** /*
 111:C:\Micrium\Software\uC-LIB\lib_math.c **** ***************************************************************************************************
 112:C:\Micrium\Software\uC-LIB\lib_math.c **** *                                      LOCAL FUNCTION PROTOTYPES
 113:C:\Micrium\Software\uC-LIB\lib_math.c **** ***************************************************************************************************
 114:C:\Micrium\Software\uC-LIB\lib_math.c **** */
 115:C:\Micrium\Software\uC-LIB\lib_math.c **** 
 116:C:\Micrium\Software\uC-LIB\lib_math.c **** 
 117:C:\Micrium\Software\uC-LIB\lib_math.c **** /*
 118:C:\Micrium\Software\uC-LIB\lib_math.c **** ***************************************************************************************************
 119:C:\Micrium\Software\uC-LIB\lib_math.c **** *                                     LOCAL CONFIGURATION ERRORS
 120:C:\Micrium\Software\uC-LIB\lib_math.c **** ***************************************************************************************************
 121:C:\Micrium\Software\uC-LIB\lib_math.c **** */
 122:C:\Micrium\Software\uC-LIB\lib_math.c **** 
 123:C:\Micrium\Software\uC-LIB\lib_math.c **** 
 124:C:\Micrium\Software\uC-LIB\lib_math.c **** /*$PAGE*/
 125:C:\Micrium\Software\uC-LIB\lib_math.c **** /*
 126:C:\Micrium\Software\uC-LIB\lib_math.c **** ***************************************************************************************************
 127:C:\Micrium\Software\uC-LIB\lib_math.c **** *                                             Math_Init()
 128:C:\Micrium\Software\uC-LIB\lib_math.c **** *
 129:C:\Micrium\Software\uC-LIB\lib_math.c **** * Description : (1) Initialize Mathematic Module :
 130:C:\Micrium\Software\uC-LIB\lib_math.c **** *
 131:C:\Micrium\Software\uC-LIB\lib_math.c **** *                   (a) Initialize random number seed value
 132:C:\Micrium\Software\uC-LIB\lib_math.c **** *
 133:C:\Micrium\Software\uC-LIB\lib_math.c **** *
 134:C:\Micrium\Software\uC-LIB\lib_math.c **** * Argument(s) : none.
 135:C:\Micrium\Software\uC-LIB\lib_math.c **** *
ARM GAS  C:\Users\daniel01\AppData\Local\Temp\ccMhmzKg.s 			page 4


 136:C:\Micrium\Software\uC-LIB\lib_math.c **** * Return(s)   : none.
 137:C:\Micrium\Software\uC-LIB\lib_math.c **** *
 138:C:\Micrium\Software\uC-LIB\lib_math.c **** * Caller(s)   : Application.
 139:C:\Micrium\Software\uC-LIB\lib_math.c **** *
 140:C:\Micrium\Software\uC-LIB\lib_math.c **** * Note(s)     : (2) IEEE Std 1003.1, 2004 Edition, Section 'rand() : DESCRIPTION' states that "if r
 141:C:\Micrium\Software\uC-LIB\lib_math.c **** *                   is called before any calls to srand() are made, the same sequence shall be gene
 142:C:\Micrium\Software\uC-LIB\lib_math.c **** *                   as when srand() is first called with a seed value of 1".
 143:C:\Micrium\Software\uC-LIB\lib_math.c **** ***************************************************************************************************
 144:C:\Micrium\Software\uC-LIB\lib_math.c **** */
 145:C:\Micrium\Software\uC-LIB\lib_math.c **** 
 146:C:\Micrium\Software\uC-LIB\lib_math.c **** void  Math_Init (void)
 147:C:\Micrium\Software\uC-LIB\lib_math.c **** {
  33              		.loc 1 147 0
  34              		.cfi_startproc
  35              		@ args = 0, pretend = 0, frame = 0
  36              		@ frame_needed = 1, uses_anonymous_args = 0
  37 0000 80B5     		push	{r7, lr}
  38              	.LCFI0:
  39              		.cfi_def_cfa_offset 8
  40 0002 00AF     		add	r7, sp, #0
  41              		.cfi_offset 14, -4
  42              		.cfi_offset 7, -8
  43              	.LCFI1:
  44              		.cfi_def_cfa_register 7
 148:C:\Micrium\Software\uC-LIB\lib_math.c ****     Math_RandSetSeed((RAND_NBR)RAND_SEED_INIT_VAL);             /* See Note #2.                    
  45              		.loc 1 148 0
  46 0004 4FF00100 		mov	r0, #1
  47 0008 FFF7FEFF 		bl	Math_RandSetSeed
 149:C:\Micrium\Software\uC-LIB\lib_math.c **** }
  48              		.loc 1 149 0
  49 000c 80BD     		pop	{r7, pc}
  50              		.cfi_endproc
  51              	.LFE0:
  52              		.size	Math_Init, .-Math_Init
  53 000e 00BF     		.section	.text.Math_RandSetSeed,"ax",%progbits
  54              		.align	2
  55              		.global	Math_RandSetSeed
  56              		.thumb
  57              		.thumb_func
  58              		.type	Math_RandSetSeed, %function
  59              	Math_RandSetSeed:
  60              	.LFB1:
 150:C:\Micrium\Software\uC-LIB\lib_math.c **** 
 151:C:\Micrium\Software\uC-LIB\lib_math.c **** 
 152:C:\Micrium\Software\uC-LIB\lib_math.c **** /*$PAGE*/
 153:C:\Micrium\Software\uC-LIB\lib_math.c **** /*
 154:C:\Micrium\Software\uC-LIB\lib_math.c **** ***************************************************************************************************
 155:C:\Micrium\Software\uC-LIB\lib_math.c **** *                                         Math_RandSetSeed()
 156:C:\Micrium\Software\uC-LIB\lib_math.c **** *
 157:C:\Micrium\Software\uC-LIB\lib_math.c **** * Description : Set the current pseudo-random number generator seed.
 158:C:\Micrium\Software\uC-LIB\lib_math.c **** *
 159:C:\Micrium\Software\uC-LIB\lib_math.c **** * Argument(s) : seed        Initial (or current) value to set for the pseudo-random number sequence
 160:C:\Micrium\Software\uC-LIB\lib_math.c **** *
 161:C:\Micrium\Software\uC-LIB\lib_math.c **** * Return(s)   : none.
 162:C:\Micrium\Software\uC-LIB\lib_math.c **** *
 163:C:\Micrium\Software\uC-LIB\lib_math.c **** * Caller(s)   : Application.
 164:C:\Micrium\Software\uC-LIB\lib_math.c **** *
ARM GAS  C:\Users\daniel01\AppData\Local\Temp\ccMhmzKg.s 			page 5


 165:C:\Micrium\Software\uC-LIB\lib_math.c **** * Note(s)     : (1) IEEE Std 1003.1, 2004 Edition, Section 'rand() : DESCRIPTION' states that "sran
 166:C:\Micrium\Software\uC-LIB\lib_math.c **** *                   ... uses the argument as a seed for a new sequence of pseudo-random numbers to 
 167:C:\Micrium\Software\uC-LIB\lib_math.c **** *                   returned by subsequent calls to rand()".
 168:C:\Micrium\Software\uC-LIB\lib_math.c **** *
 169:C:\Micrium\Software\uC-LIB\lib_math.c **** *               (2) 'Math_RandSeedCur' MUST always be accessed exclusively in critical sections.
 170:C:\Micrium\Software\uC-LIB\lib_math.c **** *
 171:C:\Micrium\Software\uC-LIB\lib_math.c **** *                   See also 'Math_Rand()  Note #1b'.
 172:C:\Micrium\Software\uC-LIB\lib_math.c **** ***************************************************************************************************
 173:C:\Micrium\Software\uC-LIB\lib_math.c **** */
 174:C:\Micrium\Software\uC-LIB\lib_math.c **** 
 175:C:\Micrium\Software\uC-LIB\lib_math.c **** void  Math_RandSetSeed (RAND_NBR  seed)
 176:C:\Micrium\Software\uC-LIB\lib_math.c **** {
  61              		.loc 1 176 0
  62              		.cfi_startproc
  63              		@ args = 0, pretend = 0, frame = 16
  64              		@ frame_needed = 1, uses_anonymous_args = 0
  65 0000 80B5     		push	{r7, lr}
  66              	.LCFI2:
  67              		.cfi_def_cfa_offset 8
  68 0002 84B0     		sub	sp, sp, #16
  69              	.LCFI3:
  70              		.cfi_def_cfa_offset 24
  71 0004 00AF     		add	r7, sp, #0
  72              		.cfi_offset 14, -4
  73              		.cfi_offset 7, -8
  74              	.LCFI4:
  75              		.cfi_def_cfa_register 7
  76 0006 7860     		str	r0, [r7, #4]
 177:C:\Micrium\Software\uC-LIB\lib_math.c ****     CPU_SR_ALLOC();
  77              		.loc 1 177 0
  78 0008 4FF00003 		mov	r3, #0
  79 000c FB60     		str	r3, [r7, #12]
 178:C:\Micrium\Software\uC-LIB\lib_math.c **** 
 179:C:\Micrium\Software\uC-LIB\lib_math.c **** 
 180:C:\Micrium\Software\uC-LIB\lib_math.c ****     CPU_CRITICAL_ENTER();
  80              		.loc 1 180 0
  81 000e FFF7FEFF 		bl	CPU_SR_Save
  82 0012 0346     		mov	r3, r0
  83 0014 FB60     		str	r3, [r7, #12]
 181:C:\Micrium\Software\uC-LIB\lib_math.c ****     Math_RandSeedCur = seed;
  84              		.loc 1 181 0
  85 0016 40F20003 		movw	r3, #:lower16:Math_RandSeedCur
  86 001a C0F20003 		movt	r3, #:upper16:Math_RandSeedCur
  87 001e 7A68     		ldr	r2, [r7, #4]
  88 0020 1A60     		str	r2, [r3, #0]
 182:C:\Micrium\Software\uC-LIB\lib_math.c ****     CPU_CRITICAL_EXIT();
  89              		.loc 1 182 0
  90 0022 F868     		ldr	r0, [r7, #12]
  91 0024 FFF7FEFF 		bl	CPU_SR_Restore
 183:C:\Micrium\Software\uC-LIB\lib_math.c **** }
  92              		.loc 1 183 0
  93 0028 07F11007 		add	r7, r7, #16
  94 002c BD46     		mov	sp, r7
  95 002e 80BD     		pop	{r7, pc}
  96              		.cfi_endproc
  97              	.LFE1:
  98              		.size	Math_RandSetSeed, .-Math_RandSetSeed
ARM GAS  C:\Users\daniel01\AppData\Local\Temp\ccMhmzKg.s 			page 6


  99              		.section	.text.Math_Rand,"ax",%progbits
 100              		.align	2
 101              		.global	Math_Rand
 102              		.thumb
 103              		.thumb_func
 104              		.type	Math_Rand, %function
 105              	Math_Rand:
 106              	.LFB2:
 184:C:\Micrium\Software\uC-LIB\lib_math.c **** 
 185:C:\Micrium\Software\uC-LIB\lib_math.c **** 
 186:C:\Micrium\Software\uC-LIB\lib_math.c **** /*$PAGE*/
 187:C:\Micrium\Software\uC-LIB\lib_math.c **** /*
 188:C:\Micrium\Software\uC-LIB\lib_math.c **** ***************************************************************************************************
 189:C:\Micrium\Software\uC-LIB\lib_math.c **** *                                             Math_Rand()
 190:C:\Micrium\Software\uC-LIB\lib_math.c **** *
 191:C:\Micrium\Software\uC-LIB\lib_math.c **** * Description : Calculate the next pseudo-random number.
 192:C:\Micrium\Software\uC-LIB\lib_math.c **** *
 193:C:\Micrium\Software\uC-LIB\lib_math.c **** * Argument(s) : none.
 194:C:\Micrium\Software\uC-LIB\lib_math.c **** *
 195:C:\Micrium\Software\uC-LIB\lib_math.c **** * Return(s)   : Next pseudo-random number in the sequence after 'Math_RandSeedCur'.
 196:C:\Micrium\Software\uC-LIB\lib_math.c **** *
 197:C:\Micrium\Software\uC-LIB\lib_math.c **** * Caller(s)   : Application.
 198:C:\Micrium\Software\uC-LIB\lib_math.c **** *
 199:C:\Micrium\Software\uC-LIB\lib_math.c **** * Note(s)     : (1) (a) The pseudo-random number generator is implemented as a Linear Congruential 
 200:C:\Micrium\Software\uC-LIB\lib_math.c **** *                       Generator (LCG).
 201:C:\Micrium\Software\uC-LIB\lib_math.c **** *
 202:C:\Micrium\Software\uC-LIB\lib_math.c **** *                   (b) The pseudo-random number generated is in the range [0, RAND_LCG_PARAM_M].
 203:C:\Micrium\Software\uC-LIB\lib_math.c **** *
 204:C:\Micrium\Software\uC-LIB\lib_math.c **** *                   See also 'Math_RandSeed()  Note #1'.
 205:C:\Micrium\Software\uC-LIB\lib_math.c **** *
 206:C:\Micrium\Software\uC-LIB\lib_math.c **** *               (2) (a) IEEE Std 1003.1, 2004 Edition, Section 'rand() : DESCRIPTION' states that "
 207:C:\Micrium\Software\uC-LIB\lib_math.c **** *                       ... need not be reentrant ... [and] is not required to be thread-safe".
 208:C:\Micrium\Software\uC-LIB\lib_math.c **** *
 209:C:\Micrium\Software\uC-LIB\lib_math.c **** *                   (b) However, in order to implement Math_Rand() as re-entrant; 'Math_RandSeedCur
 210:C:\Micrium\Software\uC-LIB\lib_math.c **** *                       always be accessed & updated exclusively in critical sections.
 211:C:\Micrium\Software\uC-LIB\lib_math.c **** *
 212:C:\Micrium\Software\uC-LIB\lib_math.c **** *                   See also 'Math_RandSeed()  Note #2'.
 213:C:\Micrium\Software\uC-LIB\lib_math.c **** ***************************************************************************************************
 214:C:\Micrium\Software\uC-LIB\lib_math.c **** */
 215:C:\Micrium\Software\uC-LIB\lib_math.c **** 
 216:C:\Micrium\Software\uC-LIB\lib_math.c **** RAND_NBR  Math_Rand (void)
 217:C:\Micrium\Software\uC-LIB\lib_math.c **** {
 107              		.loc 1 217 0
 108              		.cfi_startproc
 109              		@ args = 0, pretend = 0, frame = 16
 110              		@ frame_needed = 1, uses_anonymous_args = 0
 111 0000 80B5     		push	{r7, lr}
 112              	.LCFI5:
 113              		.cfi_def_cfa_offset 8
 114 0002 84B0     		sub	sp, sp, #16
 115              	.LCFI6:
 116              		.cfi_def_cfa_offset 24
 117 0004 00AF     		add	r7, sp, #0
 118              		.cfi_offset 14, -4
 119              		.cfi_offset 7, -8
 120              	.LCFI7:
 121              		.cfi_def_cfa_register 7
ARM GAS  C:\Users\daniel01\AppData\Local\Temp\ccMhmzKg.s 			page 7


 218:C:\Micrium\Software\uC-LIB\lib_math.c ****     RAND_NBR  seed;
 219:C:\Micrium\Software\uC-LIB\lib_math.c ****     RAND_NBR  rand_nbr;
 220:C:\Micrium\Software\uC-LIB\lib_math.c ****     CPU_SR_ALLOC();
 122              		.loc 1 220 0
 123 0006 4FF00003 		mov	r3, #0
 124 000a FB60     		str	r3, [r7, #12]
 221:C:\Micrium\Software\uC-LIB\lib_math.c **** 
 222:C:\Micrium\Software\uC-LIB\lib_math.c **** 
 223:C:\Micrium\Software\uC-LIB\lib_math.c ****     CPU_CRITICAL_ENTER();
 125              		.loc 1 223 0
 126 000c FFF7FEFF 		bl	CPU_SR_Save
 127 0010 0346     		mov	r3, r0
 128 0012 FB60     		str	r3, [r7, #12]
 224:C:\Micrium\Software\uC-LIB\lib_math.c ****     seed             = Math_RandSeedCur;
 129              		.loc 1 224 0
 130 0014 40F20003 		movw	r3, #:lower16:Math_RandSeedCur
 131 0018 C0F20003 		movt	r3, #:upper16:Math_RandSeedCur
 132 001c 1B68     		ldr	r3, [r3, #0]
 133 001e 7B60     		str	r3, [r7, #4]
 225:C:\Micrium\Software\uC-LIB\lib_math.c ****     rand_nbr         = Math_RandSeed(seed);
 134              		.loc 1 225 0
 135 0020 7868     		ldr	r0, [r7, #4]
 136 0022 FFF7FEFF 		bl	Math_RandSeed
 137 0026 0346     		mov	r3, r0
 138 0028 BB60     		str	r3, [r7, #8]
 226:C:\Micrium\Software\uC-LIB\lib_math.c ****     Math_RandSeedCur = rand_nbr;
 139              		.loc 1 226 0
 140 002a 40F20003 		movw	r3, #:lower16:Math_RandSeedCur
 141 002e C0F20003 		movt	r3, #:upper16:Math_RandSeedCur
 142 0032 BA68     		ldr	r2, [r7, #8]
 143 0034 1A60     		str	r2, [r3, #0]
 227:C:\Micrium\Software\uC-LIB\lib_math.c ****     CPU_CRITICAL_EXIT();
 144              		.loc 1 227 0
 145 0036 F868     		ldr	r0, [r7, #12]
 146 0038 FFF7FEFF 		bl	CPU_SR_Restore
 228:C:\Micrium\Software\uC-LIB\lib_math.c **** 
 229:C:\Micrium\Software\uC-LIB\lib_math.c ****     return (rand_nbr);
 147              		.loc 1 229 0
 148 003c BB68     		ldr	r3, [r7, #8]
 230:C:\Micrium\Software\uC-LIB\lib_math.c **** }
 149              		.loc 1 230 0
 150 003e 1846     		mov	r0, r3
 151 0040 07F11007 		add	r7, r7, #16
 152 0044 BD46     		mov	sp, r7
 153 0046 80BD     		pop	{r7, pc}
 154              		.cfi_endproc
 155              	.LFE2:
 156              		.size	Math_Rand, .-Math_Rand
 157              		.section	.text.Math_RandSeed,"ax",%progbits
 158              		.align	2
 159              		.global	Math_RandSeed
 160              		.thumb
 161              		.thumb_func
 162              		.type	Math_RandSeed, %function
 163              	Math_RandSeed:
 164              	.LFB3:
 231:C:\Micrium\Software\uC-LIB\lib_math.c **** 
ARM GAS  C:\Users\daniel01\AppData\Local\Temp\ccMhmzKg.s 			page 8


 232:C:\Micrium\Software\uC-LIB\lib_math.c **** 
 233:C:\Micrium\Software\uC-LIB\lib_math.c **** /*$PAGE*/
 234:C:\Micrium\Software\uC-LIB\lib_math.c **** /*
 235:C:\Micrium\Software\uC-LIB\lib_math.c **** ***************************************************************************************************
 236:C:\Micrium\Software\uC-LIB\lib_math.c **** *                                           Math_RandSeed()
 237:C:\Micrium\Software\uC-LIB\lib_math.c **** *
 238:C:\Micrium\Software\uC-LIB\lib_math.c **** * Description : Calculate the next pseudo-random number.
 239:C:\Micrium\Software\uC-LIB\lib_math.c **** *
 240:C:\Micrium\Software\uC-LIB\lib_math.c **** * Argument(s) : seed        Initial (or current) value for the pseudo-random number sequence.
 241:C:\Micrium\Software\uC-LIB\lib_math.c **** *
 242:C:\Micrium\Software\uC-LIB\lib_math.c **** * Return(s)   : Next pseudo-random number in the sequence after 'seed'.
 243:C:\Micrium\Software\uC-LIB\lib_math.c **** *
 244:C:\Micrium\Software\uC-LIB\lib_math.c **** * Caller(s)   : Math_Rand(),
 245:C:\Micrium\Software\uC-LIB\lib_math.c **** *               Application.
 246:C:\Micrium\Software\uC-LIB\lib_math.c **** *
 247:C:\Micrium\Software\uC-LIB\lib_math.c **** * Note(s)     : (1) (a) BSD/ANSI-C implements rand() as a Linear Congruential Generator (LCG) :
 248:C:\Micrium\Software\uC-LIB\lib_math.c **** *
 249:C:\Micrium\Software\uC-LIB\lib_math.c **** *                       (A) random_number       =  [(a * random_number ) + b]  modulo m
 250:C:\Micrium\Software\uC-LIB\lib_math.c **** *                                        n + 1                        n
 251:C:\Micrium\Software\uC-LIB\lib_math.c **** *
 252:C:\Micrium\Software\uC-LIB\lib_math.c **** *                               where
 253:C:\Micrium\Software\uC-LIB\lib_math.c **** *                                       (1) (a) random_number           Next     random number to g
 254:C:\Micrium\Software\uC-LIB\lib_math.c **** *                                                            n+1
 255:C:\Micrium\Software\uC-LIB\lib_math.c **** *                                           (b) random_number           Previous random number    g
 256:C:\Micrium\Software\uC-LIB\lib_math.c **** *                                                            n
 257:C:\Micrium\Software\uC-LIB\lib_math.c **** *
 258:C:\Micrium\Software\uC-LIB\lib_math.c **** *                                       (2) a = RAND_LCG_PARAM_A        LCG multiplier
 259:C:\Micrium\Software\uC-LIB\lib_math.c **** *                                       (3) b = RAND_LCG_PARAM_B        LCG incrementor
 260:C:\Micrium\Software\uC-LIB\lib_math.c **** *                                       (4) m = RAND_LCG_PARAM_M + 1    LCG modulus
 261:C:\Micrium\Software\uC-LIB\lib_math.c **** *
 262:C:\Micrium\Software\uC-LIB\lib_math.c **** *                   (b) The pseudo-random number generated is in the range [0, RAND_LCG_PARAM_M].
 263:C:\Micrium\Software\uC-LIB\lib_math.c **** *
 264:C:\Micrium\Software\uC-LIB\lib_math.c ****                     See also 'lib_math.h  RANDOM NUMBER DEFINES  Note #1b'.
 265:C:\Micrium\Software\uC-LIB\lib_math.c **** *
 266:C:\Micrium\Software\uC-LIB\lib_math.c **** *               (2) (a) IEEE Std 1003.1, 2004 Edition, Section 'rand() : DESCRIPTION' states that "
 267:C:\Micrium\Software\uC-LIB\lib_math.c **** *                       ... need not be reentrant ... [and] is not required to be thread-safe".
 268:C:\Micrium\Software\uC-LIB\lib_math.c **** *
 269:C:\Micrium\Software\uC-LIB\lib_math.c **** *                   (b) However, Math_RandSeed() is re-entrant since it calculates the next random 
 270:C:\Micrium\Software\uC-LIB\lib_math.c **** *                       using ONLY local variables.
 271:C:\Micrium\Software\uC-LIB\lib_math.c **** ***************************************************************************************************
 272:C:\Micrium\Software\uC-LIB\lib_math.c **** */
 273:C:\Micrium\Software\uC-LIB\lib_math.c **** 
 274:C:\Micrium\Software\uC-LIB\lib_math.c **** RAND_NBR  Math_RandSeed (RAND_NBR  seed)
 275:C:\Micrium\Software\uC-LIB\lib_math.c **** {
 165              		.loc 1 275 0
 166              		.cfi_startproc
 167              		@ args = 0, pretend = 0, frame = 16
 168              		@ frame_needed = 1, uses_anonymous_args = 0
 169              		@ link register save eliminated.
 170 0000 80B4     		push	{r7}
 171              	.LCFI8:
 172              		.cfi_def_cfa_offset 4
 173 0002 85B0     		sub	sp, sp, #20
 174              	.LCFI9:
 175              		.cfi_def_cfa_offset 24
 176 0004 00AF     		add	r7, sp, #0
 177              		.cfi_offset 7, -4
ARM GAS  C:\Users\daniel01\AppData\Local\Temp\ccMhmzKg.s 			page 9


 178              	.LCFI10:
 179              		.cfi_def_cfa_register 7
 180 0006 7860     		str	r0, [r7, #4]
 276:C:\Micrium\Software\uC-LIB\lib_math.c ****     RAND_NBR  rand_nbr;
 277:C:\Micrium\Software\uC-LIB\lib_math.c **** 
 278:C:\Micrium\Software\uC-LIB\lib_math.c **** 
 279:C:\Micrium\Software\uC-LIB\lib_math.c ****     rand_nbr = (((RAND_NBR)RAND_LCG_PARAM_A * seed) + (RAND_NBR)RAND_LCG_PARAM_B)  %  ((RAND_NBR)RA
 181              		.loc 1 279 0
 182 0008 7A68     		ldr	r2, [r7, #4]
 183 000a 44F66D63 		movw	r3, #:lower16:1103515245
 184 000e C4F2C613 		movt	r3, #:upper16:1103515245
 185 0012 03FB02F3 		mul	r3, r3, r2
 186 0016 03F54053 		add	r3, r3, #12288
 187 001a 03F13903 		add	r3, r3, #57
 188 001e 23F00043 		bic	r3, r3, #-2147483648
 189 0022 FB60     		str	r3, [r7, #12]
 280:C:\Micrium\Software\uC-LIB\lib_math.c **** 
 281:C:\Micrium\Software\uC-LIB\lib_math.c ****     return (rand_nbr);
 190              		.loc 1 281 0
 191 0024 FB68     		ldr	r3, [r7, #12]
 282:C:\Micrium\Software\uC-LIB\lib_math.c **** }
 192              		.loc 1 282 0
 193 0026 1846     		mov	r0, r3
 194 0028 07F11407 		add	r7, r7, #20
 195 002c BD46     		mov	sp, r7
 196 002e 80BC     		pop	{r7}
 197 0030 7047     		bx	lr
 198              		.cfi_endproc
 199              	.LFE3:
 200              		.size	Math_RandSeed, .-Math_RandSeed
 201 0032 00BF     		.text
 202              	.Letext0: