ARM GAS  C:\Users\daniel01\AppData\Local\Temp\ccg4pOSx.s 			page 1


   1              		.syntax unified
   2              		.cpu cortex-m3
   3              		.fpu softvfp
   4              		.eabi_attribute 20, 1
   5              		.eabi_attribute 21, 1
   6              		.eabi_attribute 23, 3
   7              		.eabi_attribute 24, 1
   8              		.eabi_attribute 25, 1
   9              		.eabi_attribute 26, 1
  10              		.eabi_attribute 30, 6
  11              		.eabi_attribute 18, 4
  12              		.thumb
  13              		.file	"os_mutex.c"
  20 0000 A6020000 		.text
  20      0200D700 
  20      00000201 
  20      FB0E0D00 
  20      01010101 
  21              	.Ltext0:
  22              		.cfi_sections	.debug_frame
  23              		.section	.text.OSMutexCreate,"ax",%progbits
  24              		.align	2
  25              		.global	OSMutexCreate
  26              		.thumb
  27              		.thumb_func
  28              		.type	OSMutexCreate, %function
  29              	OSMutexCreate:
  30              	.LFB0:
  31              		.file 1 "C:\\Micrium\\Software\\uCOS-III\\Source\\os_mutex.c"
   1:C:\Micrium\Software\uCOS-III\Source\os_mutex.c **** /*
   2:C:\Micrium\Software\uCOS-III\Source\os_mutex.c **** ***************************************************************************************************
   3:C:\Micrium\Software\uCOS-III\Source\os_mutex.c **** *                                                      uC/OS-III
   4:C:\Micrium\Software\uCOS-III\Source\os_mutex.c **** *                                                 The Real-Time Kernel
   5:C:\Micrium\Software\uCOS-III\Source\os_mutex.c **** *
   6:C:\Micrium\Software\uCOS-III\Source\os_mutex.c **** *                                  (c) Copyright 2009-2012; Micrium, Inc.; Weston, FL
   7:C:\Micrium\Software\uCOS-III\Source\os_mutex.c **** *                           All rights reserved.  Protected by international copyright laws.
   8:C:\Micrium\Software\uCOS-III\Source\os_mutex.c **** *
   9:C:\Micrium\Software\uCOS-III\Source\os_mutex.c **** *                                                   MUTEX MANAGEMENT
  10:C:\Micrium\Software\uCOS-III\Source\os_mutex.c **** *
  11:C:\Micrium\Software\uCOS-III\Source\os_mutex.c **** * File    : OS_MUTEX.C
  12:C:\Micrium\Software\uCOS-III\Source\os_mutex.c **** * By      : JJL
  13:C:\Micrium\Software\uCOS-III\Source\os_mutex.c **** * Version : V3.03.01
  14:C:\Micrium\Software\uCOS-III\Source\os_mutex.c **** *
  15:C:\Micrium\Software\uCOS-III\Source\os_mutex.c **** * LICENSING TERMS:
  16:C:\Micrium\Software\uCOS-III\Source\os_mutex.c **** * ---------------
  17:C:\Micrium\Software\uCOS-III\Source\os_mutex.c **** *           uC/OS-III is provided in source form for FREE short-term evaluation, for educational us
  18:C:\Micrium\Software\uCOS-III\Source\os_mutex.c **** *           for peaceful research.  If you plan or intend to use uC/OS-III in a commercial applicat
  19:C:\Micrium\Software\uCOS-III\Source\os_mutex.c **** *           product then, you need to contact Micrium to properly license uC/OS-III for its use in 
  20:C:\Micrium\Software\uCOS-III\Source\os_mutex.c **** *           application/product.   We provide ALL the source code for your convenience and to help 
  21:C:\Micrium\Software\uCOS-III\Source\os_mutex.c **** *           experience uC/OS-III.  The fact that the source is provided does NOT mean that you can 
  22:C:\Micrium\Software\uCOS-III\Source\os_mutex.c **** *           it commercially without paying a licensing fee.
ARM GAS  C:\Users\daniel01\AppData\Local\Temp\ccg4pOSx.s 			page 2


  23:C:\Micrium\Software\uCOS-III\Source\os_mutex.c **** *
  24:C:\Micrium\Software\uCOS-III\Source\os_mutex.c **** *           Knowledge of the source code may NOT be used to develop a similar product.
  25:C:\Micrium\Software\uCOS-III\Source\os_mutex.c **** *
  26:C:\Micrium\Software\uCOS-III\Source\os_mutex.c **** *           Please help us continue to provide the embedded community with the finest software avai
  27:C:\Micrium\Software\uCOS-III\Source\os_mutex.c **** *           Your honesty is greatly appreciated.
  28:C:\Micrium\Software\uCOS-III\Source\os_mutex.c **** *
  29:C:\Micrium\Software\uCOS-III\Source\os_mutex.c **** *           You can contact us at www.micrium.com, or by phone at +1 (954) 217-2036.
  30:C:\Micrium\Software\uCOS-III\Source\os_mutex.c **** ***************************************************************************************************
  31:C:\Micrium\Software\uCOS-III\Source\os_mutex.c **** */
  32:C:\Micrium\Software\uCOS-III\Source\os_mutex.c **** 
  33:C:\Micrium\Software\uCOS-III\Source\os_mutex.c **** #define  MICRIUM_SOURCE
  34:C:\Micrium\Software\uCOS-III\Source\os_mutex.c **** #include <os.h>
  35:C:\Micrium\Software\uCOS-III\Source\os_mutex.c **** 
  36:C:\Micrium\Software\uCOS-III\Source\os_mutex.c **** #ifdef VSC_INCLUDE_SOURCE_FILE_NAMES
  37:C:\Micrium\Software\uCOS-III\Source\os_mutex.c **** const  CPU_CHAR  *os_mutex__c = "$Id: $";
  38:C:\Micrium\Software\uCOS-III\Source\os_mutex.c **** #endif
  39:C:\Micrium\Software\uCOS-III\Source\os_mutex.c **** 
  40:C:\Micrium\Software\uCOS-III\Source\os_mutex.c **** 
  41:C:\Micrium\Software\uCOS-III\Source\os_mutex.c **** #if OS_CFG_MUTEX_EN > 0u
  42:C:\Micrium\Software\uCOS-III\Source\os_mutex.c **** /*
  43:C:\Micrium\Software\uCOS-III\Source\os_mutex.c **** ***************************************************************************************************
  44:C:\Micrium\Software\uCOS-III\Source\os_mutex.c **** *                                                   CREATE A MUTEX
  45:C:\Micrium\Software\uCOS-III\Source\os_mutex.c **** *
  46:C:\Micrium\Software\uCOS-III\Source\os_mutex.c **** * Description: This function creates a mutex.
  47:C:\Micrium\Software\uCOS-III\Source\os_mutex.c **** *
  48:C:\Micrium\Software\uCOS-III\Source\os_mutex.c **** * Arguments  : p_mutex       is a pointer to the mutex to initialize.  Your application is responsi
  49:C:\Micrium\Software\uCOS-III\Source\os_mutex.c **** *                            storage for the mutex.
  50:C:\Micrium\Software\uCOS-III\Source\os_mutex.c **** *
  51:C:\Micrium\Software\uCOS-III\Source\os_mutex.c **** *              p_name        is a pointer to the name you would like to give the mutex.
  52:C:\Micrium\Software\uCOS-III\Source\os_mutex.c **** *
  53:C:\Micrium\Software\uCOS-III\Source\os_mutex.c **** *              p_err         is a pointer to a variable that will contain an error code returned by
  54:C:\Micrium\Software\uCOS-III\Source\os_mutex.c **** *
  55:C:\Micrium\Software\uCOS-III\Source\os_mutex.c **** *                                OS_ERR_NONE                    if the call was successful
  56:C:\Micrium\Software\uCOS-III\Source\os_mutex.c **** *                                OS_ERR_CREATE_ISR              if you called this function from an
  57:C:\Micrium\Software\uCOS-III\Source\os_mutex.c **** *                                OS_ERR_ILLEGAL_CREATE_RUN_TIME if you are trying to create the Mut
  58:C:\Micrium\Software\uCOS-III\Source\os_mutex.c **** *                                                                 OSSafetyCriticalStart().
  59:C:\Micrium\Software\uCOS-III\Source\os_mutex.c **** *                                OS_ERR_NAME                    if 'p_name'  is a NULL pointer
  60:C:\Micrium\Software\uCOS-III\Source\os_mutex.c **** *                                OS_ERR_OBJ_CREATED             if the mutex has already been creat
  61:C:\Micrium\Software\uCOS-III\Source\os_mutex.c **** *                                OS_ERR_OBJ_PTR_NULL            if 'p_mutex' is a NULL pointer
  62:C:\Micrium\Software\uCOS-III\Source\os_mutex.c **** *
  63:C:\Micrium\Software\uCOS-III\Source\os_mutex.c **** * Returns    : none
  64:C:\Micrium\Software\uCOS-III\Source\os_mutex.c **** ***************************************************************************************************
  65:C:\Micrium\Software\uCOS-III\Source\os_mutex.c **** */
  66:C:\Micrium\Software\uCOS-III\Source\os_mutex.c **** 
  67:C:\Micrium\Software\uCOS-III\Source\os_mutex.c **** void  OSMutexCreate (OS_MUTEX  *p_mutex,
  68:C:\Micrium\Software\uCOS-III\Source\os_mutex.c ****                      CPU_CHAR  *p_name,
  69:C:\Micrium\Software\uCOS-III\Source\os_mutex.c ****                      OS_ERR    *p_err)
  70:C:\Micrium\Software\uCOS-III\Source\os_mutex.c **** {
  32              		.loc 1 70 0
  33              		.cfi_startproc
  34              		@ args = 0, pretend = 0, frame = 24
  35              		@ frame_needed = 1, uses_anonymous_args = 0
  36 0000 80B5     		push	{r7, lr}
  37              	.LCFI0:
  38              		.cfi_def_cfa_offset 8
  39 0002 86B0     		sub	sp, sp, #24
  40              	.LCFI1:
ARM GAS  C:\Users\daniel01\AppData\Local\Temp\ccg4pOSx.s 			page 3


  41              		.cfi_def_cfa_offset 32
  42 0004 00AF     		add	r7, sp, #0
  43              		.cfi_offset 14, -4
  44              		.cfi_offset 7, -8
  45              	.LCFI2:
  46              		.cfi_def_cfa_register 7
  47 0006 F860     		str	r0, [r7, #12]
  48 0008 B960     		str	r1, [r7, #8]
  49 000a 7A60     		str	r2, [r7, #4]
  71:C:\Micrium\Software\uCOS-III\Source\os_mutex.c ****     CPU_SR_ALLOC();
  50              		.loc 1 71 0
  51 000c 4FF00003 		mov	r3, #0
  52 0010 7B61     		str	r3, [r7, #20]
  72:C:\Micrium\Software\uCOS-III\Source\os_mutex.c **** 
  73:C:\Micrium\Software\uCOS-III\Source\os_mutex.c **** 
  74:C:\Micrium\Software\uCOS-III\Source\os_mutex.c **** 
  75:C:\Micrium\Software\uCOS-III\Source\os_mutex.c **** #ifdef OS_SAFETY_CRITICAL
  76:C:\Micrium\Software\uCOS-III\Source\os_mutex.c ****     if (p_err == (OS_ERR *)0) {
  77:C:\Micrium\Software\uCOS-III\Source\os_mutex.c ****         OS_SAFETY_CRITICAL_EXCEPTION();
  78:C:\Micrium\Software\uCOS-III\Source\os_mutex.c ****         return;
  79:C:\Micrium\Software\uCOS-III\Source\os_mutex.c ****     }
  80:C:\Micrium\Software\uCOS-III\Source\os_mutex.c **** #endif
  81:C:\Micrium\Software\uCOS-III\Source\os_mutex.c **** 
  82:C:\Micrium\Software\uCOS-III\Source\os_mutex.c **** #ifdef OS_SAFETY_CRITICAL_IEC61508
  83:C:\Micrium\Software\uCOS-III\Source\os_mutex.c ****     if (OSSafetyCriticalStartFlag == DEF_TRUE) {
  84:C:\Micrium\Software\uCOS-III\Source\os_mutex.c ****        *p_err = OS_ERR_ILLEGAL_CREATE_RUN_TIME;
  85:C:\Micrium\Software\uCOS-III\Source\os_mutex.c ****         return;
  86:C:\Micrium\Software\uCOS-III\Source\os_mutex.c ****     }
  87:C:\Micrium\Software\uCOS-III\Source\os_mutex.c **** #endif
  88:C:\Micrium\Software\uCOS-III\Source\os_mutex.c **** 
  89:C:\Micrium\Software\uCOS-III\Source\os_mutex.c **** #if OS_CFG_CALLED_FROM_ISR_CHK_EN > 0u
  90:C:\Micrium\Software\uCOS-III\Source\os_mutex.c ****     if (OSIntNestingCtr > (OS_NESTING_CTR)0) {              /* Not allowed to be called from an ISR
  53              		.loc 1 90 0
  54 0012 40F20003 		movw	r3, #:lower16:OSIntNestingCtr
  55 0016 C0F20003 		movt	r3, #:upper16:OSIntNestingCtr
  56 001a 1B78     		ldrb	r3, [r3, #0]	@ zero_extendqisi2
  57 001c 002B     		cmp	r3, #0
  58 001e 04D0     		beq	.L2
  91:C:\Micrium\Software\uCOS-III\Source\os_mutex.c ****        *p_err = OS_ERR_CREATE_ISR;
  59              		.loc 1 91 0
  60 0020 7B68     		ldr	r3, [r7, #4]
  61 0022 42F6E162 		movw	r2, #12001
  62 0026 1A80     		strh	r2, [r3, #0]	@ movhi
  92:C:\Micrium\Software\uCOS-III\Source\os_mutex.c ****         return;
  63              		.loc 1 92 0
  64 0028 43E0     		b	.L5
  65              	.L2:
  93:C:\Micrium\Software\uCOS-III\Source\os_mutex.c ****     }
  94:C:\Micrium\Software\uCOS-III\Source\os_mutex.c **** #endif
  95:C:\Micrium\Software\uCOS-III\Source\os_mutex.c **** 
  96:C:\Micrium\Software\uCOS-III\Source\os_mutex.c **** #if OS_CFG_ARG_CHK_EN > 0u
  97:C:\Micrium\Software\uCOS-III\Source\os_mutex.c ****     if (p_mutex == (OS_MUTEX *)0) {                         /* Validate 'p_mutex'                  
  66              		.loc 1 97 0
  67 002a FB68     		ldr	r3, [r7, #12]
  68 002c 002B     		cmp	r3, #0
  69 002e 04D1     		bne	.L4
  98:C:\Micrium\Software\uCOS-III\Source\os_mutex.c ****        *p_err = OS_ERR_OBJ_PTR_NULL;
ARM GAS  C:\Users\daniel01\AppData\Local\Temp\ccg4pOSx.s 			page 4


  70              		.loc 1 98 0
  71 0030 7B68     		ldr	r3, [r7, #4]
  72 0032 45F6C352 		movw	r2, #24003
  73 0036 1A80     		strh	r2, [r3, #0]	@ movhi
  99:C:\Micrium\Software\uCOS-III\Source\os_mutex.c ****         return;
  74              		.loc 1 99 0
  75 0038 3BE0     		b	.L5
  76              	.L4:
 100:C:\Micrium\Software\uCOS-III\Source\os_mutex.c ****     }
 101:C:\Micrium\Software\uCOS-III\Source\os_mutex.c **** #endif
 102:C:\Micrium\Software\uCOS-III\Source\os_mutex.c **** 
 103:C:\Micrium\Software\uCOS-III\Source\os_mutex.c ****     OS_CRITICAL_ENTER();
  77              		.loc 1 103 0
  78 003a FFF7FEFF 		bl	CPU_SR_Save
  79 003e 0346     		mov	r3, r0
  80 0040 7B61     		str	r3, [r7, #20]
 104:C:\Micrium\Software\uCOS-III\Source\os_mutex.c ****     p_mutex->Type              =  OS_OBJ_TYPE_MUTEX;        /* Mark the data structure as a mutex  
  81              		.loc 1 104 0
  82 0042 FA68     		ldr	r2, [r7, #12]
  83 0044 45F24D53 		movw	r3, #:lower16:1481921869
  84 0048 C5F65403 		movt	r3, #:upper16:1481921869
  85 004c 1360     		str	r3, [r2, #0]
 105:C:\Micrium\Software\uCOS-III\Source\os_mutex.c ****     p_mutex->NamePtr           =  p_name;
  86              		.loc 1 105 0
  87 004e FB68     		ldr	r3, [r7, #12]
  88 0050 BA68     		ldr	r2, [r7, #8]
  89 0052 5A60     		str	r2, [r3, #4]
 106:C:\Micrium\Software\uCOS-III\Source\os_mutex.c ****     p_mutex->OwnerTCBPtr       = (OS_TCB       *)0;
  90              		.loc 1 106 0
  91 0054 FB68     		ldr	r3, [r7, #12]
  92 0056 4FF00002 		mov	r2, #0
  93 005a 1A62     		str	r2, [r3, #32]
 107:C:\Micrium\Software\uCOS-III\Source\os_mutex.c ****     p_mutex->OwnerNestingCtr   = (OS_NESTING_CTR)0;         /* Mutex is available                  
  94              		.loc 1 107 0
  95 005c FB68     		ldr	r3, [r7, #12]
  96 005e 4FF00002 		mov	r2, #0
  97 0062 83F82520 		strb	r2, [r3, #37]
 108:C:\Micrium\Software\uCOS-III\Source\os_mutex.c ****     p_mutex->TS                = (CPU_TS        )0;
  98              		.loc 1 108 0
  99 0066 FB68     		ldr	r3, [r7, #12]
 100 0068 4FF00002 		mov	r2, #0
 101 006c 9A62     		str	r2, [r3, #40]
 109:C:\Micrium\Software\uCOS-III\Source\os_mutex.c ****     p_mutex->OwnerOriginalPrio =  OS_CFG_PRIO_MAX;
 102              		.loc 1 109 0
 103 006e FB68     		ldr	r3, [r7, #12]
 104 0070 4FF00802 		mov	r2, #8
 105 0074 83F82420 		strb	r2, [r3, #36]
 110:C:\Micrium\Software\uCOS-III\Source\os_mutex.c ****     OS_PendListInit(&p_mutex->PendList);                    /* Initialize the waiting list         
 106              		.loc 1 110 0
 107 0078 FB68     		ldr	r3, [r7, #12]
 108 007a 03F10803 		add	r3, r3, #8
 109 007e 1846     		mov	r0, r3
 110 0080 FFF7FEFF 		bl	OS_PendListInit
 111:C:\Micrium\Software\uCOS-III\Source\os_mutex.c **** 
 112:C:\Micrium\Software\uCOS-III\Source\os_mutex.c **** #if OS_CFG_DBG_EN > 0u
 113:C:\Micrium\Software\uCOS-III\Source\os_mutex.c ****     OS_MutexDbgListAdd(p_mutex);
 111              		.loc 1 113 0
ARM GAS  C:\Users\daniel01\AppData\Local\Temp\ccg4pOSx.s 			page 5


 112 0084 F868     		ldr	r0, [r7, #12]
 113 0086 FFF7FEFF 		bl	OS_MutexDbgListAdd
 114:C:\Micrium\Software\uCOS-III\Source\os_mutex.c **** #endif
 115:C:\Micrium\Software\uCOS-III\Source\os_mutex.c ****     OSMutexQty++;
 114              		.loc 1 115 0
 115 008a 40F20003 		movw	r3, #:lower16:OSMutexQty
 116 008e C0F20003 		movt	r3, #:upper16:OSMutexQty
 117 0092 1B88     		ldrh	r3, [r3, #0]
 118 0094 03F10103 		add	r3, r3, #1
 119 0098 9AB2     		uxth	r2, r3
 120 009a 40F20003 		movw	r3, #:lower16:OSMutexQty
 121 009e C0F20003 		movt	r3, #:upper16:OSMutexQty
 122 00a2 1A80     		strh	r2, [r3, #0]	@ movhi
 116:C:\Micrium\Software\uCOS-III\Source\os_mutex.c **** 
 117:C:\Micrium\Software\uCOS-III\Source\os_mutex.c ****     OS_CRITICAL_EXIT_NO_SCHED();
 123              		.loc 1 117 0
 124 00a4 7869     		ldr	r0, [r7, #20]
 125 00a6 FFF7FEFF 		bl	CPU_SR_Restore
 118:C:\Micrium\Software\uCOS-III\Source\os_mutex.c ****    *p_err = OS_ERR_NONE;
 126              		.loc 1 118 0
 127 00aa 7B68     		ldr	r3, [r7, #4]
 128 00ac 4FF00002 		mov	r2, #0
 129 00b0 1A80     		strh	r2, [r3, #0]	@ movhi
 130              	.L5:
 119:C:\Micrium\Software\uCOS-III\Source\os_mutex.c **** }
 131              		.loc 1 119 0
 132 00b2 07F11807 		add	r7, r7, #24
 133 00b6 BD46     		mov	sp, r7
 134 00b8 80BD     		pop	{r7, pc}
 135              		.cfi_endproc
 136              	.LFE0:
 137              		.size	OSMutexCreate, .-OSMutexCreate
 138 00ba 00BF     		.section	.text.OSMutexDel,"ax",%progbits
 139              		.align	2
 140              		.global	OSMutexDel
 141              		.thumb
 142              		.thumb_func
 143              		.type	OSMutexDel, %function
 144              	OSMutexDel:
 145              	.LFB1:
 120:C:\Micrium\Software\uCOS-III\Source\os_mutex.c **** 
 121:C:\Micrium\Software\uCOS-III\Source\os_mutex.c **** /*$PAGE*/
 122:C:\Micrium\Software\uCOS-III\Source\os_mutex.c **** /*
 123:C:\Micrium\Software\uCOS-III\Source\os_mutex.c **** ***************************************************************************************************
 124:C:\Micrium\Software\uCOS-III\Source\os_mutex.c **** *                                                   DELETE A MUTEX
 125:C:\Micrium\Software\uCOS-III\Source\os_mutex.c **** *
 126:C:\Micrium\Software\uCOS-III\Source\os_mutex.c **** * Description: This function deletes a mutex and readies all tasks pending on the mutex.
 127:C:\Micrium\Software\uCOS-III\Source\os_mutex.c **** *
 128:C:\Micrium\Software\uCOS-III\Source\os_mutex.c **** * Arguments  : p_mutex       is a pointer to the mutex to delete
 129:C:\Micrium\Software\uCOS-III\Source\os_mutex.c **** *
 130:C:\Micrium\Software\uCOS-III\Source\os_mutex.c **** *              opt           determines delete options as follows:
 131:C:\Micrium\Software\uCOS-III\Source\os_mutex.c **** *
 132:C:\Micrium\Software\uCOS-III\Source\os_mutex.c **** *                                OS_OPT_DEL_NO_PEND          Delete mutex ONLY if no task pending
 133:C:\Micrium\Software\uCOS-III\Source\os_mutex.c **** *                                OS_OPT_DEL_ALWAYS           Deletes the mutex even if tasks are wa
 134:C:\Micrium\Software\uCOS-III\Source\os_mutex.c **** *                                                            In this case, all the tasks pending wi
 135:C:\Micrium\Software\uCOS-III\Source\os_mutex.c **** *
 136:C:\Micrium\Software\uCOS-III\Source\os_mutex.c **** *              p_err         is a pointer to a variable that will contain an error code returned by
ARM GAS  C:\Users\daniel01\AppData\Local\Temp\ccg4pOSx.s 			page 6


 137:C:\Micrium\Software\uCOS-III\Source\os_mutex.c **** *
 138:C:\Micrium\Software\uCOS-III\Source\os_mutex.c **** *                                OS_ERR_NONE                 The call was successful and the mutex 
 139:C:\Micrium\Software\uCOS-III\Source\os_mutex.c **** *                                OS_ERR_DEL_ISR              If you attempted to delete the mutex f
 140:C:\Micrium\Software\uCOS-III\Source\os_mutex.c **** *                                OS_ERR_OBJ_PTR_NULL         If 'p_mutex' is a NULL pointer.
 141:C:\Micrium\Software\uCOS-III\Source\os_mutex.c **** *                                OS_ERR_OBJ_TYPE             If 'p_mutex' is not pointing to a mute
 142:C:\Micrium\Software\uCOS-III\Source\os_mutex.c **** *                                OS_ERR_OPT_INVALID          An invalid option was specified
 143:C:\Micrium\Software\uCOS-III\Source\os_mutex.c **** *                                OS_ERR_STATE_INVALID        Task is in an invalid state
 144:C:\Micrium\Software\uCOS-III\Source\os_mutex.c **** *                                OS_ERR_TASK_WAITING         One or more tasks were waiting on the 
 145:C:\Micrium\Software\uCOS-III\Source\os_mutex.c **** *
 146:C:\Micrium\Software\uCOS-III\Source\os_mutex.c **** * Returns    : == 0          if no tasks were waiting on the mutex, or upon error.
 147:C:\Micrium\Software\uCOS-III\Source\os_mutex.c **** *              >  0          if one or more tasks waiting on the mutex are now readied and informed
 148:C:\Micrium\Software\uCOS-III\Source\os_mutex.c **** *
 149:C:\Micrium\Software\uCOS-III\Source\os_mutex.c **** * Note(s)    : 1) This function must be used with care.  Tasks that would normally expect the prese
 150:C:\Micrium\Software\uCOS-III\Source\os_mutex.c **** *                 check the return code of OSMutexPend().
 151:C:\Micrium\Software\uCOS-III\Source\os_mutex.c **** *
 152:C:\Micrium\Software\uCOS-III\Source\os_mutex.c **** *              2) OSMutexAccept() callers will not know that the intended mutex has been deleted.
 153:C:\Micrium\Software\uCOS-III\Source\os_mutex.c **** *
 154:C:\Micrium\Software\uCOS-III\Source\os_mutex.c **** *              3) Because ALL tasks pending on the mutex will be readied, you MUST be careful in ap
 155:C:\Micrium\Software\uCOS-III\Source\os_mutex.c **** *                 mutex is used for mutual exclusion because the resource(s) will no longer be guar
 156:C:\Micrium\Software\uCOS-III\Source\os_mutex.c **** ***************************************************************************************************
 157:C:\Micrium\Software\uCOS-III\Source\os_mutex.c **** */
 158:C:\Micrium\Software\uCOS-III\Source\os_mutex.c **** 
 159:C:\Micrium\Software\uCOS-III\Source\os_mutex.c **** #if OS_CFG_MUTEX_DEL_EN > 0u
 160:C:\Micrium\Software\uCOS-III\Source\os_mutex.c **** OS_OBJ_QTY  OSMutexDel (OS_MUTEX  *p_mutex,
 161:C:\Micrium\Software\uCOS-III\Source\os_mutex.c ****                         OS_OPT     opt,
 162:C:\Micrium\Software\uCOS-III\Source\os_mutex.c ****                         OS_ERR    *p_err)
 163:C:\Micrium\Software\uCOS-III\Source\os_mutex.c **** {
 146              		.loc 1 163 0
 147              		.cfi_startproc
 148              		@ args = 0, pretend = 0, frame = 48
 149              		@ frame_needed = 1, uses_anonymous_args = 0
 150 0000 80B5     		push	{r7, lr}
 151              	.LCFI3:
 152              		.cfi_def_cfa_offset 8
 153 0002 8CB0     		sub	sp, sp, #48
 154              	.LCFI4:
 155              		.cfi_def_cfa_offset 56
 156 0004 00AF     		add	r7, sp, #0
 157              		.cfi_offset 14, -4
 158              		.cfi_offset 7, -8
 159              	.LCFI5:
 160              		.cfi_def_cfa_register 7
 161 0006 F860     		str	r0, [r7, #12]
 162 0008 0B46     		mov	r3, r1
 163 000a 7A60     		str	r2, [r7, #4]
 164 000c 7B81     		strh	r3, [r7, #10]	@ movhi
 164:C:\Micrium\Software\uCOS-III\Source\os_mutex.c ****     OS_OBJ_QTY     cnt;
 165:C:\Micrium\Software\uCOS-III\Source\os_mutex.c ****     OS_OBJ_QTY     nbr_tasks;
 166:C:\Micrium\Software\uCOS-III\Source\os_mutex.c ****     OS_PEND_DATA  *p_pend_data;
 167:C:\Micrium\Software\uCOS-III\Source\os_mutex.c ****     OS_PEND_LIST  *p_pend_list;
 168:C:\Micrium\Software\uCOS-III\Source\os_mutex.c ****     OS_TCB        *p_tcb;
 169:C:\Micrium\Software\uCOS-III\Source\os_mutex.c ****     OS_TCB        *p_tcb_owner;
 170:C:\Micrium\Software\uCOS-III\Source\os_mutex.c ****     CPU_TS         ts;
 171:C:\Micrium\Software\uCOS-III\Source\os_mutex.c ****     CPU_SR_ALLOC();
 165              		.loc 1 171 0
 166 000e 4FF00003 		mov	r3, #0
 167 0012 FB62     		str	r3, [r7, #44]
ARM GAS  C:\Users\daniel01\AppData\Local\Temp\ccg4pOSx.s 			page 7


 172:C:\Micrium\Software\uCOS-III\Source\os_mutex.c **** 
 173:C:\Micrium\Software\uCOS-III\Source\os_mutex.c **** 
 174:C:\Micrium\Software\uCOS-III\Source\os_mutex.c **** 
 175:C:\Micrium\Software\uCOS-III\Source\os_mutex.c **** #ifdef OS_SAFETY_CRITICAL
 176:C:\Micrium\Software\uCOS-III\Source\os_mutex.c ****     if (p_err == (OS_ERR *)0) {
 177:C:\Micrium\Software\uCOS-III\Source\os_mutex.c ****         OS_SAFETY_CRITICAL_EXCEPTION();
 178:C:\Micrium\Software\uCOS-III\Source\os_mutex.c ****         return ((OS_OBJ_QTY)0);
 179:C:\Micrium\Software\uCOS-III\Source\os_mutex.c ****     }
 180:C:\Micrium\Software\uCOS-III\Source\os_mutex.c **** #endif
 181:C:\Micrium\Software\uCOS-III\Source\os_mutex.c **** 
 182:C:\Micrium\Software\uCOS-III\Source\os_mutex.c **** #if OS_CFG_CALLED_FROM_ISR_CHK_EN > 0u
 183:C:\Micrium\Software\uCOS-III\Source\os_mutex.c ****     if (OSIntNestingCtr > (OS_NESTING_CTR)0) {                  /* Not allowed to delete a mutex fr
 168              		.loc 1 183 0
 169 0014 40F20003 		movw	r3, #:lower16:OSIntNestingCtr
 170 0018 C0F20003 		movt	r3, #:upper16:OSIntNestingCtr
 171 001c 1B78     		ldrb	r3, [r3, #0]	@ zero_extendqisi2
 172 001e 002B     		cmp	r3, #0
 173 0020 06D0     		beq	.L7
 184:C:\Micrium\Software\uCOS-III\Source\os_mutex.c ****        *p_err = OS_ERR_DEL_ISR;
 174              		.loc 1 184 0
 175 0022 7B68     		ldr	r3, [r7, #4]
 176 0024 43F2C922 		movw	r2, #13001
 177 0028 1A80     		strh	r2, [r3, #0]	@ movhi
 185:C:\Micrium\Software\uCOS-III\Source\os_mutex.c ****         return ((OS_OBJ_QTY)0);
 178              		.loc 1 185 0
 179 002a 4FF00003 		mov	r3, #0
 180 002e DAE0     		b	.L8
 181              	.L7:
 186:C:\Micrium\Software\uCOS-III\Source\os_mutex.c ****     }
 187:C:\Micrium\Software\uCOS-III\Source\os_mutex.c **** #endif
 188:C:\Micrium\Software\uCOS-III\Source\os_mutex.c **** 
 189:C:\Micrium\Software\uCOS-III\Source\os_mutex.c **** #if OS_CFG_ARG_CHK_EN > 0u
 190:C:\Micrium\Software\uCOS-III\Source\os_mutex.c ****     if (p_mutex == (OS_MUTEX *)0) {                             /* Validate 'p_mutex'              
 182              		.loc 1 190 0
 183 0030 FB68     		ldr	r3, [r7, #12]
 184 0032 002B     		cmp	r3, #0
 185 0034 06D1     		bne	.L9
 191:C:\Micrium\Software\uCOS-III\Source\os_mutex.c ****        *p_err = OS_ERR_OBJ_PTR_NULL;
 186              		.loc 1 191 0
 187 0036 7B68     		ldr	r3, [r7, #4]
 188 0038 45F6C352 		movw	r2, #24003
 189 003c 1A80     		strh	r2, [r3, #0]	@ movhi
 192:C:\Micrium\Software\uCOS-III\Source\os_mutex.c ****         return ((OS_OBJ_QTY)0);
 190              		.loc 1 192 0
 191 003e 4FF00003 		mov	r3, #0
 192 0042 D0E0     		b	.L8
 193              	.L9:
 193:C:\Micrium\Software\uCOS-III\Source\os_mutex.c ****     }
 194:C:\Micrium\Software\uCOS-III\Source\os_mutex.c ****     switch (opt) {                                              /* Validate 'opt'                  
 194              		.loc 1 194 0
 195 0044 7B89     		ldrh	r3, [r7, #10]
 196 0046 03F10003 		add	r3, r3, #0
 197 004a 012B     		cmp	r3, #1
 198 004c 12D8     		bhi	.L10
 195:C:\Micrium\Software\uCOS-III\Source\os_mutex.c ****         case OS_OPT_DEL_NO_PEND:
 196:C:\Micrium\Software\uCOS-III\Source\os_mutex.c ****         case OS_OPT_DEL_ALWAYS:
 197:C:\Micrium\Software\uCOS-III\Source\os_mutex.c ****              break;
ARM GAS  C:\Users\daniel01\AppData\Local\Temp\ccg4pOSx.s 			page 8


 198:C:\Micrium\Software\uCOS-III\Source\os_mutex.c **** 
 199:C:\Micrium\Software\uCOS-III\Source\os_mutex.c ****         default:
 200:C:\Micrium\Software\uCOS-III\Source\os_mutex.c ****             *p_err =  OS_ERR_OPT_INVALID;
 201:C:\Micrium\Software\uCOS-III\Source\os_mutex.c ****              return ((OS_OBJ_QTY)0);
 202:C:\Micrium\Software\uCOS-III\Source\os_mutex.c ****     }
 203:C:\Micrium\Software\uCOS-III\Source\os_mutex.c **** #endif
 204:C:\Micrium\Software\uCOS-III\Source\os_mutex.c **** 
 205:C:\Micrium\Software\uCOS-III\Source\os_mutex.c **** #if OS_CFG_OBJ_TYPE_CHK_EN > 0u
 206:C:\Micrium\Software\uCOS-III\Source\os_mutex.c ****     if (p_mutex->Type != OS_OBJ_TYPE_MUTEX) {                   /* Make sure mutex was created     
 207:C:\Micrium\Software\uCOS-III\Source\os_mutex.c ****        *p_err = OS_ERR_OBJ_TYPE;
 208:C:\Micrium\Software\uCOS-III\Source\os_mutex.c ****         return ((OS_OBJ_QTY)0);
 209:C:\Micrium\Software\uCOS-III\Source\os_mutex.c ****     }
 210:C:\Micrium\Software\uCOS-III\Source\os_mutex.c **** #endif
 211:C:\Micrium\Software\uCOS-III\Source\os_mutex.c **** 
 212:C:\Micrium\Software\uCOS-III\Source\os_mutex.c ****     OS_CRITICAL_ENTER();
 199              		.loc 1 212 0
 200 004e FFF7FEFF 		bl	CPU_SR_Save
 201 0052 0346     		mov	r3, r0
 202 0054 FB62     		str	r3, [r7, #44]
 213:C:\Micrium\Software\uCOS-III\Source\os_mutex.c ****     p_pend_list = &p_mutex->PendList;
 203              		.loc 1 213 0
 204 0056 FB68     		ldr	r3, [r7, #12]
 205 0058 03F10803 		add	r3, r3, #8
 206 005c FB61     		str	r3, [r7, #28]
 214:C:\Micrium\Software\uCOS-III\Source\os_mutex.c ****     cnt         = p_pend_list->NbrEntries;
 207              		.loc 1 214 0
 208 005e FB69     		ldr	r3, [r7, #28]
 209 0060 1B89     		ldrh	r3, [r3, #8]	@ movhi
 210 0062 BB82     		strh	r3, [r7, #20]	@ movhi
 215:C:\Micrium\Software\uCOS-III\Source\os_mutex.c ****     nbr_tasks   = cnt;
 211              		.loc 1 215 0
 212 0064 BB8A     		ldrh	r3, [r7, #20]	@ movhi
 213 0066 FB82     		strh	r3, [r7, #22]	@ movhi
 216:C:\Micrium\Software\uCOS-III\Source\os_mutex.c ****     switch (opt) {
 214              		.loc 1 216 0
 215 0068 7B89     		ldrh	r3, [r7, #10]
 216 006a 002B     		cmp	r3, #0
 217 006c 09D0     		beq	.L13
 218 006e 012B     		cmp	r3, #1
 219 0070 2DD0     		beq	.L14
 220 0072 B0E0     		b	.L26
 221              	.L10:
 222              		.loc 1 200 0
 223 0074 7B68     		ldr	r3, [r7, #4]
 224 0076 45F62562 		movw	r2, #24101
 225 007a 1A80     		strh	r2, [r3, #0]	@ movhi
 226              		.loc 1 201 0
 227 007c 4FF00003 		mov	r3, #0
 228 0080 B1E0     		b	.L8
 229              	.L13:
 217:C:\Micrium\Software\uCOS-III\Source\os_mutex.c ****         case OS_OPT_DEL_NO_PEND:                                /* Delete mutex only if no task wai
 218:C:\Micrium\Software\uCOS-III\Source\os_mutex.c ****              if (nbr_tasks == (OS_OBJ_QTY)0) {
 230              		.loc 1 218 0
 231 0082 FB8A     		ldrh	r3, [r7, #22]
 232 0084 002B     		cmp	r3, #0
 233 0086 1AD1     		bne	.L15
 219:C:\Micrium\Software\uCOS-III\Source\os_mutex.c **** #if OS_CFG_DBG_EN > 0u
ARM GAS  C:\Users\daniel01\AppData\Local\Temp\ccg4pOSx.s 			page 9


 220:C:\Micrium\Software\uCOS-III\Source\os_mutex.c ****                  OS_MutexDbgListRemove(p_mutex);
 234              		.loc 1 220 0
 235 0088 F868     		ldr	r0, [r7, #12]
 236 008a FFF7FEFF 		bl	OS_MutexDbgListRemove
 221:C:\Micrium\Software\uCOS-III\Source\os_mutex.c **** #endif
 222:C:\Micrium\Software\uCOS-III\Source\os_mutex.c ****                  OSMutexQty--;
 237              		.loc 1 222 0
 238 008e 40F20003 		movw	r3, #:lower16:OSMutexQty
 239 0092 C0F20003 		movt	r3, #:upper16:OSMutexQty
 240 0096 1B88     		ldrh	r3, [r3, #0]
 241 0098 03F1FF33 		add	r3, r3, #-1
 242 009c 9AB2     		uxth	r2, r3
 243 009e 40F20003 		movw	r3, #:lower16:OSMutexQty
 244 00a2 C0F20003 		movt	r3, #:upper16:OSMutexQty
 245 00a6 1A80     		strh	r2, [r3, #0]	@ movhi
 223:C:\Micrium\Software\uCOS-III\Source\os_mutex.c ****                  OS_MutexClr(p_mutex);
 246              		.loc 1 223 0
 247 00a8 F868     		ldr	r0, [r7, #12]
 248 00aa FFF7FEFF 		bl	OS_MutexClr
 224:C:\Micrium\Software\uCOS-III\Source\os_mutex.c ****                  OS_CRITICAL_EXIT();
 249              		.loc 1 224 0
 250 00ae F86A     		ldr	r0, [r7, #44]
 251 00b0 FFF7FEFF 		bl	CPU_SR_Restore
 225:C:\Micrium\Software\uCOS-III\Source\os_mutex.c ****                 *p_err = OS_ERR_NONE;
 252              		.loc 1 225 0
 253 00b4 7B68     		ldr	r3, [r7, #4]
 254 00b6 4FF00002 		mov	r2, #0
 255 00ba 1A80     		strh	r2, [r3, #0]	@ movhi
 226:C:\Micrium\Software\uCOS-III\Source\os_mutex.c ****              } else {
 227:C:\Micrium\Software\uCOS-III\Source\os_mutex.c ****                  OS_CRITICAL_EXIT();
 228:C:\Micrium\Software\uCOS-III\Source\os_mutex.c ****                 *p_err = OS_ERR_TASK_WAITING;
 229:C:\Micrium\Software\uCOS-III\Source\os_mutex.c ****              }
 230:C:\Micrium\Software\uCOS-III\Source\os_mutex.c ****              break;
 256              		.loc 1 230 0
 257 00bc 92E0     		b	.L17
 258              	.L15:
 259              		.loc 1 227 0
 260 00be F86A     		ldr	r0, [r7, #44]
 261 00c0 FFF7FEFF 		bl	CPU_SR_Restore
 262              		.loc 1 228 0
 263 00c4 7B68     		ldr	r3, [r7, #4]
 264 00c6 47F25F12 		movw	r2, #29023
 265 00ca 1A80     		strh	r2, [r3, #0]	@ movhi
 266              		.loc 1 230 0
 267 00cc 8AE0     		b	.L17
 268              	.L14:
 231:C:\Micrium\Software\uCOS-III\Source\os_mutex.c **** 
 232:C:\Micrium\Software\uCOS-III\Source\os_mutex.c ****         case OS_OPT_DEL_ALWAYS:                                            /* Always delete the mut
 233:C:\Micrium\Software\uCOS-III\Source\os_mutex.c ****              p_tcb_owner = p_mutex->OwnerTCBPtr;                           /* Did we had to change 
 269              		.loc 1 233 0
 270 00ce FB68     		ldr	r3, [r7, #12]
 271 00d0 1B6A     		ldr	r3, [r3, #32]
 272 00d2 7B62     		str	r3, [r7, #36]
 234:C:\Micrium\Software\uCOS-III\Source\os_mutex.c ****              if ((p_tcb_owner       != (OS_TCB *)0) &&
 273              		.loc 1 234 0
 274 00d4 7B6A     		ldr	r3, [r7, #36]
 275 00d6 002B     		cmp	r3, #0
ARM GAS  C:\Users\daniel01\AppData\Local\Temp\ccg4pOSx.s 			page 10


 276 00d8 48D0     		beq	.L18
 235:C:\Micrium\Software\uCOS-III\Source\os_mutex.c ****                  (p_tcb_owner->Prio !=  p_mutex->OwnerOriginalPrio)) {
 277              		.loc 1 235 0
 278 00da 7B6A     		ldr	r3, [r7, #36]
 279 00dc 93F83720 		ldrb	r2, [r3, #55]	@ zero_extendqisi2
 280 00e0 FB68     		ldr	r3, [r7, #12]
 281 00e2 93F82430 		ldrb	r3, [r3, #36]	@ zero_extendqisi2
 282              		.loc 1 234 0
 283 00e6 9A42     		cmp	r2, r3
 284 00e8 40D0     		beq	.L18
 236:C:\Micrium\Software\uCOS-III\Source\os_mutex.c ****                  switch (p_tcb_owner->TaskState) {                         /* yes                  
 285              		.loc 1 236 0
 286 00ea 7B6A     		ldr	r3, [r7, #36]
 287 00ec 93F83630 		ldrb	r3, [r3, #54]	@ zero_extendqisi2
 288 00f0 072B     		cmp	r3, #7
 289 00f2 31D8     		bhi	.L19
 290 00f4 4FF00102 		mov	r2, #1
 291 00f8 02FA03F3 		lsl	r3, r2, r3
 292 00fc 03F0CC02 		and	r2, r3, #204
 293 0100 002A     		cmp	r2, #0
 294 0102 21D1     		bne	.L22
 295 0104 03F03202 		and	r2, r3, #50
 296 0108 002A     		cmp	r2, #0
 297 010a 16D1     		bne	.L21
 298 010c 03F00103 		and	r3, r3, #1
 299 0110 002B     		cmp	r3, #0
 300 0112 21D0     		beq	.L19
 301              	.L20:
 237:C:\Micrium\Software\uCOS-III\Source\os_mutex.c ****                      case OS_TASK_STATE_RDY:
 238:C:\Micrium\Software\uCOS-III\Source\os_mutex.c ****                           OS_RdyListRemove(p_tcb_owner);
 302              		.loc 1 238 0
 303 0114 786A     		ldr	r0, [r7, #36]
 304 0116 FFF7FEFF 		bl	OS_RdyListRemove
 239:C:\Micrium\Software\uCOS-III\Source\os_mutex.c ****                           p_tcb_owner->Prio = p_mutex->OwnerOriginalPrio;  /* Lower owner's prio ba
 305              		.loc 1 239 0
 306 011a FB68     		ldr	r3, [r7, #12]
 307 011c 93F82420 		ldrb	r2, [r3, #36]	@ zero_extendqisi2
 308 0120 7B6A     		ldr	r3, [r7, #36]
 309 0122 83F83720 		strb	r2, [r3, #55]
 240:C:\Micrium\Software\uCOS-III\Source\os_mutex.c ****                           OS_PrioInsert(p_tcb_owner->Prio);
 310              		.loc 1 240 0
 311 0126 7B6A     		ldr	r3, [r7, #36]
 312 0128 93F83730 		ldrb	r3, [r3, #55]	@ zero_extendqisi2
 313 012c 1846     		mov	r0, r3
 314 012e FFF7FEFF 		bl	OS_PrioInsert
 241:C:\Micrium\Software\uCOS-III\Source\os_mutex.c ****                           OS_RdyListInsertTail(p_tcb_owner);               /* Insert owner in ready
 315              		.loc 1 241 0
 316 0132 786A     		ldr	r0, [r7, #36]
 317 0134 FFF7FEFF 		bl	OS_RdyListInsertTail
 242:C:\Micrium\Software\uCOS-III\Source\os_mutex.c ****                           break;
 318              		.loc 1 242 0
 319 0138 18E0     		b	.L18
 320              	.L21:
 243:C:\Micrium\Software\uCOS-III\Source\os_mutex.c **** 
 244:C:\Micrium\Software\uCOS-III\Source\os_mutex.c ****                      case OS_TASK_STATE_DLY:
 245:C:\Micrium\Software\uCOS-III\Source\os_mutex.c ****                      case OS_TASK_STATE_SUSPENDED:
 246:C:\Micrium\Software\uCOS-III\Source\os_mutex.c ****                      case OS_TASK_STATE_DLY_SUSPENDED:
ARM GAS  C:\Users\daniel01\AppData\Local\Temp\ccg4pOSx.s 			page 11


 247:C:\Micrium\Software\uCOS-III\Source\os_mutex.c ****                           p_tcb_owner->Prio = p_mutex->OwnerOriginalPrio;  /* Not in any pend list,
 321              		.loc 1 247 0
 322 013a FB68     		ldr	r3, [r7, #12]
 323 013c 93F82420 		ldrb	r2, [r3, #36]	@ zero_extendqisi2
 324 0140 7B6A     		ldr	r3, [r7, #36]
 325 0142 83F83720 		strb	r2, [r3, #55]
 248:C:\Micrium\Software\uCOS-III\Source\os_mutex.c ****                           break;
 326              		.loc 1 248 0
 327 0146 11E0     		b	.L18
 328              	.L22:
 249:C:\Micrium\Software\uCOS-III\Source\os_mutex.c **** 
 250:C:\Micrium\Software\uCOS-III\Source\os_mutex.c ****                      case OS_TASK_STATE_PEND:
 251:C:\Micrium\Software\uCOS-III\Source\os_mutex.c ****                      case OS_TASK_STATE_PEND_TIMEOUT:
 252:C:\Micrium\Software\uCOS-III\Source\os_mutex.c ****                      case OS_TASK_STATE_PEND_SUSPENDED:
 253:C:\Micrium\Software\uCOS-III\Source\os_mutex.c ****                      case OS_TASK_STATE_PEND_TIMEOUT_SUSPENDED:
 254:C:\Micrium\Software\uCOS-III\Source\os_mutex.c ****                           OS_PendListChangePrio(p_tcb_owner,               /* Owner is pending on a
 329              		.loc 1 254 0
 330 0148 FB68     		ldr	r3, [r7, #12]
 331 014a 93F82430 		ldrb	r3, [r3, #36]	@ zero_extendqisi2
 332 014e 786A     		ldr	r0, [r7, #36]
 333 0150 1946     		mov	r1, r3
 334 0152 FFF7FEFF 		bl	OS_PendListChangePrio
 255:C:\Micrium\Software\uCOS-III\Source\os_mutex.c ****                                                 p_mutex->OwnerOriginalPrio);
 256:C:\Micrium\Software\uCOS-III\Source\os_mutex.c ****                           break;
 335              		.loc 1 256 0
 336 0156 09E0     		b	.L18
 337              	.L19:
 257:C:\Micrium\Software\uCOS-III\Source\os_mutex.c **** 
 258:C:\Micrium\Software\uCOS-III\Source\os_mutex.c ****                      default:
 259:C:\Micrium\Software\uCOS-III\Source\os_mutex.c ****                           OS_CRITICAL_EXIT();
 338              		.loc 1 259 0
 339 0158 F86A     		ldr	r0, [r7, #44]
 340 015a FFF7FEFF 		bl	CPU_SR_Restore
 260:C:\Micrium\Software\uCOS-III\Source\os_mutex.c ****                          *p_err = OS_ERR_STATE_INVALID;
 341              		.loc 1 260 0
 342 015e 7B68     		ldr	r3, [r7, #4]
 343 0160 46F62D62 		movw	r2, #28205
 344 0164 1A80     		strh	r2, [r3, #0]	@ movhi
 261:C:\Micrium\Software\uCOS-III\Source\os_mutex.c ****                           return ((OS_OBJ_QTY)0);
 345              		.loc 1 261 0
 346 0166 4FF00003 		mov	r3, #0
 347 016a 3CE0     		b	.L8
 348              	.L18:
 262:C:\Micrium\Software\uCOS-III\Source\os_mutex.c ****                  }
 263:C:\Micrium\Software\uCOS-III\Source\os_mutex.c ****              }
 264:C:\Micrium\Software\uCOS-III\Source\os_mutex.c **** 
 265:C:\Micrium\Software\uCOS-III\Source\os_mutex.c ****              ts = OS_TS_GET();                                             /* Get timestamp        
 349              		.loc 1 265 0
 350 016c FFF7FEFF 		bl	CPU_TS_TmrRd
 351 0170 0346     		mov	r3, r0
 352 0172 BB62     		str	r3, [r7, #40]
 266:C:\Micrium\Software\uCOS-III\Source\os_mutex.c ****              while (cnt > 0u) {                                            /* Remove all tasks from
 353              		.loc 1 266 0
 354 0174 0FE0     		b	.L23
 355              	.L24:
 267:C:\Micrium\Software\uCOS-III\Source\os_mutex.c ****                  p_pend_data = p_pend_list->HeadPtr;
 356              		.loc 1 267 0
ARM GAS  C:\Users\daniel01\AppData\Local\Temp\ccg4pOSx.s 			page 12


 357 0176 FB69     		ldr	r3, [r7, #28]
 358 0178 1B68     		ldr	r3, [r3, #0]
 359 017a BB61     		str	r3, [r7, #24]
 268:C:\Micrium\Software\uCOS-III\Source\os_mutex.c ****                  p_tcb       = p_pend_data->TCBPtr;
 360              		.loc 1 268 0
 361 017c BB69     		ldr	r3, [r7, #24]
 362 017e 9B68     		ldr	r3, [r3, #8]
 363 0180 3B62     		str	r3, [r7, #32]
 269:C:\Micrium\Software\uCOS-III\Source\os_mutex.c ****                  OS_PendObjDel((OS_PEND_OBJ *)((void *)p_mutex),
 364              		.loc 1 269 0
 365 0182 FB68     		ldr	r3, [r7, #12]
 366 0184 1846     		mov	r0, r3
 367 0186 396A     		ldr	r1, [r7, #32]
 368 0188 BA6A     		ldr	r2, [r7, #40]
 369 018a FFF7FEFF 		bl	OS_PendObjDel
 270:C:\Micrium\Software\uCOS-III\Source\os_mutex.c ****                                p_tcb,
 271:C:\Micrium\Software\uCOS-III\Source\os_mutex.c ****                                ts);
 272:C:\Micrium\Software\uCOS-III\Source\os_mutex.c ****                  cnt--;
 370              		.loc 1 272 0
 371 018e BB8A     		ldrh	r3, [r7, #20]	@ movhi
 372 0190 03F1FF33 		add	r3, r3, #-1
 373 0194 BB82     		strh	r3, [r7, #20]	@ movhi
 374              	.L23:
 375              		.loc 1 266 0
 376 0196 BB8A     		ldrh	r3, [r7, #20]
 377 0198 002B     		cmp	r3, #0
 378 019a ECD1     		bne	.L24
 273:C:\Micrium\Software\uCOS-III\Source\os_mutex.c ****              }
 274:C:\Micrium\Software\uCOS-III\Source\os_mutex.c **** #if OS_CFG_DBG_EN > 0u
 275:C:\Micrium\Software\uCOS-III\Source\os_mutex.c ****              OS_MutexDbgListRemove(p_mutex);
 379              		.loc 1 275 0
 380 019c F868     		ldr	r0, [r7, #12]
 381 019e FFF7FEFF 		bl	OS_MutexDbgListRemove
 276:C:\Micrium\Software\uCOS-III\Source\os_mutex.c **** #endif
 277:C:\Micrium\Software\uCOS-III\Source\os_mutex.c ****              OSMutexQty--;
 382              		.loc 1 277 0
 383 01a2 40F20003 		movw	r3, #:lower16:OSMutexQty
 384 01a6 C0F20003 		movt	r3, #:upper16:OSMutexQty
 385 01aa 1B88     		ldrh	r3, [r3, #0]
 386 01ac 03F1FF33 		add	r3, r3, #-1
 387 01b0 9AB2     		uxth	r2, r3
 388 01b2 40F20003 		movw	r3, #:lower16:OSMutexQty
 389 01b6 C0F20003 		movt	r3, #:upper16:OSMutexQty
 390 01ba 1A80     		strh	r2, [r3, #0]	@ movhi
 278:C:\Micrium\Software\uCOS-III\Source\os_mutex.c ****              OS_MutexClr(p_mutex);
 391              		.loc 1 278 0
 392 01bc F868     		ldr	r0, [r7, #12]
 393 01be FFF7FEFF 		bl	OS_MutexClr
 279:C:\Micrium\Software\uCOS-III\Source\os_mutex.c ****              OS_CRITICAL_EXIT_NO_SCHED();
 394              		.loc 1 279 0
 395 01c2 F86A     		ldr	r0, [r7, #44]
 396 01c4 FFF7FEFF 		bl	CPU_SR_Restore
 280:C:\Micrium\Software\uCOS-III\Source\os_mutex.c ****              OSSched();                                                    /* Find highest priority
 397              		.loc 1 280 0
 398 01c8 FFF7FEFF 		bl	OSSched
 281:C:\Micrium\Software\uCOS-III\Source\os_mutex.c ****             *p_err = OS_ERR_NONE;
 399              		.loc 1 281 0
ARM GAS  C:\Users\daniel01\AppData\Local\Temp\ccg4pOSx.s 			page 13


 400 01cc 7B68     		ldr	r3, [r7, #4]
 401 01ce 4FF00002 		mov	r2, #0
 402 01d2 1A80     		strh	r2, [r3, #0]	@ movhi
 282:C:\Micrium\Software\uCOS-III\Source\os_mutex.c ****              break;
 403              		.loc 1 282 0
 404 01d4 06E0     		b	.L17
 405              	.L26:
 283:C:\Micrium\Software\uCOS-III\Source\os_mutex.c **** 
 284:C:\Micrium\Software\uCOS-III\Source\os_mutex.c ****         default:
 285:C:\Micrium\Software\uCOS-III\Source\os_mutex.c ****              OS_CRITICAL_EXIT();
 406              		.loc 1 285 0
 407 01d6 F86A     		ldr	r0, [r7, #44]
 408 01d8 FFF7FEFF 		bl	CPU_SR_Restore
 286:C:\Micrium\Software\uCOS-III\Source\os_mutex.c ****             *p_err = OS_ERR_OPT_INVALID;
 409              		.loc 1 286 0
 410 01dc 7B68     		ldr	r3, [r7, #4]
 411 01de 45F62562 		movw	r2, #24101
 412 01e2 1A80     		strh	r2, [r3, #0]	@ movhi
 413              	.L17:
 287:C:\Micrium\Software\uCOS-III\Source\os_mutex.c ****              break;
 288:C:\Micrium\Software\uCOS-III\Source\os_mutex.c ****     }
 289:C:\Micrium\Software\uCOS-III\Source\os_mutex.c ****     return (nbr_tasks);
 414              		.loc 1 289 0
 415 01e4 FB8A     		ldrh	r3, [r7, #22]
 416              	.L8:
 290:C:\Micrium\Software\uCOS-III\Source\os_mutex.c **** }
 417              		.loc 1 290 0
 418 01e6 1846     		mov	r0, r3
 419 01e8 07F13007 		add	r7, r7, #48
 420 01ec BD46     		mov	sp, r7
 421 01ee 80BD     		pop	{r7, pc}
 422              		.cfi_endproc
 423              	.LFE1:
 424              		.size	OSMutexDel, .-OSMutexDel
 425              		.section	.text.OSMutexPend,"ax",%progbits
 426              		.align	2
 427              		.global	OSMutexPend
 428              		.thumb
 429              		.thumb_func
 430              		.type	OSMutexPend, %function
 431              	OSMutexPend:
 432              	.LFB2:
 291:C:\Micrium\Software\uCOS-III\Source\os_mutex.c **** #endif
 292:C:\Micrium\Software\uCOS-III\Source\os_mutex.c **** 
 293:C:\Micrium\Software\uCOS-III\Source\os_mutex.c **** /*$PAGE*/
 294:C:\Micrium\Software\uCOS-III\Source\os_mutex.c **** /*
 295:C:\Micrium\Software\uCOS-III\Source\os_mutex.c **** ***************************************************************************************************
 296:C:\Micrium\Software\uCOS-III\Source\os_mutex.c **** *                                                    PEND ON MUTEX
 297:C:\Micrium\Software\uCOS-III\Source\os_mutex.c **** *
 298:C:\Micrium\Software\uCOS-III\Source\os_mutex.c **** * Description: This function waits for a mutex.
 299:C:\Micrium\Software\uCOS-III\Source\os_mutex.c **** *
 300:C:\Micrium\Software\uCOS-III\Source\os_mutex.c **** * Arguments  : p_mutex       is a pointer to the mutex
 301:C:\Micrium\Software\uCOS-III\Source\os_mutex.c **** *
 302:C:\Micrium\Software\uCOS-III\Source\os_mutex.c **** *              timeout       is an optional timeout period (in clock ticks).  If non-zero, your tas
 303:C:\Micrium\Software\uCOS-III\Source\os_mutex.c **** *                            resource up to the amount of time (in 'ticks') specified by this argum
 304:C:\Micrium\Software\uCOS-III\Source\os_mutex.c **** *                            0, however, your task will wait forever at the specified mutex or, unt
 305:C:\Micrium\Software\uCOS-III\Source\os_mutex.c **** *                            becomes available.
ARM GAS  C:\Users\daniel01\AppData\Local\Temp\ccg4pOSx.s 			page 14


 306:C:\Micrium\Software\uCOS-III\Source\os_mutex.c **** *
 307:C:\Micrium\Software\uCOS-III\Source\os_mutex.c **** *              opt           determines whether the user wants to block if the mutex is not availab
 308:C:\Micrium\Software\uCOS-III\Source\os_mutex.c **** *
 309:C:\Micrium\Software\uCOS-III\Source\os_mutex.c **** *                                OS_OPT_PEND_BLOCKING
 310:C:\Micrium\Software\uCOS-III\Source\os_mutex.c **** *                                OS_OPT_PEND_NON_BLOCKING
 311:C:\Micrium\Software\uCOS-III\Source\os_mutex.c **** *
 312:C:\Micrium\Software\uCOS-III\Source\os_mutex.c **** *              p_ts          is a pointer to a variable that will receive the timestamp of when the
 313:C:\Micrium\Software\uCOS-III\Source\os_mutex.c **** *                            pend aborted or the mutex deleted.  If you pass a NULL pointer (i.e. (
 314:C:\Micrium\Software\uCOS-III\Source\os_mutex.c **** *                            will not get the timestamp.  In other words, passing a NULL pointer is
 315:C:\Micrium\Software\uCOS-III\Source\os_mutex.c **** *                            that you don't need the timestamp.
 316:C:\Micrium\Software\uCOS-III\Source\os_mutex.c **** *
 317:C:\Micrium\Software\uCOS-III\Source\os_mutex.c **** *              p_err         is a pointer to a variable that will contain an error code returned by
 318:C:\Micrium\Software\uCOS-III\Source\os_mutex.c **** *
 319:C:\Micrium\Software\uCOS-III\Source\os_mutex.c **** *                                OS_ERR_NONE               The call was successful and your task ow
 320:C:\Micrium\Software\uCOS-III\Source\os_mutex.c **** *                                OS_ERR_MUTEX_OWNER        If calling task already owns the mutex
 321:C:\Micrium\Software\uCOS-III\Source\os_mutex.c **** *                                OS_ERR_OBJ_DEL            If 'p_mutex' was deleted
 322:C:\Micrium\Software\uCOS-III\Source\os_mutex.c **** *                                OS_ERR_OBJ_PTR_NULL       If 'p_mutex' is a NULL pointer.
 323:C:\Micrium\Software\uCOS-III\Source\os_mutex.c **** *                                OS_ERR_OBJ_TYPE           If 'p_mutex' is not pointing at a mutex
 324:C:\Micrium\Software\uCOS-III\Source\os_mutex.c **** *                                OS_ERR_OPT_INVALID        If you didn't specify a valid option
 325:C:\Micrium\Software\uCOS-III\Source\os_mutex.c **** *                                OS_ERR_PEND_ABORT         If the pend was aborted by another task
 326:C:\Micrium\Software\uCOS-III\Source\os_mutex.c **** *                                OS_ERR_PEND_ISR           If you called this function from an ISR 
 327:C:\Micrium\Software\uCOS-III\Source\os_mutex.c **** *                                                          would lead to a suspension.
 328:C:\Micrium\Software\uCOS-III\Source\os_mutex.c **** *                                OS_ERR_PEND_WOULD_BLOCK   If you specified non-blocking but the mu
 329:C:\Micrium\Software\uCOS-III\Source\os_mutex.c **** *                                                          available.
 330:C:\Micrium\Software\uCOS-III\Source\os_mutex.c **** *                                OS_ERR_SCHED_LOCKED       If you called this function when the sch
 331:C:\Micrium\Software\uCOS-III\Source\os_mutex.c **** *                                OS_ERR_STATE_INVALID      If the task is in an invalid state
 332:C:\Micrium\Software\uCOS-III\Source\os_mutex.c **** *                                OS_ERR_STATUS_INVALID     If the pend status has an invalid value
 333:C:\Micrium\Software\uCOS-III\Source\os_mutex.c **** *                                OS_ERR_TIMEOUT            The mutex was not received within the sp
 334:C:\Micrium\Software\uCOS-III\Source\os_mutex.c **** *
 335:C:\Micrium\Software\uCOS-III\Source\os_mutex.c **** * Returns    : none
 336:C:\Micrium\Software\uCOS-III\Source\os_mutex.c **** ***************************************************************************************************
 337:C:\Micrium\Software\uCOS-III\Source\os_mutex.c **** */
 338:C:\Micrium\Software\uCOS-III\Source\os_mutex.c **** 
 339:C:\Micrium\Software\uCOS-III\Source\os_mutex.c **** void  OSMutexPend (OS_MUTEX  *p_mutex,
 340:C:\Micrium\Software\uCOS-III\Source\os_mutex.c ****                    OS_TICK    timeout,
 341:C:\Micrium\Software\uCOS-III\Source\os_mutex.c ****                    OS_OPT     opt,
 342:C:\Micrium\Software\uCOS-III\Source\os_mutex.c ****                    CPU_TS    *p_ts,
 343:C:\Micrium\Software\uCOS-III\Source\os_mutex.c ****                    OS_ERR    *p_err)
 344:C:\Micrium\Software\uCOS-III\Source\os_mutex.c **** {
 433              		.loc 1 344 0
 434              		.cfi_startproc
 435              		@ args = 4, pretend = 0, frame = 56
 436              		@ frame_needed = 1, uses_anonymous_args = 0
 437 0000 80B5     		push	{r7, lr}
 438              	.LCFI6:
 439              		.cfi_def_cfa_offset 8
 440 0002 8EB0     		sub	sp, sp, #56
 441              	.LCFI7:
 442              		.cfi_def_cfa_offset 64
 443 0004 00AF     		add	r7, sp, #0
 444              		.cfi_offset 14, -4
 445              		.cfi_offset 7, -8
 446              	.LCFI8:
 447              		.cfi_def_cfa_register 7
 448 0006 F860     		str	r0, [r7, #12]
 449 0008 B960     		str	r1, [r7, #8]
 450 000a 3B60     		str	r3, [r7, #0]
ARM GAS  C:\Users\daniel01\AppData\Local\Temp\ccg4pOSx.s 			page 15


 451 000c 1346     		mov	r3, r2	@ movhi
 452 000e FB80     		strh	r3, [r7, #6]	@ movhi
 345:C:\Micrium\Software\uCOS-III\Source\os_mutex.c ****     OS_PEND_DATA  pend_data;
 346:C:\Micrium\Software\uCOS-III\Source\os_mutex.c ****     OS_TCB       *p_tcb;
 347:C:\Micrium\Software\uCOS-III\Source\os_mutex.c ****     CPU_SR_ALLOC();
 453              		.loc 1 347 0
 454 0010 4FF00003 		mov	r3, #0
 455 0014 7B63     		str	r3, [r7, #52]
 348:C:\Micrium\Software\uCOS-III\Source\os_mutex.c **** 
 349:C:\Micrium\Software\uCOS-III\Source\os_mutex.c **** 
 350:C:\Micrium\Software\uCOS-III\Source\os_mutex.c **** 
 351:C:\Micrium\Software\uCOS-III\Source\os_mutex.c **** #ifdef OS_SAFETY_CRITICAL
 352:C:\Micrium\Software\uCOS-III\Source\os_mutex.c ****     if (p_err == (OS_ERR *)0) {
 353:C:\Micrium\Software\uCOS-III\Source\os_mutex.c ****         OS_SAFETY_CRITICAL_EXCEPTION();
 354:C:\Micrium\Software\uCOS-III\Source\os_mutex.c ****         return;
 355:C:\Micrium\Software\uCOS-III\Source\os_mutex.c ****     }
 356:C:\Micrium\Software\uCOS-III\Source\os_mutex.c **** #endif
 357:C:\Micrium\Software\uCOS-III\Source\os_mutex.c **** 
 358:C:\Micrium\Software\uCOS-III\Source\os_mutex.c **** #if OS_CFG_CALLED_FROM_ISR_CHK_EN > 0u
 359:C:\Micrium\Software\uCOS-III\Source\os_mutex.c ****     if (OSIntNestingCtr > (OS_NESTING_CTR)0) {              /* Not allowed to call from an ISR     
 456              		.loc 1 359 0
 457 0016 40F20003 		movw	r3, #:lower16:OSIntNestingCtr
 458 001a C0F20003 		movt	r3, #:upper16:OSIntNestingCtr
 459 001e 1B78     		ldrb	r3, [r3, #0]	@ zero_extendqisi2
 460 0020 002B     		cmp	r3, #0
 461 0022 04D0     		beq	.L28
 360:C:\Micrium\Software\uCOS-III\Source\os_mutex.c ****        *p_err = OS_ERR_PEND_ISR;
 462              		.loc 1 360 0
 463 0024 3B6C     		ldr	r3, [r7, #64]
 464 0026 46F2AE12 		movw	r2, #25006
 465 002a 1A80     		strh	r2, [r3, #0]	@ movhi
 361:C:\Micrium\Software\uCOS-III\Source\os_mutex.c ****         return;
 466              		.loc 1 361 0
 467 002c 49E1     		b	.L57
 468              	.L28:
 362:C:\Micrium\Software\uCOS-III\Source\os_mutex.c ****     }
 363:C:\Micrium\Software\uCOS-III\Source\os_mutex.c **** #endif
 364:C:\Micrium\Software\uCOS-III\Source\os_mutex.c **** 
 365:C:\Micrium\Software\uCOS-III\Source\os_mutex.c **** #if OS_CFG_ARG_CHK_EN > 0u
 366:C:\Micrium\Software\uCOS-III\Source\os_mutex.c ****     if (p_mutex == (OS_MUTEX *)0) {                         /* Validate arguments                  
 469              		.loc 1 366 0
 470 002e FB68     		ldr	r3, [r7, #12]
 471 0030 002B     		cmp	r3, #0
 472 0032 04D1     		bne	.L30
 367:C:\Micrium\Software\uCOS-III\Source\os_mutex.c ****        *p_err = OS_ERR_OBJ_PTR_NULL;
 473              		.loc 1 367 0
 474 0034 3B6C     		ldr	r3, [r7, #64]
 475 0036 45F6C352 		movw	r2, #24003
 476 003a 1A80     		strh	r2, [r3, #0]	@ movhi
 368:C:\Micrium\Software\uCOS-III\Source\os_mutex.c ****         return;
 477              		.loc 1 368 0
 478 003c 41E1     		b	.L57
 479              	.L30:
 369:C:\Micrium\Software\uCOS-III\Source\os_mutex.c ****     }
 370:C:\Micrium\Software\uCOS-III\Source\os_mutex.c ****     switch (opt) {                                          /* Validate 'opt'                      
 480              		.loc 1 370 0
 481 003e FB88     		ldrh	r3, [r7, #6]
ARM GAS  C:\Users\daniel01\AppData\Local\Temp\ccg4pOSx.s 			page 16


 482 0040 002B     		cmp	r3, #0
 483 0042 02D0     		beq	.L32
 484 0044 B3F5004F 		cmp	r3, #32768
 485 0048 03D1     		bne	.L58
 486              	.L32:
 371:C:\Micrium\Software\uCOS-III\Source\os_mutex.c ****         case OS_OPT_PEND_BLOCKING:
 372:C:\Micrium\Software\uCOS-III\Source\os_mutex.c ****         case OS_OPT_PEND_NON_BLOCKING:
 373:C:\Micrium\Software\uCOS-III\Source\os_mutex.c ****              break;
 374:C:\Micrium\Software\uCOS-III\Source\os_mutex.c **** 
 375:C:\Micrium\Software\uCOS-III\Source\os_mutex.c ****         default:
 376:C:\Micrium\Software\uCOS-III\Source\os_mutex.c ****             *p_err = OS_ERR_OPT_INVALID;
 377:C:\Micrium\Software\uCOS-III\Source\os_mutex.c ****              return;
 378:C:\Micrium\Software\uCOS-III\Source\os_mutex.c ****     }
 379:C:\Micrium\Software\uCOS-III\Source\os_mutex.c **** #endif
 380:C:\Micrium\Software\uCOS-III\Source\os_mutex.c **** 
 381:C:\Micrium\Software\uCOS-III\Source\os_mutex.c **** #if OS_CFG_OBJ_TYPE_CHK_EN > 0u
 382:C:\Micrium\Software\uCOS-III\Source\os_mutex.c ****     if (p_mutex->Type != OS_OBJ_TYPE_MUTEX) {               /* Make sure mutex was created         
 383:C:\Micrium\Software\uCOS-III\Source\os_mutex.c ****        *p_err = OS_ERR_OBJ_TYPE;
 384:C:\Micrium\Software\uCOS-III\Source\os_mutex.c ****         return;
 385:C:\Micrium\Software\uCOS-III\Source\os_mutex.c ****     }
 386:C:\Micrium\Software\uCOS-III\Source\os_mutex.c **** #endif
 387:C:\Micrium\Software\uCOS-III\Source\os_mutex.c **** 
 388:C:\Micrium\Software\uCOS-III\Source\os_mutex.c ****     if (p_ts != (CPU_TS *)0) {
 487              		.loc 1 388 0
 488 004a 3B68     		ldr	r3, [r7, #0]
 489 004c 002B     		cmp	r3, #0
 490 004e 05D1     		bne	.L33
 491 0050 08E0     		b	.L34
 492              	.L58:
 493              		.loc 1 376 0
 494 0052 3B6C     		ldr	r3, [r7, #64]
 495 0054 45F62562 		movw	r2, #24101
 496 0058 1A80     		strh	r2, [r3, #0]	@ movhi
 497              		.loc 1 377 0
 498 005a 32E1     		b	.L57
 499              	.L33:
 389:C:\Micrium\Software\uCOS-III\Source\os_mutex.c ****        *p_ts  = (CPU_TS  )0;                                /* Initialize the returned timestamp   
 500              		.loc 1 389 0
 501 005c 3B68     		ldr	r3, [r7, #0]
 502 005e 4FF00002 		mov	r2, #0
 503 0062 1A60     		str	r2, [r3, #0]
 504              	.L34:
 390:C:\Micrium\Software\uCOS-III\Source\os_mutex.c ****     }
 391:C:\Micrium\Software\uCOS-III\Source\os_mutex.c **** 
 392:C:\Micrium\Software\uCOS-III\Source\os_mutex.c ****     CPU_CRITICAL_ENTER();
 505              		.loc 1 392 0
 506 0064 FFF7FEFF 		bl	CPU_SR_Save
 507 0068 0346     		mov	r3, r0
 508 006a 7B63     		str	r3, [r7, #52]
 393:C:\Micrium\Software\uCOS-III\Source\os_mutex.c ****     if (p_mutex->OwnerNestingCtr == (OS_NESTING_CTR)0) {    /* Resource available?                 
 509              		.loc 1 393 0
 510 006c FB68     		ldr	r3, [r7, #12]
 511 006e 93F82530 		ldrb	r3, [r3, #37]	@ zero_extendqisi2
 512 0072 002B     		cmp	r3, #0
 513 0074 24D1     		bne	.L35
 394:C:\Micrium\Software\uCOS-III\Source\os_mutex.c ****         p_mutex->OwnerTCBPtr       =  OSTCBCurPtr;          /* Yes, caller may proceed             
 514              		.loc 1 394 0
ARM GAS  C:\Users\daniel01\AppData\Local\Temp\ccg4pOSx.s 			page 17


 515 0076 40F20003 		movw	r3, #:lower16:OSTCBCurPtr
 516 007a C0F20003 		movt	r3, #:upper16:OSTCBCurPtr
 517 007e 1A68     		ldr	r2, [r3, #0]
 518 0080 FB68     		ldr	r3, [r7, #12]
 519 0082 1A62     		str	r2, [r3, #32]
 395:C:\Micrium\Software\uCOS-III\Source\os_mutex.c ****         p_mutex->OwnerOriginalPrio =  OSTCBCurPtr->Prio;
 520              		.loc 1 395 0
 521 0084 40F20003 		movw	r3, #:lower16:OSTCBCurPtr
 522 0088 C0F20003 		movt	r3, #:upper16:OSTCBCurPtr
 523 008c 1B68     		ldr	r3, [r3, #0]
 524 008e 93F83720 		ldrb	r2, [r3, #55]	@ zero_extendqisi2
 525 0092 FB68     		ldr	r3, [r7, #12]
 526 0094 83F82420 		strb	r2, [r3, #36]
 396:C:\Micrium\Software\uCOS-III\Source\os_mutex.c ****         p_mutex->OwnerNestingCtr   = (OS_NESTING_CTR)1;
 527              		.loc 1 396 0
 528 0098 FB68     		ldr	r3, [r7, #12]
 529 009a 4FF00102 		mov	r2, #1
 530 009e 83F82520 		strb	r2, [r3, #37]
 397:C:\Micrium\Software\uCOS-III\Source\os_mutex.c ****         if (p_ts != (CPU_TS *)0) {
 531              		.loc 1 397 0
 532 00a2 3B68     		ldr	r3, [r7, #0]
 533 00a4 002B     		cmp	r3, #0
 534 00a6 03D0     		beq	.L36
 398:C:\Micrium\Software\uCOS-III\Source\os_mutex.c ****            *p_ts  = p_mutex->TS;
 535              		.loc 1 398 0
 536 00a8 FB68     		ldr	r3, [r7, #12]
 537 00aa 9A6A     		ldr	r2, [r3, #40]
 538 00ac 3B68     		ldr	r3, [r7, #0]
 539 00ae 1A60     		str	r2, [r3, #0]
 540              	.L36:
 399:C:\Micrium\Software\uCOS-III\Source\os_mutex.c ****         }
 400:C:\Micrium\Software\uCOS-III\Source\os_mutex.c ****         CPU_CRITICAL_EXIT();
 541              		.loc 1 400 0
 542 00b0 786B     		ldr	r0, [r7, #52]
 543 00b2 FFF7FEFF 		bl	CPU_SR_Restore
 401:C:\Micrium\Software\uCOS-III\Source\os_mutex.c ****        *p_err = OS_ERR_NONE;
 544              		.loc 1 401 0
 545 00b6 3B6C     		ldr	r3, [r7, #64]
 546 00b8 4FF00002 		mov	r2, #0
 547 00bc 1A80     		strh	r2, [r3, #0]	@ movhi
 402:C:\Micrium\Software\uCOS-III\Source\os_mutex.c ****         return;
 548              		.loc 1 402 0
 549 00be 00E1     		b	.L57
 550              	.L35:
 403:C:\Micrium\Software\uCOS-III\Source\os_mutex.c ****     }
 404:C:\Micrium\Software\uCOS-III\Source\os_mutex.c **** 
 405:C:\Micrium\Software\uCOS-III\Source\os_mutex.c ****     if (OSTCBCurPtr == p_mutex->OwnerTCBPtr) {              /* See if current task is already the o
 551              		.loc 1 405 0
 552 00c0 FB68     		ldr	r3, [r7, #12]
 553 00c2 1A6A     		ldr	r2, [r3, #32]
 554 00c4 40F20003 		movw	r3, #:lower16:OSTCBCurPtr
 555 00c8 C0F20003 		movt	r3, #:upper16:OSTCBCurPtr
 556 00cc 1B68     		ldr	r3, [r3, #0]
 557 00ce 9A42     		cmp	r2, r3
 558 00d0 17D1     		bne	.L37
 406:C:\Micrium\Software\uCOS-III\Source\os_mutex.c ****         p_mutex->OwnerNestingCtr++;
 559              		.loc 1 406 0
ARM GAS  C:\Users\daniel01\AppData\Local\Temp\ccg4pOSx.s 			page 18


 560 00d2 FB68     		ldr	r3, [r7, #12]
 561 00d4 93F82530 		ldrb	r3, [r3, #37]	@ zero_extendqisi2
 562 00d8 03F10103 		add	r3, r3, #1
 563 00dc DAB2     		uxtb	r2, r3
 564 00de FB68     		ldr	r3, [r7, #12]
 565 00e0 83F82520 		strb	r2, [r3, #37]
 407:C:\Micrium\Software\uCOS-III\Source\os_mutex.c ****         if (p_ts != (CPU_TS *)0) {
 566              		.loc 1 407 0
 567 00e4 3B68     		ldr	r3, [r7, #0]
 568 00e6 002B     		cmp	r3, #0
 569 00e8 03D0     		beq	.L38
 408:C:\Micrium\Software\uCOS-III\Source\os_mutex.c ****            *p_ts  = p_mutex->TS;
 570              		.loc 1 408 0
 571 00ea FB68     		ldr	r3, [r7, #12]
 572 00ec 9A6A     		ldr	r2, [r3, #40]
 573 00ee 3B68     		ldr	r3, [r7, #0]
 574 00f0 1A60     		str	r2, [r3, #0]
 575              	.L38:
 409:C:\Micrium\Software\uCOS-III\Source\os_mutex.c ****         }
 410:C:\Micrium\Software\uCOS-III\Source\os_mutex.c ****         CPU_CRITICAL_EXIT();
 576              		.loc 1 410 0
 577 00f2 786B     		ldr	r0, [r7, #52]
 578 00f4 FFF7FEFF 		bl	CPU_SR_Restore
 411:C:\Micrium\Software\uCOS-III\Source\os_mutex.c ****        *p_err = OS_ERR_MUTEX_OWNER;                         /* Indicate that current task already o
 579              		.loc 1 411 0
 580 00f8 3B6C     		ldr	r3, [r7, #64]
 581 00fa 45F28272 		movw	r2, #22402
 582 00fe 1A80     		strh	r2, [r3, #0]	@ movhi
 412:C:\Micrium\Software\uCOS-III\Source\os_mutex.c ****         return;
 583              		.loc 1 412 0
 584 0100 DFE0     		b	.L57
 585              	.L37:
 413:C:\Micrium\Software\uCOS-III\Source\os_mutex.c ****     }
 414:C:\Micrium\Software\uCOS-III\Source\os_mutex.c **** 
 415:C:\Micrium\Software\uCOS-III\Source\os_mutex.c ****     if ((opt & OS_OPT_PEND_NON_BLOCKING) != (OS_OPT)0) {    /* Caller wants to block if not availab
 586              		.loc 1 415 0
 587 0102 FB88     		ldrh	r3, [r7, #6]
 588 0104 1BB2     		sxth	r3, r3
 589 0106 002B     		cmp	r3, #0
 590 0108 07DA     		bge	.L39
 416:C:\Micrium\Software\uCOS-III\Source\os_mutex.c ****         CPU_CRITICAL_EXIT();
 591              		.loc 1 416 0
 592 010a 786B     		ldr	r0, [r7, #52]
 593 010c FFF7FEFF 		bl	CPU_SR_Restore
 417:C:\Micrium\Software\uCOS-III\Source\os_mutex.c ****        *p_err = OS_ERR_PEND_WOULD_BLOCK;                    /* No                                  
 594              		.loc 1 417 0
 595 0110 3B6C     		ldr	r3, [r7, #64]
 596 0112 46F2B012 		movw	r2, #25008
 597 0116 1A80     		strh	r2, [r3, #0]	@ movhi
 418:C:\Micrium\Software\uCOS-III\Source\os_mutex.c ****         return;
 598              		.loc 1 418 0
 599 0118 D3E0     		b	.L57
 600              	.L39:
 419:C:\Micrium\Software\uCOS-III\Source\os_mutex.c ****     } else {
 420:C:\Micrium\Software\uCOS-III\Source\os_mutex.c ****         if (OSSchedLockNestingCtr > (OS_NESTING_CTR)0) {    /* Can't pend when the scheduler is loc
 601              		.loc 1 420 0
 602 011a 40F20003 		movw	r3, #:lower16:OSSchedLockNestingCtr
ARM GAS  C:\Users\daniel01\AppData\Local\Temp\ccg4pOSx.s 			page 19


 603 011e C0F20003 		movt	r3, #:upper16:OSSchedLockNestingCtr
 604 0122 1B78     		ldrb	r3, [r3, #0]	@ zero_extendqisi2
 605 0124 002B     		cmp	r3, #0
 606 0126 07D0     		beq	.L40
 421:C:\Micrium\Software\uCOS-III\Source\os_mutex.c ****             CPU_CRITICAL_EXIT();
 607              		.loc 1 421 0
 608 0128 786B     		ldr	r0, [r7, #52]
 609 012a FFF7FEFF 		bl	CPU_SR_Restore
 422:C:\Micrium\Software\uCOS-III\Source\os_mutex.c ****            *p_err = OS_ERR_SCHED_LOCKED;
 610              		.loc 1 422 0
 611 012e 3B6C     		ldr	r3, [r7, #64]
 612 0130 46F66352 		movw	r2, #28003
 613 0134 1A80     		strh	r2, [r3, #0]	@ movhi
 423:C:\Micrium\Software\uCOS-III\Source\os_mutex.c ****             return;
 614              		.loc 1 423 0
 615 0136 C4E0     		b	.L57
 616              	.L40:
 424:C:\Micrium\Software\uCOS-III\Source\os_mutex.c ****         }
 425:C:\Micrium\Software\uCOS-III\Source\os_mutex.c ****     }
 426:C:\Micrium\Software\uCOS-III\Source\os_mutex.c ****                                                             /* Lock the scheduler/re-enable interru
 427:C:\Micrium\Software\uCOS-III\Source\os_mutex.c ****     OS_CRITICAL_ENTER_CPU_EXIT();
 428:C:\Micrium\Software\uCOS-III\Source\os_mutex.c ****     p_tcb = p_mutex->OwnerTCBPtr;                           /* Point to the TCB of the Mutex owner 
 617              		.loc 1 428 0
 618 0138 FB68     		ldr	r3, [r7, #12]
 619 013a 1B6A     		ldr	r3, [r3, #32]
 620 013c 3B63     		str	r3, [r7, #48]
 429:C:\Micrium\Software\uCOS-III\Source\os_mutex.c ****     if (p_tcb->Prio > OSTCBCurPtr->Prio) {                  /* See if mutex owner has a lower prior
 621              		.loc 1 429 0
 622 013e 3B6B     		ldr	r3, [r7, #48]
 623 0140 93F83720 		ldrb	r2, [r3, #55]	@ zero_extendqisi2
 624 0144 40F20003 		movw	r3, #:lower16:OSTCBCurPtr
 625 0148 C0F20003 		movt	r3, #:upper16:OSTCBCurPtr
 626 014c 1B68     		ldr	r3, [r3, #0]
 627 014e 93F83730 		ldrb	r3, [r3, #55]	@ zero_extendqisi2
 628 0152 9A42     		cmp	r2, r3
 629 0154 4AD9     		bls	.L41
 430:C:\Micrium\Software\uCOS-III\Source\os_mutex.c ****         switch (p_tcb->TaskState) {
 630              		.loc 1 430 0
 631 0156 3B6B     		ldr	r3, [r7, #48]
 632 0158 93F83630 		ldrb	r3, [r3, #54]	@ zero_extendqisi2
 633 015c 072B     		cmp	r3, #7
 634 015e 3DD8     		bhi	.L42
 635 0160 4FF00102 		mov	r2, #1
 636 0164 02FA03F3 		lsl	r3, r2, r3
 637 0168 03F0CC02 		and	r2, r3, #204
 638 016c 002A     		cmp	r2, #0
 639 016e 29D1     		bne	.L45
 640 0170 03F03202 		and	r2, r3, #50
 641 0174 002A     		cmp	r2, #0
 642 0176 1AD1     		bne	.L44
 643 0178 03F00103 		and	r3, r3, #1
 644 017c 002B     		cmp	r3, #0
 645 017e 2DD0     		beq	.L42
 646              	.L43:
 431:C:\Micrium\Software\uCOS-III\Source\os_mutex.c ****             case OS_TASK_STATE_RDY:
 432:C:\Micrium\Software\uCOS-III\Source\os_mutex.c ****                  OS_RdyListRemove(p_tcb);                   /* Remove from ready list at current pr
 647              		.loc 1 432 0
ARM GAS  C:\Users\daniel01\AppData\Local\Temp\ccg4pOSx.s 			page 20


 648 0180 386B     		ldr	r0, [r7, #48]
 649 0182 FFF7FEFF 		bl	OS_RdyListRemove
 433:C:\Micrium\Software\uCOS-III\Source\os_mutex.c ****                  p_tcb->Prio = OSTCBCurPtr->Prio;           /* Raise owner's priority              
 650              		.loc 1 433 0
 651 0186 40F20003 		movw	r3, #:lower16:OSTCBCurPtr
 652 018a C0F20003 		movt	r3, #:upper16:OSTCBCurPtr
 653 018e 1B68     		ldr	r3, [r3, #0]
 654 0190 93F83720 		ldrb	r2, [r3, #55]	@ zero_extendqisi2
 655 0194 3B6B     		ldr	r3, [r7, #48]
 656 0196 83F83720 		strb	r2, [r3, #55]
 434:C:\Micrium\Software\uCOS-III\Source\os_mutex.c ****                  OS_PrioInsert(p_tcb->Prio);
 657              		.loc 1 434 0
 658 019a 3B6B     		ldr	r3, [r7, #48]
 659 019c 93F83730 		ldrb	r3, [r3, #55]	@ zero_extendqisi2
 660 01a0 1846     		mov	r0, r3
 661 01a2 FFF7FEFF 		bl	OS_PrioInsert
 435:C:\Micrium\Software\uCOS-III\Source\os_mutex.c ****                  OS_RdyListInsertHead(p_tcb);               /* Insert in ready list at new priority
 662              		.loc 1 435 0
 663 01a6 386B     		ldr	r0, [r7, #48]
 664 01a8 FFF7FEFF 		bl	OS_RdyListInsertHead
 436:C:\Micrium\Software\uCOS-III\Source\os_mutex.c ****                  break;
 665              		.loc 1 436 0
 666 01ac 1EE0     		b	.L41
 667              	.L44:
 437:C:\Micrium\Software\uCOS-III\Source\os_mutex.c **** 
 438:C:\Micrium\Software\uCOS-III\Source\os_mutex.c ****             case OS_TASK_STATE_DLY:
 439:C:\Micrium\Software\uCOS-III\Source\os_mutex.c ****             case OS_TASK_STATE_DLY_SUSPENDED:
 440:C:\Micrium\Software\uCOS-III\Source\os_mutex.c ****             case OS_TASK_STATE_SUSPENDED:
 441:C:\Micrium\Software\uCOS-III\Source\os_mutex.c ****                  p_tcb->Prio = OSTCBCurPtr->Prio;           /* Only need to raise the owner's prior
 668              		.loc 1 441 0
 669 01ae 40F20003 		movw	r3, #:lower16:OSTCBCurPtr
 670 01b2 C0F20003 		movt	r3, #:upper16:OSTCBCurPtr
 671 01b6 1B68     		ldr	r3, [r3, #0]
 672 01b8 93F83720 		ldrb	r2, [r3, #55]	@ zero_extendqisi2
 673 01bc 3B6B     		ldr	r3, [r7, #48]
 674 01be 83F83720 		strb	r2, [r3, #55]
 442:C:\Micrium\Software\uCOS-III\Source\os_mutex.c ****                  break;
 675              		.loc 1 442 0
 676 01c2 13E0     		b	.L41
 677              	.L45:
 443:C:\Micrium\Software\uCOS-III\Source\os_mutex.c **** 
 444:C:\Micrium\Software\uCOS-III\Source\os_mutex.c ****             case OS_TASK_STATE_PEND:                        /* Change the position of the task in t
 445:C:\Micrium\Software\uCOS-III\Source\os_mutex.c ****             case OS_TASK_STATE_PEND_TIMEOUT:
 446:C:\Micrium\Software\uCOS-III\Source\os_mutex.c ****             case OS_TASK_STATE_PEND_SUSPENDED:
 447:C:\Micrium\Software\uCOS-III\Source\os_mutex.c ****             case OS_TASK_STATE_PEND_TIMEOUT_SUSPENDED:
 448:C:\Micrium\Software\uCOS-III\Source\os_mutex.c ****                  OS_PendListChangePrio(p_tcb,
 449:C:\Micrium\Software\uCOS-III\Source\os_mutex.c ****                                        OSTCBCurPtr->Prio);
 678              		.loc 1 449 0
 679 01c4 40F20003 		movw	r3, #:lower16:OSTCBCurPtr
 680 01c8 C0F20003 		movt	r3, #:upper16:OSTCBCurPtr
 681 01cc 1B68     		ldr	r3, [r3, #0]
 682              		.loc 1 448 0
 683 01ce 93F83730 		ldrb	r3, [r3, #55]	@ zero_extendqisi2
 684 01d2 386B     		ldr	r0, [r7, #48]
 685 01d4 1946     		mov	r1, r3
 686 01d6 FFF7FEFF 		bl	OS_PendListChangePrio
 450:C:\Micrium\Software\uCOS-III\Source\os_mutex.c ****                  break;
ARM GAS  C:\Users\daniel01\AppData\Local\Temp\ccg4pOSx.s 			page 21


 687              		.loc 1 450 0
 688 01da 07E0     		b	.L41
 689              	.L42:
 451:C:\Micrium\Software\uCOS-III\Source\os_mutex.c **** 
 452:C:\Micrium\Software\uCOS-III\Source\os_mutex.c ****             default:
 453:C:\Micrium\Software\uCOS-III\Source\os_mutex.c ****                  OS_CRITICAL_EXIT();
 690              		.loc 1 453 0
 691 01dc 786B     		ldr	r0, [r7, #52]
 692 01de FFF7FEFF 		bl	CPU_SR_Restore
 454:C:\Micrium\Software\uCOS-III\Source\os_mutex.c ****                 *p_err = OS_ERR_STATE_INVALID;
 693              		.loc 1 454 0
 694 01e2 3B6C     		ldr	r3, [r7, #64]
 695 01e4 46F62D62 		movw	r2, #28205
 696 01e8 1A80     		strh	r2, [r3, #0]	@ movhi
 455:C:\Micrium\Software\uCOS-III\Source\os_mutex.c ****                  return;
 697              		.loc 1 455 0
 698 01ea 6AE0     		b	.L57
 699              	.L41:
 456:C:\Micrium\Software\uCOS-III\Source\os_mutex.c ****         }
 457:C:\Micrium\Software\uCOS-III\Source\os_mutex.c ****     }
 458:C:\Micrium\Software\uCOS-III\Source\os_mutex.c **** 
 459:C:\Micrium\Software\uCOS-III\Source\os_mutex.c ****     OS_Pend(&pend_data,                                     /* Block task pending on Mutex         
 700              		.loc 1 459 0
 701 01ec FB68     		ldr	r3, [r7, #12]
 702 01ee 07F11002 		add	r2, r7, #16
 703 01f2 1046     		mov	r0, r2
 704 01f4 1946     		mov	r1, r3
 705 01f6 4FF00402 		mov	r2, #4
 706 01fa BB68     		ldr	r3, [r7, #8]
 707 01fc FFF7FEFF 		bl	OS_Pend
 460:C:\Micrium\Software\uCOS-III\Source\os_mutex.c ****             (OS_PEND_OBJ *)((void *)p_mutex),
 461:C:\Micrium\Software\uCOS-III\Source\os_mutex.c ****              OS_TASK_PEND_ON_MUTEX,
 462:C:\Micrium\Software\uCOS-III\Source\os_mutex.c ****              timeout);
 463:C:\Micrium\Software\uCOS-III\Source\os_mutex.c **** 
 464:C:\Micrium\Software\uCOS-III\Source\os_mutex.c ****     OS_CRITICAL_EXIT_NO_SCHED();
 708              		.loc 1 464 0
 709 0200 786B     		ldr	r0, [r7, #52]
 710 0202 FFF7FEFF 		bl	CPU_SR_Restore
 465:C:\Micrium\Software\uCOS-III\Source\os_mutex.c **** 
 466:C:\Micrium\Software\uCOS-III\Source\os_mutex.c ****     OSSched();                                              /* Find the next highest priority task 
 711              		.loc 1 466 0
 712 0206 FFF7FEFF 		bl	OSSched
 467:C:\Micrium\Software\uCOS-III\Source\os_mutex.c **** 
 468:C:\Micrium\Software\uCOS-III\Source\os_mutex.c ****     CPU_CRITICAL_ENTER();
 713              		.loc 1 468 0
 714 020a FFF7FEFF 		bl	CPU_SR_Save
 715 020e 0346     		mov	r3, r0
 716 0210 7B63     		str	r3, [r7, #52]
 469:C:\Micrium\Software\uCOS-III\Source\os_mutex.c ****     switch (OSTCBCurPtr->PendStatus) {
 717              		.loc 1 469 0
 718 0212 40F20003 		movw	r3, #:lower16:OSTCBCurPtr
 719 0216 C0F20003 		movt	r3, #:upper16:OSTCBCurPtr
 720 021a 1B68     		ldr	r3, [r3, #0]
 721 021c 93F83530 		ldrb	r3, [r3, #53]	@ zero_extendqisi2
 722 0220 032B     		cmp	r3, #3
 723 0222 47D8     		bhi	.L46
 724 0224 01A2     		adr	r2, .L51
ARM GAS  C:\Users\daniel01\AppData\Local\Temp\ccg4pOSx.s 			page 22


 725 0226 52F823F0 		ldr	pc, [r2, r3, lsl #2]
 726 022a 00BF     		.align	2
 727              	.L51:
 728 022c 3D020000 		.word	.L47+1
 729 0230 5D020000 		.word	.L48+1
 730 0234 95020000 		.word	.L49+1
 731 0238 7D020000 		.word	.L50+1
 732              	.L47:
 470:C:\Micrium\Software\uCOS-III\Source\os_mutex.c ****         case OS_STATUS_PEND_OK:                             /* We got the mutex                    
 471:C:\Micrium\Software\uCOS-III\Source\os_mutex.c ****              if (p_ts != (CPU_TS *)0) {
 733              		.loc 1 471 0
 734 023c 3B68     		ldr	r3, [r7, #0]
 735 023e 002B     		cmp	r3, #0
 736 0240 07D0     		beq	.L52
 472:C:\Micrium\Software\uCOS-III\Source\os_mutex.c ****                 *p_ts  = OSTCBCurPtr->TS;
 737              		.loc 1 472 0
 738 0242 40F20003 		movw	r3, #:lower16:OSTCBCurPtr
 739 0246 C0F20003 		movt	r3, #:upper16:OSTCBCurPtr
 740 024a 1B68     		ldr	r3, [r3, #0]
 741 024c 1A6C     		ldr	r2, [r3, #64]
 742 024e 3B68     		ldr	r3, [r7, #0]
 743 0250 1A60     		str	r2, [r3, #0]
 744              	.L52:
 473:C:\Micrium\Software\uCOS-III\Source\os_mutex.c ****              }
 474:C:\Micrium\Software\uCOS-III\Source\os_mutex.c ****             *p_err = OS_ERR_NONE;
 745              		.loc 1 474 0
 746 0252 3B6C     		ldr	r3, [r7, #64]
 747 0254 4FF00002 		mov	r2, #0
 748 0258 1A80     		strh	r2, [r3, #0]	@ movhi
 475:C:\Micrium\Software\uCOS-III\Source\os_mutex.c ****              break;
 749              		.loc 1 475 0
 750 025a 2FE0     		b	.L53
 751              	.L48:
 476:C:\Micrium\Software\uCOS-III\Source\os_mutex.c **** 
 477:C:\Micrium\Software\uCOS-III\Source\os_mutex.c ****         case OS_STATUS_PEND_ABORT:                          /* Indicate that we aborted            
 478:C:\Micrium\Software\uCOS-III\Source\os_mutex.c ****              if (p_ts != (CPU_TS *)0) {
 752              		.loc 1 478 0
 753 025c 3B68     		ldr	r3, [r7, #0]
 754 025e 002B     		cmp	r3, #0
 755 0260 07D0     		beq	.L54
 479:C:\Micrium\Software\uCOS-III\Source\os_mutex.c ****                 *p_ts  = OSTCBCurPtr->TS;
 756              		.loc 1 479 0
 757 0262 40F20003 		movw	r3, #:lower16:OSTCBCurPtr
 758 0266 C0F20003 		movt	r3, #:upper16:OSTCBCurPtr
 759 026a 1B68     		ldr	r3, [r3, #0]
 760 026c 1A6C     		ldr	r2, [r3, #64]
 761 026e 3B68     		ldr	r3, [r7, #0]
 762 0270 1A60     		str	r2, [r3, #0]
 763              	.L54:
 480:C:\Micrium\Software\uCOS-III\Source\os_mutex.c ****              }
 481:C:\Micrium\Software\uCOS-III\Source\os_mutex.c ****             *p_err = OS_ERR_PEND_ABORT;
 764              		.loc 1 481 0
 765 0272 3B6C     		ldr	r3, [r7, #64]
 766 0274 46F2A912 		movw	r2, #25001
 767 0278 1A80     		strh	r2, [r3, #0]	@ movhi
 482:C:\Micrium\Software\uCOS-III\Source\os_mutex.c ****              break;
 768              		.loc 1 482 0
ARM GAS  C:\Users\daniel01\AppData\Local\Temp\ccg4pOSx.s 			page 23


 769 027a 1FE0     		b	.L53
 770              	.L50:
 483:C:\Micrium\Software\uCOS-III\Source\os_mutex.c **** 
 484:C:\Micrium\Software\uCOS-III\Source\os_mutex.c ****         case OS_STATUS_PEND_TIMEOUT:                        /* Indicate that we didn't get mutex wi
 485:C:\Micrium\Software\uCOS-III\Source\os_mutex.c ****              if (p_ts != (CPU_TS *)0) {
 771              		.loc 1 485 0
 772 027c 3B68     		ldr	r3, [r7, #0]
 773 027e 002B     		cmp	r3, #0
 774 0280 03D0     		beq	.L55
 486:C:\Micrium\Software\uCOS-III\Source\os_mutex.c ****                 *p_ts  = (CPU_TS  )0;
 775              		.loc 1 486 0
 776 0282 3B68     		ldr	r3, [r7, #0]
 777 0284 4FF00002 		mov	r2, #0
 778 0288 1A60     		str	r2, [r3, #0]
 779              	.L55:
 487:C:\Micrium\Software\uCOS-III\Source\os_mutex.c ****              }
 488:C:\Micrium\Software\uCOS-III\Source\os_mutex.c ****             *p_err = OS_ERR_TIMEOUT;
 780              		.loc 1 488 0
 781 028a 3B6C     		ldr	r3, [r7, #64]
 782 028c 47F2D922 		movw	r2, #29401
 783 0290 1A80     		strh	r2, [r3, #0]	@ movhi
 489:C:\Micrium\Software\uCOS-III\Source\os_mutex.c ****              break;
 784              		.loc 1 489 0
 785 0292 13E0     		b	.L53
 786              	.L49:
 490:C:\Micrium\Software\uCOS-III\Source\os_mutex.c **** 
 491:C:\Micrium\Software\uCOS-III\Source\os_mutex.c ****         case OS_STATUS_PEND_DEL:                            /* Indicate that object pended on has b
 492:C:\Micrium\Software\uCOS-III\Source\os_mutex.c ****              if (p_ts != (CPU_TS *)0) {
 787              		.loc 1 492 0
 788 0294 3B68     		ldr	r3, [r7, #0]
 789 0296 002B     		cmp	r3, #0
 790 0298 07D0     		beq	.L56
 493:C:\Micrium\Software\uCOS-III\Source\os_mutex.c ****                 *p_ts  = OSTCBCurPtr->TS;
 791              		.loc 1 493 0
 792 029a 40F20003 		movw	r3, #:lower16:OSTCBCurPtr
 793 029e C0F20003 		movt	r3, #:upper16:OSTCBCurPtr
 794 02a2 1B68     		ldr	r3, [r3, #0]
 795 02a4 1A6C     		ldr	r2, [r3, #64]
 796 02a6 3B68     		ldr	r3, [r7, #0]
 797 02a8 1A60     		str	r2, [r3, #0]
 798              	.L56:
 494:C:\Micrium\Software\uCOS-III\Source\os_mutex.c ****              }
 495:C:\Micrium\Software\uCOS-III\Source\os_mutex.c ****             *p_err = OS_ERR_OBJ_DEL;
 799              		.loc 1 495 0
 800 02aa 3B6C     		ldr	r3, [r7, #64]
 801 02ac 45F6C252 		movw	r2, #24002
 802 02b0 1A80     		strh	r2, [r3, #0]	@ movhi
 496:C:\Micrium\Software\uCOS-III\Source\os_mutex.c ****              break;
 803              		.loc 1 496 0
 804 02b2 03E0     		b	.L53
 805              	.L46:
 497:C:\Micrium\Software\uCOS-III\Source\os_mutex.c **** 
 498:C:\Micrium\Software\uCOS-III\Source\os_mutex.c ****         default:
 499:C:\Micrium\Software\uCOS-III\Source\os_mutex.c ****             *p_err = OS_ERR_STATUS_INVALID;
 806              		.loc 1 499 0
 807 02b4 3B6C     		ldr	r3, [r7, #64]
 808 02b6 46F62E62 		movw	r2, #28206
ARM GAS  C:\Users\daniel01\AppData\Local\Temp\ccg4pOSx.s 			page 24


 809 02ba 1A80     		strh	r2, [r3, #0]	@ movhi
 810              	.L53:
 500:C:\Micrium\Software\uCOS-III\Source\os_mutex.c ****              break;
 501:C:\Micrium\Software\uCOS-III\Source\os_mutex.c ****     }
 502:C:\Micrium\Software\uCOS-III\Source\os_mutex.c ****     CPU_CRITICAL_EXIT();
 811              		.loc 1 502 0
 812 02bc 786B     		ldr	r0, [r7, #52]
 813 02be FFF7FEFF 		bl	CPU_SR_Restore
 814              	.L57:
 503:C:\Micrium\Software\uCOS-III\Source\os_mutex.c **** }
 815              		.loc 1 503 0
 816 02c2 07F13807 		add	r7, r7, #56
 817 02c6 BD46     		mov	sp, r7
 818 02c8 80BD     		pop	{r7, pc}
 819              		.cfi_endproc
 820              	.LFE2:
 821              		.size	OSMutexPend, .-OSMutexPend
 822 02ca 00BF     		.section	.text.OSMutexPendAbort,"ax",%progbits
 823              		.align	2
 824              		.global	OSMutexPendAbort
 825              		.thumb
 826              		.thumb_func
 827              		.type	OSMutexPendAbort, %function
 828              	OSMutexPendAbort:
 829              	.LFB3:
 504:C:\Micrium\Software\uCOS-III\Source\os_mutex.c **** 
 505:C:\Micrium\Software\uCOS-III\Source\os_mutex.c **** /*$PAGE*/
 506:C:\Micrium\Software\uCOS-III\Source\os_mutex.c **** /*
 507:C:\Micrium\Software\uCOS-III\Source\os_mutex.c **** ***************************************************************************************************
 508:C:\Micrium\Software\uCOS-III\Source\os_mutex.c **** *                                               ABORT WAITING ON A MUTEX
 509:C:\Micrium\Software\uCOS-III\Source\os_mutex.c **** *
 510:C:\Micrium\Software\uCOS-III\Source\os_mutex.c **** * Description: This function aborts & readies any tasks currently waiting on a mutex.  This functio
 511:C:\Micrium\Software\uCOS-III\Source\os_mutex.c **** *              to fault-abort the wait on the mutex, rather than to normally signal the mutex via O
 512:C:\Micrium\Software\uCOS-III\Source\os_mutex.c **** *
 513:C:\Micrium\Software\uCOS-III\Source\os_mutex.c **** * Arguments  : p_mutex   is a pointer to the mutex
 514:C:\Micrium\Software\uCOS-III\Source\os_mutex.c **** *
 515:C:\Micrium\Software\uCOS-III\Source\os_mutex.c **** *              opt       determines the type of ABORT performed:
 516:C:\Micrium\Software\uCOS-III\Source\os_mutex.c **** *
 517:C:\Micrium\Software\uCOS-III\Source\os_mutex.c **** *                            OS_OPT_PEND_ABORT_1          ABORT wait for a single task (HPT) waitin
 518:C:\Micrium\Software\uCOS-III\Source\os_mutex.c **** *                            OS_OPT_PEND_ABORT_ALL        ABORT wait for ALL tasks that are  waitin
 519:C:\Micrium\Software\uCOS-III\Source\os_mutex.c **** *                            OS_OPT_POST_NO_SCHED         Do not call the scheduler
 520:C:\Micrium\Software\uCOS-III\Source\os_mutex.c **** *
 521:C:\Micrium\Software\uCOS-III\Source\os_mutex.c **** *              p_err     is a pointer to a variable that will contain an error code returned by thi
 522:C:\Micrium\Software\uCOS-III\Source\os_mutex.c **** *
 523:C:\Micrium\Software\uCOS-III\Source\os_mutex.c **** *                            OS_ERR_NONE                  At least one task waiting on the mutex wa
 524:C:\Micrium\Software\uCOS-III\Source\os_mutex.c **** *                                                         informed of the aborted wait; check retur
 525:C:\Micrium\Software\uCOS-III\Source\os_mutex.c **** *                                                         number of tasks whose wait on the mutex w
 526:C:\Micrium\Software\uCOS-III\Source\os_mutex.c **** *                            OS_ERR_OBJ_PTR_NULL          If 'p_mutex' is a NULL pointer.
 527:C:\Micrium\Software\uCOS-III\Source\os_mutex.c **** *                            OS_ERR_OBJ_TYPE              If 'p_mutex' is not pointing at a mutex
 528:C:\Micrium\Software\uCOS-III\Source\os_mutex.c **** *                            OS_ERR_OPT_INVALID           If you specified an invalid option
 529:C:\Micrium\Software\uCOS-III\Source\os_mutex.c **** *                            OS_ERR_PEND_ABORT_ISR        If you attempted to call this function fr
 530:C:\Micrium\Software\uCOS-III\Source\os_mutex.c **** *                            OS_ERR_PEND_ABORT_NONE       No task were pending
 531:C:\Micrium\Software\uCOS-III\Source\os_mutex.c **** *
 532:C:\Micrium\Software\uCOS-III\Source\os_mutex.c **** * Returns    : == 0          if no tasks were waiting on the mutex, or upon error.
 533:C:\Micrium\Software\uCOS-III\Source\os_mutex.c **** *              >  0          if one or more tasks waiting on the mutex are now readied and informed
 534:C:\Micrium\Software\uCOS-III\Source\os_mutex.c **** ***************************************************************************************************
 535:C:\Micrium\Software\uCOS-III\Source\os_mutex.c **** */
ARM GAS  C:\Users\daniel01\AppData\Local\Temp\ccg4pOSx.s 			page 25


 536:C:\Micrium\Software\uCOS-III\Source\os_mutex.c **** 
 537:C:\Micrium\Software\uCOS-III\Source\os_mutex.c **** #if OS_CFG_MUTEX_PEND_ABORT_EN > 0u
 538:C:\Micrium\Software\uCOS-III\Source\os_mutex.c **** OS_OBJ_QTY  OSMutexPendAbort (OS_MUTEX  *p_mutex,
 539:C:\Micrium\Software\uCOS-III\Source\os_mutex.c ****                               OS_OPT     opt,
 540:C:\Micrium\Software\uCOS-III\Source\os_mutex.c ****                               OS_ERR    *p_err)
 541:C:\Micrium\Software\uCOS-III\Source\os_mutex.c **** {
 830              		.loc 1 541 0
 831              		.cfi_startproc
 832              		@ args = 0, pretend = 0, frame = 40
 833              		@ frame_needed = 1, uses_anonymous_args = 0
 834 0000 80B5     		push	{r7, lr}
 835              	.LCFI9:
 836              		.cfi_def_cfa_offset 8
 837 0002 8AB0     		sub	sp, sp, #40
 838              	.LCFI10:
 839              		.cfi_def_cfa_offset 48
 840 0004 00AF     		add	r7, sp, #0
 841              		.cfi_offset 14, -4
 842              		.cfi_offset 7, -8
 843              	.LCFI11:
 844              		.cfi_def_cfa_register 7
 845 0006 F860     		str	r0, [r7, #12]
 846 0008 0B46     		mov	r3, r1
 847 000a 7A60     		str	r2, [r7, #4]
 848 000c 7B81     		strh	r3, [r7, #10]	@ movhi
 542:C:\Micrium\Software\uCOS-III\Source\os_mutex.c ****     OS_PEND_LIST  *p_pend_list;
 543:C:\Micrium\Software\uCOS-III\Source\os_mutex.c ****     OS_TCB        *p_tcb;
 544:C:\Micrium\Software\uCOS-III\Source\os_mutex.c ****     CPU_TS         ts;
 545:C:\Micrium\Software\uCOS-III\Source\os_mutex.c ****     OS_OBJ_QTY     nbr_tasks;
 546:C:\Micrium\Software\uCOS-III\Source\os_mutex.c ****     CPU_SR_ALLOC();
 849              		.loc 1 546 0
 850 000e 4FF00003 		mov	r3, #0
 851 0012 7B62     		str	r3, [r7, #36]
 547:C:\Micrium\Software\uCOS-III\Source\os_mutex.c **** 
 548:C:\Micrium\Software\uCOS-III\Source\os_mutex.c **** 
 549:C:\Micrium\Software\uCOS-III\Source\os_mutex.c **** 
 550:C:\Micrium\Software\uCOS-III\Source\os_mutex.c **** #ifdef OS_SAFETY_CRITICAL
 551:C:\Micrium\Software\uCOS-III\Source\os_mutex.c ****     if (p_err == (OS_ERR *)0) {
 552:C:\Micrium\Software\uCOS-III\Source\os_mutex.c ****         OS_SAFETY_CRITICAL_EXCEPTION();
 553:C:\Micrium\Software\uCOS-III\Source\os_mutex.c ****         return ((OS_OBJ_QTY)0u);
 554:C:\Micrium\Software\uCOS-III\Source\os_mutex.c ****     }
 555:C:\Micrium\Software\uCOS-III\Source\os_mutex.c **** #endif
 556:C:\Micrium\Software\uCOS-III\Source\os_mutex.c **** 
 557:C:\Micrium\Software\uCOS-III\Source\os_mutex.c **** #if OS_CFG_CALLED_FROM_ISR_CHK_EN > 0u
 558:C:\Micrium\Software\uCOS-III\Source\os_mutex.c ****     if (OSIntNestingCtr > (OS_NESTING_CTR)0u) {             /* Not allowed to Pend Abort from an IS
 852              		.loc 1 558 0
 853 0014 40F20003 		movw	r3, #:lower16:OSIntNestingCtr
 854 0018 C0F20003 		movt	r3, #:upper16:OSIntNestingCtr
 855 001c 1B78     		ldrb	r3, [r3, #0]	@ zero_extendqisi2
 856 001e 002B     		cmp	r3, #0
 857 0020 06D0     		beq	.L60
 559:C:\Micrium\Software\uCOS-III\Source\os_mutex.c ****        *p_err =  OS_ERR_PEND_ABORT_ISR;
 858              		.loc 1 559 0
 859 0022 7B68     		ldr	r3, [r7, #4]
 860 0024 46F2AA12 		movw	r2, #25002
 861 0028 1A80     		strh	r2, [r3, #0]	@ movhi
 560:C:\Micrium\Software\uCOS-III\Source\os_mutex.c ****         return ((OS_OBJ_QTY)0u);
ARM GAS  C:\Users\daniel01\AppData\Local\Temp\ccg4pOSx.s 			page 26


 862              		.loc 1 560 0
 863 002a 4FF00003 		mov	r3, #0
 864 002e 65E0     		b	.L61
 865              	.L60:
 561:C:\Micrium\Software\uCOS-III\Source\os_mutex.c ****     }
 562:C:\Micrium\Software\uCOS-III\Source\os_mutex.c **** #endif
 563:C:\Micrium\Software\uCOS-III\Source\os_mutex.c **** 
 564:C:\Micrium\Software\uCOS-III\Source\os_mutex.c **** #if OS_CFG_ARG_CHK_EN > 0u
 565:C:\Micrium\Software\uCOS-III\Source\os_mutex.c ****     if (p_mutex == (OS_MUTEX *)0) {                         /* Validate 'p_mutex'                  
 866              		.loc 1 565 0
 867 0030 FB68     		ldr	r3, [r7, #12]
 868 0032 002B     		cmp	r3, #0
 869 0034 06D1     		bne	.L62
 566:C:\Micrium\Software\uCOS-III\Source\os_mutex.c ****        *p_err =  OS_ERR_OBJ_PTR_NULL;
 870              		.loc 1 566 0
 871 0036 7B68     		ldr	r3, [r7, #4]
 872 0038 45F6C352 		movw	r2, #24003
 873 003c 1A80     		strh	r2, [r3, #0]	@ movhi
 567:C:\Micrium\Software\uCOS-III\Source\os_mutex.c ****         return ((OS_OBJ_QTY)0u);
 874              		.loc 1 567 0
 875 003e 4FF00003 		mov	r3, #0
 876 0042 5BE0     		b	.L61
 877              	.L62:
 568:C:\Micrium\Software\uCOS-III\Source\os_mutex.c ****     }
 569:C:\Micrium\Software\uCOS-III\Source\os_mutex.c ****     switch (opt) {                                          /* Validate 'opt'                      
 878              		.loc 1 569 0
 879 0044 7B89     		ldrh	r3, [r7, #10]
 880 0046 B3F5807F 		cmp	r3, #256
 881 004a 0BD0     		beq	.L64
 882 004c B3F5807F 		cmp	r3, #256
 883 0050 02DC     		bgt	.L65
 884 0052 002B     		cmp	r3, #0
 885 0054 06D0     		beq	.L64
 886 0056 12E0     		b	.L63
 887              	.L65:
 888 0058 B3F5004F 		cmp	r3, #32768
 889 005c 02D0     		beq	.L64
 890 005e B3F5014F 		cmp	r3, #33024
 891 0062 0CD1     		bne	.L63
 892              	.L64:
 570:C:\Micrium\Software\uCOS-III\Source\os_mutex.c ****         case OS_OPT_PEND_ABORT_1:
 571:C:\Micrium\Software\uCOS-III\Source\os_mutex.c ****         case OS_OPT_PEND_ABORT_ALL:
 572:C:\Micrium\Software\uCOS-III\Source\os_mutex.c ****         case OS_OPT_PEND_ABORT_1   | OS_OPT_POST_NO_SCHED:
 573:C:\Micrium\Software\uCOS-III\Source\os_mutex.c ****         case OS_OPT_PEND_ABORT_ALL | OS_OPT_POST_NO_SCHED:
 574:C:\Micrium\Software\uCOS-III\Source\os_mutex.c ****              break;
 575:C:\Micrium\Software\uCOS-III\Source\os_mutex.c **** 
 576:C:\Micrium\Software\uCOS-III\Source\os_mutex.c ****         default:
 577:C:\Micrium\Software\uCOS-III\Source\os_mutex.c ****             *p_err =  OS_ERR_OPT_INVALID;
 578:C:\Micrium\Software\uCOS-III\Source\os_mutex.c ****              return ((OS_OBJ_QTY)0u);
 579:C:\Micrium\Software\uCOS-III\Source\os_mutex.c ****     }
 580:C:\Micrium\Software\uCOS-III\Source\os_mutex.c **** #endif
 581:C:\Micrium\Software\uCOS-III\Source\os_mutex.c **** 
 582:C:\Micrium\Software\uCOS-III\Source\os_mutex.c **** #if OS_CFG_OBJ_TYPE_CHK_EN > 0u
 583:C:\Micrium\Software\uCOS-III\Source\os_mutex.c ****     if (p_mutex->Type != OS_OBJ_TYPE_MUTEX) {               /* Make sure mutex was created         
 584:C:\Micrium\Software\uCOS-III\Source\os_mutex.c ****        *p_err =  OS_ERR_OBJ_TYPE;
 585:C:\Micrium\Software\uCOS-III\Source\os_mutex.c ****         return ((OS_OBJ_QTY)0u);
 586:C:\Micrium\Software\uCOS-III\Source\os_mutex.c ****     }
ARM GAS  C:\Users\daniel01\AppData\Local\Temp\ccg4pOSx.s 			page 27


 587:C:\Micrium\Software\uCOS-III\Source\os_mutex.c **** #endif
 588:C:\Micrium\Software\uCOS-III\Source\os_mutex.c **** 
 589:C:\Micrium\Software\uCOS-III\Source\os_mutex.c ****     CPU_CRITICAL_ENTER();
 893              		.loc 1 589 0
 894 0064 FFF7FEFF 		bl	CPU_SR_Save
 895 0068 0346     		mov	r3, r0
 896 006a 7B62     		str	r3, [r7, #36]
 590:C:\Micrium\Software\uCOS-III\Source\os_mutex.c ****     p_pend_list = &p_mutex->PendList;
 897              		.loc 1 590 0
 898 006c FB68     		ldr	r3, [r7, #12]
 899 006e 03F10803 		add	r3, r3, #8
 900 0072 7B61     		str	r3, [r7, #20]
 591:C:\Micrium\Software\uCOS-III\Source\os_mutex.c ****     if (p_pend_list->NbrEntries == (OS_OBJ_QTY)0u) {        /* Any task waiting on mutex?          
 901              		.loc 1 591 0
 902 0074 7B69     		ldr	r3, [r7, #20]
 903 0076 1B89     		ldrh	r3, [r3, #8]
 904 0078 002B     		cmp	r3, #0
 905 007a 07D0     		beq	.L66
 906 007c 10E0     		b	.L73
 907              	.L63:
 908              		.loc 1 577 0
 909 007e 7B68     		ldr	r3, [r7, #4]
 910 0080 45F62562 		movw	r2, #24101
 911 0084 1A80     		strh	r2, [r3, #0]	@ movhi
 912              		.loc 1 578 0
 913 0086 4FF00003 		mov	r3, #0
 914 008a 37E0     		b	.L61
 915              	.L66:
 592:C:\Micrium\Software\uCOS-III\Source\os_mutex.c ****         CPU_CRITICAL_EXIT();                                /* No                                  
 916              		.loc 1 592 0
 917 008c 786A     		ldr	r0, [r7, #36]
 918 008e FFF7FEFF 		bl	CPU_SR_Restore
 593:C:\Micrium\Software\uCOS-III\Source\os_mutex.c ****        *p_err =  OS_ERR_PEND_ABORT_NONE;
 919              		.loc 1 593 0
 920 0092 7B68     		ldr	r3, [r7, #4]
 921 0094 46F2AB12 		movw	r2, #25003
 922 0098 1A80     		strh	r2, [r3, #0]	@ movhi
 594:C:\Micrium\Software\uCOS-III\Source\os_mutex.c ****         return ((OS_OBJ_QTY)0u);
 923              		.loc 1 594 0
 924 009a 4FF00003 		mov	r3, #0
 925 009e 2DE0     		b	.L61
 926              	.L73:
 595:C:\Micrium\Software\uCOS-III\Source\os_mutex.c ****     }
 596:C:\Micrium\Software\uCOS-III\Source\os_mutex.c **** 
 597:C:\Micrium\Software\uCOS-III\Source\os_mutex.c ****     OS_CRITICAL_ENTER_CPU_EXIT();
 598:C:\Micrium\Software\uCOS-III\Source\os_mutex.c ****     nbr_tasks = 0u;
 927              		.loc 1 598 0
 928 00a0 4FF00003 		mov	r3, #0
 929 00a4 7B84     		strh	r3, [r7, #34]	@ movhi
 599:C:\Micrium\Software\uCOS-III\Source\os_mutex.c ****     ts        = OS_TS_GET();                                /* Get local time stamp so all tasks ge
 930              		.loc 1 599 0
 931 00a6 FFF7FEFF 		bl	CPU_TS_TmrRd
 932 00aa 0346     		mov	r3, r0
 933 00ac FB61     		str	r3, [r7, #28]
 600:C:\Micrium\Software\uCOS-III\Source\os_mutex.c ****     while (p_pend_list->NbrEntries > (OS_OBJ_QTY)0u) {
 934              		.loc 1 600 0
 935 00ae 11E0     		b	.L68
ARM GAS  C:\Users\daniel01\AppData\Local\Temp\ccg4pOSx.s 			page 28


 936              	.L70:
 601:C:\Micrium\Software\uCOS-III\Source\os_mutex.c ****         p_tcb = p_pend_list->HeadPtr->TCBPtr;
 937              		.loc 1 601 0
 938 00b0 7B69     		ldr	r3, [r7, #20]
 939 00b2 1B68     		ldr	r3, [r3, #0]
 940 00b4 9B68     		ldr	r3, [r3, #8]
 941 00b6 BB61     		str	r3, [r7, #24]
 602:C:\Micrium\Software\uCOS-III\Source\os_mutex.c ****         OS_PendAbort((OS_PEND_OBJ *)((void *)p_mutex),
 942              		.loc 1 602 0
 943 00b8 FB68     		ldr	r3, [r7, #12]
 944 00ba 1846     		mov	r0, r3
 945 00bc B969     		ldr	r1, [r7, #24]
 946 00be FA69     		ldr	r2, [r7, #28]
 947 00c0 FFF7FEFF 		bl	OS_PendAbort
 603:C:\Micrium\Software\uCOS-III\Source\os_mutex.c ****                      p_tcb,
 604:C:\Micrium\Software\uCOS-III\Source\os_mutex.c ****                      ts);
 605:C:\Micrium\Software\uCOS-III\Source\os_mutex.c ****         nbr_tasks++;
 948              		.loc 1 605 0
 949 00c4 7B8C     		ldrh	r3, [r7, #34]	@ movhi
 950 00c6 03F10103 		add	r3, r3, #1
 951 00ca 7B84     		strh	r3, [r7, #34]	@ movhi
 606:C:\Micrium\Software\uCOS-III\Source\os_mutex.c ****         if (opt != OS_OPT_PEND_ABORT_ALL) {                 /* Pend abort all tasks waiting?       
 952              		.loc 1 606 0
 953 00cc 7B89     		ldrh	r3, [r7, #10]
 954 00ce B3F5807F 		cmp	r3, #256
 955 00d2 04D1     		bne	.L74
 956              	.L68:
 957              		.loc 1 600 0
 958 00d4 7B69     		ldr	r3, [r7, #20]
 959 00d6 1B89     		ldrh	r3, [r3, #8]
 960 00d8 002B     		cmp	r3, #0
 961 00da E9D1     		bne	.L70
 962 00dc 00E0     		b	.L69
 963              	.L74:
 607:C:\Micrium\Software\uCOS-III\Source\os_mutex.c ****             break;                                          /* No                                  
 964              		.loc 1 607 0
 965 00de 00BF     		nop
 966              	.L69:
 608:C:\Micrium\Software\uCOS-III\Source\os_mutex.c ****         }
 609:C:\Micrium\Software\uCOS-III\Source\os_mutex.c ****     }
 610:C:\Micrium\Software\uCOS-III\Source\os_mutex.c ****     OS_CRITICAL_EXIT_NO_SCHED();
 967              		.loc 1 610 0
 968 00e0 786A     		ldr	r0, [r7, #36]
 969 00e2 FFF7FEFF 		bl	CPU_SR_Restore
 611:C:\Micrium\Software\uCOS-III\Source\os_mutex.c **** 
 612:C:\Micrium\Software\uCOS-III\Source\os_mutex.c ****     if ((opt & OS_OPT_POST_NO_SCHED) == (OS_OPT)0u) {
 970              		.loc 1 612 0
 971 00e6 7B89     		ldrh	r3, [r7, #10]
 972 00e8 1BB2     		sxth	r3, r3
 973 00ea 002B     		cmp	r3, #0
 974 00ec 01DB     		blt	.L71
 613:C:\Micrium\Software\uCOS-III\Source\os_mutex.c ****         OSSched();                                          /* Run the scheduler                   
 975              		.loc 1 613 0
 976 00ee FFF7FEFF 		bl	OSSched
 977              	.L71:
 614:C:\Micrium\Software\uCOS-III\Source\os_mutex.c ****     }
 615:C:\Micrium\Software\uCOS-III\Source\os_mutex.c **** 
ARM GAS  C:\Users\daniel01\AppData\Local\Temp\ccg4pOSx.s 			page 29


 616:C:\Micrium\Software\uCOS-III\Source\os_mutex.c ****    *p_err = OS_ERR_NONE;
 978              		.loc 1 616 0
 979 00f2 7B68     		ldr	r3, [r7, #4]
 980 00f4 4FF00002 		mov	r2, #0
 981 00f8 1A80     		strh	r2, [r3, #0]	@ movhi
 617:C:\Micrium\Software\uCOS-III\Source\os_mutex.c ****     return (nbr_tasks);
 982              		.loc 1 617 0
 983 00fa 7B8C     		ldrh	r3, [r7, #34]
 984              	.L61:
 618:C:\Micrium\Software\uCOS-III\Source\os_mutex.c **** }
 985              		.loc 1 618 0
 986 00fc 1846     		mov	r0, r3
 987 00fe 07F12807 		add	r7, r7, #40
 988 0102 BD46     		mov	sp, r7
 989 0104 80BD     		pop	{r7, pc}
 990              		.cfi_endproc
 991              	.LFE3:
 992              		.size	OSMutexPendAbort, .-OSMutexPendAbort
 993 0106 00BF     		.section	.text.OSMutexPost,"ax",%progbits
 994              		.align	2
 995              		.global	OSMutexPost
 996              		.thumb
 997              		.thumb_func
 998              		.type	OSMutexPost, %function
 999              	OSMutexPost:
 1000              	.LFB4:
 619:C:\Micrium\Software\uCOS-III\Source\os_mutex.c **** #endif
 620:C:\Micrium\Software\uCOS-III\Source\os_mutex.c **** 
 621:C:\Micrium\Software\uCOS-III\Source\os_mutex.c **** /*$PAGE*/
 622:C:\Micrium\Software\uCOS-III\Source\os_mutex.c **** /*
 623:C:\Micrium\Software\uCOS-III\Source\os_mutex.c **** ***************************************************************************************************
 624:C:\Micrium\Software\uCOS-III\Source\os_mutex.c **** *                                                   POST TO A MUTEX
 625:C:\Micrium\Software\uCOS-III\Source\os_mutex.c **** *
 626:C:\Micrium\Software\uCOS-III\Source\os_mutex.c **** * Description: This function signals a mutex
 627:C:\Micrium\Software\uCOS-III\Source\os_mutex.c **** *
 628:C:\Micrium\Software\uCOS-III\Source\os_mutex.c **** * Arguments  : p_mutex  is a pointer to the mutex
 629:C:\Micrium\Software\uCOS-III\Source\os_mutex.c **** *
 630:C:\Micrium\Software\uCOS-III\Source\os_mutex.c **** *              opt      is an option you can specify to alter the behavior of the post.  The choice
 631:C:\Micrium\Software\uCOS-III\Source\os_mutex.c **** *
 632:C:\Micrium\Software\uCOS-III\Source\os_mutex.c **** *                           OS_OPT_POST_NONE        No special option selected
 633:C:\Micrium\Software\uCOS-III\Source\os_mutex.c **** *                           OS_OPT_POST_NO_SCHED    If you don't want the scheduler to be called af
 634:C:\Micrium\Software\uCOS-III\Source\os_mutex.c **** *
 635:C:\Micrium\Software\uCOS-III\Source\os_mutex.c **** *              p_err    is a pointer to a variable that will contain an error code returned by this
 636:C:\Micrium\Software\uCOS-III\Source\os_mutex.c **** *
 637:C:\Micrium\Software\uCOS-III\Source\os_mutex.c **** *                           OS_ERR_NONE             The call was successful and the mutex was signa
 638:C:\Micrium\Software\uCOS-III\Source\os_mutex.c **** *                           OS_ERR_MUTEX_NESTING    Mutex owner nested its use of the mutex
 639:C:\Micrium\Software\uCOS-III\Source\os_mutex.c **** *                           OS_ERR_MUTEX_NOT_OWNER  If the task posting is not the Mutex owner
 640:C:\Micrium\Software\uCOS-III\Source\os_mutex.c **** *                           OS_ERR_OBJ_PTR_NULL     If 'p_mutex' is a NULL pointer.
 641:C:\Micrium\Software\uCOS-III\Source\os_mutex.c **** *                           OS_ERR_OBJ_TYPE         If 'p_mutex' is not pointing at a mutex
 642:C:\Micrium\Software\uCOS-III\Source\os_mutex.c **** *                           OS_ERR_POST_ISR         If you attempted to post from an ISR
 643:C:\Micrium\Software\uCOS-III\Source\os_mutex.c **** *
 644:C:\Micrium\Software\uCOS-III\Source\os_mutex.c **** * Returns    : none
 645:C:\Micrium\Software\uCOS-III\Source\os_mutex.c **** ***************************************************************************************************
 646:C:\Micrium\Software\uCOS-III\Source\os_mutex.c **** */
 647:C:\Micrium\Software\uCOS-III\Source\os_mutex.c **** 
 648:C:\Micrium\Software\uCOS-III\Source\os_mutex.c **** void  OSMutexPost (OS_MUTEX  *p_mutex,
 649:C:\Micrium\Software\uCOS-III\Source\os_mutex.c ****                    OS_OPT     opt,
ARM GAS  C:\Users\daniel01\AppData\Local\Temp\ccg4pOSx.s 			page 30


 650:C:\Micrium\Software\uCOS-III\Source\os_mutex.c ****                    OS_ERR    *p_err)
 651:C:\Micrium\Software\uCOS-III\Source\os_mutex.c **** {
 1001              		.loc 1 651 0
 1002              		.cfi_startproc
 1003              		@ args = 0, pretend = 0, frame = 32
 1004              		@ frame_needed = 1, uses_anonymous_args = 0
 1005 0000 80B5     		push	{r7, lr}
 1006              	.LCFI12:
 1007              		.cfi_def_cfa_offset 8
 1008 0002 8AB0     		sub	sp, sp, #40
 1009              	.LCFI13:
 1010              		.cfi_def_cfa_offset 48
 1011 0004 02AF     		add	r7, sp, #8
 1012              		.cfi_offset 14, -4
 1013              		.cfi_offset 7, -8
 1014              	.LCFI14:
 1015              		.cfi_def_cfa 7, 40
 1016 0006 F860     		str	r0, [r7, #12]
 1017 0008 0B46     		mov	r3, r1
 1018 000a 7A60     		str	r2, [r7, #4]
 1019 000c 7B81     		strh	r3, [r7, #10]	@ movhi
 652:C:\Micrium\Software\uCOS-III\Source\os_mutex.c ****     OS_PEND_LIST  *p_pend_list;
 653:C:\Micrium\Software\uCOS-III\Source\os_mutex.c ****     OS_TCB        *p_tcb;
 654:C:\Micrium\Software\uCOS-III\Source\os_mutex.c ****     CPU_TS         ts;
 655:C:\Micrium\Software\uCOS-III\Source\os_mutex.c ****     CPU_SR_ALLOC();
 1020              		.loc 1 655 0
 1021 000e 4FF00003 		mov	r3, #0
 1022 0012 FB61     		str	r3, [r7, #28]
 656:C:\Micrium\Software\uCOS-III\Source\os_mutex.c **** 
 657:C:\Micrium\Software\uCOS-III\Source\os_mutex.c **** 
 658:C:\Micrium\Software\uCOS-III\Source\os_mutex.c **** 
 659:C:\Micrium\Software\uCOS-III\Source\os_mutex.c **** #ifdef OS_SAFETY_CRITICAL
 660:C:\Micrium\Software\uCOS-III\Source\os_mutex.c ****     if (p_err == (OS_ERR *)0) {
 661:C:\Micrium\Software\uCOS-III\Source\os_mutex.c ****         OS_SAFETY_CRITICAL_EXCEPTION();
 662:C:\Micrium\Software\uCOS-III\Source\os_mutex.c ****         return;
 663:C:\Micrium\Software\uCOS-III\Source\os_mutex.c ****     }
 664:C:\Micrium\Software\uCOS-III\Source\os_mutex.c **** #endif
 665:C:\Micrium\Software\uCOS-III\Source\os_mutex.c **** 
 666:C:\Micrium\Software\uCOS-III\Source\os_mutex.c **** #if OS_CFG_CALLED_FROM_ISR_CHK_EN > 0u
 667:C:\Micrium\Software\uCOS-III\Source\os_mutex.c ****     if (OSIntNestingCtr > (OS_NESTING_CTR)0) {              /* Not allowed to call from an ISR     
 1023              		.loc 1 667 0
 1024 0014 40F20003 		movw	r3, #:lower16:OSIntNestingCtr
 1025 0018 C0F20003 		movt	r3, #:upper16:OSIntNestingCtr
 1026 001c 1B78     		ldrb	r3, [r3, #0]	@ zero_extendqisi2
 1027 001e 002B     		cmp	r3, #0
 1028 0020 04D0     		beq	.L76
 668:C:\Micrium\Software\uCOS-III\Source\os_mutex.c ****        *p_err = OS_ERR_POST_ISR;
 1029              		.loc 1 668 0
 1030 0022 7B68     		ldr	r3, [r7, #4]
 1031 0024 46F20E22 		movw	r2, #25102
 1032 0028 1A80     		strh	r2, [r3, #0]	@ movhi
 669:C:\Micrium\Software\uCOS-III\Source\os_mutex.c ****         return;
 1033              		.loc 1 669 0
 1034 002a C4E0     		b	.L87
 1035              	.L76:
 670:C:\Micrium\Software\uCOS-III\Source\os_mutex.c ****     }
 671:C:\Micrium\Software\uCOS-III\Source\os_mutex.c **** #endif
ARM GAS  C:\Users\daniel01\AppData\Local\Temp\ccg4pOSx.s 			page 31


 672:C:\Micrium\Software\uCOS-III\Source\os_mutex.c **** 
 673:C:\Micrium\Software\uCOS-III\Source\os_mutex.c **** #if OS_CFG_ARG_CHK_EN > 0u
 674:C:\Micrium\Software\uCOS-III\Source\os_mutex.c ****     if (p_mutex == (OS_MUTEX *)0) {                         /* Validate 'p_mutex'                  
 1036              		.loc 1 674 0
 1037 002c FB68     		ldr	r3, [r7, #12]
 1038 002e 002B     		cmp	r3, #0
 1039 0030 04D1     		bne	.L78
 675:C:\Micrium\Software\uCOS-III\Source\os_mutex.c ****        *p_err = OS_ERR_OBJ_PTR_NULL;
 1040              		.loc 1 675 0
 1041 0032 7B68     		ldr	r3, [r7, #4]
 1042 0034 45F6C352 		movw	r2, #24003
 1043 0038 1A80     		strh	r2, [r3, #0]	@ movhi
 676:C:\Micrium\Software\uCOS-III\Source\os_mutex.c ****         return;
 1044              		.loc 1 676 0
 1045 003a BCE0     		b	.L87
 1046              	.L78:
 677:C:\Micrium\Software\uCOS-III\Source\os_mutex.c ****     }
 678:C:\Micrium\Software\uCOS-III\Source\os_mutex.c ****     switch (opt) {                                          /* Validate 'opt'                      
 1047              		.loc 1 678 0
 1048 003c 7B89     		ldrh	r3, [r7, #10]
 1049 003e 002B     		cmp	r3, #0
 1050 0040 02D0     		beq	.L80
 1051 0042 B3F5004F 		cmp	r3, #32768
 1052 0046 0DD1     		bne	.L88
 1053              	.L80:
 679:C:\Micrium\Software\uCOS-III\Source\os_mutex.c ****         case OS_OPT_POST_NONE:
 680:C:\Micrium\Software\uCOS-III\Source\os_mutex.c ****         case OS_OPT_POST_NO_SCHED:
 681:C:\Micrium\Software\uCOS-III\Source\os_mutex.c ****              break;
 682:C:\Micrium\Software\uCOS-III\Source\os_mutex.c **** 
 683:C:\Micrium\Software\uCOS-III\Source\os_mutex.c ****         default:
 684:C:\Micrium\Software\uCOS-III\Source\os_mutex.c ****             *p_err =  OS_ERR_OPT_INVALID;
 685:C:\Micrium\Software\uCOS-III\Source\os_mutex.c ****              return;
 686:C:\Micrium\Software\uCOS-III\Source\os_mutex.c ****     }
 687:C:\Micrium\Software\uCOS-III\Source\os_mutex.c **** #endif
 688:C:\Micrium\Software\uCOS-III\Source\os_mutex.c **** 
 689:C:\Micrium\Software\uCOS-III\Source\os_mutex.c **** #if OS_CFG_OBJ_TYPE_CHK_EN > 0u
 690:C:\Micrium\Software\uCOS-III\Source\os_mutex.c ****     if (p_mutex->Type != OS_OBJ_TYPE_MUTEX) {               /* Make sure mutex was created         
 691:C:\Micrium\Software\uCOS-III\Source\os_mutex.c ****        *p_err = OS_ERR_OBJ_TYPE;
 692:C:\Micrium\Software\uCOS-III\Source\os_mutex.c ****         return;
 693:C:\Micrium\Software\uCOS-III\Source\os_mutex.c ****     }
 694:C:\Micrium\Software\uCOS-III\Source\os_mutex.c **** #endif
 695:C:\Micrium\Software\uCOS-III\Source\os_mutex.c **** 
 696:C:\Micrium\Software\uCOS-III\Source\os_mutex.c ****     CPU_CRITICAL_ENTER();
 1054              		.loc 1 696 0
 1055 0048 FFF7FEFF 		bl	CPU_SR_Save
 1056 004c 0346     		mov	r3, r0
 1057 004e FB61     		str	r3, [r7, #28]
 697:C:\Micrium\Software\uCOS-III\Source\os_mutex.c ****     if (OSTCBCurPtr != p_mutex->OwnerTCBPtr) {              /* Make sure the mutex owner is releasi
 1058              		.loc 1 697 0
 1059 0050 FB68     		ldr	r3, [r7, #12]
 1060 0052 1A6A     		ldr	r2, [r3, #32]
 1061 0054 40F20003 		movw	r3, #:lower16:OSTCBCurPtr
 1062 0058 C0F20003 		movt	r3, #:upper16:OSTCBCurPtr
 1063 005c 1B68     		ldr	r3, [r3, #0]
 1064 005e 9A42     		cmp	r2, r3
 1065 0060 05D1     		bne	.L81
 1066 0062 0CE0     		b	.L89
ARM GAS  C:\Users\daniel01\AppData\Local\Temp\ccg4pOSx.s 			page 32


 1067              	.L88:
 1068              		.loc 1 684 0
 1069 0064 7B68     		ldr	r3, [r7, #4]
 1070 0066 45F62562 		movw	r2, #24101
 1071 006a 1A80     		strh	r2, [r3, #0]	@ movhi
 1072              		.loc 1 685 0
 1073 006c A3E0     		b	.L87
 1074              	.L81:
 698:C:\Micrium\Software\uCOS-III\Source\os_mutex.c ****         CPU_CRITICAL_EXIT();
 1075              		.loc 1 698 0
 1076 006e F869     		ldr	r0, [r7, #28]
 1077 0070 FFF7FEFF 		bl	CPU_SR_Restore
 699:C:\Micrium\Software\uCOS-III\Source\os_mutex.c ****        *p_err = OS_ERR_MUTEX_NOT_OWNER;
 1078              		.loc 1 699 0
 1079 0074 7B68     		ldr	r3, [r7, #4]
 1080 0076 45F28172 		movw	r2, #22401
 1081 007a 1A80     		strh	r2, [r3, #0]	@ movhi
 700:C:\Micrium\Software\uCOS-III\Source\os_mutex.c ****         return;
 1082              		.loc 1 700 0
 1083 007c 9BE0     		b	.L87
 1084              	.L89:
 701:C:\Micrium\Software\uCOS-III\Source\os_mutex.c ****     }
 702:C:\Micrium\Software\uCOS-III\Source\os_mutex.c **** 
 703:C:\Micrium\Software\uCOS-III\Source\os_mutex.c ****     OS_CRITICAL_ENTER_CPU_EXIT();
 704:C:\Micrium\Software\uCOS-III\Source\os_mutex.c ****     ts          = OS_TS_GET();                              /* Get timestamp                       
 1085              		.loc 1 704 0
 1086 007e FFF7FEFF 		bl	CPU_TS_TmrRd
 1087 0082 0346     		mov	r3, r0
 1088 0084 BB61     		str	r3, [r7, #24]
 705:C:\Micrium\Software\uCOS-III\Source\os_mutex.c ****     p_mutex->TS = ts;
 1089              		.loc 1 705 0
 1090 0086 FB68     		ldr	r3, [r7, #12]
 1091 0088 BA69     		ldr	r2, [r7, #24]
 1092 008a 9A62     		str	r2, [r3, #40]
 706:C:\Micrium\Software\uCOS-III\Source\os_mutex.c ****     p_mutex->OwnerNestingCtr--;                             /* Decrement owner's nesting counter   
 1093              		.loc 1 706 0
 1094 008c FB68     		ldr	r3, [r7, #12]
 1095 008e 93F82530 		ldrb	r3, [r3, #37]	@ zero_extendqisi2
 1096 0092 03F1FF33 		add	r3, r3, #-1
 1097 0096 DAB2     		uxtb	r2, r3
 1098 0098 FB68     		ldr	r3, [r7, #12]
 1099 009a 83F82520 		strb	r2, [r3, #37]
 707:C:\Micrium\Software\uCOS-III\Source\os_mutex.c ****     if (p_mutex->OwnerNestingCtr > (OS_NESTING_CTR)0) {     /* Are we done with all nestings?      
 1100              		.loc 1 707 0
 1101 009e FB68     		ldr	r3, [r7, #12]
 1102 00a0 93F82530 		ldrb	r3, [r3, #37]	@ zero_extendqisi2
 1103 00a4 002B     		cmp	r3, #0
 1104 00a6 07D0     		beq	.L83
 708:C:\Micrium\Software\uCOS-III\Source\os_mutex.c ****         OS_CRITICAL_EXIT();                                 /* No                                  
 1105              		.loc 1 708 0
 1106 00a8 F869     		ldr	r0, [r7, #28]
 1107 00aa FFF7FEFF 		bl	CPU_SR_Restore
 709:C:\Micrium\Software\uCOS-III\Source\os_mutex.c ****        *p_err = OS_ERR_MUTEX_NESTING;
 1108              		.loc 1 709 0
 1109 00ae 7B68     		ldr	r3, [r7, #4]
 1110 00b0 45F28372 		movw	r2, #22403
 1111 00b4 1A80     		strh	r2, [r3, #0]	@ movhi
ARM GAS  C:\Users\daniel01\AppData\Local\Temp\ccg4pOSx.s 			page 33


 710:C:\Micrium\Software\uCOS-III\Source\os_mutex.c ****         return;
 1112              		.loc 1 710 0
 1113 00b6 7EE0     		b	.L87
 1114              	.L83:
 711:C:\Micrium\Software\uCOS-III\Source\os_mutex.c ****     }
 712:C:\Micrium\Software\uCOS-III\Source\os_mutex.c **** 
 713:C:\Micrium\Software\uCOS-III\Source\os_mutex.c ****     p_pend_list = &p_mutex->PendList;
 1115              		.loc 1 713 0
 1116 00b8 FB68     		ldr	r3, [r7, #12]
 1117 00ba 03F10803 		add	r3, r3, #8
 1118 00be 3B61     		str	r3, [r7, #16]
 714:C:\Micrium\Software\uCOS-III\Source\os_mutex.c ****     if (p_pend_list->NbrEntries == (OS_OBJ_QTY)0) {         /* Any task waiting on mutex?          
 1119              		.loc 1 714 0
 1120 00c0 3B69     		ldr	r3, [r7, #16]
 1121 00c2 1B89     		ldrh	r3, [r3, #8]
 1122 00c4 002B     		cmp	r3, #0
 1123 00c6 10D1     		bne	.L84
 715:C:\Micrium\Software\uCOS-III\Source\os_mutex.c ****         p_mutex->OwnerTCBPtr     = (OS_TCB       *)0;       /* No                                  
 1124              		.loc 1 715 0
 1125 00c8 FB68     		ldr	r3, [r7, #12]
 1126 00ca 4FF00002 		mov	r2, #0
 1127 00ce 1A62     		str	r2, [r3, #32]
 716:C:\Micrium\Software\uCOS-III\Source\os_mutex.c ****         p_mutex->OwnerNestingCtr = (OS_NESTING_CTR)0;
 1128              		.loc 1 716 0
 1129 00d0 FB68     		ldr	r3, [r7, #12]
 1130 00d2 4FF00002 		mov	r2, #0
 1131 00d6 83F82520 		strb	r2, [r3, #37]
 717:C:\Micrium\Software\uCOS-III\Source\os_mutex.c ****         OS_CRITICAL_EXIT();
 1132              		.loc 1 717 0
 1133 00da F869     		ldr	r0, [r7, #28]
 1134 00dc FFF7FEFF 		bl	CPU_SR_Restore
 718:C:\Micrium\Software\uCOS-III\Source\os_mutex.c ****        *p_err = OS_ERR_NONE;
 1135              		.loc 1 718 0
 1136 00e0 7B68     		ldr	r3, [r7, #4]
 1137 00e2 4FF00002 		mov	r2, #0
 1138 00e6 1A80     		strh	r2, [r3, #0]	@ movhi
 719:C:\Micrium\Software\uCOS-III\Source\os_mutex.c ****         return;
 1139              		.loc 1 719 0
 1140 00e8 65E0     		b	.L87
 1141              	.L84:
 720:C:\Micrium\Software\uCOS-III\Source\os_mutex.c ****     }
 721:C:\Micrium\Software\uCOS-III\Source\os_mutex.c ****                                                             /* Yes                                 
 722:C:\Micrium\Software\uCOS-III\Source\os_mutex.c ****     if (OSTCBCurPtr->Prio != p_mutex->OwnerOriginalPrio) {
 1142              		.loc 1 722 0
 1143 00ea 40F20003 		movw	r3, #:lower16:OSTCBCurPtr
 1144 00ee C0F20003 		movt	r3, #:upper16:OSTCBCurPtr
 1145 00f2 1B68     		ldr	r3, [r3, #0]
 1146 00f4 93F83720 		ldrb	r2, [r3, #55]	@ zero_extendqisi2
 1147 00f8 FB68     		ldr	r3, [r7, #12]
 1148 00fa 93F82430 		ldrb	r3, [r3, #36]	@ zero_extendqisi2
 1149 00fe 9A42     		cmp	r2, r3
 1150 0100 2FD0     		beq	.L85
 723:C:\Micrium\Software\uCOS-III\Source\os_mutex.c ****         OS_RdyListRemove(OSTCBCurPtr);
 1151              		.loc 1 723 0
 1152 0102 40F20003 		movw	r3, #:lower16:OSTCBCurPtr
 1153 0106 C0F20003 		movt	r3, #:upper16:OSTCBCurPtr
 1154 010a 1B68     		ldr	r3, [r3, #0]
ARM GAS  C:\Users\daniel01\AppData\Local\Temp\ccg4pOSx.s 			page 34


 1155 010c 1846     		mov	r0, r3
 1156 010e FFF7FEFF 		bl	OS_RdyListRemove
 724:C:\Micrium\Software\uCOS-III\Source\os_mutex.c ****         OSTCBCurPtr->Prio = p_mutex->OwnerOriginalPrio;     /* Lower owner's priority back to its o
 1157              		.loc 1 724 0
 1158 0112 40F20003 		movw	r3, #:lower16:OSTCBCurPtr
 1159 0116 C0F20003 		movt	r3, #:upper16:OSTCBCurPtr
 1160 011a 1B68     		ldr	r3, [r3, #0]
 1161 011c FA68     		ldr	r2, [r7, #12]
 1162 011e 92F82420 		ldrb	r2, [r2, #36]	@ zero_extendqisi2
 1163 0122 83F83720 		strb	r2, [r3, #55]
 725:C:\Micrium\Software\uCOS-III\Source\os_mutex.c ****         OS_PrioInsert(OSTCBCurPtr->Prio);
 1164              		.loc 1 725 0
 1165 0126 40F20003 		movw	r3, #:lower16:OSTCBCurPtr
 1166 012a C0F20003 		movt	r3, #:upper16:OSTCBCurPtr
 1167 012e 1B68     		ldr	r3, [r3, #0]
 1168 0130 93F83730 		ldrb	r3, [r3, #55]	@ zero_extendqisi2
 1169 0134 1846     		mov	r0, r3
 1170 0136 FFF7FEFF 		bl	OS_PrioInsert
 726:C:\Micrium\Software\uCOS-III\Source\os_mutex.c ****         OS_RdyListInsertTail(OSTCBCurPtr);                  /* Insert owner in ready list at new pr
 1171              		.loc 1 726 0
 1172 013a 40F20003 		movw	r3, #:lower16:OSTCBCurPtr
 1173 013e C0F20003 		movt	r3, #:upper16:OSTCBCurPtr
 1174 0142 1B68     		ldr	r3, [r3, #0]
 1175 0144 1846     		mov	r0, r3
 1176 0146 FFF7FEFF 		bl	OS_RdyListInsertTail
 727:C:\Micrium\Software\uCOS-III\Source\os_mutex.c ****         OSPrioCur         = OSTCBCurPtr->Prio;
 1177              		.loc 1 727 0
 1178 014a 40F20003 		movw	r3, #:lower16:OSTCBCurPtr
 1179 014e C0F20003 		movt	r3, #:upper16:OSTCBCurPtr
 1180 0152 1B68     		ldr	r3, [r3, #0]
 1181 0154 93F83720 		ldrb	r2, [r3, #55]	@ zero_extendqisi2
 1182 0158 40F20003 		movw	r3, #:lower16:OSPrioCur
 1183 015c C0F20003 		movt	r3, #:upper16:OSPrioCur
 1184 0160 1A70     		strb	r2, [r3, #0]
 1185              	.L85:
 728:C:\Micrium\Software\uCOS-III\Source\os_mutex.c ****     }
 729:C:\Micrium\Software\uCOS-III\Source\os_mutex.c ****                                                             /* Get TCB from head of pend list      
 730:C:\Micrium\Software\uCOS-III\Source\os_mutex.c ****     p_tcb                      = p_pend_list->HeadPtr->TCBPtr;
 1186              		.loc 1 730 0
 1187 0162 3B69     		ldr	r3, [r7, #16]
 1188 0164 1B68     		ldr	r3, [r3, #0]
 1189 0166 9B68     		ldr	r3, [r3, #8]
 1190 0168 7B61     		str	r3, [r7, #20]
 731:C:\Micrium\Software\uCOS-III\Source\os_mutex.c ****     p_mutex->OwnerTCBPtr       = p_tcb;                     /* Give mutex to new owner             
 1191              		.loc 1 731 0
 1192 016a FB68     		ldr	r3, [r7, #12]
 1193 016c 7A69     		ldr	r2, [r7, #20]
 1194 016e 1A62     		str	r2, [r3, #32]
 732:C:\Micrium\Software\uCOS-III\Source\os_mutex.c ****     p_mutex->OwnerOriginalPrio = p_tcb->Prio;
 1195              		.loc 1 732 0
 1196 0170 7B69     		ldr	r3, [r7, #20]
 1197 0172 93F83720 		ldrb	r2, [r3, #55]	@ zero_extendqisi2
 1198 0176 FB68     		ldr	r3, [r7, #12]
 1199 0178 83F82420 		strb	r2, [r3, #36]
 733:C:\Micrium\Software\uCOS-III\Source\os_mutex.c ****     p_mutex->OwnerNestingCtr   = (OS_NESTING_CTR)1;
 1200              		.loc 1 733 0
 1201 017c FB68     		ldr	r3, [r7, #12]
ARM GAS  C:\Users\daniel01\AppData\Local\Temp\ccg4pOSx.s 			page 35


 1202 017e 4FF00102 		mov	r2, #1
 1203 0182 83F82520 		strb	r2, [r3, #37]
 734:C:\Micrium\Software\uCOS-III\Source\os_mutex.c ****                                                             /* Post to mutex                       
 735:C:\Micrium\Software\uCOS-III\Source\os_mutex.c ****     OS_Post((OS_PEND_OBJ *)((void *)p_mutex),
 1204              		.loc 1 735 0
 1205 0186 FB68     		ldr	r3, [r7, #12]
 1206 0188 BA69     		ldr	r2, [r7, #24]
 1207 018a 0092     		str	r2, [sp, #0]
 1208 018c 1846     		mov	r0, r3
 1209 018e 7969     		ldr	r1, [r7, #20]
 1210 0190 4FF00002 		mov	r2, #0
 1211 0194 4FF00003 		mov	r3, #0
 1212 0198 FFF7FEFF 		bl	OS_Post
 736:C:\Micrium\Software\uCOS-III\Source\os_mutex.c ****             (OS_TCB      *)p_tcb,
 737:C:\Micrium\Software\uCOS-III\Source\os_mutex.c ****             (void        *)0,
 738:C:\Micrium\Software\uCOS-III\Source\os_mutex.c ****             (OS_MSG_SIZE  )0,
 739:C:\Micrium\Software\uCOS-III\Source\os_mutex.c ****             (CPU_TS       )ts);
 740:C:\Micrium\Software\uCOS-III\Source\os_mutex.c **** 
 741:C:\Micrium\Software\uCOS-III\Source\os_mutex.c ****     OS_CRITICAL_EXIT_NO_SCHED();
 1213              		.loc 1 741 0
 1214 019c F869     		ldr	r0, [r7, #28]
 1215 019e FFF7FEFF 		bl	CPU_SR_Restore
 742:C:\Micrium\Software\uCOS-III\Source\os_mutex.c **** 
 743:C:\Micrium\Software\uCOS-III\Source\os_mutex.c ****     if ((opt & OS_OPT_POST_NO_SCHED) == (OS_OPT)0) {
 1216              		.loc 1 743 0
 1217 01a2 7B89     		ldrh	r3, [r7, #10]
 1218 01a4 1BB2     		sxth	r3, r3
 1219 01a6 002B     		cmp	r3, #0
 1220 01a8 01DB     		blt	.L86
 744:C:\Micrium\Software\uCOS-III\Source\os_mutex.c ****         OSSched();                                          /* Run the scheduler                   
 1221              		.loc 1 744 0
 1222 01aa FFF7FEFF 		bl	OSSched
 1223              	.L86:
 745:C:\Micrium\Software\uCOS-III\Source\os_mutex.c ****     }
 746:C:\Micrium\Software\uCOS-III\Source\os_mutex.c **** 
 747:C:\Micrium\Software\uCOS-III\Source\os_mutex.c ****    *p_err = OS_ERR_NONE;
 1224              		.loc 1 747 0
 1225 01ae 7B68     		ldr	r3, [r7, #4]
 1226 01b0 4FF00002 		mov	r2, #0
 1227 01b4 1A80     		strh	r2, [r3, #0]	@ movhi
 1228              	.L87:
 748:C:\Micrium\Software\uCOS-III\Source\os_mutex.c **** }
 1229              		.loc 1 748 0
 1230 01b6 07F12007 		add	r7, r7, #32
 1231 01ba BD46     		mov	sp, r7
 1232 01bc 80BD     		pop	{r7, pc}
 1233              		.cfi_endproc
 1234              	.LFE4:
 1235              		.size	OSMutexPost, .-OSMutexPost
 1236 01be 00BF     		.section	.rodata
 1237              		.align	2
 1238              	.LC0:
 1239 0000 3F4D5554 		.ascii	"?MUTEX\000"
 1239      455800
 1240              		.section	.text.OS_MutexClr,"ax",%progbits
 1241              		.align	2
 1242              		.global	OS_MutexClr
ARM GAS  C:\Users\daniel01\AppData\Local\Temp\ccg4pOSx.s 			page 36


 1243              		.thumb
 1244              		.thumb_func
 1245              		.type	OS_MutexClr, %function
 1246              	OS_MutexClr:
 1247              	.LFB5:
 749:C:\Micrium\Software\uCOS-III\Source\os_mutex.c **** 
 750:C:\Micrium\Software\uCOS-III\Source\os_mutex.c **** /*$PAGE*/
 751:C:\Micrium\Software\uCOS-III\Source\os_mutex.c **** /*
 752:C:\Micrium\Software\uCOS-III\Source\os_mutex.c **** ***************************************************************************************************
 753:C:\Micrium\Software\uCOS-III\Source\os_mutex.c **** *                                            CLEAR THE CONTENTS OF A MUTEX
 754:C:\Micrium\Software\uCOS-III\Source\os_mutex.c **** *
 755:C:\Micrium\Software\uCOS-III\Source\os_mutex.c **** * Description: This function is called by OSMutexDel() to clear the contents of a mutex
 756:C:\Micrium\Software\uCOS-III\Source\os_mutex.c **** *
 757:C:\Micrium\Software\uCOS-III\Source\os_mutex.c **** 
 758:C:\Micrium\Software\uCOS-III\Source\os_mutex.c **** * Argument(s): p_mutex      is a pointer to the mutex to clear
 759:C:\Micrium\Software\uCOS-III\Source\os_mutex.c **** *              -------
 760:C:\Micrium\Software\uCOS-III\Source\os_mutex.c **** *
 761:C:\Micrium\Software\uCOS-III\Source\os_mutex.c **** * Returns    : none
 762:C:\Micrium\Software\uCOS-III\Source\os_mutex.c **** *
 763:C:\Micrium\Software\uCOS-III\Source\os_mutex.c **** * Note(s)    : This function is INTERNAL to uC/OS-III and your application should not call it.
 764:C:\Micrium\Software\uCOS-III\Source\os_mutex.c **** ***************************************************************************************************
 765:C:\Micrium\Software\uCOS-III\Source\os_mutex.c **** */
 766:C:\Micrium\Software\uCOS-III\Source\os_mutex.c **** 
 767:C:\Micrium\Software\uCOS-III\Source\os_mutex.c **** void  OS_MutexClr (OS_MUTEX  *p_mutex)
 768:C:\Micrium\Software\uCOS-III\Source\os_mutex.c **** {
 1248              		.loc 1 768 0
 1249              		.cfi_startproc
 1250              		@ args = 0, pretend = 0, frame = 8
 1251              		@ frame_needed = 1, uses_anonymous_args = 0
 1252 0000 80B5     		push	{r7, lr}
 1253              	.LCFI15:
 1254              		.cfi_def_cfa_offset 8
 1255 0002 82B0     		sub	sp, sp, #8
 1256              	.LCFI16:
 1257              		.cfi_def_cfa_offset 16
 1258 0004 00AF     		add	r7, sp, #0
 1259              		.cfi_offset 14, -4
 1260              		.cfi_offset 7, -8
 1261              	.LCFI17:
 1262              		.cfi_def_cfa_register 7
 1263 0006 7860     		str	r0, [r7, #4]
 769:C:\Micrium\Software\uCOS-III\Source\os_mutex.c ****     p_mutex->Type              =  OS_OBJ_TYPE_NONE;         /* Mark the data structure as a NONE   
 1264              		.loc 1 769 0
 1265 0008 7A68     		ldr	r2, [r7, #4]
 1266 000a 44F64E73 		movw	r3, #:lower16:1162760014
 1267 000e C4F24E53 		movt	r3, #:upper16:1162760014
 1268 0012 1360     		str	r3, [r2, #0]
 770:C:\Micrium\Software\uCOS-III\Source\os_mutex.c ****     p_mutex->NamePtr           = (CPU_CHAR     *)((void *)"?MUTEX");
 1269              		.loc 1 770 0
 1270 0014 7A68     		ldr	r2, [r7, #4]
 1271 0016 40F20003 		movw	r3, #:lower16:.LC0
 1272 001a C0F20003 		movt	r3, #:upper16:.LC0
 1273 001e 5360     		str	r3, [r2, #4]
 771:C:\Micrium\Software\uCOS-III\Source\os_mutex.c ****     p_mutex->OwnerTCBPtr       = (OS_TCB       *)0;
 1274              		.loc 1 771 0
 1275 0020 7B68     		ldr	r3, [r7, #4]
 1276 0022 4FF00002 		mov	r2, #0
ARM GAS  C:\Users\daniel01\AppData\Local\Temp\ccg4pOSx.s 			page 37


 1277 0026 1A62     		str	r2, [r3, #32]
 772:C:\Micrium\Software\uCOS-III\Source\os_mutex.c ****     p_mutex->OwnerNestingCtr   = (OS_NESTING_CTR)0;
 1278              		.loc 1 772 0
 1279 0028 7B68     		ldr	r3, [r7, #4]
 1280 002a 4FF00002 		mov	r2, #0
 1281 002e 83F82520 		strb	r2, [r3, #37]
 773:C:\Micrium\Software\uCOS-III\Source\os_mutex.c ****     p_mutex->TS                = (CPU_TS        )0;
 1282              		.loc 1 773 0
 1283 0032 7B68     		ldr	r3, [r7, #4]
 1284 0034 4FF00002 		mov	r2, #0
 1285 0038 9A62     		str	r2, [r3, #40]
 774:C:\Micrium\Software\uCOS-III\Source\os_mutex.c ****     p_mutex->OwnerOriginalPrio =  OS_CFG_PRIO_MAX;
 1286              		.loc 1 774 0
 1287 003a 7B68     		ldr	r3, [r7, #4]
 1288 003c 4FF00802 		mov	r2, #8
 1289 0040 83F82420 		strb	r2, [r3, #36]
 775:C:\Micrium\Software\uCOS-III\Source\os_mutex.c ****     OS_PendListInit(&p_mutex->PendList);                    /* Initialize the waiting list         
 1290              		.loc 1 775 0
 1291 0044 7B68     		ldr	r3, [r7, #4]
 1292 0046 03F10803 		add	r3, r3, #8
 1293 004a 1846     		mov	r0, r3
 1294 004c FFF7FEFF 		bl	OS_PendListInit
 776:C:\Micrium\Software\uCOS-III\Source\os_mutex.c **** }
 1295              		.loc 1 776 0
 1296 0050 07F10807 		add	r7, r7, #8
 1297 0054 BD46     		mov	sp, r7
 1298 0056 80BD     		pop	{r7, pc}
 1299              		.cfi_endproc
 1300              	.LFE5:
 1301              		.size	OS_MutexClr, .-OS_MutexClr
 1302              		.section	.rodata
 1303 0007 00       		.align	2
 1304              	.LC1:
 1305 0008 2000     		.ascii	" \000"
 1306 000a 0000     		.section	.text.OS_MutexDbgListAdd,"ax",%progbits
 1307              		.align	2
 1308              		.global	OS_MutexDbgListAdd
 1309              		.thumb
 1310              		.thumb_func
 1311              		.type	OS_MutexDbgListAdd, %function
 1312              	OS_MutexDbgListAdd:
 1313              	.LFB6:
 777:C:\Micrium\Software\uCOS-III\Source\os_mutex.c **** 
 778:C:\Micrium\Software\uCOS-III\Source\os_mutex.c **** /*$PAGE*/
 779:C:\Micrium\Software\uCOS-III\Source\os_mutex.c **** /*
 780:C:\Micrium\Software\uCOS-III\Source\os_mutex.c **** ***************************************************************************************************
 781:C:\Micrium\Software\uCOS-III\Source\os_mutex.c **** *                                          ADD/REMOVE MUTEX TO/FROM DEBUG LIST
 782:C:\Micrium\Software\uCOS-III\Source\os_mutex.c **** *
 783:C:\Micrium\Software\uCOS-III\Source\os_mutex.c **** * Description: These functions are called by uC/OS-III to add or remove a mutex to/from the debug l
 784:C:\Micrium\Software\uCOS-III\Source\os_mutex.c **** *
 785:C:\Micrium\Software\uCOS-III\Source\os_mutex.c **** * Arguments  : p_mutex     is a pointer to the mutex to add/remove
 786:C:\Micrium\Software\uCOS-III\Source\os_mutex.c **** *
 787:C:\Micrium\Software\uCOS-III\Source\os_mutex.c **** * Returns    : none
 788:C:\Micrium\Software\uCOS-III\Source\os_mutex.c **** *
 789:C:\Micrium\Software\uCOS-III\Source\os_mutex.c **** * Note(s)    : These functions are INTERNAL to uC/OS-III and your application should not call it.
 790:C:\Micrium\Software\uCOS-III\Source\os_mutex.c **** ***************************************************************************************************
 791:C:\Micrium\Software\uCOS-III\Source\os_mutex.c **** */
ARM GAS  C:\Users\daniel01\AppData\Local\Temp\ccg4pOSx.s 			page 38


 792:C:\Micrium\Software\uCOS-III\Source\os_mutex.c **** 
 793:C:\Micrium\Software\uCOS-III\Source\os_mutex.c **** 
 794:C:\Micrium\Software\uCOS-III\Source\os_mutex.c **** #if OS_CFG_DBG_EN > 0u
 795:C:\Micrium\Software\uCOS-III\Source\os_mutex.c **** void  OS_MutexDbgListAdd (OS_MUTEX  *p_mutex)
 796:C:\Micrium\Software\uCOS-III\Source\os_mutex.c **** {
 1314              		.loc 1 796 0
 1315              		.cfi_startproc
 1316              		@ args = 0, pretend = 0, frame = 8
 1317              		@ frame_needed = 1, uses_anonymous_args = 0
 1318              		@ link register save eliminated.
 1319 0000 80B4     		push	{r7}
 1320              	.LCFI18:
 1321              		.cfi_def_cfa_offset 4
 1322 0002 83B0     		sub	sp, sp, #12
 1323              	.LCFI19:
 1324              		.cfi_def_cfa_offset 16
 1325 0004 00AF     		add	r7, sp, #0
 1326              		.cfi_offset 7, -4
 1327              	.LCFI20:
 1328              		.cfi_def_cfa_register 7
 1329 0006 7860     		str	r0, [r7, #4]
 797:C:\Micrium\Software\uCOS-III\Source\os_mutex.c ****     p_mutex->DbgNamePtr               = (CPU_CHAR *)((void *)" ");
 1330              		.loc 1 797 0
 1331 0008 7A68     		ldr	r2, [r7, #4]
 1332 000a 40F20003 		movw	r3, #:lower16:.LC1
 1333 000e C0F20003 		movt	r3, #:upper16:.LC1
 1334 0012 D361     		str	r3, [r2, #28]
 798:C:\Micrium\Software\uCOS-III\Source\os_mutex.c ****     p_mutex->DbgPrevPtr               = (OS_MUTEX *)0;
 1335              		.loc 1 798 0
 1336 0014 7B68     		ldr	r3, [r7, #4]
 1337 0016 4FF00002 		mov	r2, #0
 1338 001a 5A61     		str	r2, [r3, #20]
 799:C:\Micrium\Software\uCOS-III\Source\os_mutex.c ****     if (OSMutexDbgListPtr == (OS_MUTEX *)0) {
 1339              		.loc 1 799 0
 1340 001c 40F20003 		movw	r3, #:lower16:OSMutexDbgListPtr
 1341 0020 C0F20003 		movt	r3, #:upper16:OSMutexDbgListPtr
 1342 0024 1B68     		ldr	r3, [r3, #0]
 1343 0026 002B     		cmp	r3, #0
 1344 0028 04D1     		bne	.L93
 800:C:\Micrium\Software\uCOS-III\Source\os_mutex.c ****         p_mutex->DbgNextPtr           = (OS_MUTEX *)0;
 1345              		.loc 1 800 0
 1346 002a 7B68     		ldr	r3, [r7, #4]
 1347 002c 4FF00002 		mov	r2, #0
 1348 0030 9A61     		str	r2, [r3, #24]
 1349 0032 0DE0     		b	.L94
 1350              	.L93:
 801:C:\Micrium\Software\uCOS-III\Source\os_mutex.c ****     } else {
 802:C:\Micrium\Software\uCOS-III\Source\os_mutex.c ****         p_mutex->DbgNextPtr           =  OSMutexDbgListPtr;
 1351              		.loc 1 802 0
 1352 0034 40F20003 		movw	r3, #:lower16:OSMutexDbgListPtr
 1353 0038 C0F20003 		movt	r3, #:upper16:OSMutexDbgListPtr
 1354 003c 1A68     		ldr	r2, [r3, #0]
 1355 003e 7B68     		ldr	r3, [r7, #4]
 1356 0040 9A61     		str	r2, [r3, #24]
 803:C:\Micrium\Software\uCOS-III\Source\os_mutex.c ****         OSMutexDbgListPtr->DbgPrevPtr =  p_mutex;
 1357              		.loc 1 803 0
 1358 0042 40F20003 		movw	r3, #:lower16:OSMutexDbgListPtr
ARM GAS  C:\Users\daniel01\AppData\Local\Temp\ccg4pOSx.s 			page 39


 1359 0046 C0F20003 		movt	r3, #:upper16:OSMutexDbgListPtr
 1360 004a 1B68     		ldr	r3, [r3, #0]
 1361 004c 7A68     		ldr	r2, [r7, #4]
 1362 004e 5A61     		str	r2, [r3, #20]
 1363              	.L94:
 804:C:\Micrium\Software\uCOS-III\Source\os_mutex.c ****     }
 805:C:\Micrium\Software\uCOS-III\Source\os_mutex.c ****     OSMutexDbgListPtr                 =  p_mutex;
 1364              		.loc 1 805 0
 1365 0050 40F20003 		movw	r3, #:lower16:OSMutexDbgListPtr
 1366 0054 C0F20003 		movt	r3, #:upper16:OSMutexDbgListPtr
 1367 0058 7A68     		ldr	r2, [r7, #4]
 1368 005a 1A60     		str	r2, [r3, #0]
 806:C:\Micrium\Software\uCOS-III\Source\os_mutex.c **** }
 1369              		.loc 1 806 0
 1370 005c 07F10C07 		add	r7, r7, #12
 1371 0060 BD46     		mov	sp, r7
 1372 0062 80BC     		pop	{r7}
 1373 0064 7047     		bx	lr
 1374              		.cfi_endproc
 1375              	.LFE6:
 1376              		.size	OS_MutexDbgListAdd, .-OS_MutexDbgListAdd
 1377 0066 00BF     		.section	.text.OS_MutexDbgListRemove,"ax",%progbits
 1378              		.align	2
 1379              		.global	OS_MutexDbgListRemove
 1380              		.thumb
 1381              		.thumb_func
 1382              		.type	OS_MutexDbgListRemove, %function
 1383              	OS_MutexDbgListRemove:
 1384              	.LFB7:
 807:C:\Micrium\Software\uCOS-III\Source\os_mutex.c **** 
 808:C:\Micrium\Software\uCOS-III\Source\os_mutex.c **** 
 809:C:\Micrium\Software\uCOS-III\Source\os_mutex.c **** 
 810:C:\Micrium\Software\uCOS-III\Source\os_mutex.c **** void  OS_MutexDbgListRemove (OS_MUTEX  *p_mutex)
 811:C:\Micrium\Software\uCOS-III\Source\os_mutex.c **** {
 1385              		.loc 1 811 0
 1386              		.cfi_startproc
 1387              		@ args = 0, pretend = 0, frame = 16
 1388              		@ frame_needed = 1, uses_anonymous_args = 0
 1389              		@ link register save eliminated.
 1390 0000 80B4     		push	{r7}
 1391              	.LCFI21:
 1392              		.cfi_def_cfa_offset 4
 1393 0002 85B0     		sub	sp, sp, #20
 1394              	.LCFI22:
 1395              		.cfi_def_cfa_offset 24
 1396 0004 00AF     		add	r7, sp, #0
 1397              		.cfi_offset 7, -4
 1398              	.LCFI23:
 1399              		.cfi_def_cfa_register 7
 1400 0006 7860     		str	r0, [r7, #4]
 812:C:\Micrium\Software\uCOS-III\Source\os_mutex.c ****     OS_MUTEX  *p_mutex_next;
 813:C:\Micrium\Software\uCOS-III\Source\os_mutex.c ****     OS_MUTEX  *p_mutex_prev;
 814:C:\Micrium\Software\uCOS-III\Source\os_mutex.c **** 
 815:C:\Micrium\Software\uCOS-III\Source\os_mutex.c **** 
 816:C:\Micrium\Software\uCOS-III\Source\os_mutex.c ****     p_mutex_prev = p_mutex->DbgPrevPtr;
 1401              		.loc 1 816 0
 1402 0008 7B68     		ldr	r3, [r7, #4]
ARM GAS  C:\Users\daniel01\AppData\Local\Temp\ccg4pOSx.s 			page 40


 1403 000a 5B69     		ldr	r3, [r3, #20]
 1404 000c FB60     		str	r3, [r7, #12]
 817:C:\Micrium\Software\uCOS-III\Source\os_mutex.c ****     p_mutex_next = p_mutex->DbgNextPtr;
 1405              		.loc 1 817 0
 1406 000e 7B68     		ldr	r3, [r7, #4]
 1407 0010 9B69     		ldr	r3, [r3, #24]
 1408 0012 BB60     		str	r3, [r7, #8]
 818:C:\Micrium\Software\uCOS-III\Source\os_mutex.c **** 
 819:C:\Micrium\Software\uCOS-III\Source\os_mutex.c ****     if (p_mutex_prev == (OS_MUTEX *)0) {
 1409              		.loc 1 819 0
 1410 0014 FB68     		ldr	r3, [r7, #12]
 1411 0016 002B     		cmp	r3, #0
 1412 0018 11D1     		bne	.L97
 820:C:\Micrium\Software\uCOS-III\Source\os_mutex.c ****         OSMutexDbgListPtr = p_mutex_next;
 1413              		.loc 1 820 0
 1414 001a 40F20003 		movw	r3, #:lower16:OSMutexDbgListPtr
 1415 001e C0F20003 		movt	r3, #:upper16:OSMutexDbgListPtr
 1416 0022 BA68     		ldr	r2, [r7, #8]
 1417 0024 1A60     		str	r2, [r3, #0]
 821:C:\Micrium\Software\uCOS-III\Source\os_mutex.c ****         if (p_mutex_next != (OS_MUTEX *)0) {
 1418              		.loc 1 821 0
 1419 0026 BB68     		ldr	r3, [r7, #8]
 1420 0028 002B     		cmp	r3, #0
 1421 002a 03D0     		beq	.L98
 822:C:\Micrium\Software\uCOS-III\Source\os_mutex.c ****             p_mutex_next->DbgPrevPtr = (OS_MUTEX *)0;
 1422              		.loc 1 822 0
 1423 002c BB68     		ldr	r3, [r7, #8]
 1424 002e 4FF00002 		mov	r2, #0
 1425 0032 5A61     		str	r2, [r3, #20]
 1426              	.L98:
 823:C:\Micrium\Software\uCOS-III\Source\os_mutex.c ****         }
 824:C:\Micrium\Software\uCOS-III\Source\os_mutex.c ****         p_mutex->DbgNextPtr = (OS_MUTEX *)0;
 1427              		.loc 1 824 0
 1428 0034 7B68     		ldr	r3, [r7, #4]
 1429 0036 4FF00002 		mov	r2, #0
 1430 003a 9A61     		str	r2, [r3, #24]
 1431 003c 19E0     		b	.L101
 1432              	.L97:
 825:C:\Micrium\Software\uCOS-III\Source\os_mutex.c **** 
 826:C:\Micrium\Software\uCOS-III\Source\os_mutex.c ****     } else if (p_mutex_next == (OS_MUTEX *)0) {
 1433              		.loc 1 826 0
 1434 003e BB68     		ldr	r3, [r7, #8]
 1435 0040 002B     		cmp	r3, #0
 1436 0042 08D1     		bne	.L100
 827:C:\Micrium\Software\uCOS-III\Source\os_mutex.c ****         p_mutex_prev->DbgNextPtr = (OS_MUTEX *)0;
 1437              		.loc 1 827 0
 1438 0044 FB68     		ldr	r3, [r7, #12]
 1439 0046 4FF00002 		mov	r2, #0
 1440 004a 9A61     		str	r2, [r3, #24]
 828:C:\Micrium\Software\uCOS-III\Source\os_mutex.c ****         p_mutex->DbgPrevPtr      = (OS_MUTEX *)0;
 1441              		.loc 1 828 0
 1442 004c 7B68     		ldr	r3, [r7, #4]
 1443 004e 4FF00002 		mov	r2, #0
 1444 0052 5A61     		str	r2, [r3, #20]
 1445 0054 0DE0     		b	.L101
 1446              	.L100:
 829:C:\Micrium\Software\uCOS-III\Source\os_mutex.c **** 
ARM GAS  C:\Users\daniel01\AppData\Local\Temp\ccg4pOSx.s 			page 41


 830:C:\Micrium\Software\uCOS-III\Source\os_mutex.c ****     } else {
 831:C:\Micrium\Software\uCOS-III\Source\os_mutex.c ****         p_mutex_prev->DbgNextPtr =  p_mutex_next;
 1447              		.loc 1 831 0
 1448 0056 FB68     		ldr	r3, [r7, #12]
 1449 0058 BA68     		ldr	r2, [r7, #8]
 1450 005a 9A61     		str	r2, [r3, #24]
 832:C:\Micrium\Software\uCOS-III\Source\os_mutex.c ****         p_mutex_next->DbgPrevPtr =  p_mutex_prev;
 1451              		.loc 1 832 0
 1452 005c BB68     		ldr	r3, [r7, #8]
 1453 005e FA68     		ldr	r2, [r7, #12]
 1454 0060 5A61     		str	r2, [r3, #20]
 833:C:\Micrium\Software\uCOS-III\Source\os_mutex.c ****         p_mutex->DbgNextPtr      = (OS_MUTEX *)0;
 1455              		.loc 1 833 0
 1456 0062 7B68     		ldr	r3, [r7, #4]
 1457 0064 4FF00002 		mov	r2, #0
 1458 0068 9A61     		str	r2, [r3, #24]
 834:C:\Micrium\Software\uCOS-III\Source\os_mutex.c ****         p_mutex->DbgPrevPtr      = (OS_MUTEX *)0;
 1459              		.loc 1 834 0
 1460 006a 7B68     		ldr	r3, [r7, #4]
 1461 006c 4FF00002 		mov	r2, #0
 1462 0070 5A61     		str	r2, [r3, #20]
 1463              	.L101:
 835:C:\Micrium\Software\uCOS-III\Source\os_mutex.c ****     }
 836:C:\Micrium\Software\uCOS-III\Source\os_mutex.c **** }
 1464              		.loc 1 836 0
 1465 0072 07F11407 		add	r7, r7, #20
 1466 0076 BD46     		mov	sp, r7
 1467 0078 80BC     		pop	{r7}
 1468 007a 7047     		bx	lr
 1469              		.cfi_endproc
 1470              	.LFE7:
 1471              		.size	OS_MutexDbgListRemove, .-OS_MutexDbgListRemove
 1472              		.section	.text.OS_MutexInit,"ax",%progbits
 1473              		.align	2
 1474              		.global	OS_MutexInit
 1475              		.thumb
 1476              		.thumb_func
 1477              		.type	OS_MutexInit, %function
 1478              	OS_MutexInit:
 1479              	.LFB8:
 837:C:\Micrium\Software\uCOS-III\Source\os_mutex.c **** #endif
 838:C:\Micrium\Software\uCOS-III\Source\os_mutex.c **** 
 839:C:\Micrium\Software\uCOS-III\Source\os_mutex.c **** /*$PAGE*/
 840:C:\Micrium\Software\uCOS-III\Source\os_mutex.c **** /*
 841:C:\Micrium\Software\uCOS-III\Source\os_mutex.c **** ***************************************************************************************************
 842:C:\Micrium\Software\uCOS-III\Source\os_mutex.c **** *                                                MUTEX INITIALIZATION
 843:C:\Micrium\Software\uCOS-III\Source\os_mutex.c **** *
 844:C:\Micrium\Software\uCOS-III\Source\os_mutex.c **** * Description: This function is called by OSInit() to initialize the mutex management.
 845:C:\Micrium\Software\uCOS-III\Source\os_mutex.c **** *
 846:C:\Micrium\Software\uCOS-III\Source\os_mutex.c **** 
 847:C:\Micrium\Software\uCOS-III\Source\os_mutex.c **** * Argument(s): p_err        is a pointer to a variable that will contain an error code returned by 
 848:C:\Micrium\Software\uCOS-III\Source\os_mutex.c **** *
 849:C:\Micrium\Software\uCOS-III\Source\os_mutex.c **** *                                OS_ERR_NONE     the call was successful
 850:C:\Micrium\Software\uCOS-III\Source\os_mutex.c **** *
 851:C:\Micrium\Software\uCOS-III\Source\os_mutex.c **** * Returns    : none
 852:C:\Micrium\Software\uCOS-III\Source\os_mutex.c **** *
 853:C:\Micrium\Software\uCOS-III\Source\os_mutex.c **** * Note(s)    : 1) This function is INTERNAL to uC/OS-III and your application MUST NOT call it.
ARM GAS  C:\Users\daniel01\AppData\Local\Temp\ccg4pOSx.s 			page 42


 854:C:\Micrium\Software\uCOS-III\Source\os_mutex.c **** ***************************************************************************************************
 855:C:\Micrium\Software\uCOS-III\Source\os_mutex.c **** */
 856:C:\Micrium\Software\uCOS-III\Source\os_mutex.c **** 
 857:C:\Micrium\Software\uCOS-III\Source\os_mutex.c **** void  OS_MutexInit (OS_ERR  *p_err)
 858:C:\Micrium\Software\uCOS-III\Source\os_mutex.c **** {
 1480              		.loc 1 858 0
 1481              		.cfi_startproc
 1482              		@ args = 0, pretend = 0, frame = 8
 1483              		@ frame_needed = 1, uses_anonymous_args = 0
 1484              		@ link register save eliminated.
 1485 0000 80B4     		push	{r7}
 1486              	.LCFI24:
 1487              		.cfi_def_cfa_offset 4
 1488 0002 83B0     		sub	sp, sp, #12
 1489              	.LCFI25:
 1490              		.cfi_def_cfa_offset 16
 1491 0004 00AF     		add	r7, sp, #0
 1492              		.cfi_offset 7, -4
 1493              	.LCFI26:
 1494              		.cfi_def_cfa_register 7
 1495 0006 7860     		str	r0, [r7, #4]
 859:C:\Micrium\Software\uCOS-III\Source\os_mutex.c **** #ifdef OS_SAFETY_CRITICAL
 860:C:\Micrium\Software\uCOS-III\Source\os_mutex.c ****     if (p_err == (OS_ERR *)0) {
 861:C:\Micrium\Software\uCOS-III\Source\os_mutex.c ****         OS_SAFETY_CRITICAL_EXCEPTION();
 862:C:\Micrium\Software\uCOS-III\Source\os_mutex.c ****         return;
 863:C:\Micrium\Software\uCOS-III\Source\os_mutex.c ****     }
 864:C:\Micrium\Software\uCOS-III\Source\os_mutex.c **** #endif
 865:C:\Micrium\Software\uCOS-III\Source\os_mutex.c **** 
 866:C:\Micrium\Software\uCOS-III\Source\os_mutex.c **** #if OS_CFG_DBG_EN > 0u
 867:C:\Micrium\Software\uCOS-III\Source\os_mutex.c ****     OSMutexDbgListPtr = (OS_MUTEX *)0;
 1496              		.loc 1 867 0
 1497 0008 40F20003 		movw	r3, #:lower16:OSMutexDbgListPtr
 1498 000c C0F20003 		movt	r3, #:upper16:OSMutexDbgListPtr
 1499 0010 4FF00002 		mov	r2, #0
 1500 0014 1A60     		str	r2, [r3, #0]
 868:C:\Micrium\Software\uCOS-III\Source\os_mutex.c **** #endif
 869:C:\Micrium\Software\uCOS-III\Source\os_mutex.c **** 
 870:C:\Micrium\Software\uCOS-III\Source\os_mutex.c ****     OSMutexQty        = (OS_OBJ_QTY)0;
 1501              		.loc 1 870 0
 1502 0016 40F20003 		movw	r3, #:lower16:OSMutexQty
 1503 001a C0F20003 		movt	r3, #:upper16:OSMutexQty
 1504 001e 4FF00002 		mov	r2, #0
 1505 0022 1A80     		strh	r2, [r3, #0]	@ movhi
 871:C:\Micrium\Software\uCOS-III\Source\os_mutex.c ****    *p_err             =  OS_ERR_NONE;
 1506              		.loc 1 871 0
 1507 0024 7B68     		ldr	r3, [r7, #4]
 1508 0026 4FF00002 		mov	r2, #0
 1509 002a 1A80     		strh	r2, [r3, #0]	@ movhi
 872:C:\Micrium\Software\uCOS-III\Source\os_mutex.c **** }
 1510              		.loc 1 872 0
 1511 002c 07F10C07 		add	r7, r7, #12
 1512 0030 BD46     		mov	sp, r7
 1513 0032 80BC     		pop	{r7}
 1514 0034 7047     		bx	lr
 1515              		.cfi_endproc
 1516              	.LFE8:
 1517              		.size	OS_MutexInit, .-OS_MutexInit
ARM GAS  C:\Users\daniel01\AppData\Local\Temp\ccg4pOSx.s 			page 43


 1518 0036 00BF     		.text
 1519              	.Letext0: