ARM GAS  C:\Users\daniel01\AppData\Local\Temp\ccg4pOSx.s 			page 1


   1              		.syntax unified
   2              		.cpu cortex-m3
   3              		.fpu softvfp
   4              		.eabi_attribute 20, 1
   5              		.eabi_attribute 21, 1
   6              		.eabi_attribute 23, 3
   7              		.eabi_attribute 24, 1
   8              		.eabi_attribute 25, 1
   9              		.eabi_attribute 26, 1
  10              		.eabi_attribute 30, 6
  11              		.eabi_attribute 18, 4
  12              		.thumb
  13              		.file	"os_mutex.c"
  14              		.section	.debug_abbrev,"",%progbits
  15              	.Ldebug_abbrev0:
  16              		.section	.debug_info,"",%progbits
  17              	.Ldebug_info0:
  18              		.section	.debug_line,"",%progbits
  19              	.Ldebug_line0:
  20 0000 A6020000 		.text
  20      0200D700 
  20      00000201 
  20      FB0E0D00 
  20      01010101 
  21              	.Ltext0:
  22              		.cfi_sections	.debug_frame
  23              		.section	.text.OSMutexCreate,"ax",%progbits
  24              		.align	2
  25              		.global	OSMutexCreate
  26              		.thumb
  27              		.thumb_func
  28              		.type	OSMutexCreate, %function
  29              	OSMutexCreate:
  30              	.LFB0:
  31              		.file 1 "C:\\Micrium\\Software\\uCOS-III\\Source\\os_mutex.c"
   1:C:\Micrium\Software\uCOS-III\Source\os_mutex.c **** /*
   2:C:\Micrium\Software\uCOS-III\Source\os_mutex.c **** ***************************************************************************************************
   3:C:\Micrium\Software\uCOS-III\Source\os_mutex.c **** *                                                      uC/OS-III
   4:C:\Micrium\Software\uCOS-III\Source\os_mutex.c **** *                                                 The Real-Time Kernel
   5:C:\Micrium\Software\uCOS-III\Source\os_mutex.c **** *
   6:C:\Micrium\Software\uCOS-III\Source\os_mutex.c **** *                                  (c) Copyright 2009-2012; Micrium, Inc.; Weston, FL
   7:C:\Micrium\Software\uCOS-III\Source\os_mutex.c **** *                           All rights reserved.  Protected by international copyright laws.
   8:C:\Micrium\Software\uCOS-III\Source\os_mutex.c **** *
   9:C:\Micrium\Software\uCOS-III\Source\os_mutex.c **** *                                                   MUTEX MANAGEMENT
  10:C:\Micrium\Software\uCOS-III\Source\os_mutex.c **** *
  11:C:\Micrium\Software\uCOS-III\Source\os_mutex.c **** * File    : OS_MUTEX.C
  12:C:\Micrium\Software\uCOS-III\Source\os_mutex.c **** * By      : JJL
  13:C:\Micrium\Software\uCOS-III\Source\os_mutex.c **** * Version : V3.03.01
  14:C:\Micrium\Software\uCOS-III\Source\os_mutex.c **** *
  15:C:\Micrium\Software\uCOS-III\Source\os_mutex.c **** * LICENSING TERMS:
  16:C:\Micrium\Software\uCOS-III\Source\os_mutex.c **** * ---------------
  17:C:\Micrium\Software\uCOS-III\Source\os_mutex.c **** *           uC/OS-III is provided in source form for FREE short-term evaluation, for educational us
  18:C:\Micrium\Software\uCOS-III\Source\os_mutex.c **** *           for peaceful research.  If you plan or intend to use uC/OS-III in a commercial applicat
  19:C:\Micrium\Software\uCOS-III\Source\os_mutex.c **** *           product then, you need to contact Micrium to properly license uC/OS-III for its use in 
  20:C:\Micrium\Software\uCOS-III\Source\os_mutex.c **** *           application/product.   We provide ALL the source code for your convenience and to help 
  21:C:\Micrium\Software\uCOS-III\Source\os_mutex.c **** *           experience uC/OS-III.  The fact that the source is provided does NOT mean that you can 
  22:C:\Micrium\Software\uCOS-III\Source\os_mutex.c **** *           it commercially without paying a licensing fee.
ARM GAS  C:\Users\daniel01\AppData\Local\Temp\ccg4pOSx.s 			page 2


  23:C:\Micrium\Software\uCOS-III\Source\os_mutex.c **** *
  24:C:\Micrium\Software\uCOS-III\Source\os_mutex.c **** *           Knowledge of the source code may NOT be used to develop a similar product.
  25:C:\Micrium\Software\uCOS-III\Source\os_mutex.c **** *
  26:C:\Micrium\Software\uCOS-III\Source\os_mutex.c **** *           Please help us continue to provide the embedded community with the finest software avai
  27:C:\Micrium\Software\uCOS-III\Source\os_mutex.c **** *           Your honesty is greatly appreciated.
  28:C:\Micrium\Software\uCOS-III\Source\os_mutex.c **** *
  29:C:\Micrium\Software\uCOS-III\Source\os_mutex.c **** *           You can contact us at www.micrium.com, or by phone at +1 (954) 217-2036.
  30:C:\Micrium\Software\uCOS-III\Source\os_mutex.c **** ***************************************************************************************************
  31:C:\Micrium\Software\uCOS-III\Source\os_mutex.c **** */
  32:C:\Micrium\Software\uCOS-III\Source\os_mutex.c **** 
  33:C:\Micrium\Software\uCOS-III\Source\os_mutex.c **** #define  MICRIUM_SOURCE
  34:C:\Micrium\Software\uCOS-III\Source\os_mutex.c **** #include <os.h>
  35:C:\Micrium\Software\uCOS-III\Source\os_mutex.c **** 
  36:C:\Micrium\Software\uCOS-III\Source\os_mutex.c **** #ifdef VSC_INCLUDE_SOURCE_FILE_NAMES
  37:C:\Micrium\Software\uCOS-III\Source\os_mutex.c **** const  CPU_CHAR  *os_mutex__c = "$Id: $";
  38:C:\Micrium\Software\uCOS-III\Source\os_mutex.c **** #endif
  39:C:\Micrium\Software\uCOS-III\Source\os_mutex.c **** 
  40:C:\Micrium\Software\uCOS-III\Source\os_mutex.c **** 
  41:C:\Micrium\Software\uCOS-III\Source\os_mutex.c **** #if OS_CFG_MUTEX_EN > 0u
  42:C:\Micrium\Software\uCOS-III\Source\os_mutex.c **** /*
  43:C:\Micrium\Software\uCOS-III\Source\os_mutex.c **** ***************************************************************************************************
  44:C:\Micrium\Software\uCOS-III\Source\os_mutex.c **** *                                                   CREATE A MUTEX
  45:C:\Micrium\Software\uCOS-III\Source\os_mutex.c **** *
  46:C:\Micrium\Software\uCOS-III\Source\os_mutex.c **** * Description: This function creates a mutex.
  47:C:\Micrium\Software\uCOS-III\Source\os_mutex.c **** *
  48:C:\Micrium\Software\uCOS-III\Source\os_mutex.c **** * Arguments  : p_mutex       is a pointer to the mutex to initialize.  Your application is responsi
  49:C:\Micrium\Software\uCOS-III\Source\os_mutex.c **** *                            storage for the mutex.
  50:C:\Micrium\Software\uCOS-III\Source\os_mutex.c **** *
  51:C:\Micrium\Software\uCOS-III\Source\os_mutex.c **** *              p_name        is a pointer to the name you would like to give the mutex.
  52:C:\Micrium\Software\uCOS-III\Source\os_mutex.c **** *
  53:C:\Micrium\Software\uCOS-III\Source\os_mutex.c **** *              p_err         is a pointer to a variable that will contain an error code returned by
  54:C:\Micrium\Software\uCOS-III\Source\os_mutex.c **** *
  55:C:\Micrium\Software\uCOS-III\Source\os_mutex.c **** *                                OS_ERR_NONE                    if the call was successful
  56:C:\Micrium\Software\uCOS-III\Source\os_mutex.c **** *                                OS_ERR_CREATE_ISR              if you called this function from an
  57:C:\Micrium\Software\uCOS-III\Source\os_mutex.c **** *                                OS_ERR_ILLEGAL_CREATE_RUN_TIME if you are trying to create the Mut
  58:C:\Micrium\Software\uCOS-III\Source\os_mutex.c **** *                                                                 OSSafetyCriticalStart().
  59:C:\Micrium\Software\uCOS-III\Source\os_mutex.c **** *                                OS_ERR_NAME                    if 'p_name'  is a NULL pointer
  60:C:\Micrium\Software\uCOS-III\Source\os_mutex.c **** *                                OS_ERR_OBJ_CREATED             if the mutex has already been creat
  61:C:\Micrium\Software\uCOS-III\Source\os_mutex.c **** *                                OS_ERR_OBJ_PTR_NULL            if 'p_mutex' is a NULL pointer
  62:C:\Micrium\Software\uCOS-III\Source\os_mutex.c **** *
  63:C:\Micrium\Software\uCOS-III\Source\os_mutex.c **** * Returns    : none
  64:C:\Micrium\Software\uCOS-III\Source\os_mutex.c **** ***************************************************************************************************
  65:C:\Micrium\Software\uCOS-III\Source\os_mutex.c **** */
  66:C:\Micrium\Software\uCOS-III\Source\os_mutex.c **** 
  67:C:\Micrium\Software\uCOS-III\Source\os_mutex.c **** void  OSMutexCreate (OS_MUTEX  *p_mutex,
  68:C:\Micrium\Software\uCOS-III\Source\os_mutex.c ****                      CPU_CHAR  *p_name,
  69:C:\Micrium\Software\uCOS-III\Source\os_mutex.c ****                      OS_ERR    *p_err)
  70:C:\Micrium\Software\uCOS-III\Source\os_mutex.c **** {
  32              		.loc 1 70 0
  33              		.cfi_startproc
  34              		@ args = 0, pretend = 0, frame = 24
  35              		@ frame_needed = 1, uses_anonymous_args = 0
  36 0000 80B5     		push	{r7, lr}
  37              	.LCFI0:
  38              		.cfi_def_cfa_offset 8
  39 0002 86B0     		sub	sp, sp, #24
  40              	.LCFI1:
ARM GAS  C:\Users\daniel01\AppData\Local\Temp\ccg4pOSx.s 			page 3


  41              		.cfi_def_cfa_offset 32
  42 0004 00AF     		add	r7, sp, #0
  43              		.cfi_offset 14, -4
  44              		.cfi_offset 7, -8
  45              	.LCFI2:
  46              		.cfi_def_cfa_register 7
  47 0006 F860     		str	r0, [r7, #12]
  48 0008 B960     		str	r1, [r7, #8]
  49 000a 7A60     		str	r2, [r7, #4]
  71:C:\Micrium\Software\uCOS-III\Source\os_mutex.c ****     CPU_SR_ALLOC();
  50              		.loc 1 71 0
  51 000c 4FF00003 		mov	r3, #0
  52 0010 7B61     		str	r3, [r7, #20]
  72:C:\Micrium\Software\uCOS-III\Source\os_mutex.c **** 
  73:C:\Micrium\Software\uCOS-III\Source\os_mutex.c **** 
  74:C:\Micrium\Software\uCOS-III\Source\os_mutex.c **** 
  75:C:\Micrium\Software\uCOS-III\Source\os_mutex.c **** #ifdef OS_SAFETY_CRITICAL
  76:C:\Micrium\Software\uCOS-III\Source\os_mutex.c ****     if (p_err == (OS_ERR *)0) {
  77:C:\Micrium\Software\uCOS-III\Source\os_mutex.c ****         OS_SAFETY_CRITICAL_EXCEPTION();
  78:C:\Micrium\Software\uCOS-III\Source\os_mutex.c ****         return;
  79:C:\Micrium\Software\uCOS-III\Source\os_mutex.c ****     }
  80:C:\Micrium\Software\uCOS-III\Source\os_mutex.c **** #endif
  81:C:\Micrium\Software\uCOS-III\Source\os_mutex.c **** 
  82:C:\Micrium\Software\uCOS-III\Source\os_mutex.c **** #ifdef OS_SAFETY_CRITICAL_IEC61508
  83:C:\Micrium\Software\uCOS-III\Source\os_mutex.c ****     if (OSSafetyCriticalStartFlag == DEF_TRUE) {
  84:C:\Micrium\Software\uCOS-III\Source\os_mutex.c ****        *p_err = OS_ERR_ILLEGAL_CREATE_RUN_TIME;
  85:C:\Micrium\Software\uCOS-III\Source\os_mutex.c ****         return;
  86:C:\Micrium\Software\uCOS-III\Source\os_mutex.c ****     }
  87:C:\Micrium\Software\uCOS-III\Source\os_mutex.c **** #endif
  88:C:\Micrium\Software\uCOS-III\Source\os_mutex.c **** 
  89:C:\Micrium\Software\uCOS-III\Source\os_mutex.c **** #if OS_CFG_CALLED_FROM_ISR_CHK_EN > 0u
  90:C:\Micrium\Software\uCOS-III\Source\os_mutex.c ****     if (OSIntNestingCtr > (OS_NESTING_CTR)0) {              /* Not allowed to be called from an ISR
  53              		.loc 1 90 0
  54 0012 40F20003 		movw	r3, #:lower16:OSIntNestingCtr
  55 0016 C0F20003 		movt	r3, #:upper16:OSIntNestingCtr
  56 001a 1B78     		ldrb	r3, [r3, #0]	@ zero_extendqisi2
  57 001c 002B     		cmp	r3, #0
  58 001e 04D0     		beq	.L2
  91:C:\Micrium\Software\uCOS-III\Source\os_mutex.c ****        *p_err = OS_ERR_CREATE_ISR;
  59              		.loc 1 91 0
  60 0020 7B68     		ldr	r3, [r7, #4]
  61 0022 42F6E162 		movw	r2, #12001
  62 0026 1A80     		strh	r2, [r3, #0]	@ movhi
  92:C:\Micrium\Software\uCOS-III\Source\os_mutex.c ****         return;
  63              		.loc 1 92 0
  64 0028 43E0     		b	.L5
  65              	.L2:
  93:C:\Micrium\Software\uCOS-III\Source\os_mutex.c ****     }
  94:C:\Micrium\Software\uCOS-III\Source\os_mutex.c **** #endif
  95:C:\Micrium\Software\uCOS-III\Source\os_mutex.c **** 
  96:C:\Micrium\Software\uCOS-III\Source\os_mutex.c **** #if OS_CFG_ARG_CHK_EN > 0u
  97:C:\Micrium\Software\uCOS-III\Source\os_mutex.c ****     if (p_mutex == (OS_MUTEX *)0) {                         /* Validate 'p_mutex'                  
  66              		.loc 1 97 0
  67 002a FB68     		ldr	r3, [r7, #12]
  68 002c 002B     		cmp	r3, #0
  69 002e 04D1     		bne	.L4
  98:C:\Micrium\Software\uCOS-III\Source\os_mutex.c ****        *p_err = OS_ERR_OBJ_PTR_NULL;
ARM GAS  C:\Users\daniel01\AppData\Local\Temp\ccg4pOSx.s 			page 4


  70              		.loc 1 98 0
  71 0030 7B68     		ldr	r3, [r7, #4]
  72 0032 45F6C352 		movw	r2, #24003
  73 0036 1A80     		strh	r2, [r3, #0]	@ movhi
  99:C:\Micrium\Software\uCOS-III\Source\os_mutex.c ****         return;
  74              		.loc 1 99 0
  75 0038 3BE0     		b	.L5
  76              	.L4:
 100:C:\Micrium\Software\uCOS-III\Source\os_mutex.c ****     }
 101:C:\Micrium\Software\uCOS-III\Source\os_mutex.c **** #endif
 102:C:\Micrium\Software\uCOS-III\Source\os_mutex.c **** 
 103:C:\Micrium\Software\uCOS-III\Source\os_mutex.c ****     OS_CRITICAL_ENTER();
  77              		.loc 1 103 0
  78 003a FFF7FEFF 		bl	CPU_SR_Save
  79 003e 0346     		mov	r3, r0
  80 0040 7B61     		str	r3, [r7, #20]
 104:C:\Micrium\Software\uCOS-III\Source\os_mutex.c ****     p_mutex->Type              =  OS_OBJ_TYPE_MUTEX;        /* Mark the data structure as a mutex  
  81              		.loc 1 104 0
  82 0042 FA68     		ldr	r2, [r7, #12]
  83 0044 45F24D53 		movw	r3, #:lower16:1481921869
  84 0048 C5F65403 		movt	r3, #:upper16:1481921869
  85 004c 1360     		str	r3, [r2, #0]
 105:C:\Micrium\Software\uCOS-III\Source\os_mutex.c ****     p_mutex->NamePtr           =  p_name;
  86              		.loc 1 105 0
  87 004e FB68     		ldr	r3, [r7, #12]
  88 0050 BA68     		ldr	r2, [r7, #8]
  89 0052 5A60     		str	r2, [r3, #4]
 106:C:\Micrium\Software\uCOS-III\Source\os_mutex.c ****     p_mutex->OwnerTCBPtr       = (OS_TCB       *)0;
  90              		.loc 1 106 0
  91 0054 FB68     		ldr	r3, [r7, #12]
  92 0056 4FF00002 		mov	r2, #0
  93 005a 1A62     		str	r2, [r3, #32]
 107:C:\Micrium\Software\uCOS-III\Source\os_mutex.c ****     p_mutex->OwnerNestingCtr   = (OS_NESTING_CTR)0;         /* Mutex is available                  
  94              		.loc 1 107 0
  95 005c FB68     		ldr	r3, [r7, #12]
  96 005e 4FF00002 		mov	r2, #0
  97 0062 83F82520 		strb	r2, [r3, #37]
 108:C:\Micrium\Software\uCOS-III\Source\os_mutex.c ****     p_mutex->TS                = (CPU_TS        )0;
  98              		.loc 1 108 0
  99 0066 FB68     		ldr	r3, [r7, #12]
 100 0068 4FF00002 		mov	r2, #0
 101 006c 9A62     		str	r2, [r3, #40]
 109:C:\Micrium\Software\uCOS-III\Source\os_mutex.c ****     p_mutex->OwnerOriginalPrio =  OS_CFG_PRIO_MAX;
 102              		.loc 1 109 0
 103 006e FB68     		ldr	r3, [r7, #12]
 104 0070 4FF00802 		mov	r2, #8
 105 0074 83F82420 		strb	r2, [r3, #36]
 110:C:\Micrium\Software\uCOS-III\Source\os_mutex.c ****     OS_PendListInit(&p_mutex->PendList);                    /* Initialize the waiting list         
 106              		.loc 1 110 0
 107 0078 FB68     		ldr	r3, [r7, #12]
 108 007a 03F10803 		add	r3, r3, #8
 109 007e 1846     		mov	r0, r3
 110 0080 FFF7FEFF 		bl	OS_PendListInit
 111:C:\Micrium\Software\uCOS-III\Source\os_mutex.c **** 
 112:C:\Micrium\Software\uCOS-III\Source\os_mutex.c **** #if OS_CFG_DBG_EN > 0u
 113:C:\Micrium\Software\uCOS-III\Source\os_mutex.c ****     OS_MutexDbgListAdd(p_mutex);
 111              		.loc 1 113 0
ARM GAS  C:\Users\daniel01\AppData\Local\Temp\ccg4pOSx.s 			page 5


 112 0084 F868     		ldr	r0, [r7, #12]
 113 0086 FFF7FEFF 		bl	OS_MutexDbgListAdd
 114:C:\Micrium\Software\uCOS-III\Source\os_mutex.c **** #endif
 115:C:\Micrium\Software\uCOS-III\Source\os_mutex.c ****     OSMutexQty++;
 114              		.loc 1 115 0
 115 008a 40F20003 		movw	r3, #:lower16:OSMutexQty
 116 008e C0F20003 		movt	r3, #:upper16:OSMutexQty
 117 0092 1B88     		ldrh	r3, [r3, #0]
 118 0094 03F10103 		add	r3, r3, #1
 119 0098 9AB2     		uxth	r2, r3
 120 009a 40F20003 		movw	r3, #:lower16:OSMutexQty
 121 009e C0F20003 		movt	r3, #:upper16:OSMutexQty
 122 00a2 1A80     		strh	r2, [r3, #0]	@ movhi
 116:C:\Micrium\Software\uCOS-III\Source\os_mutex.c **** 
 117:C:\Micrium\Software\uCOS-III\Source\os_mutex.c ****     OS_CRITICAL_EXIT_NO_SCHED();
 123              		.loc 1 117 0
 124 00a4 7869     		ldr	r0, [r7, #20]
 125 00a6 FFF7FEFF 		bl	CPU_SR_Restore
 118:C:\Micrium\Software\uCOS-III\Source\os_mutex.c ****    *p_err = OS_ERR_NONE;
 126              		.loc 1 118 0
 127 00aa 7B68     		ldr	r3, [r7, #4]
 128 00ac 4FF00002 		mov	r2, #0
 129 00b0 1A80     		strh	r2, [r3, #0]	@ movhi
 130              	.L5:
 119:C:\Micrium\Software\uCOS-III\Source\os_mutex.c **** }
 131              		.loc 1 119 0
 132 00b2 07F11807 		add	r7, r7, #24
 133 00b6 BD46     		mov	sp, r7
 134 00b8 80BD     		pop	{r7, pc}
 135              		.cfi_endproc
 136              	.LFE0:
 137              		.size	OSMutexCreate, .-OSMutexCreate
 138 00ba 00BF     		.section	.text.OSMutexDel,"ax",%progbits
 139              		.align	2
 140              		.global	OSMutexDel
 141              		.thumb
 142              		.thumb_func
 143              		.type	OSMutexDel, %function
 144              	OSMutexDel:
 145              	.LFB1:
 120:C:\Micrium\Software\uCOS-III\Source\os_mutex.c **** 
 121:C:\Micrium\Software\uCOS-III\Source\os_mutex.c **** /*$PAGE*/
 122:C:\Micrium\Software\uCOS-III\Source\os_mutex.c **** /*
 123:C:\Micrium\Software\uCOS-III\Source\os_mutex.c **** ***************************************************************************************************
 124:C:\Micrium\Software\uCOS-III\Source\os_mutex.c **** *                                                   DELETE A MUTEX
 125:C:\Micrium\Software\uCOS-III\Source\os_mutex.c **** *
 126:C:\Micrium\Software\uCOS-III\Source\os_mutex.c **** * Description: This function deletes a mutex and readies all tasks pending on the mutex.
 127:C:\Micrium\Software\uCOS-III\Source\os_mutex.c **** *
 128:C:\Micrium\Software\uCOS-III\Source\os_mutex.c **** * Arguments  : p_mutex       is a pointer to the mutex to delete
 129:C:\Micrium\Software\uCOS-III\Source\os_mutex.c **** *
 130:C:\Micrium\Software\uCOS-III\Source\os_mutex.c **** *              opt           determines delete options as follows:
 131:C:\Micrium\Software\uCOS-III\Source\os_mutex.c **** *
 132:C:\Micrium\Software\uCOS-III\Source\os_mutex.c **** *                                OS_OPT_DEL_NO_PEND          Delete mutex ONLY if no task pending
 133:C:\Micrium\Software\uCOS-III\Source\os_mutex.c **** *                                OS_OPT_DEL_ALWAYS           Deletes the mutex even if tasks are wa
 134:C:\Micrium\Software\uCOS-III\Source\os_mutex.c **** *                                                            In this case, all the tasks pending wi
 135:C:\Micrium\Software\uCOS-III\Source\os_mutex.c **** *
 136:C:\Micrium\Software\uCOS-III\Source\os_mutex.c **** *              p_err         is a pointer to a variable that will contain an error code returned by
ARM GAS  C:\Users\daniel01\AppData\Local\Temp\ccg4pOSx.s 			page 6


 137:C:\Micrium\Software\uCOS-III\Source\os_mutex.c **** *
 138:C:\Micrium\Software\uCOS-III\Source\os_mutex.c **** *                                OS_ERR_NONE                 The call was successful and the mutex 
 139:C:\Micrium\Software\uCOS-III\Source\os_mutex.c **** *                                OS_ERR_DEL_ISR              If you attempted to delete the mutex f
 140:C:\Micrium\Software\uCOS-III\Source\os_mutex.c **** *                                OS_ERR_OBJ_PTR_NULL         If 'p_mutex' is a NULL pointer.
 141:C:\Micrium\Software\uCOS-III\Source\os_mutex.c **** *                                OS_ERR_OBJ_TYPE             If 'p_mutex' is not pointing to a mute
 142:C:\Micrium\Software\uCOS-III\Source\os_mutex.c **** *                                OS_ERR_OPT_INVALID          An invalid option was specified
 143:C:\Micrium\Software\uCOS-III\Source\os_mutex.c **** *                                OS_ERR_STATE_INVALID        Task is in an invalid state
 144:C:\Micrium\Software\uCOS-III\Source\os_mutex.c **** *                                OS_ERR_TASK_WAITING         One or more tasks were waiting on the 
 145:C:\Micrium\Software\uCOS-III\Source\os_mutex.c **** *
 146:C:\Micrium\Software\uCOS-III\Source\os_mutex.c **** * Returns    : == 0          if no tasks were waiting on the mutex, or upon error.
 147:C:\Micrium\Software\uCOS-III\Source\os_mutex.c **** *              >  0          if one or more tasks waiting on the mutex are now readied and informed
 148:C:\Micrium\Software\uCOS-III\Source\os_mutex.c **** *
 149:C:\Micrium\Software\uCOS-III\Source\os_mutex.c **** * Note(s)    : 1) This function must be used with care.  Tasks that would normally expect the prese
 150:C:\Micrium\Software\uCOS-III\Source\os_mutex.c **** *                 check the return code of OSMutexPend().
 151:C:\Micrium\Software\uCOS-III\Source\os_mutex.c **** *
 152:C:\Micrium\Software\uCOS-III\Source\os_mutex.c **** *              2) OSMutexAccept() callers will not know that the intended mutex has been deleted.
 153:C:\Micrium\Software\uCOS-III\Source\os_mutex.c **** *
 154:C:\Micrium\Software\uCOS-III\Source\os_mutex.c **** *              3) Because ALL tasks pending on the mutex will be readied, you MUST be careful in ap
 155:C:\Micrium\Software\uCOS-III\Source\os_mutex.c **** *                 mutex is used for mutual exclusion because the resource(s) will no longer be guar
 156:C:\Micrium\Software\uCOS-III\Source\os_mutex.c **** ***************************************************************************************************
 157:C:\Micrium\Software\uCOS-III\Source\os_mutex.c **** */
 158:C:\Micrium\Software\uCOS-III\Source\os_mutex.c **** 
 159:C:\Micrium\Software\uCOS-III\Source\os_mutex.c **** #if OS_CFG_MUTEX_DEL_EN > 0u
 160:C:\Micrium\Software\uCOS-III\Source\os_mutex.c **** OS_OBJ_QTY  OSMutexDel (OS_MUTEX  *p_mutex,
 161:C:\Micrium\Software\uCOS-III\Source\os_mutex.c ****                         OS_OPT     opt,
 162:C:\Micrium\Software\uCOS-III\Source\os_mutex.c ****                         OS_ERR    *p_err)
 163:C:\Micrium\Software\uCOS-III\Source\os_mutex.c **** {
 146              		.loc 1 163 0
 147              		.cfi_startproc
 148              		@ args = 0, pretend = 0, frame = 48
 149              		@ frame_needed = 1, uses_anonymous_args = 0
 150 0000 80B5     		push	{r7, lr}
 151              	.LCFI3:
 152              		.cfi_def_cfa_offset 8
 153 0002 8CB0     		sub	sp, sp, #48
 154              	.LCFI4:
 155              		.cfi_def_cfa_offset 56
 156 0004 00AF     		add	r7, sp, #0
 157              		.cfi_offset 14, -4
 158              		.cfi_offset 7, -8
 159              	.LCFI5:
 160              		.cfi_def_cfa_register 7
 161 0006 F860     		str	r0, [r7, #12]
 162 0008 0B46     		mov	r3, r1
 163 000a 7A60     		str	r2, [r7, #4]
 164 000c 7B81     		strh	r3, [r7, #10]	@ movhi
 164:C:\Micrium\Software\uCOS-III\Source\os_mutex.c ****     OS_OBJ_QTY     cnt;
 165:C:\Micrium\Software\uCOS-III\Source\os_mutex.c ****     OS_OBJ_QTY     nbr_tasks;
 166:C:\Micrium\Software\uCOS-III\Source\os_mutex.c ****     OS_PEND_DATA  *p_pend_data;
 167:C:\Micrium\Software\uCOS-III\Source\os_mutex.c ****     OS_PEND_LIST  *p_pend_list;
 168:C:\Micrium\Software\uCOS-III\Source\os_mutex.c ****     OS_TCB        *p_tcb;
 169:C:\Micrium\Software\uCOS-III\Source\os_mutex.c ****     OS_TCB        *p_tcb_owner;
 170:C:\Micrium\Software\uCOS-III\Source\os_mutex.c ****     CPU_TS         ts;
 171:C:\Micrium\Software\uCOS-III\Source\os_mutex.c ****     CPU_SR_ALLOC();
 165              		.loc 1 171 0
 166 000e 4FF00003 		mov	r3, #0
 167 0012 FB62     		str	r3, [r7, #44]
ARM GAS  C:\Users\daniel01\AppData\Local\Temp\ccg4pOSx.s 			page 7


 172:C:\Micrium\Software\uCOS-III\Source\os_mutex.c **** 
 173:C:\Micrium\Software\uCOS-III\Source\os_mutex.c **** 
 174:C:\Micrium\Software\uCOS-III\Source\os_mutex.c **** 
 175:C:\Micrium\Software\uCOS-III\Source\os_mutex.c **** #ifdef OS_SAFETY_CRITICAL
 176:C:\Micrium\Software\uCOS-III\Source\os_mutex.c ****     if (p_err == (OS_ERR *)0) {
 177:C:\Micrium\Software\uCOS-III\Source\os_mutex.c ****         OS_SAFETY_CRITICAL_EXCEPTION();
 178:C:\Micrium\Software\uCOS-III\Source\os_mutex.c ****         return ((OS_OBJ_QTY)0);
 179:C:\Micrium\Software\uCOS-III\Source\os_mutex.c ****     }
 180:C:\Micrium\Software\uCOS-III\Source\os_mutex.c **** #endif
 181:C:\Micrium\Software\uCOS-III\Source\os_mutex.c **** 
 182:C:\Micrium\Software\uCOS-III\Source\os_mutex.c **** #if OS_CFG_CALLED_FROM_ISR_CHK_EN > 0u
 183:C:\Micrium\Software\uCOS-III\Source\os_mutex.c ****     if (OSIntNestingCtr > (OS_NESTING_CTR)0) {                  /* Not allowed to delete a mutex fr
 168              		.loc 1 183 0
 169 0014 40F20003 		movw	r3, #:lower16:OSIntNestingCtr
 170 0018 C0F20003 		movt	r3, #:upper16:OSIntNestingCtr
 171 001c 1B78     		ldrb	r3, [r3, #0]	@ zero_extendqisi2
 172 001e 002B     		cmp	r3, #0
 173 0020 06D0     		beq	.L7
 184:C:\Micrium\Software\uCOS-III\Source\os_mutex.c ****        *p_err = OS_ERR_DEL_ISR;
 174              		.loc 1 184 0
 175 0022 7B68     		ldr	r3, [r7, #4]
 176 0024 43F2C922 		movw	r2, #13001
 177 0028 1A80     		strh	r2, [r3, #0]	@ movhi
 185:C:\Micrium\Software\uCOS-III\Source\os_mutex.c ****         return ((OS_OBJ_QTY)0);
 178              		.loc 1 185 0
 179 002a 4FF00003 		mov	r3, #0
 180 002e DAE0     		b	.L8
 181              	.L7:
 186:C:\Micrium\Software\uCOS-III\Source\os_mutex.c ****     }
 187:C:\Micrium\Software\uCOS-III\Source\os_mutex.c **** #endif
 188:C:\Micrium\Software\uCOS-III\Source\os_mutex.c **** 
 189:C:\Micrium\Software\uCOS-III\Source\os_mutex.c **** #if OS_CFG_ARG_CHK_EN > 0u
 190:C:\Micrium\Software\uCOS-III\Source\os_mutex.c ****     if (p_mutex == (OS_MUTEX *)0) {                             /* Validate 'p_mutex'              
 182              		.loc 1 190 0
 183 0030 FB68     		ldr	r3, [r7, #12]
 184 0032 002B     		cmp	r3, #0
 185 0034 06D1     		bne	.L9
 191:C:\Micrium\Software\uCOS-III\Source\os_mutex.c ****        *p_err = OS_ERR_OBJ_PTR_NULL;
 186              		.loc 1 191 0
 187 0036 7B68     		ldr	r3, [r7, #4]
 188 0038 45F6C352 		movw	r2, #24003
 189 003c 1A80     		strh	r2, [r3, #0]	@ movhi
 192:C:\Micrium\Software\uCOS-III\Source\os_mutex.c ****         return ((OS_OBJ_QTY)0);
 190              		.loc 1 192 0
 191 003e 4FF00003 		mov	r3, #0
 192 0042 D0E0     		b	.L8
 193              	.L9:
 193:C:\Micrium\Software\uCOS-III\Source\os_mutex.c ****     }
 194:C:\Micrium\Software\uCOS-III\Source\os_mutex.c ****     switch (opt) {                                              /* Validate 'opt'                  
 194              		.loc 1 194 0
 195 0044 7B89     		ldrh	r3, [r7, #10]
 196 0046 03F10003 		add	r3, r3, #0
 197 004a 012B     		cmp	r3, #1
 198 004c 12D8     		bhi	.L10
 195:C:\Micrium\Software\uCOS-III\Source\os_mutex.c ****         case OS_OPT_DEL_NO_PEND:
 196:C:\Micrium\Software\uCOS-III\Source\os_mutex.c ****         case OS_OPT_DEL_ALWAYS:
 197:C:\Micrium\Software\uCOS-III\Source\os_mutex.c ****              break;
ARM GAS  C:\Users\daniel01\AppData\Local\Temp\ccg4pOSx.s 			page 8


 198:C:\Micrium\Software\uCOS-III\Source\os_mutex.c **** 
 199:C:\Micrium\Software\uCOS-III\Source\os_mutex.c ****         default:
 200:C:\Micrium\Software\uCOS-III\Source\os_mutex.c ****             *p_err =  OS_ERR_OPT_INVALID;
 201:C:\Micrium\Software\uCOS-III\Source\os_mutex.c ****              return ((OS_OBJ_QTY)0);
 202:C:\Micrium\Software\uCOS-III\Source\os_mutex.c ****     }
 203:C:\Micrium\Software\uCOS-III\Source\os_mutex.c **** #endif
 204:C:\Micrium\Software\uCOS-III\Source\os_mutex.c **** 
 205:C:\Micrium\Software\uCOS-III\Source\os_mutex.c **** #if OS_CFG_OBJ_TYPE_CHK_EN > 0u
 206:C:\Micrium\Software\uCOS-III\Source\os_mutex.c ****     if (p_mutex->Type != OS_OBJ_TYPE_MUTEX) {                   /* Make sure mutex was created     
 207:C:\Micrium\Software\uCOS-III\Source\os_mutex.c ****        *p_err = OS_ERR_OBJ_TYPE;
 208:C:\Micrium\Software\uCOS-III\Source\os_mutex.c ****         return ((OS_OBJ_QTY)0);
 209:C:\Micrium\Software\uCOS-III\Source\os_mutex.c ****     }
 210:C:\Micrium\Software\uCOS-III\Source\os_mutex.c **** #endif
 211:C:\Micrium\Software\uCOS-III\Source\os_mutex.c **** 
 212:C:\Micrium\Software\uCOS-III\Source\os_mutex.c ****     OS_CRITICAL_ENTER();
 199              		.loc 1 212 0
 200 004e FFF7FEFF 		bl	CPU_SR_Save
 201 0052 0346     		mov	r3, r0
 202 0054 FB62     		str	r3, [r7, #44]
 213:C:\Micrium\Software\uCOS-III\Source\os_mutex.c ****     p_pend_list = &p_mutex->PendList;
 203              		.loc 1 213 0
 204 0056 FB68     		ldr	r3, [r7, #12]
 205 0058 03F10803 		add	r3, r3, #8
 206 005c FB61     		str	r3, [r7, #28]
 214:C:\Micrium\Software\uCOS-III\Source\os_mutex.c ****     cnt         = p_pend_list->NbrEntries;
 207              		.loc 1 214 0
 208 005e FB69     		ldr	r3, [r7, #28]
 209 0060 1B89     		ldrh	r3, [r3, #8]	@ movhi
 210 0062 BB82     		strh	r3, [r7, #20]	@ movhi
 215:C:\Micrium\Software\uCOS-III\Source\os_mutex.c ****     nbr_tasks   = cnt;
 211              		.loc 1 215 0
 212 0064 BB8A     		ldrh	r3, [r7, #20]	@ movhi
 213 0066 FB82     		strh	r3, [r7, #22]	@ movhi
 216:C:\Micrium\Software\uCOS-III\Source\os_mutex.c ****     switch (opt) {
 214              		.loc 1 216 0
 215 0068 7B89     		ldrh	r3, [r7, #10]
 216 006a 002B     		cmp	r3, #0
 217 006c 09D0     		beq	.L13
 218 006e 012B     		cmp	r3, #1
 219 0070 2DD0     		beq	.L14
 220 0072 B0E0     		b	.L26
 221              	.L10:
 222              		.loc 1 200 0
 223 0074 7B68     		ldr	r3, [r7, #4]
 224 0076 45F62562 		movw	r2, #24101
 225 007a 1A80     		strh	r2, [r3, #0]	@ movhi
 226              		.loc 1 201 0
 227 007c 4FF00003 		mov	r3, #0
 228 0080 B1E0     		b	.L8
 229              	.L13:
 217:C:\Micrium\Software\uCOS-III\Source\os_mutex.c ****         case OS_OPT_DEL_NO_PEND:                                /* Delete mutex only if no task wai
 218:C:\Micrium\Software\uCOS-III\Source\os_mutex.c ****              if (nbr_tasks == (OS_OBJ_QTY)0) {
 230              		.loc 1 218 0
 231 0082 FB8A     		ldrh	r3, [r7, #22]
 232 0084 002B     		cmp	r3, #0
 233 0086 1AD1     		bne	.L15
 219:C:\Micrium\Software\uCOS-III\Source\os_mutex.c **** #if OS_CFG_DBG_EN > 0u
ARM GAS  C:\Users\daniel01\AppData\Local\Temp\ccg4pOSx.s 			page 9


 220:C:\Micrium\Software\uCOS-III\Source\os_mutex.c ****                  OS_MutexDbgListRemove(p_mutex);
 234              		.loc 1 220 0
 235 0088 F868     		ldr	r0, [r7, #12]
 236 008a FFF7FEFF 		bl	OS_MutexDbgListRemove
 221:C:\Micrium\Software\uCOS-III\Source\os_mutex.c **** #endif
 222:C:\Micrium\Software\uCOS-III\Source\os_mutex.c ****                  OSMutexQty--;
 237              		.loc 1 222 0
 238 008e 40F20003 		movw	r3, #:lower16:OSMutexQty
 239 0092 C0F20003 		movt	r3, #:upper16:OSMutexQty
 240 0096 1B88     		ldrh	r3, [r3, #0]
 241 0098 03F1FF33 		add	r3, r3, #-1
 242 009c 9AB2     		uxth	r2, r3
 243 009e 40F20003 		movw	r3, #:lower16:OSMutexQty
 244 00a2 C0F20003 		movt	r3, #:upper16:OSMutexQty
 245 00a6 1A80     		strh	r2, [r3, #0]	@ movhi
 223:C:\Micrium\Software\uCOS-III\Source\os_mutex.c ****                  OS_MutexClr(p_mutex);
 246              		.loc 1 223 0
 247 00a8 F868     		ldr	r0, [r7, #12]
 248 00aa FFF7FEFF 		bl	OS_MutexClr
 224:C:\Micrium\Software\uCOS-III\Source\os_mutex.c ****                  OS_CRITICAL_EXIT();
 249              		.loc 1 224 0
 250 00ae F86A     		ldr	r0, [r7, #44]
 251 00b0 FFF7FEFF 		bl	CPU_SR_Restore
 225:C:\Micrium\Software\uCOS-III\Source\os_mutex.c ****                 *p_err = OS_ERR_NONE;
 252              		.loc 1 225 0
 253 00b4 7B68     		ldr	r3, [r7, #4]
 254 00b6 4FF00002 		mov	r2, #0
 255 00ba 1A80     		strh	r2, [r3, #0]	@ movhi
 226:C:\Micrium\Software\uCOS-III\Source\os_mutex.c ****              } else {
 227:C:\Micrium\Software\uCOS-III\Source\os_mutex.c ****                  OS_CRITICAL_EXIT();
 228:C:\Micrium\Software\uCOS-III\Source\os_mutex.c ****                 *p_err = OS_ERR_TASK_WAITING;
 229:C:\Micrium\Software\uCOS-III\Source\os_mutex.c ****              }
 230:C:\Micrium\Software\uCOS-III\Source\os_mutex.c ****              break;
 256              		.loc 1 230 0
 257 00bc 92E0     		b	.L17
 258              	.L15:
 259              		.loc 1 227 0
 260 00be F86A     		ldr	r0, [r7, #44]
 261 00c0 FFF7FEFF 		bl	CPU_SR_Restore
 262              		.loc 1 228 0
 263 00c4 7B68     		ldr	r3, [r7, #4]
 264 00c6 47F25F12 		movw	r2, #29023
 265 00ca 1A80     		strh	r2, [r3, #0]	@ movhi
 266              		.loc 1 230 0
 267 00cc 8AE0     		b	.L17
 268              	.L14:
 231:C:\Micrium\Software\uCOS-III\Source\os_mutex.c **** 
 232:C:\Micrium\Software\uCOS-III\Source\os_mutex.c ****         case OS_OPT_DEL_ALWAYS:                                            /* Always delete the mut
 233:C:\Micrium\Software\uCOS-III\Source\os_mutex.c ****              p_tcb_owner = p_mutex->OwnerTCBPtr;                           /* Did we had to change 
 269              		.loc 1 233 0
 270 00ce FB68     		ldr	r3, [r7, #12]
 271 00d0 1B6A     		ldr	r3, [r3, #32]
 272 00d2 7B62     		str	r3, [r7, #36]
 234:C:\Micrium\Software\uCOS-III\Source\os_mutex.c ****              if ((p_tcb_owner       != (OS_TCB *)0) &&
 273              		.loc 1 234 0
 274 00d4 7B6A     		ldr	r3, [r7, #36]
 275 00d6 002B     		cmp	r3, #0
ARM GAS  C:\Users\daniel01\AppData\Local\Temp\ccg4pOSx.s 			page 10


 276 00d8 48D0     		beq	.L18
 235:C:\Micrium\Software\uCOS-III\Source\os_mutex.c ****                  (p_tcb_owner->Prio !=  p_mutex->OwnerOriginalPrio)) {
 277              		.loc 1 235 0
 278 00da 7B6A     		ldr	r3, [r7, #36]
 279 00dc 93F83720 		ldrb	r2, [r3, #55]	@ zero_extendqisi2
 280 00e0 FB68     		ldr	r3, [r7, #12]
 281 00e2 93F82430 		ldrb	r3, [r3, #36]	@ zero_extendqisi2
 282              		.loc 1 234 0
 283 00e6 9A42     		cmp	r2, r3
 284 00e8 40D0     		beq	.L18
 236:C:\Micrium\Software\uCOS-III\Source\os_mutex.c ****                  switch (p_tcb_owner->TaskState) {                         /* yes                  
 285              		.loc 1 236 0
 286 00ea 7B6A     		ldr	r3, [r7, #36]
 287 00ec 93F83630 		ldrb	r3, [r3, #54]	@ zero_extendqisi2
 288 00f0 072B     		cmp	r3, #7
 289 00f2 31D8     		bhi	.L19
 290 00f4 4FF00102 		mov	r2, #1
 291 00f8 02FA03F3 		lsl	r3, r2, r3
 292 00fc 03F0CC02 		and	r2, r3, #204
 293 0100 002A     		cmp	r2, #0
 294 0102 21D1     		bne	.L22
 295 0104 03F03202 		and	r2, r3, #50
 296 0108 002A     		cmp	r2, #0
 297 010a 16D1     		bne	.L21
 298 010c 03F00103 		and	r3, r3, #1
 299 0110 002B     		cmp	r3, #0
 300 0112 21D0     		beq	.L19
 301              	.L20:
 237:C:\Micrium\Software\uCOS-III\Source\os_mutex.c ****                      case OS_TASK_STATE_RDY:
 238:C:\Micrium\Software\uCOS-III\Source\os_mutex.c ****                           OS_RdyListRemove(p_tcb_owner);
 302              		.loc 1 238 0
 303 0114 786A     		ldr	r0, [r7, #36]
 304 0116 FFF7FEFF 		bl	OS_RdyListRemove
 239:C:\Micrium\Software\uCOS-III\Source\os_mutex.c ****                           p_tcb_owner->Prio = p_mutex->OwnerOriginalPrio;  /* Lower owner's prio ba
 305              		.loc 1 239 0
 306 011a FB68     		ldr	r3, [r7, #12]
 307 011c 93F82420 		ldrb	r2, [r3, #36]	@ zero_extendqisi2
 308 0120 7B6A     		ldr	r3, [r7, #36]
 309 0122 83F83720 		strb	r2, [r3, #55]
 240:C:\Micrium\Software\uCOS-III\Source\os_mutex.c ****                           OS_PrioInsert(p_tcb_owner->Prio);
 310              		.loc 1 240 0
 311 0126 7B6A     		ldr	r3, [r7, #36]
 312 0128 93F83730 		ldrb	r3, [r3, #55]	@ zero_extendqisi2
 313 012c 1846     		mov	r0, r3
 314 012e FFF7FEFF 		bl	OS_PrioInsert
 241:C:\Micrium\Software\uCOS-III\Source\os_mutex.c ****                           OS_RdyListInsertTail(p_tcb_owner);               /* Insert owner in ready
 315              		.loc 1 241 0
 316 0132 786A     		ldr	r0, [r7, #36]
 317 0134 FFF7FEFF 		bl	OS_RdyListInsertTail
 242:C:\Micrium\Software\uCOS-III\Source\os_mutex.c ****                           break;
 318              		.loc 1 242 0
 319 0138 18E0     		b	.L18
 320              	.L21:
 243:C:\Micrium\Software\uCOS-III\Source\os_mutex.c **** 
 244:C:\Micrium\Software\uCOS-III\Source\os_mutex.c ****                      case OS_TASK_STATE_DLY:
 245:C:\Micrium\Software\uCOS-III\Source\os_mutex.c ****                      case OS_TASK_STATE_SUSPENDED:
 246:C:\Micrium\Software\uCOS-III\Source\os_mutex.c ****                      case OS_TASK_STATE_DLY_SUSPENDED:
ARM GAS  C:\Users\daniel01\AppData\Local\Temp\ccg4pOSx.s 			page 11


 247:C:\Micrium\Software\uCOS-III\Source\os_mutex.c ****                           p_tcb_owner->Prio = p_mutex->OwnerOriginalPrio;  /* Not in any pend list,
 321              		.loc 1 247 0
 322 013a FB68     		ldr	r3, [r7, #12]
 323 013c 93F82420 		ldrb	r2, [r3, #36]	@ zero_extendqisi2
 324 0140 7B6A     		ldr	r3, [r7, #36]
 325 0142 83F83720 		strb	r2, [r3, #55]
 248:C:\Micrium\Software\uCOS-III\Source\os_mutex.c ****                           break;
 326              		.loc 1 248 0
 327 0146 11E0     		b	.L18
 328              	.L22:
 249:C:\Micrium\Software\uCOS-III\Source\os_mutex.c **** 
 250:C:\Micrium\Software\uCOS-III\Source\os_mutex.c ****                      case OS_TASK_STATE_PEND:
 251:C:\Micrium\Software\uCOS-III\Source\os_mutex.c ****                      case OS_TASK_STATE_PEND_TIMEOUT:
 252:C:\Micrium\Software\uCOS-III\Source\os_mutex.c ****                      case OS_TASK_STATE_PEND_SUSPENDED:
 253:C:\Micrium\Software\uCOS-III\Source\os_mutex.c ****                      case OS_TASK_STATE_PEND_TIMEOUT_SUSPENDED:
 254:C:\Micrium\Software\uCOS-III\Source\os_mutex.c ****                           OS_PendListChangePrio(p_tcb_owner,               /* Owner is pending on a
 329              		.loc 1 254 0
 330 0148 FB68     		ldr	r3, [r7, #12]
 331 014a 93F82430 		ldrb	r3, [r3, #36]	@ zero_extendqisi2
 332 014e 786A     		ldr	r0, [r7, #36]
 333 0150 1946     		mov	r1, r3
 334 0152 FFF7FEFF 		bl	OS_PendListChangePrio
 255:C:\Micrium\Software\uCOS-III\Source\os_mutex.c ****                                                 p_mutex->OwnerOriginalPrio);
 256:C:\Micrium\Software\uCOS-III\Source\os_mutex.c ****                           break;
 335              		.loc 1 256 0
 336 0156 09E0     		b	.L18
 337              	.L19:
 257:C:\Micrium\Software\uCOS-III\Source\os_mutex.c **** 
 258:C:\Micrium\Software\uCOS-III\Source\os_mutex.c ****                      default:
 259:C:\Micrium\Software\uCOS-III\Source\os_mutex.c ****                           OS_CRITICAL_EXIT();
 338              		.loc 1 259 0
 339 0158 F86A     		ldr	r0, [r7, #44]
 340 015a FFF7FEFF 		bl	CPU_SR_Restore
 260:C:\Micrium\Software\uCOS-III\Source\os_mutex.c ****                          *p_err = OS_ERR_STATE_INVALID;
 341              		.loc 1 260 0
 342 015e 7B68     		ldr	r3, [r7, #4]
 343 0160 46F62D62 		movw	r2, #28205
 344 0164 1A80     		strh	r2, [r3, #0]	@ movhi
 261:C:\Micrium\Software\uCOS-III\Source\os_mutex.c ****                           return ((OS_OBJ_QTY)0);
 345              		.loc 1 261 0
 346 0166 4FF00003 		mov	r3, #0
 347 016a 3CE0     		b	.L8
 348              	.L18:
 262:C:\Micrium\Software\uCOS-III\Source\os_mutex.c ****                  }
 263:C:\Micrium\Software\uCOS-III\Source\os_mutex.c ****              }
 264:C:\Micrium\Software\uCOS-III\Source\os_mutex.c **** 
 265:C:\Micrium\Software\uCOS-III\Source\os_mutex.c ****              ts = OS_TS_GET();                                             /* Get timestamp        
 349              		.loc 1 265 0
 350 016c FFF7FEFF 		bl	CPU_TS_TmrRd
 351 0170 0346     		mov	r3, r0
 352 0172 BB62     		str	r3, [r7, #40]
 266:C:\Micrium\Software\uCOS-III\Source\os_mutex.c ****              while (cnt > 0u) {                                            /* Remove all tasks from
 353              		.loc 1 266 0
 354 0174 0FE0     		b	.L23
 355              	.L24:
 267:C:\Micrium\Software\uCOS-III\Source\os_mutex.c ****                  p_pend_data = p_pend_list->HeadPtr;
 356              		.loc 1 267 0
ARM GAS  C:\Users\daniel01\AppData\Local\Temp\ccg4pOSx.s 			page 12


 357 0176 FB69     		ldr	r3, [r7, #28]
 358 0178 1B68     		ldr	r3, [r3, #0]
 359 017a BB61     		str	r3, [r7, #24]
 268:C:\Micrium\Software\uCOS-III\Source\os_mutex.c ****                  p_tcb       = p_pend_data->TCBPtr;
 360              		.loc 1 268 0
 361 017c BB69     		ldr	r3, [r7, #24]
 362 017e 9B68     		ldr	r3, [r3, #8]
 363 0180 3B62     		str	r3, [r7, #32]
 269:C:\Micrium\Software\uCOS-III\Source\os_mutex.c ****                  OS_PendObjDel((OS_PEND_OBJ *)((void *)p_mutex),
 364              		.loc 1 269 0
 365 0182 FB68     		ldr	r3, [r7, #12]
 366 0184 1846     		mov	r0, r3
 367 0186 396A     		ldr	r1, [r7, #32]
 368 0188 BA6A     		ldr	r2, [r7, #40]
 369 018a FFF7FEFF 		bl	OS_PendObjDel
 270:C:\Micrium\Software\uCOS-III\Source\os_mutex.c ****                                p_tcb,
 271:C:\Micrium\Software\uCOS-III\Source\os_mutex.c ****                                ts);
 272:C:\Micrium\Software\uCOS-III\Source\os_mutex.c ****                  cnt--;
 370              		.loc 1 272 0
 371 018e BB8A     		ldrh	r3, [r7, #20]	@ movhi
 372 0190 03F1FF33 		add	r3, r3, #-1
 373 0194 BB82     		strh	r3, [r7, #20]	@ movhi
 374              	.L23:
 375              		.loc 1 266 0
 376 0196 BB8A     		ldrh	r3, [r7, #20]
 377 0198 002B     		cmp	r3, #0
 378 019a ECD1     		bne	.L24
 273:C:\Micrium\Software\uCOS-III\Source\os_mutex.c ****              }
 274:C:\Micrium\Software\uCOS-III\Source\os_mutex.c **** #if OS_CFG_DBG_EN > 0u
 275:C:\Micrium\Software\uCOS-III\Source\os_mutex.c ****              OS_MutexDbgListRemove(p_mutex);
 379              		.loc 1 275 0
 380 019c F868     		ldr	r0, [r7, #12]
 381 019e FFF7FEFF 		bl	OS_MutexDbgListRemove
 276:C:\Micrium\Software\uCOS-III\Source\os_mutex.c **** #endif
 277:C:\Micrium\Software\uCOS-III\Source\os_mutex.c ****              OSMutexQty--;
 382              		.loc 1 277 0
 383 01a2 40F20003 		movw	r3, #:lower16:OSMutexQty
 384 01a6 C0F20003 		movt	r3, #:upper16:OSMutexQty
 385 01aa 1B88     		ldrh	r3, [r3, #0]
 386 01ac 03F1FF33 		add	r3, r3, #-1
 387 01b0 9AB2     		uxth	r2, r3
 388 01b2 40F20003 		movw	r3, #:lower16:OSMutexQty
 389 01b6 C0F20003 		movt	r3, #:upper16:OSMutexQty
 390 01ba 1A80     		strh	r2, [r3, #0]	@ movhi
 278:C:\Micrium\Software\uCOS-III\Source\os_mutex.c ****              OS_MutexClr(p_mutex);
 391              		.loc 1 278 0
 392 01bc F868     		ldr	r0, [r7, #12]
 393 01be FFF7FEFF 		bl	OS_MutexClr
 279:C:\Micrium\Software\uCOS-III\Source\os_mutex.c ****              OS_CRITICAL_EXIT_NO_SCHED();
 394              		.loc 1 279 0
 395 01c2 F86A     		ldr	r0, [r7, #44]
 396 01c4 FFF7FEFF 		bl	CPU_SR_Restore
 280:C:\Micrium\Software\uCOS-III\Source\os_mutex.c ****              OSSched();                                                    /* Find highest priority
 397              		.loc 1 280 0
 398 01c8 FFF7FEFF 		bl	OSSched
 281:C:\Micrium\Software\uCOS-III\Source\os_mutex.c ****             *p_err = OS_ERR_NONE;
 399              		.loc 1 281 0
ARM GAS  C:\Users\daniel01\AppData\Local\Temp\ccg4pOSx.s 			page 13


 400 01cc 7B68     		ldr	r3, [r7, #4]
 401 01ce 4FF00002 		mov	r2, #0
 402 01d2 1A80     		strh	r2, [r3, #0]	@ movhi
 282:C:\Micrium\Software\uCOS-III\Source\os_mutex.c ****              break;
 403              		.loc 1 282 0
 404 01d4 06E0     		b	.L17
 405              	.L26:
 283:C:\Micrium\Software\uCOS-III\Source\os_mutex.c **** 
 284:C:\Micrium\Software\uCOS-III\Source\os_mutex.c ****         default:
 285:C:\Micrium\Software\uCOS-III\Source\os_mutex.c ****              OS_CRITICAL_EXIT();
 406              		.loc 1 285 0
 407 01d6 F86A     		ldr	r0, [r7, #44]
 408 01d8 FFF7FEFF 		bl	CPU_SR_Restore
 286:C:\Micrium\Software\uCOS-III\Source\os_mutex.c ****             *p_err = OS_ERR_OPT_INVALID;
 409              		.loc 1 286 0
 410 01dc 7B68     		ldr	r3, [r7, #4]
 411 01de 45F62562 		movw	r2, #24101
 412 01e2 1A80     		strh	r2, [r3, #0]	@ movhi
 413              	.L17:
 287:C:\Micrium\Software\uCOS-III\Source\os_mutex.c ****              break;
 288:C:\Micrium\Software\uCOS-III\Source\os_mutex.c ****     }
 289:C:\Micrium\Software\uCOS-III\Source\os_mutex.c ****     return (nbr_tasks);
 414              		.loc 1 289 0
 415 01e4 FB8A     		ldrh	r3, [r7, #22]
 416              	.L8:
 290:C:\Micrium\Software\uCOS-III\Source\os_mutex.c **** }
 417              		.loc 1 290 0
 418 01e6 1846     		mov	r0, r3
 419 01e8 07F13007 		add	r7, r7, #48
 420 01ec BD46     		mov	sp, r7
 421 01ee 80BD     		pop	{r7, pc}
 422              		.cfi_endproc
 423              	.LFE1:
 424              		.size	OSMutexDel, .-OSMutexDel
 425              		.section	.text.OSMutexPend,"ax",%progbits
 426              		.align	2
 427              		.global	OSMutexPend
 428              		.thumb
 429              		.thumb_func
 430              		.type	OSMutexPend, %function
 431              	OSMutexPend:
 432              	.LFB2:
 291:C:\Micrium\Software\uCOS-III\Source\os_mutex.c **** #endif
 292:C:\Micrium\Software\uCOS-III\Source\os_mutex.c **** 
 293:C:\Micrium\Software\uCOS-III\Source\os_mutex.c **** /*$PAGE*/
 294:C:\Micrium\Software\uCOS-III\Source\os_mutex.c **** /*
 295:C:\Micrium\Software\uCOS-III\Source\os_mutex.c **** ***************************************************************************************************
 296:C:\Micrium\Software\uCOS-III\Source\os_mutex.c **** *                                                    PEND ON MUTEX
 297:C:\Micrium\Software\uCOS-III\Source\os_mutex.c **** *
 298:C:\Micrium\Software\uCOS-III\Source\os_mutex.c **** * Description: This function waits for a mutex.
 299:C:\Micrium\Software\uCOS-III\Source\os_mutex.c **** *
 300:C:\Micrium\Software\uCOS-III\Source\os_mutex.c **** * Arguments  : p_mutex       is a pointer to the mutex
 301:C:\Micrium\Software\uCOS-III\Source\os_mutex.c **** *
 302:C:\Micrium\Software\uCOS-III\Source\os_mutex.c **** *              timeout       is an optional timeout period (in clock ticks).  If non-zero, your tas
 303:C:\Micrium\Software\uCOS-III\Source\os_mutex.c **** *                            resource up to the amount of time (in 'ticks') specified by this argum
 304:C:\Micrium\Software\uCOS-III\Source\os_mutex.c **** *                            0, however, your task will wait forever at the specified mutex or, unt
 305:C:\Micrium\Software\uCOS-III\Source\os_mutex.c **** *                            becomes available.
ARM GAS  C:\Users\daniel01\AppData\Local\Temp\ccg4pOSx.s 			page 14


 306:C:\Micrium\Software\uCOS-III\Source\os_mutex.c **** *
 307:C:\Micrium\Software\uCOS-III\Source\os_mutex.c **** *              opt           determines whether the user wants to block if the mutex is not availab
 308:C:\Micrium\Software\uCOS-III\Source\os_mutex.c **** *
 309:C:\Micrium\Software\uCOS-III\Source\os_mutex.c **** *                                OS_OPT_PEND_BLOCKING
 310:C:\Micrium\Software\uCOS-III\Source\os_mutex.c **** *                                OS_OPT_PEND_NON_BLOCKING
 311:C:\Micrium\Software\uCOS-III\Source\os_mutex.c **** *
 312:C:\Micrium\Software\uCOS-III\Source\os_mutex.c **** *              p_ts          is a pointer to a variable that will receive the timestamp of when the
 313:C:\Micrium\Software\uCOS-III\Source\os_mutex.c **** *                            pend aborted or the mutex deleted.  If you pass a NULL pointer (i.e. (
 314:C:\Micrium\Software\uCOS-III\Source\os_mutex.c **** *                            will not get the timestamp.  In other words, passing a NULL pointer is
 315:C:\Micrium\Software\uCOS-III\Source\os_mutex.c **** *                            that you don't need the timestamp.
 316:C:\Micrium\Software\uCOS-III\Source\os_mutex.c **** *
 317:C:\Micrium\Software\uCOS-III\Source\os_mutex.c **** *              p_err         is a pointer to a variable that will contain an error code returned by
 318:C:\Micrium\Software\uCOS-III\Source\os_mutex.c **** *
 319:C:\Micrium\Software\uCOS-III\Source\os_mutex.c **** *                                OS_ERR_NONE               The call was successful and your task ow
 320:C:\Micrium\Software\uCOS-III\Source\os_mutex.c **** *                                OS_ERR_MUTEX_OWNER        If calling task already owns the mutex
 321:C:\Micrium\Software\uCOS-III\Source\os_mutex.c **** *                                OS_ERR_OBJ_DEL            If 'p_mutex' was deleted
 322:C:\Micrium\Software\uCOS-III\Source\os_mutex.c **** *                                OS_ERR_OBJ_PTR_NULL       If 'p_mutex' is a NULL pointer.
 323:C:\Micrium\Software\uCOS-III\Source\os_mutex.c **** *                                OS_ERR_OBJ_TYPE           If 'p_mutex' is not pointing at a mutex
 324:C:\Micrium\Software\uCOS-III\Source\os_mutex.c **** *                                OS_ERR_OPT_INVALID        If you didn't specify a valid option
 325:C:\Micrium\Software\uCOS-III\Source\os_mutex.c **** *                                OS_ERR_PEND_ABORT         If the pend was aborted by another task
 326:C:\Micrium\Software\uCOS-III\Source\os_mutex.c **** *                                OS_ERR_PEND_ISR           If you called this function from an ISR 
 327:C:\Micrium\Software\uCOS-III\Source\os_mutex.c **** *                                                          would lead to a suspension.
 328:C:\Micrium\Software\uCOS-III\Source\os_mutex.c **** *                                OS_ERR_PEND_WOULD_BLOCK   If you specified non-blocking but the mu
 329:C:\Micrium\Software\uCOS-III\Source\os_mutex.c **** *                                                          available.
 330:C:\Micrium\Software\uCOS-III\Source\os_mutex.c **** *                                OS_ERR_SCHED_LOCKED       If you called this function when the sch
 331:C:\Micrium\Software\uCOS-III\Source\os_mutex.c **** *                                OS_ERR_STATE_INVALID      If the task is in an invalid state
 332:C:\Micrium\Software\uCOS-III\Source\os_mutex.c **** *                                OS_ERR_STATUS_INVALID     If the pend status has an invalid value
 333:C:\Micrium\Software\uCOS-III\Source\os_mutex.c **** *                                OS_ERR_TIMEOUT            The mutex was not received within the sp
 334:C:\Micrium\Software\uCOS-III\Source\os_mutex.c **** *
 335:C:\Micrium\Software\uCOS-III\Source\os_mutex.c **** * Returns    : none
 336:C:\Micrium\Software\uCOS-III\Source\os_mutex.c **** ***************************************************************************************************
 337:C:\Micrium\Software\uCOS-III\Source\os_mutex.c **** */
 338:C:\Micrium\Software\uCOS-III\Source\os_mutex.c **** 
 339:C:\Micrium\Software\uCOS-III\Source\os_mutex.c **** void  OSMutexPend (OS_MUTEX  *p_mutex,
 340:C:\Micrium\Software\uCOS-III\Source\os_mutex.c ****                    OS_TICK    timeout,
 341:C:\Micrium\Software\uCOS-III\Source\os_mutex.c ****                    OS_OPT     opt,
 342:C:\Micrium\Software\uCOS-III\Source\os_mutex.c ****                    CPU_TS    *p_ts,
 343:C:\Micrium\Software\uCOS-III\Source\os_mutex.c ****                    OS_ERR    *p_err)
 344:C:\Micrium\Software\uCOS-III\Source\os_mutex.c **** {
 433              		.loc 1 344 0
 434              		.cfi_startproc
 435              		@ args = 4, pretend = 0, frame = 56
 436              		@ frame_needed = 1, uses_anonymous_args = 0
 437 0000 80B5     		push	{r7, lr}
 438              	.LCFI6:
 439              		.cfi_def_cfa_offset 8
 440 0002 8EB0     		sub	sp, sp, #56
 441              	.LCFI7:
 442              		.cfi_def_cfa_offset 64
 443 0004 00AF     		add	r7, sp, #0
 444              		.cfi_offset 14, -4
 445              		.cfi_offset 7, -8
 446              	.LCFI8:
 447              		.cfi_def_cfa_register 7
 448 0006 F860     		str	r0, [r7, #12]
 449 0008 B960     		str	r1, [r7, #8]
 450 000a 3B60     		str	r3, [r7, #0]
ARM GAS  C:\Users\daniel01\AppData\Local\Temp\ccg4pOSx.s 			page 15


 451 000c 1346     		mov	r3, r2	@ movhi
 452 000e FB80     		strh	r3, [r7, #6]	@ movhi
 345:C:\Micrium\Software\uCOS-III\Source\os_mutex.c ****     OS_PEND_DATA  pend_data;
 346:C:\Micrium\Software\uCOS-III\Source\os_mutex.c ****     OS_TCB       *p_tcb;
 347:C:\Micrium\Software\uCOS-III\Source\os_mutex.c ****     CPU_SR_ALLOC();
 453              		.loc 1 347 0
 454 0010 4FF00003 		mov	r3, #0
 455 0014 7B63     		str	r3, [r7, #52]
 348:C:\Micrium\Software\uCOS-III\Source\os_mutex.c **** 
 349:C:\Micrium\Software\uCOS-III\Source\os_mutex.c **** 
 350:C:\Micrium\Software\uCOS-III\Source\os_mutex.c **** 
 351:C:\Micrium\Software\uCOS-III\Source\os_mutex.c **** #ifdef OS_SAFETY_CRITICAL
 352:C:\Micrium\Software\uCOS-III\Source\os_mutex.c ****     if (p_err == (OS_ERR *)0) {
 353:C:\Micrium\Software\uCOS-III\Source\os_mutex.c ****         OS_SAFETY_CRITICAL_EXCEPTION();
 354:C:\Micrium\Software\uCOS-III\Source\os_mutex.c ****         return;
 355:C:\Micrium\Software\uCOS-III\Source\os_mutex.c ****     }
 356:C:\Micrium\Software\uCOS-III\Source\os_mutex.c **** #endif
 357:C:\Micrium\Software\uCOS-III\Source\os_mutex.c **** 
 358:C:\Micrium\Software\uCOS-III\Source\os_mutex.c **** #if OS_CFG_CALLED_FROM_ISR_CHK_EN > 0u
 359:C:\Micrium\Software\uCOS-III\Source\os_mutex.c ****     if (OSIntNestingCtr > (OS_NESTING_CTR)0) {              /* Not allowed to call from an ISR     
 456              		.loc 1 359 0
 457 0016 40F20003 		movw	r3, #:lower16:OSIntNestingCtr
 458 001a C0F20003 		movt	r3, #:upper16:OSIntNestingCtr
 459 001e 1B78     		ldrb	r3, [r3, #0]	@ zero_extendqisi2
 460 0020 002B     		cmp	r3, #0
 461 0022 04D0     		beq	.L28
 360:C:\Micrium\Software\uCOS-III\Source\os_mutex.c ****        *p_err = OS_ERR_PEND_ISR;
 462              		.loc 1 360 0
 463 0024 3B6C     		ldr	r3, [r7, #64]
 464 0026 46F2AE12 		movw	r2, #25006
 465 002a 1A80     		strh	r2, [r3, #0]	@ movhi
 361:C:\Micrium\Software\uCOS-III\Source\os_mutex.c ****         return;
 466              		.loc 1 361 0
 467 002c 49E1     		b	.L57
 468              	.L28:
 362:C:\Micrium\Software\uCOS-III\Source\os_mutex.c ****     }
 363:C:\Micrium\Software\uCOS-III\Source\os_mutex.c **** #endif
 364:C:\Micrium\Software\uCOS-III\Source\os_mutex.c **** 
 365:C:\Micrium\Software\uCOS-III\Source\os_mutex.c **** #if OS_CFG_ARG_CHK_EN > 0u
 366:C:\Micrium\Software\uCOS-III\Source\os_mutex.c ****     if (p_mutex == (OS_MUTEX *)0) {                         /* Validate arguments                  
 469              		.loc 1 366 0
 470 002e FB68     		ldr	r3, [r7, #12]
 471 0030 002B     		cmp	r3, #0
 472 0032 04D1     		bne	.L30
 367:C:\Micrium\Software\uCOS-III\Source\os_mutex.c ****        *p_err = OS_ERR_OBJ_PTR_NULL;
 473              		.loc 1 367 0
 474 0034 3B6C     		ldr	r3, [r7, #64]
 475 0036 45F6C352 		movw	r2, #24003
 476 003a 1A80     		strh	r2, [r3, #0]	@ movhi
 368:C:\Micrium\Software\uCOS-III\Source\os_mutex.c ****         return;
 477              		.loc 1 368 0
 478 003c 41E1     		b	.L57
 479              	.L30:
 369:C:\Micrium\Software\uCOS-III\Source\os_mutex.c ****     }
 370:C:\Micrium\Software\uCOS-III\Source\os_mutex.c ****     switch (opt) {                                          /* Validate 'opt'                      
 480              		.loc 1 370 0
 481 003e FB88     		ldrh	r3, [r7, #6]
ARM GAS  C:\Users\daniel01\AppData\Local\Temp\ccg4pOSx.s 			page 16


 482 0040 002B     		cmp	r3, #0
 483 0042 02D0     		beq	.L32
 484 0044 B3F5004F 		cmp	r3, #32768
 485 0048 03D1     		bne	.L58
 486              	.L32:
 371:C:\Micrium\Software\uCOS-III\Source\os_mutex.c ****         case OS_OPT_PEND_BLOCKING:
 372:C:\Micrium\Software\uCOS-III\Source\os_mutex.c ****         case OS_OPT_PEND_NON_BLOCKING:
 373:C:\Micrium\Software\uCOS-III\Source\os_mutex.c ****              break;
 374:C:\Micrium\Software\uCOS-III\Source\os_mutex.c **** 
 375:C:\Micrium\Software\uCOS-III\Source\os_mutex.c ****         default:
 376:C:\Micrium\Software\uCOS-III\Source\os_mutex.c ****             *p_err = OS_ERR_OPT_INVALID;
 377:C:\Micrium\Software\uCOS-III\Source\os_mutex.c ****              return;
 378:C:\Micrium\Software\uCOS-III\Source\os_mutex.c ****     }
 379:C:\Micrium\Software\uCOS-III\Source\os_mutex.c **** #endif
 380:C:\Micrium\Software\uCOS-III\Source\os_mutex.c **** 
 381:C:\Micrium\Software\uCOS-III\Source\os_mutex.c **** #if OS_CFG_OBJ_TYPE_CHK_EN > 0u
 382:C:\Micrium\Software\uCOS-III\Source\os_mutex.c ****     if (p_mutex->Type != OS_OBJ_TYPE_MUTEX) {               /* Make sure mutex was created         
 383:C:\Micrium\Software\uCOS-III\Source\os_mutex.c ****        *p_err = OS_ERR_OBJ_TYPE;
 384:C:\Micrium\Software\uCOS-III\Source\os_mutex.c ****         return;
 385:C:\Micrium\Software\uCOS-III\Source\os_mutex.c ****     }
 386:C:\Micrium\Software\uCOS-III\Source\os_mutex.c **** #endif
 387:C:\Micrium\Software\uCOS-III\Source\os_mutex.c **** 
 388:C:\Micrium\Software\uCOS-III\Source\os_mutex.c ****     if (p_ts != (CPU_TS *)0) {
 487              		.loc 1 388 0
 488 004a 3B68     		ldr	r3, [r7, #0]
 489 004c 002B     		cmp	r3, #0
 490 004e 05D1     		bne	.L33
 491 0050 08E0     		b	.L34
 492              	.L58:
 493              		.loc 1 376 0
 494 0052 3B6C     		ldr	r3, [r7, #64]
 495 0054 45F62562 		movw	r2, #24101
 496 0058 1A80     		strh	r2, [r3, #0]	@ movhi
 497              		.loc 1 377 0
 498 005a 32E1     		b	.L57
 499              	.L33:
 389:C:\Micrium\Software\uCOS-III\Source\os_mutex.c ****        *p_ts  = (CPU_TS  )0;                                /* Initialize the returned timestamp   
 500              		.loc 1 389 0
 501 005c 3B68     		ldr	r3, [r7, #0]
 502 005e 4FF00002 		mov	r2, #0
 503 0062 1A60     		str	r2, [r3, #0]
 504              	.L34:
 390:C:\Micrium\Software\uCOS-III\Source\os_mutex.c ****     }
 391:C:\Micrium\Software\uCOS-III\Source\os_mutex.c **** 
 392:C:\Micrium\Software\uCOS-III\Source\os_mutex.c ****     CPU_CRITICAL_ENTER();
 505              		.loc 1 392 0
 506 0064 FFF7FEFF 		bl	CPU_SR_Save
 507 0068 0346     		mov	r3, r0
 508 006a 7B63     		str	r3, [r7, #52]
 393:C:\Micrium\Software\uCOS-III\Source\os_mutex.c ****     if (p_mutex->OwnerNestingCtr == (OS_NESTING_CTR)0) {    /* Resource available?                 
 509              		.loc 1 393 0
 510 006c FB68     		ldr	r3, [r7, #12]
 511 006e 93F82530 		ldrb	r3, [r3, #37]	@ zero_extendqisi2
 512 0072 002B     		cmp	r3, #0
 513 0074 24D1     		bne	.L35
 394:C:\Micrium\Software\uCOS-III\Source\os_mutex.c ****         p_mutex->OwnerTCBPtr       =  OSTCBCurPtr;          /* Yes, caller may proceed             
 514              		.loc 1 394 0
ARM GAS  C:\Users\daniel01\AppData\Local\Temp\ccg4pOSx.s 			page 17


 515 0076 40F20003 		movw	r3, #:lower16:OSTCBCurPtr
 516 007a C0F20003 		movt	r3, #:upper16:OSTCBCurPtr
 517 007e 1A68     		ldr	r2, [r3, #0]
 518 0080 FB68     		ldr	r3, [r7, #12]
 519 0082 1A62     		str	r2, [r3, #32]
 395:C:\Micrium\Software\uCOS-III\Source\os_mutex.c ****         p_mutex->OwnerOriginalPrio =  OSTCBCurPtr->Prio;
 520              		.loc 1 395 0
 521 0084 40F20003 		movw	r3, #:lower16:OSTCBCurPtr
 522 0088 C0F20003 		movt	r3, #:upper16:OSTCBCurPtr
 523 008c 1B68     		ldr	r3, [r3, #0]
 524 008e 93F83720 		ldrb	r2, [r3, #55]	@ zero_extendqisi2
 525 0092 FB68     		ldr	r3, [r7, #12]
 526 0094 83F82420 		strb	r2, [r3, #36]
 396:C:\Micrium\Software\uCOS-III\Source\os_mutex.c ****         p_mutex->OwnerNestingCtr   = (OS_NESTING_CTR)1;
 527              		.loc 1 396 0
 528 0098 FB68     		ldr	r3, [r7, #12]
 529 009a 4FF00102 		mov	r2, #1
 530 009e 83F82520 		strb	r2, [r3, #37]
 397:C:\Micrium\Software\uCOS-III\Source\os_mutex.c ****         if (p_ts != (CPU_TS *)0) {
 531              		.loc 1 397 0
 532 00a2 3B68     		ldr	r3, [r7, #0]
 533 00a4 002B     		cmp	r3, #0
 534 00a6 03D0     		beq	.L36
 398:C:\Micrium\Software\uCOS-III\Source\os_mutex.c ****            *p_ts  = p_mutex->TS;
 535              		.loc 1 398 0
 536 00a8 FB68     		ldr	r3, [r7, #12]
 537 00aa 9A6A     		ldr	r2, [r3, #40]
 538 00ac 3B68     		ldr	r3, [r7, #0]
 539 00ae 1A60     		str	r2, [r3, #0]
 540              	.L36:
 399:C:\Micrium\Software\uCOS-III\Source\os_mutex.c ****         }
 400:C:\Micrium\Software\uCOS-III\Source\os_mutex.c ****         CPU_CRITICAL_EXIT();
 541              		.loc 1 400 0
 542 00b0 786B     		ldr	r0, [r7, #52]
 543 00b2 FFF7FEFF 		bl	CPU_SR_Restore
 401:C:\Micrium\Software\uCOS-III\Source\os_mutex.c ****        *p_err = OS_ERR_NONE;
 544              		.loc 1 401 0
 545 00b6 3B6C     		ldr	r3, [r7, #64]
 546 00b8 4FF00002 		mov	r2, #0
 547 00bc 1A80     		strh	r2, [r3, #0]	@ movhi
 402:C:\Micrium\Software\uCOS-III\Source\os_mutex.c ****         return;
 548              		.loc 1 402 0
 549 00be 00E1     		b	.L57
 550              	.L35:
 403:C:\Micrium\Software\uCOS-III\Source\os_mutex.c ****     }
 404:C:\Micrium\Software\uCOS-III\Source\os_mutex.c **** 
 405:C:\Micrium\Software\uCOS-III\Source\os_mutex.c ****     if (OSTCBCurPtr == p_mutex->OwnerTCBPtr) {              /* See if current task is already the o
 551              		.loc 1 405 0
 552 00c0 FB68     		ldr	r3, [r7, #12]
 553 00c2 1A6A     		ldr	r2, [r3, #32]
 554 00c4 40F20003 		movw	r3, #:lower16:OSTCBCurPtr
 555 00c8 C0F20003 		movt	r3, #:upper16:OSTCBCurPtr
 556 00cc 1B68     		ldr	r3, [r3, #0]
 557 00ce 9A42     		cmp	r2, r3
 558 00d0 17D1     		bne	.L37
 406:C:\Micrium\Software\uCOS-III\Source\os_mutex.c ****         p_mutex->OwnerNestingCtr++;
 559              		.loc 1 406 0
ARM GAS  C:\Users\daniel01\AppData\Local\Temp\ccg4pOSx.s 			page 18


 560 00d2 FB68     		ldr	r3, [r7, #12]
 561 00d4 93F82530 		ldrb	r3, [r3, #37]	@ zero_extendqisi2
 562 00d8 03F10103 		add	r3, r3, #1
 563 00dc DAB2     		uxtb	r2, r3
 564 00de FB68     		ldr	r3, [r7, #12]
 565 00e0 83F82520 		strb	r2, [r3, #37]
 407:C:\Micrium\Software\uCOS-III\Source\os_mutex.c ****         if (p_ts != (CPU_TS *)0) {
 566              		.loc 1 407 0
 567 00e4 3B68     		ldr	r3, [r7, #0]
 568 00e6 002B     		cmp	r3, #0
 569 00e8 03D0     		beq	.L38
 408:C:\Micrium\Software\uCOS-III\Source\os_mutex.c ****            *p_ts  = p_mutex->TS;
 570              		.loc 1 408 0
 571 00ea FB68     		ldr	r3, [r7, #12]
 572 00ec 9A6A     		ldr	r2, [r3, #40]
 573 00ee 3B68     		ldr	r3, [r7, #0]
 574 00f0 1A60     		str	r2, [r3, #0]
 575              	.L38:
 409:C:\Micrium\Software\uCOS-III\Source\os_mutex.c ****         }
 410:C:\Micrium\Software\uCOS-III\Source\os_mutex.c ****         CPU_CRITICAL_EXIT();
 576              		.loc 1 410 0
 577 00f2 786B     		ldr	r0, [r7, #52]
 578 00f4 FFF7FEFF 		bl	CPU_SR_Restore
 411:C:\Micrium\Software\uCOS-III\Source\os_mutex.c ****        *p_err = OS_ERR_MUTEX_OWNER;                         /* Indicate that current task already o
 579              		.loc 1 411 0
 580 00f8 3B6C     		ldr	r3, [r7, #64]
 581 00fa 45F28272 		movw	r2, #22402
 582 00fe 1A80     		strh	r2, [r3, #0]	@ movhi
 412:C:\Micrium\Software\uCOS-III\Source\os_mutex.c ****         return;
 583              		.loc 1 412 0
 584 0100 DFE0     		b	.L57
 585              	.L37:
 413:C:\Micrium\Software\uCOS-III\Source\os_mutex.c ****     }
 414:C:\Micrium\Software\uCOS-III\Source\os_mutex.c **** 
 415:C:\Micrium\Software\uCOS-III\Source\os_mutex.c ****     if ((opt & OS_OPT_PEND_NON_BLOCKING) != (OS_OPT)0) {    /* Caller wants to block if not availab
 586              		.loc 1 415 0
 587 0102 FB88     		ldrh	r3, [r7, #6]
 588 0104 1BB2     		sxth	r3, r3
 589 0106 002B     		cmp	r3, #0
 590 0108 07DA     		bge	.L39
 416:C:\Micrium\Software\uCOS-III\Source\os_mutex.c ****         CPU_CRITICAL_EXIT();
 591              		.loc 1 416 0
 592 010a 786B     		ldr	r0, [r7, #52]
 593 010c FFF7FEFF 		bl	CPU_SR_Restore
 417:C:\Micrium\Software\uCOS-III\Source\os_mutex.c ****        *p_err = OS_ERR_PEND_WOULD_BLOCK;                    /* No                                  
 594              		.loc 1 417 0
 595 0110 3B6C     		ldr	r3, [r7, #64]
 596 0112 46F2B012 		movw	r2, #25008
 597 0116 1A80     		strh	r2, [r3, #0]	@ movhi
 418:C:\Micrium\Software\uCOS-III\Source\os_mutex.c ****         return;
 598              		.loc 1 418 0
 599 0118 D3E0     		b	.L57
 600              	.L39:
 419:C:\Micrium\Software\uCOS-III\Source\os_mutex.c ****     } else {
 420:C:\Micrium\Software\uCOS-III\Source\os_mutex.c ****         if (OSSchedLockNestingCtr > (OS_NESTING_CTR)0) {    /* Can't pend when the scheduler is loc
 601              		.loc 1 420 0
 602 011a 40F20003 		movw	r3, #:lower16:OSSchedLockNestingCtr
ARM GAS  C:\Users\daniel01\AppData\Local\Temp\ccg4pOSx.s 			page 19


 603 011e C0F20003 		movt	r3, #:upper16:OSSchedLockNestingCtr
 604 0122 1B78     		ldrb	r3, [r3, #0]	@ zero_extendqisi2
 605 0124 002B     		cmp	r3, #0
 606 0126 07D0     		beq	.L40
 421:C:\Micrium\Software\uCOS-III\Source\os_mutex.c ****             CPU_CRITICAL_EXIT();
 607              		.loc 1 421 0
 608 0128 786B     		ldr	r0, [r7, #52]
 609 012a FFF7FEFF 		bl	CPU_SR_Restore
 422:C:\Micrium\Software\uCOS-III\Source\os_mutex.c ****            *p_err = OS_ERR_SCHED_LOCKED;
 610              		.loc 1 422 0
 611 012e 3B6C     		ldr	r3, [r7, #64]
 612 0130 46F66352 		movw	r2, #28003
 613 0134 1A80     		strh	r2, [r3, #0]	@ movhi
 423:C:\Micrium\Software\uCOS-III\Source\os_mutex.c ****             return;
 614              		.loc 1 423 0
 615 0136 C4E0     		b	.L57
 616              	.L40:
 424:C:\Micrium\Software\uCOS-III\Source\os_mutex.c ****         }
 425:C:\Micrium\Software\uCOS-III\Source\os_mutex.c ****     }
 426:C:\Micrium\Software\uCOS-III\Source\os_mutex.c ****                                                             /* Lock the scheduler/re-enable interru
 427:C:\Micrium\Software\uCOS-III\Source\os_mutex.c ****     OS_CRITICAL_ENTER_CPU_EXIT();
 428:C:\Micrium\Software\uCOS-III\Source\os_mutex.c ****     p_tcb = p_mutex->OwnerTCBPtr;                           /* Point to the TCB of the Mutex owner 
 617              		.loc 1 428 0
 618 0138 FB68     		ldr	r3, [r7, #12]
 619 013a 1B6A     		ldr	r3, [r3, #32]
 620 013c 3B63     		str	r3, [r7, #48]
 429:C:\Micrium\Software\uCOS-III\Source\os_mutex.c ****     if (p_tcb->Prio > OSTCBCurPtr->Prio) {                  /* See if mutex owner has a lower prior
 621              		.loc 1 429 0
 622 013e 3B6B     		ldr	r3, [r7, #48]
 623 0140 93F83720 		ldrb	r2, [r3, #55]	@ zero_extendqisi2
 624 0144 40F20003 		movw	r3, #:lower16:OSTCBCurPtr
 625 0148 C0F20003 		movt	r3, #:upper16:OSTCBCurPtr
 626 014c 1B68     		ldr	r3, [r3, #0]
 627 014e 93F83730 		ldrb	r3, [r3, #55]	@ zero_extendqisi2
 628 0152 9A42     		cmp	r2, r3
 629 0154 4AD9     		bls	.L41
 430:C:\Micrium\Software\uCOS-III\Source\os_mutex.c ****         switch (p_tcb->TaskState) {
 630              		.loc 1 430 0
 631 0156 3B6B     		ldr	r3, [r7, #48]
 632 0158 93F83630 		ldrb	r3, [r3, #54]	@ zero_extendqisi2
 633 015c 072B     		cmp	r3, #7
 634 015e 3DD8     		bhi	.L42
 635 0160 4FF00102 		mov	r2, #1
 636 0164 02FA03F3 		lsl	r3, r2, r3
 637 0168 03F0CC02 		and	r2, r3, #204
 638 016c 002A     		cmp	r2, #0
 639 016e 29D1     		bne	.L45
 640 0170 03F03202 		and	r2, r3, #50
 641 0174 002A     		cmp	r2, #0
 642 0176 1AD1     		bne	.L44
 643 0178 03F00103 		and	r3, r3, #1
 644 017c 002B     		cmp	r3, #0
 645 017e 2DD0     		beq	.L42
 646              	.L43:
 431:C:\Micrium\Software\uCOS-III\Source\os_mutex.c ****             case OS_TASK_STATE_RDY:
 432:C:\Micrium\Software\uCOS-III\Source\os_mutex.c ****                  OS_RdyListRemove(p_tcb);                   /* Remove from ready list at current pr
 647              		.loc 1 432 0
ARM GAS  C:\Users\daniel01\AppData\Local\Temp\ccg4pOSx.s 			page 20


 648 0180 386B     		ldr	r0, [r7, #48]
 649 0182 FFF7FEFF 		bl	OS_RdyListRemove
 433:C:\Micrium\Software\uCOS-III\Source\os_mutex.c ****                  p_tcb->Prio = OSTCBCurPtr->Prio;           /* Raise owner's priority              
 650              		.loc 1 433 0
 651 0186 40F20003 		movw	r3, #:lower16:OSTCBCurPtr
 652 018a C0F20003 		movt	r3, #:upper16:OSTCBCurPtr
 653 018e 1B68     		ldr	r3, [r3, #0]
 654 0190 93F83720 		ldrb	r2, [r3, #55]	@ zero_extendqisi2
 655 0194 3B6B     		ldr	r3, [r7, #48]
 656 0196 83F83720 		strb	r2, [r3, #55]
 434:C:\Micrium\Software\uCOS-III\Source\os_mutex.c ****                  OS_PrioInsert(p_tcb->Prio);
 657              		.loc 1 434 0
 658 019a 3B6B     		ldr	r3, [r7, #48]
 659 019c 93F83730 		ldrb	r3, [r3, #55]	@ zero_extendqisi2
 660 01a0 1846     		mov	r0, r3
 661 01a2 FFF7FEFF 		bl	OS_PrioInsert
 435:C:\Micrium\Software\uCOS-III\Source\os_mutex.c ****                  OS_RdyListInsertHead(p_tcb);               /* Insert in ready list at new priority
 662              		.loc 1 435 0
 663 01a6 386B     		ldr	r0, [r7, #48]
 664 01a8 FFF7FEFF 		bl	OS_RdyListInsertHead
 436:C:\Micrium\Software\uCOS-III\Source\os_mutex.c ****                  break;
 665              		.loc 1 436 0
 666 01ac 1EE0     		b	.L41
 667              	.L44:
 437:C:\Micrium\Software\uCOS-III\Source\os_mutex.c **** 
 438:C:\Micrium\Software\uCOS-III\Source\os_mutex.c ****             case OS_TASK_STATE_DLY:
 439:C:\Micrium\Software\uCOS-III\Source\os_mutex.c ****             case OS_TASK_STATE_DLY_SUSPENDED:
 440:C:\Micrium\Software\uCOS-III\Source\os_mutex.c ****             case OS_TASK_STATE_SUSPENDED:
 441:C:\Micrium\Software\uCOS-III\Source\os_mutex.c ****                  p_tcb->Prio = OSTCBCurPtr->Prio;           /* Only need to raise the owner's prior
 668              		.loc 1 441 0
 669 01ae 40F20003 		movw	r3, #:lower16:OSTCBCurPtr
 670 01b2 C0F20003 		movt	r3, #:upper16:OSTCBCurPtr
 671 01b6 1B68     		ldr	r3, [r3, #0]
 672 01b8 93F83720 		ldrb	r2, [r3, #55]	@ zero_extendqisi2
 673 01bc 3B6B     		ldr	r3, [r7, #48]
 674 01be 83F83720 		strb	r2, [r3, #55]
 442:C:\Micrium\Software\uCOS-III\Source\os_mutex.c ****                  break;
 675              		.loc 1 442 0
 676 01c2 13E0     		b	.L41
 677              	.L45:
 443:C:\Micrium\Software\uCOS-III\Source\os_mutex.c **** 
 444:C:\Micrium\Software\uCOS-III\Source\os_mutex.c ****             case OS_TASK_STATE_PEND:                        /* Change the position of the task in t
 445:C:\Micrium\Software\uCOS-III\Source\os_mutex.c ****             case OS_TASK_STATE_PEND_TIMEOUT:
 446:C:\Micrium\Software\uCOS-III\Source\os_mutex.c ****             case OS_TASK_STATE_PEND_SUSPENDED:
 447:C:\Micrium\Software\uCOS-III\Source\os_mutex.c ****             case OS_TASK_STATE_PEND_TIMEOUT_SUSPENDED:
 448:C:\Micrium\Software\uCOS-III\Source\os_mutex.c ****                  OS_PendListChangePrio(p_tcb,
 449:C:\Micrium\Software\uCOS-III\Source\os_mutex.c ****                                        OSTCBCurPtr->Prio);
 678              		.loc 1 449 0
 679 01c4 40F20003 		movw	r3, #:lower16:OSTCBCurPtr
 680 01c8 C0F20003 		movt	r3, #:upper16:OSTCBCurPtr
 681 01cc 1B68     		ldr	r3, [r3, #0]
 682              		.loc 1 448 0
 683 01ce 93F83730 		ldrb	r3, [r3, #55]	@ zero_extendqisi2
 684 01d2 386B     		ldr	r0, [r7, #48]
 685 01d4 1946     		mov	r1, r3
 686 01d6 FFF7FEFF 		bl	OS_PendListChangePrio
 450:C:\Micrium\Software\uCOS-III\Source\os_mutex.c ****                  break;
ARM GAS  C:\Users\daniel01\AppData\Local\Temp\ccg4pOSx.s 			page 21


 687              		.loc 1 450 0
 688 01da 07E0     		b	.L41
 689              	.L42:
 451:C:\Micrium\Software\uCOS-III\Source\os_mutex.c **** 
 452:C:\Micrium\Software\uCOS-III\Source\os_mutex.c ****             default:
 453:C:\Micrium\Software\uCOS-III\Source\os_mutex.c ****                  OS_CRITICAL_EXIT();
 690              		.loc 1 453 0
 691 01dc 786B     		ldr	r0, [r7, #52]
 692 01de FFF7FEFF 		bl	CPU_SR_Restore
 454:C:\Micrium\Software\uCOS-III\Source\os_mutex.c ****                 *p_err = OS_ERR_STATE_INVALID;
 693              		.loc 1 454 0
 694 01e2 3B6C     		ldr	r3, [r7, #64]
 695 01e4 46F62D62 		movw	r2, #28205
 696 01e8 1A80     		strh	r2, [r3, #0]	@ movhi
 455:C:\Micrium\Software\uCOS-III\Source\os_mutex.c ****                  return;
 697              		.loc 1 455 0
 698 01ea 6AE0     		b	.L57
 699              	.L41:
 456:C:\Micrium\Software\uCOS-III\Source\os_mutex.c ****         }
 457:C:\Micrium\Software\uCOS-III\Source\os_mutex.c ****     }
 458:C:\Micrium\Software\uCOS-III\Source\os_mutex.c **** 
 459:C:\Micrium\Software\uCOS-III\Source\os_mutex.c ****     OS_Pend(&pend_data,                                     /* Block task pending on Mutex         
 700              		.loc 1 459 0
 701 01ec FB68     		ldr	r3, [r7, #12]
 702 01ee 07F11002 		add	r2, r7, #16
 703 01f2 1046     		mov	r0, r2
 704 01f4 1946     		mov	r1, r3
 705 01f6 4FF00402 		mov	r2, #4
 706 01fa BB68     		ldr	r3, [r7, #8]
 707 01fc FFF7FEFF 		bl	OS_Pend
 460:C:\Micrium\Software\uCOS-III\Source\os_mutex.c ****             (OS_PEND_OBJ *)((void *)p_mutex),
 461:C:\Micrium\Software\uCOS-III\Source\os_mutex.c ****              OS_TASK_PEND_ON_MUTEX,
 462:C:\Micrium\Software\uCOS-III\Source\os_mutex.c ****              timeout);
 463:C:\Micrium\Software\uCOS-III\Source\os_mutex.c **** 
 464:C:\Micrium\Software\uCOS-III\Source\os_mutex.c ****     OS_CRITICAL_EXIT_NO_SCHED();
 708              		.loc 1 464 0
 709 0200 786B     		ldr	r0, [r7, #52]
 710 0202 FFF7FEFF 		bl	CPU_SR_Restore
 465:C:\Micrium\Software\uCOS-III\Source\os_mutex.c **** 
 466:C:\Micrium\Software\uCOS-III\Source\os_mutex.c ****     OSSched();                                              /* Find the next highest priority task 
 711              		.loc 1 466 0
 712 0206 FFF7FEFF 		bl	OSSched
 467:C:\Micrium\Software\uCOS-III\Source\os_mutex.c **** 
 468:C:\Micrium\Software\uCOS-III\Source\os_mutex.c ****     CPU_CRITICAL_ENTER();
 713              		.loc 1 468 0
 714 020a FFF7FEFF 		bl	CPU_SR_Save
 715 020e 0346     		mov	r3, r0
 716 0210 7B63     		str	r3, [r7, #52]
 469:C:\Micrium\Software\uCOS-III\Source\os_mutex.c ****     switch (OSTCBCurPtr->PendStatus) {
 717              		.loc 1 469 0
 718 0212 40F20003 		movw	r3, #:lower16:OSTCBCurPtr
 719 0216 C0F20003 		movt	r3, #:upper16:OSTCBCurPtr
 720 021a 1B68     		ldr	r3, [r3, #0]
 721 021c 93F83530 		ldrb	r3, [r3, #53]	@ zero_extendqisi2
 722 0220 032B     		cmp	r3, #3
 723 0222 47D8     		bhi	.L46
 724 0224 01A2     		adr	r2, .L51
ARM GAS  C:\Users\daniel01\AppData\Local\Temp\ccg4pOSx.s 			page 22


 725 0226 52F823F0 		ldr	pc, [r2, r3, lsl #2]
 726 022a 00BF     		.align	2
 727              	.L51:
 728 022c 3D020000 		.word	.L47+1
 729 0230 5D020000 		.word	.L48+1
 730 0234 95020000 		.word	.L49+1
 731 0238 7D020000 		.word	.L50+1
 732              	.L47:
 470:C:\Micrium\Software\uCOS-III\Source\os_mutex.c ****         case OS_STATUS_PEND_OK:                             /* We got the mutex                    
 471:C:\Micrium\Software\uCOS-III\Source\os_mutex.c ****              if (p_ts != (CPU_TS *)0) {
 733              		.loc 1 471 0
 734 023c 3B68     		ldr	r3, [r7, #0]
 735 023e 002B     		cmp	r3, #0
 736 0240 07D0     		beq	.L52
 472:C:\Micrium\Software\uCOS-III\Source\os_mutex.c ****                 *p_ts  = OSTCBCurPtr->TS;
 737              		.loc 1 472 0
 738 0242 40F20003 		movw	r3, #:lower16:OSTCBCurPtr
 739 0246 C0F20003 		movt	r3, #:upper16:OSTCBCurPtr
 740 024a 1B68     		ldr	r3, [r3, #0]
 741 024c 1A6C     		ldr	r2, [r3, #64]
 742 024e 3B68     		ldr	r3, [r7, #0]
 743 0250 1A60     		str	r2, [r3, #0]
 744              	.L52:
 473:C:\Micrium\Software\uCOS-III\Source\os_mutex.c ****              }
 474:C:\Micrium\Software\uCOS-III\Source\os_mutex.c ****             *p_err = OS_ERR_NONE;
 745              		.loc 1 474 0
 746 0252 3B6C     		ldr	r3, [r7, #64]
 747 0254 4FF00002 		mov	r2, #0
 748 0258 1A80     		strh	r2, [r3, #0]	@ movhi
 475:C:\Micrium\Software\uCOS-III\Source\os_mutex.c ****              break;
 749              		.loc 1 475 0
 750 025a 2FE0     		b	.L53
 751              	.L48:
 476:C:\Micrium\Software\uCOS-III\Source\os_mutex.c **** 
 477:C:\Micrium\Software\uCOS-III\Source\os_mutex.c ****         case OS_STATUS_PEND_ABORT:                          /* Indicate that we aborted            
 478:C:\Micrium\Software\uCOS-III\Source\os_mutex.c ****              if (p_ts != (CPU_TS *)0) {
 752              		.loc 1 478 0
 753 025c 3B68     		ldr	r3, [r7, #0]
 754 025e 002B     		cmp	r3, #0
 755 0260 07D0     		beq	.L54
 479:C:\Micrium\Software\uCOS-III\Source\os_mutex.c ****                 *p_ts  = OSTCBCurPtr->TS;
 756              		.loc 1 479 0
 757 0262 40F20003 		movw	r3, #:lower16:OSTCBCurPtr
 758 0266 C0F20003 		movt	r3, #:upper16:OSTCBCurPtr
 759 026a 1B68     		ldr	r3, [r3, #0]
 760 026c 1A6C     		ldr	r2, [r3, #64]
 761 026e 3B68     		ldr	r3, [r7, #0]
 762 0270 1A60     		str	r2, [r3, #0]
 763              	.L54:
 480:C:\Micrium\Software\uCOS-III\Source\os_mutex.c ****              }
 481:C:\Micrium\Software\uCOS-III\Source\os_mutex.c ****             *p_err = OS_ERR_PEND_ABORT;
 764              		.loc 1 481 0
 765 0272 3B6C     		ldr	r3, [r7, #64]
 766 0274 46F2A912 		movw	r2, #25001
 767 0278 1A80     		strh	r2, [r3, #0]	@ movhi
 482:C:\Micrium\Software\uCOS-III\Source\os_mutex.c ****              break;
 768              		.loc 1 482 0
ARM GAS  C:\Users\daniel01\AppData\Local\Temp\ccg4pOSx.s 			page 23


 769 027a 1FE0     		b	.L53
 770              	.L50:
 483:C:\Micrium\Software\uCOS-III\Source\os_mutex.c **** 
 484:C:\Micrium\Software\uCOS-III\Source\os_mutex.c ****         case OS_STATUS_PEND_TIMEOUT:                        /* Indicate that we didn't get mutex wi
 485:C:\Micrium\Software\uCOS-III\Source\os_mutex.c ****              if (p_ts != (CPU_TS *)0) {
 771              		.loc 1 485 0
 772 027c 3B68     		ldr	r3, [r7, #0]
 773 027e 002B     		cmp	r3, #0
 774 0280 03D0     		beq	.L55
 486:C:\Micrium\Software\uCOS-III\Source\os_mutex.c ****                 *p_ts  = (CPU_TS  )0;
 775              		.loc 1 486 0
 776 0282 3B68     		ldr	r3, [r7, #0]
 777 0284 4FF00002 		mov	r2, #0
 778 0288 1A60     		str	r2, [r3, #0]
 779              	.L55:
 487:C:\Micrium\Software\uCOS-III\Source\os_mutex.c ****              }
 488:C:\Micrium\Software\uCOS-III\Source\os_mutex.c ****             *p_err = OS_ERR_TIMEOUT;
 780              		.loc 1 488 0
 781 028a 3B6C     		ldr	r3, [r7, #64]
 782 028c 47F2D922 		movw	r2, #29401
 783 0290 1A80     		strh	r2, [r3, #0]	@ movhi
 489:C:\Micrium\Software\uCOS-III\Source\os_mutex.c ****              break;
 784              		.loc 1 489 0
 785 0292 13E0     		b	.L53
 786              	.L49:
 490:C:\Micrium\Software\uCOS-III\Source\os_mutex.c **** 
 491:C:\Micrium\Software\uCOS-III\Source\os_mutex.c ****         case OS_STATUS_PEND_DEL:                            /* Indicate that object pended on has b
 492:C:\Micrium\Software\uCOS-III\Source\os_mutex.c ****              if (p_ts != (CPU_TS *)0) {
 787              		.loc 1 492 0
 788 0294 3B68     		ldr	r3, [r7, #0]
 789 0296 002B     		cmp	r3, #0
 790 0298 07D0     		beq	.L56
 493:C:\Micrium\Software\uCOS-III\Source\os_mutex.c ****                 *p_ts  = OSTCBCurPtr->TS;
 791              		.loc 1 493 0
 792 029a 40F20003 		movw	r3, #:lower16:OSTCBCurPtr
 793 029e C0F20003 		movt	r3, #:upper16:OSTCBCurPtr
 794 02a2 1B68     		ldr	r3, [r3, #0]
 795 02a4 1A6C     		ldr	r2, [r3, #64]
 796 02a6 3B68     		ldr	r3, [r7, #0]
 797 02a8 1A60     		str	r2, [r3, #0]
 798              	.L56:
 494:C:\Micrium\Software\uCOS-III\Source\os_mutex.c ****              }
 495:C:\Micrium\Software\uCOS-III\Source\os_mutex.c ****             *p_err = OS_ERR_OBJ_DEL;
 799              		.loc 1 495 0
 800 02aa 3B6C     		ldr	r3, [r7, #64]
 801 02ac 45F6C252 		movw	r2, #24002
 802 02b0 1A80     		strh	r2, [r3, #0]	@ movhi
 496:C:\Micrium\Software\uCOS-III\Source\os_mutex.c ****              break;
 803              		.loc 1 496 0
 804 02b2 03E0     		b	.L53
 805              	.L46:
 497:C:\Micrium\Software\uCOS-III\Source\os_mutex.c **** 
 498:C:\Micrium\Software\uCOS-III\Source\os_mutex.c ****         default:
 499:C:\Micrium\Software\uCOS-III\Source\os_mutex.c ****             *p_err = OS_ERR_STATUS_INVALID;
 806              		.loc 1 499 0
 807 02b4 3B6C     		ldr	r3, [r7, #64]
 808 02b6 46F62E62 		movw	r2, #28206
ARM GAS  C:\Users\daniel01\AppData\Local\Temp\ccg4pOSx.s 			page 24


 809 02ba 1A80     		strh	r2, [r3, #0]	@ movhi
 810              	.L53:
 500:C:\Micrium\Software\uCOS-III\Source\os_mutex.c ****              break;
 501:C:\Micrium\Software\uCOS-III\Source\os_mutex.c ****     }
 502:C:\Micrium\Software\uCOS-III\Source\os_mutex.c ****     CPU_CRITICAL_EXIT();
 811              		.loc 1 502 0
 812 02bc 786B     		ldr	r0, [r7, #52]
 813 02be FFF7FEFF 		bl	CPU_SR_Restore
 814              	.L57:
 503:C:\Micrium\Software\uCOS-III\Source\os_mutex.c **** }
 815              		.loc 1 503 0
 816 02c2 07F13807 		add	r7, r7, #56
 817 02c6 BD46     		mov	sp, r7
 818 02c8 80BD     		pop	{r7, pc}
 819              		.cfi_endproc
 820              	.LFE2:
 821              		.size	OSMutexPend, .-OSMutexPend
 822 02ca 00BF     		.section	.text.OSMutexPendAbort,"ax",%progbits
 823              		.align	2
 824              		.global	OSMutexPendAbort
 825              		.thumb
 826              		.thumb_func
 827              		.type	OSMutexPendAbort, %function
 828              	OSMutexPendAbort:
 829              	.LFB3:
 504:C:\Micrium\Software\uCOS-III\Source\os_mutex.c **** 
 505:C:\Micrium\Software\uCOS-III\Source\os_mutex.c **** /*$PAGE*/
 506:C:\Micrium\Software\uCOS-III\Source\os_mutex.c **** /*
 507:C:\Micrium\Software\uCOS-III\Source\os_mutex.c **** ***************************************************************************************************
 508:C:\Micrium\Software\uCOS-III\Source\os_mutex.c **** *                                               ABORT WAITING ON A MUTEX
 509:C:\Micrium\Software\uCOS-III\Source\os_mutex.c **** *
 510:C:\Micrium\Software\uCOS-III\Source\os_mutex.c **** * Description: This function aborts & readies any tasks currently waiting on a mutex.  This functio
 511:C:\Micrium\Software\uCOS-III\Source\os_mutex.c **** *              to fault-abort the wait on the mutex, rather than to normally signal the mutex via O
 512:C:\Micrium\Software\uCOS-III\Source\os_mutex.c **** *
 513:C:\Micrium\Software\uCOS-III\Source\os_mutex.c **** * Arguments  : p_mutex   is a pointer to the mutex
 514:C:\Micrium\Software\uCOS-III\Source\os_mutex.c **** *
 515:C:\Micrium\Software\uCOS-III\Source\os_mutex.c **** *              opt       determines the type of ABORT performed:
 516:C:\Micrium\Software\uCOS-III\Source\os_mutex.c **** *
 517:C:\Micrium\Software\uCOS-III\Source\os_mutex.c **** *                            OS_OPT_PEND_ABORT_1          ABORT wait for a single task (HPT) waitin
 518:C:\Micrium\Software\uCOS-III\Source\os_mutex.c **** *                            OS_OPT_PEND_ABORT_ALL        ABORT wait for ALL tasks that are  waitin
 519:C:\Micrium\Software\uCOS-III\Source\os_mutex.c **** *                            OS_OPT_POST_NO_SCHED         Do not call the scheduler
 520:C:\Micrium\Software\uCOS-III\Source\os_mutex.c **** *
 521:C:\Micrium\Software\uCOS-III\Source\os_mutex.c **** *              p_err     is a pointer to a variable that will contain an error code returned by thi
 522:C:\Micrium\Software\uCOS-III\Source\os_mutex.c **** *
 523:C:\Micrium\Software\uCOS-III\Source\os_mutex.c **** *                            OS_ERR_NONE                  At least one task waiting on the mutex wa
 524:C:\Micrium\Software\uCOS-III\Source\os_mutex.c **** *                                                         informed of the aborted wait; check retur
 525:C:\Micrium\Software\uCOS-III\Source\os_mutex.c **** *                                                         number of tasks whose wait on the mutex w
 526:C:\Micrium\Software\uCOS-III\Source\os_mutex.c **** *                            OS_ERR_OBJ_PTR_NULL          If 'p_mutex' is a NULL pointer.
 527:C:\Micrium\Software\uCOS-III\Source\os_mutex.c **** *                            OS_ERR_OBJ_TYPE              If 'p_mutex' is not pointing at a mutex
 528:C:\Micrium\Software\uCOS-III\Source\os_mutex.c **** *                            OS_ERR_OPT_INVALID           If you specified an invalid option
 529:C:\Micrium\Software\uCOS-III\Source\os_mutex.c **** *                            OS_ERR_PEND_ABORT_ISR        If you attempted to call this function fr
 530:C:\Micrium\Software\uCOS-III\Source\os_mutex.c **** *                            OS_ERR_PEND_ABORT_NONE       No task were pending
 531:C:\Micrium\Software\uCOS-III\Source\os_mutex.c **** *
 532:C:\Micrium\Software\uCOS-III\Source\os_mutex.c **** * Returns    : == 0          if no tasks were waiting on the mutex, or upon error.
 533:C:\Micrium\Software\uCOS-III\Source\os_mutex.c **** *              >  0          if one or more tasks waiting on the mutex are now readied and informed
 534:C:\Micrium\Software\uCOS-III\Source\os_mutex.c **** ***************************************************************************************************
 535:C:\Micrium\Software\uCOS-III\Source\os_mutex.c **** */
ARM GAS  C:\Users\daniel01\AppData\Local\Temp\ccg4pOSx.s 			page 25


 536:C:\Micrium\Software\uCOS-III\Source\os_mutex.c **** 
 537:C:\Micrium\Software\uCOS-III\Source\os_mutex.c **** #if OS_CFG_MUTEX_PEND_ABORT_EN > 0u
 538:C:\Micrium\Software\uCOS-III\Source\os_mutex.c **** OS_OBJ_QTY  OSMutexPendAbort (OS_MUTEX  *p_mutex,
 539:C:\Micrium\Software\uCOS-III\Source\os_mutex.c ****                               OS_OPT     opt,
 540:C:\Micrium\Software\uCOS-III\Source\os_mutex.c ****                               OS_ERR    *p_err)
 541:C:\Micrium\Software\uCOS-III\Source\os_mutex.c **** {
 830              		.loc 1 541 0
 831              		.cfi_startproc
 832              		@ args = 0, pretend = 0, frame = 40
 833              		@ frame_needed = 1, uses_anonymous_args = 0
 834 0000 80B5     		push	{r7, lr}
 835              	.LCFI9:
 836              		.cfi_def_cfa_offset 8
 837 0002 8AB0     		sub	sp, sp, #40
 838              	.LCFI10:
 839              		.cfi_def_cfa_offset 48
 840 0004 00AF     		add	r7, sp, #0
 841              		.cfi_offset 14, -4
 842              		.cfi_offset 7, -8
 843              	.LCFI11:
 844              		.cfi_def_cfa_register 7
 845 0006 F860     		str	r0, [r7, #12]
 846 0008 0B46     		mov	r3, r1
 847 000a 7A60     		str	r2, [r7, #4]
 848 000c 7B81     		strh	r3, [r7, #10]	@ movhi
 542:C:\Micrium\Software\uCOS-III\Source\os_mutex.c ****     OS_PEND_LIST  *p_pend_list;
 543:C:\Micrium\Software\uCOS-III\Source\os_mutex.c ****     OS_TCB        *p_tcb;
 544:C:\Micrium\Software\uCOS-III\Source\os_mutex.c ****     CPU_TS         ts;
 545:C:\Micrium\Software\uCOS-III\Source\os_mutex.c ****     OS_OBJ_QTY     nbr_tasks;
 546:C:\Micrium\Software\uCOS-III\Source\os_mutex.c ****     CPU_SR_ALLOC();
 849              		.loc 1 546 0
 850 000e 4FF00003 		mov	r3, #0
 851 0012 7B62     		str	r3, [r7, #36]
 547:C:\Micrium\Software\uCOS-III\Source\os_mutex.c **** 
 548:C:\Micrium\Software\uCOS-III\Source\os_mutex.c **** 
 549:C:\Micrium\Software\uCOS-III\Source\os_mutex.c **** 
 550:C:\Micrium\Software\uCOS-III\Source\os_mutex.c **** #ifdef OS_SAFETY_CRITICAL
 551:C:\Micrium\Software\uCOS-III\Source\os_mutex.c ****     if (p_err == (OS_ERR *)0) {
 552:C:\Micrium\Software\uCOS-III\Source\os_mutex.c ****         OS_SAFETY_CRITICAL_EXCEPTION();
 553:C:\Micrium\Software\uCOS-III\Source\os_mutex.c ****         return ((OS_OBJ_QTY)0u);
 554:C:\Micrium\Software\uCOS-III\Source\os_mutex.c ****     }
 555:C:\Micrium\Software\uCOS-III\Source\os_mutex.c **** #endif
 556:C:\Micrium\Software\uCOS-III\Source\os_mutex.c **** 
 557:C:\Micrium\Software\uCOS-III\Source\os_mutex.c **** #if OS_CFG_CALLED_FROM_ISR_CHK_EN > 0u
 558:C:\Micrium\Software\uCOS-III\Source\os_mutex.c ****     if (OSIntNestingCtr > (OS_NESTING_CTR)0u) {             /* Not allowed to Pend Abort from an IS
 852              		.loc 1 558 0
 853 0014 40F20003 		movw	r3, #:lower16:OSIntNestingCtr
 854 0018 C0F20003 		movt	r3, #:upper16:OSIntNestingCtr
 855 001c 1B78     		ldrb	r3, [r3, #0]	@ zero_extendqisi2
 856 001e 002B     		cmp	r3, #0
 857 0020 06D0     		beq	.L60
 559:C:\Micrium\Software\uCOS-III\Source\os_mutex.c ****        *p_err =  OS_ERR_PEND_ABORT_ISR;
 858              		.loc 1 559 0
 859 0022 7B68     		ldr	r3, [r7, #4]
 860 0024 46F2AA12 		movw	r2, #25002
 861 0028 1A80     		strh	r2, [r3, #0]	@ movhi
 560:C:\Micrium\Software\uCOS-III\Source\os_mutex.c ****         return ((OS_OBJ_QTY)0u);
ARM GAS  C:\Users\daniel01\AppData\Local\Temp\ccg4pOSx.s 			page 26


 862              		.loc 1 560 0
 863 002a 4FF00003 		mov	r3, #0
 864 002e 65E0     		b	.L61
 865              	.L60:
 561:C:\Micrium\Software\uCOS-III\Source\os_mutex.c ****     }
 562:C:\Micrium\Software\uCOS-III\Source\os_mutex.c **** #endif
 563:C:\Micrium\Software\uCOS-III\Source\os_mutex.c **** 
 564:C:\Micrium\Software\uCOS-III\Source\os_mutex.c **** #if OS_CFG_ARG_CHK_EN > 0u
 565:C:\Micrium\Software\uCOS-III\Source\os_mutex.c ****     if (p_mutex == (OS_MUTEX *)0) {                         /* Validate 'p_mutex'                  
 866              		.loc 1 565 0
 867 0030 FB68     		ldr	r3, [r7, #12]
 868 0032 002B     		cmp	r3, #0
 869 0034 06D1     		bne	.L62
 566:C:\Micrium\Software\uCOS-III\Source\os_mutex.c ****        *p_err =  OS_ERR_OBJ_PTR_NULL;
 870              		.loc 1 566 0
 871 0036 7B68     		ldr	r3, [r7, #4]
 872 0038 45F6C352 		movw	r2, #24003
 873 003c 1A80     		strh	r2, [r3, #0]	@ movhi
 567:C:\Micrium\Software\uCOS-III\Source\os_mutex.c ****         return ((OS_OBJ_QTY)0u);
 874              		.loc 1 567 0
 875 003e 4FF00003 		mov	r3, #0
 876 0042 5BE0     		b	.L61
 877              	.L62:
 568:C:\Micrium\Software\uCOS-III\Source\os_mutex.c ****     }
 569:C:\Micrium\Software\uCOS-III\Source\os_mutex.c ****     switch (opt) {                                          /* Validate 'opt'                      
 878              		.loc 1 569 0
 879 0044 7B89     		ldrh	r3, [r7, #10]
 880 0046 B3F5807F 		cmp	r3, #256
 881 004a 0BD0     		beq	.L64
 882 004c B3F5807F 		cmp	r3, #256
 883 0050 02DC     		bgt	.L65
 884 0052 002B     		cmp	r3, #0
 885 0054 06D0     		beq	.L64
 886 0056 12E0     		b	.L63
 887              	.L65:
 888 0058 B3F5004F 		cmp	r3, #32768
 889 005c 02D0     		beq	.L64
 890 005e B3F5014F 		cmp	r3, #33024
 891 0062 0CD1     		bne	.L63
 892              	.L64:
 570:C:\Micrium\Software\uCOS-III\Source\os_mutex.c ****         case OS_OPT_PEND_ABORT_1:
 571:C:\Micrium\Software\uCOS-III\Source\os_mutex.c ****         case OS_OPT_PEND_ABORT_ALL:
 572:C:\Micrium\Software\uCOS-III\Source\os_mutex.c ****         case OS_OPT_PEND_ABORT_1   | OS_OPT_POST_NO_SCHED:
 573:C:\Micrium\Software\uCOS-III\Source\os_mutex.c ****         case OS_OPT_PEND_ABORT_ALL | OS_OPT_POST_NO_SCHED:
 574:C:\Micrium\Software\uCOS-III\Source\os_mutex.c ****              break;
 575:C:\Micrium\Software\uCOS-III\Source\os_mutex.c **** 
 576:C:\Micrium\Software\uCOS-III\Source\os_mutex.c ****         default:
 577:C:\Micrium\Software\uCOS-III\Source\os_mutex.c ****             *p_err =  OS_ERR_OPT_INVALID;
 578:C:\Micrium\Software\uCOS-III\Source\os_mutex.c ****              return ((OS_OBJ_QTY)0u);
 579:C:\Micrium\Software\uCOS-III\Source\os_mutex.c ****     }
 580:C:\Micrium\Software\uCOS-III\Source\os_mutex.c **** #endif
 581:C:\Micrium\Software\uCOS-III\Source\os_mutex.c **** 
 582:C:\Micrium\Software\uCOS-III\Source\os_mutex.c **** #if OS_CFG_OBJ_TYPE_CHK_EN > 0u
 583:C:\Micrium\Software\uCOS-III\Source\os_mutex.c ****     if (p_mutex->Type != OS_OBJ_TYPE_MUTEX) {               /* Make sure mutex was created         
 584:C:\Micrium\Software\uCOS-III\Source\os_mutex.c ****        *p_err =  OS_ERR_OBJ_TYPE;
 585:C:\Micrium\Software\uCOS-III\Source\os_mutex.c ****         return ((OS_OBJ_QTY)0u);
 586:C:\Micrium\Software\uCOS-III\Source\os_mutex.c ****     }
ARM GAS  C:\Users\daniel01\AppData\Local\Temp\ccg4pOSx.s 			page 27


 587:C:\Micrium\Software\uCOS-III\Source\os_mutex.c **** #endif
 588:C:\Micrium\Software\uCOS-III\Source\os_mutex.c **** 
 589:C:\Micrium\Software\uCOS-III\Source\os_mutex.c ****     CPU_CRITICAL_ENTER();
 893              		.loc 1 589 0
 894 0064 FFF7FEFF 		bl	CPU_SR_Save
 895 0068 0346     		mov	r3, r0
 896 006a 7B62     		str	r3, [r7, #36]
 590:C:\Micrium\Software\uCOS-III\Source\os_mutex.c ****     p_pend_list = &p_mutex->PendList;
 897              		.loc 1 590 0
 898 006c FB68     		ldr	r3, [r7, #12]
 899 006e 03F10803 		add	r3, r3, #8
 900 0072 7B61     		str	r3, [r7, #20]
 591:C:\Micrium\Software\uCOS-III\Source\os_mutex.c ****     if (p_pend_list->NbrEntries == (OS_OBJ_QTY)0u) {        /* Any task waiting on mutex?          
 901              		.loc 1 591 0
 902 0074 7B69     		ldr	r3, [r7, #20]
 903 0076 1B89     		ldrh	r3, [r3, #8]
 904 0078 002B     		cmp	r3, #0
 905 007a 07D0     		beq	.L66
 906 007c 10E0     		b	.L73
 907              	.L63:
 908              		.loc 1 577 0
 909 007e 7B68     		ldr	r3, [r7, #4]
 910 0080 45F62562 		movw	r2, #24101
 911 0084 1A80     		strh	r2, [r3, #0]	@ movhi
 912              		.loc 1 578 0
 913 0086 4FF00003 		mov	r3, #0
 914 008a 37E0     		b	.L61
 915              	.L66:
 592:C:\Micrium\Software\uCOS-III\Source\os_mutex.c ****         CPU_CRITICAL_EXIT();                                /* No                                  
 916              		.loc 1 592 0
 917 008c 786A     		ldr	r0, [r7, #36]
 918 008e FFF7FEFF 		bl	CPU_SR_Restore
 593:C:\Micrium\Software\uCOS-III\Source\os_mutex.c ****        *p_err =  OS_ERR_PEND_ABORT_NONE;
 919              		.loc 1 593 0
 920 0092 7B68     		ldr	r3, [r7, #4]
 921 0094 46F2AB12 		movw	r2, #25003
 922 0098 1A80     		strh	r2, [r3, #0]	@ movhi
 594:C:\Micrium\Software\uCOS-III\Source\os_mutex.c ****         return ((OS_OBJ_QTY)0u);
 923              		.loc 1 594 0
 924 009a 4FF00003 		mov	r3, #0
 925 009e 2DE0     		b	.L61
 926              	.L73:
 595:C:\Micrium\Software\uCOS-III\Source\os_mutex.c ****     }
 596:C:\Micrium\Software\uCOS-III\Source\os_mutex.c **** 
 597:C:\Micrium\Software\uCOS-III\Source\os_mutex.c ****     OS_CRITICAL_ENTER_CPU_EXIT();
 598:C:\Micrium\Software\uCOS-III\Source\os_mutex.c ****     nbr_tasks = 0u;
 927              		.loc 1 598 0
 928 00a0 4FF00003 		mov	r3, #0
 929 00a4 7B84     		strh	r3, [r7, #34]	@ movhi
 599:C:\Micrium\Software\uCOS-III\Source\os_mutex.c ****     ts        = OS_TS_GET();                                /* Get local time stamp so all tasks ge
 930              		.loc 1 599 0
 931 00a6 FFF7FEFF 		bl	CPU_TS_TmrRd
 932 00aa 0346     		mov	r3, r0
 933 00ac FB61     		str	r3, [r7, #28]
 600:C:\Micrium\Software\uCOS-III\Source\os_mutex.c ****     while (p_pend_list->NbrEntries > (OS_OBJ_QTY)0u) {
 934              		.loc 1 600 0
 935 00ae 11E0     		b	.L68
ARM GAS  C:\Users\daniel01\AppData\Local\Temp\ccg4pOSx.s 			page 28


 936              	.L70:
 601:C:\Micrium\Software\uCOS-III\Source\os_mutex.c ****         p_tcb = p_pend_list->HeadPtr->TCBPtr;
 937              		.loc 1 601 0
 938 00b0 7B69     		ldr	r3, [r7, #20]
 939 00b2 1B68     		ldr	r3, [r3, #0]
 940 00b4 9B68     		ldr	r3, [r3, #8]
 941 00b6 BB61     		str	r3, [r7, #24]
 602:C:\Micrium\Software\uCOS-III\Source\os_mutex.c ****         OS_PendAbort((OS_PEND_OBJ *)((void *)p_mutex),
 942              		.loc 1 602 0
 943 00b8 FB68     		ldr	r3, [r7, #12]
 944 00ba 1846     		mov	r0, r3
 945 00bc B969     		ldr	r1, [r7, #24]
 946 00be FA69     		ldr	r2, [r7, #28]
 947 00c0 FFF7FEFF 		bl	OS_PendAbort
 603:C:\Micrium\Software\uCOS-III\Source\os_mutex.c ****                      p_tcb,
 604:C:\Micrium\Software\uCOS-III\Source\os_mutex.c ****                      ts);
 605:C:\Micrium\Software\uCOS-III\Source\os_mutex.c ****         nbr_tasks++;
 948              		.loc 1 605 0
 949 00c4 7B8C     		ldrh	r3, [r7, #34]	@ movhi
 950 00c6 03F10103 		add	r3, r3, #1
 951 00ca 7B84     		strh	r3, [r7, #34]	@ movhi
 606:C:\Micrium\Software\uCOS-III\Source\os_mutex.c ****         if (opt != OS_OPT_PEND_ABORT_ALL) {                 /* Pend abort all tasks waiting?       
 952              		.loc 1 606 0
 953 00cc 7B89     		ldrh	r3, [r7, #10]
 954 00ce B3F5807F 		cmp	r3, #256
 955 00d2 04D1     		bne	.L74
 956              	.L68:
 957              		.loc 1 600 0
 958 00d4 7B69     		ldr	r3, [r7, #20]
 959 00d6 1B89     		ldrh	r3, [r3, #8]
 960 00d8 002B     		cmp	r3, #0
 961 00da E9D1     		bne	.L70
 962 00dc 00E0     		b	.L69
 963              	.L74:
 607:C:\Micrium\Software\uCOS-III\Source\os_mutex.c ****             break;                                          /* No                                  
 964              		.loc 1 607 0
 965 00de 00BF     		nop
 966              	.L69:
 608:C:\Micrium\Software\uCOS-III\Source\os_mutex.c ****         }
 609:C:\Micrium\Software\uCOS-III\Source\os_mutex.c ****     }
 610:C:\Micrium\Software\uCOS-III\Source\os_mutex.c ****     OS_CRITICAL_EXIT_NO_SCHED();
 967              		.loc 1 610 0
 968 00e0 786A     		ldr	r0, [r7, #36]
 969 00e2 FFF7FEFF 		bl	CPU_SR_Restore
 611:C:\Micrium\Software\uCOS-III\Source\os_mutex.c **** 
 612:C:\Micrium\Software\uCOS-III\Source\os_mutex.c ****     if ((opt & OS_OPT_POST_NO_SCHED) == (OS_OPT)0u) {
 970              		.loc 1 612 0
 971 00e6 7B89     		ldrh	r3, [r7, #10]
 972 00e8 1BB2     		sxth	r3, r3
 973 00ea 002B     		cmp	r3, #0
 974 00ec 01DB     		blt	.L71
 613:C:\Micrium\Software\uCOS-III\Source\os_mutex.c ****         OSSched();                                          /* Run the scheduler                   
 975              		.loc 1 613 0
 976 00ee FFF7FEFF 		bl	OSSched
 977              	.L71:
 614:C:\Micrium\Software\uCOS-III\Source\os_mutex.c ****     }
 615:C:\Micrium\Software\uCOS-III\Source\os_mutex.c **** 
ARM GAS  C:\Users\daniel01\AppData\Local\Temp\ccg4pOSx.s 			page 29


 616:C:\Micrium\Software\uCOS-III\Source\os_mutex.c ****    *p_err = OS_ERR_NONE;
 978              		.loc 1 616 0
 979 00f2 7B68     		ldr	r3, [r7, #4]
 980 00f4 4FF00002 		mov	r2, #0
 981 00f8 1A80     		strh	r2, [r3, #0]	@ movhi
 617:C:\Micrium\Software\uCOS-III\Source\os_mutex.c ****     return (nbr_tasks);
 982              		.loc 1 617 0
 983 00fa 7B8C     		ldrh	r3, [r7, #34]
 984              	.L61:
 618:C:\Micrium\Software\uCOS-III\Source\os_mutex.c **** }
 985              		.loc 1 618 0
 986 00fc 1846     		mov	r0, r3
 987 00fe 07F12807 		add	r7, r7, #40
 988 0102 BD46     		mov	sp, r7
 989 0104 80BD     		pop	{r7, pc}
 990              		.cfi_endproc
 991              	.LFE3:
 992              		.size	OSMutexPendAbort, .-OSMutexPendAbort
 993 0106 00BF     		.section	.text.OSMutexPost,"ax",%progbits
 994              		.align	2
 995              		.global	OSMutexPost
 996              		.thumb
 997              		.thumb_func
 998              		.type	OSMutexPost, %function
 999              	OSMutexPost:
 1000              	.LFB4:
 619:C:\Micrium\Software\uCOS-III\Source\os_mutex.c **** #endif
 620:C:\Micrium\Software\uCOS-III\Source\os_mutex.c **** 
 621:C:\Micrium\Software\uCOS-III\Source\os_mutex.c **** /*$PAGE*/
 622:C:\Micrium\Software\uCOS-III\Source\os_mutex.c **** /*
 623:C:\Micrium\Software\uCOS-III\Source\os_mutex.c **** ***************************************************************************************************
 624:C:\Micrium\Software\uCOS-III\Source\os_mutex.c **** *                                                   POST TO A MUTEX
 625:C:\Micrium\Software\uCOS-III\Source\os_mutex.c **** *
 626:C:\Micrium\Software\uCOS-III\Source\os_mutex.c **** * Description: This function signals a mutex
 627:C:\Micrium\Software\uCOS-III\Source\os_mutex.c **** *
 628:C:\Micrium\Software\uCOS-III\Source\os_mutex.c **** * Arguments  : p_mutex  is a pointer to the mutex
 629:C:\Micrium\Software\uCOS-III\Source\os_mutex.c **** *
 630:C:\Micrium\Software\uCOS-III\Source\os_mutex.c **** *              opt      is an option you can specify to alter the behavior of the post.  The choice
 631:C:\Micrium\Software\uCOS-III\Source\os_mutex.c **** *
 632:C:\Micrium\Software\uCOS-III\Source\os_mutex.c **** *                           OS_OPT_POST_NONE        No special option selected
 633:C:\Micrium\Software\uCOS-III\Source\os_mutex.c **** *                           OS_OPT_POST_NO_SCHED    If you don't want the scheduler to be called af
 634:C:\Micrium\Software\uCOS-III\Source\os_mutex.c **** *
 635:C:\Micrium\Software\uCOS-III\Source\os_mutex.c **** *              p_err    is a pointer to a variable that will contain an error code returned by this
 636:C:\Micrium\Software\uCOS-III\Source\os_mutex.c **** *
 637:C:\Micrium\Software\uCOS-III\Source\os_mutex.c **** *                           OS_ERR_NONE             The call was successful and the mutex was signa
 638:C:\Micrium\Software\uCOS-III\Source\os_mutex.c **** *                           OS_ERR_MUTEX_NESTING    Mutex owner nested its use of the mutex
 639:C:\Micrium\Software\uCOS-III\Source\os_mutex.c **** *                           OS_ERR_MUTEX_NOT_OWNER  If the task posting is not the Mutex owner
 640:C:\Micrium\Software\uCOS-III\Source\os_mutex.c **** *                           OS_ERR_OBJ_PTR_NULL     If 'p_mutex' is a NULL pointer.
 641:C:\Micrium\Software\uCOS-III\Source\os_mutex.c **** *                           OS_ERR_OBJ_TYPE         If 'p_mutex' is not pointing at a mutex
 642:C:\Micrium\Software\uCOS-III\Source\os_mutex.c **** *                           OS_ERR_POST_ISR         If you attempted to post from an ISR
 643:C:\Micrium\Software\uCOS-III\Source\os_mutex.c **** *
 644:C:\Micrium\Software\uCOS-III\Source\os_mutex.c **** * Returns    : none
 645:C:\Micrium\Software\uCOS-III\Source\os_mutex.c **** ***************************************************************************************************
 646:C:\Micrium\Software\uCOS-III\Source\os_mutex.c **** */
 647:C:\Micrium\Software\uCOS-III\Source\os_mutex.c **** 
 648:C:\Micrium\Software\uCOS-III\Source\os_mutex.c **** void  OSMutexPost (OS_MUTEX  *p_mutex,
 649:C:\Micrium\Software\uCOS-III\Source\os_mutex.c ****                    OS_OPT     opt,
ARM GAS  C:\Users\daniel01\AppData\Local\Temp\ccg4pOSx.s 			page 30


 650:C:\Micrium\Software\uCOS-III\Source\os_mutex.c ****                    OS_ERR    *p_err)
 651:C:\Micrium\Software\uCOS-III\Source\os_mutex.c **** {
 1001              		.loc 1 651 0
 1002              		.cfi_startproc
 1003              		@ args = 0, pretend = 0, frame = 32
 1004              		@ frame_needed = 1, uses_anonymous_args = 0
 1005 0000 80B5     		push	{r7, lr}
 1006              	.LCFI12:
 1007              		.cfi_def_cfa_offset 8
 1008 0002 8AB0     		sub	sp, sp, #40
 1009              	.LCFI13:
 1010              		.cfi_def_cfa_offset 48
 1011 0004 02AF     		add	r7, sp, #8
 1012              		.cfi_offset 14, -4
 1013              		.cfi_offset 7, -8
 1014              	.LCFI14:
 1015              		.cfi_def_cfa 7, 40
 1016 0006 F860     		str	r0, [r7, #12]
 1017 0008 0B46     		mov	r3, r1
 1018 000a 7A60     		str	r2, [r7, #4]
 1019 000c 7B81     		strh	r3, [r7, #10]	@ movhi
 652:C:\Micrium\Software\uCOS-III\Source\os_mutex.c ****     OS_PEND_LIST  *p_pend_list;
 653:C:\Micrium\Software\uCOS-III\Source\os_mutex.c ****     OS_TCB        *p_tcb;
 654:C:\Micrium\Software\uCOS-III\Source\os_mutex.c ****     CPU_TS         ts;
 655:C:\Micrium\Software\uCOS-III\Source\os_mutex.c ****     CPU_SR_ALLOC();
 1020              		.loc 1 655 0
 1021 000e 4FF00003 		mov	r3, #0
 1022 0012 FB61     		str	r3, [r7, #28]
 656:C:\Micrium\Software\uCOS-III\Source\os_mutex.c **** 
 657:C:\Micrium\Software\uCOS-III\Source\os_mutex.c **** 
 658:C:\Micrium\Software\uCOS-III\Source\os_mutex.c **** 
 659:C:\Micrium\Software\uCOS-III\Source\os_mutex.c **** #ifdef OS_SAFETY_CRITICAL
 660:C:\Micrium\Software\uCOS-III\Source\os_mutex.c ****     if (p_err == (OS_ERR *)0) {
 661:C:\Micrium\Software\uCOS-III\Source\os_mutex.c ****         OS_SAFETY_CRITICAL_EXCEPTION();
 662:C:\Micrium\Software\uCOS-III\Source\os_mutex.c ****         return;
 663:C:\Micrium\Software\uCOS-III\Source\os_mutex.c ****     }
 664:C:\Micrium\Software\uCOS-III\Source\os_mutex.c **** #endif
 665:C:\Micrium\Software\uCOS-III\Source\os_mutex.c **** 
 666:C:\Micrium\Software\uCOS-III\Source\os_mutex.c **** #if OS_CFG_CALLED_FROM_ISR_CHK_EN > 0u
 667:C:\Micrium\Software\uCOS-III\Source\os_mutex.c ****     if (OSIntNestingCtr > (OS_NESTING_CTR)0) {              /* Not allowed to call from an ISR     
 1023              		.loc 1 667 0
 1024 0014 40F20003 		movw	r3, #:lower16:OSIntNestingCtr
 1025 0018 C0F20003 		movt	r3, #:upper16:OSIntNestingCtr
 1026 001c 1B78     		ldrb	r3, [r3, #0]	@ zero_extendqisi2
 1027 001e 002B     		cmp	r3, #0
 1028 0020 04D0     		beq	.L76
 668:C:\Micrium\Software\uCOS-III\Source\os_mutex.c ****        *p_err = OS_ERR_POST_ISR;
 1029              		.loc 1 668 0
 1030 0022 7B68     		ldr	r3, [r7, #4]
 1031 0024 46F20E22 		movw	r2, #25102
 1032 0028 1A80     		strh	r2, [r3, #0]	@ movhi
 669:C:\Micrium\Software\uCOS-III\Source\os_mutex.c ****         return;
 1033              		.loc 1 669 0
 1034 002a C4E0     		b	.L87
 1035              	.L76:
 670:C:\Micrium\Software\uCOS-III\Source\os_mutex.c ****     }
 671:C:\Micrium\Software\uCOS-III\Source\os_mutex.c **** #endif
ARM GAS  C:\Users\daniel01\AppData\Local\Temp\ccg4pOSx.s 			page 31


 672:C:\Micrium\Software\uCOS-III\Source\os_mutex.c **** 
 673:C:\Micrium\Software\uCOS-III\Source\os_mutex.c **** #if OS_CFG_ARG_CHK_EN > 0u
 674:C:\Micrium\Software\uCOS-III\Source\os_mutex.c ****     if (p_mutex == (OS_MUTEX *)0) {                         /* Validate 'p_mutex'                  
 1036              		.loc 1 674 0
 1037 002c FB68     		ldr	r3, [r7, #12]
 1038 002e 002B     		cmp	r3, #0
 1039 0030 04D1     		bne	.L78
 675:C:\Micrium\Software\uCOS-III\Source\os_mutex.c ****        *p_err = OS_ERR_OBJ_PTR_NULL;
 1040              		.loc 1 675 0
 1041 0032 7B68     		ldr	r3, [r7, #4]
 1042 0034 45F6C352 		movw	r2, #24003
 1043 0038 1A80     		strh	r2, [r3, #0]	@ movhi
 676:C:\Micrium\Software\uCOS-III\Source\os_mutex.c ****         return;
 1044              		.loc 1 676 0
 1045 003a BCE0     		b	.L87
 1046              	.L78:
 677:C:\Micrium\Software\uCOS-III\Source\os_mutex.c ****     }
 678:C:\Micrium\Software\uCOS-III\Source\os_mutex.c ****     switch (opt) {                                          /* Validate 'opt'                      
 1047              		.loc 1 678 0
 1048 003c 7B89     		ldrh	r3, [r7, #10]
 1049 003e 002B     		cmp	r3, #0
 1050 0040 02D0     		beq	.L80
 1051 0042 B3F5004F 		cmp	r3, #32768
 1052 0046 0DD1     		bne	.L88
 1053              	.L80:
 679:C:\Micrium\Software\uCOS-III\Source\os_mutex.c ****         case OS_OPT_POST_NONE:
 680:C:\Micrium\Software\uCOS-III\Source\os_mutex.c ****         case OS_OPT_POST_NO_SCHED:
 681:C:\Micrium\Software\uCOS-III\Source\os_mutex.c ****              break;
 682:C:\Micrium\Software\uCOS-III\Source\os_mutex.c **** 
 683:C:\Micrium\Software\uCOS-III\Source\os_mutex.c ****         default:
 684:C:\Micrium\Software\uCOS-III\Source\os_mutex.c ****             *p_err =  OS_ERR_OPT_INVALID;
 685:C:\Micrium\Software\uCOS-III\Source\os_mutex.c ****              return;
 686:C:\Micrium\Software\uCOS-III\Source\os_mutex.c ****     }
 687:C:\Micrium\Software\uCOS-III\Source\os_mutex.c **** #endif
 688:C:\Micrium\Software\uCOS-III\Source\os_mutex.c **** 
 689:C:\Micrium\Software\uCOS-III\Source\os_mutex.c **** #if OS_CFG_OBJ_TYPE_CHK_EN > 0u
 690:C:\Micrium\Software\uCOS-III\Source\os_mutex.c ****     if (p_mutex->Type != OS_OBJ_TYPE_MUTEX) {               /* Make sure mutex was created         
 691:C:\Micrium\Software\uCOS-III\Source\os_mutex.c ****        *p_err = OS_ERR_OBJ_TYPE;
 692:C:\Micrium\Software\uCOS-III\Source\os_mutex.c ****         return;
 693:C:\Micrium\Software\uCOS-III\Source\os_mutex.c ****     }
 694:C:\Micrium\Software\uCOS-III\Source\os_mutex.c **** #endif
 695:C:\Micrium\Software\uCOS-III\Source\os_mutex.c **** 
 696:C:\Micrium\Software\uCOS-III\Source\os_mutex.c ****     CPU_CRITICAL_ENTER();
 1054              		.loc 1 696 0
 1055 0048 FFF7FEFF 		bl	CPU_SR_Save
 1056 004c 0346     		mov	r3, r0
 1057 004e FB61     		str	r3, [r7, #28]
 697:C:\Micrium\Software\uCOS-III\Source\os_mutex.c ****     if (OSTCBCurPtr != p_mutex->OwnerTCBPtr) {              /* Make sure the mutex owner is releasi
 1058              		.loc 1 697 0
 1059 0050 FB68     		ldr	r3, [r7, #12]
 1060 0052 1A6A     		ldr	r2, [r3, #32]
 1061 0054 40F20003 		movw	r3, #:lower16:OSTCBCurPtr
 1062 0058 C0F20003 		movt	r3, #:upper16:OSTCBCurPtr
 1063 005c 1B68     		ldr	r3, [r3, #0]
 1064 005e 9A42     		cmp	r2, r3
 1065 0060 05D1     		bne	.L81
 1066 0062 0CE0     		b	.L89
ARM GAS  C:\Users\daniel01\AppData\Local\Temp\ccg4pOSx.s 			page 32


 1067              	.L88:
 1068              		.loc 1 684 0
 1069 0064 7B68     		ldr	r3, [r7, #4]
 1070 0066 45F62562 		movw	r2, #24101
 1071 006a 1A80     		strh	r2, [r3, #0]	@ movhi
 1072              		.loc 1 685 0
 1073 006c A3E0     		b	.L87
 1074              	.L81:
 698:C:\Micrium\Software\uCOS-III\Source\os_mutex.c ****         CPU_CRITICAL_EXIT();
 1075              		.loc 1 698 0
 1076 006e F869     		ldr	r0, [r7, #28]
 1077 0070 FFF7FEFF 		bl	CPU_SR_Restore
 699:C:\Micrium\Software\uCOS-III\Source\os_mutex.c ****        *p_err = OS_ERR_MUTEX_NOT_OWNER;
 1078              		.loc 1 699 0
 1079 0074 7B68     		ldr	r3, [r7, #4]
 1080 0076 45F28172 		movw	r2, #22401
 1081 007a 1A80     		strh	r2, [r3, #0]	@ movhi
 700:C:\Micrium\Software\uCOS-III\Source\os_mutex.c ****         return;
 1082              		.loc 1 700 0
 1083 007c 9BE0     		b	.L87
 1084              	.L89:
 701:C:\Micrium\Software\uCOS-III\Source\os_mutex.c ****     }
 702:C:\Micrium\Software\uCOS-III\Source\os_mutex.c **** 
 703:C:\Micrium\Software\uCOS-III\Source\os_mutex.c ****     OS_CRITICAL_ENTER_CPU_EXIT();
 704:C:\Micrium\Software\uCOS-III\Source\os_mutex.c ****     ts          = OS_TS_GET();                              /* Get timestamp                       
 1085              		.loc 1 704 0
 1086 007e FFF7FEFF 		bl	CPU_TS_TmrRd
 1087 0082 0346     		mov	r3, r0
 1088 0084 BB61     		str	r3, [r7, #24]
 705:C:\Micrium\Software\uCOS-III\Source\os_mutex.c ****     p_mutex->TS = ts;
 1089              		.loc 1 705 0
 1090 0086 FB68     		ldr	r3, [r7, #12]
 1091 0088 BA69     		ldr	r2, [r7, #24]
 1092 008a 9A62     		str	r2, [r3, #40]
 706:C:\Micrium\Software\uCOS-III\Source\os_mutex.c ****     p_mutex->OwnerNestingCtr--;                             /* Decrement owner's nesting counter   
 1093              		.loc 1 706 0
 1094 008c FB68     		ldr	r3, [r7, #12]
 1095 008e 93F82530 		ldrb	r3, [r3, #37]	@ zero_extendqisi2
 1096 0092 03F1FF33 		add	r3, r3, #-1
 1097 0096 DAB2     		uxtb	r2, r3
 1098 0098 FB68     		ldr	r3, [r7, #12]
 1099 009a 83F82520 		strb	r2, [r3, #37]
 707:C:\Micrium\Software\uCOS-III\Source\os_mutex.c ****     if (p_mutex->OwnerNestingCtr > (OS_NESTING_CTR)0) {     /* Are we done with all nestings?      
 1100              		.loc 1 707 0
 1101 009e FB68     		ldr	r3, [r7, #12]
 1102 00a0 93F82530 		ldrb	r3, [r3, #37]	@ zero_extendqisi2
 1103 00a4 002B     		cmp	r3, #0
 1104 00a6 07D0     		beq	.L83
 708:C:\Micrium\Software\uCOS-III\Source\os_mutex.c ****         OS_CRITICAL_EXIT();                                 /* No                                  
 1105              		.loc 1 708 0
 1106 00a8 F869     		ldr	r0, [r7, #28]
 1107 00aa FFF7FEFF 		bl	CPU_SR_Restore
 709:C:\Micrium\Software\uCOS-III\Source\os_mutex.c ****        *p_err = OS_ERR_MUTEX_NESTING;
 1108              		.loc 1 709 0
 1109 00ae 7B68     		ldr	r3, [r7, #4]
 1110 00b0 45F28372 		movw	r2, #22403
 1111 00b4 1A80     		strh	r2, [r3, #0]	@ movhi
ARM GAS  C:\Users\daniel01\AppData\Local\Temp\ccg4pOSx.s 			page 33


 710:C:\Micrium\Software\uCOS-III\Source\os_mutex.c ****         return;
 1112              		.loc 1 710 0
 1113 00b6 7EE0     		b	.L87
 1114              	.L83:
 711:C:\Micrium\Software\uCOS-III\Source\os_mutex.c ****     }
 712:C:\Micrium\Software\uCOS-III\Source\os_mutex.c **** 
 713:C:\Micrium\Software\uCOS-III\Source\os_mutex.c ****     p_pend_list = &p_mutex->PendList;
 1115              		.loc 1 713 0
 1116 00b8 FB68     		ldr	r3, [r7, #12]
 1117 00ba 03F10803 		add	r3, r3, #8
 1118 00be 3B61     		str	r3, [r7, #16]
 714:C:\Micrium\Software\uCOS-III\Source\os_mutex.c ****     if (p_pend_list->NbrEntries == (OS_OBJ_QTY)0) {         /* Any task waiting on mutex?          
 1119              		.loc 1 714 0
 1120 00c0 3B69     		ldr	r3, [r7, #16]
 1121 00c2 1B89     		ldrh	r3, [r3, #8]
 1122 00c4 002B     		cmp	r3, #0
 1123 00c6 10D1     		bne	.L84
 715:C:\Micrium\Software\uCOS-III\Source\os_mutex.c ****         p_mutex->OwnerTCBPtr     = (OS_TCB       *)0;       /* No                                  
 1124              		.loc 1 715 0
 1125 00c8 FB68     		ldr	r3, [r7, #12]
 1126 00ca 4FF00002 		mov	r2, #0
 1127 00ce 1A62     		str	r2, [r3, #32]
 716:C:\Micrium\Software\uCOS-III\Source\os_mutex.c ****         p_mutex->OwnerNestingCtr = (OS_NESTING_CTR)0;
 1128              		.loc 1 716 0
 1129 00d0 FB68     		ldr	r3, [r7, #12]
 1130 00d2 4FF00002 		mov	r2, #0
 1131 00d6 83F82520 		strb	r2, [r3, #37]
 717:C:\Micrium\Software\uCOS-III\Source\os_mutex.c ****         OS_CRITICAL_EXIT();
 1132              		.loc 1 717 0
 1133 00da F869     		ldr	r0, [r7, #28]
 1134 00dc FFF7FEFF 		bl	CPU_SR_Restore
 718:C:\Micrium\Software\uCOS-III\Source\os_mutex.c ****        *p_err = OS_ERR_NONE;
 1135              		.loc 1 718 0
 1136 00e0 7B68     		ldr	r3, [r7, #4]
 1137 00e2 4FF00002 		mov	r2, #0
 1138 00e6 1A80     		strh	r2, [r3, #0]	@ movhi
 719:C:\Micrium\Software\uCOS-III\Source\os_mutex.c ****         return;
 1139              		.loc 1 719 0
 1140 00e8 65E0     		b	.L87
 1141              	.L84:
 720:C:\Micrium\Software\uCOS-III\Source\os_mutex.c ****     }
 721:C:\Micrium\Software\uCOS-III\Source\os_mutex.c ****                                                             /* Yes                                 
 722:C:\Micrium\Software\uCOS-III\Source\os_mutex.c ****     if (OSTCBCurPtr->Prio != p_mutex->OwnerOriginalPrio) {
 1142              		.loc 1 722 0
 1143 00ea 40F20003 		movw	r3, #:lower16:OSTCBCurPtr
 1144 00ee C0F20003 		movt	r3, #:upper16:OSTCBCurPtr
 1145 00f2 1B68     		ldr	r3, [r3, #0]
 1146 00f4 93F83720 		ldrb	r2, [r3, #55]	@ zero_extendqisi2
 1147 00f8 FB68     		ldr	r3, [r7, #12]
 1148 00fa 93F82430 		ldrb	r3, [r3, #36]	@ zero_extendqisi2
 1149 00fe 9A42     		cmp	r2, r3
 1150 0100 2FD0     		beq	.L85
 723:C:\Micrium\Software\uCOS-III\Source\os_mutex.c ****         OS_RdyListRemove(OSTCBCurPtr);
 1151              		.loc 1 723 0
 1152 0102 40F20003 		movw	r3, #:lower16:OSTCBCurPtr
 1153 0106 C0F20003 		movt	r3, #:upper16:OSTCBCurPtr
 1154 010a 1B68     		ldr	r3, [r3, #0]
ARM GAS  C:\Users\daniel01\AppData\Local\Temp\ccg4pOSx.s 			page 34


 1155 010c 1846     		mov	r0, r3
 1156 010e FFF7FEFF 		bl	OS_RdyListRemove
 724:C:\Micrium\Software\uCOS-III\Source\os_mutex.c ****         OSTCBCurPtr->Prio = p_mutex->OwnerOriginalPrio;     /* Lower owner's priority back to its o
 1157              		.loc 1 724 0
 1158 0112 40F20003 		movw	r3, #:lower16:OSTCBCurPtr
 1159 0116 C0F20003 		movt	r3, #:upper16:OSTCBCurPtr
 1160 011a 1B68     		ldr	r3, [r3, #0]
 1161 011c FA68     		ldr	r2, [r7, #12]
 1162 011e 92F82420 		ldrb	r2, [r2, #36]	@ zero_extendqisi2
 1163 0122 83F83720 		strb	r2, [r3, #55]
 725:C:\Micrium\Software\uCOS-III\Source\os_mutex.c ****         OS_PrioInsert(OSTCBCurPtr->Prio);
 1164              		.loc 1 725 0
 1165 0126 40F20003 		movw	r3, #:lower16:OSTCBCurPtr
 1166 012a C0F20003 		movt	r3, #:upper16:OSTCBCurPtr
 1167 012e 1B68     		ldr	r3, [r3, #0]
 1168 0130 93F83730 		ldrb	r3, [r3, #55]	@ zero_extendqisi2
 1169 0134 1846     		mov	r0, r3
 1170 0136 FFF7FEFF 		bl	OS_PrioInsert
 726:C:\Micrium\Software\uCOS-III\Source\os_mutex.c ****         OS_RdyListInsertTail(OSTCBCurPtr);                  /* Insert owner in ready list at new pr
 1171              		.loc 1 726 0
 1172 013a 40F20003 		movw	r3, #:lower16:OSTCBCurPtr
 1173 013e C0F20003 		movt	r3, #:upper16:OSTCBCurPtr
 1174 0142 1B68     		ldr	r3, [r3, #0]
 1175 0144 1846     		mov	r0, r3
 1176 0146 FFF7FEFF 		bl	OS_RdyListInsertTail
 727:C:\Micrium\Software\uCOS-III\Source\os_mutex.c ****         OSPrioCur         = OSTCBCurPtr->Prio;
 1177              		.loc 1 727 0
 1178 014a 40F20003 		movw	r3, #:lower16:OSTCBCurPtr
 1179 014e C0F20003 		movt	r3, #:upper16:OSTCBCurPtr
 1180 0152 1B68     		ldr	r3, [r3, #0]
 1181 0154 93F83720 		ldrb	r2, [r3, #55]	@ zero_extendqisi2
 1182 0158 40F20003 		movw	r3, #:lower16:OSPrioCur
 1183 015c C0F20003 		movt	r3, #:upper16:OSPrioCur
 1184 0160 1A70     		strb	r2, [r3, #0]
 1185              	.L85:
 728:C:\Micrium\Software\uCOS-III\Source\os_mutex.c ****     }
 729:C:\Micrium\Software\uCOS-III\Source\os_mutex.c ****                                                             /* Get TCB from head of pend list      
 730:C:\Micrium\Software\uCOS-III\Source\os_mutex.c ****     p_tcb                      = p_pend_list->HeadPtr->TCBPtr;
 1186              		.loc 1 730 0
 1187 0162 3B69     		ldr	r3, [r7, #16]
 1188 0164 1B68     		ldr	r3, [r3, #0]
 1189 0166 9B68     		ldr	r3, [r3, #8]
 1190 0168 7B61     		str	r3, [r7, #20]
 731:C:\Micrium\Software\uCOS-III\Source\os_mutex.c ****     p_mutex->OwnerTCBPtr       = p_tcb;                     /* Give mutex to new owner             
 1191              		.loc 1 731 0
 1192 016a FB68     		ldr	r3, [r7, #12]
 1193 016c 7A69     		ldr	r2, [r7, #20]
 1194 016e 1A62     		str	r2, [r3, #32]
 732:C:\Micrium\Software\uCOS-III\Source\os_mutex.c ****     p_mutex->OwnerOriginalPrio = p_tcb->Prio;
 1195              		.loc 1 732 0
 1196 0170 7B69     		ldr	r3, [r7, #20]
 1197 0172 93F83720 		ldrb	r2, [r3, #55]	@ zero_extendqisi2
 1198 0176 FB68     		ldr	r3, [r7, #12]
 1199 0178 83F82420 		strb	r2, [r3, #36]
 733:C:\Micrium\Software\uCOS-III\Source\os_mutex.c ****     p_mutex->OwnerNestingCtr   = (OS_NESTING_CTR)1;
 1200              		.loc 1 733 0
 1201 017c FB68     		ldr	r3, [r7, #12]
ARM GAS  C:\Users\daniel01\AppData\Local\Temp\ccg4pOSx.s 			page 35


 1202 017e 4FF00102 		mov	r2, #1
 1203 0182 83F82520 		strb	r2, [r3, #37]
 734:C:\Micrium\Software\uCOS-III\Source\os_mutex.c ****                                                             /* Post to mutex                       
 735:C:\Micrium\Software\uCOS-III\Source\os_mutex.c ****     OS_Post((OS_PEND_OBJ *)((void *)p_mutex),
 1204              		.loc 1 735 0
 1205 0186 FB68     		ldr	r3, [r7, #12]
 1206 0188 BA69     		ldr	r2, [r7, #24]
 1207 018a 0092     		str	r2, [sp, #0]
 1208 018c 1846     		mov	r0, r3
 1209 018e 7969     		ldr	r1, [r7, #20]
 1210 0190 4FF00002 		mov	r2, #0
 1211 0194 4FF00003 		mov	r3, #0
 1212 0198 FFF7FEFF 		bl	OS_Post
 736:C:\Micrium\Software\uCOS-III\Source\os_mutex.c ****             (OS_TCB      *)p_tcb,
 737:C:\Micrium\Software\uCOS-III\Source\os_mutex.c ****             (void        *)0,
 738:C:\Micrium\Software\uCOS-III\Source\os_mutex.c ****             (OS_MSG_SIZE  )0,
 739:C:\Micrium\Software\uCOS-III\Source\os_mutex.c ****             (CPU_TS       )ts);
 740:C:\Micrium\Software\uCOS-III\Source\os_mutex.c **** 
 741:C:\Micrium\Software\uCOS-III\Source\os_mutex.c ****     OS_CRITICAL_EXIT_NO_SCHED();
 1213              		.loc 1 741 0
 1214 019c F869     		ldr	r0, [r7, #28]
 1215 019e FFF7FEFF 		bl	CPU_SR_Restore
 742:C:\Micrium\Software\uCOS-III\Source\os_mutex.c **** 
 743:C:\Micrium\Software\uCOS-III\Source\os_mutex.c ****     if ((opt & OS_OPT_POST_NO_SCHED) == (OS_OPT)0) {
 1216              		.loc 1 743 0
 1217 01a2 7B89     		ldrh	r3, [r7, #10]
 1218 01a4 1BB2     		sxth	r3, r3
 1219 01a6 002B     		cmp	r3, #0
 1220 01a8 01DB     		blt	.L86
 744:C:\Micrium\Software\uCOS-III\Source\os_mutex.c ****         OSSched();                                          /* Run the scheduler                   
 1221              		.loc 1 744 0
 1222 01aa FFF7FEFF 		bl	OSSched
 1223              	.L86:
 745:C:\Micrium\Software\uCOS-III\Source\os_mutex.c ****     }
 746:C:\Micrium\Software\uCOS-III\Source\os_mutex.c **** 
 747:C:\Micrium\Software\uCOS-III\Source\os_mutex.c ****    *p_err = OS_ERR_NONE;
 1224              		.loc 1 747 0
 1225 01ae 7B68     		ldr	r3, [r7, #4]
 1226 01b0 4FF00002 		mov	r2, #0
 1227 01b4 1A80     		strh	r2, [r3, #0]	@ movhi
 1228              	.L87:
 748:C:\Micrium\Software\uCOS-III\Source\os_mutex.c **** }
 1229              		.loc 1 748 0
 1230 01b6 07F12007 		add	r7, r7, #32
 1231 01ba BD46     		mov	sp, r7
 1232 01bc 80BD     		pop	{r7, pc}
 1233              		.cfi_endproc
 1234              	.LFE4:
 1235              		.size	OSMutexPost, .-OSMutexPost
 1236 01be 00BF     		.section	.rodata
 1237              		.align	2
 1238              	.LC0:
 1239 0000 3F4D5554 		.ascii	"?MUTEX\000"
 1239      455800
 1240              		.section	.text.OS_MutexClr,"ax",%progbits
 1241              		.align	2
 1242              		.global	OS_MutexClr
ARM GAS  C:\Users\daniel01\AppData\Local\Temp\ccg4pOSx.s 			page 36


 1243              		.thumb
 1244              		.thumb_func
 1245              		.type	OS_MutexClr, %function
 1246              	OS_MutexClr:
 1247              	.LFB5:
 749:C:\Micrium\Software\uCOS-III\Source\os_mutex.c **** 
 750:C:\Micrium\Software\uCOS-III\Source\os_mutex.c **** /*$PAGE*/
 751:C:\Micrium\Software\uCOS-III\Source\os_mutex.c **** /*
 752:C:\Micrium\Software\uCOS-III\Source\os_mutex.c **** ***************************************************************************************************
 753:C:\Micrium\Software\uCOS-III\Source\os_mutex.c **** *                                            CLEAR THE CONTENTS OF A MUTEX
 754:C:\Micrium\Software\uCOS-III\Source\os_mutex.c **** *
 755:C:\Micrium\Software\uCOS-III\Source\os_mutex.c **** * Description: This function is called by OSMutexDel() to clear the contents of a mutex
 756:C:\Micrium\Software\uCOS-III\Source\os_mutex.c **** *
 757:C:\Micrium\Software\uCOS-III\Source\os_mutex.c **** 
 758:C:\Micrium\Software\uCOS-III\Source\os_mutex.c **** * Argument(s): p_mutex      is a pointer to the mutex to clear
 759:C:\Micrium\Software\uCOS-III\Source\os_mutex.c **** *              -------
 760:C:\Micrium\Software\uCOS-III\Source\os_mutex.c **** *
 761:C:\Micrium\Software\uCOS-III\Source\os_mutex.c **** * Returns    : none
 762:C:\Micrium\Software\uCOS-III\Source\os_mutex.c **** *
 763:C:\Micrium\Software\uCOS-III\Source\os_mutex.c **** * Note(s)    : This function is INTERNAL to uC/OS-III and your application should not call it.
 764:C:\Micrium\Software\uCOS-III\Source\os_mutex.c **** ***************************************************************************************************
 765:C:\Micrium\Software\uCOS-III\Source\os_mutex.c **** */
 766:C:\Micrium\Software\uCOS-III\Source\os_mutex.c **** 
 767:C:\Micrium\Software\uCOS-III\Source\os_mutex.c **** void  OS_MutexClr (OS_MUTEX  *p_mutex)
 768:C:\Micrium\Software\uCOS-III\Source\os_mutex.c **** {
 1248              		.loc 1 768 0
 1249              		.cfi_startproc
 1250              		@ args = 0, pretend = 0, frame = 8
 1251              		@ frame_needed = 1, uses_anonymous_args = 0
 1252 0000 80B5     		push	{r7, lr}
 1253              	.LCFI15:
 1254              		.cfi_def_cfa_offset 8
 1255 0002 82B0     		sub	sp, sp, #8
 1256              	.LCFI16:
 1257              		.cfi_def_cfa_offset 16
 1258 0004 00AF     		add	r7, sp, #0
 1259              		.cfi_offset 14, -4
 1260              		.cfi_offset 7, -8
 1261              	.LCFI17:
 1262              		.cfi_def_cfa_register 7
 1263 0006 7860     		str	r0, [r7, #4]
 769:C:\Micrium\Software\uCOS-III\Source\os_mutex.c ****     p_mutex->Type              =  OS_OBJ_TYPE_NONE;         /* Mark the data structure as a NONE   
 1264              		.loc 1 769 0
 1265 0008 7A68     		ldr	r2, [r7, #4]
 1266 000a 44F64E73 		movw	r3, #:lower16:1162760014
 1267 000e C4F24E53 		movt	r3, #:upper16:1162760014
 1268 0012 1360     		str	r3, [r2, #0]
 770:C:\Micrium\Software\uCOS-III\Source\os_mutex.c ****     p_mutex->NamePtr           = (CPU_CHAR     *)((void *)"?MUTEX");
 1269              		.loc 1 770 0
 1270 0014 7A68     		ldr	r2, [r7, #4]
 1271 0016 40F20003 		movw	r3, #:lower16:.LC0
 1272 001a C0F20003 		movt	r3, #:upper16:.LC0
 1273 001e 5360     		str	r3, [r2, #4]
 771:C:\Micrium\Software\uCOS-III\Source\os_mutex.c ****     p_mutex->OwnerTCBPtr       = (OS_TCB       *)0;
 1274              		.loc 1 771 0
 1275 0020 7B68     		ldr	r3, [r7, #4]
 1276 0022 4FF00002 		mov	r2, #0
ARM GAS  C:\Users\daniel01\AppData\Local\Temp\ccg4pOSx.s 			page 37


 1277 0026 1A62     		str	r2, [r3, #32]
 772:C:\Micrium\Software\uCOS-III\Source\os_mutex.c ****     p_mutex->OwnerNestingCtr   = (OS_NESTING_CTR)0;
 1278              		.loc 1 772 0
 1279 0028 7B68     		ldr	r3, [r7, #4]
 1280 002a 4FF00002 		mov	r2, #0
 1281 002e 83F82520 		strb	r2, [r3, #37]
 773:C:\Micrium\Software\uCOS-III\Source\os_mutex.c ****     p_mutex->TS                = (CPU_TS        )0;
 1282              		.loc 1 773 0
 1283 0032 7B68     		ldr	r3, [r7, #4]
 1284 0034 4FF00002 		mov	r2, #0
 1285 0038 9A62     		str	r2, [r3, #40]
 774:C:\Micrium\Software\uCOS-III\Source\os_mutex.c ****     p_mutex->OwnerOriginalPrio =  OS_CFG_PRIO_MAX;
 1286              		.loc 1 774 0
 1287 003a 7B68     		ldr	r3, [r7, #4]
 1288 003c 4FF00802 		mov	r2, #8
 1289 0040 83F82420 		strb	r2, [r3, #36]
 775:C:\Micrium\Software\uCOS-III\Source\os_mutex.c ****     OS_PendListInit(&p_mutex->PendList);                    /* Initialize the waiting list         
 1290              		.loc 1 775 0
 1291 0044 7B68     		ldr	r3, [r7, #4]
 1292 0046 03F10803 		add	r3, r3, #8
 1293 004a 1846     		mov	r0, r3
 1294 004c FFF7FEFF 		bl	OS_PendListInit
 776:C:\Micrium\Software\uCOS-III\Source\os_mutex.c **** }
 1295              		.loc 1 776 0
 1296 0050 07F10807 		add	r7, r7, #8
 1297 0054 BD46     		mov	sp, r7
 1298 0056 80BD     		pop	{r7, pc}
 1299              		.cfi_endproc
 1300              	.LFE5:
 1301              		.size	OS_MutexClr, .-OS_MutexClr
 1302              		.section	.rodata
 1303 0007 00       		.align	2
 1304              	.LC1:
 1305 0008 2000     		.ascii	" \000"
 1306 000a 0000     		.section	.text.OS_MutexDbgListAdd,"ax",%progbits
 1307              		.align	2
 1308              		.global	OS_MutexDbgListAdd
 1309              		.thumb
 1310              		.thumb_func
 1311              		.type	OS_MutexDbgListAdd, %function
 1312              	OS_MutexDbgListAdd:
 1313              	.LFB6:
 777:C:\Micrium\Software\uCOS-III\Source\os_mutex.c **** 
 778:C:\Micrium\Software\uCOS-III\Source\os_mutex.c **** /*$PAGE*/
 779:C:\Micrium\Software\uCOS-III\Source\os_mutex.c **** /*
 780:C:\Micrium\Software\uCOS-III\Source\os_mutex.c **** ***************************************************************************************************
 781:C:\Micrium\Software\uCOS-III\Source\os_mutex.c **** *                                          ADD/REMOVE MUTEX TO/FROM DEBUG LIST
 782:C:\Micrium\Software\uCOS-III\Source\os_mutex.c **** *
 783:C:\Micrium\Software\uCOS-III\Source\os_mutex.c **** * Description: These functions are called by uC/OS-III to add or remove a mutex to/from the debug l
 784:C:\Micrium\Software\uCOS-III\Source\os_mutex.c **** *
 785:C:\Micrium\Software\uCOS-III\Source\os_mutex.c **** * Arguments  : p_mutex     is a pointer to the mutex to add/remove
 786:C:\Micrium\Software\uCOS-III\Source\os_mutex.c **** *
 787:C:\Micrium\Software\uCOS-III\Source\os_mutex.c **** * Returns    : none
 788:C:\Micrium\Software\uCOS-III\Source\os_mutex.c **** *
 789:C:\Micrium\Software\uCOS-III\Source\os_mutex.c **** * Note(s)    : These functions are INTERNAL to uC/OS-III and your application should not call it.
 790:C:\Micrium\Software\uCOS-III\Source\os_mutex.c **** ***************************************************************************************************
 791:C:\Micrium\Software\uCOS-III\Source\os_mutex.c **** */
ARM GAS  C:\Users\daniel01\AppData\Local\Temp\ccg4pOSx.s 			page 38


 792:C:\Micrium\Software\uCOS-III\Source\os_mutex.c **** 
 793:C:\Micrium\Software\uCOS-III\Source\os_mutex.c **** 
 794:C:\Micrium\Software\uCOS-III\Source\os_mutex.c **** #if OS_CFG_DBG_EN > 0u
 795:C:\Micrium\Software\uCOS-III\Source\os_mutex.c **** void  OS_MutexDbgListAdd (OS_MUTEX  *p_mutex)
 796:C:\Micrium\Software\uCOS-III\Source\os_mutex.c **** {
 1314              		.loc 1 796 0
 1315              		.cfi_startproc
 1316              		@ args = 0, pretend = 0, frame = 8
 1317              		@ frame_needed = 1, uses_anonymous_args = 0
 1318              		@ link register save eliminated.
 1319 0000 80B4     		push	{r7}
 1320              	.LCFI18:
 1321              		.cfi_def_cfa_offset 4
 1322 0002 83B0     		sub	sp, sp, #12
 1323              	.LCFI19:
 1324              		.cfi_def_cfa_offset 16
 1325 0004 00AF     		add	r7, sp, #0
 1326              		.cfi_offset 7, -4
 1327              	.LCFI20:
 1328              		.cfi_def_cfa_register 7
 1329 0006 7860     		str	r0, [r7, #4]
 797:C:\Micrium\Software\uCOS-III\Source\os_mutex.c ****     p_mutex->DbgNamePtr               = (CPU_CHAR *)((void *)" ");
 1330              		.loc 1 797 0
 1331 0008 7A68     		ldr	r2, [r7, #4]
 1332 000a 40F20003 		movw	r3, #:lower16:.LC1
 1333 000e C0F20003 		movt	r3, #:upper16:.LC1
 1334 0012 D361     		str	r3, [r2, #28]
 798:C:\Micrium\Software\uCOS-III\Source\os_mutex.c ****     p_mutex->DbgPrevPtr               = (OS_MUTEX *)0;
 1335              		.loc 1 798 0
 1336 0014 7B68     		ldr	r3, [r7, #4]
 1337 0016 4FF00002 		mov	r2, #0
 1338 001a 5A61     		str	r2, [r3, #20]
 799:C:\Micrium\Software\uCOS-III\Source\os_mutex.c ****     if (OSMutexDbgListPtr == (OS_MUTEX *)0) {
 1339              		.loc 1 799 0
 1340 001c 40F20003 		movw	r3, #:lower16:OSMutexDbgListPtr
 1341 0020 C0F20003 		movt	r3, #:upper16:OSMutexDbgListPtr
 1342 0024 1B68     		ldr	r3, [r3, #0]
 1343 0026 002B     		cmp	r3, #0
 1344 0028 04D1     		bne	.L93
 800:C:\Micrium\Software\uCOS-III\Source\os_mutex.c ****         p_mutex->DbgNextPtr           = (OS_MUTEX *)0;
 1345              		.loc 1 800 0
 1346 002a 7B68     		ldr	r3, [r7, #4]
 1347 002c 4FF00002 		mov	r2, #0
 1348 0030 9A61     		str	r2, [r3, #24]
 1349 0032 0DE0     		b	.L94
 1350              	.L93:
 801:C:\Micrium\Software\uCOS-III\Source\os_mutex.c ****     } else {
 802:C:\Micrium\Software\uCOS-III\Source\os_mutex.c ****         p_mutex->DbgNextPtr           =  OSMutexDbgListPtr;
 1351              		.loc 1 802 0
 1352 0034 40F20003 		movw	r3, #:lower16:OSMutexDbgListPtr
 1353 0038 C0F20003 		movt	r3, #:upper16:OSMutexDbgListPtr
 1354 003c 1A68     		ldr	r2, [r3, #0]
 1355 003e 7B68     		ldr	r3, [r7, #4]
 1356 0040 9A61     		str	r2, [r3, #24]
 803:C:\Micrium\Software\uCOS-III\Source\os_mutex.c ****         OSMutexDbgListPtr->DbgPrevPtr =  p_mutex;
 1357              		.loc 1 803 0
 1358 0042 40F20003 		movw	r3, #:lower16:OSMutexDbgListPtr
ARM GAS  C:\Users\daniel01\AppData\Local\Temp\ccg4pOSx.s 			page 39


 1359 0046 C0F20003 		movt	r3, #:upper16:OSMutexDbgListPtr
 1360 004a 1B68     		ldr	r3, [r3, #0]
 1361 004c 7A68     		ldr	r2, [r7, #4]
 1362 004e 5A61     		str	r2, [r3, #20]
 1363              	.L94:
 804:C:\Micrium\Software\uCOS-III\Source\os_mutex.c ****     }
 805:C:\Micrium\Software\uCOS-III\Source\os_mutex.c ****     OSMutexDbgListPtr                 =  p_mutex;
 1364              		.loc 1 805 0
 1365 0050 40F20003 		movw	r3, #:lower16:OSMutexDbgListPtr
 1366 0054 C0F20003 		movt	r3, #:upper16:OSMutexDbgListPtr
 1367 0058 7A68     		ldr	r2, [r7, #4]
 1368 005a 1A60     		str	r2, [r3, #0]
 806:C:\Micrium\Software\uCOS-III\Source\os_mutex.c **** }
 1369              		.loc 1 806 0
 1370 005c 07F10C07 		add	r7, r7, #12
 1371 0060 BD46     		mov	sp, r7
 1372 0062 80BC     		pop	{r7}
 1373 0064 7047     		bx	lr
 1374              		.cfi_endproc
 1375              	.LFE6:
 1376              		.size	OS_MutexDbgListAdd, .-OS_MutexDbgListAdd
 1377 0066 00BF     		.section	.text.OS_MutexDbgListRemove,"ax",%progbits
 1378              		.align	2
 1379              		.global	OS_MutexDbgListRemove
 1380              		.thumb
 1381              		.thumb_func
 1382              		.type	OS_MutexDbgListRemove, %function
 1383              	OS_MutexDbgListRemove:
 1384              	.LFB7:
 807:C:\Micrium\Software\uCOS-III\Source\os_mutex.c **** 
 808:C:\Micrium\Software\uCOS-III\Source\os_mutex.c **** 
 809:C:\Micrium\Software\uCOS-III\Source\os_mutex.c **** 
 810:C:\Micrium\Software\uCOS-III\Source\os_mutex.c **** void  OS_MutexDbgListRemove (OS_MUTEX  *p_mutex)
 811:C:\Micrium\Software\uCOS-III\Source\os_mutex.c **** {
 1385              		.loc 1 811 0
 1386              		.cfi_startproc
 1387              		@ args = 0, pretend = 0, frame = 16
 1388              		@ frame_needed = 1, uses_anonymous_args = 0
 1389              		@ link register save eliminated.
 1390 0000 80B4     		push	{r7}
 1391              	.LCFI21:
 1392              		.cfi_def_cfa_offset 4
 1393 0002 85B0     		sub	sp, sp, #20
 1394              	.LCFI22:
 1395              		.cfi_def_cfa_offset 24
 1396 0004 00AF     		add	r7, sp, #0
 1397              		.cfi_offset 7, -4
 1398              	.LCFI23:
 1399              		.cfi_def_cfa_register 7
 1400 0006 7860     		str	r0, [r7, #4]
 812:C:\Micrium\Software\uCOS-III\Source\os_mutex.c ****     OS_MUTEX  *p_mutex_next;
 813:C:\Micrium\Software\uCOS-III\Source\os_mutex.c ****     OS_MUTEX  *p_mutex_prev;
 814:C:\Micrium\Software\uCOS-III\Source\os_mutex.c **** 
 815:C:\Micrium\Software\uCOS-III\Source\os_mutex.c **** 
 816:C:\Micrium\Software\uCOS-III\Source\os_mutex.c ****     p_mutex_prev = p_mutex->DbgPrevPtr;
 1401              		.loc 1 816 0
 1402 0008 7B68     		ldr	r3, [r7, #4]
ARM GAS  C:\Users\daniel01\AppData\Local\Temp\ccg4pOSx.s 			page 40


 1403 000a 5B69     		ldr	r3, [r3, #20]
 1404 000c FB60     		str	r3, [r7, #12]
 817:C:\Micrium\Software\uCOS-III\Source\os_mutex.c ****     p_mutex_next = p_mutex->DbgNextPtr;
 1405              		.loc 1 817 0
 1406 000e 7B68     		ldr	r3, [r7, #4]
 1407 0010 9B69     		ldr	r3, [r3, #24]
 1408 0012 BB60     		str	r3, [r7, #8]
 818:C:\Micrium\Software\uCOS-III\Source\os_mutex.c **** 
 819:C:\Micrium\Software\uCOS-III\Source\os_mutex.c ****     if (p_mutex_prev == (OS_MUTEX *)0) {
 1409              		.loc 1 819 0
 1410 0014 FB68     		ldr	r3, [r7, #12]
 1411 0016 002B     		cmp	r3, #0
 1412 0018 11D1     		bne	.L97
 820:C:\Micrium\Software\uCOS-III\Source\os_mutex.c ****         OSMutexDbgListPtr = p_mutex_next;
 1413              		.loc 1 820 0
 1414 001a 40F20003 		movw	r3, #:lower16:OSMutexDbgListPtr
 1415 001e C0F20003 		movt	r3, #:upper16:OSMutexDbgListPtr
 1416 0022 BA68     		ldr	r2, [r7, #8]
 1417 0024 1A60     		str	r2, [r3, #0]
 821:C:\Micrium\Software\uCOS-III\Source\os_mutex.c ****         if (p_mutex_next != (OS_MUTEX *)0) {
 1418              		.loc 1 821 0
 1419 0026 BB68     		ldr	r3, [r7, #8]
 1420 0028 002B     		cmp	r3, #0
 1421 002a 03D0     		beq	.L98
 822:C:\Micrium\Software\uCOS-III\Source\os_mutex.c ****             p_mutex_next->DbgPrevPtr = (OS_MUTEX *)0;
 1422              		.loc 1 822 0
 1423 002c BB68     		ldr	r3, [r7, #8]
 1424 002e 4FF00002 		mov	r2, #0
 1425 0032 5A61     		str	r2, [r3, #20]
 1426              	.L98:
 823:C:\Micrium\Software\uCOS-III\Source\os_mutex.c ****         }
 824:C:\Micrium\Software\uCOS-III\Source\os_mutex.c ****         p_mutex->DbgNextPtr = (OS_MUTEX *)0;
 1427              		.loc 1 824 0
 1428 0034 7B68     		ldr	r3, [r7, #4]
 1429 0036 4FF00002 		mov	r2, #0
 1430 003a 9A61     		str	r2, [r3, #24]
 1431 003c 19E0     		b	.L101
 1432              	.L97:
 825:C:\Micrium\Software\uCOS-III\Source\os_mutex.c **** 
 826:C:\Micrium\Software\uCOS-III\Source\os_mutex.c ****     } else if (p_mutex_next == (OS_MUTEX *)0) {
 1433              		.loc 1 826 0
 1434 003e BB68     		ldr	r3, [r7, #8]
 1435 0040 002B     		cmp	r3, #0
 1436 0042 08D1     		bne	.L100
 827:C:\Micrium\Software\uCOS-III\Source\os_mutex.c ****         p_mutex_prev->DbgNextPtr = (OS_MUTEX *)0;
 1437              		.loc 1 827 0
 1438 0044 FB68     		ldr	r3, [r7, #12]
 1439 0046 4FF00002 		mov	r2, #0
 1440 004a 9A61     		str	r2, [r3, #24]
 828:C:\Micrium\Software\uCOS-III\Source\os_mutex.c ****         p_mutex->DbgPrevPtr      = (OS_MUTEX *)0;
 1441              		.loc 1 828 0
 1442 004c 7B68     		ldr	r3, [r7, #4]
 1443 004e 4FF00002 		mov	r2, #0
 1444 0052 5A61     		str	r2, [r3, #20]
 1445 0054 0DE0     		b	.L101
 1446              	.L100:
 829:C:\Micrium\Software\uCOS-III\Source\os_mutex.c **** 
ARM GAS  C:\Users\daniel01\AppData\Local\Temp\ccg4pOSx.s 			page 41


 830:C:\Micrium\Software\uCOS-III\Source\os_mutex.c ****     } else {
 831:C:\Micrium\Software\uCOS-III\Source\os_mutex.c ****         p_mutex_prev->DbgNextPtr =  p_mutex_next;
 1447              		.loc 1 831 0
 1448 0056 FB68     		ldr	r3, [r7, #12]
 1449 0058 BA68     		ldr	r2, [r7, #8]
 1450 005a 9A61     		str	r2, [r3, #24]
 832:C:\Micrium\Software\uCOS-III\Source\os_mutex.c ****         p_mutex_next->DbgPrevPtr =  p_mutex_prev;
 1451              		.loc 1 832 0
 1452 005c BB68     		ldr	r3, [r7, #8]
 1453 005e FA68     		ldr	r2, [r7, #12]
 1454 0060 5A61     		str	r2, [r3, #20]
 833:C:\Micrium\Software\uCOS-III\Source\os_mutex.c ****         p_mutex->DbgNextPtr      = (OS_MUTEX *)0;
 1455              		.loc 1 833 0
 1456 0062 7B68     		ldr	r3, [r7, #4]
 1457 0064 4FF00002 		mov	r2, #0
 1458 0068 9A61     		str	r2, [r3, #24]
 834:C:\Micrium\Software\uCOS-III\Source\os_mutex.c ****         p_mutex->DbgPrevPtr      = (OS_MUTEX *)0;
 1459              		.loc 1 834 0
 1460 006a 7B68     		ldr	r3, [r7, #4]
 1461 006c 4FF00002 		mov	r2, #0
 1462 0070 5A61     		str	r2, [r3, #20]
 1463              	.L101:
 835:C:\Micrium\Software\uCOS-III\Source\os_mutex.c ****     }
 836:C:\Micrium\Software\uCOS-III\Source\os_mutex.c **** }
 1464              		.loc 1 836 0
 1465 0072 07F11407 		add	r7, r7, #20
 1466 0076 BD46     		mov	sp, r7
 1467 0078 80BC     		pop	{r7}
 1468 007a 7047     		bx	lr
 1469              		.cfi_endproc
 1470              	.LFE7:
 1471              		.size	OS_MutexDbgListRemove, .-OS_MutexDbgListRemove
 1472              		.section	.text.OS_MutexInit,"ax",%progbits
 1473              		.align	2
 1474              		.global	OS_MutexInit
 1475              		.thumb
 1476              		.thumb_func
 1477              		.type	OS_MutexInit, %function
 1478              	OS_MutexInit:
 1479              	.LFB8:
 837:C:\Micrium\Software\uCOS-III\Source\os_mutex.c **** #endif
 838:C:\Micrium\Software\uCOS-III\Source\os_mutex.c **** 
 839:C:\Micrium\Software\uCOS-III\Source\os_mutex.c **** /*$PAGE*/
 840:C:\Micrium\Software\uCOS-III\Source\os_mutex.c **** /*
 841:C:\Micrium\Software\uCOS-III\Source\os_mutex.c **** ***************************************************************************************************
 842:C:\Micrium\Software\uCOS-III\Source\os_mutex.c **** *                                                MUTEX INITIALIZATION
 843:C:\Micrium\Software\uCOS-III\Source\os_mutex.c **** *
 844:C:\Micrium\Software\uCOS-III\Source\os_mutex.c **** * Description: This function is called by OSInit() to initialize the mutex management.
 845:C:\Micrium\Software\uCOS-III\Source\os_mutex.c **** *
 846:C:\Micrium\Software\uCOS-III\Source\os_mutex.c **** 
 847:C:\Micrium\Software\uCOS-III\Source\os_mutex.c **** * Argument(s): p_err        is a pointer to a variable that will contain an error code returned by 
 848:C:\Micrium\Software\uCOS-III\Source\os_mutex.c **** *
 849:C:\Micrium\Software\uCOS-III\Source\os_mutex.c **** *                                OS_ERR_NONE     the call was successful
 850:C:\Micrium\Software\uCOS-III\Source\os_mutex.c **** *
 851:C:\Micrium\Software\uCOS-III\Source\os_mutex.c **** * Returns    : none
 852:C:\Micrium\Software\uCOS-III\Source\os_mutex.c **** *
 853:C:\Micrium\Software\uCOS-III\Source\os_mutex.c **** * Note(s)    : 1) This function is INTERNAL to uC/OS-III and your application MUST NOT call it.
ARM GAS  C:\Users\daniel01\AppData\Local\Temp\ccg4pOSx.s 			page 42


 854:C:\Micrium\Software\uCOS-III\Source\os_mutex.c **** ***************************************************************************************************
 855:C:\Micrium\Software\uCOS-III\Source\os_mutex.c **** */
 856:C:\Micrium\Software\uCOS-III\Source\os_mutex.c **** 
 857:C:\Micrium\Software\uCOS-III\Source\os_mutex.c **** void  OS_MutexInit (OS_ERR  *p_err)
 858:C:\Micrium\Software\uCOS-III\Source\os_mutex.c **** {
 1480              		.loc 1 858 0
 1481              		.cfi_startproc
 1482              		@ args = 0, pretend = 0, frame = 8
 1483              		@ frame_needed = 1, uses_anonymous_args = 0
 1484              		@ link register save eliminated.
 1485 0000 80B4     		push	{r7}
 1486              	.LCFI24:
 1487              		.cfi_def_cfa_offset 4
 1488 0002 83B0     		sub	sp, sp, #12
 1489              	.LCFI25:
 1490              		.cfi_def_cfa_offset 16
 1491 0004 00AF     		add	r7, sp, #0
 1492              		.cfi_offset 7, -4
 1493              	.LCFI26:
 1494              		.cfi_def_cfa_register 7
 1495 0006 7860     		str	r0, [r7, #4]
 859:C:\Micrium\Software\uCOS-III\Source\os_mutex.c **** #ifdef OS_SAFETY_CRITICAL
 860:C:\Micrium\Software\uCOS-III\Source\os_mutex.c ****     if (p_err == (OS_ERR *)0) {
 861:C:\Micrium\Software\uCOS-III\Source\os_mutex.c ****         OS_SAFETY_CRITICAL_EXCEPTION();
 862:C:\Micrium\Software\uCOS-III\Source\os_mutex.c ****         return;
 863:C:\Micrium\Software\uCOS-III\Source\os_mutex.c ****     }
 864:C:\Micrium\Software\uCOS-III\Source\os_mutex.c **** #endif
 865:C:\Micrium\Software\uCOS-III\Source\os_mutex.c **** 
 866:C:\Micrium\Software\uCOS-III\Source\os_mutex.c **** #if OS_CFG_DBG_EN > 0u
 867:C:\Micrium\Software\uCOS-III\Source\os_mutex.c ****     OSMutexDbgListPtr = (OS_MUTEX *)0;
 1496              		.loc 1 867 0
 1497 0008 40F20003 		movw	r3, #:lower16:OSMutexDbgListPtr
 1498 000c C0F20003 		movt	r3, #:upper16:OSMutexDbgListPtr
 1499 0010 4FF00002 		mov	r2, #0
 1500 0014 1A60     		str	r2, [r3, #0]
 868:C:\Micrium\Software\uCOS-III\Source\os_mutex.c **** #endif
 869:C:\Micrium\Software\uCOS-III\Source\os_mutex.c **** 
 870:C:\Micrium\Software\uCOS-III\Source\os_mutex.c ****     OSMutexQty        = (OS_OBJ_QTY)0;
 1501              		.loc 1 870 0
 1502 0016 40F20003 		movw	r3, #:lower16:OSMutexQty
 1503 001a C0F20003 		movt	r3, #:upper16:OSMutexQty
 1504 001e 4FF00002 		mov	r2, #0
 1505 0022 1A80     		strh	r2, [r3, #0]	@ movhi
 871:C:\Micrium\Software\uCOS-III\Source\os_mutex.c ****    *p_err             =  OS_ERR_NONE;
 1506              		.loc 1 871 0
 1507 0024 7B68     		ldr	r3, [r7, #4]
 1508 0026 4FF00002 		mov	r2, #0
 1509 002a 1A80     		strh	r2, [r3, #0]	@ movhi
 872:C:\Micrium\Software\uCOS-III\Source\os_mutex.c **** }
 1510              		.loc 1 872 0
 1511 002c 07F10C07 		add	r7, r7, #12
 1512 0030 BD46     		mov	sp, r7
 1513 0032 80BC     		pop	{r7}
 1514 0034 7047     		bx	lr
 1515              		.cfi_endproc
 1516              	.LFE8:
 1517              		.size	OS_MutexInit, .-OS_MutexInit
ARM GAS  C:\Users\daniel01\AppData\Local\Temp\ccg4pOSx.s 			page 43


 1518 0036 00BF     		.text
 1519              	.Letext0:
 1520              		.section	.debug_loc,"",%progbits
 1521              	.Ldebug_loc0:
 1522              	.LLST0:
 1523 0000 00000000 		.4byte	.LFB0
 1524 0004 02000000 		.4byte	.LCFI0
 1525 0008 0100     		.2byte	0x1
 1526 000a 5D       		.byte	0x5d
 1527 000b 02000000 		.4byte	.LCFI0
 1528 000f 04000000 		.4byte	.LCFI1
 1529 0013 0200     		.2byte	0x2
 1530 0015 7D       		.byte	0x7d
 1531 0016 08       		.sleb128 8
 1532 0017 04000000 		.4byte	.LCFI1
 1533 001b 06000000 		.4byte	.LCFI2
 1534 001f 0200     		.2byte	0x2
 1535 0021 7D       		.byte	0x7d
 1536 0022 20       		.sleb128 32
 1537 0023 06000000 		.4byte	.LCFI2
 1538 0027 BA000000 		.4byte	.LFE0
 1539 002b 0200     		.2byte	0x2
 1540 002d 77       		.byte	0x77
 1541 002e 20       		.sleb128 32
 1542 002f 00000000 		.4byte	0x0
 1543 0033 00000000 		.4byte	0x0
 1544              	.LLST1:
 1545 0037 00000000 		.4byte	.LFB1
 1546 003b 02000000 		.4byte	.LCFI3
 1547 003f 0100     		.2byte	0x1
 1548 0041 5D       		.byte	0x5d
 1549 0042 02000000 		.4byte	.LCFI3
 1550 0046 04000000 		.4byte	.LCFI4
 1551 004a 0200     		.2byte	0x2
 1552 004c 7D       		.byte	0x7d
 1553 004d 08       		.sleb128 8
 1554 004e 04000000 		.4byte	.LCFI4
 1555 0052 06000000 		.4byte	.LCFI5
 1556 0056 0200     		.2byte	0x2
 1557 0058 7D       		.byte	0x7d
 1558 0059 38       		.sleb128 56
 1559 005a 06000000 		.4byte	.LCFI5
 1560 005e F0010000 		.4byte	.LFE1
 1561 0062 0200     		.2byte	0x2
 1562 0064 77       		.byte	0x77
 1563 0065 38       		.sleb128 56
 1564 0066 00000000 		.4byte	0x0
 1565 006a 00000000 		.4byte	0x0
 1566              	.LLST2:
 1567 006e 00000000 		.4byte	.LFB2
 1568 0072 02000000 		.4byte	.LCFI6
 1569 0076 0100     		.2byte	0x1
 1570 0078 5D       		.byte	0x5d
 1571 0079 02000000 		.4byte	.LCFI6
 1572 007d 04000000 		.4byte	.LCFI7
 1573 0081 0200     		.2byte	0x2
 1574 0083 7D       		.byte	0x7d
ARM GAS  C:\Users\daniel01\AppData\Local\Temp\ccg4pOSx.s 			page 44


 1575 0084 08       		.sleb128 8
 1576 0085 04000000 		.4byte	.LCFI7
 1577 0089 06000000 		.4byte	.LCFI8
 1578 008d 0300     		.2byte	0x3
 1579 008f 7D       		.byte	0x7d
 1580 0090 C000     		.sleb128 64
 1581 0092 06000000 		.4byte	.LCFI8
 1582 0096 CA020000 		.4byte	.LFE2
 1583 009a 0300     		.2byte	0x3
 1584 009c 77       		.byte	0x77
 1585 009d C000     		.sleb128 64
 1586 009f 00000000 		.4byte	0x0
 1587 00a3 00000000 		.4byte	0x0
 1588              	.LLST3:
 1589 00a7 00000000 		.4byte	.LFB3
 1590 00ab 02000000 		.4byte	.LCFI9
 1591 00af 0100     		.2byte	0x1
 1592 00b1 5D       		.byte	0x5d
 1593 00b2 02000000 		.4byte	.LCFI9
 1594 00b6 04000000 		.4byte	.LCFI10
 1595 00ba 0200     		.2byte	0x2
 1596 00bc 7D       		.byte	0x7d
 1597 00bd 08       		.sleb128 8
 1598 00be 04000000 		.4byte	.LCFI10
 1599 00c2 06000000 		.4byte	.LCFI11
 1600 00c6 0200     		.2byte	0x2
 1601 00c8 7D       		.byte	0x7d
 1602 00c9 30       		.sleb128 48
 1603 00ca 06000000 		.4byte	.LCFI11
 1604 00ce 06010000 		.4byte	.LFE3
 1605 00d2 0200     		.2byte	0x2
 1606 00d4 77       		.byte	0x77
 1607 00d5 30       		.sleb128 48
 1608 00d6 00000000 		.4byte	0x0
 1609 00da 00000000 		.4byte	0x0
 1610              	.LLST4:
 1611 00de 00000000 		.4byte	.LFB4
 1612 00e2 02000000 		.4byte	.LCFI12
 1613 00e6 0100     		.2byte	0x1
 1614 00e8 5D       		.byte	0x5d
 1615 00e9 02000000 		.4byte	.LCFI12
 1616 00ed 04000000 		.4byte	.LCFI13
 1617 00f1 0200     		.2byte	0x2
 1618 00f3 7D       		.byte	0x7d
 1619 00f4 08       		.sleb128 8
 1620 00f5 04000000 		.4byte	.LCFI13
 1621 00f9 06000000 		.4byte	.LCFI14
 1622 00fd 0200     		.2byte	0x2
 1623 00ff 7D       		.byte	0x7d
 1624 0100 30       		.sleb128 48
 1625 0101 06000000 		.4byte	.LCFI14
 1626 0105 BE010000 		.4byte	.LFE4
 1627 0109 0200     		.2byte	0x2
 1628 010b 77       		.byte	0x77
 1629 010c 28       		.sleb128 40
 1630 010d 00000000 		.4byte	0x0
 1631 0111 00000000 		.4byte	0x0
ARM GAS  C:\Users\daniel01\AppData\Local\Temp\ccg4pOSx.s 			page 45


 1632              	.LLST5:
 1633 0115 00000000 		.4byte	.LFB5
 1634 0119 02000000 		.4byte	.LCFI15
 1635 011d 0100     		.2byte	0x1
 1636 011f 5D       		.byte	0x5d
 1637 0120 02000000 		.4byte	.LCFI15
 1638 0124 04000000 		.4byte	.LCFI16
 1639 0128 0200     		.2byte	0x2
 1640 012a 7D       		.byte	0x7d
 1641 012b 08       		.sleb128 8
 1642 012c 04000000 		.4byte	.LCFI16
 1643 0130 06000000 		.4byte	.LCFI17
 1644 0134 0200     		.2byte	0x2
 1645 0136 7D       		.byte	0x7d
 1646 0137 10       		.sleb128 16
 1647 0138 06000000 		.4byte	.LCFI17
 1648 013c 58000000 		.4byte	.LFE5
 1649 0140 0200     		.2byte	0x2
 1650 0142 77       		.byte	0x77
 1651 0143 10       		.sleb128 16
 1652 0144 00000000 		.4byte	0x0
 1653 0148 00000000 		.4byte	0x0
 1654              	.LLST6:
 1655 014c 00000000 		.4byte	.LFB6
 1656 0150 02000000 		.4byte	.LCFI18
 1657 0154 0100     		.2byte	0x1
 1658 0156 5D       		.byte	0x5d
 1659 0157 02000000 		.4byte	.LCFI18
 1660 015b 04000000 		.4byte	.LCFI19
 1661 015f 0200     		.2byte	0x2
 1662 0161 7D       		.byte	0x7d
 1663 0162 04       		.sleb128 4
 1664 0163 04000000 		.4byte	.LCFI19
 1665 0167 06000000 		.4byte	.LCFI20
 1666 016b 0200     		.2byte	0x2
 1667 016d 7D       		.byte	0x7d
 1668 016e 10       		.sleb128 16
 1669 016f 06000000 		.4byte	.LCFI20
 1670 0173 66000000 		.4byte	.LFE6
 1671 0177 0200     		.2byte	0x2
 1672 0179 77       		.byte	0x77
 1673 017a 10       		.sleb128 16
 1674 017b 00000000 		.4byte	0x0
 1675 017f 00000000 		.4byte	0x0
 1676              	.LLST7:
 1677 0183 00000000 		.4byte	.LFB7
 1678 0187 02000000 		.4byte	.LCFI21
 1679 018b 0100     		.2byte	0x1
 1680 018d 5D       		.byte	0x5d
 1681 018e 02000000 		.4byte	.LCFI21
 1682 0192 04000000 		.4byte	.LCFI22
 1683 0196 0200     		.2byte	0x2
 1684 0198 7D       		.byte	0x7d
 1685 0199 04       		.sleb128 4
 1686 019a 04000000 		.4byte	.LCFI22
 1687 019e 06000000 		.4byte	.LCFI23
 1688 01a2 0200     		.2byte	0x2
ARM GAS  C:\Users\daniel01\AppData\Local\Temp\ccg4pOSx.s 			page 46


 1689 01a4 7D       		.byte	0x7d
 1690 01a5 18       		.sleb128 24
 1691 01a6 06000000 		.4byte	.LCFI23
 1692 01aa 7C000000 		.4byte	.LFE7
 1693 01ae 0200     		.2byte	0x2
 1694 01b0 77       		.byte	0x77
 1695 01b1 18       		.sleb128 24
 1696 01b2 00000000 		.4byte	0x0
 1697 01b6 00000000 		.4byte	0x0
 1698              	.LLST8:
 1699 01ba 00000000 		.4byte	.LFB8
 1700 01be 02000000 		.4byte	.LCFI24
 1701 01c2 0100     		.2byte	0x1
 1702 01c4 5D       		.byte	0x5d
 1703 01c5 02000000 		.4byte	.LCFI24
 1704 01c9 04000000 		.4byte	.LCFI25
 1705 01cd 0200     		.2byte	0x2
 1706 01cf 7D       		.byte	0x7d
 1707 01d0 04       		.sleb128 4
 1708 01d1 04000000 		.4byte	.LCFI25
 1709 01d5 06000000 		.4byte	.LCFI26
 1710 01d9 0200     		.2byte	0x2
 1711 01db 7D       		.byte	0x7d
 1712 01dc 10       		.sleb128 16
 1713 01dd 06000000 		.4byte	.LCFI26
 1714 01e1 36000000 		.4byte	.LFE8
 1715 01e5 0200     		.2byte	0x2
 1716 01e7 77       		.byte	0x77
 1717 01e8 10       		.sleb128 16
 1718 01e9 00000000 		.4byte	0x0
 1719 01ed 00000000 		.4byte	0x0
 1720              		.file 2 "..\\..\\..\\..\\..\\..\\uC-CPU\\ARM-Cortex-M3\\GNU/cpu.h"
 1721              		.file 3 "..\\..\\..\\..\\..\\..\\uC-CPU/cpu_core.h"
 1722              		.file 4 "..\\..\\..\\..\\..\\..\\uCOS-III\\Source/os_type.h"
 1723              		.file 5 "..\\..\\..\\..\\..\\..\\uCOS-III\\Source/os.h"
 1724              		.section	.debug_info
 1725 0000 1C110000 		.4byte	0x111c
 1726 0004 0200     		.2byte	0x2
 1727 0006 00000000 		.4byte	.Ldebug_abbrev0
 1728 000a 04       		.byte	0x4
 1729 000b 01       		.uleb128 0x1
 1730 000c 3D000000 		.4byte	.LASF313
 1731 0010 01       		.byte	0x1
 1732 0011 410F0000 		.4byte	.LASF314
 1733 0015 D7110000 		.4byte	.LASF315
 1734 0019 00000000 		.4byte	0x0
 1735 001d 00000000 		.4byte	0x0
 1736 0021 00000000 		.4byte	.Ldebug_ranges0+0x0
 1737 0025 00000000 		.4byte	.Ldebug_line0
 1738 0029 02       		.uleb128 0x2
 1739 002a E4060000 		.4byte	.LASF2
 1740 002e 02       		.byte	0x2
 1741 002f 76       		.byte	0x76
 1742 0030 34000000 		.4byte	0x34
 1743 0034 03       		.uleb128 0x3
 1744 0035 01       		.byte	0x1
 1745 0036 08       		.byte	0x8
ARM GAS  C:\Users\daniel01\AppData\Local\Temp\ccg4pOSx.s 			page 47


 1746 0037 7E080000 		.4byte	.LASF0
 1747 003b 03       		.uleb128 0x3
 1748 003c 01       		.byte	0x1
 1749 003d 08       		.byte	0x8
 1750 003e 700F0000 		.4byte	.LASF1
 1751 0042 02       		.uleb128 0x2
 1752 0043 C2050000 		.4byte	.LASF3
 1753 0047 02       		.byte	0x2
 1754 0048 78       		.byte	0x78
 1755 0049 3B000000 		.4byte	0x3b
 1756 004d 03       		.uleb128 0x3
 1757 004e 01       		.byte	0x1
 1758 004f 06       		.byte	0x6
 1759 0050 B1100000 		.4byte	.LASF4
 1760 0054 02       		.uleb128 0x2
 1761 0055 E3090000 		.4byte	.LASF5
 1762 0059 02       		.byte	0x2
 1763 005a 7A       		.byte	0x7a
 1764 005b 5F000000 		.4byte	0x5f
 1765 005f 03       		.uleb128 0x3
 1766 0060 02       		.byte	0x2
 1767 0061 07       		.byte	0x7
 1768 0062 D7100000 		.4byte	.LASF6
 1769 0066 03       		.uleb128 0x3
 1770 0067 02       		.byte	0x2
 1771 0068 05       		.byte	0x5
 1772 0069 D30C0000 		.4byte	.LASF7
 1773 006d 02       		.uleb128 0x2
 1774 006e D6010000 		.4byte	.LASF8
 1775 0072 02       		.byte	0x2
 1776 0073 7C       		.byte	0x7c
 1777 0074 78000000 		.4byte	0x78
 1778 0078 03       		.uleb128 0x3
 1779 0079 04       		.byte	0x4
 1780 007a 07       		.byte	0x7
 1781 007b 2F0E0000 		.4byte	.LASF9
 1782 007f 04       		.uleb128 0x4
 1783 0080 04       		.byte	0x4
 1784 0081 05       		.byte	0x5
 1785 0082 696E7400 		.ascii	"int\000"
 1786 0086 03       		.uleb128 0x3
 1787 0087 08       		.byte	0x8
 1788 0088 07       		.byte	0x7
 1789 0089 12050000 		.4byte	.LASF10
 1790 008d 03       		.uleb128 0x3
 1791 008e 08       		.byte	0x8
 1792 008f 05       		.byte	0x5
 1793 0090 63090000 		.4byte	.LASF11
 1794 0094 03       		.uleb128 0x3
 1795 0095 04       		.byte	0x4
 1796 0096 04       		.byte	0x4
 1797 0097 6F040000 		.4byte	.LASF12
 1798 009b 03       		.uleb128 0x3
 1799 009c 08       		.byte	0x8
 1800 009d 04       		.byte	0x4
 1801 009e 69110000 		.4byte	.LASF13
 1802 00a2 05       		.uleb128 0x5
ARM GAS  C:\Users\daniel01\AppData\Local\Temp\ccg4pOSx.s 			page 48


 1803 00a3 04       		.byte	0x4
 1804 00a4 A8000000 		.4byte	0xa8
 1805 00a8 06       		.uleb128 0x6
 1806 00a9 01       		.byte	0x1
 1807 00aa B4000000 		.4byte	0xb4
 1808 00ae 07       		.uleb128 0x7
 1809 00af B4000000 		.4byte	0xb4
 1810 00b3 00       		.byte	0x0
 1811 00b4 08       		.uleb128 0x8
 1812 00b5 04       		.byte	0x4
 1813 00b6 02       		.uleb128 0x2
 1814 00b7 BF0E0000 		.4byte	.LASF14
 1815 00bb 02       		.byte	0x2
 1816 00bc B5       		.byte	0xb5
 1817 00bd 6D000000 		.4byte	0x6d
 1818 00c1 02       		.uleb128 0x2
 1819 00c2 7D130000 		.4byte	.LASF15
 1820 00c6 02       		.byte	0x2
 1821 00c7 D9       		.byte	0xd9
 1822 00c8 6D000000 		.4byte	0x6d
 1823 00cc 02       		.uleb128 0x2
 1824 00cd 23070000 		.4byte	.LASF16
 1825 00d1 02       		.byte	0x2
 1826 00d2 DA       		.byte	0xda
 1827 00d3 B6000000 		.4byte	0xb6
 1828 00d7 09       		.uleb128 0x9
 1829 00d8 B4080000 		.4byte	.LASF17
 1830 00dc 02       		.byte	0x2
 1831 00dd 2901     		.2byte	0x129
 1832 00df 6D000000 		.4byte	0x6d
 1833 00e3 02       		.uleb128 0x2
 1834 00e4 9F0A0000 		.4byte	.LASF18
 1835 00e8 03       		.byte	0x3
 1836 00e9 C4       		.byte	0xc4
 1837 00ea 6D000000 		.4byte	0x6d
 1838 00ee 02       		.uleb128 0x2
 1839 00ef 5C090000 		.4byte	.LASF19
 1840 00f3 03       		.byte	0x3
 1841 00f4 C7       		.byte	0xc7
 1842 00f5 E3000000 		.4byte	0xe3
 1843 00f9 02       		.uleb128 0x2
 1844 00fa AC010000 		.4byte	.LASF20
 1845 00fe 04       		.byte	0x4
 1846 00ff 30       		.byte	0x30
 1847 0100 54000000 		.4byte	0x54
 1848 0104 02       		.uleb128 0x2
 1849 0105 2F000000 		.4byte	.LASF21
 1850 0109 04       		.byte	0x4
 1851 010a 34       		.byte	0x34
 1852 010b 6D000000 		.4byte	0x6d
 1853 010f 02       		.uleb128 0x2
 1854 0110 050F0000 		.4byte	.LASF22
 1855 0114 04       		.byte	0x4
 1856 0115 36       		.byte	0x36
 1857 0116 6D000000 		.4byte	0x6d
 1858 011a 02       		.uleb128 0x2
 1859 011b EA100000 		.4byte	.LASF23
ARM GAS  C:\Users\daniel01\AppData\Local\Temp\ccg4pOSx.s 			page 49


 1860 011f 04       		.byte	0x4
 1861 0120 38       		.byte	0x38
 1862 0121 6D000000 		.4byte	0x6d
 1863 0125 02       		.uleb128 0x2
 1864 0126 30070000 		.4byte	.LASF24
 1865 012a 04       		.byte	0x4
 1866 012b 3F       		.byte	0x3f
 1867 012c 54000000 		.4byte	0x54
 1868 0130 02       		.uleb128 0x2
 1869 0131 A9060000 		.4byte	.LASF25
 1870 0135 04       		.byte	0x4
 1871 0136 40       		.byte	0x40
 1872 0137 54000000 		.4byte	0x54
 1873 013b 02       		.uleb128 0x2
 1874 013c 6E0D0000 		.4byte	.LASF26
 1875 0140 04       		.byte	0x4
 1876 0141 42       		.byte	0x42
 1877 0142 42000000 		.4byte	0x42
 1878 0146 02       		.uleb128 0x2
 1879 0147 98020000 		.4byte	.LASF27
 1880 014b 04       		.byte	0x4
 1881 014c 44       		.byte	0x44
 1882 014d 54000000 		.4byte	0x54
 1883 0151 02       		.uleb128 0x2
 1884 0152 83080000 		.4byte	.LASF28
 1885 0156 04       		.byte	0x4
 1886 0157 45       		.byte	0x45
 1887 0158 6D000000 		.4byte	0x6d
 1888 015c 02       		.uleb128 0x2
 1889 015d C40F0000 		.4byte	.LASF29
 1890 0161 04       		.byte	0x4
 1891 0162 47       		.byte	0x47
 1892 0163 54000000 		.4byte	0x54
 1893 0167 02       		.uleb128 0x2
 1894 0168 67040000 		.4byte	.LASF30
 1895 016c 04       		.byte	0x4
 1896 016d 49       		.byte	0x49
 1897 016e 42000000 		.4byte	0x42
 1898 0172 02       		.uleb128 0x2
 1899 0173 34060000 		.4byte	.LASF31
 1900 0177 04       		.byte	0x4
 1901 0178 4F       		.byte	0x4f
 1902 0179 6D000000 		.4byte	0x6d
 1903 017d 02       		.uleb128 0x2
 1904 017e CB0A0000 		.4byte	.LASF32
 1905 0182 04       		.byte	0x4
 1906 0183 52       		.byte	0x52
 1907 0184 6D000000 		.4byte	0x6d
 1908 0188 02       		.uleb128 0x2
 1909 0189 B30F0000 		.4byte	.LASF33
 1910 018d 04       		.byte	0x4
 1911 018e 54       		.byte	0x54
 1912 018f 42000000 		.4byte	0x42
 1913 0193 02       		.uleb128 0x2
 1914 0194 61060000 		.4byte	.LASF34
 1915 0198 04       		.byte	0x4
 1916 0199 56       		.byte	0x56
ARM GAS  C:\Users\daniel01\AppData\Local\Temp\ccg4pOSx.s 			page 50


 1917 019a 42000000 		.4byte	0x42
 1918 019e 02       		.uleb128 0x2
 1919 019f 560A0000 		.4byte	.LASF35
 1920 01a3 04       		.byte	0x4
 1921 01a4 58       		.byte	0x58
 1922 01a5 6D000000 		.4byte	0x6d
 1923 01a9 0A       		.uleb128 0xa
 1924 01aa 66010000 		.4byte	.LASF316
 1925 01ae 02       		.byte	0x2
 1926 01af 05       		.byte	0x5
 1927 01b0 A501     		.2byte	0x1a5
 1928 01b2 BD060000 		.4byte	0x6bd
 1929 01b6 0B       		.uleb128 0xb
 1930 01b7 26110000 		.4byte	.LASF36
 1931 01bb 00       		.sleb128 0
 1932 01bc 0B       		.uleb128 0xb
 1933 01bd 74000000 		.4byte	.LASF37
 1934 01c1 90CE00   		.sleb128 10000
 1935 01c4 0B       		.uleb128 0xb
 1936 01c5 08030000 		.4byte	.LASF38
 1937 01c9 91CE00   		.sleb128 10001
 1938 01cc 0B       		.uleb128 0xb
 1939 01cd 7D000000 		.4byte	.LASF39
 1940 01d1 F8D500   		.sleb128 11000
 1941 01d4 0B       		.uleb128 0xb
 1942 01d5 86000000 		.4byte	.LASF40
 1943 01d9 E0DD00   		.sleb128 12000
 1944 01dc 0B       		.uleb128 0xb
 1945 01dd 8A010000 		.4byte	.LASF41
 1946 01e1 E1DD00   		.sleb128 12001
 1947 01e4 0B       		.uleb128 0xb
 1948 01e5 8F000000 		.4byte	.LASF42
 1949 01e9 C8E500   		.sleb128 13000
 1950 01ec 0B       		.uleb128 0xb
 1951 01ed 4E080000 		.4byte	.LASF43
 1952 01f1 C9E500   		.sleb128 13001
 1953 01f4 0B       		.uleb128 0xb
 1954 01f5 98000000 		.4byte	.LASF44
 1955 01f9 B0ED00   		.sleb128 14000
 1956 01fc 0B       		.uleb128 0xb
 1957 01fd A1000000 		.4byte	.LASF45
 1958 0201 98F500   		.sleb128 15000
 1959 0204 0B       		.uleb128 0xb
 1960 0205 C3100000 		.4byte	.LASF46
 1961 0209 99F500   		.sleb128 15001
 1962 020c 0B       		.uleb128 0xb
 1963 020d B2070000 		.4byte	.LASF47
 1964 0211 FDF500   		.sleb128 15101
 1965 0214 0B       		.uleb128 0xb
 1966 0215 7D0E0000 		.4byte	.LASF48
 1967 0219 FEF500   		.sleb128 15102
 1968 021c 0B       		.uleb128 0xb
 1969 021d 71090000 		.4byte	.LASF49
 1970 0221 FFF500   		.sleb128 15103
 1971 0224 0B       		.uleb128 0xb
 1972 0225 53110000 		.4byte	.LASF50
 1973 0229 80F600   		.sleb128 15104
ARM GAS  C:\Users\daniel01\AppData\Local\Temp\ccg4pOSx.s 			page 51


 1974 022c 0B       		.uleb128 0xb
 1975 022d AA000000 		.4byte	.LASF51
 1976 0231 80FD00   		.sleb128 16000
 1977 0234 0B       		.uleb128 0xb
 1978 0235 B3000000 		.4byte	.LASF52
 1979 0239 E88401   		.sleb128 17000
 1980 023c 0B       		.uleb128 0xb
 1981 023d BC000000 		.4byte	.LASF53
 1982 0241 D08C01   		.sleb128 18000
 1983 0244 0B       		.uleb128 0xb
 1984 0245 FA030000 		.4byte	.LASF54
 1985 0249 D18C01   		.sleb128 18001
 1986 024c 0B       		.uleb128 0xb
 1987 024d DC020000 		.4byte	.LASF55
 1988 0251 D28C01   		.sleb128 18002
 1989 0254 0B       		.uleb128 0xb
 1990 0255 C5030000 		.4byte	.LASF56
 1991 0259 D38C01   		.sleb128 18003
 1992 025c 0B       		.uleb128 0xb
 1993 025d 78010000 		.4byte	.LASF57
 1994 0261 D48C01   		.sleb128 18004
 1995 0264 0B       		.uleb128 0xb
 1996 0265 5F100000 		.4byte	.LASF58
 1997 0269 D58C01   		.sleb128 18005
 1998 026c 0B       		.uleb128 0xb
 1999 026d 7F0B0000 		.4byte	.LASF59
 2000 0271 D68C01   		.sleb128 18006
 2001 0274 0B       		.uleb128 0xb
 2002 0275 C5000000 		.4byte	.LASF60
 2003 0279 B89401   		.sleb128 19000
 2004 027c 0B       		.uleb128 0xb
 2005 027d CE000000 		.4byte	.LASF61
 2006 0281 A09C01   		.sleb128 20000
 2007 0284 0B       		.uleb128 0xb
 2008 0285 D7000000 		.4byte	.LASF62
 2009 0289 88A401   		.sleb128 21000
 2010 028c 0B       		.uleb128 0xb
 2011 028d A30C0000 		.4byte	.LASF63
 2012 0291 89A401   		.sleb128 21001
 2013 0294 0B       		.uleb128 0xb
 2014 0295 E0000000 		.4byte	.LASF64
 2015 0299 F0AB01   		.sleb128 22000
 2016 029c 0B       		.uleb128 0xb
 2017 029d D70F0000 		.4byte	.LASF65
 2018 02a1 B9AD01   		.sleb128 22201
 2019 02a4 0B       		.uleb128 0xb
 2020 02a5 5E0A0000 		.4byte	.LASF66
 2021 02a9 BAAD01   		.sleb128 22202
 2022 02ac 0B       		.uleb128 0xb
 2023 02ad 830C0000 		.4byte	.LASF67
 2024 02b1 BBAD01   		.sleb128 22203
 2025 02b4 0B       		.uleb128 0xb
 2026 02b5 CB070000 		.4byte	.LASF68
 2027 02b9 BCAD01   		.sleb128 22204
 2028 02bc 0B       		.uleb128 0xb
 2029 02bd 0A0A0000 		.4byte	.LASF69
 2030 02c1 BDAD01   		.sleb128 22205
ARM GAS  C:\Users\daniel01\AppData\Local\Temp\ccg4pOSx.s 			page 52


 2031 02c4 0B       		.uleb128 0xb
 2032 02c5 6A0C0000 		.4byte	.LASF70
 2033 02c9 BEAD01   		.sleb128 22206
 2034 02cc 0B       		.uleb128 0xb
 2035 02cd 860A0000 		.4byte	.LASF71
 2036 02d1 BFAD01   		.sleb128 22207
 2037 02d4 0B       		.uleb128 0xb
 2038 02d5 B0040000 		.4byte	.LASF72
 2039 02d9 C0AD01   		.sleb128 22208
 2040 02dc 0B       		.uleb128 0xb
 2041 02dd 8F120000 		.4byte	.LASF73
 2042 02e1 C1AD01   		.sleb128 22209
 2043 02e4 0B       		.uleb128 0xb
 2044 02e5 65130000 		.4byte	.LASF74
 2045 02e9 C2AD01   		.sleb128 22210
 2046 02ec 0B       		.uleb128 0xb
 2047 02ed E80C0000 		.4byte	.LASF75
 2048 02f1 9DAE01   		.sleb128 22301
 2049 02f4 0B       		.uleb128 0xb
 2050 02f5 550D0000 		.4byte	.LASF76
 2051 02f9 9EAE01   		.sleb128 22302
 2052 02fc 0B       		.uleb128 0xb
 2053 02fd 92060000 		.4byte	.LASF77
 2054 0301 81AF01   		.sleb128 22401
 2055 0304 0B       		.uleb128 0xb
 2056 0305 440E0000 		.4byte	.LASF78
 2057 0309 82AF01   		.sleb128 22402
 2058 030c 0B       		.uleb128 0xb
 2059 030d 32030000 		.4byte	.LASF79
 2060 0311 83AF01   		.sleb128 22403
 2061 0314 0B       		.uleb128 0xb
 2062 0315 E9000000 		.4byte	.LASF80
 2063 0319 D8B301   		.sleb128 23000
 2064 031c 0B       		.uleb128 0xb
 2065 031d 3B060000 		.4byte	.LASF81
 2066 0321 D9B301   		.sleb128 23001
 2067 0324 0B       		.uleb128 0xb
 2068 0325 8A040000 		.4byte	.LASF82
 2069 0329 DAB301   		.sleb128 23002
 2070 032c 0B       		.uleb128 0xb
 2071 032d F2000000 		.4byte	.LASF83
 2072 0331 C0BB01   		.sleb128 24000
 2073 0334 0B       		.uleb128 0xb
 2074 0335 86030000 		.4byte	.LASF84
 2075 0339 C1BB01   		.sleb128 24001
 2076 033c 0B       		.uleb128 0xb
 2077 033d 4D090000 		.4byte	.LASF85
 2078 0341 C2BB01   		.sleb128 24002
 2079 0344 0B       		.uleb128 0xb
 2080 0345 220A0000 		.4byte	.LASF86
 2081 0349 C3BB01   		.sleb128 24003
 2082 034c 0B       		.uleb128 0xb
 2083 034d C20D0000 		.4byte	.LASF87
 2084 0351 C4BB01   		.sleb128 24004
 2085 0354 0B       		.uleb128 0xb
 2086 0355 A1080000 		.4byte	.LASF88
 2087 0359 A5BC01   		.sleb128 24101
ARM GAS  C:\Users\daniel01\AppData\Local\Temp\ccg4pOSx.s 			page 53


 2088 035c 0B       		.uleb128 0xb
 2089 035d FC0B0000 		.4byte	.LASF89
 2090 0361 89BD01   		.sleb128 24201
 2091 0364 0B       		.uleb128 0xb
 2092 0365 3B070000 		.4byte	.LASF90
 2093 0369 8ABD01   		.sleb128 24202
 2094 036c 0B       		.uleb128 0xb
 2095 036d FB000000 		.4byte	.LASF91
 2096 0371 A8C301   		.sleb128 25000
 2097 0374 0B       		.uleb128 0xb
 2098 0375 70110000 		.4byte	.LASF92
 2099 0379 A9C301   		.sleb128 25001
 2100 037c 0B       		.uleb128 0xb
 2101 037d A90E0000 		.4byte	.LASF93
 2102 0381 AAC301   		.sleb128 25002
 2103 0384 0B       		.uleb128 0xb
 2104 0385 180E0000 		.4byte	.LASF94
 2105 0389 ABC301   		.sleb128 25003
 2106 038c 0B       		.uleb128 0xb
 2107 038d CC090000 		.4byte	.LASF95
 2108 0391 ACC301   		.sleb128 25004
 2109 0394 0B       		.uleb128 0xb
 2110 0395 BC110000 		.4byte	.LASF96
 2111 0399 ADC301   		.sleb128 25005
 2112 039c 0B       		.uleb128 0xb
 2113 039d 0C100000 		.4byte	.LASF97
 2114 03a1 AEC301   		.sleb128 25006
 2115 03a4 0B       		.uleb128 0xb
 2116 03a5 85020000 		.4byte	.LASF98
 2117 03a9 AFC301   		.sleb128 25007
 2118 03ac 0B       		.uleb128 0xb
 2119 03ad 29020000 		.4byte	.LASF99
 2120 03b1 B0C301   		.sleb128 25008
 2121 03b4 0B       		.uleb128 0xb
 2122 03b5 75040000 		.4byte	.LASF100
 2123 03b9 8DC401   		.sleb128 25101
 2124 03bc 0B       		.uleb128 0xb
 2125 03bd C80E0000 		.4byte	.LASF101
 2126 03c1 8EC401   		.sleb128 25102
 2127 03c4 0B       		.uleb128 0xb
 2128 03c5 4A130000 		.4byte	.LASF102
 2129 03c9 F1C401   		.sleb128 25201
 2130 03cc 0B       		.uleb128 0xb
 2131 03cd B0110000 		.4byte	.LASF103
 2132 03d1 F2C401   		.sleb128 25202
 2133 03d4 0B       		.uleb128 0xb
 2134 03d5 07000000 		.4byte	.LASF104
 2135 03d9 F3C401   		.sleb128 25203
 2136 03dc 0B       		.uleb128 0xb
 2137 03dd CC0B0000 		.4byte	.LASF105
 2138 03e1 D5C501   		.sleb128 25301
 2139 03e4 0B       		.uleb128 0xb
 2140 03e5 04010000 		.4byte	.LASF106
 2141 03e9 90CB01   		.sleb128 26000
 2142 03ec 0B       		.uleb128 0xb
 2143 03ed 51100000 		.4byte	.LASF107
 2144 03f1 91CB01   		.sleb128 26001
ARM GAS  C:\Users\daniel01\AppData\Local\Temp\ccg4pOSx.s 			page 54


 2145 03f4 0B       		.uleb128 0xb
 2146 03f5 FA050000 		.4byte	.LASF108
 2147 03f9 92CB01   		.sleb128 26002
 2148 03fc 0B       		.uleb128 0xb
 2149 03fd 5D080000 		.4byte	.LASF109
 2150 0401 93CB01   		.sleb128 26003
 2151 0404 0B       		.uleb128 0xb
 2152 0405 A1090000 		.4byte	.LASF110
 2153 0409 94CB01   		.sleb128 26004
 2154 040c 0B       		.uleb128 0xb
 2155 040d 0D010000 		.4byte	.LASF111
 2156 0411 F8D201   		.sleb128 27000
 2157 0414 0B       		.uleb128 0xb
 2158 0415 360A0000 		.4byte	.LASF112
 2159 0419 F9D201   		.sleb128 27001
 2160 041c 0B       		.uleb128 0xb
 2161 041d 550C0000 		.4byte	.LASF113
 2162 0421 FAD201   		.sleb128 27002
 2163 0424 0B       		.uleb128 0xb
 2164 0425 EE090000 		.4byte	.LASF114
 2165 0429 FBD201   		.sleb128 27003
 2166 042c 0B       		.uleb128 0xb
 2167 042d 16010000 		.4byte	.LASF115
 2168 0431 E0DA01   		.sleb128 28000
 2169 0434 0B       		.uleb128 0xb
 2170 0435 BB080000 		.4byte	.LASF116
 2171 0439 E1DA01   		.sleb128 28001
 2172 043c 0B       		.uleb128 0xb
 2173 043d 38080000 		.4byte	.LASF117
 2174 0441 E2DA01   		.sleb128 28002
 2175 0444 0B       		.uleb128 0xb
 2176 0445 3F110000 		.4byte	.LASF118
 2177 0449 E3DA01   		.sleb128 28003
 2178 044c 0B       		.uleb128 0xb
 2179 044d 98110000 		.4byte	.LASF119
 2180 0451 E4DA01   		.sleb128 28004
 2181 0454 0B       		.uleb128 0xb
 2182 0455 FE0C0000 		.4byte	.LASF120
 2183 0459 E5DA01   		.sleb128 28005
 2184 045c 0B       		.uleb128 0xb
 2185 045d D3120000 		.4byte	.LASF121
 2186 0461 C5DB01   		.sleb128 28101
 2187 0464 0B       		.uleb128 0xb
 2188 0465 BD120000 		.4byte	.LASF122
 2189 0469 C6DB01   		.sleb128 28102
 2190 046c 0B       		.uleb128 0xb
 2191 046d 5D020000 		.4byte	.LASF123
 2192 0471 A9DC01   		.sleb128 28201
 2193 0474 0B       		.uleb128 0xb
 2194 0475 EE080000 		.4byte	.LASF124
 2195 0479 AADC01   		.sleb128 28202
 2196 047c 0B       		.uleb128 0xb
 2197 047d 9A070000 		.4byte	.LASF125
 2198 0481 ABDC01   		.sleb128 28203
 2199 0484 0B       		.uleb128 0xb
 2200 0485 600E0000 		.4byte	.LASF126
 2201 0489 ACDC01   		.sleb128 28204
ARM GAS  C:\Users\daniel01\AppData\Local\Temp\ccg4pOSx.s 			page 55


 2202 048c 0B       		.uleb128 0xb
 2203 048d DF0B0000 		.4byte	.LASF127
 2204 0491 ADDC01   		.sleb128 28205
 2205 0494 0B       		.uleb128 0xb
 2206 0495 ED0F0000 		.4byte	.LASF128
 2207 0499 AEDC01   		.sleb128 28206
 2208 049c 0B       		.uleb128 0xb
 2209 049d F6010000 		.4byte	.LASF129
 2210 04a1 AFDC01   		.sleb128 28207
 2211 04a4 0B       		.uleb128 0xb
 2212 04a5 160F0000 		.4byte	.LASF130
 2213 04a9 B0DC01   		.sleb128 28208
 2214 04ac 0B       		.uleb128 0xb
 2215 04ad EC0E0000 		.4byte	.LASF131
 2216 04b1 B1DC01   		.sleb128 28209
 2217 04b4 0B       		.uleb128 0xb
 2218 04b5 1F010000 		.4byte	.LASF132
 2219 04b9 C8E201   		.sleb128 29000
 2220 04bc 0B       		.uleb128 0xb
 2221 04bd 41020000 		.4byte	.LASF133
 2222 04c1 C9E201   		.sleb128 29001
 2223 04c4 0B       		.uleb128 0xb
 2224 04c5 FF060000 		.4byte	.LASF134
 2225 04c9 CAE201   		.sleb128 29002
 2226 04cc 0B       		.uleb128 0xb
 2227 04cd 94100000 		.4byte	.LASF135
 2228 04d1 CBE201   		.sleb128 29003
 2229 04d4 0B       		.uleb128 0xb
 2230 04d5 E2120000 		.4byte	.LASF136
 2231 04d9 CCE201   		.sleb128 29004
 2232 04dc 0B       		.uleb128 0xb
 2233 04dd 85050000 		.4byte	.LASF137
 2234 04e1 CDE201   		.sleb128 29005
 2235 04e4 0B       		.uleb128 0xb
 2236 04e5 AC0B0000 		.4byte	.LASF138
 2237 04e9 CEE201   		.sleb128 29006
 2238 04ec 0B       		.uleb128 0xb
 2239 04ed 2B0B0000 		.4byte	.LASF139
 2240 04f1 CFE201   		.sleb128 29007
 2241 04f4 0B       		.uleb128 0xb
 2242 04f5 6E0A0000 		.4byte	.LASF140
 2243 04f9 D0E201   		.sleb128 29008
 2244 04fc 0B       		.uleb128 0xb
 2245 04fd BD020000 		.4byte	.LASF141
 2246 0501 D1E201   		.sleb128 29009
 2247 0504 0B       		.uleb128 0xb
 2248 0505 150B0000 		.4byte	.LASF142
 2249 0509 D2E201   		.sleb128 29010
 2250 050c 0B       		.uleb128 0xb
 2251 050d A3020000 		.4byte	.LASF143
 2252 0511 D3E201   		.sleb128 29011
 2253 0514 0B       		.uleb128 0xb
 2254 0515 7E0F0000 		.4byte	.LASF144
 2255 0519 D4E201   		.sleb128 29012
 2256 051c 0B       		.uleb128 0xb
 2257 051d 12020000 		.4byte	.LASF145
 2258 0521 D5E201   		.sleb128 29013
ARM GAS  C:\Users\daniel01\AppData\Local\Temp\ccg4pOSx.s 			page 56


 2259 0524 0B       		.uleb128 0xb
 2260 0525 4F040000 		.4byte	.LASF146
 2261 0529 D6E201   		.sleb128 29014
 2262 052c 0B       		.uleb128 0xb
 2263 052d 950D0000 		.4byte	.LASF147
 2264 0531 D7E201   		.sleb128 29015
 2265 0534 0B       		.uleb128 0xb
 2266 0535 29050000 		.4byte	.LASF148
 2267 0539 D8E201   		.sleb128 29016
 2268 053c 0B       		.uleb128 0xb
 2269 053d BB0C0000 		.4byte	.LASF149
 2270 0541 D9E201   		.sleb128 29017
 2271 0544 0B       		.uleb128 0xb
 2272 0545 A7120000 		.4byte	.LASF150
 2273 0549 DAE201   		.sleb128 29018
 2274 054c 0B       		.uleb128 0xb
 2275 054d AC030000 		.4byte	.LASF151
 2276 0551 DBE201   		.sleb128 29019
 2277 0554 0B       		.uleb128 0xb
 2278 0555 65050000 		.4byte	.LASF152
 2279 0559 DCE201   		.sleb128 29020
 2280 055c 0B       		.uleb128 0xb
 2281 055d 1A030000 		.4byte	.LASF153
 2282 0561 DDE201   		.sleb128 29021
 2283 0564 0B       		.uleb128 0xb
 2284 0565 5C0B0000 		.4byte	.LASF154
 2285 0569 DEE201   		.sleb128 29022
 2286 056c 0B       		.uleb128 0xb
 2287 056d F4020000 		.4byte	.LASF155
 2288 0571 DFE201   		.sleb128 29023
 2289 0574 0B       		.uleb128 0xb
 2290 0575 D4050000 		.4byte	.LASF156
 2291 0579 ADE301   		.sleb128 29101
 2292 057c 0B       		.uleb128 0xb
 2293 057d FC040000 		.4byte	.LASF157
 2294 0581 C0E301   		.sleb128 29120
 2295 0584 0B       		.uleb128 0xb
 2296 0585 9D0B0000 		.4byte	.LASF158
 2297 0589 C1E301   		.sleb128 29121
 2298 058c 0B       		.uleb128 0xb
 2299 058d FA100000 		.4byte	.LASF159
 2300 0591 C2E301   		.sleb128 29122
 2301 0594 0B       		.uleb128 0xb
 2302 0595 8F080000 		.4byte	.LASF160
 2303 0599 C3E301   		.sleb128 29123
 2304 059c 0B       		.uleb128 0xb
 2305 059d 75060000 		.4byte	.LASF161
 2306 05a1 C4E301   		.sleb128 29124
 2307 05a4 0B       		.uleb128 0xb
 2308 05a5 31130000 		.4byte	.LASF162
 2309 05a9 91E401   		.sleb128 29201
 2310 05ac 0B       		.uleb128 0xb
 2311 05ad 3D0D0000 		.4byte	.LASF163
 2312 05b1 92E401   		.sleb128 29202
 2313 05b4 0B       		.uleb128 0xb
 2314 05b5 B9010000 		.4byte	.LASF164
 2315 05b9 93E401   		.sleb128 29203
ARM GAS  C:\Users\daniel01\AppData\Local\Temp\ccg4pOSx.s 			page 57


 2316 05bc 0B       		.uleb128 0xb
 2317 05bd F20A0000 		.4byte	.LASF165
 2318 05c1 94E401   		.sleb128 29204
 2319 05c4 0B       		.uleb128 0xb
 2320 05c5 D80E0000 		.4byte	.LASF166
 2321 05c9 F5E401   		.sleb128 29301
 2322 05cc 0B       		.uleb128 0xb
 2323 05cd 16130000 		.4byte	.LASF167
 2324 05d1 F6E401   		.sleb128 29302
 2325 05d4 0B       		.uleb128 0xb
 2326 05d5 F7120000 		.4byte	.LASF168
 2327 05d9 F7E401   		.sleb128 29303
 2328 05dc 0B       		.uleb128 0xb
 2329 05dd B5060000 		.4byte	.LASF169
 2330 05e1 F8E401   		.sleb128 29304
 2331 05e4 0B       		.uleb128 0xb
 2332 05e5 58000000 		.4byte	.LASF170
 2333 05e9 F9E401   		.sleb128 29305
 2334 05ec 0B       		.uleb128 0xb
 2335 05ed 78100000 		.4byte	.LASF171
 2336 05f1 FAE401   		.sleb128 29306
 2337 05f4 0B       		.uleb128 0xb
 2338 05f5 09060000 		.4byte	.LASF172
 2339 05f9 FBE401   		.sleb128 29307
 2340 05fc 0B       		.uleb128 0xb
 2341 05fd 07090000 		.4byte	.LASF173
 2342 0601 FCE401   		.sleb128 29308
 2343 0604 0B       		.uleb128 0xb
 2344 0605 410C0000 		.4byte	.LASF174
 2345 0609 FDE401   		.sleb128 29309
 2346 060c 0B       		.uleb128 0xb
 2347 060d 70070000 		.4byte	.LASF175
 2348 0611 FEE401   		.sleb128 29310
 2349 0614 0B       		.uleb128 0xb
 2350 0615 A40F0000 		.4byte	.LASF176
 2351 0619 D9E501   		.sleb128 29401
 2352 061c 0B       		.uleb128 0xb
 2353 061d E8040000 		.4byte	.LASF177
 2354 0621 BDE601   		.sleb128 29501
 2355 0624 0B       		.uleb128 0xb
 2356 0625 14080000 		.4byte	.LASF178
 2357 0629 BEE601   		.sleb128 29502
 2358 062c 0B       		.uleb128 0xb
 2359 062d 23040000 		.4byte	.LASF179
 2360 0631 BFE601   		.sleb128 29503
 2361 0634 0B       		.uleb128 0xb
 2362 0635 4C010000 		.4byte	.LASF180
 2363 0639 C0E601   		.sleb128 29504
 2364 063c 0B       		.uleb128 0xb
 2365 063d 53030000 		.4byte	.LASF181
 2366 0641 C1E601   		.sleb128 29505
 2367 0644 0B       		.uleb128 0xb
 2368 0645 45050000 		.4byte	.LASF182
 2369 0649 C2E601   		.sleb128 29506
 2370 064c 0B       		.uleb128 0xb
 2371 064d 49000000 		.4byte	.LASF183
 2372 0651 C3E601   		.sleb128 29507
ARM GAS  C:\Users\daniel01\AppData\Local\Temp\ccg4pOSx.s 			page 58


 2373 0654 0B       		.uleb128 0xb
 2374 0655 D1040000 		.4byte	.LASF184
 2375 0659 C4E601   		.sleb128 29508
 2376 065c 0B       		.uleb128 0xb
 2377 065d CF060000 		.4byte	.LASF185
 2378 0661 C5E601   		.sleb128 29509
 2379 0664 0B       		.uleb128 0xb
 2380 0665 3F0B0000 		.4byte	.LASF186
 2381 0669 C6E601   		.sleb128 29510
 2382 066c 0B       		.uleb128 0xb
 2383 066d AB050000 		.4byte	.LASF187
 2384 0671 C7E601   		.sleb128 29511
 2385 0674 0B       		.uleb128 0xb
 2386 0675 D60A0000 		.4byte	.LASF188
 2387 0679 C8E601   		.sleb128 29512
 2388 067c 0B       		.uleb128 0xb
 2389 067d 2E0F0000 		.4byte	.LASF189
 2390 0681 C9E601   		.sleb128 29513
 2391 0684 0B       		.uleb128 0xb
 2392 0685 28010000 		.4byte	.LASF190
 2393 0689 B0EA01   		.sleb128 30000
 2394 068c 0B       		.uleb128 0xb
 2395 068d 31010000 		.4byte	.LASF191
 2396 0691 98F201   		.sleb128 31000
 2397 0694 0B       		.uleb128 0xb
 2398 0695 3A010000 		.4byte	.LASF192
 2399 0699 80FA01   		.sleb128 32000
 2400 069c 0B       		.uleb128 0xb
 2401 069d 43010000 		.4byte	.LASF193
 2402 06a1 E88102   		.sleb128 33000
 2403 06a4 0B       		.uleb128 0xb
 2404 06a5 03100000 		.4byte	.LASF194
 2405 06a9 D08902   		.sleb128 34000
 2406 06ac 0B       		.uleb128 0xb
 2407 06ad 3C090000 		.4byte	.LASF195
 2408 06b1 D18902   		.sleb128 34001
 2409 06b4 0B       		.uleb128 0xb
 2410 06b5 1C100000 		.4byte	.LASF196
 2411 06b9 B89102   		.sleb128 35000
 2412 06bc 00       		.byte	0x0
 2413 06bd 09       		.uleb128 0x9
 2414 06be 1B000000 		.4byte	.LASF197
 2415 06c2 05       		.byte	0x5
 2416 06c3 7202     		.2byte	0x272
 2417 06c5 A9010000 		.4byte	0x1a9
 2418 06c9 09       		.uleb128 0x9
 2419 06ca 06080000 		.4byte	.LASF198
 2420 06ce 05       		.byte	0x5
 2421 06cf 8202     		.2byte	0x282
 2422 06d1 D5060000 		.4byte	0x6d5
 2423 06d5 0C       		.uleb128 0xc
 2424 06d6 CD050000 		.4byte	.LASF204
 2425 06da 10       		.byte	0x10
 2426 06db 05       		.byte	0x5
 2427 06dc 8202     		.2byte	0x282
 2428 06de 1F070000 		.4byte	0x71f
 2429 06e2 0D       		.uleb128 0xd
ARM GAS  C:\Users\daniel01\AppData\Local\Temp\ccg4pOSx.s 			page 59


 2430 06e3 F40B0000 		.4byte	.LASF199
 2431 06e7 05       		.byte	0x5
 2432 06e8 4103     		.2byte	0x341
 2433 06ea 130D0000 		.4byte	0xd13
 2434 06ee 02       		.byte	0x2
 2435 06ef 23       		.byte	0x23
 2436 06f0 00       		.uleb128 0x0
 2437 06f1 0D       		.uleb128 0xd
 2438 06f2 F3100000 		.4byte	.LASF200
 2439 06f6 05       		.byte	0x5
 2440 06f7 4203     		.2byte	0x342
 2441 06f9 B4000000 		.4byte	0xb4
 2442 06fd 02       		.byte	0x2
 2443 06fe 23       		.byte	0x23
 2444 06ff 04       		.uleb128 0x4
 2445 0700 0D       		.uleb128 0xd
 2446 0701 3C0E0000 		.4byte	.LASF201
 2447 0705 05       		.byte	0x5
 2448 0706 4303     		.2byte	0x343
 2449 0708 30010000 		.4byte	0x130
 2450 070c 02       		.byte	0x2
 2451 070d 23       		.byte	0x23
 2452 070e 08       		.uleb128 0x8
 2453 070f 0D       		.uleb128 0xd
 2454 0710 BD100000 		.4byte	.LASF202
 2455 0714 05       		.byte	0x5
 2456 0715 4403     		.2byte	0x344
 2457 0717 EE000000 		.4byte	0xee
 2458 071b 02       		.byte	0x2
 2459 071c 23       		.byte	0x23
 2460 071d 0C       		.uleb128 0xc
 2461 071e 00       		.byte	0x0
 2462 071f 09       		.uleb128 0x9
 2463 0720 2E090000 		.4byte	.LASF203
 2464 0724 05       		.byte	0x5
 2465 0725 8402     		.2byte	0x284
 2466 0727 2B070000 		.4byte	0x72b
 2467 072b 0C       		.uleb128 0xc
 2468 072c 5C130000 		.4byte	.LASF205
 2469 0730 10       		.byte	0x10
 2470 0731 05       		.byte	0x5
 2471 0732 8402     		.2byte	0x284
 2472 0734 84070000 		.4byte	0x784
 2473 0738 0D       		.uleb128 0xd
 2474 0739 FF0D0000 		.4byte	.LASF206
 2475 073d 05       		.byte	0x5
 2476 073e 5403     		.2byte	0x354
 2477 0740 130D0000 		.4byte	0xd13
 2478 0744 02       		.byte	0x2
 2479 0745 23       		.byte	0x23
 2480 0746 00       		.uleb128 0x0
 2481 0747 0D       		.uleb128 0xd
 2482 0748 3D100000 		.4byte	.LASF207
 2483 074c 05       		.byte	0x5
 2484 074d 5503     		.2byte	0x355
 2485 074f 130D0000 		.4byte	0xd13
 2486 0753 02       		.byte	0x2
ARM GAS  C:\Users\daniel01\AppData\Local\Temp\ccg4pOSx.s 			page 60


 2487 0754 23       		.byte	0x23
 2488 0755 04       		.uleb128 0x4
 2489 0756 0D       		.uleb128 0xd
 2490 0757 61070000 		.4byte	.LASF208
 2491 075b 05       		.byte	0x5
 2492 075c 5603     		.2byte	0x356
 2493 075e 25010000 		.4byte	0x125
 2494 0762 02       		.byte	0x2
 2495 0763 23       		.byte	0x23
 2496 0764 08       		.uleb128 0x8
 2497 0765 0D       		.uleb128 0xd
 2498 0766 6D010000 		.4byte	.LASF209
 2499 076a 05       		.byte	0x5
 2500 076b 5703     		.2byte	0x357
 2501 076d 25010000 		.4byte	0x125
 2502 0771 02       		.byte	0x2
 2503 0772 23       		.byte	0x23
 2504 0773 0A       		.uleb128 0xa
 2505 0774 0D       		.uleb128 0xd
 2506 0775 74120000 		.4byte	.LASF210
 2507 0779 05       		.byte	0x5
 2508 077a 5803     		.2byte	0x358
 2509 077c 25010000 		.4byte	0x125
 2510 0780 02       		.byte	0x2
 2511 0781 23       		.byte	0x23
 2512 0782 0C       		.uleb128 0xc
 2513 0783 00       		.byte	0x0
 2514 0784 09       		.uleb128 0x9
 2515 0785 ED010000 		.4byte	.LASF211
 2516 0789 05       		.byte	0x5
 2517 078a 8602     		.2byte	0x286
 2518 078c 90070000 		.4byte	0x790
 2519 0790 0C       		.uleb128 0xc
 2520 0791 120C0000 		.4byte	.LASF212
 2521 0795 2C       		.byte	0x2c
 2522 0796 05       		.byte	0x5
 2523 0797 8602     		.2byte	0x286
 2524 0799 33080000 		.4byte	0x833
 2525 079d 0D       		.uleb128 0xd
 2526 079e 37090000 		.4byte	.LASF213
 2527 07a2 05       		.byte	0x5
 2528 07a3 6603     		.2byte	0x366
 2529 07a5 51010000 		.4byte	0x151
 2530 07a9 02       		.byte	0x2
 2531 07aa 23       		.byte	0x23
 2532 07ab 00       		.uleb128 0x0
 2533 07ac 0D       		.uleb128 0xd
 2534 07ad 1B090000 		.4byte	.LASF214
 2535 07b1 05       		.byte	0x5
 2536 07b2 6703     		.2byte	0x367
 2537 07b4 0D0D0000 		.4byte	0xd0d
 2538 07b8 02       		.byte	0x2
 2539 07b9 23       		.byte	0x23
 2540 07ba 04       		.uleb128 0x4
 2541 07bb 0D       		.uleb128 0xd
 2542 07bc B90D0000 		.4byte	.LASF215
 2543 07c0 05       		.byte	0x5
ARM GAS  C:\Users\daniel01\AppData\Local\Temp\ccg4pOSx.s 			page 61


 2544 07c1 6803     		.2byte	0x368
 2545 07c3 400C0000 		.4byte	0xc40
 2546 07c7 02       		.byte	0x2
 2547 07c8 23       		.byte	0x23
 2548 07c9 08       		.uleb128 0x8
 2549 07ca 0D       		.uleb128 0xd
 2550 07cb D1020000 		.4byte	.LASF216
 2551 07cf 05       		.byte	0x5
 2552 07d0 6A03     		.2byte	0x36a
 2553 07d2 190D0000 		.4byte	0xd19
 2554 07d6 02       		.byte	0x2
 2555 07d7 23       		.byte	0x23
 2556 07d8 14       		.uleb128 0x14
 2557 07d9 0D       		.uleb128 0xd
 2558 07da E9020000 		.4byte	.LASF217
 2559 07de 05       		.byte	0x5
 2560 07df 6B03     		.2byte	0x36b
 2561 07e1 190D0000 		.4byte	0xd19
 2562 07e5 02       		.byte	0x2
 2563 07e6 23       		.byte	0x23
 2564 07e7 18       		.uleb128 0x18
 2565 07e8 0D       		.uleb128 0xd
 2566 07e9 32100000 		.4byte	.LASF218
 2567 07ed 05       		.byte	0x5
 2568 07ee 6C03     		.2byte	0x36c
 2569 07f0 0D0D0000 		.4byte	0xd0d
 2570 07f4 02       		.byte	0x2
 2571 07f5 23       		.byte	0x23
 2572 07f6 1C       		.uleb128 0x1c
 2573 07f7 0D       		.uleb128 0xd
 2574 07f8 3A040000 		.4byte	.LASF219
 2575 07fc 05       		.byte	0x5
 2576 07fd 6F03     		.2byte	0x36f
 2577 07ff FB0C0000 		.4byte	0xcfb
 2578 0803 02       		.byte	0x2
 2579 0804 23       		.byte	0x23
 2580 0805 20       		.uleb128 0x20
 2581 0806 0D       		.uleb128 0xd
 2582 0807 ED060000 		.4byte	.LASF220
 2583 080b 05       		.byte	0x5
 2584 080c 7003     		.2byte	0x370
 2585 080e 67010000 		.4byte	0x167
 2586 0812 02       		.byte	0x2
 2587 0813 23       		.byte	0x23
 2588 0814 24       		.uleb128 0x24
 2589 0815 0D       		.uleb128 0xd
 2590 0816 9C010000 		.4byte	.LASF221
 2591 081a 05       		.byte	0x5
 2592 081b 7103     		.2byte	0x371
 2593 081d 3B010000 		.4byte	0x13b
 2594 0821 02       		.byte	0x2
 2595 0822 23       		.byte	0x23
 2596 0823 25       		.uleb128 0x25
 2597 0824 0E       		.uleb128 0xe
 2598 0825 545300   		.ascii	"TS\000"
 2599 0828 05       		.byte	0x5
 2600 0829 7203     		.2byte	0x372
ARM GAS  C:\Users\daniel01\AppData\Local\Temp\ccg4pOSx.s 			page 62


 2601 082b EE000000 		.4byte	0xee
 2602 082f 02       		.byte	0x2
 2603 0830 23       		.byte	0x23
 2604 0831 28       		.uleb128 0x28
 2605 0832 00       		.byte	0x0
 2606 0833 09       		.uleb128 0x9
 2607 0834 CB0F0000 		.4byte	.LASF222
 2608 0838 05       		.byte	0x5
 2609 0839 8E02     		.2byte	0x28e
 2610 083b A2000000 		.4byte	0xa2
 2611 083f 09       		.uleb128 0x9
 2612 0840 0F0F0000 		.4byte	.LASF223
 2613 0844 05       		.byte	0x5
 2614 0845 9002     		.2byte	0x290
 2615 0847 4B080000 		.4byte	0x84b
 2616 084b 0C       		.uleb128 0xc
 2617 084c 00000000 		.4byte	.LASF224
 2618 0850 C0       		.byte	0xc0
 2619 0851 05       		.byte	0x5
 2620 0852 9002     		.2byte	0x290
 2621 0854 670B0000 		.4byte	0xb67
 2622 0858 0D       		.uleb128 0xd
 2623 0859 86090000 		.4byte	.LASF225
 2624 085d 05       		.byte	0x5
 2625 085e AC03     		.2byte	0x3ac
 2626 0860 1F0D0000 		.4byte	0xd1f
 2627 0864 02       		.byte	0x2
 2628 0865 23       		.byte	0x23
 2629 0866 00       		.uleb128 0x0
 2630 0867 0D       		.uleb128 0xd
 2631 0868 910E0000 		.4byte	.LASF226
 2632 086c 05       		.byte	0x5
 2633 086d AE03     		.2byte	0x3ae
 2634 086f B4000000 		.4byte	0xb4
 2635 0873 02       		.byte	0x2
 2636 0874 23       		.byte	0x23
 2637 0875 04       		.uleb128 0x4
 2638 0876 0D       		.uleb128 0xd
 2639 0877 B30A0000 		.4byte	.LASF227
 2640 087b 05       		.byte	0x5
 2641 087c B003     		.2byte	0x3b0
 2642 087e 1F0D0000 		.4byte	0xd1f
 2643 0882 02       		.byte	0x2
 2644 0883 23       		.byte	0x23
 2645 0884 08       		.uleb128 0x8
 2646 0885 0D       		.uleb128 0xd
 2647 0886 F40B0000 		.4byte	.LASF199
 2648 088a 05       		.byte	0x5
 2649 088b B203     		.2byte	0x3b2
 2650 088d FB0C0000 		.4byte	0xcfb
 2651 0891 02       		.byte	0x2
 2652 0892 23       		.byte	0x23
 2653 0893 0C       		.uleb128 0xc
 2654 0894 0D       		.uleb128 0xd
 2655 0895 76080000 		.4byte	.LASF228
 2656 0899 05       		.byte	0x5
 2657 089a B303     		.2byte	0x3b3
ARM GAS  C:\Users\daniel01\AppData\Local\Temp\ccg4pOSx.s 			page 63


 2658 089c FB0C0000 		.4byte	0xcfb
 2659 08a0 02       		.byte	0x2
 2660 08a1 23       		.byte	0x23
 2661 08a2 10       		.uleb128 0x10
 2662 08a3 0D       		.uleb128 0xd
 2663 08a4 090B0000 		.4byte	.LASF229
 2664 08a8 05       		.byte	0x5
 2665 08a9 B503     		.2byte	0x3b5
 2666 08ab FB0C0000 		.4byte	0xcfb
 2667 08af 02       		.byte	0x2
 2668 08b0 23       		.byte	0x23
 2669 08b1 14       		.uleb128 0x14
 2670 08b2 0D       		.uleb128 0xd
 2671 08b3 85070000 		.4byte	.LASF230
 2672 08b7 05       		.byte	0x5
 2673 08b8 B603     		.2byte	0x3b6
 2674 08ba FB0C0000 		.4byte	0xcfb
 2675 08be 02       		.byte	0x2
 2676 08bf 23       		.byte	0x23
 2677 08c0 18       		.uleb128 0x18
 2678 08c1 0D       		.uleb128 0xd
 2679 08c2 25100000 		.4byte	.LASF231
 2680 08c6 05       		.byte	0x5
 2681 08c7 B803     		.2byte	0x3b8
 2682 08c9 250D0000 		.4byte	0xd25
 2683 08cd 02       		.byte	0x2
 2684 08ce 23       		.byte	0x23
 2685 08cf 1C       		.uleb128 0x1c
 2686 08d0 0D       		.uleb128 0xd
 2687 08d1 1B090000 		.4byte	.LASF214
 2688 08d5 05       		.byte	0x5
 2689 08d6 BA03     		.2byte	0x3ba
 2690 08d8 0D0D0000 		.4byte	0xd0d
 2691 08dc 02       		.byte	0x2
 2692 08dd 23       		.byte	0x23
 2693 08de 20       		.uleb128 0x20
 2694 08df 0D       		.uleb128 0xd
 2695 08e0 EF050000 		.4byte	.LASF232
 2696 08e4 05       		.byte	0x5
 2697 08e5 BC03     		.2byte	0x3bc
 2698 08e7 1F0D0000 		.4byte	0xd1f
 2699 08eb 02       		.byte	0x2
 2700 08ec 23       		.byte	0x23
 2701 08ed 24       		.uleb128 0x24
 2702 08ee 0D       		.uleb128 0xd
 2703 08ef E0080000 		.4byte	.LASF233
 2704 08f3 05       		.byte	0x5
 2705 08f4 C203     		.2byte	0x3c2
 2706 08f6 33080000 		.4byte	0x833
 2707 08fa 02       		.byte	0x2
 2708 08fb 23       		.byte	0x23
 2709 08fc 28       		.uleb128 0x28
 2710 08fd 0D       		.uleb128 0xd
 2711 08fe 44100000 		.4byte	.LASF234
 2712 0902 05       		.byte	0x5
 2713 0903 C303     		.2byte	0x3c3
 2714 0905 B4000000 		.4byte	0xb4
ARM GAS  C:\Users\daniel01\AppData\Local\Temp\ccg4pOSx.s 			page 64


 2715 0909 02       		.byte	0x2
 2716 090a 23       		.byte	0x23
 2717 090b 2C       		.uleb128 0x2c
 2718 090c 0D       		.uleb128 0xd
 2719 090d D20D0000 		.4byte	.LASF235
 2720 0911 05       		.byte	0x5
 2721 0912 C503     		.2byte	0x3c5
 2722 0914 010D0000 		.4byte	0xd01
 2723 0918 02       		.byte	0x2
 2724 0919 23       		.byte	0x23
 2725 091a 30       		.uleb128 0x30
 2726 091b 0D       		.uleb128 0xd
 2727 091c 6C030000 		.4byte	.LASF236
 2728 0920 05       		.byte	0x5
 2729 0921 C603     		.2byte	0x3c6
 2730 0923 88010000 		.4byte	0x188
 2731 0927 02       		.byte	0x2
 2732 0928 23       		.byte	0x23
 2733 0929 34       		.uleb128 0x34
 2734 092a 0D       		.uleb128 0xd
 2735 092b 23090000 		.4byte	.LASF237
 2736 092f 05       		.byte	0x5
 2737 0930 C703     		.2byte	0x3c7
 2738 0932 93010000 		.4byte	0x193
 2739 0936 02       		.byte	0x2
 2740 0937 23       		.byte	0x23
 2741 0938 35       		.uleb128 0x35
 2742 0939 0D       		.uleb128 0xd
 2743 093a 6B060000 		.4byte	.LASF238
 2744 093e 05       		.byte	0x5
 2745 093f C903     		.2byte	0x3c9
 2746 0941 88010000 		.4byte	0x188
 2747 0945 02       		.byte	0x2
 2748 0946 23       		.byte	0x23
 2749 0947 36       		.uleb128 0x36
 2750 0948 0D       		.uleb128 0xd
 2751 0949 64110000 		.4byte	.LASF239
 2752 094d 05       		.byte	0x5
 2753 094e CA03     		.2byte	0x3ca
 2754 0950 67010000 		.4byte	0x167
 2755 0954 02       		.byte	0x2
 2756 0955 23       		.byte	0x23
 2757 0956 37       		.uleb128 0x37
 2758 0957 0D       		.uleb128 0xd
 2759 0958 E7050000 		.4byte	.LASF240
 2760 095c 05       		.byte	0x5
 2761 095d CB03     		.2byte	0x3cb
 2762 095f CC000000 		.4byte	0xcc
 2763 0963 02       		.byte	0x2
 2764 0964 23       		.byte	0x23
 2765 0965 38       		.uleb128 0x38
 2766 0966 0E       		.uleb128 0xe
 2767 0967 4F707400 		.ascii	"Opt\000"
 2768 096b 05       		.byte	0x5
 2769 096c CC03     		.2byte	0x3cc
 2770 096e 5C010000 		.4byte	0x15c
 2771 0972 02       		.byte	0x2
ARM GAS  C:\Users\daniel01\AppData\Local\Temp\ccg4pOSx.s 			page 65


 2772 0973 23       		.byte	0x23
 2773 0974 3C       		.uleb128 0x3c
 2774 0975 0D       		.uleb128 0xd
 2775 0976 73030000 		.4byte	.LASF241
 2776 097a 05       		.byte	0x5
 2777 097b CE03     		.2byte	0x3ce
 2778 097d 46010000 		.4byte	0x146
 2779 0981 02       		.byte	0x2
 2780 0982 23       		.byte	0x23
 2781 0983 3E       		.uleb128 0x3e
 2782 0984 0E       		.uleb128 0xe
 2783 0985 545300   		.ascii	"TS\000"
 2784 0988 05       		.byte	0x5
 2785 0989 D003     		.2byte	0x3d0
 2786 098b EE000000 		.4byte	0xee
 2787 098f 02       		.byte	0x2
 2788 0990 23       		.byte	0x23
 2789 0991 40       		.uleb128 0x40
 2790 0992 0D       		.uleb128 0xd
 2791 0993 E10D0000 		.4byte	.LASF242
 2792 0997 05       		.byte	0x5
 2793 0998 D203     		.2byte	0x3d2
 2794 099a 7D010000 		.4byte	0x17d
 2795 099e 02       		.byte	0x2
 2796 099f 23       		.byte	0x23
 2797 09a0 44       		.uleb128 0x44
 2798 09a1 0D       		.uleb128 0xd
 2799 09a2 55070000 		.4byte	.LASF243
 2800 09a6 05       		.byte	0x5
 2801 09a7 D503     		.2byte	0x3d5
 2802 09a9 9E010000 		.4byte	0x19e
 2803 09ad 02       		.byte	0x2
 2804 09ae 23       		.byte	0x23
 2805 09af 48       		.uleb128 0x48
 2806 09b0 0D       		.uleb128 0xd
 2807 09b1 D7030000 		.4byte	.LASF244
 2808 09b5 05       		.byte	0x5
 2809 09b6 D603     		.2byte	0x3d6
 2810 09b8 9E010000 		.4byte	0x19e
 2811 09bc 02       		.byte	0x2
 2812 09bd 23       		.byte	0x23
 2813 09be 4C       		.uleb128 0x4c
 2814 09bf 0D       		.uleb128 0xd
 2815 09c0 050E0000 		.4byte	.LASF245
 2816 09c4 05       		.byte	0x5
 2817 09c5 D703     		.2byte	0x3d7
 2818 09c7 9E010000 		.4byte	0x19e
 2819 09cb 02       		.byte	0x2
 2820 09cc 23       		.byte	0x23
 2821 09cd 50       		.uleb128 0x50
 2822 09ce 0D       		.uleb128 0xd
 2823 09cf 0B130000 		.4byte	.LASF246
 2824 09d3 05       		.byte	0x5
 2825 09d4 D903     		.2byte	0x3d9
 2826 09d6 9E010000 		.4byte	0x19e
 2827 09da 02       		.byte	0x2
 2828 09db 23       		.byte	0x23
ARM GAS  C:\Users\daniel01\AppData\Local\Temp\ccg4pOSx.s 			page 66


 2829 09dc 54       		.uleb128 0x54
 2830 09dd 0D       		.uleb128 0xd
 2831 09de 53060000 		.4byte	.LASF247
 2832 09e2 05       		.byte	0x5
 2833 09e3 DA03     		.2byte	0x3da
 2834 09e5 9E010000 		.4byte	0x19e
 2835 09e9 02       		.byte	0x2
 2836 09ea 23       		.byte	0x23
 2837 09eb 58       		.uleb128 0x58
 2838 09ec 0D       		.uleb128 0xd
 2839 09ed F3100000 		.4byte	.LASF200
 2840 09f1 05       		.byte	0x5
 2841 09f2 DD03     		.2byte	0x3dd
 2842 09f4 B4000000 		.4byte	0xb4
 2843 09f8 02       		.byte	0x2
 2844 09f9 23       		.byte	0x23
 2845 09fa 5C       		.uleb128 0x5c
 2846 09fb 0D       		.uleb128 0xd
 2847 09fc 3C0E0000 		.4byte	.LASF201
 2848 0a00 05       		.byte	0x5
 2849 0a01 DE03     		.2byte	0x3de
 2850 0a03 30010000 		.4byte	0x130
 2851 0a07 02       		.byte	0x2
 2852 0a08 23       		.byte	0x23
 2853 0a09 60       		.uleb128 0x60
 2854 0a0a 0D       		.uleb128 0xd
 2855 0a0b DB080000 		.4byte	.LASF248
 2856 0a0f 05       		.byte	0x5
 2857 0a10 E203     		.2byte	0x3e2
 2858 0a12 1F070000 		.4byte	0x71f
 2859 0a16 02       		.byte	0x2
 2860 0a17 23       		.byte	0x23
 2861 0a18 64       		.uleb128 0x64
 2862 0a19 0D       		.uleb128 0xd
 2863 0a1a F9070000 		.4byte	.LASF249
 2864 0a1e 05       		.byte	0x5
 2865 0a1f E403     		.2byte	0x3e4
 2866 0a21 EE000000 		.4byte	0xee
 2867 0a25 02       		.byte	0x2
 2868 0a26 23       		.byte	0x23
 2869 0a27 74       		.uleb128 0x74
 2870 0a28 0D       		.uleb128 0xd
 2871 0a29 E9070000 		.4byte	.LASF250
 2872 0a2d 05       		.byte	0x5
 2873 0a2e E503     		.2byte	0x3e5
 2874 0a30 EE000000 		.4byte	0xee
 2875 0a34 02       		.byte	0x2
 2876 0a35 23       		.byte	0x23
 2877 0a36 78       		.uleb128 0x78
 2878 0a37 0D       		.uleb128 0xd
 2879 0a38 CC120000 		.4byte	.LASF251
 2880 0a3c 05       		.byte	0x5
 2881 0a3d EA03     		.2byte	0x3ea
 2882 0a3f 2B0D0000 		.4byte	0xd2b
 2883 0a43 02       		.byte	0x2
 2884 0a44 23       		.byte	0x23
 2885 0a45 7C       		.uleb128 0x7c
ARM GAS  C:\Users\daniel01\AppData\Local\Temp\ccg4pOSx.s 			page 67


 2886 0a46 0D       		.uleb128 0xd
 2887 0a47 19040000 		.4byte	.LASF252
 2888 0a4b 05       		.byte	0x5
 2889 0a4c EE03     		.2byte	0x3ee
 2890 0a4e 1A010000 		.4byte	0x11a
 2891 0a52 03       		.byte	0x3
 2892 0a53 23       		.byte	0x23
 2893 0a54 8001     		.uleb128 0x80
 2894 0a56 0D       		.uleb128 0xd
 2895 0a57 91070000 		.4byte	.LASF253
 2896 0a5b 05       		.byte	0x5
 2897 0a5c EF03     		.2byte	0x3ef
 2898 0a5e 1A010000 		.4byte	0x11a
 2899 0a62 03       		.byte	0x3
 2900 0a63 23       		.byte	0x23
 2901 0a64 8401     		.uleb128 0x84
 2902 0a66 0D       		.uleb128 0xd
 2903 0a67 09020000 		.4byte	.LASF254
 2904 0a6b 05       		.byte	0x5
 2905 0a6c F003     		.2byte	0x3f0
 2906 0a6e 5C010000 		.4byte	0x15c
 2907 0a72 03       		.byte	0x3
 2908 0a73 23       		.byte	0x23
 2909 0a74 8801     		.uleb128 0x88
 2910 0a76 0D       		.uleb128 0xd
 2911 0a77 A80A0000 		.4byte	.LASF255
 2912 0a7b 05       		.byte	0x5
 2913 0a7c F403     		.2byte	0x3f4
 2914 0a7e 3B010000 		.4byte	0x13b
 2915 0a82 03       		.byte	0x3
 2916 0a83 23       		.byte	0x23
 2917 0a84 8A01     		.uleb128 0x8a
 2918 0a86 0D       		.uleb128 0xd
 2919 0a87 8F110000 		.4byte	.LASF256
 2920 0a8b 05       		.byte	0x5
 2921 0a8c F803     		.2byte	0x3f8
 2922 0a8e F9000000 		.4byte	0xf9
 2923 0a92 03       		.byte	0x3
 2924 0a93 23       		.byte	0x23
 2925 0a94 8C01     		.uleb128 0x8c
 2926 0a96 0D       		.uleb128 0xd
 2927 0a97 AD0D0000 		.4byte	.LASF257
 2928 0a9b 05       		.byte	0x5
 2929 0a9c F903     		.2byte	0x3f9
 2930 0a9e F9000000 		.4byte	0xf9
 2931 0aa2 03       		.byte	0x3
 2932 0aa3 23       		.byte	0x23
 2933 0aa4 8E01     		.uleb128 0x8e
 2934 0aa6 0D       		.uleb128 0xd
 2935 0aa7 46040000 		.4byte	.LASF258
 2936 0aab 05       		.byte	0x5
 2937 0aac FA03     		.2byte	0x3fa
 2938 0aae 04010000 		.4byte	0x104
 2939 0ab2 03       		.byte	0x3
 2940 0ab3 23       		.byte	0x23
 2941 0ab4 9001     		.uleb128 0x90
 2942 0ab6 0D       		.uleb128 0xd
ARM GAS  C:\Users\daniel01\AppData\Local\Temp\ccg4pOSx.s 			page 68


 2943 0ab7 BF0A0000 		.4byte	.LASF259
 2944 0abb 05       		.byte	0x5
 2945 0abc FB03     		.2byte	0x3fb
 2946 0abe EE000000 		.4byte	0xee
 2947 0ac2 03       		.byte	0x3
 2948 0ac3 23       		.byte	0x23
 2949 0ac4 9401     		.uleb128 0x94
 2950 0ac6 0D       		.uleb128 0xd
 2951 0ac7 AF090000 		.4byte	.LASF260
 2952 0acb 05       		.byte	0x5
 2953 0acc FC03     		.2byte	0x3fc
 2954 0ace EE000000 		.4byte	0xee
 2955 0ad2 03       		.byte	0x3
 2956 0ad3 23       		.byte	0x23
 2957 0ad4 9801     		.uleb128 0x98
 2958 0ad6 0D       		.uleb128 0xd
 2959 0ad7 7D0D0000 		.4byte	.LASF261
 2960 0adb 05       		.byte	0x5
 2961 0adc FD03     		.2byte	0x3fd
 2962 0ade 0F010000 		.4byte	0x10f
 2963 0ae2 03       		.byte	0x3
 2964 0ae3 23       		.byte	0x23
 2965 0ae4 9C01     		.uleb128 0x9c
 2966 0ae6 0D       		.uleb128 0xd
 2967 0ae7 2D0D0000 		.4byte	.LASF262
 2968 0aeb 05       		.byte	0x5
 2969 0aec FE03     		.2byte	0x3fe
 2970 0aee 0F010000 		.4byte	0x10f
 2971 0af2 03       		.byte	0x3
 2972 0af3 23       		.byte	0x23
 2973 0af4 A001     		.uleb128 0xa0
 2974 0af6 0D       		.uleb128 0xd
 2975 0af7 C00B0000 		.4byte	.LASF263
 2976 0afb 05       		.byte	0x5
 2977 0afc 0004     		.2byte	0x400
 2978 0afe EE000000 		.4byte	0xee
 2979 0b02 03       		.byte	0x3
 2980 0b03 23       		.byte	0x23
 2981 0b04 A401     		.uleb128 0xa4
 2982 0b06 0D       		.uleb128 0xd
 2983 0b07 160D0000 		.4byte	.LASF264
 2984 0b0b 05       		.byte	0x5
 2985 0b0c 0104     		.2byte	0x401
 2986 0b0e EE000000 		.4byte	0xee
 2987 0b12 03       		.byte	0x3
 2988 0b13 23       		.byte	0x23
 2989 0b14 A801     		.uleb128 0xa8
 2990 0b16 0D       		.uleb128 0xd
 2991 0b17 3D050000 		.4byte	.LASF265
 2992 0b1b 05       		.byte	0x5
 2993 0b1c 0504     		.2byte	0x405
 2994 0b1e CC000000 		.4byte	0xcc
 2995 0b22 03       		.byte	0x3
 2996 0b23 23       		.byte	0x23
 2997 0b24 AC01     		.uleb128 0xac
 2998 0b26 0D       		.uleb128 0xd
 2999 0b27 4D070000 		.4byte	.LASF266
ARM GAS  C:\Users\daniel01\AppData\Local\Temp\ccg4pOSx.s 			page 69


 3000 0b2b 05       		.byte	0x5
 3001 0b2c 0604     		.2byte	0x406
 3002 0b2e CC000000 		.4byte	0xcc
 3003 0b32 03       		.byte	0x3
 3004 0b33 23       		.byte	0x23
 3005 0b34 B001     		.uleb128 0xb0
 3006 0b36 0D       		.uleb128 0xd
 3007 0b37 D1020000 		.4byte	.LASF216
 3008 0b3b 05       		.byte	0x5
 3009 0b3c 1104     		.2byte	0x411
 3010 0b3e FB0C0000 		.4byte	0xcfb
 3011 0b42 03       		.byte	0x3
 3012 0b43 23       		.byte	0x23
 3013 0b44 B401     		.uleb128 0xb4
 3014 0b46 0D       		.uleb128 0xd
 3015 0b47 E9020000 		.4byte	.LASF217
 3016 0b4b 05       		.byte	0x5
 3017 0b4c 1204     		.2byte	0x412
 3018 0b4e FB0C0000 		.4byte	0xcfb
 3019 0b52 03       		.byte	0x3
 3020 0b53 23       		.byte	0x23
 3021 0b54 B801     		.uleb128 0xb8
 3022 0b56 0D       		.uleb128 0xd
 3023 0b57 32100000 		.4byte	.LASF218
 3024 0b5b 05       		.byte	0x5
 3025 0b5c 1304     		.2byte	0x413
 3026 0b5e 0D0D0000 		.4byte	0xd0d
 3027 0b62 03       		.byte	0x3
 3028 0b63 23       		.byte	0x23
 3029 0b64 BC01     		.uleb128 0xbc
 3030 0b66 00       		.byte	0x0
 3031 0b67 09       		.uleb128 0x9
 3032 0b68 A2040000 		.4byte	.LASF267
 3033 0b6c 05       		.byte	0x5
 3034 0b6d 9E02     		.2byte	0x29e
 3035 0b6f 730B0000 		.4byte	0xb73
 3036 0b73 0C       		.uleb128 0xc
 3037 0b74 8D090000 		.4byte	.LASF268
 3038 0b78 08       		.byte	0x8
 3039 0b79 05       		.byte	0x5
 3040 0b7a 9E02     		.2byte	0x29e
 3041 0b7c AE0B0000 		.4byte	0xbae
 3042 0b80 0D       		.uleb128 0xd
 3043 0b81 570E0000 		.4byte	.LASF269
 3044 0b85 05       		.byte	0x5
 3045 0b86 1F04     		.2byte	0x41f
 3046 0b88 FB0C0000 		.4byte	0xcfb
 3047 0b8c 02       		.byte	0x2
 3048 0b8d 23       		.byte	0x23
 3049 0b8e 00       		.uleb128 0x0
 3050 0b8f 0D       		.uleb128 0xd
 3051 0b90 6D010000 		.4byte	.LASF209
 3052 0b94 05       		.byte	0x5
 3053 0b95 2004     		.2byte	0x420
 3054 0b97 46010000 		.4byte	0x146
 3055 0b9b 02       		.byte	0x2
 3056 0b9c 23       		.byte	0x23
ARM GAS  C:\Users\daniel01\AppData\Local\Temp\ccg4pOSx.s 			page 70


 3057 0b9d 04       		.uleb128 0x4
 3058 0b9e 0D       		.uleb128 0xd
 3059 0b9f 74120000 		.4byte	.LASF210
 3060 0ba3 05       		.byte	0x5
 3061 0ba4 2104     		.2byte	0x421
 3062 0ba6 46010000 		.4byte	0x146
 3063 0baa 02       		.byte	0x2
 3064 0bab 23       		.byte	0x23
 3065 0bac 06       		.uleb128 0x6
 3066 0bad 00       		.byte	0x0
 3067 0bae 09       		.uleb128 0x9
 3068 0baf 58050000 		.4byte	.LASF270
 3069 0bb3 05       		.byte	0x5
 3070 0bb4 A502     		.2byte	0x2a5
 3071 0bb6 BA0B0000 		.4byte	0xbba
 3072 0bba 0C       		.uleb128 0xc
 3073 0bbb 32110000 		.4byte	.LASF271
 3074 0bbf 20       		.byte	0x20
 3075 0bc0 05       		.byte	0x5
 3076 0bc1 A502     		.2byte	0x2a5
 3077 0bc3 400C0000 		.4byte	0xc40
 3078 0bc7 0D       		.uleb128 0xd
 3079 0bc8 76080000 		.4byte	.LASF228
 3080 0bcc 05       		.byte	0x5
 3081 0bcd DE02     		.2byte	0x2de
 3082 0bcf 010D0000 		.4byte	0xd01
 3083 0bd3 02       		.byte	0x2
 3084 0bd4 23       		.byte	0x23
 3085 0bd5 00       		.uleb128 0x0
 3086 0bd6 0D       		.uleb128 0xd
 3087 0bd7 F40B0000 		.4byte	.LASF199
 3088 0bdb 05       		.byte	0x5
 3089 0bdc DF02     		.2byte	0x2df
 3090 0bde 010D0000 		.4byte	0xd01
 3091 0be2 02       		.byte	0x2
 3092 0be3 23       		.byte	0x23
 3093 0be4 04       		.uleb128 0x4
 3094 0be5 0D       		.uleb128 0xd
 3095 0be6 C5090000 		.4byte	.LASF272
 3096 0bea 05       		.byte	0x5
 3097 0beb E002     		.2byte	0x2e0
 3098 0bed FB0C0000 		.4byte	0xcfb
 3099 0bf1 02       		.byte	0x2
 3100 0bf2 23       		.byte	0x23
 3101 0bf3 08       		.uleb128 0x8
 3102 0bf4 0D       		.uleb128 0xd
 3103 0bf5 CC110000 		.4byte	.LASF273
 3104 0bf9 05       		.byte	0x5
 3105 0bfa E102     		.2byte	0x2e1
 3106 0bfc 070D0000 		.4byte	0xd07
 3107 0c00 02       		.byte	0x2
 3108 0c01 23       		.byte	0x23
 3109 0c02 0C       		.uleb128 0xc
 3110 0c03 0D       		.uleb128 0xd
 3111 0c04 750B0000 		.4byte	.LASF274
 3112 0c08 05       		.byte	0x5
 3113 0c09 E202     		.2byte	0x2e2
ARM GAS  C:\Users\daniel01\AppData\Local\Temp\ccg4pOSx.s 			page 71


 3114 0c0b 070D0000 		.4byte	0xd07
 3115 0c0f 02       		.byte	0x2
 3116 0c10 23       		.byte	0x23
 3117 0c11 10       		.uleb128 0x10
 3118 0c12 0D       		.uleb128 0xd
 3119 0c13 E4030000 		.4byte	.LASF275
 3120 0c17 05       		.byte	0x5
 3121 0c18 E302     		.2byte	0x2e3
 3122 0c1a B4000000 		.4byte	0xb4
 3123 0c1e 02       		.byte	0x2
 3124 0c1f 23       		.byte	0x23
 3125 0c20 14       		.uleb128 0x14
 3126 0c21 0D       		.uleb128 0xd
 3127 0c22 DD0C0000 		.4byte	.LASF276
 3128 0c26 05       		.byte	0x5
 3129 0c27 E402     		.2byte	0x2e4
 3130 0c29 30010000 		.4byte	0x130
 3131 0c2d 02       		.byte	0x2
 3132 0c2e 23       		.byte	0x23
 3133 0c2f 18       		.uleb128 0x18
 3134 0c30 0D       		.uleb128 0xd
 3135 0c31 9D0C0000 		.4byte	.LASF277
 3136 0c35 05       		.byte	0x5
 3137 0c36 E502     		.2byte	0x2e5
 3138 0c38 EE000000 		.4byte	0xee
 3139 0c3c 02       		.byte	0x2
 3140 0c3d 23       		.byte	0x23
 3141 0c3e 1C       		.uleb128 0x1c
 3142 0c3f 00       		.byte	0x0
 3143 0c40 09       		.uleb128 0x9
 3144 0c41 A4100000 		.4byte	.LASF278
 3145 0c45 05       		.byte	0x5
 3146 0c46 A602     		.2byte	0x2a6
 3147 0c48 4C0C0000 		.4byte	0xc4c
 3148 0c4c 0C       		.uleb128 0xc
 3149 0c4d 82120000 		.4byte	.LASF279
 3150 0c51 0C       		.byte	0xc
 3151 0c52 05       		.byte	0x5
 3152 0c53 A602     		.2byte	0x2a6
 3153 0c55 870C0000 		.4byte	0xc87
 3154 0c59 0D       		.uleb128 0xd
 3155 0c5a 100E0000 		.4byte	.LASF280
 3156 0c5e 05       		.byte	0x5
 3157 0c5f EA02     		.2byte	0x2ea
 3158 0c61 010D0000 		.4byte	0xd01
 3159 0c65 02       		.byte	0x2
 3160 0c66 23       		.byte	0x23
 3161 0c67 00       		.uleb128 0x0
 3162 0c68 0D       		.uleb128 0xd
 3163 0c69 A4030000 		.4byte	.LASF281
 3164 0c6d 05       		.byte	0x5
 3165 0c6e EB02     		.2byte	0x2eb
 3166 0c70 010D0000 		.4byte	0xd01
 3167 0c74 02       		.byte	0x2
 3168 0c75 23       		.byte	0x23
 3169 0c76 04       		.uleb128 0x4
 3170 0c77 0D       		.uleb128 0xd
ARM GAS  C:\Users\daniel01\AppData\Local\Temp\ccg4pOSx.s 			page 72


 3171 0c78 6D010000 		.4byte	.LASF209
 3172 0c7c 05       		.byte	0x5
 3173 0c7d EC02     		.2byte	0x2ec
 3174 0c7f 46010000 		.4byte	0x146
 3175 0c83 02       		.byte	0x2
 3176 0c84 23       		.byte	0x23
 3177 0c85 08       		.uleb128 0x8
 3178 0c86 00       		.byte	0x0
 3179 0c87 09       		.uleb128 0x9
 3180 0c88 890D0000 		.4byte	.LASF282
 3181 0c8c 05       		.byte	0x5
 3182 0c8d A702     		.2byte	0x2a7
 3183 0c8f 930C0000 		.4byte	0xc93
 3184 0c93 0C       		.uleb128 0xc
 3185 0c94 EE030000 		.4byte	.LASF283
 3186 0c98 20       		.byte	0x20
 3187 0c99 05       		.byte	0x5
 3188 0c9a A702     		.2byte	0x2a7
 3189 0c9c FB0C0000 		.4byte	0xcfb
 3190 0ca0 0D       		.uleb128 0xd
 3191 0ca1 37090000 		.4byte	.LASF213
 3192 0ca5 05       		.byte	0x5
 3193 0ca6 0003     		.2byte	0x300
 3194 0ca8 51010000 		.4byte	0x151
 3195 0cac 02       		.byte	0x2
 3196 0cad 23       		.byte	0x23
 3197 0cae 00       		.uleb128 0x0
 3198 0caf 0D       		.uleb128 0xd
 3199 0cb0 1B090000 		.4byte	.LASF214
 3200 0cb4 05       		.byte	0x5
 3201 0cb5 0103     		.2byte	0x301
 3202 0cb7 0D0D0000 		.4byte	0xd0d
 3203 0cbb 02       		.byte	0x2
 3204 0cbc 23       		.byte	0x23
 3205 0cbd 04       		.uleb128 0x4
 3206 0cbe 0D       		.uleb128 0xd
 3207 0cbf B90D0000 		.4byte	.LASF215
 3208 0cc3 05       		.byte	0x5
 3209 0cc4 0203     		.2byte	0x302
 3210 0cc6 400C0000 		.4byte	0xc40
 3211 0cca 02       		.byte	0x2
 3212 0ccb 23       		.byte	0x23
 3213 0ccc 08       		.uleb128 0x8
 3214 0ccd 0D       		.uleb128 0xd
 3215 0cce D1020000 		.4byte	.LASF216
 3216 0cd2 05       		.byte	0x5
 3217 0cd3 0403     		.2byte	0x304
 3218 0cd5 B4000000 		.4byte	0xb4
 3219 0cd9 02       		.byte	0x2
 3220 0cda 23       		.byte	0x23
 3221 0cdb 14       		.uleb128 0x14
 3222 0cdc 0D       		.uleb128 0xd
 3223 0cdd E9020000 		.4byte	.LASF217
 3224 0ce1 05       		.byte	0x5
 3225 0ce2 0503     		.2byte	0x305
 3226 0ce4 B4000000 		.4byte	0xb4
 3227 0ce8 02       		.byte	0x2
ARM GAS  C:\Users\daniel01\AppData\Local\Temp\ccg4pOSx.s 			page 73


 3228 0ce9 23       		.byte	0x23
 3229 0cea 18       		.uleb128 0x18
 3230 0ceb 0D       		.uleb128 0xd
 3231 0cec 32100000 		.4byte	.LASF218
 3232 0cf0 05       		.byte	0x5
 3233 0cf1 0603     		.2byte	0x306
 3234 0cf3 0D0D0000 		.4byte	0xd0d
 3235 0cf7 02       		.byte	0x2
 3236 0cf8 23       		.byte	0x23
 3237 0cf9 1C       		.uleb128 0x1c
 3238 0cfa 00       		.byte	0x0
 3239 0cfb 05       		.uleb128 0x5
 3240 0cfc 04       		.byte	0x4
 3241 0cfd 3F080000 		.4byte	0x83f
 3242 0d01 05       		.uleb128 0x5
 3243 0d02 04       		.byte	0x4
 3244 0d03 AE0B0000 		.4byte	0xbae
 3245 0d07 05       		.uleb128 0x5
 3246 0d08 04       		.byte	0x4
 3247 0d09 870C0000 		.4byte	0xc87
 3248 0d0d 05       		.uleb128 0x5
 3249 0d0e 04       		.byte	0x4
 3250 0d0f 29000000 		.4byte	0x29
 3251 0d13 05       		.uleb128 0x5
 3252 0d14 04       		.byte	0x4
 3253 0d15 C9060000 		.4byte	0x6c9
 3254 0d19 05       		.uleb128 0x5
 3255 0d1a 04       		.byte	0x4
 3256 0d1b 84070000 		.4byte	0x784
 3257 0d1f 05       		.uleb128 0x5
 3258 0d20 04       		.byte	0x4
 3259 0d21 C1000000 		.4byte	0xc1
 3260 0d25 05       		.uleb128 0x5
 3261 0d26 04       		.byte	0x4
 3262 0d27 670B0000 		.4byte	0xb67
 3263 0d2b 0F       		.uleb128 0xf
 3264 0d2c 72010000 		.4byte	0x172
 3265 0d30 3B0D0000 		.4byte	0xd3b
 3266 0d34 10       		.uleb128 0x10
 3267 0d35 3B0D0000 		.4byte	0xd3b
 3268 0d39 00       		.byte	0x0
 3269 0d3a 00       		.byte	0x0
 3270 0d3b 11       		.uleb128 0x11
 3271 0d3c 04       		.byte	0x4
 3272 0d3d 07       		.byte	0x7
 3273 0d3e 12       		.uleb128 0x12
 3274 0d3f 01       		.byte	0x1
 3275 0d40 9D050000 		.4byte	.LASF293
 3276 0d44 01       		.byte	0x1
 3277 0d45 43       		.byte	0x43
 3278 0d46 01       		.byte	0x1
 3279 0d47 00000000 		.4byte	.LFB0
 3280 0d4b BA000000 		.4byte	.LFE0
 3281 0d4f 00000000 		.4byte	.LLST0
 3282 0d53 900D0000 		.4byte	0xd90
 3283 0d57 13       		.uleb128 0x13
 3284 0d58 250D0000 		.4byte	.LASF284
ARM GAS  C:\Users\daniel01\AppData\Local\Temp\ccg4pOSx.s 			page 74


 3285 0d5c 01       		.byte	0x1
 3286 0d5d 43       		.byte	0x43
 3287 0d5e 190D0000 		.4byte	0xd19
 3288 0d62 02       		.byte	0x2
 3289 0d63 91       		.byte	0x91
 3290 0d64 6C       		.sleb128 -20
 3291 0d65 13       		.uleb128 0x13
 3292 0d66 0D080000 		.4byte	.LASF285
 3293 0d6a 01       		.byte	0x1
 3294 0d6b 44       		.byte	0x44
 3295 0d6c 0D0D0000 		.4byte	0xd0d
 3296 0d70 02       		.byte	0x2
 3297 0d71 91       		.byte	0x91
 3298 0d72 68       		.sleb128 -24
 3299 0d73 13       		.uleb128 0x13
 3300 0d74 E3070000 		.4byte	.LASF286
 3301 0d78 01       		.byte	0x1
 3302 0d79 45       		.byte	0x45
 3303 0d7a 900D0000 		.4byte	0xd90
 3304 0d7e 02       		.byte	0x2
 3305 0d7f 91       		.byte	0x91
 3306 0d80 64       		.sleb128 -28
 3307 0d81 14       		.uleb128 0x14
 3308 0d82 CA040000 		.4byte	.LASF287
 3309 0d86 01       		.byte	0x1
 3310 0d87 47       		.byte	0x47
 3311 0d88 D7000000 		.4byte	0xd7
 3312 0d8c 02       		.byte	0x2
 3313 0d8d 91       		.byte	0x91
 3314 0d8e 74       		.sleb128 -12
 3315 0d8f 00       		.byte	0x0
 3316 0d90 05       		.uleb128 0x5
 3317 0d91 04       		.byte	0x4
 3318 0d92 BD060000 		.4byte	0x6bd
 3319 0d96 15       		.uleb128 0x15
 3320 0d97 01       		.byte	0x1
 3321 0d98 F40D0000 		.4byte	.LASF298
 3322 0d9c 01       		.byte	0x1
 3323 0d9d A0       		.byte	0xa0
 3324 0d9e 01       		.byte	0x1
 3325 0d9f 46010000 		.4byte	0x146
 3326 0da3 00000000 		.4byte	.LFB1
 3327 0da7 F0010000 		.4byte	.LFE1
 3328 0dab 37000000 		.4byte	.LLST1
 3329 0daf 4D0E0000 		.4byte	0xe4d
 3330 0db3 13       		.uleb128 0x13
 3331 0db4 250D0000 		.4byte	.LASF284
 3332 0db8 01       		.byte	0x1
 3333 0db9 A0       		.byte	0xa0
 3334 0dba 190D0000 		.4byte	0xd19
 3335 0dbe 02       		.byte	0x2
 3336 0dbf 91       		.byte	0x91
 3337 0dc0 54       		.sleb128 -44
 3338 0dc1 16       		.uleb128 0x16
 3339 0dc2 6F707400 		.ascii	"opt\000"
 3340 0dc6 01       		.byte	0x1
 3341 0dc7 A1       		.byte	0xa1
ARM GAS  C:\Users\daniel01\AppData\Local\Temp\ccg4pOSx.s 			page 75


 3342 0dc8 5C010000 		.4byte	0x15c
 3343 0dcc 02       		.byte	0x2
 3344 0dcd 91       		.byte	0x91
 3345 0dce 52       		.sleb128 -46
 3346 0dcf 13       		.uleb128 0x13
 3347 0dd0 E3070000 		.4byte	.LASF286
 3348 0dd4 01       		.byte	0x1
 3349 0dd5 A2       		.byte	0xa2
 3350 0dd6 900D0000 		.4byte	0xd90
 3351 0dda 02       		.byte	0x2
 3352 0ddb 91       		.byte	0x91
 3353 0ddc 4C       		.sleb128 -52
 3354 0ddd 17       		.uleb128 0x17
 3355 0dde 636E7400 		.ascii	"cnt\000"
 3356 0de2 01       		.byte	0x1
 3357 0de3 A4       		.byte	0xa4
 3358 0de4 46010000 		.4byte	0x146
 3359 0de8 02       		.byte	0x2
 3360 0de9 91       		.byte	0x91
 3361 0dea 5C       		.sleb128 -36
 3362 0deb 14       		.uleb128 0x14
 3363 0dec 4C0A0000 		.4byte	.LASF288
 3364 0df0 01       		.byte	0x1
 3365 0df1 A5       		.byte	0xa5
 3366 0df2 46010000 		.4byte	0x146
 3367 0df6 02       		.byte	0x2
 3368 0df7 91       		.byte	0x91
 3369 0df8 5E       		.sleb128 -34
 3370 0df9 14       		.uleb128 0x14
 3371 0dfa 6A080000 		.4byte	.LASF289
 3372 0dfe 01       		.byte	0x1
 3373 0dff A6       		.byte	0xa6
 3374 0e00 010D0000 		.4byte	0xd01
 3375 0e04 02       		.byte	0x2
 3376 0e05 91       		.byte	0x91
 3377 0e06 60       		.sleb128 -32
 3378 0e07 14       		.uleb128 0x14
 3379 0e08 47030000 		.4byte	.LASF290
 3380 0e0c 01       		.byte	0x1
 3381 0e0d A7       		.byte	0xa7
 3382 0e0e 4D0E0000 		.4byte	0xe4d
 3383 0e12 02       		.byte	0x2
 3384 0e13 91       		.byte	0x91
 3385 0e14 64       		.sleb128 -28
 3386 0e15 14       		.uleb128 0x14
 3387 0e16 9B090000 		.4byte	.LASF291
 3388 0e1a 01       		.byte	0x1
 3389 0e1b A8       		.byte	0xa8
 3390 0e1c FB0C0000 		.4byte	0xcfb
 3391 0e20 02       		.byte	0x2
 3392 0e21 91       		.byte	0x91
 3393 0e22 68       		.sleb128 -24
 3394 0e23 14       		.uleb128 0x14
 3395 0e24 E80D0000 		.4byte	.LASF292
 3396 0e28 01       		.byte	0x1
 3397 0e29 A9       		.byte	0xa9
 3398 0e2a FB0C0000 		.4byte	0xcfb
ARM GAS  C:\Users\daniel01\AppData\Local\Temp\ccg4pOSx.s 			page 76


 3399 0e2e 02       		.byte	0x2
 3400 0e2f 91       		.byte	0x91
 3401 0e30 6C       		.sleb128 -20
 3402 0e31 17       		.uleb128 0x17
 3403 0e32 747300   		.ascii	"ts\000"
 3404 0e35 01       		.byte	0x1
 3405 0e36 AA       		.byte	0xaa
 3406 0e37 EE000000 		.4byte	0xee
 3407 0e3b 02       		.byte	0x2
 3408 0e3c 91       		.byte	0x91
 3409 0e3d 70       		.sleb128 -16
 3410 0e3e 14       		.uleb128 0x14
 3411 0e3f CA040000 		.4byte	.LASF287
 3412 0e43 01       		.byte	0x1
 3413 0e44 AB       		.byte	0xab
 3414 0e45 D7000000 		.4byte	0xd7
 3415 0e49 02       		.byte	0x2
 3416 0e4a 91       		.byte	0x91
 3417 0e4b 74       		.sleb128 -12
 3418 0e4c 00       		.byte	0x0
 3419 0e4d 05       		.uleb128 0x5
 3420 0e4e 04       		.byte	0x4
 3421 0e4f 400C0000 		.4byte	0xc40
 3422 0e53 18       		.uleb128 0x18
 3423 0e54 01       		.byte	0x1
 3424 0e55 85130000 		.4byte	.LASF294
 3425 0e59 01       		.byte	0x1
 3426 0e5a 5301     		.2byte	0x153
 3427 0e5c 01       		.byte	0x1
 3428 0e5d 00000000 		.4byte	.LFB2
 3429 0e61 CA020000 		.4byte	.LFE2
 3430 0e65 6E000000 		.4byte	.LLST2
 3431 0e69 E60E0000 		.4byte	0xee6
 3432 0e6d 19       		.uleb128 0x19
 3433 0e6e 250D0000 		.4byte	.LASF284
 3434 0e72 01       		.byte	0x1
 3435 0e73 5301     		.2byte	0x153
 3436 0e75 190D0000 		.4byte	0xd19
 3437 0e79 02       		.byte	0x2
 3438 0e7a 91       		.byte	0x91
 3439 0e7b 4C       		.sleb128 -52
 3440 0e7c 19       		.uleb128 0x19
 3441 0e7d BC0F0000 		.4byte	.LASF295
 3442 0e81 01       		.byte	0x1
 3443 0e82 5401     		.2byte	0x154
 3444 0e84 9E010000 		.4byte	0x19e
 3445 0e88 02       		.byte	0x2
 3446 0e89 91       		.byte	0x91
 3447 0e8a 48       		.sleb128 -56
 3448 0e8b 1A       		.uleb128 0x1a
 3449 0e8c 6F707400 		.ascii	"opt\000"
 3450 0e90 01       		.byte	0x1
 3451 0e91 5501     		.2byte	0x155
 3452 0e93 5C010000 		.4byte	0x15c
 3453 0e97 02       		.byte	0x2
 3454 0e98 91       		.byte	0x91
 3455 0e99 46       		.sleb128 -58
ARM GAS  C:\Users\daniel01\AppData\Local\Temp\ccg4pOSx.s 			page 77


 3456 0e9a 19       		.uleb128 0x19
 3457 0e9b 570B0000 		.4byte	.LASF296
 3458 0e9f 01       		.byte	0x1
 3459 0ea0 5601     		.2byte	0x156
 3460 0ea2 E60E0000 		.4byte	0xee6
 3461 0ea6 02       		.byte	0x2
 3462 0ea7 91       		.byte	0x91
 3463 0ea8 40       		.sleb128 -64
 3464 0ea9 19       		.uleb128 0x19
 3465 0eaa E3070000 		.4byte	.LASF286
 3466 0eae 01       		.byte	0x1
 3467 0eaf 5701     		.2byte	0x157
 3468 0eb1 900D0000 		.4byte	0xd90
 3469 0eb5 02       		.byte	0x2
 3470 0eb6 91       		.byte	0x91
 3471 0eb7 00       		.sleb128 0
 3472 0eb8 1B       		.uleb128 0x1b
 3473 0eb9 BB090000 		.4byte	.LASF297
 3474 0ebd 01       		.byte	0x1
 3475 0ebe 5901     		.2byte	0x159
 3476 0ec0 AE0B0000 		.4byte	0xbae
 3477 0ec4 02       		.byte	0x2
 3478 0ec5 91       		.byte	0x91
 3479 0ec6 50       		.sleb128 -48
 3480 0ec7 1B       		.uleb128 0x1b
 3481 0ec8 9B090000 		.4byte	.LASF291
 3482 0ecc 01       		.byte	0x1
 3483 0ecd 5A01     		.2byte	0x15a
 3484 0ecf FB0C0000 		.4byte	0xcfb
 3485 0ed3 02       		.byte	0x2
 3486 0ed4 91       		.byte	0x91
 3487 0ed5 70       		.sleb128 -16
 3488 0ed6 1B       		.uleb128 0x1b
 3489 0ed7 CA040000 		.4byte	.LASF287
 3490 0edb 01       		.byte	0x1
 3491 0edc 5B01     		.2byte	0x15b
 3492 0ede D7000000 		.4byte	0xd7
 3493 0ee2 02       		.byte	0x2
 3494 0ee3 91       		.byte	0x91
 3495 0ee4 74       		.sleb128 -12
 3496 0ee5 00       		.byte	0x0
 3497 0ee6 05       		.uleb128 0x5
 3498 0ee7 04       		.byte	0x4
 3499 0ee8 EE000000 		.4byte	0xee
 3500 0eec 1C       		.uleb128 0x1c
 3501 0eed 01       		.byte	0x1
 3502 0eee 980E0000 		.4byte	.LASF299
 3503 0ef2 01       		.byte	0x1
 3504 0ef3 1A02     		.2byte	0x21a
 3505 0ef5 01       		.byte	0x1
 3506 0ef6 46010000 		.4byte	0x146
 3507 0efa 00000000 		.4byte	.LFB3
 3508 0efe 06010000 		.4byte	.LFE3
 3509 0f02 A7000000 		.4byte	.LLST3
 3510 0f06 820F0000 		.4byte	0xf82
 3511 0f0a 19       		.uleb128 0x19
 3512 0f0b 250D0000 		.4byte	.LASF284
ARM GAS  C:\Users\daniel01\AppData\Local\Temp\ccg4pOSx.s 			page 78


 3513 0f0f 01       		.byte	0x1
 3514 0f10 1A02     		.2byte	0x21a
 3515 0f12 190D0000 		.4byte	0xd19
 3516 0f16 02       		.byte	0x2
 3517 0f17 91       		.byte	0x91
 3518 0f18 5C       		.sleb128 -36
 3519 0f19 1A       		.uleb128 0x1a
 3520 0f1a 6F707400 		.ascii	"opt\000"
 3521 0f1e 01       		.byte	0x1
 3522 0f1f 1B02     		.2byte	0x21b
 3523 0f21 5C010000 		.4byte	0x15c
 3524 0f25 02       		.byte	0x2
 3525 0f26 91       		.byte	0x91
 3526 0f27 5A       		.sleb128 -38
 3527 0f28 19       		.uleb128 0x19
 3528 0f29 E3070000 		.4byte	.LASF286
 3529 0f2d 01       		.byte	0x1
 3530 0f2e 1C02     		.2byte	0x21c
 3531 0f30 900D0000 		.4byte	0xd90
 3532 0f34 02       		.byte	0x2
 3533 0f35 91       		.byte	0x91
 3534 0f36 54       		.sleb128 -44
 3535 0f37 1B       		.uleb128 0x1b
 3536 0f38 47030000 		.4byte	.LASF290
 3537 0f3c 01       		.byte	0x1
 3538 0f3d 1E02     		.2byte	0x21e
 3539 0f3f 4D0E0000 		.4byte	0xe4d
 3540 0f43 02       		.byte	0x2
 3541 0f44 91       		.byte	0x91
 3542 0f45 64       		.sleb128 -28
 3543 0f46 1B       		.uleb128 0x1b
 3544 0f47 9B090000 		.4byte	.LASF291
 3545 0f4b 01       		.byte	0x1
 3546 0f4c 1F02     		.2byte	0x21f
 3547 0f4e FB0C0000 		.4byte	0xcfb
 3548 0f52 02       		.byte	0x2
 3549 0f53 91       		.byte	0x91
 3550 0f54 68       		.sleb128 -24
 3551 0f55 1D       		.uleb128 0x1d
 3552 0f56 747300   		.ascii	"ts\000"
 3553 0f59 01       		.byte	0x1
 3554 0f5a 2002     		.2byte	0x220
 3555 0f5c EE000000 		.4byte	0xee
 3556 0f60 02       		.byte	0x2
 3557 0f61 91       		.byte	0x91
 3558 0f62 6C       		.sleb128 -20
 3559 0f63 1B       		.uleb128 0x1b
 3560 0f64 4C0A0000 		.4byte	.LASF288
 3561 0f68 01       		.byte	0x1
 3562 0f69 2102     		.2byte	0x221
 3563 0f6b 46010000 		.4byte	0x146
 3564 0f6f 02       		.byte	0x2
 3565 0f70 91       		.byte	0x91
 3566 0f71 72       		.sleb128 -14
 3567 0f72 1B       		.uleb128 0x1b
 3568 0f73 CA040000 		.4byte	.LASF287
 3569 0f77 01       		.byte	0x1
ARM GAS  C:\Users\daniel01\AppData\Local\Temp\ccg4pOSx.s 			page 79


 3570 0f78 2202     		.2byte	0x222
 3571 0f7a D7000000 		.4byte	0xd7
 3572 0f7e 02       		.byte	0x2
 3573 0f7f 91       		.byte	0x91
 3574 0f80 74       		.sleb128 -12
 3575 0f81 00       		.byte	0x0
 3576 0f82 18       		.uleb128 0x18
 3577 0f83 01       		.byte	0x1
 3578 0f84 47060000 		.4byte	.LASF300
 3579 0f88 01       		.byte	0x1
 3580 0f89 8802     		.2byte	0x288
 3581 0f8b 01       		.byte	0x1
 3582 0f8c 00000000 		.4byte	.LFB4
 3583 0f90 BE010000 		.4byte	.LFE4
 3584 0f94 DE000000 		.4byte	.LLST4
 3585 0f98 05100000 		.4byte	0x1005
 3586 0f9c 19       		.uleb128 0x19
 3587 0f9d 250D0000 		.4byte	.LASF284
 3588 0fa1 01       		.byte	0x1
 3589 0fa2 8802     		.2byte	0x288
 3590 0fa4 190D0000 		.4byte	0xd19
 3591 0fa8 02       		.byte	0x2
 3592 0fa9 91       		.byte	0x91
 3593 0faa 64       		.sleb128 -28
 3594 0fab 1A       		.uleb128 0x1a
 3595 0fac 6F707400 		.ascii	"opt\000"
 3596 0fb0 01       		.byte	0x1
 3597 0fb1 8902     		.2byte	0x289
 3598 0fb3 5C010000 		.4byte	0x15c
 3599 0fb7 02       		.byte	0x2
 3600 0fb8 91       		.byte	0x91
 3601 0fb9 62       		.sleb128 -30
 3602 0fba 19       		.uleb128 0x19
 3603 0fbb E3070000 		.4byte	.LASF286
 3604 0fbf 01       		.byte	0x1
 3605 0fc0 8A02     		.2byte	0x28a
 3606 0fc2 900D0000 		.4byte	0xd90
 3607 0fc6 02       		.byte	0x2
 3608 0fc7 91       		.byte	0x91
 3609 0fc8 5C       		.sleb128 -36
 3610 0fc9 1B       		.uleb128 0x1b
 3611 0fca 47030000 		.4byte	.LASF290
 3612 0fce 01       		.byte	0x1
 3613 0fcf 8C02     		.2byte	0x28c
 3614 0fd1 4D0E0000 		.4byte	0xe4d
 3615 0fd5 02       		.byte	0x2
 3616 0fd6 91       		.byte	0x91
 3617 0fd7 68       		.sleb128 -24
 3618 0fd8 1B       		.uleb128 0x1b
 3619 0fd9 9B090000 		.4byte	.LASF291
 3620 0fdd 01       		.byte	0x1
 3621 0fde 8D02     		.2byte	0x28d
 3622 0fe0 FB0C0000 		.4byte	0xcfb
 3623 0fe4 02       		.byte	0x2
 3624 0fe5 91       		.byte	0x91
 3625 0fe6 6C       		.sleb128 -20
 3626 0fe7 1D       		.uleb128 0x1d
ARM GAS  C:\Users\daniel01\AppData\Local\Temp\ccg4pOSx.s 			page 80


 3627 0fe8 747300   		.ascii	"ts\000"
 3628 0feb 01       		.byte	0x1
 3629 0fec 8E02     		.2byte	0x28e
 3630 0fee EE000000 		.4byte	0xee
 3631 0ff2 02       		.byte	0x2
 3632 0ff3 91       		.byte	0x91
 3633 0ff4 70       		.sleb128 -16
 3634 0ff5 1B       		.uleb128 0x1b
 3635 0ff6 CA040000 		.4byte	.LASF287
 3636 0ffa 01       		.byte	0x1
 3637 0ffb 8F02     		.2byte	0x28f
 3638 0ffd D7000000 		.4byte	0xd7
 3639 1001 02       		.byte	0x2
 3640 1002 91       		.byte	0x91
 3641 1003 74       		.sleb128 -12
 3642 1004 00       		.byte	0x0
 3643 1005 18       		.uleb128 0x18
 3644 1006 01       		.byte	0x1
 3645 1007 2C080000 		.4byte	.LASF301
 3646 100b 01       		.byte	0x1
 3647 100c FF02     		.2byte	0x2ff
 3648 100e 01       		.byte	0x1
 3649 100f 00000000 		.4byte	.LFB5
 3650 1013 58000000 		.4byte	.LFE5
 3651 1017 15010000 		.4byte	.LLST5
 3652 101b 2F100000 		.4byte	0x102f
 3653 101f 19       		.uleb128 0x19
 3654 1020 250D0000 		.4byte	.LASF284
 3655 1024 01       		.byte	0x1
 3656 1025 FF02     		.2byte	0x2ff
 3657 1027 190D0000 		.4byte	0xd19
 3658 102b 02       		.byte	0x2
 3659 102c 91       		.byte	0x91
 3660 102d 74       		.sleb128 -12
 3661 102e 00       		.byte	0x0
 3662 102f 18       		.uleb128 0x18
 3663 1030 01       		.byte	0x1
 3664 1031 13110000 		.4byte	.LASF302
 3665 1035 01       		.byte	0x1
 3666 1036 1B03     		.2byte	0x31b
 3667 1038 01       		.byte	0x1
 3668 1039 00000000 		.4byte	.LFB6
 3669 103d 66000000 		.4byte	.LFE6
 3670 1041 4C010000 		.4byte	.LLST6
 3671 1045 59100000 		.4byte	0x1059
 3672 1049 19       		.uleb128 0x19
 3673 104a 250D0000 		.4byte	.LASF284
 3674 104e 01       		.byte	0x1
 3675 104f 1B03     		.2byte	0x31b
 3676 1051 190D0000 		.4byte	0xd19
 3677 1055 02       		.byte	0x2
 3678 1056 91       		.byte	0x91
 3679 1057 74       		.sleb128 -12
 3680 1058 00       		.byte	0x0
 3681 1059 18       		.uleb128 0x18
 3682 105a 01       		.byte	0x1
 3683 105b 1B0C0000 		.4byte	.LASF303
ARM GAS  C:\Users\daniel01\AppData\Local\Temp\ccg4pOSx.s 			page 81


 3684 105f 01       		.byte	0x1
 3685 1060 2A03     		.2byte	0x32a
 3686 1062 01       		.byte	0x1
 3687 1063 00000000 		.4byte	.LFB7
 3688 1067 7C000000 		.4byte	.LFE7
 3689 106b 83010000 		.4byte	.LLST7
 3690 106f A1100000 		.4byte	0x10a1
 3691 1073 19       		.uleb128 0x19
 3692 1074 250D0000 		.4byte	.LASF284
 3693 1078 01       		.byte	0x1
 3694 1079 2A03     		.2byte	0x32a
 3695 107b 190D0000 		.4byte	0xd19
 3696 107f 02       		.byte	0x2
 3697 1080 91       		.byte	0x91
 3698 1081 6C       		.sleb128 -20
 3699 1082 1B       		.uleb128 0x1b
 3700 1083 82110000 		.4byte	.LASF304
 3701 1087 01       		.byte	0x1
 3702 1088 2C03     		.2byte	0x32c
 3703 108a 190D0000 		.4byte	0xd19
 3704 108e 02       		.byte	0x2
 3705 108f 91       		.byte	0x91
 3706 1090 70       		.sleb128 -16
 3707 1091 1B       		.uleb128 0x1b
 3708 1092 22000000 		.4byte	.LASF305
 3709 1096 01       		.byte	0x1
 3710 1097 2D03     		.2byte	0x32d
 3711 1099 190D0000 		.4byte	0xd19
 3712 109d 02       		.byte	0x2
 3713 109e 91       		.byte	0x91
 3714 109f 74       		.sleb128 -12
 3715 10a0 00       		.byte	0x0
 3716 10a1 18       		.uleb128 0x18
 3717 10a2 01       		.byte	0x1
 3718 10a3 16070000 		.4byte	.LASF306
 3719 10a7 01       		.byte	0x1
 3720 10a8 5903     		.2byte	0x359
 3721 10aa 01       		.byte	0x1
 3722 10ab 00000000 		.4byte	.LFB8
 3723 10af 36000000 		.4byte	.LFE8
 3724 10b3 BA010000 		.4byte	.LLST8
 3725 10b7 CB100000 		.4byte	0x10cb
 3726 10bb 19       		.uleb128 0x19
 3727 10bc E3070000 		.4byte	.LASF286
 3728 10c0 01       		.byte	0x1
 3729 10c1 5903     		.2byte	0x359
 3730 10c3 900D0000 		.4byte	0xd90
 3731 10c7 02       		.byte	0x2
 3732 10c8 91       		.byte	0x91
 3733 10c9 74       		.sleb128 -12
 3734 10ca 00       		.byte	0x0
 3735 10cb 1E       		.uleb128 0x1e
 3736 10cc 310C0000 		.4byte	.LASF307
 3737 10d0 05       		.byte	0x5
 3738 10d1 5F04     		.2byte	0x45f
 3739 10d3 3B010000 		.4byte	0x13b
 3740 10d7 01       		.byte	0x1
ARM GAS  C:\Users\daniel01\AppData\Local\Temp\ccg4pOSx.s 			page 82


 3741 10d8 01       		.byte	0x1
 3742 10d9 1E       		.uleb128 0x1e
 3743 10da 73020000 		.4byte	.LASF308
 3744 10de 05       		.byte	0x5
 3745 10df 8A04     		.2byte	0x48a
 3746 10e1 190D0000 		.4byte	0xd19
 3747 10e5 01       		.byte	0x1
 3748 10e6 01       		.byte	0x1
 3749 10e7 1E       		.uleb128 0x1e
 3750 10e8 99030000 		.4byte	.LASF309
 3751 10ec 05       		.byte	0x5
 3752 10ed 8C04     		.2byte	0x48c
 3753 10ef 46010000 		.4byte	0x146
 3754 10f3 01       		.byte	0x1
 3755 10f4 01       		.byte	0x1
 3756 10f5 1E       		.uleb128 0x1e
 3757 10f6 2A060000 		.4byte	.LASF310
 3758 10fa 05       		.byte	0x5
 3759 10fb 9004     		.2byte	0x490
 3760 10fd 67010000 		.4byte	0x167
 3761 1101 01       		.byte	0x1
 3762 1102 01       		.byte	0x1
 3763 1103 1E       		.uleb128 0x1e
 3764 1104 8E0F0000 		.4byte	.LASF311
 3765 1108 05       		.byte	0x5
 3766 1109 AD04     		.2byte	0x4ad
 3767 110b 3B010000 		.4byte	0x13b
 3768 110f 01       		.byte	0x1
 3769 1110 01       		.byte	0x1
 3770 1111 1E       		.uleb128 0x1e
 3771 1112 E1010000 		.4byte	.LASF312
 3772 1116 05       		.byte	0x5
 3773 1117 E504     		.2byte	0x4e5
 3774 1119 FB0C0000 		.4byte	0xcfb
 3775 111d 01       		.byte	0x1
 3776 111e 01       		.byte	0x1
 3777 111f 00       		.byte	0x0
 3778              		.section	.debug_abbrev
 3779 0000 01       		.uleb128 0x1
 3780 0001 11       		.uleb128 0x11
 3781 0002 01       		.byte	0x1
 3782 0003 25       		.uleb128 0x25
 3783 0004 0E       		.uleb128 0xe
 3784 0005 13       		.uleb128 0x13
 3785 0006 0B       		.uleb128 0xb
 3786 0007 03       		.uleb128 0x3
 3787 0008 0E       		.uleb128 0xe
 3788 0009 1B       		.uleb128 0x1b
 3789 000a 0E       		.uleb128 0xe
 3790 000b 11       		.uleb128 0x11
 3791 000c 01       		.uleb128 0x1
 3792 000d 52       		.uleb128 0x52
 3793 000e 01       		.uleb128 0x1
 3794 000f 55       		.uleb128 0x55
 3795 0010 06       		.uleb128 0x6
 3796 0011 10       		.uleb128 0x10
 3797 0012 06       		.uleb128 0x6
ARM GAS  C:\Users\daniel01\AppData\Local\Temp\ccg4pOSx.s 			page 83


 3798 0013 00       		.byte	0x0
 3799 0014 00       		.byte	0x0
 3800 0015 02       		.uleb128 0x2
 3801 0016 16       		.uleb128 0x16
 3802 0017 00       		.byte	0x0
 3803 0018 03       		.uleb128 0x3
 3804 0019 0E       		.uleb128 0xe
 3805 001a 3A       		.uleb128 0x3a
 3806 001b 0B       		.uleb128 0xb
 3807 001c 3B       		.uleb128 0x3b
 3808 001d 0B       		.uleb128 0xb
 3809 001e 49       		.uleb128 0x49
 3810 001f 13       		.uleb128 0x13
 3811 0020 00       		.byte	0x0
 3812 0021 00       		.byte	0x0
 3813 0022 03       		.uleb128 0x3
 3814 0023 24       		.uleb128 0x24
 3815 0024 00       		.byte	0x0
 3816 0025 0B       		.uleb128 0xb
 3817 0026 0B       		.uleb128 0xb
 3818 0027 3E       		.uleb128 0x3e
 3819 0028 0B       		.uleb128 0xb
 3820 0029 03       		.uleb128 0x3
 3821 002a 0E       		.uleb128 0xe
 3822 002b 00       		.byte	0x0
 3823 002c 00       		.byte	0x0
 3824 002d 04       		.uleb128 0x4
 3825 002e 24       		.uleb128 0x24
 3826 002f 00       		.byte	0x0
 3827 0030 0B       		.uleb128 0xb
 3828 0031 0B       		.uleb128 0xb
 3829 0032 3E       		.uleb128 0x3e
 3830 0033 0B       		.uleb128 0xb
 3831 0034 03       		.uleb128 0x3
 3832 0035 08       		.uleb128 0x8
 3833 0036 00       		.byte	0x0
 3834 0037 00       		.byte	0x0
 3835 0038 05       		.uleb128 0x5
 3836 0039 0F       		.uleb128 0xf
 3837 003a 00       		.byte	0x0
 3838 003b 0B       		.uleb128 0xb
 3839 003c 0B       		.uleb128 0xb
 3840 003d 49       		.uleb128 0x49
 3841 003e 13       		.uleb128 0x13
 3842 003f 00       		.byte	0x0
 3843 0040 00       		.byte	0x0
 3844 0041 06       		.uleb128 0x6
 3845 0042 15       		.uleb128 0x15
 3846 0043 01       		.byte	0x1
 3847 0044 27       		.uleb128 0x27
 3848 0045 0C       		.uleb128 0xc
 3849 0046 01       		.uleb128 0x1
 3850 0047 13       		.uleb128 0x13
 3851 0048 00       		.byte	0x0
 3852 0049 00       		.byte	0x0
 3853 004a 07       		.uleb128 0x7
 3854 004b 05       		.uleb128 0x5
ARM GAS  C:\Users\daniel01\AppData\Local\Temp\ccg4pOSx.s 			page 84


 3855 004c 00       		.byte	0x0
 3856 004d 49       		.uleb128 0x49
 3857 004e 13       		.uleb128 0x13
 3858 004f 00       		.byte	0x0
 3859 0050 00       		.byte	0x0
 3860 0051 08       		.uleb128 0x8
 3861 0052 0F       		.uleb128 0xf
 3862 0053 00       		.byte	0x0
 3863 0054 0B       		.uleb128 0xb
 3864 0055 0B       		.uleb128 0xb
 3865 0056 00       		.byte	0x0
 3866 0057 00       		.byte	0x0
 3867 0058 09       		.uleb128 0x9
 3868 0059 16       		.uleb128 0x16
 3869 005a 00       		.byte	0x0
 3870 005b 03       		.uleb128 0x3
 3871 005c 0E       		.uleb128 0xe
 3872 005d 3A       		.uleb128 0x3a
 3873 005e 0B       		.uleb128 0xb
 3874 005f 3B       		.uleb128 0x3b
 3875 0060 05       		.uleb128 0x5
 3876 0061 49       		.uleb128 0x49
 3877 0062 13       		.uleb128 0x13
 3878 0063 00       		.byte	0x0
 3879 0064 00       		.byte	0x0
 3880 0065 0A       		.uleb128 0xa
 3881 0066 04       		.uleb128 0x4
 3882 0067 01       		.byte	0x1
 3883 0068 03       		.uleb128 0x3
 3884 0069 0E       		.uleb128 0xe
 3885 006a 0B       		.uleb128 0xb
 3886 006b 0B       		.uleb128 0xb
 3887 006c 3A       		.uleb128 0x3a
 3888 006d 0B       		.uleb128 0xb
 3889 006e 3B       		.uleb128 0x3b
 3890 006f 05       		.uleb128 0x5
 3891 0070 01       		.uleb128 0x1
 3892 0071 13       		.uleb128 0x13
 3893 0072 00       		.byte	0x0
 3894 0073 00       		.byte	0x0
 3895 0074 0B       		.uleb128 0xb
 3896 0075 28       		.uleb128 0x28
 3897 0076 00       		.byte	0x0
 3898 0077 03       		.uleb128 0x3
 3899 0078 0E       		.uleb128 0xe
 3900 0079 1C       		.uleb128 0x1c
 3901 007a 0D       		.uleb128 0xd
 3902 007b 00       		.byte	0x0
 3903 007c 00       		.byte	0x0
 3904 007d 0C       		.uleb128 0xc
 3905 007e 13       		.uleb128 0x13
 3906 007f 01       		.byte	0x1
 3907 0080 03       		.uleb128 0x3
 3908 0081 0E       		.uleb128 0xe
 3909 0082 0B       		.uleb128 0xb
 3910 0083 0B       		.uleb128 0xb
 3911 0084 3A       		.uleb128 0x3a
ARM GAS  C:\Users\daniel01\AppData\Local\Temp\ccg4pOSx.s 			page 85


 3912 0085 0B       		.uleb128 0xb
 3913 0086 3B       		.uleb128 0x3b
 3914 0087 05       		.uleb128 0x5
 3915 0088 01       		.uleb128 0x1
 3916 0089 13       		.uleb128 0x13
 3917 008a 00       		.byte	0x0
 3918 008b 00       		.byte	0x0
 3919 008c 0D       		.uleb128 0xd
 3920 008d 0D       		.uleb128 0xd
 3921 008e 00       		.byte	0x0
 3922 008f 03       		.uleb128 0x3
 3923 0090 0E       		.uleb128 0xe
 3924 0091 3A       		.uleb128 0x3a
 3925 0092 0B       		.uleb128 0xb
 3926 0093 3B       		.uleb128 0x3b
 3927 0094 05       		.uleb128 0x5
 3928 0095 49       		.uleb128 0x49
 3929 0096 13       		.uleb128 0x13
 3930 0097 38       		.uleb128 0x38
 3931 0098 0A       		.uleb128 0xa
 3932 0099 00       		.byte	0x0
 3933 009a 00       		.byte	0x0
 3934 009b 0E       		.uleb128 0xe
 3935 009c 0D       		.uleb128 0xd
 3936 009d 00       		.byte	0x0
 3937 009e 03       		.uleb128 0x3
 3938 009f 08       		.uleb128 0x8
 3939 00a0 3A       		.uleb128 0x3a
 3940 00a1 0B       		.uleb128 0xb
 3941 00a2 3B       		.uleb128 0x3b
 3942 00a3 05       		.uleb128 0x5
 3943 00a4 49       		.uleb128 0x49
 3944 00a5 13       		.uleb128 0x13
 3945 00a6 38       		.uleb128 0x38
 3946 00a7 0A       		.uleb128 0xa
 3947 00a8 00       		.byte	0x0
 3948 00a9 00       		.byte	0x0
 3949 00aa 0F       		.uleb128 0xf
 3950 00ab 01       		.uleb128 0x1
 3951 00ac 01       		.byte	0x1
 3952 00ad 49       		.uleb128 0x49
 3953 00ae 13       		.uleb128 0x13
 3954 00af 01       		.uleb128 0x1
 3955 00b0 13       		.uleb128 0x13
 3956 00b1 00       		.byte	0x0
 3957 00b2 00       		.byte	0x0
 3958 00b3 10       		.uleb128 0x10
 3959 00b4 21       		.uleb128 0x21
 3960 00b5 00       		.byte	0x0
 3961 00b6 49       		.uleb128 0x49
 3962 00b7 13       		.uleb128 0x13
 3963 00b8 2F       		.uleb128 0x2f
 3964 00b9 0B       		.uleb128 0xb
 3965 00ba 00       		.byte	0x0
 3966 00bb 00       		.byte	0x0
 3967 00bc 11       		.uleb128 0x11
 3968 00bd 24       		.uleb128 0x24
ARM GAS  C:\Users\daniel01\AppData\Local\Temp\ccg4pOSx.s 			page 86


 3969 00be 00       		.byte	0x0
 3970 00bf 0B       		.uleb128 0xb
 3971 00c0 0B       		.uleb128 0xb
 3972 00c1 3E       		.uleb128 0x3e
 3973 00c2 0B       		.uleb128 0xb
 3974 00c3 00       		.byte	0x0
 3975 00c4 00       		.byte	0x0
 3976 00c5 12       		.uleb128 0x12
 3977 00c6 2E       		.uleb128 0x2e
 3978 00c7 01       		.byte	0x1
 3979 00c8 3F       		.uleb128 0x3f
 3980 00c9 0C       		.uleb128 0xc
 3981 00ca 03       		.uleb128 0x3
 3982 00cb 0E       		.uleb128 0xe
 3983 00cc 3A       		.uleb128 0x3a
 3984 00cd 0B       		.uleb128 0xb
 3985 00ce 3B       		.uleb128 0x3b
 3986 00cf 0B       		.uleb128 0xb
 3987 00d0 27       		.uleb128 0x27
 3988 00d1 0C       		.uleb128 0xc
 3989 00d2 11       		.uleb128 0x11
 3990 00d3 01       		.uleb128 0x1
 3991 00d4 12       		.uleb128 0x12
 3992 00d5 01       		.uleb128 0x1
 3993 00d6 40       		.uleb128 0x40
 3994 00d7 06       		.uleb128 0x6
 3995 00d8 01       		.uleb128 0x1
 3996 00d9 13       		.uleb128 0x13
 3997 00da 00       		.byte	0x0
 3998 00db 00       		.byte	0x0
 3999 00dc 13       		.uleb128 0x13
 4000 00dd 05       		.uleb128 0x5
 4001 00de 00       		.byte	0x0
 4002 00df 03       		.uleb128 0x3
 4003 00e0 0E       		.uleb128 0xe
 4004 00e1 3A       		.uleb128 0x3a
 4005 00e2 0B       		.uleb128 0xb
 4006 00e3 3B       		.uleb128 0x3b
 4007 00e4 0B       		.uleb128 0xb
 4008 00e5 49       		.uleb128 0x49
 4009 00e6 13       		.uleb128 0x13
 4010 00e7 02       		.uleb128 0x2
 4011 00e8 0A       		.uleb128 0xa
 4012 00e9 00       		.byte	0x0
 4013 00ea 00       		.byte	0x0
 4014 00eb 14       		.uleb128 0x14
 4015 00ec 34       		.uleb128 0x34
 4016 00ed 00       		.byte	0x0
 4017 00ee 03       		.uleb128 0x3
 4018 00ef 0E       		.uleb128 0xe
 4019 00f0 3A       		.uleb128 0x3a
 4020 00f1 0B       		.uleb128 0xb
 4021 00f2 3B       		.uleb128 0x3b
 4022 00f3 0B       		.uleb128 0xb
 4023 00f4 49       		.uleb128 0x49
 4024 00f5 13       		.uleb128 0x13
 4025 00f6 02       		.uleb128 0x2
ARM GAS  C:\Users\daniel01\AppData\Local\Temp\ccg4pOSx.s 			page 87


 4026 00f7 0A       		.uleb128 0xa
 4027 00f8 00       		.byte	0x0
 4028 00f9 00       		.byte	0x0
 4029 00fa 15       		.uleb128 0x15
 4030 00fb 2E       		.uleb128 0x2e
 4031 00fc 01       		.byte	0x1
 4032 00fd 3F       		.uleb128 0x3f
 4033 00fe 0C       		.uleb128 0xc
 4034 00ff 03       		.uleb128 0x3
 4035 0100 0E       		.uleb128 0xe
 4036 0101 3A       		.uleb128 0x3a
 4037 0102 0B       		.uleb128 0xb
 4038 0103 3B       		.uleb128 0x3b
 4039 0104 0B       		.uleb128 0xb
 4040 0105 27       		.uleb128 0x27
 4041 0106 0C       		.uleb128 0xc
 4042 0107 49       		.uleb128 0x49
 4043 0108 13       		.uleb128 0x13
 4044 0109 11       		.uleb128 0x11
 4045 010a 01       		.uleb128 0x1
 4046 010b 12       		.uleb128 0x12
 4047 010c 01       		.uleb128 0x1
 4048 010d 40       		.uleb128 0x40
 4049 010e 06       		.uleb128 0x6
 4050 010f 01       		.uleb128 0x1
 4051 0110 13       		.uleb128 0x13
 4052 0111 00       		.byte	0x0
 4053 0112 00       		.byte	0x0
 4054 0113 16       		.uleb128 0x16
 4055 0114 05       		.uleb128 0x5
 4056 0115 00       		.byte	0x0
 4057 0116 03       		.uleb128 0x3
 4058 0117 08       		.uleb128 0x8
 4059 0118 3A       		.uleb128 0x3a
 4060 0119 0B       		.uleb128 0xb
 4061 011a 3B       		.uleb128 0x3b
 4062 011b 0B       		.uleb128 0xb
 4063 011c 49       		.uleb128 0x49
 4064 011d 13       		.uleb128 0x13
 4065 011e 02       		.uleb128 0x2
 4066 011f 0A       		.uleb128 0xa
 4067 0120 00       		.byte	0x0
 4068 0121 00       		.byte	0x0
 4069 0122 17       		.uleb128 0x17
 4070 0123 34       		.uleb128 0x34
 4071 0124 00       		.byte	0x0
 4072 0125 03       		.uleb128 0x3
 4073 0126 08       		.uleb128 0x8
 4074 0127 3A       		.uleb128 0x3a
 4075 0128 0B       		.uleb128 0xb
 4076 0129 3B       		.uleb128 0x3b
 4077 012a 0B       		.uleb128 0xb
 4078 012b 49       		.uleb128 0x49
 4079 012c 13       		.uleb128 0x13
 4080 012d 02       		.uleb128 0x2
 4081 012e 0A       		.uleb128 0xa
 4082 012f 00       		.byte	0x0
ARM GAS  C:\Users\daniel01\AppData\Local\Temp\ccg4pOSx.s 			page 88


 4083 0130 00       		.byte	0x0
 4084 0131 18       		.uleb128 0x18
 4085 0132 2E       		.uleb128 0x2e
 4086 0133 01       		.byte	0x1
 4087 0134 3F       		.uleb128 0x3f
 4088 0135 0C       		.uleb128 0xc
 4089 0136 03       		.uleb128 0x3
 4090 0137 0E       		.uleb128 0xe
 4091 0138 3A       		.uleb128 0x3a
 4092 0139 0B       		.uleb128 0xb
 4093 013a 3B       		.uleb128 0x3b
 4094 013b 05       		.uleb128 0x5
 4095 013c 27       		.uleb128 0x27
 4096 013d 0C       		.uleb128 0xc
 4097 013e 11       		.uleb128 0x11
 4098 013f 01       		.uleb128 0x1
 4099 0140 12       		.uleb128 0x12
 4100 0141 01       		.uleb128 0x1
 4101 0142 40       		.uleb128 0x40
 4102 0143 06       		.uleb128 0x6
 4103 0144 01       		.uleb128 0x1
 4104 0145 13       		.uleb128 0x13
 4105 0146 00       		.byte	0x0
 4106 0147 00       		.byte	0x0
 4107 0148 19       		.uleb128 0x19
 4108 0149 05       		.uleb128 0x5
 4109 014a 00       		.byte	0x0
 4110 014b 03       		.uleb128 0x3
 4111 014c 0E       		.uleb128 0xe
 4112 014d 3A       		.uleb128 0x3a
 4113 014e 0B       		.uleb128 0xb
 4114 014f 3B       		.uleb128 0x3b
 4115 0150 05       		.uleb128 0x5
 4116 0151 49       		.uleb128 0x49
 4117 0152 13       		.uleb128 0x13
 4118 0153 02       		.uleb128 0x2
 4119 0154 0A       		.uleb128 0xa
 4120 0155 00       		.byte	0x0
 4121 0156 00       		.byte	0x0
 4122 0157 1A       		.uleb128 0x1a
 4123 0158 05       		.uleb128 0x5
 4124 0159 00       		.byte	0x0
 4125 015a 03       		.uleb128 0x3
 4126 015b 08       		.uleb128 0x8
 4127 015c 3A       		.uleb128 0x3a
 4128 015d 0B       		.uleb128 0xb
 4129 015e 3B       		.uleb128 0x3b
 4130 015f 05       		.uleb128 0x5
 4131 0160 49       		.uleb128 0x49
 4132 0161 13       		.uleb128 0x13
 4133 0162 02       		.uleb128 0x2
 4134 0163 0A       		.uleb128 0xa
 4135 0164 00       		.byte	0x0
 4136 0165 00       		.byte	0x0
 4137 0166 1B       		.uleb128 0x1b
 4138 0167 34       		.uleb128 0x34
 4139 0168 00       		.byte	0x0
ARM GAS  C:\Users\daniel01\AppData\Local\Temp\ccg4pOSx.s 			page 89


 4140 0169 03       		.uleb128 0x3
 4141 016a 0E       		.uleb128 0xe
 4142 016b 3A       		.uleb128 0x3a
 4143 016c 0B       		.uleb128 0xb
 4144 016d 3B       		.uleb128 0x3b
 4145 016e 05       		.uleb128 0x5
 4146 016f 49       		.uleb128 0x49
 4147 0170 13       		.uleb128 0x13
 4148 0171 02       		.uleb128 0x2
 4149 0172 0A       		.uleb128 0xa
 4150 0173 00       		.byte	0x0
 4151 0174 00       		.byte	0x0
 4152 0175 1C       		.uleb128 0x1c
 4153 0176 2E       		.uleb128 0x2e
 4154 0177 01       		.byte	0x1
 4155 0178 3F       		.uleb128 0x3f
 4156 0179 0C       		.uleb128 0xc
 4157 017a 03       		.uleb128 0x3
 4158 017b 0E       		.uleb128 0xe
 4159 017c 3A       		.uleb128 0x3a
 4160 017d 0B       		.uleb128 0xb
 4161 017e 3B       		.uleb128 0x3b
 4162 017f 05       		.uleb128 0x5
 4163 0180 27       		.uleb128 0x27
 4164 0181 0C       		.uleb128 0xc
 4165 0182 49       		.uleb128 0x49
 4166 0183 13       		.uleb128 0x13
 4167 0184 11       		.uleb128 0x11
 4168 0185 01       		.uleb128 0x1
 4169 0186 12       		.uleb128 0x12
 4170 0187 01       		.uleb128 0x1
 4171 0188 40       		.uleb128 0x40
 4172 0189 06       		.uleb128 0x6
 4173 018a 01       		.uleb128 0x1
 4174 018b 13       		.uleb128 0x13
 4175 018c 00       		.byte	0x0
 4176 018d 00       		.byte	0x0
 4177 018e 1D       		.uleb128 0x1d
 4178 018f 34       		.uleb128 0x34
 4179 0190 00       		.byte	0x0
 4180 0191 03       		.uleb128 0x3
 4181 0192 08       		.uleb128 0x8
 4182 0193 3A       		.uleb128 0x3a
 4183 0194 0B       		.uleb128 0xb
 4184 0195 3B       		.uleb128 0x3b
 4185 0196 05       		.uleb128 0x5
 4186 0197 49       		.uleb128 0x49
 4187 0198 13       		.uleb128 0x13
 4188 0199 02       		.uleb128 0x2
 4189 019a 0A       		.uleb128 0xa
 4190 019b 00       		.byte	0x0
 4191 019c 00       		.byte	0x0
 4192 019d 1E       		.uleb128 0x1e
 4193 019e 34       		.uleb128 0x34
 4194 019f 00       		.byte	0x0
 4195 01a0 03       		.uleb128 0x3
 4196 01a1 0E       		.uleb128 0xe
ARM GAS  C:\Users\daniel01\AppData\Local\Temp\ccg4pOSx.s 			page 90


 4197 01a2 3A       		.uleb128 0x3a
 4198 01a3 0B       		.uleb128 0xb
 4199 01a4 3B       		.uleb128 0x3b
 4200 01a5 05       		.uleb128 0x5
 4201 01a6 49       		.uleb128 0x49
 4202 01a7 13       		.uleb128 0x13
 4203 01a8 3F       		.uleb128 0x3f
 4204 01a9 0C       		.uleb128 0xc
 4205 01aa 3C       		.uleb128 0x3c
 4206 01ab 0C       		.uleb128 0xc
 4207 01ac 00       		.byte	0x0
 4208 01ad 00       		.byte	0x0
 4209 01ae 00       		.byte	0x0
 4210              		.section	.debug_pubnames,"",%progbits
 4211 0000 B6000000 		.4byte	0xb6
 4212 0004 0200     		.2byte	0x2
 4213 0006 00000000 		.4byte	.Ldebug_info0
 4214 000a 20110000 		.4byte	0x1120
 4215 000e 3E0D0000 		.4byte	0xd3e
 4216 0012 4F534D75 		.ascii	"OSMutexCreate\000"
 4216      74657843 
 4216      72656174 
 4216      6500
 4217 0020 960D0000 		.4byte	0xd96
 4218 0024 4F534D75 		.ascii	"OSMutexDel\000"
 4218      74657844 
 4218      656C00
 4219 002f 530E0000 		.4byte	0xe53
 4220 0033 4F534D75 		.ascii	"OSMutexPend\000"
 4220      74657850 
 4220      656E6400 
 4221 003f EC0E0000 		.4byte	0xeec
 4222 0043 4F534D75 		.ascii	"OSMutexPendAbort\000"
 4222      74657850 
 4222      656E6441 
 4222      626F7274 
 4222      00
 4223 0054 820F0000 		.4byte	0xf82
 4224 0058 4F534D75 		.ascii	"OSMutexPost\000"
 4224      74657850 
 4224      6F737400 
 4225 0064 05100000 		.4byte	0x1005
 4226 0068 4F535F4D 		.ascii	"OS_MutexClr\000"
 4226      75746578 
 4226      436C7200 
 4227 0074 2F100000 		.4byte	0x102f
 4228 0078 4F535F4D 		.ascii	"OS_MutexDbgListAdd\000"
 4228      75746578 
 4228      4462674C 
 4228      69737441 
 4228      646400
 4229 008b 59100000 		.4byte	0x1059
 4230 008f 4F535F4D 		.ascii	"OS_MutexDbgListRemove\000"
 4230      75746578 
 4230      4462674C 
 4230      69737452 
 4230      656D6F76 
ARM GAS  C:\Users\daniel01\AppData\Local\Temp\ccg4pOSx.s 			page 91


 4231 00a5 A1100000 		.4byte	0x10a1
 4232 00a9 4F535F4D 		.ascii	"OS_MutexInit\000"
 4232      75746578 
 4232      496E6974 
 4232      00
 4233 00b6 00000000 		.4byte	0x0
 4234              		.section	.debug_aranges,"",%progbits
 4235 0000 5C000000 		.4byte	0x5c
 4236 0004 0200     		.2byte	0x2
 4237 0006 00000000 		.4byte	.Ldebug_info0
 4238 000a 04       		.byte	0x4
 4239 000b 00       		.byte	0x0
 4240 000c 0000     		.2byte	0x0
 4241 000e 0000     		.2byte	0x0
 4242 0010 00000000 		.4byte	.LFB0
 4243 0014 BA000000 		.4byte	.LFE0-.LFB0
 4244 0018 00000000 		.4byte	.LFB1
 4245 001c F0010000 		.4byte	.LFE1-.LFB1
 4246 0020 00000000 		.4byte	.LFB2
 4247 0024 CA020000 		.4byte	.LFE2-.LFB2
 4248 0028 00000000 		.4byte	.LFB3
 4249 002c 06010000 		.4byte	.LFE3-.LFB3
 4250 0030 00000000 		.4byte	.LFB4
 4251 0034 BE010000 		.4byte	.LFE4-.LFB4
 4252 0038 00000000 		.4byte	.LFB5
 4253 003c 58000000 		.4byte	.LFE5-.LFB5
 4254 0040 00000000 		.4byte	.LFB6
 4255 0044 66000000 		.4byte	.LFE6-.LFB6
 4256 0048 00000000 		.4byte	.LFB7
 4257 004c 7C000000 		.4byte	.LFE7-.LFB7
 4258 0050 00000000 		.4byte	.LFB8
 4259 0054 36000000 		.4byte	.LFE8-.LFB8
 4260 0058 00000000 		.4byte	0x0
 4261 005c 00000000 		.4byte	0x0
 4262              		.section	.debug_ranges,"",%progbits
 4263              	.Ldebug_ranges0:
 4264 0000 00000000 		.4byte	.Ltext0
 4265 0004 00000000 		.4byte	.Letext0
 4266 0008 00000000 		.4byte	.LFB0
 4267 000c BA000000 		.4byte	.LFE0
 4268 0010 00000000 		.4byte	.LFB1
 4269 0014 F0010000 		.4byte	.LFE1
 4270 0018 00000000 		.4byte	.LFB2
 4271 001c CA020000 		.4byte	.LFE2
 4272 0020 00000000 		.4byte	.LFB3
 4273 0024 06010000 		.4byte	.LFE3
 4274 0028 00000000 		.4byte	.LFB4
 4275 002c BE010000 		.4byte	.LFE4
 4276 0030 00000000 		.4byte	.LFB5
 4277 0034 58000000 		.4byte	.LFE5
 4278 0038 00000000 		.4byte	.LFB6
 4279 003c 66000000 		.4byte	.LFE6
 4280 0040 00000000 		.4byte	.LFB7
 4281 0044 7C000000 		.4byte	.LFE7
 4282 0048 00000000 		.4byte	.LFB8
 4283 004c 36000000 		.4byte	.LFE8
 4284 0050 00000000 		.4byte	0x0
ARM GAS  C:\Users\daniel01\AppData\Local\Temp\ccg4pOSx.s 			page 92


 4285 0054 00000000 		.4byte	0x0
 4286              		.section	.debug_str,"MS",%progbits,1
 4287              	.LASF224:
 4288 0000 6F735F74 		.ascii	"os_tcb\000"
 4288      636200
 4289              	.LASF104:
 4290 0007 4F535F45 		.ascii	"OS_ERR_PRIO_INVALID\000"
 4290      52525F50 
 4290      52494F5F 
 4290      494E5641 
 4290      4C494400 
 4291              	.LASF197:
 4292 001b 4F535F45 		.ascii	"OS_ERR\000"
 4292      525200
 4293              	.LASF305:
 4294 0022 705F6D75 		.ascii	"p_mutex_prev\000"
 4294      7465785F 
 4294      70726576 
 4294      00
 4295              	.LASF21:
 4296 002f 4F535F43 		.ascii	"OS_CTX_SW_CTR\000"
 4296      54585F53 
 4296      575F4354 
 4296      5200
 4297              	.LASF313:
 4298 003d 474E5520 		.ascii	"GNU C 4.4.1\000"
 4298      4320342E 
 4298      342E3100 
 4299              	.LASF183:
 4300 0049 4F535F45 		.ascii	"OS_ERR_TMR_ISR\000"
 4300      52525F54 
 4300      4D525F49 
 4300      535200
 4301              	.LASF170:
 4302 0058 4F535F45 		.ascii	"OS_ERR_TIME_INVALID_MINUTES\000"
 4302      52525F54 
 4302      494D455F 
 4302      494E5641 
 4302      4C49445F 
 4303              	.LASF37:
 4304 0074 4F535F45 		.ascii	"OS_ERR_A\000"
 4304      52525F41 
 4304      00
 4305              	.LASF39:
 4306 007d 4F535F45 		.ascii	"OS_ERR_B\000"
 4306      52525F42 
 4306      00
 4307              	.LASF40:
 4308 0086 4F535F45 		.ascii	"OS_ERR_C\000"
 4308      52525F43 
 4308      00
 4309              	.LASF42:
 4310 008f 4F535F45 		.ascii	"OS_ERR_D\000"
 4310      52525F44 
 4310      00
 4311              	.LASF44:
 4312 0098 4F535F45 		.ascii	"OS_ERR_E\000"
ARM GAS  C:\Users\daniel01\AppData\Local\Temp\ccg4pOSx.s 			page 93


 4312      52525F45 
 4312      00
 4313              	.LASF45:
 4314 00a1 4F535F45 		.ascii	"OS_ERR_F\000"
 4314      52525F46 
 4314      00
 4315              	.LASF51:
 4316 00aa 4F535F45 		.ascii	"OS_ERR_G\000"
 4316      52525F47 
 4316      00
 4317              	.LASF52:
 4318 00b3 4F535F45 		.ascii	"OS_ERR_H\000"
 4318      52525F48 
 4318      00
 4319              	.LASF53:
 4320 00bc 4F535F45 		.ascii	"OS_ERR_I\000"
 4320      52525F49 
 4320      00
 4321              	.LASF60:
 4322 00c5 4F535F45 		.ascii	"OS_ERR_J\000"
 4322      52525F4A 
 4322      00
 4323              	.LASF61:
 4324 00ce 4F535F45 		.ascii	"OS_ERR_K\000"
 4324      52525F4B 
 4324      00
 4325              	.LASF62:
 4326 00d7 4F535F45 		.ascii	"OS_ERR_L\000"
 4326      52525F4C 
 4326      00
 4327              	.LASF64:
 4328 00e0 4F535F45 		.ascii	"OS_ERR_M\000"
 4328      52525F4D 
 4328      00
 4329              	.LASF80:
 4330 00e9 4F535F45 		.ascii	"OS_ERR_N\000"
 4330      52525F4E 
 4330      00
 4331              	.LASF83:
 4332 00f2 4F535F45 		.ascii	"OS_ERR_O\000"
 4332      52525F4F 
 4332      00
 4333              	.LASF91:
 4334 00fb 4F535F45 		.ascii	"OS_ERR_P\000"
 4334      52525F50 
 4334      00
 4335              	.LASF106:
 4336 0104 4F535F45 		.ascii	"OS_ERR_Q\000"
 4336      52525F51 
 4336      00
 4337              	.LASF111:
 4338 010d 4F535F45 		.ascii	"OS_ERR_R\000"
 4338      52525F52 
 4338      00
 4339              	.LASF115:
 4340 0116 4F535F45 		.ascii	"OS_ERR_S\000"
 4340      52525F53 
ARM GAS  C:\Users\daniel01\AppData\Local\Temp\ccg4pOSx.s 			page 94


 4340      00
 4341              	.LASF132:
 4342 011f 4F535F45 		.ascii	"OS_ERR_T\000"
 4342      52525F54 
 4342      00
 4343              	.LASF190:
 4344 0128 4F535F45 		.ascii	"OS_ERR_U\000"
 4344      52525F55 
 4344      00
 4345              	.LASF191:
 4346 0131 4F535F45 		.ascii	"OS_ERR_V\000"
 4346      52525F56 
 4346      00
 4347              	.LASF192:
 4348 013a 4F535F45 		.ascii	"OS_ERR_W\000"
 4348      52525F57 
 4348      00
 4349              	.LASF193:
 4350 0143 4F535F45 		.ascii	"OS_ERR_X\000"
 4350      52525F58 
 4350      00
 4351              	.LASF180:
 4352 014c 4F535F45 		.ascii	"OS_ERR_TMR_INVALID_PERIOD\000"
 4352      52525F54 
 4352      4D525F49 
 4352      4E56414C 
 4352      49445F50 
 4353              	.LASF316:
 4354 0166 6F735F65 		.ascii	"os_err\000"
 4354      727200
 4355              	.LASF209:
 4356 016d 4E627245 		.ascii	"NbrEntries\000"
 4356      6E747269 
 4356      657300
 4357              	.LASF57:
 4358 0178 4F535F45 		.ascii	"OS_ERR_INT_Q_SIZE\000"
 4358      52525F49 
 4358      4E545F51 
 4358      5F53495A 
 4358      4500
 4359              	.LASF41:
 4360 018a 4F535F45 		.ascii	"OS_ERR_CREATE_ISR\000"
 4360      52525F43 
 4360      52454154 
 4360      455F4953 
 4360      5200
 4361              	.LASF221:
 4362 019c 4F776E65 		.ascii	"OwnerNestingCtr\000"
 4362      724E6573 
 4362      74696E67 
 4362      43747200 
 4363              	.LASF20:
 4364 01ac 4F535F43 		.ascii	"OS_CPU_USAGE\000"
 4364      50555F55 
 4364      53414745 
 4364      00
 4365              	.LASF164:
ARM GAS  C:\Users\daniel01\AppData\Local\Temp\ccg4pOSx.s 			page 95


 4366 01b9 4F535F45 		.ascii	"OS_ERR_TICK_STK_SIZE_INVALID\000"
 4366      52525F54 
 4366      49434B5F 
 4366      53544B5F 
 4366      53495A45 
 4367              	.LASF8:
 4368 01d6 4350555F 		.ascii	"CPU_INT32U\000"
 4368      494E5433 
 4368      325500
 4369              	.LASF312:
 4370 01e1 4F535443 		.ascii	"OSTCBCurPtr\000"
 4370      42437572 
 4370      50747200 
 4371              	.LASF211:
 4372 01ed 4F535F4D 		.ascii	"OS_MUTEX\000"
 4372      55544558 
 4372      00
 4373              	.LASF129:
 4374 01f6 4F535F45 		.ascii	"OS_ERR_STK_INVALID\000"
 4374      52525F53 
 4374      544B5F49 
 4374      4E56414C 
 4374      494400
 4375              	.LASF254:
 4376 0209 466C6167 		.ascii	"FlagsOpt\000"
 4376      734F7074 
 4376      00
 4377              	.LASF145:
 4378 0212 4F535F45 		.ascii	"OS_ERR_TASK_RESUME_ISR\000"
 4378      52525F54 
 4378      41534B5F 
 4378      52455355 
 4378      4D455F49 
 4379              	.LASF99:
 4380 0229 4F535F45 		.ascii	"OS_ERR_PEND_WOULD_BLOCK\000"
 4380      52525F50 
 4380      454E445F 
 4380      574F554C 
 4380      445F424C 
 4381              	.LASF133:
 4382 0241 4F535F45 		.ascii	"OS_ERR_TASK_CHANGE_PRIO_ISR\000"
 4382      52525F54 
 4382      41534B5F 
 4382      4348414E 
 4382      47455F50 
 4383              	.LASF123:
 4384 025d 4F535F45 		.ascii	"OS_ERR_STAT_RESET_ISR\000"
 4384      52525F53 
 4384      5441545F 
 4384      52455345 
 4384      545F4953 
 4385              	.LASF308:
 4386 0273 4F534D75 		.ascii	"OSMutexDbgListPtr\000"
 4386      74657844 
 4386      62674C69 
 4386      73745074 
 4386      7200
ARM GAS  C:\Users\daniel01\AppData\Local\Temp\ccg4pOSx.s 			page 96


 4387              	.LASF98:
 4388 0285 4F535F45 		.ascii	"OS_ERR_PEND_LOCKED\000"
 4388      52525F50 
 4388      454E445F 
 4388      4C4F434B 
 4388      454400
 4389              	.LASF27:
 4390 0298 4F535F4F 		.ascii	"OS_OBJ_QTY\000"
 4390      424A5F51 
 4390      545900
 4391              	.LASF143:
 4392 02a3 4F535F45 		.ascii	"OS_ERR_TASK_NOT_SUSPENDED\000"
 4392      52525F54 
 4392      41534B5F 
 4392      4E4F545F 
 4392      53555350 
 4393              	.LASF141:
 4394 02bd 4F535F45 		.ascii	"OS_ERR_TASK_NOT_DLY\000"
 4394      52525F54 
 4394      41534B5F 
 4394      4E4F545F 
 4394      444C5900 
 4395              	.LASF216:
 4396 02d1 44626750 		.ascii	"DbgPrevPtr\000"
 4396      72657650 
 4396      747200
 4397              	.LASF55:
 4398 02dc 4F535F45 		.ascii	"OS_ERR_INT_Q\000"
 4398      52525F49 
 4398      4E545F51 
 4398      00
 4399              	.LASF217:
 4400 02e9 4462674E 		.ascii	"DbgNextPtr\000"
 4400      65787450 
 4400      747200
 4401              	.LASF155:
 4402 02f4 4F535F45 		.ascii	"OS_ERR_TASK_WAITING\000"
 4402      52525F54 
 4402      41534B5F 
 4402      57414954 
 4402      494E4700 
 4403              	.LASF38:
 4404 0308 4F535F45 		.ascii	"OS_ERR_ACCEPT_ISR\000"
 4404      52525F41 
 4404      43434550 
 4404      545F4953 
 4404      5200
 4405              	.LASF153:
 4406 031a 4F535F45 		.ascii	"OS_ERR_TASK_SUSPEND_ISR\000"
 4406      52525F54 
 4406      41534B5F 
 4406      53555350 
 4406      454E445F 
 4407              	.LASF79:
 4408 0332 4F535F45 		.ascii	"OS_ERR_MUTEX_NESTING\000"
 4408      52525F4D 
 4408      55544558 
ARM GAS  C:\Users\daniel01\AppData\Local\Temp\ccg4pOSx.s 			page 97


 4408      5F4E4553 
 4408      54494E47 
 4409              	.LASF290:
 4410 0347 705F7065 		.ascii	"p_pend_list\000"
 4410      6E645F6C 
 4410      69737400 
 4411              	.LASF181:
 4412 0353 4F535F45 		.ascii	"OS_ERR_TMR_INVALID_STATE\000"
 4412      52525F54 
 4412      4D525F49 
 4412      4E56414C 
 4412      49445F53 
 4413              	.LASF236:
 4414 036c 50656E64 		.ascii	"PendOn\000"
 4414      4F6E00
 4415              	.LASF241:
 4416 0373 50656E64 		.ascii	"PendDataTblEntries\000"
 4416      44617461 
 4416      54626C45 
 4416      6E747269 
 4416      657300
 4417              	.LASF84:
 4418 0386 4F535F45 		.ascii	"OS_ERR_OBJ_CREATED\000"
 4418      52525F4F 
 4418      424A5F43 
 4418      52454154 
 4418      454400
 4419              	.LASF309:
 4420 0399 4F534D75 		.ascii	"OSMutexQty\000"
 4420      74657851 
 4420      747900
 4421              	.LASF281:
 4422 03a4 5461696C 		.ascii	"TailPtr\000"
 4422      50747200 
 4423              	.LASF151:
 4424 03ac 4F535F45 		.ascii	"OS_ERR_TASK_SUSPEND_IDLE\000"
 4424      52525F54 
 4424      41534B5F 
 4424      53555350 
 4424      454E445F 
 4425              	.LASF56:
 4426 03c5 4F535F45 		.ascii	"OS_ERR_INT_Q_FULL\000"
 4426      52525F49 
 4426      4E545F51 
 4426      5F46554C 
 4426      4C00
 4427              	.LASF244:
 4428 03d7 5469636B 		.ascii	"TickCtrMatch\000"
 4428      4374724D 
 4428      61746368 
 4428      00
 4429              	.LASF275:
 4430 03e4 5264794D 		.ascii	"RdyMsgPtr\000"
 4430      73675074 
 4430      7200
 4431              	.LASF283:
 4432 03ee 6F735F70 		.ascii	"os_pend_obj\000"
ARM GAS  C:\Users\daniel01\AppData\Local\Temp\ccg4pOSx.s 			page 98


 4432      656E645F 
 4432      6F626A00 
 4433              	.LASF54:
 4434 03fa 4F535F45 		.ascii	"OS_ERR_ILLEGAL_CREATE_RUN_TIME\000"
 4434      52525F49 
 4434      4C4C4547 
 4434      414C5F43 
 4434      52454154 
 4435              	.LASF252:
 4436 0419 466C6167 		.ascii	"FlagsPend\000"
 4436      7350656E 
 4436      6400
 4437              	.LASF179:
 4438 0423 4F535F45 		.ascii	"OS_ERR_TMR_INVALID_DLY\000"
 4438      52525F54 
 4438      4D525F49 
 4438      4E56414C 
 4438      49445F44 
 4439              	.LASF219:
 4440 043a 4F776E65 		.ascii	"OwnerTCBPtr\000"
 4440      72544342 
 4440      50747200 
 4441              	.LASF258:
 4442 0446 43747853 		.ascii	"CtxSwCtr\000"
 4442      77437472 
 4442      00
 4443              	.LASF146:
 4444 044f 4F535F45 		.ascii	"OS_ERR_TASK_RESUME_PRIO\000"
 4444      52525F54 
 4444      41534B5F 
 4444      52455355 
 4444      4D455F50 
 4445              	.LASF30:
 4446 0467 4F535F50 		.ascii	"OS_PRIO\000"
 4446      52494F00 
 4447              	.LASF12:
 4448 046f 666C6F61 		.ascii	"float\000"
 4448      7400
 4449              	.LASF100:
 4450 0475 4F535F45 		.ascii	"OS_ERR_POST_NULL_PTR\000"
 4450      52525F50 
 4450      4F53545F 
 4450      4E554C4C 
 4450      5F505452 
 4451              	.LASF82:
 4452 048a 4F535F45 		.ascii	"OS_ERR_NO_MORE_ID_AVAIL\000"
 4452      52525F4E 
 4452      4F5F4D4F 
 4452      52455F49 
 4452      445F4156 
 4453              	.LASF267:
 4454 04a2 4F535F54 		.ascii	"OS_TICK_SPOKE\000"
 4454      49434B5F 
 4454      53504F4B 
 4454      4500
 4455              	.LASF72:
 4456 04b0 4F535F45 		.ascii	"OS_ERR_MEM_INVALID_P_DATA\000"
ARM GAS  C:\Users\daniel01\AppData\Local\Temp\ccg4pOSx.s 			page 99


 4456      52525F4D 
 4456      454D5F49 
 4456      4E56414C 
 4456      49445F50 
 4457              	.LASF287:
 4458 04ca 6370755F 		.ascii	"cpu_sr\000"
 4458      737200
 4459              	.LASF184:
 4460 04d1 4F535F45 		.ascii	"OS_ERR_TMR_NO_CALLBACK\000"
 4460      52525F54 
 4460      4D525F4E 
 4460      4F5F4341 
 4460      4C4C4241 
 4461              	.LASF177:
 4462 04e8 4F535F45 		.ascii	"OS_ERR_TMR_INACTIVE\000"
 4462      52525F54 
 4462      4D525F49 
 4462      4E414354 
 4462      49564500 
 4463              	.LASF157:
 4464 04fc 4F535F45 		.ascii	"OS_ERR_TLS_ID_INVALID\000"
 4464      52525F54 
 4464      4C535F49 
 4464      445F494E 
 4464      56414C49 
 4465              	.LASF10:
 4466 0512 6C6F6E67 		.ascii	"long long unsigned int\000"
 4466      206C6F6E 
 4466      6720756E 
 4466      7369676E 
 4466      65642069 
 4467              	.LASF148:
 4468 0529 4F535F45 		.ascii	"OS_ERR_TASK_RUNNING\000"
 4468      52525F54 
 4468      41534B5F 
 4468      52554E4E 
 4468      494E4700 
 4469              	.LASF265:
 4470 053d 53746B55 		.ascii	"StkUsed\000"
 4470      73656400 
 4471              	.LASF182:
 4472 0545 4F535F45 		.ascii	"OS_ERR_TMR_INVALID\000"
 4472      52525F54 
 4472      4D525F49 
 4472      4E56414C 
 4472      494400
 4473              	.LASF270:
 4474 0558 4F535F50 		.ascii	"OS_PEND_DATA\000"
 4474      454E445F 
 4474      44415441 
 4474      00
 4475              	.LASF152:
 4476 0565 4F535F45 		.ascii	"OS_ERR_TASK_SUSPEND_INT_HANDLER\000"
 4476      52525F54 
 4476      41534B5F 
 4476      53555350 
 4476      454E445F 
ARM GAS  C:\Users\daniel01\AppData\Local\Temp\ccg4pOSx.s 			page 100


 4477              	.LASF137:
 4478 0585 4F535F45 		.ascii	"OS_ERR_TASK_DEL_INVALID\000"
 4478      52525F54 
 4478      41534B5F 
 4478      44454C5F 
 4478      494E5641 
 4479              	.LASF293:
 4480 059d 4F534D75 		.ascii	"OSMutexCreate\000"
 4480      74657843 
 4480      72656174 
 4480      6500
 4481              	.LASF187:
 4482 05ab 4F535F45 		.ascii	"OS_ERR_TMR_STK_INVALID\000"
 4482      52525F54 
 4482      4D525F53 
 4482      544B5F49 
 4482      4E56414C 
 4483              	.LASF3:
 4484 05c2 4350555F 		.ascii	"CPU_INT08U\000"
 4484      494E5430 
 4484      385500
 4485              	.LASF204:
 4486 05cd 6F735F6D 		.ascii	"os_msg\000"
 4486      736700
 4487              	.LASF156:
 4488 05d4 4F535F45 		.ascii	"OS_ERR_TCB_INVALID\000"
 4488      52525F54 
 4488      43425F49 
 4488      4E56414C 
 4488      494400
 4489              	.LASF240:
 4490 05e7 53746B53 		.ascii	"StkSize\000"
 4490      697A6500 
 4491              	.LASF232:
 4492 05ef 53746B42 		.ascii	"StkBasePtr\000"
 4492      61736550 
 4492      747200
 4493              	.LASF108:
 4494 05fa 4F535F45 		.ascii	"OS_ERR_Q_EMPTY\000"
 4494      52525F51 
 4494      5F454D50 
 4494      545900
 4495              	.LASF172:
 4496 0609 4F535F45 		.ascii	"OS_ERR_TIME_INVALID_MILLISECONDS\000"
 4496      52525F54 
 4496      494D455F 
 4496      494E5641 
 4496      4C49445F 
 4497              	.LASF310:
 4498 062a 4F535072 		.ascii	"OSPrioCur\000"
 4498      696F4375 
 4498      7200
 4499              	.LASF31:
 4500 0634 4F535F52 		.ascii	"OS_REG\000"
 4500      454700
 4501              	.LASF81:
 4502 063b 4F535F45 		.ascii	"OS_ERR_NAME\000"
ARM GAS  C:\Users\daniel01\AppData\Local\Temp\ccg4pOSx.s 			page 101


 4502      52525F4E 
 4502      414D4500 
 4503              	.LASF300:
 4504 0647 4F534D75 		.ascii	"OSMutexPost\000"
 4504      74657850 
 4504      6F737400 
 4505              	.LASF247:
 4506 0653 54696D65 		.ascii	"TimeQuantaCtr\000"
 4506      5175616E 
 4506      74614374 
 4506      7200
 4507              	.LASF34:
 4508 0661 4F535F53 		.ascii	"OS_STATUS\000"
 4508      54415455 
 4508      5300
 4509              	.LASF238:
 4510 066b 5461736B 		.ascii	"TaskState\000"
 4510      53746174 
 4510      6500
 4511              	.LASF161:
 4512 0675 4F535F45 		.ascii	"OS_ERR_TLS_DESTRUCT_ASSIGNED\000"
 4512      52525F54 
 4512      4C535F44 
 4512      45535452 
 4512      5543545F 
 4513              	.LASF77:
 4514 0692 4F535F45 		.ascii	"OS_ERR_MUTEX_NOT_OWNER\000"
 4514      52525F4D 
 4514      55544558 
 4514      5F4E4F54 
 4514      5F4F574E 
 4515              	.LASF25:
 4516 06a9 4F535F4D 		.ascii	"OS_MSG_SIZE\000"
 4516      53475F53 
 4516      495A4500 
 4517              	.LASF169:
 4518 06b5 4F535F45 		.ascii	"OS_ERR_TIME_INVALID_HOURS\000"
 4518      52525F54 
 4518      494D455F 
 4518      494E5641 
 4518      4C49445F 
 4519              	.LASF185:
 4520 06cf 4F535F45 		.ascii	"OS_ERR_TMR_NON_AVAIL\000"
 4520      52525F54 
 4520      4D525F4E 
 4520      4F4E5F41 
 4520      5641494C 
 4521              	.LASF2:
 4522 06e4 4350555F 		.ascii	"CPU_CHAR\000"
 4522      43484152 
 4522      00
 4523              	.LASF220:
 4524 06ed 4F776E65 		.ascii	"OwnerOriginalPrio\000"
 4524      724F7269 
 4524      67696E61 
 4524      6C507269 
 4524      6F00
ARM GAS  C:\Users\daniel01\AppData\Local\Temp\ccg4pOSx.s 			page 102


 4525              	.LASF134:
 4526 06ff 4F535F45 		.ascii	"OS_ERR_TASK_CREATE_ISR\000"
 4526      52525F54 
 4526      41534B5F 
 4526      43524541 
 4526      54455F49 
 4527              	.LASF306:
 4528 0716 4F535F4D 		.ascii	"OS_MutexInit\000"
 4528      75746578 
 4528      496E6974 
 4528      00
 4529              	.LASF16:
 4530 0723 4350555F 		.ascii	"CPU_STK_SIZE\000"
 4530      53544B5F 
 4530      53495A45 
 4530      00
 4531              	.LASF24:
 4532 0730 4F535F4D 		.ascii	"OS_MSG_QTY\000"
 4532      53475F51 
 4532      545900
 4533              	.LASF90:
 4534 073b 4F535F45 		.ascii	"OS_ERR_OS_RUNNING\000"
 4534      52525F4F 
 4534      535F5255 
 4534      4E4E494E 
 4534      4700
 4535              	.LASF266:
 4536 074d 53746B46 		.ascii	"StkFree\000"
 4536      72656500 
 4537              	.LASF243:
 4538 0755 5469636B 		.ascii	"TickCtrPrev\000"
 4538      43747250 
 4538      72657600 
 4539              	.LASF208:
 4540 0761 4E627245 		.ascii	"NbrEntriesSize\000"
 4540      6E747269 
 4540      65735369 
 4540      7A6500
 4541              	.LASF175:
 4542 0770 4F535F45 		.ascii	"OS_ERR_TIME_ZERO_DLY\000"
 4542      52525F54 
 4542      494D455F 
 4542      5A45524F 
 4542      5F444C59 
 4543              	.LASF230:
 4544 0785 5469636B 		.ascii	"TickPrevPtr\000"
 4544      50726576 
 4544      50747200 
 4545              	.LASF253:
 4546 0791 466C6167 		.ascii	"FlagsRdy\000"
 4546      73526479 
 4546      00
 4547              	.LASF125:
 4548 079a 4F535F45 		.ascii	"OS_ERR_STAT_STK_INVALID\000"
 4548      52525F53 
 4548      5441545F 
 4548      53544B5F 
ARM GAS  C:\Users\daniel01\AppData\Local\Temp\ccg4pOSx.s 			page 103


 4548      494E5641 
 4549              	.LASF47:
 4550 07b2 4F535F45 		.ascii	"OS_ERR_FLAG_GRP_DEPLETED\000"
 4550      52525F46 
 4550      4C41475F 
 4550      4752505F 
 4550      4445504C 
 4551              	.LASF68:
 4552 07cb 4F535F45 		.ascii	"OS_ERR_MEM_INVALID_BLKS\000"
 4552      52525F4D 
 4552      454D5F49 
 4552      4E56414C 
 4552      49445F42 
 4553              	.LASF286:
 4554 07e3 705F6572 		.ascii	"p_err\000"
 4554      7200
 4555              	.LASF250:
 4556 07e9 4D736751 		.ascii	"MsgQPendTimeMax\000"
 4556      50656E64 
 4556      54696D65 
 4556      4D617800 
 4557              	.LASF249:
 4558 07f9 4D736751 		.ascii	"MsgQPendTime\000"
 4558      50656E64 
 4558      54696D65 
 4558      00
 4559              	.LASF198:
 4560 0806 4F535F4D 		.ascii	"OS_MSG\000"
 4560      534700
 4561              	.LASF285:
 4562 080d 705F6E61 		.ascii	"p_name\000"
 4562      6D6500
 4563              	.LASF178:
 4564 0814 4F535F45 		.ascii	"OS_ERR_TMR_INVALID_DEST\000"
 4564      52525F54 
 4564      4D525F49 
 4564      4E56414C 
 4564      49445F44 
 4565              	.LASF301:
 4566 082c 4F535F4D 		.ascii	"OS_MutexClr\000"
 4566      75746578 
 4566      436C7200 
 4567              	.LASF117:
 4568 0838 4F535F45 		.ascii	"OS_ERR_SCHED_LOCK_ISR\000"
 4568      52525F53 
 4568      43484544 
 4568      5F4C4F43 
 4568      4B5F4953 
 4569              	.LASF43:
 4570 084e 4F535F45 		.ascii	"OS_ERR_DEL_ISR\000"
 4570      52525F44 
 4570      454C5F49 
 4570      535200
 4571              	.LASF109:
 4572 085d 4F535F45 		.ascii	"OS_ERR_Q_MAX\000"
 4572      52525F51 
 4572      5F4D4158 
ARM GAS  C:\Users\daniel01\AppData\Local\Temp\ccg4pOSx.s 			page 104


 4572      00
 4573              	.LASF289:
 4574 086a 705F7065 		.ascii	"p_pend_data\000"
 4574      6E645F64 
 4574      61746100 
 4575              	.LASF228:
 4576 0876 50726576 		.ascii	"PrevPtr\000"
 4576      50747200 
 4577              	.LASF0:
 4578 087e 63686172 		.ascii	"char\000"
 4578      00
 4579              	.LASF28:
 4580 0883 4F535F4F 		.ascii	"OS_OBJ_TYPE\000"
 4580      424A5F54 
 4580      59504500 
 4581              	.LASF160:
 4582 088f 4F535F45 		.ascii	"OS_ERR_TLS_NOT_EN\000"
 4582      52525F54 
 4582      4C535F4E 
 4582      4F545F45 
 4582      4E00
 4583              	.LASF88:
 4584 08a1 4F535F45 		.ascii	"OS_ERR_OPT_INVALID\000"
 4584      52525F4F 
 4584      50545F49 
 4584      4E56414C 
 4584      494400
 4585              	.LASF17:
 4586 08b4 4350555F 		.ascii	"CPU_SR\000"
 4586      535200
 4587              	.LASF116:
 4588 08bb 4F535F45 		.ascii	"OS_ERR_SCHED_INVALID_TIME_SLICE\000"
 4588      52525F53 
 4588      43484544 
 4588      5F494E56 
 4588      414C4944 
 4589              	.LASF248:
 4590 08db 4D736751 		.ascii	"MsgQ\000"
 4590      00
 4591              	.LASF233:
 4592 08e0 5461736B 		.ascii	"TaskEntryAddr\000"
 4592      456E7472 
 4592      79416464 
 4592      7200
 4593              	.LASF124:
 4594 08ee 4F535F45 		.ascii	"OS_ERR_STAT_PRIO_INVALID\000"
 4594      52525F53 
 4594      5441545F 
 4594      5052494F 
 4594      5F494E56 
 4595              	.LASF173:
 4596 0907 4F535F45 		.ascii	"OS_ERR_TIME_NOT_DLY\000"
 4596      52525F54 
 4596      494D455F 
 4596      4E4F545F 
 4596      444C5900 
 4597              	.LASF214:
ARM GAS  C:\Users\daniel01\AppData\Local\Temp\ccg4pOSx.s 			page 105


 4598 091b 4E616D65 		.ascii	"NamePtr\000"
 4598      50747200 
 4599              	.LASF237:
 4600 0923 50656E64 		.ascii	"PendStatus\000"
 4600      53746174 
 4600      757300
 4601              	.LASF203:
 4602 092e 4F535F4D 		.ascii	"OS_MSG_Q\000"
 4602      53475F51 
 4602      00
 4603              	.LASF213:
 4604 0937 54797065 		.ascii	"Type\000"
 4604      00
 4605              	.LASF195:
 4606 093c 4F535F45 		.ascii	"OS_ERR_YIELD_ISR\000"
 4606      52525F59 
 4606      49454C44 
 4606      5F495352 
 4606      00
 4607              	.LASF85:
 4608 094d 4F535F45 		.ascii	"OS_ERR_OBJ_DEL\000"
 4608      52525F4F 
 4608      424A5F44 
 4608      454C00
 4609              	.LASF19:
 4610 095c 4350555F 		.ascii	"CPU_TS\000"
 4610      545300
 4611              	.LASF11:
 4612 0963 6C6F6E67 		.ascii	"long long int\000"
 4612      206C6F6E 
 4612      6720696E 
 4612      7400
 4613              	.LASF49:
 4614 0971 4F535F45 		.ascii	"OS_ERR_FLAG_PEND_OPT\000"
 4614      52525F46 
 4614      4C41475F 
 4614      50454E44 
 4614      5F4F5054 
 4615              	.LASF225:
 4616 0986 53746B50 		.ascii	"StkPtr\000"
 4616      747200
 4617              	.LASF268:
 4618 098d 6F735F74 		.ascii	"os_tick_spoke\000"
 4618      69636B5F 
 4618      73706F6B 
 4618      6500
 4619              	.LASF291:
 4620 099b 705F7463 		.ascii	"p_tcb\000"
 4620      6200
 4621              	.LASF110:
 4622 09a1 4F535F45 		.ascii	"OS_ERR_Q_SIZE\000"
 4622      52525F51 
 4622      5F53495A 
 4622      4500
 4623              	.LASF260:
 4624 09af 4379636C 		.ascii	"CyclesStart\000"
 4624      65735374 
ARM GAS  C:\Users\daniel01\AppData\Local\Temp\ccg4pOSx.s 			page 106


 4624      61727400 
 4625              	.LASF297:
 4626 09bb 70656E64 		.ascii	"pend_data\000"
 4626      5F646174 
 4626      6100
 4627              	.LASF272:
 4628 09c5 54434250 		.ascii	"TCBPtr\000"
 4628      747200
 4629              	.LASF95:
 4630 09cc 4F535F45 		.ascii	"OS_ERR_PEND_ABORT_SELF\000"
 4630      52525F50 
 4630      454E445F 
 4630      41424F52 
 4630      545F5345 
 4631              	.LASF5:
 4632 09e3 4350555F 		.ascii	"CPU_INT16U\000"
 4632      494E5431 
 4632      365500
 4633              	.LASF114:
 4634 09ee 4F535F45 		.ascii	"OS_ERR_ROUND_ROBIN_DISABLED\000"
 4634      52525F52 
 4634      4F554E44 
 4634      5F524F42 
 4634      494E5F44 
 4635              	.LASF69:
 4636 0a0a 4F535F45 		.ascii	"OS_ERR_MEM_INVALID_PART\000"
 4636      52525F4D 
 4636      454D5F49 
 4636      4E56414C 
 4636      49445F50 
 4637              	.LASF86:
 4638 0a22 4F535F45 		.ascii	"OS_ERR_OBJ_PTR_NULL\000"
 4638      52525F4F 
 4638      424A5F50 
 4638      54525F4E 
 4638      554C4C00 
 4639              	.LASF112:
 4640 0a36 4F535F45 		.ascii	"OS_ERR_REG_ID_INVALID\000"
 4640      52525F52 
 4640      45475F49 
 4640      445F494E 
 4640      56414C49 
 4641              	.LASF288:
 4642 0a4c 6E62725F 		.ascii	"nbr_tasks\000"
 4642      7461736B 
 4642      7300
 4643              	.LASF35:
 4644 0a56 4F535F54 		.ascii	"OS_TICK\000"
 4644      49434B00 
 4645              	.LASF66:
 4646 0a5e 4F535F45 		.ascii	"OS_ERR_MEM_FULL\000"
 4646      52525F4D 
 4646      454D5F46 
 4646      554C4C00 
 4647              	.LASF140:
 4648 0a6e 4F535F45 		.ascii	"OS_ERR_TASK_NO_MORE_TCB\000"
 4648      52525F54 
ARM GAS  C:\Users\daniel01\AppData\Local\Temp\ccg4pOSx.s 			page 107


 4648      41534B5F 
 4648      4E4F5F4D 
 4648      4F52455F 
 4649              	.LASF71:
 4650 0a86 4F535F45 		.ascii	"OS_ERR_MEM_INVALID_P_MEM\000"
 4650      52525F4D 
 4650      454D5F49 
 4650      4E56414C 
 4650      49445F50 
 4651              	.LASF18:
 4652 0a9f 4350555F 		.ascii	"CPU_TS32\000"
 4652      54533332 
 4652      00
 4653              	.LASF255:
 4654 0aa8 53757370 		.ascii	"SuspendCtr\000"
 4654      656E6443 
 4654      747200
 4655              	.LASF227:
 4656 0ab3 53746B4C 		.ascii	"StkLimitPtr\000"
 4656      696D6974 
 4656      50747200 
 4657              	.LASF259:
 4658 0abf 4379636C 		.ascii	"CyclesDelta\000"
 4658      65734465 
 4658      6C746100 
 4659              	.LASF32:
 4660 0acb 4F535F53 		.ascii	"OS_SEM_CTR\000"
 4660      454D5F43 
 4660      545200
 4661              	.LASF188:
 4662 0ad6 4F535F45 		.ascii	"OS_ERR_TMR_STK_SIZE_INVALID\000"
 4662      52525F54 
 4662      4D525F53 
 4662      544B5F53 
 4662      495A455F 
 4663              	.LASF165:
 4664 0af2 4F535F45 		.ascii	"OS_ERR_TICK_WHEEL_SIZE\000"
 4664      52525F54 
 4664      49434B5F 
 4664      57484545 
 4664      4C5F5349 
 4665              	.LASF229:
 4666 0b09 5469636B 		.ascii	"TickNextPtr\000"
 4666      4E657874 
 4666      50747200 
 4667              	.LASF142:
 4668 0b15 4F535F45 		.ascii	"OS_ERR_TASK_NOT_EXIST\000"
 4668      52525F54 
 4668      41534B5F 
 4668      4E4F545F 
 4668      45584953 
 4669              	.LASF139:
 4670 0b2b 4F535F45 		.ascii	"OS_ERR_TASK_INVALID\000"
 4670      52525F54 
 4670      41534B5F 
 4670      494E5641 
 4670      4C494400 
ARM GAS  C:\Users\daniel01\AppData\Local\Temp\ccg4pOSx.s 			page 108


 4671              	.LASF186:
 4672 0b3f 4F535F45 		.ascii	"OS_ERR_TMR_PRIO_INVALID\000"
 4672      52525F54 
 4672      4D525F50 
 4672      52494F5F 
 4672      494E5641 
 4673              	.LASF296:
 4674 0b57 705F7473 		.ascii	"p_ts\000"
 4674      00
 4675              	.LASF154:
 4676 0b5c 4F535F45 		.ascii	"OS_ERR_TASK_SUSPEND_PRIO\000"
 4676      52525F54 
 4676      41534B5F 
 4676      53555350 
 4676      454E445F 
 4677              	.LASF274:
 4678 0b75 5264794F 		.ascii	"RdyObjPtr\000"
 4678      626A5074 
 4678      7200
 4679              	.LASF59:
 4680 0b7f 4F535F45 		.ascii	"OS_ERR_INT_Q_STK_SIZE_INVALID\000"
 4680      52525F49 
 4680      4E545F51 
 4680      5F53544B 
 4680      5F53495A 
 4681              	.LASF158:
 4682 0b9d 4F535F45 		.ascii	"OS_ERR_TLS_ISR\000"
 4682      52525F54 
 4682      4C535F49 
 4682      535200
 4683              	.LASF138:
 4684 0bac 4F535F45 		.ascii	"OS_ERR_TASK_DEL_ISR\000"
 4684      52525F54 
 4684      41534B5F 
 4684      44454C5F 
 4684      49535200 
 4685              	.LASF263:
 4686 0bc0 53656D50 		.ascii	"SemPendTime\000"
 4686      656E6454 
 4686      696D6500 
 4687              	.LASF105:
 4688 0bcc 4F535F45 		.ascii	"OS_ERR_PTR_INVALID\000"
 4688      52525F50 
 4688      54525F49 
 4688      4E56414C 
 4688      494400
 4689              	.LASF127:
 4690 0bdf 4F535F45 		.ascii	"OS_ERR_STATE_INVALID\000"
 4690      52525F53 
 4690      54415445 
 4690      5F494E56 
 4690      414C4944 
 4691              	.LASF199:
 4692 0bf4 4E657874 		.ascii	"NextPtr\000"
 4692      50747200 
 4693              	.LASF89:
 4694 0bfc 4F535F45 		.ascii	"OS_ERR_OS_NOT_RUNNING\000"
ARM GAS  C:\Users\daniel01\AppData\Local\Temp\ccg4pOSx.s 			page 109


 4694      52525F4F 
 4694      535F4E4F 
 4694      545F5255 
 4694      4E4E494E 
 4695              	.LASF212:
 4696 0c12 6F735F6D 		.ascii	"os_mutex\000"
 4696      75746578 
 4696      00
 4697              	.LASF303:
 4698 0c1b 4F535F4D 		.ascii	"OS_MutexDbgListRemove\000"
 4698      75746578 
 4698      4462674C 
 4698      69737452 
 4698      656D6F76 
 4699              	.LASF307:
 4700 0c31 4F53496E 		.ascii	"OSIntNestingCtr\000"
 4700      744E6573 
 4700      74696E67 
 4700      43747200 
 4701              	.LASF174:
 4702 0c41 4F535F45 		.ascii	"OS_ERR_TIME_SET_ISR\000"
 4702      52525F54 
 4702      494D455F 
 4702      5345545F 
 4702      49535200 
 4703              	.LASF113:
 4704 0c55 4F535F45 		.ascii	"OS_ERR_ROUND_ROBIN_1\000"
 4704      52525F52 
 4704      4F554E44 
 4704      5F524F42 
 4704      494E5F31 
 4705              	.LASF70:
 4706 0c6a 4F535F45 		.ascii	"OS_ERR_MEM_INVALID_P_BLK\000"
 4706      52525F4D 
 4706      454D5F49 
 4706      4E56414C 
 4706      49445F50 
 4707              	.LASF67:
 4708 0c83 4F535F45 		.ascii	"OS_ERR_MEM_INVALID_P_ADDR\000"
 4708      52525F4D 
 4708      454D5F49 
 4708      4E56414C 
 4708      49445F50 
 4709              	.LASF277:
 4710 0c9d 52647954 		.ascii	"RdyTS\000"
 4710      5300
 4711              	.LASF63:
 4712 0ca3 4F535F45 		.ascii	"OS_ERR_LOCK_NESTING_OVF\000"
 4712      52525F4C 
 4712      4F434B5F 
 4712      4E455354 
 4712      494E475F 
 4713              	.LASF149:
 4714 0cbb 4F535F45 		.ascii	"OS_ERR_TASK_STK_CHK_ISR\000"
 4714      52525F54 
 4714      41534B5F 
 4714      53544B5F 
ARM GAS  C:\Users\daniel01\AppData\Local\Temp\ccg4pOSx.s 			page 110


 4714      43484B5F 
 4715              	.LASF7:
 4716 0cd3 73686F72 		.ascii	"short int\000"
 4716      7420696E 
 4716      7400
 4717              	.LASF276:
 4718 0cdd 5264794D 		.ascii	"RdyMsgSize\000"
 4718      73675369 
 4718      7A6500
 4719              	.LASF75:
 4720 0ce8 4F535F45 		.ascii	"OS_ERR_MSG_POOL_EMPTY\000"
 4720      52525F4D 
 4720      53475F50 
 4720      4F4F4C5F 
 4720      454D5054 
 4721              	.LASF120:
 4722 0cfe 4F535F45 		.ascii	"OS_ERR_SCHED_UNLOCK_ISR\000"
 4722      52525F53 
 4722      43484544 
 4722      5F554E4C 
 4722      4F434B5F 
 4723              	.LASF264:
 4724 0d16 53656D50 		.ascii	"SemPendTimeMax\000"
 4724      656E6454 
 4724      696D654D 
 4724      617800
 4725              	.LASF284:
 4726 0d25 705F6D75 		.ascii	"p_mutex\000"
 4726      74657800 
 4727              	.LASF262:
 4728 0d2d 4379636C 		.ascii	"CyclesTotalPrev\000"
 4728      6573546F 
 4728      74616C50 
 4728      72657600 
 4729              	.LASF163:
 4730 0d3d 4F535F45 		.ascii	"OS_ERR_TICK_STK_INVALID\000"
 4730      52525F54 
 4730      49434B5F 
 4730      53544B5F 
 4730      494E5641 
 4731              	.LASF76:
 4732 0d55 4F535F45 		.ascii	"OS_ERR_MSG_POOL_NULL_PTR\000"
 4732      52525F4D 
 4732      53475F50 
 4732      4F4F4C5F 
 4732      4E554C4C 
 4733              	.LASF26:
 4734 0d6e 4F535F4E 		.ascii	"OS_NESTING_CTR\000"
 4734      45535449 
 4734      4E475F43 
 4734      545200
 4735              	.LASF261:
 4736 0d7d 4379636C 		.ascii	"CyclesTotal\000"
 4736      6573546F 
 4736      74616C00 
 4737              	.LASF282:
 4738 0d89 4F535F50 		.ascii	"OS_PEND_OBJ\000"
ARM GAS  C:\Users\daniel01\AppData\Local\Temp\ccg4pOSx.s 			page 111


 4738      454E445F 
 4738      4F424A00 
 4739              	.LASF147:
 4740 0d95 4F535F45 		.ascii	"OS_ERR_TASK_RESUME_SELF\000"
 4740      52525F54 
 4740      41534B5F 
 4740      52455355 
 4740      4D455F53 
 4741              	.LASF257:
 4742 0dad 43505555 		.ascii	"CPUUsageMax\000"
 4742      73616765 
 4742      4D617800 
 4743              	.LASF215:
 4744 0db9 50656E64 		.ascii	"PendList\000"
 4744      4C697374 
 4744      00
 4745              	.LASF87:
 4746 0dc2 4F535F45 		.ascii	"OS_ERR_OBJ_TYPE\000"
 4746      52525F4F 
 4746      424A5F54 
 4746      59504500 
 4747              	.LASF235:
 4748 0dd2 50656E64 		.ascii	"PendDataTblPtr\000"
 4748      44617461 
 4748      54626C50 
 4748      747200
 4749              	.LASF242:
 4750 0de1 53656D43 		.ascii	"SemCtr\000"
 4750      747200
 4751              	.LASF292:
 4752 0de8 705F7463 		.ascii	"p_tcb_owner\000"
 4752      625F6F77 
 4752      6E657200 
 4753              	.LASF298:
 4754 0df4 4F534D75 		.ascii	"OSMutexDel\000"
 4754      74657844 
 4754      656C00
 4755              	.LASF206:
 4756 0dff 496E5074 		.ascii	"InPtr\000"
 4756      7200
 4757              	.LASF245:
 4758 0e05 5469636B 		.ascii	"TickRemain\000"
 4758      52656D61 
 4758      696E00
 4759              	.LASF280:
 4760 0e10 48656164 		.ascii	"HeadPtr\000"
 4760      50747200 
 4761              	.LASF94:
 4762 0e18 4F535F45 		.ascii	"OS_ERR_PEND_ABORT_NONE\000"
 4762      52525F50 
 4762      454E445F 
 4762      41424F52 
 4762      545F4E4F 
 4763              	.LASF9:
 4764 0e2f 756E7369 		.ascii	"unsigned int\000"
 4764      676E6564 
 4764      20696E74 
ARM GAS  C:\Users\daniel01\AppData\Local\Temp\ccg4pOSx.s 			page 112


 4764      00
 4765              	.LASF201:
 4766 0e3c 4D736753 		.ascii	"MsgSize\000"
 4766      697A6500 
 4767              	.LASF78:
 4768 0e44 4F535F45 		.ascii	"OS_ERR_MUTEX_OWNER\000"
 4768      52525F4D 
 4768      55544558 
 4768      5F4F574E 
 4768      455200
 4769              	.LASF269:
 4770 0e57 46697273 		.ascii	"FirstPtr\000"
 4770      74507472 
 4770      00
 4771              	.LASF126:
 4772 0e60 4F535F45 		.ascii	"OS_ERR_STAT_STK_SIZE_INVALID\000"
 4772      52525F53 
 4772      5441545F 
 4772      53544B5F 
 4772      53495A45 
 4773              	.LASF48:
 4774 0e7d 4F535F45 		.ascii	"OS_ERR_FLAG_NOT_RDY\000"
 4774      52525F46 
 4774      4C41475F 
 4774      4E4F545F 
 4774      52445900 
 4775              	.LASF226:
 4776 0e91 45787450 		.ascii	"ExtPtr\000"
 4776      747200
 4777              	.LASF299:
 4778 0e98 4F534D75 		.ascii	"OSMutexPendAbort\000"
 4778      74657850 
 4778      656E6441 
 4778      626F7274 
 4778      00
 4779              	.LASF93:
 4780 0ea9 4F535F45 		.ascii	"OS_ERR_PEND_ABORT_ISR\000"
 4780      52525F50 
 4780      454E445F 
 4780      41424F52 
 4780      545F4953 
 4781              	.LASF14:
 4782 0ebf 4350555F 		.ascii	"CPU_ADDR\000"
 4782      41444452 
 4782      00
 4783              	.LASF101:
 4784 0ec8 4F535F45 		.ascii	"OS_ERR_POST_ISR\000"
 4784      52525F50 
 4784      4F53545F 
 4784      49535200 
 4785              	.LASF166:
 4786 0ed8 4F535F45 		.ascii	"OS_ERR_TIME_DLY_ISR\000"
 4786      52525F54 
 4786      494D455F 
 4786      444C595F 
 4786      49535200 
 4787              	.LASF131:
ARM GAS  C:\Users\daniel01\AppData\Local\Temp\ccg4pOSx.s 			page 113


 4788 0eec 4F535F45 		.ascii	"OS_ERR_STK_LIMIT_INVALID\000"
 4788      52525F53 
 4788      544B5F4C 
 4788      494D4954 
 4788      5F494E56 
 4789              	.LASF22:
 4790 0f05 4F535F43 		.ascii	"OS_CYCLES\000"
 4790      59434C45 
 4790      5300
 4791              	.LASF223:
 4792 0f0f 4F535F54 		.ascii	"OS_TCB\000"
 4792      434200
 4793              	.LASF130:
 4794 0f16 4F535F45 		.ascii	"OS_ERR_STK_SIZE_INVALID\000"
 4794      52525F53 
 4794      544B5F53 
 4794      495A455F 
 4794      494E5641 
 4795              	.LASF189:
 4796 0f2e 4F535F45 		.ascii	"OS_ERR_TMR_STOPPED\000"
 4796      52525F54 
 4796      4D525F53 
 4796      544F5050 
 4796      454400
 4797              	.LASF314:
 4798 0f41 433A5C4D 		.ascii	"C:\\Micrium\\Software\\uCOS-III\\Source\\os_mutex.c"
 4798      69637269 
 4798      756D5C53 
 4798      6F667477 
 4798      6172655C 
 4799 0f6f 00       		.ascii	"\000"
 4800              	.LASF1:
 4801 0f70 756E7369 		.ascii	"unsigned char\000"
 4801      676E6564 
 4801      20636861 
 4801      7200
 4802              	.LASF144:
 4803 0f7e 4F535F45 		.ascii	"OS_ERR_TASK_OPT\000"
 4803      52525F54 
 4803      41534B5F 
 4803      4F505400 
 4804              	.LASF311:
 4805 0f8e 4F535363 		.ascii	"OSSchedLockNestingCtr\000"
 4805      6865644C 
 4805      6F636B4E 
 4805      65737469 
 4805      6E674374 
 4806              	.LASF176:
 4807 0fa4 4F535F45 		.ascii	"OS_ERR_TIMEOUT\000"
 4807      52525F54 
 4807      494D454F 
 4807      555400
 4808              	.LASF33:
 4809 0fb3 4F535F53 		.ascii	"OS_STATE\000"
 4809      54415445 
 4809      00
 4810              	.LASF295:
ARM GAS  C:\Users\daniel01\AppData\Local\Temp\ccg4pOSx.s 			page 114


 4811 0fbc 74696D65 		.ascii	"timeout\000"
 4811      6F757400 
 4812              	.LASF29:
 4813 0fc4 4F535F4F 		.ascii	"OS_OPT\000"
 4813      505400
 4814              	.LASF222:
 4815 0fcb 4F535F54 		.ascii	"OS_TASK_PTR\000"
 4815      41534B5F 
 4815      50545200 
 4816              	.LASF65:
 4817 0fd7 4F535F45 		.ascii	"OS_ERR_MEM_CREATE_ISR\000"
 4817      52525F4D 
 4817      454D5F43 
 4817      52454154 
 4817      455F4953 
 4818              	.LASF128:
 4819 0fed 4F535F45 		.ascii	"OS_ERR_STATUS_INVALID\000"
 4819      52525F53 
 4819      54415455 
 4819      535F494E 
 4819      56414C49 
 4820              	.LASF194:
 4821 1003 4F535F45 		.ascii	"OS_ERR_Y\000"
 4821      52525F59 
 4821      00
 4822              	.LASF97:
 4823 100c 4F535F45 		.ascii	"OS_ERR_PEND_ISR\000"
 4823      52525F50 
 4823      454E445F 
 4823      49535200 
 4824              	.LASF196:
 4825 101c 4F535F45 		.ascii	"OS_ERR_Z\000"
 4825      52525F5A 
 4825      00
 4826              	.LASF231:
 4827 1025 5469636B 		.ascii	"TickSpokePtr\000"
 4827      53706F6B 
 4827      65507472 
 4827      00
 4828              	.LASF218:
 4829 1032 4462674E 		.ascii	"DbgNamePtr\000"
 4829      616D6550 
 4829      747200
 4830              	.LASF207:
 4831 103d 4F757450 		.ascii	"OutPtr\000"
 4831      747200
 4832              	.LASF234:
 4833 1044 5461736B 		.ascii	"TaskEntryArg\000"
 4833      456E7472 
 4833      79417267 
 4833      00
 4834              	.LASF107:
 4835 1051 4F535F45 		.ascii	"OS_ERR_Q_FULL\000"
 4835      52525F51 
 4835      5F46554C 
 4835      4C00
 4836              	.LASF58:
ARM GAS  C:\Users\daniel01\AppData\Local\Temp\ccg4pOSx.s 			page 115


 4837 105f 4F535F45 		.ascii	"OS_ERR_INT_Q_STK_INVALID\000"
 4837      52525F49 
 4837      4E545F51 
 4837      5F53544B 
 4837      5F494E56 
 4838              	.LASF171:
 4839 1078 4F535F45 		.ascii	"OS_ERR_TIME_INVALID_SECONDS\000"
 4839      52525F54 
 4839      494D455F 
 4839      494E5641 
 4839      4C49445F 
 4840              	.LASF135:
 4841 1094 4F535F45 		.ascii	"OS_ERR_TASK_DEL\000"
 4841      52525F54 
 4841      41534B5F 
 4841      44454C00 
 4842              	.LASF278:
 4843 10a4 4F535F50 		.ascii	"OS_PEND_LIST\000"
 4843      454E445F 
 4843      4C495354 
 4843      00
 4844              	.LASF4:
 4845 10b1 7369676E 		.ascii	"signed char\000"
 4845      65642063 
 4845      68617200 
 4846              	.LASF202:
 4847 10bd 4D736754 		.ascii	"MsgTS\000"
 4847      5300
 4848              	.LASF46:
 4849 10c3 4F535F45 		.ascii	"OS_ERR_FATAL_RETURN\000"
 4849      52525F46 
 4849      4154414C 
 4849      5F524554 
 4849      55524E00 
 4850              	.LASF6:
 4851 10d7 73686F72 		.ascii	"short unsigned int\000"
 4851      7420756E 
 4851      7369676E 
 4851      65642069 
 4851      6E7400
 4852              	.LASF23:
 4853 10ea 4F535F46 		.ascii	"OS_FLAGS\000"
 4853      4C414753 
 4853      00
 4854              	.LASF200:
 4855 10f3 4D736750 		.ascii	"MsgPtr\000"
 4855      747200
 4856              	.LASF159:
 4857 10fa 4F535F45 		.ascii	"OS_ERR_TLS_NO_MORE_AVAIL\000"
 4857      52525F54 
 4857      4C535F4E 
 4857      4F5F4D4F 
 4857      52455F41 
 4858              	.LASF302:
 4859 1113 4F535F4D 		.ascii	"OS_MutexDbgListAdd\000"
 4859      75746578 
 4859      4462674C 
ARM GAS  C:\Users\daniel01\AppData\Local\Temp\ccg4pOSx.s 			page 116


 4859      69737441 
 4859      646400
 4860              	.LASF36:
 4861 1126 4F535F45 		.ascii	"OS_ERR_NONE\000"
 4861      52525F4E 
 4861      4F4E4500 
 4862              	.LASF271:
 4863 1132 6F735F70 		.ascii	"os_pend_data\000"
 4863      656E645F 
 4863      64617461 
 4863      00
 4864              	.LASF118:
 4865 113f 4F535F45 		.ascii	"OS_ERR_SCHED_LOCKED\000"
 4865      52525F53 
 4865      43484544 
 4865      5F4C4F43 
 4865      4B454400 
 4866              	.LASF50:
 4867 1153 4F535F45 		.ascii	"OS_ERR_FLUSH_ISR\000"
 4867      52525F46 
 4867      4C555348 
 4867      5F495352 
 4867      00
 4868              	.LASF239:
 4869 1164 5072696F 		.ascii	"Prio\000"
 4869      00
 4870              	.LASF13:
 4871 1169 646F7562 		.ascii	"double\000"
 4871      6C6500
 4872              	.LASF92:
 4873 1170 4F535F45 		.ascii	"OS_ERR_PEND_ABORT\000"
 4873      52525F50 
 4873      454E445F 
 4873      41424F52 
 4873      5400
 4874              	.LASF304:
 4875 1182 705F6D75 		.ascii	"p_mutex_next\000"
 4875      7465785F 
 4875      6E657874 
 4875      00
 4876              	.LASF256:
 4877 118f 43505555 		.ascii	"CPUUsage\000"
 4877      73616765 
 4877      00
 4878              	.LASF119:
 4879 1198 4F535F45 		.ascii	"OS_ERR_SCHED_NOT_LOCKED\000"
 4879      52525F53 
 4879      43484544 
 4879      5F4E4F54 
 4879      5F4C4F43 
 4880              	.LASF103:
 4881 11b0 4F535F45 		.ascii	"OS_ERR_PRIO\000"
 4881      52525F50 
 4881      52494F00 
 4882              	.LASF96:
 4883 11bc 4F535F45 		.ascii	"OS_ERR_PEND_DEL\000"
 4883      52525F50 
ARM GAS  C:\Users\daniel01\AppData\Local\Temp\ccg4pOSx.s 			page 117


 4883      454E445F 
 4883      44454C00 
 4884              	.LASF273:
 4885 11cc 50656E64 		.ascii	"PendObjPtr\000"
 4885      4F626A50 
 4885      747200
 4886              	.LASF315:
 4887 11d7 433A5C55 		.ascii	"C:\\Users\\daniel01\\Desktop\\CY8CKIT-050_uCOS-III\\"
 4887      73657273 
 4887      5C64616E 
 4887      69656C30 
 4887      315C4465 
 4888 1206 43593843 		.ascii	"CY8CKIT-050_uCOS-III\\Micrium\\Software\\EvalBoards"
 4888      4B49542D 
 4888      3035305F 
 4888      75434F53 
 4888      2D494949 
 4889 1236 5C437970 		.ascii	"\\Cypress\\CY8CKIT-050\\PSoC\\uCOS-III-Probe\\uCOS-"
 4889      72657373 
 4889      5C435938 
 4889      434B4954 
 4889      2D303530 
 4890 1264 4949492D 		.ascii	"III-Probe.cydsn\000"
 4890      50726F62 
 4890      652E6379 
 4890      64736E00 
 4891              	.LASF210:
 4892 1274 4E627245 		.ascii	"NbrEntriesMax\000"
 4892      6E747269 
 4892      65734D61 
 4892      7800
 4893              	.LASF279:
 4894 1282 6F735F70 		.ascii	"os_pend_list\000"
 4894      656E645F 
 4894      6C697374 
 4894      00
 4895              	.LASF73:
 4896 128f 4F535F45 		.ascii	"OS_ERR_MEM_INVALID_SIZE\000"
 4896      52525F4D 
 4896      454D5F49 
 4896      4E56414C 
 4896      49445F53 
 4897              	.LASF150:
 4898 12a7 4F535F45 		.ascii	"OS_ERR_TASK_SUSPENDED\000"
 4898      52525F54 
 4898      41534B5F 
 4898      53555350 
 4898      454E4445 
 4899              	.LASF122:
 4900 12bd 4F535F45 		.ascii	"OS_ERR_SET_ISR\000"
 4900      52525F53 
 4900      45545F49 
 4900      535200
 4901              	.LASF251:
 4902 12cc 52656754 		.ascii	"RegTbl\000"
 4902      626C00
 4903              	.LASF121:
ARM GAS  C:\Users\daniel01\AppData\Local\Temp\ccg4pOSx.s 			page 118


 4904 12d3 4F535F45 		.ascii	"OS_ERR_SEM_OVF\000"
 4904      52525F53 
 4904      454D5F4F 
 4904      564600
 4905              	.LASF136:
 4906 12e2 4F535F45 		.ascii	"OS_ERR_TASK_DEL_IDLE\000"
 4906      52525F54 
 4906      41534B5F 
 4906      44454C5F 
 4906      49444C45 
 4907              	.LASF168:
 4908 12f7 4F535F45 		.ascii	"OS_ERR_TIME_GET_ISR\000"
 4908      52525F54 
 4908      494D455F 
 4908      4745545F 
 4908      49535200 
 4909              	.LASF246:
 4910 130b 54696D65 		.ascii	"TimeQuanta\000"
 4910      5175616E 
 4910      746100
 4911              	.LASF167:
 4912 1316 4F535F45 		.ascii	"OS_ERR_TIME_DLY_RESUME_ISR\000"
 4912      52525F54 
 4912      494D455F 
 4912      444C595F 
 4912      52455355 
 4913              	.LASF162:
 4914 1331 4F535F45 		.ascii	"OS_ERR_TICK_PRIO_INVALID\000"
 4914      52525F54 
 4914      49434B5F 
 4914      5052494F 
 4914      5F494E56 
 4915              	.LASF102:
 4916 134a 4F535F45 		.ascii	"OS_ERR_PRIO_EXIST\000"
 4916      52525F50 
 4916      52494F5F 
 4916      45584953 
 4916      5400
 4917              	.LASF205:
 4918 135c 6F735F6D 		.ascii	"os_msg_q\000"
 4918      73675F71 
 4918      00
 4919              	.LASF74:
 4920 1365 4F535F45 		.ascii	"OS_ERR_MEM_NO_FREE_BLKS\000"
 4920      52525F4D 
 4920      454D5F4E 
 4920      4F5F4652 
 4920      45455F42 
 4921              	.LASF15:
 4922 137d 4350555F 		.ascii	"CPU_STK\000"
 4922      53544B00 
 4923              	.LASF294:
 4924 1385 4F534D75 		.ascii	"OSMutexPend\000"
 4924      74657850 
 4924      656E6400 
 4925              		.ident	"GCC: (Sourcery G++ Lite 2010q1-188) 4.4.1"
