ARM GAS  C:\Users\daniel01\AppData\Local\Temp\ccsgsVjV.s 			page 1


   1              		.syntax unified
   2              		.cpu cortex-m3
   3              		.fpu softvfp
   4              		.eabi_attribute 20, 1
   5              		.eabi_attribute 21, 1
   6              		.eabi_attribute 23, 3
   7              		.eabi_attribute 24, 1
   8              		.eabi_attribute 25, 1
   9              		.eabi_attribute 26, 1
  10              		.eabi_attribute 30, 6
  11              		.eabi_attribute 18, 4
  12              		.thumb
  13              		.file	"os_prio.c"
  20 0000 07010000 		.text
  20      0200A700 
  20      00000201 
  20      FB0E0D00 
  20      01010101 
  21              	.Ltext0:
  22              		.cfi_sections	.debug_frame
  23              		.comm	OSPrioTbl,4,4
  24              		.section	.text.OS_PrioInit,"ax",%progbits
  25              		.align	2
  26              		.global	OS_PrioInit
  27              		.thumb
  28              		.thumb_func
  29              		.type	OS_PrioInit, %function
  30              	OS_PrioInit:
  31              	.LFB0:
  32              		.file 1 "C:\\Micrium\\Software\\uCOS-III\\Source\\os_prio.c"
   1:C:\Micrium\Software\uCOS-III\Source\os_prio.c **** /*
   2:C:\Micrium\Software\uCOS-III\Source\os_prio.c **** ***************************************************************************************************
   3:C:\Micrium\Software\uCOS-III\Source\os_prio.c **** *                                                      uC/OS-III
   4:C:\Micrium\Software\uCOS-III\Source\os_prio.c **** *                                                 The Real-Time Kernel
   5:C:\Micrium\Software\uCOS-III\Source\os_prio.c **** *
   6:C:\Micrium\Software\uCOS-III\Source\os_prio.c **** *                                  (c) Copyright 2009-2012; Micrium, Inc.; Weston, FL
   7:C:\Micrium\Software\uCOS-III\Source\os_prio.c **** *                           All rights reserved.  Protected by international copyright laws.
   8:C:\Micrium\Software\uCOS-III\Source\os_prio.c **** *
   9:C:\Micrium\Software\uCOS-III\Source\os_prio.c **** *                                                 PRIORITY MANAGEMENT
  10:C:\Micrium\Software\uCOS-III\Source\os_prio.c **** *
  11:C:\Micrium\Software\uCOS-III\Source\os_prio.c **** * File    : OS_PRIO.C
  12:C:\Micrium\Software\uCOS-III\Source\os_prio.c **** * By      : JJL
  13:C:\Micrium\Software\uCOS-III\Source\os_prio.c **** * Version : V3.03.01
  14:C:\Micrium\Software\uCOS-III\Source\os_prio.c **** *
  15:C:\Micrium\Software\uCOS-III\Source\os_prio.c **** * LICENSING TERMS:
  16:C:\Micrium\Software\uCOS-III\Source\os_prio.c **** * ---------------
  17:C:\Micrium\Software\uCOS-III\Source\os_prio.c **** *           uC/OS-III is provided in source form for FREE short-term evaluation, for educational us
  18:C:\Micrium\Software\uCOS-III\Source\os_prio.c **** *           for peaceful research.  If you plan or intend to use uC/OS-III in a commercial applicat
  19:C:\Micrium\Software\uCOS-III\Source\os_prio.c **** *           product then, you need to contact Micrium to properly license uC/OS-III for its use in 
  20:C:\Micrium\Software\uCOS-III\Source\os_prio.c **** *           application/product.   We provide ALL the source code for your convenience and to help 
  21:C:\Micrium\Software\uCOS-III\Source\os_prio.c **** *           experience uC/OS-III.  The fact that the source is provided does NOT mean that you can 
ARM GAS  C:\Users\daniel01\AppData\Local\Temp\ccsgsVjV.s 			page 2


  22:C:\Micrium\Software\uCOS-III\Source\os_prio.c **** *           it commercially without paying a licensing fee.
  23:C:\Micrium\Software\uCOS-III\Source\os_prio.c **** *
  24:C:\Micrium\Software\uCOS-III\Source\os_prio.c **** *           Knowledge of the source code may NOT be used to develop a similar product.
  25:C:\Micrium\Software\uCOS-III\Source\os_prio.c **** *
  26:C:\Micrium\Software\uCOS-III\Source\os_prio.c **** *           Please help us continue to provide the embedded community with the finest software avai
  27:C:\Micrium\Software\uCOS-III\Source\os_prio.c **** *           Your honesty is greatly appreciated.
  28:C:\Micrium\Software\uCOS-III\Source\os_prio.c **** *
  29:C:\Micrium\Software\uCOS-III\Source\os_prio.c **** *           You can contact us at www.micrium.com, or by phone at +1 (954) 217-2036.
  30:C:\Micrium\Software\uCOS-III\Source\os_prio.c **** ***************************************************************************************************
  31:C:\Micrium\Software\uCOS-III\Source\os_prio.c **** */
  32:C:\Micrium\Software\uCOS-III\Source\os_prio.c **** 
  33:C:\Micrium\Software\uCOS-III\Source\os_prio.c **** #define  MICRIUM_SOURCE
  34:C:\Micrium\Software\uCOS-III\Source\os_prio.c **** #include <os.h>
  35:C:\Micrium\Software\uCOS-III\Source\os_prio.c **** 
  36:C:\Micrium\Software\uCOS-III\Source\os_prio.c **** #ifdef VSC_INCLUDE_SOURCE_FILE_NAMES
  37:C:\Micrium\Software\uCOS-III\Source\os_prio.c **** const  CPU_CHAR  *os_prio__c = "$Id: $";
  38:C:\Micrium\Software\uCOS-III\Source\os_prio.c **** #endif
  39:C:\Micrium\Software\uCOS-III\Source\os_prio.c **** 
  40:C:\Micrium\Software\uCOS-III\Source\os_prio.c **** 
  41:C:\Micrium\Software\uCOS-III\Source\os_prio.c **** CPU_DATA   OSPrioTbl[OS_PRIO_TBL_SIZE];                     /* Declare the array local to this file
  42:C:\Micrium\Software\uCOS-III\Source\os_prio.c ****                                                             /* ... optimization.  In other words, t
  43:C:\Micrium\Software\uCOS-III\Source\os_prio.c ****                                                             /* ... table to be located in fast memo
  44:C:\Micrium\Software\uCOS-III\Source\os_prio.c **** 
  45:C:\Micrium\Software\uCOS-III\Source\os_prio.c **** /*
  46:C:\Micrium\Software\uCOS-III\Source\os_prio.c **** ***************************************************************************************************
  47:C:\Micrium\Software\uCOS-III\Source\os_prio.c **** *                                               INITIALIZE THE PRIORITY LIST
  48:C:\Micrium\Software\uCOS-III\Source\os_prio.c **** *
  49:C:\Micrium\Software\uCOS-III\Source\os_prio.c **** * Description: This function is called by uC/OS-III to initialize the list of ready priorities.
  50:C:\Micrium\Software\uCOS-III\Source\os_prio.c **** *
  51:C:\Micrium\Software\uCOS-III\Source\os_prio.c **** * Arguments  : none
  52:C:\Micrium\Software\uCOS-III\Source\os_prio.c **** *
  53:C:\Micrium\Software\uCOS-III\Source\os_prio.c **** * Returns    : none
  54:C:\Micrium\Software\uCOS-III\Source\os_prio.c **** *
  55:C:\Micrium\Software\uCOS-III\Source\os_prio.c **** * Note       : This function is INTERNAL to uC/OS-III and your application should not call it.
  56:C:\Micrium\Software\uCOS-III\Source\os_prio.c **** ***************************************************************************************************
  57:C:\Micrium\Software\uCOS-III\Source\os_prio.c **** */
  58:C:\Micrium\Software\uCOS-III\Source\os_prio.c **** 
  59:C:\Micrium\Software\uCOS-III\Source\os_prio.c **** void  OS_PrioInit (void)
  60:C:\Micrium\Software\uCOS-III\Source\os_prio.c **** {
  33              		.loc 1 60 0
  34              		.cfi_startproc
  35              		@ args = 0, pretend = 0, frame = 8
  36              		@ frame_needed = 1, uses_anonymous_args = 0
  37              		@ link register save eliminated.
  38 0000 80B4     		push	{r7}
  39              	.LCFI0:
  40              		.cfi_def_cfa_offset 4
  41 0002 83B0     		sub	sp, sp, #12
  42              	.LCFI1:
  43              		.cfi_def_cfa_offset 16
  44 0004 00AF     		add	r7, sp, #0
  45              		.cfi_offset 7, -4
  46              	.LCFI2:
  47              		.cfi_def_cfa_register 7
  61:C:\Micrium\Software\uCOS-III\Source\os_prio.c ****     CPU_DATA  i;
  62:C:\Micrium\Software\uCOS-III\Source\os_prio.c **** 
  63:C:\Micrium\Software\uCOS-III\Source\os_prio.c **** 
ARM GAS  C:\Users\daniel01\AppData\Local\Temp\ccsgsVjV.s 			page 3


  64:C:\Micrium\Software\uCOS-III\Source\os_prio.c ****                                                             /* Clear the bitmap table ... no task i
  65:C:\Micrium\Software\uCOS-III\Source\os_prio.c ****     for (i = 0u; i < OS_PRIO_TBL_SIZE; i++) {
  48              		.loc 1 65 0
  49 0006 4FF00003 		mov	r3, #0
  50 000a 7B60     		str	r3, [r7, #4]
  51 000c 0CE0     		b	.L2
  52              	.L3:
  66:C:\Micrium\Software\uCOS-III\Source\os_prio.c ****          OSPrioTbl[i] = (CPU_DATA)0;
  53              		.loc 1 66 0
  54 000e 7A68     		ldr	r2, [r7, #4]
  55 0010 40F20003 		movw	r3, #:lower16:OSPrioTbl
  56 0014 C0F20003 		movt	r3, #:upper16:OSPrioTbl
  57 0018 4FF00001 		mov	r1, #0
  58 001c 43F82210 		str	r1, [r3, r2, lsl #2]
  59              		.loc 1 65 0
  60 0020 7B68     		ldr	r3, [r7, #4]
  61 0022 03F10103 		add	r3, r3, #1
  62 0026 7B60     		str	r3, [r7, #4]
  63              	.L2:
  64 0028 7B68     		ldr	r3, [r7, #4]
  65 002a 002B     		cmp	r3, #0
  66 002c EFD0     		beq	.L3
  67:C:\Micrium\Software\uCOS-III\Source\os_prio.c ****     }
  68:C:\Micrium\Software\uCOS-III\Source\os_prio.c **** }
  67              		.loc 1 68 0
  68 002e 07F10C07 		add	r7, r7, #12
  69 0032 BD46     		mov	sp, r7
  70 0034 80BC     		pop	{r7}
  71 0036 7047     		bx	lr
  72              		.cfi_endproc
  73              	.LFE0:
  74              		.size	OS_PrioInit, .-OS_PrioInit
  75              		.section	.text.OS_PrioGetHighest,"ax",%progbits
  76              		.align	2
  77              		.global	OS_PrioGetHighest
  78              		.thumb
  79              		.thumb_func
  80              		.type	OS_PrioGetHighest, %function
  81              	OS_PrioGetHighest:
  82              	.LFB1:
  69:C:\Micrium\Software\uCOS-III\Source\os_prio.c **** 
  70:C:\Micrium\Software\uCOS-III\Source\os_prio.c **** /*
  71:C:\Micrium\Software\uCOS-III\Source\os_prio.c **** ***************************************************************************************************
  72:C:\Micrium\Software\uCOS-III\Source\os_prio.c **** *                                           GET HIGHEST PRIORITY TASK WAITING
  73:C:\Micrium\Software\uCOS-III\Source\os_prio.c **** *
  74:C:\Micrium\Software\uCOS-III\Source\os_prio.c **** * Description: This function is called by other uC/OS-III services to determine the highest priorit
  75:C:\Micrium\Software\uCOS-III\Source\os_prio.c **** *              waiting on the event.
  76:C:\Micrium\Software\uCOS-III\Source\os_prio.c **** *
  77:C:\Micrium\Software\uCOS-III\Source\os_prio.c **** * Arguments  : none
  78:C:\Micrium\Software\uCOS-III\Source\os_prio.c **** *
  79:C:\Micrium\Software\uCOS-III\Source\os_prio.c **** * Returns    : The priority of the Highest Priority Task (HPT) waiting for the event
  80:C:\Micrium\Software\uCOS-III\Source\os_prio.c **** *
  81:C:\Micrium\Software\uCOS-III\Source\os_prio.c **** * Note(s)    : 1) This function is INTERNAL to uC/OS-III and your application MUST NOT call it.
  82:C:\Micrium\Software\uCOS-III\Source\os_prio.c **** ***************************************************************************************************
  83:C:\Micrium\Software\uCOS-III\Source\os_prio.c **** */
  84:C:\Micrium\Software\uCOS-III\Source\os_prio.c **** 
  85:C:\Micrium\Software\uCOS-III\Source\os_prio.c **** OS_PRIO  OS_PrioGetHighest (void)
ARM GAS  C:\Users\daniel01\AppData\Local\Temp\ccsgsVjV.s 			page 4


  86:C:\Micrium\Software\uCOS-III\Source\os_prio.c **** {
  83              		.loc 1 86 0
  84              		.cfi_startproc
  85              		@ args = 0, pretend = 0, frame = 8
  86              		@ frame_needed = 1, uses_anonymous_args = 0
  87 0000 80B5     		push	{r7, lr}
  88              	.LCFI3:
  89              		.cfi_def_cfa_offset 8
  90 0002 82B0     		sub	sp, sp, #8
  91              	.LCFI4:
  92              		.cfi_def_cfa_offset 16
  93 0004 00AF     		add	r7, sp, #0
  94              		.cfi_offset 14, -4
  95              		.cfi_offset 7, -8
  96              	.LCFI5:
  97              		.cfi_def_cfa_register 7
  87:C:\Micrium\Software\uCOS-III\Source\os_prio.c ****     CPU_DATA  *p_tbl;
  88:C:\Micrium\Software\uCOS-III\Source\os_prio.c ****     OS_PRIO    prio;
  89:C:\Micrium\Software\uCOS-III\Source\os_prio.c **** 
  90:C:\Micrium\Software\uCOS-III\Source\os_prio.c **** 
  91:C:\Micrium\Software\uCOS-III\Source\os_prio.c ****     prio  = (OS_PRIO)0;
  98              		.loc 1 91 0
  99 0006 4FF00003 		mov	r3, #0
 100 000a FB71     		strb	r3, [r7, #7]
  92:C:\Micrium\Software\uCOS-III\Source\os_prio.c ****     p_tbl = &OSPrioTbl[0];
 101              		.loc 1 92 0
 102 000c 40F20003 		movw	r3, #:lower16:OSPrioTbl
 103 0010 C0F20003 		movt	r3, #:upper16:OSPrioTbl
 104 0014 3B60     		str	r3, [r7, #0]
  93:C:\Micrium\Software\uCOS-III\Source\os_prio.c ****     while (*p_tbl == (CPU_DATA)0) {                         /* Search the bitmap table for the high
 105              		.loc 1 93 0
 106 0016 07E0     		b	.L6
 107              	.L7:
  94:C:\Micrium\Software\uCOS-III\Source\os_prio.c ****         prio += DEF_INT_CPU_NBR_BITS;                       /* Compute the step of each CPU_DATA en
 108              		.loc 1 94 0
 109 0018 FB79     		ldrb	r3, [r7, #7]
 110 001a 03F12003 		add	r3, r3, #32
 111 001e FB71     		strb	r3, [r7, #7]
  95:C:\Micrium\Software\uCOS-III\Source\os_prio.c ****         p_tbl++;
 112              		.loc 1 95 0
 113 0020 3B68     		ldr	r3, [r7, #0]
 114 0022 03F10403 		add	r3, r3, #4
 115 0026 3B60     		str	r3, [r7, #0]
 116              	.L6:
 117              		.loc 1 93 0
 118 0028 3B68     		ldr	r3, [r7, #0]
 119 002a 1B68     		ldr	r3, [r3, #0]
 120 002c 002B     		cmp	r3, #0
 121 002e F3D0     		beq	.L7
  96:C:\Micrium\Software\uCOS-III\Source\os_prio.c ****     }
  97:C:\Micrium\Software\uCOS-III\Source\os_prio.c ****     prio += (OS_PRIO)CPU_CntLeadZeros(*p_tbl);              /* Find the position of the first bit s
 122              		.loc 1 97 0
 123 0030 3B68     		ldr	r3, [r7, #0]
 124 0032 1B68     		ldr	r3, [r3, #0]
 125 0034 1846     		mov	r0, r3
 126 0036 FFF7FEFF 		bl	CPU_CntLeadZeros
 127 003a 0346     		mov	r3, r0
ARM GAS  C:\Users\daniel01\AppData\Local\Temp\ccsgsVjV.s 			page 5


 128 003c DAB2     		uxtb	r2, r3
 129 003e FB79     		ldrb	r3, [r7, #7]
 130 0040 1344     		add	r3, r2, r3
 131 0042 FB71     		strb	r3, [r7, #7]
  98:C:\Micrium\Software\uCOS-III\Source\os_prio.c ****     return (prio);
 132              		.loc 1 98 0
 133 0044 FB79     		ldrb	r3, [r7, #7]	@ zero_extendqisi2
  99:C:\Micrium\Software\uCOS-III\Source\os_prio.c **** }
 134              		.loc 1 99 0
 135 0046 1846     		mov	r0, r3
 136 0048 07F10807 		add	r7, r7, #8
 137 004c BD46     		mov	sp, r7
 138 004e 80BD     		pop	{r7, pc}
 139              		.cfi_endproc
 140              	.LFE1:
 141              		.size	OS_PrioGetHighest, .-OS_PrioGetHighest
 142              		.section	.text.OS_PrioInsert,"ax",%progbits
 143              		.align	2
 144              		.global	OS_PrioInsert
 145              		.thumb
 146              		.thumb_func
 147              		.type	OS_PrioInsert, %function
 148              	OS_PrioInsert:
 149              	.LFB2:
 100:C:\Micrium\Software\uCOS-III\Source\os_prio.c **** 
 101:C:\Micrium\Software\uCOS-III\Source\os_prio.c **** /*
 102:C:\Micrium\Software\uCOS-III\Source\os_prio.c **** ***************************************************************************************************
 103:C:\Micrium\Software\uCOS-III\Source\os_prio.c **** *                                                  INSERT PRIORITY
 104:C:\Micrium\Software\uCOS-III\Source\os_prio.c **** *
 105:C:\Micrium\Software\uCOS-III\Source\os_prio.c **** * Description: This function is called to insert a priority in the priority table.
 106:C:\Micrium\Software\uCOS-III\Source\os_prio.c **** *
 107:C:\Micrium\Software\uCOS-III\Source\os_prio.c **** * Arguments  : prio     is the priority to insert
 108:C:\Micrium\Software\uCOS-III\Source\os_prio.c **** *
 109:C:\Micrium\Software\uCOS-III\Source\os_prio.c **** * Returns    : none
 110:C:\Micrium\Software\uCOS-III\Source\os_prio.c **** *
 111:C:\Micrium\Software\uCOS-III\Source\os_prio.c **** * Note(s)    : 1) This function is INTERNAL to uC/OS-III and your application MUST NOT call it.
 112:C:\Micrium\Software\uCOS-III\Source\os_prio.c **** ***************************************************************************************************
 113:C:\Micrium\Software\uCOS-III\Source\os_prio.c **** */
 114:C:\Micrium\Software\uCOS-III\Source\os_prio.c **** 
 115:C:\Micrium\Software\uCOS-III\Source\os_prio.c **** void  OS_PrioInsert (OS_PRIO  prio)
 116:C:\Micrium\Software\uCOS-III\Source\os_prio.c **** {
 150              		.loc 1 116 0
 151              		.cfi_startproc
 152              		@ args = 0, pretend = 0, frame = 24
 153              		@ frame_needed = 1, uses_anonymous_args = 0
 154              		@ link register save eliminated.
 155 0000 80B4     		push	{r7}
 156              	.LCFI6:
 157              		.cfi_def_cfa_offset 4
 158 0002 87B0     		sub	sp, sp, #28
 159              	.LCFI7:
 160              		.cfi_def_cfa_offset 32
 161 0004 00AF     		add	r7, sp, #0
 162              		.cfi_offset 7, -4
 163              	.LCFI8:
 164              		.cfi_def_cfa_register 7
 165 0006 0346     		mov	r3, r0
ARM GAS  C:\Users\daniel01\AppData\Local\Temp\ccsgsVjV.s 			page 6


 166 0008 FB71     		strb	r3, [r7, #7]
 117:C:\Micrium\Software\uCOS-III\Source\os_prio.c ****     CPU_DATA  bit;
 118:C:\Micrium\Software\uCOS-III\Source\os_prio.c ****     CPU_DATA  bit_nbr;
 119:C:\Micrium\Software\uCOS-III\Source\os_prio.c ****     OS_PRIO   ix;
 120:C:\Micrium\Software\uCOS-III\Source\os_prio.c **** 
 121:C:\Micrium\Software\uCOS-III\Source\os_prio.c **** 
 122:C:\Micrium\Software\uCOS-III\Source\os_prio.c ****     ix             = prio / DEF_INT_CPU_NBR_BITS;
 167              		.loc 1 122 0
 168 000a FB79     		ldrb	r3, [r7, #7]	@ zero_extendqisi2
 169 000c 4FEA5313 		lsr	r3, r3, #5
 170 0010 FB75     		strb	r3, [r7, #23]
 123:C:\Micrium\Software\uCOS-III\Source\os_prio.c ****     bit_nbr        = (CPU_DATA)prio & (DEF_INT_CPU_NBR_BITS - 1u);
 171              		.loc 1 123 0
 172 0012 FB79     		ldrb	r3, [r7, #7]	@ zero_extendqisi2
 173 0014 03F01F03 		and	r3, r3, #31
 174 0018 3B61     		str	r3, [r7, #16]
 124:C:\Micrium\Software\uCOS-III\Source\os_prio.c ****     bit            = 1u;
 175              		.loc 1 124 0
 176 001a 4FF00103 		mov	r3, #1
 177 001e FB60     		str	r3, [r7, #12]
 125:C:\Micrium\Software\uCOS-III\Source\os_prio.c ****     bit          <<= (DEF_INT_CPU_NBR_BITS - 1u) - bit_nbr;
 178              		.loc 1 125 0
 179 0020 3B69     		ldr	r3, [r7, #16]
 180 0022 C3F11F03 		rsb	r3, r3, #31
 181 0026 FA68     		ldr	r2, [r7, #12]
 182 0028 02FA03F3 		lsl	r3, r2, r3
 183 002c FB60     		str	r3, [r7, #12]
 126:C:\Micrium\Software\uCOS-III\Source\os_prio.c ****     OSPrioTbl[ix] |= bit;
 184              		.loc 1 126 0
 185 002e FA7D     		ldrb	r2, [r7, #23]	@ zero_extendqisi2
 186 0030 F97D     		ldrb	r1, [r7, #23]	@ zero_extendqisi2
 187 0032 40F20003 		movw	r3, #:lower16:OSPrioTbl
 188 0036 C0F20003 		movt	r3, #:upper16:OSPrioTbl
 189 003a 53F82110 		ldr	r1, [r3, r1, lsl #2]
 190 003e FB68     		ldr	r3, [r7, #12]
 191 0040 41EA0301 		orr	r1, r1, r3
 192 0044 40F20003 		movw	r3, #:lower16:OSPrioTbl
 193 0048 C0F20003 		movt	r3, #:upper16:OSPrioTbl
 194 004c 43F82210 		str	r1, [r3, r2, lsl #2]
 127:C:\Micrium\Software\uCOS-III\Source\os_prio.c **** }
 195              		.loc 1 127 0
 196 0050 07F11C07 		add	r7, r7, #28
 197 0054 BD46     		mov	sp, r7
 198 0056 80BC     		pop	{r7}
 199 0058 7047     		bx	lr
 200              		.cfi_endproc
 201              	.LFE2:
 202              		.size	OS_PrioInsert, .-OS_PrioInsert
 203 005a 00BF     		.section	.text.OS_PrioRemove,"ax",%progbits
 204              		.align	2
 205              		.global	OS_PrioRemove
 206              		.thumb
 207              		.thumb_func
 208              		.type	OS_PrioRemove, %function
 209              	OS_PrioRemove:
 210              	.LFB3:
 128:C:\Micrium\Software\uCOS-III\Source\os_prio.c **** 
ARM GAS  C:\Users\daniel01\AppData\Local\Temp\ccsgsVjV.s 			page 7


 129:C:\Micrium\Software\uCOS-III\Source\os_prio.c **** /*
 130:C:\Micrium\Software\uCOS-III\Source\os_prio.c **** ***************************************************************************************************
 131:C:\Micrium\Software\uCOS-III\Source\os_prio.c **** *                                                   REMOVE PRIORITY
 132:C:\Micrium\Software\uCOS-III\Source\os_prio.c **** *
 133:C:\Micrium\Software\uCOS-III\Source\os_prio.c **** * Description: This function is called to remove a priority in the priority table.
 134:C:\Micrium\Software\uCOS-III\Source\os_prio.c **** *
 135:C:\Micrium\Software\uCOS-III\Source\os_prio.c **** * Arguments  : prio     is the priority to remove
 136:C:\Micrium\Software\uCOS-III\Source\os_prio.c **** *
 137:C:\Micrium\Software\uCOS-III\Source\os_prio.c **** * Returns    : none
 138:C:\Micrium\Software\uCOS-III\Source\os_prio.c **** *
 139:C:\Micrium\Software\uCOS-III\Source\os_prio.c **** * Note(s)    : 1) This function is INTERNAL to uC/OS-III and your application MUST NOT call it.
 140:C:\Micrium\Software\uCOS-III\Source\os_prio.c **** ***************************************************************************************************
 141:C:\Micrium\Software\uCOS-III\Source\os_prio.c **** */
 142:C:\Micrium\Software\uCOS-III\Source\os_prio.c **** 
 143:C:\Micrium\Software\uCOS-III\Source\os_prio.c **** void  OS_PrioRemove (OS_PRIO  prio)
 144:C:\Micrium\Software\uCOS-III\Source\os_prio.c **** {
 211              		.loc 1 144 0
 212              		.cfi_startproc
 213              		@ args = 0, pretend = 0, frame = 24
 214              		@ frame_needed = 1, uses_anonymous_args = 0
 215              		@ link register save eliminated.
 216 0000 80B4     		push	{r7}
 217              	.LCFI9:
 218              		.cfi_def_cfa_offset 4
 219 0002 87B0     		sub	sp, sp, #28
 220              	.LCFI10:
 221              		.cfi_def_cfa_offset 32
 222 0004 00AF     		add	r7, sp, #0
 223              		.cfi_offset 7, -4
 224              	.LCFI11:
 225              		.cfi_def_cfa_register 7
 226 0006 0346     		mov	r3, r0
 227 0008 FB71     		strb	r3, [r7, #7]
 145:C:\Micrium\Software\uCOS-III\Source\os_prio.c ****     CPU_DATA  bit;
 146:C:\Micrium\Software\uCOS-III\Source\os_prio.c ****     CPU_DATA  bit_nbr;
 147:C:\Micrium\Software\uCOS-III\Source\os_prio.c ****     OS_PRIO   ix;
 148:C:\Micrium\Software\uCOS-III\Source\os_prio.c **** 
 149:C:\Micrium\Software\uCOS-III\Source\os_prio.c **** 
 150:C:\Micrium\Software\uCOS-III\Source\os_prio.c ****     ix             = prio / DEF_INT_CPU_NBR_BITS;
 228              		.loc 1 150 0
 229 000a FB79     		ldrb	r3, [r7, #7]	@ zero_extendqisi2
 230 000c 4FEA5313 		lsr	r3, r3, #5
 231 0010 FB75     		strb	r3, [r7, #23]
 151:C:\Micrium\Software\uCOS-III\Source\os_prio.c ****     bit_nbr        = (CPU_DATA)prio & (DEF_INT_CPU_NBR_BITS - 1u);
 232              		.loc 1 151 0
 233 0012 FB79     		ldrb	r3, [r7, #7]	@ zero_extendqisi2
 234 0014 03F01F03 		and	r3, r3, #31
 235 0018 3B61     		str	r3, [r7, #16]
 152:C:\Micrium\Software\uCOS-III\Source\os_prio.c ****     bit            = 1u;
 236              		.loc 1 152 0
 237 001a 4FF00103 		mov	r3, #1
 238 001e FB60     		str	r3, [r7, #12]
 153:C:\Micrium\Software\uCOS-III\Source\os_prio.c ****     bit          <<= (DEF_INT_CPU_NBR_BITS - 1u) - bit_nbr;
 239              		.loc 1 153 0
 240 0020 3B69     		ldr	r3, [r7, #16]
 241 0022 C3F11F03 		rsb	r3, r3, #31
 242 0026 FA68     		ldr	r2, [r7, #12]
ARM GAS  C:\Users\daniel01\AppData\Local\Temp\ccsgsVjV.s 			page 8


 243 0028 02FA03F3 		lsl	r3, r2, r3
 244 002c FB60     		str	r3, [r7, #12]
 154:C:\Micrium\Software\uCOS-III\Source\os_prio.c ****     OSPrioTbl[ix] &= ~bit;
 245              		.loc 1 154 0
 246 002e FA7D     		ldrb	r2, [r7, #23]	@ zero_extendqisi2
 247 0030 F97D     		ldrb	r1, [r7, #23]	@ zero_extendqisi2
 248 0032 40F20003 		movw	r3, #:lower16:OSPrioTbl
 249 0036 C0F20003 		movt	r3, #:upper16:OSPrioTbl
 250 003a 53F82110 		ldr	r1, [r3, r1, lsl #2]
 251 003e FB68     		ldr	r3, [r7, #12]
 252 0040 6FEA0303 		mvn	r3, r3
 253 0044 01EA0301 		and	r1, r1, r3
 254 0048 40F20003 		movw	r3, #:lower16:OSPrioTbl
 255 004c C0F20003 		movt	r3, #:upper16:OSPrioTbl
 256 0050 43F82210 		str	r1, [r3, r2, lsl #2]
 155:C:\Micrium\Software\uCOS-III\Source\os_prio.c **** }
 257              		.loc 1 155 0
 258 0054 07F11C07 		add	r7, r7, #28
 259 0058 BD46     		mov	sp, r7
 260 005a 80BC     		pop	{r7}
 261 005c 7047     		bx	lr
 262              		.cfi_endproc
 263              	.LFE3:
 264              		.size	OS_PrioRemove, .-OS_PrioRemove
 265 005e 00BF     		.text
 266              	.Letext0: