ARM GAS  C:\Users\daniel01\AppData\Local\Temp\cccGTwC2.s 			page 1


   1              		.syntax unified
   2              		.cpu cortex-m3
   3              		.fpu softvfp
   4              		.eabi_attribute 20, 1
   5              		.eabi_attribute 21, 1
   6              		.eabi_attribute 23, 3
   7              		.eabi_attribute 24, 1
   8              		.eabi_attribute 25, 1
   9              		.eabi_attribute 26, 1
  10              		.eabi_attribute 30, 6
  11              		.eabi_attribute 18, 4
  12              		.thumb
  13              		.file	"os_q.c"
  14              		.section	.debug_abbrev,"",%progbits
  15              	.Ldebug_abbrev0:
  16              		.section	.debug_info,"",%progbits
  17              	.Ldebug_info0:
  18              		.section	.debug_line,"",%progbits
  19              	.Ldebug_line0:
  20 0000 AE020000 		.text
  20      0200D300 
  20      00000201 
  20      FB0E0D00 
  20      01010101 
  21              	.Ltext0:
  22              		.cfi_sections	.debug_frame
  23              		.section	.text.OSQCreate,"ax",%progbits
  24              		.align	2
  25              		.global	OSQCreate
  26              		.thumb
  27              		.thumb_func
  28              		.type	OSQCreate, %function
  29              	OSQCreate:
  30              	.LFB0:
  31              		.file 1 "C:\\Micrium\\Software\\uCOS-III\\Source\\os_q.c"
   1:C:\Micrium\Software\uCOS-III\Source\os_q.c **** /*
   2:C:\Micrium\Software\uCOS-III\Source\os_q.c **** ***************************************************************************************************
   3:C:\Micrium\Software\uCOS-III\Source\os_q.c **** *                                                      uC/OS-III
   4:C:\Micrium\Software\uCOS-III\Source\os_q.c **** *                                                 The Real-Time Kernel
   5:C:\Micrium\Software\uCOS-III\Source\os_q.c **** *
   6:C:\Micrium\Software\uCOS-III\Source\os_q.c **** *                                  (c) Copyright 2009-2012; Micrium, Inc.; Weston, FL
   7:C:\Micrium\Software\uCOS-III\Source\os_q.c **** *                           All rights reserved.  Protected by international copyright laws.
   8:C:\Micrium\Software\uCOS-III\Source\os_q.c **** *
   9:C:\Micrium\Software\uCOS-III\Source\os_q.c **** *                                               MESSAGE QUEUE MANAGEMENT
  10:C:\Micrium\Software\uCOS-III\Source\os_q.c **** *
  11:C:\Micrium\Software\uCOS-III\Source\os_q.c **** * File    : OS_Q.C
  12:C:\Micrium\Software\uCOS-III\Source\os_q.c **** * By      : JJL
  13:C:\Micrium\Software\uCOS-III\Source\os_q.c **** * Version : V3.03.01
  14:C:\Micrium\Software\uCOS-III\Source\os_q.c **** *
  15:C:\Micrium\Software\uCOS-III\Source\os_q.c **** * LICENSING TERMS:
  16:C:\Micrium\Software\uCOS-III\Source\os_q.c **** * ---------------
  17:C:\Micrium\Software\uCOS-III\Source\os_q.c **** *           uC/OS-III is provided in source form for FREE short-term evaluation, for educational us
  18:C:\Micrium\Software\uCOS-III\Source\os_q.c **** *           for peaceful research.  If you plan or intend to use uC/OS-III in a commercial applicat
  19:C:\Micrium\Software\uCOS-III\Source\os_q.c **** *           product then, you need to contact Micrium to properly license uC/OS-III for its use in 
  20:C:\Micrium\Software\uCOS-III\Source\os_q.c **** *           application/product.   We provide ALL the source code for your convenience and to help 
  21:C:\Micrium\Software\uCOS-III\Source\os_q.c **** *           experience uC/OS-III.  The fact that the source is provided does NOT mean that you can 
  22:C:\Micrium\Software\uCOS-III\Source\os_q.c **** *           it commercially without paying a licensing fee.
ARM GAS  C:\Users\daniel01\AppData\Local\Temp\cccGTwC2.s 			page 2


  23:C:\Micrium\Software\uCOS-III\Source\os_q.c **** *
  24:C:\Micrium\Software\uCOS-III\Source\os_q.c **** *           Knowledge of the source code may NOT be used to develop a similar product.
  25:C:\Micrium\Software\uCOS-III\Source\os_q.c **** *
  26:C:\Micrium\Software\uCOS-III\Source\os_q.c **** *           Please help us continue to provide the embedded community with the finest software avai
  27:C:\Micrium\Software\uCOS-III\Source\os_q.c **** *           Your honesty is greatly appreciated.
  28:C:\Micrium\Software\uCOS-III\Source\os_q.c **** *
  29:C:\Micrium\Software\uCOS-III\Source\os_q.c **** *           You can contact us at www.micrium.com, or by phone at +1 (954) 217-2036.
  30:C:\Micrium\Software\uCOS-III\Source\os_q.c **** ***************************************************************************************************
  31:C:\Micrium\Software\uCOS-III\Source\os_q.c **** */
  32:C:\Micrium\Software\uCOS-III\Source\os_q.c **** 
  33:C:\Micrium\Software\uCOS-III\Source\os_q.c **** #define  MICRIUM_SOURCE
  34:C:\Micrium\Software\uCOS-III\Source\os_q.c **** #include <os.h>
  35:C:\Micrium\Software\uCOS-III\Source\os_q.c **** 
  36:C:\Micrium\Software\uCOS-III\Source\os_q.c **** #ifdef VSC_INCLUDE_SOURCE_FILE_NAMES
  37:C:\Micrium\Software\uCOS-III\Source\os_q.c **** const  CPU_CHAR  *os_q__c = "$Id: $";
  38:C:\Micrium\Software\uCOS-III\Source\os_q.c **** #endif
  39:C:\Micrium\Software\uCOS-III\Source\os_q.c **** 
  40:C:\Micrium\Software\uCOS-III\Source\os_q.c **** 
  41:C:\Micrium\Software\uCOS-III\Source\os_q.c **** #if OS_CFG_Q_EN > 0u
  42:C:\Micrium\Software\uCOS-III\Source\os_q.c **** /*
  43:C:\Micrium\Software\uCOS-III\Source\os_q.c **** ***************************************************************************************************
  44:C:\Micrium\Software\uCOS-III\Source\os_q.c **** *                                               CREATE A MESSAGE QUEUE
  45:C:\Micrium\Software\uCOS-III\Source\os_q.c **** *
  46:C:\Micrium\Software\uCOS-III\Source\os_q.c **** * Description: This function is called by your application to create a message queue.  Message queu
  47:C:\Micrium\Software\uCOS-III\Source\os_q.c **** *              before they can be used.
  48:C:\Micrium\Software\uCOS-III\Source\os_q.c **** *
  49:C:\Micrium\Software\uCOS-III\Source\os_q.c **** * Arguments  : p_q         is a pointer to the message queue
  50:C:\Micrium\Software\uCOS-III\Source\os_q.c **** *
  51:C:\Micrium\Software\uCOS-III\Source\os_q.c **** *              p_name      is a pointer to an ASCII string that will be used to name the message qu
  52:C:\Micrium\Software\uCOS-III\Source\os_q.c **** *
  53:C:\Micrium\Software\uCOS-III\Source\os_q.c **** *              max_qty     indicates the maximum size of the message queue (must be non-zero).  Not
  54:C:\Micrium\Software\uCOS-III\Source\os_q.c **** *                          possible to have a size higher than the maximum number of OS_MSGs availa
  55:C:\Micrium\Software\uCOS-III\Source\os_q.c **** *
  56:C:\Micrium\Software\uCOS-III\Source\os_q.c **** *              p_err       is a pointer to a variable that will contain an error code returned by t
  57:C:\Micrium\Software\uCOS-III\Source\os_q.c **** *
  58:C:\Micrium\Software\uCOS-III\Source\os_q.c **** *                              OS_ERR_NONE                    the call was successful
  59:C:\Micrium\Software\uCOS-III\Source\os_q.c **** *                              OS_ERR_CREATE_ISR              can't create from an ISR
  60:C:\Micrium\Software\uCOS-III\Source\os_q.c **** *                              OS_ERR_ILLEGAL_CREATE_RUN_TIME if you are trying to create the Queue
  61:C:\Micrium\Software\uCOS-III\Source\os_q.c **** *                                                               OSSafetyCriticalStart().
  62:C:\Micrium\Software\uCOS-III\Source\os_q.c **** *                              OS_ERR_NAME                    if 'p_name' is a NULL pointer
  63:C:\Micrium\Software\uCOS-III\Source\os_q.c **** *                              OS_ERR_OBJ_CREATED             if the message queue has already been
  64:C:\Micrium\Software\uCOS-III\Source\os_q.c **** *                              OS_ERR_OBJ_PTR_NULL            if you passed a NULL pointer for 'p_q
  65:C:\Micrium\Software\uCOS-III\Source\os_q.c **** *                              OS_ERR_Q_SIZE                  if the size you specified is 0
  66:C:\Micrium\Software\uCOS-III\Source\os_q.c **** *
  67:C:\Micrium\Software\uCOS-III\Source\os_q.c **** * Returns    : none
  68:C:\Micrium\Software\uCOS-III\Source\os_q.c **** ***************************************************************************************************
  69:C:\Micrium\Software\uCOS-III\Source\os_q.c **** */
  70:C:\Micrium\Software\uCOS-III\Source\os_q.c **** 
  71:C:\Micrium\Software\uCOS-III\Source\os_q.c **** void  OSQCreate (OS_Q        *p_q,
  72:C:\Micrium\Software\uCOS-III\Source\os_q.c ****                  CPU_CHAR    *p_name,
  73:C:\Micrium\Software\uCOS-III\Source\os_q.c ****                  OS_MSG_QTY   max_qty,
  74:C:\Micrium\Software\uCOS-III\Source\os_q.c ****                  OS_ERR      *p_err)
  75:C:\Micrium\Software\uCOS-III\Source\os_q.c **** 
  76:C:\Micrium\Software\uCOS-III\Source\os_q.c **** {
  32              		.loc 1 76 0
  33              		.cfi_startproc
  34              		@ args = 0, pretend = 0, frame = 24
ARM GAS  C:\Users\daniel01\AppData\Local\Temp\cccGTwC2.s 			page 3


  35              		@ frame_needed = 1, uses_anonymous_args = 0
  36 0000 80B5     		push	{r7, lr}
  37              	.LCFI0:
  38              		.cfi_def_cfa_offset 8
  39 0002 86B0     		sub	sp, sp, #24
  40              	.LCFI1:
  41              		.cfi_def_cfa_offset 32
  42 0004 00AF     		add	r7, sp, #0
  43              		.cfi_offset 14, -4
  44              		.cfi_offset 7, -8
  45              	.LCFI2:
  46              		.cfi_def_cfa_register 7
  47 0006 F860     		str	r0, [r7, #12]
  48 0008 B960     		str	r1, [r7, #8]
  49 000a 3B60     		str	r3, [r7, #0]
  50 000c 1346     		mov	r3, r2	@ movhi
  51 000e FB80     		strh	r3, [r7, #6]	@ movhi
  77:C:\Micrium\Software\uCOS-III\Source\os_q.c ****     CPU_SR_ALLOC();
  52              		.loc 1 77 0
  53 0010 4FF00003 		mov	r3, #0
  54 0014 7B61     		str	r3, [r7, #20]
  78:C:\Micrium\Software\uCOS-III\Source\os_q.c **** 
  79:C:\Micrium\Software\uCOS-III\Source\os_q.c **** 
  80:C:\Micrium\Software\uCOS-III\Source\os_q.c **** 
  81:C:\Micrium\Software\uCOS-III\Source\os_q.c **** #ifdef OS_SAFETY_CRITICAL
  82:C:\Micrium\Software\uCOS-III\Source\os_q.c ****     if (p_err == (OS_ERR *)0) {
  83:C:\Micrium\Software\uCOS-III\Source\os_q.c ****         OS_SAFETY_CRITICAL_EXCEPTION();
  84:C:\Micrium\Software\uCOS-III\Source\os_q.c ****         return;
  85:C:\Micrium\Software\uCOS-III\Source\os_q.c ****     }
  86:C:\Micrium\Software\uCOS-III\Source\os_q.c **** #endif
  87:C:\Micrium\Software\uCOS-III\Source\os_q.c **** 
  88:C:\Micrium\Software\uCOS-III\Source\os_q.c **** #ifdef OS_SAFETY_CRITICAL_IEC61508
  89:C:\Micrium\Software\uCOS-III\Source\os_q.c ****     if (OSSafetyCriticalStartFlag == DEF_TRUE) {
  90:C:\Micrium\Software\uCOS-III\Source\os_q.c ****        *p_err = OS_ERR_ILLEGAL_CREATE_RUN_TIME;
  91:C:\Micrium\Software\uCOS-III\Source\os_q.c ****         return;
  92:C:\Micrium\Software\uCOS-III\Source\os_q.c ****     }
  93:C:\Micrium\Software\uCOS-III\Source\os_q.c **** #endif
  94:C:\Micrium\Software\uCOS-III\Source\os_q.c **** 
  95:C:\Micrium\Software\uCOS-III\Source\os_q.c **** #if OS_CFG_CALLED_FROM_ISR_CHK_EN > 0u
  96:C:\Micrium\Software\uCOS-III\Source\os_q.c ****     if (OSIntNestingCtr > (OS_NESTING_CTR)0) {              /* Not allowed to be called from an ISR
  55              		.loc 1 96 0
  56 0016 40F20003 		movw	r3, #:lower16:OSIntNestingCtr
  57 001a C0F20003 		movt	r3, #:upper16:OSIntNestingCtr
  58 001e 1B78     		ldrb	r3, [r3, #0]	@ zero_extendqisi2
  59 0020 002B     		cmp	r3, #0
  60 0022 04D0     		beq	.L2
  97:C:\Micrium\Software\uCOS-III\Source\os_q.c ****        *p_err = OS_ERR_CREATE_ISR;
  61              		.loc 1 97 0
  62 0024 3B68     		ldr	r3, [r7, #0]
  63 0026 42F6E162 		movw	r2, #12001
  64 002a 1A80     		strh	r2, [r3, #0]	@ movhi
  98:C:\Micrium\Software\uCOS-III\Source\os_q.c ****         return;
  65              		.loc 1 98 0
  66 002c 41E0     		b	.L6
  67              	.L2:
  99:C:\Micrium\Software\uCOS-III\Source\os_q.c ****     }
 100:C:\Micrium\Software\uCOS-III\Source\os_q.c **** #endif
ARM GAS  C:\Users\daniel01\AppData\Local\Temp\cccGTwC2.s 			page 4


 101:C:\Micrium\Software\uCOS-III\Source\os_q.c **** 
 102:C:\Micrium\Software\uCOS-III\Source\os_q.c **** #if OS_CFG_ARG_CHK_EN > 0u
 103:C:\Micrium\Software\uCOS-III\Source\os_q.c ****     if (p_q == (OS_Q *)0) {                                 /* Validate arguments                  
  68              		.loc 1 103 0
  69 002e FB68     		ldr	r3, [r7, #12]
  70 0030 002B     		cmp	r3, #0
  71 0032 04D1     		bne	.L4
 104:C:\Micrium\Software\uCOS-III\Source\os_q.c ****        *p_err = OS_ERR_OBJ_PTR_NULL;
  72              		.loc 1 104 0
  73 0034 3B68     		ldr	r3, [r7, #0]
  74 0036 45F6C352 		movw	r2, #24003
  75 003a 1A80     		strh	r2, [r3, #0]	@ movhi
 105:C:\Micrium\Software\uCOS-III\Source\os_q.c ****         return;
  76              		.loc 1 105 0
  77 003c 39E0     		b	.L6
  78              	.L4:
 106:C:\Micrium\Software\uCOS-III\Source\os_q.c ****     }
 107:C:\Micrium\Software\uCOS-III\Source\os_q.c ****     if (max_qty == (OS_MSG_QTY)0) {                         /* Cannot specify a zero size queue    
  79              		.loc 1 107 0
  80 003e FB88     		ldrh	r3, [r7, #6]
  81 0040 002B     		cmp	r3, #0
  82 0042 04D1     		bne	.L5
 108:C:\Micrium\Software\uCOS-III\Source\os_q.c ****        *p_err = OS_ERR_Q_SIZE;
  83              		.loc 1 108 0
  84 0044 3B68     		ldr	r3, [r7, #0]
  85 0046 46F29452 		movw	r2, #26004
  86 004a 1A80     		strh	r2, [r3, #0]	@ movhi
 109:C:\Micrium\Software\uCOS-III\Source\os_q.c ****         return;
  87              		.loc 1 109 0
  88 004c 31E0     		b	.L6
  89              	.L5:
 110:C:\Micrium\Software\uCOS-III\Source\os_q.c ****     }
 111:C:\Micrium\Software\uCOS-III\Source\os_q.c **** #endif
 112:C:\Micrium\Software\uCOS-III\Source\os_q.c **** 
 113:C:\Micrium\Software\uCOS-III\Source\os_q.c ****     OS_CRITICAL_ENTER();
  90              		.loc 1 113 0
  91 004e FFF7FEFF 		bl	CPU_SR_Save
  92 0052 0346     		mov	r3, r0
  93 0054 7B61     		str	r3, [r7, #20]
 114:C:\Micrium\Software\uCOS-III\Source\os_q.c ****     p_q->Type    = OS_OBJ_TYPE_Q;                           /* Mark the data structure as a message
  94              		.loc 1 114 0
  95 0056 FA68     		ldr	r2, [r7, #12]
  96 0058 45F25153 		movw	r3, #:lower16:1430607185
  97 005c C5F24553 		movt	r3, #:upper16:1430607185
  98 0060 1360     		str	r3, [r2, #0]
 115:C:\Micrium\Software\uCOS-III\Source\os_q.c ****     p_q->NamePtr = p_name;
  99              		.loc 1 115 0
 100 0062 FB68     		ldr	r3, [r7, #12]
 101 0064 BA68     		ldr	r2, [r7, #8]
 102 0066 5A60     		str	r2, [r3, #4]
 116:C:\Micrium\Software\uCOS-III\Source\os_q.c ****     OS_MsgQInit(&p_q->MsgQ,                                 /* Initialize the queue                
 103              		.loc 1 116 0
 104 0068 FB68     		ldr	r3, [r7, #12]
 105 006a 03F12002 		add	r2, r3, #32
 106 006e FB88     		ldrh	r3, [r7, #6]
 107 0070 1046     		mov	r0, r2
 108 0072 1946     		mov	r1, r3
ARM GAS  C:\Users\daniel01\AppData\Local\Temp\cccGTwC2.s 			page 5


 109 0074 FFF7FEFF 		bl	OS_MsgQInit
 117:C:\Micrium\Software\uCOS-III\Source\os_q.c ****                 max_qty);
 118:C:\Micrium\Software\uCOS-III\Source\os_q.c ****     OS_PendListInit(&p_q->PendList);                        /* Initialize the waiting list         
 110              		.loc 1 118 0
 111 0078 FB68     		ldr	r3, [r7, #12]
 112 007a 03F10803 		add	r3, r3, #8
 113 007e 1846     		mov	r0, r3
 114 0080 FFF7FEFF 		bl	OS_PendListInit
 119:C:\Micrium\Software\uCOS-III\Source\os_q.c **** 
 120:C:\Micrium\Software\uCOS-III\Source\os_q.c **** #if OS_CFG_DBG_EN > 0u
 121:C:\Micrium\Software\uCOS-III\Source\os_q.c ****     OS_QDbgListAdd(p_q);
 115              		.loc 1 121 0
 116 0084 F868     		ldr	r0, [r7, #12]
 117 0086 FFF7FEFF 		bl	OS_QDbgListAdd
 122:C:\Micrium\Software\uCOS-III\Source\os_q.c **** #endif
 123:C:\Micrium\Software\uCOS-III\Source\os_q.c ****     OSQQty++;                                               /* One more queue created              
 118              		.loc 1 123 0
 119 008a 40F20003 		movw	r3, #:lower16:OSQQty
 120 008e C0F20003 		movt	r3, #:upper16:OSQQty
 121 0092 1B88     		ldrh	r3, [r3, #0]
 122 0094 03F10103 		add	r3, r3, #1
 123 0098 9AB2     		uxth	r2, r3
 124 009a 40F20003 		movw	r3, #:lower16:OSQQty
 125 009e C0F20003 		movt	r3, #:upper16:OSQQty
 126 00a2 1A80     		strh	r2, [r3, #0]	@ movhi
 124:C:\Micrium\Software\uCOS-III\Source\os_q.c **** 
 125:C:\Micrium\Software\uCOS-III\Source\os_q.c ****     OS_CRITICAL_EXIT_NO_SCHED();
 127              		.loc 1 125 0
 128 00a4 7869     		ldr	r0, [r7, #20]
 129 00a6 FFF7FEFF 		bl	CPU_SR_Restore
 126:C:\Micrium\Software\uCOS-III\Source\os_q.c ****    *p_err = OS_ERR_NONE;
 130              		.loc 1 126 0
 131 00aa 3B68     		ldr	r3, [r7, #0]
 132 00ac 4FF00002 		mov	r2, #0
 133 00b0 1A80     		strh	r2, [r3, #0]	@ movhi
 134              	.L6:
 127:C:\Micrium\Software\uCOS-III\Source\os_q.c **** }
 135              		.loc 1 127 0
 136 00b2 07F11807 		add	r7, r7, #24
 137 00b6 BD46     		mov	sp, r7
 138 00b8 80BD     		pop	{r7, pc}
 139              		.cfi_endproc
 140              	.LFE0:
 141              		.size	OSQCreate, .-OSQCreate
 142 00ba 00BF     		.section	.text.OSQDel,"ax",%progbits
 143              		.align	2
 144              		.global	OSQDel
 145              		.thumb
 146              		.thumb_func
 147              		.type	OSQDel, %function
 148              	OSQDel:
 149              	.LFB1:
 128:C:\Micrium\Software\uCOS-III\Source\os_q.c **** 
 129:C:\Micrium\Software\uCOS-III\Source\os_q.c **** /*$PAGE*/
 130:C:\Micrium\Software\uCOS-III\Source\os_q.c **** /*
 131:C:\Micrium\Software\uCOS-III\Source\os_q.c **** ***************************************************************************************************
 132:C:\Micrium\Software\uCOS-III\Source\os_q.c **** *                                               DELETE A MESSAGE QUEUE
ARM GAS  C:\Users\daniel01\AppData\Local\Temp\cccGTwC2.s 			page 6


 133:C:\Micrium\Software\uCOS-III\Source\os_q.c **** *
 134:C:\Micrium\Software\uCOS-III\Source\os_q.c **** * Description: This function deletes a message queue and readies all tasks pending on the queue.
 135:C:\Micrium\Software\uCOS-III\Source\os_q.c **** *
 136:C:\Micrium\Software\uCOS-III\Source\os_q.c **** * Arguments  : p_q       is a pointer to the message queue you want to delete
 137:C:\Micrium\Software\uCOS-III\Source\os_q.c **** *
 138:C:\Micrium\Software\uCOS-III\Source\os_q.c **** *              opt       determines delete options as follows:
 139:C:\Micrium\Software\uCOS-III\Source\os_q.c **** *
 140:C:\Micrium\Software\uCOS-III\Source\os_q.c **** *                            OS_OPT_DEL_NO_PEND          Delete the queue ONLY if no task pending
 141:C:\Micrium\Software\uCOS-III\Source\os_q.c **** *                            OS_OPT_DEL_ALWAYS           Deletes the queue even if tasks are waitin
 142:C:\Micrium\Software\uCOS-III\Source\os_q.c **** *                                                        In this case, all the tasks pending will b
 143:C:\Micrium\Software\uCOS-III\Source\os_q.c **** *
 144:C:\Micrium\Software\uCOS-III\Source\os_q.c **** *              p_err     is a pointer to a variable that will contain an error code returned by thi
 145:C:\Micrium\Software\uCOS-III\Source\os_q.c **** *
 146:C:\Micrium\Software\uCOS-III\Source\os_q.c **** *                            OS_ERR_NONE                 The call was successful and the queue was 
 147:C:\Micrium\Software\uCOS-III\Source\os_q.c **** *                            OS_ERR_DEL_ISR              If you tried to delete the queue from an I
 148:C:\Micrium\Software\uCOS-III\Source\os_q.c **** *                            OS_ERR_OBJ_PTR_NULL         if you pass a NULL pointer for 'p_q'
 149:C:\Micrium\Software\uCOS-III\Source\os_q.c **** *                            OS_ERR_OBJ_TYPE             if the message queue was not created
 150:C:\Micrium\Software\uCOS-III\Source\os_q.c **** *                            OS_ERR_OPT_INVALID          An invalid option was specified
 151:C:\Micrium\Software\uCOS-III\Source\os_q.c **** *                            OS_ERR_TASK_WAITING         One or more tasks were waiting on the queu
 152:C:\Micrium\Software\uCOS-III\Source\os_q.c **** *
 153:C:\Micrium\Software\uCOS-III\Source\os_q.c **** * Returns    : == 0          if no tasks were waiting on the queue, or upon error.
 154:C:\Micrium\Software\uCOS-III\Source\os_q.c **** *              >  0          if one or more tasks waiting on the queue are now readied and informed
 155:C:\Micrium\Software\uCOS-III\Source\os_q.c **** *
 156:C:\Micrium\Software\uCOS-III\Source\os_q.c **** * Note(s)    : 1) This function must be used with care.  Tasks that would normally expect the prese
 157:C:\Micrium\Software\uCOS-III\Source\os_q.c **** *                 check the return code of OSQPend().
 158:C:\Micrium\Software\uCOS-III\Source\os_q.c **** *
 159:C:\Micrium\Software\uCOS-III\Source\os_q.c **** *              2) OSQAccept() callers will not know that the intended queue has been deleted.
 160:C:\Micrium\Software\uCOS-III\Source\os_q.c **** *
 161:C:\Micrium\Software\uCOS-III\Source\os_q.c **** *              3) Because ALL tasks pending on the queue will be readied, you MUST be careful in ap
 162:C:\Micrium\Software\uCOS-III\Source\os_q.c **** *                 queue is used for mutual exclusion because the resource(s) will no longer be guar
 163:C:\Micrium\Software\uCOS-III\Source\os_q.c **** ***************************************************************************************************
 164:C:\Micrium\Software\uCOS-III\Source\os_q.c **** */
 165:C:\Micrium\Software\uCOS-III\Source\os_q.c **** 
 166:C:\Micrium\Software\uCOS-III\Source\os_q.c **** #if OS_CFG_Q_DEL_EN > 0u
 167:C:\Micrium\Software\uCOS-III\Source\os_q.c **** OS_OBJ_QTY  OSQDel (OS_Q    *p_q,
 168:C:\Micrium\Software\uCOS-III\Source\os_q.c ****                     OS_OPT   opt,
 169:C:\Micrium\Software\uCOS-III\Source\os_q.c ****                     OS_ERR  *p_err)
 170:C:\Micrium\Software\uCOS-III\Source\os_q.c **** {
 150              		.loc 1 170 0
 151              		.cfi_startproc
 152              		@ args = 0, pretend = 0, frame = 40
 153              		@ frame_needed = 1, uses_anonymous_args = 0
 154 0000 80B5     		push	{r7, lr}
 155              	.LCFI3:
 156              		.cfi_def_cfa_offset 8
 157 0002 8AB0     		sub	sp, sp, #40
 158              	.LCFI4:
 159              		.cfi_def_cfa_offset 48
 160 0004 00AF     		add	r7, sp, #0
 161              		.cfi_offset 14, -4
 162              		.cfi_offset 7, -8
 163              	.LCFI5:
 164              		.cfi_def_cfa_register 7
 165 0006 F860     		str	r0, [r7, #12]
 166 0008 0B46     		mov	r3, r1
 167 000a 7A60     		str	r2, [r7, #4]
 168 000c 7B81     		strh	r3, [r7, #10]	@ movhi
ARM GAS  C:\Users\daniel01\AppData\Local\Temp\cccGTwC2.s 			page 7


 171:C:\Micrium\Software\uCOS-III\Source\os_q.c ****     OS_OBJ_QTY     cnt;
 172:C:\Micrium\Software\uCOS-III\Source\os_q.c ****     OS_OBJ_QTY     nbr_tasks;
 173:C:\Micrium\Software\uCOS-III\Source\os_q.c ****     OS_PEND_DATA  *p_pend_data;
 174:C:\Micrium\Software\uCOS-III\Source\os_q.c ****     OS_PEND_LIST  *p_pend_list;
 175:C:\Micrium\Software\uCOS-III\Source\os_q.c ****     OS_TCB        *p_tcb;
 176:C:\Micrium\Software\uCOS-III\Source\os_q.c ****     CPU_TS         ts;
 177:C:\Micrium\Software\uCOS-III\Source\os_q.c ****     CPU_SR_ALLOC();
 169              		.loc 1 177 0
 170 000e 4FF00003 		mov	r3, #0
 171 0012 7B62     		str	r3, [r7, #36]
 178:C:\Micrium\Software\uCOS-III\Source\os_q.c **** 
 179:C:\Micrium\Software\uCOS-III\Source\os_q.c **** 
 180:C:\Micrium\Software\uCOS-III\Source\os_q.c **** 
 181:C:\Micrium\Software\uCOS-III\Source\os_q.c **** #ifdef OS_SAFETY_CRITICAL
 182:C:\Micrium\Software\uCOS-III\Source\os_q.c ****     if (p_err == (OS_ERR *)0) {
 183:C:\Micrium\Software\uCOS-III\Source\os_q.c ****         OS_SAFETY_CRITICAL_EXCEPTION();
 184:C:\Micrium\Software\uCOS-III\Source\os_q.c ****         return ((OS_OBJ_QTY)0);
 185:C:\Micrium\Software\uCOS-III\Source\os_q.c ****     }
 186:C:\Micrium\Software\uCOS-III\Source\os_q.c **** #endif
 187:C:\Micrium\Software\uCOS-III\Source\os_q.c **** 
 188:C:\Micrium\Software\uCOS-III\Source\os_q.c **** #if OS_CFG_CALLED_FROM_ISR_CHK_EN > 0u
 189:C:\Micrium\Software\uCOS-III\Source\os_q.c ****     if (OSIntNestingCtr > (OS_NESTING_CTR)0) {              /* Can't delete a message queue from an
 172              		.loc 1 189 0
 173 0014 40F20003 		movw	r3, #:lower16:OSIntNestingCtr
 174 0018 C0F20003 		movt	r3, #:upper16:OSIntNestingCtr
 175 001c 1B78     		ldrb	r3, [r3, #0]	@ zero_extendqisi2
 176 001e 002B     		cmp	r3, #0
 177 0020 06D0     		beq	.L8
 190:C:\Micrium\Software\uCOS-III\Source\os_q.c ****        *p_err = OS_ERR_DEL_ISR;
 178              		.loc 1 190 0
 179 0022 7B68     		ldr	r3, [r7, #4]
 180 0024 43F2C922 		movw	r2, #13001
 181 0028 1A80     		strh	r2, [r3, #0]	@ movhi
 191:C:\Micrium\Software\uCOS-III\Source\os_q.c ****         return ((OS_OBJ_QTY)0);
 182              		.loc 1 191 0
 183 002a 4FF00003 		mov	r3, #0
 184 002e 8BE0     		b	.L9
 185              	.L8:
 192:C:\Micrium\Software\uCOS-III\Source\os_q.c ****     }
 193:C:\Micrium\Software\uCOS-III\Source\os_q.c **** #endif
 194:C:\Micrium\Software\uCOS-III\Source\os_q.c **** 
 195:C:\Micrium\Software\uCOS-III\Source\os_q.c **** #if OS_CFG_ARG_CHK_EN > 0u
 196:C:\Micrium\Software\uCOS-III\Source\os_q.c ****     if (p_q == (OS_Q *)0) {                                 /* Validate 'p_q'                      
 186              		.loc 1 196 0
 187 0030 FB68     		ldr	r3, [r7, #12]
 188 0032 002B     		cmp	r3, #0
 189 0034 06D1     		bne	.L10
 197:C:\Micrium\Software\uCOS-III\Source\os_q.c ****        *p_err =  OS_ERR_OBJ_PTR_NULL;
 190              		.loc 1 197 0
 191 0036 7B68     		ldr	r3, [r7, #4]
 192 0038 45F6C352 		movw	r2, #24003
 193 003c 1A80     		strh	r2, [r3, #0]	@ movhi
 198:C:\Micrium\Software\uCOS-III\Source\os_q.c ****         return ((OS_OBJ_QTY)0u);
 194              		.loc 1 198 0
 195 003e 4FF00003 		mov	r3, #0
 196 0042 81E0     		b	.L9
 197              	.L10:
ARM GAS  C:\Users\daniel01\AppData\Local\Temp\cccGTwC2.s 			page 8


 199:C:\Micrium\Software\uCOS-III\Source\os_q.c ****     }
 200:C:\Micrium\Software\uCOS-III\Source\os_q.c ****     switch (opt) {                                          /* Validate 'opt'                      
 198              		.loc 1 200 0
 199 0044 7B89     		ldrh	r3, [r7, #10]
 200 0046 03F10003 		add	r3, r3, #0
 201 004a 012B     		cmp	r3, #1
 202 004c 12D8     		bhi	.L11
 201:C:\Micrium\Software\uCOS-III\Source\os_q.c ****         case OS_OPT_DEL_NO_PEND:
 202:C:\Micrium\Software\uCOS-III\Source\os_q.c ****         case OS_OPT_DEL_ALWAYS:
 203:C:\Micrium\Software\uCOS-III\Source\os_q.c ****              break;
 204:C:\Micrium\Software\uCOS-III\Source\os_q.c **** 
 205:C:\Micrium\Software\uCOS-III\Source\os_q.c ****         default:
 206:C:\Micrium\Software\uCOS-III\Source\os_q.c ****             *p_err =  OS_ERR_OPT_INVALID;
 207:C:\Micrium\Software\uCOS-III\Source\os_q.c ****              return ((OS_OBJ_QTY)0u);
 208:C:\Micrium\Software\uCOS-III\Source\os_q.c ****     }
 209:C:\Micrium\Software\uCOS-III\Source\os_q.c **** #endif
 210:C:\Micrium\Software\uCOS-III\Source\os_q.c **** 
 211:C:\Micrium\Software\uCOS-III\Source\os_q.c **** #if OS_CFG_OBJ_TYPE_CHK_EN > 0u
 212:C:\Micrium\Software\uCOS-III\Source\os_q.c ****     if (p_q->Type != OS_OBJ_TYPE_Q) {                       /* Make sure message queue was created 
 213:C:\Micrium\Software\uCOS-III\Source\os_q.c ****        *p_err = OS_ERR_OBJ_TYPE;
 214:C:\Micrium\Software\uCOS-III\Source\os_q.c ****         return ((OS_OBJ_QTY)0);
 215:C:\Micrium\Software\uCOS-III\Source\os_q.c ****     }
 216:C:\Micrium\Software\uCOS-III\Source\os_q.c **** #endif
 217:C:\Micrium\Software\uCOS-III\Source\os_q.c **** 
 218:C:\Micrium\Software\uCOS-III\Source\os_q.c ****     CPU_CRITICAL_ENTER();
 203              		.loc 1 218 0
 204 004e FFF7FEFF 		bl	CPU_SR_Save
 205 0052 0346     		mov	r3, r0
 206 0054 7B62     		str	r3, [r7, #36]
 219:C:\Micrium\Software\uCOS-III\Source\os_q.c ****     p_pend_list = &p_q->PendList;
 207              		.loc 1 219 0
 208 0056 FB68     		ldr	r3, [r7, #12]
 209 0058 03F10803 		add	r3, r3, #8
 210 005c BB61     		str	r3, [r7, #24]
 220:C:\Micrium\Software\uCOS-III\Source\os_q.c ****     cnt         = p_pend_list->NbrEntries;
 211              		.loc 1 220 0
 212 005e BB69     		ldr	r3, [r7, #24]
 213 0060 1B89     		ldrh	r3, [r3, #8]	@ movhi
 214 0062 3B82     		strh	r3, [r7, #16]	@ movhi
 221:C:\Micrium\Software\uCOS-III\Source\os_q.c ****     nbr_tasks   = cnt;
 215              		.loc 1 221 0
 216 0064 3B8A     		ldrh	r3, [r7, #16]	@ movhi
 217 0066 7B82     		strh	r3, [r7, #18]	@ movhi
 222:C:\Micrium\Software\uCOS-III\Source\os_q.c ****     switch (opt) {
 218              		.loc 1 222 0
 219 0068 7B89     		ldrh	r3, [r7, #10]
 220 006a 002B     		cmp	r3, #0
 221 006c 09D0     		beq	.L14
 222 006e 012B     		cmp	r3, #1
 223 0070 2DD0     		beq	.L15
 224 0072 61E0     		b	.L22
 225              	.L11:
 226              		.loc 1 206 0
 227 0074 7B68     		ldr	r3, [r7, #4]
 228 0076 45F62562 		movw	r2, #24101
 229 007a 1A80     		strh	r2, [r3, #0]	@ movhi
 230              		.loc 1 207 0
ARM GAS  C:\Users\daniel01\AppData\Local\Temp\cccGTwC2.s 			page 9


 231 007c 4FF00003 		mov	r3, #0
 232 0080 62E0     		b	.L9
 233              	.L14:
 223:C:\Micrium\Software\uCOS-III\Source\os_q.c ****         case OS_OPT_DEL_NO_PEND:                            /* Delete message queue only if no task
 224:C:\Micrium\Software\uCOS-III\Source\os_q.c ****              if (nbr_tasks == (OS_OBJ_QTY)0) {
 234              		.loc 1 224 0
 235 0082 7B8A     		ldrh	r3, [r7, #18]
 236 0084 002B     		cmp	r3, #0
 237 0086 1AD1     		bne	.L16
 225:C:\Micrium\Software\uCOS-III\Source\os_q.c **** #if OS_CFG_DBG_EN > 0u
 226:C:\Micrium\Software\uCOS-III\Source\os_q.c ****                  OS_QDbgListRemove(p_q);
 238              		.loc 1 226 0
 239 0088 F868     		ldr	r0, [r7, #12]
 240 008a FFF7FEFF 		bl	OS_QDbgListRemove
 227:C:\Micrium\Software\uCOS-III\Source\os_q.c **** #endif
 228:C:\Micrium\Software\uCOS-III\Source\os_q.c ****                  OSQQty--;
 241              		.loc 1 228 0
 242 008e 40F20003 		movw	r3, #:lower16:OSQQty
 243 0092 C0F20003 		movt	r3, #:upper16:OSQQty
 244 0096 1B88     		ldrh	r3, [r3, #0]
 245 0098 03F1FF33 		add	r3, r3, #-1
 246 009c 9AB2     		uxth	r2, r3
 247 009e 40F20003 		movw	r3, #:lower16:OSQQty
 248 00a2 C0F20003 		movt	r3, #:upper16:OSQQty
 249 00a6 1A80     		strh	r2, [r3, #0]	@ movhi
 229:C:\Micrium\Software\uCOS-III\Source\os_q.c ****                  OS_QClr(p_q);
 250              		.loc 1 229 0
 251 00a8 F868     		ldr	r0, [r7, #12]
 252 00aa FFF7FEFF 		bl	OS_QClr
 230:C:\Micrium\Software\uCOS-III\Source\os_q.c ****                  CPU_CRITICAL_EXIT();
 253              		.loc 1 230 0
 254 00ae 786A     		ldr	r0, [r7, #36]
 255 00b0 FFF7FEFF 		bl	CPU_SR_Restore
 231:C:\Micrium\Software\uCOS-III\Source\os_q.c ****                 *p_err = OS_ERR_NONE;
 256              		.loc 1 231 0
 257 00b4 7B68     		ldr	r3, [r7, #4]
 258 00b6 4FF00002 		mov	r2, #0
 259 00ba 1A80     		strh	r2, [r3, #0]	@ movhi
 232:C:\Micrium\Software\uCOS-III\Source\os_q.c ****              } else {
 233:C:\Micrium\Software\uCOS-III\Source\os_q.c ****                  CPU_CRITICAL_EXIT();
 234:C:\Micrium\Software\uCOS-III\Source\os_q.c ****                 *p_err = OS_ERR_TASK_WAITING;
 235:C:\Micrium\Software\uCOS-III\Source\os_q.c ****              }
 236:C:\Micrium\Software\uCOS-III\Source\os_q.c ****              break;
 260              		.loc 1 236 0
 261 00bc 43E0     		b	.L18
 262              	.L16:
 263              		.loc 1 233 0
 264 00be 786A     		ldr	r0, [r7, #36]
 265 00c0 FFF7FEFF 		bl	CPU_SR_Restore
 266              		.loc 1 234 0
 267 00c4 7B68     		ldr	r3, [r7, #4]
 268 00c6 47F25F12 		movw	r2, #29023
 269 00ca 1A80     		strh	r2, [r3, #0]	@ movhi
 270              		.loc 1 236 0
 271 00cc 3BE0     		b	.L18
 272              	.L15:
 237:C:\Micrium\Software\uCOS-III\Source\os_q.c **** 
ARM GAS  C:\Users\daniel01\AppData\Local\Temp\cccGTwC2.s 			page 10


 238:C:\Micrium\Software\uCOS-III\Source\os_q.c ****         case OS_OPT_DEL_ALWAYS:                             /* Always delete the message queue     
 239:C:\Micrium\Software\uCOS-III\Source\os_q.c ****              OS_CRITICAL_ENTER_CPU_EXIT();
 240:C:\Micrium\Software\uCOS-III\Source\os_q.c ****              ts = OS_TS_GET();                              /* Get local time stamp so all tasks ge
 273              		.loc 1 240 0
 274 00ce FFF7FEFF 		bl	CPU_TS_TmrRd
 275 00d2 0346     		mov	r3, r0
 276 00d4 3B62     		str	r3, [r7, #32]
 241:C:\Micrium\Software\uCOS-III\Source\os_q.c ****              while (cnt > 0u) {                             /* Remove all tasks from the pend list 
 277              		.loc 1 241 0
 278 00d6 0FE0     		b	.L19
 279              	.L20:
 242:C:\Micrium\Software\uCOS-III\Source\os_q.c ****                  p_pend_data = p_pend_list->HeadPtr;
 280              		.loc 1 242 0
 281 00d8 BB69     		ldr	r3, [r7, #24]
 282 00da 1B68     		ldr	r3, [r3, #0]
 283 00dc 7B61     		str	r3, [r7, #20]
 243:C:\Micrium\Software\uCOS-III\Source\os_q.c ****                  p_tcb       = p_pend_data->TCBPtr;
 284              		.loc 1 243 0
 285 00de 7B69     		ldr	r3, [r7, #20]
 286 00e0 9B68     		ldr	r3, [r3, #8]
 287 00e2 FB61     		str	r3, [r7, #28]
 244:C:\Micrium\Software\uCOS-III\Source\os_q.c ****                  OS_PendObjDel((OS_PEND_OBJ *)((void *)p_q),
 288              		.loc 1 244 0
 289 00e4 FB68     		ldr	r3, [r7, #12]
 290 00e6 1846     		mov	r0, r3
 291 00e8 F969     		ldr	r1, [r7, #28]
 292 00ea 3A6A     		ldr	r2, [r7, #32]
 293 00ec FFF7FEFF 		bl	OS_PendObjDel
 245:C:\Micrium\Software\uCOS-III\Source\os_q.c ****                                p_tcb,
 246:C:\Micrium\Software\uCOS-III\Source\os_q.c ****                                ts);
 247:C:\Micrium\Software\uCOS-III\Source\os_q.c ****                  cnt--;
 294              		.loc 1 247 0
 295 00f0 3B8A     		ldrh	r3, [r7, #16]	@ movhi
 296 00f2 03F1FF33 		add	r3, r3, #-1
 297 00f6 3B82     		strh	r3, [r7, #16]	@ movhi
 298              	.L19:
 299              		.loc 1 241 0
 300 00f8 3B8A     		ldrh	r3, [r7, #16]
 301 00fa 002B     		cmp	r3, #0
 302 00fc ECD1     		bne	.L20
 248:C:\Micrium\Software\uCOS-III\Source\os_q.c ****              }
 249:C:\Micrium\Software\uCOS-III\Source\os_q.c **** #if OS_CFG_DBG_EN > 0u
 250:C:\Micrium\Software\uCOS-III\Source\os_q.c ****              OS_QDbgListRemove(p_q);
 303              		.loc 1 250 0
 304 00fe F868     		ldr	r0, [r7, #12]
 305 0100 FFF7FEFF 		bl	OS_QDbgListRemove
 251:C:\Micrium\Software\uCOS-III\Source\os_q.c **** #endif
 252:C:\Micrium\Software\uCOS-III\Source\os_q.c ****              OSQQty--;
 306              		.loc 1 252 0
 307 0104 40F20003 		movw	r3, #:lower16:OSQQty
 308 0108 C0F20003 		movt	r3, #:upper16:OSQQty
 309 010c 1B88     		ldrh	r3, [r3, #0]
 310 010e 03F1FF33 		add	r3, r3, #-1
 311 0112 9AB2     		uxth	r2, r3
 312 0114 40F20003 		movw	r3, #:lower16:OSQQty
 313 0118 C0F20003 		movt	r3, #:upper16:OSQQty
 314 011c 1A80     		strh	r2, [r3, #0]	@ movhi
ARM GAS  C:\Users\daniel01\AppData\Local\Temp\cccGTwC2.s 			page 11


 253:C:\Micrium\Software\uCOS-III\Source\os_q.c ****              OS_QClr(p_q);
 315              		.loc 1 253 0
 316 011e F868     		ldr	r0, [r7, #12]
 317 0120 FFF7FEFF 		bl	OS_QClr
 254:C:\Micrium\Software\uCOS-III\Source\os_q.c ****              OS_CRITICAL_EXIT_NO_SCHED();
 318              		.loc 1 254 0
 319 0124 786A     		ldr	r0, [r7, #36]
 320 0126 FFF7FEFF 		bl	CPU_SR_Restore
 255:C:\Micrium\Software\uCOS-III\Source\os_q.c ****              OSSched();                                     /* Find highest priority task ready to 
 321              		.loc 1 255 0
 322 012a FFF7FEFF 		bl	OSSched
 256:C:\Micrium\Software\uCOS-III\Source\os_q.c ****             *p_err = OS_ERR_NONE;
 323              		.loc 1 256 0
 324 012e 7B68     		ldr	r3, [r7, #4]
 325 0130 4FF00002 		mov	r2, #0
 326 0134 1A80     		strh	r2, [r3, #0]	@ movhi
 257:C:\Micrium\Software\uCOS-III\Source\os_q.c ****              break;
 327              		.loc 1 257 0
 328 0136 06E0     		b	.L18
 329              	.L22:
 258:C:\Micrium\Software\uCOS-III\Source\os_q.c **** 
 259:C:\Micrium\Software\uCOS-III\Source\os_q.c ****         default:
 260:C:\Micrium\Software\uCOS-III\Source\os_q.c ****              CPU_CRITICAL_EXIT();
 330              		.loc 1 260 0
 331 0138 786A     		ldr	r0, [r7, #36]
 332 013a FFF7FEFF 		bl	CPU_SR_Restore
 261:C:\Micrium\Software\uCOS-III\Source\os_q.c ****             *p_err = OS_ERR_OPT_INVALID;
 333              		.loc 1 261 0
 334 013e 7B68     		ldr	r3, [r7, #4]
 335 0140 45F62562 		movw	r2, #24101
 336 0144 1A80     		strh	r2, [r3, #0]	@ movhi
 337              	.L18:
 262:C:\Micrium\Software\uCOS-III\Source\os_q.c ****              break;
 263:C:\Micrium\Software\uCOS-III\Source\os_q.c ****     }
 264:C:\Micrium\Software\uCOS-III\Source\os_q.c ****     return (nbr_tasks);
 338              		.loc 1 264 0
 339 0146 7B8A     		ldrh	r3, [r7, #18]
 340              	.L9:
 265:C:\Micrium\Software\uCOS-III\Source\os_q.c **** }
 341              		.loc 1 265 0
 342 0148 1846     		mov	r0, r3
 343 014a 07F12807 		add	r7, r7, #40
 344 014e BD46     		mov	sp, r7
 345 0150 80BD     		pop	{r7, pc}
 346              		.cfi_endproc
 347              	.LFE1:
 348              		.size	OSQDel, .-OSQDel
 349 0152 00BF     		.section	.text.OSQFlush,"ax",%progbits
 350              		.align	2
 351              		.global	OSQFlush
 352              		.thumb
 353              		.thumb_func
 354              		.type	OSQFlush, %function
 355              	OSQFlush:
 356              	.LFB2:
 266:C:\Micrium\Software\uCOS-III\Source\os_q.c **** #endif
 267:C:\Micrium\Software\uCOS-III\Source\os_q.c **** 
ARM GAS  C:\Users\daniel01\AppData\Local\Temp\cccGTwC2.s 			page 12


 268:C:\Micrium\Software\uCOS-III\Source\os_q.c **** /*$PAGE*/
 269:C:\Micrium\Software\uCOS-III\Source\os_q.c **** /*
 270:C:\Micrium\Software\uCOS-III\Source\os_q.c **** ***************************************************************************************************
 271:C:\Micrium\Software\uCOS-III\Source\os_q.c **** *                                                     FLUSH QUEUE
 272:C:\Micrium\Software\uCOS-III\Source\os_q.c **** *
 273:C:\Micrium\Software\uCOS-III\Source\os_q.c **** * Description : This function is used to flush the contents of the message queue.
 274:C:\Micrium\Software\uCOS-III\Source\os_q.c **** *
 275:C:\Micrium\Software\uCOS-III\Source\os_q.c **** * Arguments   : p_q        is a pointer to the message queue to flush
 276:C:\Micrium\Software\uCOS-III\Source\os_q.c **** *
 277:C:\Micrium\Software\uCOS-III\Source\os_q.c **** *               p_err      is a pointer to a variable that will contain an error code returned by t
 278:C:\Micrium\Software\uCOS-III\Source\os_q.c **** *
 279:C:\Micrium\Software\uCOS-III\Source\os_q.c **** *                              OS_ERR_NONE           upon success
 280:C:\Micrium\Software\uCOS-III\Source\os_q.c **** *                              OS_ERR_FLUSH_ISR      if you called this function from an ISR
 281:C:\Micrium\Software\uCOS-III\Source\os_q.c **** *                              OS_ERR_OBJ_PTR_NULL   If you passed a NULL pointer for 'p_q'
 282:C:\Micrium\Software\uCOS-III\Source\os_q.c **** *                              OS_ERR_OBJ_TYPE       If you didn't create the message queue
 283:C:\Micrium\Software\uCOS-III\Source\os_q.c **** *
 284:C:\Micrium\Software\uCOS-III\Source\os_q.c **** * Returns     : The number of entries freed from the queue
 285:C:\Micrium\Software\uCOS-III\Source\os_q.c **** *
 286:C:\Micrium\Software\uCOS-III\Source\os_q.c **** * Note(s)     : 1) You should use this function with great care because, when to flush the queue, y
 287:C:\Micrium\Software\uCOS-III\Source\os_q.c **** *                  references to what the queue entries are pointing to and thus, you could cause '
 288:C:\Micrium\Software\uCOS-III\Source\os_q.c **** *                  other words, the data you are pointing to that's being referenced by the queue e
 289:C:\Micrium\Software\uCOS-III\Source\os_q.c **** *                  likely, need to be de-allocated (i.e. freed).
 290:C:\Micrium\Software\uCOS-III\Source\os_q.c **** ***************************************************************************************************
 291:C:\Micrium\Software\uCOS-III\Source\os_q.c **** */
 292:C:\Micrium\Software\uCOS-III\Source\os_q.c **** 
 293:C:\Micrium\Software\uCOS-III\Source\os_q.c **** #if OS_CFG_Q_FLUSH_EN > 0u
 294:C:\Micrium\Software\uCOS-III\Source\os_q.c **** OS_MSG_QTY  OSQFlush (OS_Q    *p_q,
 295:C:\Micrium\Software\uCOS-III\Source\os_q.c ****                       OS_ERR  *p_err)
 296:C:\Micrium\Software\uCOS-III\Source\os_q.c **** {
 357              		.loc 1 296 0
 358              		.cfi_startproc
 359              		@ args = 0, pretend = 0, frame = 16
 360              		@ frame_needed = 1, uses_anonymous_args = 0
 361 0000 80B5     		push	{r7, lr}
 362              	.LCFI6:
 363              		.cfi_def_cfa_offset 8
 364 0002 84B0     		sub	sp, sp, #16
 365              	.LCFI7:
 366              		.cfi_def_cfa_offset 24
 367 0004 00AF     		add	r7, sp, #0
 368              		.cfi_offset 14, -4
 369              		.cfi_offset 7, -8
 370              	.LCFI8:
 371              		.cfi_def_cfa_register 7
 372 0006 7860     		str	r0, [r7, #4]
 373 0008 3960     		str	r1, [r7, #0]
 297:C:\Micrium\Software\uCOS-III\Source\os_q.c ****     OS_MSG_QTY  entries;
 298:C:\Micrium\Software\uCOS-III\Source\os_q.c ****     CPU_SR_ALLOC();
 374              		.loc 1 298 0
 375 000a 4FF00003 		mov	r3, #0
 376 000e FB60     		str	r3, [r7, #12]
 299:C:\Micrium\Software\uCOS-III\Source\os_q.c **** 
 300:C:\Micrium\Software\uCOS-III\Source\os_q.c **** 
 301:C:\Micrium\Software\uCOS-III\Source\os_q.c **** 
 302:C:\Micrium\Software\uCOS-III\Source\os_q.c **** #ifdef OS_SAFETY_CRITICAL
 303:C:\Micrium\Software\uCOS-III\Source\os_q.c ****     if (p_err == (OS_ERR *)0) {
 304:C:\Micrium\Software\uCOS-III\Source\os_q.c ****         OS_SAFETY_CRITICAL_EXCEPTION();
ARM GAS  C:\Users\daniel01\AppData\Local\Temp\cccGTwC2.s 			page 13


 305:C:\Micrium\Software\uCOS-III\Source\os_q.c ****         return ((OS_MSG_QTY)0);
 306:C:\Micrium\Software\uCOS-III\Source\os_q.c ****     }
 307:C:\Micrium\Software\uCOS-III\Source\os_q.c **** #endif
 308:C:\Micrium\Software\uCOS-III\Source\os_q.c **** 
 309:C:\Micrium\Software\uCOS-III\Source\os_q.c **** #if OS_CFG_CALLED_FROM_ISR_CHK_EN > 0u
 310:C:\Micrium\Software\uCOS-III\Source\os_q.c ****     if (OSIntNestingCtr > (OS_NESTING_CTR)0) {              /* Can't flush a message queue from an 
 377              		.loc 1 310 0
 378 0010 40F20003 		movw	r3, #:lower16:OSIntNestingCtr
 379 0014 C0F20003 		movt	r3, #:upper16:OSIntNestingCtr
 380 0018 1B78     		ldrb	r3, [r3, #0]	@ zero_extendqisi2
 381 001a 002B     		cmp	r3, #0
 382 001c 06D0     		beq	.L24
 311:C:\Micrium\Software\uCOS-III\Source\os_q.c ****        *p_err = OS_ERR_FLUSH_ISR;
 383              		.loc 1 311 0
 384 001e 3B68     		ldr	r3, [r7, #0]
 385 0020 4FF46C52 		mov	r2, #15104
 386 0024 1A80     		strh	r2, [r3, #0]	@ movhi
 312:C:\Micrium\Software\uCOS-III\Source\os_q.c ****         return ((OS_MSG_QTY)0);
 387              		.loc 1 312 0
 388 0026 4FF00003 		mov	r3, #0
 389 002a 1DE0     		b	.L25
 390              	.L24:
 313:C:\Micrium\Software\uCOS-III\Source\os_q.c ****     }
 314:C:\Micrium\Software\uCOS-III\Source\os_q.c **** #endif
 315:C:\Micrium\Software\uCOS-III\Source\os_q.c **** 
 316:C:\Micrium\Software\uCOS-III\Source\os_q.c **** #if OS_CFG_ARG_CHK_EN > 0u
 317:C:\Micrium\Software\uCOS-III\Source\os_q.c ****     if (p_q == (OS_Q *)0) {                                 /* Validate arguments                  
 391              		.loc 1 317 0
 392 002c 7B68     		ldr	r3, [r7, #4]
 393 002e 002B     		cmp	r3, #0
 394 0030 06D1     		bne	.L26
 318:C:\Micrium\Software\uCOS-III\Source\os_q.c ****        *p_err = OS_ERR_OBJ_PTR_NULL;
 395              		.loc 1 318 0
 396 0032 3B68     		ldr	r3, [r7, #0]
 397 0034 45F6C352 		movw	r2, #24003
 398 0038 1A80     		strh	r2, [r3, #0]	@ movhi
 319:C:\Micrium\Software\uCOS-III\Source\os_q.c ****         return ((OS_MSG_QTY)0);
 399              		.loc 1 319 0
 400 003a 4FF00003 		mov	r3, #0
 401 003e 13E0     		b	.L25
 402              	.L26:
 320:C:\Micrium\Software\uCOS-III\Source\os_q.c ****     }
 321:C:\Micrium\Software\uCOS-III\Source\os_q.c **** #endif
 322:C:\Micrium\Software\uCOS-III\Source\os_q.c **** 
 323:C:\Micrium\Software\uCOS-III\Source\os_q.c **** #if OS_CFG_OBJ_TYPE_CHK_EN > 0u
 324:C:\Micrium\Software\uCOS-III\Source\os_q.c ****     if (p_q->Type != OS_OBJ_TYPE_Q) {                       /* Make sure message queue was created 
 325:C:\Micrium\Software\uCOS-III\Source\os_q.c ****        *p_err = OS_ERR_OBJ_TYPE;
 326:C:\Micrium\Software\uCOS-III\Source\os_q.c ****         return ((OS_MSG_QTY)0);
 327:C:\Micrium\Software\uCOS-III\Source\os_q.c ****     }
 328:C:\Micrium\Software\uCOS-III\Source\os_q.c **** #endif
 329:C:\Micrium\Software\uCOS-III\Source\os_q.c **** 
 330:C:\Micrium\Software\uCOS-III\Source\os_q.c ****     OS_CRITICAL_ENTER();
 403              		.loc 1 330 0
 404 0040 FFF7FEFF 		bl	CPU_SR_Save
 405 0044 0346     		mov	r3, r0
 406 0046 FB60     		str	r3, [r7, #12]
 331:C:\Micrium\Software\uCOS-III\Source\os_q.c ****     entries = OS_MsgQFreeAll(&p_q->MsgQ);                   /* Return all OS_MSGs to the OS_MSG poo
ARM GAS  C:\Users\daniel01\AppData\Local\Temp\cccGTwC2.s 			page 14


 407              		.loc 1 331 0
 408 0048 7B68     		ldr	r3, [r7, #4]
 409 004a 03F12003 		add	r3, r3, #32
 410 004e 1846     		mov	r0, r3
 411 0050 FFF7FEFF 		bl	OS_MsgQFreeAll
 412 0054 0346     		mov	r3, r0
 413 0056 7B81     		strh	r3, [r7, #10]	@ movhi
 332:C:\Micrium\Software\uCOS-III\Source\os_q.c ****     OS_CRITICAL_EXIT();
 414              		.loc 1 332 0
 415 0058 F868     		ldr	r0, [r7, #12]
 416 005a FFF7FEFF 		bl	CPU_SR_Restore
 333:C:\Micrium\Software\uCOS-III\Source\os_q.c ****    *p_err   = OS_ERR_NONE;
 417              		.loc 1 333 0
 418 005e 3B68     		ldr	r3, [r7, #0]
 419 0060 4FF00002 		mov	r2, #0
 420 0064 1A80     		strh	r2, [r3, #0]	@ movhi
 334:C:\Micrium\Software\uCOS-III\Source\os_q.c ****     return ((OS_MSG_QTY)entries);
 421              		.loc 1 334 0
 422 0066 7B89     		ldrh	r3, [r7, #10]
 423              	.L25:
 335:C:\Micrium\Software\uCOS-III\Source\os_q.c **** }
 424              		.loc 1 335 0
 425 0068 1846     		mov	r0, r3
 426 006a 07F11007 		add	r7, r7, #16
 427 006e BD46     		mov	sp, r7
 428 0070 80BD     		pop	{r7, pc}
 429              		.cfi_endproc
 430              	.LFE2:
 431              		.size	OSQFlush, .-OSQFlush
 432 0072 00BF     		.section	.text.OSQPend,"ax",%progbits
 433              		.align	2
 434              		.global	OSQPend
 435              		.thumb
 436              		.thumb_func
 437              		.type	OSQPend, %function
 438              	OSQPend:
 439              	.LFB3:
 336:C:\Micrium\Software\uCOS-III\Source\os_q.c **** #endif
 337:C:\Micrium\Software\uCOS-III\Source\os_q.c **** 
 338:C:\Micrium\Software\uCOS-III\Source\os_q.c **** /*$PAGE*/
 339:C:\Micrium\Software\uCOS-III\Source\os_q.c **** /*
 340:C:\Micrium\Software\uCOS-III\Source\os_q.c **** ***************************************************************************************************
 341:C:\Micrium\Software\uCOS-III\Source\os_q.c **** *                                            PEND ON A QUEUE FOR A MESSAGE
 342:C:\Micrium\Software\uCOS-III\Source\os_q.c **** *
 343:C:\Micrium\Software\uCOS-III\Source\os_q.c **** * Description: This function waits for a message to be sent to a queue
 344:C:\Micrium\Software\uCOS-III\Source\os_q.c **** *
 345:C:\Micrium\Software\uCOS-III\Source\os_q.c **** * Arguments  : p_q           is a pointer to the message queue
 346:C:\Micrium\Software\uCOS-III\Source\os_q.c **** *
 347:C:\Micrium\Software\uCOS-III\Source\os_q.c **** *              timeout       is an optional timeout period (in clock ticks).  If non-zero, your tas
 348:C:\Micrium\Software\uCOS-III\Source\os_q.c **** *                            message to arrive at the queue up to the amount of time specified by t
 349:C:\Micrium\Software\uCOS-III\Source\os_q.c **** *                            specify 0, however, your task will wait forever at the specified queue
 350:C:\Micrium\Software\uCOS-III\Source\os_q.c **** *                            arrives.
 351:C:\Micrium\Software\uCOS-III\Source\os_q.c **** *
 352:C:\Micrium\Software\uCOS-III\Source\os_q.c **** *              opt           determines whether the user wants to block if the queue is empty or no
 353:C:\Micrium\Software\uCOS-III\Source\os_q.c **** *
 354:C:\Micrium\Software\uCOS-III\Source\os_q.c **** *                                OS_OPT_PEND_BLOCKING
 355:C:\Micrium\Software\uCOS-III\Source\os_q.c **** *                                OS_OPT_PEND_NON_BLOCKING
ARM GAS  C:\Users\daniel01\AppData\Local\Temp\cccGTwC2.s 			page 15


 356:C:\Micrium\Software\uCOS-III\Source\os_q.c **** *
 357:C:\Micrium\Software\uCOS-III\Source\os_q.c **** *              p_msg_size    is a pointer to a variable that will receive the size of the message
 358:C:\Micrium\Software\uCOS-III\Source\os_q.c **** *
 359:C:\Micrium\Software\uCOS-III\Source\os_q.c **** *              p_ts          is a pointer to a variable that will receive the timestamp of when the
 360:C:\Micrium\Software\uCOS-III\Source\os_q.c **** *                            received, pend aborted or the message queue deleted,  If you pass a NU
 361:C:\Micrium\Software\uCOS-III\Source\os_q.c **** *                            (CPU_TS *)0) then you will not get the timestamp.  In other words, pas
 362:C:\Micrium\Software\uCOS-III\Source\os_q.c **** *                            is valid and indicates that you don't need the timestamp.
 363:C:\Micrium\Software\uCOS-III\Source\os_q.c **** *
 364:C:\Micrium\Software\uCOS-III\Source\os_q.c **** *              p_err         is a pointer to a variable that will contain an error code returned by
 365:C:\Micrium\Software\uCOS-III\Source\os_q.c **** *
 366:C:\Micrium\Software\uCOS-III\Source\os_q.c **** *                                OS_ERR_NONE               The call was successful and your task re
 367:C:\Micrium\Software\uCOS-III\Source\os_q.c **** *                                OS_ERR_OBJ_PTR_NULL       if you pass a NULL pointer for 'p_q'
 368:C:\Micrium\Software\uCOS-III\Source\os_q.c **** *                                OS_ERR_OBJ_TYPE           if the message queue was not created
 369:C:\Micrium\Software\uCOS-III\Source\os_q.c **** *                                OS_ERR_PEND_ABORT         the pend was aborted
 370:C:\Micrium\Software\uCOS-III\Source\os_q.c **** *                                OS_ERR_PEND_ISR           if you called this function from an ISR
 371:C:\Micrium\Software\uCOS-III\Source\os_q.c **** *                                OS_ERR_PEND_WOULD_BLOCK   If you specified non-blocking but the qu
 372:C:\Micrium\Software\uCOS-III\Source\os_q.c **** *                                OS_ERR_SCHED_LOCKED       the scheduler is locked
 373:C:\Micrium\Software\uCOS-III\Source\os_q.c **** *                                OS_ERR_TIMEOUT            A message was not received within the sp
 374:C:\Micrium\Software\uCOS-III\Source\os_q.c **** *                                                          would lead to a suspension.
 375:C:\Micrium\Software\uCOS-III\Source\os_q.c **** *
 376:C:\Micrium\Software\uCOS-III\Source\os_q.c **** * Returns    : != (void *)0  is a pointer to the message received
 377:C:\Micrium\Software\uCOS-III\Source\os_q.c **** *              == (void *)0  if you received a NULL pointer message or,
 378:C:\Micrium\Software\uCOS-III\Source\os_q.c **** *                            if no message was received or,
 379:C:\Micrium\Software\uCOS-III\Source\os_q.c **** *                            if 'p_q' is a NULL pointer or,
 380:C:\Micrium\Software\uCOS-III\Source\os_q.c **** *                            if you didn't pass a pointer to a queue.
 381:C:\Micrium\Software\uCOS-III\Source\os_q.c **** ***************************************************************************************************
 382:C:\Micrium\Software\uCOS-III\Source\os_q.c **** */
 383:C:\Micrium\Software\uCOS-III\Source\os_q.c **** 
 384:C:\Micrium\Software\uCOS-III\Source\os_q.c **** void  *OSQPend (OS_Q         *p_q,
 385:C:\Micrium\Software\uCOS-III\Source\os_q.c ****                 OS_TICK       timeout,
 386:C:\Micrium\Software\uCOS-III\Source\os_q.c ****                 OS_OPT        opt,
 387:C:\Micrium\Software\uCOS-III\Source\os_q.c ****                 OS_MSG_SIZE  *p_msg_size,
 388:C:\Micrium\Software\uCOS-III\Source\os_q.c ****                 CPU_TS       *p_ts,
 389:C:\Micrium\Software\uCOS-III\Source\os_q.c ****                 OS_ERR       *p_err)
 390:C:\Micrium\Software\uCOS-III\Source\os_q.c **** {
 440              		.loc 1 390 0
 441              		.cfi_startproc
 442              		@ args = 8, pretend = 0, frame = 56
 443              		@ frame_needed = 1, uses_anonymous_args = 0
 444 0000 80B5     		push	{r7, lr}
 445              	.LCFI9:
 446              		.cfi_def_cfa_offset 8
 447 0002 8EB0     		sub	sp, sp, #56
 448              	.LCFI10:
 449              		.cfi_def_cfa_offset 64
 450 0004 00AF     		add	r7, sp, #0
 451              		.cfi_offset 14, -4
 452              		.cfi_offset 7, -8
 453              	.LCFI11:
 454              		.cfi_def_cfa_register 7
 455 0006 F860     		str	r0, [r7, #12]
 456 0008 B960     		str	r1, [r7, #8]
 457 000a 3B60     		str	r3, [r7, #0]
 458 000c 1346     		mov	r3, r2	@ movhi
 459 000e FB80     		strh	r3, [r7, #6]	@ movhi
 391:C:\Micrium\Software\uCOS-III\Source\os_q.c ****     OS_PEND_DATA  pend_data;
 392:C:\Micrium\Software\uCOS-III\Source\os_q.c ****     void         *p_void;
ARM GAS  C:\Users\daniel01\AppData\Local\Temp\cccGTwC2.s 			page 16


 393:C:\Micrium\Software\uCOS-III\Source\os_q.c ****     CPU_SR_ALLOC();
 460              		.loc 1 393 0
 461 0010 4FF00003 		mov	r3, #0
 462 0014 7B63     		str	r3, [r7, #52]
 394:C:\Micrium\Software\uCOS-III\Source\os_q.c **** 
 395:C:\Micrium\Software\uCOS-III\Source\os_q.c **** 
 396:C:\Micrium\Software\uCOS-III\Source\os_q.c **** 
 397:C:\Micrium\Software\uCOS-III\Source\os_q.c **** #ifdef OS_SAFETY_CRITICAL
 398:C:\Micrium\Software\uCOS-III\Source\os_q.c ****     if (p_err == (OS_ERR *)0) {
 399:C:\Micrium\Software\uCOS-III\Source\os_q.c ****         OS_SAFETY_CRITICAL_EXCEPTION();
 400:C:\Micrium\Software\uCOS-III\Source\os_q.c ****         return ((void *)0);
 401:C:\Micrium\Software\uCOS-III\Source\os_q.c ****     }
 402:C:\Micrium\Software\uCOS-III\Source\os_q.c **** #endif
 403:C:\Micrium\Software\uCOS-III\Source\os_q.c **** 
 404:C:\Micrium\Software\uCOS-III\Source\os_q.c **** #if OS_CFG_CALLED_FROM_ISR_CHK_EN > 0u
 405:C:\Micrium\Software\uCOS-III\Source\os_q.c ****     if (OSIntNestingCtr > (OS_NESTING_CTR)0) {              /* Not allowed to call from an ISR     
 463              		.loc 1 405 0
 464 0016 40F20003 		movw	r3, #:lower16:OSIntNestingCtr
 465 001a C0F20003 		movt	r3, #:upper16:OSIntNestingCtr
 466 001e 1B78     		ldrb	r3, [r3, #0]	@ zero_extendqisi2
 467 0020 002B     		cmp	r3, #0
 468 0022 06D0     		beq	.L29
 406:C:\Micrium\Software\uCOS-III\Source\os_q.c ****        *p_err = OS_ERR_PEND_ISR;
 469              		.loc 1 406 0
 470 0024 7B6C     		ldr	r3, [r7, #68]
 471 0026 46F2AE12 		movw	r2, #25006
 472 002a 1A80     		strh	r2, [r3, #0]	@ movhi
 407:C:\Micrium\Software\uCOS-III\Source\os_q.c ****         return ((void *)0);
 473              		.loc 1 407 0
 474 002c 4FF00003 		mov	r3, #0
 475 0030 F6E0     		b	.L30
 476              	.L29:
 408:C:\Micrium\Software\uCOS-III\Source\os_q.c ****     }
 409:C:\Micrium\Software\uCOS-III\Source\os_q.c **** #endif
 410:C:\Micrium\Software\uCOS-III\Source\os_q.c **** 
 411:C:\Micrium\Software\uCOS-III\Source\os_q.c **** #if OS_CFG_ARG_CHK_EN > 0u
 412:C:\Micrium\Software\uCOS-III\Source\os_q.c ****     if (p_q == (OS_Q *)0) {                                 /* Validate arguments                  
 477              		.loc 1 412 0
 478 0032 FB68     		ldr	r3, [r7, #12]
 479 0034 002B     		cmp	r3, #0
 480 0036 06D1     		bne	.L31
 413:C:\Micrium\Software\uCOS-III\Source\os_q.c ****        *p_err = OS_ERR_OBJ_PTR_NULL;
 481              		.loc 1 413 0
 482 0038 7B6C     		ldr	r3, [r7, #68]
 483 003a 45F6C352 		movw	r2, #24003
 484 003e 1A80     		strh	r2, [r3, #0]	@ movhi
 414:C:\Micrium\Software\uCOS-III\Source\os_q.c ****         return ((void *)0);
 485              		.loc 1 414 0
 486 0040 4FF00003 		mov	r3, #0
 487 0044 ECE0     		b	.L30
 488              	.L31:
 415:C:\Micrium\Software\uCOS-III\Source\os_q.c ****     }
 416:C:\Micrium\Software\uCOS-III\Source\os_q.c ****     if (p_msg_size == (OS_MSG_SIZE *)0) {
 489              		.loc 1 416 0
 490 0046 3B68     		ldr	r3, [r7, #0]
 491 0048 002B     		cmp	r3, #0
 492 004a 06D1     		bne	.L32
ARM GAS  C:\Users\daniel01\AppData\Local\Temp\cccGTwC2.s 			page 17


 417:C:\Micrium\Software\uCOS-III\Source\os_q.c ****        *p_err = OS_ERR_PTR_INVALID;
 493              		.loc 1 417 0
 494 004c 7B6C     		ldr	r3, [r7, #68]
 495 004e 46F2D522 		movw	r2, #25301
 496 0052 1A80     		strh	r2, [r3, #0]	@ movhi
 418:C:\Micrium\Software\uCOS-III\Source\os_q.c ****         return ((void *)0);
 497              		.loc 1 418 0
 498 0054 4FF00003 		mov	r3, #0
 499 0058 E2E0     		b	.L30
 500              	.L32:
 419:C:\Micrium\Software\uCOS-III\Source\os_q.c ****     }
 420:C:\Micrium\Software\uCOS-III\Source\os_q.c ****     switch (opt) {
 501              		.loc 1 420 0
 502 005a FB88     		ldrh	r3, [r7, #6]
 503 005c 002B     		cmp	r3, #0
 504 005e 02D0     		beq	.L34
 505 0060 B3F5004F 		cmp	r3, #32768
 506 0064 03D1     		bne	.L52
 507              	.L34:
 421:C:\Micrium\Software\uCOS-III\Source\os_q.c ****         case OS_OPT_PEND_BLOCKING:
 422:C:\Micrium\Software\uCOS-III\Source\os_q.c ****         case OS_OPT_PEND_NON_BLOCKING:
 423:C:\Micrium\Software\uCOS-III\Source\os_q.c ****              break;
 424:C:\Micrium\Software\uCOS-III\Source\os_q.c **** 
 425:C:\Micrium\Software\uCOS-III\Source\os_q.c ****         default:
 426:C:\Micrium\Software\uCOS-III\Source\os_q.c ****             *p_err = OS_ERR_OPT_INVALID;
 427:C:\Micrium\Software\uCOS-III\Source\os_q.c ****              return ((void *)0);
 428:C:\Micrium\Software\uCOS-III\Source\os_q.c ****     }
 429:C:\Micrium\Software\uCOS-III\Source\os_q.c **** #endif
 430:C:\Micrium\Software\uCOS-III\Source\os_q.c **** 
 431:C:\Micrium\Software\uCOS-III\Source\os_q.c **** #if OS_CFG_OBJ_TYPE_CHK_EN > 0u
 432:C:\Micrium\Software\uCOS-III\Source\os_q.c ****     if (p_q->Type != OS_OBJ_TYPE_Q) {                       /* Make sure message queue was created 
 433:C:\Micrium\Software\uCOS-III\Source\os_q.c ****        *p_err = OS_ERR_OBJ_TYPE;
 434:C:\Micrium\Software\uCOS-III\Source\os_q.c ****         return ((void *)0);
 435:C:\Micrium\Software\uCOS-III\Source\os_q.c ****     }
 436:C:\Micrium\Software\uCOS-III\Source\os_q.c **** #endif
 437:C:\Micrium\Software\uCOS-III\Source\os_q.c **** 
 438:C:\Micrium\Software\uCOS-III\Source\os_q.c ****     if (p_ts != (CPU_TS *)0) {
 508              		.loc 1 438 0
 509 0066 3B6C     		ldr	r3, [r7, #64]
 510 0068 002B     		cmp	r3, #0
 511 006a 07D1     		bne	.L35
 512 006c 0AE0     		b	.L36
 513              	.L52:
 514              		.loc 1 426 0
 515 006e 7B6C     		ldr	r3, [r7, #68]
 516 0070 45F62562 		movw	r2, #24101
 517 0074 1A80     		strh	r2, [r3, #0]	@ movhi
 518              		.loc 1 427 0
 519 0076 4FF00003 		mov	r3, #0
 520 007a D1E0     		b	.L30
 521              	.L35:
 439:C:\Micrium\Software\uCOS-III\Source\os_q.c ****        *p_ts  = (CPU_TS  )0;                                /* Initialize the returned timestamp   
 522              		.loc 1 439 0
 523 007c 3B6C     		ldr	r3, [r7, #64]
 524 007e 4FF00002 		mov	r2, #0
 525 0082 1A60     		str	r2, [r3, #0]
 526              	.L36:
ARM GAS  C:\Users\daniel01\AppData\Local\Temp\cccGTwC2.s 			page 18


 440:C:\Micrium\Software\uCOS-III\Source\os_q.c ****     }
 441:C:\Micrium\Software\uCOS-III\Source\os_q.c **** 
 442:C:\Micrium\Software\uCOS-III\Source\os_q.c ****     CPU_CRITICAL_ENTER();
 527              		.loc 1 442 0
 528 0084 FFF7FEFF 		bl	CPU_SR_Save
 529 0088 0346     		mov	r3, r0
 530 008a 7B63     		str	r3, [r7, #52]
 443:C:\Micrium\Software\uCOS-III\Source\os_q.c ****     p_void = OS_MsgQGet(&p_q->MsgQ,                         /* Any message waiting in the message q
 531              		.loc 1 443 0
 532 008c FB68     		ldr	r3, [r7, #12]
 533 008e 03F12003 		add	r3, r3, #32
 534 0092 1846     		mov	r0, r3
 535 0094 3968     		ldr	r1, [r7, #0]
 536 0096 3A6C     		ldr	r2, [r7, #64]
 537 0098 7B6C     		ldr	r3, [r7, #68]
 538 009a FFF7FEFF 		bl	OS_MsgQGet
 539 009e 0346     		mov	r3, r0
 540 00a0 3B63     		str	r3, [r7, #48]
 444:C:\Micrium\Software\uCOS-III\Source\os_q.c ****                         p_msg_size,
 445:C:\Micrium\Software\uCOS-III\Source\os_q.c ****                         p_ts,
 446:C:\Micrium\Software\uCOS-III\Source\os_q.c ****                         p_err);
 447:C:\Micrium\Software\uCOS-III\Source\os_q.c ****     if (*p_err == OS_ERR_NONE) {
 541              		.loc 1 447 0
 542 00a2 7B6C     		ldr	r3, [r7, #68]
 543 00a4 1B88     		ldrh	r3, [r3, #0]
 544 00a6 002B     		cmp	r3, #0
 545 00a8 04D1     		bne	.L37
 448:C:\Micrium\Software\uCOS-III\Source\os_q.c ****         CPU_CRITICAL_EXIT();
 546              		.loc 1 448 0
 547 00aa 786B     		ldr	r0, [r7, #52]
 548 00ac FFF7FEFF 		bl	CPU_SR_Restore
 449:C:\Micrium\Software\uCOS-III\Source\os_q.c ****         return (p_void);                                    /* Yes, Return message received        
 549              		.loc 1 449 0
 550 00b0 3B6B     		ldr	r3, [r7, #48]
 551 00b2 B5E0     		b	.L30
 552              	.L37:
 450:C:\Micrium\Software\uCOS-III\Source\os_q.c ****     }
 451:C:\Micrium\Software\uCOS-III\Source\os_q.c **** 
 452:C:\Micrium\Software\uCOS-III\Source\os_q.c ****     if ((opt & OS_OPT_PEND_NON_BLOCKING) != (OS_OPT)0) {    /* Caller wants to block if not availab
 553              		.loc 1 452 0
 554 00b4 FB88     		ldrh	r3, [r7, #6]
 555 00b6 1BB2     		sxth	r3, r3
 556 00b8 002B     		cmp	r3, #0
 557 00ba 09DA     		bge	.L38
 453:C:\Micrium\Software\uCOS-III\Source\os_q.c ****         CPU_CRITICAL_EXIT();
 558              		.loc 1 453 0
 559 00bc 786B     		ldr	r0, [r7, #52]
 560 00be FFF7FEFF 		bl	CPU_SR_Restore
 454:C:\Micrium\Software\uCOS-III\Source\os_q.c ****        *p_err = OS_ERR_PEND_WOULD_BLOCK;                    /* No                                  
 561              		.loc 1 454 0
 562 00c2 7B6C     		ldr	r3, [r7, #68]
 563 00c4 46F2B012 		movw	r2, #25008
 564 00c8 1A80     		strh	r2, [r3, #0]	@ movhi
 455:C:\Micrium\Software\uCOS-III\Source\os_q.c ****         return ((void *)0);
 565              		.loc 1 455 0
 566 00ca 4FF00003 		mov	r3, #0
 567 00ce A7E0     		b	.L30
ARM GAS  C:\Users\daniel01\AppData\Local\Temp\cccGTwC2.s 			page 19


 568              	.L38:
 456:C:\Micrium\Software\uCOS-III\Source\os_q.c ****     } else {
 457:C:\Micrium\Software\uCOS-III\Source\os_q.c ****         if (OSSchedLockNestingCtr > (OS_NESTING_CTR)0) {    /* Can't pend when the scheduler is loc
 569              		.loc 1 457 0
 570 00d0 40F20003 		movw	r3, #:lower16:OSSchedLockNestingCtr
 571 00d4 C0F20003 		movt	r3, #:upper16:OSSchedLockNestingCtr
 572 00d8 1B78     		ldrb	r3, [r3, #0]	@ zero_extendqisi2
 573 00da 002B     		cmp	r3, #0
 574 00dc 09D0     		beq	.L39
 458:C:\Micrium\Software\uCOS-III\Source\os_q.c ****             CPU_CRITICAL_EXIT();
 575              		.loc 1 458 0
 576 00de 786B     		ldr	r0, [r7, #52]
 577 00e0 FFF7FEFF 		bl	CPU_SR_Restore
 459:C:\Micrium\Software\uCOS-III\Source\os_q.c ****            *p_err = OS_ERR_SCHED_LOCKED;
 578              		.loc 1 459 0
 579 00e4 7B6C     		ldr	r3, [r7, #68]
 580 00e6 46F66352 		movw	r2, #28003
 581 00ea 1A80     		strh	r2, [r3, #0]	@ movhi
 460:C:\Micrium\Software\uCOS-III\Source\os_q.c ****             return ((void *)0);
 582              		.loc 1 460 0
 583 00ec 4FF00003 		mov	r3, #0
 584 00f0 96E0     		b	.L30
 585              	.L39:
 461:C:\Micrium\Software\uCOS-III\Source\os_q.c ****         }
 462:C:\Micrium\Software\uCOS-III\Source\os_q.c ****     }
 463:C:\Micrium\Software\uCOS-III\Source\os_q.c ****                                                             /* Lock the scheduler/re-enable interru
 464:C:\Micrium\Software\uCOS-III\Source\os_q.c ****     OS_CRITICAL_ENTER_CPU_EXIT();
 465:C:\Micrium\Software\uCOS-III\Source\os_q.c ****     OS_Pend(&pend_data,                                     /* Block task pending on Message Queue 
 586              		.loc 1 465 0
 587 00f2 FB68     		ldr	r3, [r7, #12]
 588 00f4 07F11002 		add	r2, r7, #16
 589 00f8 1046     		mov	r0, r2
 590 00fa 1946     		mov	r1, r3
 591 00fc 4FF00502 		mov	r2, #5
 592 0100 BB68     		ldr	r3, [r7, #8]
 593 0102 FFF7FEFF 		bl	OS_Pend
 466:C:\Micrium\Software\uCOS-III\Source\os_q.c ****             (OS_PEND_OBJ *)((void *)p_q),
 467:C:\Micrium\Software\uCOS-III\Source\os_q.c ****             OS_TASK_PEND_ON_Q,
 468:C:\Micrium\Software\uCOS-III\Source\os_q.c ****             timeout);
 469:C:\Micrium\Software\uCOS-III\Source\os_q.c ****     OS_CRITICAL_EXIT_NO_SCHED();
 594              		.loc 1 469 0
 595 0106 786B     		ldr	r0, [r7, #52]
 596 0108 FFF7FEFF 		bl	CPU_SR_Restore
 470:C:\Micrium\Software\uCOS-III\Source\os_q.c **** 
 471:C:\Micrium\Software\uCOS-III\Source\os_q.c ****     OSSched();                                              /* Find the next highest priority task 
 597              		.loc 1 471 0
 598 010c FFF7FEFF 		bl	OSSched
 472:C:\Micrium\Software\uCOS-III\Source\os_q.c **** 
 473:C:\Micrium\Software\uCOS-III\Source\os_q.c ****     CPU_CRITICAL_ENTER();
 599              		.loc 1 473 0
 600 0110 FFF7FEFF 		bl	CPU_SR_Save
 601 0114 0346     		mov	r3, r0
 602 0116 7B63     		str	r3, [r7, #52]
 474:C:\Micrium\Software\uCOS-III\Source\os_q.c ****     switch (OSTCBCurPtr->PendStatus) {
 603              		.loc 1 474 0
 604 0118 40F20003 		movw	r3, #:lower16:OSTCBCurPtr
 605 011c C0F20003 		movt	r3, #:upper16:OSTCBCurPtr
ARM GAS  C:\Users\daniel01\AppData\Local\Temp\cccGTwC2.s 			page 20


 606 0120 1B68     		ldr	r3, [r3, #0]
 607 0122 93F83530 		ldrb	r3, [r3, #53]	@ zero_extendqisi2
 608 0126 032B     		cmp	r3, #3
 609 0128 6BD8     		bhi	.L40
 610 012a 01A2     		adr	r2, .L45
 611 012c 52F823F0 		ldr	pc, [r2, r3, lsl #2]
 612              		.align	2
 613              	.L45:
 614 0130 41010000 		.word	.L41+1
 615 0134 81010000 		.word	.L42+1
 616 0138 D5010000 		.word	.L43+1
 617 013c AF010000 		.word	.L44+1
 618              	.L41:
 475:C:\Micrium\Software\uCOS-III\Source\os_q.c ****         case OS_STATUS_PEND_OK:                             /* Extract message from TCB (Put there 
 476:C:\Micrium\Software\uCOS-III\Source\os_q.c ****              p_void     = OSTCBCurPtr->MsgPtr;
 619              		.loc 1 476 0
 620 0140 40F20003 		movw	r3, #:lower16:OSTCBCurPtr
 621 0144 C0F20003 		movt	r3, #:upper16:OSTCBCurPtr
 622 0148 1B68     		ldr	r3, [r3, #0]
 623 014a DB6D     		ldr	r3, [r3, #92]
 624 014c 3B63     		str	r3, [r7, #48]
 477:C:\Micrium\Software\uCOS-III\Source\os_q.c ****             *p_msg_size = OSTCBCurPtr->MsgSize;
 625              		.loc 1 477 0
 626 014e 40F20003 		movw	r3, #:lower16:OSTCBCurPtr
 627 0152 C0F20003 		movt	r3, #:upper16:OSTCBCurPtr
 628 0156 1B68     		ldr	r3, [r3, #0]
 629 0158 B3F86020 		ldrh	r2, [r3, #96]
 630 015c 3B68     		ldr	r3, [r7, #0]
 631 015e 1A80     		strh	r2, [r3, #0]	@ movhi
 478:C:\Micrium\Software\uCOS-III\Source\os_q.c ****              if (p_ts  != (CPU_TS *)0) {
 632              		.loc 1 478 0
 633 0160 3B6C     		ldr	r3, [r7, #64]
 634 0162 002B     		cmp	r3, #0
 635 0164 07D0     		beq	.L46
 479:C:\Micrium\Software\uCOS-III\Source\os_q.c ****                 *p_ts   =  OSTCBCurPtr->TS;
 636              		.loc 1 479 0
 637 0166 40F20003 		movw	r3, #:lower16:OSTCBCurPtr
 638 016a C0F20003 		movt	r3, #:upper16:OSTCBCurPtr
 639 016e 1B68     		ldr	r3, [r3, #0]
 640 0170 1A6C     		ldr	r2, [r3, #64]
 641 0172 3B6C     		ldr	r3, [r7, #64]
 642 0174 1A60     		str	r2, [r3, #0]
 643              	.L46:
 480:C:\Micrium\Software\uCOS-III\Source\os_q.c ****              }
 481:C:\Micrium\Software\uCOS-III\Source\os_q.c ****             *p_err      = OS_ERR_NONE;
 644              		.loc 1 481 0
 645 0176 7B6C     		ldr	r3, [r7, #68]
 646 0178 4FF00002 		mov	r2, #0
 647 017c 1A80     		strh	r2, [r3, #0]	@ movhi
 482:C:\Micrium\Software\uCOS-III\Source\os_q.c ****              break;
 648              		.loc 1 482 0
 649 017e 4BE0     		b	.L47
 650              	.L42:
 483:C:\Micrium\Software\uCOS-III\Source\os_q.c **** 
 484:C:\Micrium\Software\uCOS-III\Source\os_q.c ****         case OS_STATUS_PEND_ABORT:                          /* Indicate that we aborted            
 485:C:\Micrium\Software\uCOS-III\Source\os_q.c ****              p_void     = (void      *)0;
 651              		.loc 1 485 0
ARM GAS  C:\Users\daniel01\AppData\Local\Temp\cccGTwC2.s 			page 21


 652 0180 4FF00003 		mov	r3, #0
 653 0184 3B63     		str	r3, [r7, #48]
 486:C:\Micrium\Software\uCOS-III\Source\os_q.c ****             *p_msg_size = (OS_MSG_SIZE)0;
 654              		.loc 1 486 0
 655 0186 3B68     		ldr	r3, [r7, #0]
 656 0188 4FF00002 		mov	r2, #0
 657 018c 1A80     		strh	r2, [r3, #0]	@ movhi
 487:C:\Micrium\Software\uCOS-III\Source\os_q.c ****              if (p_ts  != (CPU_TS *)0) {
 658              		.loc 1 487 0
 659 018e 3B6C     		ldr	r3, [r7, #64]
 660 0190 002B     		cmp	r3, #0
 661 0192 07D0     		beq	.L48
 488:C:\Micrium\Software\uCOS-III\Source\os_q.c ****                 *p_ts   =  OSTCBCurPtr->TS;
 662              		.loc 1 488 0
 663 0194 40F20003 		movw	r3, #:lower16:OSTCBCurPtr
 664 0198 C0F20003 		movt	r3, #:upper16:OSTCBCurPtr
 665 019c 1B68     		ldr	r3, [r3, #0]
 666 019e 1A6C     		ldr	r2, [r3, #64]
 667 01a0 3B6C     		ldr	r3, [r7, #64]
 668 01a2 1A60     		str	r2, [r3, #0]
 669              	.L48:
 489:C:\Micrium\Software\uCOS-III\Source\os_q.c ****              }
 490:C:\Micrium\Software\uCOS-III\Source\os_q.c ****             *p_err      = OS_ERR_PEND_ABORT;
 670              		.loc 1 490 0
 671 01a4 7B6C     		ldr	r3, [r7, #68]
 672 01a6 46F2A912 		movw	r2, #25001
 673 01aa 1A80     		strh	r2, [r3, #0]	@ movhi
 491:C:\Micrium\Software\uCOS-III\Source\os_q.c ****              break;
 674              		.loc 1 491 0
 675 01ac 34E0     		b	.L47
 676              	.L44:
 492:C:\Micrium\Software\uCOS-III\Source\os_q.c **** 
 493:C:\Micrium\Software\uCOS-III\Source\os_q.c ****         case OS_STATUS_PEND_TIMEOUT:                        /* Indicate that we didn't get event wi
 494:C:\Micrium\Software\uCOS-III\Source\os_q.c ****              p_void     = (void      *)0;
 677              		.loc 1 494 0
 678 01ae 4FF00003 		mov	r3, #0
 679 01b2 3B63     		str	r3, [r7, #48]
 495:C:\Micrium\Software\uCOS-III\Source\os_q.c ****             *p_msg_size = (OS_MSG_SIZE)0;
 680              		.loc 1 495 0
 681 01b4 3B68     		ldr	r3, [r7, #0]
 682 01b6 4FF00002 		mov	r2, #0
 683 01ba 1A80     		strh	r2, [r3, #0]	@ movhi
 496:C:\Micrium\Software\uCOS-III\Source\os_q.c ****              if (p_ts  != (CPU_TS *)0) {
 684              		.loc 1 496 0
 685 01bc 3B6C     		ldr	r3, [r7, #64]
 686 01be 002B     		cmp	r3, #0
 687 01c0 03D0     		beq	.L49
 497:C:\Micrium\Software\uCOS-III\Source\os_q.c ****                 *p_ts   = (CPU_TS  )0;
 688              		.loc 1 497 0
 689 01c2 3B6C     		ldr	r3, [r7, #64]
 690 01c4 4FF00002 		mov	r2, #0
 691 01c8 1A60     		str	r2, [r3, #0]
 692              	.L49:
 498:C:\Micrium\Software\uCOS-III\Source\os_q.c ****              }
 499:C:\Micrium\Software\uCOS-III\Source\os_q.c ****             *p_err      = OS_ERR_TIMEOUT;
 693              		.loc 1 499 0
 694 01ca 7B6C     		ldr	r3, [r7, #68]
ARM GAS  C:\Users\daniel01\AppData\Local\Temp\cccGTwC2.s 			page 22


 695 01cc 47F2D922 		movw	r2, #29401
 696 01d0 1A80     		strh	r2, [r3, #0]	@ movhi
 500:C:\Micrium\Software\uCOS-III\Source\os_q.c ****              break;
 697              		.loc 1 500 0
 698 01d2 21E0     		b	.L47
 699              	.L43:
 501:C:\Micrium\Software\uCOS-III\Source\os_q.c **** 
 502:C:\Micrium\Software\uCOS-III\Source\os_q.c ****         case OS_STATUS_PEND_DEL:                            /* Indicate that object pended on has b
 503:C:\Micrium\Software\uCOS-III\Source\os_q.c ****              p_void     = (void      *)0;
 700              		.loc 1 503 0
 701 01d4 4FF00003 		mov	r3, #0
 702 01d8 3B63     		str	r3, [r7, #48]
 504:C:\Micrium\Software\uCOS-III\Source\os_q.c ****             *p_msg_size = (OS_MSG_SIZE)0;
 703              		.loc 1 504 0
 704 01da 3B68     		ldr	r3, [r7, #0]
 705 01dc 4FF00002 		mov	r2, #0
 706 01e0 1A80     		strh	r2, [r3, #0]	@ movhi
 505:C:\Micrium\Software\uCOS-III\Source\os_q.c ****              if (p_ts  != (CPU_TS *)0) {
 707              		.loc 1 505 0
 708 01e2 3B6C     		ldr	r3, [r7, #64]
 709 01e4 002B     		cmp	r3, #0
 710 01e6 07D0     		beq	.L50
 506:C:\Micrium\Software\uCOS-III\Source\os_q.c ****                 *p_ts   =  OSTCBCurPtr->TS;
 711              		.loc 1 506 0
 712 01e8 40F20003 		movw	r3, #:lower16:OSTCBCurPtr
 713 01ec C0F20003 		movt	r3, #:upper16:OSTCBCurPtr
 714 01f0 1B68     		ldr	r3, [r3, #0]
 715 01f2 1A6C     		ldr	r2, [r3, #64]
 716 01f4 3B6C     		ldr	r3, [r7, #64]
 717 01f6 1A60     		str	r2, [r3, #0]
 718              	.L50:
 507:C:\Micrium\Software\uCOS-III\Source\os_q.c ****              }
 508:C:\Micrium\Software\uCOS-III\Source\os_q.c ****             *p_err      = OS_ERR_OBJ_DEL;
 719              		.loc 1 508 0
 720 01f8 7B6C     		ldr	r3, [r7, #68]
 721 01fa 45F6C252 		movw	r2, #24002
 722 01fe 1A80     		strh	r2, [r3, #0]	@ movhi
 509:C:\Micrium\Software\uCOS-III\Source\os_q.c ****              break;
 723              		.loc 1 509 0
 724 0200 0AE0     		b	.L47
 725              	.L40:
 510:C:\Micrium\Software\uCOS-III\Source\os_q.c **** 
 511:C:\Micrium\Software\uCOS-III\Source\os_q.c ****         default:
 512:C:\Micrium\Software\uCOS-III\Source\os_q.c ****              p_void     = (void      *)0;
 726              		.loc 1 512 0
 727 0202 4FF00003 		mov	r3, #0
 728 0206 3B63     		str	r3, [r7, #48]
 513:C:\Micrium\Software\uCOS-III\Source\os_q.c ****             *p_msg_size = (OS_MSG_SIZE)0;
 729              		.loc 1 513 0
 730 0208 3B68     		ldr	r3, [r7, #0]
 731 020a 4FF00002 		mov	r2, #0
 732 020e 1A80     		strh	r2, [r3, #0]	@ movhi
 514:C:\Micrium\Software\uCOS-III\Source\os_q.c ****             *p_err      = OS_ERR_STATUS_INVALID;
 733              		.loc 1 514 0
 734 0210 7B6C     		ldr	r3, [r7, #68]
 735 0212 46F62E62 		movw	r2, #28206
 736 0216 1A80     		strh	r2, [r3, #0]	@ movhi
ARM GAS  C:\Users\daniel01\AppData\Local\Temp\cccGTwC2.s 			page 23


 737              	.L47:
 515:C:\Micrium\Software\uCOS-III\Source\os_q.c ****              break;
 516:C:\Micrium\Software\uCOS-III\Source\os_q.c ****     }
 517:C:\Micrium\Software\uCOS-III\Source\os_q.c ****     CPU_CRITICAL_EXIT();
 738              		.loc 1 517 0
 739 0218 786B     		ldr	r0, [r7, #52]
 740 021a FFF7FEFF 		bl	CPU_SR_Restore
 518:C:\Micrium\Software\uCOS-III\Source\os_q.c ****     return (p_void);
 741              		.loc 1 518 0
 742 021e 3B6B     		ldr	r3, [r7, #48]
 743              	.L30:
 519:C:\Micrium\Software\uCOS-III\Source\os_q.c **** }
 744              		.loc 1 519 0
 745 0220 1846     		mov	r0, r3
 746 0222 07F13807 		add	r7, r7, #56
 747 0226 BD46     		mov	sp, r7
 748 0228 80BD     		pop	{r7, pc}
 749              		.cfi_endproc
 750              	.LFE3:
 751              		.size	OSQPend, .-OSQPend
 752 022a 00BF     		.section	.text.OSQPendAbort,"ax",%progbits
 753              		.align	2
 754              		.global	OSQPendAbort
 755              		.thumb
 756              		.thumb_func
 757              		.type	OSQPendAbort, %function
 758              	OSQPendAbort:
 759              	.LFB4:
 520:C:\Micrium\Software\uCOS-III\Source\os_q.c **** 
 521:C:\Micrium\Software\uCOS-III\Source\os_q.c **** 
 522:C:\Micrium\Software\uCOS-III\Source\os_q.c **** /*$PAGE*/
 523:C:\Micrium\Software\uCOS-III\Source\os_q.c **** /*
 524:C:\Micrium\Software\uCOS-III\Source\os_q.c **** ***************************************************************************************************
 525:C:\Micrium\Software\uCOS-III\Source\os_q.c **** *                                             ABORT WAITING ON A MESSAGE QUEUE
 526:C:\Micrium\Software\uCOS-III\Source\os_q.c **** *
 527:C:\Micrium\Software\uCOS-III\Source\os_q.c **** * Description: This function aborts & readies any tasks currently waiting on a queue.  This functio
 528:C:\Micrium\Software\uCOS-III\Source\os_q.c **** *              fault-abort the wait on the queue, rather than to normally signal the queue via OSQP
 529:C:\Micrium\Software\uCOS-III\Source\os_q.c **** *
 530:C:\Micrium\Software\uCOS-III\Source\os_q.c **** * Arguments  : p_q       is a pointer to the message queue
 531:C:\Micrium\Software\uCOS-III\Source\os_q.c **** *
 532:C:\Micrium\Software\uCOS-III\Source\os_q.c **** *              opt       determines the type of ABORT performed:
 533:C:\Micrium\Software\uCOS-III\Source\os_q.c **** *
 534:C:\Micrium\Software\uCOS-III\Source\os_q.c **** *                            OS_OPT_PEND_ABORT_1          ABORT wait for a single task (HPT) waitin
 535:C:\Micrium\Software\uCOS-III\Source\os_q.c **** *                            OS_OPT_PEND_ABORT_ALL        ABORT wait for ALL tasks that are  waitin
 536:C:\Micrium\Software\uCOS-III\Source\os_q.c **** *                            OS_OPT_POST_NO_SCHED         Do not call the scheduler
 537:C:\Micrium\Software\uCOS-III\Source\os_q.c **** *
 538:C:\Micrium\Software\uCOS-III\Source\os_q.c **** *              p_err     is a pointer to a variable that will contain an error code returned by thi
 539:C:\Micrium\Software\uCOS-III\Source\os_q.c **** *
 540:C:\Micrium\Software\uCOS-III\Source\os_q.c **** *                            OS_ERR_NONE                  At least one task waiting on the queue wa
 541:C:\Micrium\Software\uCOS-III\Source\os_q.c **** *                                                         informed of the aborted wait; check retur
 542:C:\Micrium\Software\uCOS-III\Source\os_q.c **** *                                                         number of tasks whose wait on the queue w
 543:C:\Micrium\Software\uCOS-III\Source\os_q.c **** *                            OS_ERR_OPT_INVALID           if you specified an invalid option
 544:C:\Micrium\Software\uCOS-III\Source\os_q.c **** *                            OS_ERR_OBJ_PTR_NULL          if you pass a NULL pointer for 'p_q'
 545:C:\Micrium\Software\uCOS-III\Source\os_q.c **** *                            OS_ERR_OBJ_TYPE              if the message queue was not created
 546:C:\Micrium\Software\uCOS-III\Source\os_q.c **** *                            OS_ERR_PEND_ABORT_ISR        If this function was called from an ISR
 547:C:\Micrium\Software\uCOS-III\Source\os_q.c **** *                            OS_ERR_PEND_ABORT_NONE       No task were pending
 548:C:\Micrium\Software\uCOS-III\Source\os_q.c **** *
ARM GAS  C:\Users\daniel01\AppData\Local\Temp\cccGTwC2.s 			page 24


 549:C:\Micrium\Software\uCOS-III\Source\os_q.c **** * Returns    : == 0          if no tasks were waiting on the queue, or upon error.
 550:C:\Micrium\Software\uCOS-III\Source\os_q.c **** *              >  0          if one or more tasks waiting on the queue are now readied and informed
 551:C:\Micrium\Software\uCOS-III\Source\os_q.c **** ***************************************************************************************************
 552:C:\Micrium\Software\uCOS-III\Source\os_q.c **** */
 553:C:\Micrium\Software\uCOS-III\Source\os_q.c **** 
 554:C:\Micrium\Software\uCOS-III\Source\os_q.c **** #if OS_CFG_Q_PEND_ABORT_EN > 0u
 555:C:\Micrium\Software\uCOS-III\Source\os_q.c **** OS_OBJ_QTY  OSQPendAbort (OS_Q    *p_q,
 556:C:\Micrium\Software\uCOS-III\Source\os_q.c ****                           OS_OPT   opt,
 557:C:\Micrium\Software\uCOS-III\Source\os_q.c ****                           OS_ERR  *p_err)
 558:C:\Micrium\Software\uCOS-III\Source\os_q.c **** {
 760              		.loc 1 558 0
 761              		.cfi_startproc
 762              		@ args = 0, pretend = 0, frame = 40
 763              		@ frame_needed = 1, uses_anonymous_args = 0
 764 0000 80B5     		push	{r7, lr}
 765              	.LCFI12:
 766              		.cfi_def_cfa_offset 8
 767 0002 8AB0     		sub	sp, sp, #40
 768              	.LCFI13:
 769              		.cfi_def_cfa_offset 48
 770 0004 00AF     		add	r7, sp, #0
 771              		.cfi_offset 14, -4
 772              		.cfi_offset 7, -8
 773              	.LCFI14:
 774              		.cfi_def_cfa_register 7
 775 0006 F860     		str	r0, [r7, #12]
 776 0008 0B46     		mov	r3, r1
 777 000a 7A60     		str	r2, [r7, #4]
 778 000c 7B81     		strh	r3, [r7, #10]	@ movhi
 559:C:\Micrium\Software\uCOS-III\Source\os_q.c ****     OS_PEND_LIST  *p_pend_list;
 560:C:\Micrium\Software\uCOS-III\Source\os_q.c ****     OS_TCB        *p_tcb;
 561:C:\Micrium\Software\uCOS-III\Source\os_q.c ****     CPU_TS         ts;
 562:C:\Micrium\Software\uCOS-III\Source\os_q.c ****     OS_OBJ_QTY     nbr_tasks;
 563:C:\Micrium\Software\uCOS-III\Source\os_q.c ****     CPU_SR_ALLOC();
 779              		.loc 1 563 0
 780 000e 4FF00003 		mov	r3, #0
 781 0012 7B62     		str	r3, [r7, #36]
 564:C:\Micrium\Software\uCOS-III\Source\os_q.c **** 
 565:C:\Micrium\Software\uCOS-III\Source\os_q.c **** 
 566:C:\Micrium\Software\uCOS-III\Source\os_q.c **** 
 567:C:\Micrium\Software\uCOS-III\Source\os_q.c **** #ifdef OS_SAFETY_CRITICAL
 568:C:\Micrium\Software\uCOS-III\Source\os_q.c ****     if (p_err == (OS_ERR *)0) {
 569:C:\Micrium\Software\uCOS-III\Source\os_q.c ****         OS_SAFETY_CRITICAL_EXCEPTION();
 570:C:\Micrium\Software\uCOS-III\Source\os_q.c ****         return ((OS_OBJ_QTY)0u);
 571:C:\Micrium\Software\uCOS-III\Source\os_q.c ****     }
 572:C:\Micrium\Software\uCOS-III\Source\os_q.c **** #endif
 573:C:\Micrium\Software\uCOS-III\Source\os_q.c **** 
 574:C:\Micrium\Software\uCOS-III\Source\os_q.c **** #if OS_CFG_CALLED_FROM_ISR_CHK_EN > 0u
 575:C:\Micrium\Software\uCOS-III\Source\os_q.c ****     if (OSIntNestingCtr > (OS_NESTING_CTR)0u) {             /* Not allowed to Pend Abort from an IS
 782              		.loc 1 575 0
 783 0014 40F20003 		movw	r3, #:lower16:OSIntNestingCtr
 784 0018 C0F20003 		movt	r3, #:upper16:OSIntNestingCtr
 785 001c 1B78     		ldrb	r3, [r3, #0]	@ zero_extendqisi2
 786 001e 002B     		cmp	r3, #0
 787 0020 06D0     		beq	.L54
 576:C:\Micrium\Software\uCOS-III\Source\os_q.c ****        *p_err =  OS_ERR_PEND_ABORT_ISR;
 788              		.loc 1 576 0
ARM GAS  C:\Users\daniel01\AppData\Local\Temp\cccGTwC2.s 			page 25


 789 0022 7B68     		ldr	r3, [r7, #4]
 790 0024 46F2AA12 		movw	r2, #25002
 791 0028 1A80     		strh	r2, [r3, #0]	@ movhi
 577:C:\Micrium\Software\uCOS-III\Source\os_q.c ****         return ((OS_OBJ_QTY)0u);
 792              		.loc 1 577 0
 793 002a 4FF00003 		mov	r3, #0
 794 002e 65E0     		b	.L55
 795              	.L54:
 578:C:\Micrium\Software\uCOS-III\Source\os_q.c ****     }
 579:C:\Micrium\Software\uCOS-III\Source\os_q.c **** #endif
 580:C:\Micrium\Software\uCOS-III\Source\os_q.c **** 
 581:C:\Micrium\Software\uCOS-III\Source\os_q.c **** #if OS_CFG_ARG_CHK_EN > 0u
 582:C:\Micrium\Software\uCOS-III\Source\os_q.c ****     if (p_q == (OS_Q *)0) {                                 /* Validate 'p_q'                      
 796              		.loc 1 582 0
 797 0030 FB68     		ldr	r3, [r7, #12]
 798 0032 002B     		cmp	r3, #0
 799 0034 06D1     		bne	.L56
 583:C:\Micrium\Software\uCOS-III\Source\os_q.c ****        *p_err =  OS_ERR_OBJ_PTR_NULL;
 800              		.loc 1 583 0
 801 0036 7B68     		ldr	r3, [r7, #4]
 802 0038 45F6C352 		movw	r2, #24003
 803 003c 1A80     		strh	r2, [r3, #0]	@ movhi
 584:C:\Micrium\Software\uCOS-III\Source\os_q.c ****         return ((OS_OBJ_QTY)0u);
 804              		.loc 1 584 0
 805 003e 4FF00003 		mov	r3, #0
 806 0042 5BE0     		b	.L55
 807              	.L56:
 585:C:\Micrium\Software\uCOS-III\Source\os_q.c ****     }
 586:C:\Micrium\Software\uCOS-III\Source\os_q.c ****     switch (opt) {                                          /* Validate 'opt'                      
 808              		.loc 1 586 0
 809 0044 7B89     		ldrh	r3, [r7, #10]
 810 0046 B3F5807F 		cmp	r3, #256
 811 004a 0BD0     		beq	.L58
 812 004c B3F5807F 		cmp	r3, #256
 813 0050 02DC     		bgt	.L59
 814 0052 002B     		cmp	r3, #0
 815 0054 06D0     		beq	.L58
 816 0056 12E0     		b	.L57
 817              	.L59:
 818 0058 B3F5004F 		cmp	r3, #32768
 819 005c 02D0     		beq	.L58
 820 005e B3F5014F 		cmp	r3, #33024
 821 0062 0CD1     		bne	.L57
 822              	.L58:
 587:C:\Micrium\Software\uCOS-III\Source\os_q.c ****         case OS_OPT_PEND_ABORT_1:
 588:C:\Micrium\Software\uCOS-III\Source\os_q.c ****         case OS_OPT_PEND_ABORT_ALL:
 589:C:\Micrium\Software\uCOS-III\Source\os_q.c ****         case OS_OPT_PEND_ABORT_1   | OS_OPT_POST_NO_SCHED:
 590:C:\Micrium\Software\uCOS-III\Source\os_q.c ****         case OS_OPT_PEND_ABORT_ALL | OS_OPT_POST_NO_SCHED:
 591:C:\Micrium\Software\uCOS-III\Source\os_q.c ****              break;
 592:C:\Micrium\Software\uCOS-III\Source\os_q.c **** 
 593:C:\Micrium\Software\uCOS-III\Source\os_q.c ****         default:
 594:C:\Micrium\Software\uCOS-III\Source\os_q.c ****             *p_err =  OS_ERR_OPT_INVALID;
 595:C:\Micrium\Software\uCOS-III\Source\os_q.c ****              return ((OS_OBJ_QTY)0u);
 596:C:\Micrium\Software\uCOS-III\Source\os_q.c ****     }
 597:C:\Micrium\Software\uCOS-III\Source\os_q.c **** #endif
 598:C:\Micrium\Software\uCOS-III\Source\os_q.c **** 
 599:C:\Micrium\Software\uCOS-III\Source\os_q.c **** #if OS_CFG_OBJ_TYPE_CHK_EN > 0u
ARM GAS  C:\Users\daniel01\AppData\Local\Temp\cccGTwC2.s 			page 26


 600:C:\Micrium\Software\uCOS-III\Source\os_q.c ****     if (p_q->Type != OS_OBJ_TYPE_Q) {                       /* Make sure queue was created         
 601:C:\Micrium\Software\uCOS-III\Source\os_q.c ****        *p_err =  OS_ERR_OBJ_TYPE;
 602:C:\Micrium\Software\uCOS-III\Source\os_q.c ****         return ((OS_OBJ_QTY)0u);
 603:C:\Micrium\Software\uCOS-III\Source\os_q.c ****     }
 604:C:\Micrium\Software\uCOS-III\Source\os_q.c **** #endif
 605:C:\Micrium\Software\uCOS-III\Source\os_q.c **** 
 606:C:\Micrium\Software\uCOS-III\Source\os_q.c ****     CPU_CRITICAL_ENTER();
 823              		.loc 1 606 0
 824 0064 FFF7FEFF 		bl	CPU_SR_Save
 825 0068 0346     		mov	r3, r0
 826 006a 7B62     		str	r3, [r7, #36]
 607:C:\Micrium\Software\uCOS-III\Source\os_q.c ****     p_pend_list = &p_q->PendList;
 827              		.loc 1 607 0
 828 006c FB68     		ldr	r3, [r7, #12]
 829 006e 03F10803 		add	r3, r3, #8
 830 0072 7B61     		str	r3, [r7, #20]
 608:C:\Micrium\Software\uCOS-III\Source\os_q.c ****     if (p_pend_list->NbrEntries == (OS_OBJ_QTY)0u) {        /* Any task waiting on queue?          
 831              		.loc 1 608 0
 832 0074 7B69     		ldr	r3, [r7, #20]
 833 0076 1B89     		ldrh	r3, [r3, #8]
 834 0078 002B     		cmp	r3, #0
 835 007a 07D0     		beq	.L60
 836 007c 10E0     		b	.L67
 837              	.L57:
 838              		.loc 1 594 0
 839 007e 7B68     		ldr	r3, [r7, #4]
 840 0080 45F62562 		movw	r2, #24101
 841 0084 1A80     		strh	r2, [r3, #0]	@ movhi
 842              		.loc 1 595 0
 843 0086 4FF00003 		mov	r3, #0
 844 008a 37E0     		b	.L55
 845              	.L60:
 609:C:\Micrium\Software\uCOS-III\Source\os_q.c ****         CPU_CRITICAL_EXIT();                                /* No                                  
 846              		.loc 1 609 0
 847 008c 786A     		ldr	r0, [r7, #36]
 848 008e FFF7FEFF 		bl	CPU_SR_Restore
 610:C:\Micrium\Software\uCOS-III\Source\os_q.c ****        *p_err =  OS_ERR_PEND_ABORT_NONE;
 849              		.loc 1 610 0
 850 0092 7B68     		ldr	r3, [r7, #4]
 851 0094 46F2AB12 		movw	r2, #25003
 852 0098 1A80     		strh	r2, [r3, #0]	@ movhi
 611:C:\Micrium\Software\uCOS-III\Source\os_q.c ****         return ((OS_OBJ_QTY)0u);
 853              		.loc 1 611 0
 854 009a 4FF00003 		mov	r3, #0
 855 009e 2DE0     		b	.L55
 856              	.L67:
 612:C:\Micrium\Software\uCOS-III\Source\os_q.c ****     }
 613:C:\Micrium\Software\uCOS-III\Source\os_q.c **** 
 614:C:\Micrium\Software\uCOS-III\Source\os_q.c ****     OS_CRITICAL_ENTER_CPU_EXIT();
 615:C:\Micrium\Software\uCOS-III\Source\os_q.c ****     nbr_tasks = 0u;
 857              		.loc 1 615 0
 858 00a0 4FF00003 		mov	r3, #0
 859 00a4 7B84     		strh	r3, [r7, #34]	@ movhi
 616:C:\Micrium\Software\uCOS-III\Source\os_q.c ****     ts        = OS_TS_GET();                                /* Get local time stamp so all tasks ge
 860              		.loc 1 616 0
 861 00a6 FFF7FEFF 		bl	CPU_TS_TmrRd
 862 00aa 0346     		mov	r3, r0
ARM GAS  C:\Users\daniel01\AppData\Local\Temp\cccGTwC2.s 			page 27


 863 00ac FB61     		str	r3, [r7, #28]
 617:C:\Micrium\Software\uCOS-III\Source\os_q.c ****     while (p_pend_list->NbrEntries > (OS_OBJ_QTY)0u) {
 864              		.loc 1 617 0
 865 00ae 11E0     		b	.L62
 866              	.L64:
 618:C:\Micrium\Software\uCOS-III\Source\os_q.c ****         p_tcb = p_pend_list->HeadPtr->TCBPtr;
 867              		.loc 1 618 0
 868 00b0 7B69     		ldr	r3, [r7, #20]
 869 00b2 1B68     		ldr	r3, [r3, #0]
 870 00b4 9B68     		ldr	r3, [r3, #8]
 871 00b6 BB61     		str	r3, [r7, #24]
 619:C:\Micrium\Software\uCOS-III\Source\os_q.c ****         OS_PendAbort((OS_PEND_OBJ *)((void *)p_q),
 872              		.loc 1 619 0
 873 00b8 FB68     		ldr	r3, [r7, #12]
 874 00ba 1846     		mov	r0, r3
 875 00bc B969     		ldr	r1, [r7, #24]
 876 00be FA69     		ldr	r2, [r7, #28]
 877 00c0 FFF7FEFF 		bl	OS_PendAbort
 620:C:\Micrium\Software\uCOS-III\Source\os_q.c ****                      p_tcb,
 621:C:\Micrium\Software\uCOS-III\Source\os_q.c ****                      ts);
 622:C:\Micrium\Software\uCOS-III\Source\os_q.c ****         nbr_tasks++;
 878              		.loc 1 622 0
 879 00c4 7B8C     		ldrh	r3, [r7, #34]	@ movhi
 880 00c6 03F10103 		add	r3, r3, #1
 881 00ca 7B84     		strh	r3, [r7, #34]	@ movhi
 623:C:\Micrium\Software\uCOS-III\Source\os_q.c ****         if (opt != OS_OPT_PEND_ABORT_ALL) {                 /* Pend abort all tasks waiting?       
 882              		.loc 1 623 0
 883 00cc 7B89     		ldrh	r3, [r7, #10]
 884 00ce B3F5807F 		cmp	r3, #256
 885 00d2 04D1     		bne	.L68
 886              	.L62:
 887              		.loc 1 617 0
 888 00d4 7B69     		ldr	r3, [r7, #20]
 889 00d6 1B89     		ldrh	r3, [r3, #8]
 890 00d8 002B     		cmp	r3, #0
 891 00da E9D1     		bne	.L64
 892 00dc 00E0     		b	.L63
 893              	.L68:
 624:C:\Micrium\Software\uCOS-III\Source\os_q.c ****             break;                                          /* No                                  
 894              		.loc 1 624 0
 895 00de 00BF     		nop
 896              	.L63:
 625:C:\Micrium\Software\uCOS-III\Source\os_q.c ****         }
 626:C:\Micrium\Software\uCOS-III\Source\os_q.c ****     }
 627:C:\Micrium\Software\uCOS-III\Source\os_q.c ****     OS_CRITICAL_EXIT_NO_SCHED();
 897              		.loc 1 627 0
 898 00e0 786A     		ldr	r0, [r7, #36]
 899 00e2 FFF7FEFF 		bl	CPU_SR_Restore
 628:C:\Micrium\Software\uCOS-III\Source\os_q.c **** 
 629:C:\Micrium\Software\uCOS-III\Source\os_q.c ****     if ((opt & OS_OPT_POST_NO_SCHED) == (OS_OPT)0u) {
 900              		.loc 1 629 0
 901 00e6 7B89     		ldrh	r3, [r7, #10]
 902 00e8 1BB2     		sxth	r3, r3
 903 00ea 002B     		cmp	r3, #0
 904 00ec 01DB     		blt	.L65
 630:C:\Micrium\Software\uCOS-III\Source\os_q.c ****         OSSched();                                          /* Run the scheduler                   
 905              		.loc 1 630 0
ARM GAS  C:\Users\daniel01\AppData\Local\Temp\cccGTwC2.s 			page 28


 906 00ee FFF7FEFF 		bl	OSSched
 907              	.L65:
 631:C:\Micrium\Software\uCOS-III\Source\os_q.c ****     }
 632:C:\Micrium\Software\uCOS-III\Source\os_q.c **** 
 633:C:\Micrium\Software\uCOS-III\Source\os_q.c ****    *p_err = OS_ERR_NONE;
 908              		.loc 1 633 0
 909 00f2 7B68     		ldr	r3, [r7, #4]
 910 00f4 4FF00002 		mov	r2, #0
 911 00f8 1A80     		strh	r2, [r3, #0]	@ movhi
 634:C:\Micrium\Software\uCOS-III\Source\os_q.c ****     return (nbr_tasks);
 912              		.loc 1 634 0
 913 00fa 7B8C     		ldrh	r3, [r7, #34]
 914              	.L55:
 635:C:\Micrium\Software\uCOS-III\Source\os_q.c **** }
 915              		.loc 1 635 0
 916 00fc 1846     		mov	r0, r3
 917 00fe 07F12807 		add	r7, r7, #40
 918 0102 BD46     		mov	sp, r7
 919 0104 80BD     		pop	{r7, pc}
 920              		.cfi_endproc
 921              	.LFE4:
 922              		.size	OSQPendAbort, .-OSQPendAbort
 923 0106 00BF     		.section	.text.OSQPost,"ax",%progbits
 924              		.align	2
 925              		.global	OSQPost
 926              		.thumb
 927              		.thumb_func
 928              		.type	OSQPost, %function
 929              	OSQPost:
 930              	.LFB5:
 636:C:\Micrium\Software\uCOS-III\Source\os_q.c **** #endif
 637:C:\Micrium\Software\uCOS-III\Source\os_q.c **** 
 638:C:\Micrium\Software\uCOS-III\Source\os_q.c **** /*$PAGE*/
 639:C:\Micrium\Software\uCOS-III\Source\os_q.c **** /*
 640:C:\Micrium\Software\uCOS-III\Source\os_q.c **** ***************************************************************************************************
 641:C:\Micrium\Software\uCOS-III\Source\os_q.c **** *                                               POST MESSAGE TO A QUEUE
 642:C:\Micrium\Software\uCOS-III\Source\os_q.c **** *
 643:C:\Micrium\Software\uCOS-III\Source\os_q.c **** * Description: This function sends a message to a queue.  With the 'opt' argument, you can specify 
 644:C:\Micrium\Software\uCOS-III\Source\os_q.c **** *              is broadcast to all waiting tasks and/or whether you post the message to the front o
 645:C:\Micrium\Software\uCOS-III\Source\os_q.c **** *              or normally (FIFO) at the end of the queue.
 646:C:\Micrium\Software\uCOS-III\Source\os_q.c **** *
 647:C:\Micrium\Software\uCOS-III\Source\os_q.c **** * Arguments  : p_q           is a pointer to a message queue that must have been created by OSQCrea
 648:C:\Micrium\Software\uCOS-III\Source\os_q.c **** *
 649:C:\Micrium\Software\uCOS-III\Source\os_q.c **** *              p_void        is a pointer to the message to send.
 650:C:\Micrium\Software\uCOS-III\Source\os_q.c **** *
 651:C:\Micrium\Software\uCOS-III\Source\os_q.c **** *              msg_size      specifies the size of the message (in bytes)
 652:C:\Micrium\Software\uCOS-III\Source\os_q.c **** *
 653:C:\Micrium\Software\uCOS-III\Source\os_q.c **** *              opt           determines the type of POST performed:
 654:C:\Micrium\Software\uCOS-III\Source\os_q.c **** *
 655:C:\Micrium\Software\uCOS-III\Source\os_q.c **** *                                OS_OPT_POST_ALL          POST to ALL tasks that are waiting on the
 656:C:\Micrium\Software\uCOS-III\Source\os_q.c **** *                                                         can be added to either OS_OPT_POST_FIFO o
 657:C:\Micrium\Software\uCOS-III\Source\os_q.c **** *                                OS_OPT_POST_FIFO         POST message to end of queue (FIFO) and w
 658:C:\Micrium\Software\uCOS-III\Source\os_q.c **** *                                                         waiting task.
 659:C:\Micrium\Software\uCOS-III\Source\os_q.c **** *                                OS_OPT_POST_LIFO         POST message to the front of the queue (L
 660:C:\Micrium\Software\uCOS-III\Source\os_q.c **** *                                                         a single waiting task.
 661:C:\Micrium\Software\uCOS-III\Source\os_q.c **** *                                OS_OPT_POST_NO_SCHED     Do not call the scheduler
 662:C:\Micrium\Software\uCOS-III\Source\os_q.c **** *
ARM GAS  C:\Users\daniel01\AppData\Local\Temp\cccGTwC2.s 			page 29


 663:C:\Micrium\Software\uCOS-III\Source\os_q.c **** *                            Note(s): 1) OS_OPT_POST_NO_SCHED can be added (or OR'd) with one of th
 664:C:\Micrium\Software\uCOS-III\Source\os_q.c **** *                                     2) OS_OPT_POST_ALL      can be added (or OR'd) with one of th
 665:C:\Micrium\Software\uCOS-III\Source\os_q.c **** *                                     3) Possible combination of options are:
 666:C:\Micrium\Software\uCOS-III\Source\os_q.c **** *
 667:C:\Micrium\Software\uCOS-III\Source\os_q.c **** *                                        OS_OPT_POST_FIFO
 668:C:\Micrium\Software\uCOS-III\Source\os_q.c **** *                                        OS_OPT_POST_LIFO
 669:C:\Micrium\Software\uCOS-III\Source\os_q.c **** *                                        OS_OPT_POST_FIFO + OS_OPT_POST_ALL
 670:C:\Micrium\Software\uCOS-III\Source\os_q.c **** *                                        OS_OPT_POST_LIFO + OS_OPT_POST_ALL
 671:C:\Micrium\Software\uCOS-III\Source\os_q.c **** *                                        OS_OPT_POST_FIFO + OS_OPT_POST_NO_SCHED
 672:C:\Micrium\Software\uCOS-III\Source\os_q.c **** *                                        OS_OPT_POST_LIFO + OS_OPT_POST_NO_SCHED
 673:C:\Micrium\Software\uCOS-III\Source\os_q.c **** *                                        OS_OPT_POST_FIFO + OS_OPT_POST_ALL + OS_OPT_POST_NO_SCHED
 674:C:\Micrium\Software\uCOS-III\Source\os_q.c **** *                                        OS_OPT_POST_LIFO + OS_OPT_POST_ALL + OS_OPT_POST_NO_SCHED
 675:C:\Micrium\Software\uCOS-III\Source\os_q.c **** *
 676:C:\Micrium\Software\uCOS-III\Source\os_q.c **** *              p_err         is a pointer to a variable that will contain an error code returned by
 677:C:\Micrium\Software\uCOS-III\Source\os_q.c **** *
 678:C:\Micrium\Software\uCOS-III\Source\os_q.c **** *                                OS_ERR_NONE            The call was successful and the message was
 679:C:\Micrium\Software\uCOS-III\Source\os_q.c **** *                                OS_ERR_MSG_POOL_EMPTY  If there are no more OS_MSGs to use to plac
 680:C:\Micrium\Software\uCOS-III\Source\os_q.c **** *                                OS_ERR_OBJ_PTR_NULL    If 'p_q' is a NULL pointer
 681:C:\Micrium\Software\uCOS-III\Source\os_q.c **** *                                OS_ERR_OBJ_TYPE        If the message queue was not initialized
 682:C:\Micrium\Software\uCOS-III\Source\os_q.c **** *                                OS_ERR_Q_MAX           If the queue is full
 683:C:\Micrium\Software\uCOS-III\Source\os_q.c **** *
 684:C:\Micrium\Software\uCOS-III\Source\os_q.c **** * Returns    : None
 685:C:\Micrium\Software\uCOS-III\Source\os_q.c **** ***************************************************************************************************
 686:C:\Micrium\Software\uCOS-III\Source\os_q.c **** */
 687:C:\Micrium\Software\uCOS-III\Source\os_q.c **** 
 688:C:\Micrium\Software\uCOS-III\Source\os_q.c **** void  OSQPost (OS_Q         *p_q,
 689:C:\Micrium\Software\uCOS-III\Source\os_q.c ****                void         *p_void,
 690:C:\Micrium\Software\uCOS-III\Source\os_q.c ****                OS_MSG_SIZE   msg_size,
 691:C:\Micrium\Software\uCOS-III\Source\os_q.c ****                OS_OPT        opt,
 692:C:\Micrium\Software\uCOS-III\Source\os_q.c ****                OS_ERR       *p_err)
 693:C:\Micrium\Software\uCOS-III\Source\os_q.c **** {
 931              		.loc 1 693 0
 932              		.cfi_startproc
 933              		@ args = 4, pretend = 0, frame = 24
 934              		@ frame_needed = 1, uses_anonymous_args = 0
 935 0000 80B5     		push	{r7, lr}
 936              	.LCFI15:
 937              		.cfi_def_cfa_offset 8
 938 0002 88B0     		sub	sp, sp, #32
 939              	.LCFI16:
 940              		.cfi_def_cfa_offset 40
 941 0004 02AF     		add	r7, sp, #8
 942              		.cfi_offset 14, -4
 943              		.cfi_offset 7, -8
 944              	.LCFI17:
 945              		.cfi_def_cfa 7, 32
 946 0006 F860     		str	r0, [r7, #12]
 947 0008 B960     		str	r1, [r7, #8]
 948 000a FA80     		strh	r2, [r7, #6]	@ movhi
 949 000c BB80     		strh	r3, [r7, #4]	@ movhi
 694:C:\Micrium\Software\uCOS-III\Source\os_q.c ****     CPU_TS  ts;
 695:C:\Micrium\Software\uCOS-III\Source\os_q.c **** 
 696:C:\Micrium\Software\uCOS-III\Source\os_q.c **** 
 697:C:\Micrium\Software\uCOS-III\Source\os_q.c **** 
 698:C:\Micrium\Software\uCOS-III\Source\os_q.c **** #ifdef OS_SAFETY_CRITICAL
 699:C:\Micrium\Software\uCOS-III\Source\os_q.c ****     if (p_err == (OS_ERR *)0) {
 700:C:\Micrium\Software\uCOS-III\Source\os_q.c ****         OS_SAFETY_CRITICAL_EXCEPTION();
ARM GAS  C:\Users\daniel01\AppData\Local\Temp\cccGTwC2.s 			page 30


 701:C:\Micrium\Software\uCOS-III\Source\os_q.c ****         return;
 702:C:\Micrium\Software\uCOS-III\Source\os_q.c ****     }
 703:C:\Micrium\Software\uCOS-III\Source\os_q.c **** #endif
 704:C:\Micrium\Software\uCOS-III\Source\os_q.c **** 
 705:C:\Micrium\Software\uCOS-III\Source\os_q.c **** #if OS_CFG_ARG_CHK_EN > 0u
 706:C:\Micrium\Software\uCOS-III\Source\os_q.c ****     if (p_q == (OS_Q *)0) {                                 /* Validate 'p_q'                      
 950              		.loc 1 706 0
 951 000e FB68     		ldr	r3, [r7, #12]
 952 0010 002B     		cmp	r3, #0
 953 0012 04D1     		bne	.L70
 707:C:\Micrium\Software\uCOS-III\Source\os_q.c ****        *p_err = OS_ERR_OBJ_PTR_NULL;
 954              		.loc 1 707 0
 955 0014 3B6A     		ldr	r3, [r7, #32]
 956 0016 45F6C352 		movw	r2, #24003
 957 001a 1A80     		strh	r2, [r3, #0]	@ movhi
 708:C:\Micrium\Software\uCOS-III\Source\os_q.c ****         return;
 958              		.loc 1 708 0
 959 001c 35E0     		b	.L76
 960              	.L70:
 709:C:\Micrium\Software\uCOS-III\Source\os_q.c ****     }
 710:C:\Micrium\Software\uCOS-III\Source\os_q.c ****     switch (opt) {                                          /* Validate 'opt'                      
 961              		.loc 1 710 0
 962 001e BB88     		ldrh	r3, [r7, #4]
 963 0020 B3F5047F 		cmp	r3, #528
 964 0024 1DD0     		beq	.L73
 965 0026 B3F5047F 		cmp	r3, #528
 966 002a 07DC     		bgt	.L74
 967 002c 102B     		cmp	r3, #16
 968 002e 18D0     		beq	.L73
 969 0030 B3F5007F 		cmp	r3, #512
 970 0034 15D0     		beq	.L73
 971 0036 002B     		cmp	r3, #0
 972 0038 13D0     		beq	.L73
 973 003a 21E0     		b	.L72
 974              	.L74:
 975 003c 48F21002 		movw	r2, #32784
 976 0040 9342     		cmp	r3, r2
 977 0042 0ED0     		beq	.L73
 978 0044 48F21002 		movw	r2, #32784
 979 0048 9342     		cmp	r3, r2
 980 004a 03DC     		bgt	.L75
 981 004c B3F5004F 		cmp	r3, #32768
 982 0050 07D0     		beq	.L73
 983 0052 15E0     		b	.L72
 984              	.L75:
 985 0054 B3F5024F 		cmp	r3, #33280
 986 0058 03D0     		beq	.L73
 987 005a 48F21022 		movw	r2, #33296
 988 005e 9342     		cmp	r3, r2
 989 0060 0ED1     		bne	.L72
 990              	.L73:
 711:C:\Micrium\Software\uCOS-III\Source\os_q.c ****         case OS_OPT_POST_FIFO:
 712:C:\Micrium\Software\uCOS-III\Source\os_q.c ****         case OS_OPT_POST_LIFO:
 713:C:\Micrium\Software\uCOS-III\Source\os_q.c ****         case OS_OPT_POST_FIFO | OS_OPT_POST_ALL:
 714:C:\Micrium\Software\uCOS-III\Source\os_q.c ****         case OS_OPT_POST_LIFO | OS_OPT_POST_ALL:
 715:C:\Micrium\Software\uCOS-III\Source\os_q.c ****         case OS_OPT_POST_FIFO | OS_OPT_POST_NO_SCHED:
 716:C:\Micrium\Software\uCOS-III\Source\os_q.c ****         case OS_OPT_POST_LIFO | OS_OPT_POST_NO_SCHED:
ARM GAS  C:\Users\daniel01\AppData\Local\Temp\cccGTwC2.s 			page 31


 717:C:\Micrium\Software\uCOS-III\Source\os_q.c ****         case OS_OPT_POST_FIFO | OS_OPT_POST_ALL | OS_OPT_POST_NO_SCHED:
 718:C:\Micrium\Software\uCOS-III\Source\os_q.c ****         case OS_OPT_POST_LIFO | OS_OPT_POST_ALL | OS_OPT_POST_NO_SCHED:
 719:C:\Micrium\Software\uCOS-III\Source\os_q.c ****              break;
 720:C:\Micrium\Software\uCOS-III\Source\os_q.c **** 
 721:C:\Micrium\Software\uCOS-III\Source\os_q.c ****         default:
 722:C:\Micrium\Software\uCOS-III\Source\os_q.c ****             *p_err =  OS_ERR_OPT_INVALID;
 723:C:\Micrium\Software\uCOS-III\Source\os_q.c ****              return;
 724:C:\Micrium\Software\uCOS-III\Source\os_q.c ****     }
 725:C:\Micrium\Software\uCOS-III\Source\os_q.c **** #endif
 726:C:\Micrium\Software\uCOS-III\Source\os_q.c **** 
 727:C:\Micrium\Software\uCOS-III\Source\os_q.c **** #if OS_CFG_OBJ_TYPE_CHK_EN > 0u
 728:C:\Micrium\Software\uCOS-III\Source\os_q.c ****     if (p_q->Type != OS_OBJ_TYPE_Q) {                       /* Make sure message queue was created 
 729:C:\Micrium\Software\uCOS-III\Source\os_q.c ****        *p_err = OS_ERR_OBJ_TYPE;
 730:C:\Micrium\Software\uCOS-III\Source\os_q.c ****         return;
 731:C:\Micrium\Software\uCOS-III\Source\os_q.c ****     }
 732:C:\Micrium\Software\uCOS-III\Source\os_q.c **** #endif
 733:C:\Micrium\Software\uCOS-III\Source\os_q.c **** 
 734:C:\Micrium\Software\uCOS-III\Source\os_q.c ****     ts = OS_TS_GET();                                       /* Get timestamp                       
 991              		.loc 1 734 0
 992 0062 FFF7FEFF 		bl	CPU_TS_TmrRd
 993 0066 0346     		mov	r3, r0
 994 0068 7B61     		str	r3, [r7, #20]
 735:C:\Micrium\Software\uCOS-III\Source\os_q.c **** 
 736:C:\Micrium\Software\uCOS-III\Source\os_q.c **** #if OS_CFG_ISR_POST_DEFERRED_EN > 0u
 737:C:\Micrium\Software\uCOS-III\Source\os_q.c ****     if (OSIntNestingCtr > (OS_NESTING_CTR)0) {
 738:C:\Micrium\Software\uCOS-III\Source\os_q.c ****         OS_IntQPost((OS_OBJ_TYPE)OS_OBJ_TYPE_Q,             /* Post to ISR queue                   
 739:C:\Micrium\Software\uCOS-III\Source\os_q.c ****                     (void      *)p_q,
 740:C:\Micrium\Software\uCOS-III\Source\os_q.c ****                     (void      *)p_void,
 741:C:\Micrium\Software\uCOS-III\Source\os_q.c ****                     (OS_MSG_SIZE)msg_size,
 742:C:\Micrium\Software\uCOS-III\Source\os_q.c ****                     (OS_FLAGS   )0,
 743:C:\Micrium\Software\uCOS-III\Source\os_q.c ****                     (OS_OPT     )opt,
 744:C:\Micrium\Software\uCOS-III\Source\os_q.c ****                     (CPU_TS     )ts,
 745:C:\Micrium\Software\uCOS-III\Source\os_q.c ****                     (OS_ERR    *)p_err);
 746:C:\Micrium\Software\uCOS-III\Source\os_q.c ****         return;
 747:C:\Micrium\Software\uCOS-III\Source\os_q.c ****     }
 748:C:\Micrium\Software\uCOS-III\Source\os_q.c **** #endif
 749:C:\Micrium\Software\uCOS-III\Source\os_q.c **** 
 750:C:\Micrium\Software\uCOS-III\Source\os_q.c ****     OS_QPost(p_q,
 995              		.loc 1 750 0
 996 006a FA88     		ldrh	r2, [r7, #6]
 997 006c BB88     		ldrh	r3, [r7, #4]
 998 006e 7969     		ldr	r1, [r7, #20]
 999 0070 0091     		str	r1, [sp, #0]
 1000 0072 396A     		ldr	r1, [r7, #32]
 1001 0074 0191     		str	r1, [sp, #4]
 1002 0076 F868     		ldr	r0, [r7, #12]
 1003 0078 B968     		ldr	r1, [r7, #8]
 1004 007a FFF7FEFF 		bl	OS_QPost
 1005 007e 04E0     		b	.L76
 1006              	.L72:
 1007              		.loc 1 722 0
 1008 0080 3B6A     		ldr	r3, [r7, #32]
 1009 0082 45F62562 		movw	r2, #24101
 1010 0086 1A80     		strh	r2, [r3, #0]	@ movhi
 1011              		.loc 1 723 0
 1012 0088 00BF     		nop
 1013              	.L76:
ARM GAS  C:\Users\daniel01\AppData\Local\Temp\cccGTwC2.s 			page 32


 751:C:\Micrium\Software\uCOS-III\Source\os_q.c ****              p_void,
 752:C:\Micrium\Software\uCOS-III\Source\os_q.c ****              msg_size,
 753:C:\Micrium\Software\uCOS-III\Source\os_q.c ****              opt,
 754:C:\Micrium\Software\uCOS-III\Source\os_q.c ****              ts,
 755:C:\Micrium\Software\uCOS-III\Source\os_q.c ****              p_err);
 756:C:\Micrium\Software\uCOS-III\Source\os_q.c **** }
 1014              		.loc 1 756 0
 1015 008a 07F11807 		add	r7, r7, #24
 1016 008e BD46     		mov	sp, r7
 1017 0090 80BD     		pop	{r7, pc}
 1018              		.cfi_endproc
 1019              	.LFE5:
 1020              		.size	OSQPost, .-OSQPost
 1021 0092 00BF     		.section	.rodata
 1022              		.align	2
 1023              	.LC0:
 1024 0000 3F5100   		.ascii	"?Q\000"
 1025              		.section	.text.OS_QClr,"ax",%progbits
 1026              		.align	2
 1027              		.global	OS_QClr
 1028              		.thumb
 1029              		.thumb_func
 1030              		.type	OS_QClr, %function
 1031              	OS_QClr:
 1032              	.LFB6:
 757:C:\Micrium\Software\uCOS-III\Source\os_q.c **** 
 758:C:\Micrium\Software\uCOS-III\Source\os_q.c **** /*$PAGE*/
 759:C:\Micrium\Software\uCOS-III\Source\os_q.c **** /*
 760:C:\Micrium\Software\uCOS-III\Source\os_q.c **** ***************************************************************************************************
 761:C:\Micrium\Software\uCOS-III\Source\os_q.c **** *                                        CLEAR THE CONTENTS OF A MESSAGE QUEUE
 762:C:\Micrium\Software\uCOS-III\Source\os_q.c **** *
 763:C:\Micrium\Software\uCOS-III\Source\os_q.c **** * Description: This function is called by OSQDel() to clear the contents of a message queue
 764:C:\Micrium\Software\uCOS-III\Source\os_q.c **** *
 765:C:\Micrium\Software\uCOS-III\Source\os_q.c **** 
 766:C:\Micrium\Software\uCOS-III\Source\os_q.c **** * Argument(s): p_q      is a pointer to the queue to clear
 767:C:\Micrium\Software\uCOS-III\Source\os_q.c **** *              ---
 768:C:\Micrium\Software\uCOS-III\Source\os_q.c **** *
 769:C:\Micrium\Software\uCOS-III\Source\os_q.c **** * Returns    : none
 770:C:\Micrium\Software\uCOS-III\Source\os_q.c **** *
 771:C:\Micrium\Software\uCOS-III\Source\os_q.c **** * Note(s)    : 1) This function is INTERNAL to uC/OS-III and your application MUST NOT call it.
 772:C:\Micrium\Software\uCOS-III\Source\os_q.c **** ***************************************************************************************************
 773:C:\Micrium\Software\uCOS-III\Source\os_q.c **** */
 774:C:\Micrium\Software\uCOS-III\Source\os_q.c **** 
 775:C:\Micrium\Software\uCOS-III\Source\os_q.c **** void  OS_QClr (OS_Q  *p_q)
 776:C:\Micrium\Software\uCOS-III\Source\os_q.c **** {
 1033              		.loc 1 776 0
 1034              		.cfi_startproc
 1035              		@ args = 0, pretend = 0, frame = 8
 1036              		@ frame_needed = 1, uses_anonymous_args = 0
 1037 0000 80B5     		push	{r7, lr}
 1038              	.LCFI18:
 1039              		.cfi_def_cfa_offset 8
 1040 0002 82B0     		sub	sp, sp, #8
 1041              	.LCFI19:
 1042              		.cfi_def_cfa_offset 16
 1043 0004 00AF     		add	r7, sp, #0
 1044              		.cfi_offset 14, -4
ARM GAS  C:\Users\daniel01\AppData\Local\Temp\cccGTwC2.s 			page 33


 1045              		.cfi_offset 7, -8
 1046              	.LCFI20:
 1047              		.cfi_def_cfa_register 7
 1048 0006 7860     		str	r0, [r7, #4]
 777:C:\Micrium\Software\uCOS-III\Source\os_q.c ****     (void)OS_MsgQFreeAll(&p_q->MsgQ);                       /* Return all OS_MSGs to the free list 
 1049              		.loc 1 777 0
 1050 0008 7B68     		ldr	r3, [r7, #4]
 1051 000a 03F12003 		add	r3, r3, #32
 1052 000e 1846     		mov	r0, r3
 1053 0010 FFF7FEFF 		bl	OS_MsgQFreeAll
 778:C:\Micrium\Software\uCOS-III\Source\os_q.c ****     p_q->Type    =  OS_OBJ_TYPE_NONE;                       /* Mark the data structure as a NONE   
 1054              		.loc 1 778 0
 1055 0014 7A68     		ldr	r2, [r7, #4]
 1056 0016 44F64E73 		movw	r3, #:lower16:1162760014
 1057 001a C4F24E53 		movt	r3, #:upper16:1162760014
 1058 001e 1360     		str	r3, [r2, #0]
 779:C:\Micrium\Software\uCOS-III\Source\os_q.c ****     p_q->NamePtr = (CPU_CHAR *)((void *)"?Q");
 1059              		.loc 1 779 0
 1060 0020 7A68     		ldr	r2, [r7, #4]
 1061 0022 40F20003 		movw	r3, #:lower16:.LC0
 1062 0026 C0F20003 		movt	r3, #:upper16:.LC0
 1063 002a 5360     		str	r3, [r2, #4]
 780:C:\Micrium\Software\uCOS-III\Source\os_q.c ****     OS_MsgQInit(&p_q->MsgQ,                                 /* Initialize the list of OS_MSGs      
 1064              		.loc 1 780 0
 1065 002c 7B68     		ldr	r3, [r7, #4]
 1066 002e 03F12003 		add	r3, r3, #32
 1067 0032 1846     		mov	r0, r3
 1068 0034 4FF00001 		mov	r1, #0
 1069 0038 FFF7FEFF 		bl	OS_MsgQInit
 781:C:\Micrium\Software\uCOS-III\Source\os_q.c ****                 0u);
 782:C:\Micrium\Software\uCOS-III\Source\os_q.c ****     OS_PendListInit(&p_q->PendList);                        /* Initialize the waiting list         
 1070              		.loc 1 782 0
 1071 003c 7B68     		ldr	r3, [r7, #4]
 1072 003e 03F10803 		add	r3, r3, #8
 1073 0042 1846     		mov	r0, r3
 1074 0044 FFF7FEFF 		bl	OS_PendListInit
 783:C:\Micrium\Software\uCOS-III\Source\os_q.c **** }
 1075              		.loc 1 783 0
 1076 0048 07F10807 		add	r7, r7, #8
 1077 004c BD46     		mov	sp, r7
 1078 004e 80BD     		pop	{r7, pc}
 1079              		.cfi_endproc
 1080              	.LFE6:
 1081              		.size	OS_QClr, .-OS_QClr
 1082              		.section	.rodata
 1083 0003 00       		.align	2
 1084              	.LC1:
 1085 0004 2000     		.ascii	" \000"
 1086 0006 0000     		.section	.text.OS_QDbgListAdd,"ax",%progbits
 1087              		.align	2
 1088              		.global	OS_QDbgListAdd
 1089              		.thumb
 1090              		.thumb_func
 1091              		.type	OS_QDbgListAdd, %function
 1092              	OS_QDbgListAdd:
 1093              	.LFB7:
 784:C:\Micrium\Software\uCOS-III\Source\os_q.c **** 
ARM GAS  C:\Users\daniel01\AppData\Local\Temp\cccGTwC2.s 			page 34


 785:C:\Micrium\Software\uCOS-III\Source\os_q.c **** /*$PAGE*/
 786:C:\Micrium\Software\uCOS-III\Source\os_q.c **** /*
 787:C:\Micrium\Software\uCOS-III\Source\os_q.c **** ***************************************************************************************************
 788:C:\Micrium\Software\uCOS-III\Source\os_q.c **** *                                      ADD/REMOVE MESSAGE QUEUE TO/FROM DEBUG LIST
 789:C:\Micrium\Software\uCOS-III\Source\os_q.c **** *
 790:C:\Micrium\Software\uCOS-III\Source\os_q.c **** * Description: These functions are called by uC/OS-III to add or remove a message queue to/from a m
 791:C:\Micrium\Software\uCOS-III\Source\os_q.c **** *              list.
 792:C:\Micrium\Software\uCOS-III\Source\os_q.c **** *
 793:C:\Micrium\Software\uCOS-III\Source\os_q.c **** * Arguments  : p_q     is a pointer to the message queue to add/remove
 794:C:\Micrium\Software\uCOS-III\Source\os_q.c **** *
 795:C:\Micrium\Software\uCOS-III\Source\os_q.c **** * Returns    : none
 796:C:\Micrium\Software\uCOS-III\Source\os_q.c **** *
 797:C:\Micrium\Software\uCOS-III\Source\os_q.c **** * Note(s)    : These functions are INTERNAL to uC/OS-III and your application should not call it.
 798:C:\Micrium\Software\uCOS-III\Source\os_q.c **** ***************************************************************************************************
 799:C:\Micrium\Software\uCOS-III\Source\os_q.c **** */
 800:C:\Micrium\Software\uCOS-III\Source\os_q.c **** 
 801:C:\Micrium\Software\uCOS-III\Source\os_q.c **** 
 802:C:\Micrium\Software\uCOS-III\Source\os_q.c **** #if OS_CFG_DBG_EN > 0u
 803:C:\Micrium\Software\uCOS-III\Source\os_q.c **** void  OS_QDbgListAdd (OS_Q  *p_q)
 804:C:\Micrium\Software\uCOS-III\Source\os_q.c **** {
 1094              		.loc 1 804 0
 1095              		.cfi_startproc
 1096              		@ args = 0, pretend = 0, frame = 8
 1097              		@ frame_needed = 1, uses_anonymous_args = 0
 1098              		@ link register save eliminated.
 1099 0000 80B4     		push	{r7}
 1100              	.LCFI21:
 1101              		.cfi_def_cfa_offset 4
 1102 0002 83B0     		sub	sp, sp, #12
 1103              	.LCFI22:
 1104              		.cfi_def_cfa_offset 16
 1105 0004 00AF     		add	r7, sp, #0
 1106              		.cfi_offset 7, -4
 1107              	.LCFI23:
 1108              		.cfi_def_cfa_register 7
 1109 0006 7860     		str	r0, [r7, #4]
 805:C:\Micrium\Software\uCOS-III\Source\os_q.c ****     p_q->DbgNamePtr               = (CPU_CHAR *)((void *)" ");
 1110              		.loc 1 805 0
 1111 0008 7A68     		ldr	r2, [r7, #4]
 1112 000a 40F20003 		movw	r3, #:lower16:.LC1
 1113 000e C0F20003 		movt	r3, #:upper16:.LC1
 1114 0012 D361     		str	r3, [r2, #28]
 806:C:\Micrium\Software\uCOS-III\Source\os_q.c ****     p_q->DbgPrevPtr               = (OS_Q     *)0;
 1115              		.loc 1 806 0
 1116 0014 7B68     		ldr	r3, [r7, #4]
 1117 0016 4FF00002 		mov	r2, #0
 1118 001a 5A61     		str	r2, [r3, #20]
 807:C:\Micrium\Software\uCOS-III\Source\os_q.c ****     if (OSQDbgListPtr == (OS_Q *)0) {
 1119              		.loc 1 807 0
 1120 001c 40F20003 		movw	r3, #:lower16:OSQDbgListPtr
 1121 0020 C0F20003 		movt	r3, #:upper16:OSQDbgListPtr
 1122 0024 1B68     		ldr	r3, [r3, #0]
 1123 0026 002B     		cmp	r3, #0
 1124 0028 04D1     		bne	.L80
 808:C:\Micrium\Software\uCOS-III\Source\os_q.c ****         p_q->DbgNextPtr           = (OS_Q     *)0;
 1125              		.loc 1 808 0
 1126 002a 7B68     		ldr	r3, [r7, #4]
ARM GAS  C:\Users\daniel01\AppData\Local\Temp\cccGTwC2.s 			page 35


 1127 002c 4FF00002 		mov	r2, #0
 1128 0030 9A61     		str	r2, [r3, #24]
 1129 0032 0DE0     		b	.L81
 1130              	.L80:
 809:C:\Micrium\Software\uCOS-III\Source\os_q.c ****     } else {
 810:C:\Micrium\Software\uCOS-III\Source\os_q.c ****         p_q->DbgNextPtr           =  OSQDbgListPtr;
 1131              		.loc 1 810 0
 1132 0034 40F20003 		movw	r3, #:lower16:OSQDbgListPtr
 1133 0038 C0F20003 		movt	r3, #:upper16:OSQDbgListPtr
 1134 003c 1A68     		ldr	r2, [r3, #0]
 1135 003e 7B68     		ldr	r3, [r7, #4]
 1136 0040 9A61     		str	r2, [r3, #24]
 811:C:\Micrium\Software\uCOS-III\Source\os_q.c ****         OSQDbgListPtr->DbgPrevPtr =  p_q;
 1137              		.loc 1 811 0
 1138 0042 40F20003 		movw	r3, #:lower16:OSQDbgListPtr
 1139 0046 C0F20003 		movt	r3, #:upper16:OSQDbgListPtr
 1140 004a 1B68     		ldr	r3, [r3, #0]
 1141 004c 7A68     		ldr	r2, [r7, #4]
 1142 004e 5A61     		str	r2, [r3, #20]
 1143              	.L81:
 812:C:\Micrium\Software\uCOS-III\Source\os_q.c ****     }
 813:C:\Micrium\Software\uCOS-III\Source\os_q.c ****     OSQDbgListPtr                 =  p_q;
 1144              		.loc 1 813 0
 1145 0050 40F20003 		movw	r3, #:lower16:OSQDbgListPtr
 1146 0054 C0F20003 		movt	r3, #:upper16:OSQDbgListPtr
 1147 0058 7A68     		ldr	r2, [r7, #4]
 1148 005a 1A60     		str	r2, [r3, #0]
 814:C:\Micrium\Software\uCOS-III\Source\os_q.c **** }
 1149              		.loc 1 814 0
 1150 005c 07F10C07 		add	r7, r7, #12
 1151 0060 BD46     		mov	sp, r7
 1152 0062 80BC     		pop	{r7}
 1153 0064 7047     		bx	lr
 1154              		.cfi_endproc
 1155              	.LFE7:
 1156              		.size	OS_QDbgListAdd, .-OS_QDbgListAdd
 1157 0066 00BF     		.section	.text.OS_QDbgListRemove,"ax",%progbits
 1158              		.align	2
 1159              		.global	OS_QDbgListRemove
 1160              		.thumb
 1161              		.thumb_func
 1162              		.type	OS_QDbgListRemove, %function
 1163              	OS_QDbgListRemove:
 1164              	.LFB8:
 815:C:\Micrium\Software\uCOS-III\Source\os_q.c **** 
 816:C:\Micrium\Software\uCOS-III\Source\os_q.c **** 
 817:C:\Micrium\Software\uCOS-III\Source\os_q.c **** 
 818:C:\Micrium\Software\uCOS-III\Source\os_q.c **** void  OS_QDbgListRemove (OS_Q  *p_q)
 819:C:\Micrium\Software\uCOS-III\Source\os_q.c **** {
 1165              		.loc 1 819 0
 1166              		.cfi_startproc
 1167              		@ args = 0, pretend = 0, frame = 16
 1168              		@ frame_needed = 1, uses_anonymous_args = 0
 1169              		@ link register save eliminated.
 1170 0000 80B4     		push	{r7}
 1171              	.LCFI24:
 1172              		.cfi_def_cfa_offset 4
ARM GAS  C:\Users\daniel01\AppData\Local\Temp\cccGTwC2.s 			page 36


 1173 0002 85B0     		sub	sp, sp, #20
 1174              	.LCFI25:
 1175              		.cfi_def_cfa_offset 24
 1176 0004 00AF     		add	r7, sp, #0
 1177              		.cfi_offset 7, -4
 1178              	.LCFI26:
 1179              		.cfi_def_cfa_register 7
 1180 0006 7860     		str	r0, [r7, #4]
 820:C:\Micrium\Software\uCOS-III\Source\os_q.c ****     OS_Q  *p_q_next;
 821:C:\Micrium\Software\uCOS-III\Source\os_q.c ****     OS_Q  *p_q_prev;
 822:C:\Micrium\Software\uCOS-III\Source\os_q.c **** 
 823:C:\Micrium\Software\uCOS-III\Source\os_q.c **** 
 824:C:\Micrium\Software\uCOS-III\Source\os_q.c ****     p_q_prev = p_q->DbgPrevPtr;
 1181              		.loc 1 824 0
 1182 0008 7B68     		ldr	r3, [r7, #4]
 1183 000a 5B69     		ldr	r3, [r3, #20]
 1184 000c FB60     		str	r3, [r7, #12]
 825:C:\Micrium\Software\uCOS-III\Source\os_q.c ****     p_q_next = p_q->DbgNextPtr;
 1185              		.loc 1 825 0
 1186 000e 7B68     		ldr	r3, [r7, #4]
 1187 0010 9B69     		ldr	r3, [r3, #24]
 1188 0012 BB60     		str	r3, [r7, #8]
 826:C:\Micrium\Software\uCOS-III\Source\os_q.c **** 
 827:C:\Micrium\Software\uCOS-III\Source\os_q.c ****     if (p_q_prev == (OS_Q *)0) {
 1189              		.loc 1 827 0
 1190 0014 FB68     		ldr	r3, [r7, #12]
 1191 0016 002B     		cmp	r3, #0
 1192 0018 11D1     		bne	.L84
 828:C:\Micrium\Software\uCOS-III\Source\os_q.c ****         OSQDbgListPtr = p_q_next;
 1193              		.loc 1 828 0
 1194 001a 40F20003 		movw	r3, #:lower16:OSQDbgListPtr
 1195 001e C0F20003 		movt	r3, #:upper16:OSQDbgListPtr
 1196 0022 BA68     		ldr	r2, [r7, #8]
 1197 0024 1A60     		str	r2, [r3, #0]
 829:C:\Micrium\Software\uCOS-III\Source\os_q.c ****         if (p_q_next != (OS_Q *)0) {
 1198              		.loc 1 829 0
 1199 0026 BB68     		ldr	r3, [r7, #8]
 1200 0028 002B     		cmp	r3, #0
 1201 002a 03D0     		beq	.L85
 830:C:\Micrium\Software\uCOS-III\Source\os_q.c ****             p_q_next->DbgPrevPtr = (OS_Q *)0;
 1202              		.loc 1 830 0
 1203 002c BB68     		ldr	r3, [r7, #8]
 1204 002e 4FF00002 		mov	r2, #0
 1205 0032 5A61     		str	r2, [r3, #20]
 1206              	.L85:
 831:C:\Micrium\Software\uCOS-III\Source\os_q.c ****         }
 832:C:\Micrium\Software\uCOS-III\Source\os_q.c ****         p_q->DbgNextPtr = (OS_Q *)0;
 1207              		.loc 1 832 0
 1208 0034 7B68     		ldr	r3, [r7, #4]
 1209 0036 4FF00002 		mov	r2, #0
 1210 003a 9A61     		str	r2, [r3, #24]
 1211 003c 19E0     		b	.L88
 1212              	.L84:
 833:C:\Micrium\Software\uCOS-III\Source\os_q.c **** 
 834:C:\Micrium\Software\uCOS-III\Source\os_q.c ****     } else if (p_q_next == (OS_Q *)0) {
 1213              		.loc 1 834 0
 1214 003e BB68     		ldr	r3, [r7, #8]
ARM GAS  C:\Users\daniel01\AppData\Local\Temp\cccGTwC2.s 			page 37


 1215 0040 002B     		cmp	r3, #0
 1216 0042 08D1     		bne	.L87
 835:C:\Micrium\Software\uCOS-III\Source\os_q.c ****         p_q_prev->DbgNextPtr = (OS_Q *)0;
 1217              		.loc 1 835 0
 1218 0044 FB68     		ldr	r3, [r7, #12]
 1219 0046 4FF00002 		mov	r2, #0
 1220 004a 9A61     		str	r2, [r3, #24]
 836:C:\Micrium\Software\uCOS-III\Source\os_q.c ****         p_q->DbgPrevPtr      = (OS_Q *)0;
 1221              		.loc 1 836 0
 1222 004c 7B68     		ldr	r3, [r7, #4]
 1223 004e 4FF00002 		mov	r2, #0
 1224 0052 5A61     		str	r2, [r3, #20]
 1225 0054 0DE0     		b	.L88
 1226              	.L87:
 837:C:\Micrium\Software\uCOS-III\Source\os_q.c **** 
 838:C:\Micrium\Software\uCOS-III\Source\os_q.c ****     } else {
 839:C:\Micrium\Software\uCOS-III\Source\os_q.c ****         p_q_prev->DbgNextPtr =  p_q_next;
 1227              		.loc 1 839 0
 1228 0056 FB68     		ldr	r3, [r7, #12]
 1229 0058 BA68     		ldr	r2, [r7, #8]
 1230 005a 9A61     		str	r2, [r3, #24]
 840:C:\Micrium\Software\uCOS-III\Source\os_q.c ****         p_q_next->DbgPrevPtr =  p_q_prev;
 1231              		.loc 1 840 0
 1232 005c BB68     		ldr	r3, [r7, #8]
 1233 005e FA68     		ldr	r2, [r7, #12]
 1234 0060 5A61     		str	r2, [r3, #20]
 841:C:\Micrium\Software\uCOS-III\Source\os_q.c ****         p_q->DbgNextPtr      = (OS_Q *)0;
 1235              		.loc 1 841 0
 1236 0062 7B68     		ldr	r3, [r7, #4]
 1237 0064 4FF00002 		mov	r2, #0
 1238 0068 9A61     		str	r2, [r3, #24]
 842:C:\Micrium\Software\uCOS-III\Source\os_q.c ****         p_q->DbgPrevPtr      = (OS_Q *)0;
 1239              		.loc 1 842 0
 1240 006a 7B68     		ldr	r3, [r7, #4]
 1241 006c 4FF00002 		mov	r2, #0
 1242 0070 5A61     		str	r2, [r3, #20]
 1243              	.L88:
 843:C:\Micrium\Software\uCOS-III\Source\os_q.c ****     }
 844:C:\Micrium\Software\uCOS-III\Source\os_q.c **** }
 1244              		.loc 1 844 0
 1245 0072 07F11407 		add	r7, r7, #20
 1246 0076 BD46     		mov	sp, r7
 1247 0078 80BC     		pop	{r7}
 1248 007a 7047     		bx	lr
 1249              		.cfi_endproc
 1250              	.LFE8:
 1251              		.size	OS_QDbgListRemove, .-OS_QDbgListRemove
 1252              		.section	.text.OS_QInit,"ax",%progbits
 1253              		.align	2
 1254              		.global	OS_QInit
 1255              		.thumb
 1256              		.thumb_func
 1257              		.type	OS_QInit, %function
 1258              	OS_QInit:
 1259              	.LFB9:
 845:C:\Micrium\Software\uCOS-III\Source\os_q.c **** #endif
 846:C:\Micrium\Software\uCOS-III\Source\os_q.c **** 
ARM GAS  C:\Users\daniel01\AppData\Local\Temp\cccGTwC2.s 			page 38


 847:C:\Micrium\Software\uCOS-III\Source\os_q.c **** /*$PAGE*/
 848:C:\Micrium\Software\uCOS-III\Source\os_q.c **** /*
 849:C:\Micrium\Software\uCOS-III\Source\os_q.c **** ***************************************************************************************************
 850:C:\Micrium\Software\uCOS-III\Source\os_q.c **** *                                              MESSAGE QUEUE INITIALIZATION
 851:C:\Micrium\Software\uCOS-III\Source\os_q.c **** *
 852:C:\Micrium\Software\uCOS-III\Source\os_q.c **** * Description: This function is called by OSInit() to initialize the message queue management.
 853:C:\Micrium\Software\uCOS-III\Source\os_q.c **** *
 854:C:\Micrium\Software\uCOS-III\Source\os_q.c **** 
 855:C:\Micrium\Software\uCOS-III\Source\os_q.c **** * Arguments  : p_err         is a pointer to a variable that will receive an error code.
 856:C:\Micrium\Software\uCOS-III\Source\os_q.c **** *
 857:C:\Micrium\Software\uCOS-III\Source\os_q.c **** *                                OS_ERR_NONE     the call was successful
 858:C:\Micrium\Software\uCOS-III\Source\os_q.c **** *
 859:C:\Micrium\Software\uCOS-III\Source\os_q.c **** * Returns    : none
 860:C:\Micrium\Software\uCOS-III\Source\os_q.c **** *
 861:C:\Micrium\Software\uCOS-III\Source\os_q.c **** * Note(s)    : 1) This function is INTERNAL to uC/OS-III and your application MUST NOT call it.
 862:C:\Micrium\Software\uCOS-III\Source\os_q.c **** ***************************************************************************************************
 863:C:\Micrium\Software\uCOS-III\Source\os_q.c **** */
 864:C:\Micrium\Software\uCOS-III\Source\os_q.c **** 
 865:C:\Micrium\Software\uCOS-III\Source\os_q.c **** void  OS_QInit (OS_ERR  *p_err)
 866:C:\Micrium\Software\uCOS-III\Source\os_q.c **** {
 1260              		.loc 1 866 0
 1261              		.cfi_startproc
 1262              		@ args = 0, pretend = 0, frame = 8
 1263              		@ frame_needed = 1, uses_anonymous_args = 0
 1264              		@ link register save eliminated.
 1265 0000 80B4     		push	{r7}
 1266              	.LCFI27:
 1267              		.cfi_def_cfa_offset 4
 1268 0002 83B0     		sub	sp, sp, #12
 1269              	.LCFI28:
 1270              		.cfi_def_cfa_offset 16
 1271 0004 00AF     		add	r7, sp, #0
 1272              		.cfi_offset 7, -4
 1273              	.LCFI29:
 1274              		.cfi_def_cfa_register 7
 1275 0006 7860     		str	r0, [r7, #4]
 867:C:\Micrium\Software\uCOS-III\Source\os_q.c **** #ifdef OS_SAFETY_CRITICAL
 868:C:\Micrium\Software\uCOS-III\Source\os_q.c ****     if (p_err == (OS_ERR *)0) {
 869:C:\Micrium\Software\uCOS-III\Source\os_q.c ****         OS_SAFETY_CRITICAL_EXCEPTION();
 870:C:\Micrium\Software\uCOS-III\Source\os_q.c ****         return;
 871:C:\Micrium\Software\uCOS-III\Source\os_q.c ****     }
 872:C:\Micrium\Software\uCOS-III\Source\os_q.c **** #endif
 873:C:\Micrium\Software\uCOS-III\Source\os_q.c **** 
 874:C:\Micrium\Software\uCOS-III\Source\os_q.c **** #if OS_CFG_DBG_EN > 0u
 875:C:\Micrium\Software\uCOS-III\Source\os_q.c ****     OSQDbgListPtr = (OS_Q *)0;
 1276              		.loc 1 875 0
 1277 0008 40F20003 		movw	r3, #:lower16:OSQDbgListPtr
 1278 000c C0F20003 		movt	r3, #:upper16:OSQDbgListPtr
 1279 0010 4FF00002 		mov	r2, #0
 1280 0014 1A60     		str	r2, [r3, #0]
 876:C:\Micrium\Software\uCOS-III\Source\os_q.c **** #endif
 877:C:\Micrium\Software\uCOS-III\Source\os_q.c **** 
 878:C:\Micrium\Software\uCOS-III\Source\os_q.c ****     OSQQty        = (OS_OBJ_QTY)0;
 1281              		.loc 1 878 0
 1282 0016 40F20003 		movw	r3, #:lower16:OSQQty
 1283 001a C0F20003 		movt	r3, #:upper16:OSQQty
 1284 001e 4FF00002 		mov	r2, #0
ARM GAS  C:\Users\daniel01\AppData\Local\Temp\cccGTwC2.s 			page 39


 1285 0022 1A80     		strh	r2, [r3, #0]	@ movhi
 879:C:\Micrium\Software\uCOS-III\Source\os_q.c ****    *p_err         = OS_ERR_NONE;
 1286              		.loc 1 879 0
 1287 0024 7B68     		ldr	r3, [r7, #4]
 1288 0026 4FF00002 		mov	r2, #0
 1289 002a 1A80     		strh	r2, [r3, #0]	@ movhi
 880:C:\Micrium\Software\uCOS-III\Source\os_q.c **** }
 1290              		.loc 1 880 0
 1291 002c 07F10C07 		add	r7, r7, #12
 1292 0030 BD46     		mov	sp, r7
 1293 0032 80BC     		pop	{r7}
 1294 0034 7047     		bx	lr
 1295              		.cfi_endproc
 1296              	.LFE9:
 1297              		.size	OS_QInit, .-OS_QInit
 1298 0036 00BF     		.section	.text.OS_QPost,"ax",%progbits
 1299              		.align	2
 1300              		.global	OS_QPost
 1301              		.thumb
 1302              		.thumb_func
 1303              		.type	OS_QPost, %function
 1304              	OS_QPost:
 1305              	.LFB10:
 881:C:\Micrium\Software\uCOS-III\Source\os_q.c **** 
 882:C:\Micrium\Software\uCOS-III\Source\os_q.c **** /*$PAGE*/
 883:C:\Micrium\Software\uCOS-III\Source\os_q.c **** /*
 884:C:\Micrium\Software\uCOS-III\Source\os_q.c **** ***************************************************************************************************
 885:C:\Micrium\Software\uCOS-III\Source\os_q.c **** *                                               POST MESSAGE TO A QUEUE
 886:C:\Micrium\Software\uCOS-III\Source\os_q.c **** *
 887:C:\Micrium\Software\uCOS-III\Source\os_q.c **** * Description: This function sends a message to a queue.  With the 'opt' argument, you can specify 
 888:C:\Micrium\Software\uCOS-III\Source\os_q.c **** *              is broadcast to all waiting tasks and/or whether you post the message to the front o
 889:C:\Micrium\Software\uCOS-III\Source\os_q.c **** *              or normally (FIFO) at the end of the queue.
 890:C:\Micrium\Software\uCOS-III\Source\os_q.c **** *
 891:C:\Micrium\Software\uCOS-III\Source\os_q.c **** * Arguments  : p_q           is a pointer to a message queue that must have been created by OSQCrea
 892:C:\Micrium\Software\uCOS-III\Source\os_q.c **** *
 893:C:\Micrium\Software\uCOS-III\Source\os_q.c **** *              p_void        is a pointer to the message to send.
 894:C:\Micrium\Software\uCOS-III\Source\os_q.c **** *
 895:C:\Micrium\Software\uCOS-III\Source\os_q.c **** *              msg_size      specifies the size of the message (in bytes)
 896:C:\Micrium\Software\uCOS-III\Source\os_q.c **** *
 897:C:\Micrium\Software\uCOS-III\Source\os_q.c **** *              opt           determines the type of POST performed:
 898:C:\Micrium\Software\uCOS-III\Source\os_q.c **** *
 899:C:\Micrium\Software\uCOS-III\Source\os_q.c **** *                                OS_OPT_POST_ALL          POST to ALL tasks that are waiting on the
 900:C:\Micrium\Software\uCOS-III\Source\os_q.c **** *
 901:C:\Micrium\Software\uCOS-III\Source\os_q.c **** *                                OS_OPT_POST_FIFO         POST as FIFO and wake up single waiting t
 902:C:\Micrium\Software\uCOS-III\Source\os_q.c **** *                                OS_OPT_POST_LIFO         POST as LIFO and wake up single waiting t
 903:C:\Micrium\Software\uCOS-III\Source\os_q.c **** *
 904:C:\Micrium\Software\uCOS-III\Source\os_q.c **** *                                OS_OPT_POST_NO_SCHED     Do not call the scheduler
 905:C:\Micrium\Software\uCOS-III\Source\os_q.c **** *
 906:C:\Micrium\Software\uCOS-III\Source\os_q.c **** *              ts            is the timestamp of the post
 907:C:\Micrium\Software\uCOS-III\Source\os_q.c **** *
 908:C:\Micrium\Software\uCOS-III\Source\os_q.c **** *              p_err         is a pointer to a variable that will contain an error code returned by
 909:C:\Micrium\Software\uCOS-III\Source\os_q.c **** *
 910:C:\Micrium\Software\uCOS-III\Source\os_q.c **** *                                OS_ERR_NONE            The call was successful and the message was
 911:C:\Micrium\Software\uCOS-III\Source\os_q.c **** *                                OS_ERR_MSG_POOL_EMPTY  If there are no more OS_MSGs to use to plac
 912:C:\Micrium\Software\uCOS-III\Source\os_q.c **** *                                OS_ERR_OBJ_PTR_NULL    If 'p_q' is a NULL pointer
 913:C:\Micrium\Software\uCOS-III\Source\os_q.c **** *                                OS_ERR_OBJ_TYPE        If the message queue was not initialized
 914:C:\Micrium\Software\uCOS-III\Source\os_q.c **** *                                OS_ERR_Q_MAX           If the queue is full
ARM GAS  C:\Users\daniel01\AppData\Local\Temp\cccGTwC2.s 			page 40


 915:C:\Micrium\Software\uCOS-III\Source\os_q.c **** *
 916:C:\Micrium\Software\uCOS-III\Source\os_q.c **** * Returns    : None
 917:C:\Micrium\Software\uCOS-III\Source\os_q.c **** *
 918:C:\Micrium\Software\uCOS-III\Source\os_q.c **** * Note(s)    : This function is INTERNAL to uC/OS-III and your application should not call it.
 919:C:\Micrium\Software\uCOS-III\Source\os_q.c **** ***************************************************************************************************
 920:C:\Micrium\Software\uCOS-III\Source\os_q.c **** */
 921:C:\Micrium\Software\uCOS-III\Source\os_q.c **** 
 922:C:\Micrium\Software\uCOS-III\Source\os_q.c **** void  OS_QPost (OS_Q         *p_q,
 923:C:\Micrium\Software\uCOS-III\Source\os_q.c ****                 void         *p_void,
 924:C:\Micrium\Software\uCOS-III\Source\os_q.c ****                 OS_MSG_SIZE   msg_size,
 925:C:\Micrium\Software\uCOS-III\Source\os_q.c ****                 OS_OPT        opt,
 926:C:\Micrium\Software\uCOS-III\Source\os_q.c ****                 CPU_TS        ts,
 927:C:\Micrium\Software\uCOS-III\Source\os_q.c ****                 OS_ERR       *p_err)
 928:C:\Micrium\Software\uCOS-III\Source\os_q.c **** {
 1306              		.loc 1 928 0
 1307              		.cfi_startproc
 1308              		@ args = 8, pretend = 0, frame = 40
 1309              		@ frame_needed = 1, uses_anonymous_args = 0
 1310 0000 80B5     		push	{r7, lr}
 1311              	.LCFI30:
 1312              		.cfi_def_cfa_offset 8
 1313 0002 8CB0     		sub	sp, sp, #48
 1314              	.LCFI31:
 1315              		.cfi_def_cfa_offset 56
 1316 0004 02AF     		add	r7, sp, #8
 1317              		.cfi_offset 14, -4
 1318              		.cfi_offset 7, -8
 1319              	.LCFI32:
 1320              		.cfi_def_cfa 7, 48
 1321 0006 F860     		str	r0, [r7, #12]
 1322 0008 B960     		str	r1, [r7, #8]
 1323 000a FA80     		strh	r2, [r7, #6]	@ movhi
 1324 000c BB80     		strh	r3, [r7, #4]	@ movhi
 929:C:\Micrium\Software\uCOS-III\Source\os_q.c ****     OS_OBJ_QTY     cnt;
 930:C:\Micrium\Software\uCOS-III\Source\os_q.c ****     OS_OPT         post_type;
 931:C:\Micrium\Software\uCOS-III\Source\os_q.c ****     OS_PEND_LIST  *p_pend_list;
 932:C:\Micrium\Software\uCOS-III\Source\os_q.c ****     OS_PEND_DATA  *p_pend_data;
 933:C:\Micrium\Software\uCOS-III\Source\os_q.c ****     OS_PEND_DATA  *p_pend_data_next;
 934:C:\Micrium\Software\uCOS-III\Source\os_q.c ****     OS_TCB        *p_tcb;
 935:C:\Micrium\Software\uCOS-III\Source\os_q.c ****     CPU_SR_ALLOC();
 1325              		.loc 1 935 0
 1326 000e 4FF00003 		mov	r3, #0
 1327 0012 7B62     		str	r3, [r7, #36]
 936:C:\Micrium\Software\uCOS-III\Source\os_q.c **** 
 937:C:\Micrium\Software\uCOS-III\Source\os_q.c **** 
 938:C:\Micrium\Software\uCOS-III\Source\os_q.c **** 
 939:C:\Micrium\Software\uCOS-III\Source\os_q.c ****     OS_CRITICAL_ENTER();
 1328              		.loc 1 939 0
 1329 0014 FFF7FEFF 		bl	CPU_SR_Save
 1330 0018 0346     		mov	r3, r0
 1331 001a 7B62     		str	r3, [r7, #36]
 940:C:\Micrium\Software\uCOS-III\Source\os_q.c ****     p_pend_list = &p_q->PendList;
 1332              		.loc 1 940 0
 1333 001c FB68     		ldr	r3, [r7, #12]
 1334 001e 03F10803 		add	r3, r3, #8
 1335 0022 7B61     		str	r3, [r7, #20]
 941:C:\Micrium\Software\uCOS-III\Source\os_q.c ****     if (p_pend_list->NbrEntries == (OS_OBJ_QTY)0) {         /* Any task waiting on message queue?  
ARM GAS  C:\Users\daniel01\AppData\Local\Temp\cccGTwC2.s 			page 41


 1336              		.loc 1 941 0
 1337 0024 7B69     		ldr	r3, [r7, #20]
 1338 0026 1B89     		ldrh	r3, [r3, #8]
 1339 0028 002B     		cmp	r3, #0
 1340 002a 1CD1     		bne	.L92
 942:C:\Micrium\Software\uCOS-III\Source\os_q.c ****         if ((opt & OS_OPT_POST_LIFO) == (OS_OPT)0) {        /* Determine whether we post FIFO or LI
 1341              		.loc 1 942 0
 1342 002c BB88     		ldrh	r3, [r7, #4]
 1343 002e 03F01003 		and	r3, r3, #16
 1344 0032 002B     		cmp	r3, #0
 1345 0034 03D1     		bne	.L93
 943:C:\Micrium\Software\uCOS-III\Source\os_q.c ****             post_type = OS_OPT_POST_FIFO;
 1346              		.loc 1 943 0
 1347 0036 4FF00003 		mov	r3, #0
 1348 003a 7B82     		strh	r3, [r7, #18]	@ movhi
 1349 003c 02E0     		b	.L94
 1350              	.L93:
 944:C:\Micrium\Software\uCOS-III\Source\os_q.c ****         } else {
 945:C:\Micrium\Software\uCOS-III\Source\os_q.c ****             post_type = OS_OPT_POST_LIFO;
 1351              		.loc 1 945 0
 1352 003e 4FF01003 		mov	r3, #16
 1353 0042 7B82     		strh	r3, [r7, #18]	@ movhi
 1354              	.L94:
 946:C:\Micrium\Software\uCOS-III\Source\os_q.c ****         }
 947:C:\Micrium\Software\uCOS-III\Source\os_q.c ****         OS_MsgQPut(&p_q->MsgQ,                              /* Place message in the message queue  
 1355              		.loc 1 947 0
 1356 0044 FB68     		ldr	r3, [r7, #12]
 1357 0046 03F12001 		add	r1, r3, #32
 1358 004a FA88     		ldrh	r2, [r7, #6]
 1359 004c 7B8A     		ldrh	r3, [r7, #18]
 1360 004e 386B     		ldr	r0, [r7, #48]
 1361 0050 0090     		str	r0, [sp, #0]
 1362 0052 786B     		ldr	r0, [r7, #52]
 1363 0054 0190     		str	r0, [sp, #4]
 1364 0056 0846     		mov	r0, r1
 1365 0058 B968     		ldr	r1, [r7, #8]
 1366 005a FFF7FEFF 		bl	OS_MsgQPut
 948:C:\Micrium\Software\uCOS-III\Source\os_q.c ****                    p_void,
 949:C:\Micrium\Software\uCOS-III\Source\os_q.c ****                    msg_size,
 950:C:\Micrium\Software\uCOS-III\Source\os_q.c ****                    post_type,
 951:C:\Micrium\Software\uCOS-III\Source\os_q.c ****                    ts,
 952:C:\Micrium\Software\uCOS-III\Source\os_q.c ****                    p_err);
 953:C:\Micrium\Software\uCOS-III\Source\os_q.c ****         OS_CRITICAL_EXIT();
 1367              		.loc 1 953 0
 1368 005e 786A     		ldr	r0, [r7, #36]
 1369 0060 FFF7FEFF 		bl	CPU_SR_Restore
 954:C:\Micrium\Software\uCOS-III\Source\os_q.c ****         return;
 1370              		.loc 1 954 0
 1371 0064 34E0     		b	.L101
 1372              	.L92:
 955:C:\Micrium\Software\uCOS-III\Source\os_q.c ****     }
 956:C:\Micrium\Software\uCOS-III\Source\os_q.c **** 
 957:C:\Micrium\Software\uCOS-III\Source\os_q.c ****     if ((opt & OS_OPT_POST_ALL) != (OS_OPT)0) {             /* Post message to all tasks waiting?  
 1373              		.loc 1 957 0
 1374 0066 BB88     		ldrh	r3, [r7, #4]
 1375 0068 03F40073 		and	r3, r3, #512
 1376 006c 002B     		cmp	r3, #0
ARM GAS  C:\Users\daniel01\AppData\Local\Temp\cccGTwC2.s 			page 42


 1377 006e 03D0     		beq	.L96
 958:C:\Micrium\Software\uCOS-III\Source\os_q.c ****         cnt = p_pend_list->NbrEntries;                      /* Yes                                 
 1378              		.loc 1 958 0
 1379 0070 7B69     		ldr	r3, [r7, #20]
 1380 0072 1B89     		ldrh	r3, [r3, #8]	@ movhi
 1381 0074 3B82     		strh	r3, [r7, #16]	@ movhi
 1382 0076 02E0     		b	.L97
 1383              	.L96:
 959:C:\Micrium\Software\uCOS-III\Source\os_q.c ****     } else {
 960:C:\Micrium\Software\uCOS-III\Source\os_q.c ****         cnt = (OS_OBJ_QTY)1;                                /* No                                  
 1384              		.loc 1 960 0
 1385 0078 4FF00103 		mov	r3, #1
 1386 007c 3B82     		strh	r3, [r7, #16]	@ movhi
 1387              	.L97:
 961:C:\Micrium\Software\uCOS-III\Source\os_q.c ****     }
 962:C:\Micrium\Software\uCOS-III\Source\os_q.c ****     p_pend_data = p_pend_list->HeadPtr;
 1388              		.loc 1 962 0
 1389 007e 7B69     		ldr	r3, [r7, #20]
 1390 0080 1B68     		ldr	r3, [r3, #0]
 1391 0082 BB61     		str	r3, [r7, #24]
 963:C:\Micrium\Software\uCOS-III\Source\os_q.c ****     while (cnt > 0u) {
 1392              		.loc 1 963 0
 1393 0084 14E0     		b	.L98
 1394              	.L99:
 964:C:\Micrium\Software\uCOS-III\Source\os_q.c ****         p_tcb            = p_pend_data->TCBPtr;
 1395              		.loc 1 964 0
 1396 0086 BB69     		ldr	r3, [r7, #24]
 1397 0088 9B68     		ldr	r3, [r3, #8]
 1398 008a 3B62     		str	r3, [r7, #32]
 965:C:\Micrium\Software\uCOS-III\Source\os_q.c ****         p_pend_data_next = p_pend_data->NextPtr;
 1399              		.loc 1 965 0
 1400 008c BB69     		ldr	r3, [r7, #24]
 1401 008e 5B68     		ldr	r3, [r3, #4]
 1402 0090 FB61     		str	r3, [r7, #28]
 966:C:\Micrium\Software\uCOS-III\Source\os_q.c ****         OS_Post((OS_PEND_OBJ *)((void *)p_q),
 1403              		.loc 1 966 0
 1404 0092 FA68     		ldr	r2, [r7, #12]
 1405 0094 FB88     		ldrh	r3, [r7, #6]
 1406 0096 396B     		ldr	r1, [r7, #48]
 1407 0098 0091     		str	r1, [sp, #0]
 1408 009a 1046     		mov	r0, r2
 1409 009c 396A     		ldr	r1, [r7, #32]
 1410 009e BA68     		ldr	r2, [r7, #8]
 1411 00a0 FFF7FEFF 		bl	OS_Post
 967:C:\Micrium\Software\uCOS-III\Source\os_q.c ****                 p_tcb,
 968:C:\Micrium\Software\uCOS-III\Source\os_q.c ****                 p_void,
 969:C:\Micrium\Software\uCOS-III\Source\os_q.c ****                 msg_size,
 970:C:\Micrium\Software\uCOS-III\Source\os_q.c ****                 ts);
 971:C:\Micrium\Software\uCOS-III\Source\os_q.c ****         p_pend_data = p_pend_data_next;
 1412              		.loc 1 971 0
 1413 00a4 FB69     		ldr	r3, [r7, #28]
 1414 00a6 BB61     		str	r3, [r7, #24]
 972:C:\Micrium\Software\uCOS-III\Source\os_q.c ****         cnt--;
 1415              		.loc 1 972 0
 1416 00a8 3B8A     		ldrh	r3, [r7, #16]	@ movhi
 1417 00aa 03F1FF33 		add	r3, r3, #-1
 1418 00ae 3B82     		strh	r3, [r7, #16]	@ movhi
ARM GAS  C:\Users\daniel01\AppData\Local\Temp\cccGTwC2.s 			page 43


 1419              	.L98:
 1420              		.loc 1 963 0
 1421 00b0 3B8A     		ldrh	r3, [r7, #16]
 1422 00b2 002B     		cmp	r3, #0
 1423 00b4 E7D1     		bne	.L99
 973:C:\Micrium\Software\uCOS-III\Source\os_q.c ****     }
 974:C:\Micrium\Software\uCOS-III\Source\os_q.c ****     OS_CRITICAL_EXIT_NO_SCHED();
 1424              		.loc 1 974 0
 1425 00b6 786A     		ldr	r0, [r7, #36]
 1426 00b8 FFF7FEFF 		bl	CPU_SR_Restore
 975:C:\Micrium\Software\uCOS-III\Source\os_q.c ****     if ((opt & OS_OPT_POST_NO_SCHED) == (OS_OPT)0) {
 1427              		.loc 1 975 0
 1428 00bc BB88     		ldrh	r3, [r7, #4]
 1429 00be 1BB2     		sxth	r3, r3
 1430 00c0 002B     		cmp	r3, #0
 1431 00c2 01DB     		blt	.L100
 976:C:\Micrium\Software\uCOS-III\Source\os_q.c ****         OSSched();                                          /* Run the scheduler                   
 1432              		.loc 1 976 0
 1433 00c4 FFF7FEFF 		bl	OSSched
 1434              	.L100:
 977:C:\Micrium\Software\uCOS-III\Source\os_q.c ****     }
 978:C:\Micrium\Software\uCOS-III\Source\os_q.c ****    *p_err = OS_ERR_NONE;
 1435              		.loc 1 978 0
 1436 00c8 7B6B     		ldr	r3, [r7, #52]
 1437 00ca 4FF00002 		mov	r2, #0
 1438 00ce 1A80     		strh	r2, [r3, #0]	@ movhi
 1439              	.L101:
 979:C:\Micrium\Software\uCOS-III\Source\os_q.c **** }
 1440              		.loc 1 979 0
 1441 00d0 07F12807 		add	r7, r7, #40
 1442 00d4 BD46     		mov	sp, r7
 1443 00d6 80BD     		pop	{r7, pc}
 1444              		.cfi_endproc
 1445              	.LFE10:
 1446              		.size	OS_QPost, .-OS_QPost
 1447              		.text
 1448              	.Letext0:
 1449              		.section	.debug_loc,"",%progbits
 1450              	.Ldebug_loc0:
 1451              	.LLST0:
 1452 0000 00000000 		.4byte	.LFB0
 1453 0004 02000000 		.4byte	.LCFI0
 1454 0008 0100     		.2byte	0x1
 1455 000a 5D       		.byte	0x5d
 1456 000b 02000000 		.4byte	.LCFI0
 1457 000f 04000000 		.4byte	.LCFI1
 1458 0013 0200     		.2byte	0x2
 1459 0015 7D       		.byte	0x7d
 1460 0016 08       		.sleb128 8
 1461 0017 04000000 		.4byte	.LCFI1
 1462 001b 06000000 		.4byte	.LCFI2
 1463 001f 0200     		.2byte	0x2
 1464 0021 7D       		.byte	0x7d
 1465 0022 20       		.sleb128 32
 1466 0023 06000000 		.4byte	.LCFI2
 1467 0027 BA000000 		.4byte	.LFE0
 1468 002b 0200     		.2byte	0x2
ARM GAS  C:\Users\daniel01\AppData\Local\Temp\cccGTwC2.s 			page 44


 1469 002d 77       		.byte	0x77
 1470 002e 20       		.sleb128 32
 1471 002f 00000000 		.4byte	0x0
 1472 0033 00000000 		.4byte	0x0
 1473              	.LLST1:
 1474 0037 00000000 		.4byte	.LFB1
 1475 003b 02000000 		.4byte	.LCFI3
 1476 003f 0100     		.2byte	0x1
 1477 0041 5D       		.byte	0x5d
 1478 0042 02000000 		.4byte	.LCFI3
 1479 0046 04000000 		.4byte	.LCFI4
 1480 004a 0200     		.2byte	0x2
 1481 004c 7D       		.byte	0x7d
 1482 004d 08       		.sleb128 8
 1483 004e 04000000 		.4byte	.LCFI4
 1484 0052 06000000 		.4byte	.LCFI5
 1485 0056 0200     		.2byte	0x2
 1486 0058 7D       		.byte	0x7d
 1487 0059 30       		.sleb128 48
 1488 005a 06000000 		.4byte	.LCFI5
 1489 005e 52010000 		.4byte	.LFE1
 1490 0062 0200     		.2byte	0x2
 1491 0064 77       		.byte	0x77
 1492 0065 30       		.sleb128 48
 1493 0066 00000000 		.4byte	0x0
 1494 006a 00000000 		.4byte	0x0
 1495              	.LLST2:
 1496 006e 00000000 		.4byte	.LFB2
 1497 0072 02000000 		.4byte	.LCFI6
 1498 0076 0100     		.2byte	0x1
 1499 0078 5D       		.byte	0x5d
 1500 0079 02000000 		.4byte	.LCFI6
 1501 007d 04000000 		.4byte	.LCFI7
 1502 0081 0200     		.2byte	0x2
 1503 0083 7D       		.byte	0x7d
 1504 0084 08       		.sleb128 8
 1505 0085 04000000 		.4byte	.LCFI7
 1506 0089 06000000 		.4byte	.LCFI8
 1507 008d 0200     		.2byte	0x2
 1508 008f 7D       		.byte	0x7d
 1509 0090 18       		.sleb128 24
 1510 0091 06000000 		.4byte	.LCFI8
 1511 0095 72000000 		.4byte	.LFE2
 1512 0099 0200     		.2byte	0x2
 1513 009b 77       		.byte	0x77
 1514 009c 18       		.sleb128 24
 1515 009d 00000000 		.4byte	0x0
 1516 00a1 00000000 		.4byte	0x0
 1517              	.LLST3:
 1518 00a5 00000000 		.4byte	.LFB3
 1519 00a9 02000000 		.4byte	.LCFI9
 1520 00ad 0100     		.2byte	0x1
 1521 00af 5D       		.byte	0x5d
 1522 00b0 02000000 		.4byte	.LCFI9
 1523 00b4 04000000 		.4byte	.LCFI10
 1524 00b8 0200     		.2byte	0x2
 1525 00ba 7D       		.byte	0x7d
ARM GAS  C:\Users\daniel01\AppData\Local\Temp\cccGTwC2.s 			page 45


 1526 00bb 08       		.sleb128 8
 1527 00bc 04000000 		.4byte	.LCFI10
 1528 00c0 06000000 		.4byte	.LCFI11
 1529 00c4 0300     		.2byte	0x3
 1530 00c6 7D       		.byte	0x7d
 1531 00c7 C000     		.sleb128 64
 1532 00c9 06000000 		.4byte	.LCFI11
 1533 00cd 2A020000 		.4byte	.LFE3
 1534 00d1 0300     		.2byte	0x3
 1535 00d3 77       		.byte	0x77
 1536 00d4 C000     		.sleb128 64
 1537 00d6 00000000 		.4byte	0x0
 1538 00da 00000000 		.4byte	0x0
 1539              	.LLST4:
 1540 00de 00000000 		.4byte	.LFB4
 1541 00e2 02000000 		.4byte	.LCFI12
 1542 00e6 0100     		.2byte	0x1
 1543 00e8 5D       		.byte	0x5d
 1544 00e9 02000000 		.4byte	.LCFI12
 1545 00ed 04000000 		.4byte	.LCFI13
 1546 00f1 0200     		.2byte	0x2
 1547 00f3 7D       		.byte	0x7d
 1548 00f4 08       		.sleb128 8
 1549 00f5 04000000 		.4byte	.LCFI13
 1550 00f9 06000000 		.4byte	.LCFI14
 1551 00fd 0200     		.2byte	0x2
 1552 00ff 7D       		.byte	0x7d
 1553 0100 30       		.sleb128 48
 1554 0101 06000000 		.4byte	.LCFI14
 1555 0105 06010000 		.4byte	.LFE4
 1556 0109 0200     		.2byte	0x2
 1557 010b 77       		.byte	0x77
 1558 010c 30       		.sleb128 48
 1559 010d 00000000 		.4byte	0x0
 1560 0111 00000000 		.4byte	0x0
 1561              	.LLST5:
 1562 0115 00000000 		.4byte	.LFB5
 1563 0119 02000000 		.4byte	.LCFI15
 1564 011d 0100     		.2byte	0x1
 1565 011f 5D       		.byte	0x5d
 1566 0120 02000000 		.4byte	.LCFI15
 1567 0124 04000000 		.4byte	.LCFI16
 1568 0128 0200     		.2byte	0x2
 1569 012a 7D       		.byte	0x7d
 1570 012b 08       		.sleb128 8
 1571 012c 04000000 		.4byte	.LCFI16
 1572 0130 06000000 		.4byte	.LCFI17
 1573 0134 0200     		.2byte	0x2
 1574 0136 7D       		.byte	0x7d
 1575 0137 28       		.sleb128 40
 1576 0138 06000000 		.4byte	.LCFI17
 1577 013c 92000000 		.4byte	.LFE5
 1578 0140 0200     		.2byte	0x2
 1579 0142 77       		.byte	0x77
 1580 0143 20       		.sleb128 32
 1581 0144 00000000 		.4byte	0x0
 1582 0148 00000000 		.4byte	0x0
ARM GAS  C:\Users\daniel01\AppData\Local\Temp\cccGTwC2.s 			page 46


 1583              	.LLST6:
 1584 014c 00000000 		.4byte	.LFB6
 1585 0150 02000000 		.4byte	.LCFI18
 1586 0154 0100     		.2byte	0x1
 1587 0156 5D       		.byte	0x5d
 1588 0157 02000000 		.4byte	.LCFI18
 1589 015b 04000000 		.4byte	.LCFI19
 1590 015f 0200     		.2byte	0x2
 1591 0161 7D       		.byte	0x7d
 1592 0162 08       		.sleb128 8
 1593 0163 04000000 		.4byte	.LCFI19
 1594 0167 06000000 		.4byte	.LCFI20
 1595 016b 0200     		.2byte	0x2
 1596 016d 7D       		.byte	0x7d
 1597 016e 10       		.sleb128 16
 1598 016f 06000000 		.4byte	.LCFI20
 1599 0173 50000000 		.4byte	.LFE6
 1600 0177 0200     		.2byte	0x2
 1601 0179 77       		.byte	0x77
 1602 017a 10       		.sleb128 16
 1603 017b 00000000 		.4byte	0x0
 1604 017f 00000000 		.4byte	0x0
 1605              	.LLST7:
 1606 0183 00000000 		.4byte	.LFB7
 1607 0187 02000000 		.4byte	.LCFI21
 1608 018b 0100     		.2byte	0x1
 1609 018d 5D       		.byte	0x5d
 1610 018e 02000000 		.4byte	.LCFI21
 1611 0192 04000000 		.4byte	.LCFI22
 1612 0196 0200     		.2byte	0x2
 1613 0198 7D       		.byte	0x7d
 1614 0199 04       		.sleb128 4
 1615 019a 04000000 		.4byte	.LCFI22
 1616 019e 06000000 		.4byte	.LCFI23
 1617 01a2 0200     		.2byte	0x2
 1618 01a4 7D       		.byte	0x7d
 1619 01a5 10       		.sleb128 16
 1620 01a6 06000000 		.4byte	.LCFI23
 1621 01aa 66000000 		.4byte	.LFE7
 1622 01ae 0200     		.2byte	0x2
 1623 01b0 77       		.byte	0x77
 1624 01b1 10       		.sleb128 16
 1625 01b2 00000000 		.4byte	0x0
 1626 01b6 00000000 		.4byte	0x0
 1627              	.LLST8:
 1628 01ba 00000000 		.4byte	.LFB8
 1629 01be 02000000 		.4byte	.LCFI24
 1630 01c2 0100     		.2byte	0x1
 1631 01c4 5D       		.byte	0x5d
 1632 01c5 02000000 		.4byte	.LCFI24
 1633 01c9 04000000 		.4byte	.LCFI25
 1634 01cd 0200     		.2byte	0x2
 1635 01cf 7D       		.byte	0x7d
 1636 01d0 04       		.sleb128 4
 1637 01d1 04000000 		.4byte	.LCFI25
 1638 01d5 06000000 		.4byte	.LCFI26
 1639 01d9 0200     		.2byte	0x2
ARM GAS  C:\Users\daniel01\AppData\Local\Temp\cccGTwC2.s 			page 47


 1640 01db 7D       		.byte	0x7d
 1641 01dc 18       		.sleb128 24
 1642 01dd 06000000 		.4byte	.LCFI26
 1643 01e1 7C000000 		.4byte	.LFE8
 1644 01e5 0200     		.2byte	0x2
 1645 01e7 77       		.byte	0x77
 1646 01e8 18       		.sleb128 24
 1647 01e9 00000000 		.4byte	0x0
 1648 01ed 00000000 		.4byte	0x0
 1649              	.LLST9:
 1650 01f1 00000000 		.4byte	.LFB9
 1651 01f5 02000000 		.4byte	.LCFI27
 1652 01f9 0100     		.2byte	0x1
 1653 01fb 5D       		.byte	0x5d
 1654 01fc 02000000 		.4byte	.LCFI27
 1655 0200 04000000 		.4byte	.LCFI28
 1656 0204 0200     		.2byte	0x2
 1657 0206 7D       		.byte	0x7d
 1658 0207 04       		.sleb128 4
 1659 0208 04000000 		.4byte	.LCFI28
 1660 020c 06000000 		.4byte	.LCFI29
 1661 0210 0200     		.2byte	0x2
 1662 0212 7D       		.byte	0x7d
 1663 0213 10       		.sleb128 16
 1664 0214 06000000 		.4byte	.LCFI29
 1665 0218 36000000 		.4byte	.LFE9
 1666 021c 0200     		.2byte	0x2
 1667 021e 77       		.byte	0x77
 1668 021f 10       		.sleb128 16
 1669 0220 00000000 		.4byte	0x0
 1670 0224 00000000 		.4byte	0x0
 1671              	.LLST10:
 1672 0228 00000000 		.4byte	.LFB10
 1673 022c 02000000 		.4byte	.LCFI30
 1674 0230 0100     		.2byte	0x1
 1675 0232 5D       		.byte	0x5d
 1676 0233 02000000 		.4byte	.LCFI30
 1677 0237 04000000 		.4byte	.LCFI31
 1678 023b 0200     		.2byte	0x2
 1679 023d 7D       		.byte	0x7d
 1680 023e 08       		.sleb128 8
 1681 023f 04000000 		.4byte	.LCFI31
 1682 0243 06000000 		.4byte	.LCFI32
 1683 0247 0200     		.2byte	0x2
 1684 0249 7D       		.byte	0x7d
 1685 024a 38       		.sleb128 56
 1686 024b 06000000 		.4byte	.LCFI32
 1687 024f D8000000 		.4byte	.LFE10
 1688 0253 0200     		.2byte	0x2
 1689 0255 77       		.byte	0x77
 1690 0256 30       		.sleb128 48
 1691 0257 00000000 		.4byte	0x0
 1692 025b 00000000 		.4byte	0x0
 1693              		.file 2 "..\\..\\..\\..\\..\\..\\uC-CPU\\ARM-Cortex-M3\\GNU/cpu.h"
 1694              		.file 3 "..\\..\\..\\..\\..\\..\\uC-CPU/cpu_core.h"
 1695              		.file 4 "..\\..\\..\\..\\..\\..\\uCOS-III\\Source/os_type.h"
 1696              		.file 5 "..\\..\\..\\..\\..\\..\\uCOS-III\\Source/os.h"
ARM GAS  C:\Users\daniel01\AppData\Local\Temp\cccGTwC2.s 			page 48


 1697              		.section	.debug_info
 1698 0000 24120000 		.4byte	0x1224
 1699 0004 0200     		.2byte	0x2
 1700 0006 00000000 		.4byte	.Ldebug_abbrev0
 1701 000a 04       		.byte	0x4
 1702 000b 01       		.uleb128 0x1
 1703 000c 30000000 		.4byte	.LASF316
 1704 0010 01       		.byte	0x1
 1705 0011 42080000 		.4byte	.LASF317
 1706 0015 AF110000 		.4byte	.LASF318
 1707 0019 00000000 		.4byte	0x0
 1708 001d 00000000 		.4byte	0x0
 1709 0021 00000000 		.4byte	.Ldebug_ranges0+0x0
 1710 0025 00000000 		.4byte	.Ldebug_line0
 1711 0029 02       		.uleb128 0x2
 1712 002a BD060000 		.4byte	.LASF2
 1713 002e 02       		.byte	0x2
 1714 002f 76       		.byte	0x76
 1715 0030 34000000 		.4byte	0x34
 1716 0034 03       		.uleb128 0x3
 1717 0035 01       		.byte	0x1
 1718 0036 08       		.byte	0x8
 1719 0037 31080000 		.4byte	.LASF0
 1720 003b 03       		.uleb128 0x3
 1721 003c 01       		.byte	0x1
 1722 003d 08       		.byte	0x8
 1723 003e 4D0F0000 		.4byte	.LASF1
 1724 0042 02       		.uleb128 0x2
 1725 0043 9F050000 		.4byte	.LASF3
 1726 0047 02       		.byte	0x2
 1727 0048 78       		.byte	0x78
 1728 0049 3B000000 		.4byte	0x3b
 1729 004d 03       		.uleb128 0x3
 1730 004e 01       		.byte	0x1
 1731 004f 06       		.byte	0x6
 1732 0050 A0100000 		.4byte	.LASF4
 1733 0054 02       		.uleb128 0x2
 1734 0055 FB090000 		.4byte	.LASF5
 1735 0059 02       		.byte	0x2
 1736 005a 7A       		.byte	0x7a
 1737 005b 5F000000 		.4byte	0x5f
 1738 005f 03       		.uleb128 0x3
 1739 0060 02       		.byte	0x2
 1740 0061 07       		.byte	0x7
 1741 0062 C6100000 		.4byte	.LASF6
 1742 0066 03       		.uleb128 0x3
 1743 0067 02       		.byte	0x2
 1744 0068 05       		.byte	0x5
 1745 0069 EA0C0000 		.4byte	.LASF7
 1746 006d 02       		.uleb128 0x2
 1747 006e C2010000 		.4byte	.LASF8
 1748 0072 02       		.byte	0x2
 1749 0073 7C       		.byte	0x7c
 1750 0074 78000000 		.4byte	0x78
 1751 0078 03       		.uleb128 0x3
 1752 0079 04       		.byte	0x4
 1753 007a 07       		.byte	0x7
ARM GAS  C:\Users\daniel01\AppData\Local\Temp\cccGTwC2.s 			page 49


 1754 007b 380E0000 		.4byte	.LASF9
 1755 007f 04       		.uleb128 0x4
 1756 0080 04       		.byte	0x4
 1757 0081 05       		.byte	0x5
 1758 0082 696E7400 		.ascii	"int\000"
 1759 0086 03       		.uleb128 0x3
 1760 0087 08       		.byte	0x8
 1761 0088 07       		.byte	0x7
 1762 0089 EE040000 		.4byte	.LASF10
 1763 008d 03       		.uleb128 0x3
 1764 008e 08       		.byte	0x8
 1765 008f 05       		.byte	0x5
 1766 0090 4A090000 		.4byte	.LASF11
 1767 0094 03       		.uleb128 0x3
 1768 0095 04       		.byte	0x4
 1769 0096 04       		.byte	0x4
 1770 0097 4B040000 		.4byte	.LASF12
 1771 009b 03       		.uleb128 0x3
 1772 009c 08       		.byte	0x8
 1773 009d 04       		.byte	0x4
 1774 009e 4E110000 		.4byte	.LASF13
 1775 00a2 05       		.uleb128 0x5
 1776 00a3 04       		.byte	0x4
 1777 00a4 A8000000 		.4byte	0xa8
 1778 00a8 06       		.uleb128 0x6
 1779 00a9 01       		.byte	0x1
 1780 00aa B4000000 		.4byte	0xb4
 1781 00ae 07       		.uleb128 0x7
 1782 00af B4000000 		.4byte	0xb4
 1783 00b3 00       		.byte	0x0
 1784 00b4 08       		.uleb128 0x8
 1785 00b5 04       		.byte	0x4
 1786 00b6 02       		.uleb128 0x2
 1787 00b7 B70E0000 		.4byte	.LASF14
 1788 00bb 02       		.byte	0x2
 1789 00bc B5       		.byte	0xb5
 1790 00bd 6D000000 		.4byte	0x6d
 1791 00c1 02       		.uleb128 0x2
 1792 00c2 55130000 		.4byte	.LASF15
 1793 00c6 02       		.byte	0x2
 1794 00c7 D9       		.byte	0xd9
 1795 00c8 6D000000 		.4byte	0x6d
 1796 00cc 02       		.uleb128 0x2
 1797 00cd DD060000 		.4byte	.LASF16
 1798 00d1 02       		.byte	0x2
 1799 00d2 DA       		.byte	0xda
 1800 00d3 B6000000 		.4byte	0xb6
 1801 00d7 09       		.uleb128 0x9
 1802 00d8 92080000 		.4byte	.LASF17
 1803 00dc 02       		.byte	0x2
 1804 00dd 2901     		.2byte	0x129
 1805 00df 6D000000 		.4byte	0x6d
 1806 00e3 02       		.uleb128 0x2
 1807 00e4 B70A0000 		.4byte	.LASF18
 1808 00e8 03       		.byte	0x3
 1809 00e9 C4       		.byte	0xc4
 1810 00ea 6D000000 		.4byte	0x6d
ARM GAS  C:\Users\daniel01\AppData\Local\Temp\cccGTwC2.s 			page 50


 1811 00ee 02       		.uleb128 0x2
 1812 00ef 43090000 		.4byte	.LASF19
 1813 00f3 03       		.byte	0x3
 1814 00f4 C7       		.byte	0xc7
 1815 00f5 E3000000 		.4byte	0xe3
 1816 00f9 02       		.uleb128 0x2
 1817 00fa 98010000 		.4byte	.LASF20
 1818 00fe 04       		.byte	0x4
 1819 00ff 30       		.byte	0x30
 1820 0100 54000000 		.4byte	0x54
 1821 0104 02       		.uleb128 0x2
 1822 0105 22000000 		.4byte	.LASF21
 1823 0109 04       		.byte	0x4
 1824 010a 34       		.byte	0x34
 1825 010b 6D000000 		.4byte	0x6d
 1826 010f 02       		.uleb128 0x2
 1827 0110 110F0000 		.4byte	.LASF22
 1828 0114 04       		.byte	0x4
 1829 0115 36       		.byte	0x36
 1830 0116 6D000000 		.4byte	0x6d
 1831 011a 02       		.uleb128 0x2
 1832 011b D9100000 		.4byte	.LASF23
 1833 011f 04       		.byte	0x4
 1834 0120 38       		.byte	0x38
 1835 0121 6D000000 		.4byte	0x6d
 1836 0125 02       		.uleb128 0x2
 1837 0126 EA060000 		.4byte	.LASF24
 1838 012a 04       		.byte	0x4
 1839 012b 3F       		.byte	0x3f
 1840 012c 54000000 		.4byte	0x54
 1841 0130 02       		.uleb128 0x2
 1842 0131 82060000 		.4byte	.LASF25
 1843 0135 04       		.byte	0x4
 1844 0136 40       		.byte	0x40
 1845 0137 54000000 		.4byte	0x54
 1846 013b 02       		.uleb128 0x2
 1847 013c 7D0D0000 		.4byte	.LASF26
 1848 0140 04       		.byte	0x4
 1849 0141 42       		.byte	0x42
 1850 0142 42000000 		.4byte	0x42
 1851 0146 02       		.uleb128 0x2
 1852 0147 7C020000 		.4byte	.LASF27
 1853 014b 04       		.byte	0x4
 1854 014c 44       		.byte	0x44
 1855 014d 54000000 		.4byte	0x54
 1856 0151 02       		.uleb128 0x2
 1857 0152 36080000 		.4byte	.LASF28
 1858 0156 04       		.byte	0x4
 1859 0157 45       		.byte	0x45
 1860 0158 6D000000 		.4byte	0x6d
 1861 015c 02       		.uleb128 0x2
 1862 015d A10F0000 		.4byte	.LASF29
 1863 0161 04       		.byte	0x4
 1864 0162 47       		.byte	0x47
 1865 0163 54000000 		.4byte	0x54
 1866 0167 02       		.uleb128 0x2
 1867 0168 43040000 		.4byte	.LASF30
ARM GAS  C:\Users\daniel01\AppData\Local\Temp\cccGTwC2.s 			page 51


 1868 016c 04       		.byte	0x4
 1869 016d 49       		.byte	0x49
 1870 016e 42000000 		.4byte	0x42
 1871 0172 02       		.uleb128 0x2
 1872 0173 07060000 		.4byte	.LASF31
 1873 0177 04       		.byte	0x4
 1874 0178 4F       		.byte	0x4f
 1875 0179 6D000000 		.4byte	0x6d
 1876 017d 02       		.uleb128 0x2
 1877 017e DC0A0000 		.4byte	.LASF32
 1878 0182 04       		.byte	0x4
 1879 0183 52       		.byte	0x52
 1880 0184 6D000000 		.4byte	0x6d
 1881 0188 02       		.uleb128 0x2
 1882 0189 900F0000 		.4byte	.LASF33
 1883 018d 04       		.byte	0x4
 1884 018e 54       		.byte	0x54
 1885 018f 42000000 		.4byte	0x42
 1886 0193 02       		.uleb128 0x2
 1887 0194 32060000 		.4byte	.LASF34
 1888 0198 04       		.byte	0x4
 1889 0199 56       		.byte	0x56
 1890 019a 42000000 		.4byte	0x42
 1891 019e 02       		.uleb128 0x2
 1892 019f 6E0A0000 		.4byte	.LASF35
 1893 01a3 04       		.byte	0x4
 1894 01a4 58       		.byte	0x58
 1895 01a5 6D000000 		.4byte	0x6d
 1896 01a9 0A       		.uleb128 0xa
 1897 01aa 59010000 		.4byte	.LASF319
 1898 01ae 02       		.byte	0x2
 1899 01af 05       		.byte	0x5
 1900 01b0 A501     		.2byte	0x1a5
 1901 01b2 BD060000 		.4byte	0x6bd
 1902 01b6 0B       		.uleb128 0xb
 1903 01b7 02110000 		.4byte	.LASF36
 1904 01bb 00       		.sleb128 0
 1905 01bc 0B       		.uleb128 0xb
 1906 01bd 67000000 		.4byte	.LASF37
 1907 01c1 90CE00   		.sleb128 10000
 1908 01c4 0B       		.uleb128 0xb
 1909 01c5 EC020000 		.4byte	.LASF38
 1910 01c9 91CE00   		.sleb128 10001
 1911 01cc 0B       		.uleb128 0xb
 1912 01cd 70000000 		.4byte	.LASF39
 1913 01d1 F8D500   		.sleb128 11000
 1914 01d4 0B       		.uleb128 0xb
 1915 01d5 79000000 		.4byte	.LASF40
 1916 01d9 E0DD00   		.sleb128 12000
 1917 01dc 0B       		.uleb128 0xb
 1918 01dd 7D010000 		.4byte	.LASF41
 1919 01e1 E1DD00   		.sleb128 12001
 1920 01e4 0B       		.uleb128 0xb
 1921 01e5 82000000 		.4byte	.LASF42
 1922 01e9 C8E500   		.sleb128 13000
 1923 01ec 0B       		.uleb128 0xb
 1924 01ed 01080000 		.4byte	.LASF43
ARM GAS  C:\Users\daniel01\AppData\Local\Temp\cccGTwC2.s 			page 52


 1925 01f1 C9E500   		.sleb128 13001
 1926 01f4 0B       		.uleb128 0xb
 1927 01f5 8B000000 		.4byte	.LASF44
 1928 01f9 B0ED00   		.sleb128 14000
 1929 01fc 0B       		.uleb128 0xb
 1930 01fd 94000000 		.4byte	.LASF45
 1931 0201 98F500   		.sleb128 15000
 1932 0204 0B       		.uleb128 0xb
 1933 0205 B2100000 		.4byte	.LASF46
 1934 0209 99F500   		.sleb128 15001
 1935 020c 0B       		.uleb128 0xb
 1936 020d 6C070000 		.4byte	.LASF47
 1937 0211 FDF500   		.sleb128 15101
 1938 0214 0B       		.uleb128 0xb
 1939 0215 860E0000 		.4byte	.LASF48
 1940 0219 FEF500   		.sleb128 15102
 1941 021c 0B       		.uleb128 0xb
 1942 021d 58090000 		.4byte	.LASF49
 1943 0221 FFF500   		.sleb128 15103
 1944 0224 0B       		.uleb128 0xb
 1945 0225 38110000 		.4byte	.LASF50
 1946 0229 80F600   		.sleb128 15104
 1947 022c 0B       		.uleb128 0xb
 1948 022d 9D000000 		.4byte	.LASF51
 1949 0231 80FD00   		.sleb128 16000
 1950 0234 0B       		.uleb128 0xb
 1951 0235 A6000000 		.4byte	.LASF52
 1952 0239 E88401   		.sleb128 17000
 1953 023c 0B       		.uleb128 0xb
 1954 023d AF000000 		.4byte	.LASF53
 1955 0241 D08C01   		.sleb128 18000
 1956 0244 0B       		.uleb128 0xb
 1957 0245 E2030000 		.4byte	.LASF54
 1958 0249 D18C01   		.sleb128 18001
 1959 024c 0B       		.uleb128 0xb
 1960 024d C0020000 		.4byte	.LASF55
 1961 0251 D28C01   		.sleb128 18002
 1962 0254 0B       		.uleb128 0xb
 1963 0255 AD030000 		.4byte	.LASF56
 1964 0259 D38C01   		.sleb128 18003
 1965 025c 0B       		.uleb128 0xb
 1966 025d 6B010000 		.4byte	.LASF57
 1967 0261 D48C01   		.sleb128 18004
 1968 0264 0B       		.uleb128 0xb
 1969 0265 3C100000 		.4byte	.LASF58
 1970 0269 D58C01   		.sleb128 18005
 1971 026c 0B       		.uleb128 0xb
 1972 026d A10B0000 		.4byte	.LASF59
 1973 0271 D68C01   		.sleb128 18006
 1974 0274 0B       		.uleb128 0xb
 1975 0275 B8000000 		.4byte	.LASF60
 1976 0279 B89401   		.sleb128 19000
 1977 027c 0B       		.uleb128 0xb
 1978 027d C1000000 		.4byte	.LASF61
 1979 0281 A09C01   		.sleb128 20000
 1980 0284 0B       		.uleb128 0xb
 1981 0285 CA000000 		.4byte	.LASF62
ARM GAS  C:\Users\daniel01\AppData\Local\Temp\cccGTwC2.s 			page 53


 1982 0289 88A401   		.sleb128 21000
 1983 028c 0B       		.uleb128 0xb
 1984 028d BA0C0000 		.4byte	.LASF63
 1985 0291 89A401   		.sleb128 21001
 1986 0294 0B       		.uleb128 0xb
 1987 0295 D3000000 		.4byte	.LASF64
 1988 0299 F0AB01   		.sleb128 22000
 1989 029c 0B       		.uleb128 0xb
 1990 029d B40F0000 		.4byte	.LASF65
 1991 02a1 B9AD01   		.sleb128 22201
 1992 02a4 0B       		.uleb128 0xb
 1993 02a5 760A0000 		.4byte	.LASF66
 1994 02a9 BAAD01   		.sleb128 22202
 1995 02ac 0B       		.uleb128 0xb
 1996 02ad 9A0C0000 		.4byte	.LASF67
 1997 02b1 BBAD01   		.sleb128 22203
 1998 02b4 0B       		.uleb128 0xb
 1999 02b5 85070000 		.4byte	.LASF68
 2000 02b9 BCAD01   		.sleb128 22204
 2001 02bc 0B       		.uleb128 0xb
 2002 02bd 220A0000 		.4byte	.LASF69
 2003 02c1 BDAD01   		.sleb128 22205
 2004 02c4 0B       		.uleb128 0xb
 2005 02c5 810C0000 		.4byte	.LASF70
 2006 02c9 BEAD01   		.sleb128 22206
 2007 02cc 0B       		.uleb128 0xb
 2008 02cd 9E0A0000 		.4byte	.LASF71
 2009 02d1 BFAD01   		.sleb128 22207
 2010 02d4 0B       		.uleb128 0xb
 2011 02d5 8C040000 		.4byte	.LASF72
 2012 02d9 C0AD01   		.sleb128 22208
 2013 02dc 0B       		.uleb128 0xb
 2014 02dd 67120000 		.4byte	.LASF73
 2015 02e1 C1AD01   		.sleb128 22209
 2016 02e4 0B       		.uleb128 0xb
 2017 02e5 3D130000 		.4byte	.LASF74
 2018 02e9 C2AD01   		.sleb128 22210
 2019 02ec 0B       		.uleb128 0xb
 2020 02ed FF0C0000 		.4byte	.LASF75
 2021 02f1 9DAE01   		.sleb128 22301
 2022 02f4 0B       		.uleb128 0xb
 2023 02f5 640D0000 		.4byte	.LASF76
 2024 02f9 9EAE01   		.sleb128 22302
 2025 02fc 0B       		.uleb128 0xb
 2026 02fd 6B060000 		.4byte	.LASF77
 2027 0301 81AF01   		.sleb128 22401
 2028 0304 0B       		.uleb128 0xb
 2029 0305 4D0E0000 		.4byte	.LASF78
 2030 0309 82AF01   		.sleb128 22402
 2031 030c 0B       		.uleb128 0xb
 2032 030d 16030000 		.4byte	.LASF79
 2033 0311 83AF01   		.sleb128 22403
 2034 0314 0B       		.uleb128 0xb
 2035 0315 DC000000 		.4byte	.LASF80
 2036 0319 D8B301   		.sleb128 23000
 2037 031c 0B       		.uleb128 0xb
 2038 031d 0E060000 		.4byte	.LASF81
ARM GAS  C:\Users\daniel01\AppData\Local\Temp\cccGTwC2.s 			page 54


 2039 0321 D9B301   		.sleb128 23001
 2040 0324 0B       		.uleb128 0xb
 2041 0325 66040000 		.4byte	.LASF82
 2042 0329 DAB301   		.sleb128 23002
 2043 032c 0B       		.uleb128 0xb
 2044 032d E5000000 		.4byte	.LASF83
 2045 0331 C0BB01   		.sleb128 24000
 2046 0334 0B       		.uleb128 0xb
 2047 0335 6A030000 		.4byte	.LASF84
 2048 0339 C1BB01   		.sleb128 24001
 2049 033c 0B       		.uleb128 0xb
 2050 033d 34090000 		.4byte	.LASF85
 2051 0341 C2BB01   		.sleb128 24002
 2052 0344 0B       		.uleb128 0xb
 2053 0345 3A0A0000 		.4byte	.LASF86
 2054 0349 C3BB01   		.sleb128 24003
 2055 034c 0B       		.uleb128 0xb
 2056 034d E20D0000 		.4byte	.LASF87
 2057 0351 C4BB01   		.sleb128 24004
 2058 0354 0B       		.uleb128 0xb
 2059 0355 7F080000 		.4byte	.LASF88
 2060 0359 A5BC01   		.sleb128 24101
 2061 035c 0B       		.uleb128 0xb
 2062 035d 260C0000 		.4byte	.LASF89
 2063 0361 89BD01   		.sleb128 24201
 2064 0364 0B       		.uleb128 0xb
 2065 0365 F5060000 		.4byte	.LASF90
 2066 0369 8ABD01   		.sleb128 24202
 2067 036c 0B       		.uleb128 0xb
 2068 036d EE000000 		.4byte	.LASF91
 2069 0371 A8C301   		.sleb128 25000
 2070 0374 0B       		.uleb128 0xb
 2071 0375 55110000 		.4byte	.LASF92
 2072 0379 A9C301   		.sleb128 25001
 2073 037c 0B       		.uleb128 0xb
 2074 037d A10E0000 		.4byte	.LASF93
 2075 0381 AAC301   		.sleb128 25002
 2076 0384 0B       		.uleb128 0xb
 2077 0385 210E0000 		.4byte	.LASF94
 2078 0389 ABC301   		.sleb128 25003
 2079 038c 0B       		.uleb128 0xb
 2080 038d E4090000 		.4byte	.LASF95
 2081 0391 ACC301   		.sleb128 25004
 2082 0394 0B       		.uleb128 0xb
 2083 0395 94110000 		.4byte	.LASF96
 2084 0399 ADC301   		.sleb128 25005
 2085 039c 0B       		.uleb128 0xb
 2086 039d E90F0000 		.4byte	.LASF97
 2087 03a1 AEC301   		.sleb128 25006
 2088 03a4 0B       		.uleb128 0xb
 2089 03a5 69020000 		.4byte	.LASF98
 2090 03a9 AFC301   		.sleb128 25007
 2091 03ac 0B       		.uleb128 0xb
 2092 03ad 0C020000 		.4byte	.LASF99
 2093 03b1 B0C301   		.sleb128 25008
 2094 03b4 0B       		.uleb128 0xb
 2095 03b5 51040000 		.4byte	.LASF100
ARM GAS  C:\Users\daniel01\AppData\Local\Temp\cccGTwC2.s 			page 55


 2096 03b9 8DC401   		.sleb128 25101
 2097 03bc 0B       		.uleb128 0xb
 2098 03bd CD0E0000 		.4byte	.LASF101
 2099 03c1 8EC401   		.sleb128 25102
 2100 03c4 0B       		.uleb128 0xb
 2101 03c5 22130000 		.4byte	.LASF102
 2102 03c9 F1C401   		.sleb128 25201
 2103 03cc 0B       		.uleb128 0xb
 2104 03cd 88110000 		.4byte	.LASF103
 2105 03d1 F2C401   		.sleb128 25202
 2106 03d4 0B       		.uleb128 0xb
 2107 03d5 07000000 		.4byte	.LASF104
 2108 03d9 F3C401   		.sleb128 25203
 2109 03dc 0B       		.uleb128 0xb
 2110 03dd F60B0000 		.4byte	.LASF105
 2111 03e1 D5C501   		.sleb128 25301
 2112 03e4 0B       		.uleb128 0xb
 2113 03e5 F7000000 		.4byte	.LASF106
 2114 03e9 90CB01   		.sleb128 26000
 2115 03ec 0B       		.uleb128 0xb
 2116 03ed 2E100000 		.4byte	.LASF107
 2117 03f1 91CB01   		.sleb128 26001
 2118 03f4 0B       		.uleb128 0xb
 2119 03f5 D7050000 		.4byte	.LASF108
 2120 03f9 92CB01   		.sleb128 26002
 2121 03fc 0B       		.uleb128 0xb
 2122 03fd 10080000 		.4byte	.LASF109
 2123 0401 93CB01   		.sleb128 26003
 2124 0404 0B       		.uleb128 0xb
 2125 0405 B1090000 		.4byte	.LASF110
 2126 0409 94CB01   		.sleb128 26004
 2127 040c 0B       		.uleb128 0xb
 2128 040d 00010000 		.4byte	.LASF111
 2129 0411 F8D201   		.sleb128 27000
 2130 0414 0B       		.uleb128 0xb
 2131 0415 4E0A0000 		.4byte	.LASF112
 2132 0419 F9D201   		.sleb128 27001
 2133 041c 0B       		.uleb128 0xb
 2134 041d 6C0C0000 		.4byte	.LASF113
 2135 0421 FAD201   		.sleb128 27002
 2136 0424 0B       		.uleb128 0xb
 2137 0425 060A0000 		.4byte	.LASF114
 2138 0429 FBD201   		.sleb128 27003
 2139 042c 0B       		.uleb128 0xb
 2140 042d 09010000 		.4byte	.LASF115
 2141 0431 E0DA01   		.sleb128 28000
 2142 0434 0B       		.uleb128 0xb
 2143 0435 99080000 		.4byte	.LASF116
 2144 0439 E1DA01   		.sleb128 28001
 2145 043c 0B       		.uleb128 0xb
 2146 043d EB070000 		.4byte	.LASF117
 2147 0441 E2DA01   		.sleb128 28002
 2148 0444 0B       		.uleb128 0xb
 2149 0445 24110000 		.4byte	.LASF118
 2150 0449 E3DA01   		.sleb128 28003
 2151 044c 0B       		.uleb128 0xb
 2152 044d 70110000 		.4byte	.LASF119
ARM GAS  C:\Users\daniel01\AppData\Local\Temp\cccGTwC2.s 			page 56


 2153 0451 E4DA01   		.sleb128 28004
 2154 0454 0B       		.uleb128 0xb
 2155 0455 150D0000 		.4byte	.LASF120
 2156 0459 E5DA01   		.sleb128 28005
 2157 045c 0B       		.uleb128 0xb
 2158 045d AB120000 		.4byte	.LASF121
 2159 0461 C5DB01   		.sleb128 28101
 2160 0464 0B       		.uleb128 0xb
 2161 0465 95120000 		.4byte	.LASF122
 2162 0469 C6DB01   		.sleb128 28102
 2163 046c 0B       		.uleb128 0xb
 2164 046d 48020000 		.4byte	.LASF123
 2165 0471 A9DC01   		.sleb128 28201
 2166 0474 0B       		.uleb128 0xb
 2167 0475 CC080000 		.4byte	.LASF124
 2168 0479 AADC01   		.sleb128 28202
 2169 047c 0B       		.uleb128 0xb
 2170 047d 54070000 		.4byte	.LASF125
 2171 0481 ABDC01   		.sleb128 28203
 2172 0484 0B       		.uleb128 0xb
 2173 0485 690E0000 		.4byte	.LASF126
 2174 0489 ACDC01   		.sleb128 28204
 2175 048c 0B       		.uleb128 0xb
 2176 048d 090C0000 		.4byte	.LASF127
 2177 0491 ADDC01   		.sleb128 28205
 2178 0494 0B       		.uleb128 0xb
 2179 0495 CA0F0000 		.4byte	.LASF128
 2180 0499 AEDC01   		.sleb128 28206
 2181 049c 0B       		.uleb128 0xb
 2182 049d D9010000 		.4byte	.LASF129
 2183 04a1 AFDC01   		.sleb128 28207
 2184 04a4 0B       		.uleb128 0xb
 2185 04a5 220F0000 		.4byte	.LASF130
 2186 04a9 B0DC01   		.sleb128 28208
 2187 04ac 0B       		.uleb128 0xb
 2188 04ad F10E0000 		.4byte	.LASF131
 2189 04b1 B1DC01   		.sleb128 28209
 2190 04b4 0B       		.uleb128 0xb
 2191 04b5 12010000 		.4byte	.LASF132
 2192 04b9 C8E201   		.sleb128 29000
 2193 04bc 0B       		.uleb128 0xb
 2194 04bd 24020000 		.4byte	.LASF133
 2195 04c1 C9E201   		.sleb128 29001
 2196 04c4 0B       		.uleb128 0xb
 2197 04c5 C6060000 		.4byte	.LASF134
 2198 04c9 CAE201   		.sleb128 29002
 2199 04cc 0B       		.uleb128 0xb
 2200 04cd 7A100000 		.4byte	.LASF135
 2201 04d1 CBE201   		.sleb128 29003
 2202 04d4 0B       		.uleb128 0xb
 2203 04d5 BA120000 		.4byte	.LASF136
 2204 04d9 CCE201   		.sleb128 29004
 2205 04dc 0B       		.uleb128 0xb
 2206 04dd 70050000 		.4byte	.LASF137
 2207 04e1 CDE201   		.sleb128 29005
 2208 04e4 0B       		.uleb128 0xb
 2209 04e5 CE0B0000 		.4byte	.LASF138
ARM GAS  C:\Users\daniel01\AppData\Local\Temp\cccGTwC2.s 			page 57


 2210 04e9 CEE201   		.sleb128 29006
 2211 04ec 0B       		.uleb128 0xb
 2212 04ed 4D0B0000 		.4byte	.LASF139
 2213 04f1 CFE201   		.sleb128 29007
 2214 04f4 0B       		.uleb128 0xb
 2215 04f5 860A0000 		.4byte	.LASF140
 2216 04f9 D0E201   		.sleb128 29008
 2217 04fc 0B       		.uleb128 0xb
 2218 04fd A1020000 		.4byte	.LASF141
 2219 0501 D1E201   		.sleb128 29009
 2220 0504 0B       		.uleb128 0xb
 2221 0505 260B0000 		.4byte	.LASF142
 2222 0509 D2E201   		.sleb128 29010
 2223 050c 0B       		.uleb128 0xb
 2224 050d 87020000 		.4byte	.LASF143
 2225 0511 D3E201   		.sleb128 29011
 2226 0514 0B       		.uleb128 0xb
 2227 0515 5B0F0000 		.4byte	.LASF144
 2228 0519 D4E201   		.sleb128 29012
 2229 051c 0B       		.uleb128 0xb
 2230 051d F5010000 		.4byte	.LASF145
 2231 0521 D5E201   		.sleb128 29013
 2232 0524 0B       		.uleb128 0xb
 2233 0525 2B040000 		.4byte	.LASF146
 2234 0529 D6E201   		.sleb128 29014
 2235 052c 0B       		.uleb128 0xb
 2236 052d B50D0000 		.4byte	.LASF147
 2237 0531 D7E201   		.sleb128 29015
 2238 0534 0B       		.uleb128 0xb
 2239 0535 14050000 		.4byte	.LASF148
 2240 0539 D8E201   		.sleb128 29016
 2241 053c 0B       		.uleb128 0xb
 2242 053d D20C0000 		.4byte	.LASF149
 2243 0541 D9E201   		.sleb128 29017
 2244 0544 0B       		.uleb128 0xb
 2245 0545 7F120000 		.4byte	.LASF150
 2246 0549 DAE201   		.sleb128 29018
 2247 054c 0B       		.uleb128 0xb
 2248 054d 94030000 		.4byte	.LASF151
 2249 0551 DBE201   		.sleb128 29019
 2250 0554 0B       		.uleb128 0xb
 2251 0555 50050000 		.4byte	.LASF152
 2252 0559 DCE201   		.sleb128 29020
 2253 055c 0B       		.uleb128 0xb
 2254 055d FE020000 		.4byte	.LASF153
 2255 0561 DDE201   		.sleb128 29021
 2256 0564 0B       		.uleb128 0xb
 2257 0565 7E0B0000 		.4byte	.LASF154
 2258 0569 DEE201   		.sleb128 29022
 2259 056c 0B       		.uleb128 0xb
 2260 056d D8020000 		.4byte	.LASF155
 2261 0571 DFE201   		.sleb128 29023
 2262 0574 0B       		.uleb128 0xb
 2263 0575 B1050000 		.4byte	.LASF156
 2264 0579 ADE301   		.sleb128 29101
 2265 057c 0B       		.uleb128 0xb
 2266 057d D8040000 		.4byte	.LASF157
ARM GAS  C:\Users\daniel01\AppData\Local\Temp\cccGTwC2.s 			page 58


 2267 0581 C0E301   		.sleb128 29120
 2268 0584 0B       		.uleb128 0xb
 2269 0585 BF0B0000 		.4byte	.LASF158
 2270 0589 C1E301   		.sleb128 29121
 2271 058c 0B       		.uleb128 0xb
 2272 058d E9100000 		.4byte	.LASF159
 2273 0591 C2E301   		.sleb128 29122
 2274 0594 0B       		.uleb128 0xb
 2275 0595 6D080000 		.4byte	.LASF160
 2276 0599 C3E301   		.sleb128 29123
 2277 059c 0B       		.uleb128 0xb
 2278 059d 46060000 		.4byte	.LASF161
 2279 05a1 C4E301   		.sleb128 29124
 2280 05a4 0B       		.uleb128 0xb
 2281 05a5 09130000 		.4byte	.LASF162
 2282 05a9 91E401   		.sleb128 29201
 2283 05ac 0B       		.uleb128 0xb
 2284 05ad 4C0D0000 		.4byte	.LASF163
 2285 05b1 92E401   		.sleb128 29202
 2286 05b4 0B       		.uleb128 0xb
 2287 05b5 A5010000 		.4byte	.LASF164
 2288 05b9 93E401   		.sleb128 29203
 2289 05bc 0B       		.uleb128 0xb
 2290 05bd 030B0000 		.4byte	.LASF165
 2291 05c1 94E401   		.sleb128 29204
 2292 05c4 0B       		.uleb128 0xb
 2293 05c5 DD0E0000 		.4byte	.LASF166
 2294 05c9 F5E401   		.sleb128 29301
 2295 05cc 0B       		.uleb128 0xb
 2296 05cd EE120000 		.4byte	.LASF167
 2297 05d1 F6E401   		.sleb128 29302
 2298 05d4 0B       		.uleb128 0xb
 2299 05d5 CF120000 		.4byte	.LASF168
 2300 05d9 F7E401   		.sleb128 29303
 2301 05dc 0B       		.uleb128 0xb
 2302 05dd 8E060000 		.4byte	.LASF169
 2303 05e1 F8E401   		.sleb128 29304
 2304 05e4 0B       		.uleb128 0xb
 2305 05e5 4B000000 		.4byte	.LASF170
 2306 05e9 F9E401   		.sleb128 29305
 2307 05ec 0B       		.uleb128 0xb
 2308 05ed 55100000 		.4byte	.LASF171
 2309 05f1 FAE401   		.sleb128 29306
 2310 05f4 0B       		.uleb128 0xb
 2311 05f5 E6050000 		.4byte	.LASF172
 2312 05f9 FBE401   		.sleb128 29307
 2313 05fc 0B       		.uleb128 0xb
 2314 05fd E5080000 		.4byte	.LASF173
 2315 0601 FCE401   		.sleb128 29308
 2316 0604 0B       		.uleb128 0xb
 2317 0605 580C0000 		.4byte	.LASF174
 2318 0609 FDE401   		.sleb128 29309
 2319 060c 0B       		.uleb128 0xb
 2320 060d 2A070000 		.4byte	.LASF175
 2321 0611 FEE401   		.sleb128 29310
 2322 0614 0B       		.uleb128 0xb
 2323 0615 810F0000 		.4byte	.LASF176
ARM GAS  C:\Users\daniel01\AppData\Local\Temp\cccGTwC2.s 			page 59


 2324 0619 D9E501   		.sleb128 29401
 2325 061c 0B       		.uleb128 0xb
 2326 061d C4040000 		.4byte	.LASF177
 2327 0621 BDE601   		.sleb128 29501
 2328 0624 0B       		.uleb128 0xb
 2329 0625 D3070000 		.4byte	.LASF178
 2330 0629 BEE601   		.sleb128 29502
 2331 062c 0B       		.uleb128 0xb
 2332 062d 0B040000 		.4byte	.LASF179
 2333 0631 BFE601   		.sleb128 29503
 2334 0634 0B       		.uleb128 0xb
 2335 0635 3F010000 		.4byte	.LASF180
 2336 0639 C0E601   		.sleb128 29504
 2337 063c 0B       		.uleb128 0xb
 2338 063d 37030000 		.4byte	.LASF181
 2339 0641 C1E601   		.sleb128 29505
 2340 0644 0B       		.uleb128 0xb
 2341 0645 30050000 		.4byte	.LASF182
 2342 0649 C2E601   		.sleb128 29506
 2343 064c 0B       		.uleb128 0xb
 2344 064d 3C000000 		.4byte	.LASF183
 2345 0651 C3E601   		.sleb128 29507
 2346 0654 0B       		.uleb128 0xb
 2347 0655 AD040000 		.4byte	.LASF184
 2348 0659 C4E601   		.sleb128 29508
 2349 065c 0B       		.uleb128 0xb
 2350 065d A8060000 		.4byte	.LASF185
 2351 0661 C5E601   		.sleb128 29509
 2352 0664 0B       		.uleb128 0xb
 2353 0665 610B0000 		.4byte	.LASF186
 2354 0669 C6E601   		.sleb128 29510
 2355 066c 0B       		.uleb128 0xb
 2356 066d 88050000 		.4byte	.LASF187
 2357 0671 C7E601   		.sleb128 29511
 2358 0674 0B       		.uleb128 0xb
 2359 0675 E70A0000 		.4byte	.LASF188
 2360 0679 C8E601   		.sleb128 29512
 2361 067c 0B       		.uleb128 0xb
 2362 067d 3A0F0000 		.4byte	.LASF189
 2363 0681 C9E601   		.sleb128 29513
 2364 0684 0B       		.uleb128 0xb
 2365 0685 1B010000 		.4byte	.LASF190
 2366 0689 B0EA01   		.sleb128 30000
 2367 068c 0B       		.uleb128 0xb
 2368 068d 24010000 		.4byte	.LASF191
 2369 0691 98F201   		.sleb128 31000
 2370 0694 0B       		.uleb128 0xb
 2371 0695 2D010000 		.4byte	.LASF192
 2372 0699 80FA01   		.sleb128 32000
 2373 069c 0B       		.uleb128 0xb
 2374 069d 36010000 		.4byte	.LASF193
 2375 06a1 E88102   		.sleb128 33000
 2376 06a4 0B       		.uleb128 0xb
 2377 06a5 E00F0000 		.4byte	.LASF194
 2378 06a9 D08902   		.sleb128 34000
 2379 06ac 0B       		.uleb128 0xb
 2380 06ad 23090000 		.4byte	.LASF195
ARM GAS  C:\Users\daniel01\AppData\Local\Temp\cccGTwC2.s 			page 60


 2381 06b1 D18902   		.sleb128 34001
 2382 06b4 0B       		.uleb128 0xb
 2383 06b5 F90F0000 		.4byte	.LASF196
 2384 06b9 B89102   		.sleb128 35000
 2385 06bc 00       		.byte	0x0
 2386 06bd 09       		.uleb128 0x9
 2387 06be 1B000000 		.4byte	.LASF197
 2388 06c2 05       		.byte	0x5
 2389 06c3 7202     		.2byte	0x272
 2390 06c5 A9010000 		.4byte	0x1a9
 2391 06c9 09       		.uleb128 0x9
 2392 06ca C5070000 		.4byte	.LASF198
 2393 06ce 05       		.byte	0x5
 2394 06cf 8202     		.2byte	0x282
 2395 06d1 D5060000 		.4byte	0x6d5
 2396 06d5 0C       		.uleb128 0xc
 2397 06d6 AA050000 		.4byte	.LASF204
 2398 06da 10       		.byte	0x10
 2399 06db 05       		.byte	0x5
 2400 06dc 8202     		.2byte	0x282
 2401 06de 1F070000 		.4byte	0x71f
 2402 06e2 0D       		.uleb128 0xd
 2403 06e3 1E0C0000 		.4byte	.LASF199
 2404 06e7 05       		.byte	0x5
 2405 06e8 4103     		.2byte	0x341
 2406 06ea E70C0000 		.4byte	0xce7
 2407 06ee 02       		.byte	0x2
 2408 06ef 23       		.byte	0x23
 2409 06f0 00       		.uleb128 0x0
 2410 06f1 0D       		.uleb128 0xd
 2411 06f2 E2100000 		.4byte	.LASF200
 2412 06f6 05       		.byte	0x5
 2413 06f7 4203     		.2byte	0x342
 2414 06f9 B4000000 		.4byte	0xb4
 2415 06fd 02       		.byte	0x2
 2416 06fe 23       		.byte	0x23
 2417 06ff 04       		.uleb128 0x4
 2418 0700 0D       		.uleb128 0xd
 2419 0701 450E0000 		.4byte	.LASF201
 2420 0705 05       		.byte	0x5
 2421 0706 4303     		.2byte	0x343
 2422 0708 30010000 		.4byte	0x130
 2423 070c 02       		.byte	0x2
 2424 070d 23       		.byte	0x23
 2425 070e 08       		.uleb128 0x8
 2426 070f 0D       		.uleb128 0xd
 2427 0710 AC100000 		.4byte	.LASF202
 2428 0714 05       		.byte	0x5
 2429 0715 4403     		.2byte	0x344
 2430 0717 EE000000 		.4byte	0xee
 2431 071b 02       		.byte	0x2
 2432 071c 23       		.byte	0x23
 2433 071d 0C       		.uleb128 0xc
 2434 071e 00       		.byte	0x0
 2435 071f 09       		.uleb128 0x9
 2436 0720 15090000 		.4byte	.LASF203
 2437 0724 05       		.byte	0x5
ARM GAS  C:\Users\daniel01\AppData\Local\Temp\cccGTwC2.s 			page 61


 2438 0725 8402     		.2byte	0x284
 2439 0727 2B070000 		.4byte	0x72b
 2440 072b 0C       		.uleb128 0xc
 2441 072c 34130000 		.4byte	.LASF205
 2442 0730 10       		.byte	0x10
 2443 0731 05       		.byte	0x5
 2444 0732 8402     		.2byte	0x284
 2445 0734 84070000 		.4byte	0x784
 2446 0738 0D       		.uleb128 0xd
 2447 0739 080E0000 		.4byte	.LASF206
 2448 073d 05       		.byte	0x5
 2449 073e 5403     		.2byte	0x354
 2450 0740 E70C0000 		.4byte	0xce7
 2451 0744 02       		.byte	0x2
 2452 0745 23       		.byte	0x23
 2453 0746 00       		.uleb128 0x0
 2454 0747 0D       		.uleb128 0xd
 2455 0748 1A100000 		.4byte	.LASF207
 2456 074c 05       		.byte	0x5
 2457 074d 5503     		.2byte	0x355
 2458 074f E70C0000 		.4byte	0xce7
 2459 0753 02       		.byte	0x2
 2460 0754 23       		.byte	0x23
 2461 0755 04       		.uleb128 0x4
 2462 0756 0D       		.uleb128 0xd
 2463 0757 1B070000 		.4byte	.LASF208
 2464 075b 05       		.byte	0x5
 2465 075c 5603     		.2byte	0x356
 2466 075e 25010000 		.4byte	0x125
 2467 0762 02       		.byte	0x2
 2468 0763 23       		.byte	0x23
 2469 0764 08       		.uleb128 0x8
 2470 0765 0D       		.uleb128 0xd
 2471 0766 60010000 		.4byte	.LASF209
 2472 076a 05       		.byte	0x5
 2473 076b 5703     		.2byte	0x357
 2474 076d 25010000 		.4byte	0x125
 2475 0771 02       		.byte	0x2
 2476 0772 23       		.byte	0x23
 2477 0773 0A       		.uleb128 0xa
 2478 0774 0D       		.uleb128 0xd
 2479 0775 4C120000 		.4byte	.LASF210
 2480 0779 05       		.byte	0x5
 2481 077a 5803     		.2byte	0x358
 2482 077c 25010000 		.4byte	0x125
 2483 0780 02       		.byte	0x2
 2484 0781 23       		.byte	0x23
 2485 0782 0C       		.uleb128 0xc
 2486 0783 00       		.byte	0x0
 2487 0784 09       		.uleb128 0x9
 2488 0785 A3070000 		.4byte	.LASF211
 2489 0789 05       		.byte	0x5
 2490 078a 8A02     		.2byte	0x28a
 2491 078c 90070000 		.4byte	0x790
 2492 0790 0C       		.uleb128 0xc
 2493 0791 CB0A0000 		.4byte	.LASF212
 2494 0795 30       		.byte	0x30
ARM GAS  C:\Users\daniel01\AppData\Local\Temp\cccGTwC2.s 			page 62


 2495 0796 05       		.byte	0x5
 2496 0797 8A02     		.2byte	0x28a
 2497 0799 07080000 		.4byte	0x807
 2498 079d 0D       		.uleb128 0xd
 2499 079e 1E090000 		.4byte	.LASF213
 2500 07a2 05       		.byte	0x5
 2501 07a3 8003     		.2byte	0x380
 2502 07a5 51010000 		.4byte	0x151
 2503 07a9 02       		.byte	0x2
 2504 07aa 23       		.byte	0x23
 2505 07ab 00       		.uleb128 0x0
 2506 07ac 0D       		.uleb128 0xd
 2507 07ad F9080000 		.4byte	.LASF214
 2508 07b1 05       		.byte	0x5
 2509 07b2 8103     		.2byte	0x381
 2510 07b4 E10C0000 		.4byte	0xce1
 2511 07b8 02       		.byte	0x2
 2512 07b9 23       		.byte	0x23
 2513 07ba 04       		.uleb128 0x4
 2514 07bb 0D       		.uleb128 0xd
 2515 07bc D90D0000 		.4byte	.LASF215
 2516 07c0 05       		.byte	0x5
 2517 07c1 8203     		.2byte	0x382
 2518 07c3 140C0000 		.4byte	0xc14
 2519 07c7 02       		.byte	0x2
 2520 07c8 23       		.byte	0x23
 2521 07c9 08       		.uleb128 0x8
 2522 07ca 0D       		.uleb128 0xd
 2523 07cb B5020000 		.4byte	.LASF216
 2524 07cf 05       		.byte	0x5
 2525 07d0 8403     		.2byte	0x384
 2526 07d2 ED0C0000 		.4byte	0xced
 2527 07d6 02       		.byte	0x2
 2528 07d7 23       		.byte	0x23
 2529 07d8 14       		.uleb128 0x14
 2530 07d9 0D       		.uleb128 0xd
 2531 07da CD020000 		.4byte	.LASF217
 2532 07de 05       		.byte	0x5
 2533 07df 8503     		.2byte	0x385
 2534 07e1 ED0C0000 		.4byte	0xced
 2535 07e5 02       		.byte	0x2
 2536 07e6 23       		.byte	0x23
 2537 07e7 18       		.uleb128 0x18
 2538 07e8 0D       		.uleb128 0xd
 2539 07e9 0F100000 		.4byte	.LASF218
 2540 07ed 05       		.byte	0x5
 2541 07ee 8603     		.2byte	0x386
 2542 07f0 E10C0000 		.4byte	0xce1
 2543 07f4 02       		.byte	0x2
 2544 07f5 23       		.byte	0x23
 2545 07f6 1C       		.uleb128 0x1c
 2546 07f7 0D       		.uleb128 0xd
 2547 07f8 B9080000 		.4byte	.LASF219
 2548 07fc 05       		.byte	0x5
 2549 07fd 8903     		.2byte	0x389
 2550 07ff 1F070000 		.4byte	0x71f
 2551 0803 02       		.byte	0x2
ARM GAS  C:\Users\daniel01\AppData\Local\Temp\cccGTwC2.s 			page 63


 2552 0804 23       		.byte	0x23
 2553 0805 20       		.uleb128 0x20
 2554 0806 00       		.byte	0x0
 2555 0807 09       		.uleb128 0x9
 2556 0808 A80F0000 		.4byte	.LASF220
 2557 080c 05       		.byte	0x5
 2558 080d 8E02     		.2byte	0x28e
 2559 080f A2000000 		.4byte	0xa2
 2560 0813 09       		.uleb128 0x9
 2561 0814 1B0F0000 		.4byte	.LASF221
 2562 0818 05       		.byte	0x5
 2563 0819 9002     		.2byte	0x290
 2564 081b 1F080000 		.4byte	0x81f
 2565 081f 0C       		.uleb128 0xc
 2566 0820 00000000 		.4byte	.LASF222
 2567 0824 C0       		.byte	0xc0
 2568 0825 05       		.byte	0x5
 2569 0826 9002     		.2byte	0x290
 2570 0828 3B0B0000 		.4byte	0xb3b
 2571 082c 0D       		.uleb128 0xd
 2572 082d 6D090000 		.4byte	.LASF223
 2573 0831 05       		.byte	0x5
 2574 0832 AC03     		.2byte	0x3ac
 2575 0834 F30C0000 		.4byte	0xcf3
 2576 0838 02       		.byte	0x2
 2577 0839 23       		.byte	0x23
 2578 083a 00       		.uleb128 0x0
 2579 083b 0D       		.uleb128 0xd
 2580 083c 9A0E0000 		.4byte	.LASF224
 2581 0840 05       		.byte	0x5
 2582 0841 AE03     		.2byte	0x3ae
 2583 0843 B4000000 		.4byte	0xb4
 2584 0847 02       		.byte	0x2
 2585 0848 23       		.byte	0x23
 2586 0849 04       		.uleb128 0x4
 2587 084a 0D       		.uleb128 0xd
 2588 084b 4C0C0000 		.4byte	.LASF225
 2589 084f 05       		.byte	0x5
 2590 0850 B003     		.2byte	0x3b0
 2591 0852 F30C0000 		.4byte	0xcf3
 2592 0856 02       		.byte	0x2
 2593 0857 23       		.byte	0x23
 2594 0858 08       		.uleb128 0x8
 2595 0859 0D       		.uleb128 0xd
 2596 085a 1E0C0000 		.4byte	.LASF199
 2597 085e 05       		.byte	0x5
 2598 085f B203     		.2byte	0x3b2
 2599 0861 CF0C0000 		.4byte	0xccf
 2600 0865 02       		.byte	0x2
 2601 0866 23       		.byte	0x23
 2602 0867 0C       		.uleb128 0xc
 2603 0868 0D       		.uleb128 0xd
 2604 0869 29080000 		.4byte	.LASF226
 2605 086d 05       		.byte	0x5
 2606 086e B303     		.2byte	0x3b3
 2607 0870 CF0C0000 		.4byte	0xccf
 2608 0874 02       		.byte	0x2
ARM GAS  C:\Users\daniel01\AppData\Local\Temp\cccGTwC2.s 			page 64


 2609 0875 23       		.byte	0x23
 2610 0876 10       		.uleb128 0x10
 2611 0877 0D       		.uleb128 0xd
 2612 0878 1A0B0000 		.4byte	.LASF227
 2613 087c 05       		.byte	0x5
 2614 087d B503     		.2byte	0x3b5
 2615 087f CF0C0000 		.4byte	0xccf
 2616 0883 02       		.byte	0x2
 2617 0884 23       		.byte	0x23
 2618 0885 14       		.uleb128 0x14
 2619 0886 0D       		.uleb128 0xd
 2620 0887 3F070000 		.4byte	.LASF228
 2621 088b 05       		.byte	0x5
 2622 088c B603     		.2byte	0x3b6
 2623 088e CF0C0000 		.4byte	0xccf
 2624 0892 02       		.byte	0x2
 2625 0893 23       		.byte	0x23
 2626 0894 18       		.uleb128 0x18
 2627 0895 0D       		.uleb128 0xd
 2628 0896 02100000 		.4byte	.LASF229
 2629 089a 05       		.byte	0x5
 2630 089b B803     		.2byte	0x3b8
 2631 089d F90C0000 		.4byte	0xcf9
 2632 08a1 02       		.byte	0x2
 2633 08a2 23       		.byte	0x23
 2634 08a3 1C       		.uleb128 0x1c
 2635 08a4 0D       		.uleb128 0xd
 2636 08a5 F9080000 		.4byte	.LASF214
 2637 08a9 05       		.byte	0x5
 2638 08aa BA03     		.2byte	0x3ba
 2639 08ac E10C0000 		.4byte	0xce1
 2640 08b0 02       		.byte	0x2
 2641 08b1 23       		.byte	0x23
 2642 08b2 20       		.uleb128 0x20
 2643 08b3 0D       		.uleb128 0xd
 2644 08b4 CC050000 		.4byte	.LASF230
 2645 08b8 05       		.byte	0x5
 2646 08b9 BC03     		.2byte	0x3bc
 2647 08bb F30C0000 		.4byte	0xcf3
 2648 08bf 02       		.byte	0x2
 2649 08c0 23       		.byte	0x23
 2650 08c1 24       		.uleb128 0x24
 2651 08c2 0D       		.uleb128 0xd
 2652 08c3 BE080000 		.4byte	.LASF231
 2653 08c7 05       		.byte	0x5
 2654 08c8 C203     		.2byte	0x3c2
 2655 08ca 07080000 		.4byte	0x807
 2656 08ce 02       		.byte	0x2
 2657 08cf 23       		.byte	0x23
 2658 08d0 28       		.uleb128 0x28
 2659 08d1 0D       		.uleb128 0xd
 2660 08d2 21100000 		.4byte	.LASF232
 2661 08d6 05       		.byte	0x5
 2662 08d7 C303     		.2byte	0x3c3
 2663 08d9 B4000000 		.4byte	0xb4
 2664 08dd 02       		.byte	0x2
 2665 08de 23       		.byte	0x23
ARM GAS  C:\Users\daniel01\AppData\Local\Temp\cccGTwC2.s 			page 65


 2666 08df 2C       		.uleb128 0x2c
 2667 08e0 0D       		.uleb128 0xd
 2668 08e1 F20D0000 		.4byte	.LASF233
 2669 08e5 05       		.byte	0x5
 2670 08e6 C503     		.2byte	0x3c5
 2671 08e8 D50C0000 		.4byte	0xcd5
 2672 08ec 02       		.byte	0x2
 2673 08ed 23       		.byte	0x23
 2674 08ee 30       		.uleb128 0x30
 2675 08ef 0D       		.uleb128 0xd
 2676 08f0 50030000 		.4byte	.LASF234
 2677 08f4 05       		.byte	0x5
 2678 08f5 C603     		.2byte	0x3c6
 2679 08f7 88010000 		.4byte	0x188
 2680 08fb 02       		.byte	0x2
 2681 08fc 23       		.byte	0x23
 2682 08fd 34       		.uleb128 0x34
 2683 08fe 0D       		.uleb128 0xd
 2684 08ff 01090000 		.4byte	.LASF235
 2685 0903 05       		.byte	0x5
 2686 0904 C703     		.2byte	0x3c7
 2687 0906 93010000 		.4byte	0x193
 2688 090a 02       		.byte	0x2
 2689 090b 23       		.byte	0x23
 2690 090c 35       		.uleb128 0x35
 2691 090d 0D       		.uleb128 0xd
 2692 090e 3C060000 		.4byte	.LASF236
 2693 0912 05       		.byte	0x5
 2694 0913 C903     		.2byte	0x3c9
 2695 0915 88010000 		.4byte	0x188
 2696 0919 02       		.byte	0x2
 2697 091a 23       		.byte	0x23
 2698 091b 36       		.uleb128 0x36
 2699 091c 0D       		.uleb128 0xd
 2700 091d 49110000 		.4byte	.LASF237
 2701 0921 05       		.byte	0x5
 2702 0922 CA03     		.2byte	0x3ca
 2703 0924 67010000 		.4byte	0x167
 2704 0928 02       		.byte	0x2
 2705 0929 23       		.byte	0x23
 2706 092a 37       		.uleb128 0x37
 2707 092b 0D       		.uleb128 0xd
 2708 092c C4050000 		.4byte	.LASF238
 2709 0930 05       		.byte	0x5
 2710 0931 CB03     		.2byte	0x3cb
 2711 0933 CC000000 		.4byte	0xcc
 2712 0937 02       		.byte	0x2
 2713 0938 23       		.byte	0x23
 2714 0939 38       		.uleb128 0x38
 2715 093a 0E       		.uleb128 0xe
 2716 093b 4F707400 		.ascii	"Opt\000"
 2717 093f 05       		.byte	0x5
 2718 0940 CC03     		.2byte	0x3cc
 2719 0942 5C010000 		.4byte	0x15c
 2720 0946 02       		.byte	0x2
 2721 0947 23       		.byte	0x23
 2722 0948 3C       		.uleb128 0x3c
ARM GAS  C:\Users\daniel01\AppData\Local\Temp\cccGTwC2.s 			page 66


 2723 0949 0D       		.uleb128 0xd
 2724 094a 57030000 		.4byte	.LASF239
 2725 094e 05       		.byte	0x5
 2726 094f CE03     		.2byte	0x3ce
 2727 0951 46010000 		.4byte	0x146
 2728 0955 02       		.byte	0x2
 2729 0956 23       		.byte	0x23
 2730 0957 3E       		.uleb128 0x3e
 2731 0958 0E       		.uleb128 0xe
 2732 0959 545300   		.ascii	"TS\000"
 2733 095c 05       		.byte	0x5
 2734 095d D003     		.2byte	0x3d0
 2735 095f EE000000 		.4byte	0xee
 2736 0963 02       		.byte	0x2
 2737 0964 23       		.byte	0x23
 2738 0965 40       		.uleb128 0x40
 2739 0966 0D       		.uleb128 0xd
 2740 0967 010E0000 		.4byte	.LASF240
 2741 096b 05       		.byte	0x5
 2742 096c D203     		.2byte	0x3d2
 2743 096e 7D010000 		.4byte	0x17d
 2744 0972 02       		.byte	0x2
 2745 0973 23       		.byte	0x23
 2746 0974 44       		.uleb128 0x44
 2747 0975 0D       		.uleb128 0xd
 2748 0976 0F070000 		.4byte	.LASF241
 2749 097a 05       		.byte	0x5
 2750 097b D503     		.2byte	0x3d5
 2751 097d 9E010000 		.4byte	0x19e
 2752 0981 02       		.byte	0x2
 2753 0982 23       		.byte	0x23
 2754 0983 48       		.uleb128 0x48
 2755 0984 0D       		.uleb128 0xd
 2756 0985 BF030000 		.4byte	.LASF242
 2757 0989 05       		.byte	0x5
 2758 098a D603     		.2byte	0x3d6
 2759 098c 9E010000 		.4byte	0x19e
 2760 0990 02       		.byte	0x2
 2761 0991 23       		.byte	0x23
 2762 0992 4C       		.uleb128 0x4c
 2763 0993 0D       		.uleb128 0xd
 2764 0994 0E0E0000 		.4byte	.LASF243
 2765 0998 05       		.byte	0x5
 2766 0999 D703     		.2byte	0x3d7
 2767 099b 9E010000 		.4byte	0x19e
 2768 099f 02       		.byte	0x2
 2769 09a0 23       		.byte	0x23
 2770 09a1 50       		.uleb128 0x50
 2771 09a2 0D       		.uleb128 0xd
 2772 09a3 E3120000 		.4byte	.LASF244
 2773 09a7 05       		.byte	0x5
 2774 09a8 D903     		.2byte	0x3d9
 2775 09aa 9E010000 		.4byte	0x19e
 2776 09ae 02       		.byte	0x2
 2777 09af 23       		.byte	0x23
 2778 09b0 54       		.uleb128 0x54
 2779 09b1 0D       		.uleb128 0xd
ARM GAS  C:\Users\daniel01\AppData\Local\Temp\cccGTwC2.s 			page 67


 2780 09b2 24060000 		.4byte	.LASF245
 2781 09b6 05       		.byte	0x5
 2782 09b7 DA03     		.2byte	0x3da
 2783 09b9 9E010000 		.4byte	0x19e
 2784 09bd 02       		.byte	0x2
 2785 09be 23       		.byte	0x23
 2786 09bf 58       		.uleb128 0x58
 2787 09c0 0D       		.uleb128 0xd
 2788 09c1 E2100000 		.4byte	.LASF200
 2789 09c5 05       		.byte	0x5
 2790 09c6 DD03     		.2byte	0x3dd
 2791 09c8 B4000000 		.4byte	0xb4
 2792 09cc 02       		.byte	0x2
 2793 09cd 23       		.byte	0x23
 2794 09ce 5C       		.uleb128 0x5c
 2795 09cf 0D       		.uleb128 0xd
 2796 09d0 450E0000 		.4byte	.LASF201
 2797 09d4 05       		.byte	0x5
 2798 09d5 DE03     		.2byte	0x3de
 2799 09d7 30010000 		.4byte	0x130
 2800 09db 02       		.byte	0x2
 2801 09dc 23       		.byte	0x23
 2802 09dd 60       		.uleb128 0x60
 2803 09de 0D       		.uleb128 0xd
 2804 09df B9080000 		.4byte	.LASF219
 2805 09e3 05       		.byte	0x5
 2806 09e4 E203     		.2byte	0x3e2
 2807 09e6 1F070000 		.4byte	0x71f
 2808 09ea 02       		.byte	0x2
 2809 09eb 23       		.byte	0x23
 2810 09ec 64       		.uleb128 0x64
 2811 09ed 0D       		.uleb128 0xd
 2812 09ee B8070000 		.4byte	.LASF246
 2813 09f2 05       		.byte	0x5
 2814 09f3 E403     		.2byte	0x3e4
 2815 09f5 EE000000 		.4byte	0xee
 2816 09f9 02       		.byte	0x2
 2817 09fa 23       		.byte	0x23
 2818 09fb 74       		.uleb128 0x74
 2819 09fc 0D       		.uleb128 0xd
 2820 09fd A8070000 		.4byte	.LASF247
 2821 0a01 05       		.byte	0x5
 2822 0a02 E503     		.2byte	0x3e5
 2823 0a04 EE000000 		.4byte	0xee
 2824 0a08 02       		.byte	0x2
 2825 0a09 23       		.byte	0x23
 2826 0a0a 78       		.uleb128 0x78
 2827 0a0b 0D       		.uleb128 0xd
 2828 0a0c A4120000 		.4byte	.LASF248
 2829 0a10 05       		.byte	0x5
 2830 0a11 EA03     		.2byte	0x3ea
 2831 0a13 FF0C0000 		.4byte	0xcff
 2832 0a17 02       		.byte	0x2
 2833 0a18 23       		.byte	0x23
 2834 0a19 7C       		.uleb128 0x7c
 2835 0a1a 0D       		.uleb128 0xd
 2836 0a1b 01040000 		.4byte	.LASF249
ARM GAS  C:\Users\daniel01\AppData\Local\Temp\cccGTwC2.s 			page 68


 2837 0a1f 05       		.byte	0x5
 2838 0a20 EE03     		.2byte	0x3ee
 2839 0a22 1A010000 		.4byte	0x11a
 2840 0a26 03       		.byte	0x3
 2841 0a27 23       		.byte	0x23
 2842 0a28 8001     		.uleb128 0x80
 2843 0a2a 0D       		.uleb128 0xd
 2844 0a2b 4B070000 		.4byte	.LASF250
 2845 0a2f 05       		.byte	0x5
 2846 0a30 EF03     		.2byte	0x3ef
 2847 0a32 1A010000 		.4byte	0x11a
 2848 0a36 03       		.byte	0x3
 2849 0a37 23       		.byte	0x23
 2850 0a38 8401     		.uleb128 0x84
 2851 0a3a 0D       		.uleb128 0xd
 2852 0a3b EC010000 		.4byte	.LASF251
 2853 0a3f 05       		.byte	0x5
 2854 0a40 F003     		.2byte	0x3f0
 2855 0a42 5C010000 		.4byte	0x15c
 2856 0a46 03       		.byte	0x3
 2857 0a47 23       		.byte	0x23
 2858 0a48 8801     		.uleb128 0x88
 2859 0a4a 0D       		.uleb128 0xd
 2860 0a4b C00A0000 		.4byte	.LASF252
 2861 0a4f 05       		.byte	0x5
 2862 0a50 F403     		.2byte	0x3f4
 2863 0a52 3B010000 		.4byte	0x13b
 2864 0a56 03       		.byte	0x3
 2865 0a57 23       		.byte	0x23
 2866 0a58 8A01     		.uleb128 0x8a
 2867 0a5a 0D       		.uleb128 0xd
 2868 0a5b 67110000 		.4byte	.LASF253
 2869 0a5f 05       		.byte	0x5
 2870 0a60 F803     		.2byte	0x3f8
 2871 0a62 F9000000 		.4byte	0xf9
 2872 0a66 03       		.byte	0x3
 2873 0a67 23       		.byte	0x23
 2874 0a68 8C01     		.uleb128 0x8c
 2875 0a6a 0D       		.uleb128 0xd
 2876 0a6b CD0D0000 		.4byte	.LASF254
 2877 0a6f 05       		.byte	0x5
 2878 0a70 F903     		.2byte	0x3f9
 2879 0a72 F9000000 		.4byte	0xf9
 2880 0a76 03       		.byte	0x3
 2881 0a77 23       		.byte	0x23
 2882 0a78 8E01     		.uleb128 0x8e
 2883 0a7a 0D       		.uleb128 0xd
 2884 0a7b 22040000 		.4byte	.LASF255
 2885 0a7f 05       		.byte	0x5
 2886 0a80 FA03     		.2byte	0x3fa
 2887 0a82 04010000 		.4byte	0x104
 2888 0a86 03       		.byte	0x3
 2889 0a87 23       		.byte	0x23
 2890 0a88 9001     		.uleb128 0x90
 2891 0a8a 0D       		.uleb128 0xd
 2892 0a8b D00A0000 		.4byte	.LASF256
 2893 0a8f 05       		.byte	0x5
ARM GAS  C:\Users\daniel01\AppData\Local\Temp\cccGTwC2.s 			page 69


 2894 0a90 FB03     		.2byte	0x3fb
 2895 0a92 EE000000 		.4byte	0xee
 2896 0a96 03       		.byte	0x3
 2897 0a97 23       		.byte	0x23
 2898 0a98 9401     		.uleb128 0x94
 2899 0a9a 0D       		.uleb128 0xd
 2900 0a9b BF090000 		.4byte	.LASF257
 2901 0a9f 05       		.byte	0x5
 2902 0aa0 FC03     		.2byte	0x3fc
 2903 0aa2 EE000000 		.4byte	0xee
 2904 0aa6 03       		.byte	0x3
 2905 0aa7 23       		.byte	0x23
 2906 0aa8 9801     		.uleb128 0x98
 2907 0aaa 0D       		.uleb128 0xd
 2908 0aab 8C0D0000 		.4byte	.LASF258
 2909 0aaf 05       		.byte	0x5
 2910 0ab0 FD03     		.2byte	0x3fd
 2911 0ab2 0F010000 		.4byte	0x10f
 2912 0ab6 03       		.byte	0x3
 2913 0ab7 23       		.byte	0x23
 2914 0ab8 9C01     		.uleb128 0x9c
 2915 0aba 0D       		.uleb128 0xd
 2916 0abb 3C0D0000 		.4byte	.LASF259
 2917 0abf 05       		.byte	0x5
 2918 0ac0 FE03     		.2byte	0x3fe
 2919 0ac2 0F010000 		.4byte	0x10f
 2920 0ac6 03       		.byte	0x3
 2921 0ac7 23       		.byte	0x23
 2922 0ac8 A001     		.uleb128 0xa0
 2923 0aca 0D       		.uleb128 0xd
 2924 0acb E20B0000 		.4byte	.LASF260
 2925 0acf 05       		.byte	0x5
 2926 0ad0 0004     		.2byte	0x400
 2927 0ad2 EE000000 		.4byte	0xee
 2928 0ad6 03       		.byte	0x3
 2929 0ad7 23       		.byte	0x23
 2930 0ad8 A401     		.uleb128 0xa4
 2931 0ada 0D       		.uleb128 0xd
 2932 0adb 2D0D0000 		.4byte	.LASF261
 2933 0adf 05       		.byte	0x5
 2934 0ae0 0104     		.2byte	0x401
 2935 0ae2 EE000000 		.4byte	0xee
 2936 0ae6 03       		.byte	0x3
 2937 0ae7 23       		.byte	0x23
 2938 0ae8 A801     		.uleb128 0xa8
 2939 0aea 0D       		.uleb128 0xd
 2940 0aeb 28050000 		.4byte	.LASF262
 2941 0aef 05       		.byte	0x5
 2942 0af0 0504     		.2byte	0x405
 2943 0af2 CC000000 		.4byte	0xcc
 2944 0af6 03       		.byte	0x3
 2945 0af7 23       		.byte	0x23
 2946 0af8 AC01     		.uleb128 0xac
 2947 0afa 0D       		.uleb128 0xd
 2948 0afb 07070000 		.4byte	.LASF263
 2949 0aff 05       		.byte	0x5
 2950 0b00 0604     		.2byte	0x406
ARM GAS  C:\Users\daniel01\AppData\Local\Temp\cccGTwC2.s 			page 70


 2951 0b02 CC000000 		.4byte	0xcc
 2952 0b06 03       		.byte	0x3
 2953 0b07 23       		.byte	0x23
 2954 0b08 B001     		.uleb128 0xb0
 2955 0b0a 0D       		.uleb128 0xd
 2956 0b0b B5020000 		.4byte	.LASF216
 2957 0b0f 05       		.byte	0x5
 2958 0b10 1104     		.2byte	0x411
 2959 0b12 CF0C0000 		.4byte	0xccf
 2960 0b16 03       		.byte	0x3
 2961 0b17 23       		.byte	0x23
 2962 0b18 B401     		.uleb128 0xb4
 2963 0b1a 0D       		.uleb128 0xd
 2964 0b1b CD020000 		.4byte	.LASF217
 2965 0b1f 05       		.byte	0x5
 2966 0b20 1204     		.2byte	0x412
 2967 0b22 CF0C0000 		.4byte	0xccf
 2968 0b26 03       		.byte	0x3
 2969 0b27 23       		.byte	0x23
 2970 0b28 B801     		.uleb128 0xb8
 2971 0b2a 0D       		.uleb128 0xd
 2972 0b2b 0F100000 		.4byte	.LASF218
 2973 0b2f 05       		.byte	0x5
 2974 0b30 1304     		.2byte	0x413
 2975 0b32 E10C0000 		.4byte	0xce1
 2976 0b36 03       		.byte	0x3
 2977 0b37 23       		.byte	0x23
 2978 0b38 BC01     		.uleb128 0xbc
 2979 0b3a 00       		.byte	0x0
 2980 0b3b 09       		.uleb128 0x9
 2981 0b3c 7E040000 		.4byte	.LASF264
 2982 0b40 05       		.byte	0x5
 2983 0b41 9E02     		.2byte	0x29e
 2984 0b43 470B0000 		.4byte	0xb47
 2985 0b47 0C       		.uleb128 0xc
 2986 0b48 7D090000 		.4byte	.LASF265
 2987 0b4c 08       		.byte	0x8
 2988 0b4d 05       		.byte	0x5
 2989 0b4e 9E02     		.2byte	0x29e
 2990 0b50 820B0000 		.4byte	0xb82
 2991 0b54 0D       		.uleb128 0xd
 2992 0b55 600E0000 		.4byte	.LASF266
 2993 0b59 05       		.byte	0x5
 2994 0b5a 1F04     		.2byte	0x41f
 2995 0b5c CF0C0000 		.4byte	0xccf
 2996 0b60 02       		.byte	0x2
 2997 0b61 23       		.byte	0x23
 2998 0b62 00       		.uleb128 0x0
 2999 0b63 0D       		.uleb128 0xd
 3000 0b64 60010000 		.4byte	.LASF209
 3001 0b68 05       		.byte	0x5
 3002 0b69 2004     		.2byte	0x420
 3003 0b6b 46010000 		.4byte	0x146
 3004 0b6f 02       		.byte	0x2
 3005 0b70 23       		.byte	0x23
 3006 0b71 04       		.uleb128 0x4
 3007 0b72 0D       		.uleb128 0xd
ARM GAS  C:\Users\daniel01\AppData\Local\Temp\cccGTwC2.s 			page 71


 3008 0b73 4C120000 		.4byte	.LASF210
 3009 0b77 05       		.byte	0x5
 3010 0b78 2104     		.2byte	0x421
 3011 0b7a 46010000 		.4byte	0x146
 3012 0b7e 02       		.byte	0x2
 3013 0b7f 23       		.byte	0x23
 3014 0b80 06       		.uleb128 0x6
 3015 0b81 00       		.byte	0x0
 3016 0b82 09       		.uleb128 0x9
 3017 0b83 43050000 		.4byte	.LASF267
 3018 0b87 05       		.byte	0x5
 3019 0b88 A502     		.2byte	0x2a5
 3020 0b8a 8E0B0000 		.4byte	0xb8e
 3021 0b8e 0C       		.uleb128 0xc
 3022 0b8f 0E110000 		.4byte	.LASF268
 3023 0b93 20       		.byte	0x20
 3024 0b94 05       		.byte	0x5
 3025 0b95 A502     		.2byte	0x2a5
 3026 0b97 140C0000 		.4byte	0xc14
 3027 0b9b 0D       		.uleb128 0xd
 3028 0b9c 29080000 		.4byte	.LASF226
 3029 0ba0 05       		.byte	0x5
 3030 0ba1 DE02     		.2byte	0x2de
 3031 0ba3 D50C0000 		.4byte	0xcd5
 3032 0ba7 02       		.byte	0x2
 3033 0ba8 23       		.byte	0x23
 3034 0ba9 00       		.uleb128 0x0
 3035 0baa 0D       		.uleb128 0xd
 3036 0bab 1E0C0000 		.4byte	.LASF199
 3037 0baf 05       		.byte	0x5
 3038 0bb0 DF02     		.2byte	0x2df
 3039 0bb2 D50C0000 		.4byte	0xcd5
 3040 0bb6 02       		.byte	0x2
 3041 0bb7 23       		.byte	0x23
 3042 0bb8 04       		.uleb128 0x4
 3043 0bb9 0D       		.uleb128 0xd
 3044 0bba DD090000 		.4byte	.LASF269
 3045 0bbe 05       		.byte	0x5
 3046 0bbf E002     		.2byte	0x2e0
 3047 0bc1 CF0C0000 		.4byte	0xccf
 3048 0bc5 02       		.byte	0x2
 3049 0bc6 23       		.byte	0x23
 3050 0bc7 08       		.uleb128 0x8
 3051 0bc8 0D       		.uleb128 0xd
 3052 0bc9 A4110000 		.4byte	.LASF270
 3053 0bcd 05       		.byte	0x5
 3054 0bce E102     		.2byte	0x2e1
 3055 0bd0 DB0C0000 		.4byte	0xcdb
 3056 0bd4 02       		.byte	0x2
 3057 0bd5 23       		.byte	0x23
 3058 0bd6 0C       		.uleb128 0xc
 3059 0bd7 0D       		.uleb128 0xd
 3060 0bd8 970B0000 		.4byte	.LASF271
 3061 0bdc 05       		.byte	0x5
 3062 0bdd E202     		.2byte	0x2e2
 3063 0bdf DB0C0000 		.4byte	0xcdb
 3064 0be3 02       		.byte	0x2
ARM GAS  C:\Users\daniel01\AppData\Local\Temp\cccGTwC2.s 			page 72


 3065 0be4 23       		.byte	0x23
 3066 0be5 10       		.uleb128 0x10
 3067 0be6 0D       		.uleb128 0xd
 3068 0be7 CC030000 		.4byte	.LASF272
 3069 0beb 05       		.byte	0x5
 3070 0bec E302     		.2byte	0x2e3
 3071 0bee B4000000 		.4byte	0xb4
 3072 0bf2 02       		.byte	0x2
 3073 0bf3 23       		.byte	0x23
 3074 0bf4 14       		.uleb128 0x14
 3075 0bf5 0D       		.uleb128 0xd
 3076 0bf6 F40C0000 		.4byte	.LASF273
 3077 0bfa 05       		.byte	0x5
 3078 0bfb E402     		.2byte	0x2e4
 3079 0bfd 30010000 		.4byte	0x130
 3080 0c01 02       		.byte	0x2
 3081 0c02 23       		.byte	0x23
 3082 0c03 18       		.uleb128 0x18
 3083 0c04 0D       		.uleb128 0xd
 3084 0c05 B40C0000 		.4byte	.LASF274
 3085 0c09 05       		.byte	0x5
 3086 0c0a E502     		.2byte	0x2e5
 3087 0c0c EE000000 		.4byte	0xee
 3088 0c10 02       		.byte	0x2
 3089 0c11 23       		.byte	0x23
 3090 0c12 1C       		.uleb128 0x1c
 3091 0c13 00       		.byte	0x0
 3092 0c14 09       		.uleb128 0x9
 3093 0c15 8A100000 		.4byte	.LASF275
 3094 0c19 05       		.byte	0x5
 3095 0c1a A602     		.2byte	0x2a6
 3096 0c1c 200C0000 		.4byte	0xc20
 3097 0c20 0C       		.uleb128 0xc
 3098 0c21 5A120000 		.4byte	.LASF276
 3099 0c25 0C       		.byte	0xc
 3100 0c26 05       		.byte	0x5
 3101 0c27 A602     		.2byte	0x2a6
 3102 0c29 5B0C0000 		.4byte	0xc5b
 3103 0c2d 0D       		.uleb128 0xd
 3104 0c2e 190E0000 		.4byte	.LASF277
 3105 0c32 05       		.byte	0x5
 3106 0c33 EA02     		.2byte	0x2ea
 3107 0c35 D50C0000 		.4byte	0xcd5
 3108 0c39 02       		.byte	0x2
 3109 0c3a 23       		.byte	0x23
 3110 0c3b 00       		.uleb128 0x0
 3111 0c3c 0D       		.uleb128 0xd
 3112 0c3d 85030000 		.4byte	.LASF278
 3113 0c41 05       		.byte	0x5
 3114 0c42 EB02     		.2byte	0x2eb
 3115 0c44 D50C0000 		.4byte	0xcd5
 3116 0c48 02       		.byte	0x2
 3117 0c49 23       		.byte	0x23
 3118 0c4a 04       		.uleb128 0x4
 3119 0c4b 0D       		.uleb128 0xd
 3120 0c4c 60010000 		.4byte	.LASF209
 3121 0c50 05       		.byte	0x5
ARM GAS  C:\Users\daniel01\AppData\Local\Temp\cccGTwC2.s 			page 73


 3122 0c51 EC02     		.2byte	0x2ec
 3123 0c53 46010000 		.4byte	0x146
 3124 0c57 02       		.byte	0x2
 3125 0c58 23       		.byte	0x23
 3126 0c59 08       		.uleb128 0x8
 3127 0c5a 00       		.byte	0x0
 3128 0c5b 09       		.uleb128 0x9
 3129 0c5c 9F0D0000 		.4byte	.LASF279
 3130 0c60 05       		.byte	0x5
 3131 0c61 A702     		.2byte	0x2a7
 3132 0c63 670C0000 		.4byte	0xc67
 3133 0c67 0C       		.uleb128 0xc
 3134 0c68 D6030000 		.4byte	.LASF280
 3135 0c6c 20       		.byte	0x20
 3136 0c6d 05       		.byte	0x5
 3137 0c6e A702     		.2byte	0x2a7
 3138 0c70 CF0C0000 		.4byte	0xccf
 3139 0c74 0D       		.uleb128 0xd
 3140 0c75 1E090000 		.4byte	.LASF213
 3141 0c79 05       		.byte	0x5
 3142 0c7a 0003     		.2byte	0x300
 3143 0c7c 51010000 		.4byte	0x151
 3144 0c80 02       		.byte	0x2
 3145 0c81 23       		.byte	0x23
 3146 0c82 00       		.uleb128 0x0
 3147 0c83 0D       		.uleb128 0xd
 3148 0c84 F9080000 		.4byte	.LASF214
 3149 0c88 05       		.byte	0x5
 3150 0c89 0103     		.2byte	0x301
 3151 0c8b E10C0000 		.4byte	0xce1
 3152 0c8f 02       		.byte	0x2
 3153 0c90 23       		.byte	0x23
 3154 0c91 04       		.uleb128 0x4
 3155 0c92 0D       		.uleb128 0xd
 3156 0c93 D90D0000 		.4byte	.LASF215
 3157 0c97 05       		.byte	0x5
 3158 0c98 0203     		.2byte	0x302
 3159 0c9a 140C0000 		.4byte	0xc14
 3160 0c9e 02       		.byte	0x2
 3161 0c9f 23       		.byte	0x23
 3162 0ca0 08       		.uleb128 0x8
 3163 0ca1 0D       		.uleb128 0xd
 3164 0ca2 B5020000 		.4byte	.LASF216
 3165 0ca6 05       		.byte	0x5
 3166 0ca7 0403     		.2byte	0x304
 3167 0ca9 B4000000 		.4byte	0xb4
 3168 0cad 02       		.byte	0x2
 3169 0cae 23       		.byte	0x23
 3170 0caf 14       		.uleb128 0x14
 3171 0cb0 0D       		.uleb128 0xd
 3172 0cb1 CD020000 		.4byte	.LASF217
 3173 0cb5 05       		.byte	0x5
 3174 0cb6 0503     		.2byte	0x305
 3175 0cb8 B4000000 		.4byte	0xb4
 3176 0cbc 02       		.byte	0x2
 3177 0cbd 23       		.byte	0x23
 3178 0cbe 18       		.uleb128 0x18
ARM GAS  C:\Users\daniel01\AppData\Local\Temp\cccGTwC2.s 			page 74


 3179 0cbf 0D       		.uleb128 0xd
 3180 0cc0 0F100000 		.4byte	.LASF218
 3181 0cc4 05       		.byte	0x5
 3182 0cc5 0603     		.2byte	0x306
 3183 0cc7 E10C0000 		.4byte	0xce1
 3184 0ccb 02       		.byte	0x2
 3185 0ccc 23       		.byte	0x23
 3186 0ccd 1C       		.uleb128 0x1c
 3187 0cce 00       		.byte	0x0
 3188 0ccf 05       		.uleb128 0x5
 3189 0cd0 04       		.byte	0x4
 3190 0cd1 13080000 		.4byte	0x813
 3191 0cd5 05       		.uleb128 0x5
 3192 0cd6 04       		.byte	0x4
 3193 0cd7 820B0000 		.4byte	0xb82
 3194 0cdb 05       		.uleb128 0x5
 3195 0cdc 04       		.byte	0x4
 3196 0cdd 5B0C0000 		.4byte	0xc5b
 3197 0ce1 05       		.uleb128 0x5
 3198 0ce2 04       		.byte	0x4
 3199 0ce3 29000000 		.4byte	0x29
 3200 0ce7 05       		.uleb128 0x5
 3201 0ce8 04       		.byte	0x4
 3202 0ce9 C9060000 		.4byte	0x6c9
 3203 0ced 05       		.uleb128 0x5
 3204 0cee 04       		.byte	0x4
 3205 0cef 84070000 		.4byte	0x784
 3206 0cf3 05       		.uleb128 0x5
 3207 0cf4 04       		.byte	0x4
 3208 0cf5 C1000000 		.4byte	0xc1
 3209 0cf9 05       		.uleb128 0x5
 3210 0cfa 04       		.byte	0x4
 3211 0cfb 3B0B0000 		.4byte	0xb3b
 3212 0cff 0F       		.uleb128 0xf
 3213 0d00 72010000 		.4byte	0x172
 3214 0d04 0F0D0000 		.4byte	0xd0f
 3215 0d08 10       		.uleb128 0x10
 3216 0d09 0F0D0000 		.4byte	0xd0f
 3217 0d0d 00       		.byte	0x0
 3218 0d0e 00       		.byte	0x0
 3219 0d0f 11       		.uleb128 0x11
 3220 0d10 04       		.byte	0x4
 3221 0d11 07       		.byte	0x7
 3222 0d12 12       		.uleb128 0x12
 3223 0d13 01       		.byte	0x1
 3224 0d14 AB0D0000 		.4byte	.LASF299
 3225 0d18 01       		.byte	0x1
 3226 0d19 47       		.byte	0x47
 3227 0d1a 01       		.byte	0x1
 3228 0d1b 00000000 		.4byte	.LFB0
 3229 0d1f BA000000 		.4byte	.LFE0
 3230 0d23 00000000 		.4byte	.LLST0
 3231 0d27 720D0000 		.4byte	0xd72
 3232 0d2b 13       		.uleb128 0x13
 3233 0d2c 705F7100 		.ascii	"p_q\000"
 3234 0d30 01       		.byte	0x1
 3235 0d31 47       		.byte	0x47
ARM GAS  C:\Users\daniel01\AppData\Local\Temp\cccGTwC2.s 			page 75


 3236 0d32 ED0C0000 		.4byte	0xced
 3237 0d36 02       		.byte	0x2
 3238 0d37 91       		.byte	0x91
 3239 0d38 6C       		.sleb128 -20
 3240 0d39 14       		.uleb128 0x14
 3241 0d3a CC070000 		.4byte	.LASF281
 3242 0d3e 01       		.byte	0x1
 3243 0d3f 48       		.byte	0x48
 3244 0d40 E10C0000 		.4byte	0xce1
 3245 0d44 02       		.byte	0x2
 3246 0d45 91       		.byte	0x91
 3247 0d46 68       		.sleb128 -24
 3248 0d47 14       		.uleb128 0x14
 3249 0d48 D5090000 		.4byte	.LASF282
 3250 0d4c 01       		.byte	0x1
 3251 0d4d 49       		.byte	0x49
 3252 0d4e 25010000 		.4byte	0x125
 3253 0d52 02       		.byte	0x2
 3254 0d53 91       		.byte	0x91
 3255 0d54 66       		.sleb128 -26
 3256 0d55 14       		.uleb128 0x14
 3257 0d56 9D070000 		.4byte	.LASF283
 3258 0d5a 01       		.byte	0x1
 3259 0d5b 4A       		.byte	0x4a
 3260 0d5c 720D0000 		.4byte	0xd72
 3261 0d60 02       		.byte	0x2
 3262 0d61 91       		.byte	0x91
 3263 0d62 60       		.sleb128 -32
 3264 0d63 15       		.uleb128 0x15
 3265 0d64 A6040000 		.4byte	.LASF284
 3266 0d68 01       		.byte	0x1
 3267 0d69 4D       		.byte	0x4d
 3268 0d6a D7000000 		.4byte	0xd7
 3269 0d6e 02       		.byte	0x2
 3270 0d6f 91       		.byte	0x91
 3271 0d70 74       		.sleb128 -12
 3272 0d71 00       		.byte	0x0
 3273 0d72 05       		.uleb128 0x5
 3274 0d73 04       		.byte	0x4
 3275 0d74 BD060000 		.4byte	0x6bd
 3276 0d78 16       		.uleb128 0x16
 3277 0d79 01       		.byte	0x1
 3278 0d7a 0A0F0000 		.4byte	.LASF289
 3279 0d7e 01       		.byte	0x1
 3280 0d7f A7       		.byte	0xa7
 3281 0d80 01       		.byte	0x1
 3282 0d81 46010000 		.4byte	0x146
 3283 0d85 00000000 		.4byte	.LFB1
 3284 0d89 52010000 		.4byte	.LFE1
 3285 0d8d 37000000 		.4byte	.LLST1
 3286 0d91 210E0000 		.4byte	0xe21
 3287 0d95 13       		.uleb128 0x13
 3288 0d96 705F7100 		.ascii	"p_q\000"
 3289 0d9a 01       		.byte	0x1
 3290 0d9b A7       		.byte	0xa7
 3291 0d9c ED0C0000 		.4byte	0xced
 3292 0da0 02       		.byte	0x2
ARM GAS  C:\Users\daniel01\AppData\Local\Temp\cccGTwC2.s 			page 76


 3293 0da1 91       		.byte	0x91
 3294 0da2 5C       		.sleb128 -36
 3295 0da3 13       		.uleb128 0x13
 3296 0da4 6F707400 		.ascii	"opt\000"
 3297 0da8 01       		.byte	0x1
 3298 0da9 A8       		.byte	0xa8
 3299 0daa 5C010000 		.4byte	0x15c
 3300 0dae 02       		.byte	0x2
 3301 0daf 91       		.byte	0x91
 3302 0db0 5A       		.sleb128 -38
 3303 0db1 14       		.uleb128 0x14
 3304 0db2 9D070000 		.4byte	.LASF283
 3305 0db6 01       		.byte	0x1
 3306 0db7 A9       		.byte	0xa9
 3307 0db8 720D0000 		.4byte	0xd72
 3308 0dbc 02       		.byte	0x2
 3309 0dbd 91       		.byte	0x91
 3310 0dbe 54       		.sleb128 -44
 3311 0dbf 17       		.uleb128 0x17
 3312 0dc0 636E7400 		.ascii	"cnt\000"
 3313 0dc4 01       		.byte	0x1
 3314 0dc5 AB       		.byte	0xab
 3315 0dc6 46010000 		.4byte	0x146
 3316 0dca 02       		.byte	0x2
 3317 0dcb 91       		.byte	0x91
 3318 0dcc 60       		.sleb128 -32
 3319 0dcd 15       		.uleb128 0x15
 3320 0dce 640A0000 		.4byte	.LASF285
 3321 0dd2 01       		.byte	0x1
 3322 0dd3 AC       		.byte	0xac
 3323 0dd4 46010000 		.4byte	0x146
 3324 0dd8 02       		.byte	0x2
 3325 0dd9 91       		.byte	0x91
 3326 0dda 62       		.sleb128 -30
 3327 0ddb 15       		.uleb128 0x15
 3328 0ddc 1D080000 		.4byte	.LASF286
 3329 0de0 01       		.byte	0x1
 3330 0de1 AD       		.byte	0xad
 3331 0de2 D50C0000 		.4byte	0xcd5
 3332 0de6 02       		.byte	0x2
 3333 0de7 91       		.byte	0x91
 3334 0de8 64       		.sleb128 -28
 3335 0de9 15       		.uleb128 0x15
 3336 0dea 2B030000 		.4byte	.LASF287
 3337 0dee 01       		.byte	0x1
 3338 0def AE       		.byte	0xae
 3339 0df0 210E0000 		.4byte	0xe21
 3340 0df4 02       		.byte	0x2
 3341 0df5 91       		.byte	0x91
 3342 0df6 68       		.sleb128 -24
 3343 0df7 15       		.uleb128 0x15
 3344 0df8 9D090000 		.4byte	.LASF288
 3345 0dfc 01       		.byte	0x1
 3346 0dfd AF       		.byte	0xaf
 3347 0dfe CF0C0000 		.4byte	0xccf
 3348 0e02 02       		.byte	0x2
 3349 0e03 91       		.byte	0x91
ARM GAS  C:\Users\daniel01\AppData\Local\Temp\cccGTwC2.s 			page 77


 3350 0e04 6C       		.sleb128 -20
 3351 0e05 17       		.uleb128 0x17
 3352 0e06 747300   		.ascii	"ts\000"
 3353 0e09 01       		.byte	0x1
 3354 0e0a B0       		.byte	0xb0
 3355 0e0b EE000000 		.4byte	0xee
 3356 0e0f 02       		.byte	0x2
 3357 0e10 91       		.byte	0x91
 3358 0e11 70       		.sleb128 -16
 3359 0e12 15       		.uleb128 0x15
 3360 0e13 A6040000 		.4byte	.LASF284
 3361 0e17 01       		.byte	0x1
 3362 0e18 B1       		.byte	0xb1
 3363 0e19 D7000000 		.4byte	0xd7
 3364 0e1d 02       		.byte	0x2
 3365 0e1e 91       		.byte	0x91
 3366 0e1f 74       		.sleb128 -12
 3367 0e20 00       		.byte	0x0
 3368 0e21 05       		.uleb128 0x5
 3369 0e22 04       		.byte	0x4
 3370 0e23 140C0000 		.4byte	0xc14
 3371 0e27 18       		.uleb128 0x18
 3372 0e28 01       		.byte	0x1
 3373 0e29 74090000 		.4byte	.LASF290
 3374 0e2d 01       		.byte	0x1
 3375 0e2e 2601     		.2byte	0x126
 3376 0e30 01       		.byte	0x1
 3377 0e31 25010000 		.4byte	0x125
 3378 0e35 00000000 		.4byte	.LFB2
 3379 0e39 72000000 		.4byte	.LFE2
 3380 0e3d 6E000000 		.4byte	.LLST2
 3381 0e41 820E0000 		.4byte	0xe82
 3382 0e45 19       		.uleb128 0x19
 3383 0e46 705F7100 		.ascii	"p_q\000"
 3384 0e4a 01       		.byte	0x1
 3385 0e4b 2601     		.2byte	0x126
 3386 0e4d ED0C0000 		.4byte	0xced
 3387 0e51 02       		.byte	0x2
 3388 0e52 91       		.byte	0x91
 3389 0e53 6C       		.sleb128 -20
 3390 0e54 1A       		.uleb128 0x1a
 3391 0e55 9D070000 		.4byte	.LASF283
 3392 0e59 01       		.byte	0x1
 3393 0e5a 2701     		.2byte	0x127
 3394 0e5c 720D0000 		.4byte	0xd72
 3395 0e60 02       		.byte	0x2
 3396 0e61 91       		.byte	0x91
 3397 0e62 68       		.sleb128 -24
 3398 0e63 1B       		.uleb128 0x1b
 3399 0e64 40020000 		.4byte	.LASF291
 3400 0e68 01       		.byte	0x1
 3401 0e69 2901     		.2byte	0x129
 3402 0e6b 25010000 		.4byte	0x125
 3403 0e6f 02       		.byte	0x2
 3404 0e70 91       		.byte	0x91
 3405 0e71 72       		.sleb128 -14
 3406 0e72 1B       		.uleb128 0x1b
ARM GAS  C:\Users\daniel01\AppData\Local\Temp\cccGTwC2.s 			page 78


 3407 0e73 A6040000 		.4byte	.LASF284
 3408 0e77 01       		.byte	0x1
 3409 0e78 2A01     		.2byte	0x12a
 3410 0e7a D7000000 		.4byte	0xd7
 3411 0e7e 02       		.byte	0x2
 3412 0e7f 91       		.byte	0x91
 3413 0e80 74       		.sleb128 -12
 3414 0e81 00       		.byte	0x0
 3415 0e82 18       		.uleb128 0x18
 3416 0e83 01       		.byte	0x1
 3417 0e84 EE0B0000 		.4byte	.LASF292
 3418 0e88 01       		.byte	0x1
 3419 0e89 8001     		.2byte	0x180
 3420 0e8b 01       		.byte	0x1
 3421 0e8c B4000000 		.4byte	0xb4
 3422 0e90 00000000 		.4byte	.LFB3
 3423 0e94 2A020000 		.4byte	.LFE3
 3424 0e98 A5000000 		.4byte	.LLST3
 3425 0e9c 280F0000 		.4byte	0xf28
 3426 0ea0 19       		.uleb128 0x19
 3427 0ea1 705F7100 		.ascii	"p_q\000"
 3428 0ea5 01       		.byte	0x1
 3429 0ea6 8001     		.2byte	0x180
 3430 0ea8 ED0C0000 		.4byte	0xced
 3431 0eac 02       		.byte	0x2
 3432 0ead 91       		.byte	0x91
 3433 0eae 4C       		.sleb128 -52
 3434 0eaf 1A       		.uleb128 0x1a
 3435 0eb0 990F0000 		.4byte	.LASF293
 3436 0eb4 01       		.byte	0x1
 3437 0eb5 8101     		.2byte	0x181
 3438 0eb7 9E010000 		.4byte	0x19e
 3439 0ebb 02       		.byte	0x2
 3440 0ebc 91       		.byte	0x91
 3441 0ebd 48       		.sleb128 -56
 3442 0ebe 19       		.uleb128 0x19
 3443 0ebf 6F707400 		.ascii	"opt\000"
 3444 0ec3 01       		.byte	0x1
 3445 0ec4 8201     		.2byte	0x182
 3446 0ec6 5C010000 		.4byte	0x15c
 3447 0eca 02       		.byte	0x2
 3448 0ecb 91       		.byte	0x91
 3449 0ecc 46       		.sleb128 -58
 3450 0ecd 1A       		.uleb128 0x1a
 3451 0ece 5E020000 		.4byte	.LASF294
 3452 0ed2 01       		.byte	0x1
 3453 0ed3 8301     		.2byte	0x183
 3454 0ed5 280F0000 		.4byte	0xf28
 3455 0ed9 02       		.byte	0x2
 3456 0eda 91       		.byte	0x91
 3457 0edb 40       		.sleb128 -64
 3458 0edc 1A       		.uleb128 0x1a
 3459 0edd 790B0000 		.4byte	.LASF295
 3460 0ee1 01       		.byte	0x1
 3461 0ee2 8401     		.2byte	0x184
 3462 0ee4 2E0F0000 		.4byte	0xf2e
 3463 0ee8 02       		.byte	0x2
ARM GAS  C:\Users\daniel01\AppData\Local\Temp\cccGTwC2.s 			page 79


 3464 0ee9 91       		.byte	0x91
 3465 0eea 00       		.sleb128 0
 3466 0eeb 1A       		.uleb128 0x1a
 3467 0eec 9D070000 		.4byte	.LASF283
 3468 0ef0 01       		.byte	0x1
 3469 0ef1 8501     		.2byte	0x185
 3470 0ef3 720D0000 		.4byte	0xd72
 3471 0ef7 02       		.byte	0x2
 3472 0ef8 91       		.byte	0x91
 3473 0ef9 04       		.sleb128 4
 3474 0efa 1B       		.uleb128 0x1b
 3475 0efb CB090000 		.4byte	.LASF296
 3476 0eff 01       		.byte	0x1
 3477 0f00 8701     		.2byte	0x187
 3478 0f02 820B0000 		.4byte	0xb82
 3479 0f06 02       		.byte	0x2
 3480 0f07 91       		.byte	0x91
 3481 0f08 50       		.sleb128 -48
 3482 0f09 1B       		.uleb128 0x1b
 3483 0f0a 8D030000 		.4byte	.LASF297
 3484 0f0e 01       		.byte	0x1
 3485 0f0f 8801     		.2byte	0x188
 3486 0f11 B4000000 		.4byte	0xb4
 3487 0f15 02       		.byte	0x2
 3488 0f16 91       		.byte	0x91
 3489 0f17 70       		.sleb128 -16
 3490 0f18 1B       		.uleb128 0x1b
 3491 0f19 A6040000 		.4byte	.LASF284
 3492 0f1d 01       		.byte	0x1
 3493 0f1e 8901     		.2byte	0x189
 3494 0f20 D7000000 		.4byte	0xd7
 3495 0f24 02       		.byte	0x2
 3496 0f25 91       		.byte	0x91
 3497 0f26 74       		.sleb128 -12
 3498 0f27 00       		.byte	0x0
 3499 0f28 05       		.uleb128 0x5
 3500 0f29 04       		.byte	0x4
 3501 0f2a 30010000 		.4byte	0x130
 3502 0f2e 05       		.uleb128 0x5
 3503 0f2f 04       		.byte	0x4
 3504 0f30 EE000000 		.4byte	0xee
 3505 0f34 18       		.uleb128 0x18
 3506 0f35 01       		.byte	0x1
 3507 0f36 C00E0000 		.4byte	.LASF298
 3508 0f3a 01       		.byte	0x1
 3509 0f3b 2B02     		.2byte	0x22b
 3510 0f3d 01       		.byte	0x1
 3511 0f3e 46010000 		.4byte	0x146
 3512 0f42 00000000 		.4byte	.LFB4
 3513 0f46 06010000 		.4byte	.LFE4
 3514 0f4a DE000000 		.4byte	.LLST4
 3515 0f4e CA0F0000 		.4byte	0xfca
 3516 0f52 19       		.uleb128 0x19
 3517 0f53 705F7100 		.ascii	"p_q\000"
 3518 0f57 01       		.byte	0x1
 3519 0f58 2B02     		.2byte	0x22b
 3520 0f5a ED0C0000 		.4byte	0xced
ARM GAS  C:\Users\daniel01\AppData\Local\Temp\cccGTwC2.s 			page 80


 3521 0f5e 02       		.byte	0x2
 3522 0f5f 91       		.byte	0x91
 3523 0f60 5C       		.sleb128 -36
 3524 0f61 19       		.uleb128 0x19
 3525 0f62 6F707400 		.ascii	"opt\000"
 3526 0f66 01       		.byte	0x1
 3527 0f67 2C02     		.2byte	0x22c
 3528 0f69 5C010000 		.4byte	0x15c
 3529 0f6d 02       		.byte	0x2
 3530 0f6e 91       		.byte	0x91
 3531 0f6f 5A       		.sleb128 -38
 3532 0f70 1A       		.uleb128 0x1a
 3533 0f71 9D070000 		.4byte	.LASF283
 3534 0f75 01       		.byte	0x1
 3535 0f76 2D02     		.2byte	0x22d
 3536 0f78 720D0000 		.4byte	0xd72
 3537 0f7c 02       		.byte	0x2
 3538 0f7d 91       		.byte	0x91
 3539 0f7e 54       		.sleb128 -44
 3540 0f7f 1B       		.uleb128 0x1b
 3541 0f80 2B030000 		.4byte	.LASF287
 3542 0f84 01       		.byte	0x1
 3543 0f85 2F02     		.2byte	0x22f
 3544 0f87 210E0000 		.4byte	0xe21
 3545 0f8b 02       		.byte	0x2
 3546 0f8c 91       		.byte	0x91
 3547 0f8d 64       		.sleb128 -28
 3548 0f8e 1B       		.uleb128 0x1b
 3549 0f8f 9D090000 		.4byte	.LASF288
 3550 0f93 01       		.byte	0x1
 3551 0f94 3002     		.2byte	0x230
 3552 0f96 CF0C0000 		.4byte	0xccf
 3553 0f9a 02       		.byte	0x2
 3554 0f9b 91       		.byte	0x91
 3555 0f9c 68       		.sleb128 -24
 3556 0f9d 1C       		.uleb128 0x1c
 3557 0f9e 747300   		.ascii	"ts\000"
 3558 0fa1 01       		.byte	0x1
 3559 0fa2 3102     		.2byte	0x231
 3560 0fa4 EE000000 		.4byte	0xee
 3561 0fa8 02       		.byte	0x2
 3562 0fa9 91       		.byte	0x91
 3563 0faa 6C       		.sleb128 -20
 3564 0fab 1B       		.uleb128 0x1b
 3565 0fac 640A0000 		.4byte	.LASF285
 3566 0fb0 01       		.byte	0x1
 3567 0fb1 3202     		.2byte	0x232
 3568 0fb3 46010000 		.4byte	0x146
 3569 0fb7 02       		.byte	0x2
 3570 0fb8 91       		.byte	0x91
 3571 0fb9 72       		.sleb128 -14
 3572 0fba 1B       		.uleb128 0x1b
 3573 0fbb A6040000 		.4byte	.LASF284
 3574 0fbf 01       		.byte	0x1
 3575 0fc0 3302     		.2byte	0x233
 3576 0fc2 D7000000 		.4byte	0xd7
 3577 0fc6 02       		.byte	0x2
ARM GAS  C:\Users\daniel01\AppData\Local\Temp\cccGTwC2.s 			page 81


 3578 0fc7 91       		.byte	0x91
 3579 0fc8 74       		.sleb128 -12
 3580 0fc9 00       		.byte	0x0
 3581 0fca 1D       		.uleb128 0x1d
 3582 0fcb 01       		.byte	0x1
 3583 0fcc 63060000 		.4byte	.LASF300
 3584 0fd0 01       		.byte	0x1
 3585 0fd1 B002     		.2byte	0x2b0
 3586 0fd3 01       		.byte	0x1
 3587 0fd4 00000000 		.4byte	.LFB5
 3588 0fd8 92000000 		.4byte	.LFE5
 3589 0fdc 15010000 		.4byte	.LLST5
 3590 0fe0 3E100000 		.4byte	0x103e
 3591 0fe4 19       		.uleb128 0x19
 3592 0fe5 705F7100 		.ascii	"p_q\000"
 3593 0fe9 01       		.byte	0x1
 3594 0fea B002     		.2byte	0x2b0
 3595 0fec ED0C0000 		.4byte	0xced
 3596 0ff0 02       		.byte	0x2
 3597 0ff1 91       		.byte	0x91
 3598 0ff2 6C       		.sleb128 -20
 3599 0ff3 1A       		.uleb128 0x1a
 3600 0ff4 8D030000 		.4byte	.LASF297
 3601 0ff8 01       		.byte	0x1
 3602 0ff9 B102     		.2byte	0x2b1
 3603 0ffb B4000000 		.4byte	0xb4
 3604 0fff 02       		.byte	0x2
 3605 1000 91       		.byte	0x91
 3606 1001 68       		.sleb128 -24
 3607 1002 1A       		.uleb128 0x1a
 3608 1003 97100000 		.4byte	.LASF301
 3609 1007 01       		.byte	0x1
 3610 1008 B202     		.2byte	0x2b2
 3611 100a 30010000 		.4byte	0x130
 3612 100e 02       		.byte	0x2
 3613 100f 91       		.byte	0x91
 3614 1010 66       		.sleb128 -26
 3615 1011 19       		.uleb128 0x19
 3616 1012 6F707400 		.ascii	"opt\000"
 3617 1016 01       		.byte	0x1
 3618 1017 B302     		.2byte	0x2b3
 3619 1019 5C010000 		.4byte	0x15c
 3620 101d 02       		.byte	0x2
 3621 101e 91       		.byte	0x91
 3622 101f 64       		.sleb128 -28
 3623 1020 1A       		.uleb128 0x1a
 3624 1021 9D070000 		.4byte	.LASF283
 3625 1025 01       		.byte	0x1
 3626 1026 B402     		.2byte	0x2b4
 3627 1028 720D0000 		.4byte	0xd72
 3628 102c 02       		.byte	0x2
 3629 102d 91       		.byte	0x91
 3630 102e 00       		.sleb128 0
 3631 102f 1C       		.uleb128 0x1c
 3632 1030 747300   		.ascii	"ts\000"
 3633 1033 01       		.byte	0x1
 3634 1034 B602     		.2byte	0x2b6
ARM GAS  C:\Users\daniel01\AppData\Local\Temp\cccGTwC2.s 			page 82


 3635 1036 EE000000 		.4byte	0xee
 3636 103a 02       		.byte	0x2
 3637 103b 91       		.byte	0x91
 3638 103c 74       		.sleb128 -12
 3639 103d 00       		.byte	0x0
 3640 103e 1D       		.uleb128 0x1d
 3641 103f 01       		.byte	0x1
 3642 1040 7D030000 		.4byte	.LASF302
 3643 1044 01       		.byte	0x1
 3644 1045 0703     		.2byte	0x307
 3645 1047 01       		.byte	0x1
 3646 1048 00000000 		.4byte	.LFB6
 3647 104c 50000000 		.4byte	.LFE6
 3648 1050 4C010000 		.4byte	.LLST6
 3649 1054 68100000 		.4byte	0x1068
 3650 1058 19       		.uleb128 0x19
 3651 1059 705F7100 		.ascii	"p_q\000"
 3652 105d 01       		.byte	0x1
 3653 105e 0703     		.2byte	0x307
 3654 1060 ED0C0000 		.4byte	0xced
 3655 1064 02       		.byte	0x2
 3656 1065 91       		.byte	0x91
 3657 1066 74       		.sleb128 -12
 3658 1067 00       		.byte	0x0
 3659 1068 1D       		.uleb128 0x1d
 3660 1069 01       		.byte	0x1
 3661 106a 05050000 		.4byte	.LASF303
 3662 106e 01       		.byte	0x1
 3663 106f 2303     		.2byte	0x323
 3664 1071 01       		.byte	0x1
 3665 1072 00000000 		.4byte	.LFB7
 3666 1076 66000000 		.4byte	.LFE7
 3667 107a 83010000 		.4byte	.LLST7
 3668 107e 92100000 		.4byte	0x1092
 3669 1082 19       		.uleb128 0x19
 3670 1083 705F7100 		.ascii	"p_q\000"
 3671 1087 01       		.byte	0x1
 3672 1088 2303     		.2byte	0x323
 3673 108a ED0C0000 		.4byte	0xced
 3674 108e 02       		.byte	0x2
 3675 108f 91       		.byte	0x91
 3676 1090 74       		.sleb128 -12
 3677 1091 00       		.byte	0x0
 3678 1092 1D       		.uleb128 0x1d
 3679 1093 01       		.byte	0x1
 3680 1094 8B090000 		.4byte	.LASF304
 3681 1098 01       		.byte	0x1
 3682 1099 3203     		.2byte	0x332
 3683 109b 01       		.byte	0x1
 3684 109c 00000000 		.4byte	.LFB8
 3685 10a0 7C000000 		.4byte	.LFE8
 3686 10a4 BA010000 		.4byte	.LLST8
 3687 10a8 DA100000 		.4byte	0x10da
 3688 10ac 19       		.uleb128 0x19
 3689 10ad 705F7100 		.ascii	"p_q\000"
 3690 10b1 01       		.byte	0x1
 3691 10b2 3203     		.2byte	0x332
ARM GAS  C:\Users\daniel01\AppData\Local\Temp\cccGTwC2.s 			page 83


 3692 10b4 ED0C0000 		.4byte	0xced
 3693 10b8 02       		.byte	0x2
 3694 10b9 91       		.byte	0x91
 3695 10ba 6C       		.sleb128 -20
 3696 10bb 1B       		.uleb128 0x1b
 3697 10bc 1B110000 		.4byte	.LASF305
 3698 10c0 01       		.byte	0x1
 3699 10c1 3403     		.2byte	0x334
 3700 10c3 ED0C0000 		.4byte	0xced
 3701 10c7 02       		.byte	0x2
 3702 10c8 91       		.byte	0x91
 3703 10c9 70       		.sleb128 -16
 3704 10ca 1B       		.uleb128 0x1b
 3705 10cb 71100000 		.4byte	.LASF306
 3706 10cf 01       		.byte	0x1
 3707 10d0 3503     		.2byte	0x335
 3708 10d2 ED0C0000 		.4byte	0xced
 3709 10d6 02       		.byte	0x2
 3710 10d7 91       		.byte	0x91
 3711 10d8 74       		.sleb128 -12
 3712 10d9 00       		.byte	0x0
 3713 10da 1D       		.uleb128 0x1d
 3714 10db 01       		.byte	0x1
 3715 10dc 0C090000 		.4byte	.LASF307
 3716 10e0 01       		.byte	0x1
 3717 10e1 6103     		.2byte	0x361
 3718 10e3 01       		.byte	0x1
 3719 10e4 00000000 		.4byte	.LFB9
 3720 10e8 36000000 		.4byte	.LFE9
 3721 10ec F1010000 		.4byte	.LLST9
 3722 10f0 04110000 		.4byte	0x1104
 3723 10f4 1A       		.uleb128 0x1a
 3724 10f5 9D070000 		.4byte	.LASF283
 3725 10f9 01       		.byte	0x1
 3726 10fa 6103     		.2byte	0x361
 3727 10fc 720D0000 		.4byte	0xd72
 3728 1100 02       		.byte	0x2
 3729 1101 91       		.byte	0x91
 3730 1102 74       		.sleb128 -12
 3731 1103 00       		.byte	0x0
 3732 1104 1D       		.uleb128 0x1d
 3733 1105 01       		.byte	0x1
 3734 1106 8F010000 		.4byte	.LASF308
 3735 110a 01       		.byte	0x1
 3736 110b 9A03     		.2byte	0x39a
 3737 110d 01       		.byte	0x1
 3738 110e 00000000 		.4byte	.LFB10
 3739 1112 D8000000 		.4byte	.LFE10
 3740 1116 28020000 		.4byte	.LLST10
 3741 111a E1110000 		.4byte	0x11e1
 3742 111e 19       		.uleb128 0x19
 3743 111f 705F7100 		.ascii	"p_q\000"
 3744 1123 01       		.byte	0x1
 3745 1124 9A03     		.2byte	0x39a
 3746 1126 ED0C0000 		.4byte	0xced
 3747 112a 02       		.byte	0x2
 3748 112b 91       		.byte	0x91
ARM GAS  C:\Users\daniel01\AppData\Local\Temp\cccGTwC2.s 			page 84


 3749 112c 5C       		.sleb128 -36
 3750 112d 1A       		.uleb128 0x1a
 3751 112e 8D030000 		.4byte	.LASF297
 3752 1132 01       		.byte	0x1
 3753 1133 9B03     		.2byte	0x39b
 3754 1135 B4000000 		.4byte	0xb4
 3755 1139 02       		.byte	0x2
 3756 113a 91       		.byte	0x91
 3757 113b 58       		.sleb128 -40
 3758 113c 1A       		.uleb128 0x1a
 3759 113d 97100000 		.4byte	.LASF301
 3760 1141 01       		.byte	0x1
 3761 1142 9C03     		.2byte	0x39c
 3762 1144 30010000 		.4byte	0x130
 3763 1148 02       		.byte	0x2
 3764 1149 91       		.byte	0x91
 3765 114a 56       		.sleb128 -42
 3766 114b 19       		.uleb128 0x19
 3767 114c 6F707400 		.ascii	"opt\000"
 3768 1150 01       		.byte	0x1
 3769 1151 9D03     		.2byte	0x39d
 3770 1153 5C010000 		.4byte	0x15c
 3771 1157 02       		.byte	0x2
 3772 1158 91       		.byte	0x91
 3773 1159 54       		.sleb128 -44
 3774 115a 19       		.uleb128 0x19
 3775 115b 747300   		.ascii	"ts\000"
 3776 115e 01       		.byte	0x1
 3777 115f 9E03     		.2byte	0x39e
 3778 1161 EE000000 		.4byte	0xee
 3779 1165 02       		.byte	0x2
 3780 1166 91       		.byte	0x91
 3781 1167 00       		.sleb128 0
 3782 1168 1A       		.uleb128 0x1a
 3783 1169 9D070000 		.4byte	.LASF283
 3784 116d 01       		.byte	0x1
 3785 116e 9F03     		.2byte	0x39f
 3786 1170 720D0000 		.4byte	0xd72
 3787 1174 02       		.byte	0x2
 3788 1175 91       		.byte	0x91
 3789 1176 04       		.sleb128 4
 3790 1177 1C       		.uleb128 0x1c
 3791 1178 636E7400 		.ascii	"cnt\000"
 3792 117c 01       		.byte	0x1
 3793 117d A103     		.2byte	0x3a1
 3794 117f 46010000 		.4byte	0x146
 3795 1183 02       		.byte	0x2
 3796 1184 91       		.byte	0x91
 3797 1185 60       		.sleb128 -32
 3798 1186 1B       		.uleb128 0x1b
 3799 1187 1A060000 		.4byte	.LASF309
 3800 118b 01       		.byte	0x1
 3801 118c A203     		.2byte	0x3a2
 3802 118e 5C010000 		.4byte	0x15c
 3803 1192 02       		.byte	0x2
 3804 1193 91       		.byte	0x91
 3805 1194 62       		.sleb128 -30
ARM GAS  C:\Users\daniel01\AppData\Local\Temp\cccGTwC2.s 			page 85


 3806 1195 1B       		.uleb128 0x1b
 3807 1196 2B030000 		.4byte	.LASF287
 3808 119a 01       		.byte	0x1
 3809 119b A303     		.2byte	0x3a3
 3810 119d 210E0000 		.4byte	0xe21
 3811 11a1 02       		.byte	0x2
 3812 11a2 91       		.byte	0x91
 3813 11a3 64       		.sleb128 -28
 3814 11a4 1B       		.uleb128 0x1b
 3815 11a5 1D080000 		.4byte	.LASF286
 3816 11a9 01       		.byte	0x1
 3817 11aa A403     		.2byte	0x3a4
 3818 11ac D50C0000 		.4byte	0xcd5
 3819 11b0 02       		.byte	0x2
 3820 11b1 91       		.byte	0x91
 3821 11b2 68       		.sleb128 -24
 3822 11b3 1B       		.uleb128 0x1b
 3823 11b4 3C0B0000 		.4byte	.LASF310
 3824 11b8 01       		.byte	0x1
 3825 11b9 A503     		.2byte	0x3a5
 3826 11bb D50C0000 		.4byte	0xcd5
 3827 11bf 02       		.byte	0x2
 3828 11c0 91       		.byte	0x91
 3829 11c1 6C       		.sleb128 -20
 3830 11c2 1B       		.uleb128 0x1b
 3831 11c3 9D090000 		.4byte	.LASF288
 3832 11c7 01       		.byte	0x1
 3833 11c8 A603     		.2byte	0x3a6
 3834 11ca CF0C0000 		.4byte	0xccf
 3835 11ce 02       		.byte	0x2
 3836 11cf 91       		.byte	0x91
 3837 11d0 70       		.sleb128 -16
 3838 11d1 1B       		.uleb128 0x1b
 3839 11d2 A6040000 		.4byte	.LASF284
 3840 11d6 01       		.byte	0x1
 3841 11d7 A703     		.2byte	0x3a7
 3842 11d9 D7000000 		.4byte	0xd7
 3843 11dd 02       		.byte	0x2
 3844 11de 91       		.byte	0x91
 3845 11df 74       		.sleb128 -12
 3846 11e0 00       		.byte	0x0
 3847 11e1 1E       		.uleb128 0x1e
 3848 11e2 3C0C0000 		.4byte	.LASF311
 3849 11e6 05       		.byte	0x5
 3850 11e7 5F04     		.2byte	0x45f
 3851 11e9 3B010000 		.4byte	0x13b
 3852 11ed 01       		.byte	0x1
 3853 11ee 01       		.byte	0x1
 3854 11ef 1E       		.uleb128 0x1e
 3855 11f0 A3090000 		.4byte	.LASF312
 3856 11f4 05       		.byte	0x5
 3857 11f5 9804     		.2byte	0x498
 3858 11f7 ED0C0000 		.4byte	0xced
 3859 11fb 01       		.byte	0x1
 3860 11fc 01       		.byte	0x1
 3861 11fd 1E       		.uleb128 0x1e
 3862 11fe 980D0000 		.4byte	.LASF313
ARM GAS  C:\Users\daniel01\AppData\Local\Temp\cccGTwC2.s 			page 86


 3863 1202 05       		.byte	0x5
 3864 1203 9A04     		.2byte	0x49a
 3865 1205 46010000 		.4byte	0x146
 3866 1209 01       		.byte	0x1
 3867 120a 01       		.byte	0x1
 3868 120b 1E       		.uleb128 0x1e
 3869 120c 6B0F0000 		.4byte	.LASF314
 3870 1210 05       		.byte	0x5
 3871 1211 AD04     		.2byte	0x4ad
 3872 1213 3B010000 		.4byte	0x13b
 3873 1217 01       		.byte	0x1
 3874 1218 01       		.byte	0x1
 3875 1219 1E       		.uleb128 0x1e
 3876 121a CD010000 		.4byte	.LASF315
 3877 121e 05       		.byte	0x5
 3878 121f E504     		.2byte	0x4e5
 3879 1221 CF0C0000 		.4byte	0xccf
 3880 1225 01       		.byte	0x1
 3881 1226 01       		.byte	0x1
 3882 1227 00       		.byte	0x0
 3883              		.section	.debug_abbrev
 3884 0000 01       		.uleb128 0x1
 3885 0001 11       		.uleb128 0x11
 3886 0002 01       		.byte	0x1
 3887 0003 25       		.uleb128 0x25
 3888 0004 0E       		.uleb128 0xe
 3889 0005 13       		.uleb128 0x13
 3890 0006 0B       		.uleb128 0xb
 3891 0007 03       		.uleb128 0x3
 3892 0008 0E       		.uleb128 0xe
 3893 0009 1B       		.uleb128 0x1b
 3894 000a 0E       		.uleb128 0xe
 3895 000b 11       		.uleb128 0x11
 3896 000c 01       		.uleb128 0x1
 3897 000d 52       		.uleb128 0x52
 3898 000e 01       		.uleb128 0x1
 3899 000f 55       		.uleb128 0x55
 3900 0010 06       		.uleb128 0x6
 3901 0011 10       		.uleb128 0x10
 3902 0012 06       		.uleb128 0x6
 3903 0013 00       		.byte	0x0
 3904 0014 00       		.byte	0x0
 3905 0015 02       		.uleb128 0x2
 3906 0016 16       		.uleb128 0x16
 3907 0017 00       		.byte	0x0
 3908 0018 03       		.uleb128 0x3
 3909 0019 0E       		.uleb128 0xe
 3910 001a 3A       		.uleb128 0x3a
 3911 001b 0B       		.uleb128 0xb
 3912 001c 3B       		.uleb128 0x3b
 3913 001d 0B       		.uleb128 0xb
 3914 001e 49       		.uleb128 0x49
 3915 001f 13       		.uleb128 0x13
 3916 0020 00       		.byte	0x0
 3917 0021 00       		.byte	0x0
 3918 0022 03       		.uleb128 0x3
 3919 0023 24       		.uleb128 0x24
ARM GAS  C:\Users\daniel01\AppData\Local\Temp\cccGTwC2.s 			page 87


 3920 0024 00       		.byte	0x0
 3921 0025 0B       		.uleb128 0xb
 3922 0026 0B       		.uleb128 0xb
 3923 0027 3E       		.uleb128 0x3e
 3924 0028 0B       		.uleb128 0xb
 3925 0029 03       		.uleb128 0x3
 3926 002a 0E       		.uleb128 0xe
 3927 002b 00       		.byte	0x0
 3928 002c 00       		.byte	0x0
 3929 002d 04       		.uleb128 0x4
 3930 002e 24       		.uleb128 0x24
 3931 002f 00       		.byte	0x0
 3932 0030 0B       		.uleb128 0xb
 3933 0031 0B       		.uleb128 0xb
 3934 0032 3E       		.uleb128 0x3e
 3935 0033 0B       		.uleb128 0xb
 3936 0034 03       		.uleb128 0x3
 3937 0035 08       		.uleb128 0x8
 3938 0036 00       		.byte	0x0
 3939 0037 00       		.byte	0x0
 3940 0038 05       		.uleb128 0x5
 3941 0039 0F       		.uleb128 0xf
 3942 003a 00       		.byte	0x0
 3943 003b 0B       		.uleb128 0xb
 3944 003c 0B       		.uleb128 0xb
 3945 003d 49       		.uleb128 0x49
 3946 003e 13       		.uleb128 0x13
 3947 003f 00       		.byte	0x0
 3948 0040 00       		.byte	0x0
 3949 0041 06       		.uleb128 0x6
 3950 0042 15       		.uleb128 0x15
 3951 0043 01       		.byte	0x1
 3952 0044 27       		.uleb128 0x27
 3953 0045 0C       		.uleb128 0xc
 3954 0046 01       		.uleb128 0x1
 3955 0047 13       		.uleb128 0x13
 3956 0048 00       		.byte	0x0
 3957 0049 00       		.byte	0x0
 3958 004a 07       		.uleb128 0x7
 3959 004b 05       		.uleb128 0x5
 3960 004c 00       		.byte	0x0
 3961 004d 49       		.uleb128 0x49
 3962 004e 13       		.uleb128 0x13
 3963 004f 00       		.byte	0x0
 3964 0050 00       		.byte	0x0
 3965 0051 08       		.uleb128 0x8
 3966 0052 0F       		.uleb128 0xf
 3967 0053 00       		.byte	0x0
 3968 0054 0B       		.uleb128 0xb
 3969 0055 0B       		.uleb128 0xb
 3970 0056 00       		.byte	0x0
 3971 0057 00       		.byte	0x0
 3972 0058 09       		.uleb128 0x9
 3973 0059 16       		.uleb128 0x16
 3974 005a 00       		.byte	0x0
 3975 005b 03       		.uleb128 0x3
 3976 005c 0E       		.uleb128 0xe
ARM GAS  C:\Users\daniel01\AppData\Local\Temp\cccGTwC2.s 			page 88


 3977 005d 3A       		.uleb128 0x3a
 3978 005e 0B       		.uleb128 0xb
 3979 005f 3B       		.uleb128 0x3b
 3980 0060 05       		.uleb128 0x5
 3981 0061 49       		.uleb128 0x49
 3982 0062 13       		.uleb128 0x13
 3983 0063 00       		.byte	0x0
 3984 0064 00       		.byte	0x0
 3985 0065 0A       		.uleb128 0xa
 3986 0066 04       		.uleb128 0x4
 3987 0067 01       		.byte	0x1
 3988 0068 03       		.uleb128 0x3
 3989 0069 0E       		.uleb128 0xe
 3990 006a 0B       		.uleb128 0xb
 3991 006b 0B       		.uleb128 0xb
 3992 006c 3A       		.uleb128 0x3a
 3993 006d 0B       		.uleb128 0xb
 3994 006e 3B       		.uleb128 0x3b
 3995 006f 05       		.uleb128 0x5
 3996 0070 01       		.uleb128 0x1
 3997 0071 13       		.uleb128 0x13
 3998 0072 00       		.byte	0x0
 3999 0073 00       		.byte	0x0
 4000 0074 0B       		.uleb128 0xb
 4001 0075 28       		.uleb128 0x28
 4002 0076 00       		.byte	0x0
 4003 0077 03       		.uleb128 0x3
 4004 0078 0E       		.uleb128 0xe
 4005 0079 1C       		.uleb128 0x1c
 4006 007a 0D       		.uleb128 0xd
 4007 007b 00       		.byte	0x0
 4008 007c 00       		.byte	0x0
 4009 007d 0C       		.uleb128 0xc
 4010 007e 13       		.uleb128 0x13
 4011 007f 01       		.byte	0x1
 4012 0080 03       		.uleb128 0x3
 4013 0081 0E       		.uleb128 0xe
 4014 0082 0B       		.uleb128 0xb
 4015 0083 0B       		.uleb128 0xb
 4016 0084 3A       		.uleb128 0x3a
 4017 0085 0B       		.uleb128 0xb
 4018 0086 3B       		.uleb128 0x3b
 4019 0087 05       		.uleb128 0x5
 4020 0088 01       		.uleb128 0x1
 4021 0089 13       		.uleb128 0x13
 4022 008a 00       		.byte	0x0
 4023 008b 00       		.byte	0x0
 4024 008c 0D       		.uleb128 0xd
 4025 008d 0D       		.uleb128 0xd
 4026 008e 00       		.byte	0x0
 4027 008f 03       		.uleb128 0x3
 4028 0090 0E       		.uleb128 0xe
 4029 0091 3A       		.uleb128 0x3a
 4030 0092 0B       		.uleb128 0xb
 4031 0093 3B       		.uleb128 0x3b
 4032 0094 05       		.uleb128 0x5
 4033 0095 49       		.uleb128 0x49
ARM GAS  C:\Users\daniel01\AppData\Local\Temp\cccGTwC2.s 			page 89


 4034 0096 13       		.uleb128 0x13
 4035 0097 38       		.uleb128 0x38
 4036 0098 0A       		.uleb128 0xa
 4037 0099 00       		.byte	0x0
 4038 009a 00       		.byte	0x0
 4039 009b 0E       		.uleb128 0xe
 4040 009c 0D       		.uleb128 0xd
 4041 009d 00       		.byte	0x0
 4042 009e 03       		.uleb128 0x3
 4043 009f 08       		.uleb128 0x8
 4044 00a0 3A       		.uleb128 0x3a
 4045 00a1 0B       		.uleb128 0xb
 4046 00a2 3B       		.uleb128 0x3b
 4047 00a3 05       		.uleb128 0x5
 4048 00a4 49       		.uleb128 0x49
 4049 00a5 13       		.uleb128 0x13
 4050 00a6 38       		.uleb128 0x38
 4051 00a7 0A       		.uleb128 0xa
 4052 00a8 00       		.byte	0x0
 4053 00a9 00       		.byte	0x0
 4054 00aa 0F       		.uleb128 0xf
 4055 00ab 01       		.uleb128 0x1
 4056 00ac 01       		.byte	0x1
 4057 00ad 49       		.uleb128 0x49
 4058 00ae 13       		.uleb128 0x13
 4059 00af 01       		.uleb128 0x1
 4060 00b0 13       		.uleb128 0x13
 4061 00b1 00       		.byte	0x0
 4062 00b2 00       		.byte	0x0
 4063 00b3 10       		.uleb128 0x10
 4064 00b4 21       		.uleb128 0x21
 4065 00b5 00       		.byte	0x0
 4066 00b6 49       		.uleb128 0x49
 4067 00b7 13       		.uleb128 0x13
 4068 00b8 2F       		.uleb128 0x2f
 4069 00b9 0B       		.uleb128 0xb
 4070 00ba 00       		.byte	0x0
 4071 00bb 00       		.byte	0x0
 4072 00bc 11       		.uleb128 0x11
 4073 00bd 24       		.uleb128 0x24
 4074 00be 00       		.byte	0x0
 4075 00bf 0B       		.uleb128 0xb
 4076 00c0 0B       		.uleb128 0xb
 4077 00c1 3E       		.uleb128 0x3e
 4078 00c2 0B       		.uleb128 0xb
 4079 00c3 00       		.byte	0x0
 4080 00c4 00       		.byte	0x0
 4081 00c5 12       		.uleb128 0x12
 4082 00c6 2E       		.uleb128 0x2e
 4083 00c7 01       		.byte	0x1
 4084 00c8 3F       		.uleb128 0x3f
 4085 00c9 0C       		.uleb128 0xc
 4086 00ca 03       		.uleb128 0x3
 4087 00cb 0E       		.uleb128 0xe
 4088 00cc 3A       		.uleb128 0x3a
 4089 00cd 0B       		.uleb128 0xb
 4090 00ce 3B       		.uleb128 0x3b
ARM GAS  C:\Users\daniel01\AppData\Local\Temp\cccGTwC2.s 			page 90


 4091 00cf 0B       		.uleb128 0xb
 4092 00d0 27       		.uleb128 0x27
 4093 00d1 0C       		.uleb128 0xc
 4094 00d2 11       		.uleb128 0x11
 4095 00d3 01       		.uleb128 0x1
 4096 00d4 12       		.uleb128 0x12
 4097 00d5 01       		.uleb128 0x1
 4098 00d6 40       		.uleb128 0x40
 4099 00d7 06       		.uleb128 0x6
 4100 00d8 01       		.uleb128 0x1
 4101 00d9 13       		.uleb128 0x13
 4102 00da 00       		.byte	0x0
 4103 00db 00       		.byte	0x0
 4104 00dc 13       		.uleb128 0x13
 4105 00dd 05       		.uleb128 0x5
 4106 00de 00       		.byte	0x0
 4107 00df 03       		.uleb128 0x3
 4108 00e0 08       		.uleb128 0x8
 4109 00e1 3A       		.uleb128 0x3a
 4110 00e2 0B       		.uleb128 0xb
 4111 00e3 3B       		.uleb128 0x3b
 4112 00e4 0B       		.uleb128 0xb
 4113 00e5 49       		.uleb128 0x49
 4114 00e6 13       		.uleb128 0x13
 4115 00e7 02       		.uleb128 0x2
 4116 00e8 0A       		.uleb128 0xa
 4117 00e9 00       		.byte	0x0
 4118 00ea 00       		.byte	0x0
 4119 00eb 14       		.uleb128 0x14
 4120 00ec 05       		.uleb128 0x5
 4121 00ed 00       		.byte	0x0
 4122 00ee 03       		.uleb128 0x3
 4123 00ef 0E       		.uleb128 0xe
 4124 00f0 3A       		.uleb128 0x3a
 4125 00f1 0B       		.uleb128 0xb
 4126 00f2 3B       		.uleb128 0x3b
 4127 00f3 0B       		.uleb128 0xb
 4128 00f4 49       		.uleb128 0x49
 4129 00f5 13       		.uleb128 0x13
 4130 00f6 02       		.uleb128 0x2
 4131 00f7 0A       		.uleb128 0xa
 4132 00f8 00       		.byte	0x0
 4133 00f9 00       		.byte	0x0
 4134 00fa 15       		.uleb128 0x15
 4135 00fb 34       		.uleb128 0x34
 4136 00fc 00       		.byte	0x0
 4137 00fd 03       		.uleb128 0x3
 4138 00fe 0E       		.uleb128 0xe
 4139 00ff 3A       		.uleb128 0x3a
 4140 0100 0B       		.uleb128 0xb
 4141 0101 3B       		.uleb128 0x3b
 4142 0102 0B       		.uleb128 0xb
 4143 0103 49       		.uleb128 0x49
 4144 0104 13       		.uleb128 0x13
 4145 0105 02       		.uleb128 0x2
 4146 0106 0A       		.uleb128 0xa
 4147 0107 00       		.byte	0x0
ARM GAS  C:\Users\daniel01\AppData\Local\Temp\cccGTwC2.s 			page 91


 4148 0108 00       		.byte	0x0
 4149 0109 16       		.uleb128 0x16
 4150 010a 2E       		.uleb128 0x2e
 4151 010b 01       		.byte	0x1
 4152 010c 3F       		.uleb128 0x3f
 4153 010d 0C       		.uleb128 0xc
 4154 010e 03       		.uleb128 0x3
 4155 010f 0E       		.uleb128 0xe
 4156 0110 3A       		.uleb128 0x3a
 4157 0111 0B       		.uleb128 0xb
 4158 0112 3B       		.uleb128 0x3b
 4159 0113 0B       		.uleb128 0xb
 4160 0114 27       		.uleb128 0x27
 4161 0115 0C       		.uleb128 0xc
 4162 0116 49       		.uleb128 0x49
 4163 0117 13       		.uleb128 0x13
 4164 0118 11       		.uleb128 0x11
 4165 0119 01       		.uleb128 0x1
 4166 011a 12       		.uleb128 0x12
 4167 011b 01       		.uleb128 0x1
 4168 011c 40       		.uleb128 0x40
 4169 011d 06       		.uleb128 0x6
 4170 011e 01       		.uleb128 0x1
 4171 011f 13       		.uleb128 0x13
 4172 0120 00       		.byte	0x0
 4173 0121 00       		.byte	0x0
 4174 0122 17       		.uleb128 0x17
 4175 0123 34       		.uleb128 0x34
 4176 0124 00       		.byte	0x0
 4177 0125 03       		.uleb128 0x3
 4178 0126 08       		.uleb128 0x8
 4179 0127 3A       		.uleb128 0x3a
 4180 0128 0B       		.uleb128 0xb
 4181 0129 3B       		.uleb128 0x3b
 4182 012a 0B       		.uleb128 0xb
 4183 012b 49       		.uleb128 0x49
 4184 012c 13       		.uleb128 0x13
 4185 012d 02       		.uleb128 0x2
 4186 012e 0A       		.uleb128 0xa
 4187 012f 00       		.byte	0x0
 4188 0130 00       		.byte	0x0
 4189 0131 18       		.uleb128 0x18
 4190 0132 2E       		.uleb128 0x2e
 4191 0133 01       		.byte	0x1
 4192 0134 3F       		.uleb128 0x3f
 4193 0135 0C       		.uleb128 0xc
 4194 0136 03       		.uleb128 0x3
 4195 0137 0E       		.uleb128 0xe
 4196 0138 3A       		.uleb128 0x3a
 4197 0139 0B       		.uleb128 0xb
 4198 013a 3B       		.uleb128 0x3b
 4199 013b 05       		.uleb128 0x5
 4200 013c 27       		.uleb128 0x27
 4201 013d 0C       		.uleb128 0xc
 4202 013e 49       		.uleb128 0x49
 4203 013f 13       		.uleb128 0x13
 4204 0140 11       		.uleb128 0x11
ARM GAS  C:\Users\daniel01\AppData\Local\Temp\cccGTwC2.s 			page 92


 4205 0141 01       		.uleb128 0x1
 4206 0142 12       		.uleb128 0x12
 4207 0143 01       		.uleb128 0x1
 4208 0144 40       		.uleb128 0x40
 4209 0145 06       		.uleb128 0x6
 4210 0146 01       		.uleb128 0x1
 4211 0147 13       		.uleb128 0x13
 4212 0148 00       		.byte	0x0
 4213 0149 00       		.byte	0x0
 4214 014a 19       		.uleb128 0x19
 4215 014b 05       		.uleb128 0x5
 4216 014c 00       		.byte	0x0
 4217 014d 03       		.uleb128 0x3
 4218 014e 08       		.uleb128 0x8
 4219 014f 3A       		.uleb128 0x3a
 4220 0150 0B       		.uleb128 0xb
 4221 0151 3B       		.uleb128 0x3b
 4222 0152 05       		.uleb128 0x5
 4223 0153 49       		.uleb128 0x49
 4224 0154 13       		.uleb128 0x13
 4225 0155 02       		.uleb128 0x2
 4226 0156 0A       		.uleb128 0xa
 4227 0157 00       		.byte	0x0
 4228 0158 00       		.byte	0x0
 4229 0159 1A       		.uleb128 0x1a
 4230 015a 05       		.uleb128 0x5
 4231 015b 00       		.byte	0x0
 4232 015c 03       		.uleb128 0x3
 4233 015d 0E       		.uleb128 0xe
 4234 015e 3A       		.uleb128 0x3a
 4235 015f 0B       		.uleb128 0xb
 4236 0160 3B       		.uleb128 0x3b
 4237 0161 05       		.uleb128 0x5
 4238 0162 49       		.uleb128 0x49
 4239 0163 13       		.uleb128 0x13
 4240 0164 02       		.uleb128 0x2
 4241 0165 0A       		.uleb128 0xa
 4242 0166 00       		.byte	0x0
 4243 0167 00       		.byte	0x0
 4244 0168 1B       		.uleb128 0x1b
 4245 0169 34       		.uleb128 0x34
 4246 016a 00       		.byte	0x0
 4247 016b 03       		.uleb128 0x3
 4248 016c 0E       		.uleb128 0xe
 4249 016d 3A       		.uleb128 0x3a
 4250 016e 0B       		.uleb128 0xb
 4251 016f 3B       		.uleb128 0x3b
 4252 0170 05       		.uleb128 0x5
 4253 0171 49       		.uleb128 0x49
 4254 0172 13       		.uleb128 0x13
 4255 0173 02       		.uleb128 0x2
 4256 0174 0A       		.uleb128 0xa
 4257 0175 00       		.byte	0x0
 4258 0176 00       		.byte	0x0
 4259 0177 1C       		.uleb128 0x1c
 4260 0178 34       		.uleb128 0x34
 4261 0179 00       		.byte	0x0
ARM GAS  C:\Users\daniel01\AppData\Local\Temp\cccGTwC2.s 			page 93


 4262 017a 03       		.uleb128 0x3
 4263 017b 08       		.uleb128 0x8
 4264 017c 3A       		.uleb128 0x3a
 4265 017d 0B       		.uleb128 0xb
 4266 017e 3B       		.uleb128 0x3b
 4267 017f 05       		.uleb128 0x5
 4268 0180 49       		.uleb128 0x49
 4269 0181 13       		.uleb128 0x13
 4270 0182 02       		.uleb128 0x2
 4271 0183 0A       		.uleb128 0xa
 4272 0184 00       		.byte	0x0
 4273 0185 00       		.byte	0x0
 4274 0186 1D       		.uleb128 0x1d
 4275 0187 2E       		.uleb128 0x2e
 4276 0188 01       		.byte	0x1
 4277 0189 3F       		.uleb128 0x3f
 4278 018a 0C       		.uleb128 0xc
 4279 018b 03       		.uleb128 0x3
 4280 018c 0E       		.uleb128 0xe
 4281 018d 3A       		.uleb128 0x3a
 4282 018e 0B       		.uleb128 0xb
 4283 018f 3B       		.uleb128 0x3b
 4284 0190 05       		.uleb128 0x5
 4285 0191 27       		.uleb128 0x27
 4286 0192 0C       		.uleb128 0xc
 4287 0193 11       		.uleb128 0x11
 4288 0194 01       		.uleb128 0x1
 4289 0195 12       		.uleb128 0x12
 4290 0196 01       		.uleb128 0x1
 4291 0197 40       		.uleb128 0x40
 4292 0198 06       		.uleb128 0x6
 4293 0199 01       		.uleb128 0x1
 4294 019a 13       		.uleb128 0x13
 4295 019b 00       		.byte	0x0
 4296 019c 00       		.byte	0x0
 4297 019d 1E       		.uleb128 0x1e
 4298 019e 34       		.uleb128 0x34
 4299 019f 00       		.byte	0x0
 4300 01a0 03       		.uleb128 0x3
 4301 01a1 0E       		.uleb128 0xe
 4302 01a2 3A       		.uleb128 0x3a
 4303 01a3 0B       		.uleb128 0xb
 4304 01a4 3B       		.uleb128 0x3b
 4305 01a5 05       		.uleb128 0x5
 4306 01a6 49       		.uleb128 0x49
 4307 01a7 13       		.uleb128 0x13
 4308 01a8 3F       		.uleb128 0x3f
 4309 01a9 0C       		.uleb128 0xc
 4310 01aa 3C       		.uleb128 0x3c
 4311 01ab 0C       		.uleb128 0xc
 4312 01ac 00       		.byte	0x0
 4313 01ad 00       		.byte	0x0
 4314 01ae 00       		.byte	0x0
 4315              		.section	.debug_pubnames,"",%progbits
 4316 0000 AC000000 		.4byte	0xac
 4317 0004 0200     		.2byte	0x2
 4318 0006 00000000 		.4byte	.Ldebug_info0
ARM GAS  C:\Users\daniel01\AppData\Local\Temp\cccGTwC2.s 			page 94


 4319 000a 28120000 		.4byte	0x1228
 4320 000e 120D0000 		.4byte	0xd12
 4321 0012 4F535143 		.ascii	"OSQCreate\000"
 4321      72656174 
 4321      6500
 4322 001c 780D0000 		.4byte	0xd78
 4323 0020 4F535144 		.ascii	"OSQDel\000"
 4323      656C00
 4324 0027 270E0000 		.4byte	0xe27
 4325 002b 4F535146 		.ascii	"OSQFlush\000"
 4325      6C757368 
 4325      00
 4326 0034 820E0000 		.4byte	0xe82
 4327 0038 4F535150 		.ascii	"OSQPend\000"
 4327      656E6400 
 4328 0040 340F0000 		.4byte	0xf34
 4329 0044 4F535150 		.ascii	"OSQPendAbort\000"
 4329      656E6441 
 4329      626F7274 
 4329      00
 4330 0051 CA0F0000 		.4byte	0xfca
 4331 0055 4F535150 		.ascii	"OSQPost\000"
 4331      6F737400 
 4332 005d 3E100000 		.4byte	0x103e
 4333 0061 4F535F51 		.ascii	"OS_QClr\000"
 4333      436C7200 
 4334 0069 68100000 		.4byte	0x1068
 4335 006d 4F535F51 		.ascii	"OS_QDbgListAdd\000"
 4335      4462674C 
 4335      69737441 
 4335      646400
 4336 007c 92100000 		.4byte	0x1092
 4337 0080 4F535F51 		.ascii	"OS_QDbgListRemove\000"
 4337      4462674C 
 4337      69737452 
 4337      656D6F76 
 4337      6500
 4338 0092 DA100000 		.4byte	0x10da
 4339 0096 4F535F51 		.ascii	"OS_QInit\000"
 4339      496E6974 
 4339      00
 4340 009f 04110000 		.4byte	0x1104
 4341 00a3 4F535F51 		.ascii	"OS_QPost\000"
 4341      506F7374 
 4341      00
 4342 00ac 00000000 		.4byte	0x0
 4343              		.section	.debug_aranges,"",%progbits
 4344 0000 6C000000 		.4byte	0x6c
 4345 0004 0200     		.2byte	0x2
 4346 0006 00000000 		.4byte	.Ldebug_info0
 4347 000a 04       		.byte	0x4
 4348 000b 00       		.byte	0x0
 4349 000c 0000     		.2byte	0x0
 4350 000e 0000     		.2byte	0x0
 4351 0010 00000000 		.4byte	.LFB0
 4352 0014 BA000000 		.4byte	.LFE0-.LFB0
 4353 0018 00000000 		.4byte	.LFB1
ARM GAS  C:\Users\daniel01\AppData\Local\Temp\cccGTwC2.s 			page 95


 4354 001c 52010000 		.4byte	.LFE1-.LFB1
 4355 0020 00000000 		.4byte	.LFB2
 4356 0024 72000000 		.4byte	.LFE2-.LFB2
 4357 0028 00000000 		.4byte	.LFB3
 4358 002c 2A020000 		.4byte	.LFE3-.LFB3
 4359 0030 00000000 		.4byte	.LFB4
 4360 0034 06010000 		.4byte	.LFE4-.LFB4
 4361 0038 00000000 		.4byte	.LFB5
 4362 003c 92000000 		.4byte	.LFE5-.LFB5
 4363 0040 00000000 		.4byte	.LFB6
 4364 0044 50000000 		.4byte	.LFE6-.LFB6
 4365 0048 00000000 		.4byte	.LFB7
 4366 004c 66000000 		.4byte	.LFE7-.LFB7
 4367 0050 00000000 		.4byte	.LFB8
 4368 0054 7C000000 		.4byte	.LFE8-.LFB8
 4369 0058 00000000 		.4byte	.LFB9
 4370 005c 36000000 		.4byte	.LFE9-.LFB9
 4371 0060 00000000 		.4byte	.LFB10
 4372 0064 D8000000 		.4byte	.LFE10-.LFB10
 4373 0068 00000000 		.4byte	0x0
 4374 006c 00000000 		.4byte	0x0
 4375              		.section	.debug_ranges,"",%progbits
 4376              	.Ldebug_ranges0:
 4377 0000 00000000 		.4byte	.Ltext0
 4378 0004 00000000 		.4byte	.Letext0
 4379 0008 00000000 		.4byte	.LFB0
 4380 000c BA000000 		.4byte	.LFE0
 4381 0010 00000000 		.4byte	.LFB1
 4382 0014 52010000 		.4byte	.LFE1
 4383 0018 00000000 		.4byte	.LFB2
 4384 001c 72000000 		.4byte	.LFE2
 4385 0020 00000000 		.4byte	.LFB3
 4386 0024 2A020000 		.4byte	.LFE3
 4387 0028 00000000 		.4byte	.LFB4
 4388 002c 06010000 		.4byte	.LFE4
 4389 0030 00000000 		.4byte	.LFB5
 4390 0034 92000000 		.4byte	.LFE5
 4391 0038 00000000 		.4byte	.LFB6
 4392 003c 50000000 		.4byte	.LFE6
 4393 0040 00000000 		.4byte	.LFB7
 4394 0044 66000000 		.4byte	.LFE7
 4395 0048 00000000 		.4byte	.LFB8
 4396 004c 7C000000 		.4byte	.LFE8
 4397 0050 00000000 		.4byte	.LFB9
 4398 0054 36000000 		.4byte	.LFE9
 4399 0058 00000000 		.4byte	.LFB10
 4400 005c D8000000 		.4byte	.LFE10
 4401 0060 00000000 		.4byte	0x0
 4402 0064 00000000 		.4byte	0x0
 4403              		.section	.debug_str,"MS",%progbits,1
 4404              	.LASF222:
 4405 0000 6F735F74 		.ascii	"os_tcb\000"
 4405      636200
 4406              	.LASF104:
 4407 0007 4F535F45 		.ascii	"OS_ERR_PRIO_INVALID\000"
 4407      52525F50 
 4407      52494F5F 
ARM GAS  C:\Users\daniel01\AppData\Local\Temp\cccGTwC2.s 			page 96


 4407      494E5641 
 4407      4C494400 
 4408              	.LASF197:
 4409 001b 4F535F45 		.ascii	"OS_ERR\000"
 4409      525200
 4410              	.LASF21:
 4411 0022 4F535F43 		.ascii	"OS_CTX_SW_CTR\000"
 4411      54585F53 
 4411      575F4354 
 4411      5200
 4412              	.LASF316:
 4413 0030 474E5520 		.ascii	"GNU C 4.4.1\000"
 4413      4320342E 
 4413      342E3100 
 4414              	.LASF183:
 4415 003c 4F535F45 		.ascii	"OS_ERR_TMR_ISR\000"
 4415      52525F54 
 4415      4D525F49 
 4415      535200
 4416              	.LASF170:
 4417 004b 4F535F45 		.ascii	"OS_ERR_TIME_INVALID_MINUTES\000"
 4417      52525F54 
 4417      494D455F 
 4417      494E5641 
 4417      4C49445F 
 4418              	.LASF37:
 4419 0067 4F535F45 		.ascii	"OS_ERR_A\000"
 4419      52525F41 
 4419      00
 4420              	.LASF39:
 4421 0070 4F535F45 		.ascii	"OS_ERR_B\000"
 4421      52525F42 
 4421      00
 4422              	.LASF40:
 4423 0079 4F535F45 		.ascii	"OS_ERR_C\000"
 4423      52525F43 
 4423      00
 4424              	.LASF42:
 4425 0082 4F535F45 		.ascii	"OS_ERR_D\000"
 4425      52525F44 
 4425      00
 4426              	.LASF44:
 4427 008b 4F535F45 		.ascii	"OS_ERR_E\000"
 4427      52525F45 
 4427      00
 4428              	.LASF45:
 4429 0094 4F535F45 		.ascii	"OS_ERR_F\000"
 4429      52525F46 
 4429      00
 4430              	.LASF51:
 4431 009d 4F535F45 		.ascii	"OS_ERR_G\000"
 4431      52525F47 
 4431      00
 4432              	.LASF52:
 4433 00a6 4F535F45 		.ascii	"OS_ERR_H\000"
 4433      52525F48 
 4433      00
ARM GAS  C:\Users\daniel01\AppData\Local\Temp\cccGTwC2.s 			page 97


 4434              	.LASF53:
 4435 00af 4F535F45 		.ascii	"OS_ERR_I\000"
 4435      52525F49 
 4435      00
 4436              	.LASF60:
 4437 00b8 4F535F45 		.ascii	"OS_ERR_J\000"
 4437      52525F4A 
 4437      00
 4438              	.LASF61:
 4439 00c1 4F535F45 		.ascii	"OS_ERR_K\000"
 4439      52525F4B 
 4439      00
 4440              	.LASF62:
 4441 00ca 4F535F45 		.ascii	"OS_ERR_L\000"
 4441      52525F4C 
 4441      00
 4442              	.LASF64:
 4443 00d3 4F535F45 		.ascii	"OS_ERR_M\000"
 4443      52525F4D 
 4443      00
 4444              	.LASF80:
 4445 00dc 4F535F45 		.ascii	"OS_ERR_N\000"
 4445      52525F4E 
 4445      00
 4446              	.LASF83:
 4447 00e5 4F535F45 		.ascii	"OS_ERR_O\000"
 4447      52525F4F 
 4447      00
 4448              	.LASF91:
 4449 00ee 4F535F45 		.ascii	"OS_ERR_P\000"
 4449      52525F50 
 4449      00
 4450              	.LASF106:
 4451 00f7 4F535F45 		.ascii	"OS_ERR_Q\000"
 4451      52525F51 
 4451      00
 4452              	.LASF111:
 4453 0100 4F535F45 		.ascii	"OS_ERR_R\000"
 4453      52525F52 
 4453      00
 4454              	.LASF115:
 4455 0109 4F535F45 		.ascii	"OS_ERR_S\000"
 4455      52525F53 
 4455      00
 4456              	.LASF132:
 4457 0112 4F535F45 		.ascii	"OS_ERR_T\000"
 4457      52525F54 
 4457      00
 4458              	.LASF190:
 4459 011b 4F535F45 		.ascii	"OS_ERR_U\000"
 4459      52525F55 
 4459      00
 4460              	.LASF191:
 4461 0124 4F535F45 		.ascii	"OS_ERR_V\000"
 4461      52525F56 
 4461      00
 4462              	.LASF192:
ARM GAS  C:\Users\daniel01\AppData\Local\Temp\cccGTwC2.s 			page 98


 4463 012d 4F535F45 		.ascii	"OS_ERR_W\000"
 4463      52525F57 
 4463      00
 4464              	.LASF193:
 4465 0136 4F535F45 		.ascii	"OS_ERR_X\000"
 4465      52525F58 
 4465      00
 4466              	.LASF180:
 4467 013f 4F535F45 		.ascii	"OS_ERR_TMR_INVALID_PERIOD\000"
 4467      52525F54 
 4467      4D525F49 
 4467      4E56414C 
 4467      49445F50 
 4468              	.LASF319:
 4469 0159 6F735F65 		.ascii	"os_err\000"
 4469      727200
 4470              	.LASF209:
 4471 0160 4E627245 		.ascii	"NbrEntries\000"
 4471      6E747269 
 4471      657300
 4472              	.LASF57:
 4473 016b 4F535F45 		.ascii	"OS_ERR_INT_Q_SIZE\000"
 4473      52525F49 
 4473      4E545F51 
 4473      5F53495A 
 4473      4500
 4474              	.LASF41:
 4475 017d 4F535F45 		.ascii	"OS_ERR_CREATE_ISR\000"
 4475      52525F43 
 4475      52454154 
 4475      455F4953 
 4475      5200
 4476              	.LASF308:
 4477 018f 4F535F51 		.ascii	"OS_QPost\000"
 4477      506F7374 
 4477      00
 4478              	.LASF20:
 4479 0198 4F535F43 		.ascii	"OS_CPU_USAGE\000"
 4479      50555F55 
 4479      53414745 
 4479      00
 4480              	.LASF164:
 4481 01a5 4F535F45 		.ascii	"OS_ERR_TICK_STK_SIZE_INVALID\000"
 4481      52525F54 
 4481      49434B5F 
 4481      53544B5F 
 4481      53495A45 
 4482              	.LASF8:
 4483 01c2 4350555F 		.ascii	"CPU_INT32U\000"
 4483      494E5433 
 4483      325500
 4484              	.LASF315:
 4485 01cd 4F535443 		.ascii	"OSTCBCurPtr\000"
 4485      42437572 
 4485      50747200 
 4486              	.LASF129:
 4487 01d9 4F535F45 		.ascii	"OS_ERR_STK_INVALID\000"
ARM GAS  C:\Users\daniel01\AppData\Local\Temp\cccGTwC2.s 			page 99


 4487      52525F53 
 4487      544B5F49 
 4487      4E56414C 
 4487      494400
 4488              	.LASF251:
 4489 01ec 466C6167 		.ascii	"FlagsOpt\000"
 4489      734F7074 
 4489      00
 4490              	.LASF145:
 4491 01f5 4F535F45 		.ascii	"OS_ERR_TASK_RESUME_ISR\000"
 4491      52525F54 
 4491      41534B5F 
 4491      52455355 
 4491      4D455F49 
 4492              	.LASF99:
 4493 020c 4F535F45 		.ascii	"OS_ERR_PEND_WOULD_BLOCK\000"
 4493      52525F50 
 4493      454E445F 
 4493      574F554C 
 4493      445F424C 
 4494              	.LASF133:
 4495 0224 4F535F45 		.ascii	"OS_ERR_TASK_CHANGE_PRIO_ISR\000"
 4495      52525F54 
 4495      41534B5F 
 4495      4348414E 
 4495      47455F50 
 4496              	.LASF291:
 4497 0240 656E7472 		.ascii	"entries\000"
 4497      69657300 
 4498              	.LASF123:
 4499 0248 4F535F45 		.ascii	"OS_ERR_STAT_RESET_ISR\000"
 4499      52525F53 
 4499      5441545F 
 4499      52455345 
 4499      545F4953 
 4500              	.LASF294:
 4501 025e 705F6D73 		.ascii	"p_msg_size\000"
 4501      675F7369 
 4501      7A6500
 4502              	.LASF98:
 4503 0269 4F535F45 		.ascii	"OS_ERR_PEND_LOCKED\000"
 4503      52525F50 
 4503      454E445F 
 4503      4C4F434B 
 4503      454400
 4504              	.LASF27:
 4505 027c 4F535F4F 		.ascii	"OS_OBJ_QTY\000"
 4505      424A5F51 
 4505      545900
 4506              	.LASF143:
 4507 0287 4F535F45 		.ascii	"OS_ERR_TASK_NOT_SUSPENDED\000"
 4507      52525F54 
 4507      41534B5F 
 4507      4E4F545F 
 4507      53555350 
 4508              	.LASF141:
 4509 02a1 4F535F45 		.ascii	"OS_ERR_TASK_NOT_DLY\000"
ARM GAS  C:\Users\daniel01\AppData\Local\Temp\cccGTwC2.s 			page 100


 4509      52525F54 
 4509      41534B5F 
 4509      4E4F545F 
 4509      444C5900 
 4510              	.LASF216:
 4511 02b5 44626750 		.ascii	"DbgPrevPtr\000"
 4511      72657650 
 4511      747200
 4512              	.LASF55:
 4513 02c0 4F535F45 		.ascii	"OS_ERR_INT_Q\000"
 4513      52525F49 
 4513      4E545F51 
 4513      00
 4514              	.LASF217:
 4515 02cd 4462674E 		.ascii	"DbgNextPtr\000"
 4515      65787450 
 4515      747200
 4516              	.LASF155:
 4517 02d8 4F535F45 		.ascii	"OS_ERR_TASK_WAITING\000"
 4517      52525F54 
 4517      41534B5F 
 4517      57414954 
 4517      494E4700 
 4518              	.LASF38:
 4519 02ec 4F535F45 		.ascii	"OS_ERR_ACCEPT_ISR\000"
 4519      52525F41 
 4519      43434550 
 4519      545F4953 
 4519      5200
 4520              	.LASF153:
 4521 02fe 4F535F45 		.ascii	"OS_ERR_TASK_SUSPEND_ISR\000"
 4521      52525F54 
 4521      41534B5F 
 4521      53555350 
 4521      454E445F 
 4522              	.LASF79:
 4523 0316 4F535F45 		.ascii	"OS_ERR_MUTEX_NESTING\000"
 4523      52525F4D 
 4523      55544558 
 4523      5F4E4553 
 4523      54494E47 
 4524              	.LASF287:
 4525 032b 705F7065 		.ascii	"p_pend_list\000"
 4525      6E645F6C 
 4525      69737400 
 4526              	.LASF181:
 4527 0337 4F535F45 		.ascii	"OS_ERR_TMR_INVALID_STATE\000"
 4527      52525F54 
 4527      4D525F49 
 4527      4E56414C 
 4527      49445F53 
 4528              	.LASF234:
 4529 0350 50656E64 		.ascii	"PendOn\000"
 4529      4F6E00
 4530              	.LASF239:
 4531 0357 50656E64 		.ascii	"PendDataTblEntries\000"
 4531      44617461 
ARM GAS  C:\Users\daniel01\AppData\Local\Temp\cccGTwC2.s 			page 101


 4531      54626C45 
 4531      6E747269 
 4531      657300
 4532              	.LASF84:
 4533 036a 4F535F45 		.ascii	"OS_ERR_OBJ_CREATED\000"
 4533      52525F4F 
 4533      424A5F43 
 4533      52454154 
 4533      454400
 4534              	.LASF302:
 4535 037d 4F535F51 		.ascii	"OS_QClr\000"
 4535      436C7200 
 4536              	.LASF278:
 4537 0385 5461696C 		.ascii	"TailPtr\000"
 4537      50747200 
 4538              	.LASF297:
 4539 038d 705F766F 		.ascii	"p_void\000"
 4539      696400
 4540              	.LASF151:
 4541 0394 4F535F45 		.ascii	"OS_ERR_TASK_SUSPEND_IDLE\000"
 4541      52525F54 
 4541      41534B5F 
 4541      53555350 
 4541      454E445F 
 4542              	.LASF56:
 4543 03ad 4F535F45 		.ascii	"OS_ERR_INT_Q_FULL\000"
 4543      52525F49 
 4543      4E545F51 
 4543      5F46554C 
 4543      4C00
 4544              	.LASF242:
 4545 03bf 5469636B 		.ascii	"TickCtrMatch\000"
 4545      4374724D 
 4545      61746368 
 4545      00
 4546              	.LASF272:
 4547 03cc 5264794D 		.ascii	"RdyMsgPtr\000"
 4547      73675074 
 4547      7200
 4548              	.LASF280:
 4549 03d6 6F735F70 		.ascii	"os_pend_obj\000"
 4549      656E645F 
 4549      6F626A00 
 4550              	.LASF54:
 4551 03e2 4F535F45 		.ascii	"OS_ERR_ILLEGAL_CREATE_RUN_TIME\000"
 4551      52525F49 
 4551      4C4C4547 
 4551      414C5F43 
 4551      52454154 
 4552              	.LASF249:
 4553 0401 466C6167 		.ascii	"FlagsPend\000"
 4553      7350656E 
 4553      6400
 4554              	.LASF179:
 4555 040b 4F535F45 		.ascii	"OS_ERR_TMR_INVALID_DLY\000"
 4555      52525F54 
 4555      4D525F49 
ARM GAS  C:\Users\daniel01\AppData\Local\Temp\cccGTwC2.s 			page 102


 4555      4E56414C 
 4555      49445F44 
 4556              	.LASF255:
 4557 0422 43747853 		.ascii	"CtxSwCtr\000"
 4557      77437472 
 4557      00
 4558              	.LASF146:
 4559 042b 4F535F45 		.ascii	"OS_ERR_TASK_RESUME_PRIO\000"
 4559      52525F54 
 4559      41534B5F 
 4559      52455355 
 4559      4D455F50 
 4560              	.LASF30:
 4561 0443 4F535F50 		.ascii	"OS_PRIO\000"
 4561      52494F00 
 4562              	.LASF12:
 4563 044b 666C6F61 		.ascii	"float\000"
 4563      7400
 4564              	.LASF100:
 4565 0451 4F535F45 		.ascii	"OS_ERR_POST_NULL_PTR\000"
 4565      52525F50 
 4565      4F53545F 
 4565      4E554C4C 
 4565      5F505452 
 4566              	.LASF82:
 4567 0466 4F535F45 		.ascii	"OS_ERR_NO_MORE_ID_AVAIL\000"
 4567      52525F4E 
 4567      4F5F4D4F 
 4567      52455F49 
 4567      445F4156 
 4568              	.LASF264:
 4569 047e 4F535F54 		.ascii	"OS_TICK_SPOKE\000"
 4569      49434B5F 
 4569      53504F4B 
 4569      4500
 4570              	.LASF72:
 4571 048c 4F535F45 		.ascii	"OS_ERR_MEM_INVALID_P_DATA\000"
 4571      52525F4D 
 4571      454D5F49 
 4571      4E56414C 
 4571      49445F50 
 4572              	.LASF284:
 4573 04a6 6370755F 		.ascii	"cpu_sr\000"
 4573      737200
 4574              	.LASF184:
 4575 04ad 4F535F45 		.ascii	"OS_ERR_TMR_NO_CALLBACK\000"
 4575      52525F54 
 4575      4D525F4E 
 4575      4F5F4341 
 4575      4C4C4241 
 4576              	.LASF177:
 4577 04c4 4F535F45 		.ascii	"OS_ERR_TMR_INACTIVE\000"
 4577      52525F54 
 4577      4D525F49 
 4577      4E414354 
 4577      49564500 
 4578              	.LASF157:
ARM GAS  C:\Users\daniel01\AppData\Local\Temp\cccGTwC2.s 			page 103


 4579 04d8 4F535F45 		.ascii	"OS_ERR_TLS_ID_INVALID\000"
 4579      52525F54 
 4579      4C535F49 
 4579      445F494E 
 4579      56414C49 
 4580              	.LASF10:
 4581 04ee 6C6F6E67 		.ascii	"long long unsigned int\000"
 4581      206C6F6E 
 4581      6720756E 
 4581      7369676E 
 4581      65642069 
 4582              	.LASF303:
 4583 0505 4F535F51 		.ascii	"OS_QDbgListAdd\000"
 4583      4462674C 
 4583      69737441 
 4583      646400
 4584              	.LASF148:
 4585 0514 4F535F45 		.ascii	"OS_ERR_TASK_RUNNING\000"
 4585      52525F54 
 4585      41534B5F 
 4585      52554E4E 
 4585      494E4700 
 4586              	.LASF262:
 4587 0528 53746B55 		.ascii	"StkUsed\000"
 4587      73656400 
 4588              	.LASF182:
 4589 0530 4F535F45 		.ascii	"OS_ERR_TMR_INVALID\000"
 4589      52525F54 
 4589      4D525F49 
 4589      4E56414C 
 4589      494400
 4590              	.LASF267:
 4591 0543 4F535F50 		.ascii	"OS_PEND_DATA\000"
 4591      454E445F 
 4591      44415441 
 4591      00
 4592              	.LASF152:
 4593 0550 4F535F45 		.ascii	"OS_ERR_TASK_SUSPEND_INT_HANDLER\000"
 4593      52525F54 
 4593      41534B5F 
 4593      53555350 
 4593      454E445F 
 4594              	.LASF137:
 4595 0570 4F535F45 		.ascii	"OS_ERR_TASK_DEL_INVALID\000"
 4595      52525F54 
 4595      41534B5F 
 4595      44454C5F 
 4595      494E5641 
 4596              	.LASF187:
 4597 0588 4F535F45 		.ascii	"OS_ERR_TMR_STK_INVALID\000"
 4597      52525F54 
 4597      4D525F53 
 4597      544B5F49 
 4597      4E56414C 
 4598              	.LASF3:
 4599 059f 4350555F 		.ascii	"CPU_INT08U\000"
 4599      494E5430 
ARM GAS  C:\Users\daniel01\AppData\Local\Temp\cccGTwC2.s 			page 104


 4599      385500
 4600              	.LASF204:
 4601 05aa 6F735F6D 		.ascii	"os_msg\000"
 4601      736700
 4602              	.LASF156:
 4603 05b1 4F535F45 		.ascii	"OS_ERR_TCB_INVALID\000"
 4603      52525F54 
 4603      43425F49 
 4603      4E56414C 
 4603      494400
 4604              	.LASF238:
 4605 05c4 53746B53 		.ascii	"StkSize\000"
 4605      697A6500 
 4606              	.LASF230:
 4607 05cc 53746B42 		.ascii	"StkBasePtr\000"
 4607      61736550 
 4607      747200
 4608              	.LASF108:
 4609 05d7 4F535F45 		.ascii	"OS_ERR_Q_EMPTY\000"
 4609      52525F51 
 4609      5F454D50 
 4609      545900
 4610              	.LASF172:
 4611 05e6 4F535F45 		.ascii	"OS_ERR_TIME_INVALID_MILLISECONDS\000"
 4611      52525F54 
 4611      494D455F 
 4611      494E5641 
 4611      4C49445F 
 4612              	.LASF31:
 4613 0607 4F535F52 		.ascii	"OS_REG\000"
 4613      454700
 4614              	.LASF81:
 4615 060e 4F535F45 		.ascii	"OS_ERR_NAME\000"
 4615      52525F4E 
 4615      414D4500 
 4616              	.LASF309:
 4617 061a 706F7374 		.ascii	"post_type\000"
 4617      5F747970 
 4617      6500
 4618              	.LASF245:
 4619 0624 54696D65 		.ascii	"TimeQuantaCtr\000"
 4619      5175616E 
 4619      74614374 
 4619      7200
 4620              	.LASF34:
 4621 0632 4F535F53 		.ascii	"OS_STATUS\000"
 4621      54415455 
 4621      5300
 4622              	.LASF236:
 4623 063c 5461736B 		.ascii	"TaskState\000"
 4623      53746174 
 4623      6500
 4624              	.LASF161:
 4625 0646 4F535F45 		.ascii	"OS_ERR_TLS_DESTRUCT_ASSIGNED\000"
 4625      52525F54 
 4625      4C535F44 
 4625      45535452 
ARM GAS  C:\Users\daniel01\AppData\Local\Temp\cccGTwC2.s 			page 105


 4625      5543545F 
 4626              	.LASF300:
 4627 0663 4F535150 		.ascii	"OSQPost\000"
 4627      6F737400 
 4628              	.LASF77:
 4629 066b 4F535F45 		.ascii	"OS_ERR_MUTEX_NOT_OWNER\000"
 4629      52525F4D 
 4629      55544558 
 4629      5F4E4F54 
 4629      5F4F574E 
 4630              	.LASF25:
 4631 0682 4F535F4D 		.ascii	"OS_MSG_SIZE\000"
 4631      53475F53 
 4631      495A4500 
 4632              	.LASF169:
 4633 068e 4F535F45 		.ascii	"OS_ERR_TIME_INVALID_HOURS\000"
 4633      52525F54 
 4633      494D455F 
 4633      494E5641 
 4633      4C49445F 
 4634              	.LASF185:
 4635 06a8 4F535F45 		.ascii	"OS_ERR_TMR_NON_AVAIL\000"
 4635      52525F54 
 4635      4D525F4E 
 4635      4F4E5F41 
 4635      5641494C 
 4636              	.LASF2:
 4637 06bd 4350555F 		.ascii	"CPU_CHAR\000"
 4637      43484152 
 4637      00
 4638              	.LASF134:
 4639 06c6 4F535F45 		.ascii	"OS_ERR_TASK_CREATE_ISR\000"
 4639      52525F54 
 4639      41534B5F 
 4639      43524541 
 4639      54455F49 
 4640              	.LASF16:
 4641 06dd 4350555F 		.ascii	"CPU_STK_SIZE\000"
 4641      53544B5F 
 4641      53495A45 
 4641      00
 4642              	.LASF24:
 4643 06ea 4F535F4D 		.ascii	"OS_MSG_QTY\000"
 4643      53475F51 
 4643      545900
 4644              	.LASF90:
 4645 06f5 4F535F45 		.ascii	"OS_ERR_OS_RUNNING\000"
 4645      52525F4F 
 4645      535F5255 
 4645      4E4E494E 
 4645      4700
 4646              	.LASF263:
 4647 0707 53746B46 		.ascii	"StkFree\000"
 4647      72656500 
 4648              	.LASF241:
 4649 070f 5469636B 		.ascii	"TickCtrPrev\000"
 4649      43747250 
ARM GAS  C:\Users\daniel01\AppData\Local\Temp\cccGTwC2.s 			page 106


 4649      72657600 
 4650              	.LASF208:
 4651 071b 4E627245 		.ascii	"NbrEntriesSize\000"
 4651      6E747269 
 4651      65735369 
 4651      7A6500
 4652              	.LASF175:
 4653 072a 4F535F45 		.ascii	"OS_ERR_TIME_ZERO_DLY\000"
 4653      52525F54 
 4653      494D455F 
 4653      5A45524F 
 4653      5F444C59 
 4654              	.LASF228:
 4655 073f 5469636B 		.ascii	"TickPrevPtr\000"
 4655      50726576 
 4655      50747200 
 4656              	.LASF250:
 4657 074b 466C6167 		.ascii	"FlagsRdy\000"
 4657      73526479 
 4657      00
 4658              	.LASF125:
 4659 0754 4F535F45 		.ascii	"OS_ERR_STAT_STK_INVALID\000"
 4659      52525F53 
 4659      5441545F 
 4659      53544B5F 
 4659      494E5641 
 4660              	.LASF47:
 4661 076c 4F535F45 		.ascii	"OS_ERR_FLAG_GRP_DEPLETED\000"
 4661      52525F46 
 4661      4C41475F 
 4661      4752505F 
 4661      4445504C 
 4662              	.LASF68:
 4663 0785 4F535F45 		.ascii	"OS_ERR_MEM_INVALID_BLKS\000"
 4663      52525F4D 
 4663      454D5F49 
 4663      4E56414C 
 4663      49445F42 
 4664              	.LASF283:
 4665 079d 705F6572 		.ascii	"p_err\000"
 4665      7200
 4666              	.LASF211:
 4667 07a3 4F535F51 		.ascii	"OS_Q\000"
 4667      00
 4668              	.LASF247:
 4669 07a8 4D736751 		.ascii	"MsgQPendTimeMax\000"
 4669      50656E64 
 4669      54696D65 
 4669      4D617800 
 4670              	.LASF246:
 4671 07b8 4D736751 		.ascii	"MsgQPendTime\000"
 4671      50656E64 
 4671      54696D65 
 4671      00
 4672              	.LASF198:
 4673 07c5 4F535F4D 		.ascii	"OS_MSG\000"
 4673      534700
ARM GAS  C:\Users\daniel01\AppData\Local\Temp\cccGTwC2.s 			page 107


 4674              	.LASF281:
 4675 07cc 705F6E61 		.ascii	"p_name\000"
 4675      6D6500
 4676              	.LASF178:
 4677 07d3 4F535F45 		.ascii	"OS_ERR_TMR_INVALID_DEST\000"
 4677      52525F54 
 4677      4D525F49 
 4677      4E56414C 
 4677      49445F44 
 4678              	.LASF117:
 4679 07eb 4F535F45 		.ascii	"OS_ERR_SCHED_LOCK_ISR\000"
 4679      52525F53 
 4679      43484544 
 4679      5F4C4F43 
 4679      4B5F4953 
 4680              	.LASF43:
 4681 0801 4F535F45 		.ascii	"OS_ERR_DEL_ISR\000"
 4681      52525F44 
 4681      454C5F49 
 4681      535200
 4682              	.LASF109:
 4683 0810 4F535F45 		.ascii	"OS_ERR_Q_MAX\000"
 4683      52525F51 
 4683      5F4D4158 
 4683      00
 4684              	.LASF286:
 4685 081d 705F7065 		.ascii	"p_pend_data\000"
 4685      6E645F64 
 4685      61746100 
 4686              	.LASF226:
 4687 0829 50726576 		.ascii	"PrevPtr\000"
 4687      50747200 
 4688              	.LASF0:
 4689 0831 63686172 		.ascii	"char\000"
 4689      00
 4690              	.LASF28:
 4691 0836 4F535F4F 		.ascii	"OS_OBJ_TYPE\000"
 4691      424A5F54 
 4691      59504500 
 4692              	.LASF317:
 4693 0842 433A5C4D 		.ascii	"C:\\Micrium\\Software\\uCOS-III\\Source\\os_q.c\000"
 4693      69637269 
 4693      756D5C53 
 4693      6F667477 
 4693      6172655C 
 4694              	.LASF160:
 4695 086d 4F535F45 		.ascii	"OS_ERR_TLS_NOT_EN\000"
 4695      52525F54 
 4695      4C535F4E 
 4695      4F545F45 
 4695      4E00
 4696              	.LASF88:
 4697 087f 4F535F45 		.ascii	"OS_ERR_OPT_INVALID\000"
 4697      52525F4F 
 4697      50545F49 
 4697      4E56414C 
 4697      494400
ARM GAS  C:\Users\daniel01\AppData\Local\Temp\cccGTwC2.s 			page 108


 4698              	.LASF17:
 4699 0892 4350555F 		.ascii	"CPU_SR\000"
 4699      535200
 4700              	.LASF116:
 4701 0899 4F535F45 		.ascii	"OS_ERR_SCHED_INVALID_TIME_SLICE\000"
 4701      52525F53 
 4701      43484544 
 4701      5F494E56 
 4701      414C4944 
 4702              	.LASF219:
 4703 08b9 4D736751 		.ascii	"MsgQ\000"
 4703      00
 4704              	.LASF231:
 4705 08be 5461736B 		.ascii	"TaskEntryAddr\000"
 4705      456E7472 
 4705      79416464 
 4705      7200
 4706              	.LASF124:
 4707 08cc 4F535F45 		.ascii	"OS_ERR_STAT_PRIO_INVALID\000"
 4707      52525F53 
 4707      5441545F 
 4707      5052494F 
 4707      5F494E56 
 4708              	.LASF173:
 4709 08e5 4F535F45 		.ascii	"OS_ERR_TIME_NOT_DLY\000"
 4709      52525F54 
 4709      494D455F 
 4709      4E4F545F 
 4709      444C5900 
 4710              	.LASF214:
 4711 08f9 4E616D65 		.ascii	"NamePtr\000"
 4711      50747200 
 4712              	.LASF235:
 4713 0901 50656E64 		.ascii	"PendStatus\000"
 4713      53746174 
 4713      757300
 4714              	.LASF307:
 4715 090c 4F535F51 		.ascii	"OS_QInit\000"
 4715      496E6974 
 4715      00
 4716              	.LASF203:
 4717 0915 4F535F4D 		.ascii	"OS_MSG_Q\000"
 4717      53475F51 
 4717      00
 4718              	.LASF213:
 4719 091e 54797065 		.ascii	"Type\000"
 4719      00
 4720              	.LASF195:
 4721 0923 4F535F45 		.ascii	"OS_ERR_YIELD_ISR\000"
 4721      52525F59 
 4721      49454C44 
 4721      5F495352 
 4721      00
 4722              	.LASF85:
 4723 0934 4F535F45 		.ascii	"OS_ERR_OBJ_DEL\000"
 4723      52525F4F 
 4723      424A5F44 
ARM GAS  C:\Users\daniel01\AppData\Local\Temp\cccGTwC2.s 			page 109


 4723      454C00
 4724              	.LASF19:
 4725 0943 4350555F 		.ascii	"CPU_TS\000"
 4725      545300
 4726              	.LASF11:
 4727 094a 6C6F6E67 		.ascii	"long long int\000"
 4727      206C6F6E 
 4727      6720696E 
 4727      7400
 4728              	.LASF49:
 4729 0958 4F535F45 		.ascii	"OS_ERR_FLAG_PEND_OPT\000"
 4729      52525F46 
 4729      4C41475F 
 4729      50454E44 
 4729      5F4F5054 
 4730              	.LASF223:
 4731 096d 53746B50 		.ascii	"StkPtr\000"
 4731      747200
 4732              	.LASF290:
 4733 0974 4F535146 		.ascii	"OSQFlush\000"
 4733      6C757368 
 4733      00
 4734              	.LASF265:
 4735 097d 6F735F74 		.ascii	"os_tick_spoke\000"
 4735      69636B5F 
 4735      73706F6B 
 4735      6500
 4736              	.LASF304:
 4737 098b 4F535F51 		.ascii	"OS_QDbgListRemove\000"
 4737      4462674C 
 4737      69737452 
 4737      656D6F76 
 4737      6500
 4738              	.LASF288:
 4739 099d 705F7463 		.ascii	"p_tcb\000"
 4739      6200
 4740              	.LASF312:
 4741 09a3 4F535144 		.ascii	"OSQDbgListPtr\000"
 4741      62674C69 
 4741      73745074 
 4741      7200
 4742              	.LASF110:
 4743 09b1 4F535F45 		.ascii	"OS_ERR_Q_SIZE\000"
 4743      52525F51 
 4743      5F53495A 
 4743      4500
 4744              	.LASF257:
 4745 09bf 4379636C 		.ascii	"CyclesStart\000"
 4745      65735374 
 4745      61727400 
 4746              	.LASF296:
 4747 09cb 70656E64 		.ascii	"pend_data\000"
 4747      5F646174 
 4747      6100
 4748              	.LASF282:
 4749 09d5 6D61785F 		.ascii	"max_qty\000"
 4749      71747900 
ARM GAS  C:\Users\daniel01\AppData\Local\Temp\cccGTwC2.s 			page 110


 4750              	.LASF269:
 4751 09dd 54434250 		.ascii	"TCBPtr\000"
 4751      747200
 4752              	.LASF95:
 4753 09e4 4F535F45 		.ascii	"OS_ERR_PEND_ABORT_SELF\000"
 4753      52525F50 
 4753      454E445F 
 4753      41424F52 
 4753      545F5345 
 4754              	.LASF5:
 4755 09fb 4350555F 		.ascii	"CPU_INT16U\000"
 4755      494E5431 
 4755      365500
 4756              	.LASF114:
 4757 0a06 4F535F45 		.ascii	"OS_ERR_ROUND_ROBIN_DISABLED\000"
 4757      52525F52 
 4757      4F554E44 
 4757      5F524F42 
 4757      494E5F44 
 4758              	.LASF69:
 4759 0a22 4F535F45 		.ascii	"OS_ERR_MEM_INVALID_PART\000"
 4759      52525F4D 
 4759      454D5F49 
 4759      4E56414C 
 4759      49445F50 
 4760              	.LASF86:
 4761 0a3a 4F535F45 		.ascii	"OS_ERR_OBJ_PTR_NULL\000"
 4761      52525F4F 
 4761      424A5F50 
 4761      54525F4E 
 4761      554C4C00 
 4762              	.LASF112:
 4763 0a4e 4F535F45 		.ascii	"OS_ERR_REG_ID_INVALID\000"
 4763      52525F52 
 4763      45475F49 
 4763      445F494E 
 4763      56414C49 
 4764              	.LASF285:
 4765 0a64 6E62725F 		.ascii	"nbr_tasks\000"
 4765      7461736B 
 4765      7300
 4766              	.LASF35:
 4767 0a6e 4F535F54 		.ascii	"OS_TICK\000"
 4767      49434B00 
 4768              	.LASF66:
 4769 0a76 4F535F45 		.ascii	"OS_ERR_MEM_FULL\000"
 4769      52525F4D 
 4769      454D5F46 
 4769      554C4C00 
 4770              	.LASF140:
 4771 0a86 4F535F45 		.ascii	"OS_ERR_TASK_NO_MORE_TCB\000"
 4771      52525F54 
 4771      41534B5F 
 4771      4E4F5F4D 
 4771      4F52455F 
 4772              	.LASF71:
 4773 0a9e 4F535F45 		.ascii	"OS_ERR_MEM_INVALID_P_MEM\000"
ARM GAS  C:\Users\daniel01\AppData\Local\Temp\cccGTwC2.s 			page 111


 4773      52525F4D 
 4773      454D5F49 
 4773      4E56414C 
 4773      49445F50 
 4774              	.LASF18:
 4775 0ab7 4350555F 		.ascii	"CPU_TS32\000"
 4775      54533332 
 4775      00
 4776              	.LASF252:
 4777 0ac0 53757370 		.ascii	"SuspendCtr\000"
 4777      656E6443 
 4777      747200
 4778              	.LASF212:
 4779 0acb 6F735F71 		.ascii	"os_q\000"
 4779      00
 4780              	.LASF256:
 4781 0ad0 4379636C 		.ascii	"CyclesDelta\000"
 4781      65734465 
 4781      6C746100 
 4782              	.LASF32:
 4783 0adc 4F535F53 		.ascii	"OS_SEM_CTR\000"
 4783      454D5F43 
 4783      545200
 4784              	.LASF188:
 4785 0ae7 4F535F45 		.ascii	"OS_ERR_TMR_STK_SIZE_INVALID\000"
 4785      52525F54 
 4785      4D525F53 
 4785      544B5F53 
 4785      495A455F 
 4786              	.LASF165:
 4787 0b03 4F535F45 		.ascii	"OS_ERR_TICK_WHEEL_SIZE\000"
 4787      52525F54 
 4787      49434B5F 
 4787      57484545 
 4787      4C5F5349 
 4788              	.LASF227:
 4789 0b1a 5469636B 		.ascii	"TickNextPtr\000"
 4789      4E657874 
 4789      50747200 
 4790              	.LASF142:
 4791 0b26 4F535F45 		.ascii	"OS_ERR_TASK_NOT_EXIST\000"
 4791      52525F54 
 4791      41534B5F 
 4791      4E4F545F 
 4791      45584953 
 4792              	.LASF310:
 4793 0b3c 705F7065 		.ascii	"p_pend_data_next\000"
 4793      6E645F64 
 4793      6174615F 
 4793      6E657874 
 4793      00
 4794              	.LASF139:
 4795 0b4d 4F535F45 		.ascii	"OS_ERR_TASK_INVALID\000"
 4795      52525F54 
 4795      41534B5F 
 4795      494E5641 
 4795      4C494400 
ARM GAS  C:\Users\daniel01\AppData\Local\Temp\cccGTwC2.s 			page 112


 4796              	.LASF186:
 4797 0b61 4F535F45 		.ascii	"OS_ERR_TMR_PRIO_INVALID\000"
 4797      52525F54 
 4797      4D525F50 
 4797      52494F5F 
 4797      494E5641 
 4798              	.LASF295:
 4799 0b79 705F7473 		.ascii	"p_ts\000"
 4799      00
 4800              	.LASF154:
 4801 0b7e 4F535F45 		.ascii	"OS_ERR_TASK_SUSPEND_PRIO\000"
 4801      52525F54 
 4801      41534B5F 
 4801      53555350 
 4801      454E445F 
 4802              	.LASF271:
 4803 0b97 5264794F 		.ascii	"RdyObjPtr\000"
 4803      626A5074 
 4803      7200
 4804              	.LASF59:
 4805 0ba1 4F535F45 		.ascii	"OS_ERR_INT_Q_STK_SIZE_INVALID\000"
 4805      52525F49 
 4805      4E545F51 
 4805      5F53544B 
 4805      5F53495A 
 4806              	.LASF158:
 4807 0bbf 4F535F45 		.ascii	"OS_ERR_TLS_ISR\000"
 4807      52525F54 
 4807      4C535F49 
 4807      535200
 4808              	.LASF138:
 4809 0bce 4F535F45 		.ascii	"OS_ERR_TASK_DEL_ISR\000"
 4809      52525F54 
 4809      41534B5F 
 4809      44454C5F 
 4809      49535200 
 4810              	.LASF260:
 4811 0be2 53656D50 		.ascii	"SemPendTime\000"
 4811      656E6454 
 4811      696D6500 
 4812              	.LASF292:
 4813 0bee 4F535150 		.ascii	"OSQPend\000"
 4813      656E6400 
 4814              	.LASF105:
 4815 0bf6 4F535F45 		.ascii	"OS_ERR_PTR_INVALID\000"
 4815      52525F50 
 4815      54525F49 
 4815      4E56414C 
 4815      494400
 4816              	.LASF127:
 4817 0c09 4F535F45 		.ascii	"OS_ERR_STATE_INVALID\000"
 4817      52525F53 
 4817      54415445 
 4817      5F494E56 
 4817      414C4944 
 4818              	.LASF199:
 4819 0c1e 4E657874 		.ascii	"NextPtr\000"
ARM GAS  C:\Users\daniel01\AppData\Local\Temp\cccGTwC2.s 			page 113


 4819      50747200 
 4820              	.LASF89:
 4821 0c26 4F535F45 		.ascii	"OS_ERR_OS_NOT_RUNNING\000"
 4821      52525F4F 
 4821      535F4E4F 
 4821      545F5255 
 4821      4E4E494E 
 4822              	.LASF311:
 4823 0c3c 4F53496E 		.ascii	"OSIntNestingCtr\000"
 4823      744E6573 
 4823      74696E67 
 4823      43747200 
 4824              	.LASF225:
 4825 0c4c 53746B4C 		.ascii	"StkLimitPtr\000"
 4825      696D6974 
 4825      50747200 
 4826              	.LASF174:
 4827 0c58 4F535F45 		.ascii	"OS_ERR_TIME_SET_ISR\000"
 4827      52525F54 
 4827      494D455F 
 4827      5345545F 
 4827      49535200 
 4828              	.LASF113:
 4829 0c6c 4F535F45 		.ascii	"OS_ERR_ROUND_ROBIN_1\000"
 4829      52525F52 
 4829      4F554E44 
 4829      5F524F42 
 4829      494E5F31 
 4830              	.LASF70:
 4831 0c81 4F535F45 		.ascii	"OS_ERR_MEM_INVALID_P_BLK\000"
 4831      52525F4D 
 4831      454D5F49 
 4831      4E56414C 
 4831      49445F50 
 4832              	.LASF67:
 4833 0c9a 4F535F45 		.ascii	"OS_ERR_MEM_INVALID_P_ADDR\000"
 4833      52525F4D 
 4833      454D5F49 
 4833      4E56414C 
 4833      49445F50 
 4834              	.LASF274:
 4835 0cb4 52647954 		.ascii	"RdyTS\000"
 4835      5300
 4836              	.LASF63:
 4837 0cba 4F535F45 		.ascii	"OS_ERR_LOCK_NESTING_OVF\000"
 4837      52525F4C 
 4837      4F434B5F 
 4837      4E455354 
 4837      494E475F 
 4838              	.LASF149:
 4839 0cd2 4F535F45 		.ascii	"OS_ERR_TASK_STK_CHK_ISR\000"
 4839      52525F54 
 4839      41534B5F 
 4839      53544B5F 
 4839      43484B5F 
 4840              	.LASF7:
 4841 0cea 73686F72 		.ascii	"short int\000"
ARM GAS  C:\Users\daniel01\AppData\Local\Temp\cccGTwC2.s 			page 114


 4841      7420696E 
 4841      7400
 4842              	.LASF273:
 4843 0cf4 5264794D 		.ascii	"RdyMsgSize\000"
 4843      73675369 
 4843      7A6500
 4844              	.LASF75:
 4845 0cff 4F535F45 		.ascii	"OS_ERR_MSG_POOL_EMPTY\000"
 4845      52525F4D 
 4845      53475F50 
 4845      4F4F4C5F 
 4845      454D5054 
 4846              	.LASF120:
 4847 0d15 4F535F45 		.ascii	"OS_ERR_SCHED_UNLOCK_ISR\000"
 4847      52525F53 
 4847      43484544 
 4847      5F554E4C 
 4847      4F434B5F 
 4848              	.LASF261:
 4849 0d2d 53656D50 		.ascii	"SemPendTimeMax\000"
 4849      656E6454 
 4849      696D654D 
 4849      617800
 4850              	.LASF259:
 4851 0d3c 4379636C 		.ascii	"CyclesTotalPrev\000"
 4851      6573546F 
 4851      74616C50 
 4851      72657600 
 4852              	.LASF163:
 4853 0d4c 4F535F45 		.ascii	"OS_ERR_TICK_STK_INVALID\000"
 4853      52525F54 
 4853      49434B5F 
 4853      53544B5F 
 4853      494E5641 
 4854              	.LASF76:
 4855 0d64 4F535F45 		.ascii	"OS_ERR_MSG_POOL_NULL_PTR\000"
 4855      52525F4D 
 4855      53475F50 
 4855      4F4F4C5F 
 4855      4E554C4C 
 4856              	.LASF26:
 4857 0d7d 4F535F4E 		.ascii	"OS_NESTING_CTR\000"
 4857      45535449 
 4857      4E475F43 
 4857      545200
 4858              	.LASF258:
 4859 0d8c 4379636C 		.ascii	"CyclesTotal\000"
 4859      6573546F 
 4859      74616C00 
 4860              	.LASF313:
 4861 0d98 4F535151 		.ascii	"OSQQty\000"
 4861      747900
 4862              	.LASF279:
 4863 0d9f 4F535F50 		.ascii	"OS_PEND_OBJ\000"
 4863      454E445F 
 4863      4F424A00 
 4864              	.LASF299:
ARM GAS  C:\Users\daniel01\AppData\Local\Temp\cccGTwC2.s 			page 115


 4865 0dab 4F535143 		.ascii	"OSQCreate\000"
 4865      72656174 
 4865      6500
 4866              	.LASF147:
 4867 0db5 4F535F45 		.ascii	"OS_ERR_TASK_RESUME_SELF\000"
 4867      52525F54 
 4867      41534B5F 
 4867      52455355 
 4867      4D455F53 
 4868              	.LASF254:
 4869 0dcd 43505555 		.ascii	"CPUUsageMax\000"
 4869      73616765 
 4869      4D617800 
 4870              	.LASF215:
 4871 0dd9 50656E64 		.ascii	"PendList\000"
 4871      4C697374 
 4871      00
 4872              	.LASF87:
 4873 0de2 4F535F45 		.ascii	"OS_ERR_OBJ_TYPE\000"
 4873      52525F4F 
 4873      424A5F54 
 4873      59504500 
 4874              	.LASF233:
 4875 0df2 50656E64 		.ascii	"PendDataTblPtr\000"
 4875      44617461 
 4875      54626C50 
 4875      747200
 4876              	.LASF240:
 4877 0e01 53656D43 		.ascii	"SemCtr\000"
 4877      747200
 4878              	.LASF206:
 4879 0e08 496E5074 		.ascii	"InPtr\000"
 4879      7200
 4880              	.LASF243:
 4881 0e0e 5469636B 		.ascii	"TickRemain\000"
 4881      52656D61 
 4881      696E00
 4882              	.LASF277:
 4883 0e19 48656164 		.ascii	"HeadPtr\000"
 4883      50747200 
 4884              	.LASF94:
 4885 0e21 4F535F45 		.ascii	"OS_ERR_PEND_ABORT_NONE\000"
 4885      52525F50 
 4885      454E445F 
 4885      41424F52 
 4885      545F4E4F 
 4886              	.LASF9:
 4887 0e38 756E7369 		.ascii	"unsigned int\000"
 4887      676E6564 
 4887      20696E74 
 4887      00
 4888              	.LASF201:
 4889 0e45 4D736753 		.ascii	"MsgSize\000"
 4889      697A6500 
 4890              	.LASF78:
 4891 0e4d 4F535F45 		.ascii	"OS_ERR_MUTEX_OWNER\000"
 4891      52525F4D 
ARM GAS  C:\Users\daniel01\AppData\Local\Temp\cccGTwC2.s 			page 116


 4891      55544558 
 4891      5F4F574E 
 4891      455200
 4892              	.LASF266:
 4893 0e60 46697273 		.ascii	"FirstPtr\000"
 4893      74507472 
 4893      00
 4894              	.LASF126:
 4895 0e69 4F535F45 		.ascii	"OS_ERR_STAT_STK_SIZE_INVALID\000"
 4895      52525F53 
 4895      5441545F 
 4895      53544B5F 
 4895      53495A45 
 4896              	.LASF48:
 4897 0e86 4F535F45 		.ascii	"OS_ERR_FLAG_NOT_RDY\000"
 4897      52525F46 
 4897      4C41475F 
 4897      4E4F545F 
 4897      52445900 
 4898              	.LASF224:
 4899 0e9a 45787450 		.ascii	"ExtPtr\000"
 4899      747200
 4900              	.LASF93:
 4901 0ea1 4F535F45 		.ascii	"OS_ERR_PEND_ABORT_ISR\000"
 4901      52525F50 
 4901      454E445F 
 4901      41424F52 
 4901      545F4953 
 4902              	.LASF14:
 4903 0eb7 4350555F 		.ascii	"CPU_ADDR\000"
 4903      41444452 
 4903      00
 4904              	.LASF298:
 4905 0ec0 4F535150 		.ascii	"OSQPendAbort\000"
 4905      656E6441 
 4905      626F7274 
 4905      00
 4906              	.LASF101:
 4907 0ecd 4F535F45 		.ascii	"OS_ERR_POST_ISR\000"
 4907      52525F50 
 4907      4F53545F 
 4907      49535200 
 4908              	.LASF166:
 4909 0edd 4F535F45 		.ascii	"OS_ERR_TIME_DLY_ISR\000"
 4909      52525F54 
 4909      494D455F 
 4909      444C595F 
 4909      49535200 
 4910              	.LASF131:
 4911 0ef1 4F535F45 		.ascii	"OS_ERR_STK_LIMIT_INVALID\000"
 4911      52525F53 
 4911      544B5F4C 
 4911      494D4954 
 4911      5F494E56 
 4912              	.LASF289:
 4913 0f0a 4F535144 		.ascii	"OSQDel\000"
 4913      656C00
ARM GAS  C:\Users\daniel01\AppData\Local\Temp\cccGTwC2.s 			page 117


 4914              	.LASF22:
 4915 0f11 4F535F43 		.ascii	"OS_CYCLES\000"
 4915      59434C45 
 4915      5300
 4916              	.LASF221:
 4917 0f1b 4F535F54 		.ascii	"OS_TCB\000"
 4917      434200
 4918              	.LASF130:
 4919 0f22 4F535F45 		.ascii	"OS_ERR_STK_SIZE_INVALID\000"
 4919      52525F53 
 4919      544B5F53 
 4919      495A455F 
 4919      494E5641 
 4920              	.LASF189:
 4921 0f3a 4F535F45 		.ascii	"OS_ERR_TMR_STOPPED\000"
 4921      52525F54 
 4921      4D525F53 
 4921      544F5050 
 4921      454400
 4922              	.LASF1:
 4923 0f4d 756E7369 		.ascii	"unsigned char\000"
 4923      676E6564 
 4923      20636861 
 4923      7200
 4924              	.LASF144:
 4925 0f5b 4F535F45 		.ascii	"OS_ERR_TASK_OPT\000"
 4925      52525F54 
 4925      41534B5F 
 4925      4F505400 
 4926              	.LASF314:
 4927 0f6b 4F535363 		.ascii	"OSSchedLockNestingCtr\000"
 4927      6865644C 
 4927      6F636B4E 
 4927      65737469 
 4927      6E674374 
 4928              	.LASF176:
 4929 0f81 4F535F45 		.ascii	"OS_ERR_TIMEOUT\000"
 4929      52525F54 
 4929      494D454F 
 4929      555400
 4930              	.LASF33:
 4931 0f90 4F535F53 		.ascii	"OS_STATE\000"
 4931      54415445 
 4931      00
 4932              	.LASF293:
 4933 0f99 74696D65 		.ascii	"timeout\000"
 4933      6F757400 
 4934              	.LASF29:
 4935 0fa1 4F535F4F 		.ascii	"OS_OPT\000"
 4935      505400
 4936              	.LASF220:
 4937 0fa8 4F535F54 		.ascii	"OS_TASK_PTR\000"
 4937      41534B5F 
 4937      50545200 
 4938              	.LASF65:
 4939 0fb4 4F535F45 		.ascii	"OS_ERR_MEM_CREATE_ISR\000"
 4939      52525F4D 
ARM GAS  C:\Users\daniel01\AppData\Local\Temp\cccGTwC2.s 			page 118


 4939      454D5F43 
 4939      52454154 
 4939      455F4953 
 4940              	.LASF128:
 4941 0fca 4F535F45 		.ascii	"OS_ERR_STATUS_INVALID\000"
 4941      52525F53 
 4941      54415455 
 4941      535F494E 
 4941      56414C49 
 4942              	.LASF194:
 4943 0fe0 4F535F45 		.ascii	"OS_ERR_Y\000"
 4943      52525F59 
 4943      00
 4944              	.LASF97:
 4945 0fe9 4F535F45 		.ascii	"OS_ERR_PEND_ISR\000"
 4945      52525F50 
 4945      454E445F 
 4945      49535200 
 4946              	.LASF196:
 4947 0ff9 4F535F45 		.ascii	"OS_ERR_Z\000"
 4947      52525F5A 
 4947      00
 4948              	.LASF229:
 4949 1002 5469636B 		.ascii	"TickSpokePtr\000"
 4949      53706F6B 
 4949      65507472 
 4949      00
 4950              	.LASF218:
 4951 100f 4462674E 		.ascii	"DbgNamePtr\000"
 4951      616D6550 
 4951      747200
 4952              	.LASF207:
 4953 101a 4F757450 		.ascii	"OutPtr\000"
 4953      747200
 4954              	.LASF232:
 4955 1021 5461736B 		.ascii	"TaskEntryArg\000"
 4955      456E7472 
 4955      79417267 
 4955      00
 4956              	.LASF107:
 4957 102e 4F535F45 		.ascii	"OS_ERR_Q_FULL\000"
 4957      52525F51 
 4957      5F46554C 
 4957      4C00
 4958              	.LASF58:
 4959 103c 4F535F45 		.ascii	"OS_ERR_INT_Q_STK_INVALID\000"
 4959      52525F49 
 4959      4E545F51 
 4959      5F53544B 
 4959      5F494E56 
 4960              	.LASF171:
 4961 1055 4F535F45 		.ascii	"OS_ERR_TIME_INVALID_SECONDS\000"
 4961      52525F54 
 4961      494D455F 
 4961      494E5641 
 4961      4C49445F 
 4962              	.LASF306:
ARM GAS  C:\Users\daniel01\AppData\Local\Temp\cccGTwC2.s 			page 119


 4963 1071 705F715F 		.ascii	"p_q_prev\000"
 4963      70726576 
 4963      00
 4964              	.LASF135:
 4965 107a 4F535F45 		.ascii	"OS_ERR_TASK_DEL\000"
 4965      52525F54 
 4965      41534B5F 
 4965      44454C00 
 4966              	.LASF275:
 4967 108a 4F535F50 		.ascii	"OS_PEND_LIST\000"
 4967      454E445F 
 4967      4C495354 
 4967      00
 4968              	.LASF301:
 4969 1097 6D73675F 		.ascii	"msg_size\000"
 4969      73697A65 
 4969      00
 4970              	.LASF4:
 4971 10a0 7369676E 		.ascii	"signed char\000"
 4971      65642063 
 4971      68617200 
 4972              	.LASF202:
 4973 10ac 4D736754 		.ascii	"MsgTS\000"
 4973      5300
 4974              	.LASF46:
 4975 10b2 4F535F45 		.ascii	"OS_ERR_FATAL_RETURN\000"
 4975      52525F46 
 4975      4154414C 
 4975      5F524554 
 4975      55524E00 
 4976              	.LASF6:
 4977 10c6 73686F72 		.ascii	"short unsigned int\000"
 4977      7420756E 
 4977      7369676E 
 4977      65642069 
 4977      6E7400
 4978              	.LASF23:
 4979 10d9 4F535F46 		.ascii	"OS_FLAGS\000"
 4979      4C414753 
 4979      00
 4980              	.LASF200:
 4981 10e2 4D736750 		.ascii	"MsgPtr\000"
 4981      747200
 4982              	.LASF159:
 4983 10e9 4F535F45 		.ascii	"OS_ERR_TLS_NO_MORE_AVAIL\000"
 4983      52525F54 
 4983      4C535F4E 
 4983      4F5F4D4F 
 4983      52455F41 
 4984              	.LASF36:
 4985 1102 4F535F45 		.ascii	"OS_ERR_NONE\000"
 4985      52525F4E 
 4985      4F4E4500 
 4986              	.LASF268:
 4987 110e 6F735F70 		.ascii	"os_pend_data\000"
 4987      656E645F 
 4987      64617461 
ARM GAS  C:\Users\daniel01\AppData\Local\Temp\cccGTwC2.s 			page 120


 4987      00
 4988              	.LASF305:
 4989 111b 705F715F 		.ascii	"p_q_next\000"
 4989      6E657874 
 4989      00
 4990              	.LASF118:
 4991 1124 4F535F45 		.ascii	"OS_ERR_SCHED_LOCKED\000"
 4991      52525F53 
 4991      43484544 
 4991      5F4C4F43 
 4991      4B454400 
 4992              	.LASF50:
 4993 1138 4F535F45 		.ascii	"OS_ERR_FLUSH_ISR\000"
 4993      52525F46 
 4993      4C555348 
 4993      5F495352 
 4993      00
 4994              	.LASF237:
 4995 1149 5072696F 		.ascii	"Prio\000"
 4995      00
 4996              	.LASF13:
 4997 114e 646F7562 		.ascii	"double\000"
 4997      6C6500
 4998              	.LASF92:
 4999 1155 4F535F45 		.ascii	"OS_ERR_PEND_ABORT\000"
 4999      52525F50 
 4999      454E445F 
 4999      41424F52 
 4999      5400
 5000              	.LASF253:
 5001 1167 43505555 		.ascii	"CPUUsage\000"
 5001      73616765 
 5001      00
 5002              	.LASF119:
 5003 1170 4F535F45 		.ascii	"OS_ERR_SCHED_NOT_LOCKED\000"
 5003      52525F53 
 5003      43484544 
 5003      5F4E4F54 
 5003      5F4C4F43 
 5004              	.LASF103:
 5005 1188 4F535F45 		.ascii	"OS_ERR_PRIO\000"
 5005      52525F50 
 5005      52494F00 
 5006              	.LASF96:
 5007 1194 4F535F45 		.ascii	"OS_ERR_PEND_DEL\000"
 5007      52525F50 
 5007      454E445F 
 5007      44454C00 
 5008              	.LASF270:
 5009 11a4 50656E64 		.ascii	"PendObjPtr\000"
 5009      4F626A50 
 5009      747200
 5010              	.LASF318:
 5011 11af 433A5C55 		.ascii	"C:\\Users\\daniel01\\Desktop\\CY8CKIT-050_uCOS-III\\"
 5011      73657273 
 5011      5C64616E 
 5011      69656C30 
ARM GAS  C:\Users\daniel01\AppData\Local\Temp\cccGTwC2.s 			page 121


 5011      315C4465 
 5012 11de 43593843 		.ascii	"CY8CKIT-050_uCOS-III\\Micrium\\Software\\EvalBoards"
 5012      4B49542D 
 5012      3035305F 
 5012      75434F53 
 5012      2D494949 
 5013 120e 5C437970 		.ascii	"\\Cypress\\CY8CKIT-050\\PSoC\\uCOS-III-Probe\\uCOS-"
 5013      72657373 
 5013      5C435938 
 5013      434B4954 
 5013      2D303530 
 5014 123c 4949492D 		.ascii	"III-Probe.cydsn\000"
 5014      50726F62 
 5014      652E6379 
 5014      64736E00 
 5015              	.LASF210:
 5016 124c 4E627245 		.ascii	"NbrEntriesMax\000"
 5016      6E747269 
 5016      65734D61 
 5016      7800
 5017              	.LASF276:
 5018 125a 6F735F70 		.ascii	"os_pend_list\000"
 5018      656E645F 
 5018      6C697374 
 5018      00
 5019              	.LASF73:
 5020 1267 4F535F45 		.ascii	"OS_ERR_MEM_INVALID_SIZE\000"
 5020      52525F4D 
 5020      454D5F49 
 5020      4E56414C 
 5020      49445F53 
 5021              	.LASF150:
 5022 127f 4F535F45 		.ascii	"OS_ERR_TASK_SUSPENDED\000"
 5022      52525F54 
 5022      41534B5F 
 5022      53555350 
 5022      454E4445 
 5023              	.LASF122:
 5024 1295 4F535F45 		.ascii	"OS_ERR_SET_ISR\000"
 5024      52525F53 
 5024      45545F49 
 5024      535200
 5025              	.LASF248:
 5026 12a4 52656754 		.ascii	"RegTbl\000"
 5026      626C00
 5027              	.LASF121:
 5028 12ab 4F535F45 		.ascii	"OS_ERR_SEM_OVF\000"
 5028      52525F53 
 5028      454D5F4F 
 5028      564600
 5029              	.LASF136:
 5030 12ba 4F535F45 		.ascii	"OS_ERR_TASK_DEL_IDLE\000"
 5030      52525F54 
 5030      41534B5F 
 5030      44454C5F 
 5030      49444C45 
 5031              	.LASF168:
ARM GAS  C:\Users\daniel01\AppData\Local\Temp\cccGTwC2.s 			page 122


 5032 12cf 4F535F45 		.ascii	"OS_ERR_TIME_GET_ISR\000"
 5032      52525F54 
 5032      494D455F 
 5032      4745545F 
 5032      49535200 
 5033              	.LASF244:
 5034 12e3 54696D65 		.ascii	"TimeQuanta\000"
 5034      5175616E 
 5034      746100
 5035              	.LASF167:
 5036 12ee 4F535F45 		.ascii	"OS_ERR_TIME_DLY_RESUME_ISR\000"
 5036      52525F54 
 5036      494D455F 
 5036      444C595F 
 5036      52455355 
 5037              	.LASF162:
 5038 1309 4F535F45 		.ascii	"OS_ERR_TICK_PRIO_INVALID\000"
 5038      52525F54 
 5038      49434B5F 
 5038      5052494F 
 5038      5F494E56 
 5039              	.LASF102:
 5040 1322 4F535F45 		.ascii	"OS_ERR_PRIO_EXIST\000"
 5040      52525F50 
 5040      52494F5F 
 5040      45584953 
 5040      5400
 5041              	.LASF205:
 5042 1334 6F735F6D 		.ascii	"os_msg_q\000"
 5042      73675F71 
 5042      00
 5043              	.LASF74:
 5044 133d 4F535F45 		.ascii	"OS_ERR_MEM_NO_FREE_BLKS\000"
 5044      52525F4D 
 5044      454D5F4E 
 5044      4F5F4652 
 5044      45455F42 
 5045              	.LASF15:
 5046 1355 4350555F 		.ascii	"CPU_STK\000"
 5046      53544B00 
 5047              		.ident	"GCC: (Sourcery G++ Lite 2010q1-188) 4.4.1"
