ARM GAS  C:\Users\daniel01\AppData\Local\Temp\cccGTwC2.s 			page 1


   1              		.syntax unified
   2              		.cpu cortex-m3
   3              		.fpu softvfp
   4              		.eabi_attribute 20, 1
   5              		.eabi_attribute 21, 1
   6              		.eabi_attribute 23, 3
   7              		.eabi_attribute 24, 1
   8              		.eabi_attribute 25, 1
   9              		.eabi_attribute 26, 1
  10              		.eabi_attribute 30, 6
  11              		.eabi_attribute 18, 4
  12              		.thumb
  13              		.file	"os_q.c"
  20 0000 AE020000 		.text
  20      0200D300 
  20      00000201 
  20      FB0E0D00 
  20      01010101 
  21              	.Ltext0:
  22              		.cfi_sections	.debug_frame
  23              		.section	.text.OSQCreate,"ax",%progbits
  24              		.align	2
  25              		.global	OSQCreate
  26              		.thumb
  27              		.thumb_func
  28              		.type	OSQCreate, %function
  29              	OSQCreate:
  30              	.LFB0:
  31              		.file 1 "C:\\Micrium\\Software\\uCOS-III\\Source\\os_q.c"
   1:C:\Micrium\Software\uCOS-III\Source\os_q.c **** /*
   2:C:\Micrium\Software\uCOS-III\Source\os_q.c **** ***************************************************************************************************
   3:C:\Micrium\Software\uCOS-III\Source\os_q.c **** *                                                      uC/OS-III
   4:C:\Micrium\Software\uCOS-III\Source\os_q.c **** *                                                 The Real-Time Kernel
   5:C:\Micrium\Software\uCOS-III\Source\os_q.c **** *
   6:C:\Micrium\Software\uCOS-III\Source\os_q.c **** *                                  (c) Copyright 2009-2012; Micrium, Inc.; Weston, FL
   7:C:\Micrium\Software\uCOS-III\Source\os_q.c **** *                           All rights reserved.  Protected by international copyright laws.
   8:C:\Micrium\Software\uCOS-III\Source\os_q.c **** *
   9:C:\Micrium\Software\uCOS-III\Source\os_q.c **** *                                               MESSAGE QUEUE MANAGEMENT
  10:C:\Micrium\Software\uCOS-III\Source\os_q.c **** *
  11:C:\Micrium\Software\uCOS-III\Source\os_q.c **** * File    : OS_Q.C
  12:C:\Micrium\Software\uCOS-III\Source\os_q.c **** * By      : JJL
  13:C:\Micrium\Software\uCOS-III\Source\os_q.c **** * Version : V3.03.01
  14:C:\Micrium\Software\uCOS-III\Source\os_q.c **** *
  15:C:\Micrium\Software\uCOS-III\Source\os_q.c **** * LICENSING TERMS:
  16:C:\Micrium\Software\uCOS-III\Source\os_q.c **** * ---------------
  17:C:\Micrium\Software\uCOS-III\Source\os_q.c **** *           uC/OS-III is provided in source form for FREE short-term evaluation, for educational us
  18:C:\Micrium\Software\uCOS-III\Source\os_q.c **** *           for peaceful research.  If you plan or intend to use uC/OS-III in a commercial applicat
  19:C:\Micrium\Software\uCOS-III\Source\os_q.c **** *           product then, you need to contact Micrium to properly license uC/OS-III for its use in 
  20:C:\Micrium\Software\uCOS-III\Source\os_q.c **** *           application/product.   We provide ALL the source code for your convenience and to help 
  21:C:\Micrium\Software\uCOS-III\Source\os_q.c **** *           experience uC/OS-III.  The fact that the source is provided does NOT mean that you can 
  22:C:\Micrium\Software\uCOS-III\Source\os_q.c **** *           it commercially without paying a licensing fee.
ARM GAS  C:\Users\daniel01\AppData\Local\Temp\cccGTwC2.s 			page 2


  23:C:\Micrium\Software\uCOS-III\Source\os_q.c **** *
  24:C:\Micrium\Software\uCOS-III\Source\os_q.c **** *           Knowledge of the source code may NOT be used to develop a similar product.
  25:C:\Micrium\Software\uCOS-III\Source\os_q.c **** *
  26:C:\Micrium\Software\uCOS-III\Source\os_q.c **** *           Please help us continue to provide the embedded community with the finest software avai
  27:C:\Micrium\Software\uCOS-III\Source\os_q.c **** *           Your honesty is greatly appreciated.
  28:C:\Micrium\Software\uCOS-III\Source\os_q.c **** *
  29:C:\Micrium\Software\uCOS-III\Source\os_q.c **** *           You can contact us at www.micrium.com, or by phone at +1 (954) 217-2036.
  30:C:\Micrium\Software\uCOS-III\Source\os_q.c **** ***************************************************************************************************
  31:C:\Micrium\Software\uCOS-III\Source\os_q.c **** */
  32:C:\Micrium\Software\uCOS-III\Source\os_q.c **** 
  33:C:\Micrium\Software\uCOS-III\Source\os_q.c **** #define  MICRIUM_SOURCE
  34:C:\Micrium\Software\uCOS-III\Source\os_q.c **** #include <os.h>
  35:C:\Micrium\Software\uCOS-III\Source\os_q.c **** 
  36:C:\Micrium\Software\uCOS-III\Source\os_q.c **** #ifdef VSC_INCLUDE_SOURCE_FILE_NAMES
  37:C:\Micrium\Software\uCOS-III\Source\os_q.c **** const  CPU_CHAR  *os_q__c = "$Id: $";
  38:C:\Micrium\Software\uCOS-III\Source\os_q.c **** #endif
  39:C:\Micrium\Software\uCOS-III\Source\os_q.c **** 
  40:C:\Micrium\Software\uCOS-III\Source\os_q.c **** 
  41:C:\Micrium\Software\uCOS-III\Source\os_q.c **** #if OS_CFG_Q_EN > 0u
  42:C:\Micrium\Software\uCOS-III\Source\os_q.c **** /*
  43:C:\Micrium\Software\uCOS-III\Source\os_q.c **** ***************************************************************************************************
  44:C:\Micrium\Software\uCOS-III\Source\os_q.c **** *                                               CREATE A MESSAGE QUEUE
  45:C:\Micrium\Software\uCOS-III\Source\os_q.c **** *
  46:C:\Micrium\Software\uCOS-III\Source\os_q.c **** * Description: This function is called by your application to create a message queue.  Message queu
  47:C:\Micrium\Software\uCOS-III\Source\os_q.c **** *              before they can be used.
  48:C:\Micrium\Software\uCOS-III\Source\os_q.c **** *
  49:C:\Micrium\Software\uCOS-III\Source\os_q.c **** * Arguments  : p_q         is a pointer to the message queue
  50:C:\Micrium\Software\uCOS-III\Source\os_q.c **** *
  51:C:\Micrium\Software\uCOS-III\Source\os_q.c **** *              p_name      is a pointer to an ASCII string that will be used to name the message qu
  52:C:\Micrium\Software\uCOS-III\Source\os_q.c **** *
  53:C:\Micrium\Software\uCOS-III\Source\os_q.c **** *              max_qty     indicates the maximum size of the message queue (must be non-zero).  Not
  54:C:\Micrium\Software\uCOS-III\Source\os_q.c **** *                          possible to have a size higher than the maximum number of OS_MSGs availa
  55:C:\Micrium\Software\uCOS-III\Source\os_q.c **** *
  56:C:\Micrium\Software\uCOS-III\Source\os_q.c **** *              p_err       is a pointer to a variable that will contain an error code returned by t
  57:C:\Micrium\Software\uCOS-III\Source\os_q.c **** *
  58:C:\Micrium\Software\uCOS-III\Source\os_q.c **** *                              OS_ERR_NONE                    the call was successful
  59:C:\Micrium\Software\uCOS-III\Source\os_q.c **** *                              OS_ERR_CREATE_ISR              can't create from an ISR
  60:C:\Micrium\Software\uCOS-III\Source\os_q.c **** *                              OS_ERR_ILLEGAL_CREATE_RUN_TIME if you are trying to create the Queue
  61:C:\Micrium\Software\uCOS-III\Source\os_q.c **** *                                                               OSSafetyCriticalStart().
  62:C:\Micrium\Software\uCOS-III\Source\os_q.c **** *                              OS_ERR_NAME                    if 'p_name' is a NULL pointer
  63:C:\Micrium\Software\uCOS-III\Source\os_q.c **** *                              OS_ERR_OBJ_CREATED             if the message queue has already been
  64:C:\Micrium\Software\uCOS-III\Source\os_q.c **** *                              OS_ERR_OBJ_PTR_NULL            if you passed a NULL pointer for 'p_q
  65:C:\Micrium\Software\uCOS-III\Source\os_q.c **** *                              OS_ERR_Q_SIZE                  if the size you specified is 0
  66:C:\Micrium\Software\uCOS-III\Source\os_q.c **** *
  67:C:\Micrium\Software\uCOS-III\Source\os_q.c **** * Returns    : none
  68:C:\Micrium\Software\uCOS-III\Source\os_q.c **** ***************************************************************************************************
  69:C:\Micrium\Software\uCOS-III\Source\os_q.c **** */
  70:C:\Micrium\Software\uCOS-III\Source\os_q.c **** 
  71:C:\Micrium\Software\uCOS-III\Source\os_q.c **** void  OSQCreate (OS_Q        *p_q,
  72:C:\Micrium\Software\uCOS-III\Source\os_q.c ****                  CPU_CHAR    *p_name,
  73:C:\Micrium\Software\uCOS-III\Source\os_q.c ****                  OS_MSG_QTY   max_qty,
  74:C:\Micrium\Software\uCOS-III\Source\os_q.c ****                  OS_ERR      *p_err)
  75:C:\Micrium\Software\uCOS-III\Source\os_q.c **** 
  76:C:\Micrium\Software\uCOS-III\Source\os_q.c **** {
  32              		.loc 1 76 0
  33              		.cfi_startproc
  34              		@ args = 0, pretend = 0, frame = 24
ARM GAS  C:\Users\daniel01\AppData\Local\Temp\cccGTwC2.s 			page 3


  35              		@ frame_needed = 1, uses_anonymous_args = 0
  36 0000 80B5     		push	{r7, lr}
  37              	.LCFI0:
  38              		.cfi_def_cfa_offset 8
  39 0002 86B0     		sub	sp, sp, #24
  40              	.LCFI1:
  41              		.cfi_def_cfa_offset 32
  42 0004 00AF     		add	r7, sp, #0
  43              		.cfi_offset 14, -4
  44              		.cfi_offset 7, -8
  45              	.LCFI2:
  46              		.cfi_def_cfa_register 7
  47 0006 F860     		str	r0, [r7, #12]
  48 0008 B960     		str	r1, [r7, #8]
  49 000a 3B60     		str	r3, [r7, #0]
  50 000c 1346     		mov	r3, r2	@ movhi
  51 000e FB80     		strh	r3, [r7, #6]	@ movhi
  77:C:\Micrium\Software\uCOS-III\Source\os_q.c ****     CPU_SR_ALLOC();
  52              		.loc 1 77 0
  53 0010 4FF00003 		mov	r3, #0
  54 0014 7B61     		str	r3, [r7, #20]
  78:C:\Micrium\Software\uCOS-III\Source\os_q.c **** 
  79:C:\Micrium\Software\uCOS-III\Source\os_q.c **** 
  80:C:\Micrium\Software\uCOS-III\Source\os_q.c **** 
  81:C:\Micrium\Software\uCOS-III\Source\os_q.c **** #ifdef OS_SAFETY_CRITICAL
  82:C:\Micrium\Software\uCOS-III\Source\os_q.c ****     if (p_err == (OS_ERR *)0) {
  83:C:\Micrium\Software\uCOS-III\Source\os_q.c ****         OS_SAFETY_CRITICAL_EXCEPTION();
  84:C:\Micrium\Software\uCOS-III\Source\os_q.c ****         return;
  85:C:\Micrium\Software\uCOS-III\Source\os_q.c ****     }
  86:C:\Micrium\Software\uCOS-III\Source\os_q.c **** #endif
  87:C:\Micrium\Software\uCOS-III\Source\os_q.c **** 
  88:C:\Micrium\Software\uCOS-III\Source\os_q.c **** #ifdef OS_SAFETY_CRITICAL_IEC61508
  89:C:\Micrium\Software\uCOS-III\Source\os_q.c ****     if (OSSafetyCriticalStartFlag == DEF_TRUE) {
  90:C:\Micrium\Software\uCOS-III\Source\os_q.c ****        *p_err = OS_ERR_ILLEGAL_CREATE_RUN_TIME;
  91:C:\Micrium\Software\uCOS-III\Source\os_q.c ****         return;
  92:C:\Micrium\Software\uCOS-III\Source\os_q.c ****     }
  93:C:\Micrium\Software\uCOS-III\Source\os_q.c **** #endif
  94:C:\Micrium\Software\uCOS-III\Source\os_q.c **** 
  95:C:\Micrium\Software\uCOS-III\Source\os_q.c **** #if OS_CFG_CALLED_FROM_ISR_CHK_EN > 0u
  96:C:\Micrium\Software\uCOS-III\Source\os_q.c ****     if (OSIntNestingCtr > (OS_NESTING_CTR)0) {              /* Not allowed to be called from an ISR
  55              		.loc 1 96 0
  56 0016 40F20003 		movw	r3, #:lower16:OSIntNestingCtr
  57 001a C0F20003 		movt	r3, #:upper16:OSIntNestingCtr
  58 001e 1B78     		ldrb	r3, [r3, #0]	@ zero_extendqisi2
  59 0020 002B     		cmp	r3, #0
  60 0022 04D0     		beq	.L2
  97:C:\Micrium\Software\uCOS-III\Source\os_q.c ****        *p_err = OS_ERR_CREATE_ISR;
  61              		.loc 1 97 0
  62 0024 3B68     		ldr	r3, [r7, #0]
  63 0026 42F6E162 		movw	r2, #12001
  64 002a 1A80     		strh	r2, [r3, #0]	@ movhi
  98:C:\Micrium\Software\uCOS-III\Source\os_q.c ****         return;
  65              		.loc 1 98 0
  66 002c 41E0     		b	.L6
  67              	.L2:
  99:C:\Micrium\Software\uCOS-III\Source\os_q.c ****     }
 100:C:\Micrium\Software\uCOS-III\Source\os_q.c **** #endif
ARM GAS  C:\Users\daniel01\AppData\Local\Temp\cccGTwC2.s 			page 4


 101:C:\Micrium\Software\uCOS-III\Source\os_q.c **** 
 102:C:\Micrium\Software\uCOS-III\Source\os_q.c **** #if OS_CFG_ARG_CHK_EN > 0u
 103:C:\Micrium\Software\uCOS-III\Source\os_q.c ****     if (p_q == (OS_Q *)0) {                                 /* Validate arguments                  
  68              		.loc 1 103 0
  69 002e FB68     		ldr	r3, [r7, #12]
  70 0030 002B     		cmp	r3, #0
  71 0032 04D1     		bne	.L4
 104:C:\Micrium\Software\uCOS-III\Source\os_q.c ****        *p_err = OS_ERR_OBJ_PTR_NULL;
  72              		.loc 1 104 0
  73 0034 3B68     		ldr	r3, [r7, #0]
  74 0036 45F6C352 		movw	r2, #24003
  75 003a 1A80     		strh	r2, [r3, #0]	@ movhi
 105:C:\Micrium\Software\uCOS-III\Source\os_q.c ****         return;
  76              		.loc 1 105 0
  77 003c 39E0     		b	.L6
  78              	.L4:
 106:C:\Micrium\Software\uCOS-III\Source\os_q.c ****     }
 107:C:\Micrium\Software\uCOS-III\Source\os_q.c ****     if (max_qty == (OS_MSG_QTY)0) {                         /* Cannot specify a zero size queue    
  79              		.loc 1 107 0
  80 003e FB88     		ldrh	r3, [r7, #6]
  81 0040 002B     		cmp	r3, #0
  82 0042 04D1     		bne	.L5
 108:C:\Micrium\Software\uCOS-III\Source\os_q.c ****        *p_err = OS_ERR_Q_SIZE;
  83              		.loc 1 108 0
  84 0044 3B68     		ldr	r3, [r7, #0]
  85 0046 46F29452 		movw	r2, #26004
  86 004a 1A80     		strh	r2, [r3, #0]	@ movhi
 109:C:\Micrium\Software\uCOS-III\Source\os_q.c ****         return;
  87              		.loc 1 109 0
  88 004c 31E0     		b	.L6
  89              	.L5:
 110:C:\Micrium\Software\uCOS-III\Source\os_q.c ****     }
 111:C:\Micrium\Software\uCOS-III\Source\os_q.c **** #endif
 112:C:\Micrium\Software\uCOS-III\Source\os_q.c **** 
 113:C:\Micrium\Software\uCOS-III\Source\os_q.c ****     OS_CRITICAL_ENTER();
  90              		.loc 1 113 0
  91 004e FFF7FEFF 		bl	CPU_SR_Save
  92 0052 0346     		mov	r3, r0
  93 0054 7B61     		str	r3, [r7, #20]
 114:C:\Micrium\Software\uCOS-III\Source\os_q.c ****     p_q->Type    = OS_OBJ_TYPE_Q;                           /* Mark the data structure as a message
  94              		.loc 1 114 0
  95 0056 FA68     		ldr	r2, [r7, #12]
  96 0058 45F25153 		movw	r3, #:lower16:1430607185
  97 005c C5F24553 		movt	r3, #:upper16:1430607185
  98 0060 1360     		str	r3, [r2, #0]
 115:C:\Micrium\Software\uCOS-III\Source\os_q.c ****     p_q->NamePtr = p_name;
  99              		.loc 1 115 0
 100 0062 FB68     		ldr	r3, [r7, #12]
 101 0064 BA68     		ldr	r2, [r7, #8]
 102 0066 5A60     		str	r2, [r3, #4]
 116:C:\Micrium\Software\uCOS-III\Source\os_q.c ****     OS_MsgQInit(&p_q->MsgQ,                                 /* Initialize the queue                
 103              		.loc 1 116 0
 104 0068 FB68     		ldr	r3, [r7, #12]
 105 006a 03F12002 		add	r2, r3, #32
 106 006e FB88     		ldrh	r3, [r7, #6]
 107 0070 1046     		mov	r0, r2
 108 0072 1946     		mov	r1, r3
ARM GAS  C:\Users\daniel01\AppData\Local\Temp\cccGTwC2.s 			page 5


 109 0074 FFF7FEFF 		bl	OS_MsgQInit
 117:C:\Micrium\Software\uCOS-III\Source\os_q.c ****                 max_qty);
 118:C:\Micrium\Software\uCOS-III\Source\os_q.c ****     OS_PendListInit(&p_q->PendList);                        /* Initialize the waiting list         
 110              		.loc 1 118 0
 111 0078 FB68     		ldr	r3, [r7, #12]
 112 007a 03F10803 		add	r3, r3, #8
 113 007e 1846     		mov	r0, r3
 114 0080 FFF7FEFF 		bl	OS_PendListInit
 119:C:\Micrium\Software\uCOS-III\Source\os_q.c **** 
 120:C:\Micrium\Software\uCOS-III\Source\os_q.c **** #if OS_CFG_DBG_EN > 0u
 121:C:\Micrium\Software\uCOS-III\Source\os_q.c ****     OS_QDbgListAdd(p_q);
 115              		.loc 1 121 0
 116 0084 F868     		ldr	r0, [r7, #12]
 117 0086 FFF7FEFF 		bl	OS_QDbgListAdd
 122:C:\Micrium\Software\uCOS-III\Source\os_q.c **** #endif
 123:C:\Micrium\Software\uCOS-III\Source\os_q.c ****     OSQQty++;                                               /* One more queue created              
 118              		.loc 1 123 0
 119 008a 40F20003 		movw	r3, #:lower16:OSQQty
 120 008e C0F20003 		movt	r3, #:upper16:OSQQty
 121 0092 1B88     		ldrh	r3, [r3, #0]
 122 0094 03F10103 		add	r3, r3, #1
 123 0098 9AB2     		uxth	r2, r3
 124 009a 40F20003 		movw	r3, #:lower16:OSQQty
 125 009e C0F20003 		movt	r3, #:upper16:OSQQty
 126 00a2 1A80     		strh	r2, [r3, #0]	@ movhi
 124:C:\Micrium\Software\uCOS-III\Source\os_q.c **** 
 125:C:\Micrium\Software\uCOS-III\Source\os_q.c ****     OS_CRITICAL_EXIT_NO_SCHED();
 127              		.loc 1 125 0
 128 00a4 7869     		ldr	r0, [r7, #20]
 129 00a6 FFF7FEFF 		bl	CPU_SR_Restore
 126:C:\Micrium\Software\uCOS-III\Source\os_q.c ****    *p_err = OS_ERR_NONE;
 130              		.loc 1 126 0
 131 00aa 3B68     		ldr	r3, [r7, #0]
 132 00ac 4FF00002 		mov	r2, #0
 133 00b0 1A80     		strh	r2, [r3, #0]	@ movhi
 134              	.L6:
 127:C:\Micrium\Software\uCOS-III\Source\os_q.c **** }
 135              		.loc 1 127 0
 136 00b2 07F11807 		add	r7, r7, #24
 137 00b6 BD46     		mov	sp, r7
 138 00b8 80BD     		pop	{r7, pc}
 139              		.cfi_endproc
 140              	.LFE0:
 141              		.size	OSQCreate, .-OSQCreate
 142 00ba 00BF     		.section	.text.OSQDel,"ax",%progbits
 143              		.align	2
 144              		.global	OSQDel
 145              		.thumb
 146              		.thumb_func
 147              		.type	OSQDel, %function
 148              	OSQDel:
 149              	.LFB1:
 128:C:\Micrium\Software\uCOS-III\Source\os_q.c **** 
 129:C:\Micrium\Software\uCOS-III\Source\os_q.c **** /*$PAGE*/
 130:C:\Micrium\Software\uCOS-III\Source\os_q.c **** /*
 131:C:\Micrium\Software\uCOS-III\Source\os_q.c **** ***************************************************************************************************
 132:C:\Micrium\Software\uCOS-III\Source\os_q.c **** *                                               DELETE A MESSAGE QUEUE
ARM GAS  C:\Users\daniel01\AppData\Local\Temp\cccGTwC2.s 			page 6


 133:C:\Micrium\Software\uCOS-III\Source\os_q.c **** *
 134:C:\Micrium\Software\uCOS-III\Source\os_q.c **** * Description: This function deletes a message queue and readies all tasks pending on the queue.
 135:C:\Micrium\Software\uCOS-III\Source\os_q.c **** *
 136:C:\Micrium\Software\uCOS-III\Source\os_q.c **** * Arguments  : p_q       is a pointer to the message queue you want to delete
 137:C:\Micrium\Software\uCOS-III\Source\os_q.c **** *
 138:C:\Micrium\Software\uCOS-III\Source\os_q.c **** *              opt       determines delete options as follows:
 139:C:\Micrium\Software\uCOS-III\Source\os_q.c **** *
 140:C:\Micrium\Software\uCOS-III\Source\os_q.c **** *                            OS_OPT_DEL_NO_PEND          Delete the queue ONLY if no task pending
 141:C:\Micrium\Software\uCOS-III\Source\os_q.c **** *                            OS_OPT_DEL_ALWAYS           Deletes the queue even if tasks are waitin
 142:C:\Micrium\Software\uCOS-III\Source\os_q.c **** *                                                        In this case, all the tasks pending will b
 143:C:\Micrium\Software\uCOS-III\Source\os_q.c **** *
 144:C:\Micrium\Software\uCOS-III\Source\os_q.c **** *              p_err     is a pointer to a variable that will contain an error code returned by thi
 145:C:\Micrium\Software\uCOS-III\Source\os_q.c **** *
 146:C:\Micrium\Software\uCOS-III\Source\os_q.c **** *                            OS_ERR_NONE                 The call was successful and the queue was 
 147:C:\Micrium\Software\uCOS-III\Source\os_q.c **** *                            OS_ERR_DEL_ISR              If you tried to delete the queue from an I
 148:C:\Micrium\Software\uCOS-III\Source\os_q.c **** *                            OS_ERR_OBJ_PTR_NULL         if you pass a NULL pointer for 'p_q'
 149:C:\Micrium\Software\uCOS-III\Source\os_q.c **** *                            OS_ERR_OBJ_TYPE             if the message queue was not created
 150:C:\Micrium\Software\uCOS-III\Source\os_q.c **** *                            OS_ERR_OPT_INVALID          An invalid option was specified
 151:C:\Micrium\Software\uCOS-III\Source\os_q.c **** *                            OS_ERR_TASK_WAITING         One or more tasks were waiting on the queu
 152:C:\Micrium\Software\uCOS-III\Source\os_q.c **** *
 153:C:\Micrium\Software\uCOS-III\Source\os_q.c **** * Returns    : == 0          if no tasks were waiting on the queue, or upon error.
 154:C:\Micrium\Software\uCOS-III\Source\os_q.c **** *              >  0          if one or more tasks waiting on the queue are now readied and informed
 155:C:\Micrium\Software\uCOS-III\Source\os_q.c **** *
 156:C:\Micrium\Software\uCOS-III\Source\os_q.c **** * Note(s)    : 1) This function must be used with care.  Tasks that would normally expect the prese
 157:C:\Micrium\Software\uCOS-III\Source\os_q.c **** *                 check the return code of OSQPend().
 158:C:\Micrium\Software\uCOS-III\Source\os_q.c **** *
 159:C:\Micrium\Software\uCOS-III\Source\os_q.c **** *              2) OSQAccept() callers will not know that the intended queue has been deleted.
 160:C:\Micrium\Software\uCOS-III\Source\os_q.c **** *
 161:C:\Micrium\Software\uCOS-III\Source\os_q.c **** *              3) Because ALL tasks pending on the queue will be readied, you MUST be careful in ap
 162:C:\Micrium\Software\uCOS-III\Source\os_q.c **** *                 queue is used for mutual exclusion because the resource(s) will no longer be guar
 163:C:\Micrium\Software\uCOS-III\Source\os_q.c **** ***************************************************************************************************
 164:C:\Micrium\Software\uCOS-III\Source\os_q.c **** */
 165:C:\Micrium\Software\uCOS-III\Source\os_q.c **** 
 166:C:\Micrium\Software\uCOS-III\Source\os_q.c **** #if OS_CFG_Q_DEL_EN > 0u
 167:C:\Micrium\Software\uCOS-III\Source\os_q.c **** OS_OBJ_QTY  OSQDel (OS_Q    *p_q,
 168:C:\Micrium\Software\uCOS-III\Source\os_q.c ****                     OS_OPT   opt,
 169:C:\Micrium\Software\uCOS-III\Source\os_q.c ****                     OS_ERR  *p_err)
 170:C:\Micrium\Software\uCOS-III\Source\os_q.c **** {
 150              		.loc 1 170 0
 151              		.cfi_startproc
 152              		@ args = 0, pretend = 0, frame = 40
 153              		@ frame_needed = 1, uses_anonymous_args = 0
 154 0000 80B5     		push	{r7, lr}
 155              	.LCFI3:
 156              		.cfi_def_cfa_offset 8
 157 0002 8AB0     		sub	sp, sp, #40
 158              	.LCFI4:
 159              		.cfi_def_cfa_offset 48
 160 0004 00AF     		add	r7, sp, #0
 161              		.cfi_offset 14, -4
 162              		.cfi_offset 7, -8
 163              	.LCFI5:
 164              		.cfi_def_cfa_register 7
 165 0006 F860     		str	r0, [r7, #12]
 166 0008 0B46     		mov	r3, r1
 167 000a 7A60     		str	r2, [r7, #4]
 168 000c 7B81     		strh	r3, [r7, #10]	@ movhi
ARM GAS  C:\Users\daniel01\AppData\Local\Temp\cccGTwC2.s 			page 7


 171:C:\Micrium\Software\uCOS-III\Source\os_q.c ****     OS_OBJ_QTY     cnt;
 172:C:\Micrium\Software\uCOS-III\Source\os_q.c ****     OS_OBJ_QTY     nbr_tasks;
 173:C:\Micrium\Software\uCOS-III\Source\os_q.c ****     OS_PEND_DATA  *p_pend_data;
 174:C:\Micrium\Software\uCOS-III\Source\os_q.c ****     OS_PEND_LIST  *p_pend_list;
 175:C:\Micrium\Software\uCOS-III\Source\os_q.c ****     OS_TCB        *p_tcb;
 176:C:\Micrium\Software\uCOS-III\Source\os_q.c ****     CPU_TS         ts;
 177:C:\Micrium\Software\uCOS-III\Source\os_q.c ****     CPU_SR_ALLOC();
 169              		.loc 1 177 0
 170 000e 4FF00003 		mov	r3, #0
 171 0012 7B62     		str	r3, [r7, #36]
 178:C:\Micrium\Software\uCOS-III\Source\os_q.c **** 
 179:C:\Micrium\Software\uCOS-III\Source\os_q.c **** 
 180:C:\Micrium\Software\uCOS-III\Source\os_q.c **** 
 181:C:\Micrium\Software\uCOS-III\Source\os_q.c **** #ifdef OS_SAFETY_CRITICAL
 182:C:\Micrium\Software\uCOS-III\Source\os_q.c ****     if (p_err == (OS_ERR *)0) {
 183:C:\Micrium\Software\uCOS-III\Source\os_q.c ****         OS_SAFETY_CRITICAL_EXCEPTION();
 184:C:\Micrium\Software\uCOS-III\Source\os_q.c ****         return ((OS_OBJ_QTY)0);
 185:C:\Micrium\Software\uCOS-III\Source\os_q.c ****     }
 186:C:\Micrium\Software\uCOS-III\Source\os_q.c **** #endif
 187:C:\Micrium\Software\uCOS-III\Source\os_q.c **** 
 188:C:\Micrium\Software\uCOS-III\Source\os_q.c **** #if OS_CFG_CALLED_FROM_ISR_CHK_EN > 0u
 189:C:\Micrium\Software\uCOS-III\Source\os_q.c ****     if (OSIntNestingCtr > (OS_NESTING_CTR)0) {              /* Can't delete a message queue from an
 172              		.loc 1 189 0
 173 0014 40F20003 		movw	r3, #:lower16:OSIntNestingCtr
 174 0018 C0F20003 		movt	r3, #:upper16:OSIntNestingCtr
 175 001c 1B78     		ldrb	r3, [r3, #0]	@ zero_extendqisi2
 176 001e 002B     		cmp	r3, #0
 177 0020 06D0     		beq	.L8
 190:C:\Micrium\Software\uCOS-III\Source\os_q.c ****        *p_err = OS_ERR_DEL_ISR;
 178              		.loc 1 190 0
 179 0022 7B68     		ldr	r3, [r7, #4]
 180 0024 43F2C922 		movw	r2, #13001
 181 0028 1A80     		strh	r2, [r3, #0]	@ movhi
 191:C:\Micrium\Software\uCOS-III\Source\os_q.c ****         return ((OS_OBJ_QTY)0);
 182              		.loc 1 191 0
 183 002a 4FF00003 		mov	r3, #0
 184 002e 8BE0     		b	.L9
 185              	.L8:
 192:C:\Micrium\Software\uCOS-III\Source\os_q.c ****     }
 193:C:\Micrium\Software\uCOS-III\Source\os_q.c **** #endif
 194:C:\Micrium\Software\uCOS-III\Source\os_q.c **** 
 195:C:\Micrium\Software\uCOS-III\Source\os_q.c **** #if OS_CFG_ARG_CHK_EN > 0u
 196:C:\Micrium\Software\uCOS-III\Source\os_q.c ****     if (p_q == (OS_Q *)0) {                                 /* Validate 'p_q'                      
 186              		.loc 1 196 0
 187 0030 FB68     		ldr	r3, [r7, #12]
 188 0032 002B     		cmp	r3, #0
 189 0034 06D1     		bne	.L10
 197:C:\Micrium\Software\uCOS-III\Source\os_q.c ****        *p_err =  OS_ERR_OBJ_PTR_NULL;
 190              		.loc 1 197 0
 191 0036 7B68     		ldr	r3, [r7, #4]
 192 0038 45F6C352 		movw	r2, #24003
 193 003c 1A80     		strh	r2, [r3, #0]	@ movhi
 198:C:\Micrium\Software\uCOS-III\Source\os_q.c ****         return ((OS_OBJ_QTY)0u);
 194              		.loc 1 198 0
 195 003e 4FF00003 		mov	r3, #0
 196 0042 81E0     		b	.L9
 197              	.L10:
ARM GAS  C:\Users\daniel01\AppData\Local\Temp\cccGTwC2.s 			page 8


 199:C:\Micrium\Software\uCOS-III\Source\os_q.c ****     }
 200:C:\Micrium\Software\uCOS-III\Source\os_q.c ****     switch (opt) {                                          /* Validate 'opt'                      
 198              		.loc 1 200 0
 199 0044 7B89     		ldrh	r3, [r7, #10]
 200 0046 03F10003 		add	r3, r3, #0
 201 004a 012B     		cmp	r3, #1
 202 004c 12D8     		bhi	.L11
 201:C:\Micrium\Software\uCOS-III\Source\os_q.c ****         case OS_OPT_DEL_NO_PEND:
 202:C:\Micrium\Software\uCOS-III\Source\os_q.c ****         case OS_OPT_DEL_ALWAYS:
 203:C:\Micrium\Software\uCOS-III\Source\os_q.c ****              break;
 204:C:\Micrium\Software\uCOS-III\Source\os_q.c **** 
 205:C:\Micrium\Software\uCOS-III\Source\os_q.c ****         default:
 206:C:\Micrium\Software\uCOS-III\Source\os_q.c ****             *p_err =  OS_ERR_OPT_INVALID;
 207:C:\Micrium\Software\uCOS-III\Source\os_q.c ****              return ((OS_OBJ_QTY)0u);
 208:C:\Micrium\Software\uCOS-III\Source\os_q.c ****     }
 209:C:\Micrium\Software\uCOS-III\Source\os_q.c **** #endif
 210:C:\Micrium\Software\uCOS-III\Source\os_q.c **** 
 211:C:\Micrium\Software\uCOS-III\Source\os_q.c **** #if OS_CFG_OBJ_TYPE_CHK_EN > 0u
 212:C:\Micrium\Software\uCOS-III\Source\os_q.c ****     if (p_q->Type != OS_OBJ_TYPE_Q) {                       /* Make sure message queue was created 
 213:C:\Micrium\Software\uCOS-III\Source\os_q.c ****        *p_err = OS_ERR_OBJ_TYPE;
 214:C:\Micrium\Software\uCOS-III\Source\os_q.c ****         return ((OS_OBJ_QTY)0);
 215:C:\Micrium\Software\uCOS-III\Source\os_q.c ****     }
 216:C:\Micrium\Software\uCOS-III\Source\os_q.c **** #endif
 217:C:\Micrium\Software\uCOS-III\Source\os_q.c **** 
 218:C:\Micrium\Software\uCOS-III\Source\os_q.c ****     CPU_CRITICAL_ENTER();
 203              		.loc 1 218 0
 204 004e FFF7FEFF 		bl	CPU_SR_Save
 205 0052 0346     		mov	r3, r0
 206 0054 7B62     		str	r3, [r7, #36]
 219:C:\Micrium\Software\uCOS-III\Source\os_q.c ****     p_pend_list = &p_q->PendList;
 207              		.loc 1 219 0
 208 0056 FB68     		ldr	r3, [r7, #12]
 209 0058 03F10803 		add	r3, r3, #8
 210 005c BB61     		str	r3, [r7, #24]
 220:C:\Micrium\Software\uCOS-III\Source\os_q.c ****     cnt         = p_pend_list->NbrEntries;
 211              		.loc 1 220 0
 212 005e BB69     		ldr	r3, [r7, #24]
 213 0060 1B89     		ldrh	r3, [r3, #8]	@ movhi
 214 0062 3B82     		strh	r3, [r7, #16]	@ movhi
 221:C:\Micrium\Software\uCOS-III\Source\os_q.c ****     nbr_tasks   = cnt;
 215              		.loc 1 221 0
 216 0064 3B8A     		ldrh	r3, [r7, #16]	@ movhi
 217 0066 7B82     		strh	r3, [r7, #18]	@ movhi
 222:C:\Micrium\Software\uCOS-III\Source\os_q.c ****     switch (opt) {
 218              		.loc 1 222 0
 219 0068 7B89     		ldrh	r3, [r7, #10]
 220 006a 002B     		cmp	r3, #0
 221 006c 09D0     		beq	.L14
 222 006e 012B     		cmp	r3, #1
 223 0070 2DD0     		beq	.L15
 224 0072 61E0     		b	.L22
 225              	.L11:
 226              		.loc 1 206 0
 227 0074 7B68     		ldr	r3, [r7, #4]
 228 0076 45F62562 		movw	r2, #24101
 229 007a 1A80     		strh	r2, [r3, #0]	@ movhi
 230              		.loc 1 207 0
ARM GAS  C:\Users\daniel01\AppData\Local\Temp\cccGTwC2.s 			page 9


 231 007c 4FF00003 		mov	r3, #0
 232 0080 62E0     		b	.L9
 233              	.L14:
 223:C:\Micrium\Software\uCOS-III\Source\os_q.c ****         case OS_OPT_DEL_NO_PEND:                            /* Delete message queue only if no task
 224:C:\Micrium\Software\uCOS-III\Source\os_q.c ****              if (nbr_tasks == (OS_OBJ_QTY)0) {
 234              		.loc 1 224 0
 235 0082 7B8A     		ldrh	r3, [r7, #18]
 236 0084 002B     		cmp	r3, #0
 237 0086 1AD1     		bne	.L16
 225:C:\Micrium\Software\uCOS-III\Source\os_q.c **** #if OS_CFG_DBG_EN > 0u
 226:C:\Micrium\Software\uCOS-III\Source\os_q.c ****                  OS_QDbgListRemove(p_q);
 238              		.loc 1 226 0
 239 0088 F868     		ldr	r0, [r7, #12]
 240 008a FFF7FEFF 		bl	OS_QDbgListRemove
 227:C:\Micrium\Software\uCOS-III\Source\os_q.c **** #endif
 228:C:\Micrium\Software\uCOS-III\Source\os_q.c ****                  OSQQty--;
 241              		.loc 1 228 0
 242 008e 40F20003 		movw	r3, #:lower16:OSQQty
 243 0092 C0F20003 		movt	r3, #:upper16:OSQQty
 244 0096 1B88     		ldrh	r3, [r3, #0]
 245 0098 03F1FF33 		add	r3, r3, #-1
 246 009c 9AB2     		uxth	r2, r3
 247 009e 40F20003 		movw	r3, #:lower16:OSQQty
 248 00a2 C0F20003 		movt	r3, #:upper16:OSQQty
 249 00a6 1A80     		strh	r2, [r3, #0]	@ movhi
 229:C:\Micrium\Software\uCOS-III\Source\os_q.c ****                  OS_QClr(p_q);
 250              		.loc 1 229 0
 251 00a8 F868     		ldr	r0, [r7, #12]
 252 00aa FFF7FEFF 		bl	OS_QClr
 230:C:\Micrium\Software\uCOS-III\Source\os_q.c ****                  CPU_CRITICAL_EXIT();
 253              		.loc 1 230 0
 254 00ae 786A     		ldr	r0, [r7, #36]
 255 00b0 FFF7FEFF 		bl	CPU_SR_Restore
 231:C:\Micrium\Software\uCOS-III\Source\os_q.c ****                 *p_err = OS_ERR_NONE;
 256              		.loc 1 231 0
 257 00b4 7B68     		ldr	r3, [r7, #4]
 258 00b6 4FF00002 		mov	r2, #0
 259 00ba 1A80     		strh	r2, [r3, #0]	@ movhi
 232:C:\Micrium\Software\uCOS-III\Source\os_q.c ****              } else {
 233:C:\Micrium\Software\uCOS-III\Source\os_q.c ****                  CPU_CRITICAL_EXIT();
 234:C:\Micrium\Software\uCOS-III\Source\os_q.c ****                 *p_err = OS_ERR_TASK_WAITING;
 235:C:\Micrium\Software\uCOS-III\Source\os_q.c ****              }
 236:C:\Micrium\Software\uCOS-III\Source\os_q.c ****              break;
 260              		.loc 1 236 0
 261 00bc 43E0     		b	.L18
 262              	.L16:
 263              		.loc 1 233 0
 264 00be 786A     		ldr	r0, [r7, #36]
 265 00c0 FFF7FEFF 		bl	CPU_SR_Restore
 266              		.loc 1 234 0
 267 00c4 7B68     		ldr	r3, [r7, #4]
 268 00c6 47F25F12 		movw	r2, #29023
 269 00ca 1A80     		strh	r2, [r3, #0]	@ movhi
 270              		.loc 1 236 0
 271 00cc 3BE0     		b	.L18
 272              	.L15:
 237:C:\Micrium\Software\uCOS-III\Source\os_q.c **** 
ARM GAS  C:\Users\daniel01\AppData\Local\Temp\cccGTwC2.s 			page 10


 238:C:\Micrium\Software\uCOS-III\Source\os_q.c ****         case OS_OPT_DEL_ALWAYS:                             /* Always delete the message queue     
 239:C:\Micrium\Software\uCOS-III\Source\os_q.c ****              OS_CRITICAL_ENTER_CPU_EXIT();
 240:C:\Micrium\Software\uCOS-III\Source\os_q.c ****              ts = OS_TS_GET();                              /* Get local time stamp so all tasks ge
 273              		.loc 1 240 0
 274 00ce FFF7FEFF 		bl	CPU_TS_TmrRd
 275 00d2 0346     		mov	r3, r0
 276 00d4 3B62     		str	r3, [r7, #32]
 241:C:\Micrium\Software\uCOS-III\Source\os_q.c ****              while (cnt > 0u) {                             /* Remove all tasks from the pend list 
 277              		.loc 1 241 0
 278 00d6 0FE0     		b	.L19
 279              	.L20:
 242:C:\Micrium\Software\uCOS-III\Source\os_q.c ****                  p_pend_data = p_pend_list->HeadPtr;
 280              		.loc 1 242 0
 281 00d8 BB69     		ldr	r3, [r7, #24]
 282 00da 1B68     		ldr	r3, [r3, #0]
 283 00dc 7B61     		str	r3, [r7, #20]
 243:C:\Micrium\Software\uCOS-III\Source\os_q.c ****                  p_tcb       = p_pend_data->TCBPtr;
 284              		.loc 1 243 0
 285 00de 7B69     		ldr	r3, [r7, #20]
 286 00e0 9B68     		ldr	r3, [r3, #8]
 287 00e2 FB61     		str	r3, [r7, #28]
 244:C:\Micrium\Software\uCOS-III\Source\os_q.c ****                  OS_PendObjDel((OS_PEND_OBJ *)((void *)p_q),
 288              		.loc 1 244 0
 289 00e4 FB68     		ldr	r3, [r7, #12]
 290 00e6 1846     		mov	r0, r3
 291 00e8 F969     		ldr	r1, [r7, #28]
 292 00ea 3A6A     		ldr	r2, [r7, #32]
 293 00ec FFF7FEFF 		bl	OS_PendObjDel
 245:C:\Micrium\Software\uCOS-III\Source\os_q.c ****                                p_tcb,
 246:C:\Micrium\Software\uCOS-III\Source\os_q.c ****                                ts);
 247:C:\Micrium\Software\uCOS-III\Source\os_q.c ****                  cnt--;
 294              		.loc 1 247 0
 295 00f0 3B8A     		ldrh	r3, [r7, #16]	@ movhi
 296 00f2 03F1FF33 		add	r3, r3, #-1
 297 00f6 3B82     		strh	r3, [r7, #16]	@ movhi
 298              	.L19:
 299              		.loc 1 241 0
 300 00f8 3B8A     		ldrh	r3, [r7, #16]
 301 00fa 002B     		cmp	r3, #0
 302 00fc ECD1     		bne	.L20
 248:C:\Micrium\Software\uCOS-III\Source\os_q.c ****              }
 249:C:\Micrium\Software\uCOS-III\Source\os_q.c **** #if OS_CFG_DBG_EN > 0u
 250:C:\Micrium\Software\uCOS-III\Source\os_q.c ****              OS_QDbgListRemove(p_q);
 303              		.loc 1 250 0
 304 00fe F868     		ldr	r0, [r7, #12]
 305 0100 FFF7FEFF 		bl	OS_QDbgListRemove
 251:C:\Micrium\Software\uCOS-III\Source\os_q.c **** #endif
 252:C:\Micrium\Software\uCOS-III\Source\os_q.c ****              OSQQty--;
 306              		.loc 1 252 0
 307 0104 40F20003 		movw	r3, #:lower16:OSQQty
 308 0108 C0F20003 		movt	r3, #:upper16:OSQQty
 309 010c 1B88     		ldrh	r3, [r3, #0]
 310 010e 03F1FF33 		add	r3, r3, #-1
 311 0112 9AB2     		uxth	r2, r3
 312 0114 40F20003 		movw	r3, #:lower16:OSQQty
 313 0118 C0F20003 		movt	r3, #:upper16:OSQQty
 314 011c 1A80     		strh	r2, [r3, #0]	@ movhi
ARM GAS  C:\Users\daniel01\AppData\Local\Temp\cccGTwC2.s 			page 11


 253:C:\Micrium\Software\uCOS-III\Source\os_q.c ****              OS_QClr(p_q);
 315              		.loc 1 253 0
 316 011e F868     		ldr	r0, [r7, #12]
 317 0120 FFF7FEFF 		bl	OS_QClr
 254:C:\Micrium\Software\uCOS-III\Source\os_q.c ****              OS_CRITICAL_EXIT_NO_SCHED();
 318              		.loc 1 254 0
 319 0124 786A     		ldr	r0, [r7, #36]
 320 0126 FFF7FEFF 		bl	CPU_SR_Restore
 255:C:\Micrium\Software\uCOS-III\Source\os_q.c ****              OSSched();                                     /* Find highest priority task ready to 
 321              		.loc 1 255 0
 322 012a FFF7FEFF 		bl	OSSched
 256:C:\Micrium\Software\uCOS-III\Source\os_q.c ****             *p_err = OS_ERR_NONE;
 323              		.loc 1 256 0
 324 012e 7B68     		ldr	r3, [r7, #4]
 325 0130 4FF00002 		mov	r2, #0
 326 0134 1A80     		strh	r2, [r3, #0]	@ movhi
 257:C:\Micrium\Software\uCOS-III\Source\os_q.c ****              break;
 327              		.loc 1 257 0
 328 0136 06E0     		b	.L18
 329              	.L22:
 258:C:\Micrium\Software\uCOS-III\Source\os_q.c **** 
 259:C:\Micrium\Software\uCOS-III\Source\os_q.c ****         default:
 260:C:\Micrium\Software\uCOS-III\Source\os_q.c ****              CPU_CRITICAL_EXIT();
 330              		.loc 1 260 0
 331 0138 786A     		ldr	r0, [r7, #36]
 332 013a FFF7FEFF 		bl	CPU_SR_Restore
 261:C:\Micrium\Software\uCOS-III\Source\os_q.c ****             *p_err = OS_ERR_OPT_INVALID;
 333              		.loc 1 261 0
 334 013e 7B68     		ldr	r3, [r7, #4]
 335 0140 45F62562 		movw	r2, #24101
 336 0144 1A80     		strh	r2, [r3, #0]	@ movhi
 337              	.L18:
 262:C:\Micrium\Software\uCOS-III\Source\os_q.c ****              break;
 263:C:\Micrium\Software\uCOS-III\Source\os_q.c ****     }
 264:C:\Micrium\Software\uCOS-III\Source\os_q.c ****     return (nbr_tasks);
 338              		.loc 1 264 0
 339 0146 7B8A     		ldrh	r3, [r7, #18]
 340              	.L9:
 265:C:\Micrium\Software\uCOS-III\Source\os_q.c **** }
 341              		.loc 1 265 0
 342 0148 1846     		mov	r0, r3
 343 014a 07F12807 		add	r7, r7, #40
 344 014e BD46     		mov	sp, r7
 345 0150 80BD     		pop	{r7, pc}
 346              		.cfi_endproc
 347              	.LFE1:
 348              		.size	OSQDel, .-OSQDel
 349 0152 00BF     		.section	.text.OSQFlush,"ax",%progbits
 350              		.align	2
 351              		.global	OSQFlush
 352              		.thumb
 353              		.thumb_func
 354              		.type	OSQFlush, %function
 355              	OSQFlush:
 356              	.LFB2:
 266:C:\Micrium\Software\uCOS-III\Source\os_q.c **** #endif
 267:C:\Micrium\Software\uCOS-III\Source\os_q.c **** 
ARM GAS  C:\Users\daniel01\AppData\Local\Temp\cccGTwC2.s 			page 12


 268:C:\Micrium\Software\uCOS-III\Source\os_q.c **** /*$PAGE*/
 269:C:\Micrium\Software\uCOS-III\Source\os_q.c **** /*
 270:C:\Micrium\Software\uCOS-III\Source\os_q.c **** ***************************************************************************************************
 271:C:\Micrium\Software\uCOS-III\Source\os_q.c **** *                                                     FLUSH QUEUE
 272:C:\Micrium\Software\uCOS-III\Source\os_q.c **** *
 273:C:\Micrium\Software\uCOS-III\Source\os_q.c **** * Description : This function is used to flush the contents of the message queue.
 274:C:\Micrium\Software\uCOS-III\Source\os_q.c **** *
 275:C:\Micrium\Software\uCOS-III\Source\os_q.c **** * Arguments   : p_q        is a pointer to the message queue to flush
 276:C:\Micrium\Software\uCOS-III\Source\os_q.c **** *
 277:C:\Micrium\Software\uCOS-III\Source\os_q.c **** *               p_err      is a pointer to a variable that will contain an error code returned by t
 278:C:\Micrium\Software\uCOS-III\Source\os_q.c **** *
 279:C:\Micrium\Software\uCOS-III\Source\os_q.c **** *                              OS_ERR_NONE           upon success
 280:C:\Micrium\Software\uCOS-III\Source\os_q.c **** *                              OS_ERR_FLUSH_ISR      if you called this function from an ISR
 281:C:\Micrium\Software\uCOS-III\Source\os_q.c **** *                              OS_ERR_OBJ_PTR_NULL   If you passed a NULL pointer for 'p_q'
 282:C:\Micrium\Software\uCOS-III\Source\os_q.c **** *                              OS_ERR_OBJ_TYPE       If you didn't create the message queue
 283:C:\Micrium\Software\uCOS-III\Source\os_q.c **** *
 284:C:\Micrium\Software\uCOS-III\Source\os_q.c **** * Returns     : The number of entries freed from the queue
 285:C:\Micrium\Software\uCOS-III\Source\os_q.c **** *
 286:C:\Micrium\Software\uCOS-III\Source\os_q.c **** * Note(s)     : 1) You should use this function with great care because, when to flush the queue, y
 287:C:\Micrium\Software\uCOS-III\Source\os_q.c **** *                  references to what the queue entries are pointing to and thus, you could cause '
 288:C:\Micrium\Software\uCOS-III\Source\os_q.c **** *                  other words, the data you are pointing to that's being referenced by the queue e
 289:C:\Micrium\Software\uCOS-III\Source\os_q.c **** *                  likely, need to be de-allocated (i.e. freed).
 290:C:\Micrium\Software\uCOS-III\Source\os_q.c **** ***************************************************************************************************
 291:C:\Micrium\Software\uCOS-III\Source\os_q.c **** */
 292:C:\Micrium\Software\uCOS-III\Source\os_q.c **** 
 293:C:\Micrium\Software\uCOS-III\Source\os_q.c **** #if OS_CFG_Q_FLUSH_EN > 0u
 294:C:\Micrium\Software\uCOS-III\Source\os_q.c **** OS_MSG_QTY  OSQFlush (OS_Q    *p_q,
 295:C:\Micrium\Software\uCOS-III\Source\os_q.c ****                       OS_ERR  *p_err)
 296:C:\Micrium\Software\uCOS-III\Source\os_q.c **** {
 357              		.loc 1 296 0
 358              		.cfi_startproc
 359              		@ args = 0, pretend = 0, frame = 16
 360              		@ frame_needed = 1, uses_anonymous_args = 0
 361 0000 80B5     		push	{r7, lr}
 362              	.LCFI6:
 363              		.cfi_def_cfa_offset 8
 364 0002 84B0     		sub	sp, sp, #16
 365              	.LCFI7:
 366              		.cfi_def_cfa_offset 24
 367 0004 00AF     		add	r7, sp, #0
 368              		.cfi_offset 14, -4
 369              		.cfi_offset 7, -8
 370              	.LCFI8:
 371              		.cfi_def_cfa_register 7
 372 0006 7860     		str	r0, [r7, #4]
 373 0008 3960     		str	r1, [r7, #0]
 297:C:\Micrium\Software\uCOS-III\Source\os_q.c ****     OS_MSG_QTY  entries;
 298:C:\Micrium\Software\uCOS-III\Source\os_q.c ****     CPU_SR_ALLOC();
 374              		.loc 1 298 0
 375 000a 4FF00003 		mov	r3, #0
 376 000e FB60     		str	r3, [r7, #12]
 299:C:\Micrium\Software\uCOS-III\Source\os_q.c **** 
 300:C:\Micrium\Software\uCOS-III\Source\os_q.c **** 
 301:C:\Micrium\Software\uCOS-III\Source\os_q.c **** 
 302:C:\Micrium\Software\uCOS-III\Source\os_q.c **** #ifdef OS_SAFETY_CRITICAL
 303:C:\Micrium\Software\uCOS-III\Source\os_q.c ****     if (p_err == (OS_ERR *)0) {
 304:C:\Micrium\Software\uCOS-III\Source\os_q.c ****         OS_SAFETY_CRITICAL_EXCEPTION();
ARM GAS  C:\Users\daniel01\AppData\Local\Temp\cccGTwC2.s 			page 13


 305:C:\Micrium\Software\uCOS-III\Source\os_q.c ****         return ((OS_MSG_QTY)0);
 306:C:\Micrium\Software\uCOS-III\Source\os_q.c ****     }
 307:C:\Micrium\Software\uCOS-III\Source\os_q.c **** #endif
 308:C:\Micrium\Software\uCOS-III\Source\os_q.c **** 
 309:C:\Micrium\Software\uCOS-III\Source\os_q.c **** #if OS_CFG_CALLED_FROM_ISR_CHK_EN > 0u
 310:C:\Micrium\Software\uCOS-III\Source\os_q.c ****     if (OSIntNestingCtr > (OS_NESTING_CTR)0) {              /* Can't flush a message queue from an 
 377              		.loc 1 310 0
 378 0010 40F20003 		movw	r3, #:lower16:OSIntNestingCtr
 379 0014 C0F20003 		movt	r3, #:upper16:OSIntNestingCtr
 380 0018 1B78     		ldrb	r3, [r3, #0]	@ zero_extendqisi2
 381 001a 002B     		cmp	r3, #0
 382 001c 06D0     		beq	.L24
 311:C:\Micrium\Software\uCOS-III\Source\os_q.c ****        *p_err = OS_ERR_FLUSH_ISR;
 383              		.loc 1 311 0
 384 001e 3B68     		ldr	r3, [r7, #0]
 385 0020 4FF46C52 		mov	r2, #15104
 386 0024 1A80     		strh	r2, [r3, #0]	@ movhi
 312:C:\Micrium\Software\uCOS-III\Source\os_q.c ****         return ((OS_MSG_QTY)0);
 387              		.loc 1 312 0
 388 0026 4FF00003 		mov	r3, #0
 389 002a 1DE0     		b	.L25
 390              	.L24:
 313:C:\Micrium\Software\uCOS-III\Source\os_q.c ****     }
 314:C:\Micrium\Software\uCOS-III\Source\os_q.c **** #endif
 315:C:\Micrium\Software\uCOS-III\Source\os_q.c **** 
 316:C:\Micrium\Software\uCOS-III\Source\os_q.c **** #if OS_CFG_ARG_CHK_EN > 0u
 317:C:\Micrium\Software\uCOS-III\Source\os_q.c ****     if (p_q == (OS_Q *)0) {                                 /* Validate arguments                  
 391              		.loc 1 317 0
 392 002c 7B68     		ldr	r3, [r7, #4]
 393 002e 002B     		cmp	r3, #0
 394 0030 06D1     		bne	.L26
 318:C:\Micrium\Software\uCOS-III\Source\os_q.c ****        *p_err = OS_ERR_OBJ_PTR_NULL;
 395              		.loc 1 318 0
 396 0032 3B68     		ldr	r3, [r7, #0]
 397 0034 45F6C352 		movw	r2, #24003
 398 0038 1A80     		strh	r2, [r3, #0]	@ movhi
 319:C:\Micrium\Software\uCOS-III\Source\os_q.c ****         return ((OS_MSG_QTY)0);
 399              		.loc 1 319 0
 400 003a 4FF00003 		mov	r3, #0
 401 003e 13E0     		b	.L25
 402              	.L26:
 320:C:\Micrium\Software\uCOS-III\Source\os_q.c ****     }
 321:C:\Micrium\Software\uCOS-III\Source\os_q.c **** #endif
 322:C:\Micrium\Software\uCOS-III\Source\os_q.c **** 
 323:C:\Micrium\Software\uCOS-III\Source\os_q.c **** #if OS_CFG_OBJ_TYPE_CHK_EN > 0u
 324:C:\Micrium\Software\uCOS-III\Source\os_q.c ****     if (p_q->Type != OS_OBJ_TYPE_Q) {                       /* Make sure message queue was created 
 325:C:\Micrium\Software\uCOS-III\Source\os_q.c ****        *p_err = OS_ERR_OBJ_TYPE;
 326:C:\Micrium\Software\uCOS-III\Source\os_q.c ****         return ((OS_MSG_QTY)0);
 327:C:\Micrium\Software\uCOS-III\Source\os_q.c ****     }
 328:C:\Micrium\Software\uCOS-III\Source\os_q.c **** #endif
 329:C:\Micrium\Software\uCOS-III\Source\os_q.c **** 
 330:C:\Micrium\Software\uCOS-III\Source\os_q.c ****     OS_CRITICAL_ENTER();
 403              		.loc 1 330 0
 404 0040 FFF7FEFF 		bl	CPU_SR_Save
 405 0044 0346     		mov	r3, r0
 406 0046 FB60     		str	r3, [r7, #12]
 331:C:\Micrium\Software\uCOS-III\Source\os_q.c ****     entries = OS_MsgQFreeAll(&p_q->MsgQ);                   /* Return all OS_MSGs to the OS_MSG poo
ARM GAS  C:\Users\daniel01\AppData\Local\Temp\cccGTwC2.s 			page 14


 407              		.loc 1 331 0
 408 0048 7B68     		ldr	r3, [r7, #4]
 409 004a 03F12003 		add	r3, r3, #32
 410 004e 1846     		mov	r0, r3
 411 0050 FFF7FEFF 		bl	OS_MsgQFreeAll
 412 0054 0346     		mov	r3, r0
 413 0056 7B81     		strh	r3, [r7, #10]	@ movhi
 332:C:\Micrium\Software\uCOS-III\Source\os_q.c ****     OS_CRITICAL_EXIT();
 414              		.loc 1 332 0
 415 0058 F868     		ldr	r0, [r7, #12]
 416 005a FFF7FEFF 		bl	CPU_SR_Restore
 333:C:\Micrium\Software\uCOS-III\Source\os_q.c ****    *p_err   = OS_ERR_NONE;
 417              		.loc 1 333 0
 418 005e 3B68     		ldr	r3, [r7, #0]
 419 0060 4FF00002 		mov	r2, #0
 420 0064 1A80     		strh	r2, [r3, #0]	@ movhi
 334:C:\Micrium\Software\uCOS-III\Source\os_q.c ****     return ((OS_MSG_QTY)entries);
 421              		.loc 1 334 0
 422 0066 7B89     		ldrh	r3, [r7, #10]
 423              	.L25:
 335:C:\Micrium\Software\uCOS-III\Source\os_q.c **** }
 424              		.loc 1 335 0
 425 0068 1846     		mov	r0, r3
 426 006a 07F11007 		add	r7, r7, #16
 427 006e BD46     		mov	sp, r7
 428 0070 80BD     		pop	{r7, pc}
 429              		.cfi_endproc
 430              	.LFE2:
 431              		.size	OSQFlush, .-OSQFlush
 432 0072 00BF     		.section	.text.OSQPend,"ax",%progbits
 433              		.align	2
 434              		.global	OSQPend
 435              		.thumb
 436              		.thumb_func
 437              		.type	OSQPend, %function
 438              	OSQPend:
 439              	.LFB3:
 336:C:\Micrium\Software\uCOS-III\Source\os_q.c **** #endif
 337:C:\Micrium\Software\uCOS-III\Source\os_q.c **** 
 338:C:\Micrium\Software\uCOS-III\Source\os_q.c **** /*$PAGE*/
 339:C:\Micrium\Software\uCOS-III\Source\os_q.c **** /*
 340:C:\Micrium\Software\uCOS-III\Source\os_q.c **** ***************************************************************************************************
 341:C:\Micrium\Software\uCOS-III\Source\os_q.c **** *                                            PEND ON A QUEUE FOR A MESSAGE
 342:C:\Micrium\Software\uCOS-III\Source\os_q.c **** *
 343:C:\Micrium\Software\uCOS-III\Source\os_q.c **** * Description: This function waits for a message to be sent to a queue
 344:C:\Micrium\Software\uCOS-III\Source\os_q.c **** *
 345:C:\Micrium\Software\uCOS-III\Source\os_q.c **** * Arguments  : p_q           is a pointer to the message queue
 346:C:\Micrium\Software\uCOS-III\Source\os_q.c **** *
 347:C:\Micrium\Software\uCOS-III\Source\os_q.c **** *              timeout       is an optional timeout period (in clock ticks).  If non-zero, your tas
 348:C:\Micrium\Software\uCOS-III\Source\os_q.c **** *                            message to arrive at the queue up to the amount of time specified by t
 349:C:\Micrium\Software\uCOS-III\Source\os_q.c **** *                            specify 0, however, your task will wait forever at the specified queue
 350:C:\Micrium\Software\uCOS-III\Source\os_q.c **** *                            arrives.
 351:C:\Micrium\Software\uCOS-III\Source\os_q.c **** *
 352:C:\Micrium\Software\uCOS-III\Source\os_q.c **** *              opt           determines whether the user wants to block if the queue is empty or no
 353:C:\Micrium\Software\uCOS-III\Source\os_q.c **** *
 354:C:\Micrium\Software\uCOS-III\Source\os_q.c **** *                                OS_OPT_PEND_BLOCKING
 355:C:\Micrium\Software\uCOS-III\Source\os_q.c **** *                                OS_OPT_PEND_NON_BLOCKING
ARM GAS  C:\Users\daniel01\AppData\Local\Temp\cccGTwC2.s 			page 15


 356:C:\Micrium\Software\uCOS-III\Source\os_q.c **** *
 357:C:\Micrium\Software\uCOS-III\Source\os_q.c **** *              p_msg_size    is a pointer to a variable that will receive the size of the message
 358:C:\Micrium\Software\uCOS-III\Source\os_q.c **** *
 359:C:\Micrium\Software\uCOS-III\Source\os_q.c **** *              p_ts          is a pointer to a variable that will receive the timestamp of when the
 360:C:\Micrium\Software\uCOS-III\Source\os_q.c **** *                            received, pend aborted or the message queue deleted,  If you pass a NU
 361:C:\Micrium\Software\uCOS-III\Source\os_q.c **** *                            (CPU_TS *)0) then you will not get the timestamp.  In other words, pas
 362:C:\Micrium\Software\uCOS-III\Source\os_q.c **** *                            is valid and indicates that you don't need the timestamp.
 363:C:\Micrium\Software\uCOS-III\Source\os_q.c **** *
 364:C:\Micrium\Software\uCOS-III\Source\os_q.c **** *              p_err         is a pointer to a variable that will contain an error code returned by
 365:C:\Micrium\Software\uCOS-III\Source\os_q.c **** *
 366:C:\Micrium\Software\uCOS-III\Source\os_q.c **** *                                OS_ERR_NONE               The call was successful and your task re
 367:C:\Micrium\Software\uCOS-III\Source\os_q.c **** *                                OS_ERR_OBJ_PTR_NULL       if you pass a NULL pointer for 'p_q'
 368:C:\Micrium\Software\uCOS-III\Source\os_q.c **** *                                OS_ERR_OBJ_TYPE           if the message queue was not created
 369:C:\Micrium\Software\uCOS-III\Source\os_q.c **** *                                OS_ERR_PEND_ABORT         the pend was aborted
 370:C:\Micrium\Software\uCOS-III\Source\os_q.c **** *                                OS_ERR_PEND_ISR           if you called this function from an ISR
 371:C:\Micrium\Software\uCOS-III\Source\os_q.c **** *                                OS_ERR_PEND_WOULD_BLOCK   If you specified non-blocking but the qu
 372:C:\Micrium\Software\uCOS-III\Source\os_q.c **** *                                OS_ERR_SCHED_LOCKED       the scheduler is locked
 373:C:\Micrium\Software\uCOS-III\Source\os_q.c **** *                                OS_ERR_TIMEOUT            A message was not received within the sp
 374:C:\Micrium\Software\uCOS-III\Source\os_q.c **** *                                                          would lead to a suspension.
 375:C:\Micrium\Software\uCOS-III\Source\os_q.c **** *
 376:C:\Micrium\Software\uCOS-III\Source\os_q.c **** * Returns    : != (void *)0  is a pointer to the message received
 377:C:\Micrium\Software\uCOS-III\Source\os_q.c **** *              == (void *)0  if you received a NULL pointer message or,
 378:C:\Micrium\Software\uCOS-III\Source\os_q.c **** *                            if no message was received or,
 379:C:\Micrium\Software\uCOS-III\Source\os_q.c **** *                            if 'p_q' is a NULL pointer or,
 380:C:\Micrium\Software\uCOS-III\Source\os_q.c **** *                            if you didn't pass a pointer to a queue.
 381:C:\Micrium\Software\uCOS-III\Source\os_q.c **** ***************************************************************************************************
 382:C:\Micrium\Software\uCOS-III\Source\os_q.c **** */
 383:C:\Micrium\Software\uCOS-III\Source\os_q.c **** 
 384:C:\Micrium\Software\uCOS-III\Source\os_q.c **** void  *OSQPend (OS_Q         *p_q,
 385:C:\Micrium\Software\uCOS-III\Source\os_q.c ****                 OS_TICK       timeout,
 386:C:\Micrium\Software\uCOS-III\Source\os_q.c ****                 OS_OPT        opt,
 387:C:\Micrium\Software\uCOS-III\Source\os_q.c ****                 OS_MSG_SIZE  *p_msg_size,
 388:C:\Micrium\Software\uCOS-III\Source\os_q.c ****                 CPU_TS       *p_ts,
 389:C:\Micrium\Software\uCOS-III\Source\os_q.c ****                 OS_ERR       *p_err)
 390:C:\Micrium\Software\uCOS-III\Source\os_q.c **** {
 440              		.loc 1 390 0
 441              		.cfi_startproc
 442              		@ args = 8, pretend = 0, frame = 56
 443              		@ frame_needed = 1, uses_anonymous_args = 0
 444 0000 80B5     		push	{r7, lr}
 445              	.LCFI9:
 446              		.cfi_def_cfa_offset 8
 447 0002 8EB0     		sub	sp, sp, #56
 448              	.LCFI10:
 449              		.cfi_def_cfa_offset 64
 450 0004 00AF     		add	r7, sp, #0
 451              		.cfi_offset 14, -4
 452              		.cfi_offset 7, -8
 453              	.LCFI11:
 454              		.cfi_def_cfa_register 7
 455 0006 F860     		str	r0, [r7, #12]
 456 0008 B960     		str	r1, [r7, #8]
 457 000a 3B60     		str	r3, [r7, #0]
 458 000c 1346     		mov	r3, r2	@ movhi
 459 000e FB80     		strh	r3, [r7, #6]	@ movhi
 391:C:\Micrium\Software\uCOS-III\Source\os_q.c ****     OS_PEND_DATA  pend_data;
 392:C:\Micrium\Software\uCOS-III\Source\os_q.c ****     void         *p_void;
ARM GAS  C:\Users\daniel01\AppData\Local\Temp\cccGTwC2.s 			page 16


 393:C:\Micrium\Software\uCOS-III\Source\os_q.c ****     CPU_SR_ALLOC();
 460              		.loc 1 393 0
 461 0010 4FF00003 		mov	r3, #0
 462 0014 7B63     		str	r3, [r7, #52]
 394:C:\Micrium\Software\uCOS-III\Source\os_q.c **** 
 395:C:\Micrium\Software\uCOS-III\Source\os_q.c **** 
 396:C:\Micrium\Software\uCOS-III\Source\os_q.c **** 
 397:C:\Micrium\Software\uCOS-III\Source\os_q.c **** #ifdef OS_SAFETY_CRITICAL
 398:C:\Micrium\Software\uCOS-III\Source\os_q.c ****     if (p_err == (OS_ERR *)0) {
 399:C:\Micrium\Software\uCOS-III\Source\os_q.c ****         OS_SAFETY_CRITICAL_EXCEPTION();
 400:C:\Micrium\Software\uCOS-III\Source\os_q.c ****         return ((void *)0);
 401:C:\Micrium\Software\uCOS-III\Source\os_q.c ****     }
 402:C:\Micrium\Software\uCOS-III\Source\os_q.c **** #endif
 403:C:\Micrium\Software\uCOS-III\Source\os_q.c **** 
 404:C:\Micrium\Software\uCOS-III\Source\os_q.c **** #if OS_CFG_CALLED_FROM_ISR_CHK_EN > 0u
 405:C:\Micrium\Software\uCOS-III\Source\os_q.c ****     if (OSIntNestingCtr > (OS_NESTING_CTR)0) {              /* Not allowed to call from an ISR     
 463              		.loc 1 405 0
 464 0016 40F20003 		movw	r3, #:lower16:OSIntNestingCtr
 465 001a C0F20003 		movt	r3, #:upper16:OSIntNestingCtr
 466 001e 1B78     		ldrb	r3, [r3, #0]	@ zero_extendqisi2
 467 0020 002B     		cmp	r3, #0
 468 0022 06D0     		beq	.L29
 406:C:\Micrium\Software\uCOS-III\Source\os_q.c ****        *p_err = OS_ERR_PEND_ISR;
 469              		.loc 1 406 0
 470 0024 7B6C     		ldr	r3, [r7, #68]
 471 0026 46F2AE12 		movw	r2, #25006
 472 002a 1A80     		strh	r2, [r3, #0]	@ movhi
 407:C:\Micrium\Software\uCOS-III\Source\os_q.c ****         return ((void *)0);
 473              		.loc 1 407 0
 474 002c 4FF00003 		mov	r3, #0
 475 0030 F6E0     		b	.L30
 476              	.L29:
 408:C:\Micrium\Software\uCOS-III\Source\os_q.c ****     }
 409:C:\Micrium\Software\uCOS-III\Source\os_q.c **** #endif
 410:C:\Micrium\Software\uCOS-III\Source\os_q.c **** 
 411:C:\Micrium\Software\uCOS-III\Source\os_q.c **** #if OS_CFG_ARG_CHK_EN > 0u
 412:C:\Micrium\Software\uCOS-III\Source\os_q.c ****     if (p_q == (OS_Q *)0) {                                 /* Validate arguments                  
 477              		.loc 1 412 0
 478 0032 FB68     		ldr	r3, [r7, #12]
 479 0034 002B     		cmp	r3, #0
 480 0036 06D1     		bne	.L31
 413:C:\Micrium\Software\uCOS-III\Source\os_q.c ****        *p_err = OS_ERR_OBJ_PTR_NULL;
 481              		.loc 1 413 0
 482 0038 7B6C     		ldr	r3, [r7, #68]
 483 003a 45F6C352 		movw	r2, #24003
 484 003e 1A80     		strh	r2, [r3, #0]	@ movhi
 414:C:\Micrium\Software\uCOS-III\Source\os_q.c ****         return ((void *)0);
 485              		.loc 1 414 0
 486 0040 4FF00003 		mov	r3, #0
 487 0044 ECE0     		b	.L30
 488              	.L31:
 415:C:\Micrium\Software\uCOS-III\Source\os_q.c ****     }
 416:C:\Micrium\Software\uCOS-III\Source\os_q.c ****     if (p_msg_size == (OS_MSG_SIZE *)0) {
 489              		.loc 1 416 0
 490 0046 3B68     		ldr	r3, [r7, #0]
 491 0048 002B     		cmp	r3, #0
 492 004a 06D1     		bne	.L32
ARM GAS  C:\Users\daniel01\AppData\Local\Temp\cccGTwC2.s 			page 17


 417:C:\Micrium\Software\uCOS-III\Source\os_q.c ****        *p_err = OS_ERR_PTR_INVALID;
 493              		.loc 1 417 0
 494 004c 7B6C     		ldr	r3, [r7, #68]
 495 004e 46F2D522 		movw	r2, #25301
 496 0052 1A80     		strh	r2, [r3, #0]	@ movhi
 418:C:\Micrium\Software\uCOS-III\Source\os_q.c ****         return ((void *)0);
 497              		.loc 1 418 0
 498 0054 4FF00003 		mov	r3, #0
 499 0058 E2E0     		b	.L30
 500              	.L32:
 419:C:\Micrium\Software\uCOS-III\Source\os_q.c ****     }
 420:C:\Micrium\Software\uCOS-III\Source\os_q.c ****     switch (opt) {
 501              		.loc 1 420 0
 502 005a FB88     		ldrh	r3, [r7, #6]
 503 005c 002B     		cmp	r3, #0
 504 005e 02D0     		beq	.L34
 505 0060 B3F5004F 		cmp	r3, #32768
 506 0064 03D1     		bne	.L52
 507              	.L34:
 421:C:\Micrium\Software\uCOS-III\Source\os_q.c ****         case OS_OPT_PEND_BLOCKING:
 422:C:\Micrium\Software\uCOS-III\Source\os_q.c ****         case OS_OPT_PEND_NON_BLOCKING:
 423:C:\Micrium\Software\uCOS-III\Source\os_q.c ****              break;
 424:C:\Micrium\Software\uCOS-III\Source\os_q.c **** 
 425:C:\Micrium\Software\uCOS-III\Source\os_q.c ****         default:
 426:C:\Micrium\Software\uCOS-III\Source\os_q.c ****             *p_err = OS_ERR_OPT_INVALID;
 427:C:\Micrium\Software\uCOS-III\Source\os_q.c ****              return ((void *)0);
 428:C:\Micrium\Software\uCOS-III\Source\os_q.c ****     }
 429:C:\Micrium\Software\uCOS-III\Source\os_q.c **** #endif
 430:C:\Micrium\Software\uCOS-III\Source\os_q.c **** 
 431:C:\Micrium\Software\uCOS-III\Source\os_q.c **** #if OS_CFG_OBJ_TYPE_CHK_EN > 0u
 432:C:\Micrium\Software\uCOS-III\Source\os_q.c ****     if (p_q->Type != OS_OBJ_TYPE_Q) {                       /* Make sure message queue was created 
 433:C:\Micrium\Software\uCOS-III\Source\os_q.c ****        *p_err = OS_ERR_OBJ_TYPE;
 434:C:\Micrium\Software\uCOS-III\Source\os_q.c ****         return ((void *)0);
 435:C:\Micrium\Software\uCOS-III\Source\os_q.c ****     }
 436:C:\Micrium\Software\uCOS-III\Source\os_q.c **** #endif
 437:C:\Micrium\Software\uCOS-III\Source\os_q.c **** 
 438:C:\Micrium\Software\uCOS-III\Source\os_q.c ****     if (p_ts != (CPU_TS *)0) {
 508              		.loc 1 438 0
 509 0066 3B6C     		ldr	r3, [r7, #64]
 510 0068 002B     		cmp	r3, #0
 511 006a 07D1     		bne	.L35
 512 006c 0AE0     		b	.L36
 513              	.L52:
 514              		.loc 1 426 0
 515 006e 7B6C     		ldr	r3, [r7, #68]
 516 0070 45F62562 		movw	r2, #24101
 517 0074 1A80     		strh	r2, [r3, #0]	@ movhi
 518              		.loc 1 427 0
 519 0076 4FF00003 		mov	r3, #0
 520 007a D1E0     		b	.L30
 521              	.L35:
 439:C:\Micrium\Software\uCOS-III\Source\os_q.c ****        *p_ts  = (CPU_TS  )0;                                /* Initialize the returned timestamp   
 522              		.loc 1 439 0
 523 007c 3B6C     		ldr	r3, [r7, #64]
 524 007e 4FF00002 		mov	r2, #0
 525 0082 1A60     		str	r2, [r3, #0]
 526              	.L36:
ARM GAS  C:\Users\daniel01\AppData\Local\Temp\cccGTwC2.s 			page 18


 440:C:\Micrium\Software\uCOS-III\Source\os_q.c ****     }
 441:C:\Micrium\Software\uCOS-III\Source\os_q.c **** 
 442:C:\Micrium\Software\uCOS-III\Source\os_q.c ****     CPU_CRITICAL_ENTER();
 527              		.loc 1 442 0
 528 0084 FFF7FEFF 		bl	CPU_SR_Save
 529 0088 0346     		mov	r3, r0
 530 008a 7B63     		str	r3, [r7, #52]
 443:C:\Micrium\Software\uCOS-III\Source\os_q.c ****     p_void = OS_MsgQGet(&p_q->MsgQ,                         /* Any message waiting in the message q
 531              		.loc 1 443 0
 532 008c FB68     		ldr	r3, [r7, #12]
 533 008e 03F12003 		add	r3, r3, #32
 534 0092 1846     		mov	r0, r3
 535 0094 3968     		ldr	r1, [r7, #0]
 536 0096 3A6C     		ldr	r2, [r7, #64]
 537 0098 7B6C     		ldr	r3, [r7, #68]
 538 009a FFF7FEFF 		bl	OS_MsgQGet
 539 009e 0346     		mov	r3, r0
 540 00a0 3B63     		str	r3, [r7, #48]
 444:C:\Micrium\Software\uCOS-III\Source\os_q.c ****                         p_msg_size,
 445:C:\Micrium\Software\uCOS-III\Source\os_q.c ****                         p_ts,
 446:C:\Micrium\Software\uCOS-III\Source\os_q.c ****                         p_err);
 447:C:\Micrium\Software\uCOS-III\Source\os_q.c ****     if (*p_err == OS_ERR_NONE) {
 541              		.loc 1 447 0
 542 00a2 7B6C     		ldr	r3, [r7, #68]
 543 00a4 1B88     		ldrh	r3, [r3, #0]
 544 00a6 002B     		cmp	r3, #0
 545 00a8 04D1     		bne	.L37
 448:C:\Micrium\Software\uCOS-III\Source\os_q.c ****         CPU_CRITICAL_EXIT();
 546              		.loc 1 448 0
 547 00aa 786B     		ldr	r0, [r7, #52]
 548 00ac FFF7FEFF 		bl	CPU_SR_Restore
 449:C:\Micrium\Software\uCOS-III\Source\os_q.c ****         return (p_void);                                    /* Yes, Return message received        
 549              		.loc 1 449 0
 550 00b0 3B6B     		ldr	r3, [r7, #48]
 551 00b2 B5E0     		b	.L30
 552              	.L37:
 450:C:\Micrium\Software\uCOS-III\Source\os_q.c ****     }
 451:C:\Micrium\Software\uCOS-III\Source\os_q.c **** 
 452:C:\Micrium\Software\uCOS-III\Source\os_q.c ****     if ((opt & OS_OPT_PEND_NON_BLOCKING) != (OS_OPT)0) {    /* Caller wants to block if not availab
 553              		.loc 1 452 0
 554 00b4 FB88     		ldrh	r3, [r7, #6]
 555 00b6 1BB2     		sxth	r3, r3
 556 00b8 002B     		cmp	r3, #0
 557 00ba 09DA     		bge	.L38
 453:C:\Micrium\Software\uCOS-III\Source\os_q.c ****         CPU_CRITICAL_EXIT();
 558              		.loc 1 453 0
 559 00bc 786B     		ldr	r0, [r7, #52]
 560 00be FFF7FEFF 		bl	CPU_SR_Restore
 454:C:\Micrium\Software\uCOS-III\Source\os_q.c ****        *p_err = OS_ERR_PEND_WOULD_BLOCK;                    /* No                                  
 561              		.loc 1 454 0
 562 00c2 7B6C     		ldr	r3, [r7, #68]
 563 00c4 46F2B012 		movw	r2, #25008
 564 00c8 1A80     		strh	r2, [r3, #0]	@ movhi
 455:C:\Micrium\Software\uCOS-III\Source\os_q.c ****         return ((void *)0);
 565              		.loc 1 455 0
 566 00ca 4FF00003 		mov	r3, #0
 567 00ce A7E0     		b	.L30
ARM GAS  C:\Users\daniel01\AppData\Local\Temp\cccGTwC2.s 			page 19


 568              	.L38:
 456:C:\Micrium\Software\uCOS-III\Source\os_q.c ****     } else {
 457:C:\Micrium\Software\uCOS-III\Source\os_q.c ****         if (OSSchedLockNestingCtr > (OS_NESTING_CTR)0) {    /* Can't pend when the scheduler is loc
 569              		.loc 1 457 0
 570 00d0 40F20003 		movw	r3, #:lower16:OSSchedLockNestingCtr
 571 00d4 C0F20003 		movt	r3, #:upper16:OSSchedLockNestingCtr
 572 00d8 1B78     		ldrb	r3, [r3, #0]	@ zero_extendqisi2
 573 00da 002B     		cmp	r3, #0
 574 00dc 09D0     		beq	.L39
 458:C:\Micrium\Software\uCOS-III\Source\os_q.c ****             CPU_CRITICAL_EXIT();
 575              		.loc 1 458 0
 576 00de 786B     		ldr	r0, [r7, #52]
 577 00e0 FFF7FEFF 		bl	CPU_SR_Restore
 459:C:\Micrium\Software\uCOS-III\Source\os_q.c ****            *p_err = OS_ERR_SCHED_LOCKED;
 578              		.loc 1 459 0
 579 00e4 7B6C     		ldr	r3, [r7, #68]
 580 00e6 46F66352 		movw	r2, #28003
 581 00ea 1A80     		strh	r2, [r3, #0]	@ movhi
 460:C:\Micrium\Software\uCOS-III\Source\os_q.c ****             return ((void *)0);
 582              		.loc 1 460 0
 583 00ec 4FF00003 		mov	r3, #0
 584 00f0 96E0     		b	.L30
 585              	.L39:
 461:C:\Micrium\Software\uCOS-III\Source\os_q.c ****         }
 462:C:\Micrium\Software\uCOS-III\Source\os_q.c ****     }
 463:C:\Micrium\Software\uCOS-III\Source\os_q.c ****                                                             /* Lock the scheduler/re-enable interru
 464:C:\Micrium\Software\uCOS-III\Source\os_q.c ****     OS_CRITICAL_ENTER_CPU_EXIT();
 465:C:\Micrium\Software\uCOS-III\Source\os_q.c ****     OS_Pend(&pend_data,                                     /* Block task pending on Message Queue 
 586              		.loc 1 465 0
 587 00f2 FB68     		ldr	r3, [r7, #12]
 588 00f4 07F11002 		add	r2, r7, #16
 589 00f8 1046     		mov	r0, r2
 590 00fa 1946     		mov	r1, r3
 591 00fc 4FF00502 		mov	r2, #5
 592 0100 BB68     		ldr	r3, [r7, #8]
 593 0102 FFF7FEFF 		bl	OS_Pend
 466:C:\Micrium\Software\uCOS-III\Source\os_q.c ****             (OS_PEND_OBJ *)((void *)p_q),
 467:C:\Micrium\Software\uCOS-III\Source\os_q.c ****             OS_TASK_PEND_ON_Q,
 468:C:\Micrium\Software\uCOS-III\Source\os_q.c ****             timeout);
 469:C:\Micrium\Software\uCOS-III\Source\os_q.c ****     OS_CRITICAL_EXIT_NO_SCHED();
 594              		.loc 1 469 0
 595 0106 786B     		ldr	r0, [r7, #52]
 596 0108 FFF7FEFF 		bl	CPU_SR_Restore
 470:C:\Micrium\Software\uCOS-III\Source\os_q.c **** 
 471:C:\Micrium\Software\uCOS-III\Source\os_q.c ****     OSSched();                                              /* Find the next highest priority task 
 597              		.loc 1 471 0
 598 010c FFF7FEFF 		bl	OSSched
 472:C:\Micrium\Software\uCOS-III\Source\os_q.c **** 
 473:C:\Micrium\Software\uCOS-III\Source\os_q.c ****     CPU_CRITICAL_ENTER();
 599              		.loc 1 473 0
 600 0110 FFF7FEFF 		bl	CPU_SR_Save
 601 0114 0346     		mov	r3, r0
 602 0116 7B63     		str	r3, [r7, #52]
 474:C:\Micrium\Software\uCOS-III\Source\os_q.c ****     switch (OSTCBCurPtr->PendStatus) {
 603              		.loc 1 474 0
 604 0118 40F20003 		movw	r3, #:lower16:OSTCBCurPtr
 605 011c C0F20003 		movt	r3, #:upper16:OSTCBCurPtr
ARM GAS  C:\Users\daniel01\AppData\Local\Temp\cccGTwC2.s 			page 20


 606 0120 1B68     		ldr	r3, [r3, #0]
 607 0122 93F83530 		ldrb	r3, [r3, #53]	@ zero_extendqisi2
 608 0126 032B     		cmp	r3, #3
 609 0128 6BD8     		bhi	.L40
 610 012a 01A2     		adr	r2, .L45
 611 012c 52F823F0 		ldr	pc, [r2, r3, lsl #2]
 612              		.align	2
 613              	.L45:
 614 0130 41010000 		.word	.L41+1
 615 0134 81010000 		.word	.L42+1
 616 0138 D5010000 		.word	.L43+1
 617 013c AF010000 		.word	.L44+1
 618              	.L41:
 475:C:\Micrium\Software\uCOS-III\Source\os_q.c ****         case OS_STATUS_PEND_OK:                             /* Extract message from TCB (Put there 
 476:C:\Micrium\Software\uCOS-III\Source\os_q.c ****              p_void     = OSTCBCurPtr->MsgPtr;
 619              		.loc 1 476 0
 620 0140 40F20003 		movw	r3, #:lower16:OSTCBCurPtr
 621 0144 C0F20003 		movt	r3, #:upper16:OSTCBCurPtr
 622 0148 1B68     		ldr	r3, [r3, #0]
 623 014a DB6D     		ldr	r3, [r3, #92]
 624 014c 3B63     		str	r3, [r7, #48]
 477:C:\Micrium\Software\uCOS-III\Source\os_q.c ****             *p_msg_size = OSTCBCurPtr->MsgSize;
 625              		.loc 1 477 0
 626 014e 40F20003 		movw	r3, #:lower16:OSTCBCurPtr
 627 0152 C0F20003 		movt	r3, #:upper16:OSTCBCurPtr
 628 0156 1B68     		ldr	r3, [r3, #0]
 629 0158 B3F86020 		ldrh	r2, [r3, #96]
 630 015c 3B68     		ldr	r3, [r7, #0]
 631 015e 1A80     		strh	r2, [r3, #0]	@ movhi
 478:C:\Micrium\Software\uCOS-III\Source\os_q.c ****              if (p_ts  != (CPU_TS *)0) {
 632              		.loc 1 478 0
 633 0160 3B6C     		ldr	r3, [r7, #64]
 634 0162 002B     		cmp	r3, #0
 635 0164 07D0     		beq	.L46
 479:C:\Micrium\Software\uCOS-III\Source\os_q.c ****                 *p_ts   =  OSTCBCurPtr->TS;
 636              		.loc 1 479 0
 637 0166 40F20003 		movw	r3, #:lower16:OSTCBCurPtr
 638 016a C0F20003 		movt	r3, #:upper16:OSTCBCurPtr
 639 016e 1B68     		ldr	r3, [r3, #0]
 640 0170 1A6C     		ldr	r2, [r3, #64]
 641 0172 3B6C     		ldr	r3, [r7, #64]
 642 0174 1A60     		str	r2, [r3, #0]
 643              	.L46:
 480:C:\Micrium\Software\uCOS-III\Source\os_q.c ****              }
 481:C:\Micrium\Software\uCOS-III\Source\os_q.c ****             *p_err      = OS_ERR_NONE;
 644              		.loc 1 481 0
 645 0176 7B6C     		ldr	r3, [r7, #68]
 646 0178 4FF00002 		mov	r2, #0
 647 017c 1A80     		strh	r2, [r3, #0]	@ movhi
 482:C:\Micrium\Software\uCOS-III\Source\os_q.c ****              break;
 648              		.loc 1 482 0
 649 017e 4BE0     		b	.L47
 650              	.L42:
 483:C:\Micrium\Software\uCOS-III\Source\os_q.c **** 
 484:C:\Micrium\Software\uCOS-III\Source\os_q.c ****         case OS_STATUS_PEND_ABORT:                          /* Indicate that we aborted            
 485:C:\Micrium\Software\uCOS-III\Source\os_q.c ****              p_void     = (void      *)0;
 651              		.loc 1 485 0
ARM GAS  C:\Users\daniel01\AppData\Local\Temp\cccGTwC2.s 			page 21


 652 0180 4FF00003 		mov	r3, #0
 653 0184 3B63     		str	r3, [r7, #48]
 486:C:\Micrium\Software\uCOS-III\Source\os_q.c ****             *p_msg_size = (OS_MSG_SIZE)0;
 654              		.loc 1 486 0
 655 0186 3B68     		ldr	r3, [r7, #0]
 656 0188 4FF00002 		mov	r2, #0
 657 018c 1A80     		strh	r2, [r3, #0]	@ movhi
 487:C:\Micrium\Software\uCOS-III\Source\os_q.c ****              if (p_ts  != (CPU_TS *)0) {
 658              		.loc 1 487 0
 659 018e 3B6C     		ldr	r3, [r7, #64]
 660 0190 002B     		cmp	r3, #0
 661 0192 07D0     		beq	.L48
 488:C:\Micrium\Software\uCOS-III\Source\os_q.c ****                 *p_ts   =  OSTCBCurPtr->TS;
 662              		.loc 1 488 0
 663 0194 40F20003 		movw	r3, #:lower16:OSTCBCurPtr
 664 0198 C0F20003 		movt	r3, #:upper16:OSTCBCurPtr
 665 019c 1B68     		ldr	r3, [r3, #0]
 666 019e 1A6C     		ldr	r2, [r3, #64]
 667 01a0 3B6C     		ldr	r3, [r7, #64]
 668 01a2 1A60     		str	r2, [r3, #0]
 669              	.L48:
 489:C:\Micrium\Software\uCOS-III\Source\os_q.c ****              }
 490:C:\Micrium\Software\uCOS-III\Source\os_q.c ****             *p_err      = OS_ERR_PEND_ABORT;
 670              		.loc 1 490 0
 671 01a4 7B6C     		ldr	r3, [r7, #68]
 672 01a6 46F2A912 		movw	r2, #25001
 673 01aa 1A80     		strh	r2, [r3, #0]	@ movhi
 491:C:\Micrium\Software\uCOS-III\Source\os_q.c ****              break;
 674              		.loc 1 491 0
 675 01ac 34E0     		b	.L47
 676              	.L44:
 492:C:\Micrium\Software\uCOS-III\Source\os_q.c **** 
 493:C:\Micrium\Software\uCOS-III\Source\os_q.c ****         case OS_STATUS_PEND_TIMEOUT:                        /* Indicate that we didn't get event wi
 494:C:\Micrium\Software\uCOS-III\Source\os_q.c ****              p_void     = (void      *)0;
 677              		.loc 1 494 0
 678 01ae 4FF00003 		mov	r3, #0
 679 01b2 3B63     		str	r3, [r7, #48]
 495:C:\Micrium\Software\uCOS-III\Source\os_q.c ****             *p_msg_size = (OS_MSG_SIZE)0;
 680              		.loc 1 495 0
 681 01b4 3B68     		ldr	r3, [r7, #0]
 682 01b6 4FF00002 		mov	r2, #0
 683 01ba 1A80     		strh	r2, [r3, #0]	@ movhi
 496:C:\Micrium\Software\uCOS-III\Source\os_q.c ****              if (p_ts  != (CPU_TS *)0) {
 684              		.loc 1 496 0
 685 01bc 3B6C     		ldr	r3, [r7, #64]
 686 01be 002B     		cmp	r3, #0
 687 01c0 03D0     		beq	.L49
 497:C:\Micrium\Software\uCOS-III\Source\os_q.c ****                 *p_ts   = (CPU_TS  )0;
 688              		.loc 1 497 0
 689 01c2 3B6C     		ldr	r3, [r7, #64]
 690 01c4 4FF00002 		mov	r2, #0
 691 01c8 1A60     		str	r2, [r3, #0]
 692              	.L49:
 498:C:\Micrium\Software\uCOS-III\Source\os_q.c ****              }
 499:C:\Micrium\Software\uCOS-III\Source\os_q.c ****             *p_err      = OS_ERR_TIMEOUT;
 693              		.loc 1 499 0
 694 01ca 7B6C     		ldr	r3, [r7, #68]
ARM GAS  C:\Users\daniel01\AppData\Local\Temp\cccGTwC2.s 			page 22


 695 01cc 47F2D922 		movw	r2, #29401
 696 01d0 1A80     		strh	r2, [r3, #0]	@ movhi
 500:C:\Micrium\Software\uCOS-III\Source\os_q.c ****              break;
 697              		.loc 1 500 0
 698 01d2 21E0     		b	.L47
 699              	.L43:
 501:C:\Micrium\Software\uCOS-III\Source\os_q.c **** 
 502:C:\Micrium\Software\uCOS-III\Source\os_q.c ****         case OS_STATUS_PEND_DEL:                            /* Indicate that object pended on has b
 503:C:\Micrium\Software\uCOS-III\Source\os_q.c ****              p_void     = (void      *)0;
 700              		.loc 1 503 0
 701 01d4 4FF00003 		mov	r3, #0
 702 01d8 3B63     		str	r3, [r7, #48]
 504:C:\Micrium\Software\uCOS-III\Source\os_q.c ****             *p_msg_size = (OS_MSG_SIZE)0;
 703              		.loc 1 504 0
 704 01da 3B68     		ldr	r3, [r7, #0]
 705 01dc 4FF00002 		mov	r2, #0
 706 01e0 1A80     		strh	r2, [r3, #0]	@ movhi
 505:C:\Micrium\Software\uCOS-III\Source\os_q.c ****              if (p_ts  != (CPU_TS *)0) {
 707              		.loc 1 505 0
 708 01e2 3B6C     		ldr	r3, [r7, #64]
 709 01e4 002B     		cmp	r3, #0
 710 01e6 07D0     		beq	.L50
 506:C:\Micrium\Software\uCOS-III\Source\os_q.c ****                 *p_ts   =  OSTCBCurPtr->TS;
 711              		.loc 1 506 0
 712 01e8 40F20003 		movw	r3, #:lower16:OSTCBCurPtr
 713 01ec C0F20003 		movt	r3, #:upper16:OSTCBCurPtr
 714 01f0 1B68     		ldr	r3, [r3, #0]
 715 01f2 1A6C     		ldr	r2, [r3, #64]
 716 01f4 3B6C     		ldr	r3, [r7, #64]
 717 01f6 1A60     		str	r2, [r3, #0]
 718              	.L50:
 507:C:\Micrium\Software\uCOS-III\Source\os_q.c ****              }
 508:C:\Micrium\Software\uCOS-III\Source\os_q.c ****             *p_err      = OS_ERR_OBJ_DEL;
 719              		.loc 1 508 0
 720 01f8 7B6C     		ldr	r3, [r7, #68]
 721 01fa 45F6C252 		movw	r2, #24002
 722 01fe 1A80     		strh	r2, [r3, #0]	@ movhi
 509:C:\Micrium\Software\uCOS-III\Source\os_q.c ****              break;
 723              		.loc 1 509 0
 724 0200 0AE0     		b	.L47
 725              	.L40:
 510:C:\Micrium\Software\uCOS-III\Source\os_q.c **** 
 511:C:\Micrium\Software\uCOS-III\Source\os_q.c ****         default:
 512:C:\Micrium\Software\uCOS-III\Source\os_q.c ****              p_void     = (void      *)0;
 726              		.loc 1 512 0
 727 0202 4FF00003 		mov	r3, #0
 728 0206 3B63     		str	r3, [r7, #48]
 513:C:\Micrium\Software\uCOS-III\Source\os_q.c ****             *p_msg_size = (OS_MSG_SIZE)0;
 729              		.loc 1 513 0
 730 0208 3B68     		ldr	r3, [r7, #0]
 731 020a 4FF00002 		mov	r2, #0
 732 020e 1A80     		strh	r2, [r3, #0]	@ movhi
 514:C:\Micrium\Software\uCOS-III\Source\os_q.c ****             *p_err      = OS_ERR_STATUS_INVALID;
 733              		.loc 1 514 0
 734 0210 7B6C     		ldr	r3, [r7, #68]
 735 0212 46F62E62 		movw	r2, #28206
 736 0216 1A80     		strh	r2, [r3, #0]	@ movhi
ARM GAS  C:\Users\daniel01\AppData\Local\Temp\cccGTwC2.s 			page 23


 737              	.L47:
 515:C:\Micrium\Software\uCOS-III\Source\os_q.c ****              break;
 516:C:\Micrium\Software\uCOS-III\Source\os_q.c ****     }
 517:C:\Micrium\Software\uCOS-III\Source\os_q.c ****     CPU_CRITICAL_EXIT();
 738              		.loc 1 517 0
 739 0218 786B     		ldr	r0, [r7, #52]
 740 021a FFF7FEFF 		bl	CPU_SR_Restore
 518:C:\Micrium\Software\uCOS-III\Source\os_q.c ****     return (p_void);
 741              		.loc 1 518 0
 742 021e 3B6B     		ldr	r3, [r7, #48]
 743              	.L30:
 519:C:\Micrium\Software\uCOS-III\Source\os_q.c **** }
 744              		.loc 1 519 0
 745 0220 1846     		mov	r0, r3
 746 0222 07F13807 		add	r7, r7, #56
 747 0226 BD46     		mov	sp, r7
 748 0228 80BD     		pop	{r7, pc}
 749              		.cfi_endproc
 750              	.LFE3:
 751              		.size	OSQPend, .-OSQPend
 752 022a 00BF     		.section	.text.OSQPendAbort,"ax",%progbits
 753              		.align	2
 754              		.global	OSQPendAbort
 755              		.thumb
 756              		.thumb_func
 757              		.type	OSQPendAbort, %function
 758              	OSQPendAbort:
 759              	.LFB4:
 520:C:\Micrium\Software\uCOS-III\Source\os_q.c **** 
 521:C:\Micrium\Software\uCOS-III\Source\os_q.c **** 
 522:C:\Micrium\Software\uCOS-III\Source\os_q.c **** /*$PAGE*/
 523:C:\Micrium\Software\uCOS-III\Source\os_q.c **** /*
 524:C:\Micrium\Software\uCOS-III\Source\os_q.c **** ***************************************************************************************************
 525:C:\Micrium\Software\uCOS-III\Source\os_q.c **** *                                             ABORT WAITING ON A MESSAGE QUEUE
 526:C:\Micrium\Software\uCOS-III\Source\os_q.c **** *
 527:C:\Micrium\Software\uCOS-III\Source\os_q.c **** * Description: This function aborts & readies any tasks currently waiting on a queue.  This functio
 528:C:\Micrium\Software\uCOS-III\Source\os_q.c **** *              fault-abort the wait on the queue, rather than to normally signal the queue via OSQP
 529:C:\Micrium\Software\uCOS-III\Source\os_q.c **** *
 530:C:\Micrium\Software\uCOS-III\Source\os_q.c **** * Arguments  : p_q       is a pointer to the message queue
 531:C:\Micrium\Software\uCOS-III\Source\os_q.c **** *
 532:C:\Micrium\Software\uCOS-III\Source\os_q.c **** *              opt       determines the type of ABORT performed:
 533:C:\Micrium\Software\uCOS-III\Source\os_q.c **** *
 534:C:\Micrium\Software\uCOS-III\Source\os_q.c **** *                            OS_OPT_PEND_ABORT_1          ABORT wait for a single task (HPT) waitin
 535:C:\Micrium\Software\uCOS-III\Source\os_q.c **** *                            OS_OPT_PEND_ABORT_ALL        ABORT wait for ALL tasks that are  waitin
 536:C:\Micrium\Software\uCOS-III\Source\os_q.c **** *                            OS_OPT_POST_NO_SCHED         Do not call the scheduler
 537:C:\Micrium\Software\uCOS-III\Source\os_q.c **** *
 538:C:\Micrium\Software\uCOS-III\Source\os_q.c **** *              p_err     is a pointer to a variable that will contain an error code returned by thi
 539:C:\Micrium\Software\uCOS-III\Source\os_q.c **** *
 540:C:\Micrium\Software\uCOS-III\Source\os_q.c **** *                            OS_ERR_NONE                  At least one task waiting on the queue wa
 541:C:\Micrium\Software\uCOS-III\Source\os_q.c **** *                                                         informed of the aborted wait; check retur
 542:C:\Micrium\Software\uCOS-III\Source\os_q.c **** *                                                         number of tasks whose wait on the queue w
 543:C:\Micrium\Software\uCOS-III\Source\os_q.c **** *                            OS_ERR_OPT_INVALID           if you specified an invalid option
 544:C:\Micrium\Software\uCOS-III\Source\os_q.c **** *                            OS_ERR_OBJ_PTR_NULL          if you pass a NULL pointer for 'p_q'
 545:C:\Micrium\Software\uCOS-III\Source\os_q.c **** *                            OS_ERR_OBJ_TYPE              if the message queue was not created
 546:C:\Micrium\Software\uCOS-III\Source\os_q.c **** *                            OS_ERR_PEND_ABORT_ISR        If this function was called from an ISR
 547:C:\Micrium\Software\uCOS-III\Source\os_q.c **** *                            OS_ERR_PEND_ABORT_NONE       No task were pending
 548:C:\Micrium\Software\uCOS-III\Source\os_q.c **** *
ARM GAS  C:\Users\daniel01\AppData\Local\Temp\cccGTwC2.s 			page 24


 549:C:\Micrium\Software\uCOS-III\Source\os_q.c **** * Returns    : == 0          if no tasks were waiting on the queue, or upon error.
 550:C:\Micrium\Software\uCOS-III\Source\os_q.c **** *              >  0          if one or more tasks waiting on the queue are now readied and informed
 551:C:\Micrium\Software\uCOS-III\Source\os_q.c **** ***************************************************************************************************
 552:C:\Micrium\Software\uCOS-III\Source\os_q.c **** */
 553:C:\Micrium\Software\uCOS-III\Source\os_q.c **** 
 554:C:\Micrium\Software\uCOS-III\Source\os_q.c **** #if OS_CFG_Q_PEND_ABORT_EN > 0u
 555:C:\Micrium\Software\uCOS-III\Source\os_q.c **** OS_OBJ_QTY  OSQPendAbort (OS_Q    *p_q,
 556:C:\Micrium\Software\uCOS-III\Source\os_q.c ****                           OS_OPT   opt,
 557:C:\Micrium\Software\uCOS-III\Source\os_q.c ****                           OS_ERR  *p_err)
 558:C:\Micrium\Software\uCOS-III\Source\os_q.c **** {
 760              		.loc 1 558 0
 761              		.cfi_startproc
 762              		@ args = 0, pretend = 0, frame = 40
 763              		@ frame_needed = 1, uses_anonymous_args = 0
 764 0000 80B5     		push	{r7, lr}
 765              	.LCFI12:
 766              		.cfi_def_cfa_offset 8
 767 0002 8AB0     		sub	sp, sp, #40
 768              	.LCFI13:
 769              		.cfi_def_cfa_offset 48
 770 0004 00AF     		add	r7, sp, #0
 771              		.cfi_offset 14, -4
 772              		.cfi_offset 7, -8
 773              	.LCFI14:
 774              		.cfi_def_cfa_register 7
 775 0006 F860     		str	r0, [r7, #12]
 776 0008 0B46     		mov	r3, r1
 777 000a 7A60     		str	r2, [r7, #4]
 778 000c 7B81     		strh	r3, [r7, #10]	@ movhi
 559:C:\Micrium\Software\uCOS-III\Source\os_q.c ****     OS_PEND_LIST  *p_pend_list;
 560:C:\Micrium\Software\uCOS-III\Source\os_q.c ****     OS_TCB        *p_tcb;
 561:C:\Micrium\Software\uCOS-III\Source\os_q.c ****     CPU_TS         ts;
 562:C:\Micrium\Software\uCOS-III\Source\os_q.c ****     OS_OBJ_QTY     nbr_tasks;
 563:C:\Micrium\Software\uCOS-III\Source\os_q.c ****     CPU_SR_ALLOC();
 779              		.loc 1 563 0
 780 000e 4FF00003 		mov	r3, #0
 781 0012 7B62     		str	r3, [r7, #36]
 564:C:\Micrium\Software\uCOS-III\Source\os_q.c **** 
 565:C:\Micrium\Software\uCOS-III\Source\os_q.c **** 
 566:C:\Micrium\Software\uCOS-III\Source\os_q.c **** 
 567:C:\Micrium\Software\uCOS-III\Source\os_q.c **** #ifdef OS_SAFETY_CRITICAL
 568:C:\Micrium\Software\uCOS-III\Source\os_q.c ****     if (p_err == (OS_ERR *)0) {
 569:C:\Micrium\Software\uCOS-III\Source\os_q.c ****         OS_SAFETY_CRITICAL_EXCEPTION();
 570:C:\Micrium\Software\uCOS-III\Source\os_q.c ****         return ((OS_OBJ_QTY)0u);
 571:C:\Micrium\Software\uCOS-III\Source\os_q.c ****     }
 572:C:\Micrium\Software\uCOS-III\Source\os_q.c **** #endif
 573:C:\Micrium\Software\uCOS-III\Source\os_q.c **** 
 574:C:\Micrium\Software\uCOS-III\Source\os_q.c **** #if OS_CFG_CALLED_FROM_ISR_CHK_EN > 0u
 575:C:\Micrium\Software\uCOS-III\Source\os_q.c ****     if (OSIntNestingCtr > (OS_NESTING_CTR)0u) {             /* Not allowed to Pend Abort from an IS
 782              		.loc 1 575 0
 783 0014 40F20003 		movw	r3, #:lower16:OSIntNestingCtr
 784 0018 C0F20003 		movt	r3, #:upper16:OSIntNestingCtr
 785 001c 1B78     		ldrb	r3, [r3, #0]	@ zero_extendqisi2
 786 001e 002B     		cmp	r3, #0
 787 0020 06D0     		beq	.L54
 576:C:\Micrium\Software\uCOS-III\Source\os_q.c ****        *p_err =  OS_ERR_PEND_ABORT_ISR;
 788              		.loc 1 576 0
ARM GAS  C:\Users\daniel01\AppData\Local\Temp\cccGTwC2.s 			page 25


 789 0022 7B68     		ldr	r3, [r7, #4]
 790 0024 46F2AA12 		movw	r2, #25002
 791 0028 1A80     		strh	r2, [r3, #0]	@ movhi
 577:C:\Micrium\Software\uCOS-III\Source\os_q.c ****         return ((OS_OBJ_QTY)0u);
 792              		.loc 1 577 0
 793 002a 4FF00003 		mov	r3, #0
 794 002e 65E0     		b	.L55
 795              	.L54:
 578:C:\Micrium\Software\uCOS-III\Source\os_q.c ****     }
 579:C:\Micrium\Software\uCOS-III\Source\os_q.c **** #endif
 580:C:\Micrium\Software\uCOS-III\Source\os_q.c **** 
 581:C:\Micrium\Software\uCOS-III\Source\os_q.c **** #if OS_CFG_ARG_CHK_EN > 0u
 582:C:\Micrium\Software\uCOS-III\Source\os_q.c ****     if (p_q == (OS_Q *)0) {                                 /* Validate 'p_q'                      
 796              		.loc 1 582 0
 797 0030 FB68     		ldr	r3, [r7, #12]
 798 0032 002B     		cmp	r3, #0
 799 0034 06D1     		bne	.L56
 583:C:\Micrium\Software\uCOS-III\Source\os_q.c ****        *p_err =  OS_ERR_OBJ_PTR_NULL;
 800              		.loc 1 583 0
 801 0036 7B68     		ldr	r3, [r7, #4]
 802 0038 45F6C352 		movw	r2, #24003
 803 003c 1A80     		strh	r2, [r3, #0]	@ movhi
 584:C:\Micrium\Software\uCOS-III\Source\os_q.c ****         return ((OS_OBJ_QTY)0u);
 804              		.loc 1 584 0
 805 003e 4FF00003 		mov	r3, #0
 806 0042 5BE0     		b	.L55
 807              	.L56:
 585:C:\Micrium\Software\uCOS-III\Source\os_q.c ****     }
 586:C:\Micrium\Software\uCOS-III\Source\os_q.c ****     switch (opt) {                                          /* Validate 'opt'                      
 808              		.loc 1 586 0
 809 0044 7B89     		ldrh	r3, [r7, #10]
 810 0046 B3F5807F 		cmp	r3, #256
 811 004a 0BD0     		beq	.L58
 812 004c B3F5807F 		cmp	r3, #256
 813 0050 02DC     		bgt	.L59
 814 0052 002B     		cmp	r3, #0
 815 0054 06D0     		beq	.L58
 816 0056 12E0     		b	.L57
 817              	.L59:
 818 0058 B3F5004F 		cmp	r3, #32768
 819 005c 02D0     		beq	.L58
 820 005e B3F5014F 		cmp	r3, #33024
 821 0062 0CD1     		bne	.L57
 822              	.L58:
 587:C:\Micrium\Software\uCOS-III\Source\os_q.c ****         case OS_OPT_PEND_ABORT_1:
 588:C:\Micrium\Software\uCOS-III\Source\os_q.c ****         case OS_OPT_PEND_ABORT_ALL:
 589:C:\Micrium\Software\uCOS-III\Source\os_q.c ****         case OS_OPT_PEND_ABORT_1   | OS_OPT_POST_NO_SCHED:
 590:C:\Micrium\Software\uCOS-III\Source\os_q.c ****         case OS_OPT_PEND_ABORT_ALL | OS_OPT_POST_NO_SCHED:
 591:C:\Micrium\Software\uCOS-III\Source\os_q.c ****              break;
 592:C:\Micrium\Software\uCOS-III\Source\os_q.c **** 
 593:C:\Micrium\Software\uCOS-III\Source\os_q.c ****         default:
 594:C:\Micrium\Software\uCOS-III\Source\os_q.c ****             *p_err =  OS_ERR_OPT_INVALID;
 595:C:\Micrium\Software\uCOS-III\Source\os_q.c ****              return ((OS_OBJ_QTY)0u);
 596:C:\Micrium\Software\uCOS-III\Source\os_q.c ****     }
 597:C:\Micrium\Software\uCOS-III\Source\os_q.c **** #endif
 598:C:\Micrium\Software\uCOS-III\Source\os_q.c **** 
 599:C:\Micrium\Software\uCOS-III\Source\os_q.c **** #if OS_CFG_OBJ_TYPE_CHK_EN > 0u
ARM GAS  C:\Users\daniel01\AppData\Local\Temp\cccGTwC2.s 			page 26


 600:C:\Micrium\Software\uCOS-III\Source\os_q.c ****     if (p_q->Type != OS_OBJ_TYPE_Q) {                       /* Make sure queue was created         
 601:C:\Micrium\Software\uCOS-III\Source\os_q.c ****        *p_err =  OS_ERR_OBJ_TYPE;
 602:C:\Micrium\Software\uCOS-III\Source\os_q.c ****         return ((OS_OBJ_QTY)0u);
 603:C:\Micrium\Software\uCOS-III\Source\os_q.c ****     }
 604:C:\Micrium\Software\uCOS-III\Source\os_q.c **** #endif
 605:C:\Micrium\Software\uCOS-III\Source\os_q.c **** 
 606:C:\Micrium\Software\uCOS-III\Source\os_q.c ****     CPU_CRITICAL_ENTER();
 823              		.loc 1 606 0
 824 0064 FFF7FEFF 		bl	CPU_SR_Save
 825 0068 0346     		mov	r3, r0
 826 006a 7B62     		str	r3, [r7, #36]
 607:C:\Micrium\Software\uCOS-III\Source\os_q.c ****     p_pend_list = &p_q->PendList;
 827              		.loc 1 607 0
 828 006c FB68     		ldr	r3, [r7, #12]
 829 006e 03F10803 		add	r3, r3, #8
 830 0072 7B61     		str	r3, [r7, #20]
 608:C:\Micrium\Software\uCOS-III\Source\os_q.c ****     if (p_pend_list->NbrEntries == (OS_OBJ_QTY)0u) {        /* Any task waiting on queue?          
 831              		.loc 1 608 0
 832 0074 7B69     		ldr	r3, [r7, #20]
 833 0076 1B89     		ldrh	r3, [r3, #8]
 834 0078 002B     		cmp	r3, #0
 835 007a 07D0     		beq	.L60
 836 007c 10E0     		b	.L67
 837              	.L57:
 838              		.loc 1 594 0
 839 007e 7B68     		ldr	r3, [r7, #4]
 840 0080 45F62562 		movw	r2, #24101
 841 0084 1A80     		strh	r2, [r3, #0]	@ movhi
 842              		.loc 1 595 0
 843 0086 4FF00003 		mov	r3, #0
 844 008a 37E0     		b	.L55
 845              	.L60:
 609:C:\Micrium\Software\uCOS-III\Source\os_q.c ****         CPU_CRITICAL_EXIT();                                /* No                                  
 846              		.loc 1 609 0
 847 008c 786A     		ldr	r0, [r7, #36]
 848 008e FFF7FEFF 		bl	CPU_SR_Restore
 610:C:\Micrium\Software\uCOS-III\Source\os_q.c ****        *p_err =  OS_ERR_PEND_ABORT_NONE;
 849              		.loc 1 610 0
 850 0092 7B68     		ldr	r3, [r7, #4]
 851 0094 46F2AB12 		movw	r2, #25003
 852 0098 1A80     		strh	r2, [r3, #0]	@ movhi
 611:C:\Micrium\Software\uCOS-III\Source\os_q.c ****         return ((OS_OBJ_QTY)0u);
 853              		.loc 1 611 0
 854 009a 4FF00003 		mov	r3, #0
 855 009e 2DE0     		b	.L55
 856              	.L67:
 612:C:\Micrium\Software\uCOS-III\Source\os_q.c ****     }
 613:C:\Micrium\Software\uCOS-III\Source\os_q.c **** 
 614:C:\Micrium\Software\uCOS-III\Source\os_q.c ****     OS_CRITICAL_ENTER_CPU_EXIT();
 615:C:\Micrium\Software\uCOS-III\Source\os_q.c ****     nbr_tasks = 0u;
 857              		.loc 1 615 0
 858 00a0 4FF00003 		mov	r3, #0
 859 00a4 7B84     		strh	r3, [r7, #34]	@ movhi
 616:C:\Micrium\Software\uCOS-III\Source\os_q.c ****     ts        = OS_TS_GET();                                /* Get local time stamp so all tasks ge
 860              		.loc 1 616 0
 861 00a6 FFF7FEFF 		bl	CPU_TS_TmrRd
 862 00aa 0346     		mov	r3, r0
ARM GAS  C:\Users\daniel01\AppData\Local\Temp\cccGTwC2.s 			page 27


 863 00ac FB61     		str	r3, [r7, #28]
 617:C:\Micrium\Software\uCOS-III\Source\os_q.c ****     while (p_pend_list->NbrEntries > (OS_OBJ_QTY)0u) {
 864              		.loc 1 617 0
 865 00ae 11E0     		b	.L62
 866              	.L64:
 618:C:\Micrium\Software\uCOS-III\Source\os_q.c ****         p_tcb = p_pend_list->HeadPtr->TCBPtr;
 867              		.loc 1 618 0
 868 00b0 7B69     		ldr	r3, [r7, #20]
 869 00b2 1B68     		ldr	r3, [r3, #0]
 870 00b4 9B68     		ldr	r3, [r3, #8]
 871 00b6 BB61     		str	r3, [r7, #24]
 619:C:\Micrium\Software\uCOS-III\Source\os_q.c ****         OS_PendAbort((OS_PEND_OBJ *)((void *)p_q),
 872              		.loc 1 619 0
 873 00b8 FB68     		ldr	r3, [r7, #12]
 874 00ba 1846     		mov	r0, r3
 875 00bc B969     		ldr	r1, [r7, #24]
 876 00be FA69     		ldr	r2, [r7, #28]
 877 00c0 FFF7FEFF 		bl	OS_PendAbort
 620:C:\Micrium\Software\uCOS-III\Source\os_q.c ****                      p_tcb,
 621:C:\Micrium\Software\uCOS-III\Source\os_q.c ****                      ts);
 622:C:\Micrium\Software\uCOS-III\Source\os_q.c ****         nbr_tasks++;
 878              		.loc 1 622 0
 879 00c4 7B8C     		ldrh	r3, [r7, #34]	@ movhi
 880 00c6 03F10103 		add	r3, r3, #1
 881 00ca 7B84     		strh	r3, [r7, #34]	@ movhi
 623:C:\Micrium\Software\uCOS-III\Source\os_q.c ****         if (opt != OS_OPT_PEND_ABORT_ALL) {                 /* Pend abort all tasks waiting?       
 882              		.loc 1 623 0
 883 00cc 7B89     		ldrh	r3, [r7, #10]
 884 00ce B3F5807F 		cmp	r3, #256
 885 00d2 04D1     		bne	.L68
 886              	.L62:
 887              		.loc 1 617 0
 888 00d4 7B69     		ldr	r3, [r7, #20]
 889 00d6 1B89     		ldrh	r3, [r3, #8]
 890 00d8 002B     		cmp	r3, #0
 891 00da E9D1     		bne	.L64
 892 00dc 00E0     		b	.L63
 893              	.L68:
 624:C:\Micrium\Software\uCOS-III\Source\os_q.c ****             break;                                          /* No                                  
 894              		.loc 1 624 0
 895 00de 00BF     		nop
 896              	.L63:
 625:C:\Micrium\Software\uCOS-III\Source\os_q.c ****         }
 626:C:\Micrium\Software\uCOS-III\Source\os_q.c ****     }
 627:C:\Micrium\Software\uCOS-III\Source\os_q.c ****     OS_CRITICAL_EXIT_NO_SCHED();
 897              		.loc 1 627 0
 898 00e0 786A     		ldr	r0, [r7, #36]
 899 00e2 FFF7FEFF 		bl	CPU_SR_Restore
 628:C:\Micrium\Software\uCOS-III\Source\os_q.c **** 
 629:C:\Micrium\Software\uCOS-III\Source\os_q.c ****     if ((opt & OS_OPT_POST_NO_SCHED) == (OS_OPT)0u) {
 900              		.loc 1 629 0
 901 00e6 7B89     		ldrh	r3, [r7, #10]
 902 00e8 1BB2     		sxth	r3, r3
 903 00ea 002B     		cmp	r3, #0
 904 00ec 01DB     		blt	.L65
 630:C:\Micrium\Software\uCOS-III\Source\os_q.c ****         OSSched();                                          /* Run the scheduler                   
 905              		.loc 1 630 0
ARM GAS  C:\Users\daniel01\AppData\Local\Temp\cccGTwC2.s 			page 28


 906 00ee FFF7FEFF 		bl	OSSched
 907              	.L65:
 631:C:\Micrium\Software\uCOS-III\Source\os_q.c ****     }
 632:C:\Micrium\Software\uCOS-III\Source\os_q.c **** 
 633:C:\Micrium\Software\uCOS-III\Source\os_q.c ****    *p_err = OS_ERR_NONE;
 908              		.loc 1 633 0
 909 00f2 7B68     		ldr	r3, [r7, #4]
 910 00f4 4FF00002 		mov	r2, #0
 911 00f8 1A80     		strh	r2, [r3, #0]	@ movhi
 634:C:\Micrium\Software\uCOS-III\Source\os_q.c ****     return (nbr_tasks);
 912              		.loc 1 634 0
 913 00fa 7B8C     		ldrh	r3, [r7, #34]
 914              	.L55:
 635:C:\Micrium\Software\uCOS-III\Source\os_q.c **** }
 915              		.loc 1 635 0
 916 00fc 1846     		mov	r0, r3
 917 00fe 07F12807 		add	r7, r7, #40
 918 0102 BD46     		mov	sp, r7
 919 0104 80BD     		pop	{r7, pc}
 920              		.cfi_endproc
 921              	.LFE4:
 922              		.size	OSQPendAbort, .-OSQPendAbort
 923 0106 00BF     		.section	.text.OSQPost,"ax",%progbits
 924              		.align	2
 925              		.global	OSQPost
 926              		.thumb
 927              		.thumb_func
 928              		.type	OSQPost, %function
 929              	OSQPost:
 930              	.LFB5:
 636:C:\Micrium\Software\uCOS-III\Source\os_q.c **** #endif
 637:C:\Micrium\Software\uCOS-III\Source\os_q.c **** 
 638:C:\Micrium\Software\uCOS-III\Source\os_q.c **** /*$PAGE*/
 639:C:\Micrium\Software\uCOS-III\Source\os_q.c **** /*
 640:C:\Micrium\Software\uCOS-III\Source\os_q.c **** ***************************************************************************************************
 641:C:\Micrium\Software\uCOS-III\Source\os_q.c **** *                                               POST MESSAGE TO A QUEUE
 642:C:\Micrium\Software\uCOS-III\Source\os_q.c **** *
 643:C:\Micrium\Software\uCOS-III\Source\os_q.c **** * Description: This function sends a message to a queue.  With the 'opt' argument, you can specify 
 644:C:\Micrium\Software\uCOS-III\Source\os_q.c **** *              is broadcast to all waiting tasks and/or whether you post the message to the front o
 645:C:\Micrium\Software\uCOS-III\Source\os_q.c **** *              or normally (FIFO) at the end of the queue.
 646:C:\Micrium\Software\uCOS-III\Source\os_q.c **** *
 647:C:\Micrium\Software\uCOS-III\Source\os_q.c **** * Arguments  : p_q           is a pointer to a message queue that must have been created by OSQCrea
 648:C:\Micrium\Software\uCOS-III\Source\os_q.c **** *
 649:C:\Micrium\Software\uCOS-III\Source\os_q.c **** *              p_void        is a pointer to the message to send.
 650:C:\Micrium\Software\uCOS-III\Source\os_q.c **** *
 651:C:\Micrium\Software\uCOS-III\Source\os_q.c **** *              msg_size      specifies the size of the message (in bytes)
 652:C:\Micrium\Software\uCOS-III\Source\os_q.c **** *
 653:C:\Micrium\Software\uCOS-III\Source\os_q.c **** *              opt           determines the type of POST performed:
 654:C:\Micrium\Software\uCOS-III\Source\os_q.c **** *
 655:C:\Micrium\Software\uCOS-III\Source\os_q.c **** *                                OS_OPT_POST_ALL          POST to ALL tasks that are waiting on the
 656:C:\Micrium\Software\uCOS-III\Source\os_q.c **** *                                                         can be added to either OS_OPT_POST_FIFO o
 657:C:\Micrium\Software\uCOS-III\Source\os_q.c **** *                                OS_OPT_POST_FIFO         POST message to end of queue (FIFO) and w
 658:C:\Micrium\Software\uCOS-III\Source\os_q.c **** *                                                         waiting task.
 659:C:\Micrium\Software\uCOS-III\Source\os_q.c **** *                                OS_OPT_POST_LIFO         POST message to the front of the queue (L
 660:C:\Micrium\Software\uCOS-III\Source\os_q.c **** *                                                         a single waiting task.
 661:C:\Micrium\Software\uCOS-III\Source\os_q.c **** *                                OS_OPT_POST_NO_SCHED     Do not call the scheduler
 662:C:\Micrium\Software\uCOS-III\Source\os_q.c **** *
ARM GAS  C:\Users\daniel01\AppData\Local\Temp\cccGTwC2.s 			page 29


 663:C:\Micrium\Software\uCOS-III\Source\os_q.c **** *                            Note(s): 1) OS_OPT_POST_NO_SCHED can be added (or OR'd) with one of th
 664:C:\Micrium\Software\uCOS-III\Source\os_q.c **** *                                     2) OS_OPT_POST_ALL      can be added (or OR'd) with one of th
 665:C:\Micrium\Software\uCOS-III\Source\os_q.c **** *                                     3) Possible combination of options are:
 666:C:\Micrium\Software\uCOS-III\Source\os_q.c **** *
 667:C:\Micrium\Software\uCOS-III\Source\os_q.c **** *                                        OS_OPT_POST_FIFO
 668:C:\Micrium\Software\uCOS-III\Source\os_q.c **** *                                        OS_OPT_POST_LIFO
 669:C:\Micrium\Software\uCOS-III\Source\os_q.c **** *                                        OS_OPT_POST_FIFO + OS_OPT_POST_ALL
 670:C:\Micrium\Software\uCOS-III\Source\os_q.c **** *                                        OS_OPT_POST_LIFO + OS_OPT_POST_ALL
 671:C:\Micrium\Software\uCOS-III\Source\os_q.c **** *                                        OS_OPT_POST_FIFO + OS_OPT_POST_NO_SCHED
 672:C:\Micrium\Software\uCOS-III\Source\os_q.c **** *                                        OS_OPT_POST_LIFO + OS_OPT_POST_NO_SCHED
 673:C:\Micrium\Software\uCOS-III\Source\os_q.c **** *                                        OS_OPT_POST_FIFO + OS_OPT_POST_ALL + OS_OPT_POST_NO_SCHED
 674:C:\Micrium\Software\uCOS-III\Source\os_q.c **** *                                        OS_OPT_POST_LIFO + OS_OPT_POST_ALL + OS_OPT_POST_NO_SCHED
 675:C:\Micrium\Software\uCOS-III\Source\os_q.c **** *
 676:C:\Micrium\Software\uCOS-III\Source\os_q.c **** *              p_err         is a pointer to a variable that will contain an error code returned by
 677:C:\Micrium\Software\uCOS-III\Source\os_q.c **** *
 678:C:\Micrium\Software\uCOS-III\Source\os_q.c **** *                                OS_ERR_NONE            The call was successful and the message was
 679:C:\Micrium\Software\uCOS-III\Source\os_q.c **** *                                OS_ERR_MSG_POOL_EMPTY  If there are no more OS_MSGs to use to plac
 680:C:\Micrium\Software\uCOS-III\Source\os_q.c **** *                                OS_ERR_OBJ_PTR_NULL    If 'p_q' is a NULL pointer
 681:C:\Micrium\Software\uCOS-III\Source\os_q.c **** *                                OS_ERR_OBJ_TYPE        If the message queue was not initialized
 682:C:\Micrium\Software\uCOS-III\Source\os_q.c **** *                                OS_ERR_Q_MAX           If the queue is full
 683:C:\Micrium\Software\uCOS-III\Source\os_q.c **** *
 684:C:\Micrium\Software\uCOS-III\Source\os_q.c **** * Returns    : None
 685:C:\Micrium\Software\uCOS-III\Source\os_q.c **** ***************************************************************************************************
 686:C:\Micrium\Software\uCOS-III\Source\os_q.c **** */
 687:C:\Micrium\Software\uCOS-III\Source\os_q.c **** 
 688:C:\Micrium\Software\uCOS-III\Source\os_q.c **** void  OSQPost (OS_Q         *p_q,
 689:C:\Micrium\Software\uCOS-III\Source\os_q.c ****                void         *p_void,
 690:C:\Micrium\Software\uCOS-III\Source\os_q.c ****                OS_MSG_SIZE   msg_size,
 691:C:\Micrium\Software\uCOS-III\Source\os_q.c ****                OS_OPT        opt,
 692:C:\Micrium\Software\uCOS-III\Source\os_q.c ****                OS_ERR       *p_err)
 693:C:\Micrium\Software\uCOS-III\Source\os_q.c **** {
 931              		.loc 1 693 0
 932              		.cfi_startproc
 933              		@ args = 4, pretend = 0, frame = 24
 934              		@ frame_needed = 1, uses_anonymous_args = 0
 935 0000 80B5     		push	{r7, lr}
 936              	.LCFI15:
 937              		.cfi_def_cfa_offset 8
 938 0002 88B0     		sub	sp, sp, #32
 939              	.LCFI16:
 940              		.cfi_def_cfa_offset 40
 941 0004 02AF     		add	r7, sp, #8
 942              		.cfi_offset 14, -4
 943              		.cfi_offset 7, -8
 944              	.LCFI17:
 945              		.cfi_def_cfa 7, 32
 946 0006 F860     		str	r0, [r7, #12]
 947 0008 B960     		str	r1, [r7, #8]
 948 000a FA80     		strh	r2, [r7, #6]	@ movhi
 949 000c BB80     		strh	r3, [r7, #4]	@ movhi
 694:C:\Micrium\Software\uCOS-III\Source\os_q.c ****     CPU_TS  ts;
 695:C:\Micrium\Software\uCOS-III\Source\os_q.c **** 
 696:C:\Micrium\Software\uCOS-III\Source\os_q.c **** 
 697:C:\Micrium\Software\uCOS-III\Source\os_q.c **** 
 698:C:\Micrium\Software\uCOS-III\Source\os_q.c **** #ifdef OS_SAFETY_CRITICAL
 699:C:\Micrium\Software\uCOS-III\Source\os_q.c ****     if (p_err == (OS_ERR *)0) {
 700:C:\Micrium\Software\uCOS-III\Source\os_q.c ****         OS_SAFETY_CRITICAL_EXCEPTION();
ARM GAS  C:\Users\daniel01\AppData\Local\Temp\cccGTwC2.s 			page 30


 701:C:\Micrium\Software\uCOS-III\Source\os_q.c ****         return;
 702:C:\Micrium\Software\uCOS-III\Source\os_q.c ****     }
 703:C:\Micrium\Software\uCOS-III\Source\os_q.c **** #endif
 704:C:\Micrium\Software\uCOS-III\Source\os_q.c **** 
 705:C:\Micrium\Software\uCOS-III\Source\os_q.c **** #if OS_CFG_ARG_CHK_EN > 0u
 706:C:\Micrium\Software\uCOS-III\Source\os_q.c ****     if (p_q == (OS_Q *)0) {                                 /* Validate 'p_q'                      
 950              		.loc 1 706 0
 951 000e FB68     		ldr	r3, [r7, #12]
 952 0010 002B     		cmp	r3, #0
 953 0012 04D1     		bne	.L70
 707:C:\Micrium\Software\uCOS-III\Source\os_q.c ****        *p_err = OS_ERR_OBJ_PTR_NULL;
 954              		.loc 1 707 0
 955 0014 3B6A     		ldr	r3, [r7, #32]
 956 0016 45F6C352 		movw	r2, #24003
 957 001a 1A80     		strh	r2, [r3, #0]	@ movhi
 708:C:\Micrium\Software\uCOS-III\Source\os_q.c ****         return;
 958              		.loc 1 708 0
 959 001c 35E0     		b	.L76
 960              	.L70:
 709:C:\Micrium\Software\uCOS-III\Source\os_q.c ****     }
 710:C:\Micrium\Software\uCOS-III\Source\os_q.c ****     switch (opt) {                                          /* Validate 'opt'                      
 961              		.loc 1 710 0
 962 001e BB88     		ldrh	r3, [r7, #4]
 963 0020 B3F5047F 		cmp	r3, #528
 964 0024 1DD0     		beq	.L73
 965 0026 B3F5047F 		cmp	r3, #528
 966 002a 07DC     		bgt	.L74
 967 002c 102B     		cmp	r3, #16
 968 002e 18D0     		beq	.L73
 969 0030 B3F5007F 		cmp	r3, #512
 970 0034 15D0     		beq	.L73
 971 0036 002B     		cmp	r3, #0
 972 0038 13D0     		beq	.L73
 973 003a 21E0     		b	.L72
 974              	.L74:
 975 003c 48F21002 		movw	r2, #32784
 976 0040 9342     		cmp	r3, r2
 977 0042 0ED0     		beq	.L73
 978 0044 48F21002 		movw	r2, #32784
 979 0048 9342     		cmp	r3, r2
 980 004a 03DC     		bgt	.L75
 981 004c B3F5004F 		cmp	r3, #32768
 982 0050 07D0     		beq	.L73
 983 0052 15E0     		b	.L72
 984              	.L75:
 985 0054 B3F5024F 		cmp	r3, #33280
 986 0058 03D0     		beq	.L73
 987 005a 48F21022 		movw	r2, #33296
 988 005e 9342     		cmp	r3, r2
 989 0060 0ED1     		bne	.L72
 990              	.L73:
 711:C:\Micrium\Software\uCOS-III\Source\os_q.c ****         case OS_OPT_POST_FIFO:
 712:C:\Micrium\Software\uCOS-III\Source\os_q.c ****         case OS_OPT_POST_LIFO:
 713:C:\Micrium\Software\uCOS-III\Source\os_q.c ****         case OS_OPT_POST_FIFO | OS_OPT_POST_ALL:
 714:C:\Micrium\Software\uCOS-III\Source\os_q.c ****         case OS_OPT_POST_LIFO | OS_OPT_POST_ALL:
 715:C:\Micrium\Software\uCOS-III\Source\os_q.c ****         case OS_OPT_POST_FIFO | OS_OPT_POST_NO_SCHED:
 716:C:\Micrium\Software\uCOS-III\Source\os_q.c ****         case OS_OPT_POST_LIFO | OS_OPT_POST_NO_SCHED:
ARM GAS  C:\Users\daniel01\AppData\Local\Temp\cccGTwC2.s 			page 31


 717:C:\Micrium\Software\uCOS-III\Source\os_q.c ****         case OS_OPT_POST_FIFO | OS_OPT_POST_ALL | OS_OPT_POST_NO_SCHED:
 718:C:\Micrium\Software\uCOS-III\Source\os_q.c ****         case OS_OPT_POST_LIFO | OS_OPT_POST_ALL | OS_OPT_POST_NO_SCHED:
 719:C:\Micrium\Software\uCOS-III\Source\os_q.c ****              break;
 720:C:\Micrium\Software\uCOS-III\Source\os_q.c **** 
 721:C:\Micrium\Software\uCOS-III\Source\os_q.c ****         default:
 722:C:\Micrium\Software\uCOS-III\Source\os_q.c ****             *p_err =  OS_ERR_OPT_INVALID;
 723:C:\Micrium\Software\uCOS-III\Source\os_q.c ****              return;
 724:C:\Micrium\Software\uCOS-III\Source\os_q.c ****     }
 725:C:\Micrium\Software\uCOS-III\Source\os_q.c **** #endif
 726:C:\Micrium\Software\uCOS-III\Source\os_q.c **** 
 727:C:\Micrium\Software\uCOS-III\Source\os_q.c **** #if OS_CFG_OBJ_TYPE_CHK_EN > 0u
 728:C:\Micrium\Software\uCOS-III\Source\os_q.c ****     if (p_q->Type != OS_OBJ_TYPE_Q) {                       /* Make sure message queue was created 
 729:C:\Micrium\Software\uCOS-III\Source\os_q.c ****        *p_err = OS_ERR_OBJ_TYPE;
 730:C:\Micrium\Software\uCOS-III\Source\os_q.c ****         return;
 731:C:\Micrium\Software\uCOS-III\Source\os_q.c ****     }
 732:C:\Micrium\Software\uCOS-III\Source\os_q.c **** #endif
 733:C:\Micrium\Software\uCOS-III\Source\os_q.c **** 
 734:C:\Micrium\Software\uCOS-III\Source\os_q.c ****     ts = OS_TS_GET();                                       /* Get timestamp                       
 991              		.loc 1 734 0
 992 0062 FFF7FEFF 		bl	CPU_TS_TmrRd
 993 0066 0346     		mov	r3, r0
 994 0068 7B61     		str	r3, [r7, #20]
 735:C:\Micrium\Software\uCOS-III\Source\os_q.c **** 
 736:C:\Micrium\Software\uCOS-III\Source\os_q.c **** #if OS_CFG_ISR_POST_DEFERRED_EN > 0u
 737:C:\Micrium\Software\uCOS-III\Source\os_q.c ****     if (OSIntNestingCtr > (OS_NESTING_CTR)0) {
 738:C:\Micrium\Software\uCOS-III\Source\os_q.c ****         OS_IntQPost((OS_OBJ_TYPE)OS_OBJ_TYPE_Q,             /* Post to ISR queue                   
 739:C:\Micrium\Software\uCOS-III\Source\os_q.c ****                     (void      *)p_q,
 740:C:\Micrium\Software\uCOS-III\Source\os_q.c ****                     (void      *)p_void,
 741:C:\Micrium\Software\uCOS-III\Source\os_q.c ****                     (OS_MSG_SIZE)msg_size,
 742:C:\Micrium\Software\uCOS-III\Source\os_q.c ****                     (OS_FLAGS   )0,
 743:C:\Micrium\Software\uCOS-III\Source\os_q.c ****                     (OS_OPT     )opt,
 744:C:\Micrium\Software\uCOS-III\Source\os_q.c ****                     (CPU_TS     )ts,
 745:C:\Micrium\Software\uCOS-III\Source\os_q.c ****                     (OS_ERR    *)p_err);
 746:C:\Micrium\Software\uCOS-III\Source\os_q.c ****         return;
 747:C:\Micrium\Software\uCOS-III\Source\os_q.c ****     }
 748:C:\Micrium\Software\uCOS-III\Source\os_q.c **** #endif
 749:C:\Micrium\Software\uCOS-III\Source\os_q.c **** 
 750:C:\Micrium\Software\uCOS-III\Source\os_q.c ****     OS_QPost(p_q,
 995              		.loc 1 750 0
 996 006a FA88     		ldrh	r2, [r7, #6]
 997 006c BB88     		ldrh	r3, [r7, #4]
 998 006e 7969     		ldr	r1, [r7, #20]
 999 0070 0091     		str	r1, [sp, #0]
 1000 0072 396A     		ldr	r1, [r7, #32]
 1001 0074 0191     		str	r1, [sp, #4]
 1002 0076 F868     		ldr	r0, [r7, #12]
 1003 0078 B968     		ldr	r1, [r7, #8]
 1004 007a FFF7FEFF 		bl	OS_QPost
 1005 007e 04E0     		b	.L76
 1006              	.L72:
 1007              		.loc 1 722 0
 1008 0080 3B6A     		ldr	r3, [r7, #32]
 1009 0082 45F62562 		movw	r2, #24101
 1010 0086 1A80     		strh	r2, [r3, #0]	@ movhi
 1011              		.loc 1 723 0
 1012 0088 00BF     		nop
 1013              	.L76:
ARM GAS  C:\Users\daniel01\AppData\Local\Temp\cccGTwC2.s 			page 32


 751:C:\Micrium\Software\uCOS-III\Source\os_q.c ****              p_void,
 752:C:\Micrium\Software\uCOS-III\Source\os_q.c ****              msg_size,
 753:C:\Micrium\Software\uCOS-III\Source\os_q.c ****              opt,
 754:C:\Micrium\Software\uCOS-III\Source\os_q.c ****              ts,
 755:C:\Micrium\Software\uCOS-III\Source\os_q.c ****              p_err);
 756:C:\Micrium\Software\uCOS-III\Source\os_q.c **** }
 1014              		.loc 1 756 0
 1015 008a 07F11807 		add	r7, r7, #24
 1016 008e BD46     		mov	sp, r7
 1017 0090 80BD     		pop	{r7, pc}
 1018              		.cfi_endproc
 1019              	.LFE5:
 1020              		.size	OSQPost, .-OSQPost
 1021 0092 00BF     		.section	.rodata
 1022              		.align	2
 1023              	.LC0:
 1024 0000 3F5100   		.ascii	"?Q\000"
 1025              		.section	.text.OS_QClr,"ax",%progbits
 1026              		.align	2
 1027              		.global	OS_QClr
 1028              		.thumb
 1029              		.thumb_func
 1030              		.type	OS_QClr, %function
 1031              	OS_QClr:
 1032              	.LFB6:
 757:C:\Micrium\Software\uCOS-III\Source\os_q.c **** 
 758:C:\Micrium\Software\uCOS-III\Source\os_q.c **** /*$PAGE*/
 759:C:\Micrium\Software\uCOS-III\Source\os_q.c **** /*
 760:C:\Micrium\Software\uCOS-III\Source\os_q.c **** ***************************************************************************************************
 761:C:\Micrium\Software\uCOS-III\Source\os_q.c **** *                                        CLEAR THE CONTENTS OF A MESSAGE QUEUE
 762:C:\Micrium\Software\uCOS-III\Source\os_q.c **** *
 763:C:\Micrium\Software\uCOS-III\Source\os_q.c **** * Description: This function is called by OSQDel() to clear the contents of a message queue
 764:C:\Micrium\Software\uCOS-III\Source\os_q.c **** *
 765:C:\Micrium\Software\uCOS-III\Source\os_q.c **** 
 766:C:\Micrium\Software\uCOS-III\Source\os_q.c **** * Argument(s): p_q      is a pointer to the queue to clear
 767:C:\Micrium\Software\uCOS-III\Source\os_q.c **** *              ---
 768:C:\Micrium\Software\uCOS-III\Source\os_q.c **** *
 769:C:\Micrium\Software\uCOS-III\Source\os_q.c **** * Returns    : none
 770:C:\Micrium\Software\uCOS-III\Source\os_q.c **** *
 771:C:\Micrium\Software\uCOS-III\Source\os_q.c **** * Note(s)    : 1) This function is INTERNAL to uC/OS-III and your application MUST NOT call it.
 772:C:\Micrium\Software\uCOS-III\Source\os_q.c **** ***************************************************************************************************
 773:C:\Micrium\Software\uCOS-III\Source\os_q.c **** */
 774:C:\Micrium\Software\uCOS-III\Source\os_q.c **** 
 775:C:\Micrium\Software\uCOS-III\Source\os_q.c **** void  OS_QClr (OS_Q  *p_q)
 776:C:\Micrium\Software\uCOS-III\Source\os_q.c **** {
 1033              		.loc 1 776 0
 1034              		.cfi_startproc
 1035              		@ args = 0, pretend = 0, frame = 8
 1036              		@ frame_needed = 1, uses_anonymous_args = 0
 1037 0000 80B5     		push	{r7, lr}
 1038              	.LCFI18:
 1039              		.cfi_def_cfa_offset 8
 1040 0002 82B0     		sub	sp, sp, #8
 1041              	.LCFI19:
 1042              		.cfi_def_cfa_offset 16
 1043 0004 00AF     		add	r7, sp, #0
 1044              		.cfi_offset 14, -4
ARM GAS  C:\Users\daniel01\AppData\Local\Temp\cccGTwC2.s 			page 33


 1045              		.cfi_offset 7, -8
 1046              	.LCFI20:
 1047              		.cfi_def_cfa_register 7
 1048 0006 7860     		str	r0, [r7, #4]
 777:C:\Micrium\Software\uCOS-III\Source\os_q.c ****     (void)OS_MsgQFreeAll(&p_q->MsgQ);                       /* Return all OS_MSGs to the free list 
 1049              		.loc 1 777 0
 1050 0008 7B68     		ldr	r3, [r7, #4]
 1051 000a 03F12003 		add	r3, r3, #32
 1052 000e 1846     		mov	r0, r3
 1053 0010 FFF7FEFF 		bl	OS_MsgQFreeAll
 778:C:\Micrium\Software\uCOS-III\Source\os_q.c ****     p_q->Type    =  OS_OBJ_TYPE_NONE;                       /* Mark the data structure as a NONE   
 1054              		.loc 1 778 0
 1055 0014 7A68     		ldr	r2, [r7, #4]
 1056 0016 44F64E73 		movw	r3, #:lower16:1162760014
 1057 001a C4F24E53 		movt	r3, #:upper16:1162760014
 1058 001e 1360     		str	r3, [r2, #0]
 779:C:\Micrium\Software\uCOS-III\Source\os_q.c ****     p_q->NamePtr = (CPU_CHAR *)((void *)"?Q");
 1059              		.loc 1 779 0
 1060 0020 7A68     		ldr	r2, [r7, #4]
 1061 0022 40F20003 		movw	r3, #:lower16:.LC0
 1062 0026 C0F20003 		movt	r3, #:upper16:.LC0
 1063 002a 5360     		str	r3, [r2, #4]
 780:C:\Micrium\Software\uCOS-III\Source\os_q.c ****     OS_MsgQInit(&p_q->MsgQ,                                 /* Initialize the list of OS_MSGs      
 1064              		.loc 1 780 0
 1065 002c 7B68     		ldr	r3, [r7, #4]
 1066 002e 03F12003 		add	r3, r3, #32
 1067 0032 1846     		mov	r0, r3
 1068 0034 4FF00001 		mov	r1, #0
 1069 0038 FFF7FEFF 		bl	OS_MsgQInit
 781:C:\Micrium\Software\uCOS-III\Source\os_q.c ****                 0u);
 782:C:\Micrium\Software\uCOS-III\Source\os_q.c ****     OS_PendListInit(&p_q->PendList);                        /* Initialize the waiting list         
 1070              		.loc 1 782 0
 1071 003c 7B68     		ldr	r3, [r7, #4]
 1072 003e 03F10803 		add	r3, r3, #8
 1073 0042 1846     		mov	r0, r3
 1074 0044 FFF7FEFF 		bl	OS_PendListInit
 783:C:\Micrium\Software\uCOS-III\Source\os_q.c **** }
 1075              		.loc 1 783 0
 1076 0048 07F10807 		add	r7, r7, #8
 1077 004c BD46     		mov	sp, r7
 1078 004e 80BD     		pop	{r7, pc}
 1079              		.cfi_endproc
 1080              	.LFE6:
 1081              		.size	OS_QClr, .-OS_QClr
 1082              		.section	.rodata
 1083 0003 00       		.align	2
 1084              	.LC1:
 1085 0004 2000     		.ascii	" \000"
 1086 0006 0000     		.section	.text.OS_QDbgListAdd,"ax",%progbits
 1087              		.align	2
 1088              		.global	OS_QDbgListAdd
 1089              		.thumb
 1090              		.thumb_func
 1091              		.type	OS_QDbgListAdd, %function
 1092              	OS_QDbgListAdd:
 1093              	.LFB7:
 784:C:\Micrium\Software\uCOS-III\Source\os_q.c **** 
ARM GAS  C:\Users\daniel01\AppData\Local\Temp\cccGTwC2.s 			page 34


 785:C:\Micrium\Software\uCOS-III\Source\os_q.c **** /*$PAGE*/
 786:C:\Micrium\Software\uCOS-III\Source\os_q.c **** /*
 787:C:\Micrium\Software\uCOS-III\Source\os_q.c **** ***************************************************************************************************
 788:C:\Micrium\Software\uCOS-III\Source\os_q.c **** *                                      ADD/REMOVE MESSAGE QUEUE TO/FROM DEBUG LIST
 789:C:\Micrium\Software\uCOS-III\Source\os_q.c **** *
 790:C:\Micrium\Software\uCOS-III\Source\os_q.c **** * Description: These functions are called by uC/OS-III to add or remove a message queue to/from a m
 791:C:\Micrium\Software\uCOS-III\Source\os_q.c **** *              list.
 792:C:\Micrium\Software\uCOS-III\Source\os_q.c **** *
 793:C:\Micrium\Software\uCOS-III\Source\os_q.c **** * Arguments  : p_q     is a pointer to the message queue to add/remove
 794:C:\Micrium\Software\uCOS-III\Source\os_q.c **** *
 795:C:\Micrium\Software\uCOS-III\Source\os_q.c **** * Returns    : none
 796:C:\Micrium\Software\uCOS-III\Source\os_q.c **** *
 797:C:\Micrium\Software\uCOS-III\Source\os_q.c **** * Note(s)    : These functions are INTERNAL to uC/OS-III and your application should not call it.
 798:C:\Micrium\Software\uCOS-III\Source\os_q.c **** ***************************************************************************************************
 799:C:\Micrium\Software\uCOS-III\Source\os_q.c **** */
 800:C:\Micrium\Software\uCOS-III\Source\os_q.c **** 
 801:C:\Micrium\Software\uCOS-III\Source\os_q.c **** 
 802:C:\Micrium\Software\uCOS-III\Source\os_q.c **** #if OS_CFG_DBG_EN > 0u
 803:C:\Micrium\Software\uCOS-III\Source\os_q.c **** void  OS_QDbgListAdd (OS_Q  *p_q)
 804:C:\Micrium\Software\uCOS-III\Source\os_q.c **** {
 1094              		.loc 1 804 0
 1095              		.cfi_startproc
 1096              		@ args = 0, pretend = 0, frame = 8
 1097              		@ frame_needed = 1, uses_anonymous_args = 0
 1098              		@ link register save eliminated.
 1099 0000 80B4     		push	{r7}
 1100              	.LCFI21:
 1101              		.cfi_def_cfa_offset 4
 1102 0002 83B0     		sub	sp, sp, #12
 1103              	.LCFI22:
 1104              		.cfi_def_cfa_offset 16
 1105 0004 00AF     		add	r7, sp, #0
 1106              		.cfi_offset 7, -4
 1107              	.LCFI23:
 1108              		.cfi_def_cfa_register 7
 1109 0006 7860     		str	r0, [r7, #4]
 805:C:\Micrium\Software\uCOS-III\Source\os_q.c ****     p_q->DbgNamePtr               = (CPU_CHAR *)((void *)" ");
 1110              		.loc 1 805 0
 1111 0008 7A68     		ldr	r2, [r7, #4]
 1112 000a 40F20003 		movw	r3, #:lower16:.LC1
 1113 000e C0F20003 		movt	r3, #:upper16:.LC1
 1114 0012 D361     		str	r3, [r2, #28]
 806:C:\Micrium\Software\uCOS-III\Source\os_q.c ****     p_q->DbgPrevPtr               = (OS_Q     *)0;
 1115              		.loc 1 806 0
 1116 0014 7B68     		ldr	r3, [r7, #4]
 1117 0016 4FF00002 		mov	r2, #0
 1118 001a 5A61     		str	r2, [r3, #20]
 807:C:\Micrium\Software\uCOS-III\Source\os_q.c ****     if (OSQDbgListPtr == (OS_Q *)0) {
 1119              		.loc 1 807 0
 1120 001c 40F20003 		movw	r3, #:lower16:OSQDbgListPtr
 1121 0020 C0F20003 		movt	r3, #:upper16:OSQDbgListPtr
 1122 0024 1B68     		ldr	r3, [r3, #0]
 1123 0026 002B     		cmp	r3, #0
 1124 0028 04D1     		bne	.L80
 808:C:\Micrium\Software\uCOS-III\Source\os_q.c ****         p_q->DbgNextPtr           = (OS_Q     *)0;
 1125              		.loc 1 808 0
 1126 002a 7B68     		ldr	r3, [r7, #4]
ARM GAS  C:\Users\daniel01\AppData\Local\Temp\cccGTwC2.s 			page 35


 1127 002c 4FF00002 		mov	r2, #0
 1128 0030 9A61     		str	r2, [r3, #24]
 1129 0032 0DE0     		b	.L81
 1130              	.L80:
 809:C:\Micrium\Software\uCOS-III\Source\os_q.c ****     } else {
 810:C:\Micrium\Software\uCOS-III\Source\os_q.c ****         p_q->DbgNextPtr           =  OSQDbgListPtr;
 1131              		.loc 1 810 0
 1132 0034 40F20003 		movw	r3, #:lower16:OSQDbgListPtr
 1133 0038 C0F20003 		movt	r3, #:upper16:OSQDbgListPtr
 1134 003c 1A68     		ldr	r2, [r3, #0]
 1135 003e 7B68     		ldr	r3, [r7, #4]
 1136 0040 9A61     		str	r2, [r3, #24]
 811:C:\Micrium\Software\uCOS-III\Source\os_q.c ****         OSQDbgListPtr->DbgPrevPtr =  p_q;
 1137              		.loc 1 811 0
 1138 0042 40F20003 		movw	r3, #:lower16:OSQDbgListPtr
 1139 0046 C0F20003 		movt	r3, #:upper16:OSQDbgListPtr
 1140 004a 1B68     		ldr	r3, [r3, #0]
 1141 004c 7A68     		ldr	r2, [r7, #4]
 1142 004e 5A61     		str	r2, [r3, #20]
 1143              	.L81:
 812:C:\Micrium\Software\uCOS-III\Source\os_q.c ****     }
 813:C:\Micrium\Software\uCOS-III\Source\os_q.c ****     OSQDbgListPtr                 =  p_q;
 1144              		.loc 1 813 0
 1145 0050 40F20003 		movw	r3, #:lower16:OSQDbgListPtr
 1146 0054 C0F20003 		movt	r3, #:upper16:OSQDbgListPtr
 1147 0058 7A68     		ldr	r2, [r7, #4]
 1148 005a 1A60     		str	r2, [r3, #0]
 814:C:\Micrium\Software\uCOS-III\Source\os_q.c **** }
 1149              		.loc 1 814 0
 1150 005c 07F10C07 		add	r7, r7, #12
 1151 0060 BD46     		mov	sp, r7
 1152 0062 80BC     		pop	{r7}
 1153 0064 7047     		bx	lr
 1154              		.cfi_endproc
 1155              	.LFE7:
 1156              		.size	OS_QDbgListAdd, .-OS_QDbgListAdd
 1157 0066 00BF     		.section	.text.OS_QDbgListRemove,"ax",%progbits
 1158              		.align	2
 1159              		.global	OS_QDbgListRemove
 1160              		.thumb
 1161              		.thumb_func
 1162              		.type	OS_QDbgListRemove, %function
 1163              	OS_QDbgListRemove:
 1164              	.LFB8:
 815:C:\Micrium\Software\uCOS-III\Source\os_q.c **** 
 816:C:\Micrium\Software\uCOS-III\Source\os_q.c **** 
 817:C:\Micrium\Software\uCOS-III\Source\os_q.c **** 
 818:C:\Micrium\Software\uCOS-III\Source\os_q.c **** void  OS_QDbgListRemove (OS_Q  *p_q)
 819:C:\Micrium\Software\uCOS-III\Source\os_q.c **** {
 1165              		.loc 1 819 0
 1166              		.cfi_startproc
 1167              		@ args = 0, pretend = 0, frame = 16
 1168              		@ frame_needed = 1, uses_anonymous_args = 0
 1169              		@ link register save eliminated.
 1170 0000 80B4     		push	{r7}
 1171              	.LCFI24:
 1172              		.cfi_def_cfa_offset 4
ARM GAS  C:\Users\daniel01\AppData\Local\Temp\cccGTwC2.s 			page 36


 1173 0002 85B0     		sub	sp, sp, #20
 1174              	.LCFI25:
 1175              		.cfi_def_cfa_offset 24
 1176 0004 00AF     		add	r7, sp, #0
 1177              		.cfi_offset 7, -4
 1178              	.LCFI26:
 1179              		.cfi_def_cfa_register 7
 1180 0006 7860     		str	r0, [r7, #4]
 820:C:\Micrium\Software\uCOS-III\Source\os_q.c ****     OS_Q  *p_q_next;
 821:C:\Micrium\Software\uCOS-III\Source\os_q.c ****     OS_Q  *p_q_prev;
 822:C:\Micrium\Software\uCOS-III\Source\os_q.c **** 
 823:C:\Micrium\Software\uCOS-III\Source\os_q.c **** 
 824:C:\Micrium\Software\uCOS-III\Source\os_q.c ****     p_q_prev = p_q->DbgPrevPtr;
 1181              		.loc 1 824 0
 1182 0008 7B68     		ldr	r3, [r7, #4]
 1183 000a 5B69     		ldr	r3, [r3, #20]
 1184 000c FB60     		str	r3, [r7, #12]
 825:C:\Micrium\Software\uCOS-III\Source\os_q.c ****     p_q_next = p_q->DbgNextPtr;
 1185              		.loc 1 825 0
 1186 000e 7B68     		ldr	r3, [r7, #4]
 1187 0010 9B69     		ldr	r3, [r3, #24]
 1188 0012 BB60     		str	r3, [r7, #8]
 826:C:\Micrium\Software\uCOS-III\Source\os_q.c **** 
 827:C:\Micrium\Software\uCOS-III\Source\os_q.c ****     if (p_q_prev == (OS_Q *)0) {
 1189              		.loc 1 827 0
 1190 0014 FB68     		ldr	r3, [r7, #12]
 1191 0016 002B     		cmp	r3, #0
 1192 0018 11D1     		bne	.L84
 828:C:\Micrium\Software\uCOS-III\Source\os_q.c ****         OSQDbgListPtr = p_q_next;
 1193              		.loc 1 828 0
 1194 001a 40F20003 		movw	r3, #:lower16:OSQDbgListPtr
 1195 001e C0F20003 		movt	r3, #:upper16:OSQDbgListPtr
 1196 0022 BA68     		ldr	r2, [r7, #8]
 1197 0024 1A60     		str	r2, [r3, #0]
 829:C:\Micrium\Software\uCOS-III\Source\os_q.c ****         if (p_q_next != (OS_Q *)0) {
 1198              		.loc 1 829 0
 1199 0026 BB68     		ldr	r3, [r7, #8]
 1200 0028 002B     		cmp	r3, #0
 1201 002a 03D0     		beq	.L85
 830:C:\Micrium\Software\uCOS-III\Source\os_q.c ****             p_q_next->DbgPrevPtr = (OS_Q *)0;
 1202              		.loc 1 830 0
 1203 002c BB68     		ldr	r3, [r7, #8]
 1204 002e 4FF00002 		mov	r2, #0
 1205 0032 5A61     		str	r2, [r3, #20]
 1206              	.L85:
 831:C:\Micrium\Software\uCOS-III\Source\os_q.c ****         }
 832:C:\Micrium\Software\uCOS-III\Source\os_q.c ****         p_q->DbgNextPtr = (OS_Q *)0;
 1207              		.loc 1 832 0
 1208 0034 7B68     		ldr	r3, [r7, #4]
 1209 0036 4FF00002 		mov	r2, #0
 1210 003a 9A61     		str	r2, [r3, #24]
 1211 003c 19E0     		b	.L88
 1212              	.L84:
 833:C:\Micrium\Software\uCOS-III\Source\os_q.c **** 
 834:C:\Micrium\Software\uCOS-III\Source\os_q.c ****     } else if (p_q_next == (OS_Q *)0) {
 1213              		.loc 1 834 0
 1214 003e BB68     		ldr	r3, [r7, #8]
ARM GAS  C:\Users\daniel01\AppData\Local\Temp\cccGTwC2.s 			page 37


 1215 0040 002B     		cmp	r3, #0
 1216 0042 08D1     		bne	.L87
 835:C:\Micrium\Software\uCOS-III\Source\os_q.c ****         p_q_prev->DbgNextPtr = (OS_Q *)0;
 1217              		.loc 1 835 0
 1218 0044 FB68     		ldr	r3, [r7, #12]
 1219 0046 4FF00002 		mov	r2, #0
 1220 004a 9A61     		str	r2, [r3, #24]
 836:C:\Micrium\Software\uCOS-III\Source\os_q.c ****         p_q->DbgPrevPtr      = (OS_Q *)0;
 1221              		.loc 1 836 0
 1222 004c 7B68     		ldr	r3, [r7, #4]
 1223 004e 4FF00002 		mov	r2, #0
 1224 0052 5A61     		str	r2, [r3, #20]
 1225 0054 0DE0     		b	.L88
 1226              	.L87:
 837:C:\Micrium\Software\uCOS-III\Source\os_q.c **** 
 838:C:\Micrium\Software\uCOS-III\Source\os_q.c ****     } else {
 839:C:\Micrium\Software\uCOS-III\Source\os_q.c ****         p_q_prev->DbgNextPtr =  p_q_next;
 1227              		.loc 1 839 0
 1228 0056 FB68     		ldr	r3, [r7, #12]
 1229 0058 BA68     		ldr	r2, [r7, #8]
 1230 005a 9A61     		str	r2, [r3, #24]
 840:C:\Micrium\Software\uCOS-III\Source\os_q.c ****         p_q_next->DbgPrevPtr =  p_q_prev;
 1231              		.loc 1 840 0
 1232 005c BB68     		ldr	r3, [r7, #8]
 1233 005e FA68     		ldr	r2, [r7, #12]
 1234 0060 5A61     		str	r2, [r3, #20]
 841:C:\Micrium\Software\uCOS-III\Source\os_q.c ****         p_q->DbgNextPtr      = (OS_Q *)0;
 1235              		.loc 1 841 0
 1236 0062 7B68     		ldr	r3, [r7, #4]
 1237 0064 4FF00002 		mov	r2, #0
 1238 0068 9A61     		str	r2, [r3, #24]
 842:C:\Micrium\Software\uCOS-III\Source\os_q.c ****         p_q->DbgPrevPtr      = (OS_Q *)0;
 1239              		.loc 1 842 0
 1240 006a 7B68     		ldr	r3, [r7, #4]
 1241 006c 4FF00002 		mov	r2, #0
 1242 0070 5A61     		str	r2, [r3, #20]
 1243              	.L88:
 843:C:\Micrium\Software\uCOS-III\Source\os_q.c ****     }
 844:C:\Micrium\Software\uCOS-III\Source\os_q.c **** }
 1244              		.loc 1 844 0
 1245 0072 07F11407 		add	r7, r7, #20
 1246 0076 BD46     		mov	sp, r7
 1247 0078 80BC     		pop	{r7}
 1248 007a 7047     		bx	lr
 1249              		.cfi_endproc
 1250              	.LFE8:
 1251              		.size	OS_QDbgListRemove, .-OS_QDbgListRemove
 1252              		.section	.text.OS_QInit,"ax",%progbits
 1253              		.align	2
 1254              		.global	OS_QInit
 1255              		.thumb
 1256              		.thumb_func
 1257              		.type	OS_QInit, %function
 1258              	OS_QInit:
 1259              	.LFB9:
 845:C:\Micrium\Software\uCOS-III\Source\os_q.c **** #endif
 846:C:\Micrium\Software\uCOS-III\Source\os_q.c **** 
ARM GAS  C:\Users\daniel01\AppData\Local\Temp\cccGTwC2.s 			page 38


 847:C:\Micrium\Software\uCOS-III\Source\os_q.c **** /*$PAGE*/
 848:C:\Micrium\Software\uCOS-III\Source\os_q.c **** /*
 849:C:\Micrium\Software\uCOS-III\Source\os_q.c **** ***************************************************************************************************
 850:C:\Micrium\Software\uCOS-III\Source\os_q.c **** *                                              MESSAGE QUEUE INITIALIZATION
 851:C:\Micrium\Software\uCOS-III\Source\os_q.c **** *
 852:C:\Micrium\Software\uCOS-III\Source\os_q.c **** * Description: This function is called by OSInit() to initialize the message queue management.
 853:C:\Micrium\Software\uCOS-III\Source\os_q.c **** *
 854:C:\Micrium\Software\uCOS-III\Source\os_q.c **** 
 855:C:\Micrium\Software\uCOS-III\Source\os_q.c **** * Arguments  : p_err         is a pointer to a variable that will receive an error code.
 856:C:\Micrium\Software\uCOS-III\Source\os_q.c **** *
 857:C:\Micrium\Software\uCOS-III\Source\os_q.c **** *                                OS_ERR_NONE     the call was successful
 858:C:\Micrium\Software\uCOS-III\Source\os_q.c **** *
 859:C:\Micrium\Software\uCOS-III\Source\os_q.c **** * Returns    : none
 860:C:\Micrium\Software\uCOS-III\Source\os_q.c **** *
 861:C:\Micrium\Software\uCOS-III\Source\os_q.c **** * Note(s)    : 1) This function is INTERNAL to uC/OS-III and your application MUST NOT call it.
 862:C:\Micrium\Software\uCOS-III\Source\os_q.c **** ***************************************************************************************************
 863:C:\Micrium\Software\uCOS-III\Source\os_q.c **** */
 864:C:\Micrium\Software\uCOS-III\Source\os_q.c **** 
 865:C:\Micrium\Software\uCOS-III\Source\os_q.c **** void  OS_QInit (OS_ERR  *p_err)
 866:C:\Micrium\Software\uCOS-III\Source\os_q.c **** {
 1260              		.loc 1 866 0
 1261              		.cfi_startproc
 1262              		@ args = 0, pretend = 0, frame = 8
 1263              		@ frame_needed = 1, uses_anonymous_args = 0
 1264              		@ link register save eliminated.
 1265 0000 80B4     		push	{r7}
 1266              	.LCFI27:
 1267              		.cfi_def_cfa_offset 4
 1268 0002 83B0     		sub	sp, sp, #12
 1269              	.LCFI28:
 1270              		.cfi_def_cfa_offset 16
 1271 0004 00AF     		add	r7, sp, #0
 1272              		.cfi_offset 7, -4
 1273              	.LCFI29:
 1274              		.cfi_def_cfa_register 7
 1275 0006 7860     		str	r0, [r7, #4]
 867:C:\Micrium\Software\uCOS-III\Source\os_q.c **** #ifdef OS_SAFETY_CRITICAL
 868:C:\Micrium\Software\uCOS-III\Source\os_q.c ****     if (p_err == (OS_ERR *)0) {
 869:C:\Micrium\Software\uCOS-III\Source\os_q.c ****         OS_SAFETY_CRITICAL_EXCEPTION();
 870:C:\Micrium\Software\uCOS-III\Source\os_q.c ****         return;
 871:C:\Micrium\Software\uCOS-III\Source\os_q.c ****     }
 872:C:\Micrium\Software\uCOS-III\Source\os_q.c **** #endif
 873:C:\Micrium\Software\uCOS-III\Source\os_q.c **** 
 874:C:\Micrium\Software\uCOS-III\Source\os_q.c **** #if OS_CFG_DBG_EN > 0u
 875:C:\Micrium\Software\uCOS-III\Source\os_q.c ****     OSQDbgListPtr = (OS_Q *)0;
 1276              		.loc 1 875 0
 1277 0008 40F20003 		movw	r3, #:lower16:OSQDbgListPtr
 1278 000c C0F20003 		movt	r3, #:upper16:OSQDbgListPtr
 1279 0010 4FF00002 		mov	r2, #0
 1280 0014 1A60     		str	r2, [r3, #0]
 876:C:\Micrium\Software\uCOS-III\Source\os_q.c **** #endif
 877:C:\Micrium\Software\uCOS-III\Source\os_q.c **** 
 878:C:\Micrium\Software\uCOS-III\Source\os_q.c ****     OSQQty        = (OS_OBJ_QTY)0;
 1281              		.loc 1 878 0
 1282 0016 40F20003 		movw	r3, #:lower16:OSQQty
 1283 001a C0F20003 		movt	r3, #:upper16:OSQQty
 1284 001e 4FF00002 		mov	r2, #0
ARM GAS  C:\Users\daniel01\AppData\Local\Temp\cccGTwC2.s 			page 39


 1285 0022 1A80     		strh	r2, [r3, #0]	@ movhi
 879:C:\Micrium\Software\uCOS-III\Source\os_q.c ****    *p_err         = OS_ERR_NONE;
 1286              		.loc 1 879 0
 1287 0024 7B68     		ldr	r3, [r7, #4]
 1288 0026 4FF00002 		mov	r2, #0
 1289 002a 1A80     		strh	r2, [r3, #0]	@ movhi
 880:C:\Micrium\Software\uCOS-III\Source\os_q.c **** }
 1290              		.loc 1 880 0
 1291 002c 07F10C07 		add	r7, r7, #12
 1292 0030 BD46     		mov	sp, r7
 1293 0032 80BC     		pop	{r7}
 1294 0034 7047     		bx	lr
 1295              		.cfi_endproc
 1296              	.LFE9:
 1297              		.size	OS_QInit, .-OS_QInit
 1298 0036 00BF     		.section	.text.OS_QPost,"ax",%progbits
 1299              		.align	2
 1300              		.global	OS_QPost
 1301              		.thumb
 1302              		.thumb_func
 1303              		.type	OS_QPost, %function
 1304              	OS_QPost:
 1305              	.LFB10:
 881:C:\Micrium\Software\uCOS-III\Source\os_q.c **** 
 882:C:\Micrium\Software\uCOS-III\Source\os_q.c **** /*$PAGE*/
 883:C:\Micrium\Software\uCOS-III\Source\os_q.c **** /*
 884:C:\Micrium\Software\uCOS-III\Source\os_q.c **** ***************************************************************************************************
 885:C:\Micrium\Software\uCOS-III\Source\os_q.c **** *                                               POST MESSAGE TO A QUEUE
 886:C:\Micrium\Software\uCOS-III\Source\os_q.c **** *
 887:C:\Micrium\Software\uCOS-III\Source\os_q.c **** * Description: This function sends a message to a queue.  With the 'opt' argument, you can specify 
 888:C:\Micrium\Software\uCOS-III\Source\os_q.c **** *              is broadcast to all waiting tasks and/or whether you post the message to the front o
 889:C:\Micrium\Software\uCOS-III\Source\os_q.c **** *              or normally (FIFO) at the end of the queue.
 890:C:\Micrium\Software\uCOS-III\Source\os_q.c **** *
 891:C:\Micrium\Software\uCOS-III\Source\os_q.c **** * Arguments  : p_q           is a pointer to a message queue that must have been created by OSQCrea
 892:C:\Micrium\Software\uCOS-III\Source\os_q.c **** *
 893:C:\Micrium\Software\uCOS-III\Source\os_q.c **** *              p_void        is a pointer to the message to send.
 894:C:\Micrium\Software\uCOS-III\Source\os_q.c **** *
 895:C:\Micrium\Software\uCOS-III\Source\os_q.c **** *              msg_size      specifies the size of the message (in bytes)
 896:C:\Micrium\Software\uCOS-III\Source\os_q.c **** *
 897:C:\Micrium\Software\uCOS-III\Source\os_q.c **** *              opt           determines the type of POST performed:
 898:C:\Micrium\Software\uCOS-III\Source\os_q.c **** *
 899:C:\Micrium\Software\uCOS-III\Source\os_q.c **** *                                OS_OPT_POST_ALL          POST to ALL tasks that are waiting on the
 900:C:\Micrium\Software\uCOS-III\Source\os_q.c **** *
 901:C:\Micrium\Software\uCOS-III\Source\os_q.c **** *                                OS_OPT_POST_FIFO         POST as FIFO and wake up single waiting t
 902:C:\Micrium\Software\uCOS-III\Source\os_q.c **** *                                OS_OPT_POST_LIFO         POST as LIFO and wake up single waiting t
 903:C:\Micrium\Software\uCOS-III\Source\os_q.c **** *
 904:C:\Micrium\Software\uCOS-III\Source\os_q.c **** *                                OS_OPT_POST_NO_SCHED     Do not call the scheduler
 905:C:\Micrium\Software\uCOS-III\Source\os_q.c **** *
 906:C:\Micrium\Software\uCOS-III\Source\os_q.c **** *              ts            is the timestamp of the post
 907:C:\Micrium\Software\uCOS-III\Source\os_q.c **** *
 908:C:\Micrium\Software\uCOS-III\Source\os_q.c **** *              p_err         is a pointer to a variable that will contain an error code returned by
 909:C:\Micrium\Software\uCOS-III\Source\os_q.c **** *
 910:C:\Micrium\Software\uCOS-III\Source\os_q.c **** *                                OS_ERR_NONE            The call was successful and the message was
 911:C:\Micrium\Software\uCOS-III\Source\os_q.c **** *                                OS_ERR_MSG_POOL_EMPTY  If there are no more OS_MSGs to use to plac
 912:C:\Micrium\Software\uCOS-III\Source\os_q.c **** *                                OS_ERR_OBJ_PTR_NULL    If 'p_q' is a NULL pointer
 913:C:\Micrium\Software\uCOS-III\Source\os_q.c **** *                                OS_ERR_OBJ_TYPE        If the message queue was not initialized
 914:C:\Micrium\Software\uCOS-III\Source\os_q.c **** *                                OS_ERR_Q_MAX           If the queue is full
ARM GAS  C:\Users\daniel01\AppData\Local\Temp\cccGTwC2.s 			page 40


 915:C:\Micrium\Software\uCOS-III\Source\os_q.c **** *
 916:C:\Micrium\Software\uCOS-III\Source\os_q.c **** * Returns    : None
 917:C:\Micrium\Software\uCOS-III\Source\os_q.c **** *
 918:C:\Micrium\Software\uCOS-III\Source\os_q.c **** * Note(s)    : This function is INTERNAL to uC/OS-III and your application should not call it.
 919:C:\Micrium\Software\uCOS-III\Source\os_q.c **** ***************************************************************************************************
 920:C:\Micrium\Software\uCOS-III\Source\os_q.c **** */
 921:C:\Micrium\Software\uCOS-III\Source\os_q.c **** 
 922:C:\Micrium\Software\uCOS-III\Source\os_q.c **** void  OS_QPost (OS_Q         *p_q,
 923:C:\Micrium\Software\uCOS-III\Source\os_q.c ****                 void         *p_void,
 924:C:\Micrium\Software\uCOS-III\Source\os_q.c ****                 OS_MSG_SIZE   msg_size,
 925:C:\Micrium\Software\uCOS-III\Source\os_q.c ****                 OS_OPT        opt,
 926:C:\Micrium\Software\uCOS-III\Source\os_q.c ****                 CPU_TS        ts,
 927:C:\Micrium\Software\uCOS-III\Source\os_q.c ****                 OS_ERR       *p_err)
 928:C:\Micrium\Software\uCOS-III\Source\os_q.c **** {
 1306              		.loc 1 928 0
 1307              		.cfi_startproc
 1308              		@ args = 8, pretend = 0, frame = 40
 1309              		@ frame_needed = 1, uses_anonymous_args = 0
 1310 0000 80B5     		push	{r7, lr}
 1311              	.LCFI30:
 1312              		.cfi_def_cfa_offset 8
 1313 0002 8CB0     		sub	sp, sp, #48
 1314              	.LCFI31:
 1315              		.cfi_def_cfa_offset 56
 1316 0004 02AF     		add	r7, sp, #8
 1317              		.cfi_offset 14, -4
 1318              		.cfi_offset 7, -8
 1319              	.LCFI32:
 1320              		.cfi_def_cfa 7, 48
 1321 0006 F860     		str	r0, [r7, #12]
 1322 0008 B960     		str	r1, [r7, #8]
 1323 000a FA80     		strh	r2, [r7, #6]	@ movhi
 1324 000c BB80     		strh	r3, [r7, #4]	@ movhi
 929:C:\Micrium\Software\uCOS-III\Source\os_q.c ****     OS_OBJ_QTY     cnt;
 930:C:\Micrium\Software\uCOS-III\Source\os_q.c ****     OS_OPT         post_type;
 931:C:\Micrium\Software\uCOS-III\Source\os_q.c ****     OS_PEND_LIST  *p_pend_list;
 932:C:\Micrium\Software\uCOS-III\Source\os_q.c ****     OS_PEND_DATA  *p_pend_data;
 933:C:\Micrium\Software\uCOS-III\Source\os_q.c ****     OS_PEND_DATA  *p_pend_data_next;
 934:C:\Micrium\Software\uCOS-III\Source\os_q.c ****     OS_TCB        *p_tcb;
 935:C:\Micrium\Software\uCOS-III\Source\os_q.c ****     CPU_SR_ALLOC();
 1325              		.loc 1 935 0
 1326 000e 4FF00003 		mov	r3, #0
 1327 0012 7B62     		str	r3, [r7, #36]
 936:C:\Micrium\Software\uCOS-III\Source\os_q.c **** 
 937:C:\Micrium\Software\uCOS-III\Source\os_q.c **** 
 938:C:\Micrium\Software\uCOS-III\Source\os_q.c **** 
 939:C:\Micrium\Software\uCOS-III\Source\os_q.c ****     OS_CRITICAL_ENTER();
 1328              		.loc 1 939 0
 1329 0014 FFF7FEFF 		bl	CPU_SR_Save
 1330 0018 0346     		mov	r3, r0
 1331 001a 7B62     		str	r3, [r7, #36]
 940:C:\Micrium\Software\uCOS-III\Source\os_q.c ****     p_pend_list = &p_q->PendList;
 1332              		.loc 1 940 0
 1333 001c FB68     		ldr	r3, [r7, #12]
 1334 001e 03F10803 		add	r3, r3, #8
 1335 0022 7B61     		str	r3, [r7, #20]
 941:C:\Micrium\Software\uCOS-III\Source\os_q.c ****     if (p_pend_list->NbrEntries == (OS_OBJ_QTY)0) {         /* Any task waiting on message queue?  
ARM GAS  C:\Users\daniel01\AppData\Local\Temp\cccGTwC2.s 			page 41


 1336              		.loc 1 941 0
 1337 0024 7B69     		ldr	r3, [r7, #20]
 1338 0026 1B89     		ldrh	r3, [r3, #8]
 1339 0028 002B     		cmp	r3, #0
 1340 002a 1CD1     		bne	.L92
 942:C:\Micrium\Software\uCOS-III\Source\os_q.c ****         if ((opt & OS_OPT_POST_LIFO) == (OS_OPT)0) {        /* Determine whether we post FIFO or LI
 1341              		.loc 1 942 0
 1342 002c BB88     		ldrh	r3, [r7, #4]
 1343 002e 03F01003 		and	r3, r3, #16
 1344 0032 002B     		cmp	r3, #0
 1345 0034 03D1     		bne	.L93
 943:C:\Micrium\Software\uCOS-III\Source\os_q.c ****             post_type = OS_OPT_POST_FIFO;
 1346              		.loc 1 943 0
 1347 0036 4FF00003 		mov	r3, #0
 1348 003a 7B82     		strh	r3, [r7, #18]	@ movhi
 1349 003c 02E0     		b	.L94
 1350              	.L93:
 944:C:\Micrium\Software\uCOS-III\Source\os_q.c ****         } else {
 945:C:\Micrium\Software\uCOS-III\Source\os_q.c ****             post_type = OS_OPT_POST_LIFO;
 1351              		.loc 1 945 0
 1352 003e 4FF01003 		mov	r3, #16
 1353 0042 7B82     		strh	r3, [r7, #18]	@ movhi
 1354              	.L94:
 946:C:\Micrium\Software\uCOS-III\Source\os_q.c ****         }
 947:C:\Micrium\Software\uCOS-III\Source\os_q.c ****         OS_MsgQPut(&p_q->MsgQ,                              /* Place message in the message queue  
 1355              		.loc 1 947 0
 1356 0044 FB68     		ldr	r3, [r7, #12]
 1357 0046 03F12001 		add	r1, r3, #32
 1358 004a FA88     		ldrh	r2, [r7, #6]
 1359 004c 7B8A     		ldrh	r3, [r7, #18]
 1360 004e 386B     		ldr	r0, [r7, #48]
 1361 0050 0090     		str	r0, [sp, #0]
 1362 0052 786B     		ldr	r0, [r7, #52]
 1363 0054 0190     		str	r0, [sp, #4]
 1364 0056 0846     		mov	r0, r1
 1365 0058 B968     		ldr	r1, [r7, #8]
 1366 005a FFF7FEFF 		bl	OS_MsgQPut
 948:C:\Micrium\Software\uCOS-III\Source\os_q.c ****                    p_void,
 949:C:\Micrium\Software\uCOS-III\Source\os_q.c ****                    msg_size,
 950:C:\Micrium\Software\uCOS-III\Source\os_q.c ****                    post_type,
 951:C:\Micrium\Software\uCOS-III\Source\os_q.c ****                    ts,
 952:C:\Micrium\Software\uCOS-III\Source\os_q.c ****                    p_err);
 953:C:\Micrium\Software\uCOS-III\Source\os_q.c ****         OS_CRITICAL_EXIT();
 1367              		.loc 1 953 0
 1368 005e 786A     		ldr	r0, [r7, #36]
 1369 0060 FFF7FEFF 		bl	CPU_SR_Restore
 954:C:\Micrium\Software\uCOS-III\Source\os_q.c ****         return;
 1370              		.loc 1 954 0
 1371 0064 34E0     		b	.L101
 1372              	.L92:
 955:C:\Micrium\Software\uCOS-III\Source\os_q.c ****     }
 956:C:\Micrium\Software\uCOS-III\Source\os_q.c **** 
 957:C:\Micrium\Software\uCOS-III\Source\os_q.c ****     if ((opt & OS_OPT_POST_ALL) != (OS_OPT)0) {             /* Post message to all tasks waiting?  
 1373              		.loc 1 957 0
 1374 0066 BB88     		ldrh	r3, [r7, #4]
 1375 0068 03F40073 		and	r3, r3, #512
 1376 006c 002B     		cmp	r3, #0
ARM GAS  C:\Users\daniel01\AppData\Local\Temp\cccGTwC2.s 			page 42


 1377 006e 03D0     		beq	.L96
 958:C:\Micrium\Software\uCOS-III\Source\os_q.c ****         cnt = p_pend_list->NbrEntries;                      /* Yes                                 
 1378              		.loc 1 958 0
 1379 0070 7B69     		ldr	r3, [r7, #20]
 1380 0072 1B89     		ldrh	r3, [r3, #8]	@ movhi
 1381 0074 3B82     		strh	r3, [r7, #16]	@ movhi
 1382 0076 02E0     		b	.L97
 1383              	.L96:
 959:C:\Micrium\Software\uCOS-III\Source\os_q.c ****     } else {
 960:C:\Micrium\Software\uCOS-III\Source\os_q.c ****         cnt = (OS_OBJ_QTY)1;                                /* No                                  
 1384              		.loc 1 960 0
 1385 0078 4FF00103 		mov	r3, #1
 1386 007c 3B82     		strh	r3, [r7, #16]	@ movhi
 1387              	.L97:
 961:C:\Micrium\Software\uCOS-III\Source\os_q.c ****     }
 962:C:\Micrium\Software\uCOS-III\Source\os_q.c ****     p_pend_data = p_pend_list->HeadPtr;
 1388              		.loc 1 962 0
 1389 007e 7B69     		ldr	r3, [r7, #20]
 1390 0080 1B68     		ldr	r3, [r3, #0]
 1391 0082 BB61     		str	r3, [r7, #24]
 963:C:\Micrium\Software\uCOS-III\Source\os_q.c ****     while (cnt > 0u) {
 1392              		.loc 1 963 0
 1393 0084 14E0     		b	.L98
 1394              	.L99:
 964:C:\Micrium\Software\uCOS-III\Source\os_q.c ****         p_tcb            = p_pend_data->TCBPtr;
 1395              		.loc 1 964 0
 1396 0086 BB69     		ldr	r3, [r7, #24]
 1397 0088 9B68     		ldr	r3, [r3, #8]
 1398 008a 3B62     		str	r3, [r7, #32]
 965:C:\Micrium\Software\uCOS-III\Source\os_q.c ****         p_pend_data_next = p_pend_data->NextPtr;
 1399              		.loc 1 965 0
 1400 008c BB69     		ldr	r3, [r7, #24]
 1401 008e 5B68     		ldr	r3, [r3, #4]
 1402 0090 FB61     		str	r3, [r7, #28]
 966:C:\Micrium\Software\uCOS-III\Source\os_q.c ****         OS_Post((OS_PEND_OBJ *)((void *)p_q),
 1403              		.loc 1 966 0
 1404 0092 FA68     		ldr	r2, [r7, #12]
 1405 0094 FB88     		ldrh	r3, [r7, #6]
 1406 0096 396B     		ldr	r1, [r7, #48]
 1407 0098 0091     		str	r1, [sp, #0]
 1408 009a 1046     		mov	r0, r2
 1409 009c 396A     		ldr	r1, [r7, #32]
 1410 009e BA68     		ldr	r2, [r7, #8]
 1411 00a0 FFF7FEFF 		bl	OS_Post
 967:C:\Micrium\Software\uCOS-III\Source\os_q.c ****                 p_tcb,
 968:C:\Micrium\Software\uCOS-III\Source\os_q.c ****                 p_void,
 969:C:\Micrium\Software\uCOS-III\Source\os_q.c ****                 msg_size,
 970:C:\Micrium\Software\uCOS-III\Source\os_q.c ****                 ts);
 971:C:\Micrium\Software\uCOS-III\Source\os_q.c ****         p_pend_data = p_pend_data_next;
 1412              		.loc 1 971 0
 1413 00a4 FB69     		ldr	r3, [r7, #28]
 1414 00a6 BB61     		str	r3, [r7, #24]
 972:C:\Micrium\Software\uCOS-III\Source\os_q.c ****         cnt--;
 1415              		.loc 1 972 0
 1416 00a8 3B8A     		ldrh	r3, [r7, #16]	@ movhi
 1417 00aa 03F1FF33 		add	r3, r3, #-1
 1418 00ae 3B82     		strh	r3, [r7, #16]	@ movhi
ARM GAS  C:\Users\daniel01\AppData\Local\Temp\cccGTwC2.s 			page 43


 1419              	.L98:
 1420              		.loc 1 963 0
 1421 00b0 3B8A     		ldrh	r3, [r7, #16]
 1422 00b2 002B     		cmp	r3, #0
 1423 00b4 E7D1     		bne	.L99
 973:C:\Micrium\Software\uCOS-III\Source\os_q.c ****     }
 974:C:\Micrium\Software\uCOS-III\Source\os_q.c ****     OS_CRITICAL_EXIT_NO_SCHED();
 1424              		.loc 1 974 0
 1425 00b6 786A     		ldr	r0, [r7, #36]
 1426 00b8 FFF7FEFF 		bl	CPU_SR_Restore
 975:C:\Micrium\Software\uCOS-III\Source\os_q.c ****     if ((opt & OS_OPT_POST_NO_SCHED) == (OS_OPT)0) {
 1427              		.loc 1 975 0
 1428 00bc BB88     		ldrh	r3, [r7, #4]
 1429 00be 1BB2     		sxth	r3, r3
 1430 00c0 002B     		cmp	r3, #0
 1431 00c2 01DB     		blt	.L100
 976:C:\Micrium\Software\uCOS-III\Source\os_q.c ****         OSSched();                                          /* Run the scheduler                   
 1432              		.loc 1 976 0
 1433 00c4 FFF7FEFF 		bl	OSSched
 1434              	.L100:
 977:C:\Micrium\Software\uCOS-III\Source\os_q.c ****     }
 978:C:\Micrium\Software\uCOS-III\Source\os_q.c ****    *p_err = OS_ERR_NONE;
 1435              		.loc 1 978 0
 1436 00c8 7B6B     		ldr	r3, [r7, #52]
 1437 00ca 4FF00002 		mov	r2, #0
 1438 00ce 1A80     		strh	r2, [r3, #0]	@ movhi
 1439              	.L101:
 979:C:\Micrium\Software\uCOS-III\Source\os_q.c **** }
 1440              		.loc 1 979 0
 1441 00d0 07F12807 		add	r7, r7, #40
 1442 00d4 BD46     		mov	sp, r7
 1443 00d6 80BD     		pop	{r7, pc}
 1444              		.cfi_endproc
 1445              	.LFE10:
 1446              		.size	OS_QPost, .-OS_QPost
 1447              		.text
 1448              	.Letext0: