ARM GAS  C:\Users\daniel01\AppData\Local\Temp\ccNUtgJF.s 			page 1


   1              		.syntax unified
   2              		.cpu cortex-m3
   3              		.fpu softvfp
   4              		.eabi_attribute 20, 1
   5              		.eabi_attribute 21, 1
   6              		.eabi_attribute 23, 3
   7              		.eabi_attribute 24, 1
   8              		.eabi_attribute 25, 1
   9              		.eabi_attribute 26, 1
  10              		.eabi_attribute 30, 6
  11              		.eabi_attribute 18, 4
  12              		.thumb
  13              		.file	"probe_rs232c.c"
  20 0000 5D010000 		.text
  20      0200AC00 
  20      00000201 
  20      FB0E0D00 
  20      01010101 
  21              	.Ltext0:
  22              		.cfi_sections	.debug_frame
  23              		.section	.text.ProbeRS232_InitTarget,"ax",%progbits
  24              		.align	2
  25              		.global	ProbeRS232_InitTarget
  26              		.thumb
  27              		.thumb_func
  28              		.type	ProbeRS232_InitTarget, %function
  29              	ProbeRS232_InitTarget:
  30              	.LFB0:
  31              		.file 1 "..\\..\\..\\..\\..\\..\\uC-Probe\\Target\\Communication\\Generic\\RS-232\\Ports\\Cypress\
   1:..\..\..\..\..\..\uC-Probe\Target\Communication\Generic\RS-232\Ports\Cypress\PSoC5/probe_rs232c.c **** /*
   2:..\..\..\..\..\..\uC-Probe\Target\Communication\Generic\RS-232\Ports\Cypress\PSoC5/probe_rs232c.c **** ***************************************************************************************************
   3:..\..\..\..\..\..\uC-Probe\Target\Communication\Generic\RS-232\Ports\Cypress\PSoC5/probe_rs232c.c **** *                                       uC/Probe Communication
   4:..\..\..\..\..\..\uC-Probe\Target\Communication\Generic\RS-232\Ports\Cypress\PSoC5/probe_rs232c.c **** *
   5:..\..\..\..\..\..\uC-Probe\Target\Communication\Generic\RS-232\Ports\Cypress\PSoC5/probe_rs232c.c **** *                         (c) Copyright 2007-2008; Micrium, Inc.; Weston, FL
   6:..\..\..\..\..\..\uC-Probe\Target\Communication\Generic\RS-232\Ports\Cypress\PSoC5/probe_rs232c.c **** *
   7:..\..\..\..\..\..\uC-Probe\Target\Communication\Generic\RS-232\Ports\Cypress\PSoC5/probe_rs232c.c **** *               All rights reserved.  Protected by international copyright laws.
   8:..\..\..\..\..\..\uC-Probe\Target\Communication\Generic\RS-232\Ports\Cypress\PSoC5/probe_rs232c.c **** *               Knowledge of the source code may NOT be used to develop a similar product.
   9:..\..\..\..\..\..\uC-Probe\Target\Communication\Generic\RS-232\Ports\Cypress\PSoC5/probe_rs232c.c **** *               Please help us continue to provide the Embedded community with the finest
  10:..\..\..\..\..\..\uC-Probe\Target\Communication\Generic\RS-232\Ports\Cypress\PSoC5/probe_rs232c.c **** *               software available.  Your honesty is greatly appreciated.
  11:..\..\..\..\..\..\uC-Probe\Target\Communication\Generic\RS-232\Ports\Cypress\PSoC5/probe_rs232c.c **** ***************************************************************************************************
  12:..\..\..\..\..\..\uC-Probe\Target\Communication\Generic\RS-232\Ports\Cypress\PSoC5/probe_rs232c.c **** */
  13:..\..\..\..\..\..\uC-Probe\Target\Communication\Generic\RS-232\Ports\Cypress\PSoC5/probe_rs232c.c **** 
  14:..\..\..\..\..\..\uC-Probe\Target\Communication\Generic\RS-232\Ports\Cypress\PSoC5/probe_rs232c.c **** /*
  15:..\..\..\..\..\..\uC-Probe\Target\Communication\Generic\RS-232\Ports\Cypress\PSoC5/probe_rs232c.c **** ***************************************************************************************************
  16:..\..\..\..\..\..\uC-Probe\Target\Communication\Generic\RS-232\Ports\Cypress\PSoC5/probe_rs232c.c **** *
  17:..\..\..\..\..\..\uC-Probe\Target\Communication\Generic\RS-232\Ports\Cypress\PSoC5/probe_rs232c.c **** *                                        COMMUNICATION: RS-232
  18:..\..\..\..\..\..\uC-Probe\Target\Communication\Generic\RS-232\Ports\Cypress\PSoC5/probe_rs232c.c **** *
  19:..\..\..\..\..\..\uC-Probe\Target\Communication\Generic\RS-232\Ports\Cypress\PSoC5/probe_rs232c.c **** *                                            PORT TEMPLATE
  20:..\..\..\..\..\..\uC-Probe\Target\Communication\Generic\RS-232\Ports\Cypress\PSoC5/probe_rs232c.c **** *
  21:..\..\..\..\..\..\uC-Probe\Target\Communication\Generic\RS-232\Ports\Cypress\PSoC5/probe_rs232c.c **** * Filename      : probe_rs232c.c
  22:..\..\..\..\..\..\uC-Probe\Target\Communication\Generic\RS-232\Ports\Cypress\PSoC5/probe_rs232c.c **** * Version       : V2.20
ARM GAS  C:\Users\daniel01\AppData\Local\Temp\ccNUtgJF.s 			page 2


  23:..\..\..\..\..\..\uC-Probe\Target\Communication\Generic\RS-232\Ports\Cypress\PSoC5/probe_rs232c.c **** * Programmer(s) : FT
  24:..\..\..\..\..\..\uC-Probe\Target\Communication\Generic\RS-232\Ports\Cypress\PSoC5/probe_rs232c.c **** *                 DC
  25:..\..\..\..\..\..\uC-Probe\Target\Communication\Generic\RS-232\Ports\Cypress\PSoC5/probe_rs232c.c **** ***************************************************************************************************
  26:..\..\..\..\..\..\uC-Probe\Target\Communication\Generic\RS-232\Ports\Cypress\PSoC5/probe_rs232c.c **** */
  27:..\..\..\..\..\..\uC-Probe\Target\Communication\Generic\RS-232\Ports\Cypress\PSoC5/probe_rs232c.c **** 
  28:..\..\..\..\..\..\uC-Probe\Target\Communication\Generic\RS-232\Ports\Cypress\PSoC5/probe_rs232c.c **** 
  29:..\..\..\..\..\..\uC-Probe\Target\Communication\Generic\RS-232\Ports\Cypress\PSoC5/probe_rs232c.c **** /*
  30:..\..\..\..\..\..\uC-Probe\Target\Communication\Generic\RS-232\Ports\Cypress\PSoC5/probe_rs232c.c **** ***************************************************************************************************
  31:..\..\..\..\..\..\uC-Probe\Target\Communication\Generic\RS-232\Ports\Cypress\PSoC5/probe_rs232c.c **** *                                            INCLUDE FILES
  32:..\..\..\..\..\..\uC-Probe\Target\Communication\Generic\RS-232\Ports\Cypress\PSoC5/probe_rs232c.c **** *
  33:..\..\..\..\..\..\uC-Probe\Target\Communication\Generic\RS-232\Ports\Cypress\PSoC5/probe_rs232c.c **** * Note(s) : (1) A UART component labeled as 'ProbeUART' MUST be created in PSoC.
  34:..\..\..\..\..\..\uC-Probe\Target\Communication\Generic\RS-232\Ports\Cypress\PSoC5/probe_rs232c.c **** *
  35:..\..\..\..\..\..\uC-Probe\Target\Communication\Generic\RS-232\Ports\Cypress\PSoC5/probe_rs232c.c **** *           (2) If a different named is selected 'ProbeUART' must be replaced with the new name
  36:..\..\..\..\..\..\uC-Probe\Target\Communication\Generic\RS-232\Ports\Cypress\PSoC5/probe_rs232c.c **** *               for the UART component.
  37:..\..\..\..\..\..\uC-Probe\Target\Communication\Generic\RS-232\Ports\Cypress\PSoC5/probe_rs232c.c **** ***************************************************************************************************
  38:..\..\..\..\..\..\uC-Probe\Target\Communication\Generic\RS-232\Ports\Cypress\PSoC5/probe_rs232c.c **** */
  39:..\..\..\..\..\..\uC-Probe\Target\Communication\Generic\RS-232\Ports\Cypress\PSoC5/probe_rs232c.c **** 
  40:..\..\..\..\..\..\uC-Probe\Target\Communication\Generic\RS-232\Ports\Cypress\PSoC5/probe_rs232c.c **** #include  <probe_com.h>
  41:..\..\..\..\..\..\uC-Probe\Target\Communication\Generic\RS-232\Ports\Cypress\PSoC5/probe_rs232c.c **** #include  <probe_rs232.h>
  42:..\..\..\..\..\..\uC-Probe\Target\Communication\Generic\RS-232\Ports\Cypress\PSoC5/probe_rs232c.c **** #include  <ProbeUART.h>
  43:..\..\..\..\..\..\uC-Probe\Target\Communication\Generic\RS-232\Ports\Cypress\PSoC5/probe_rs232c.c **** #include  <ProbeUART_RxISR.h>
  44:..\..\..\..\..\..\uC-Probe\Target\Communication\Generic\RS-232\Ports\Cypress\PSoC5/probe_rs232c.c **** #include  <ProbeUART_TxISR.h>
  45:..\..\..\..\..\..\uC-Probe\Target\Communication\Generic\RS-232\Ports\Cypress\PSoC5/probe_rs232c.c **** 
  46:..\..\..\..\..\..\uC-Probe\Target\Communication\Generic\RS-232\Ports\Cypress\PSoC5/probe_rs232c.c **** 
  47:..\..\..\..\..\..\uC-Probe\Target\Communication\Generic\RS-232\Ports\Cypress\PSoC5/probe_rs232c.c **** /*
  48:..\..\..\..\..\..\uC-Probe\Target\Communication\Generic\RS-232\Ports\Cypress\PSoC5/probe_rs232c.c **** ***************************************************************************************************
  49:..\..\..\..\..\..\uC-Probe\Target\Communication\Generic\RS-232\Ports\Cypress\PSoC5/probe_rs232c.c **** *                                               ENABLE
  50:..\..\..\..\..\..\uC-Probe\Target\Communication\Generic\RS-232\Ports\Cypress\PSoC5/probe_rs232c.c **** *
  51:..\..\..\..\..\..\uC-Probe\Target\Communication\Generic\RS-232\Ports\Cypress\PSoC5/probe_rs232c.c **** * Note(s) : (1) See 'probe_rs232.h  ENABLE'.
  52:..\..\..\..\..\..\uC-Probe\Target\Communication\Generic\RS-232\Ports\Cypress\PSoC5/probe_rs232c.c **** ***************************************************************************************************
  53:..\..\..\..\..\..\uC-Probe\Target\Communication\Generic\RS-232\Ports\Cypress\PSoC5/probe_rs232c.c **** */
  54:..\..\..\..\..\..\uC-Probe\Target\Communication\Generic\RS-232\Ports\Cypress\PSoC5/probe_rs232c.c **** 
  55:..\..\..\..\..\..\uC-Probe\Target\Communication\Generic\RS-232\Ports\Cypress\PSoC5/probe_rs232c.c **** #if (PROBE_COM_CFG_RS232_EN == DEF_ENABLED)                     /* See Note #1.                    
  56:..\..\..\..\..\..\uC-Probe\Target\Communication\Generic\RS-232\Ports\Cypress\PSoC5/probe_rs232c.c **** 
  57:..\..\..\..\..\..\uC-Probe\Target\Communication\Generic\RS-232\Ports\Cypress\PSoC5/probe_rs232c.c **** 
  58:..\..\..\..\..\..\uC-Probe\Target\Communication\Generic\RS-232\Ports\Cypress\PSoC5/probe_rs232c.c **** /*
  59:..\..\..\..\..\..\uC-Probe\Target\Communication\Generic\RS-232\Ports\Cypress\PSoC5/probe_rs232c.c **** ***************************************************************************************************
  60:..\..\..\..\..\..\uC-Probe\Target\Communication\Generic\RS-232\Ports\Cypress\PSoC5/probe_rs232c.c **** *                                            LOCAL DEFINES
  61:..\..\..\..\..\..\uC-Probe\Target\Communication\Generic\RS-232\Ports\Cypress\PSoC5/probe_rs232c.c **** ***************************************************************************************************
  62:..\..\..\..\..\..\uC-Probe\Target\Communication\Generic\RS-232\Ports\Cypress\PSoC5/probe_rs232c.c **** */
  63:..\..\..\..\..\..\uC-Probe\Target\Communication\Generic\RS-232\Ports\Cypress\PSoC5/probe_rs232c.c **** 
  64:..\..\..\..\..\..\uC-Probe\Target\Communication\Generic\RS-232\Ports\Cypress\PSoC5/probe_rs232c.c **** 
  65:..\..\..\..\..\..\uC-Probe\Target\Communication\Generic\RS-232\Ports\Cypress\PSoC5/probe_rs232c.c **** /*
  66:..\..\..\..\..\..\uC-Probe\Target\Communication\Generic\RS-232\Ports\Cypress\PSoC5/probe_rs232c.c **** ***************************************************************************************************
  67:..\..\..\..\..\..\uC-Probe\Target\Communication\Generic\RS-232\Ports\Cypress\PSoC5/probe_rs232c.c **** *                                       LOCAL GLOBAL VARIABLES
  68:..\..\..\..\..\..\uC-Probe\Target\Communication\Generic\RS-232\Ports\Cypress\PSoC5/probe_rs232c.c **** ***************************************************************************************************
  69:..\..\..\..\..\..\uC-Probe\Target\Communication\Generic\RS-232\Ports\Cypress\PSoC5/probe_rs232c.c **** */
  70:..\..\..\..\..\..\uC-Probe\Target\Communication\Generic\RS-232\Ports\Cypress\PSoC5/probe_rs232c.c **** 
  71:..\..\..\..\..\..\uC-Probe\Target\Communication\Generic\RS-232\Ports\Cypress\PSoC5/probe_rs232c.c **** 
  72:..\..\..\..\..\..\uC-Probe\Target\Communication\Generic\RS-232\Ports\Cypress\PSoC5/probe_rs232c.c **** /*
  73:..\..\..\..\..\..\uC-Probe\Target\Communication\Generic\RS-232\Ports\Cypress\PSoC5/probe_rs232c.c **** ***************************************************************************************************
  74:..\..\..\..\..\..\uC-Probe\Target\Communication\Generic\RS-232\Ports\Cypress\PSoC5/probe_rs232c.c **** *                                      LOCAL FUNCTION PROTOTYPES
  75:..\..\..\..\..\..\uC-Probe\Target\Communication\Generic\RS-232\Ports\Cypress\PSoC5/probe_rs232c.c **** ***************************************************************************************************
  76:..\..\..\..\..\..\uC-Probe\Target\Communication\Generic\RS-232\Ports\Cypress\PSoC5/probe_rs232c.c **** */
  77:..\..\..\..\..\..\uC-Probe\Target\Communication\Generic\RS-232\Ports\Cypress\PSoC5/probe_rs232c.c **** 
  78:..\..\..\..\..\..\uC-Probe\Target\Communication\Generic\RS-232\Ports\Cypress\PSoC5/probe_rs232c.c **** 
  79:..\..\..\..\..\..\uC-Probe\Target\Communication\Generic\RS-232\Ports\Cypress\PSoC5/probe_rs232c.c **** /*
ARM GAS  C:\Users\daniel01\AppData\Local\Temp\ccNUtgJF.s 			page 3


  80:..\..\..\..\..\..\uC-Probe\Target\Communication\Generic\RS-232\Ports\Cypress\PSoC5/probe_rs232c.c **** ***************************************************************************************************
  81:..\..\..\..\..\..\uC-Probe\Target\Communication\Generic\RS-232\Ports\Cypress\PSoC5/probe_rs232c.c **** *                                     LOCAL CONFIGURATION ERRORS
  82:..\..\..\..\..\..\uC-Probe\Target\Communication\Generic\RS-232\Ports\Cypress\PSoC5/probe_rs232c.c **** ***************************************************************************************************
  83:..\..\..\..\..\..\uC-Probe\Target\Communication\Generic\RS-232\Ports\Cypress\PSoC5/probe_rs232c.c **** */
  84:..\..\..\..\..\..\uC-Probe\Target\Communication\Generic\RS-232\Ports\Cypress\PSoC5/probe_rs232c.c **** 
  85:..\..\..\..\..\..\uC-Probe\Target\Communication\Generic\RS-232\Ports\Cypress\PSoC5/probe_rs232c.c **** 
  86:..\..\..\..\..\..\uC-Probe\Target\Communication\Generic\RS-232\Ports\Cypress\PSoC5/probe_rs232c.c **** /*
  87:..\..\..\..\..\..\uC-Probe\Target\Communication\Generic\RS-232\Ports\Cypress\PSoC5/probe_rs232c.c **** ***************************************************************************************************
  88:..\..\..\..\..\..\uC-Probe\Target\Communication\Generic\RS-232\Ports\Cypress\PSoC5/probe_rs232c.c **** *                                       ProbeRS232_InitTarget()
  89:..\..\..\..\..\..\uC-Probe\Target\Communication\Generic\RS-232\Ports\Cypress\PSoC5/probe_rs232c.c **** *
  90:..\..\..\..\..\..\uC-Probe\Target\Communication\Generic\RS-232\Ports\Cypress\PSoC5/probe_rs232c.c **** * Description : Initialize the UART for Probe communication.
  91:..\..\..\..\..\..\uC-Probe\Target\Communication\Generic\RS-232\Ports\Cypress\PSoC5/probe_rs232c.c **** *
  92:..\..\..\..\..\..\uC-Probe\Target\Communication\Generic\RS-232\Ports\Cypress\PSoC5/probe_rs232c.c **** * Argument(s) : baud_rate   Intended baud rate of the RS-232.
  93:..\..\..\..\..\..\uC-Probe\Target\Communication\Generic\RS-232\Ports\Cypress\PSoC5/probe_rs232c.c **** *
  94:..\..\..\..\..\..\uC-Probe\Target\Communication\Generic\RS-232\Ports\Cypress\PSoC5/probe_rs232c.c **** * Return(s)   : none.
  95:..\..\..\..\..\..\uC-Probe\Target\Communication\Generic\RS-232\Ports\Cypress\PSoC5/probe_rs232c.c **** *
  96:..\..\..\..\..\..\uC-Probe\Target\Communication\Generic\RS-232\Ports\Cypress\PSoC5/probe_rs232c.c **** * Caller(s)   : ProbeRS232_Init().
  97:..\..\..\..\..\..\uC-Probe\Target\Communication\Generic\RS-232\Ports\Cypress\PSoC5/probe_rs232c.c **** *
  98:..\..\..\..\..\..\uC-Probe\Target\Communication\Generic\RS-232\Ports\Cypress\PSoC5/probe_rs232c.c **** * Note(s)     : (1) Though the baud rate used may vary from application to application or target to
  99:..\..\..\..\..\..\uC-Probe\Target\Communication\Generic\RS-232\Ports\Cypress\PSoC5/probe_rs232c.c **** *                   target, other communication settings are constamt.  The hardware must always be
 100:..\..\..\..\..\..\uC-Probe\Target\Communication\Generic\RS-232\Ports\Cypress\PSoC5/probe_rs232c.c **** *                   configured for the following :
 101:..\..\..\..\..\..\uC-Probe\Target\Communication\Generic\RS-232\Ports\Cypress\PSoC5/probe_rs232c.c **** *
 102:..\..\..\..\..\..\uC-Probe\Target\Communication\Generic\RS-232\Ports\Cypress\PSoC5/probe_rs232c.c **** *                   (a) No parity
 103:..\..\..\..\..\..\uC-Probe\Target\Communication\Generic\RS-232\Ports\Cypress\PSoC5/probe_rs232c.c **** *                   (b) One stop bit
 104:..\..\..\..\..\..\uC-Probe\Target\Communication\Generic\RS-232\Ports\Cypress\PSoC5/probe_rs232c.c **** *                   (c) Eight data bits.
 105:..\..\..\..\..\..\uC-Probe\Target\Communication\Generic\RS-232\Ports\Cypress\PSoC5/probe_rs232c.c **** *
 106:..\..\..\..\..\..\uC-Probe\Target\Communication\Generic\RS-232\Ports\Cypress\PSoC5/probe_rs232c.c **** *               (2) Neither receive nor transmit interrupts should be enabled by this function.
 107:..\..\..\..\..\..\uC-Probe\Target\Communication\Generic\RS-232\Ports\Cypress\PSoC5/probe_rs232c.c **** ***************************************************************************************************
 108:..\..\..\..\..\..\uC-Probe\Target\Communication\Generic\RS-232\Ports\Cypress\PSoC5/probe_rs232c.c **** */
 109:..\..\..\..\..\..\uC-Probe\Target\Communication\Generic\RS-232\Ports\Cypress\PSoC5/probe_rs232c.c **** 
 110:..\..\..\..\..\..\uC-Probe\Target\Communication\Generic\RS-232\Ports\Cypress\PSoC5/probe_rs232c.c **** void  ProbeRS232_InitTarget (CPU_INT32U  baud_rate)
 111:..\..\..\..\..\..\uC-Probe\Target\Communication\Generic\RS-232\Ports\Cypress\PSoC5/probe_rs232c.c **** {
  32              		.loc 1 111 0
  33              		.cfi_startproc
  34              		@ args = 0, pretend = 0, frame = 8
  35              		@ frame_needed = 1, uses_anonymous_args = 0
  36 0000 80B5     		push	{r7, lr}
  37              	.LCFI0:
  38              		.cfi_def_cfa_offset 8
  39 0002 82B0     		sub	sp, sp, #8
  40              	.LCFI1:
  41              		.cfi_def_cfa_offset 16
  42 0004 00AF     		add	r7, sp, #0
  43              		.cfi_offset 14, -4
  44              		.cfi_offset 7, -8
  45              	.LCFI2:
  46              		.cfi_def_cfa_register 7
  47 0006 7860     		str	r0, [r7, #4]
 112:..\..\..\..\..\..\uC-Probe\Target\Communication\Generic\RS-232\Ports\Cypress\PSoC5/probe_rs232c.c **** 	ProbeUART_RxISR_Disable();                                      /* Disable Interrupts             
  48              		.loc 1 112 0
  49 0008 FFF7FEFF 		bl	ProbeUART_RxISR_Disable
 113:..\..\..\..\..\..\uC-Probe\Target\Communication\Generic\RS-232\Ports\Cypress\PSoC5/probe_rs232c.c **** 	ProbeUART_TxISR_Disable();
  50              		.loc 1 113 0
  51 000c FFF7FEFF 		bl	ProbeUART_TxISR_Disable
 114:..\..\..\..\..\..\uC-Probe\Target\Communication\Generic\RS-232\Ports\Cypress\PSoC5/probe_rs232c.c ****     ProbeUART_TxISR_ClearPending();                                 /* Clear Buffers on the ISRs   
  52              		.loc 1 114 0
  53 0010 FFF7FEFF 		bl	ProbeUART_TxISR_ClearPending
ARM GAS  C:\Users\daniel01\AppData\Local\Temp\ccNUtgJF.s 			page 4


 115:..\..\..\..\..\..\uC-Probe\Target\Communication\Generic\RS-232\Ports\Cypress\PSoC5/probe_rs232c.c ****     ProbeUART_RxISR_ClearPending();
  54              		.loc 1 115 0
  55 0014 FFF7FEFF 		bl	ProbeUART_RxISR_ClearPending
 116:..\..\..\..\..\..\uC-Probe\Target\Communication\Generic\RS-232\Ports\Cypress\PSoC5/probe_rs232c.c ****     
 117:..\..\..\..\..\..\uC-Probe\Target\Communication\Generic\RS-232\Ports\Cypress\PSoC5/probe_rs232c.c ****     ProbeUART_Start();                                              /* UART Initialization         
  56              		.loc 1 117 0
  57 0018 FFF7FEFF 		bl	ProbeUART_Start
 118:..\..\..\..\..\..\uC-Probe\Target\Communication\Generic\RS-232\Ports\Cypress\PSoC5/probe_rs232c.c ****     ProbeUART_RxISR_Start();                                        /* RX Interrupt Handler Initial
  58              		.loc 1 118 0
  59 001c FFF7FEFF 		bl	ProbeUART_RxISR_Start
 119:..\..\..\..\..\..\uC-Probe\Target\Communication\Generic\RS-232\Ports\Cypress\PSoC5/probe_rs232c.c **** 	ProbeUART_TxISR_Start();                                        /* TX Interrupt Handler Initializa
  60              		.loc 1 119 0
  61 0020 FFF7FEFF 		bl	ProbeUART_TxISR_Start
 120:..\..\..\..\..\..\uC-Probe\Target\Communication\Generic\RS-232\Ports\Cypress\PSoC5/probe_rs232c.c **** 	ProbeUART_RxISR_Enable();                                       /* Enable RX Interrupt Service Rou
  62              		.loc 1 120 0
  63 0024 FFF7FEFF 		bl	ProbeUART_RxISR_Enable
 121:..\..\..\..\..\..\uC-Probe\Target\Communication\Generic\RS-232\Ports\Cypress\PSoC5/probe_rs232c.c **** 	ProbeUART_TxISR_Disable();                                      /* Disable TX Interrupt Service Ro
  64              		.loc 1 121 0
  65 0028 FFF7FEFF 		bl	ProbeUART_TxISR_Disable
 122:..\..\..\..\..\..\uC-Probe\Target\Communication\Generic\RS-232\Ports\Cypress\PSoC5/probe_rs232c.c **** }
  66              		.loc 1 122 0
  67 002c 07F10807 		add	r7, r7, #8
  68 0030 BD46     		mov	sp, r7
  69 0032 80BD     		pop	{r7, pc}
  70              		.cfi_endproc
  71              	.LFE0:
  72              		.size	ProbeRS232_InitTarget, .-ProbeRS232_InitTarget
  73              		.section	.text.ProbeRS232_RxTxISRHandler,"ax",%progbits
  74              		.align	2
  75              		.global	ProbeRS232_RxTxISRHandler
  76              		.thumb
  77              		.thumb_func
  78              		.type	ProbeRS232_RxTxISRHandler, %function
  79              	ProbeRS232_RxTxISRHandler:
  80              	.LFB1:
 123:..\..\..\..\..\..\uC-Probe\Target\Communication\Generic\RS-232\Ports\Cypress\PSoC5/probe_rs232c.c **** 
 124:..\..\..\..\..\..\uC-Probe\Target\Communication\Generic\RS-232\Ports\Cypress\PSoC5/probe_rs232c.c **** 
 125:..\..\..\..\..\..\uC-Probe\Target\Communication\Generic\RS-232\Ports\Cypress\PSoC5/probe_rs232c.c **** /*
 126:..\..\..\..\..\..\uC-Probe\Target\Communication\Generic\RS-232\Ports\Cypress\PSoC5/probe_rs232c.c **** ***************************************************************************************************
 127:..\..\..\..\..\..\uC-Probe\Target\Communication\Generic\RS-232\Ports\Cypress\PSoC5/probe_rs232c.c **** *                                     ProbeRS232_RxTxISRHandler()
 128:..\..\..\..\..\..\uC-Probe\Target\Communication\Generic\RS-232\Ports\Cypress\PSoC5/probe_rs232c.c **** *
 129:..\..\..\..\..\..\uC-Probe\Target\Communication\Generic\RS-232\Ports\Cypress\PSoC5/probe_rs232c.c **** * Description : Handle receive and transmit interrupts.
 130:..\..\..\..\..\..\uC-Probe\Target\Communication\Generic\RS-232\Ports\Cypress\PSoC5/probe_rs232c.c **** *
 131:..\..\..\..\..\..\uC-Probe\Target\Communication\Generic\RS-232\Ports\Cypress\PSoC5/probe_rs232c.c **** * Argument(s) : none.
 132:..\..\..\..\..\..\uC-Probe\Target\Communication\Generic\RS-232\Ports\Cypress\PSoC5/probe_rs232c.c **** *
 133:..\..\..\..\..\..\uC-Probe\Target\Communication\Generic\RS-232\Ports\Cypress\PSoC5/probe_rs232c.c **** * Return(s)   : none.
 134:..\..\..\..\..\..\uC-Probe\Target\Communication\Generic\RS-232\Ports\Cypress\PSoC5/probe_rs232c.c **** *
 135:..\..\..\..\..\..\uC-Probe\Target\Communication\Generic\RS-232\Ports\Cypress\PSoC5/probe_rs232c.c **** * Caller(s)   : This is an ISR.
 136:..\..\..\..\..\..\uC-Probe\Target\Communication\Generic\RS-232\Ports\Cypress\PSoC5/probe_rs232c.c **** *
 137:..\..\..\..\..\..\uC-Probe\Target\Communication\Generic\RS-232\Ports\Cypress\PSoC5/probe_rs232c.c **** * Note(s)     : (1) This function may be empty if receive and transmit interrupts are handled in th
 138:..\..\..\..\..\..\uC-Probe\Target\Communication\Generic\RS-232\Ports\Cypress\PSoC5/probe_rs232c.c **** *                   separate interrupt handlers, ProbeRS232_RxISRHandler() and ProbeRS232_TxISRHand
 139:..\..\..\..\..\..\uC-Probe\Target\Communication\Generic\RS-232\Ports\Cypress\PSoC5/probe_rs232c.c **** ***************************************************************************************************
 140:..\..\..\..\..\..\uC-Probe\Target\Communication\Generic\RS-232\Ports\Cypress\PSoC5/probe_rs232c.c **** */
 141:..\..\..\..\..\..\uC-Probe\Target\Communication\Generic\RS-232\Ports\Cypress\PSoC5/probe_rs232c.c **** 
 142:..\..\..\..\..\..\uC-Probe\Target\Communication\Generic\RS-232\Ports\Cypress\PSoC5/probe_rs232c.c **** void  ProbeRS232_RxTxISRHandler (void)
 143:..\..\..\..\..\..\uC-Probe\Target\Communication\Generic\RS-232\Ports\Cypress\PSoC5/probe_rs232c.c **** {
  81              		.loc 1 143 0
ARM GAS  C:\Users\daniel01\AppData\Local\Temp\ccNUtgJF.s 			page 5


  82              		.cfi_startproc
  83              		@ args = 0, pretend = 0, frame = 0
  84              		@ frame_needed = 1, uses_anonymous_args = 0
  85              		@ link register save eliminated.
  86 0000 80B4     		push	{r7}
  87              	.LCFI3:
  88              		.cfi_def_cfa_offset 4
  89 0002 00AF     		add	r7, sp, #0
  90              		.cfi_offset 7, -4
  91              	.LCFI4:
  92              		.cfi_def_cfa_register 7
 144:..\..\..\..\..\..\uC-Probe\Target\Communication\Generic\RS-232\Ports\Cypress\PSoC5/probe_rs232c.c **** 
 145:..\..\..\..\..\..\uC-Probe\Target\Communication\Generic\RS-232\Ports\Cypress\PSoC5/probe_rs232c.c **** }
  93              		.loc 1 145 0
  94 0004 BD46     		mov	sp, r7
  95 0006 80BC     		pop	{r7}
  96 0008 7047     		bx	lr
  97              		.cfi_endproc
  98              	.LFE1:
  99              		.size	ProbeRS232_RxTxISRHandler, .-ProbeRS232_RxTxISRHandler
 100 000a 00BF     		.section	.text.ProbeRS232_RxISRHandler,"ax",%progbits
 101              		.align	2
 102              		.global	ProbeRS232_RxISRHandler
 103              		.thumb
 104              		.thumb_func
 105              		.type	ProbeRS232_RxISRHandler, %function
 106              	ProbeRS232_RxISRHandler:
 107              	.LFB2:
 146:..\..\..\..\..\..\uC-Probe\Target\Communication\Generic\RS-232\Ports\Cypress\PSoC5/probe_rs232c.c **** 
 147:..\..\..\..\..\..\uC-Probe\Target\Communication\Generic\RS-232\Ports\Cypress\PSoC5/probe_rs232c.c **** 
 148:..\..\..\..\..\..\uC-Probe\Target\Communication\Generic\RS-232\Ports\Cypress\PSoC5/probe_rs232c.c **** /*
 149:..\..\..\..\..\..\uC-Probe\Target\Communication\Generic\RS-232\Ports\Cypress\PSoC5/probe_rs232c.c **** ***************************************************************************************************
 150:..\..\..\..\..\..\uC-Probe\Target\Communication\Generic\RS-232\Ports\Cypress\PSoC5/probe_rs232c.c **** *                                      ProbeRS232_RxISRHandler()
 151:..\..\..\..\..\..\uC-Probe\Target\Communication\Generic\RS-232\Ports\Cypress\PSoC5/probe_rs232c.c **** *
 152:..\..\..\..\..\..\uC-Probe\Target\Communication\Generic\RS-232\Ports\Cypress\PSoC5/probe_rs232c.c **** * Description : Handle receive interrupts.
 153:..\..\..\..\..\..\uC-Probe\Target\Communication\Generic\RS-232\Ports\Cypress\PSoC5/probe_rs232c.c **** *
 154:..\..\..\..\..\..\uC-Probe\Target\Communication\Generic\RS-232\Ports\Cypress\PSoC5/probe_rs232c.c **** * Argument(s) : none.
 155:..\..\..\..\..\..\uC-Probe\Target\Communication\Generic\RS-232\Ports\Cypress\PSoC5/probe_rs232c.c **** *
 156:..\..\..\..\..\..\uC-Probe\Target\Communication\Generic\RS-232\Ports\Cypress\PSoC5/probe_rs232c.c **** * Return(s)   : none.
 157:..\..\..\..\..\..\uC-Probe\Target\Communication\Generic\RS-232\Ports\Cypress\PSoC5/probe_rs232c.c **** *
 158:..\..\..\..\..\..\uC-Probe\Target\Communication\Generic\RS-232\Ports\Cypress\PSoC5/probe_rs232c.c **** * Caller(s)   : This is an ISR.
 159:..\..\..\..\..\..\uC-Probe\Target\Communication\Generic\RS-232\Ports\Cypress\PSoC5/probe_rs232c.c **** *
 160:..\..\..\..\..\..\uC-Probe\Target\Communication\Generic\RS-232\Ports\Cypress\PSoC5/probe_rs232c.c **** * Note(s)     : (1) This function may be empty if receive interrupts are handled by the combined re
 161:..\..\..\..\..\..\uC-Probe\Target\Communication\Generic\RS-232\Ports\Cypress\PSoC5/probe_rs232c.c **** *                   transmit interrupt handler, 'ProbeRS232_RxTxISRHandler()'.
 162:..\..\..\..\..\..\uC-Probe\Target\Communication\Generic\RS-232\Ports\Cypress\PSoC5/probe_rs232c.c **** ***************************************************************************************************
 163:..\..\..\..\..\..\uC-Probe\Target\Communication\Generic\RS-232\Ports\Cypress\PSoC5/probe_rs232c.c **** */
 164:..\..\..\..\..\..\uC-Probe\Target\Communication\Generic\RS-232\Ports\Cypress\PSoC5/probe_rs232c.c **** 
 165:..\..\..\..\..\..\uC-Probe\Target\Communication\Generic\RS-232\Ports\Cypress\PSoC5/probe_rs232c.c **** void  ProbeRS232_RxISRHandler (void)
 166:..\..\..\..\..\..\uC-Probe\Target\Communication\Generic\RS-232\Ports\Cypress\PSoC5/probe_rs232c.c **** {
 108              		.loc 1 166 0
 109              		.cfi_startproc
 110              		@ args = 0, pretend = 0, frame = 8
 111              		@ frame_needed = 1, uses_anonymous_args = 0
 112 0000 80B5     		push	{r7, lr}
 113              	.LCFI5:
 114              		.cfi_def_cfa_offset 8
 115 0002 82B0     		sub	sp, sp, #8
ARM GAS  C:\Users\daniel01\AppData\Local\Temp\ccNUtgJF.s 			page 6


 116              	.LCFI6:
 117              		.cfi_def_cfa_offset 16
 118 0004 00AF     		add	r7, sp, #0
 119              		.cfi_offset 14, -4
 120              		.cfi_offset 7, -8
 121              	.LCFI7:
 122              		.cfi_def_cfa_register 7
 167:..\..\..\..\..\..\uC-Probe\Target\Communication\Generic\RS-232\Ports\Cypress\PSoC5/probe_rs232c.c ****     CPU_INT08U  rx_data;
 168:..\..\..\..\..\..\uC-Probe\Target\Communication\Generic\RS-232\Ports\Cypress\PSoC5/probe_rs232c.c **** 	
 169:..\..\..\..\..\..\uC-Probe\Target\Communication\Generic\RS-232\Ports\Cypress\PSoC5/probe_rs232c.c **** 	
 170:..\..\..\..\..\..\uC-Probe\Target\Communication\Generic\RS-232\Ports\Cypress\PSoC5/probe_rs232c.c **** 	rx_data = ProbeUART_GetByte();                                  /* Obtain RX Data                 
 123              		.loc 1 170 0
 124 0006 FFF7FEFF 		bl	ProbeUART_GetByte
 125 000a 0346     		mov	r3, r0
 126 000c FB71     		strb	r3, [r7, #7]
 171:..\..\..\..\..\..\uC-Probe\Target\Communication\Generic\RS-232\Ports\Cypress\PSoC5/probe_rs232c.c **** 	ProbeRS232_RxHandler(rx_data);
 127              		.loc 1 171 0
 128 000e FB79     		ldrb	r3, [r7, #7]	@ zero_extendqisi2
 129 0010 1846     		mov	r0, r3
 130 0012 FFF7FEFF 		bl	ProbeRS232_RxHandler
 172:..\..\..\..\..\..\uC-Probe\Target\Communication\Generic\RS-232\Ports\Cypress\PSoC5/probe_rs232c.c ****     
 173:..\..\..\..\..\..\uC-Probe\Target\Communication\Generic\RS-232\Ports\Cypress\PSoC5/probe_rs232c.c **** }
 131              		.loc 1 173 0
 132 0016 07F10807 		add	r7, r7, #8
 133 001a BD46     		mov	sp, r7
 134 001c 80BD     		pop	{r7, pc}
 135              		.cfi_endproc
 136              	.LFE2:
 137              		.size	ProbeRS232_RxISRHandler, .-ProbeRS232_RxISRHandler
 138 001e 00BF     		.section	.text.ProbeRS232_RxIntDis,"ax",%progbits
 139              		.align	2
 140              		.global	ProbeRS232_RxIntDis
 141              		.thumb
 142              		.thumb_func
 143              		.type	ProbeRS232_RxIntDis, %function
 144              	ProbeRS232_RxIntDis:
 145              	.LFB3:
 174:..\..\..\..\..\..\uC-Probe\Target\Communication\Generic\RS-232\Ports\Cypress\PSoC5/probe_rs232c.c **** 
 175:..\..\..\..\..\..\uC-Probe\Target\Communication\Generic\RS-232\Ports\Cypress\PSoC5/probe_rs232c.c **** 
 176:..\..\..\..\..\..\uC-Probe\Target\Communication\Generic\RS-232\Ports\Cypress\PSoC5/probe_rs232c.c **** /*
 177:..\..\..\..\..\..\uC-Probe\Target\Communication\Generic\RS-232\Ports\Cypress\PSoC5/probe_rs232c.c **** ***************************************************************************************************
 178:..\..\..\..\..\..\uC-Probe\Target\Communication\Generic\RS-232\Ports\Cypress\PSoC5/probe_rs232c.c **** *                                        ProbeRS232_RxIntDis()
 179:..\..\..\..\..\..\uC-Probe\Target\Communication\Generic\RS-232\Ports\Cypress\PSoC5/probe_rs232c.c **** *
 180:..\..\..\..\..\..\uC-Probe\Target\Communication\Generic\RS-232\Ports\Cypress\PSoC5/probe_rs232c.c **** * Description : Disable receive interrupts.
 181:..\..\..\..\..\..\uC-Probe\Target\Communication\Generic\RS-232\Ports\Cypress\PSoC5/probe_rs232c.c **** *
 182:..\..\..\..\..\..\uC-Probe\Target\Communication\Generic\RS-232\Ports\Cypress\PSoC5/probe_rs232c.c **** * Argument(s) : none.
 183:..\..\..\..\..\..\uC-Probe\Target\Communication\Generic\RS-232\Ports\Cypress\PSoC5/probe_rs232c.c **** *
 184:..\..\..\..\..\..\uC-Probe\Target\Communication\Generic\RS-232\Ports\Cypress\PSoC5/probe_rs232c.c **** * Return(s)   : none.
 185:..\..\..\..\..\..\uC-Probe\Target\Communication\Generic\RS-232\Ports\Cypress\PSoC5/probe_rs232c.c **** *
 186:..\..\..\..\..\..\uC-Probe\Target\Communication\Generic\RS-232\Ports\Cypress\PSoC5/probe_rs232c.c **** * Caller(s)   : Application.
 187:..\..\..\..\..\..\uC-Probe\Target\Communication\Generic\RS-232\Ports\Cypress\PSoC5/probe_rs232c.c **** *
 188:..\..\..\..\..\..\uC-Probe\Target\Communication\Generic\RS-232\Ports\Cypress\PSoC5/probe_rs232c.c **** * Note(s)     : (1) The application should call this function to stop communication.
 189:..\..\..\..\..\..\uC-Probe\Target\Communication\Generic\RS-232\Ports\Cypress\PSoC5/probe_rs232c.c **** ***************************************************************************************************
 190:..\..\..\..\..\..\uC-Probe\Target\Communication\Generic\RS-232\Ports\Cypress\PSoC5/probe_rs232c.c **** */
 191:..\..\..\..\..\..\uC-Probe\Target\Communication\Generic\RS-232\Ports\Cypress\PSoC5/probe_rs232c.c **** 
 192:..\..\..\..\..\..\uC-Probe\Target\Communication\Generic\RS-232\Ports\Cypress\PSoC5/probe_rs232c.c **** void  ProbeRS232_RxIntDis (void)
 193:..\..\..\..\..\..\uC-Probe\Target\Communication\Generic\RS-232\Ports\Cypress\PSoC5/probe_rs232c.c **** {
ARM GAS  C:\Users\daniel01\AppData\Local\Temp\ccNUtgJF.s 			page 7


 146              		.loc 1 193 0
 147              		.cfi_startproc
 148              		@ args = 0, pretend = 0, frame = 0
 149              		@ frame_needed = 1, uses_anonymous_args = 0
 150 0000 80B5     		push	{r7, lr}
 151              	.LCFI8:
 152              		.cfi_def_cfa_offset 8
 153 0002 00AF     		add	r7, sp, #0
 154              		.cfi_offset 14, -4
 155              		.cfi_offset 7, -8
 156              	.LCFI9:
 157              		.cfi_def_cfa_register 7
 194:..\..\..\..\..\..\uC-Probe\Target\Communication\Generic\RS-232\Ports\Cypress\PSoC5/probe_rs232c.c ****     ProbeUART_RxISR_Disable();
 158              		.loc 1 194 0
 159 0004 FFF7FEFF 		bl	ProbeUART_RxISR_Disable
 195:..\..\..\..\..\..\uC-Probe\Target\Communication\Generic\RS-232\Ports\Cypress\PSoC5/probe_rs232c.c **** }
 160              		.loc 1 195 0
 161 0008 80BD     		pop	{r7, pc}
 162              		.cfi_endproc
 163              	.LFE3:
 164              		.size	ProbeRS232_RxIntDis, .-ProbeRS232_RxIntDis
 165 000a 00BF     		.section	.text.ProbeRS232_RxIntEn,"ax",%progbits
 166              		.align	2
 167              		.global	ProbeRS232_RxIntEn
 168              		.thumb
 169              		.thumb_func
 170              		.type	ProbeRS232_RxIntEn, %function
 171              	ProbeRS232_RxIntEn:
 172              	.LFB4:
 196:..\..\..\..\..\..\uC-Probe\Target\Communication\Generic\RS-232\Ports\Cypress\PSoC5/probe_rs232c.c **** 
 197:..\..\..\..\..\..\uC-Probe\Target\Communication\Generic\RS-232\Ports\Cypress\PSoC5/probe_rs232c.c **** 
 198:..\..\..\..\..\..\uC-Probe\Target\Communication\Generic\RS-232\Ports\Cypress\PSoC5/probe_rs232c.c **** /*
 199:..\..\..\..\..\..\uC-Probe\Target\Communication\Generic\RS-232\Ports\Cypress\PSoC5/probe_rs232c.c **** ***************************************************************************************************
 200:..\..\..\..\..\..\uC-Probe\Target\Communication\Generic\RS-232\Ports\Cypress\PSoC5/probe_rs232c.c **** *                                        ProbeRS232_RxIntEn()
 201:..\..\..\..\..\..\uC-Probe\Target\Communication\Generic\RS-232\Ports\Cypress\PSoC5/probe_rs232c.c **** *
 202:..\..\..\..\..\..\uC-Probe\Target\Communication\Generic\RS-232\Ports\Cypress\PSoC5/probe_rs232c.c **** * Description : Enable receive interrupts.
 203:..\..\..\..\..\..\uC-Probe\Target\Communication\Generic\RS-232\Ports\Cypress\PSoC5/probe_rs232c.c **** *
 204:..\..\..\..\..\..\uC-Probe\Target\Communication\Generic\RS-232\Ports\Cypress\PSoC5/probe_rs232c.c **** * Argument(s) : none.
 205:..\..\..\..\..\..\uC-Probe\Target\Communication\Generic\RS-232\Ports\Cypress\PSoC5/probe_rs232c.c **** *
 206:..\..\..\..\..\..\uC-Probe\Target\Communication\Generic\RS-232\Ports\Cypress\PSoC5/probe_rs232c.c **** * Return(s)   : none.
 207:..\..\..\..\..\..\uC-Probe\Target\Communication\Generic\RS-232\Ports\Cypress\PSoC5/probe_rs232c.c **** *
 208:..\..\..\..\..\..\uC-Probe\Target\Communication\Generic\RS-232\Ports\Cypress\PSoC5/probe_rs232c.c **** * Caller(s)   : Application.
 209:..\..\..\..\..\..\uC-Probe\Target\Communication\Generic\RS-232\Ports\Cypress\PSoC5/probe_rs232c.c **** *
 210:..\..\..\..\..\..\uC-Probe\Target\Communication\Generic\RS-232\Ports\Cypress\PSoC5/probe_rs232c.c **** * Note(s)     : (1) The application should call this function to start communication.
 211:..\..\..\..\..\..\uC-Probe\Target\Communication\Generic\RS-232\Ports\Cypress\PSoC5/probe_rs232c.c **** ***************************************************************************************************
 212:..\..\..\..\..\..\uC-Probe\Target\Communication\Generic\RS-232\Ports\Cypress\PSoC5/probe_rs232c.c **** */
 213:..\..\..\..\..\..\uC-Probe\Target\Communication\Generic\RS-232\Ports\Cypress\PSoC5/probe_rs232c.c **** 
 214:..\..\..\..\..\..\uC-Probe\Target\Communication\Generic\RS-232\Ports\Cypress\PSoC5/probe_rs232c.c **** void  ProbeRS232_RxIntEn (void)
 215:..\..\..\..\..\..\uC-Probe\Target\Communication\Generic\RS-232\Ports\Cypress\PSoC5/probe_rs232c.c **** {
 173              		.loc 1 215 0
 174              		.cfi_startproc
 175              		@ args = 0, pretend = 0, frame = 0
 176              		@ frame_needed = 1, uses_anonymous_args = 0
 177 0000 80B5     		push	{r7, lr}
 178              	.LCFI10:
 179              		.cfi_def_cfa_offset 8
 180 0002 00AF     		add	r7, sp, #0
ARM GAS  C:\Users\daniel01\AppData\Local\Temp\ccNUtgJF.s 			page 8


 181              		.cfi_offset 14, -4
 182              		.cfi_offset 7, -8
 183              	.LCFI11:
 184              		.cfi_def_cfa_register 7
 216:..\..\..\..\..\..\uC-Probe\Target\Communication\Generic\RS-232\Ports\Cypress\PSoC5/probe_rs232c.c ****     ProbeUART_RxISR_Enable();
 185              		.loc 1 216 0
 186 0004 FFF7FEFF 		bl	ProbeUART_RxISR_Enable
 217:..\..\..\..\..\..\uC-Probe\Target\Communication\Generic\RS-232\Ports\Cypress\PSoC5/probe_rs232c.c **** }
 187              		.loc 1 217 0
 188 0008 80BD     		pop	{r7, pc}
 189              		.cfi_endproc
 190              	.LFE4:
 191              		.size	ProbeRS232_RxIntEn, .-ProbeRS232_RxIntEn
 192 000a 00BF     		.section	.text.ProbeRS232_TxISRHandler,"ax",%progbits
 193              		.align	2
 194              		.global	ProbeRS232_TxISRHandler
 195              		.thumb
 196              		.thumb_func
 197              		.type	ProbeRS232_TxISRHandler, %function
 198              	ProbeRS232_TxISRHandler:
 199              	.LFB5:
 218:..\..\..\..\..\..\uC-Probe\Target\Communication\Generic\RS-232\Ports\Cypress\PSoC5/probe_rs232c.c **** 
 219:..\..\..\..\..\..\uC-Probe\Target\Communication\Generic\RS-232\Ports\Cypress\PSoC5/probe_rs232c.c **** 
 220:..\..\..\..\..\..\uC-Probe\Target\Communication\Generic\RS-232\Ports\Cypress\PSoC5/probe_rs232c.c **** /*
 221:..\..\..\..\..\..\uC-Probe\Target\Communication\Generic\RS-232\Ports\Cypress\PSoC5/probe_rs232c.c **** ***************************************************************************************************
 222:..\..\..\..\..\..\uC-Probe\Target\Communication\Generic\RS-232\Ports\Cypress\PSoC5/probe_rs232c.c **** *                                      ProbeRS232_TxISRHandler()
 223:..\..\..\..\..\..\uC-Probe\Target\Communication\Generic\RS-232\Ports\Cypress\PSoC5/probe_rs232c.c **** *
 224:..\..\..\..\..\..\uC-Probe\Target\Communication\Generic\RS-232\Ports\Cypress\PSoC5/probe_rs232c.c **** * Description : Handle transmit interrupts.
 225:..\..\..\..\..\..\uC-Probe\Target\Communication\Generic\RS-232\Ports\Cypress\PSoC5/probe_rs232c.c **** *
 226:..\..\..\..\..\..\uC-Probe\Target\Communication\Generic\RS-232\Ports\Cypress\PSoC5/probe_rs232c.c **** * Argument(s) : none.
 227:..\..\..\..\..\..\uC-Probe\Target\Communication\Generic\RS-232\Ports\Cypress\PSoC5/probe_rs232c.c **** *
 228:..\..\..\..\..\..\uC-Probe\Target\Communication\Generic\RS-232\Ports\Cypress\PSoC5/probe_rs232c.c **** * Return(s)   : none.
 229:..\..\..\..\..\..\uC-Probe\Target\Communication\Generic\RS-232\Ports\Cypress\PSoC5/probe_rs232c.c **** *
 230:..\..\..\..\..\..\uC-Probe\Target\Communication\Generic\RS-232\Ports\Cypress\PSoC5/probe_rs232c.c **** * Caller(s)   : This is an ISR.
 231:..\..\..\..\..\..\uC-Probe\Target\Communication\Generic\RS-232\Ports\Cypress\PSoC5/probe_rs232c.c **** *
 232:..\..\..\..\..\..\uC-Probe\Target\Communication\Generic\RS-232\Ports\Cypress\PSoC5/probe_rs232c.c **** * Note(s)     : (1) This function may be empty if transmit interrupts are handled by the combined r
 233:..\..\..\..\..\..\uC-Probe\Target\Communication\Generic\RS-232\Ports\Cypress\PSoC5/probe_rs232c.c **** *                   transmit interrupt handler, 'ProbeRS232_RxTxISRHandler()'.
 234:..\..\..\..\..\..\uC-Probe\Target\Communication\Generic\RS-232\Ports\Cypress\PSoC5/probe_rs232c.c **** ***************************************************************************************************
 235:..\..\..\..\..\..\uC-Probe\Target\Communication\Generic\RS-232\Ports\Cypress\PSoC5/probe_rs232c.c **** */
 236:..\..\..\..\..\..\uC-Probe\Target\Communication\Generic\RS-232\Ports\Cypress\PSoC5/probe_rs232c.c **** 
 237:..\..\..\..\..\..\uC-Probe\Target\Communication\Generic\RS-232\Ports\Cypress\PSoC5/probe_rs232c.c **** void  ProbeRS232_TxISRHandler (void)
 238:..\..\..\..\..\..\uC-Probe\Target\Communication\Generic\RS-232\Ports\Cypress\PSoC5/probe_rs232c.c **** {
 200              		.loc 1 238 0
 201              		.cfi_startproc
 202              		@ args = 0, pretend = 0, frame = 0
 203              		@ frame_needed = 1, uses_anonymous_args = 0
 204 0000 80B5     		push	{r7, lr}
 205              	.LCFI12:
 206              		.cfi_def_cfa_offset 8
 207 0002 00AF     		add	r7, sp, #0
 208              		.cfi_offset 14, -4
 209              		.cfi_offset 7, -8
 210              	.LCFI13:
 211              		.cfi_def_cfa_register 7
 239:..\..\..\..\..\..\uC-Probe\Target\Communication\Generic\RS-232\Ports\Cypress\PSoC5/probe_rs232c.c ****     ProbeRS232_TxHandler();
 212              		.loc 1 239 0
 213 0004 FFF7FEFF 		bl	ProbeRS232_TxHandler
ARM GAS  C:\Users\daniel01\AppData\Local\Temp\ccNUtgJF.s 			page 9


 240:..\..\..\..\..\..\uC-Probe\Target\Communication\Generic\RS-232\Ports\Cypress\PSoC5/probe_rs232c.c **** 
 241:..\..\..\..\..\..\uC-Probe\Target\Communication\Generic\RS-232\Ports\Cypress\PSoC5/probe_rs232c.c **** }
 214              		.loc 1 241 0
 215 0008 80BD     		pop	{r7, pc}
 216              		.cfi_endproc
 217              	.LFE5:
 218              		.size	ProbeRS232_TxISRHandler, .-ProbeRS232_TxISRHandler
 219 000a 00BF     		.section	.text.ProbeRS232_Tx1,"ax",%progbits
 220              		.align	2
 221              		.global	ProbeRS232_Tx1
 222              		.thumb
 223              		.thumb_func
 224              		.type	ProbeRS232_Tx1, %function
 225              	ProbeRS232_Tx1:
 226              	.LFB6:
 242:..\..\..\..\..\..\uC-Probe\Target\Communication\Generic\RS-232\Ports\Cypress\PSoC5/probe_rs232c.c **** 
 243:..\..\..\..\..\..\uC-Probe\Target\Communication\Generic\RS-232\Ports\Cypress\PSoC5/probe_rs232c.c **** 
 244:..\..\..\..\..\..\uC-Probe\Target\Communication\Generic\RS-232\Ports\Cypress\PSoC5/probe_rs232c.c **** /*
 245:..\..\..\..\..\..\uC-Probe\Target\Communication\Generic\RS-232\Ports\Cypress\PSoC5/probe_rs232c.c **** ***************************************************************************************************
 246:..\..\..\..\..\..\uC-Probe\Target\Communication\Generic\RS-232\Ports\Cypress\PSoC5/probe_rs232c.c **** *                                          ProbeRS232_Tx1()
 247:..\..\..\..\..\..\uC-Probe\Target\Communication\Generic\RS-232\Ports\Cypress\PSoC5/probe_rs232c.c **** *
 248:..\..\..\..\..\..\uC-Probe\Target\Communication\Generic\RS-232\Ports\Cypress\PSoC5/probe_rs232c.c **** * Description : Transmit one byte.
 249:..\..\..\..\..\..\uC-Probe\Target\Communication\Generic\RS-232\Ports\Cypress\PSoC5/probe_rs232c.c **** *
 250:..\..\..\..\..\..\uC-Probe\Target\Communication\Generic\RS-232\Ports\Cypress\PSoC5/probe_rs232c.c **** * Argument(s) : c           The byte to transmit.
 251:..\..\..\..\..\..\uC-Probe\Target\Communication\Generic\RS-232\Ports\Cypress\PSoC5/probe_rs232c.c **** *
 252:..\..\..\..\..\..\uC-Probe\Target\Communication\Generic\RS-232\Ports\Cypress\PSoC5/probe_rs232c.c **** * Return(s)   : none.
 253:..\..\..\..\..\..\uC-Probe\Target\Communication\Generic\RS-232\Ports\Cypress\PSoC5/probe_rs232c.c **** *
 254:..\..\..\..\..\..\uC-Probe\Target\Communication\Generic\RS-232\Ports\Cypress\PSoC5/probe_rs232c.c **** * Caller(s)   : ProbeRS232_TxHandler().
 255:..\..\..\..\..\..\uC-Probe\Target\Communication\Generic\RS-232\Ports\Cypress\PSoC5/probe_rs232c.c **** *
 256:..\..\..\..\..\..\uC-Probe\Target\Communication\Generic\RS-232\Ports\Cypress\PSoC5/probe_rs232c.c **** * Note(s)     : none.
 257:..\..\..\..\..\..\uC-Probe\Target\Communication\Generic\RS-232\Ports\Cypress\PSoC5/probe_rs232c.c **** ***************************************************************************************************
 258:..\..\..\..\..\..\uC-Probe\Target\Communication\Generic\RS-232\Ports\Cypress\PSoC5/probe_rs232c.c **** */
 259:..\..\..\..\..\..\uC-Probe\Target\Communication\Generic\RS-232\Ports\Cypress\PSoC5/probe_rs232c.c **** 
 260:..\..\..\..\..\..\uC-Probe\Target\Communication\Generic\RS-232\Ports\Cypress\PSoC5/probe_rs232c.c **** void  ProbeRS232_Tx1 (CPU_INT08U c)
 261:..\..\..\..\..\..\uC-Probe\Target\Communication\Generic\RS-232\Ports\Cypress\PSoC5/probe_rs232c.c **** {
 227              		.loc 1 261 0
 228              		.cfi_startproc
 229              		@ args = 0, pretend = 0, frame = 8
 230              		@ frame_needed = 1, uses_anonymous_args = 0
 231 0000 80B5     		push	{r7, lr}
 232              	.LCFI14:
 233              		.cfi_def_cfa_offset 8
 234 0002 82B0     		sub	sp, sp, #8
 235              	.LCFI15:
 236              		.cfi_def_cfa_offset 16
 237 0004 00AF     		add	r7, sp, #0
 238              		.cfi_offset 14, -4
 239              		.cfi_offset 7, -8
 240              	.LCFI16:
 241              		.cfi_def_cfa_register 7
 242 0006 0346     		mov	r3, r0
 243 0008 FB71     		strb	r3, [r7, #7]
 262:..\..\..\..\..\..\uC-Probe\Target\Communication\Generic\RS-232\Ports\Cypress\PSoC5/probe_rs232c.c ****     ProbeUART_PutChar(c);                                           /* Place data in the TX Buffer 
 244              		.loc 1 262 0
 245 000a FB79     		ldrb	r3, [r7, #7]	@ zero_extendqisi2
 246 000c 1846     		mov	r0, r3
 247 000e FFF7FEFF 		bl	ProbeUART_PutChar
ARM GAS  C:\Users\daniel01\AppData\Local\Temp\ccNUtgJF.s 			page 10


 263:..\..\..\..\..\..\uC-Probe\Target\Communication\Generic\RS-232\Ports\Cypress\PSoC5/probe_rs232c.c ****     ProbeRS232_TxIntEn();                                           /* Enable Interrupt for Transmi
 248              		.loc 1 263 0
 249 0012 FFF7FEFF 		bl	ProbeRS232_TxIntEn
 264:..\..\..\..\..\..\uC-Probe\Target\Communication\Generic\RS-232\Ports\Cypress\PSoC5/probe_rs232c.c **** }
 250              		.loc 1 264 0
 251 0016 07F10807 		add	r7, r7, #8
 252 001a BD46     		mov	sp, r7
 253 001c 80BD     		pop	{r7, pc}
 254              		.cfi_endproc
 255              	.LFE6:
 256              		.size	ProbeRS232_Tx1, .-ProbeRS232_Tx1
 257 001e 00BF     		.section	.text.ProbeRS232_TxIntDis,"ax",%progbits
 258              		.align	2
 259              		.global	ProbeRS232_TxIntDis
 260              		.thumb
 261              		.thumb_func
 262              		.type	ProbeRS232_TxIntDis, %function
 263              	ProbeRS232_TxIntDis:
 264              	.LFB7:
 265:..\..\..\..\..\..\uC-Probe\Target\Communication\Generic\RS-232\Ports\Cypress\PSoC5/probe_rs232c.c **** 
 266:..\..\..\..\..\..\uC-Probe\Target\Communication\Generic\RS-232\Ports\Cypress\PSoC5/probe_rs232c.c **** 
 267:..\..\..\..\..\..\uC-Probe\Target\Communication\Generic\RS-232\Ports\Cypress\PSoC5/probe_rs232c.c **** /*
 268:..\..\..\..\..\..\uC-Probe\Target\Communication\Generic\RS-232\Ports\Cypress\PSoC5/probe_rs232c.c **** ***************************************************************************************************
 269:..\..\..\..\..\..\uC-Probe\Target\Communication\Generic\RS-232\Ports\Cypress\PSoC5/probe_rs232c.c **** *                                        ProbeRS232_TxIntDis()
 270:..\..\..\..\..\..\uC-Probe\Target\Communication\Generic\RS-232\Ports\Cypress\PSoC5/probe_rs232c.c **** *
 271:..\..\..\..\..\..\uC-Probe\Target\Communication\Generic\RS-232\Ports\Cypress\PSoC5/probe_rs232c.c **** * Description : Disable transmit interrupts.
 272:..\..\..\..\..\..\uC-Probe\Target\Communication\Generic\RS-232\Ports\Cypress\PSoC5/probe_rs232c.c **** *
 273:..\..\..\..\..\..\uC-Probe\Target\Communication\Generic\RS-232\Ports\Cypress\PSoC5/probe_rs232c.c **** * Argument(s) : none.
 274:..\..\..\..\..\..\uC-Probe\Target\Communication\Generic\RS-232\Ports\Cypress\PSoC5/probe_rs232c.c **** *
 275:..\..\..\..\..\..\uC-Probe\Target\Communication\Generic\RS-232\Ports\Cypress\PSoC5/probe_rs232c.c **** * Return(s)   : none.
 276:..\..\..\..\..\..\uC-Probe\Target\Communication\Generic\RS-232\Ports\Cypress\PSoC5/probe_rs232c.c **** *
 277:..\..\..\..\..\..\uC-Probe\Target\Communication\Generic\RS-232\Ports\Cypress\PSoC5/probe_rs232c.c **** * Caller(s)   : ProbeRS232_TxHandler().
 278:..\..\..\..\..\..\uC-Probe\Target\Communication\Generic\RS-232\Ports\Cypress\PSoC5/probe_rs232c.c **** *
 279:..\..\..\..\..\..\uC-Probe\Target\Communication\Generic\RS-232\Ports\Cypress\PSoC5/probe_rs232c.c **** * Note(s)     : none.
 280:..\..\..\..\..\..\uC-Probe\Target\Communication\Generic\RS-232\Ports\Cypress\PSoC5/probe_rs232c.c **** ***************************************************************************************************
 281:..\..\..\..\..\..\uC-Probe\Target\Communication\Generic\RS-232\Ports\Cypress\PSoC5/probe_rs232c.c **** */
 282:..\..\..\..\..\..\uC-Probe\Target\Communication\Generic\RS-232\Ports\Cypress\PSoC5/probe_rs232c.c **** 
 283:..\..\..\..\..\..\uC-Probe\Target\Communication\Generic\RS-232\Ports\Cypress\PSoC5/probe_rs232c.c **** void  ProbeRS232_TxIntDis (void)
 284:..\..\..\..\..\..\uC-Probe\Target\Communication\Generic\RS-232\Ports\Cypress\PSoC5/probe_rs232c.c **** {
 265              		.loc 1 284 0
 266              		.cfi_startproc
 267              		@ args = 0, pretend = 0, frame = 0
 268              		@ frame_needed = 1, uses_anonymous_args = 0
 269 0000 80B5     		push	{r7, lr}
 270              	.LCFI17:
 271              		.cfi_def_cfa_offset 8
 272 0002 00AF     		add	r7, sp, #0
 273              		.cfi_offset 14, -4
 274              		.cfi_offset 7, -8
 275              	.LCFI18:
 276              		.cfi_def_cfa_register 7
 285:..\..\..\..\..\..\uC-Probe\Target\Communication\Generic\RS-232\Ports\Cypress\PSoC5/probe_rs232c.c ****     ProbeUART_TxISR_Disable();
 277              		.loc 1 285 0
 278 0004 FFF7FEFF 		bl	ProbeUART_TxISR_Disable
 286:..\..\..\..\..\..\uC-Probe\Target\Communication\Generic\RS-232\Ports\Cypress\PSoC5/probe_rs232c.c **** }
 279              		.loc 1 286 0
 280 0008 80BD     		pop	{r7, pc}
ARM GAS  C:\Users\daniel01\AppData\Local\Temp\ccNUtgJF.s 			page 11


 281              		.cfi_endproc
 282              	.LFE7:
 283              		.size	ProbeRS232_TxIntDis, .-ProbeRS232_TxIntDis
 284 000a 00BF     		.section	.text.ProbeRS232_TxIntEn,"ax",%progbits
 285              		.align	2
 286              		.global	ProbeRS232_TxIntEn
 287              		.thumb
 288              		.thumb_func
 289              		.type	ProbeRS232_TxIntEn, %function
 290              	ProbeRS232_TxIntEn:
 291              	.LFB8:
 287:..\..\..\..\..\..\uC-Probe\Target\Communication\Generic\RS-232\Ports\Cypress\PSoC5/probe_rs232c.c **** 
 288:..\..\..\..\..\..\uC-Probe\Target\Communication\Generic\RS-232\Ports\Cypress\PSoC5/probe_rs232c.c **** 
 289:..\..\..\..\..\..\uC-Probe\Target\Communication\Generic\RS-232\Ports\Cypress\PSoC5/probe_rs232c.c **** /*
 290:..\..\..\..\..\..\uC-Probe\Target\Communication\Generic\RS-232\Ports\Cypress\PSoC5/probe_rs232c.c **** ***************************************************************************************************
 291:..\..\..\..\..\..\uC-Probe\Target\Communication\Generic\RS-232\Ports\Cypress\PSoC5/probe_rs232c.c **** *                                        ProbeRS232_TxIntEn()
 292:..\..\..\..\..\..\uC-Probe\Target\Communication\Generic\RS-232\Ports\Cypress\PSoC5/probe_rs232c.c **** *
 293:..\..\..\..\..\..\uC-Probe\Target\Communication\Generic\RS-232\Ports\Cypress\PSoC5/probe_rs232c.c **** * Description : Enable transmit interrupts.
 294:..\..\..\..\..\..\uC-Probe\Target\Communication\Generic\RS-232\Ports\Cypress\PSoC5/probe_rs232c.c **** *
 295:..\..\..\..\..\..\uC-Probe\Target\Communication\Generic\RS-232\Ports\Cypress\PSoC5/probe_rs232c.c **** * Argument(s) : none.
 296:..\..\..\..\..\..\uC-Probe\Target\Communication\Generic\RS-232\Ports\Cypress\PSoC5/probe_rs232c.c **** *
 297:..\..\..\..\..\..\uC-Probe\Target\Communication\Generic\RS-232\Ports\Cypress\PSoC5/probe_rs232c.c **** * Return(s)   : none.
 298:..\..\..\..\..\..\uC-Probe\Target\Communication\Generic\RS-232\Ports\Cypress\PSoC5/probe_rs232c.c **** *
 299:..\..\..\..\..\..\uC-Probe\Target\Communication\Generic\RS-232\Ports\Cypress\PSoC5/probe_rs232c.c **** * Caller(s)   : ProbeRS232_TxStart().
 300:..\..\..\..\..\..\uC-Probe\Target\Communication\Generic\RS-232\Ports\Cypress\PSoC5/probe_rs232c.c **** *
 301:..\..\..\..\..\..\uC-Probe\Target\Communication\Generic\RS-232\Ports\Cypress\PSoC5/probe_rs232c.c **** * Note(s)     : none.
 302:..\..\..\..\..\..\uC-Probe\Target\Communication\Generic\RS-232\Ports\Cypress\PSoC5/probe_rs232c.c **** ***************************************************************************************************
 303:..\..\..\..\..\..\uC-Probe\Target\Communication\Generic\RS-232\Ports\Cypress\PSoC5/probe_rs232c.c **** */
 304:..\..\..\..\..\..\uC-Probe\Target\Communication\Generic\RS-232\Ports\Cypress\PSoC5/probe_rs232c.c **** 
 305:..\..\..\..\..\..\uC-Probe\Target\Communication\Generic\RS-232\Ports\Cypress\PSoC5/probe_rs232c.c **** void  ProbeRS232_TxIntEn (void)
 306:..\..\..\..\..\..\uC-Probe\Target\Communication\Generic\RS-232\Ports\Cypress\PSoC5/probe_rs232c.c **** {
 292              		.loc 1 306 0
 293              		.cfi_startproc
 294              		@ args = 0, pretend = 0, frame = 0
 295              		@ frame_needed = 1, uses_anonymous_args = 0
 296 0000 80B5     		push	{r7, lr}
 297              	.LCFI19:
 298              		.cfi_def_cfa_offset 8
 299 0002 00AF     		add	r7, sp, #0
 300              		.cfi_offset 14, -4
 301              		.cfi_offset 7, -8
 302              	.LCFI20:
 303              		.cfi_def_cfa_register 7
 307:..\..\..\..\..\..\uC-Probe\Target\Communication\Generic\RS-232\Ports\Cypress\PSoC5/probe_rs232c.c ****     ProbeUART_TxISR_Enable();
 304              		.loc 1 307 0
 305 0004 FFF7FEFF 		bl	ProbeUART_TxISR_Enable
 308:..\..\..\..\..\..\uC-Probe\Target\Communication\Generic\RS-232\Ports\Cypress\PSoC5/probe_rs232c.c **** }
 306              		.loc 1 308 0
 307 0008 80BD     		pop	{r7, pc}
 308              		.cfi_endproc
 309              	.LFE8:
 310              		.size	ProbeRS232_TxIntEn, .-ProbeRS232_TxIntEn
 311 000a 00BF     		.text
 312              	.Letext0: