ARM GAS  C:\Users\daniel01\AppData\Local\Temp\ccABDvgb.s 			page 1


   1              		.syntax unified
   2              		.cpu cortex-m3
   3              		.fpu softvfp
   4              		.eabi_attribute 20, 1
   5              		.eabi_attribute 21, 1
   6              		.eabi_attribute 23, 3
   7              		.eabi_attribute 24, 1
   8              		.eabi_attribute 25, 1
   9              		.eabi_attribute 26, 1
  10              		.eabi_attribute 30, 6
  11              		.eabi_attribute 18, 4
  12              		.thumb
  13              		.file	"app.c"
  20 0000 76010000 		.text
  20      0200B100 
  20      00000201 
  20      FB0E0D00 
  20      01010101 
  21              	.Ltext0:
  22              		.cfi_sections	.debug_frame
  23              		.bss
  24              		.align	2
  25              	App_TaskStartTCB:
  26 0000 00000000 		.space	192
  26      00000000 
  26      00000000 
  26      00000000 
  26      00000000 
  27              		.align	2
  28              	App_TaskStartStk:
  29 00c0 00000000 		.space	512
  29      00000000 
  29      00000000 
  29      00000000 
  29      00000000 
  30              		.align	2
  31              	App_TaskUserIF_TCB:
  32 02c0 00000000 		.space	192
  32      00000000 
  32      00000000 
  32      00000000 
  32      00000000 
  33              		.align	2
  34              	App_TaskUserIFStk:
  35 0380 00000000 		.space	1024
  35      00000000 
  35      00000000 
  35      00000000 
  35      00000000 
  36              		.section	.rodata
  37              		.align	2
ARM GAS  C:\Users\daniel01\AppData\Local\Temp\ccABDvgb.s 			page 2


  38              	.LC0:
  39 0000 53746172 		.ascii	"Start\000"
  39      7400
  40              		.section	.text.main,"ax",%progbits
  41              		.align	2
  42              		.global	main
  43              		.thumb
  44              		.thumb_func
  45              		.type	main, %function
  46              	main:
  47              	.LFB0:
  48              		.file 1 "..\\app.c"
   1:..\app.c      **** /*
   2:..\app.c      **** ***************************************************************************************************
   3:..\app.c      **** *                                              EXAMPLE CODE
   4:..\app.c      **** *
   5:..\app.c      **** *                             (c) Copyright 2012; Micrium, Inc.; Weston, FL
   6:..\app.c      **** *
   7:..\app.c      **** *               All rights reserved.  Protected by international copyright laws.
   8:..\app.c      **** *               Knowledge of the source code may NOT be used to develop a similar product.
   9:..\app.c      **** *               Please help us continue to provide the Embedded community with the finest
  10:..\app.c      **** *               software available.  Your honesty is greatly appreciated.
  11:..\app.c      **** ***************************************************************************************************
  12:..\app.c      **** */
  13:..\app.c      **** 
  14:..\app.c      **** /*
  15:..\app.c      **** ***************************************************************************************************
  16:..\app.c      **** *
  17:..\app.c      **** *                                           EXAMPLE CODE
  18:..\app.c      **** *
  19:..\app.c      **** *                                           CYPRESS PSoC5
  20:..\app.c      **** *                                              with the
  21:..\app.c      **** *                                     CY8CKIT-050 Development Kit
  22:..\app.c      **** *
  23:..\app.c      **** * Filename      : app.c
  24:..\app.c      **** * Version       : V1.00
  25:..\app.c      **** * Programmer(s) : DC
  26:..\app.c      ****                   
  27:..\app.c      **** ***************************************************************************************************
  28:..\app.c      **** */
  29:..\app.c      **** 
  30:..\app.c      **** /*
  31:..\app.c      **** ***************************************************************************************************
  32:..\app.c      **** *                                             INCLUDE FILES
  33:..\app.c      **** ***************************************************************************************************
  34:..\app.c      **** */
  35:..\app.c      **** 
  36:..\app.c      **** #include <includes.h>
  37:..\app.c      **** 
  38:..\app.c      **** 
  39:..\app.c      **** /*
  40:..\app.c      **** ***************************************************************************************************
  41:..\app.c      **** *                                             LOCAL DEFINES
  42:..\app.c      **** ***************************************************************************************************
  43:..\app.c      **** */
  44:..\app.c      **** 
  45:..\app.c      **** #define  APP_USER_IF_SIGN_ON                        0u
ARM GAS  C:\Users\daniel01\AppData\Local\Temp\ccABDvgb.s 			page 3


  46:..\app.c      **** #define  APP_USER_IF_VER_TICK_RATE                  1u
  47:..\app.c      **** #define  APP_USER_IF_CPU                            2u
  48:..\app.c      **** #define  APP_USER_IF_CTXSW                          3u
  49:..\app.c      **** #define  APP_USER_IF_STATE_MAX                      4u
  50:..\app.c      **** 
  51:..\app.c      **** /*
  52:..\app.c      **** ***************************************************************************************************
  53:..\app.c      **** *                                            LOCAL VARIABLES
  54:..\app.c      **** ***************************************************************************************************
  55:..\app.c      **** */
  56:..\app.c      **** 
  57:..\app.c      **** static  OS_TCB   App_TaskStartTCB;
  58:..\app.c      **** static  CPU_STK  App_TaskStartStk[APP_CFG_TASK_START_STK_SIZE];
  59:..\app.c      **** 
  60:..\app.c      **** static  OS_TCB   App_TaskUserIF_TCB;
  61:..\app.c      **** static  CPU_STK  App_TaskUserIFStk[APP_CFG_TASK_USER_IF_STK_SIZE];
  62:..\app.c      **** 
  63:..\app.c      **** 
  64:..\app.c      **** /*
  65:..\app.c      **** ***************************************************************************************************
  66:..\app.c      **** *                                         FUNCTION PROTOTYPES
  67:..\app.c      **** ***************************************************************************************************
  68:..\app.c      **** */
  69:..\app.c      **** 
  70:..\app.c      **** static  void  App_TaskStart  (void *p_arg);
  71:..\app.c      **** 
  72:..\app.c      **** static  void  App_TaskUserIF (void *p_arg);
  73:..\app.c      **** 
  74:..\app.c      **** static  void  App_TaskCreate (void);
  75:..\app.c      **** static  void  App_ObjCreate  (void);
  76:..\app.c      **** 
  77:..\app.c      **** /*
  78:..\app.c      **** ***************************************************************************************************
  79:..\app.c      **** *                                                main()
  80:..\app.c      **** *
  81:..\app.c      **** * Description : This is the standard entry point for C code.  It is assumed that your code will cal
  82:..\app.c      **** *               main() once you have performed all necessary initialization.
  83:..\app.c      **** *
  84:..\app.c      **** * Argument(s) : none
  85:..\app.c      **** *
  86:..\app.c      **** * Return(s)   : none
  87:..\app.c      **** *
  88:..\app.c      **** * Caller(s)   : Startup Code.
  89:..\app.c      **** *
  90:..\app.c      **** * Note(s)     : none.
  91:..\app.c      **** ***************************************************************************************************
  92:..\app.c      **** */
  93:..\app.c      **** 
  94:..\app.c      **** int  main (void)
  95:..\app.c      **** {
  49              		.loc 1 95 0
  50              		.cfi_startproc
  51              		@ args = 0, pretend = 0, frame = 8
  52              		@ frame_needed = 1, uses_anonymous_args = 0
  53 0000 80B5     		push	{r7, lr}
  54              	.LCFI0:
  55              		.cfi_def_cfa_offset 8
ARM GAS  C:\Users\daniel01\AppData\Local\Temp\ccABDvgb.s 			page 4


  56 0002 8CB0     		sub	sp, sp, #48
  57              	.LCFI1:
  58              		.cfi_def_cfa_offset 56
  59 0004 0AAF     		add	r7, sp, #40
  60              		.cfi_offset 14, -4
  61              		.cfi_offset 7, -8
  62              	.LCFI2:
  63              		.cfi_def_cfa 7, 16
  96:..\app.c      ****     OS_ERR  os_err;
  97:..\app.c      **** 
  98:..\app.c      **** 
  99:..\app.c      ****     BSP_PreInit();                                              /* Perform BSP pre-initialization. 
  64              		.loc 1 99 0
  65 0006 FFF7FEFF 		bl	BSP_PreInit
 100:..\app.c      **** 
 101:..\app.c      ****     CPU_Init();                                                 /* Initialize the uC/CPU services  
  66              		.loc 1 101 0
  67 000a FFF7FEFF 		bl	CPU_Init
 102:..\app.c      **** 
 103:..\app.c      ****     OSInit(&os_err);                                            /* Init uC/OS-III.                 
  68              		.loc 1 103 0
  69 000e 07F10603 		add	r3, r7, #6
  70 0012 1846     		mov	r0, r3
  71 0014 FFF7FEFF 		bl	OSInit
 104:..\app.c      **** 
 105:..\app.c      ****     OSTaskCreate((OS_TCB      *)&App_TaskStartTCB,              /* Create the start task           
  72              		.loc 1 105 0
  73 0018 4FF00203 		mov	r3, #2
  74 001c 0093     		str	r3, [sp, #0]
  75 001e 40F20003 		movw	r3, #:lower16:App_TaskStartStk
  76 0022 C0F20003 		movt	r3, #:upper16:App_TaskStartStk
  77 0026 0193     		str	r3, [sp, #4]
  78 0028 4FF00C03 		mov	r3, #12
  79 002c 0293     		str	r3, [sp, #8]
  80 002e 4FF08003 		mov	r3, #128
  81 0032 0393     		str	r3, [sp, #12]
  82 0034 4FF00003 		mov	r3, #0
  83 0038 0493     		str	r3, [sp, #16]
  84 003a 4FF00003 		mov	r3, #0
  85 003e 0593     		str	r3, [sp, #20]
  86 0040 4FF00003 		mov	r3, #0
  87 0044 0693     		str	r3, [sp, #24]
  88 0046 4FF00303 		mov	r3, #3
  89 004a 0793     		str	r3, [sp, #28]
  90 004c 07F10603 		add	r3, r7, #6
  91 0050 0893     		str	r3, [sp, #32]
  92 0052 40F20000 		movw	r0, #:lower16:App_TaskStartTCB
  93 0056 C0F20000 		movt	r0, #:upper16:App_TaskStartTCB
  94 005a 40F20001 		movw	r1, #:lower16:.LC0
  95 005e C0F20001 		movt	r1, #:upper16:.LC0
  96 0062 40F20002 		movw	r2, #:lower16:App_TaskStart
  97 0066 C0F20002 		movt	r2, #:upper16:App_TaskStart
  98 006a 4FF00003 		mov	r3, #0
  99 006e FFF7FEFF 		bl	OSTaskCreate
 106:..\app.c      ****                  (CPU_CHAR    *)"Start",
 107:..\app.c      ****                  (OS_TASK_PTR  )App_TaskStart, 
 108:..\app.c      ****                  (void        *)0,
ARM GAS  C:\Users\daniel01\AppData\Local\Temp\ccABDvgb.s 			page 5


 109:..\app.c      ****                  (OS_PRIO      )APP_CFG_TASK_START_PRIO,
 110:..\app.c      ****                  (CPU_STK     *)&App_TaskStartStk[0],
 111:..\app.c      ****                  (CPU_STK_SIZE )APP_CFG_TASK_START_STK_SIZE_LIMIT,
 112:..\app.c      ****                  (CPU_STK_SIZE )APP_CFG_TASK_START_STK_SIZE,
 113:..\app.c      ****                  (OS_MSG_QTY   )0u,
 114:..\app.c      ****                  (OS_TICK      )0u,
 115:..\app.c      ****                  (void        *)0,
 116:..\app.c      ****                  (OS_OPT       )(OS_OPT_TASK_STK_CHK | OS_OPT_TASK_STK_CLR),
 117:..\app.c      ****                  (OS_ERR      *)&os_err);
 118:..\app.c      **** 
 119:..\app.c      ****     OSStart(&os_err);                                            /* Start multitasking (i.e. give c
 100              		.loc 1 119 0
 101 0072 07F10603 		add	r3, r7, #6
 102 0076 1846     		mov	r0, r3
 103 0078 FFF7FEFF 		bl	OSStart
 120:..\app.c      **** }
 104              		.loc 1 120 0
 105 007c 07F10807 		add	r7, r7, #8
 106 0080 BD46     		mov	sp, r7
 107 0082 80BD     		pop	{r7, pc}
 108              		.cfi_endproc
 109              	.LFE0:
 110              		.size	main, .-main
 111              		.section	.text.App_TaskStart,"ax",%progbits
 112              		.align	2
 113              		.thumb
 114              		.thumb_func
 115              		.type	App_TaskStart, %function
 116              	App_TaskStart:
 117              	.LFB1:
 121:..\app.c      **** 
 122:..\app.c      **** 
 123:..\app.c      **** /*
 124:..\app.c      **** ***************************************************************************************************
 125:..\app.c      **** *                                          App_TaskStart()
 126:..\app.c      **** *
 127:..\app.c      **** * Description : This is an example of a startup task.  As mentioned in the book's text, you MUST
 128:..\app.c      **** *               initialize the ticker only once multitasking has started.
 129:..\app.c      **** *
 130:..\app.c      **** * Argument(s) : p_arg   is the argument passed to 'App_TaskStart()' by 'OSTaskCreate()'.
 131:..\app.c      **** *
 132:..\app.c      **** * Return(s)   : none
 133:..\app.c      **** *
 134:..\app.c      **** * Note(s)     : 1) The first line of code is used to prevent a compiler warning because 'p_arg' is 
 135:..\app.c      **** *                  used.  The compiler should not generate any code for this statement.
 136:..\app.c      **** ***************************************************************************************************
 137:..\app.c      **** */
 138:..\app.c      **** 
 139:..\app.c      **** static  void  App_TaskStart (void *p_arg)
 140:..\app.c      **** {
 118              		.loc 1 140 0
 119              		.cfi_startproc
 120              		@ args = 0, pretend = 0, frame = 16
 121              		@ frame_needed = 1, uses_anonymous_args = 0
 122 0000 80B5     		push	{r7, lr}
 123              	.LCFI3:
 124              		.cfi_def_cfa_offset 8
ARM GAS  C:\Users\daniel01\AppData\Local\Temp\ccABDvgb.s 			page 6


 125 0002 86B0     		sub	sp, sp, #24
 126              	.LCFI4:
 127              		.cfi_def_cfa_offset 32
 128 0004 02AF     		add	r7, sp, #8
 129              		.cfi_offset 14, -4
 130              		.cfi_offset 7, -8
 131              	.LCFI5:
 132              		.cfi_def_cfa 7, 24
 133 0006 7860     		str	r0, [r7, #4]
 141:..\app.c      ****     OS_ERR       err;
 142:..\app.c      ****         
 143:..\app.c      **** 
 144:..\app.c      ****    (void)p_arg;
 145:..\app.c      ****    
 146:..\app.c      **** 
 147:..\app.c      ****     BSP_PostInit();                                               /* Perform BSP post-initializatio
 134              		.loc 1 147 0
 135 0008 FFF7FEFF 		bl	BSP_PostInit
 148:..\app.c      ****     
 149:..\app.c      ****     BSP_CPU_TickInit();                                           /* Perfrom Tick Initialization   
 136              		.loc 1 149 0
 137 000c FFF7FEFF 		bl	BSP_CPU_TickInit
 150:..\app.c      **** 
 151:..\app.c      **** #if (OS_CFG_STAT_TASK_EN > 0u)
 152:..\app.c      ****     OSStatTaskCPUUsageInit(&err);
 138              		.loc 1 152 0
 139 0010 07F10E03 		add	r3, r7, #14
 140 0014 1846     		mov	r0, r3
 141 0016 FFF7FEFF 		bl	OSStatTaskCPUUsageInit
 153:..\app.c      **** #endif    
 154:..\app.c      **** 
 155:..\app.c      **** #ifdef CPU_CFG_INT_DIS_MEAS_EN
 156:..\app.c      ****     CPU_IntDisMeasMaxCurReset();
 157:..\app.c      **** #endif      
 158:..\app.c      **** 
 159:..\app.c      ****     App_TaskCreate();                                             /* Create application tasks.     
 142              		.loc 1 159 0
 143 001a FFF7FEFF 		bl	App_TaskCreate
 160:..\app.c      **** 
 161:..\app.c      ****     App_ObjCreate();                                              /* Create kernel objects         
 144              		.loc 1 161 0
 145 001e FFF7FEFF 		bl	App_ObjCreate
 162:..\app.c      ****     
 163:..\app.c      **** #if (APP_CFG_PROBE_COM_EN == DEF_ENABLED)
 164:..\app.c      ****     App_ProbeInit();                                              /* Enabling uC/Probe             
 146              		.loc 1 164 0
 147 0022 FFF7FEFF 		bl	App_ProbeInit
 165:..\app.c      **** #endif
 166:..\app.c      ****     
 167:..\app.c      ****     BSP_LED_Off(0);
 148              		.loc 1 167 0
 149 0026 4FF00000 		mov	r0, #0
 150 002a FFF7FEFF 		bl	BSP_LED_Off
 151              	.L4:
 168:..\app.c      **** 
 169:..\app.c      ****     while (DEF_TRUE) {                                            /* Task body, always written as a
 170:..\app.c      ****         BSP_LED_Toggle(0);
ARM GAS  C:\Users\daniel01\AppData\Local\Temp\ccABDvgb.s 			page 7


 152              		.loc 1 170 0
 153 002e 4FF00000 		mov	r0, #0
 154 0032 FFF7FEFF 		bl	BSP_LED_Toggle
 171:..\app.c      ****         OSTimeDlyHMSM(0, 0, 0, 100, 
 155              		.loc 1 171 0
 156 0036 4FF00003 		mov	r3, #0
 157 003a 0093     		str	r3, [sp, #0]
 158 003c 07F10E03 		add	r3, r7, #14
 159 0040 0193     		str	r3, [sp, #4]
 160 0042 4FF00000 		mov	r0, #0
 161 0046 4FF00001 		mov	r1, #0
 162 004a 4FF00002 		mov	r2, #0
 163 004e 4FF06403 		mov	r3, #100
 164 0052 FFF7FEFF 		bl	OSTimeDlyHMSM
 172:..\app.c      ****                       OS_OPT_TIME_HMSM_STRICT, 
 173:..\app.c      ****                       &err);
 174:..\app.c      ****     }
 165              		.loc 1 174 0
 166 0056 EAE7     		b	.L4
 167              		.cfi_endproc
 168              	.LFE1:
 169              		.size	App_TaskStart, .-App_TaskStart
 170              		.section	.text.App_TaskCreate,"ax",%progbits
 171              		.align	2
 172              		.thumb
 173              		.thumb_func
 174              		.type	App_TaskCreate, %function
 175              	App_TaskCreate:
 176              	.LFB2:
 175:..\app.c      **** }
 176:..\app.c      **** 
 177:..\app.c      **** 
 178:..\app.c      **** /*
 179:..\app.c      **** ***************************************************************************************************
 180:..\app.c      **** *                                          App_TaskCreate()
 181:..\app.c      **** *
 182:..\app.c      **** * Description : Create application tasks.
 183:..\app.c      **** *
 184:..\app.c      **** * Argument(s) : none
 185:..\app.c      **** *
 186:..\app.c      **** * Return(s)   : none
 187:..\app.c      **** *
 188:..\app.c      **** * Caller(s)   : AppTaskStart()
 189:..\app.c      **** *
 190:..\app.c      **** * Note(s)     : none.
 191:..\app.c      **** ***************************************************************************************************
 192:..\app.c      **** */
 193:..\app.c      **** 
 194:..\app.c      **** static  void  App_TaskCreate (void)
 195:..\app.c      **** {
 177              		.loc 1 195 0
 178              		.cfi_startproc
 179              		@ args = 0, pretend = 0, frame = 8
 180              		@ frame_needed = 1, uses_anonymous_args = 0
 181 0000 80B5     		push	{r7, lr}
 182              	.LCFI6:
 183              		.cfi_def_cfa_offset 8
ARM GAS  C:\Users\daniel01\AppData\Local\Temp\ccABDvgb.s 			page 8


 184 0002 8CB0     		sub	sp, sp, #48
 185              	.LCFI7:
 186              		.cfi_def_cfa_offset 56
 187 0004 0AAF     		add	r7, sp, #40
 188              		.cfi_offset 14, -4
 189              		.cfi_offset 7, -8
 190              	.LCFI8:
 191              		.cfi_def_cfa 7, 16
 196:..\app.c      **** 
 197:..\app.c      ****     OS_ERR  os_err;
 198:..\app.c      **** 
 199:..\app.c      ****     
 200:..\app.c      ****     OSTaskCreate((OS_TCB      *)&App_TaskUserIF_TCB,
 192              		.loc 1 200 0
 193 0006 4FF00303 		mov	r3, #3
 194 000a 0093     		str	r3, [sp, #0]
 195 000c 40F20003 		movw	r3, #:lower16:App_TaskUserIFStk
 196 0010 C0F20003 		movt	r3, #:upper16:App_TaskUserIFStk
 197 0014 0193     		str	r3, [sp, #4]
 198 0016 4FF01903 		mov	r3, #25
 199 001a 0293     		str	r3, [sp, #8]
 200 001c 4FF48073 		mov	r3, #256
 201 0020 0393     		str	r3, [sp, #12]
 202 0022 4FF00003 		mov	r3, #0
 203 0026 0493     		str	r3, [sp, #16]
 204 0028 4FF00003 		mov	r3, #0
 205 002c 0593     		str	r3, [sp, #20]
 206 002e 4FF00003 		mov	r3, #0
 207 0032 0693     		str	r3, [sp, #24]
 208 0034 4FF00303 		mov	r3, #3
 209 0038 0793     		str	r3, [sp, #28]
 210 003a 07F10603 		add	r3, r7, #6
 211 003e 0893     		str	r3, [sp, #32]
 212 0040 40F20000 		movw	r0, #:lower16:App_TaskUserIF_TCB
 213 0044 C0F20000 		movt	r0, #:upper16:App_TaskUserIF_TCB
 214 0048 40F20001 		movw	r1, #:lower16:.LC0
 215 004c C0F20001 		movt	r1, #:upper16:.LC0
 216 0050 40F20002 		movw	r2, #:lower16:App_TaskUserIF
 217 0054 C0F20002 		movt	r2, #:upper16:App_TaskUserIF
 218 0058 4FF00003 		mov	r3, #0
 219 005c FFF7FEFF 		bl	OSTaskCreate
 201:..\app.c      ****                  (CPU_CHAR    *)"Start",
 202:..\app.c      ****                  (OS_TASK_PTR  )App_TaskUserIF, 
 203:..\app.c      ****                  (void        *)0,
 204:..\app.c      ****                  (OS_PRIO      )APP_CFG_TASK_USER_IF_PRIO,
 205:..\app.c      ****                  (CPU_STK     *)&App_TaskUserIFStk[0],
 206:..\app.c      ****                  (CPU_STK_SIZE )APP_CFG_TASK_USER_IF_STK_SIZE_LIMIT,
 207:..\app.c      ****                  (CPU_STK_SIZE )APP_CFG_TASK_USER_IF_STK_SIZE,
 208:..\app.c      ****                  (OS_MSG_QTY   )0u,
 209:..\app.c      ****                  (OS_TICK      )0u,
 210:..\app.c      ****                  (void        *)0,
 211:..\app.c      ****                  (OS_OPT       )(OS_OPT_TASK_STK_CHK | OS_OPT_TASK_STK_CLR),
 212:..\app.c      ****                  (OS_ERR      *)&os_err);
 213:..\app.c      **** }
 220              		.loc 1 213 0
 221 0060 07F10807 		add	r7, r7, #8
 222 0064 BD46     		mov	sp, r7
ARM GAS  C:\Users\daniel01\AppData\Local\Temp\ccABDvgb.s 			page 9


 223 0066 80BD     		pop	{r7, pc}
 224              		.cfi_endproc
 225              	.LFE2:
 226              		.size	App_TaskCreate, .-App_TaskCreate
 227              		.section	.text.App_ObjCreate,"ax",%progbits
 228              		.align	2
 229              		.thumb
 230              		.thumb_func
 231              		.type	App_ObjCreate, %function
 232              	App_ObjCreate:
 233              	.LFB3:
 214:..\app.c      **** 
 215:..\app.c      **** 
 216:..\app.c      **** /*
 217:..\app.c      **** ***************************************************************************************************
 218:..\app.c      **** *                                          App_ObjCreate()
 219:..\app.c      **** *
 220:..\app.c      **** * Description : Create application kernel objects tasks.
 221:..\app.c      **** *
 222:..\app.c      **** * Argument(s) : none
 223:..\app.c      **** *
 224:..\app.c      **** * Return(s)   : none
 225:..\app.c      **** *
 226:..\app.c      **** * Caller(s)   : AppTaskStart()
 227:..\app.c      **** *
 228:..\app.c      **** * Note(s)     : none.
 229:..\app.c      **** ***************************************************************************************************
 230:..\app.c      **** */
 231:..\app.c      **** 
 232:..\app.c      **** static  void  App_ObjCreate (void)
 233:..\app.c      **** {
 234              		.loc 1 233 0
 235              		.cfi_startproc
 236              		@ args = 0, pretend = 0, frame = 0
 237              		@ frame_needed = 1, uses_anonymous_args = 0
 238              		@ link register save eliminated.
 239 0000 80B4     		push	{r7}
 240              	.LCFI9:
 241              		.cfi_def_cfa_offset 4
 242 0002 00AF     		add	r7, sp, #0
 243              		.cfi_offset 7, -4
 244              	.LCFI10:
 245              		.cfi_def_cfa_register 7
 234:..\app.c      **** 
 235:..\app.c      **** }
 246              		.loc 1 235 0
 247 0004 BD46     		mov	sp, r7
 248 0006 80BC     		pop	{r7}
 249 0008 7047     		bx	lr
 250              		.cfi_endproc
 251              	.LFE3:
 252              		.size	App_ObjCreate, .-App_ObjCreate
 253 000a 00BF     		.section	.rodata
 254 0006 0000     		.align	2
 255              	.LC1:
 256 0008 20202020 		.ascii	"                \000"
 256      20202020 
ARM GAS  C:\Users\daniel01\AppData\Local\Temp\ccABDvgb.s 			page 10


 256      20202020 
 256      20202020 
 256      00
 257 0019 000000   		.align	2
 258              	.LC2:
 259 001c 4D696372 		.ascii	"Micrium uC/OS-III\000"
 259      69756D20 
 259      75432F4F 
 259      532D4949 
 259      4900
 260 002e 0000     		.align	2
 261              	.LC3:
 262 0030 75432F4F 		.ascii	"uC/OS-III Vx.yyy\000"
 262      532D4949 
 262      49205678 
 262      2E797979 
 262      00
 263 0041 000000   		.align	2
 264              	.LC4:
 265 0044 5469636B 		.ascii	"TickRate:   xxxx\000"
 265      52617465 
 265      3A202020 
 265      78787878 
 265      00
 266 0055 000000   		.align	2
 267              	.LC5:
 268 0058 43505520 		.ascii	"CPU Usage:xx %  \000"
 268      55736167 
 268      653A7878 
 268      20252020 
 268      00
 269 0069 000000   		.align	2
 270              	.LC6:
 271 006c 43505520 		.ascii	"CPU Speed:xxxMHz\000"
 271      53706565 
 271      643A7878 
 271      784D487A 
 271      00
 272 007d 000000   		.align	2
 273              	.LC7:
 274 0080 23546963 		.ascii	"#Ticks: xxxxxxxx\000"
 274      6B733A20 
 274      78787878 
 274      78787878 
 274      00
 275 0091 000000   		.align	2
 276              	.LC8:
 277 0094 23437478 		.ascii	"#CtxSw: xxxxxxxx\000"
 277      53773A20 
 277      78787878 
 277      78787878 
 277      00
 278 00a5 000000   		.align	2
 279              	.LC9:
 280 00a8 3D3D3D20 		.ascii	"=== Micrium === \000"
 280      4D696372 
 280      69756D20 
ARM GAS  C:\Users\daniel01\AppData\Local\Temp\ccABDvgb.s 			page 11


 280      3D3D3D20 
 280      00
 281 00b9 000000   		.align	2
 282              	.LC10:
 283 00bc 20202075 		.ascii	"   uC/OS-III    \000"
 283      432F4F53 
 283      2D494949 
 283      20202020 
 283      00
 284 00cd 000000   		.section	.text.App_TaskUserIF,"ax",%progbits
 285              		.align	2
 286              		.thumb
 287              		.thumb_func
 288              		.type	App_TaskUserIF, %function
 289              	App_TaskUserIF:
 290              	.LFB4:
 236:..\app.c      **** 
 237:..\app.c      **** 
 238:..\app.c      **** /*
 239:..\app.c      **** ***************************************************************************************************
 240:..\app.c      **** *                                          App_TaskUserIF()
 241:..\app.c      **** *
 242:..\app.c      **** * Description : User interface task
 243:..\app.c      **** *
 244:..\app.c      **** * Argument(s) : p_arg   is the argument passed to 'App_TaskUserIF()' by 'OSTaskCreate()'.
 245:..\app.c      **** *
 246:..\app.c      **** * Return(s)   : none
 247:..\app.c      **** *
 248:..\app.c      **** * Note(s)     : 1) The first line of code is used to prevent a compiler warning because 'p_arg' is 
 249:..\app.c      **** *                  used.  The compiler should not generate any code for this statement.
 250:..\app.c      **** ***************************************************************************************************
 251:..\app.c      **** */
 252:..\app.c      **** 
 253:..\app.c      **** 
 254:..\app.c      **** static  void  App_TaskUserIF (void *p_arg)
 255:..\app.c      **** {
 291              		.loc 1 255 0
 292              		.cfi_startproc
 293              		@ args = 0, pretend = 0, frame = 40
 294              		@ frame_needed = 1, uses_anonymous_args = 0
 295 0000 80B5     		push	{r7, lr}
 296              	.LCFI11:
 297              		.cfi_def_cfa_offset 8
 298 0002 8EB0     		sub	sp, sp, #56
 299              	.LCFI12:
 300              		.cfi_def_cfa_offset 64
 301 0004 04AF     		add	r7, sp, #16
 302              		.cfi_offset 14, -4
 303              		.cfi_offset 7, -8
 304              	.LCFI13:
 305              		.cfi_def_cfa 7, 48
 306 0006 7860     		str	r0, [r7, #4]
 256:..\app.c      ****    CPU_INT32U   val;
 257:..\app.c      ****    CPU_INT08U   user_if_state_cur;
 258:..\app.c      ****    CPU_INT08U   user_if_state_prev;   
 259:..\app.c      ****    CPU_BOOLEAN  pb2_state_cur;
 260:..\app.c      ****    CPU_BOOLEAN  pb2_state_prev;
ARM GAS  C:\Users\daniel01\AppData\Local\Temp\ccABDvgb.s 			page 12


 261:..\app.c      ****    CPU_BOOLEAN  pb3_state_cur;
 262:..\app.c      ****    CPU_BOOLEAN  pb3_state_prev;
 263:..\app.c      ****    OS_ERR       os_err;
 264:..\app.c      ****    CPU_CHAR     line_str[17];
 265:..\app.c      ****    
 266:..\app.c      ****    
 267:..\app.c      ****    (void)p_arg;
 268:..\app.c      ****    
 269:..\app.c      ****    LCD_Disp_Start();                                             /* Initialize the LCD screen.     
 307              		.loc 1 269 0
 308 0008 FFF7FEFF 		bl	LCD_Disp_Start
 270:..\app.c      ****    
 271:..\app.c      ****    LCD_Disp_Position(0u, 0u);                                    /* Clear LCD screen               
 309              		.loc 1 271 0
 310 000c 4FF00000 		mov	r0, #0
 311 0010 4FF00001 		mov	r1, #0
 312 0014 FFF7FEFF 		bl	LCD_Disp_Position
 272:..\app.c      ****    LCD_Disp_PrintString((uint8 *)"                ");
 313              		.loc 1 272 0
 314 0018 40F20000 		movw	r0, #:lower16:.LC1
 315 001c C0F20000 		movt	r0, #:upper16:.LC1
 316 0020 FFF7FEFF 		bl	LCD_Disp_PrintString
 273:..\app.c      ****    LCD_Disp_Position(1u, 0u);
 317              		.loc 1 273 0
 318 0024 4FF00100 		mov	r0, #1
 319 0028 4FF00001 		mov	r1, #0
 320 002c FFF7FEFF 		bl	LCD_Disp_Position
 274:..\app.c      ****    LCD_Disp_PrintString((uint8 *)"                ");
 321              		.loc 1 274 0
 322 0030 40F20000 		movw	r0, #:lower16:.LC1
 323 0034 C0F20000 		movt	r0, #:upper16:.LC1
 324 0038 FFF7FEFF 		bl	LCD_Disp_PrintString
 275:..\app.c      ****    
 276:..\app.c      ****    LCD_Disp_PrintString((uint8 *)"Micrium uC/OS-III");
 325              		.loc 1 276 0
 326 003c 40F20000 		movw	r0, #:lower16:.LC2
 327 0040 C0F20000 		movt	r0, #:upper16:.LC2
 328 0044 FFF7FEFF 		bl	LCD_Disp_PrintString
 277:..\app.c      **** 
 278:..\app.c      ****    user_if_state_cur  = APP_USER_IF_SIGN_ON;
 329              		.loc 1 278 0
 330 0048 4FF00003 		mov	r3, #0
 331 004c 87F82230 		strb	r3, [r7, #34]
 279:..\app.c      ****    user_if_state_prev = APP_USER_IF_SIGN_ON;
 332              		.loc 1 279 0
 333 0050 4FF00003 		mov	r3, #0
 334 0054 87F82330 		strb	r3, [r7, #35]
 280:..\app.c      ****    pb2_state_cur      = DEF_OFF;
 335              		.loc 1 280 0
 336 0058 4FF00003 		mov	r3, #0
 337 005c 87F82430 		strb	r3, [r7, #36]
 281:..\app.c      ****    pb2_state_prev     = DEF_OFF;
 338              		.loc 1 281 0
 339 0060 4FF00003 		mov	r3, #0
 340 0064 87F82530 		strb	r3, [r7, #37]
 282:..\app.c      ****    pb3_state_cur      = DEF_OFF;
 341              		.loc 1 282 0
ARM GAS  C:\Users\daniel01\AppData\Local\Temp\ccABDvgb.s 			page 13


 342 0068 4FF00003 		mov	r3, #0
 343 006c 87F82630 		strb	r3, [r7, #38]
 283:..\app.c      ****    pb3_state_prev     = DEF_OFF;
 344              		.loc 1 283 0
 345 0070 4FF00003 		mov	r3, #0
 346 0074 87F82730 		strb	r3, [r7, #39]
 347              	.L19:
 284:..\app.c      ****    
 285:..\app.c      ****    
 286:..\app.c      ****     while (DEF_TRUE) {    
 287:..\app.c      **** 
 288:..\app.c      ****         if (user_if_state_cur != user_if_state_prev) {
 348              		.loc 1 288 0
 349 0078 97F82220 		ldrb	r2, [r7, #34]	@ zero_extendqisi2
 350 007c 97F82330 		ldrb	r3, [r7, #35]	@ zero_extendqisi2
 351 0080 9A42     		cmp	r2, r3
 352 0082 1BD0     		beq	.L11
 289:..\app.c      ****             LCD_Disp_Position(0u, 0u);
 353              		.loc 1 289 0
 354 0084 4FF00000 		mov	r0, #0
 355 0088 4FF00001 		mov	r1, #0
 356 008c FFF7FEFF 		bl	LCD_Disp_Position
 290:..\app.c      ****             LCD_Disp_PrintString((uint8 *)"                ");
 357              		.loc 1 290 0
 358 0090 40F20000 		movw	r0, #:lower16:.LC1
 359 0094 C0F20000 		movt	r0, #:upper16:.LC1
 360 0098 FFF7FEFF 		bl	LCD_Disp_PrintString
 291:..\app.c      ****             LCD_Disp_Position(1u, 0u);
 361              		.loc 1 291 0
 362 009c 4FF00100 		mov	r0, #1
 363 00a0 4FF00001 		mov	r1, #0
 364 00a4 FFF7FEFF 		bl	LCD_Disp_Position
 292:..\app.c      ****             LCD_Disp_PrintString((uint8 *)"                ");
 365              		.loc 1 292 0
 366 00a8 40F20000 		movw	r0, #:lower16:.LC1
 367 00ac C0F20000 		movt	r0, #:upper16:.LC1
 368 00b0 FFF7FEFF 		bl	LCD_Disp_PrintString
 293:..\app.c      ****             user_if_state_prev = user_if_state_cur;
 369              		.loc 1 293 0
 370 00b4 97F82230 		ldrb	r3, [r7, #34]
 371 00b8 87F82330 		strb	r3, [r7, #35]
 372              	.L11:
 294:..\app.c      ****         }
 295:..\app.c      **** 
 296:..\app.c      ****         switch (user_if_state_cur) {
 373              		.loc 1 296 0
 374 00bc 97F82230 		ldrb	r3, [r7, #34]	@ zero_extendqisi2
 375 00c0 022B     		cmp	r3, #2
 376 00c2 00F0AC80 		beq	.L14
 377 00c6 032B     		cmp	r3, #3
 378 00c8 00F04A81 		beq	.L15
 379 00cc 012B     		cmp	r3, #1
 380 00ce 40F0A481 		bne	.L21
 381              	.L13:
 297:..\app.c      ****             case APP_USER_IF_VER_TICK_RATE:
 298:..\app.c      ****                  Str_Copy(line_str, "uC/OS-III Vx.yyy");
 382              		.loc 1 298 0
ARM GAS  C:\Users\daniel01\AppData\Local\Temp\ccABDvgb.s 			page 14


 383 00d2 07F10803 		add	r3, r7, #8
 384 00d6 1846     		mov	r0, r3
 385 00d8 40F20001 		movw	r1, #:lower16:.LC3
 386 00dc C0F20001 		movt	r1, #:upper16:.LC3
 387 00e0 FFF7FEFF 		bl	Str_Copy
 299:..\app.c      ****                  val          = (CPU_INT32U)OSVersion(&os_err);
 388              		.loc 1 299 0
 389 00e4 07F11A03 		add	r3, r7, #26
 390 00e8 1846     		mov	r0, r3
 391 00ea FFF7FEFF 		bl	OSVersion
 392 00ee 0346     		mov	r3, r0
 393 00f0 FB61     		str	r3, [r7, #28]
 300:..\app.c      ****                  line_str[11] = (val        )  / 1000u + '0';
 394              		.loc 1 300 0
 395 00f2 FA69     		ldr	r2, [r7, #28]
 396 00f4 44F6D353 		movw	r3, #:lower16:274877907
 397 00f8 C1F26203 		movt	r3, #:upper16:274877907
 398 00fc A3FB0213 		umull	r1, r3, r3, r2
 399 0100 4FEA9313 		lsr	r3, r3, #6
 400 0104 DBB2     		uxtb	r3, r3
 401 0106 03F13003 		add	r3, r3, #48
 402 010a DBB2     		uxtb	r3, r3
 403 010c FB74     		strb	r3, [r7, #19]
 301:..\app.c      ****                  line_str[13] = (val % 1000u)  /  100u + '0';
 404              		.loc 1 301 0
 405 010e F969     		ldr	r1, [r7, #28]
 406 0110 44F6D353 		movw	r3, #:lower16:274877907
 407 0114 C1F26203 		movt	r3, #:upper16:274877907
 408 0118 A3FB0123 		umull	r2, r3, r3, r1
 409 011c 4FEA9312 		lsr	r2, r3, #6
 410 0120 4FF47A73 		mov	r3, #1000
 411 0124 03FB02F3 		mul	r3, r3, r2
 412 0128 C3EB0102 		rsb	r2, r3, r1
 413 012c 48F21F53 		movw	r3, #:lower16:1374389535
 414 0130 C5F2EB13 		movt	r3, #:upper16:1374389535
 415 0134 A3FB0213 		umull	r1, r3, r3, r2
 416 0138 4FEA5313 		lsr	r3, r3, #5
 417 013c DBB2     		uxtb	r3, r3
 418 013e 03F13003 		add	r3, r3, #48
 419 0142 DBB2     		uxtb	r3, r3
 420 0144 7B75     		strb	r3, [r7, #21]
 302:..\app.c      ****                  line_str[14] = (val %  100u)  /   10u + '0';
 421              		.loc 1 302 0
 422 0146 F969     		ldr	r1, [r7, #28]
 423 0148 48F21F53 		movw	r3, #:lower16:1374389535
 424 014c C5F2EB13 		movt	r3, #:upper16:1374389535
 425 0150 A3FB0123 		umull	r2, r3, r3, r1
 426 0154 4FEA5312 		lsr	r2, r3, #5
 427 0158 4FF06403 		mov	r3, #100
 428 015c 03FB02F3 		mul	r3, r3, r2
 429 0160 C3EB0102 		rsb	r2, r3, r1
 430 0164 4CF6CD43 		movw	r3, #:lower16:-858993459
 431 0168 CCF6CC43 		movt	r3, #:upper16:-858993459
 432 016c A3FB0213 		umull	r1, r3, r3, r2
 433 0170 4FEAD303 		lsr	r3, r3, #3
 434 0174 DBB2     		uxtb	r3, r3
 435 0176 03F13003 		add	r3, r3, #48
ARM GAS  C:\Users\daniel01\AppData\Local\Temp\ccABDvgb.s 			page 15


 436 017a DBB2     		uxtb	r3, r3
 437 017c BB75     		strb	r3, [r7, #22]
 303:..\app.c      ****                  line_str[15] = (val %   10u)          + '0';
 438              		.loc 1 303 0
 439 017e F969     		ldr	r1, [r7, #28]
 440 0180 4CF6CD43 		movw	r3, #:lower16:-858993459
 441 0184 CCF6CC43 		movt	r3, #:upper16:-858993459
 442 0188 A3FB0123 		umull	r2, r3, r3, r1
 443 018c 4FEAD302 		lsr	r2, r3, #3
 444 0190 1346     		mov	r3, r2
 445 0192 4FEA8303 		lsl	r3, r3, #2
 446 0196 1344     		add	r3, r3, r2
 447 0198 4FEA4303 		lsl	r3, r3, #1
 448 019c C3EB0102 		rsb	r2, r3, r1
 449 01a0 D3B2     		uxtb	r3, r2
 450 01a2 03F13003 		add	r3, r3, #48
 451 01a6 DBB2     		uxtb	r3, r3
 452 01a8 FB75     		strb	r3, [r7, #23]
 304:..\app.c      ****                  LCD_Disp_Position(0u, 0u);
 453              		.loc 1 304 0
 454 01aa 4FF00000 		mov	r0, #0
 455 01ae 4FF00001 		mov	r1, #0
 456 01b2 FFF7FEFF 		bl	LCD_Disp_Position
 305:..\app.c      ****                  LCD_Disp_PrintString((uint8 *)line_str);
 457              		.loc 1 305 0
 458 01b6 07F10803 		add	r3, r7, #8
 459 01ba 1846     		mov	r0, r3
 460 01bc FFF7FEFF 		bl	LCD_Disp_PrintString
 306:..\app.c      **** 
 307:..\app.c      ****                  Str_Copy(line_str, "TickRate:   xxxx");
 461              		.loc 1 307 0
 462 01c0 07F10803 		add	r3, r7, #8
 463 01c4 1846     		mov	r0, r3
 464 01c6 40F20001 		movw	r1, #:lower16:.LC4
 465 01ca C0F20001 		movt	r1, #:upper16:.LC4
 466 01ce FFF7FEFF 		bl	Str_Copy
 308:..\app.c      ****                  val = (CPU_INT32U)OSCfg_TickRate_Hz;
 467              		.loc 1 308 0
 468 01d2 40F20003 		movw	r3, #:lower16:OSCfg_TickRate_Hz
 469 01d6 C0F20003 		movt	r3, #:upper16:OSCfg_TickRate_Hz
 470 01da 1B68     		ldr	r3, [r3, #0]
 471 01dc FB61     		str	r3, [r7, #28]
 309:..\app.c      ****                  Str_FmtNbr_Int32U((CPU_INT32U     )val, 
 472              		.loc 1 309 0
 473 01de 4FF00003 		mov	r3, #0
 474 01e2 0093     		str	r3, [sp, #0]
 475 01e4 4FF00103 		mov	r3, #1
 476 01e8 0193     		str	r3, [sp, #4]
 477 01ea 07F10803 		add	r3, r7, #8
 478 01ee 03F10C03 		add	r3, r3, #12
 479 01f2 0293     		str	r3, [sp, #8]
 480 01f4 F869     		ldr	r0, [r7, #28]
 481 01f6 4FF00401 		mov	r1, #4
 482 01fa 4FF00A02 		mov	r2, #10
 483 01fe 4FF00003 		mov	r3, #0
 484 0202 FFF7FEFF 		bl	Str_FmtNbr_Int32U
 310:..\app.c      ****                                    (CPU_INT08U     )4u,
ARM GAS  C:\Users\daniel01\AppData\Local\Temp\ccABDvgb.s 			page 16


 311:..\app.c      ****                                    (CPU_INT08U     )10,
 312:..\app.c      ****                                    (CPU_CHAR       )0,
 313:..\app.c      ****                                    (CPU_BOOLEAN    )DEF_NO,
 314:..\app.c      ****                                    (CPU_BOOLEAN    )DEF_YES,
 315:..\app.c      ****                                    (CPU_CHAR      *)&line_str[12]);
 316:..\app.c      ****                  LCD_Disp_Position(1u, 0u);
 485              		.loc 1 316 0
 486 0206 4FF00100 		mov	r0, #1
 487 020a 4FF00001 		mov	r1, #0
 488 020e FFF7FEFF 		bl	LCD_Disp_Position
 317:..\app.c      ****                  LCD_Disp_PrintString((uint8 *)line_str);
 489              		.loc 1 317 0
 490 0212 07F10803 		add	r3, r7, #8
 491 0216 1846     		mov	r0, r3
 492 0218 FFF7FEFF 		bl	LCD_Disp_PrintString
 318:..\app.c      ****                  break;
 493              		.loc 1 318 0
 494 021c 15E1     		b	.L16
 495              	.L14:
 319:..\app.c      **** 
 320:..\app.c      ****             case APP_USER_IF_CPU:
 321:..\app.c      ****                  Str_Copy(line_str, "CPU Usage:xx %  ");
 496              		.loc 1 321 0
 497 021e 07F10803 		add	r3, r7, #8
 498 0222 1846     		mov	r0, r3
 499 0224 40F20001 		movw	r1, #:lower16:.LC5
 500 0228 C0F20001 		movt	r1, #:upper16:.LC5
 501 022c FFF7FEFF 		bl	Str_Copy
 322:..\app.c      ****                  val          = (CPU_INT32U)OSStatTaskCPUUsage;
 502              		.loc 1 322 0
 503 0230 40F20003 		movw	r3, #:lower16:OSStatTaskCPUUsage
 504 0234 C0F20003 		movt	r3, #:upper16:OSStatTaskCPUUsage
 505 0238 1B88     		ldrh	r3, [r3, #0]
 506 023a FB61     		str	r3, [r7, #28]
 323:..\app.c      ****                  line_str[10] = (val / 10u) + '0';
 507              		.loc 1 323 0
 508 023c FA69     		ldr	r2, [r7, #28]
 509 023e 4CF6CD43 		movw	r3, #:lower16:-858993459
 510 0242 CCF6CC43 		movt	r3, #:upper16:-858993459
 511 0246 A3FB0213 		umull	r1, r3, r3, r2
 512 024a 4FEAD303 		lsr	r3, r3, #3
 513 024e DBB2     		uxtb	r3, r3
 514 0250 03F13003 		add	r3, r3, #48
 515 0254 DBB2     		uxtb	r3, r3
 516 0256 BB74     		strb	r3, [r7, #18]
 324:..\app.c      ****                  line_str[11] = (val % 10u) + '0';
 517              		.loc 1 324 0
 518 0258 F969     		ldr	r1, [r7, #28]
 519 025a 4CF6CD43 		movw	r3, #:lower16:-858993459
 520 025e CCF6CC43 		movt	r3, #:upper16:-858993459
 521 0262 A3FB0123 		umull	r2, r3, r3, r1
 522 0266 4FEAD302 		lsr	r2, r3, #3
 523 026a 1346     		mov	r3, r2
 524 026c 4FEA8303 		lsl	r3, r3, #2
 525 0270 1344     		add	r3, r3, r2
 526 0272 4FEA4303 		lsl	r3, r3, #1
 527 0276 C3EB0102 		rsb	r2, r3, r1
ARM GAS  C:\Users\daniel01\AppData\Local\Temp\ccABDvgb.s 			page 17


 528 027a D3B2     		uxtb	r3, r2
 529 027c 03F13003 		add	r3, r3, #48
 530 0280 DBB2     		uxtb	r3, r3
 531 0282 FB74     		strb	r3, [r7, #19]
 325:..\app.c      ****                  LCD_Disp_Position(0u, 0u);
 532              		.loc 1 325 0
 533 0284 4FF00000 		mov	r0, #0
 534 0288 4FF00001 		mov	r1, #0
 535 028c FFF7FEFF 		bl	LCD_Disp_Position
 326:..\app.c      ****                  LCD_Disp_PrintString((uint8 *)line_str);
 536              		.loc 1 326 0
 537 0290 07F10803 		add	r3, r7, #8
 538 0294 1846     		mov	r0, r3
 539 0296 FFF7FEFF 		bl	LCD_Disp_PrintString
 327:..\app.c      ****                  
 328:..\app.c      ****                  Str_Copy(line_str, "CPU Speed:xxxMHz");
 540              		.loc 1 328 0
 541 029a 07F10803 		add	r3, r7, #8
 542 029e 1846     		mov	r0, r3
 543 02a0 40F20001 		movw	r1, #:lower16:.LC6
 544 02a4 C0F20001 		movt	r1, #:upper16:.LC6
 545 02a8 FFF7FEFF 		bl	Str_Copy
 329:..\app.c      ****                  val          = (CPU_INT32U)BSP_CPU_ClkFreq();
 546              		.loc 1 329 0
 547 02ac FFF7FEFF 		bl	BSP_CPU_ClkFreq
 548 02b0 0346     		mov	r3, r0
 549 02b2 FB61     		str	r3, [r7, #28]
 330:..\app.c      ****                  val         /= 1000000u;
 550              		.loc 1 330 0
 551 02b4 FA69     		ldr	r2, [r7, #28]
 552 02b6 4DF68363 		movw	r3, #:lower16:1125899907
 553 02ba C4F21B33 		movt	r3, #:upper16:1125899907
 554 02be A3FB0213 		umull	r1, r3, r3, r2
 555 02c2 4FEA9343 		lsr	r3, r3, #18
 556 02c6 FB61     		str	r3, [r7, #28]
 331:..\app.c      ****                  line_str[10] = (val       ) / 100u + '0';
 557              		.loc 1 331 0
 558 02c8 FA69     		ldr	r2, [r7, #28]
 559 02ca 48F21F53 		movw	r3, #:lower16:1374389535
 560 02ce C5F2EB13 		movt	r3, #:upper16:1374389535
 561 02d2 A3FB0213 		umull	r1, r3, r3, r2
 562 02d6 4FEA5313 		lsr	r3, r3, #5
 563 02da DBB2     		uxtb	r3, r3
 564 02dc 03F13003 		add	r3, r3, #48
 565 02e0 DBB2     		uxtb	r3, r3
 566 02e2 BB74     		strb	r3, [r7, #18]
 332:..\app.c      ****                  line_str[11] = (val % 100u) /  10u + '0';
 567              		.loc 1 332 0
 568 02e4 F969     		ldr	r1, [r7, #28]
 569 02e6 48F21F53 		movw	r3, #:lower16:1374389535
 570 02ea C5F2EB13 		movt	r3, #:upper16:1374389535
 571 02ee A3FB0123 		umull	r2, r3, r3, r1
 572 02f2 4FEA5312 		lsr	r2, r3, #5
 573 02f6 4FF06403 		mov	r3, #100
 574 02fa 03FB02F3 		mul	r3, r3, r2
 575 02fe C3EB0102 		rsb	r2, r3, r1
 576 0302 4CF6CD43 		movw	r3, #:lower16:-858993459
ARM GAS  C:\Users\daniel01\AppData\Local\Temp\ccABDvgb.s 			page 18


 577 0306 CCF6CC43 		movt	r3, #:upper16:-858993459
 578 030a A3FB0213 		umull	r1, r3, r3, r2
 579 030e 4FEAD303 		lsr	r3, r3, #3
 580 0312 DBB2     		uxtb	r3, r3
 581 0314 03F13003 		add	r3, r3, #48
 582 0318 DBB2     		uxtb	r3, r3
 583 031a FB74     		strb	r3, [r7, #19]
 333:..\app.c      ****                  line_str[12] = (val % 10u)         + '0';
 584              		.loc 1 333 0
 585 031c F969     		ldr	r1, [r7, #28]
 586 031e 4CF6CD43 		movw	r3, #:lower16:-858993459
 587 0322 CCF6CC43 		movt	r3, #:upper16:-858993459
 588 0326 A3FB0123 		umull	r2, r3, r3, r1
 589 032a 4FEAD302 		lsr	r2, r3, #3
 590 032e 1346     		mov	r3, r2
 591 0330 4FEA8303 		lsl	r3, r3, #2
 592 0334 1344     		add	r3, r3, r2
 593 0336 4FEA4303 		lsl	r3, r3, #1
 594 033a C3EB0102 		rsb	r2, r3, r1
 595 033e D3B2     		uxtb	r3, r2
 596 0340 03F13003 		add	r3, r3, #48
 597 0344 DBB2     		uxtb	r3, r3
 598 0346 3B75     		strb	r3, [r7, #20]
 334:..\app.c      ****                  LCD_Disp_Position(1u, 0u);
 599              		.loc 1 334 0
 600 0348 4FF00100 		mov	r0, #1
 601 034c 4FF00001 		mov	r1, #0
 602 0350 FFF7FEFF 		bl	LCD_Disp_Position
 335:..\app.c      ****                  LCD_Disp_PrintString((uint8 *)line_str);
 603              		.loc 1 335 0
 604 0354 07F10803 		add	r3, r7, #8
 605 0358 1846     		mov	r0, r3
 606 035a FFF7FEFF 		bl	LCD_Disp_PrintString
 336:..\app.c      ****                  break;
 607              		.loc 1 336 0
 608 035e 74E0     		b	.L16
 609              	.L15:
 337:..\app.c      **** 
 338:..\app.c      ****             case APP_USER_IF_CTXSW:
 339:..\app.c      ****                  Str_Copy(line_str, "#Ticks: xxxxxxxx");
 610              		.loc 1 339 0
 611 0360 07F10803 		add	r3, r7, #8
 612 0364 1846     		mov	r0, r3
 613 0366 40F20001 		movw	r1, #:lower16:.LC7
 614 036a C0F20001 		movt	r1, #:upper16:.LC7
 615 036e FFF7FEFF 		bl	Str_Copy
 340:..\app.c      ****                  val = (CPU_INT32U)OSTickCtr;
 616              		.loc 1 340 0
 617 0372 40F20003 		movw	r3, #:lower16:OSTickCtr
 618 0376 C0F20003 		movt	r3, #:upper16:OSTickCtr
 619 037a 1B68     		ldr	r3, [r3, #0]
 620 037c FB61     		str	r3, [r7, #28]
 341:..\app.c      ****                  Str_FmtNbr_Int32U((CPU_INT32U     )val, 
 621              		.loc 1 341 0
 622 037e 4FF00003 		mov	r3, #0
 623 0382 0093     		str	r3, [sp, #0]
 624 0384 4FF00103 		mov	r3, #1
ARM GAS  C:\Users\daniel01\AppData\Local\Temp\ccABDvgb.s 			page 19


 625 0388 0193     		str	r3, [sp, #4]
 626 038a 07F10803 		add	r3, r7, #8
 627 038e 03F10803 		add	r3, r3, #8
 628 0392 0293     		str	r3, [sp, #8]
 629 0394 F869     		ldr	r0, [r7, #28]
 630 0396 4FF00801 		mov	r1, #8
 631 039a 4FF00A02 		mov	r2, #10
 632 039e 4FF00003 		mov	r3, #0
 633 03a2 FFF7FEFF 		bl	Str_FmtNbr_Int32U
 342:..\app.c      ****                                    (CPU_INT08U     )8u,
 343:..\app.c      ****                                    (CPU_INT08U     )10,
 344:..\app.c      ****                                    (CPU_CHAR       )0,
 345:..\app.c      ****                                    (CPU_BOOLEAN    )DEF_NO,
 346:..\app.c      ****                                    (CPU_BOOLEAN    )DEF_YES,
 347:..\app.c      ****                                    (CPU_CHAR      *)&line_str[8]);
 348:..\app.c      ****                  LCD_Disp_Position(0u, 0u);
 634              		.loc 1 348 0
 635 03a6 4FF00000 		mov	r0, #0
 636 03aa 4FF00001 		mov	r1, #0
 637 03ae FFF7FEFF 		bl	LCD_Disp_Position
 349:..\app.c      ****                  LCD_Disp_PrintString((uint8 *)line_str);
 638              		.loc 1 349 0
 639 03b2 07F10803 		add	r3, r7, #8
 640 03b6 1846     		mov	r0, r3
 641 03b8 FFF7FEFF 		bl	LCD_Disp_PrintString
 350:..\app.c      ****                  
 351:..\app.c      ****                  Str_Copy(line_str, "#CtxSw: xxxxxxxx");
 642              		.loc 1 351 0
 643 03bc 07F10803 		add	r3, r7, #8
 644 03c0 1846     		mov	r0, r3
 645 03c2 40F20001 		movw	r1, #:lower16:.LC8
 646 03c6 C0F20001 		movt	r1, #:upper16:.LC8
 647 03ca FFF7FEFF 		bl	Str_Copy
 352:..\app.c      ****                  val          = (CPU_INT32U)OSTaskCtxSwCtr;
 648              		.loc 1 352 0
 649 03ce 40F20003 		movw	r3, #:lower16:OSTaskCtxSwCtr
 650 03d2 C0F20003 		movt	r3, #:upper16:OSTaskCtxSwCtr
 651 03d6 1B68     		ldr	r3, [r3, #0]
 652 03d8 FB61     		str	r3, [r7, #28]
 353:..\app.c      ****                  Str_FmtNbr_Int32U((CPU_INT32U     )val, 
 653              		.loc 1 353 0
 654 03da 4FF00003 		mov	r3, #0
 655 03de 0093     		str	r3, [sp, #0]
 656 03e0 4FF00103 		mov	r3, #1
 657 03e4 0193     		str	r3, [sp, #4]
 658 03e6 07F10803 		add	r3, r7, #8
 659 03ea 03F10803 		add	r3, r3, #8
 660 03ee 0293     		str	r3, [sp, #8]
 661 03f0 F869     		ldr	r0, [r7, #28]
 662 03f2 4FF00801 		mov	r1, #8
 663 03f6 4FF00A02 		mov	r2, #10
 664 03fa 4FF00003 		mov	r3, #0
 665 03fe FFF7FEFF 		bl	Str_FmtNbr_Int32U
 354:..\app.c      ****                                    (CPU_INT08U     )8u,
 355:..\app.c      ****                                    (CPU_INT08U     )10,
 356:..\app.c      ****                                    (CPU_CHAR       )0,
 357:..\app.c      ****                                    (CPU_BOOLEAN    )DEF_NO,
ARM GAS  C:\Users\daniel01\AppData\Local\Temp\ccABDvgb.s 			page 20


 358:..\app.c      ****                                    (CPU_BOOLEAN    )DEF_YES,
 359:..\app.c      ****                                    (CPU_CHAR      *)&line_str[8]);
 360:..\app.c      ****                  LCD_Disp_Position(1u, 0u);
 666              		.loc 1 360 0
 667 0402 4FF00100 		mov	r0, #1
 668 0406 4FF00001 		mov	r1, #0
 669 040a FFF7FEFF 		bl	LCD_Disp_Position
 361:..\app.c      ****                  LCD_Disp_PrintString((uint8 *)line_str);
 670              		.loc 1 361 0
 671 040e 07F10803 		add	r3, r7, #8
 672 0412 1846     		mov	r0, r3
 673 0414 FFF7FEFF 		bl	LCD_Disp_PrintString
 362:..\app.c      ****                  break;
 674              		.loc 1 362 0
 675 0418 17E0     		b	.L16
 676              	.L21:
 363:..\app.c      **** 
 364:..\app.c      ****             case APP_USER_IF_SIGN_ON:
 365:..\app.c      ****             default:
 366:..\app.c      ****                  LCD_Disp_Position(0u, 0u);
 677              		.loc 1 366 0
 678 041a 4FF00000 		mov	r0, #0
 679 041e 4FF00001 		mov	r1, #0
 680 0422 FFF7FEFF 		bl	LCD_Disp_Position
 367:..\app.c      ****                  LCD_Disp_PrintString((uint8 *)"=== Micrium === ");
 681              		.loc 1 367 0
 682 0426 40F20000 		movw	r0, #:lower16:.LC9
 683 042a C0F20000 		movt	r0, #:upper16:.LC9
 684 042e FFF7FEFF 		bl	LCD_Disp_PrintString
 368:..\app.c      ****                  LCD_Disp_Position(1u, 0u);
 685              		.loc 1 368 0
 686 0432 4FF00100 		mov	r0, #1
 687 0436 4FF00001 		mov	r1, #0
 688 043a FFF7FEFF 		bl	LCD_Disp_Position
 369:..\app.c      ****                  LCD_Disp_PrintString((uint8 *)"   uC/OS-III    ");
 689              		.loc 1 369 0
 690 043e 40F20000 		movw	r0, #:lower16:.LC10
 691 0442 C0F20000 		movt	r0, #:upper16:.LC10
 692 0446 FFF7FEFF 		bl	LCD_Disp_PrintString
 693              	.L16:
 370:..\app.c      ****                  break;
 371:..\app.c      ****         }
 372:..\app.c      **** 
 373:..\app.c      ****         pb2_state_cur = BSP_PB_StatusGet(2);
 694              		.loc 1 373 0
 695 044a 4FF00200 		mov	r0, #2
 696 044e FFF7FEFF 		bl	BSP_PB_StatusGet
 697 0452 0346     		mov	r3, r0
 698 0454 87F82430 		strb	r3, [r7, #36]
 374:..\app.c      ****         pb3_state_cur = BSP_PB_StatusGet(3);
 699              		.loc 1 374 0
 700 0458 4FF00300 		mov	r0, #3
 701 045c FFF7FEFF 		bl	BSP_PB_StatusGet
 702 0460 0346     		mov	r3, r0
 703 0462 87F82630 		strb	r3, [r7, #38]
 375:..\app.c      ****         if ((pb2_state_cur  == DEF_ON ) &&
 704              		.loc 1 375 0
ARM GAS  C:\Users\daniel01\AppData\Local\Temp\ccABDvgb.s 			page 21


 705 0466 97F82430 		ldrb	r3, [r7, #36]	@ zero_extendqisi2
 706 046a 012B     		cmp	r3, #1
 707 046c 0CD1     		bne	.L17
 708 046e 97F82530 		ldrb	r3, [r7, #37]	@ zero_extendqisi2
 709 0472 002B     		cmp	r3, #0
 710 0474 08D1     		bne	.L17
 376:..\app.c      ****             (pb2_state_prev == DEF_OFF)) {     
 377:..\app.c      ****             user_if_state_cur = (user_if_state_cur + 1u) % APP_USER_IF_STATE_MAX;
 711              		.loc 1 377 0
 712 0476 97F82230 		ldrb	r3, [r7, #34]
 713 047a 03F10103 		add	r3, r3, #1
 714 047e DBB2     		uxtb	r3, r3
 715 0480 03F00303 		and	r3, r3, #3
 716 0484 87F82230 		strb	r3, [r7, #34]
 717              	.L17:
 378:..\app.c      ****         }
 379:..\app.c      **** 
 380:..\app.c      ****         if ((pb3_state_cur  == DEF_ON ) &&
 718              		.loc 1 380 0
 719 0488 97F82630 		ldrb	r3, [r7, #38]	@ zero_extendqisi2
 720 048c 012B     		cmp	r3, #1
 721 048e 0CD1     		bne	.L18
 722 0490 97F82730 		ldrb	r3, [r7, #39]	@ zero_extendqisi2
 723 0494 002B     		cmp	r3, #0
 724 0496 08D1     		bne	.L18
 381:..\app.c      ****             (pb3_state_prev == DEF_OFF)) { 
 382:..\app.c      ****             user_if_state_cur = (user_if_state_cur - 1u) % APP_USER_IF_STATE_MAX;
 725              		.loc 1 382 0
 726 0498 97F82230 		ldrb	r3, [r7, #34]
 727 049c 03F1FF33 		add	r3, r3, #-1
 728 04a0 DBB2     		uxtb	r3, r3
 729 04a2 03F00303 		and	r3, r3, #3
 730 04a6 87F82230 		strb	r3, [r7, #34]
 731              	.L18:
 383:..\app.c      ****         }
 384:..\app.c      **** 
 385:..\app.c      ****         OSTimeDlyHMSM(0, 0, 0, 100, 
 732              		.loc 1 385 0
 733 04aa 4FF00003 		mov	r3, #0
 734 04ae 0093     		str	r3, [sp, #0]
 735 04b0 07F11A03 		add	r3, r7, #26
 736 04b4 0193     		str	r3, [sp, #4]
 737 04b6 4FF00000 		mov	r0, #0
 738 04ba 4FF00001 		mov	r1, #0
 739 04be 4FF00002 		mov	r2, #0
 740 04c2 4FF06403 		mov	r3, #100
 741 04c6 FFF7FEFF 		bl	OSTimeDlyHMSM
 386:..\app.c      ****                       OS_OPT_TIME_HMSM_STRICT, 
 387:..\app.c      ****                       &os_err);
 388:..\app.c      **** 
 389:..\app.c      ****         pb2_state_prev = pb2_state_cur;
 742              		.loc 1 389 0
 743 04ca 97F82430 		ldrb	r3, [r7, #36]
 744 04ce 87F82530 		strb	r3, [r7, #37]
 390:..\app.c      ****         pb3_state_prev = pb3_state_cur;	
 745              		.loc 1 390 0
 746 04d2 97F82630 		ldrb	r3, [r7, #38]
ARM GAS  C:\Users\daniel01\AppData\Local\Temp\ccABDvgb.s 			page 22


 747 04d6 87F82730 		strb	r3, [r7, #39]
 391:..\app.c      ****     }
 748              		.loc 1 391 0
 749 04da CDE5     		b	.L19
 750              		.cfi_endproc
 751              	.LFE4:
 752              		.size	App_TaskUserIF, .-App_TaskUserIF
 753              		.text
 754              	.Letext0: