ARM GAS  C:\Users\daniel01\AppData\Local\Temp\cc4MEU6w.s 			page 1


   1              		.syntax unified
   2              		.cpu cortex-m3
   3              		.fpu softvfp
   4              		.eabi_attribute 20, 1
   5              		.eabi_attribute 21, 1
   6              		.eabi_attribute 23, 3
   7              		.eabi_attribute 24, 1
   8              		.eabi_attribute 25, 1
   9              		.eabi_attribute 26, 1
  10              		.eabi_attribute 30, 6
  11              		.eabi_attribute 18, 4
  12              		.thumb
  13              		.file	"bsp_os.c"
  20 0000 33010000 		.text
  20      0200D300 
  20      00000201 
  20      FB0E0D00 
  20      01010101 
  21              	.Ltext0:
  22              		.cfi_sections	.debug_frame
  23              		.section	.text.BSP_OS_SemCreate,"ax",%progbits
  24              		.align	2
  25              		.global	BSP_OS_SemCreate
  26              		.thumb
  27              		.thumb_func
  28              		.type	BSP_OS_SemCreate, %function
  29              	BSP_OS_SemCreate:
  30              	.LFB0:
  31              		.file 1 "..\\..\\BSP\\OS\\uCOS-III\\bsp_os.c"
   1:..\..\BSP\OS\uCOS-III/bsp_os.c **** /*
   2:..\..\BSP\OS\uCOS-III/bsp_os.c **** ***************************************************************************************************
   3:..\..\BSP\OS\uCOS-III/bsp_os.c **** *                                     MICRIUM BOARD SUPPORT SUPPORT
   4:..\..\BSP\OS\uCOS-III/bsp_os.c **** *
   5:..\..\BSP\OS\uCOS-III/bsp_os.c **** *                          (c) Copyright 2003-2012; Micrium, Inc.; Weston, FL
   6:..\..\BSP\OS\uCOS-III/bsp_os.c **** *
   7:..\..\BSP\OS\uCOS-III/bsp_os.c **** *               All rights reserved.  Protected by international copyright laws.
   8:..\..\BSP\OS\uCOS-III/bsp_os.c **** *               Knowledge of the source code may NOT be used to develop a similar product.
   9:..\..\BSP\OS\uCOS-III/bsp_os.c **** *               Please help us continue to provide the Embedded community with the finest
  10:..\..\BSP\OS\uCOS-III/bsp_os.c **** *               software available.  Your honesty is greatly appreciated.
  11:..\..\BSP\OS\uCOS-III/bsp_os.c **** ***************************************************************************************************
  12:..\..\BSP\OS\uCOS-III/bsp_os.c **** */
  13:..\..\BSP\OS\uCOS-III/bsp_os.c **** 
  14:..\..\BSP\OS\uCOS-III/bsp_os.c **** /*
  15:..\..\BSP\OS\uCOS-III/bsp_os.c **** ***************************************************************************************************
  16:..\..\BSP\OS\uCOS-III/bsp_os.c **** *
  17:..\..\BSP\OS\uCOS-III/bsp_os.c **** *                                       BOARD SUPPORT PACKAGE
  18:..\..\BSP\OS\uCOS-III/bsp_os.c **** *                                          uCOS-III LAYER
  19:..\..\BSP\OS\uCOS-III/bsp_os.c **** *
  20:..\..\BSP\OS\uCOS-III/bsp_os.c **** * Filename      : bsp_os.c
  21:..\..\BSP\OS\uCOS-III/bsp_os.c **** * Version       : V1.00
  22:..\..\BSP\OS\uCOS-III/bsp_os.c **** * Programmer(s) : DC
ARM GAS  C:\Users\daniel01\AppData\Local\Temp\cc4MEU6w.s 			page 2


  23:..\..\BSP\OS\uCOS-III/bsp_os.c **** *
  24:..\..\BSP\OS\uCOS-III/bsp_os.c **** ***************************************************************************************************
  25:..\..\BSP\OS\uCOS-III/bsp_os.c **** */
  26:..\..\BSP\OS\uCOS-III/bsp_os.c **** 
  27:..\..\BSP\OS\uCOS-III/bsp_os.c **** 
  28:..\..\BSP\OS\uCOS-III/bsp_os.c **** /*
  29:..\..\BSP\OS\uCOS-III/bsp_os.c **** ***************************************************************************************************
  30:..\..\BSP\OS\uCOS-III/bsp_os.c **** *                                             INCLUDE FILES
  31:..\..\BSP\OS\uCOS-III/bsp_os.c **** ***************************************************************************************************
  32:..\..\BSP\OS\uCOS-III/bsp_os.c **** */
  33:..\..\BSP\OS\uCOS-III/bsp_os.c **** 
  34:..\..\BSP\OS\uCOS-III/bsp_os.c **** #define  BSP_OS_MODULE
  35:..\..\BSP\OS\uCOS-III/bsp_os.c **** #include <bsp.h>
  36:..\..\BSP\OS\uCOS-III/bsp_os.c **** #include <bsp_os.h>
  37:..\..\BSP\OS\uCOS-III/bsp_os.c **** 
  38:..\..\BSP\OS\uCOS-III/bsp_os.c **** 
  39:..\..\BSP\OS\uCOS-III/bsp_os.c **** /*
  40:..\..\BSP\OS\uCOS-III/bsp_os.c **** ***************************************************************************************************
  41:..\..\BSP\OS\uCOS-III/bsp_os.c **** *                                            LOCAL DEFINES
  42:..\..\BSP\OS\uCOS-III/bsp_os.c **** ***************************************************************************************************
  43:..\..\BSP\OS\uCOS-III/bsp_os.c **** */
  44:..\..\BSP\OS\uCOS-III/bsp_os.c **** 
  45:..\..\BSP\OS\uCOS-III/bsp_os.c **** 
  46:..\..\BSP\OS\uCOS-III/bsp_os.c **** /*
  47:..\..\BSP\OS\uCOS-III/bsp_os.c **** ***************************************************************************************************
  48:..\..\BSP\OS\uCOS-III/bsp_os.c **** *                                           LOCAL CONSTANTS
  49:..\..\BSP\OS\uCOS-III/bsp_os.c **** ***************************************************************************************************
  50:..\..\BSP\OS\uCOS-III/bsp_os.c **** */
  51:..\..\BSP\OS\uCOS-III/bsp_os.c **** 
  52:..\..\BSP\OS\uCOS-III/bsp_os.c **** 
  53:..\..\BSP\OS\uCOS-III/bsp_os.c **** /*
  54:..\..\BSP\OS\uCOS-III/bsp_os.c **** ***************************************************************************************************
  55:..\..\BSP\OS\uCOS-III/bsp_os.c **** *                                          LOCAL DATA TYPES
  56:..\..\BSP\OS\uCOS-III/bsp_os.c **** ***************************************************************************************************
  57:..\..\BSP\OS\uCOS-III/bsp_os.c **** */
  58:..\..\BSP\OS\uCOS-III/bsp_os.c **** 
  59:..\..\BSP\OS\uCOS-III/bsp_os.c **** 
  60:..\..\BSP\OS\uCOS-III/bsp_os.c **** /*
  61:..\..\BSP\OS\uCOS-III/bsp_os.c **** ***************************************************************************************************
  62:..\..\BSP\OS\uCOS-III/bsp_os.c **** *                                            LOCAL TABLES
  63:..\..\BSP\OS\uCOS-III/bsp_os.c **** ***************************************************************************************************
  64:..\..\BSP\OS\uCOS-III/bsp_os.c **** */
  65:..\..\BSP\OS\uCOS-III/bsp_os.c **** 
  66:..\..\BSP\OS\uCOS-III/bsp_os.c **** 
  67:..\..\BSP\OS\uCOS-III/bsp_os.c **** /*
  68:..\..\BSP\OS\uCOS-III/bsp_os.c **** ***************************************************************************************************
  69:..\..\BSP\OS\uCOS-III/bsp_os.c **** *                                       LOCAL GLOBAL VARIABLES
  70:..\..\BSP\OS\uCOS-III/bsp_os.c **** ***************************************************************************************************
  71:..\..\BSP\OS\uCOS-III/bsp_os.c **** */
  72:..\..\BSP\OS\uCOS-III/bsp_os.c **** 
  73:..\..\BSP\OS\uCOS-III/bsp_os.c **** 
  74:..\..\BSP\OS\uCOS-III/bsp_os.c **** /*
  75:..\..\BSP\OS\uCOS-III/bsp_os.c **** ***************************************************************************************************
  76:..\..\BSP\OS\uCOS-III/bsp_os.c **** *                                      LOCAL FUNCTION PROTOTYPES
  77:..\..\BSP\OS\uCOS-III/bsp_os.c **** ***************************************************************************************************
  78:..\..\BSP\OS\uCOS-III/bsp_os.c **** */
  79:..\..\BSP\OS\uCOS-III/bsp_os.c **** 
ARM GAS  C:\Users\daniel01\AppData\Local\Temp\cc4MEU6w.s 			page 3


  80:..\..\BSP\OS\uCOS-III/bsp_os.c **** 
  81:..\..\BSP\OS\uCOS-III/bsp_os.c **** /*
  82:..\..\BSP\OS\uCOS-III/bsp_os.c **** ***************************************************************************************************
  83:..\..\BSP\OS\uCOS-III/bsp_os.c **** *                                     LOCAL CONFIGURATION ERRORS
  84:..\..\BSP\OS\uCOS-III/bsp_os.c **** ***************************************************************************************************
  85:..\..\BSP\OS\uCOS-III/bsp_os.c **** */
  86:..\..\BSP\OS\uCOS-III/bsp_os.c **** 
  87:..\..\BSP\OS\uCOS-III/bsp_os.c **** /*
  88:..\..\BSP\OS\uCOS-III/bsp_os.c **** ***************************************************************************************************
  89:..\..\BSP\OS\uCOS-III/bsp_os.c **** ***************************************************************************************************
  90:..\..\BSP\OS\uCOS-III/bsp_os.c **** **                                         GLOBAL FUNCTIONS
  91:..\..\BSP\OS\uCOS-III/bsp_os.c **** ***************************************************************************************************
  92:..\..\BSP\OS\uCOS-III/bsp_os.c **** ***************************************************************************************************
  93:..\..\BSP\OS\uCOS-III/bsp_os.c **** */
  94:..\..\BSP\OS\uCOS-III/bsp_os.c **** 
  95:..\..\BSP\OS\uCOS-III/bsp_os.c **** 
  96:..\..\BSP\OS\uCOS-III/bsp_os.c **** /*
  97:..\..\BSP\OS\uCOS-III/bsp_os.c **** ***************************************************************************************************
  98:..\..\BSP\OS\uCOS-III/bsp_os.c **** ***************************************************************************************************
  99:..\..\BSP\OS\uCOS-III/bsp_os.c **** **                                     BSP OS LOCKS FUNCTIONS
 100:..\..\BSP\OS\uCOS-III/bsp_os.c **** ***************************************************************************************************
 101:..\..\BSP\OS\uCOS-III/bsp_os.c **** ***************************************************************************************************
 102:..\..\BSP\OS\uCOS-III/bsp_os.c **** */
 103:..\..\BSP\OS\uCOS-III/bsp_os.c **** 
 104:..\..\BSP\OS\uCOS-III/bsp_os.c **** /*
 105:..\..\BSP\OS\uCOS-III/bsp_os.c **** ***************************************************************************************************
 106:..\..\BSP\OS\uCOS-III/bsp_os.c **** ***************************************************************************************************
 107:..\..\BSP\OS\uCOS-III/bsp_os.c **** **                                     BSP OS LOCKS FUNCTIONS
 108:..\..\BSP\OS\uCOS-III/bsp_os.c **** ***************************************************************************************************
 109:..\..\BSP\OS\uCOS-III/bsp_os.c **** ***************************************************************************************************
 110:..\..\BSP\OS\uCOS-III/bsp_os.c **** */
 111:..\..\BSP\OS\uCOS-III/bsp_os.c **** 
 112:..\..\BSP\OS\uCOS-III/bsp_os.c **** /*
 113:..\..\BSP\OS\uCOS-III/bsp_os.c **** ***************************************************************************************************
 114:..\..\BSP\OS\uCOS-III/bsp_os.c **** *                                      BSP_OS_SemCreate()
 115:..\..\BSP\OS\uCOS-III/bsp_os.c **** *
 116:..\..\BSP\OS\uCOS-III/bsp_os.c **** * Description : Creates a sempahore to lock/unlock
 117:..\..\BSP\OS\uCOS-III/bsp_os.c **** *
 118:..\..\BSP\OS\uCOS-III/bsp_os.c **** * Argument(s) : p_sem        Pointer to a BSP_OS_SEM structure
 119:..\..\BSP\OS\uCOS-III/bsp_os.c **** *
 120:..\..\BSP\OS\uCOS-III/bsp_os.c **** *               sem_val      Initial value of the semaphore.
 121:..\..\BSP\OS\uCOS-III/bsp_os.c **** *
 122:..\..\BSP\OS\uCOS-III/bsp_os.c **** *               p_sem_name   Pointer to the semaphore name.
 123:..\..\BSP\OS\uCOS-III/bsp_os.c **** *
 124:..\..\BSP\OS\uCOS-III/bsp_os.c **** * Return(s)   : DEF_OK       if the semaphore was created.
 125:..\..\BSP\OS\uCOS-III/bsp_os.c **** *               DEF_FAIL     if the sempahore could not be created.
 126:..\..\BSP\OS\uCOS-III/bsp_os.c **** *
 127:..\..\BSP\OS\uCOS-III/bsp_os.c **** * Caller(s)   : Application.
 128:..\..\BSP\OS\uCOS-III/bsp_os.c **** *
 129:..\..\BSP\OS\uCOS-III/bsp_os.c **** * Note(s)     : none.
 130:..\..\BSP\OS\uCOS-III/bsp_os.c **** *
 131:..\..\BSP\OS\uCOS-III/bsp_os.c **** ***************************************************************************************************
 132:..\..\BSP\OS\uCOS-III/bsp_os.c **** */
 133:..\..\BSP\OS\uCOS-III/bsp_os.c **** 
 134:..\..\BSP\OS\uCOS-III/bsp_os.c **** CPU_BOOLEAN  BSP_OS_SemCreate (BSP_OS_SEM       *p_sem,
 135:..\..\BSP\OS\uCOS-III/bsp_os.c ****                                BSP_OS_SEM_VAL    sem_val,
 136:..\..\BSP\OS\uCOS-III/bsp_os.c ****                                CPU_CHAR         *p_sem_name)
ARM GAS  C:\Users\daniel01\AppData\Local\Temp\cc4MEU6w.s 			page 4


 137:..\..\BSP\OS\uCOS-III/bsp_os.c **** {
  32              		.loc 1 137 0
  33              		.cfi_startproc
  34              		@ args = 0, pretend = 0, frame = 24
  35              		@ frame_needed = 1, uses_anonymous_args = 0
  36 0000 80B5     		push	{r7, lr}
  37              	.LCFI0:
  38              		.cfi_def_cfa_offset 8
  39 0002 86B0     		sub	sp, sp, #24
  40              	.LCFI1:
  41              		.cfi_def_cfa_offset 32
  42 0004 00AF     		add	r7, sp, #0
  43              		.cfi_offset 14, -4
  44              		.cfi_offset 7, -8
  45              	.LCFI2:
  46              		.cfi_def_cfa_register 7
  47 0006 F860     		str	r0, [r7, #12]
  48 0008 B960     		str	r1, [r7, #8]
  49 000a 7A60     		str	r2, [r7, #4]
 138:..\..\BSP\OS\uCOS-III/bsp_os.c ****     OS_ERR     err;
 139:..\..\BSP\OS\uCOS-III/bsp_os.c **** 
 140:..\..\BSP\OS\uCOS-III/bsp_os.c **** 
 141:..\..\BSP\OS\uCOS-III/bsp_os.c ****     OSSemCreate((OS_SEM    *)p_sem,
  50              		.loc 1 141 0
  51 000c 07F11603 		add	r3, r7, #22
  52 0010 F868     		ldr	r0, [r7, #12]
  53 0012 7968     		ldr	r1, [r7, #4]
  54 0014 BA68     		ldr	r2, [r7, #8]
  55 0016 FFF7FEFF 		bl	OSSemCreate
 142:..\..\BSP\OS\uCOS-III/bsp_os.c ****                 (CPU_CHAR  *)p_sem_name,
 143:..\..\BSP\OS\uCOS-III/bsp_os.c ****                 (OS_SEM_CTR )sem_val,
 144:..\..\BSP\OS\uCOS-III/bsp_os.c ****                 (OS_ERR    *)&err);
 145:..\..\BSP\OS\uCOS-III/bsp_os.c **** 
 146:..\..\BSP\OS\uCOS-III/bsp_os.c ****     if (err != OS_ERR_NONE) {
  56              		.loc 1 146 0
  57 001a FB8A     		ldrh	r3, [r7, #22]
  58 001c 002B     		cmp	r3, #0
  59 001e 02D0     		beq	.L2
 147:..\..\BSP\OS\uCOS-III/bsp_os.c ****         return (DEF_FAIL);
  60              		.loc 1 147 0
  61 0020 4FF00003 		mov	r3, #0
  62 0024 01E0     		b	.L3
  63              	.L2:
 148:..\..\BSP\OS\uCOS-III/bsp_os.c ****     }
 149:..\..\BSP\OS\uCOS-III/bsp_os.c **** 
 150:..\..\BSP\OS\uCOS-III/bsp_os.c ****     return (DEF_OK);
  64              		.loc 1 150 0
  65 0026 4FF00103 		mov	r3, #1
  66              	.L3:
 151:..\..\BSP\OS\uCOS-III/bsp_os.c **** }
  67              		.loc 1 151 0
  68 002a 1846     		mov	r0, r3
  69 002c 07F11807 		add	r7, r7, #24
  70 0030 BD46     		mov	sp, r7
  71 0032 80BD     		pop	{r7, pc}
  72              		.cfi_endproc
  73              	.LFE0:
ARM GAS  C:\Users\daniel01\AppData\Local\Temp\cc4MEU6w.s 			page 5


  74              		.size	BSP_OS_SemCreate, .-BSP_OS_SemCreate
  75              		.section	.text.BSP_OS_SemWait,"ax",%progbits
  76              		.align	2
  77              		.global	BSP_OS_SemWait
  78              		.thumb
  79              		.thumb_func
  80              		.type	BSP_OS_SemWait, %function
  81              	BSP_OS_SemWait:
  82              	.LFB1:
 152:..\..\BSP\OS\uCOS-III/bsp_os.c **** 
 153:..\..\BSP\OS\uCOS-III/bsp_os.c **** 
 154:..\..\BSP\OS\uCOS-III/bsp_os.c **** /*
 155:..\..\BSP\OS\uCOS-III/bsp_os.c **** ***************************************************************************************************
 156:..\..\BSP\OS\uCOS-III/bsp_os.c **** *                                     BSP_OS_SemWait()
 157:..\..\BSP\OS\uCOS-III/bsp_os.c **** *
 158:..\..\BSP\OS\uCOS-III/bsp_os.c **** * Description : Wait on a semaphore to become available
 159:..\..\BSP\OS\uCOS-III/bsp_os.c **** *
 160:..\..\BSP\OS\uCOS-III/bsp_os.c **** * Argument(s) : sem          sempahore handler
 161:..\..\BSP\OS\uCOS-III/bsp_os.c **** *
 162:..\..\BSP\OS\uCOS-III/bsp_os.c **** *               dly_ms       delay in miliseconds to wait on the semaphore
 163:..\..\BSP\OS\uCOS-III/bsp_os.c **** *
 164:..\..\BSP\OS\uCOS-III/bsp_os.c **** * Return(s)   : DEF_OK       if the semaphore was acquire
 165:..\..\BSP\OS\uCOS-III/bsp_os.c **** *               DEF_FAIL     if the sempahore could not be acquire
 166:..\..\BSP\OS\uCOS-III/bsp_os.c **** *
 167:..\..\BSP\OS\uCOS-III/bsp_os.c **** * Caller(s)   : Application.
 168:..\..\BSP\OS\uCOS-III/bsp_os.c **** *
 169:..\..\BSP\OS\uCOS-III/bsp_os.c **** * Note(s)     : none.
 170:..\..\BSP\OS\uCOS-III/bsp_os.c **** ***************************************************************************************************
 171:..\..\BSP\OS\uCOS-III/bsp_os.c **** */
 172:..\..\BSP\OS\uCOS-III/bsp_os.c **** 
 173:..\..\BSP\OS\uCOS-III/bsp_os.c **** CPU_BOOLEAN  BSP_OS_SemWait (BSP_OS_SEM  *p_sem,
 174:..\..\BSP\OS\uCOS-III/bsp_os.c ****                              CPU_INT32U   dly_ms)
 175:..\..\BSP\OS\uCOS-III/bsp_os.c **** {
  83              		.loc 1 175 0
  84              		.cfi_startproc
  85              		@ args = 0, pretend = 0, frame = 16
  86              		@ frame_needed = 1, uses_anonymous_args = 0
  87 0000 80B5     		push	{r7, lr}
  88              	.LCFI3:
  89              		.cfi_def_cfa_offset 8
  90 0002 86B0     		sub	sp, sp, #24
  91              	.LCFI4:
  92              		.cfi_def_cfa_offset 32
  93 0004 02AF     		add	r7, sp, #8
  94              		.cfi_offset 14, -4
  95              		.cfi_offset 7, -8
  96              	.LCFI5:
  97              		.cfi_def_cfa 7, 24
  98 0006 7860     		str	r0, [r7, #4]
  99 0008 3960     		str	r1, [r7, #0]
 176:..\..\BSP\OS\uCOS-III/bsp_os.c ****     OS_ERR      err;
 177:..\..\BSP\OS\uCOS-III/bsp_os.c ****     CPU_INT32U  dly_ticks;
 178:..\..\BSP\OS\uCOS-III/bsp_os.c **** 
 179:..\..\BSP\OS\uCOS-III/bsp_os.c **** 
 180:..\..\BSP\OS\uCOS-III/bsp_os.c ****     dly_ticks  = ((dly_ms * DEF_TIME_NBR_mS_PER_SEC) / OSCfg_TickRate_Hz);
 100              		.loc 1 180 0
 101 000a 3B68     		ldr	r3, [r7, #0]
ARM GAS  C:\Users\daniel01\AppData\Local\Temp\cc4MEU6w.s 			page 6


 102 000c 4FF47A72 		mov	r2, #1000
 103 0010 02FB03F2 		mul	r2, r2, r3
 104 0014 40F20003 		movw	r3, #:lower16:OSCfg_TickRate_Hz
 105 0018 C0F20003 		movt	r3, #:upper16:OSCfg_TickRate_Hz
 106 001c 1B68     		ldr	r3, [r3, #0]
 107 001e B2FBF3F3 		udiv	r3, r2, r3
 108 0022 FB60     		str	r3, [r7, #12]
 181:..\..\BSP\OS\uCOS-III/bsp_os.c **** 
 182:..\..\BSP\OS\uCOS-III/bsp_os.c ****     OSSemPend((OS_SEM *)p_sem,
 109              		.loc 1 182 0
 110 0024 07F10A03 		add	r3, r7, #10
 111 0028 0093     		str	r3, [sp, #0]
 112 002a 7868     		ldr	r0, [r7, #4]
 113 002c F968     		ldr	r1, [r7, #12]
 114 002e 4FF00002 		mov	r2, #0
 115 0032 4FF00003 		mov	r3, #0
 116 0036 FFF7FEFF 		bl	OSSemPend
 183:..\..\BSP\OS\uCOS-III/bsp_os.c ****               (OS_TICK )dly_ticks,
 184:..\..\BSP\OS\uCOS-III/bsp_os.c ****               (OS_OPT  )OS_OPT_PEND_BLOCKING,
 185:..\..\BSP\OS\uCOS-III/bsp_os.c ****               (CPU_TS  )0,
 186:..\..\BSP\OS\uCOS-III/bsp_os.c ****               (OS_ERR *)&err);
 187:..\..\BSP\OS\uCOS-III/bsp_os.c **** 
 188:..\..\BSP\OS\uCOS-III/bsp_os.c ****     if (err != OS_ERR_NONE) {
 117              		.loc 1 188 0
 118 003a 7B89     		ldrh	r3, [r7, #10]
 119 003c 002B     		cmp	r3, #0
 120 003e 02D0     		beq	.L6
 189:..\..\BSP\OS\uCOS-III/bsp_os.c ****        return (DEF_FAIL);
 121              		.loc 1 189 0
 122 0040 4FF00003 		mov	r3, #0
 123 0044 01E0     		b	.L7
 124              	.L6:
 190:..\..\BSP\OS\uCOS-III/bsp_os.c ****     }
 191:..\..\BSP\OS\uCOS-III/bsp_os.c **** 
 192:..\..\BSP\OS\uCOS-III/bsp_os.c ****     return (DEF_OK);
 125              		.loc 1 192 0
 126 0046 4FF00103 		mov	r3, #1
 127              	.L7:
 193:..\..\BSP\OS\uCOS-III/bsp_os.c **** }
 128              		.loc 1 193 0
 129 004a 1846     		mov	r0, r3
 130 004c 07F11007 		add	r7, r7, #16
 131 0050 BD46     		mov	sp, r7
 132 0052 80BD     		pop	{r7, pc}
 133              		.cfi_endproc
 134              	.LFE1:
 135              		.size	BSP_OS_SemWait, .-BSP_OS_SemWait
 136              		.section	.text.BSP_OS_SemPost,"ax",%progbits
 137              		.align	2
 138              		.global	BSP_OS_SemPost
 139              		.thumb
 140              		.thumb_func
 141              		.type	BSP_OS_SemPost, %function
 142              	BSP_OS_SemPost:
 143              	.LFB2:
 194:..\..\BSP\OS\uCOS-III/bsp_os.c **** 
 195:..\..\BSP\OS\uCOS-III/bsp_os.c **** /*
ARM GAS  C:\Users\daniel01\AppData\Local\Temp\cc4MEU6w.s 			page 7


 196:..\..\BSP\OS\uCOS-III/bsp_os.c **** ***************************************************************************************************
 197:..\..\BSP\OS\uCOS-III/bsp_os.c **** *                                      BSP_OS_SemPost()
 198:..\..\BSP\OS\uCOS-III/bsp_os.c **** *
 199:..\..\BSP\OS\uCOS-III/bsp_os.c **** * Description : Post a semaphore
 200:..\..\BSP\OS\uCOS-III/bsp_os.c **** *
 201:..\..\BSP\OS\uCOS-III/bsp_os.c **** * Argument(s) : sem          Semaphore handler
 202:..\..\BSP\OS\uCOS-III/bsp_os.c **** *
 203:..\..\BSP\OS\uCOS-III/bsp_os.c **** * Return(s)   : DEF_OK     if the semaphore was posted.
 204:..\..\BSP\OS\uCOS-III/bsp_os.c **** *               DEF_FAIL      if the sempahore could not be posted.
 205:..\..\BSP\OS\uCOS-III/bsp_os.c **** *
 206:..\..\BSP\OS\uCOS-III/bsp_os.c **** * Caller(s)   : Application.
 207:..\..\BSP\OS\uCOS-III/bsp_os.c **** *
 208:..\..\BSP\OS\uCOS-III/bsp_os.c **** * Note(s)     : none.
 209:..\..\BSP\OS\uCOS-III/bsp_os.c **** ***************************************************************************************************
 210:..\..\BSP\OS\uCOS-III/bsp_os.c **** */
 211:..\..\BSP\OS\uCOS-III/bsp_os.c **** 
 212:..\..\BSP\OS\uCOS-III/bsp_os.c **** CPU_BOOLEAN  BSP_OS_SemPost (BSP_OS_SEM *p_sem)
 213:..\..\BSP\OS\uCOS-III/bsp_os.c **** {
 144              		.loc 1 213 0
 145              		.cfi_startproc
 146              		@ args = 0, pretend = 0, frame = 16
 147              		@ frame_needed = 1, uses_anonymous_args = 0
 148 0000 80B5     		push	{r7, lr}
 149              	.LCFI6:
 150              		.cfi_def_cfa_offset 8
 151 0002 84B0     		sub	sp, sp, #16
 152              	.LCFI7:
 153              		.cfi_def_cfa_offset 24
 154 0004 00AF     		add	r7, sp, #0
 155              		.cfi_offset 14, -4
 156              		.cfi_offset 7, -8
 157              	.LCFI8:
 158              		.cfi_def_cfa_register 7
 159 0006 7860     		str	r0, [r7, #4]
 214:..\..\BSP\OS\uCOS-III/bsp_os.c ****     OS_ERR  err;
 215:..\..\BSP\OS\uCOS-III/bsp_os.c **** 
 216:..\..\BSP\OS\uCOS-III/bsp_os.c **** 
 217:..\..\BSP\OS\uCOS-III/bsp_os.c ****     OSSemPost((OS_SEM *)p_sem,
 160              		.loc 1 217 0
 161 0008 07F10E03 		add	r3, r7, #14
 162 000c 7868     		ldr	r0, [r7, #4]
 163 000e 4FF00001 		mov	r1, #0
 164 0012 1A46     		mov	r2, r3
 165 0014 FFF7FEFF 		bl	OSSemPost
 218:..\..\BSP\OS\uCOS-III/bsp_os.c ****               (OS_OPT  )OS_OPT_POST_1,
 219:..\..\BSP\OS\uCOS-III/bsp_os.c ****               (OS_ERR *)&err);
 220:..\..\BSP\OS\uCOS-III/bsp_os.c **** 
 221:..\..\BSP\OS\uCOS-III/bsp_os.c ****     if (err != OS_ERR_NONE) {
 166              		.loc 1 221 0
 167 0018 FB89     		ldrh	r3, [r7, #14]
 168 001a 002B     		cmp	r3, #0
 169 001c 02D0     		beq	.L10
 222:..\..\BSP\OS\uCOS-III/bsp_os.c ****         return (DEF_FAIL);
 170              		.loc 1 222 0
 171 001e 4FF00003 		mov	r3, #0
 172 0022 01E0     		b	.L11
 173              	.L10:
ARM GAS  C:\Users\daniel01\AppData\Local\Temp\cc4MEU6w.s 			page 8


 223:..\..\BSP\OS\uCOS-III/bsp_os.c ****     }
 224:..\..\BSP\OS\uCOS-III/bsp_os.c **** 
 225:..\..\BSP\OS\uCOS-III/bsp_os.c ****     return (DEF_OK);
 174              		.loc 1 225 0
 175 0024 4FF00103 		mov	r3, #1
 176              	.L11:
 226:..\..\BSP\OS\uCOS-III/bsp_os.c **** }
 177              		.loc 1 226 0
 178 0028 1846     		mov	r0, r3
 179 002a 07F11007 		add	r7, r7, #16
 180 002e BD46     		mov	sp, r7
 181 0030 80BD     		pop	{r7, pc}
 182              		.cfi_endproc
 183              	.LFE2:
 184              		.size	BSP_OS_SemPost, .-BSP_OS_SemPost
 185 0032 00BF     		.section	.text.BSP_OS_TimeDlyMs,"ax",%progbits
 186              		.align	2
 187              		.global	BSP_OS_TimeDlyMs
 188              		.thumb
 189              		.thumb_func
 190              		.type	BSP_OS_TimeDlyMs, %function
 191              	BSP_OS_TimeDlyMs:
 192              	.LFB3:
 227:..\..\BSP\OS\uCOS-III/bsp_os.c **** 
 228:..\..\BSP\OS\uCOS-III/bsp_os.c **** 
 229:..\..\BSP\OS\uCOS-III/bsp_os.c **** /*
 230:..\..\BSP\OS\uCOS-III/bsp_os.c **** ***************************************************************************************************
 231:..\..\BSP\OS\uCOS-III/bsp_os.c **** ***************************************************************************************************
 232:..\..\BSP\OS\uCOS-III/bsp_os.c **** **                                     uC/OS-III TIMER FUNCTIONS
 233:..\..\BSP\OS\uCOS-III/bsp_os.c **** ***************************************************************************************************
 234:..\..\BSP\OS\uCOS-III/bsp_os.c **** ***************************************************************************************************
 235:..\..\BSP\OS\uCOS-III/bsp_os.c **** */
 236:..\..\BSP\OS\uCOS-III/bsp_os.c **** 
 237:..\..\BSP\OS\uCOS-III/bsp_os.c **** /*
 238:..\..\BSP\OS\uCOS-III/bsp_os.c **** ***************************************************************************************************
 239:..\..\BSP\OS\uCOS-III/bsp_os.c **** *                                    BSP_TimeDlyMs()
 240:..\..\BSP\OS\uCOS-III/bsp_os.c **** *
 241:..\..\BSP\OS\uCOS-III/bsp_os.c **** * Description : This function delay the exceution for specifi amount of miliseconds
 242:..\..\BSP\OS\uCOS-III/bsp_os.c **** *
 243:..\..\BSP\OS\uCOS-III/bsp_os.c **** * Argument(s) : dly_ms       Delay in miliseconds
 244:..\..\BSP\OS\uCOS-III/bsp_os.c **** *
 245:..\..\BSP\OS\uCOS-III/bsp_os.c **** * Return(s)   : none.
 246:..\..\BSP\OS\uCOS-III/bsp_os.c **** *
 247:..\..\BSP\OS\uCOS-III/bsp_os.c **** * Caller(s)   : Application
 248:..\..\BSP\OS\uCOS-III/bsp_os.c **** *
 249:..\..\BSP\OS\uCOS-III/bsp_os.c **** * Note(s)     : none.
 250:..\..\BSP\OS\uCOS-III/bsp_os.c **** *
 251:..\..\BSP\OS\uCOS-III/bsp_os.c **** ***************************************************************************************************
 252:..\..\BSP\OS\uCOS-III/bsp_os.c **** */
 253:..\..\BSP\OS\uCOS-III/bsp_os.c **** 
 254:..\..\BSP\OS\uCOS-III/bsp_os.c **** void   BSP_OS_TimeDlyMs (CPU_INT32U  dly_ms)
 255:..\..\BSP\OS\uCOS-III/bsp_os.c **** {
 193              		.loc 1 255 0
 194              		.cfi_startproc
 195              		@ args = 0, pretend = 0, frame = 16
 196              		@ frame_needed = 1, uses_anonymous_args = 0
 197 0000 80B5     		push	{r7, lr}
ARM GAS  C:\Users\daniel01\AppData\Local\Temp\cc4MEU6w.s 			page 9


 198              	.LCFI9:
 199              		.cfi_def_cfa_offset 8
 200 0002 86B0     		sub	sp, sp, #24
 201              	.LCFI10:
 202              		.cfi_def_cfa_offset 32
 203 0004 02AF     		add	r7, sp, #8
 204              		.cfi_offset 14, -4
 205              		.cfi_offset 7, -8
 206              	.LCFI11:
 207              		.cfi_def_cfa 7, 24
 208 0006 7860     		str	r0, [r7, #4]
 256:..\..\BSP\OS\uCOS-III/bsp_os.c ****     CPU_INT16U  ms;
 257:..\..\BSP\OS\uCOS-III/bsp_os.c ****     CPU_INT16U  sec;
 258:..\..\BSP\OS\uCOS-III/bsp_os.c ****     OS_ERR      err;
 259:..\..\BSP\OS\uCOS-III/bsp_os.c **** 
 260:..\..\BSP\OS\uCOS-III/bsp_os.c **** 
 261:..\..\BSP\OS\uCOS-III/bsp_os.c ****     if (dly_ms > 10000u) {                                       /* Limit delays to 10 seconds.    
 209              		.loc 1 261 0
 210 0008 7A68     		ldr	r2, [r7, #4]
 211 000a 42F21073 		movw	r3, #10000
 212 000e 9A42     		cmp	r2, r3
 213 0010 02D9     		bls	.L14
 262:..\..\BSP\OS\uCOS-III/bsp_os.c ****         dly_ms = 10000u;
 214              		.loc 1 262 0
 215 0012 42F21073 		movw	r3, #10000
 216 0016 7B60     		str	r3, [r7, #4]
 217              	.L14:
 263:..\..\BSP\OS\uCOS-III/bsp_os.c ****     }
 264:..\..\BSP\OS\uCOS-III/bsp_os.c **** 
 265:..\..\BSP\OS\uCOS-III/bsp_os.c ****     if (dly_ms >= 1000u) {
 218              		.loc 1 265 0
 219 0018 7A68     		ldr	r2, [r7, #4]
 220 001a 40F2E733 		movw	r3, #999
 221 001e 9A42     		cmp	r2, r3
 222 0020 1AD9     		bls	.L15
 266:..\..\BSP\OS\uCOS-III/bsp_os.c ****         ms  = dly_ms / 1000u;
 223              		.loc 1 266 0
 224 0022 7A68     		ldr	r2, [r7, #4]
 225 0024 44F6D353 		movw	r3, #:lower16:274877907
 226 0028 C1F26203 		movt	r3, #:upper16:274877907
 227 002c A3FB0213 		umull	r1, r3, r3, r2
 228 0030 4FEA9313 		lsr	r3, r3, #6
 229 0034 BB81     		strh	r3, [r7, #12]	@ movhi
 267:..\..\BSP\OS\uCOS-III/bsp_os.c ****         sec = dly_ms % 1000u;
 230              		.loc 1 267 0
 231 0036 7A68     		ldr	r2, [r7, #4]
 232 0038 44F6D353 		movw	r3, #:lower16:274877907
 233 003c C1F26203 		movt	r3, #:upper16:274877907
 234 0040 A3FB0213 		umull	r1, r3, r3, r2
 235 0044 4FEA9313 		lsr	r3, r3, #6
 236 0048 4FF47A71 		mov	r1, #1000
 237 004c 01FB03F3 		mul	r3, r1, r3
 238 0050 C3EB0203 		rsb	r3, r3, r2
 239 0054 FB81     		strh	r3, [r7, #14]	@ movhi
 240 0056 04E0     		b	.L16
 241              	.L15:
 268:..\..\BSP\OS\uCOS-III/bsp_os.c ****     } else {
ARM GAS  C:\Users\daniel01\AppData\Local\Temp\cc4MEU6w.s 			page 10


 269:..\..\BSP\OS\uCOS-III/bsp_os.c ****         ms  = dly_ms;
 242              		.loc 1 269 0
 243 0058 7B68     		ldr	r3, [r7, #4]
 244 005a BB81     		strh	r3, [r7, #12]	@ movhi
 270:..\..\BSP\OS\uCOS-III/bsp_os.c ****         sec = 0u;
 245              		.loc 1 270 0
 246 005c 4FF00003 		mov	r3, #0
 247 0060 FB81     		strh	r3, [r7, #14]	@ movhi
 248              	.L16:
 271:..\..\BSP\OS\uCOS-III/bsp_os.c ****     }
 272:..\..\BSP\OS\uCOS-III/bsp_os.c **** 
 273:..\..\BSP\OS\uCOS-III/bsp_os.c **** 
 274:..\..\BSP\OS\uCOS-III/bsp_os.c ****     OSTimeDlyHMSM((CPU_INT16U) 0u,
 249              		.loc 1 274 0
 250 0062 BB89     		ldrh	r3, [r7, #12]
 251 0064 FA89     		ldrh	r2, [r7, #14]
 252 0066 4FF00001 		mov	r1, #0
 253 006a 0091     		str	r1, [sp, #0]
 254 006c 07F10A01 		add	r1, r7, #10
 255 0070 0191     		str	r1, [sp, #4]
 256 0072 4FF00000 		mov	r0, #0
 257 0076 4FF00001 		mov	r1, #0
 258 007a FFF7FEFF 		bl	OSTimeDlyHMSM
 275:..\..\BSP\OS\uCOS-III/bsp_os.c ****                   (CPU_INT16U) 0u,
 276:..\..\BSP\OS\uCOS-III/bsp_os.c ****                   (CPU_INT16U) sec,
 277:..\..\BSP\OS\uCOS-III/bsp_os.c ****                   (CPU_INT32U) ms,
 278:..\..\BSP\OS\uCOS-III/bsp_os.c ****                   (OS_OPT    ) OS_OPT_TIME_HMSM_STRICT,
 279:..\..\BSP\OS\uCOS-III/bsp_os.c ****                   (OS_ERR   *)&err);
 280:..\..\BSP\OS\uCOS-III/bsp_os.c **** }
 259              		.loc 1 280 0
 260 007e 07F11007 		add	r7, r7, #16
 261 0082 BD46     		mov	sp, r7
 262 0084 80BD     		pop	{r7, pc}
 263              		.cfi_endproc
 264              	.LFE3:
 265              		.size	BSP_OS_TimeDlyMs, .-BSP_OS_TimeDlyMs
 266 0086 00BF     		.text
 267              	.Letext0: