ARM GAS  C:\Users\daniel01\AppData\Local\Temp\ccJZvVod.s 			page 1


   1              		.syntax unified
   2              		.cpu cortex-m3
   3              		.fpu softvfp
   4              		.eabi_attribute 20, 1
   5              		.eabi_attribute 21, 1
   6              		.eabi_attribute 23, 3
   7              		.eabi_attribute 24, 1
   8              		.eabi_attribute 25, 1
   9              		.eabi_attribute 26, 1
  10              		.eabi_attribute 30, 6
  11              		.eabi_attribute 18, 4
  12              		.thumb
  13              		.file	"lib_mem.c"
  20 0000 76010000 		.text
  20      02006F00 
  20      00000201 
  20      FB0E0D00 
  20      01010101 
  21              	.Ltext0:
  22              		.cfi_sections	.debug_frame
  23              		.section	.text.Mem_Init,"ax",%progbits
  24              		.align	2
  25              		.global	Mem_Init
  26              		.thumb
  27              		.thumb_func
  28              		.type	Mem_Init, %function
  29              	Mem_Init:
  30              	.LFB0:
  31              		.file 1 "C:\\Micrium\\Software\\uC-LIB\\lib_mem.c"
   1:C:\Micrium\Software\uC-LIB\lib_mem.c **** /*
   2:C:\Micrium\Software\uC-LIB\lib_mem.c **** ***************************************************************************************************
   3:C:\Micrium\Software\uC-LIB\lib_mem.c **** *                                                uC/LIB
   4:C:\Micrium\Software\uC-LIB\lib_mem.c **** *                                        CUSTOM LIBRARY MODULES
   5:C:\Micrium\Software\uC-LIB\lib_mem.c **** *
   6:C:\Micrium\Software\uC-LIB\lib_mem.c **** *                          (c) Copyright 2004-2012; Micrium, Inc.; Weston, FL
   7:C:\Micrium\Software\uC-LIB\lib_mem.c **** *
   8:C:\Micrium\Software\uC-LIB\lib_mem.c **** *               All rights reserved.  Protected by international copyright laws.
   9:C:\Micrium\Software\uC-LIB\lib_mem.c **** *
  10:C:\Micrium\Software\uC-LIB\lib_mem.c **** *               uC/LIB is provided in source form to registered licensees ONLY.  It is
  11:C:\Micrium\Software\uC-LIB\lib_mem.c **** *               illegal to distribute this source code to any third party unless you receive
  12:C:\Micrium\Software\uC-LIB\lib_mem.c **** *               written permission by an authorized Micrium representative.  Knowledge of
  13:C:\Micrium\Software\uC-LIB\lib_mem.c **** *               the source code may NOT be used to develop a similar product.
  14:C:\Micrium\Software\uC-LIB\lib_mem.c **** *
  15:C:\Micrium\Software\uC-LIB\lib_mem.c **** *               Please help us continue to provide the Embedded community with the finest
  16:C:\Micrium\Software\uC-LIB\lib_mem.c **** *               software available.  Your honesty is greatly appreciated.
  17:C:\Micrium\Software\uC-LIB\lib_mem.c **** *
  18:C:\Micrium\Software\uC-LIB\lib_mem.c **** *               You can contact us at www.micrium.com.
  19:C:\Micrium\Software\uC-LIB\lib_mem.c **** ***************************************************************************************************
  20:C:\Micrium\Software\uC-LIB\lib_mem.c **** */
  21:C:\Micrium\Software\uC-LIB\lib_mem.c **** 
  22:C:\Micrium\Software\uC-LIB\lib_mem.c **** /*
ARM GAS  C:\Users\daniel01\AppData\Local\Temp\ccJZvVod.s 			page 2


  23:C:\Micrium\Software\uC-LIB\lib_mem.c **** ***************************************************************************************************
  24:C:\Micrium\Software\uC-LIB\lib_mem.c **** *
  25:C:\Micrium\Software\uC-LIB\lib_mem.c **** *                                     STANDARD MEMORY OPERATIONS
  26:C:\Micrium\Software\uC-LIB\lib_mem.c **** *
  27:C:\Micrium\Software\uC-LIB\lib_mem.c **** * Filename      : lib_mem.c
  28:C:\Micrium\Software\uC-LIB\lib_mem.c **** * Version       : V1.37.00
  29:C:\Micrium\Software\uC-LIB\lib_mem.c **** * Programmer(s) : ITJ
  30:C:\Micrium\Software\uC-LIB\lib_mem.c **** *                 FGK
  31:C:\Micrium\Software\uC-LIB\lib_mem.c **** *                 JFD
  32:C:\Micrium\Software\uC-LIB\lib_mem.c **** *                 FBJ
  33:C:\Micrium\Software\uC-LIB\lib_mem.c **** ***************************************************************************************************
  34:C:\Micrium\Software\uC-LIB\lib_mem.c **** * Note(s)       : (1) NO compiler-supplied standard library functions are used in library or produc
  35:C:\Micrium\Software\uC-LIB\lib_mem.c **** *
  36:C:\Micrium\Software\uC-LIB\lib_mem.c **** *                     (a) ALL standard library functions are implemented in the custom library modu
  37:C:\Micrium\Software\uC-LIB\lib_mem.c **** *
  38:C:\Micrium\Software\uC-LIB\lib_mem.c **** *                         (1) \<Custom Library Directory>\lib_*.*
  39:C:\Micrium\Software\uC-LIB\lib_mem.c **** *
  40:C:\Micrium\Software\uC-LIB\lib_mem.c **** *                         (2) \<Custom Library Directory>\Ports\<cpu>\<compiler>\lib*_a.*
  41:C:\Micrium\Software\uC-LIB\lib_mem.c **** *
  42:C:\Micrium\Software\uC-LIB\lib_mem.c **** *                               where
  43:C:\Micrium\Software\uC-LIB\lib_mem.c **** *                                       <Custom Library Directory>      directory path for custom l
  44:C:\Micrium\Software\uC-LIB\lib_mem.c **** *                                       <cpu>                           directory name for specific
  45:C:\Micrium\Software\uC-LIB\lib_mem.c **** *                                       <compiler>                      directory name for specific
  46:C:\Micrium\Software\uC-LIB\lib_mem.c **** *
  47:C:\Micrium\Software\uC-LIB\lib_mem.c **** *                     (b) Product-specific library functions are implemented in individual products
  48:C:\Micrium\Software\uC-LIB\lib_mem.c **** ***************************************************************************************************
  49:C:\Micrium\Software\uC-LIB\lib_mem.c **** */
  50:C:\Micrium\Software\uC-LIB\lib_mem.c **** 
  51:C:\Micrium\Software\uC-LIB\lib_mem.c **** 
  52:C:\Micrium\Software\uC-LIB\lib_mem.c **** /*
  53:C:\Micrium\Software\uC-LIB\lib_mem.c **** ***************************************************************************************************
  54:C:\Micrium\Software\uC-LIB\lib_mem.c **** *                                            INCLUDE FILES
  55:C:\Micrium\Software\uC-LIB\lib_mem.c **** ***************************************************************************************************
  56:C:\Micrium\Software\uC-LIB\lib_mem.c **** */
  57:C:\Micrium\Software\uC-LIB\lib_mem.c **** 
  58:C:\Micrium\Software\uC-LIB\lib_mem.c **** #define    MICRIUM_SOURCE
  59:C:\Micrium\Software\uC-LIB\lib_mem.c **** #define    LIB_MEM_MODULE
  60:C:\Micrium\Software\uC-LIB\lib_mem.c **** #include  <lib_mem.h>
  61:C:\Micrium\Software\uC-LIB\lib_mem.c **** 
  62:C:\Micrium\Software\uC-LIB\lib_mem.c **** 
  63:C:\Micrium\Software\uC-LIB\lib_mem.c **** /*$PAGE*/
  64:C:\Micrium\Software\uC-LIB\lib_mem.c **** /*
  65:C:\Micrium\Software\uC-LIB\lib_mem.c **** ***************************************************************************************************
  66:C:\Micrium\Software\uC-LIB\lib_mem.c **** *                                            LOCAL DEFINES
  67:C:\Micrium\Software\uC-LIB\lib_mem.c **** ***************************************************************************************************
  68:C:\Micrium\Software\uC-LIB\lib_mem.c **** */
  69:C:\Micrium\Software\uC-LIB\lib_mem.c **** 
  70:C:\Micrium\Software\uC-LIB\lib_mem.c **** 
  71:C:\Micrium\Software\uC-LIB\lib_mem.c **** /*
  72:C:\Micrium\Software\uC-LIB\lib_mem.c **** ***************************************************************************************************
  73:C:\Micrium\Software\uC-LIB\lib_mem.c **** *                                           LOCAL CONSTANTS
  74:C:\Micrium\Software\uC-LIB\lib_mem.c **** ***************************************************************************************************
  75:C:\Micrium\Software\uC-LIB\lib_mem.c **** */
  76:C:\Micrium\Software\uC-LIB\lib_mem.c **** 
  77:C:\Micrium\Software\uC-LIB\lib_mem.c **** 
  78:C:\Micrium\Software\uC-LIB\lib_mem.c **** /*
  79:C:\Micrium\Software\uC-LIB\lib_mem.c **** ***************************************************************************************************
ARM GAS  C:\Users\daniel01\AppData\Local\Temp\ccJZvVod.s 			page 3


  80:C:\Micrium\Software\uC-LIB\lib_mem.c **** *                                          LOCAL DATA TYPES
  81:C:\Micrium\Software\uC-LIB\lib_mem.c **** ***************************************************************************************************
  82:C:\Micrium\Software\uC-LIB\lib_mem.c **** */
  83:C:\Micrium\Software\uC-LIB\lib_mem.c **** 
  84:C:\Micrium\Software\uC-LIB\lib_mem.c **** 
  85:C:\Micrium\Software\uC-LIB\lib_mem.c **** /*
  86:C:\Micrium\Software\uC-LIB\lib_mem.c **** ***************************************************************************************************
  87:C:\Micrium\Software\uC-LIB\lib_mem.c **** *                                            LOCAL TABLES
  88:C:\Micrium\Software\uC-LIB\lib_mem.c **** ***************************************************************************************************
  89:C:\Micrium\Software\uC-LIB\lib_mem.c **** */
  90:C:\Micrium\Software\uC-LIB\lib_mem.c **** 
  91:C:\Micrium\Software\uC-LIB\lib_mem.c **** 
  92:C:\Micrium\Software\uC-LIB\lib_mem.c **** /*
  93:C:\Micrium\Software\uC-LIB\lib_mem.c **** ***************************************************************************************************
  94:C:\Micrium\Software\uC-LIB\lib_mem.c **** *                                       LOCAL GLOBAL VARIABLES
  95:C:\Micrium\Software\uC-LIB\lib_mem.c **** ***************************************************************************************************
  96:C:\Micrium\Software\uC-LIB\lib_mem.c **** */
  97:C:\Micrium\Software\uC-LIB\lib_mem.c **** 
  98:C:\Micrium\Software\uC-LIB\lib_mem.c **** #if     (LIB_MEM_CFG_ALLOC_EN == DEF_ENABLED)
  99:C:\Micrium\Software\uC-LIB\lib_mem.c **** MEM_POOL    *Mem_PoolTbl;                                               /* Mem      pool/seg tbl.  
 100:C:\Micrium\Software\uC-LIB\lib_mem.c **** MEM_POOL     Mem_PoolHeap;                                              /* Mem heap pool/seg.      
 101:C:\Micrium\Software\uC-LIB\lib_mem.c **** 
 102:C:\Micrium\Software\uC-LIB\lib_mem.c **** #ifndef  LIB_MEM_CFG_HEAP_BASE_ADDR
 103:C:\Micrium\Software\uC-LIB\lib_mem.c **** CPU_INT08U   Mem_Heap[LIB_MEM_CFG_HEAP_SIZE];                           /* Mem heap.               
 104:C:\Micrium\Software\uC-LIB\lib_mem.c **** #endif
 105:C:\Micrium\Software\uC-LIB\lib_mem.c **** #endif
 106:C:\Micrium\Software\uC-LIB\lib_mem.c **** 
 107:C:\Micrium\Software\uC-LIB\lib_mem.c **** 
 108:C:\Micrium\Software\uC-LIB\lib_mem.c **** /*
 109:C:\Micrium\Software\uC-LIB\lib_mem.c **** ***************************************************************************************************
 110:C:\Micrium\Software\uC-LIB\lib_mem.c **** *                                      LOCAL FUNCTION PROTOTYPES
 111:C:\Micrium\Software\uC-LIB\lib_mem.c **** ***************************************************************************************************
 112:C:\Micrium\Software\uC-LIB\lib_mem.c **** */
 113:C:\Micrium\Software\uC-LIB\lib_mem.c **** 
 114:C:\Micrium\Software\uC-LIB\lib_mem.c **** #if (LIB_MEM_CFG_ALLOC_EN == DEF_ENABLED)                               /* -------------- MEM POOL 
 115:C:\Micrium\Software\uC-LIB\lib_mem.c **** 
 116:C:\Micrium\Software\uC-LIB\lib_mem.c **** #if (LIB_MEM_CFG_ARG_CHK_EXT_EN == DEF_ENABLED)
 117:C:\Micrium\Software\uC-LIB\lib_mem.c **** static  CPU_BOOLEAN   Mem_PoolBlkIsValidAddr(MEM_POOL          *pmem_pool,
 118:C:\Micrium\Software\uC-LIB\lib_mem.c ****                                              void              *pmem_blk);
 119:C:\Micrium\Software\uC-LIB\lib_mem.c **** #endif
 120:C:\Micrium\Software\uC-LIB\lib_mem.c **** 
 121:C:\Micrium\Software\uC-LIB\lib_mem.c **** 
 122:C:\Micrium\Software\uC-LIB\lib_mem.c **** static  CPU_SIZE_T    Mem_SegCalcTotSize    (void              *pmem_addr,
 123:C:\Micrium\Software\uC-LIB\lib_mem.c ****                                              MEM_POOL_BLK_QTY   blk_nbr,
 124:C:\Micrium\Software\uC-LIB\lib_mem.c ****                                              CPU_SIZE_T         blk_size,
 125:C:\Micrium\Software\uC-LIB\lib_mem.c ****                                              CPU_SIZE_T         blk_align);
 126:C:\Micrium\Software\uC-LIB\lib_mem.c **** 
 127:C:\Micrium\Software\uC-LIB\lib_mem.c **** static  void         *Mem_SegAlloc          (MEM_POOL          *pmem_pool,
 128:C:\Micrium\Software\uC-LIB\lib_mem.c ****                                              CPU_SIZE_T         size,
 129:C:\Micrium\Software\uC-LIB\lib_mem.c ****                                              CPU_SIZE_T         align);
 130:C:\Micrium\Software\uC-LIB\lib_mem.c **** 
 131:C:\Micrium\Software\uC-LIB\lib_mem.c **** #endif
 132:C:\Micrium\Software\uC-LIB\lib_mem.c **** 
 133:C:\Micrium\Software\uC-LIB\lib_mem.c **** 
 134:C:\Micrium\Software\uC-LIB\lib_mem.c **** /*
 135:C:\Micrium\Software\uC-LIB\lib_mem.c **** ***************************************************************************************************
 136:C:\Micrium\Software\uC-LIB\lib_mem.c **** *                                     LOCAL CONFIGURATION ERRORS
ARM GAS  C:\Users\daniel01\AppData\Local\Temp\ccJZvVod.s 			page 4


 137:C:\Micrium\Software\uC-LIB\lib_mem.c **** ***************************************************************************************************
 138:C:\Micrium\Software\uC-LIB\lib_mem.c **** */
 139:C:\Micrium\Software\uC-LIB\lib_mem.c **** 
 140:C:\Micrium\Software\uC-LIB\lib_mem.c **** 
 141:C:\Micrium\Software\uC-LIB\lib_mem.c **** /*$PAGE*/
 142:C:\Micrium\Software\uC-LIB\lib_mem.c **** /*
 143:C:\Micrium\Software\uC-LIB\lib_mem.c **** ***************************************************************************************************
 144:C:\Micrium\Software\uC-LIB\lib_mem.c **** *                                             Mem_Init()
 145:C:\Micrium\Software\uC-LIB\lib_mem.c **** *
 146:C:\Micrium\Software\uC-LIB\lib_mem.c **** * Description : (1) Initialize Memory Management Module :
 147:C:\Micrium\Software\uC-LIB\lib_mem.c **** *
 148:C:\Micrium\Software\uC-LIB\lib_mem.c **** *                   (a) Initialize heap memory pool
 149:C:\Micrium\Software\uC-LIB\lib_mem.c **** *                   (b) Initialize      memory pool table
 150:C:\Micrium\Software\uC-LIB\lib_mem.c **** *
 151:C:\Micrium\Software\uC-LIB\lib_mem.c **** *
 152:C:\Micrium\Software\uC-LIB\lib_mem.c **** * Argument(s) : none.
 153:C:\Micrium\Software\uC-LIB\lib_mem.c **** *
 154:C:\Micrium\Software\uC-LIB\lib_mem.c **** * Return(s)   : none.
 155:C:\Micrium\Software\uC-LIB\lib_mem.c **** *
 156:C:\Micrium\Software\uC-LIB\lib_mem.c **** * Caller(s)   : Application.
 157:C:\Micrium\Software\uC-LIB\lib_mem.c **** *
 158:C:\Micrium\Software\uC-LIB\lib_mem.c **** * Note(s)     : (2) Mem_Init() MUST be called ... :
 159:C:\Micrium\Software\uC-LIB\lib_mem.c **** *
 160:C:\Micrium\Software\uC-LIB\lib_mem.c **** *                   (a) ONLY ONCE from a product's application; ...
 161:C:\Micrium\Software\uC-LIB\lib_mem.c **** *                   (b) BEFORE product's application calls any memory library module function(s)
 162:C:\Micrium\Software\uC-LIB\lib_mem.c **** ***************************************************************************************************
 163:C:\Micrium\Software\uC-LIB\lib_mem.c **** */
 164:C:\Micrium\Software\uC-LIB\lib_mem.c **** 
 165:C:\Micrium\Software\uC-LIB\lib_mem.c **** void  Mem_Init (void)
 166:C:\Micrium\Software\uC-LIB\lib_mem.c **** {
  32              		.loc 1 166 0
  33              		.cfi_startproc
  34              		@ args = 0, pretend = 0, frame = 0
  35              		@ frame_needed = 1, uses_anonymous_args = 0
  36              		@ link register save eliminated.
  37 0000 80B4     		push	{r7}
  38              	.LCFI0:
  39              		.cfi_def_cfa_offset 4
  40 0002 00AF     		add	r7, sp, #0
  41              		.cfi_offset 7, -4
  42              	.LCFI1:
  43              		.cfi_def_cfa_register 7
 167:C:\Micrium\Software\uC-LIB\lib_mem.c **** #if (LIB_MEM_CFG_ALLOC_EN == DEF_ENABLED)
 168:C:\Micrium\Software\uC-LIB\lib_mem.c ****     MEM_POOL  *pmem_pool;
 169:C:\Micrium\Software\uC-LIB\lib_mem.c **** 
 170:C:\Micrium\Software\uC-LIB\lib_mem.c ****                                                                         /* --------- INIT MEM HEAP 
 171:C:\Micrium\Software\uC-LIB\lib_mem.c ****     pmem_pool                   = (MEM_POOL   *)&Mem_PoolHeap;
 172:C:\Micrium\Software\uC-LIB\lib_mem.c ****     pmem_pool->Type             = (LIB_MEM_TYPE) LIB_MEM_TYPE_HEAP;
 173:C:\Micrium\Software\uC-LIB\lib_mem.c ****     pmem_pool->SegHeadPtr       = (MEM_POOL   *)&Mem_PoolHeap;          /* Heap seg head = heap seg
 174:C:\Micrium\Software\uC-LIB\lib_mem.c ****     pmem_pool->SegPrevPtr       = (MEM_POOL   *) 0;
 175:C:\Micrium\Software\uC-LIB\lib_mem.c ****     pmem_pool->SegNextPtr       = (MEM_POOL   *) 0;
 176:C:\Micrium\Software\uC-LIB\lib_mem.c ****     pmem_pool->PoolPrevPtr      = (MEM_POOL   *) 0;
 177:C:\Micrium\Software\uC-LIB\lib_mem.c ****     pmem_pool->PoolNextPtr      = (MEM_POOL   *) 0;
 178:C:\Micrium\Software\uC-LIB\lib_mem.c ****     pmem_pool->PoolAddrStart    = (void       *) 0;
 179:C:\Micrium\Software\uC-LIB\lib_mem.c ****     pmem_pool->PoolAddrEnd      = (void       *) 0;
 180:C:\Micrium\Software\uC-LIB\lib_mem.c ****     pmem_pool->PoolPtrs         = (void      **) 0;
 181:C:\Micrium\Software\uC-LIB\lib_mem.c ****     pmem_pool->BlkSize          = (CPU_SIZE_T  ) 0u;
ARM GAS  C:\Users\daniel01\AppData\Local\Temp\ccJZvVod.s 			page 5


 182:C:\Micrium\Software\uC-LIB\lib_mem.c ****     pmem_pool->BlkNbr           = (CPU_SIZE_T  ) 0u;
 183:C:\Micrium\Software\uC-LIB\lib_mem.c ****     pmem_pool->BlkIx            = (MEM_POOL_IX ) 0u;
 184:C:\Micrium\Software\uC-LIB\lib_mem.c **** 
 185:C:\Micrium\Software\uC-LIB\lib_mem.c **** #ifdef  LIB_MEM_CFG_HEAP_BASE_ADDR
 186:C:\Micrium\Software\uC-LIB\lib_mem.c ****     pmem_pool->SegAddr          = (void       *) LIB_MEM_CFG_HEAP_BASE_ADDR;
 187:C:\Micrium\Software\uC-LIB\lib_mem.c ****     pmem_pool->SegAddrNextAvail = (void       *) LIB_MEM_CFG_HEAP_BASE_ADDR;
 188:C:\Micrium\Software\uC-LIB\lib_mem.c **** #else
 189:C:\Micrium\Software\uC-LIB\lib_mem.c ****     pmem_pool->SegAddr          = (void       *)&Mem_Heap[0];
 190:C:\Micrium\Software\uC-LIB\lib_mem.c ****     pmem_pool->SegAddrNextAvail = (void       *)&Mem_Heap[0];
 191:C:\Micrium\Software\uC-LIB\lib_mem.c **** #endif
 192:C:\Micrium\Software\uC-LIB\lib_mem.c **** 
 193:C:\Micrium\Software\uC-LIB\lib_mem.c ****     pmem_pool->SegSizeTot       = (CPU_SIZE_T  ) LIB_MEM_CFG_HEAP_SIZE;
 194:C:\Micrium\Software\uC-LIB\lib_mem.c ****     pmem_pool->SegSizeRem       = (CPU_SIZE_T  ) LIB_MEM_CFG_HEAP_SIZE;
 195:C:\Micrium\Software\uC-LIB\lib_mem.c **** 
 196:C:\Micrium\Software\uC-LIB\lib_mem.c ****                                                                         /* ------------ INIT MEM PO
 197:C:\Micrium\Software\uC-LIB\lib_mem.c ****     Mem_PoolTbl = &Mem_PoolHeap;
 198:C:\Micrium\Software\uC-LIB\lib_mem.c **** #endif
 199:C:\Micrium\Software\uC-LIB\lib_mem.c **** }
  44              		.loc 1 199 0
  45 0004 BD46     		mov	sp, r7
  46 0006 80BC     		pop	{r7}
  47 0008 7047     		bx	lr
  48              		.cfi_endproc
  49              	.LFE0:
  50              		.size	Mem_Init, .-Mem_Init
  51 000a 00BF     		.section	.text.Mem_Clr,"ax",%progbits
  52              		.align	2
  53              		.global	Mem_Clr
  54              		.thumb
  55              		.thumb_func
  56              		.type	Mem_Clr, %function
  57              	Mem_Clr:
  58              	.LFB1:
 200:C:\Micrium\Software\uC-LIB\lib_mem.c **** 
 201:C:\Micrium\Software\uC-LIB\lib_mem.c **** 
 202:C:\Micrium\Software\uC-LIB\lib_mem.c **** /*$PAGE*/
 203:C:\Micrium\Software\uC-LIB\lib_mem.c **** /*
 204:C:\Micrium\Software\uC-LIB\lib_mem.c **** ***************************************************************************************************
 205:C:\Micrium\Software\uC-LIB\lib_mem.c **** *                                              Mem_Clr()
 206:C:\Micrium\Software\uC-LIB\lib_mem.c **** *
 207:C:\Micrium\Software\uC-LIB\lib_mem.c **** * Description : Clear data buffer (see Note #2).
 208:C:\Micrium\Software\uC-LIB\lib_mem.c **** *
 209:C:\Micrium\Software\uC-LIB\lib_mem.c **** * Argument(s) : pmem        Pointer to memory buffer to clear.
 210:C:\Micrium\Software\uC-LIB\lib_mem.c **** *
 211:C:\Micrium\Software\uC-LIB\lib_mem.c **** *               size        Number of data buffer octets to clear (see Note #1).
 212:C:\Micrium\Software\uC-LIB\lib_mem.c **** *
 213:C:\Micrium\Software\uC-LIB\lib_mem.c **** * Return(s)   : none.
 214:C:\Micrium\Software\uC-LIB\lib_mem.c **** *
 215:C:\Micrium\Software\uC-LIB\lib_mem.c **** * Caller(s)   : Application.
 216:C:\Micrium\Software\uC-LIB\lib_mem.c **** *
 217:C:\Micrium\Software\uC-LIB\lib_mem.c **** * Note(s)     : (1) Null clears allowed (i.e. zero-length clears).
 218:C:\Micrium\Software\uC-LIB\lib_mem.c **** *
 219:C:\Micrium\Software\uC-LIB\lib_mem.c **** *                   See also 'Mem_Set()  Note #1'.
 220:C:\Micrium\Software\uC-LIB\lib_mem.c **** *
 221:C:\Micrium\Software\uC-LIB\lib_mem.c **** *               (2) Clear data by setting each data octet to 0.
 222:C:\Micrium\Software\uC-LIB\lib_mem.c **** ***************************************************************************************************
 223:C:\Micrium\Software\uC-LIB\lib_mem.c **** */
ARM GAS  C:\Users\daniel01\AppData\Local\Temp\ccJZvVod.s 			page 6


 224:C:\Micrium\Software\uC-LIB\lib_mem.c **** 
 225:C:\Micrium\Software\uC-LIB\lib_mem.c **** void  Mem_Clr (void        *pmem,
 226:C:\Micrium\Software\uC-LIB\lib_mem.c ****                CPU_SIZE_T   size)
 227:C:\Micrium\Software\uC-LIB\lib_mem.c **** {
  59              		.loc 1 227 0
  60              		.cfi_startproc
  61              		@ args = 0, pretend = 0, frame = 8
  62              		@ frame_needed = 1, uses_anonymous_args = 0
  63 0000 80B5     		push	{r7, lr}
  64              	.LCFI2:
  65              		.cfi_def_cfa_offset 8
  66 0002 82B0     		sub	sp, sp, #8
  67              	.LCFI3:
  68              		.cfi_def_cfa_offset 16
  69 0004 00AF     		add	r7, sp, #0
  70              		.cfi_offset 14, -4
  71              		.cfi_offset 7, -8
  72              	.LCFI4:
  73              		.cfi_def_cfa_register 7
  74 0006 7860     		str	r0, [r7, #4]
  75 0008 3960     		str	r1, [r7, #0]
 228:C:\Micrium\Software\uC-LIB\lib_mem.c ****     Mem_Set(pmem,
  76              		.loc 1 228 0
  77 000a 7868     		ldr	r0, [r7, #4]
  78 000c 4FF00001 		mov	r1, #0
  79 0010 3A68     		ldr	r2, [r7, #0]
  80 0012 FFF7FEFF 		bl	Mem_Set
 229:C:\Micrium\Software\uC-LIB\lib_mem.c ****             0u,                                                 /* See Note #2.                    
 230:C:\Micrium\Software\uC-LIB\lib_mem.c ****             size);
 231:C:\Micrium\Software\uC-LIB\lib_mem.c **** }
  81              		.loc 1 231 0
  82 0016 07F10807 		add	r7, r7, #8
  83 001a BD46     		mov	sp, r7
  84 001c 80BD     		pop	{r7, pc}
  85              		.cfi_endproc
  86              	.LFE1:
  87              		.size	Mem_Clr, .-Mem_Clr
  88 001e 00BF     		.section	.text.Mem_Set,"ax",%progbits
  89              		.align	2
  90              		.global	Mem_Set
  91              		.thumb
  92              		.thumb_func
  93              		.type	Mem_Set, %function
  94              	Mem_Set:
  95              	.LFB2:
 232:C:\Micrium\Software\uC-LIB\lib_mem.c **** 
 233:C:\Micrium\Software\uC-LIB\lib_mem.c **** 
 234:C:\Micrium\Software\uC-LIB\lib_mem.c **** /*$PAGE*/
 235:C:\Micrium\Software\uC-LIB\lib_mem.c **** /*
 236:C:\Micrium\Software\uC-LIB\lib_mem.c **** ***************************************************************************************************
 237:C:\Micrium\Software\uC-LIB\lib_mem.c **** *                                              Mem_Set()
 238:C:\Micrium\Software\uC-LIB\lib_mem.c **** *
 239:C:\Micrium\Software\uC-LIB\lib_mem.c **** * Description : Fill data buffer with specified data octet.
 240:C:\Micrium\Software\uC-LIB\lib_mem.c **** *
 241:C:\Micrium\Software\uC-LIB\lib_mem.c **** * Argument(s) : pmem        Pointer to memory buffer to fill with specified data octet.
 242:C:\Micrium\Software\uC-LIB\lib_mem.c **** *
 243:C:\Micrium\Software\uC-LIB\lib_mem.c **** *               data_val    Data fill octet value.
ARM GAS  C:\Users\daniel01\AppData\Local\Temp\ccJZvVod.s 			page 7


 244:C:\Micrium\Software\uC-LIB\lib_mem.c **** *
 245:C:\Micrium\Software\uC-LIB\lib_mem.c **** *               size        Number of data buffer octets to fill (see Note #1).
 246:C:\Micrium\Software\uC-LIB\lib_mem.c **** *
 247:C:\Micrium\Software\uC-LIB\lib_mem.c **** * Return(s)   : none.
 248:C:\Micrium\Software\uC-LIB\lib_mem.c **** *
 249:C:\Micrium\Software\uC-LIB\lib_mem.c **** * Caller(s)   : Application.
 250:C:\Micrium\Software\uC-LIB\lib_mem.c **** *
 251:C:\Micrium\Software\uC-LIB\lib_mem.c **** * Note(s)     : (1) Null sets allowed (i.e. zero-length sets).
 252:C:\Micrium\Software\uC-LIB\lib_mem.c **** *
 253:C:\Micrium\Software\uC-LIB\lib_mem.c **** *               (2) For best CPU performance, optimized to fill data buffer using 'CPU_ALIGN'-sized
 254:C:\Micrium\Software\uC-LIB\lib_mem.c **** *                   words.
 255:C:\Micrium\Software\uC-LIB\lib_mem.c **** *
 256:C:\Micrium\Software\uC-LIB\lib_mem.c **** *                   (a) Since many word-aligned processors REQUIRE that multi-octet words be access
 257:C:\Micrium\Software\uC-LIB\lib_mem.c **** *                       word-aligned addresses, 'CPU_ALIGN'-sized words MUST be accessed on 'CPU_AL
 258:C:\Micrium\Software\uC-LIB\lib_mem.c **** *                       addresses.
 259:C:\Micrium\Software\uC-LIB\lib_mem.c **** *
 260:C:\Micrium\Software\uC-LIB\lib_mem.c **** *               (3) Modulo arithmetic is used to determine whether a memory buffer starts on a 'CPU
 261:C:\Micrium\Software\uC-LIB\lib_mem.c **** *                   address boundary.
 262:C:\Micrium\Software\uC-LIB\lib_mem.c **** *
 263:C:\Micrium\Software\uC-LIB\lib_mem.c **** *                   Modulo arithmetic in ANSI-C REQUIREs operations performed on integer values.  T
 264:C:\Micrium\Software\uC-LIB\lib_mem.c **** *                   address values MUST be cast to an appropriately-sized integer value PRIOR to an
 265:C:\Micrium\Software\uC-LIB\lib_mem.c **** *                  'mem_align_mod' arithmetic operation.
 266:C:\Micrium\Software\uC-LIB\lib_mem.c **** ***************************************************************************************************
 267:C:\Micrium\Software\uC-LIB\lib_mem.c **** */
 268:C:\Micrium\Software\uC-LIB\lib_mem.c **** 
 269:C:\Micrium\Software\uC-LIB\lib_mem.c **** void  Mem_Set (void        *pmem,
 270:C:\Micrium\Software\uC-LIB\lib_mem.c ****                CPU_INT08U   data_val,
 271:C:\Micrium\Software\uC-LIB\lib_mem.c ****                CPU_SIZE_T   size)
 272:C:\Micrium\Software\uC-LIB\lib_mem.c **** {
  96              		.loc 1 272 0
  97              		.cfi_startproc
  98              		@ args = 0, pretend = 0, frame = 40
  99              		@ frame_needed = 1, uses_anonymous_args = 0
 100              		@ link register save eliminated.
 101 0000 80B4     		push	{r7}
 102              	.LCFI5:
 103              		.cfi_def_cfa_offset 4
 104 0002 8BB0     		sub	sp, sp, #44
 105              	.LCFI6:
 106              		.cfi_def_cfa_offset 48
 107 0004 00AF     		add	r7, sp, #0
 108              		.cfi_offset 7, -4
 109              	.LCFI7:
 110              		.cfi_def_cfa_register 7
 111 0006 F860     		str	r0, [r7, #12]
 112 0008 0B46     		mov	r3, r1
 113 000a 7A60     		str	r2, [r7, #4]
 114 000c FB72     		strb	r3, [r7, #11]
 273:C:\Micrium\Software\uC-LIB\lib_mem.c ****     CPU_SIZE_T   size_rem;
 274:C:\Micrium\Software\uC-LIB\lib_mem.c ****     CPU_ALIGN    data_align;
 275:C:\Micrium\Software\uC-LIB\lib_mem.c ****     CPU_ALIGN   *pmem_align;
 276:C:\Micrium\Software\uC-LIB\lib_mem.c ****     CPU_INT08U  *pmem_08;
 277:C:\Micrium\Software\uC-LIB\lib_mem.c ****     CPU_DATA     mem_align_mod;
 278:C:\Micrium\Software\uC-LIB\lib_mem.c ****     CPU_DATA     i;
 279:C:\Micrium\Software\uC-LIB\lib_mem.c **** 
 280:C:\Micrium\Software\uC-LIB\lib_mem.c **** 
 281:C:\Micrium\Software\uC-LIB\lib_mem.c **** #if (LIB_MEM_CFG_ARG_CHK_EXT_EN == DEF_ENABLED)
ARM GAS  C:\Users\daniel01\AppData\Local\Temp\ccJZvVod.s 			page 8


 282:C:\Micrium\Software\uC-LIB\lib_mem.c ****     if (size < 1) {                                             /* See Note #1.                    
 283:C:\Micrium\Software\uC-LIB\lib_mem.c ****         return;
 284:C:\Micrium\Software\uC-LIB\lib_mem.c ****     }
 285:C:\Micrium\Software\uC-LIB\lib_mem.c ****     if (pmem == (void *)0) {
 286:C:\Micrium\Software\uC-LIB\lib_mem.c ****         return;
 287:C:\Micrium\Software\uC-LIB\lib_mem.c ****     }
 288:C:\Micrium\Software\uC-LIB\lib_mem.c **** #endif
 289:C:\Micrium\Software\uC-LIB\lib_mem.c **** 
 290:C:\Micrium\Software\uC-LIB\lib_mem.c **** 
 291:C:\Micrium\Software\uC-LIB\lib_mem.c ****     data_align = 0u;
 115              		.loc 1 291 0
 116 000e 4FF00003 		mov	r3, #0
 117 0012 7B61     		str	r3, [r7, #20]
 292:C:\Micrium\Software\uC-LIB\lib_mem.c ****     for (i = 0u; i < sizeof(CPU_ALIGN); i++) {                  /* Fill each data_align octet with 
 118              		.loc 1 292 0
 119 0014 4FF00003 		mov	r3, #0
 120 0018 7B62     		str	r3, [r7, #36]
 121 001a 0CE0     		b	.L6
 122              	.L7:
 293:C:\Micrium\Software\uC-LIB\lib_mem.c ****         data_align <<=  DEF_OCTET_NBR_BITS;
 123              		.loc 1 293 0
 124 001c 7B69     		ldr	r3, [r7, #20]
 125 001e 4FEA0323 		lsl	r3, r3, #8
 126 0022 7B61     		str	r3, [r7, #20]
 294:C:\Micrium\Software\uC-LIB\lib_mem.c ****         data_align  |= (CPU_ALIGN)data_val;
 127              		.loc 1 294 0
 128 0024 FB7A     		ldrb	r3, [r7, #11]	@ zero_extendqisi2
 129 0026 7A69     		ldr	r2, [r7, #20]
 130 0028 42EA0303 		orr	r3, r2, r3
 131 002c 7B61     		str	r3, [r7, #20]
 132              		.loc 1 292 0
 133 002e 7B6A     		ldr	r3, [r7, #36]
 134 0030 03F10103 		add	r3, r3, #1
 135 0034 7B62     		str	r3, [r7, #36]
 136              	.L6:
 137 0036 7B6A     		ldr	r3, [r7, #36]
 138 0038 032B     		cmp	r3, #3
 139 003a EFD9     		bls	.L7
 295:C:\Micrium\Software\uC-LIB\lib_mem.c ****     }
 296:C:\Micrium\Software\uC-LIB\lib_mem.c **** 
 297:C:\Micrium\Software\uC-LIB\lib_mem.c ****     size_rem      =  size;
 140              		.loc 1 297 0
 141 003c 7B68     		ldr	r3, [r7, #4]
 142 003e 3B61     		str	r3, [r7, #16]
 298:C:\Micrium\Software\uC-LIB\lib_mem.c ****     mem_align_mod = (CPU_INT08U)((CPU_ADDR)pmem % sizeof(CPU_ALIGN));   /* See Note #3.            
 143              		.loc 1 298 0
 144 0040 FB68     		ldr	r3, [r7, #12]
 145 0042 DBB2     		uxtb	r3, r3
 146 0044 03F00303 		and	r3, r3, #3
 147 0048 3B62     		str	r3, [r7, #32]
 299:C:\Micrium\Software\uC-LIB\lib_mem.c **** 
 300:C:\Micrium\Software\uC-LIB\lib_mem.c ****     pmem_08 = (CPU_INT08U *)pmem;
 148              		.loc 1 300 0
 149 004a FB68     		ldr	r3, [r7, #12]
 150 004c FB61     		str	r3, [r7, #28]
 301:C:\Micrium\Software\uC-LIB\lib_mem.c ****     if (mem_align_mod != 0u) {                                  /* If leading octets avail,        
 151              		.loc 1 301 0
ARM GAS  C:\Users\daniel01\AppData\Local\Temp\ccJZvVod.s 			page 9


 152 004e 3B6A     		ldr	r3, [r7, #32]
 153 0050 002B     		cmp	r3, #0
 154 0052 17D0     		beq	.L8
 302:C:\Micrium\Software\uC-LIB\lib_mem.c ****         i = mem_align_mod;
 155              		.loc 1 302 0
 156 0054 3B6A     		ldr	r3, [r7, #32]
 157 0056 7B62     		str	r3, [r7, #36]
 303:C:\Micrium\Software\uC-LIB\lib_mem.c ****         while ((size_rem > 0) &&                                /* ... start mem buf fill with lead
 158              		.loc 1 303 0
 159 0058 0EE0     		b	.L9
 160              	.L10:
 304:C:\Micrium\Software\uC-LIB\lib_mem.c ****                (i        < sizeof(CPU_ALIGN ))) {               /* ... until next CPU_ALIGN word bo
 305:C:\Micrium\Software\uC-LIB\lib_mem.c ****            *pmem_08++ = data_val;
 161              		.loc 1 305 0
 162 005a FB69     		ldr	r3, [r7, #28]
 163 005c FA7A     		ldrb	r2, [r7, #11]
 164 005e 1A70     		strb	r2, [r3, #0]
 165 0060 FB69     		ldr	r3, [r7, #28]
 166 0062 03F10103 		add	r3, r3, #1
 167 0066 FB61     		str	r3, [r7, #28]
 306:C:\Micrium\Software\uC-LIB\lib_mem.c ****             size_rem -= sizeof(CPU_INT08U);
 168              		.loc 1 306 0
 169 0068 3B69     		ldr	r3, [r7, #16]
 170 006a 03F1FF33 		add	r3, r3, #-1
 171 006e 3B61     		str	r3, [r7, #16]
 307:C:\Micrium\Software\uC-LIB\lib_mem.c ****             i++;
 172              		.loc 1 307 0
 173 0070 7B6A     		ldr	r3, [r7, #36]
 174 0072 03F10103 		add	r3, r3, #1
 175 0076 7B62     		str	r3, [r7, #36]
 176              	.L9:
 177              		.loc 1 303 0
 178 0078 3B69     		ldr	r3, [r7, #16]
 179 007a 002B     		cmp	r3, #0
 180 007c 02D0     		beq	.L8
 181 007e 7B6A     		ldr	r3, [r7, #36]
 182 0080 032B     		cmp	r3, #3
 183 0082 EAD9     		bls	.L10
 184              	.L8:
 308:C:\Micrium\Software\uC-LIB\lib_mem.c ****         }
 309:C:\Micrium\Software\uC-LIB\lib_mem.c ****     }
 310:C:\Micrium\Software\uC-LIB\lib_mem.c **** 
 311:C:\Micrium\Software\uC-LIB\lib_mem.c ****     pmem_align = (CPU_ALIGN *)pmem_08;                          /* See Note #2a.                   
 185              		.loc 1 311 0
 186 0084 FB69     		ldr	r3, [r7, #28]
 187 0086 BB61     		str	r3, [r7, #24]
 312:C:\Micrium\Software\uC-LIB\lib_mem.c ****     while (size_rem >= sizeof(CPU_ALIGN)) {                     /* While mem buf aligned on CPU_ALI
 188              		.loc 1 312 0
 189 0088 0AE0     		b	.L11
 190              	.L12:
 313:C:\Micrium\Software\uC-LIB\lib_mem.c ****        *pmem_align++ = data_align;                              /* ... fill mem buf with    CPU_ALI
 191              		.loc 1 313 0
 192 008a BB69     		ldr	r3, [r7, #24]
 193 008c 7A69     		ldr	r2, [r7, #20]
 194 008e 1A60     		str	r2, [r3, #0]
 195 0090 BB69     		ldr	r3, [r7, #24]
 196 0092 03F10403 		add	r3, r3, #4
ARM GAS  C:\Users\daniel01\AppData\Local\Temp\ccJZvVod.s 			page 10


 197 0096 BB61     		str	r3, [r7, #24]
 314:C:\Micrium\Software\uC-LIB\lib_mem.c ****         size_rem    -= sizeof(CPU_ALIGN);
 198              		.loc 1 314 0
 199 0098 3B69     		ldr	r3, [r7, #16]
 200 009a A3F10403 		sub	r3, r3, #4
 201 009e 3B61     		str	r3, [r7, #16]
 202              	.L11:
 203              		.loc 1 312 0
 204 00a0 3B69     		ldr	r3, [r7, #16]
 205 00a2 032B     		cmp	r3, #3
 206 00a4 F1D8     		bhi	.L12
 315:C:\Micrium\Software\uC-LIB\lib_mem.c ****     }
 316:C:\Micrium\Software\uC-LIB\lib_mem.c **** 
 317:C:\Micrium\Software\uC-LIB\lib_mem.c ****     pmem_08 = (CPU_INT08U *)pmem_align;
 207              		.loc 1 317 0
 208 00a6 BB69     		ldr	r3, [r7, #24]
 209 00a8 FB61     		str	r3, [r7, #28]
 318:C:\Micrium\Software\uC-LIB\lib_mem.c ****     while (size_rem > 0) {                                      /* Finish mem buf fill with trailin
 210              		.loc 1 318 0
 211 00aa 0AE0     		b	.L13
 212              	.L14:
 319:C:\Micrium\Software\uC-LIB\lib_mem.c ****        *pmem_08++   = data_val;
 213              		.loc 1 319 0
 214 00ac FB69     		ldr	r3, [r7, #28]
 215 00ae FA7A     		ldrb	r2, [r7, #11]
 216 00b0 1A70     		strb	r2, [r3, #0]
 217 00b2 FB69     		ldr	r3, [r7, #28]
 218 00b4 03F10103 		add	r3, r3, #1
 219 00b8 FB61     		str	r3, [r7, #28]
 320:C:\Micrium\Software\uC-LIB\lib_mem.c ****         size_rem   -= sizeof(CPU_INT08U);
 220              		.loc 1 320 0
 221 00ba 3B69     		ldr	r3, [r7, #16]
 222 00bc 03F1FF33 		add	r3, r3, #-1
 223 00c0 3B61     		str	r3, [r7, #16]
 224              	.L13:
 225              		.loc 1 318 0
 226 00c2 3B69     		ldr	r3, [r7, #16]
 227 00c4 002B     		cmp	r3, #0
 228 00c6 F1D1     		bne	.L14
 321:C:\Micrium\Software\uC-LIB\lib_mem.c ****     }
 322:C:\Micrium\Software\uC-LIB\lib_mem.c **** }
 229              		.loc 1 322 0
 230 00c8 07F12C07 		add	r7, r7, #44
 231 00cc BD46     		mov	sp, r7
 232 00ce 80BC     		pop	{r7}
 233 00d0 7047     		bx	lr
 234              		.cfi_endproc
 235              	.LFE2:
 236              		.size	Mem_Set, .-Mem_Set
 237 00d2 00BF     		.section	.text.Mem_Copy,"ax",%progbits
 238              		.align	2
 239              		.global	Mem_Copy
 240              		.thumb
 241              		.thumb_func
 242              		.type	Mem_Copy, %function
 243              	Mem_Copy:
 244              	.LFB3:
ARM GAS  C:\Users\daniel01\AppData\Local\Temp\ccJZvVod.s 			page 11


 323:C:\Micrium\Software\uC-LIB\lib_mem.c **** 
 324:C:\Micrium\Software\uC-LIB\lib_mem.c **** 
 325:C:\Micrium\Software\uC-LIB\lib_mem.c **** /*$PAGE*/
 326:C:\Micrium\Software\uC-LIB\lib_mem.c **** /*
 327:C:\Micrium\Software\uC-LIB\lib_mem.c **** ***************************************************************************************************
 328:C:\Micrium\Software\uC-LIB\lib_mem.c **** *                                             Mem_Copy()
 329:C:\Micrium\Software\uC-LIB\lib_mem.c **** *
 330:C:\Micrium\Software\uC-LIB\lib_mem.c **** * Description : Copy data octets from one memory buffer to another memory buffer.
 331:C:\Micrium\Software\uC-LIB\lib_mem.c **** *
 332:C:\Micrium\Software\uC-LIB\lib_mem.c **** * Argument(s) : pdest       Pointer to destination memory buffer.
 333:C:\Micrium\Software\uC-LIB\lib_mem.c **** *
 334:C:\Micrium\Software\uC-LIB\lib_mem.c **** *               psrc        Pointer to source      memory buffer.
 335:C:\Micrium\Software\uC-LIB\lib_mem.c **** *
 336:C:\Micrium\Software\uC-LIB\lib_mem.c **** *               size        Number of octets to copy (see Note #1).
 337:C:\Micrium\Software\uC-LIB\lib_mem.c **** *
 338:C:\Micrium\Software\uC-LIB\lib_mem.c **** * Return(s)   : none.
 339:C:\Micrium\Software\uC-LIB\lib_mem.c **** *
 340:C:\Micrium\Software\uC-LIB\lib_mem.c **** * Caller(s)   : Application.
 341:C:\Micrium\Software\uC-LIB\lib_mem.c **** *
 342:C:\Micrium\Software\uC-LIB\lib_mem.c **** * Note(s)     : (1) Null copies allowed (i.e. zero-length copies).
 343:C:\Micrium\Software\uC-LIB\lib_mem.c **** *
 344:C:\Micrium\Software\uC-LIB\lib_mem.c **** *               (2) Memory buffers NOT checked for overlapping.
 345:C:\Micrium\Software\uC-LIB\lib_mem.c **** *
 346:C:\Micrium\Software\uC-LIB\lib_mem.c **** *                   (a) IEEE Std 1003.1, 2004 Edition, Section 'memcpy() : DESCRIPTION' states that
 347:C:\Micrium\Software\uC-LIB\lib_mem.c **** *                       copying takes place between objects that overlap, the behavior is undefined
 348:C:\Micrium\Software\uC-LIB\lib_mem.c **** *
 349:C:\Micrium\Software\uC-LIB\lib_mem.c **** *                   (b) However, data octets from a source memory buffer at a higher address value 
 350:C:\Micrium\Software\uC-LIB\lib_mem.c **** *                       successfully copy to a destination memory buffer at a lower  address value 
 351:C:\Micrium\Software\uC-LIB\lib_mem.c **** *                       if any octets of the memory buffers overlap as long as no individual, atomi
 352:C:\Micrium\Software\uC-LIB\lib_mem.c **** *                       word copy overlaps.
 353:C:\Micrium\Software\uC-LIB\lib_mem.c **** *
 354:C:\Micrium\Software\uC-LIB\lib_mem.c **** *                       Since Mem_Copy() performs the data octet copy via 'CPU_ALIGN'-sized words &
 355:C:\Micrium\Software\uC-LIB\lib_mem.c **** *                       octets; & since 'CPU_ALIGN'-sized words MUST be accessed on word-aligned ad
 356:C:\Micrium\Software\uC-LIB\lib_mem.c **** *                       (see Note #3b), neither 'CPU_ALIGN'-sized words nor octets at unique addres
 357:C:\Micrium\Software\uC-LIB\lib_mem.c **** *                       ever overlap.
 358:C:\Micrium\Software\uC-LIB\lib_mem.c **** *
 359:C:\Micrium\Software\uC-LIB\lib_mem.c **** *                       Therefore, Mem_Copy() SHOULD be able to successfully copy overlapping memor
 360:C:\Micrium\Software\uC-LIB\lib_mem.c **** *                       buffers as long as the source memory buffer is at a higher address value th
 361:C:\Micrium\Software\uC-LIB\lib_mem.c **** *                       destination memory buffer.
 362:C:\Micrium\Software\uC-LIB\lib_mem.c **** *
 363:C:\Micrium\Software\uC-LIB\lib_mem.c **** *               (3) For best CPU performance, optimized to copy data buffer using 'CPU_ALIGN'-sized
 364:C:\Micrium\Software\uC-LIB\lib_mem.c **** *                   words.
 365:C:\Micrium\Software\uC-LIB\lib_mem.c **** *
 366:C:\Micrium\Software\uC-LIB\lib_mem.c **** *                   (a) Since many word-aligned processors REQUIRE that multi-octet words be access
 367:C:\Micrium\Software\uC-LIB\lib_mem.c **** *                       word-aligned addresses, 'CPU_ALIGN'-sized words MUST be accessed on 'CPU_AL
 368:C:\Micrium\Software\uC-LIB\lib_mem.c **** *                       addresses.
 369:C:\Micrium\Software\uC-LIB\lib_mem.c **** *
 370:C:\Micrium\Software\uC-LIB\lib_mem.c **** *               (4) Modulo arithmetic is used to determine whether a memory buffer starts on a 'CPU
 371:C:\Micrium\Software\uC-LIB\lib_mem.c **** *                   address boundary.
 372:C:\Micrium\Software\uC-LIB\lib_mem.c **** *
 373:C:\Micrium\Software\uC-LIB\lib_mem.c **** *                   Modulo arithmetic in ANSI-C REQUIREs operations performed on integer values.  T
 374:C:\Micrium\Software\uC-LIB\lib_mem.c **** *                   address values MUST be cast to an appropriately-sized integer value PRIOR to an
 375:C:\Micrium\Software\uC-LIB\lib_mem.c **** *                  'mem_align_mod' arithmetic operation.
 376:C:\Micrium\Software\uC-LIB\lib_mem.c **** ***************************************************************************************************
 377:C:\Micrium\Software\uC-LIB\lib_mem.c **** */
 378:C:\Micrium\Software\uC-LIB\lib_mem.c **** /*$PAGE*/
 379:C:\Micrium\Software\uC-LIB\lib_mem.c **** #if (LIB_MEM_CFG_OPTIMIZE_ASM_EN != DEF_ENABLED)
ARM GAS  C:\Users\daniel01\AppData\Local\Temp\ccJZvVod.s 			page 12


 380:C:\Micrium\Software\uC-LIB\lib_mem.c **** void  Mem_Copy (       void        *pdest,
 381:C:\Micrium\Software\uC-LIB\lib_mem.c ****                 const  void        *psrc,
 382:C:\Micrium\Software\uC-LIB\lib_mem.c ****                        CPU_SIZE_T   size)
 383:C:\Micrium\Software\uC-LIB\lib_mem.c **** {
 245              		.loc 1 383 0
 246              		.cfi_startproc
 247              		@ args = 0, pretend = 0, frame = 56
 248              		@ frame_needed = 1, uses_anonymous_args = 0
 249              		@ link register save eliminated.
 250 0000 80B4     		push	{r7}
 251              	.LCFI8:
 252              		.cfi_def_cfa_offset 4
 253 0002 8FB0     		sub	sp, sp, #60
 254              	.LCFI9:
 255              		.cfi_def_cfa_offset 64
 256 0004 00AF     		add	r7, sp, #0
 257              		.cfi_offset 7, -4
 258              	.LCFI10:
 259              		.cfi_def_cfa_register 7
 260 0006 F860     		str	r0, [r7, #12]
 261 0008 B960     		str	r1, [r7, #8]
 262 000a 7A60     		str	r2, [r7, #4]
 384:C:\Micrium\Software\uC-LIB\lib_mem.c ****            CPU_SIZE_T    size_rem;
 385:C:\Micrium\Software\uC-LIB\lib_mem.c ****            CPU_SIZE_T    mem_gap_octets;
 386:C:\Micrium\Software\uC-LIB\lib_mem.c ****            CPU_ALIGN    *pmem_align_dest;
 387:C:\Micrium\Software\uC-LIB\lib_mem.c ****     const  CPU_ALIGN    *pmem_align_src;
 388:C:\Micrium\Software\uC-LIB\lib_mem.c ****            CPU_INT08U   *pmem_08_dest;
 389:C:\Micrium\Software\uC-LIB\lib_mem.c ****     const  CPU_INT08U   *pmem_08_src;
 390:C:\Micrium\Software\uC-LIB\lib_mem.c ****            CPU_DATA      i;
 391:C:\Micrium\Software\uC-LIB\lib_mem.c ****            CPU_DATA      mem_align_mod_dest;
 392:C:\Micrium\Software\uC-LIB\lib_mem.c ****            CPU_DATA      mem_align_mod_src;
 393:C:\Micrium\Software\uC-LIB\lib_mem.c ****            CPU_BOOLEAN   mem_aligned;
 394:C:\Micrium\Software\uC-LIB\lib_mem.c **** 
 395:C:\Micrium\Software\uC-LIB\lib_mem.c **** 
 396:C:\Micrium\Software\uC-LIB\lib_mem.c **** #if (LIB_MEM_CFG_ARG_CHK_EXT_EN == DEF_ENABLED)
 397:C:\Micrium\Software\uC-LIB\lib_mem.c ****     if (size < 1) {                                             /* See Note #1.                    
 398:C:\Micrium\Software\uC-LIB\lib_mem.c ****         return;
 399:C:\Micrium\Software\uC-LIB\lib_mem.c ****     }
 400:C:\Micrium\Software\uC-LIB\lib_mem.c ****     if (pdest == (void *)0) {
 401:C:\Micrium\Software\uC-LIB\lib_mem.c ****         return;
 402:C:\Micrium\Software\uC-LIB\lib_mem.c ****     }
 403:C:\Micrium\Software\uC-LIB\lib_mem.c ****     if (psrc  == (void *)0) {
 404:C:\Micrium\Software\uC-LIB\lib_mem.c ****         return;
 405:C:\Micrium\Software\uC-LIB\lib_mem.c ****     }
 406:C:\Micrium\Software\uC-LIB\lib_mem.c **** #endif
 407:C:\Micrium\Software\uC-LIB\lib_mem.c **** 
 408:C:\Micrium\Software\uC-LIB\lib_mem.c **** 
 409:C:\Micrium\Software\uC-LIB\lib_mem.c ****     size_rem           =  size;
 263              		.loc 1 409 0
 264 000c 7B68     		ldr	r3, [r7, #4]
 265 000e 3B61     		str	r3, [r7, #16]
 410:C:\Micrium\Software\uC-LIB\lib_mem.c **** 
 411:C:\Micrium\Software\uC-LIB\lib_mem.c ****     pmem_08_dest       = (      CPU_INT08U *)pdest;
 266              		.loc 1 411 0
 267 0010 FB68     		ldr	r3, [r7, #12]
 268 0012 3B62     		str	r3, [r7, #32]
 412:C:\Micrium\Software\uC-LIB\lib_mem.c ****     pmem_08_src        = (const CPU_INT08U *)psrc;
ARM GAS  C:\Users\daniel01\AppData\Local\Temp\ccJZvVod.s 			page 13


 269              		.loc 1 412 0
 270 0014 BB68     		ldr	r3, [r7, #8]
 271 0016 7B62     		str	r3, [r7, #36]
 413:C:\Micrium\Software\uC-LIB\lib_mem.c **** 
 414:C:\Micrium\Software\uC-LIB\lib_mem.c ****     mem_gap_octets     = pmem_08_src - pmem_08_dest;
 272              		.loc 1 414 0
 273 0018 7A6A     		ldr	r2, [r7, #36]
 274 001a 3B6A     		ldr	r3, [r7, #32]
 275 001c C3EB0203 		rsb	r3, r3, r2
 276 0020 7B61     		str	r3, [r7, #20]
 415:C:\Micrium\Software\uC-LIB\lib_mem.c **** 
 416:C:\Micrium\Software\uC-LIB\lib_mem.c **** 
 417:C:\Micrium\Software\uC-LIB\lib_mem.c ****     if (mem_gap_octets >= sizeof(CPU_ALIGN)) {                  /* Avoid bufs overlap.             
 277              		.loc 1 417 0
 278 0022 7B69     		ldr	r3, [r7, #20]
 279 0024 032B     		cmp	r3, #3
 280 0026 65D9     		bls	.L25
 418:C:\Micrium\Software\uC-LIB\lib_mem.c ****                                                                 /* See Note #4.                    
 419:C:\Micrium\Software\uC-LIB\lib_mem.c ****         mem_align_mod_dest = (CPU_INT08U)((CPU_ADDR)pmem_08_dest % sizeof(CPU_ALIGN));
 281              		.loc 1 419 0
 282 0028 3B6A     		ldr	r3, [r7, #32]
 283 002a DBB2     		uxtb	r3, r3
 284 002c 03F00303 		and	r3, r3, #3
 285 0030 FB62     		str	r3, [r7, #44]
 420:C:\Micrium\Software\uC-LIB\lib_mem.c ****         mem_align_mod_src  = (CPU_INT08U)((CPU_ADDR)pmem_08_src  % sizeof(CPU_ALIGN));
 286              		.loc 1 420 0
 287 0032 7B6A     		ldr	r3, [r7, #36]
 288 0034 DBB2     		uxtb	r3, r3
 289 0036 03F00303 		and	r3, r3, #3
 290 003a 3B63     		str	r3, [r7, #48]
 421:C:\Micrium\Software\uC-LIB\lib_mem.c **** 
 422:C:\Micrium\Software\uC-LIB\lib_mem.c ****         mem_aligned        = (mem_align_mod_dest == mem_align_mod_src) ? DEF_YES : DEF_NO;
 291              		.loc 1 422 0
 292 003c FA6A     		ldr	r2, [r7, #44]
 293 003e 3B6B     		ldr	r3, [r7, #48]
 294 0040 9A42     		cmp	r2, r3
 295 0042 02D1     		bne	.L18
 296 0044 4FF00103 		mov	r3, #1
 297 0048 01E0     		b	.L19
 298              	.L18:
 299 004a 4FF00003 		mov	r3, #0
 300              	.L19:
 301 004e 87F83730 		strb	r3, [r7, #55]
 423:C:\Micrium\Software\uC-LIB\lib_mem.c **** 
 424:C:\Micrium\Software\uC-LIB\lib_mem.c ****         if (mem_aligned == DEF_YES) {                           /* If mem bufs' alignment offset eq
 302              		.loc 1 424 0
 303 0052 97F83730 		ldrb	r3, [r7, #55]	@ zero_extendqisi2
 304 0056 012B     		cmp	r3, #1
 305 0058 4CD1     		bne	.L25
 425:C:\Micrium\Software\uC-LIB\lib_mem.c ****                                                                 /* ... optimize copy for mem buf al
 426:C:\Micrium\Software\uC-LIB\lib_mem.c ****             if (mem_align_mod_dest != 0u) {                     /* If leading octets avail,        
 306              		.loc 1 426 0
 307 005a FB6A     		ldr	r3, [r7, #44]
 308 005c 002B     		cmp	r3, #0
 309 005e 1CD0     		beq	.L20
 427:C:\Micrium\Software\uC-LIB\lib_mem.c ****                 i = mem_align_mod_dest;
 310              		.loc 1 427 0
ARM GAS  C:\Users\daniel01\AppData\Local\Temp\ccJZvVod.s 			page 14


 311 0060 FB6A     		ldr	r3, [r7, #44]
 312 0062 BB62     		str	r3, [r7, #40]
 428:C:\Micrium\Software\uC-LIB\lib_mem.c ****                 while ((size_rem   >  0) &&                     /* ... start mem buf copy with lead
 313              		.loc 1 428 0
 314 0064 13E0     		b	.L21
 315              	.L22:
 429:C:\Micrium\Software\uC-LIB\lib_mem.c ****                        (i          <  sizeof(CPU_ALIGN ))) {    /* ... until next CPU_ALIGN word bo
 430:C:\Micrium\Software\uC-LIB\lib_mem.c ****                    *pmem_08_dest++ = *pmem_08_src++;
 316              		.loc 1 430 0
 317 0066 7B6A     		ldr	r3, [r7, #36]
 318 0068 1A78     		ldrb	r2, [r3, #0]	@ zero_extendqisi2
 319 006a 3B6A     		ldr	r3, [r7, #32]
 320 006c 1A70     		strb	r2, [r3, #0]
 321 006e 3B6A     		ldr	r3, [r7, #32]
 322 0070 03F10103 		add	r3, r3, #1
 323 0074 3B62     		str	r3, [r7, #32]
 324 0076 7B6A     		ldr	r3, [r7, #36]
 325 0078 03F10103 		add	r3, r3, #1
 326 007c 7B62     		str	r3, [r7, #36]
 431:C:\Micrium\Software\uC-LIB\lib_mem.c ****                     size_rem      -=  sizeof(CPU_INT08U);
 327              		.loc 1 431 0
 328 007e 3B69     		ldr	r3, [r7, #16]
 329 0080 03F1FF33 		add	r3, r3, #-1
 330 0084 3B61     		str	r3, [r7, #16]
 432:C:\Micrium\Software\uC-LIB\lib_mem.c ****                     i++;
 331              		.loc 1 432 0
 332 0086 BB6A     		ldr	r3, [r7, #40]
 333 0088 03F10103 		add	r3, r3, #1
 334 008c BB62     		str	r3, [r7, #40]
 335              	.L21:
 336              		.loc 1 428 0
 337 008e 3B69     		ldr	r3, [r7, #16]
 338 0090 002B     		cmp	r3, #0
 339 0092 02D0     		beq	.L20
 340 0094 BB6A     		ldr	r3, [r7, #40]
 341 0096 032B     		cmp	r3, #3
 342 0098 E5D9     		bls	.L22
 343              	.L20:
 433:C:\Micrium\Software\uC-LIB\lib_mem.c ****                 }
 434:C:\Micrium\Software\uC-LIB\lib_mem.c ****             }
 435:C:\Micrium\Software\uC-LIB\lib_mem.c **** 
 436:C:\Micrium\Software\uC-LIB\lib_mem.c ****             pmem_align_dest = (      CPU_ALIGN *)pmem_08_dest;  /* See Note #3a.                   
 344              		.loc 1 436 0
 345 009a 3B6A     		ldr	r3, [r7, #32]
 346 009c BB61     		str	r3, [r7, #24]
 437:C:\Micrium\Software\uC-LIB\lib_mem.c ****             pmem_align_src  = (const CPU_ALIGN *)pmem_08_src;
 347              		.loc 1 437 0
 348 009e 7B6A     		ldr	r3, [r7, #36]
 349 00a0 FB61     		str	r3, [r7, #28]
 438:C:\Micrium\Software\uC-LIB\lib_mem.c ****             while (size_rem      >=  sizeof(CPU_ALIGN)) {       /* While mem bufs aligned on CPU_AL
 350              		.loc 1 438 0
 351 00a2 0FE0     		b	.L23
 352              	.L24:
 439:C:\Micrium\Software\uC-LIB\lib_mem.c ****                *pmem_align_dest++ = *pmem_align_src++;          /* ... copy psrc to pdest with CPU_
 353              		.loc 1 439 0
 354 00a4 FB69     		ldr	r3, [r7, #28]
 355 00a6 1A68     		ldr	r2, [r3, #0]
ARM GAS  C:\Users\daniel01\AppData\Local\Temp\ccJZvVod.s 			page 15


 356 00a8 BB69     		ldr	r3, [r7, #24]
 357 00aa 1A60     		str	r2, [r3, #0]
 358 00ac BB69     		ldr	r3, [r7, #24]
 359 00ae 03F10403 		add	r3, r3, #4
 360 00b2 BB61     		str	r3, [r7, #24]
 361 00b4 FB69     		ldr	r3, [r7, #28]
 362 00b6 03F10403 		add	r3, r3, #4
 363 00ba FB61     		str	r3, [r7, #28]
 440:C:\Micrium\Software\uC-LIB\lib_mem.c ****                 size_rem         -=  sizeof(CPU_ALIGN);
 364              		.loc 1 440 0
 365 00bc 3B69     		ldr	r3, [r7, #16]
 366 00be A3F10403 		sub	r3, r3, #4
 367 00c2 3B61     		str	r3, [r7, #16]
 368              	.L23:
 369              		.loc 1 438 0
 370 00c4 3B69     		ldr	r3, [r7, #16]
 371 00c6 032B     		cmp	r3, #3
 372 00c8 ECD8     		bhi	.L24
 441:C:\Micrium\Software\uC-LIB\lib_mem.c ****             }
 442:C:\Micrium\Software\uC-LIB\lib_mem.c **** 
 443:C:\Micrium\Software\uC-LIB\lib_mem.c ****             pmem_08_dest = (      CPU_INT08U *)pmem_align_dest;
 373              		.loc 1 443 0
 374 00ca BB69     		ldr	r3, [r7, #24]
 375 00cc 3B62     		str	r3, [r7, #32]
 444:C:\Micrium\Software\uC-LIB\lib_mem.c ****             pmem_08_src  = (const CPU_INT08U *)pmem_align_src;
 376              		.loc 1 444 0
 377 00ce FB69     		ldr	r3, [r7, #28]
 378 00d0 7B62     		str	r3, [r7, #36]
 445:C:\Micrium\Software\uC-LIB\lib_mem.c ****         }
 446:C:\Micrium\Software\uC-LIB\lib_mem.c ****     }
 447:C:\Micrium\Software\uC-LIB\lib_mem.c **** 
 448:C:\Micrium\Software\uC-LIB\lib_mem.c ****     while (size_rem > 0) {                                      /* For unaligned mem bufs or traili
 379              		.loc 1 448 0
 380 00d2 0FE0     		b	.L25
 381              	.L26:
 449:C:\Micrium\Software\uC-LIB\lib_mem.c ****        *pmem_08_dest++ = *pmem_08_src++;                        /* ... copy psrc to pdest by octets
 382              		.loc 1 449 0
 383 00d4 7B6A     		ldr	r3, [r7, #36]
 384 00d6 1A78     		ldrb	r2, [r3, #0]	@ zero_extendqisi2
 385 00d8 3B6A     		ldr	r3, [r7, #32]
 386 00da 1A70     		strb	r2, [r3, #0]
 387 00dc 3B6A     		ldr	r3, [r7, #32]
 388 00de 03F10103 		add	r3, r3, #1
 389 00e2 3B62     		str	r3, [r7, #32]
 390 00e4 7B6A     		ldr	r3, [r7, #36]
 391 00e6 03F10103 		add	r3, r3, #1
 392 00ea 7B62     		str	r3, [r7, #36]
 450:C:\Micrium\Software\uC-LIB\lib_mem.c ****         size_rem      -=  sizeof(CPU_INT08U);
 393              		.loc 1 450 0
 394 00ec 3B69     		ldr	r3, [r7, #16]
 395 00ee 03F1FF33 		add	r3, r3, #-1
 396 00f2 3B61     		str	r3, [r7, #16]
 397              	.L25:
 398              		.loc 1 448 0
 399 00f4 3B69     		ldr	r3, [r7, #16]
 400 00f6 002B     		cmp	r3, #0
 401 00f8 ECD1     		bne	.L26
ARM GAS  C:\Users\daniel01\AppData\Local\Temp\ccJZvVod.s 			page 16


 451:C:\Micrium\Software\uC-LIB\lib_mem.c ****     }
 452:C:\Micrium\Software\uC-LIB\lib_mem.c **** }
 402              		.loc 1 452 0
 403 00fa 07F13C07 		add	r7, r7, #60
 404 00fe BD46     		mov	sp, r7
 405 0100 80BC     		pop	{r7}
 406 0102 7047     		bx	lr
 407              		.cfi_endproc
 408              	.LFE3:
 409              		.size	Mem_Copy, .-Mem_Copy
 410              		.section	.text.Mem_Move,"ax",%progbits
 411              		.align	2
 412              		.global	Mem_Move
 413              		.thumb
 414              		.thumb_func
 415              		.type	Mem_Move, %function
 416              	Mem_Move:
 417              	.LFB4:
 453:C:\Micrium\Software\uC-LIB\lib_mem.c **** #endif
 454:C:\Micrium\Software\uC-LIB\lib_mem.c **** 
 455:C:\Micrium\Software\uC-LIB\lib_mem.c **** 
 456:C:\Micrium\Software\uC-LIB\lib_mem.c **** /*
 457:C:\Micrium\Software\uC-LIB\lib_mem.c **** ***************************************************************************************************
 458:C:\Micrium\Software\uC-LIB\lib_mem.c **** *                                             Mem_Move()
 459:C:\Micrium\Software\uC-LIB\lib_mem.c **** *
 460:C:\Micrium\Software\uC-LIB\lib_mem.c **** * Description : Move data octets from one memory buffer to another memory buffer, or within the sam
 461:C:\Micrium\Software\uC-LIB\lib_mem.c **** *               memory buffer. Overlapping is correctly handled for all move operations.
 462:C:\Micrium\Software\uC-LIB\lib_mem.c **** *
 463:C:\Micrium\Software\uC-LIB\lib_mem.c **** * Argument(s) : pdest       Pointer to destination memory buffer.
 464:C:\Micrium\Software\uC-LIB\lib_mem.c **** *
 465:C:\Micrium\Software\uC-LIB\lib_mem.c **** *               psrc        Pointer to source      memory buffer.
 466:C:\Micrium\Software\uC-LIB\lib_mem.c **** *
 467:C:\Micrium\Software\uC-LIB\lib_mem.c **** *               size        Number of octets to move (see Note #1).
 468:C:\Micrium\Software\uC-LIB\lib_mem.c **** *
 469:C:\Micrium\Software\uC-LIB\lib_mem.c **** * Return(s)   : none.
 470:C:\Micrium\Software\uC-LIB\lib_mem.c **** *
 471:C:\Micrium\Software\uC-LIB\lib_mem.c **** * Caller(s)   : Application.
 472:C:\Micrium\Software\uC-LIB\lib_mem.c **** *
 473:C:\Micrium\Software\uC-LIB\lib_mem.c **** * Note(s)     : (1) Null move operations allowed (i.e. zero-length).
 474:C:\Micrium\Software\uC-LIB\lib_mem.c **** *
 475:C:\Micrium\Software\uC-LIB\lib_mem.c **** *               (2) Memory buffers checked for overlapping.
 476:C:\Micrium\Software\uC-LIB\lib_mem.c **** *
 477:C:\Micrium\Software\uC-LIB\lib_mem.c **** *               (3) For best CPU performance, optimized to copy data buffer using 'CPU_ALIGN'-sized
 478:C:\Micrium\Software\uC-LIB\lib_mem.c **** *                   words.
 479:C:\Micrium\Software\uC-LIB\lib_mem.c **** *
 480:C:\Micrium\Software\uC-LIB\lib_mem.c **** *                   (a) Since many word-aligned processors REQUIRE that multi-octet words be access
 481:C:\Micrium\Software\uC-LIB\lib_mem.c **** *                       word-aligned addresses, 'CPU_ALIGN'-sized words MUST be accessed on 'CPU_AL
 482:C:\Micrium\Software\uC-LIB\lib_mem.c **** *                       addresses.
 483:C:\Micrium\Software\uC-LIB\lib_mem.c **** *
 484:C:\Micrium\Software\uC-LIB\lib_mem.c **** *               (4) Modulo arithmetic is used to determine whether a memory buffer starts on a 'CPU
 485:C:\Micrium\Software\uC-LIB\lib_mem.c **** *                   address boundary.
 486:C:\Micrium\Software\uC-LIB\lib_mem.c **** *
 487:C:\Micrium\Software\uC-LIB\lib_mem.c **** *                   Modulo arithmetic in ANSI-C REQUIREs operations performed on integer values.  T
 488:C:\Micrium\Software\uC-LIB\lib_mem.c **** *                   address values MUST be cast to an appropriately-sized integer value PRIOR to an
 489:C:\Micrium\Software\uC-LIB\lib_mem.c **** *                  'mem_align_mod' arithmetic operation.
 490:C:\Micrium\Software\uC-LIB\lib_mem.c **** ***************************************************************************************************
 491:C:\Micrium\Software\uC-LIB\lib_mem.c **** */
ARM GAS  C:\Users\daniel01\AppData\Local\Temp\ccJZvVod.s 			page 17


 492:C:\Micrium\Software\uC-LIB\lib_mem.c **** /*$PAGE*/
 493:C:\Micrium\Software\uC-LIB\lib_mem.c **** 
 494:C:\Micrium\Software\uC-LIB\lib_mem.c **** void  Mem_Move (       void        *pdest,
 495:C:\Micrium\Software\uC-LIB\lib_mem.c ****                 const  void        *psrc,
 496:C:\Micrium\Software\uC-LIB\lib_mem.c ****                        CPU_SIZE_T   size)
 497:C:\Micrium\Software\uC-LIB\lib_mem.c **** {
 418              		.loc 1 497 0
 419              		.cfi_startproc
 420              		@ args = 0, pretend = 0, frame = 56
 421              		@ frame_needed = 1, uses_anonymous_args = 0
 422 0000 80B5     		push	{r7, lr}
 423              	.LCFI11:
 424              		.cfi_def_cfa_offset 8
 425 0002 8EB0     		sub	sp, sp, #56
 426              	.LCFI12:
 427              		.cfi_def_cfa_offset 64
 428 0004 00AF     		add	r7, sp, #0
 429              		.cfi_offset 14, -4
 430              		.cfi_offset 7, -8
 431              	.LCFI13:
 432              		.cfi_def_cfa_register 7
 433 0006 F860     		str	r0, [r7, #12]
 434 0008 B960     		str	r1, [r7, #8]
 435 000a 7A60     		str	r2, [r7, #4]
 498:C:\Micrium\Software\uC-LIB\lib_mem.c ****            CPU_SIZE_T    size_rem;
 499:C:\Micrium\Software\uC-LIB\lib_mem.c ****            CPU_SIZE_T    mem_gap_octets;
 500:C:\Micrium\Software\uC-LIB\lib_mem.c ****            CPU_ALIGN    *pmem_align_dest;
 501:C:\Micrium\Software\uC-LIB\lib_mem.c ****     const  CPU_ALIGN    *pmem_align_src;
 502:C:\Micrium\Software\uC-LIB\lib_mem.c ****            CPU_INT08U   *pmem_08_dest;
 503:C:\Micrium\Software\uC-LIB\lib_mem.c ****     const  CPU_INT08U   *pmem_08_src;
 504:C:\Micrium\Software\uC-LIB\lib_mem.c ****            CPU_INT08S    i;
 505:C:\Micrium\Software\uC-LIB\lib_mem.c ****            CPU_DATA      mem_align_mod_dest;
 506:C:\Micrium\Software\uC-LIB\lib_mem.c ****            CPU_DATA      mem_align_mod_src;
 507:C:\Micrium\Software\uC-LIB\lib_mem.c ****            CPU_BOOLEAN   mem_aligned;
 508:C:\Micrium\Software\uC-LIB\lib_mem.c **** 
 509:C:\Micrium\Software\uC-LIB\lib_mem.c **** 
 510:C:\Micrium\Software\uC-LIB\lib_mem.c **** #if (LIB_MEM_CFG_ARG_CHK_EXT_EN == DEF_ENABLED)
 511:C:\Micrium\Software\uC-LIB\lib_mem.c ****     if (size < 1) {
 512:C:\Micrium\Software\uC-LIB\lib_mem.c ****         return;
 513:C:\Micrium\Software\uC-LIB\lib_mem.c ****     }
 514:C:\Micrium\Software\uC-LIB\lib_mem.c ****     if (pdest == (void *)0) {
 515:C:\Micrium\Software\uC-LIB\lib_mem.c ****         return;
 516:C:\Micrium\Software\uC-LIB\lib_mem.c ****     }
 517:C:\Micrium\Software\uC-LIB\lib_mem.c ****     if (psrc  == (void *)0) {
 518:C:\Micrium\Software\uC-LIB\lib_mem.c ****         return;
 519:C:\Micrium\Software\uC-LIB\lib_mem.c ****     }
 520:C:\Micrium\Software\uC-LIB\lib_mem.c **** #endif
 521:C:\Micrium\Software\uC-LIB\lib_mem.c **** 
 522:C:\Micrium\Software\uC-LIB\lib_mem.c ****     pmem_08_src  = (const CPU_INT08U *)psrc;
 436              		.loc 1 522 0
 437 000c BB68     		ldr	r3, [r7, #8]
 438 000e 7B62     		str	r3, [r7, #36]
 523:C:\Micrium\Software\uC-LIB\lib_mem.c ****     pmem_08_dest = (      CPU_INT08U *)pdest;
 439              		.loc 1 523 0
 440 0010 FB68     		ldr	r3, [r7, #12]
 441 0012 3B62     		str	r3, [r7, #32]
 524:C:\Micrium\Software\uC-LIB\lib_mem.c ****     if (pmem_08_src > pmem_08_dest) {
ARM GAS  C:\Users\daniel01\AppData\Local\Temp\ccJZvVod.s 			page 18


 442              		.loc 1 524 0
 443 0014 7A6A     		ldr	r2, [r7, #36]
 444 0016 3B6A     		ldr	r3, [r7, #32]
 445 0018 9A42     		cmp	r2, r3
 446 001a 05D9     		bls	.L29
 525:C:\Micrium\Software\uC-LIB\lib_mem.c ****         Mem_Copy(pdest, psrc, size);
 447              		.loc 1 525 0
 448 001c F868     		ldr	r0, [r7, #12]
 449 001e B968     		ldr	r1, [r7, #8]
 450 0020 7A68     		ldr	r2, [r7, #4]
 451 0022 FFF7FEFF 		bl	Mem_Copy
 526:C:\Micrium\Software\uC-LIB\lib_mem.c ****         return;
 452              		.loc 1 526 0
 453 0026 8AE0     		b	.L41
 454              	.L29:
 527:C:\Micrium\Software\uC-LIB\lib_mem.c ****     }
 528:C:\Micrium\Software\uC-LIB\lib_mem.c **** 
 529:C:\Micrium\Software\uC-LIB\lib_mem.c ****     size_rem           =  size;
 455              		.loc 1 529 0
 456 0028 7B68     		ldr	r3, [r7, #4]
 457 002a 3B61     		str	r3, [r7, #16]
 530:C:\Micrium\Software\uC-LIB\lib_mem.c **** 
 531:C:\Micrium\Software\uC-LIB\lib_mem.c ****     pmem_08_dest       = (      CPU_INT08U *)pdest + size - 1;
 458              		.loc 1 531 0
 459 002c FA68     		ldr	r2, [r7, #12]
 460 002e 7B68     		ldr	r3, [r7, #4]
 461 0030 03F1FF33 		add	r3, r3, #-1
 462 0034 1344     		add	r3, r2, r3
 463 0036 3B62     		str	r3, [r7, #32]
 532:C:\Micrium\Software\uC-LIB\lib_mem.c ****     pmem_08_src        = (const CPU_INT08U *)psrc  + size - 1;
 464              		.loc 1 532 0
 465 0038 BA68     		ldr	r2, [r7, #8]
 466 003a 7B68     		ldr	r3, [r7, #4]
 467 003c 03F1FF33 		add	r3, r3, #-1
 468 0040 1344     		add	r3, r2, r3
 469 0042 7B62     		str	r3, [r7, #36]
 533:C:\Micrium\Software\uC-LIB\lib_mem.c ****     
 534:C:\Micrium\Software\uC-LIB\lib_mem.c ****     mem_gap_octets     = pmem_08_dest - pmem_08_src;
 470              		.loc 1 534 0
 471 0044 3A6A     		ldr	r2, [r7, #32]
 472 0046 7B6A     		ldr	r3, [r7, #36]
 473 0048 C3EB0203 		rsb	r3, r3, r2
 474 004c 7B61     		str	r3, [r7, #20]
 535:C:\Micrium\Software\uC-LIB\lib_mem.c ****     
 536:C:\Micrium\Software\uC-LIB\lib_mem.c **** 
 537:C:\Micrium\Software\uC-LIB\lib_mem.c ****     if (mem_gap_octets >= sizeof(CPU_ALIGN)) {                  /* Avoid bufs overlap.             
 475              		.loc 1 537 0
 476 004e 7B69     		ldr	r3, [r7, #20]
 477 0050 032B     		cmp	r3, #3
 478 0052 71D9     		bls	.L39
 538:C:\Micrium\Software\uC-LIB\lib_mem.c ****     
 539:C:\Micrium\Software\uC-LIB\lib_mem.c ****                                                                 /* See Note #4.                    
 540:C:\Micrium\Software\uC-LIB\lib_mem.c ****         mem_align_mod_dest = (CPU_INT08U)((CPU_ADDR)pmem_08_dest % sizeof(CPU_ALIGN));
 479              		.loc 1 540 0
 480 0054 3B6A     		ldr	r3, [r7, #32]
 481 0056 DBB2     		uxtb	r3, r3
 482 0058 03F00303 		and	r3, r3, #3
ARM GAS  C:\Users\daniel01\AppData\Local\Temp\ccJZvVod.s 			page 19


 483 005c FB62     		str	r3, [r7, #44]
 541:C:\Micrium\Software\uC-LIB\lib_mem.c ****         mem_align_mod_src  = (CPU_INT08U)((CPU_ADDR)pmem_08_src  % sizeof(CPU_ALIGN));
 484              		.loc 1 541 0
 485 005e 7B6A     		ldr	r3, [r7, #36]
 486 0060 DBB2     		uxtb	r3, r3
 487 0062 03F00303 		and	r3, r3, #3
 488 0066 3B63     		str	r3, [r7, #48]
 542:C:\Micrium\Software\uC-LIB\lib_mem.c **** 
 543:C:\Micrium\Software\uC-LIB\lib_mem.c ****         mem_aligned        = (mem_align_mod_dest == mem_align_mod_src) ? DEF_YES : DEF_NO;
 489              		.loc 1 543 0
 490 0068 FA6A     		ldr	r2, [r7, #44]
 491 006a 3B6B     		ldr	r3, [r7, #48]
 492 006c 9A42     		cmp	r2, r3
 493 006e 02D1     		bne	.L32
 494 0070 4FF00103 		mov	r3, #1
 495 0074 01E0     		b	.L33
 496              	.L32:
 497 0076 4FF00003 		mov	r3, #0
 498              	.L33:
 499 007a 87F83730 		strb	r3, [r7, #55]
 544:C:\Micrium\Software\uC-LIB\lib_mem.c **** 
 545:C:\Micrium\Software\uC-LIB\lib_mem.c ****         if (mem_aligned == DEF_YES) {                           /* If mem bufs' alignment offset eq
 500              		.loc 1 545 0
 501 007e 97F83730 		ldrb	r3, [r7, #55]	@ zero_extendqisi2
 502 0082 012B     		cmp	r3, #1
 503 0084 58D1     		bne	.L39
 546:C:\Micrium\Software\uC-LIB\lib_mem.c ****                                                                 /* ... optimize copy for mem buf al
 547:C:\Micrium\Software\uC-LIB\lib_mem.c ****             if (mem_align_mod_dest != (sizeof(CPU_ALIGN) - 1)) {/* If leading octets avail,        
 504              		.loc 1 547 0
 505 0086 FB6A     		ldr	r3, [r7, #44]
 506 0088 032B     		cmp	r3, #3
 507 008a 20D0     		beq	.L34
 548:C:\Micrium\Software\uC-LIB\lib_mem.c ****                 i = mem_align_mod_dest;
 508              		.loc 1 548 0
 509 008c FB6A     		ldr	r3, [r7, #44]
 510 008e 87F82B30 		strb	r3, [r7, #43]
 549:C:\Micrium\Software\uC-LIB\lib_mem.c ****                 while ((size_rem   >  0) &&                     /* ... start mem buf copy with lead
 511              		.loc 1 549 0
 512 0092 15E0     		b	.L35
 513              	.L36:
 550:C:\Micrium\Software\uC-LIB\lib_mem.c ****                        (i          >= 0)) {                     /* ... until next CPU_ALIGN word bo
 551:C:\Micrium\Software\uC-LIB\lib_mem.c ****                    *pmem_08_dest-- = *pmem_08_src--;
 514              		.loc 1 551 0
 515 0094 7B6A     		ldr	r3, [r7, #36]
 516 0096 1A78     		ldrb	r2, [r3, #0]	@ zero_extendqisi2
 517 0098 3B6A     		ldr	r3, [r7, #32]
 518 009a 1A70     		strb	r2, [r3, #0]
 519 009c 3B6A     		ldr	r3, [r7, #32]
 520 009e 03F1FF33 		add	r3, r3, #-1
 521 00a2 3B62     		str	r3, [r7, #32]
 522 00a4 7B6A     		ldr	r3, [r7, #36]
 523 00a6 03F1FF33 		add	r3, r3, #-1
 524 00aa 7B62     		str	r3, [r7, #36]
 552:C:\Micrium\Software\uC-LIB\lib_mem.c ****                     size_rem      -=  sizeof(CPU_INT08U);
 525              		.loc 1 552 0
 526 00ac 3B69     		ldr	r3, [r7, #16]
 527 00ae 03F1FF33 		add	r3, r3, #-1
ARM GAS  C:\Users\daniel01\AppData\Local\Temp\ccJZvVod.s 			page 20


 528 00b2 3B61     		str	r3, [r7, #16]
 553:C:\Micrium\Software\uC-LIB\lib_mem.c ****                     i--;
 529              		.loc 1 553 0
 530 00b4 97F82B30 		ldrb	r3, [r7, #43]
 531 00b8 03F1FF33 		add	r3, r3, #-1
 532 00bc 87F82B30 		strb	r3, [r7, #43]
 533              	.L35:
 534              		.loc 1 549 0
 535 00c0 3B69     		ldr	r3, [r7, #16]
 536 00c2 002B     		cmp	r3, #0
 537 00c4 03D0     		beq	.L34
 538 00c6 97F92B30 		ldrsb	r3, [r7, #43]
 539 00ca 002B     		cmp	r3, #0
 540 00cc E2DA     		bge	.L36
 541              	.L34:
 554:C:\Micrium\Software\uC-LIB\lib_mem.c ****                 }
 555:C:\Micrium\Software\uC-LIB\lib_mem.c ****             }
 556:C:\Micrium\Software\uC-LIB\lib_mem.c **** 
 557:C:\Micrium\Software\uC-LIB\lib_mem.c ****                                                                 /* See Note #3a.                   
 558:C:\Micrium\Software\uC-LIB\lib_mem.c ****             pmem_align_dest = (      CPU_ALIGN *)pmem_08_dest - sizeof(CPU_ALIGN) + 1;
 542              		.loc 1 558 0
 543 00ce 3B6A     		ldr	r3, [r7, #32]
 544 00d0 A3F10C03 		sub	r3, r3, #12
 545 00d4 BB61     		str	r3, [r7, #24]
 559:C:\Micrium\Software\uC-LIB\lib_mem.c ****             pmem_align_src  = (const CPU_ALIGN *)pmem_08_src  - sizeof(CPU_ALIGN) + 1;
 546              		.loc 1 559 0
 547 00d6 7B6A     		ldr	r3, [r7, #36]
 548 00d8 A3F10C03 		sub	r3, r3, #12
 549 00dc FB61     		str	r3, [r7, #28]
 560:C:\Micrium\Software\uC-LIB\lib_mem.c ****             while (size_rem      >=  sizeof(CPU_ALIGN)) {       /* While mem bufs aligned on CPU_AL
 550              		.loc 1 560 0
 551 00de 0FE0     		b	.L37
 552              	.L38:
 561:C:\Micrium\Software\uC-LIB\lib_mem.c ****                *pmem_align_dest-- = *pmem_align_src--;          /* ... copy psrc to pdest with CPU_
 553              		.loc 1 561 0
 554 00e0 FB69     		ldr	r3, [r7, #28]
 555 00e2 1A68     		ldr	r2, [r3, #0]
 556 00e4 BB69     		ldr	r3, [r7, #24]
 557 00e6 1A60     		str	r2, [r3, #0]
 558 00e8 BB69     		ldr	r3, [r7, #24]
 559 00ea A3F10403 		sub	r3, r3, #4
 560 00ee BB61     		str	r3, [r7, #24]
 561 00f0 FB69     		ldr	r3, [r7, #28]
 562 00f2 A3F10403 		sub	r3, r3, #4
 563 00f6 FB61     		str	r3, [r7, #28]
 562:C:\Micrium\Software\uC-LIB\lib_mem.c ****                 size_rem         -=  sizeof(CPU_ALIGN);
 564              		.loc 1 562 0
 565 00f8 3B69     		ldr	r3, [r7, #16]
 566 00fa A3F10403 		sub	r3, r3, #4
 567 00fe 3B61     		str	r3, [r7, #16]
 568              	.L37:
 569              		.loc 1 560 0
 570 0100 3B69     		ldr	r3, [r7, #16]
 571 0102 032B     		cmp	r3, #3
 572 0104 ECD8     		bhi	.L38
 563:C:\Micrium\Software\uC-LIB\lib_mem.c ****             }
 564:C:\Micrium\Software\uC-LIB\lib_mem.c **** 
ARM GAS  C:\Users\daniel01\AppData\Local\Temp\ccJZvVod.s 			page 21


 565:C:\Micrium\Software\uC-LIB\lib_mem.c ****             pmem_08_dest = (      CPU_INT08U *)pmem_align_dest + sizeof(CPU_ALIGN) - 1;
 573              		.loc 1 565 0
 574 0106 BB69     		ldr	r3, [r7, #24]
 575 0108 03F10303 		add	r3, r3, #3
 576 010c 3B62     		str	r3, [r7, #32]
 566:C:\Micrium\Software\uC-LIB\lib_mem.c ****             pmem_08_src  = (const CPU_INT08U *)pmem_align_src  + sizeof(CPU_ALIGN) - 1;
 577              		.loc 1 566 0
 578 010e FB69     		ldr	r3, [r7, #28]
 579 0110 03F10303 		add	r3, r3, #3
 580 0114 7B62     		str	r3, [r7, #36]
 567:C:\Micrium\Software\uC-LIB\lib_mem.c **** 
 568:C:\Micrium\Software\uC-LIB\lib_mem.c ****         }
 569:C:\Micrium\Software\uC-LIB\lib_mem.c ****     }
 570:C:\Micrium\Software\uC-LIB\lib_mem.c **** 
 571:C:\Micrium\Software\uC-LIB\lib_mem.c ****     while (size_rem > 0) {                                      /* For unaligned mem bufs or traili
 581              		.loc 1 571 0
 582 0116 0FE0     		b	.L39
 583              	.L40:
 572:C:\Micrium\Software\uC-LIB\lib_mem.c ****        *pmem_08_dest-- = *pmem_08_src--;                        /* ... copy psrc to pdest by octets
 584              		.loc 1 572 0
 585 0118 7B6A     		ldr	r3, [r7, #36]
 586 011a 1A78     		ldrb	r2, [r3, #0]	@ zero_extendqisi2
 587 011c 3B6A     		ldr	r3, [r7, #32]
 588 011e 1A70     		strb	r2, [r3, #0]
 589 0120 3B6A     		ldr	r3, [r7, #32]
 590 0122 03F1FF33 		add	r3, r3, #-1
 591 0126 3B62     		str	r3, [r7, #32]
 592 0128 7B6A     		ldr	r3, [r7, #36]
 593 012a 03F1FF33 		add	r3, r3, #-1
 594 012e 7B62     		str	r3, [r7, #36]
 573:C:\Micrium\Software\uC-LIB\lib_mem.c ****         size_rem      -=  sizeof(CPU_INT08U);
 595              		.loc 1 573 0
 596 0130 3B69     		ldr	r3, [r7, #16]
 597 0132 03F1FF33 		add	r3, r3, #-1
 598 0136 3B61     		str	r3, [r7, #16]
 599              	.L39:
 600              		.loc 1 571 0
 601 0138 3B69     		ldr	r3, [r7, #16]
 602 013a 002B     		cmp	r3, #0
 603 013c ECD1     		bne	.L40
 604              	.L41:
 574:C:\Micrium\Software\uC-LIB\lib_mem.c ****     }
 575:C:\Micrium\Software\uC-LIB\lib_mem.c **** }
 605              		.loc 1 575 0
 606 013e 07F13807 		add	r7, r7, #56
 607 0142 BD46     		mov	sp, r7
 608 0144 80BD     		pop	{r7, pc}
 609              		.cfi_endproc
 610              	.LFE4:
 611              		.size	Mem_Move, .-Mem_Move
 612 0146 00BF     		.section	.text.Mem_Cmp,"ax",%progbits
 613              		.align	2
 614              		.global	Mem_Cmp
 615              		.thumb
 616              		.thumb_func
 617              		.type	Mem_Cmp, %function
 618              	Mem_Cmp:
ARM GAS  C:\Users\daniel01\AppData\Local\Temp\ccJZvVod.s 			page 22


 619              	.LFB5:
 576:C:\Micrium\Software\uC-LIB\lib_mem.c **** 
 577:C:\Micrium\Software\uC-LIB\lib_mem.c **** 
 578:C:\Micrium\Software\uC-LIB\lib_mem.c **** /*$PAGE*/
 579:C:\Micrium\Software\uC-LIB\lib_mem.c **** /*
 580:C:\Micrium\Software\uC-LIB\lib_mem.c **** ***************************************************************************************************
 581:C:\Micrium\Software\uC-LIB\lib_mem.c **** *                                              Mem_Cmp()
 582:C:\Micrium\Software\uC-LIB\lib_mem.c **** *
 583:C:\Micrium\Software\uC-LIB\lib_mem.c **** * Description : Verify that ALL data octets in two memory buffers are identical in sequence.
 584:C:\Micrium\Software\uC-LIB\lib_mem.c **** *
 585:C:\Micrium\Software\uC-LIB\lib_mem.c **** * Argument(s) : p1_mem      Pointer to first  memory buffer.
 586:C:\Micrium\Software\uC-LIB\lib_mem.c **** *
 587:C:\Micrium\Software\uC-LIB\lib_mem.c **** *               p2_mem      Pointer to second memory buffer.
 588:C:\Micrium\Software\uC-LIB\lib_mem.c **** *
 589:C:\Micrium\Software\uC-LIB\lib_mem.c **** *               size        Number of data buffer octets to compare (see Note #1).
 590:C:\Micrium\Software\uC-LIB\lib_mem.c **** *
 591:C:\Micrium\Software\uC-LIB\lib_mem.c **** * Return(s)   : DEF_YES, if 'size' number of data octets are identical in both memory buffers.
 592:C:\Micrium\Software\uC-LIB\lib_mem.c **** *
 593:C:\Micrium\Software\uC-LIB\lib_mem.c **** *               DEF_NO,  otherwise.
 594:C:\Micrium\Software\uC-LIB\lib_mem.c **** *
 595:C:\Micrium\Software\uC-LIB\lib_mem.c **** * Caller(s)   : Application.
 596:C:\Micrium\Software\uC-LIB\lib_mem.c **** *
 597:C:\Micrium\Software\uC-LIB\lib_mem.c **** * Note(s)     : (1) Null compares allowed (i.e. zero-length compares); 'DEF_YES' returned to indica
 598:C:\Micrium\Software\uC-LIB\lib_mem.c **** *                   identical null compare.
 599:C:\Micrium\Software\uC-LIB\lib_mem.c **** *
 600:C:\Micrium\Software\uC-LIB\lib_mem.c **** *               (2) Many memory buffer comparisons vary ONLY in the least significant octets -- e.g
 601:C:\Micrium\Software\uC-LIB\lib_mem.c **** *                   network address buffers.  Consequently, memory buffer comparison is more effici
 602:C:\Micrium\Software\uC-LIB\lib_mem.c **** *                   if the comparison starts from the end of the memory buffers which will abort so
 603:C:\Micrium\Software\uC-LIB\lib_mem.c **** *                   on dissimilar memory buffers that vary only in the least significant octets.
 604:C:\Micrium\Software\uC-LIB\lib_mem.c **** *
 605:C:\Micrium\Software\uC-LIB\lib_mem.c **** *               (3) For best CPU performance, optimized to compare data buffers using 'CPU_ALIGN'-s
 606:C:\Micrium\Software\uC-LIB\lib_mem.c **** *                   data words.
 607:C:\Micrium\Software\uC-LIB\lib_mem.c **** *
 608:C:\Micrium\Software\uC-LIB\lib_mem.c **** *                   (a) Since many word-aligned processors REQUIRE that multi-octet words be access
 609:C:\Micrium\Software\uC-LIB\lib_mem.c **** *                       word-aligned addresses, 'CPU_ALIGN'-sized words MUST be accessed on 'CPU_AL
 610:C:\Micrium\Software\uC-LIB\lib_mem.c **** *                       addresses.
 611:C:\Micrium\Software\uC-LIB\lib_mem.c **** *
 612:C:\Micrium\Software\uC-LIB\lib_mem.c **** *               (4) Modulo arithmetic is used to determine whether a memory buffer starts on a 'CPU
 613:C:\Micrium\Software\uC-LIB\lib_mem.c **** *                   address boundary.
 614:C:\Micrium\Software\uC-LIB\lib_mem.c **** *
 615:C:\Micrium\Software\uC-LIB\lib_mem.c **** *                   Modulo arithmetic in ANSI-C REQUIREs operations performed on integer values.  T
 616:C:\Micrium\Software\uC-LIB\lib_mem.c **** *                   address values MUST be cast to an appropriately-sized integer value PRIOR to an
 617:C:\Micrium\Software\uC-LIB\lib_mem.c **** *                  'mem_align_mod' arithmetic operation.
 618:C:\Micrium\Software\uC-LIB\lib_mem.c **** ***************************************************************************************************
 619:C:\Micrium\Software\uC-LIB\lib_mem.c **** */
 620:C:\Micrium\Software\uC-LIB\lib_mem.c **** /*$PAGE*/
 621:C:\Micrium\Software\uC-LIB\lib_mem.c **** CPU_BOOLEAN  Mem_Cmp (const  void        *p1_mem,
 622:C:\Micrium\Software\uC-LIB\lib_mem.c ****                       const  void        *p2_mem,
 623:C:\Micrium\Software\uC-LIB\lib_mem.c ****                              CPU_SIZE_T   size)
 624:C:\Micrium\Software\uC-LIB\lib_mem.c **** {
 620              		.loc 1 624 0
 621              		.cfi_startproc
 622              		@ args = 0, pretend = 0, frame = 56
 623              		@ frame_needed = 1, uses_anonymous_args = 0
 624              		@ link register save eliminated.
 625 0000 80B4     		push	{r7}
 626              	.LCFI14:
ARM GAS  C:\Users\daniel01\AppData\Local\Temp\ccJZvVod.s 			page 23


 627              		.cfi_def_cfa_offset 4
 628 0002 8FB0     		sub	sp, sp, #60
 629              	.LCFI15:
 630              		.cfi_def_cfa_offset 64
 631 0004 00AF     		add	r7, sp, #0
 632              		.cfi_offset 7, -4
 633              	.LCFI16:
 634              		.cfi_def_cfa_register 7
 635 0006 F860     		str	r0, [r7, #12]
 636 0008 B960     		str	r1, [r7, #8]
 637 000a 7A60     		str	r2, [r7, #4]
 625:C:\Micrium\Software\uC-LIB\lib_mem.c ****            CPU_SIZE_T    size_rem;
 626:C:\Micrium\Software\uC-LIB\lib_mem.c ****            CPU_ALIGN    *p1_mem_align;
 627:C:\Micrium\Software\uC-LIB\lib_mem.c ****            CPU_ALIGN    *p2_mem_align;
 628:C:\Micrium\Software\uC-LIB\lib_mem.c ****     const  CPU_INT08U   *p1_mem_08;
 629:C:\Micrium\Software\uC-LIB\lib_mem.c ****     const  CPU_INT08U   *p2_mem_08;
 630:C:\Micrium\Software\uC-LIB\lib_mem.c ****            CPU_DATA      i;
 631:C:\Micrium\Software\uC-LIB\lib_mem.c ****            CPU_DATA      mem_align_mod_1;
 632:C:\Micrium\Software\uC-LIB\lib_mem.c ****            CPU_DATA      mem_align_mod_2;
 633:C:\Micrium\Software\uC-LIB\lib_mem.c ****            CPU_BOOLEAN   mem_aligned;
 634:C:\Micrium\Software\uC-LIB\lib_mem.c ****            CPU_BOOLEAN   mem_cmp;
 635:C:\Micrium\Software\uC-LIB\lib_mem.c **** 
 636:C:\Micrium\Software\uC-LIB\lib_mem.c **** 
 637:C:\Micrium\Software\uC-LIB\lib_mem.c ****     if (size < 1) {                                             /* See Note #1.                    
 638              		.loc 1 637 0
 639 000c 7B68     		ldr	r3, [r7, #4]
 640 000e 002B     		cmp	r3, #0
 641 0010 02D1     		bne	.L43
 638:C:\Micrium\Software\uC-LIB\lib_mem.c ****         return (DEF_YES);
 642              		.loc 1 638 0
 643 0012 4FF00103 		mov	r3, #1
 644 0016 A6E0     		b	.L44
 645              	.L43:
 639:C:\Micrium\Software\uC-LIB\lib_mem.c ****     }
 640:C:\Micrium\Software\uC-LIB\lib_mem.c ****     if (p1_mem == (void *)0) {
 646              		.loc 1 640 0
 647 0018 FB68     		ldr	r3, [r7, #12]
 648 001a 002B     		cmp	r3, #0
 649 001c 02D1     		bne	.L45
 641:C:\Micrium\Software\uC-LIB\lib_mem.c ****         return (DEF_NO);
 650              		.loc 1 641 0
 651 001e 4FF00003 		mov	r3, #0
 652 0022 A0E0     		b	.L44
 653              	.L45:
 642:C:\Micrium\Software\uC-LIB\lib_mem.c ****     }
 643:C:\Micrium\Software\uC-LIB\lib_mem.c ****     if (p2_mem == (void *)0) {
 654              		.loc 1 643 0
 655 0024 BB68     		ldr	r3, [r7, #8]
 656 0026 002B     		cmp	r3, #0
 657 0028 02D1     		bne	.L46
 644:C:\Micrium\Software\uC-LIB\lib_mem.c ****         return (DEF_NO);
 658              		.loc 1 644 0
 659 002a 4FF00003 		mov	r3, #0
 660 002e 9AE0     		b	.L44
 661              	.L46:
 645:C:\Micrium\Software\uC-LIB\lib_mem.c ****     }
 646:C:\Micrium\Software\uC-LIB\lib_mem.c **** 
ARM GAS  C:\Users\daniel01\AppData\Local\Temp\ccJZvVod.s 			page 24


 647:C:\Micrium\Software\uC-LIB\lib_mem.c **** 
 648:C:\Micrium\Software\uC-LIB\lib_mem.c ****     mem_cmp         =  DEF_YES;                                 /* Assume mem bufs are identical un
 662              		.loc 1 648 0
 663 0030 4FF00103 		mov	r3, #1
 664 0034 87F83730 		strb	r3, [r7, #55]
 649:C:\Micrium\Software\uC-LIB\lib_mem.c ****     size_rem        =  size;
 665              		.loc 1 649 0
 666 0038 7B68     		ldr	r3, [r7, #4]
 667 003a 7B61     		str	r3, [r7, #20]
 650:C:\Micrium\Software\uC-LIB\lib_mem.c ****                                                                 /* Start @ end of mem bufs (see Not
 651:C:\Micrium\Software\uC-LIB\lib_mem.c ****     p1_mem_08       = (const CPU_INT08U *)p1_mem + size;
 668              		.loc 1 651 0
 669 003c FA68     		ldr	r2, [r7, #12]
 670 003e 7B68     		ldr	r3, [r7, #4]
 671 0040 1344     		add	r3, r2, r3
 672 0042 3B62     		str	r3, [r7, #32]
 652:C:\Micrium\Software\uC-LIB\lib_mem.c ****     p2_mem_08       = (const CPU_INT08U *)p2_mem + size;
 673              		.loc 1 652 0
 674 0044 BA68     		ldr	r2, [r7, #8]
 675 0046 7B68     		ldr	r3, [r7, #4]
 676 0048 1344     		add	r3, r2, r3
 677 004a 7B62     		str	r3, [r7, #36]
 653:C:\Micrium\Software\uC-LIB\lib_mem.c ****                                                                 /* See Note #4.                    
 654:C:\Micrium\Software\uC-LIB\lib_mem.c ****     mem_align_mod_1 = (CPU_INT08U)((CPU_ADDR)p1_mem_08 % sizeof(CPU_ALIGN));
 678              		.loc 1 654 0
 679 004c 3B6A     		ldr	r3, [r7, #32]
 680 004e DBB2     		uxtb	r3, r3
 681 0050 03F00303 		and	r3, r3, #3
 682 0054 FB62     		str	r3, [r7, #44]
 655:C:\Micrium\Software\uC-LIB\lib_mem.c ****     mem_align_mod_2 = (CPU_INT08U)((CPU_ADDR)p2_mem_08 % sizeof(CPU_ALIGN));
 683              		.loc 1 655 0
 684 0056 7B6A     		ldr	r3, [r7, #36]
 685 0058 DBB2     		uxtb	r3, r3
 686 005a 03F00303 		and	r3, r3, #3
 687 005e 3B63     		str	r3, [r7, #48]
 656:C:\Micrium\Software\uC-LIB\lib_mem.c **** 
 657:C:\Micrium\Software\uC-LIB\lib_mem.c ****     mem_aligned     = (mem_align_mod_1 == mem_align_mod_2) ? DEF_YES : DEF_NO;
 688              		.loc 1 657 0
 689 0060 FA6A     		ldr	r2, [r7, #44]
 690 0062 3B6B     		ldr	r3, [r7, #48]
 691 0064 9A42     		cmp	r2, r3
 692 0066 02D1     		bne	.L47
 693 0068 4FF00103 		mov	r3, #1
 694 006c 01E0     		b	.L48
 695              	.L47:
 696 006e 4FF00003 		mov	r3, #0
 697              	.L48:
 698 0072 87F83630 		strb	r3, [r7, #54]
 658:C:\Micrium\Software\uC-LIB\lib_mem.c **** 
 659:C:\Micrium\Software\uC-LIB\lib_mem.c ****     if (mem_aligned == DEF_YES) {                               /* If mem bufs' alignment offset eq
 699              		.loc 1 659 0
 700 0076 97F83630 		ldrb	r3, [r7, #54]	@ zero_extendqisi2
 701 007a 012B     		cmp	r3, #1
 702 007c 6AD1     		bne	.L58
 660:C:\Micrium\Software\uC-LIB\lib_mem.c ****                                                                 /* ... optimize cmp for mem buf ali
 661:C:\Micrium\Software\uC-LIB\lib_mem.c ****         if (mem_align_mod_1 != 0u) {                            /* If trailing octets avail,       
 703              		.loc 1 661 0
ARM GAS  C:\Users\daniel01\AppData\Local\Temp\ccJZvVod.s 			page 25


 704 007e FB6A     		ldr	r3, [r7, #44]
 705 0080 002B     		cmp	r3, #0
 706 0082 26D0     		beq	.L50
 662:C:\Micrium\Software\uC-LIB\lib_mem.c ****             i = mem_align_mod_1;
 707              		.loc 1 662 0
 708 0084 FB6A     		ldr	r3, [r7, #44]
 709 0086 BB62     		str	r3, [r7, #40]
 663:C:\Micrium\Software\uC-LIB\lib_mem.c ****             while ((mem_cmp == DEF_YES) &&                      /* ... cmp mem bufs while identical
 710              		.loc 1 663 0
 711 0088 19E0     		b	.L51
 712              	.L53:
 664:C:\Micrium\Software\uC-LIB\lib_mem.c ****                    (size_rem > 0)       &&                      /* ... start mem buf cmp with trail
 665:C:\Micrium\Software\uC-LIB\lib_mem.c ****                    (i        > 0)) {                            /* ... until next CPU_ALIGN word bo
 666:C:\Micrium\Software\uC-LIB\lib_mem.c ****                 p1_mem_08--;
 713              		.loc 1 666 0
 714 008a 3B6A     		ldr	r3, [r7, #32]
 715 008c 03F1FF33 		add	r3, r3, #-1
 716 0090 3B62     		str	r3, [r7, #32]
 667:C:\Micrium\Software\uC-LIB\lib_mem.c ****                 p2_mem_08--;
 717              		.loc 1 667 0
 718 0092 7B6A     		ldr	r3, [r7, #36]
 719 0094 03F1FF33 		add	r3, r3, #-1
 720 0098 7B62     		str	r3, [r7, #36]
 668:C:\Micrium\Software\uC-LIB\lib_mem.c ****                 if (*p1_mem_08 != *p2_mem_08) {                 /* If ANY data octet(s) NOT identic
 721              		.loc 1 668 0
 722 009a 3B6A     		ldr	r3, [r7, #32]
 723 009c 1A78     		ldrb	r2, [r3, #0]	@ zero_extendqisi2
 724 009e 7B6A     		ldr	r3, [r7, #36]
 725 00a0 1B78     		ldrb	r3, [r3, #0]	@ zero_extendqisi2
 726 00a2 9A42     		cmp	r2, r3
 727 00a4 03D0     		beq	.L52
 669:C:\Micrium\Software\uC-LIB\lib_mem.c ****                      mem_cmp = DEF_NO;
 728              		.loc 1 669 0
 729 00a6 4FF00003 		mov	r3, #0
 730 00aa 87F83730 		strb	r3, [r7, #55]
 731              	.L52:
 670:C:\Micrium\Software\uC-LIB\lib_mem.c ****                 }
 671:C:\Micrium\Software\uC-LIB\lib_mem.c ****                 size_rem -= sizeof(CPU_INT08U);
 732              		.loc 1 671 0
 733 00ae 7B69     		ldr	r3, [r7, #20]
 734 00b0 03F1FF33 		add	r3, r3, #-1
 735 00b4 7B61     		str	r3, [r7, #20]
 672:C:\Micrium\Software\uC-LIB\lib_mem.c ****                 i--;
 736              		.loc 1 672 0
 737 00b6 BB6A     		ldr	r3, [r7, #40]
 738 00b8 03F1FF33 		add	r3, r3, #-1
 739 00bc BB62     		str	r3, [r7, #40]
 740              	.L51:
 741              		.loc 1 663 0
 742 00be 97F83730 		ldrb	r3, [r7, #55]	@ zero_extendqisi2
 743 00c2 012B     		cmp	r3, #1
 744 00c4 05D1     		bne	.L50
 745 00c6 7B69     		ldr	r3, [r7, #20]
 746 00c8 002B     		cmp	r3, #0
 747 00ca 02D0     		beq	.L50
 748 00cc BB6A     		ldr	r3, [r7, #40]
 749 00ce 002B     		cmp	r3, #0
ARM GAS  C:\Users\daniel01\AppData\Local\Temp\ccJZvVod.s 			page 26


 750 00d0 DBD1     		bne	.L53
 751              	.L50:
 673:C:\Micrium\Software\uC-LIB\lib_mem.c ****             }
 674:C:\Micrium\Software\uC-LIB\lib_mem.c ****         }
 675:C:\Micrium\Software\uC-LIB\lib_mem.c **** 
 676:C:\Micrium\Software\uC-LIB\lib_mem.c ****         if (mem_cmp == DEF_YES) {                               /* If cmp still identical, cmp alig
 752              		.loc 1 676 0
 753 00d2 97F83730 		ldrb	r3, [r7, #55]	@ zero_extendqisi2
 754 00d6 012B     		cmp	r3, #1
 755 00d8 3CD1     		bne	.L58
 677:C:\Micrium\Software\uC-LIB\lib_mem.c ****             p1_mem_align = (CPU_ALIGN *)p1_mem_08;              /* See Note #3a.                   
 756              		.loc 1 677 0
 757 00da 3B6A     		ldr	r3, [r7, #32]
 758 00dc BB61     		str	r3, [r7, #24]
 678:C:\Micrium\Software\uC-LIB\lib_mem.c ****             p2_mem_align = (CPU_ALIGN *)p2_mem_08;
 759              		.loc 1 678 0
 760 00de 7B6A     		ldr	r3, [r7, #36]
 761 00e0 FB61     		str	r3, [r7, #28]
 679:C:\Micrium\Software\uC-LIB\lib_mem.c **** 
 680:C:\Micrium\Software\uC-LIB\lib_mem.c ****             while ((mem_cmp  == DEF_YES) &&                     /* Cmp mem bufs while identical & .
 762              		.loc 1 680 0
 763 00e2 15E0     		b	.L54
 764              	.L57:
 681:C:\Micrium\Software\uC-LIB\lib_mem.c ****                    (size_rem >= sizeof(CPU_ALIGN))) {           /* ... mem bufs aligned on CPU_ALIG
 682:C:\Micrium\Software\uC-LIB\lib_mem.c ****                 p1_mem_align--;
 765              		.loc 1 682 0
 766 00e4 BB69     		ldr	r3, [r7, #24]
 767 00e6 A3F10403 		sub	r3, r3, #4
 768 00ea BB61     		str	r3, [r7, #24]
 683:C:\Micrium\Software\uC-LIB\lib_mem.c ****                 p2_mem_align--;
 769              		.loc 1 683 0
 770 00ec FB69     		ldr	r3, [r7, #28]
 771 00ee A3F10403 		sub	r3, r3, #4
 772 00f2 FB61     		str	r3, [r7, #28]
 684:C:\Micrium\Software\uC-LIB\lib_mem.c ****                 if (*p1_mem_align != *p2_mem_align) {           /* If ANY data octet(s) NOT identic
 773              		.loc 1 684 0
 774 00f4 BB69     		ldr	r3, [r7, #24]
 775 00f6 1A68     		ldr	r2, [r3, #0]
 776 00f8 FB69     		ldr	r3, [r7, #28]
 777 00fa 1B68     		ldr	r3, [r3, #0]
 778 00fc 9A42     		cmp	r2, r3
 779 00fe 03D0     		beq	.L55
 685:C:\Micrium\Software\uC-LIB\lib_mem.c ****                      mem_cmp = DEF_NO;
 780              		.loc 1 685 0
 781 0100 4FF00003 		mov	r3, #0
 782 0104 87F83730 		strb	r3, [r7, #55]
 783              	.L55:
 686:C:\Micrium\Software\uC-LIB\lib_mem.c ****                 }
 687:C:\Micrium\Software\uC-LIB\lib_mem.c ****                 size_rem -= sizeof(CPU_ALIGN);
 784              		.loc 1 687 0
 785 0108 7B69     		ldr	r3, [r7, #20]
 786 010a A3F10403 		sub	r3, r3, #4
 787 010e 7B61     		str	r3, [r7, #20]
 788              	.L54:
 789              		.loc 1 680 0
 790 0110 97F83730 		ldrb	r3, [r7, #55]	@ zero_extendqisi2
 791 0114 012B     		cmp	r3, #1
ARM GAS  C:\Users\daniel01\AppData\Local\Temp\ccJZvVod.s 			page 27


 792 0116 02D1     		bne	.L56
 793 0118 7B69     		ldr	r3, [r7, #20]
 794 011a 032B     		cmp	r3, #3
 795 011c E2D8     		bhi	.L57
 796              	.L56:
 688:C:\Micrium\Software\uC-LIB\lib_mem.c ****             }
 689:C:\Micrium\Software\uC-LIB\lib_mem.c **** 
 690:C:\Micrium\Software\uC-LIB\lib_mem.c ****             p1_mem_08 = (CPU_INT08U *)p1_mem_align;
 797              		.loc 1 690 0
 798 011e BB69     		ldr	r3, [r7, #24]
 799 0120 3B62     		str	r3, [r7, #32]
 691:C:\Micrium\Software\uC-LIB\lib_mem.c ****             p2_mem_08 = (CPU_INT08U *)p2_mem_align;
 800              		.loc 1 691 0
 801 0122 FB69     		ldr	r3, [r7, #28]
 802 0124 7B62     		str	r3, [r7, #36]
 692:C:\Micrium\Software\uC-LIB\lib_mem.c ****         }
 693:C:\Micrium\Software\uC-LIB\lib_mem.c ****     }
 694:C:\Micrium\Software\uC-LIB\lib_mem.c **** 
 695:C:\Micrium\Software\uC-LIB\lib_mem.c ****     while ((mem_cmp == DEF_YES) &&                              /* Cmp mem bufs while identical ...
 803              		.loc 1 695 0
 804 0126 15E0     		b	.L58
 805              	.L61:
 696:C:\Micrium\Software\uC-LIB\lib_mem.c ****            (size_rem > 0)) {                                    /* ... for unaligned mem bufs or tr
 697:C:\Micrium\Software\uC-LIB\lib_mem.c ****         p1_mem_08--;
 806              		.loc 1 697 0
 807 0128 3B6A     		ldr	r3, [r7, #32]
 808 012a 03F1FF33 		add	r3, r3, #-1
 809 012e 3B62     		str	r3, [r7, #32]
 698:C:\Micrium\Software\uC-LIB\lib_mem.c ****         p2_mem_08--;
 810              		.loc 1 698 0
 811 0130 7B6A     		ldr	r3, [r7, #36]
 812 0132 03F1FF33 		add	r3, r3, #-1
 813 0136 7B62     		str	r3, [r7, #36]
 699:C:\Micrium\Software\uC-LIB\lib_mem.c ****         if (*p1_mem_08 != *p2_mem_08) {                         /* If ANY data octet(s) NOT identic
 814              		.loc 1 699 0
 815 0138 3B6A     		ldr	r3, [r7, #32]
 816 013a 1A78     		ldrb	r2, [r3, #0]	@ zero_extendqisi2
 817 013c 7B6A     		ldr	r3, [r7, #36]
 818 013e 1B78     		ldrb	r3, [r3, #0]	@ zero_extendqisi2
 819 0140 9A42     		cmp	r2, r3
 820 0142 03D0     		beq	.L59
 700:C:\Micrium\Software\uC-LIB\lib_mem.c ****              mem_cmp = DEF_NO;
 821              		.loc 1 700 0
 822 0144 4FF00003 		mov	r3, #0
 823 0148 87F83730 		strb	r3, [r7, #55]
 824              	.L59:
 701:C:\Micrium\Software\uC-LIB\lib_mem.c ****         }
 702:C:\Micrium\Software\uC-LIB\lib_mem.c ****         size_rem -= sizeof(CPU_INT08U);
 825              		.loc 1 702 0
 826 014c 7B69     		ldr	r3, [r7, #20]
 827 014e 03F1FF33 		add	r3, r3, #-1
 828 0152 7B61     		str	r3, [r7, #20]
 829              	.L58:
 830              		.loc 1 695 0
 831 0154 97F83730 		ldrb	r3, [r7, #55]	@ zero_extendqisi2
 832 0158 012B     		cmp	r3, #1
 833 015a 02D1     		bne	.L60
ARM GAS  C:\Users\daniel01\AppData\Local\Temp\ccJZvVod.s 			page 28


 834 015c 7B69     		ldr	r3, [r7, #20]
 835 015e 002B     		cmp	r3, #0
 836 0160 E2D1     		bne	.L61
 837              	.L60:
 703:C:\Micrium\Software\uC-LIB\lib_mem.c ****     }
 704:C:\Micrium\Software\uC-LIB\lib_mem.c **** 
 705:C:\Micrium\Software\uC-LIB\lib_mem.c ****     return (mem_cmp);
 838              		.loc 1 705 0
 839 0162 97F83730 		ldrb	r3, [r7, #55]	@ zero_extendqisi2
 840              	.L44:
 706:C:\Micrium\Software\uC-LIB\lib_mem.c **** }
 841              		.loc 1 706 0
 842 0166 1846     		mov	r0, r3
 843 0168 07F13C07 		add	r7, r7, #60
 844 016c BD46     		mov	sp, r7
 845 016e 80BC     		pop	{r7}
 846 0170 7047     		bx	lr
 847              		.cfi_endproc
 848              	.LFE5:
 849              		.size	Mem_Cmp, .-Mem_Cmp
 850 0172 00BF     		.text
 851              	.Letext0: