ARM GAS  C:\Users\daniel01\AppData\Local\Temp\ccQNbRx9.s 			page 1


   1              		.syntax unified
   2              		.cpu cortex-m3
   3              		.fpu softvfp
   4              		.eabi_attribute 20, 1
   5              		.eabi_attribute 21, 1
   6              		.eabi_attribute 23, 3
   7              		.eabi_attribute 24, 1
   8              		.eabi_attribute 25, 1
   9              		.eabi_attribute 26, 1
  10              		.eabi_attribute 30, 6
  11              		.eabi_attribute 18, 4
  12              		.thumb
  13              		.file	"lib_ascii.c"
  20 0000 AF010000 		.text
  20      02007100 
  20      00000201 
  20      FB0E0D00 
  20      01010101 
  21              	.Ltext0:
  22              		.cfi_sections	.debug_frame
  23              		.section	.text.ASCII_IsAlpha,"ax",%progbits
  24              		.align	2
  25              		.global	ASCII_IsAlpha
  26              		.thumb
  27              		.thumb_func
  28              		.type	ASCII_IsAlpha, %function
  29              	ASCII_IsAlpha:
  30              	.LFB0:
  31              		.file 1 "C:\\Micrium\\Software\\uC-LIB\\lib_ascii.c"
   1:C:\Micrium\Software\uC-LIB\lib_ascii.c **** /*
   2:C:\Micrium\Software\uC-LIB\lib_ascii.c **** ***************************************************************************************************
   3:C:\Micrium\Software\uC-LIB\lib_ascii.c **** *                                                uC/LIB
   4:C:\Micrium\Software\uC-LIB\lib_ascii.c **** *                                        CUSTOM LIBRARY MODULES
   5:C:\Micrium\Software\uC-LIB\lib_ascii.c **** *
   6:C:\Micrium\Software\uC-LIB\lib_ascii.c **** *                          (c) Copyright 2004-2012; Micrium, Inc.; Weston, FL
   7:C:\Micrium\Software\uC-LIB\lib_ascii.c **** *
   8:C:\Micrium\Software\uC-LIB\lib_ascii.c **** *               All rights reserved.  Protected by international copyright laws.
   9:C:\Micrium\Software\uC-LIB\lib_ascii.c **** *
  10:C:\Micrium\Software\uC-LIB\lib_ascii.c **** *               uC/LIB is provided in source form to registered licensees ONLY.  It is 
  11:C:\Micrium\Software\uC-LIB\lib_ascii.c **** *               illegal to distribute this source code to any third party unless you receive 
  12:C:\Micrium\Software\uC-LIB\lib_ascii.c **** *               written permission by an authorized Micrium representative.  Knowledge of 
  13:C:\Micrium\Software\uC-LIB\lib_ascii.c **** *               the source code may NOT be used to develop a similar product.
  14:C:\Micrium\Software\uC-LIB\lib_ascii.c **** *
  15:C:\Micrium\Software\uC-LIB\lib_ascii.c **** *               Please help us continue to provide the Embedded community with the finest 
  16:C:\Micrium\Software\uC-LIB\lib_ascii.c **** *               software available.  Your honesty is greatly appreciated.
  17:C:\Micrium\Software\uC-LIB\lib_ascii.c **** *
  18:C:\Micrium\Software\uC-LIB\lib_ascii.c **** *               You can contact us at www.micrium.com.
  19:C:\Micrium\Software\uC-LIB\lib_ascii.c **** ***************************************************************************************************
  20:C:\Micrium\Software\uC-LIB\lib_ascii.c **** */
  21:C:\Micrium\Software\uC-LIB\lib_ascii.c **** 
  22:C:\Micrium\Software\uC-LIB\lib_ascii.c **** /*
ARM GAS  C:\Users\daniel01\AppData\Local\Temp\ccQNbRx9.s 			page 2


  23:C:\Micrium\Software\uC-LIB\lib_ascii.c **** ***************************************************************************************************
  24:C:\Micrium\Software\uC-LIB\lib_ascii.c **** *
  25:C:\Micrium\Software\uC-LIB\lib_ascii.c **** *                                     ASCII CHARACTER OPERATIONS
  26:C:\Micrium\Software\uC-LIB\lib_ascii.c **** *
  27:C:\Micrium\Software\uC-LIB\lib_ascii.c **** * Filename      : lib_ascii.c
  28:C:\Micrium\Software\uC-LIB\lib_ascii.c **** * Version       : V1.37.00
  29:C:\Micrium\Software\uC-LIB\lib_ascii.c **** * Programmer(s) : BAN
  30:C:\Micrium\Software\uC-LIB\lib_ascii.c **** *                 ITJ
  31:C:\Micrium\Software\uC-LIB\lib_ascii.c **** ***************************************************************************************************
  32:C:\Micrium\Software\uC-LIB\lib_ascii.c **** * Note(s)       : (1) NO compiler-supplied standard library functions are used in library or produc
  33:C:\Micrium\Software\uC-LIB\lib_ascii.c **** *
  34:C:\Micrium\Software\uC-LIB\lib_ascii.c **** *                     (a) ALL standard library functions are implemented in the custom library modu
  35:C:\Micrium\Software\uC-LIB\lib_ascii.c **** *
  36:C:\Micrium\Software\uC-LIB\lib_ascii.c **** *                         (1) \<Custom Library Directory>\lib_*.*
  37:C:\Micrium\Software\uC-LIB\lib_ascii.c **** *
  38:C:\Micrium\Software\uC-LIB\lib_ascii.c **** *                         (2) \<Custom Library Directory>\Ports\<cpu>\<compiler>\lib*_a.*
  39:C:\Micrium\Software\uC-LIB\lib_ascii.c **** *
  40:C:\Micrium\Software\uC-LIB\lib_ascii.c **** *                               where
  41:C:\Micrium\Software\uC-LIB\lib_ascii.c **** *                                       <Custom Library Directory>      directory path for custom l
  42:C:\Micrium\Software\uC-LIB\lib_ascii.c **** *                                       <cpu>                           directory name for specific
  43:C:\Micrium\Software\uC-LIB\lib_ascii.c **** *                                       <compiler>                      directory name for specific
  44:C:\Micrium\Software\uC-LIB\lib_ascii.c **** *
  45:C:\Micrium\Software\uC-LIB\lib_ascii.c **** *                     (b) Product-specific library functions are implemented in individual products
  46:C:\Micrium\Software\uC-LIB\lib_ascii.c **** *
  47:C:\Micrium\Software\uC-LIB\lib_ascii.c **** *
  48:C:\Micrium\Software\uC-LIB\lib_ascii.c **** *                 (2) (a) ECMA-6 '7-Bit coded Character Set' (6th edition), which corresponds to th
  49:C:\Micrium\Software\uC-LIB\lib_ascii.c **** *                         3rd edition of ISO 646, specifies several versions of a 7-bit character s
  50:C:\Micrium\Software\uC-LIB\lib_ascii.c **** *
  51:C:\Micrium\Software\uC-LIB\lib_ascii.c **** *                         (1) THE GENERAL VERSION, which allows characters at 0x23 and 0x24 to be g
  52:C:\Micrium\Software\uC-LIB\lib_ascii.c **** *                             set alternate form and allows the characters 0x40, 0x5B, 0x5D, 0x60, 
  53:C:\Micrium\Software\uC-LIB\lib_ascii.c **** *                             0x7D to be assigned a "unique graphic character" or to be declared as
  54:C:\Micrium\Software\uC-LIB\lib_ascii.c **** *                             All other characters are explicitly specified.
  55:C:\Micrium\Software\uC-LIB\lib_ascii.c **** *
  56:C:\Micrium\Software\uC-LIB\lib_ascii.c **** *                         (2) THE INTERNATIONAL REFERENCE VERSION, which explicitly specifies all c
  57:C:\Micrium\Software\uC-LIB\lib_ascii.c **** *                             in the 7-bit character set.
  58:C:\Micrium\Software\uC-LIB\lib_ascii.c **** *
  59:C:\Micrium\Software\uC-LIB\lib_ascii.c **** *                         (3) NATIONAL & APPLICATION-ORIENTED VERSIONS, which may be derived from t
  60:C:\Micrium\Software\uC-LIB\lib_ascii.c **** *                             standard in specified ways.
  61:C:\Micrium\Software\uC-LIB\lib_ascii.c **** *
  62:C:\Micrium\Software\uC-LIB\lib_ascii.c **** *                     (b) The character set represented in this file reproduces the Internation Ref
  63:C:\Micrium\Software\uC-LIB\lib_ascii.c **** *                         Version.  This is identical to the 7-bit character set which occupies Uni
  64:C:\Micrium\Software\uC-LIB\lib_ascii.c **** *                         characters 0x0000 through 0x007F.  The character names are taken from v5.
  65:C:\Micrium\Software\uC-LIB\lib_ascii.c **** *                         Unicode specification, with certain abbreviations so that the resulting #
  66:C:\Micrium\Software\uC-LIB\lib_ascii.c **** *                         names will not violate ANSI C naming restriction :
  67:C:\Micrium\Software\uC-LIB\lib_ascii.c **** *
  68:C:\Micrium\Software\uC-LIB\lib_ascii.c **** *                         (1) For the Latin capital & lowercase letters, the name components 'LETTE
  69:C:\Micrium\Software\uC-LIB\lib_ascii.c **** *                             & 'LETTER_SMALL' are replaced by 'UPPER' & 'LOWER', respectively.
  70:C:\Micrium\Software\uC-LIB\lib_ascii.c **** ***************************************************************************************************
  71:C:\Micrium\Software\uC-LIB\lib_ascii.c **** */
  72:C:\Micrium\Software\uC-LIB\lib_ascii.c **** 
  73:C:\Micrium\Software\uC-LIB\lib_ascii.c **** 
  74:C:\Micrium\Software\uC-LIB\lib_ascii.c **** /*
  75:C:\Micrium\Software\uC-LIB\lib_ascii.c **** ***************************************************************************************************
  76:C:\Micrium\Software\uC-LIB\lib_ascii.c **** *                                            INCLUDE FILES
  77:C:\Micrium\Software\uC-LIB\lib_ascii.c **** ***************************************************************************************************
  78:C:\Micrium\Software\uC-LIB\lib_ascii.c **** */
  79:C:\Micrium\Software\uC-LIB\lib_ascii.c **** 
ARM GAS  C:\Users\daniel01\AppData\Local\Temp\ccQNbRx9.s 			page 3


  80:C:\Micrium\Software\uC-LIB\lib_ascii.c **** #define    MICRIUM_SOURCE
  81:C:\Micrium\Software\uC-LIB\lib_ascii.c **** #define    LIB_ASCII_MODULE
  82:C:\Micrium\Software\uC-LIB\lib_ascii.c **** #include  <lib_ascii.h>
  83:C:\Micrium\Software\uC-LIB\lib_ascii.c **** 
  84:C:\Micrium\Software\uC-LIB\lib_ascii.c **** 
  85:C:\Micrium\Software\uC-LIB\lib_ascii.c **** /*$PAGE*/
  86:C:\Micrium\Software\uC-LIB\lib_ascii.c **** /*
  87:C:\Micrium\Software\uC-LIB\lib_ascii.c **** ***************************************************************************************************
  88:C:\Micrium\Software\uC-LIB\lib_ascii.c **** *                                            LOCAL DEFINES
  89:C:\Micrium\Software\uC-LIB\lib_ascii.c **** ***************************************************************************************************
  90:C:\Micrium\Software\uC-LIB\lib_ascii.c **** */
  91:C:\Micrium\Software\uC-LIB\lib_ascii.c **** 
  92:C:\Micrium\Software\uC-LIB\lib_ascii.c **** 
  93:C:\Micrium\Software\uC-LIB\lib_ascii.c **** /*
  94:C:\Micrium\Software\uC-LIB\lib_ascii.c **** ***************************************************************************************************
  95:C:\Micrium\Software\uC-LIB\lib_ascii.c **** *                                           LOCAL CONSTANTS
  96:C:\Micrium\Software\uC-LIB\lib_ascii.c **** ***************************************************************************************************
  97:C:\Micrium\Software\uC-LIB\lib_ascii.c **** */
  98:C:\Micrium\Software\uC-LIB\lib_ascii.c **** 
  99:C:\Micrium\Software\uC-LIB\lib_ascii.c **** 
 100:C:\Micrium\Software\uC-LIB\lib_ascii.c **** /*
 101:C:\Micrium\Software\uC-LIB\lib_ascii.c **** ***************************************************************************************************
 102:C:\Micrium\Software\uC-LIB\lib_ascii.c **** *                                          LOCAL DATA TYPES
 103:C:\Micrium\Software\uC-LIB\lib_ascii.c **** ***************************************************************************************************
 104:C:\Micrium\Software\uC-LIB\lib_ascii.c **** */
 105:C:\Micrium\Software\uC-LIB\lib_ascii.c **** 
 106:C:\Micrium\Software\uC-LIB\lib_ascii.c **** 
 107:C:\Micrium\Software\uC-LIB\lib_ascii.c **** /*
 108:C:\Micrium\Software\uC-LIB\lib_ascii.c **** ***************************************************************************************************
 109:C:\Micrium\Software\uC-LIB\lib_ascii.c **** *                                            LOCAL TABLES
 110:C:\Micrium\Software\uC-LIB\lib_ascii.c **** ***************************************************************************************************
 111:C:\Micrium\Software\uC-LIB\lib_ascii.c **** */
 112:C:\Micrium\Software\uC-LIB\lib_ascii.c **** 
 113:C:\Micrium\Software\uC-LIB\lib_ascii.c **** 
 114:C:\Micrium\Software\uC-LIB\lib_ascii.c **** /*
 115:C:\Micrium\Software\uC-LIB\lib_ascii.c **** ***************************************************************************************************
 116:C:\Micrium\Software\uC-LIB\lib_ascii.c **** *                                       LOCAL GLOBAL VARIABLES
 117:C:\Micrium\Software\uC-LIB\lib_ascii.c **** ***************************************************************************************************
 118:C:\Micrium\Software\uC-LIB\lib_ascii.c **** */
 119:C:\Micrium\Software\uC-LIB\lib_ascii.c **** 
 120:C:\Micrium\Software\uC-LIB\lib_ascii.c **** 
 121:C:\Micrium\Software\uC-LIB\lib_ascii.c **** /*
 122:C:\Micrium\Software\uC-LIB\lib_ascii.c **** ***************************************************************************************************
 123:C:\Micrium\Software\uC-LIB\lib_ascii.c **** *                                      LOCAL FUNCTION PROTOTYPES
 124:C:\Micrium\Software\uC-LIB\lib_ascii.c **** ***************************************************************************************************
 125:C:\Micrium\Software\uC-LIB\lib_ascii.c **** */
 126:C:\Micrium\Software\uC-LIB\lib_ascii.c **** 
 127:C:\Micrium\Software\uC-LIB\lib_ascii.c **** 
 128:C:\Micrium\Software\uC-LIB\lib_ascii.c **** /*
 129:C:\Micrium\Software\uC-LIB\lib_ascii.c **** ***************************************************************************************************
 130:C:\Micrium\Software\uC-LIB\lib_ascii.c **** *                                     LOCAL CONFIGURATION ERRORS
 131:C:\Micrium\Software\uC-LIB\lib_ascii.c **** ***************************************************************************************************
 132:C:\Micrium\Software\uC-LIB\lib_ascii.c **** */
 133:C:\Micrium\Software\uC-LIB\lib_ascii.c **** 
 134:C:\Micrium\Software\uC-LIB\lib_ascii.c **** 
 135:C:\Micrium\Software\uC-LIB\lib_ascii.c **** /*$PAGE*/
 136:C:\Micrium\Software\uC-LIB\lib_ascii.c **** /*
ARM GAS  C:\Users\daniel01\AppData\Local\Temp\ccQNbRx9.s 			page 4


 137:C:\Micrium\Software\uC-LIB\lib_ascii.c **** ***************************************************************************************************
 138:C:\Micrium\Software\uC-LIB\lib_ascii.c **** *                                           ASCII_IsAlpha()
 139:C:\Micrium\Software\uC-LIB\lib_ascii.c **** *
 140:C:\Micrium\Software\uC-LIB\lib_ascii.c **** * Description : Determine whether a character is an alphabetic character.
 141:C:\Micrium\Software\uC-LIB\lib_ascii.c **** *
 142:C:\Micrium\Software\uC-LIB\lib_ascii.c **** * Argument(s) : c           Character to examine.
 143:C:\Micrium\Software\uC-LIB\lib_ascii.c **** *
 144:C:\Micrium\Software\uC-LIB\lib_ascii.c **** * Return(s)   : DEF_YES, if character is     an alphabetic character.
 145:C:\Micrium\Software\uC-LIB\lib_ascii.c **** *
 146:C:\Micrium\Software\uC-LIB\lib_ascii.c **** *               DEF_NO,	 if character is NOT an alphabetic character.
 147:C:\Micrium\Software\uC-LIB\lib_ascii.c **** *
 148:C:\Micrium\Software\uC-LIB\lib_ascii.c **** * Caller(s)   : Application.
 149:C:\Micrium\Software\uC-LIB\lib_ascii.c **** *
 150:C:\Micrium\Software\uC-LIB\lib_ascii.c **** * Note(s)     : (1) ISO/IEC 9899:TC2, Section 7.4.1.2.(2) states that "isalpha() returns true only 
 151:C:\Micrium\Software\uC-LIB\lib_ascii.c **** *                   characters for which isupper() or islower() is true".
 152:C:\Micrium\Software\uC-LIB\lib_ascii.c **** ***************************************************************************************************
 153:C:\Micrium\Software\uC-LIB\lib_ascii.c **** */
 154:C:\Micrium\Software\uC-LIB\lib_ascii.c **** 
 155:C:\Micrium\Software\uC-LIB\lib_ascii.c **** CPU_BOOLEAN  ASCII_IsAlpha (CPU_CHAR  c)
 156:C:\Micrium\Software\uC-LIB\lib_ascii.c **** {
  32              		.loc 1 156 0
  33              		.cfi_startproc
  34              		@ args = 0, pretend = 0, frame = 16
  35              		@ frame_needed = 1, uses_anonymous_args = 0
  36              		@ link register save eliminated.
  37 0000 80B4     		push	{r7}
  38              	.LCFI0:
  39              		.cfi_def_cfa_offset 4
  40 0002 85B0     		sub	sp, sp, #20
  41              	.LCFI1:
  42              		.cfi_def_cfa_offset 24
  43 0004 00AF     		add	r7, sp, #0
  44              		.cfi_offset 7, -4
  45              	.LCFI2:
  46              		.cfi_def_cfa_register 7
  47 0006 0346     		mov	r3, r0
  48 0008 FB71     		strb	r3, [r7, #7]
 157:C:\Micrium\Software\uC-LIB\lib_ascii.c ****     CPU_BOOLEAN  alpha;
 158:C:\Micrium\Software\uC-LIB\lib_ascii.c **** 
 159:C:\Micrium\Software\uC-LIB\lib_ascii.c **** 
 160:C:\Micrium\Software\uC-LIB\lib_ascii.c ****     alpha = ASCII_IS_ALPHA(c);
  49              		.loc 1 160 0
  50 000a FB79     		ldrb	r3, [r7, #7]	@ zero_extendqisi2
  51 000c 402B     		cmp	r3, #64
  52 000e 02D9     		bls	.L2
  53 0010 FB79     		ldrb	r3, [r7, #7]	@ zero_extendqisi2
  54 0012 5A2B     		cmp	r3, #90
  55 0014 05D9     		bls	.L3
  56              	.L2:
  57 0016 FB79     		ldrb	r3, [r7, #7]	@ zero_extendqisi2
  58 0018 602B     		cmp	r3, #96
  59 001a 05D9     		bls	.L4
  60 001c FB79     		ldrb	r3, [r7, #7]	@ zero_extendqisi2
  61 001e 7A2B     		cmp	r3, #122
  62 0020 02D8     		bhi	.L4
  63              	.L3:
  64 0022 4FF00103 		mov	r3, #1
ARM GAS  C:\Users\daniel01\AppData\Local\Temp\ccQNbRx9.s 			page 5


  65 0026 01E0     		b	.L5
  66              	.L4:
  67 0028 4FF00003 		mov	r3, #0
  68              	.L5:
  69 002c FB73     		strb	r3, [r7, #15]
 161:C:\Micrium\Software\uC-LIB\lib_ascii.c **** 
 162:C:\Micrium\Software\uC-LIB\lib_ascii.c ****     return (alpha);
  70              		.loc 1 162 0
  71 002e FB7B     		ldrb	r3, [r7, #15]	@ zero_extendqisi2
 163:C:\Micrium\Software\uC-LIB\lib_ascii.c **** }
  72              		.loc 1 163 0
  73 0030 1846     		mov	r0, r3
  74 0032 07F11407 		add	r7, r7, #20
  75 0036 BD46     		mov	sp, r7
  76 0038 80BC     		pop	{r7}
  77 003a 7047     		bx	lr
  78              		.cfi_endproc
  79              	.LFE0:
  80              		.size	ASCII_IsAlpha, .-ASCII_IsAlpha
  81              		.section	.text.ASCII_IsAlphaNum,"ax",%progbits
  82              		.align	2
  83              		.global	ASCII_IsAlphaNum
  84              		.thumb
  85              		.thumb_func
  86              		.type	ASCII_IsAlphaNum, %function
  87              	ASCII_IsAlphaNum:
  88              	.LFB1:
 164:C:\Micrium\Software\uC-LIB\lib_ascii.c **** 
 165:C:\Micrium\Software\uC-LIB\lib_ascii.c **** 
 166:C:\Micrium\Software\uC-LIB\lib_ascii.c **** /*
 167:C:\Micrium\Software\uC-LIB\lib_ascii.c **** ***************************************************************************************************
 168:C:\Micrium\Software\uC-LIB\lib_ascii.c **** *                                         ASCII_IsAlphaNum()
 169:C:\Micrium\Software\uC-LIB\lib_ascii.c **** *
 170:C:\Micrium\Software\uC-LIB\lib_ascii.c **** * Description : Determine whether a character is an alphanumeric character.
 171:C:\Micrium\Software\uC-LIB\lib_ascii.c **** *
 172:C:\Micrium\Software\uC-LIB\lib_ascii.c **** * Argument(s) : c           Character to examine.
 173:C:\Micrium\Software\uC-LIB\lib_ascii.c **** *
 174:C:\Micrium\Software\uC-LIB\lib_ascii.c **** * Return(s)   : DEF_YES, if character is     an alphanumeric character.
 175:C:\Micrium\Software\uC-LIB\lib_ascii.c **** *
 176:C:\Micrium\Software\uC-LIB\lib_ascii.c **** *               DEF_NO,	 if character is NOT an alphanumeric character.
 177:C:\Micrium\Software\uC-LIB\lib_ascii.c **** *
 178:C:\Micrium\Software\uC-LIB\lib_ascii.c **** * Caller(s)   : Application.
 179:C:\Micrium\Software\uC-LIB\lib_ascii.c **** *
 180:C:\Micrium\Software\uC-LIB\lib_ascii.c **** * Note(s)     : (1) ISO/IEC 9899:TC2, Section 7.4.1.1.(2) states that "isalnum() ... tests for any 
 181:C:\Micrium\Software\uC-LIB\lib_ascii.c **** *                   for which isalpha() or isdigit() is true".
 182:C:\Micrium\Software\uC-LIB\lib_ascii.c **** ***************************************************************************************************
 183:C:\Micrium\Software\uC-LIB\lib_ascii.c **** */
 184:C:\Micrium\Software\uC-LIB\lib_ascii.c **** 
 185:C:\Micrium\Software\uC-LIB\lib_ascii.c **** CPU_BOOLEAN  ASCII_IsAlphaNum (CPU_CHAR  c)
 186:C:\Micrium\Software\uC-LIB\lib_ascii.c **** {
  89              		.loc 1 186 0
  90              		.cfi_startproc
  91              		@ args = 0, pretend = 0, frame = 16
  92              		@ frame_needed = 1, uses_anonymous_args = 0
  93              		@ link register save eliminated.
  94 0000 80B4     		push	{r7}
  95              	.LCFI3:
ARM GAS  C:\Users\daniel01\AppData\Local\Temp\ccQNbRx9.s 			page 6


  96              		.cfi_def_cfa_offset 4
  97 0002 85B0     		sub	sp, sp, #20
  98              	.LCFI4:
  99              		.cfi_def_cfa_offset 24
 100 0004 00AF     		add	r7, sp, #0
 101              		.cfi_offset 7, -4
 102              	.LCFI5:
 103              		.cfi_def_cfa_register 7
 104 0006 0346     		mov	r3, r0
 105 0008 FB71     		strb	r3, [r7, #7]
 187:C:\Micrium\Software\uC-LIB\lib_ascii.c ****     CPU_BOOLEAN  alpha_num;
 188:C:\Micrium\Software\uC-LIB\lib_ascii.c **** 
 189:C:\Micrium\Software\uC-LIB\lib_ascii.c **** 
 190:C:\Micrium\Software\uC-LIB\lib_ascii.c ****     alpha_num = ASCII_IS_ALPHA_NUM(c);
 106              		.loc 1 190 0
 107 000a FB79     		ldrb	r3, [r7, #7]	@ zero_extendqisi2
 108 000c 402B     		cmp	r3, #64
 109 000e 02D9     		bls	.L8
 110 0010 FB79     		ldrb	r3, [r7, #7]	@ zero_extendqisi2
 111 0012 5A2B     		cmp	r3, #90
 112 0014 0BD9     		bls	.L9
 113              	.L8:
 114 0016 FB79     		ldrb	r3, [r7, #7]	@ zero_extendqisi2
 115 0018 602B     		cmp	r3, #96
 116 001a 02D9     		bls	.L10
 117 001c FB79     		ldrb	r3, [r7, #7]	@ zero_extendqisi2
 118 001e 7A2B     		cmp	r3, #122
 119 0020 05D9     		bls	.L9
 120              	.L10:
 121 0022 FB79     		ldrb	r3, [r7, #7]	@ zero_extendqisi2
 122 0024 2F2B     		cmp	r3, #47
 123 0026 05D9     		bls	.L11
 124 0028 FB79     		ldrb	r3, [r7, #7]	@ zero_extendqisi2
 125 002a 392B     		cmp	r3, #57
 126 002c 02D8     		bhi	.L11
 127              	.L9:
 128 002e 4FF00103 		mov	r3, #1
 129 0032 01E0     		b	.L12
 130              	.L11:
 131 0034 4FF00003 		mov	r3, #0
 132              	.L12:
 133 0038 FB73     		strb	r3, [r7, #15]
 191:C:\Micrium\Software\uC-LIB\lib_ascii.c **** 
 192:C:\Micrium\Software\uC-LIB\lib_ascii.c ****     return (alpha_num);
 134              		.loc 1 192 0
 135 003a FB7B     		ldrb	r3, [r7, #15]	@ zero_extendqisi2
 193:C:\Micrium\Software\uC-LIB\lib_ascii.c **** }
 136              		.loc 1 193 0
 137 003c 1846     		mov	r0, r3
 138 003e 07F11407 		add	r7, r7, #20
 139 0042 BD46     		mov	sp, r7
 140 0044 80BC     		pop	{r7}
 141 0046 7047     		bx	lr
 142              		.cfi_endproc
 143              	.LFE1:
 144              		.size	ASCII_IsAlphaNum, .-ASCII_IsAlphaNum
 145              		.section	.text.ASCII_IsLower,"ax",%progbits
ARM GAS  C:\Users\daniel01\AppData\Local\Temp\ccQNbRx9.s 			page 7


 146              		.align	2
 147              		.global	ASCII_IsLower
 148              		.thumb
 149              		.thumb_func
 150              		.type	ASCII_IsLower, %function
 151              	ASCII_IsLower:
 152              	.LFB2:
 194:C:\Micrium\Software\uC-LIB\lib_ascii.c **** 
 195:C:\Micrium\Software\uC-LIB\lib_ascii.c **** 
 196:C:\Micrium\Software\uC-LIB\lib_ascii.c **** /*$PAGE*/
 197:C:\Micrium\Software\uC-LIB\lib_ascii.c **** /*
 198:C:\Micrium\Software\uC-LIB\lib_ascii.c **** ***************************************************************************************************
 199:C:\Micrium\Software\uC-LIB\lib_ascii.c **** *                                           ASCII_IsLower()
 200:C:\Micrium\Software\uC-LIB\lib_ascii.c **** *
 201:C:\Micrium\Software\uC-LIB\lib_ascii.c **** * Description : Determine whether a character is a lowercase alphabetic character.
 202:C:\Micrium\Software\uC-LIB\lib_ascii.c **** *
 203:C:\Micrium\Software\uC-LIB\lib_ascii.c **** * Argument(s) : c           Character to examine.
 204:C:\Micrium\Software\uC-LIB\lib_ascii.c **** *
 205:C:\Micrium\Software\uC-LIB\lib_ascii.c **** * Return(s)   : DEF_YES, if character is     a lowercase alphabetic character.
 206:C:\Micrium\Software\uC-LIB\lib_ascii.c **** *
 207:C:\Micrium\Software\uC-LIB\lib_ascii.c **** *               DEF_NO,	 if character is NOT a lowercase alphabetic character.
 208:C:\Micrium\Software\uC-LIB\lib_ascii.c **** *
 209:C:\Micrium\Software\uC-LIB\lib_ascii.c **** * Caller(s)   : Application.
 210:C:\Micrium\Software\uC-LIB\lib_ascii.c **** *
 211:C:\Micrium\Software\uC-LIB\lib_ascii.c **** * Note(s)     : (1) ISO/IEC 9899:TC2, Section 7.4.1.7.(2)  states that "islower() returns true only
 212:C:\Micrium\Software\uC-LIB\lib_ascii.c **** *                   the lowercase letters".
 213:C:\Micrium\Software\uC-LIB\lib_ascii.c **** ***************************************************************************************************
 214:C:\Micrium\Software\uC-LIB\lib_ascii.c **** */
 215:C:\Micrium\Software\uC-LIB\lib_ascii.c **** 
 216:C:\Micrium\Software\uC-LIB\lib_ascii.c **** CPU_BOOLEAN  ASCII_IsLower (CPU_CHAR  c)
 217:C:\Micrium\Software\uC-LIB\lib_ascii.c **** {
 153              		.loc 1 217 0
 154              		.cfi_startproc
 155              		@ args = 0, pretend = 0, frame = 16
 156              		@ frame_needed = 1, uses_anonymous_args = 0
 157              		@ link register save eliminated.
 158 0000 80B4     		push	{r7}
 159              	.LCFI6:
 160              		.cfi_def_cfa_offset 4
 161 0002 85B0     		sub	sp, sp, #20
 162              	.LCFI7:
 163              		.cfi_def_cfa_offset 24
 164 0004 00AF     		add	r7, sp, #0
 165              		.cfi_offset 7, -4
 166              	.LCFI8:
 167              		.cfi_def_cfa_register 7
 168 0006 0346     		mov	r3, r0
 169 0008 FB71     		strb	r3, [r7, #7]
 218:C:\Micrium\Software\uC-LIB\lib_ascii.c ****     CPU_BOOLEAN  lower;
 219:C:\Micrium\Software\uC-LIB\lib_ascii.c **** 
 220:C:\Micrium\Software\uC-LIB\lib_ascii.c **** 
 221:C:\Micrium\Software\uC-LIB\lib_ascii.c ****     lower = ASCII_IS_LOWER(c);
 170              		.loc 1 221 0
 171 000a FB79     		ldrb	r3, [r7, #7]	@ zero_extendqisi2
 172 000c 602B     		cmp	r3, #96
 173 000e 05D9     		bls	.L15
 174 0010 FB79     		ldrb	r3, [r7, #7]	@ zero_extendqisi2
ARM GAS  C:\Users\daniel01\AppData\Local\Temp\ccQNbRx9.s 			page 8


 175 0012 7A2B     		cmp	r3, #122
 176 0014 02D8     		bhi	.L15
 177 0016 4FF00103 		mov	r3, #1
 178 001a 01E0     		b	.L16
 179              	.L15:
 180 001c 4FF00003 		mov	r3, #0
 181              	.L16:
 182 0020 FB73     		strb	r3, [r7, #15]
 222:C:\Micrium\Software\uC-LIB\lib_ascii.c **** 
 223:C:\Micrium\Software\uC-LIB\lib_ascii.c ****     return (lower);
 183              		.loc 1 223 0
 184 0022 FB7B     		ldrb	r3, [r7, #15]	@ zero_extendqisi2
 224:C:\Micrium\Software\uC-LIB\lib_ascii.c **** }
 185              		.loc 1 224 0
 186 0024 1846     		mov	r0, r3
 187 0026 07F11407 		add	r7, r7, #20
 188 002a BD46     		mov	sp, r7
 189 002c 80BC     		pop	{r7}
 190 002e 7047     		bx	lr
 191              		.cfi_endproc
 192              	.LFE2:
 193              		.size	ASCII_IsLower, .-ASCII_IsLower
 194              		.section	.text.ASCII_IsUpper,"ax",%progbits
 195              		.align	2
 196              		.global	ASCII_IsUpper
 197              		.thumb
 198              		.thumb_func
 199              		.type	ASCII_IsUpper, %function
 200              	ASCII_IsUpper:
 201              	.LFB3:
 225:C:\Micrium\Software\uC-LIB\lib_ascii.c **** 
 226:C:\Micrium\Software\uC-LIB\lib_ascii.c **** 
 227:C:\Micrium\Software\uC-LIB\lib_ascii.c **** /*
 228:C:\Micrium\Software\uC-LIB\lib_ascii.c **** ***************************************************************************************************
 229:C:\Micrium\Software\uC-LIB\lib_ascii.c **** *                                           ASCII_IsUpper()
 230:C:\Micrium\Software\uC-LIB\lib_ascii.c **** *
 231:C:\Micrium\Software\uC-LIB\lib_ascii.c **** * Description : Determine whether a character is an uppercase alphabetic character.
 232:C:\Micrium\Software\uC-LIB\lib_ascii.c **** *
 233:C:\Micrium\Software\uC-LIB\lib_ascii.c **** * Argument(s) : c           Character to examine.
 234:C:\Micrium\Software\uC-LIB\lib_ascii.c **** *
 235:C:\Micrium\Software\uC-LIB\lib_ascii.c **** * Return(s)   : DEF_YES, if character is     an uppercase alphabetic character.
 236:C:\Micrium\Software\uC-LIB\lib_ascii.c **** *
 237:C:\Micrium\Software\uC-LIB\lib_ascii.c **** *               DEF_NO,	 if character is NOT an uppercase alphabetic character.
 238:C:\Micrium\Software\uC-LIB\lib_ascii.c **** *
 239:C:\Micrium\Software\uC-LIB\lib_ascii.c **** * Caller(s)   : Application.
 240:C:\Micrium\Software\uC-LIB\lib_ascii.c **** *
 241:C:\Micrium\Software\uC-LIB\lib_ascii.c **** * Note(s)     : (1) ISO/IEC 9899:TC2, Section 7.4.1.11.(2) states that "isupper() returns true only
 242:C:\Micrium\Software\uC-LIB\lib_ascii.c **** *                   the uppercase letters".
 243:C:\Micrium\Software\uC-LIB\lib_ascii.c **** ***************************************************************************************************
 244:C:\Micrium\Software\uC-LIB\lib_ascii.c **** */
 245:C:\Micrium\Software\uC-LIB\lib_ascii.c **** 
 246:C:\Micrium\Software\uC-LIB\lib_ascii.c **** CPU_BOOLEAN  ASCII_IsUpper (CPU_CHAR  c)
 247:C:\Micrium\Software\uC-LIB\lib_ascii.c **** {
 202              		.loc 1 247 0
 203              		.cfi_startproc
 204              		@ args = 0, pretend = 0, frame = 16
 205              		@ frame_needed = 1, uses_anonymous_args = 0
ARM GAS  C:\Users\daniel01\AppData\Local\Temp\ccQNbRx9.s 			page 9


 206              		@ link register save eliminated.
 207 0000 80B4     		push	{r7}
 208              	.LCFI9:
 209              		.cfi_def_cfa_offset 4
 210 0002 85B0     		sub	sp, sp, #20
 211              	.LCFI10:
 212              		.cfi_def_cfa_offset 24
 213 0004 00AF     		add	r7, sp, #0
 214              		.cfi_offset 7, -4
 215              	.LCFI11:
 216              		.cfi_def_cfa_register 7
 217 0006 0346     		mov	r3, r0
 218 0008 FB71     		strb	r3, [r7, #7]
 248:C:\Micrium\Software\uC-LIB\lib_ascii.c ****     CPU_BOOLEAN  upper;
 249:C:\Micrium\Software\uC-LIB\lib_ascii.c **** 
 250:C:\Micrium\Software\uC-LIB\lib_ascii.c **** 
 251:C:\Micrium\Software\uC-LIB\lib_ascii.c ****     upper = ASCII_IS_UPPER(c);
 219              		.loc 1 251 0
 220 000a FB79     		ldrb	r3, [r7, #7]	@ zero_extendqisi2
 221 000c 402B     		cmp	r3, #64
 222 000e 05D9     		bls	.L19
 223 0010 FB79     		ldrb	r3, [r7, #7]	@ zero_extendqisi2
 224 0012 5A2B     		cmp	r3, #90
 225 0014 02D8     		bhi	.L19
 226 0016 4FF00103 		mov	r3, #1
 227 001a 01E0     		b	.L20
 228              	.L19:
 229 001c 4FF00003 		mov	r3, #0
 230              	.L20:
 231 0020 FB73     		strb	r3, [r7, #15]
 252:C:\Micrium\Software\uC-LIB\lib_ascii.c **** 
 253:C:\Micrium\Software\uC-LIB\lib_ascii.c ****     return (upper);
 232              		.loc 1 253 0
 233 0022 FB7B     		ldrb	r3, [r7, #15]	@ zero_extendqisi2
 254:C:\Micrium\Software\uC-LIB\lib_ascii.c **** }
 234              		.loc 1 254 0
 235 0024 1846     		mov	r0, r3
 236 0026 07F11407 		add	r7, r7, #20
 237 002a BD46     		mov	sp, r7
 238 002c 80BC     		pop	{r7}
 239 002e 7047     		bx	lr
 240              		.cfi_endproc
 241              	.LFE3:
 242              		.size	ASCII_IsUpper, .-ASCII_IsUpper
 243              		.section	.text.ASCII_IsDig,"ax",%progbits
 244              		.align	2
 245              		.global	ASCII_IsDig
 246              		.thumb
 247              		.thumb_func
 248              		.type	ASCII_IsDig, %function
 249              	ASCII_IsDig:
 250              	.LFB4:
 255:C:\Micrium\Software\uC-LIB\lib_ascii.c **** 
 256:C:\Micrium\Software\uC-LIB\lib_ascii.c **** 
 257:C:\Micrium\Software\uC-LIB\lib_ascii.c **** /*$PAGE*/
 258:C:\Micrium\Software\uC-LIB\lib_ascii.c **** /*
 259:C:\Micrium\Software\uC-LIB\lib_ascii.c **** ***************************************************************************************************
ARM GAS  C:\Users\daniel01\AppData\Local\Temp\ccQNbRx9.s 			page 10


 260:C:\Micrium\Software\uC-LIB\lib_ascii.c **** *                                            ASCII_IsDig()
 261:C:\Micrium\Software\uC-LIB\lib_ascii.c **** *
 262:C:\Micrium\Software\uC-LIB\lib_ascii.c **** * Description : Determine whether a character is a decimal-digit character.
 263:C:\Micrium\Software\uC-LIB\lib_ascii.c **** *
 264:C:\Micrium\Software\uC-LIB\lib_ascii.c **** * Argument(s) : c           Character to examine.
 265:C:\Micrium\Software\uC-LIB\lib_ascii.c **** *
 266:C:\Micrium\Software\uC-LIB\lib_ascii.c **** * Return(s)   : DEF_YES, if character is     a decimal-digit character.
 267:C:\Micrium\Software\uC-LIB\lib_ascii.c **** *
 268:C:\Micrium\Software\uC-LIB\lib_ascii.c **** *               DEF_NO,	 if character is NOT a decimal-digit character.
 269:C:\Micrium\Software\uC-LIB\lib_ascii.c **** *
 270:C:\Micrium\Software\uC-LIB\lib_ascii.c **** * Caller(s)   : Application.
 271:C:\Micrium\Software\uC-LIB\lib_ascii.c **** *
 272:C:\Micrium\Software\uC-LIB\lib_ascii.c **** * Note(s)     : (1) ISO/IEC 9899:TC2, Section 7.4.1.5.(2)  states that "isdigit()  ... tests for an
 273:C:\Micrium\Software\uC-LIB\lib_ascii.c **** *                   decimal-digit character".
 274:C:\Micrium\Software\uC-LIB\lib_ascii.c **** ***************************************************************************************************
 275:C:\Micrium\Software\uC-LIB\lib_ascii.c **** */
 276:C:\Micrium\Software\uC-LIB\lib_ascii.c **** 
 277:C:\Micrium\Software\uC-LIB\lib_ascii.c **** CPU_BOOLEAN  ASCII_IsDig (CPU_CHAR  c)
 278:C:\Micrium\Software\uC-LIB\lib_ascii.c **** {
 251              		.loc 1 278 0
 252              		.cfi_startproc
 253              		@ args = 0, pretend = 0, frame = 16
 254              		@ frame_needed = 1, uses_anonymous_args = 0
 255              		@ link register save eliminated.
 256 0000 80B4     		push	{r7}
 257              	.LCFI12:
 258              		.cfi_def_cfa_offset 4
 259 0002 85B0     		sub	sp, sp, #20
 260              	.LCFI13:
 261              		.cfi_def_cfa_offset 24
 262 0004 00AF     		add	r7, sp, #0
 263              		.cfi_offset 7, -4
 264              	.LCFI14:
 265              		.cfi_def_cfa_register 7
 266 0006 0346     		mov	r3, r0
 267 0008 FB71     		strb	r3, [r7, #7]
 279:C:\Micrium\Software\uC-LIB\lib_ascii.c ****     CPU_BOOLEAN  dig;
 280:C:\Micrium\Software\uC-LIB\lib_ascii.c **** 
 281:C:\Micrium\Software\uC-LIB\lib_ascii.c **** 
 282:C:\Micrium\Software\uC-LIB\lib_ascii.c ****     dig = ASCII_IS_DIG(c);
 268              		.loc 1 282 0
 269 000a FB79     		ldrb	r3, [r7, #7]	@ zero_extendqisi2
 270 000c 2F2B     		cmp	r3, #47
 271 000e 05D9     		bls	.L23
 272 0010 FB79     		ldrb	r3, [r7, #7]	@ zero_extendqisi2
 273 0012 392B     		cmp	r3, #57
 274 0014 02D8     		bhi	.L23
 275 0016 4FF00103 		mov	r3, #1
 276 001a 01E0     		b	.L24
 277              	.L23:
 278 001c 4FF00003 		mov	r3, #0
 279              	.L24:
 280 0020 FB73     		strb	r3, [r7, #15]
 283:C:\Micrium\Software\uC-LIB\lib_ascii.c **** 
 284:C:\Micrium\Software\uC-LIB\lib_ascii.c ****     return (dig);
 281              		.loc 1 284 0
 282 0022 FB7B     		ldrb	r3, [r7, #15]	@ zero_extendqisi2
ARM GAS  C:\Users\daniel01\AppData\Local\Temp\ccQNbRx9.s 			page 11


 285:C:\Micrium\Software\uC-LIB\lib_ascii.c **** }
 283              		.loc 1 285 0
 284 0024 1846     		mov	r0, r3
 285 0026 07F11407 		add	r7, r7, #20
 286 002a BD46     		mov	sp, r7
 287 002c 80BC     		pop	{r7}
 288 002e 7047     		bx	lr
 289              		.cfi_endproc
 290              	.LFE4:
 291              		.size	ASCII_IsDig, .-ASCII_IsDig
 292              		.section	.text.ASCII_IsDigOct,"ax",%progbits
 293              		.align	2
 294              		.global	ASCII_IsDigOct
 295              		.thumb
 296              		.thumb_func
 297              		.type	ASCII_IsDigOct, %function
 298              	ASCII_IsDigOct:
 299              	.LFB5:
 286:C:\Micrium\Software\uC-LIB\lib_ascii.c **** 
 287:C:\Micrium\Software\uC-LIB\lib_ascii.c **** 
 288:C:\Micrium\Software\uC-LIB\lib_ascii.c **** /*
 289:C:\Micrium\Software\uC-LIB\lib_ascii.c **** ***************************************************************************************************
 290:C:\Micrium\Software\uC-LIB\lib_ascii.c **** *                                          ASCII_IsDigOct()
 291:C:\Micrium\Software\uC-LIB\lib_ascii.c **** *
 292:C:\Micrium\Software\uC-LIB\lib_ascii.c **** * Description : Determine whether a character is an octal-digit character.
 293:C:\Micrium\Software\uC-LIB\lib_ascii.c **** *
 294:C:\Micrium\Software\uC-LIB\lib_ascii.c **** * Argument(s) : c           Character to examine.
 295:C:\Micrium\Software\uC-LIB\lib_ascii.c **** *
 296:C:\Micrium\Software\uC-LIB\lib_ascii.c **** * Return(s)   : DEF_YES, if character is     an octal-digit character.
 297:C:\Micrium\Software\uC-LIB\lib_ascii.c **** *
 298:C:\Micrium\Software\uC-LIB\lib_ascii.c **** *               DEF_NO,	 if character is NOT an octal-digit character.
 299:C:\Micrium\Software\uC-LIB\lib_ascii.c **** *
 300:C:\Micrium\Software\uC-LIB\lib_ascii.c **** * Caller(s)   : Application.
 301:C:\Micrium\Software\uC-LIB\lib_ascii.c **** *
 302:C:\Micrium\Software\uC-LIB\lib_ascii.c **** * Note(s)     : none.
 303:C:\Micrium\Software\uC-LIB\lib_ascii.c **** ***************************************************************************************************
 304:C:\Micrium\Software\uC-LIB\lib_ascii.c **** */
 305:C:\Micrium\Software\uC-LIB\lib_ascii.c **** 
 306:C:\Micrium\Software\uC-LIB\lib_ascii.c **** CPU_BOOLEAN  ASCII_IsDigOct (CPU_CHAR  c)
 307:C:\Micrium\Software\uC-LIB\lib_ascii.c **** {
 300              		.loc 1 307 0
 301              		.cfi_startproc
 302              		@ args = 0, pretend = 0, frame = 16
 303              		@ frame_needed = 1, uses_anonymous_args = 0
 304              		@ link register save eliminated.
 305 0000 80B4     		push	{r7}
 306              	.LCFI15:
 307              		.cfi_def_cfa_offset 4
 308 0002 85B0     		sub	sp, sp, #20
 309              	.LCFI16:
 310              		.cfi_def_cfa_offset 24
 311 0004 00AF     		add	r7, sp, #0
 312              		.cfi_offset 7, -4
 313              	.LCFI17:
 314              		.cfi_def_cfa_register 7
 315 0006 0346     		mov	r3, r0
 316 0008 FB71     		strb	r3, [r7, #7]
ARM GAS  C:\Users\daniel01\AppData\Local\Temp\ccQNbRx9.s 			page 12


 308:C:\Micrium\Software\uC-LIB\lib_ascii.c ****     CPU_BOOLEAN  dig_oct;
 309:C:\Micrium\Software\uC-LIB\lib_ascii.c **** 
 310:C:\Micrium\Software\uC-LIB\lib_ascii.c **** 
 311:C:\Micrium\Software\uC-LIB\lib_ascii.c ****     dig_oct = ASCII_IS_DIG_OCT(c);
 317              		.loc 1 311 0
 318 000a FB79     		ldrb	r3, [r7, #7]	@ zero_extendqisi2
 319 000c 2F2B     		cmp	r3, #47
 320 000e 05D9     		bls	.L27
 321 0010 FB79     		ldrb	r3, [r7, #7]	@ zero_extendqisi2
 322 0012 372B     		cmp	r3, #55
 323 0014 02D8     		bhi	.L27
 324 0016 4FF00103 		mov	r3, #1
 325 001a 01E0     		b	.L28
 326              	.L27:
 327 001c 4FF00003 		mov	r3, #0
 328              	.L28:
 329 0020 FB73     		strb	r3, [r7, #15]
 312:C:\Micrium\Software\uC-LIB\lib_ascii.c **** 
 313:C:\Micrium\Software\uC-LIB\lib_ascii.c ****     return (dig_oct);
 330              		.loc 1 313 0
 331 0022 FB7B     		ldrb	r3, [r7, #15]	@ zero_extendqisi2
 314:C:\Micrium\Software\uC-LIB\lib_ascii.c **** }
 332              		.loc 1 314 0
 333 0024 1846     		mov	r0, r3
 334 0026 07F11407 		add	r7, r7, #20
 335 002a BD46     		mov	sp, r7
 336 002c 80BC     		pop	{r7}
 337 002e 7047     		bx	lr
 338              		.cfi_endproc
 339              	.LFE5:
 340              		.size	ASCII_IsDigOct, .-ASCII_IsDigOct
 341              		.section	.text.ASCII_IsDigHex,"ax",%progbits
 342              		.align	2
 343              		.global	ASCII_IsDigHex
 344              		.thumb
 345              		.thumb_func
 346              		.type	ASCII_IsDigHex, %function
 347              	ASCII_IsDigHex:
 348              	.LFB6:
 315:C:\Micrium\Software\uC-LIB\lib_ascii.c **** 
 316:C:\Micrium\Software\uC-LIB\lib_ascii.c **** 
 317:C:\Micrium\Software\uC-LIB\lib_ascii.c **** /*
 318:C:\Micrium\Software\uC-LIB\lib_ascii.c **** ***************************************************************************************************
 319:C:\Micrium\Software\uC-LIB\lib_ascii.c **** *                                          ASCII_IsDigHex()
 320:C:\Micrium\Software\uC-LIB\lib_ascii.c **** *
 321:C:\Micrium\Software\uC-LIB\lib_ascii.c **** * Description : Determine whether a character is a hexadecimal-digit character.
 322:C:\Micrium\Software\uC-LIB\lib_ascii.c **** *
 323:C:\Micrium\Software\uC-LIB\lib_ascii.c **** * Argument(s) : c           Character to examine.
 324:C:\Micrium\Software\uC-LIB\lib_ascii.c **** *
 325:C:\Micrium\Software\uC-LIB\lib_ascii.c **** * Return(s)   : DEF_YES, if character is     a hexadecimal-digit character.
 326:C:\Micrium\Software\uC-LIB\lib_ascii.c **** *
 327:C:\Micrium\Software\uC-LIB\lib_ascii.c **** *               DEF_NO,	 if character is NOT a hexadecimal-digit character.
 328:C:\Micrium\Software\uC-LIB\lib_ascii.c **** *
 329:C:\Micrium\Software\uC-LIB\lib_ascii.c **** * Caller(s)   : Application.
 330:C:\Micrium\Software\uC-LIB\lib_ascii.c **** *
 331:C:\Micrium\Software\uC-LIB\lib_ascii.c **** * Note(s)     : (1) ISO/IEC 9899:TC2, Section 7.4.1.12.(2) states that "isxdigit() ... tests for an
 332:C:\Micrium\Software\uC-LIB\lib_ascii.c **** *                   hexadecimal-digit character".
ARM GAS  C:\Users\daniel01\AppData\Local\Temp\ccQNbRx9.s 			page 13


 333:C:\Micrium\Software\uC-LIB\lib_ascii.c **** ***************************************************************************************************
 334:C:\Micrium\Software\uC-LIB\lib_ascii.c **** */
 335:C:\Micrium\Software\uC-LIB\lib_ascii.c **** 
 336:C:\Micrium\Software\uC-LIB\lib_ascii.c **** CPU_BOOLEAN  ASCII_IsDigHex (CPU_CHAR  c)
 337:C:\Micrium\Software\uC-LIB\lib_ascii.c **** {
 349              		.loc 1 337 0
 350              		.cfi_startproc
 351              		@ args = 0, pretend = 0, frame = 16
 352              		@ frame_needed = 1, uses_anonymous_args = 0
 353              		@ link register save eliminated.
 354 0000 80B4     		push	{r7}
 355              	.LCFI18:
 356              		.cfi_def_cfa_offset 4
 357 0002 85B0     		sub	sp, sp, #20
 358              	.LCFI19:
 359              		.cfi_def_cfa_offset 24
 360 0004 00AF     		add	r7, sp, #0
 361              		.cfi_offset 7, -4
 362              	.LCFI20:
 363              		.cfi_def_cfa_register 7
 364 0006 0346     		mov	r3, r0
 365 0008 FB71     		strb	r3, [r7, #7]
 338:C:\Micrium\Software\uC-LIB\lib_ascii.c ****     CPU_BOOLEAN  dig_hex;
 339:C:\Micrium\Software\uC-LIB\lib_ascii.c **** 
 340:C:\Micrium\Software\uC-LIB\lib_ascii.c **** 
 341:C:\Micrium\Software\uC-LIB\lib_ascii.c ****     dig_hex = ASCII_IS_DIG_HEX(c);
 366              		.loc 1 341 0
 367 000a FB79     		ldrb	r3, [r7, #7]	@ zero_extendqisi2
 368 000c 2F2B     		cmp	r3, #47
 369 000e 02D9     		bls	.L31
 370 0010 FB79     		ldrb	r3, [r7, #7]	@ zero_extendqisi2
 371 0012 392B     		cmp	r3, #57
 372 0014 0BD9     		bls	.L32
 373              	.L31:
 374 0016 FB79     		ldrb	r3, [r7, #7]	@ zero_extendqisi2
 375 0018 402B     		cmp	r3, #64
 376 001a 02D9     		bls	.L33
 377 001c FB79     		ldrb	r3, [r7, #7]	@ zero_extendqisi2
 378 001e 462B     		cmp	r3, #70
 379 0020 05D9     		bls	.L32
 380              	.L33:
 381 0022 FB79     		ldrb	r3, [r7, #7]	@ zero_extendqisi2
 382 0024 602B     		cmp	r3, #96
 383 0026 05D9     		bls	.L34
 384 0028 FB79     		ldrb	r3, [r7, #7]	@ zero_extendqisi2
 385 002a 662B     		cmp	r3, #102
 386 002c 02D8     		bhi	.L34
 387              	.L32:
 388 002e 4FF00103 		mov	r3, #1
 389 0032 01E0     		b	.L35
 390              	.L34:
 391 0034 4FF00003 		mov	r3, #0
 392              	.L35:
 393 0038 FB73     		strb	r3, [r7, #15]
 342:C:\Micrium\Software\uC-LIB\lib_ascii.c **** 
 343:C:\Micrium\Software\uC-LIB\lib_ascii.c ****     return (dig_hex);
 394              		.loc 1 343 0
ARM GAS  C:\Users\daniel01\AppData\Local\Temp\ccQNbRx9.s 			page 14


 395 003a FB7B     		ldrb	r3, [r7, #15]	@ zero_extendqisi2
 344:C:\Micrium\Software\uC-LIB\lib_ascii.c **** }
 396              		.loc 1 344 0
 397 003c 1846     		mov	r0, r3
 398 003e 07F11407 		add	r7, r7, #20
 399 0042 BD46     		mov	sp, r7
 400 0044 80BC     		pop	{r7}
 401 0046 7047     		bx	lr
 402              		.cfi_endproc
 403              	.LFE6:
 404              		.size	ASCII_IsDigHex, .-ASCII_IsDigHex
 405              		.section	.text.ASCII_IsBlank,"ax",%progbits
 406              		.align	2
 407              		.global	ASCII_IsBlank
 408              		.thumb
 409              		.thumb_func
 410              		.type	ASCII_IsBlank, %function
 411              	ASCII_IsBlank:
 412              	.LFB7:
 345:C:\Micrium\Software\uC-LIB\lib_ascii.c **** 
 346:C:\Micrium\Software\uC-LIB\lib_ascii.c **** 
 347:C:\Micrium\Software\uC-LIB\lib_ascii.c **** /*$PAGE*/
 348:C:\Micrium\Software\uC-LIB\lib_ascii.c **** /*
 349:C:\Micrium\Software\uC-LIB\lib_ascii.c **** ***************************************************************************************************
 350:C:\Micrium\Software\uC-LIB\lib_ascii.c **** *                                           ASCII_IsBlank()
 351:C:\Micrium\Software\uC-LIB\lib_ascii.c **** *
 352:C:\Micrium\Software\uC-LIB\lib_ascii.c **** * Description : Determine whether a character is a standard blank character.
 353:C:\Micrium\Software\uC-LIB\lib_ascii.c **** *
 354:C:\Micrium\Software\uC-LIB\lib_ascii.c **** * Argument(s) : c           Character to examine.
 355:C:\Micrium\Software\uC-LIB\lib_ascii.c **** *
 356:C:\Micrium\Software\uC-LIB\lib_ascii.c **** * Return(s)   : DEF_YES, if character is     a standard blank character.
 357:C:\Micrium\Software\uC-LIB\lib_ascii.c **** *
 358:C:\Micrium\Software\uC-LIB\lib_ascii.c **** *               DEF_NO,	 if character is NOT a standard blank character.
 359:C:\Micrium\Software\uC-LIB\lib_ascii.c **** *
 360:C:\Micrium\Software\uC-LIB\lib_ascii.c **** * Caller(s)   : Application.
 361:C:\Micrium\Software\uC-LIB\lib_ascii.c **** *
 362:C:\Micrium\Software\uC-LIB\lib_ascii.c **** * Note(s)     : (1) (a) ISO/IEC 9899:TC2, Section 7.4.1.3.(2) states that "isblank() returns true o
 363:C:\Micrium\Software\uC-LIB\lib_ascii.c **** *                       the standard blank characters".
 364:C:\Micrium\Software\uC-LIB\lib_ascii.c **** *
 365:C:\Micrium\Software\uC-LIB\lib_ascii.c **** *                   (b) ISO/IEC 9899:TC2, Section 7.4.1.3.(2) defines "the standard blank character
 366:C:\Micrium\Software\uC-LIB\lib_ascii.c **** *                       the "space (' '), and horizontal tab ('\t')".
 367:C:\Micrium\Software\uC-LIB\lib_ascii.c **** ***************************************************************************************************
 368:C:\Micrium\Software\uC-LIB\lib_ascii.c **** */
 369:C:\Micrium\Software\uC-LIB\lib_ascii.c **** 
 370:C:\Micrium\Software\uC-LIB\lib_ascii.c **** CPU_BOOLEAN  ASCII_IsBlank (CPU_CHAR  c)
 371:C:\Micrium\Software\uC-LIB\lib_ascii.c **** {
 413              		.loc 1 371 0
 414              		.cfi_startproc
 415              		@ args = 0, pretend = 0, frame = 16
 416              		@ frame_needed = 1, uses_anonymous_args = 0
 417              		@ link register save eliminated.
 418 0000 80B4     		push	{r7}
 419              	.LCFI21:
 420              		.cfi_def_cfa_offset 4
 421 0002 85B0     		sub	sp, sp, #20
 422              	.LCFI22:
 423              		.cfi_def_cfa_offset 24
ARM GAS  C:\Users\daniel01\AppData\Local\Temp\ccQNbRx9.s 			page 15


 424 0004 00AF     		add	r7, sp, #0
 425              		.cfi_offset 7, -4
 426              	.LCFI23:
 427              		.cfi_def_cfa_register 7
 428 0006 0346     		mov	r3, r0
 429 0008 FB71     		strb	r3, [r7, #7]
 372:C:\Micrium\Software\uC-LIB\lib_ascii.c ****     CPU_BOOLEAN  blank;
 373:C:\Micrium\Software\uC-LIB\lib_ascii.c **** 
 374:C:\Micrium\Software\uC-LIB\lib_ascii.c **** 
 375:C:\Micrium\Software\uC-LIB\lib_ascii.c ****     blank = ASCII_IS_BLANK(c);
 430              		.loc 1 375 0
 431 000a FB79     		ldrb	r3, [r7, #7]	@ zero_extendqisi2
 432 000c 202B     		cmp	r3, #32
 433 000e 02D0     		beq	.L38
 434 0010 FB79     		ldrb	r3, [r7, #7]	@ zero_extendqisi2
 435 0012 092B     		cmp	r3, #9
 436 0014 02D1     		bne	.L39
 437              	.L38:
 438 0016 4FF00103 		mov	r3, #1
 439 001a 01E0     		b	.L40
 440              	.L39:
 441 001c 4FF00003 		mov	r3, #0
 442              	.L40:
 443 0020 FB73     		strb	r3, [r7, #15]
 376:C:\Micrium\Software\uC-LIB\lib_ascii.c **** 
 377:C:\Micrium\Software\uC-LIB\lib_ascii.c ****     return (blank);
 444              		.loc 1 377 0
 445 0022 FB7B     		ldrb	r3, [r7, #15]	@ zero_extendqisi2
 378:C:\Micrium\Software\uC-LIB\lib_ascii.c **** }
 446              		.loc 1 378 0
 447 0024 1846     		mov	r0, r3
 448 0026 07F11407 		add	r7, r7, #20
 449 002a BD46     		mov	sp, r7
 450 002c 80BC     		pop	{r7}
 451 002e 7047     		bx	lr
 452              		.cfi_endproc
 453              	.LFE7:
 454              		.size	ASCII_IsBlank, .-ASCII_IsBlank
 455              		.section	.text.ASCII_IsSpace,"ax",%progbits
 456              		.align	2
 457              		.global	ASCII_IsSpace
 458              		.thumb
 459              		.thumb_func
 460              		.type	ASCII_IsSpace, %function
 461              	ASCII_IsSpace:
 462              	.LFB8:
 379:C:\Micrium\Software\uC-LIB\lib_ascii.c **** 
 380:C:\Micrium\Software\uC-LIB\lib_ascii.c **** 
 381:C:\Micrium\Software\uC-LIB\lib_ascii.c **** /*
 382:C:\Micrium\Software\uC-LIB\lib_ascii.c **** ***************************************************************************************************
 383:C:\Micrium\Software\uC-LIB\lib_ascii.c **** *                                           ASCII_IsSpace()
 384:C:\Micrium\Software\uC-LIB\lib_ascii.c **** *
 385:C:\Micrium\Software\uC-LIB\lib_ascii.c **** * Description : Determine whether a character is a white-space character.
 386:C:\Micrium\Software\uC-LIB\lib_ascii.c **** *
 387:C:\Micrium\Software\uC-LIB\lib_ascii.c **** * Argument(s) : c           Character to examine.
 388:C:\Micrium\Software\uC-LIB\lib_ascii.c **** *
 389:C:\Micrium\Software\uC-LIB\lib_ascii.c **** * Return(s)   : DEF_YES, if character is     a white-space character.
ARM GAS  C:\Users\daniel01\AppData\Local\Temp\ccQNbRx9.s 			page 16


 390:C:\Micrium\Software\uC-LIB\lib_ascii.c **** *
 391:C:\Micrium\Software\uC-LIB\lib_ascii.c **** *               DEF_NO,	 if character is NOT a white-space character.
 392:C:\Micrium\Software\uC-LIB\lib_ascii.c **** *
 393:C:\Micrium\Software\uC-LIB\lib_ascii.c **** * Caller(s)   : Application.
 394:C:\Micrium\Software\uC-LIB\lib_ascii.c **** *
 395:C:\Micrium\Software\uC-LIB\lib_ascii.c **** * Note(s)     : (1) (a) ISO/IEC 9899:TC2, Section 7.4.1.10.(2) states that "isspace() returns true 
 396:C:\Micrium\Software\uC-LIB\lib_ascii.c **** *                       for the standard white-space characters".
 397:C:\Micrium\Software\uC-LIB\lib_ascii.c **** *
 398:C:\Micrium\Software\uC-LIB\lib_ascii.c **** *                   (b) ISO/IEC 9899:TC2, Section 7.4.1.10.(2) defines "the standard white-space ch
 399:C:\Micrium\Software\uC-LIB\lib_ascii.c **** *                       as the "space (' '), form feed ('\f'), new-line ('\n'), carriage return ('\
 400:C:\Micrium\Software\uC-LIB\lib_ascii.c **** *                       horizontal tab ('\t'), and vertical tab ('\v')".
 401:C:\Micrium\Software\uC-LIB\lib_ascii.c **** ***************************************************************************************************
 402:C:\Micrium\Software\uC-LIB\lib_ascii.c **** */
 403:C:\Micrium\Software\uC-LIB\lib_ascii.c **** 
 404:C:\Micrium\Software\uC-LIB\lib_ascii.c **** CPU_BOOLEAN  ASCII_IsSpace (CPU_CHAR  c)
 405:C:\Micrium\Software\uC-LIB\lib_ascii.c **** {
 463              		.loc 1 405 0
 464              		.cfi_startproc
 465              		@ args = 0, pretend = 0, frame = 16
 466              		@ frame_needed = 1, uses_anonymous_args = 0
 467              		@ link register save eliminated.
 468 0000 80B4     		push	{r7}
 469              	.LCFI24:
 470              		.cfi_def_cfa_offset 4
 471 0002 85B0     		sub	sp, sp, #20
 472              	.LCFI25:
 473              		.cfi_def_cfa_offset 24
 474 0004 00AF     		add	r7, sp, #0
 475              		.cfi_offset 7, -4
 476              	.LCFI26:
 477              		.cfi_def_cfa_register 7
 478 0006 0346     		mov	r3, r0
 479 0008 FB71     		strb	r3, [r7, #7]
 406:C:\Micrium\Software\uC-LIB\lib_ascii.c ****     CPU_BOOLEAN  space;
 407:C:\Micrium\Software\uC-LIB\lib_ascii.c **** 
 408:C:\Micrium\Software\uC-LIB\lib_ascii.c **** 
 409:C:\Micrium\Software\uC-LIB\lib_ascii.c ****     space = ASCII_IS_SPACE(c);
 480              		.loc 1 409 0
 481 000a FB79     		ldrb	r3, [r7, #7]	@ zero_extendqisi2
 482 000c 202B     		cmp	r3, #32
 483 000e 0ED0     		beq	.L43
 484 0010 FB79     		ldrb	r3, [r7, #7]	@ zero_extendqisi2
 485 0012 0D2B     		cmp	r3, #13
 486 0014 0BD0     		beq	.L43
 487 0016 FB79     		ldrb	r3, [r7, #7]	@ zero_extendqisi2
 488 0018 0A2B     		cmp	r3, #10
 489 001a 08D0     		beq	.L43
 490 001c FB79     		ldrb	r3, [r7, #7]	@ zero_extendqisi2
 491 001e 0C2B     		cmp	r3, #12
 492 0020 05D0     		beq	.L43
 493 0022 FB79     		ldrb	r3, [r7, #7]	@ zero_extendqisi2
 494 0024 092B     		cmp	r3, #9
 495 0026 02D0     		beq	.L43
 496 0028 FB79     		ldrb	r3, [r7, #7]	@ zero_extendqisi2
 497 002a 0B2B     		cmp	r3, #11
 498 002c 02D1     		bne	.L44
 499              	.L43:
ARM GAS  C:\Users\daniel01\AppData\Local\Temp\ccQNbRx9.s 			page 17


 500 002e 4FF00103 		mov	r3, #1
 501 0032 01E0     		b	.L45
 502              	.L44:
 503 0034 4FF00003 		mov	r3, #0
 504              	.L45:
 505 0038 FB73     		strb	r3, [r7, #15]
 410:C:\Micrium\Software\uC-LIB\lib_ascii.c **** 
 411:C:\Micrium\Software\uC-LIB\lib_ascii.c ****     return (space);
 506              		.loc 1 411 0
 507 003a FB7B     		ldrb	r3, [r7, #15]	@ zero_extendqisi2
 412:C:\Micrium\Software\uC-LIB\lib_ascii.c **** }
 508              		.loc 1 412 0
 509 003c 1846     		mov	r0, r3
 510 003e 07F11407 		add	r7, r7, #20
 511 0042 BD46     		mov	sp, r7
 512 0044 80BC     		pop	{r7}
 513 0046 7047     		bx	lr
 514              		.cfi_endproc
 515              	.LFE8:
 516              		.size	ASCII_IsSpace, .-ASCII_IsSpace
 517              		.section	.text.ASCII_IsPrint,"ax",%progbits
 518              		.align	2
 519              		.global	ASCII_IsPrint
 520              		.thumb
 521              		.thumb_func
 522              		.type	ASCII_IsPrint, %function
 523              	ASCII_IsPrint:
 524              	.LFB9:
 413:C:\Micrium\Software\uC-LIB\lib_ascii.c **** 
 414:C:\Micrium\Software\uC-LIB\lib_ascii.c **** 
 415:C:\Micrium\Software\uC-LIB\lib_ascii.c **** /*$PAGE*/
 416:C:\Micrium\Software\uC-LIB\lib_ascii.c **** /*
 417:C:\Micrium\Software\uC-LIB\lib_ascii.c **** ***************************************************************************************************
 418:C:\Micrium\Software\uC-LIB\lib_ascii.c **** *                                           ASCII_IsPrint()
 419:C:\Micrium\Software\uC-LIB\lib_ascii.c **** *
 420:C:\Micrium\Software\uC-LIB\lib_ascii.c **** * Description : Determine whether a character is a printing character.
 421:C:\Micrium\Software\uC-LIB\lib_ascii.c **** *
 422:C:\Micrium\Software\uC-LIB\lib_ascii.c **** * Argument(s) : c           Character to examine.
 423:C:\Micrium\Software\uC-LIB\lib_ascii.c **** *
 424:C:\Micrium\Software\uC-LIB\lib_ascii.c **** * Return(s)   : DEF_YES, if character is     a printing character.
 425:C:\Micrium\Software\uC-LIB\lib_ascii.c **** *
 426:C:\Micrium\Software\uC-LIB\lib_ascii.c **** *               DEF_NO,	 if character is NOT a printing character.
 427:C:\Micrium\Software\uC-LIB\lib_ascii.c **** *
 428:C:\Micrium\Software\uC-LIB\lib_ascii.c **** * Caller(s)   : Application.
 429:C:\Micrium\Software\uC-LIB\lib_ascii.c **** *
 430:C:\Micrium\Software\uC-LIB\lib_ascii.c **** * Note(s)     : (1) (a) ISO/IEC 9899:TC2, Section 7.4.1.8.(2) states that "isprint() ... tests for 
 431:C:\Micrium\Software\uC-LIB\lib_ascii.c **** *                       printing character including space (' ')".
 432:C:\Micrium\Software\uC-LIB\lib_ascii.c **** *
 433:C:\Micrium\Software\uC-LIB\lib_ascii.c **** *                   (b) ISO/IEC 9899:TC2, Section 7.4.(3), Note 169, states that in "the seven-bit 
 434:C:\Micrium\Software\uC-LIB\lib_ascii.c **** *                       ASCII character set, the printing characters are those whose values lie fro
 435:C:\Micrium\Software\uC-LIB\lib_ascii.c **** *                       0x20 (space) through 0x7E (tilde)".
 436:C:\Micrium\Software\uC-LIB\lib_ascii.c **** ***************************************************************************************************
 437:C:\Micrium\Software\uC-LIB\lib_ascii.c **** */
 438:C:\Micrium\Software\uC-LIB\lib_ascii.c **** 
 439:C:\Micrium\Software\uC-LIB\lib_ascii.c **** CPU_BOOLEAN  ASCII_IsPrint (CPU_CHAR  c)
 440:C:\Micrium\Software\uC-LIB\lib_ascii.c **** {
 525              		.loc 1 440 0
ARM GAS  C:\Users\daniel01\AppData\Local\Temp\ccQNbRx9.s 			page 18


 526              		.cfi_startproc
 527              		@ args = 0, pretend = 0, frame = 16
 528              		@ frame_needed = 1, uses_anonymous_args = 0
 529              		@ link register save eliminated.
 530 0000 80B4     		push	{r7}
 531              	.LCFI27:
 532              		.cfi_def_cfa_offset 4
 533 0002 85B0     		sub	sp, sp, #20
 534              	.LCFI28:
 535              		.cfi_def_cfa_offset 24
 536 0004 00AF     		add	r7, sp, #0
 537              		.cfi_offset 7, -4
 538              	.LCFI29:
 539              		.cfi_def_cfa_register 7
 540 0006 0346     		mov	r3, r0
 541 0008 FB71     		strb	r3, [r7, #7]
 441:C:\Micrium\Software\uC-LIB\lib_ascii.c ****     CPU_BOOLEAN  print;
 442:C:\Micrium\Software\uC-LIB\lib_ascii.c **** 
 443:C:\Micrium\Software\uC-LIB\lib_ascii.c **** 
 444:C:\Micrium\Software\uC-LIB\lib_ascii.c ****     print = ASCII_IS_PRINT(c);
 542              		.loc 1 444 0
 543 000a FB79     		ldrb	r3, [r7, #7]	@ zero_extendqisi2
 544 000c 1F2B     		cmp	r3, #31
 545 000e 05D9     		bls	.L48
 546 0010 FB79     		ldrb	r3, [r7, #7]	@ zero_extendqisi2
 547 0012 7E2B     		cmp	r3, #126
 548 0014 02D8     		bhi	.L48
 549 0016 4FF00103 		mov	r3, #1
 550 001a 01E0     		b	.L49
 551              	.L48:
 552 001c 4FF00003 		mov	r3, #0
 553              	.L49:
 554 0020 FB73     		strb	r3, [r7, #15]
 445:C:\Micrium\Software\uC-LIB\lib_ascii.c **** 
 446:C:\Micrium\Software\uC-LIB\lib_ascii.c ****     return (print);
 555              		.loc 1 446 0
 556 0022 FB7B     		ldrb	r3, [r7, #15]	@ zero_extendqisi2
 447:C:\Micrium\Software\uC-LIB\lib_ascii.c **** }
 557              		.loc 1 447 0
 558 0024 1846     		mov	r0, r3
 559 0026 07F11407 		add	r7, r7, #20
 560 002a BD46     		mov	sp, r7
 561 002c 80BC     		pop	{r7}
 562 002e 7047     		bx	lr
 563              		.cfi_endproc
 564              	.LFE9:
 565              		.size	ASCII_IsPrint, .-ASCII_IsPrint
 566              		.section	.text.ASCII_IsGraph,"ax",%progbits
 567              		.align	2
 568              		.global	ASCII_IsGraph
 569              		.thumb
 570              		.thumb_func
 571              		.type	ASCII_IsGraph, %function
 572              	ASCII_IsGraph:
 573              	.LFB10:
 448:C:\Micrium\Software\uC-LIB\lib_ascii.c **** 
 449:C:\Micrium\Software\uC-LIB\lib_ascii.c **** 
ARM GAS  C:\Users\daniel01\AppData\Local\Temp\ccQNbRx9.s 			page 19


 450:C:\Micrium\Software\uC-LIB\lib_ascii.c **** /*
 451:C:\Micrium\Software\uC-LIB\lib_ascii.c **** ***************************************************************************************************
 452:C:\Micrium\Software\uC-LIB\lib_ascii.c **** *                                           ASCII_IsGraph()
 453:C:\Micrium\Software\uC-LIB\lib_ascii.c **** *
 454:C:\Micrium\Software\uC-LIB\lib_ascii.c **** * Description : Determine whether a character is any printing character except a space character.
 455:C:\Micrium\Software\uC-LIB\lib_ascii.c **** *
 456:C:\Micrium\Software\uC-LIB\lib_ascii.c **** * Argument(s) : c           Character to examine.
 457:C:\Micrium\Software\uC-LIB\lib_ascii.c **** *
 458:C:\Micrium\Software\uC-LIB\lib_ascii.c **** * Return(s)   : DEF_YES, if character is     a graphic character.
 459:C:\Micrium\Software\uC-LIB\lib_ascii.c **** *
 460:C:\Micrium\Software\uC-LIB\lib_ascii.c **** *               DEF_NO,	 if character is NOT a graphic character.
 461:C:\Micrium\Software\uC-LIB\lib_ascii.c **** *
 462:C:\Micrium\Software\uC-LIB\lib_ascii.c **** * Caller(s)   : Application.
 463:C:\Micrium\Software\uC-LIB\lib_ascii.c **** *
 464:C:\Micrium\Software\uC-LIB\lib_ascii.c **** * Note(s)     : (1) (a) ISO/IEC 9899:TC2, Section 7.4.1.6.(2) states that "isgraph() ... tests for 
 465:C:\Micrium\Software\uC-LIB\lib_ascii.c **** *                       printing character except space (' ')".
 466:C:\Micrium\Software\uC-LIB\lib_ascii.c **** *
 467:C:\Micrium\Software\uC-LIB\lib_ascii.c **** *                   (b) ISO/IEC 9899:TC2, Section 7.4.(3), Note 169, states that in "the seven-bit 
 468:C:\Micrium\Software\uC-LIB\lib_ascii.c **** *                       ASCII character set, the printing characters are those whose values lie fro
 469:C:\Micrium\Software\uC-LIB\lib_ascii.c **** *                       0x20 (space) through 0x7E (tilde)".
 470:C:\Micrium\Software\uC-LIB\lib_ascii.c **** ***************************************************************************************************
 471:C:\Micrium\Software\uC-LIB\lib_ascii.c **** */
 472:C:\Micrium\Software\uC-LIB\lib_ascii.c **** 
 473:C:\Micrium\Software\uC-LIB\lib_ascii.c **** CPU_BOOLEAN  ASCII_IsGraph (CPU_CHAR  c)
 474:C:\Micrium\Software\uC-LIB\lib_ascii.c **** {
 574              		.loc 1 474 0
 575              		.cfi_startproc
 576              		@ args = 0, pretend = 0, frame = 16
 577              		@ frame_needed = 1, uses_anonymous_args = 0
 578              		@ link register save eliminated.
 579 0000 80B4     		push	{r7}
 580              	.LCFI30:
 581              		.cfi_def_cfa_offset 4
 582 0002 85B0     		sub	sp, sp, #20
 583              	.LCFI31:
 584              		.cfi_def_cfa_offset 24
 585 0004 00AF     		add	r7, sp, #0
 586              		.cfi_offset 7, -4
 587              	.LCFI32:
 588              		.cfi_def_cfa_register 7
 589 0006 0346     		mov	r3, r0
 590 0008 FB71     		strb	r3, [r7, #7]
 475:C:\Micrium\Software\uC-LIB\lib_ascii.c ****     CPU_BOOLEAN  graph;
 476:C:\Micrium\Software\uC-LIB\lib_ascii.c **** 
 477:C:\Micrium\Software\uC-LIB\lib_ascii.c **** 
 478:C:\Micrium\Software\uC-LIB\lib_ascii.c ****     graph = ASCII_IS_GRAPH(c);
 591              		.loc 1 478 0
 592 000a FB79     		ldrb	r3, [r7, #7]	@ zero_extendqisi2
 593 000c 202B     		cmp	r3, #32
 594 000e 05D9     		bls	.L52
 595 0010 FB79     		ldrb	r3, [r7, #7]	@ zero_extendqisi2
 596 0012 7E2B     		cmp	r3, #126
 597 0014 02D8     		bhi	.L52
 598 0016 4FF00103 		mov	r3, #1
 599 001a 01E0     		b	.L53
 600              	.L52:
 601 001c 4FF00003 		mov	r3, #0
ARM GAS  C:\Users\daniel01\AppData\Local\Temp\ccQNbRx9.s 			page 20


 602              	.L53:
 603 0020 FB73     		strb	r3, [r7, #15]
 479:C:\Micrium\Software\uC-LIB\lib_ascii.c **** 
 480:C:\Micrium\Software\uC-LIB\lib_ascii.c ****     return (graph);
 604              		.loc 1 480 0
 605 0022 FB7B     		ldrb	r3, [r7, #15]	@ zero_extendqisi2
 481:C:\Micrium\Software\uC-LIB\lib_ascii.c **** }
 606              		.loc 1 481 0
 607 0024 1846     		mov	r0, r3
 608 0026 07F11407 		add	r7, r7, #20
 609 002a BD46     		mov	sp, r7
 610 002c 80BC     		pop	{r7}
 611 002e 7047     		bx	lr
 612              		.cfi_endproc
 613              	.LFE10:
 614              		.size	ASCII_IsGraph, .-ASCII_IsGraph
 615              		.section	.text.ASCII_IsPunct,"ax",%progbits
 616              		.align	2
 617              		.global	ASCII_IsPunct
 618              		.thumb
 619              		.thumb_func
 620              		.type	ASCII_IsPunct, %function
 621              	ASCII_IsPunct:
 622              	.LFB11:
 482:C:\Micrium\Software\uC-LIB\lib_ascii.c **** 
 483:C:\Micrium\Software\uC-LIB\lib_ascii.c **** 
 484:C:\Micrium\Software\uC-LIB\lib_ascii.c **** /*$PAGE*/
 485:C:\Micrium\Software\uC-LIB\lib_ascii.c **** /*
 486:C:\Micrium\Software\uC-LIB\lib_ascii.c **** ***************************************************************************************************
 487:C:\Micrium\Software\uC-LIB\lib_ascii.c **** *                                           ASCII_IsPunct()
 488:C:\Micrium\Software\uC-LIB\lib_ascii.c **** *
 489:C:\Micrium\Software\uC-LIB\lib_ascii.c **** * Description : Determine whether a character is a punctuation character.
 490:C:\Micrium\Software\uC-LIB\lib_ascii.c **** *
 491:C:\Micrium\Software\uC-LIB\lib_ascii.c **** * Argument(s) : c           Character to examine.
 492:C:\Micrium\Software\uC-LIB\lib_ascii.c **** *
 493:C:\Micrium\Software\uC-LIB\lib_ascii.c **** * Return(s)   : DEF_YES, if character is     a punctuation character.
 494:C:\Micrium\Software\uC-LIB\lib_ascii.c **** *
 495:C:\Micrium\Software\uC-LIB\lib_ascii.c **** *               DEF_NO,	 if character is NOT a punctuation character.
 496:C:\Micrium\Software\uC-LIB\lib_ascii.c **** *
 497:C:\Micrium\Software\uC-LIB\lib_ascii.c **** * Caller(s)   : Application.
 498:C:\Micrium\Software\uC-LIB\lib_ascii.c **** *
 499:C:\Micrium\Software\uC-LIB\lib_ascii.c **** * Note(s)     : (1) ISO/IEC 9899:TC2, Section 7.4.1.9.(2) states that "ispunct() returns true for e
 500:C:\Micrium\Software\uC-LIB\lib_ascii.c **** *                   printing character for which neither isspace() nor isalnum() is true".
 501:C:\Micrium\Software\uC-LIB\lib_ascii.c **** ***************************************************************************************************
 502:C:\Micrium\Software\uC-LIB\lib_ascii.c **** */
 503:C:\Micrium\Software\uC-LIB\lib_ascii.c **** 
 504:C:\Micrium\Software\uC-LIB\lib_ascii.c **** CPU_BOOLEAN  ASCII_IsPunct (CPU_CHAR  c)
 505:C:\Micrium\Software\uC-LIB\lib_ascii.c **** {
 623              		.loc 1 505 0
 624              		.cfi_startproc
 625              		@ args = 0, pretend = 0, frame = 16
 626              		@ frame_needed = 1, uses_anonymous_args = 0
 627              		@ link register save eliminated.
 628 0000 80B4     		push	{r7}
 629              	.LCFI33:
 630              		.cfi_def_cfa_offset 4
 631 0002 85B0     		sub	sp, sp, #20
ARM GAS  C:\Users\daniel01\AppData\Local\Temp\ccQNbRx9.s 			page 21


 632              	.LCFI34:
 633              		.cfi_def_cfa_offset 24
 634 0004 00AF     		add	r7, sp, #0
 635              		.cfi_offset 7, -4
 636              	.LCFI35:
 637              		.cfi_def_cfa_register 7
 638 0006 0346     		mov	r3, r0
 639 0008 FB71     		strb	r3, [r7, #7]
 506:C:\Micrium\Software\uC-LIB\lib_ascii.c ****     CPU_BOOLEAN  punct;
 507:C:\Micrium\Software\uC-LIB\lib_ascii.c **** 
 508:C:\Micrium\Software\uC-LIB\lib_ascii.c **** 
 509:C:\Micrium\Software\uC-LIB\lib_ascii.c ****     punct = ASCII_IS_PUNCT(c);
 640              		.loc 1 509 0
 641 000a FB79     		ldrb	r3, [r7, #7]	@ zero_extendqisi2
 642 000c 1F2B     		cmp	r3, #31
 643 000e 29D9     		bls	.L56
 644 0010 FB79     		ldrb	r3, [r7, #7]	@ zero_extendqisi2
 645 0012 7E2B     		cmp	r3, #126
 646 0014 26D8     		bhi	.L56
 647 0016 FB79     		ldrb	r3, [r7, #7]	@ zero_extendqisi2
 648 0018 202B     		cmp	r3, #32
 649 001a 23D0     		beq	.L56
 650 001c FB79     		ldrb	r3, [r7, #7]	@ zero_extendqisi2
 651 001e 0D2B     		cmp	r3, #13
 652 0020 20D0     		beq	.L56
 653 0022 FB79     		ldrb	r3, [r7, #7]	@ zero_extendqisi2
 654 0024 0A2B     		cmp	r3, #10
 655 0026 1DD0     		beq	.L56
 656 0028 FB79     		ldrb	r3, [r7, #7]	@ zero_extendqisi2
 657 002a 0C2B     		cmp	r3, #12
 658 002c 1AD0     		beq	.L56
 659 002e FB79     		ldrb	r3, [r7, #7]	@ zero_extendqisi2
 660 0030 092B     		cmp	r3, #9
 661 0032 17D0     		beq	.L56
 662 0034 FB79     		ldrb	r3, [r7, #7]	@ zero_extendqisi2
 663 0036 0B2B     		cmp	r3, #11
 664 0038 14D0     		beq	.L56
 665 003a FB79     		ldrb	r3, [r7, #7]	@ zero_extendqisi2
 666 003c 402B     		cmp	r3, #64
 667 003e 02D9     		bls	.L57
 668 0040 FB79     		ldrb	r3, [r7, #7]	@ zero_extendqisi2
 669 0042 5A2B     		cmp	r3, #90
 670 0044 0ED9     		bls	.L56
 671              	.L57:
 672 0046 FB79     		ldrb	r3, [r7, #7]	@ zero_extendqisi2
 673 0048 602B     		cmp	r3, #96
 674 004a 02D9     		bls	.L58
 675 004c FB79     		ldrb	r3, [r7, #7]	@ zero_extendqisi2
 676 004e 7A2B     		cmp	r3, #122
 677 0050 08D9     		bls	.L56
 678              	.L58:
 679 0052 FB79     		ldrb	r3, [r7, #7]	@ zero_extendqisi2
 680 0054 2F2B     		cmp	r3, #47
 681 0056 02D9     		bls	.L59
 682 0058 FB79     		ldrb	r3, [r7, #7]	@ zero_extendqisi2
 683 005a 392B     		cmp	r3, #57
 684 005c 02D9     		bls	.L56
ARM GAS  C:\Users\daniel01\AppData\Local\Temp\ccQNbRx9.s 			page 22


 685              	.L59:
 686 005e 4FF00103 		mov	r3, #1
 687 0062 01E0     		b	.L60
 688              	.L56:
 689 0064 4FF00003 		mov	r3, #0
 690              	.L60:
 691 0068 FB73     		strb	r3, [r7, #15]
 510:C:\Micrium\Software\uC-LIB\lib_ascii.c **** 
 511:C:\Micrium\Software\uC-LIB\lib_ascii.c ****     return (punct);
 692              		.loc 1 511 0
 693 006a FB7B     		ldrb	r3, [r7, #15]	@ zero_extendqisi2
 512:C:\Micrium\Software\uC-LIB\lib_ascii.c **** }
 694              		.loc 1 512 0
 695 006c 1846     		mov	r0, r3
 696 006e 07F11407 		add	r7, r7, #20
 697 0072 BD46     		mov	sp, r7
 698 0074 80BC     		pop	{r7}
 699 0076 7047     		bx	lr
 700              		.cfi_endproc
 701              	.LFE11:
 702              		.size	ASCII_IsPunct, .-ASCII_IsPunct
 703              		.section	.text.ASCII_IsCtrl,"ax",%progbits
 704              		.align	2
 705              		.global	ASCII_IsCtrl
 706              		.thumb
 707              		.thumb_func
 708              		.type	ASCII_IsCtrl, %function
 709              	ASCII_IsCtrl:
 710              	.LFB12:
 513:C:\Micrium\Software\uC-LIB\lib_ascii.c **** 
 514:C:\Micrium\Software\uC-LIB\lib_ascii.c **** 
 515:C:\Micrium\Software\uC-LIB\lib_ascii.c **** /*
 516:C:\Micrium\Software\uC-LIB\lib_ascii.c **** ***************************************************************************************************
 517:C:\Micrium\Software\uC-LIB\lib_ascii.c **** *                                           ASCII_IsCtrl()
 518:C:\Micrium\Software\uC-LIB\lib_ascii.c **** *
 519:C:\Micrium\Software\uC-LIB\lib_ascii.c **** * Description : Determine whether a character is a control character.
 520:C:\Micrium\Software\uC-LIB\lib_ascii.c **** *
 521:C:\Micrium\Software\uC-LIB\lib_ascii.c **** * Argument(s) : c           Character to examine.
 522:C:\Micrium\Software\uC-LIB\lib_ascii.c **** *
 523:C:\Micrium\Software\uC-LIB\lib_ascii.c **** * Return(s)   : DEF_YES, if character is     a control character.
 524:C:\Micrium\Software\uC-LIB\lib_ascii.c **** *
 525:C:\Micrium\Software\uC-LIB\lib_ascii.c **** *               DEF_NO,	 if character is NOT a control character.
 526:C:\Micrium\Software\uC-LIB\lib_ascii.c **** *
 527:C:\Micrium\Software\uC-LIB\lib_ascii.c **** * Caller(s)   : Application.
 528:C:\Micrium\Software\uC-LIB\lib_ascii.c **** *
 529:C:\Micrium\Software\uC-LIB\lib_ascii.c **** * Note(s)     : (1) (a) ISO/IEC 9899:TC2, Section 7.4.1.4.(2) states that "iscntrl() ... tests for 
 530:C:\Micrium\Software\uC-LIB\lib_ascii.c **** *                       control character".
 531:C:\Micrium\Software\uC-LIB\lib_ascii.c **** *
 532:C:\Micrium\Software\uC-LIB\lib_ascii.c **** *                   (b) ISO/IEC 9899:TC2, Section 7.4.(3), Note 169, states that in "the seven-bit 
 533:C:\Micrium\Software\uC-LIB\lib_ascii.c **** *                       ASCII character set, ... the control characters are those whose values lie 
 534:C:\Micrium\Software\uC-LIB\lib_ascii.c **** *                       0 (NUL) through 0x1F (US), and the character 0x7F (DEL)".
 535:C:\Micrium\Software\uC-LIB\lib_ascii.c **** ***************************************************************************************************
 536:C:\Micrium\Software\uC-LIB\lib_ascii.c **** */
 537:C:\Micrium\Software\uC-LIB\lib_ascii.c **** 
 538:C:\Micrium\Software\uC-LIB\lib_ascii.c **** CPU_BOOLEAN  ASCII_IsCtrl (CPU_CHAR  c)
 539:C:\Micrium\Software\uC-LIB\lib_ascii.c **** {
 711              		.loc 1 539 0
ARM GAS  C:\Users\daniel01\AppData\Local\Temp\ccQNbRx9.s 			page 23


 712              		.cfi_startproc
 713              		@ args = 0, pretend = 0, frame = 16
 714              		@ frame_needed = 1, uses_anonymous_args = 0
 715              		@ link register save eliminated.
 716 0000 80B4     		push	{r7}
 717              	.LCFI36:
 718              		.cfi_def_cfa_offset 4
 719 0002 85B0     		sub	sp, sp, #20
 720              	.LCFI37:
 721              		.cfi_def_cfa_offset 24
 722 0004 00AF     		add	r7, sp, #0
 723              		.cfi_offset 7, -4
 724              	.LCFI38:
 725              		.cfi_def_cfa_register 7
 726 0006 0346     		mov	r3, r0
 727 0008 FB71     		strb	r3, [r7, #7]
 540:C:\Micrium\Software\uC-LIB\lib_ascii.c ****     CPU_BOOLEAN  ctrl;
 541:C:\Micrium\Software\uC-LIB\lib_ascii.c **** 
 542:C:\Micrium\Software\uC-LIB\lib_ascii.c **** 
 543:C:\Micrium\Software\uC-LIB\lib_ascii.c ****     ctrl = ASCII_IS_CTRL(c);
 728              		.loc 1 543 0
 729 000a FB79     		ldrb	r3, [r7, #7]	@ zero_extendqisi2
 730 000c 5BB2     		sxtb	r3, r3
 731 000e 002B     		cmp	r3, #0
 732 0010 02DB     		blt	.L63
 733 0012 FB79     		ldrb	r3, [r7, #7]	@ zero_extendqisi2
 734 0014 1F2B     		cmp	r3, #31
 735 0016 02D9     		bls	.L64
 736              	.L63:
 737 0018 FB79     		ldrb	r3, [r7, #7]	@ zero_extendqisi2
 738 001a 7F2B     		cmp	r3, #127
 739 001c 02D1     		bne	.L65
 740              	.L64:
 741 001e 4FF00103 		mov	r3, #1
 742 0022 01E0     		b	.L66
 743              	.L65:
 744 0024 4FF00003 		mov	r3, #0
 745              	.L66:
 746 0028 FB73     		strb	r3, [r7, #15]
 544:C:\Micrium\Software\uC-LIB\lib_ascii.c **** 
 545:C:\Micrium\Software\uC-LIB\lib_ascii.c ****     return (ctrl);
 747              		.loc 1 545 0
 748 002a FB7B     		ldrb	r3, [r7, #15]	@ zero_extendqisi2
 546:C:\Micrium\Software\uC-LIB\lib_ascii.c **** }
 749              		.loc 1 546 0
 750 002c 1846     		mov	r0, r3
 751 002e 07F11407 		add	r7, r7, #20
 752 0032 BD46     		mov	sp, r7
 753 0034 80BC     		pop	{r7}
 754 0036 7047     		bx	lr
 755              		.cfi_endproc
 756              	.LFE12:
 757              		.size	ASCII_IsCtrl, .-ASCII_IsCtrl
 758              		.section	.text.ASCII_ToLower,"ax",%progbits
 759              		.align	2
 760              		.global	ASCII_ToLower
 761              		.thumb
ARM GAS  C:\Users\daniel01\AppData\Local\Temp\ccQNbRx9.s 			page 24


 762              		.thumb_func
 763              		.type	ASCII_ToLower, %function
 764              	ASCII_ToLower:
 765              	.LFB13:
 547:C:\Micrium\Software\uC-LIB\lib_ascii.c **** 
 548:C:\Micrium\Software\uC-LIB\lib_ascii.c **** 
 549:C:\Micrium\Software\uC-LIB\lib_ascii.c **** /*$PAGE*/
 550:C:\Micrium\Software\uC-LIB\lib_ascii.c **** /*
 551:C:\Micrium\Software\uC-LIB\lib_ascii.c **** ***************************************************************************************************
 552:C:\Micrium\Software\uC-LIB\lib_ascii.c **** *                                           ASCII_ToLower()
 553:C:\Micrium\Software\uC-LIB\lib_ascii.c **** *
 554:C:\Micrium\Software\uC-LIB\lib_ascii.c **** * Description : Convert uppercase alphabetic character to its corresponding lowercase alphabetic ch
 555:C:\Micrium\Software\uC-LIB\lib_ascii.c **** *
 556:C:\Micrium\Software\uC-LIB\lib_ascii.c **** * Argument(s) : c           Character to convert.
 557:C:\Micrium\Software\uC-LIB\lib_ascii.c **** *
 558:C:\Micrium\Software\uC-LIB\lib_ascii.c **** * Return(s)   : Lowercase equivalent of 'c', if character 'c' is an uppercase character (see Note #
 559:C:\Micrium\Software\uC-LIB\lib_ascii.c **** *
 560:C:\Micrium\Software\uC-LIB\lib_ascii.c **** *               Character 'c',               otherwise                                  (see Note #
 561:C:\Micrium\Software\uC-LIB\lib_ascii.c **** *
 562:C:\Micrium\Software\uC-LIB\lib_ascii.c **** * Caller(s)   : Application.
 563:C:\Micrium\Software\uC-LIB\lib_ascii.c **** *
 564:C:\Micrium\Software\uC-LIB\lib_ascii.c **** * Note(s)     : (1) (a) ISO/IEC 9899:TC2, Section 7.4.2.1.(2) states that "tolower() ... converts a
 565:C:\Micrium\Software\uC-LIB\lib_ascii.c **** *                       uppercase letter to a corresponding lowercase letter".
 566:C:\Micrium\Software\uC-LIB\lib_ascii.c **** *
 567:C:\Micrium\Software\uC-LIB\lib_ascii.c **** *                   (b) ISO/IEC 9899:TC2, Section 7.4.2.1.(3) states that :
 568:C:\Micrium\Software\uC-LIB\lib_ascii.c **** *
 569:C:\Micrium\Software\uC-LIB\lib_ascii.c **** *                       (1) (A) "if the argument is a character for which isupper() is true and the
 570:C:\Micrium\Software\uC-LIB\lib_ascii.c **** *                                one or more corresponding characters ... for which islower() is tr
 571:C:\Micrium\Software\uC-LIB\lib_ascii.c **** *                           (B) "tolower() ... returns one of the corresponding characters;" ...
 572:C:\Micrium\Software\uC-LIB\lib_ascii.c **** *
 573:C:\Micrium\Software\uC-LIB\lib_ascii.c **** *                       (2) "otherwise, the argument is returned unchanged."
 574:C:\Micrium\Software\uC-LIB\lib_ascii.c **** ***************************************************************************************************
 575:C:\Micrium\Software\uC-LIB\lib_ascii.c **** */
 576:C:\Micrium\Software\uC-LIB\lib_ascii.c **** 
 577:C:\Micrium\Software\uC-LIB\lib_ascii.c **** CPU_CHAR  ASCII_ToLower (CPU_CHAR  c)
 578:C:\Micrium\Software\uC-LIB\lib_ascii.c **** {
 766              		.loc 1 578 0
 767              		.cfi_startproc
 768              		@ args = 0, pretend = 0, frame = 16
 769              		@ frame_needed = 1, uses_anonymous_args = 0
 770              		@ link register save eliminated.
 771 0000 80B4     		push	{r7}
 772              	.LCFI39:
 773              		.cfi_def_cfa_offset 4
 774 0002 85B0     		sub	sp, sp, #20
 775              	.LCFI40:
 776              		.cfi_def_cfa_offset 24
 777 0004 00AF     		add	r7, sp, #0
 778              		.cfi_offset 7, -4
 779              	.LCFI41:
 780              		.cfi_def_cfa_register 7
 781 0006 0346     		mov	r3, r0
 782 0008 FB71     		strb	r3, [r7, #7]
 579:C:\Micrium\Software\uC-LIB\lib_ascii.c ****     CPU_CHAR  lower;
 580:C:\Micrium\Software\uC-LIB\lib_ascii.c **** 
 581:C:\Micrium\Software\uC-LIB\lib_ascii.c **** 
 582:C:\Micrium\Software\uC-LIB\lib_ascii.c ****     lower = ASCII_TO_LOWER(c);
ARM GAS  C:\Users\daniel01\AppData\Local\Temp\ccQNbRx9.s 			page 25


 783              		.loc 1 582 0
 784 000a FB79     		ldrb	r3, [r7, #7]	@ zero_extendqisi2
 785 000c 402B     		cmp	r3, #64
 786 000e 07D9     		bls	.L69
 787 0010 FB79     		ldrb	r3, [r7, #7]	@ zero_extendqisi2
 788 0012 5A2B     		cmp	r3, #90
 789 0014 04D8     		bhi	.L69
 790 0016 FB79     		ldrb	r3, [r7, #7]
 791 0018 03F12003 		add	r3, r3, #32
 792 001c DBB2     		uxtb	r3, r3
 793 001e 00E0     		b	.L70
 794              	.L69:
 795 0020 FB79     		ldrb	r3, [r7, #7]	@ zero_extendqisi2
 796              	.L70:
 797 0022 FB73     		strb	r3, [r7, #15]
 583:C:\Micrium\Software\uC-LIB\lib_ascii.c **** 
 584:C:\Micrium\Software\uC-LIB\lib_ascii.c ****     return (lower);
 798              		.loc 1 584 0
 799 0024 FB7B     		ldrb	r3, [r7, #15]	@ zero_extendqisi2
 585:C:\Micrium\Software\uC-LIB\lib_ascii.c **** }
 800              		.loc 1 585 0
 801 0026 1846     		mov	r0, r3
 802 0028 07F11407 		add	r7, r7, #20
 803 002c BD46     		mov	sp, r7
 804 002e 80BC     		pop	{r7}
 805 0030 7047     		bx	lr
 806              		.cfi_endproc
 807              	.LFE13:
 808              		.size	ASCII_ToLower, .-ASCII_ToLower
 809 0032 00BF     		.section	.text.ASCII_ToUpper,"ax",%progbits
 810              		.align	2
 811              		.global	ASCII_ToUpper
 812              		.thumb
 813              		.thumb_func
 814              		.type	ASCII_ToUpper, %function
 815              	ASCII_ToUpper:
 816              	.LFB14:
 586:C:\Micrium\Software\uC-LIB\lib_ascii.c **** 
 587:C:\Micrium\Software\uC-LIB\lib_ascii.c **** 
 588:C:\Micrium\Software\uC-LIB\lib_ascii.c **** /*
 589:C:\Micrium\Software\uC-LIB\lib_ascii.c **** ***************************************************************************************************
 590:C:\Micrium\Software\uC-LIB\lib_ascii.c **** *                                           ASCII_ToUpper()
 591:C:\Micrium\Software\uC-LIB\lib_ascii.c **** *
 592:C:\Micrium\Software\uC-LIB\lib_ascii.c **** * Description : Convert lowercase alphabetic character to its corresponding uppercase alphabetic ch
 593:C:\Micrium\Software\uC-LIB\lib_ascii.c **** *
 594:C:\Micrium\Software\uC-LIB\lib_ascii.c **** * Argument(s) : c           Character to convert.
 595:C:\Micrium\Software\uC-LIB\lib_ascii.c **** *
 596:C:\Micrium\Software\uC-LIB\lib_ascii.c **** * Return(s)   : Uppercase equivalent of 'c', if character 'c' is a lowercase character (see Note #1
 597:C:\Micrium\Software\uC-LIB\lib_ascii.c **** *
 598:C:\Micrium\Software\uC-LIB\lib_ascii.c **** *               Character 'c',               otherwise                                 (see Note #1
 599:C:\Micrium\Software\uC-LIB\lib_ascii.c **** *
 600:C:\Micrium\Software\uC-LIB\lib_ascii.c **** * Caller(s)   : Application.
 601:C:\Micrium\Software\uC-LIB\lib_ascii.c **** *
 602:C:\Micrium\Software\uC-LIB\lib_ascii.c **** * Note(s)     : (1) (a) ISO/IEC 9899:TC2, Section 7.4.2.2.(2) states that "toupper() ... converts a
 603:C:\Micrium\Software\uC-LIB\lib_ascii.c **** *                       lowercase letter to a corresponding uppercase letter".
 604:C:\Micrium\Software\uC-LIB\lib_ascii.c **** *
 605:C:\Micrium\Software\uC-LIB\lib_ascii.c **** *                   (b) ISO/IEC 9899:TC2, Section 7.4.2.2.(3) states that :
ARM GAS  C:\Users\daniel01\AppData\Local\Temp\ccQNbRx9.s 			page 26


 606:C:\Micrium\Software\uC-LIB\lib_ascii.c **** *
 607:C:\Micrium\Software\uC-LIB\lib_ascii.c **** *                       (1) (A) "if the argument is a character for which islower() is true and the
 608:C:\Micrium\Software\uC-LIB\lib_ascii.c **** *                                one or more corresponding characters ... for which isupper() is tr
 609:C:\Micrium\Software\uC-LIB\lib_ascii.c **** *                           (B) "toupper() ... returns one of the corresponding characters;" ...
 610:C:\Micrium\Software\uC-LIB\lib_ascii.c **** *
 611:C:\Micrium\Software\uC-LIB\lib_ascii.c **** *                       (2) "otherwise, the argument is returned unchanged."
 612:C:\Micrium\Software\uC-LIB\lib_ascii.c **** ***************************************************************************************************
 613:C:\Micrium\Software\uC-LIB\lib_ascii.c **** */
 614:C:\Micrium\Software\uC-LIB\lib_ascii.c **** 
 615:C:\Micrium\Software\uC-LIB\lib_ascii.c **** CPU_CHAR  ASCII_ToUpper (CPU_CHAR  c)
 616:C:\Micrium\Software\uC-LIB\lib_ascii.c **** {
 817              		.loc 1 616 0
 818              		.cfi_startproc
 819              		@ args = 0, pretend = 0, frame = 16
 820              		@ frame_needed = 1, uses_anonymous_args = 0
 821              		@ link register save eliminated.
 822 0000 80B4     		push	{r7}
 823              	.LCFI42:
 824              		.cfi_def_cfa_offset 4
 825 0002 85B0     		sub	sp, sp, #20
 826              	.LCFI43:
 827              		.cfi_def_cfa_offset 24
 828 0004 00AF     		add	r7, sp, #0
 829              		.cfi_offset 7, -4
 830              	.LCFI44:
 831              		.cfi_def_cfa_register 7
 832 0006 0346     		mov	r3, r0
 833 0008 FB71     		strb	r3, [r7, #7]
 617:C:\Micrium\Software\uC-LIB\lib_ascii.c ****     CPU_CHAR  upper;
 618:C:\Micrium\Software\uC-LIB\lib_ascii.c **** 
 619:C:\Micrium\Software\uC-LIB\lib_ascii.c **** 
 620:C:\Micrium\Software\uC-LIB\lib_ascii.c ****     upper = ASCII_TO_UPPER(c);
 834              		.loc 1 620 0
 835 000a FB79     		ldrb	r3, [r7, #7]	@ zero_extendqisi2
 836 000c 602B     		cmp	r3, #96
 837 000e 07D9     		bls	.L73
 838 0010 FB79     		ldrb	r3, [r7, #7]	@ zero_extendqisi2
 839 0012 7A2B     		cmp	r3, #122
 840 0014 04D8     		bhi	.L73
 841 0016 FB79     		ldrb	r3, [r7, #7]
 842 0018 A3F12003 		sub	r3, r3, #32
 843 001c DBB2     		uxtb	r3, r3
 844 001e 00E0     		b	.L74
 845              	.L73:
 846 0020 FB79     		ldrb	r3, [r7, #7]	@ zero_extendqisi2
 847              	.L74:
 848 0022 FB73     		strb	r3, [r7, #15]
 621:C:\Micrium\Software\uC-LIB\lib_ascii.c **** 
 622:C:\Micrium\Software\uC-LIB\lib_ascii.c ****     return (upper);
 849              		.loc 1 622 0
 850 0024 FB7B     		ldrb	r3, [r7, #15]	@ zero_extendqisi2
 623:C:\Micrium\Software\uC-LIB\lib_ascii.c **** }
 851              		.loc 1 623 0
 852 0026 1846     		mov	r0, r3
 853 0028 07F11407 		add	r7, r7, #20
 854 002c BD46     		mov	sp, r7
 855 002e 80BC     		pop	{r7}
ARM GAS  C:\Users\daniel01\AppData\Local\Temp\ccQNbRx9.s 			page 27


 856 0030 7047     		bx	lr
 857              		.cfi_endproc
 858              	.LFE14:
 859              		.size	ASCII_ToUpper, .-ASCII_ToUpper
 860 0032 00BF     		.section	.text.ASCII_Cmp,"ax",%progbits
 861              		.align	2
 862              		.global	ASCII_Cmp
 863              		.thumb
 864              		.thumb_func
 865              		.type	ASCII_Cmp, %function
 866              	ASCII_Cmp:
 867              	.LFB15:
 624:C:\Micrium\Software\uC-LIB\lib_ascii.c **** 
 625:C:\Micrium\Software\uC-LIB\lib_ascii.c **** 
 626:C:\Micrium\Software\uC-LIB\lib_ascii.c **** /*$PAGE*/
 627:C:\Micrium\Software\uC-LIB\lib_ascii.c **** /*
 628:C:\Micrium\Software\uC-LIB\lib_ascii.c **** ***************************************************************************************************
 629:C:\Micrium\Software\uC-LIB\lib_ascii.c **** *                                             ASCII_Cmp()
 630:C:\Micrium\Software\uC-LIB\lib_ascii.c **** *
 631:C:\Micrium\Software\uC-LIB\lib_ascii.c **** * Description : Determine if two characters are identical (case-insensitive).
 632:C:\Micrium\Software\uC-LIB\lib_ascii.c **** *
 633:C:\Micrium\Software\uC-LIB\lib_ascii.c **** * Argument(s) : c1          First  character.
 634:C:\Micrium\Software\uC-LIB\lib_ascii.c **** *
 635:C:\Micrium\Software\uC-LIB\lib_ascii.c **** *               c2          Second character.
 636:C:\Micrium\Software\uC-LIB\lib_ascii.c **** *
 637:C:\Micrium\Software\uC-LIB\lib_ascii.c **** * Return(s)   : DEF_YES, if the characters are     identical.
 638:C:\Micrium\Software\uC-LIB\lib_ascii.c **** *
 639:C:\Micrium\Software\uC-LIB\lib_ascii.c **** *               DEF_NO,  if the characters are NOT identical.
 640:C:\Micrium\Software\uC-LIB\lib_ascii.c **** *
 641:C:\Micrium\Software\uC-LIB\lib_ascii.c **** * Caller(s)   : Application.
 642:C:\Micrium\Software\uC-LIB\lib_ascii.c **** *
 643:C:\Micrium\Software\uC-LIB\lib_ascii.c **** * Note(s)     : none.
 644:C:\Micrium\Software\uC-LIB\lib_ascii.c **** ***************************************************************************************************
 645:C:\Micrium\Software\uC-LIB\lib_ascii.c **** */
 646:C:\Micrium\Software\uC-LIB\lib_ascii.c **** 
 647:C:\Micrium\Software\uC-LIB\lib_ascii.c **** CPU_BOOLEAN  ASCII_Cmp (CPU_CHAR  c1,
 648:C:\Micrium\Software\uC-LIB\lib_ascii.c ****                         CPU_CHAR  c2)
 649:C:\Micrium\Software\uC-LIB\lib_ascii.c **** {
 868              		.loc 1 649 0
 869              		.cfi_startproc
 870              		@ args = 0, pretend = 0, frame = 16
 871              		@ frame_needed = 1, uses_anonymous_args = 0
 872 0000 80B5     		push	{r7, lr}
 873              	.LCFI45:
 874              		.cfi_def_cfa_offset 8
 875 0002 84B0     		sub	sp, sp, #16
 876              	.LCFI46:
 877              		.cfi_def_cfa_offset 24
 878 0004 00AF     		add	r7, sp, #0
 879              		.cfi_offset 14, -4
 880              		.cfi_offset 7, -8
 881              	.LCFI47:
 882              		.cfi_def_cfa_register 7
 883 0006 0246     		mov	r2, r0
 884 0008 0B46     		mov	r3, r1
 885 000a FA71     		strb	r2, [r7, #7]
 886 000c BB71     		strb	r3, [r7, #6]
ARM GAS  C:\Users\daniel01\AppData\Local\Temp\ccQNbRx9.s 			page 28


 650:C:\Micrium\Software\uC-LIB\lib_ascii.c ****     CPU_CHAR     c1_upper;
 651:C:\Micrium\Software\uC-LIB\lib_ascii.c ****     CPU_CHAR     c2_upper;
 652:C:\Micrium\Software\uC-LIB\lib_ascii.c ****     CPU_BOOLEAN  cmp;
 653:C:\Micrium\Software\uC-LIB\lib_ascii.c **** 
 654:C:\Micrium\Software\uC-LIB\lib_ascii.c **** 
 655:C:\Micrium\Software\uC-LIB\lib_ascii.c ****     c1_upper =  ASCII_ToUpper(c1);
 887              		.loc 1 655 0
 888 000e FB79     		ldrb	r3, [r7, #7]	@ zero_extendqisi2
 889 0010 1846     		mov	r0, r3
 890 0012 FFF7FEFF 		bl	ASCII_ToUpper
 891 0016 0346     		mov	r3, r0
 892 0018 7B73     		strb	r3, [r7, #13]
 656:C:\Micrium\Software\uC-LIB\lib_ascii.c ****     c2_upper =  ASCII_ToUpper(c2);
 893              		.loc 1 656 0
 894 001a BB79     		ldrb	r3, [r7, #6]	@ zero_extendqisi2
 895 001c 1846     		mov	r0, r3
 896 001e FFF7FEFF 		bl	ASCII_ToUpper
 897 0022 0346     		mov	r3, r0
 898 0024 BB73     		strb	r3, [r7, #14]
 657:C:\Micrium\Software\uC-LIB\lib_ascii.c ****     cmp      = (c1_upper == c2_upper) ? (DEF_YES) : (DEF_NO);
 899              		.loc 1 657 0
 900 0026 7A7B     		ldrb	r2, [r7, #13]	@ zero_extendqisi2
 901 0028 BB7B     		ldrb	r3, [r7, #14]	@ zero_extendqisi2
 902 002a 9A42     		cmp	r2, r3
 903 002c 02D1     		bne	.L77
 904 002e 4FF00103 		mov	r3, #1
 905 0032 01E0     		b	.L78
 906              	.L77:
 907 0034 4FF00003 		mov	r3, #0
 908              	.L78:
 909 0038 FB73     		strb	r3, [r7, #15]
 658:C:\Micrium\Software\uC-LIB\lib_ascii.c **** 
 659:C:\Micrium\Software\uC-LIB\lib_ascii.c ****     return (cmp);
 910              		.loc 1 659 0
 911 003a FB7B     		ldrb	r3, [r7, #15]	@ zero_extendqisi2
 660:C:\Micrium\Software\uC-LIB\lib_ascii.c **** }
 912              		.loc 1 660 0
 913 003c 1846     		mov	r0, r3
 914 003e 07F11007 		add	r7, r7, #16
 915 0042 BD46     		mov	sp, r7
 916 0044 80BD     		pop	{r7, pc}
 917              		.cfi_endproc
 918              	.LFE15:
 919              		.size	ASCII_Cmp, .-ASCII_Cmp
 920 0046 00BF     		.text
 921              	.Letext0: