ARM GAS  C:\Users\daniel01\AppData\Local\Temp\ccOmnMSp.s 			page 1


   1              		.syntax unified
   2              		.cpu cortex-m3
   3              		.fpu softvfp
   4              		.eabi_attribute 20, 1
   5              		.eabi_attribute 21, 1
   6              		.eabi_attribute 23, 3
   7              		.eabi_attribute 24, 1
   8              		.eabi_attribute 25, 1
   9              		.eabi_attribute 26, 1
  10              		.eabi_attribute 30, 6
  11              		.eabi_attribute 18, 4
  12              		.thumb
  13              		.file	"os_app_hooks.c"
  20 0000 7D010000 		.text
  20      0200BA00 
  20      00000201 
  20      FB0E0D00 
  20      01010101 
  21              	.Ltext0:
  22              		.cfi_sections	.debug_frame
  23              		.section	.text.App_OS_SetAllHooks,"ax",%progbits
  24              		.align	2
  25              		.global	App_OS_SetAllHooks
  26              		.thumb
  27              		.thumb_func
  28              		.type	App_OS_SetAllHooks, %function
  29              	App_OS_SetAllHooks:
  30              	.LFB0:
  31              		.file 1 "..\\os_app_hooks.c"
   1:..\os_app_hooks.c **** /*
   2:..\os_app_hooks.c **** ***************************************************************************************************
   3:..\os_app_hooks.c **** *                                                     uC/OS-III
   4:..\os_app_hooks.c **** *                                                The Real-Time Kernel
   5:..\os_app_hooks.c **** *
   6:..\os_app_hooks.c **** *                                  (c) Copyright 2009-2012; Micrium, Inc.; Weston, FL
   7:..\os_app_hooks.c **** *                          All rights reserved.  Protected by international copyright laws.
   8:..\os_app_hooks.c **** *
   9:..\os_app_hooks.c **** *                                                  APPLICATION HOOKS
  10:..\os_app_hooks.c **** *
  11:..\os_app_hooks.c **** * File    : OS_APP_HOOKS.C
  12:..\os_app_hooks.c **** * By      : JJL
  13:..\os_app_hooks.c **** * Version : V3.01.1
  14:..\os_app_hooks.c **** *
  15:..\os_app_hooks.c **** * LICENSING TERMS:
  16:..\os_app_hooks.c **** * ---------------
  17:..\os_app_hooks.c **** *               uC/OS-III is provided in source form to registered licensees ONLY.  It is 
  18:..\os_app_hooks.c **** *               illegal to distribute this source code to any third party unless you receive 
  19:..\os_app_hooks.c **** *               written permission by an authorized Micrium representative.  Knowledge of 
  20:..\os_app_hooks.c **** *               the source code may NOT be used to develop a similar product.
  21:..\os_app_hooks.c **** *
  22:..\os_app_hooks.c **** *               Please help us continue to provide the Embedded community with the finest
ARM GAS  C:\Users\daniel01\AppData\Local\Temp\ccOmnMSp.s 			page 2


  23:..\os_app_hooks.c **** *               software available.  Your honesty is greatly appreciated.
  24:..\os_app_hooks.c **** *
  25:..\os_app_hooks.c **** *               You can contact us at www.micrium.com.
  26:..\os_app_hooks.c **** ***************************************************************************************************
  27:..\os_app_hooks.c **** */
  28:..\os_app_hooks.c **** 
  29:..\os_app_hooks.c **** #include <os.h>
  30:..\os_app_hooks.c **** #include <os_app_hooks.h>
  31:..\os_app_hooks.c **** 
  32:..\os_app_hooks.c **** /*$PAGE*/
  33:..\os_app_hooks.c **** /*
  34:..\os_app_hooks.c **** ***************************************************************************************************
  35:..\os_app_hooks.c **** *                                              SET ALL APPLICATION HOOKS
  36:..\os_app_hooks.c **** *
  37:..\os_app_hooks.c **** * Description: Set ALL application hooks.
  38:..\os_app_hooks.c **** *
  39:..\os_app_hooks.c **** * Arguments  : none.
  40:..\os_app_hooks.c **** *
  41:..\os_app_hooks.c **** * Note(s)    : none
  42:..\os_app_hooks.c **** ***************************************************************************************************
  43:..\os_app_hooks.c **** */
  44:..\os_app_hooks.c **** 
  45:..\os_app_hooks.c **** void  App_OS_SetAllHooks (void)
  46:..\os_app_hooks.c **** {
  32              		.loc 1 46 0
  33              		.cfi_startproc
  34              		@ args = 0, pretend = 0, frame = 8
  35              		@ frame_needed = 1, uses_anonymous_args = 0
  36 0000 80B5     		push	{r7, lr}
  37              	.LCFI0:
  38              		.cfi_def_cfa_offset 8
  39 0002 82B0     		sub	sp, sp, #8
  40              	.LCFI1:
  41              		.cfi_def_cfa_offset 16
  42 0004 00AF     		add	r7, sp, #0
  43              		.cfi_offset 14, -4
  44              		.cfi_offset 7, -8
  45              	.LCFI2:
  46              		.cfi_def_cfa_register 7
  47:..\os_app_hooks.c **** #if OS_CFG_APP_HOOKS_EN > 0u
  48:..\os_app_hooks.c ****     CPU_SR_ALLOC();
  47              		.loc 1 48 0
  48 0006 4FF00003 		mov	r3, #0
  49 000a 7B60     		str	r3, [r7, #4]
  49:..\os_app_hooks.c **** 
  50:..\os_app_hooks.c **** 
  51:..\os_app_hooks.c ****     CPU_CRITICAL_ENTER();
  50              		.loc 1 51 0
  51 000c FFF7FEFF 		bl	CPU_SR_Save
  52 0010 0346     		mov	r3, r0
  53 0012 7B60     		str	r3, [r7, #4]
  52:..\os_app_hooks.c ****     OS_AppTaskCreateHookPtr = App_OS_TaskCreateHook;
  54              		.loc 1 52 0
  55 0014 40F20003 		movw	r3, #:lower16:OS_AppTaskCreateHookPtr
  56 0018 C0F20003 		movt	r3, #:upper16:OS_AppTaskCreateHookPtr
  57 001c 40F20002 		movw	r2, #:lower16:App_OS_TaskCreateHook
  58 0020 C0F20002 		movt	r2, #:upper16:App_OS_TaskCreateHook
ARM GAS  C:\Users\daniel01\AppData\Local\Temp\ccOmnMSp.s 			page 3


  59 0024 1A60     		str	r2, [r3, #0]
  53:..\os_app_hooks.c ****     OS_AppTaskDelHookPtr    = App_OS_TaskDelHook;
  60              		.loc 1 53 0
  61 0026 40F20003 		movw	r3, #:lower16:OS_AppTaskDelHookPtr
  62 002a C0F20003 		movt	r3, #:upper16:OS_AppTaskDelHookPtr
  63 002e 40F20002 		movw	r2, #:lower16:App_OS_TaskDelHook
  64 0032 C0F20002 		movt	r2, #:upper16:App_OS_TaskDelHook
  65 0036 1A60     		str	r2, [r3, #0]
  54:..\os_app_hooks.c ****     OS_AppTaskReturnHookPtr = App_OS_TaskReturnHook;
  66              		.loc 1 54 0
  67 0038 40F20003 		movw	r3, #:lower16:OS_AppTaskReturnHookPtr
  68 003c C0F20003 		movt	r3, #:upper16:OS_AppTaskReturnHookPtr
  69 0040 40F20002 		movw	r2, #:lower16:App_OS_TaskReturnHook
  70 0044 C0F20002 		movt	r2, #:upper16:App_OS_TaskReturnHook
  71 0048 1A60     		str	r2, [r3, #0]
  55:..\os_app_hooks.c **** 
  56:..\os_app_hooks.c ****     OS_AppIdleTaskHookPtr   = App_OS_IdleTaskHook;
  72              		.loc 1 56 0
  73 004a 40F20003 		movw	r3, #:lower16:OS_AppIdleTaskHookPtr
  74 004e C0F20003 		movt	r3, #:upper16:OS_AppIdleTaskHookPtr
  75 0052 40F20002 		movw	r2, #:lower16:App_OS_IdleTaskHook
  76 0056 C0F20002 		movt	r2, #:upper16:App_OS_IdleTaskHook
  77 005a 1A60     		str	r2, [r3, #0]
  57:..\os_app_hooks.c ****     OS_AppStatTaskHookPtr   = App_OS_StatTaskHook;
  78              		.loc 1 57 0
  79 005c 40F20003 		movw	r3, #:lower16:OS_AppStatTaskHookPtr
  80 0060 C0F20003 		movt	r3, #:upper16:OS_AppStatTaskHookPtr
  81 0064 40F20002 		movw	r2, #:lower16:App_OS_StatTaskHook
  82 0068 C0F20002 		movt	r2, #:upper16:App_OS_StatTaskHook
  83 006c 1A60     		str	r2, [r3, #0]
  58:..\os_app_hooks.c ****     OS_AppTaskSwHookPtr     = App_OS_TaskSwHook;
  84              		.loc 1 58 0
  85 006e 40F20003 		movw	r3, #:lower16:OS_AppTaskSwHookPtr
  86 0072 C0F20003 		movt	r3, #:upper16:OS_AppTaskSwHookPtr
  87 0076 40F20002 		movw	r2, #:lower16:App_OS_TaskSwHook
  88 007a C0F20002 		movt	r2, #:upper16:App_OS_TaskSwHook
  89 007e 1A60     		str	r2, [r3, #0]
  59:..\os_app_hooks.c ****     OS_AppTimeTickHookPtr   = App_OS_TimeTickHook;
  90              		.loc 1 59 0
  91 0080 40F20003 		movw	r3, #:lower16:OS_AppTimeTickHookPtr
  92 0084 C0F20003 		movt	r3, #:upper16:OS_AppTimeTickHookPtr
  93 0088 40F20002 		movw	r2, #:lower16:App_OS_TimeTickHook
  94 008c C0F20002 		movt	r2, #:upper16:App_OS_TimeTickHook
  95 0090 1A60     		str	r2, [r3, #0]
  60:..\os_app_hooks.c ****     CPU_CRITICAL_EXIT();
  96              		.loc 1 60 0
  97 0092 7868     		ldr	r0, [r7, #4]
  98 0094 FFF7FEFF 		bl	CPU_SR_Restore
  61:..\os_app_hooks.c **** #endif
  62:..\os_app_hooks.c **** }
  99              		.loc 1 62 0
 100 0098 07F10807 		add	r7, r7, #8
 101 009c BD46     		mov	sp, r7
 102 009e 80BD     		pop	{r7, pc}
 103              		.cfi_endproc
 104              	.LFE0:
 105              		.size	App_OS_SetAllHooks, .-App_OS_SetAllHooks
ARM GAS  C:\Users\daniel01\AppData\Local\Temp\ccOmnMSp.s 			page 4


 106              		.section	.text.App_OS_ClrAllHooks,"ax",%progbits
 107              		.align	2
 108              		.global	App_OS_ClrAllHooks
 109              		.thumb
 110              		.thumb_func
 111              		.type	App_OS_ClrAllHooks, %function
 112              	App_OS_ClrAllHooks:
 113              	.LFB1:
  63:..\os_app_hooks.c **** 
  64:..\os_app_hooks.c **** /*$PAGE*/
  65:..\os_app_hooks.c **** /*
  66:..\os_app_hooks.c **** ***************************************************************************************************
  67:..\os_app_hooks.c **** *                                             CLEAR ALL APPLICATION HOOKS
  68:..\os_app_hooks.c **** *
  69:..\os_app_hooks.c **** * Description: Clear ALL application hooks.
  70:..\os_app_hooks.c **** *
  71:..\os_app_hooks.c **** * Arguments  : none.
  72:..\os_app_hooks.c **** *
  73:..\os_app_hooks.c **** * Note(s)    : none
  74:..\os_app_hooks.c **** ***************************************************************************************************
  75:..\os_app_hooks.c **** */
  76:..\os_app_hooks.c **** 
  77:..\os_app_hooks.c **** void  App_OS_ClrAllHooks (void)
  78:..\os_app_hooks.c **** {
 114              		.loc 1 78 0
 115              		.cfi_startproc
 116              		@ args = 0, pretend = 0, frame = 8
 117              		@ frame_needed = 1, uses_anonymous_args = 0
 118 0000 80B5     		push	{r7, lr}
 119              	.LCFI3:
 120              		.cfi_def_cfa_offset 8
 121 0002 82B0     		sub	sp, sp, #8
 122              	.LCFI4:
 123              		.cfi_def_cfa_offset 16
 124 0004 00AF     		add	r7, sp, #0
 125              		.cfi_offset 14, -4
 126              		.cfi_offset 7, -8
 127              	.LCFI5:
 128              		.cfi_def_cfa_register 7
  79:..\os_app_hooks.c **** #if OS_CFG_APP_HOOKS_EN > 0u
  80:..\os_app_hooks.c ****     CPU_SR_ALLOC();
 129              		.loc 1 80 0
 130 0006 4FF00003 		mov	r3, #0
 131 000a 7B60     		str	r3, [r7, #4]
  81:..\os_app_hooks.c **** 
  82:..\os_app_hooks.c **** 
  83:..\os_app_hooks.c ****     CPU_CRITICAL_ENTER();
 132              		.loc 1 83 0
 133 000c FFF7FEFF 		bl	CPU_SR_Save
 134 0010 0346     		mov	r3, r0
 135 0012 7B60     		str	r3, [r7, #4]
  84:..\os_app_hooks.c ****     OS_AppTaskCreateHookPtr = (OS_APP_HOOK_TCB)0;
 136              		.loc 1 84 0
 137 0014 40F20003 		movw	r3, #:lower16:OS_AppTaskCreateHookPtr
 138 0018 C0F20003 		movt	r3, #:upper16:OS_AppTaskCreateHookPtr
 139 001c 4FF00002 		mov	r2, #0
 140 0020 1A60     		str	r2, [r3, #0]
ARM GAS  C:\Users\daniel01\AppData\Local\Temp\ccOmnMSp.s 			page 5


  85:..\os_app_hooks.c ****     OS_AppTaskDelHookPtr    = (OS_APP_HOOK_TCB)0;
 141              		.loc 1 85 0
 142 0022 40F20003 		movw	r3, #:lower16:OS_AppTaskDelHookPtr
 143 0026 C0F20003 		movt	r3, #:upper16:OS_AppTaskDelHookPtr
 144 002a 4FF00002 		mov	r2, #0
 145 002e 1A60     		str	r2, [r3, #0]
  86:..\os_app_hooks.c ****     OS_AppTaskReturnHookPtr = (OS_APP_HOOK_TCB)0;
 146              		.loc 1 86 0
 147 0030 40F20003 		movw	r3, #:lower16:OS_AppTaskReturnHookPtr
 148 0034 C0F20003 		movt	r3, #:upper16:OS_AppTaskReturnHookPtr
 149 0038 4FF00002 		mov	r2, #0
 150 003c 1A60     		str	r2, [r3, #0]
  87:..\os_app_hooks.c **** 
  88:..\os_app_hooks.c ****     OS_AppIdleTaskHookPtr   = (OS_APP_HOOK_VOID)0;
 151              		.loc 1 88 0
 152 003e 40F20003 		movw	r3, #:lower16:OS_AppIdleTaskHookPtr
 153 0042 C0F20003 		movt	r3, #:upper16:OS_AppIdleTaskHookPtr
 154 0046 4FF00002 		mov	r2, #0
 155 004a 1A60     		str	r2, [r3, #0]
  89:..\os_app_hooks.c ****     OS_AppStatTaskHookPtr   = (OS_APP_HOOK_VOID)0;
 156              		.loc 1 89 0
 157 004c 40F20003 		movw	r3, #:lower16:OS_AppStatTaskHookPtr
 158 0050 C0F20003 		movt	r3, #:upper16:OS_AppStatTaskHookPtr
 159 0054 4FF00002 		mov	r2, #0
 160 0058 1A60     		str	r2, [r3, #0]
  90:..\os_app_hooks.c ****     OS_AppTaskSwHookPtr     = (OS_APP_HOOK_VOID)0;
 161              		.loc 1 90 0
 162 005a 40F20003 		movw	r3, #:lower16:OS_AppTaskSwHookPtr
 163 005e C0F20003 		movt	r3, #:upper16:OS_AppTaskSwHookPtr
 164 0062 4FF00002 		mov	r2, #0
 165 0066 1A60     		str	r2, [r3, #0]
  91:..\os_app_hooks.c ****     OS_AppTimeTickHookPtr   = (OS_APP_HOOK_VOID)0;
 166              		.loc 1 91 0
 167 0068 40F20003 		movw	r3, #:lower16:OS_AppTimeTickHookPtr
 168 006c C0F20003 		movt	r3, #:upper16:OS_AppTimeTickHookPtr
 169 0070 4FF00002 		mov	r2, #0
 170 0074 1A60     		str	r2, [r3, #0]
  92:..\os_app_hooks.c ****     CPU_CRITICAL_EXIT();
 171              		.loc 1 92 0
 172 0076 7868     		ldr	r0, [r7, #4]
 173 0078 FFF7FEFF 		bl	CPU_SR_Restore
  93:..\os_app_hooks.c **** #endif
  94:..\os_app_hooks.c **** }
 174              		.loc 1 94 0
 175 007c 07F10807 		add	r7, r7, #8
 176 0080 BD46     		mov	sp, r7
 177 0082 80BD     		pop	{r7, pc}
 178              		.cfi_endproc
 179              	.LFE1:
 180              		.size	App_OS_ClrAllHooks, .-App_OS_ClrAllHooks
 181              		.section	.text.App_OS_TaskCreateHook,"ax",%progbits
 182              		.align	2
 183              		.global	App_OS_TaskCreateHook
 184              		.thumb
 185              		.thumb_func
 186              		.type	App_OS_TaskCreateHook, %function
 187              	App_OS_TaskCreateHook:
ARM GAS  C:\Users\daniel01\AppData\Local\Temp\ccOmnMSp.s 			page 6


 188              	.LFB2:
  95:..\os_app_hooks.c **** 
  96:..\os_app_hooks.c **** /*$PAGE*/
  97:..\os_app_hooks.c **** /*
  98:..\os_app_hooks.c **** ***************************************************************************************************
  99:..\os_app_hooks.c **** *                                            APPLICATION TASK CREATION HOOK
 100:..\os_app_hooks.c **** *
 101:..\os_app_hooks.c **** * Description: This function is called when a task is created.
 102:..\os_app_hooks.c **** *
 103:..\os_app_hooks.c **** * Arguments  : p_tcb   is a pointer to the task control block of the task being created.
 104:..\os_app_hooks.c **** *
 105:..\os_app_hooks.c **** * Note(s)    : none
 106:..\os_app_hooks.c **** ***************************************************************************************************
 107:..\os_app_hooks.c **** */
 108:..\os_app_hooks.c **** 
 109:..\os_app_hooks.c **** void  App_OS_TaskCreateHook (OS_TCB  *p_tcb)
 110:..\os_app_hooks.c **** {
 189              		.loc 1 110 0
 190              		.cfi_startproc
 191              		@ args = 0, pretend = 0, frame = 8
 192              		@ frame_needed = 1, uses_anonymous_args = 0
 193              		@ link register save eliminated.
 194 0000 80B4     		push	{r7}
 195              	.LCFI6:
 196              		.cfi_def_cfa_offset 4
 197 0002 83B0     		sub	sp, sp, #12
 198              	.LCFI7:
 199              		.cfi_def_cfa_offset 16
 200 0004 00AF     		add	r7, sp, #0
 201              		.cfi_offset 7, -4
 202              	.LCFI8:
 203              		.cfi_def_cfa_register 7
 204 0006 7860     		str	r0, [r7, #4]
 111:..\os_app_hooks.c ****     (void)&p_tcb;
 112:..\os_app_hooks.c **** }
 205              		.loc 1 112 0
 206 0008 07F10C07 		add	r7, r7, #12
 207 000c BD46     		mov	sp, r7
 208 000e 80BC     		pop	{r7}
 209 0010 7047     		bx	lr
 210              		.cfi_endproc
 211              	.LFE2:
 212              		.size	App_OS_TaskCreateHook, .-App_OS_TaskCreateHook
 213 0012 00BF     		.section	.text.App_OS_TaskDelHook,"ax",%progbits
 214              		.align	2
 215              		.global	App_OS_TaskDelHook
 216              		.thumb
 217              		.thumb_func
 218              		.type	App_OS_TaskDelHook, %function
 219              	App_OS_TaskDelHook:
 220              	.LFB3:
 113:..\os_app_hooks.c **** 
 114:..\os_app_hooks.c **** /*$PAGE*/
 115:..\os_app_hooks.c **** /*
 116:..\os_app_hooks.c **** ***************************************************************************************************
 117:..\os_app_hooks.c **** *                                            APPLICATION TASK DELETION HOOK
 118:..\os_app_hooks.c **** *
ARM GAS  C:\Users\daniel01\AppData\Local\Temp\ccOmnMSp.s 			page 7


 119:..\os_app_hooks.c **** * Description: This function is called when a task is deleted.
 120:..\os_app_hooks.c **** *
 121:..\os_app_hooks.c **** * Arguments  : p_tcb   is a pointer to the task control block of the task being deleted.
 122:..\os_app_hooks.c **** *
 123:..\os_app_hooks.c **** * Note(s)    : none
 124:..\os_app_hooks.c **** ***************************************************************************************************
 125:..\os_app_hooks.c **** */
 126:..\os_app_hooks.c **** 
 127:..\os_app_hooks.c **** void  App_OS_TaskDelHook (OS_TCB  *p_tcb)
 128:..\os_app_hooks.c **** {
 221              		.loc 1 128 0
 222              		.cfi_startproc
 223              		@ args = 0, pretend = 0, frame = 8
 224              		@ frame_needed = 1, uses_anonymous_args = 0
 225              		@ link register save eliminated.
 226 0000 80B4     		push	{r7}
 227              	.LCFI9:
 228              		.cfi_def_cfa_offset 4
 229 0002 83B0     		sub	sp, sp, #12
 230              	.LCFI10:
 231              		.cfi_def_cfa_offset 16
 232 0004 00AF     		add	r7, sp, #0
 233              		.cfi_offset 7, -4
 234              	.LCFI11:
 235              		.cfi_def_cfa_register 7
 236 0006 7860     		str	r0, [r7, #4]
 129:..\os_app_hooks.c ****     (void)&p_tcb;
 130:..\os_app_hooks.c **** }
 237              		.loc 1 130 0
 238 0008 07F10C07 		add	r7, r7, #12
 239 000c BD46     		mov	sp, r7
 240 000e 80BC     		pop	{r7}
 241 0010 7047     		bx	lr
 242              		.cfi_endproc
 243              	.LFE3:
 244              		.size	App_OS_TaskDelHook, .-App_OS_TaskDelHook
 245 0012 00BF     		.section	.text.App_OS_TaskReturnHook,"ax",%progbits
 246              		.align	2
 247              		.global	App_OS_TaskReturnHook
 248              		.thumb
 249              		.thumb_func
 250              		.type	App_OS_TaskReturnHook, %function
 251              	App_OS_TaskReturnHook:
 252              	.LFB4:
 131:..\os_app_hooks.c **** 
 132:..\os_app_hooks.c **** /*$PAGE*/
 133:..\os_app_hooks.c **** /*
 134:..\os_app_hooks.c **** ***************************************************************************************************
 135:..\os_app_hooks.c **** *                                             APPLICATION TASK RETURN HOOK
 136:..\os_app_hooks.c **** *
 137:..\os_app_hooks.c **** * Description: This function is called if a task accidentally returns.  In other words, a task shou
 138:..\os_app_hooks.c **** *              infinite loop or delete itself when done.
 139:..\os_app_hooks.c **** *
 140:..\os_app_hooks.c **** * Arguments  : p_tcb     is a pointer to the OS_TCB of the task that is returning.
 141:..\os_app_hooks.c **** *
 142:..\os_app_hooks.c **** * Note(s)    : none
 143:..\os_app_hooks.c **** ***************************************************************************************************
ARM GAS  C:\Users\daniel01\AppData\Local\Temp\ccOmnMSp.s 			page 8


 144:..\os_app_hooks.c **** */
 145:..\os_app_hooks.c **** 
 146:..\os_app_hooks.c **** void  App_OS_TaskReturnHook (OS_TCB  *p_tcb)
 147:..\os_app_hooks.c **** {
 253              		.loc 1 147 0
 254              		.cfi_startproc
 255              		@ args = 0, pretend = 0, frame = 8
 256              		@ frame_needed = 1, uses_anonymous_args = 0
 257              		@ link register save eliminated.
 258 0000 80B4     		push	{r7}
 259              	.LCFI12:
 260              		.cfi_def_cfa_offset 4
 261 0002 83B0     		sub	sp, sp, #12
 262              	.LCFI13:
 263              		.cfi_def_cfa_offset 16
 264 0004 00AF     		add	r7, sp, #0
 265              		.cfi_offset 7, -4
 266              	.LCFI14:
 267              		.cfi_def_cfa_register 7
 268 0006 7860     		str	r0, [r7, #4]
 148:..\os_app_hooks.c ****     (void)&p_tcb;
 149:..\os_app_hooks.c **** }
 269              		.loc 1 149 0
 270 0008 07F10C07 		add	r7, r7, #12
 271 000c BD46     		mov	sp, r7
 272 000e 80BC     		pop	{r7}
 273 0010 7047     		bx	lr
 274              		.cfi_endproc
 275              	.LFE4:
 276              		.size	App_OS_TaskReturnHook, .-App_OS_TaskReturnHook
 277 0012 00BF     		.section	.text.App_OS_IdleTaskHook,"ax",%progbits
 278              		.align	2
 279              		.global	App_OS_IdleTaskHook
 280              		.thumb
 281              		.thumb_func
 282              		.type	App_OS_IdleTaskHook, %function
 283              	App_OS_IdleTaskHook:
 284              	.LFB5:
 150:..\os_app_hooks.c **** 
 151:..\os_app_hooks.c **** /*$PAGE*/
 152:..\os_app_hooks.c **** /*
 153:..\os_app_hooks.c **** ***************************************************************************************************
 154:..\os_app_hooks.c **** *                                              APPLICATION IDLE TASK HOOK
 155:..\os_app_hooks.c **** *
 156:..\os_app_hooks.c **** * Description: This function is called by the idle task.  This hook has been added to allow you to 
 157:..\os_app_hooks.c **** *              STOP the CPU to conserve power.
 158:..\os_app_hooks.c **** *
 159:..\os_app_hooks.c **** * Arguments  : none
 160:..\os_app_hooks.c **** *
 161:..\os_app_hooks.c **** * Note(s)    : none
 162:..\os_app_hooks.c **** ***************************************************************************************************
 163:..\os_app_hooks.c **** */
 164:..\os_app_hooks.c **** 
 165:..\os_app_hooks.c **** void  App_OS_IdleTaskHook (void)
 166:..\os_app_hooks.c **** {
 285              		.loc 1 166 0
 286              		.cfi_startproc
ARM GAS  C:\Users\daniel01\AppData\Local\Temp\ccOmnMSp.s 			page 9


 287              		@ args = 0, pretend = 0, frame = 0
 288              		@ frame_needed = 1, uses_anonymous_args = 0
 289              		@ link register save eliminated.
 290 0000 80B4     		push	{r7}
 291              	.LCFI15:
 292              		.cfi_def_cfa_offset 4
 293 0002 00AF     		add	r7, sp, #0
 294              		.cfi_offset 7, -4
 295              	.LCFI16:
 296              		.cfi_def_cfa_register 7
 167:..\os_app_hooks.c **** 
 168:..\os_app_hooks.c **** }
 297              		.loc 1 168 0
 298 0004 BD46     		mov	sp, r7
 299 0006 80BC     		pop	{r7}
 300 0008 7047     		bx	lr
 301              		.cfi_endproc
 302              	.LFE5:
 303              		.size	App_OS_IdleTaskHook, .-App_OS_IdleTaskHook
 304 000a 00BF     		.section	.text.App_OS_InitHook,"ax",%progbits
 305              		.align	2
 306              		.global	App_OS_InitHook
 307              		.thumb
 308              		.thumb_func
 309              		.type	App_OS_InitHook, %function
 310              	App_OS_InitHook:
 311              	.LFB6:
 169:..\os_app_hooks.c **** 
 170:..\os_app_hooks.c **** /*$PAGE*/
 171:..\os_app_hooks.c **** /*
 172:..\os_app_hooks.c **** ***************************************************************************************************
 173:..\os_app_hooks.c **** *                                          APPLICATION OS INITIALIZATION HOOK
 174:..\os_app_hooks.c **** *
 175:..\os_app_hooks.c **** * Description: This function is called by OSInit() at the beginning of OSInit().
 176:..\os_app_hooks.c **** *
 177:..\os_app_hooks.c **** * Arguments  : none
 178:..\os_app_hooks.c **** *
 179:..\os_app_hooks.c **** * Note(s)    : none
 180:..\os_app_hooks.c **** ***************************************************************************************************
 181:..\os_app_hooks.c **** */
 182:..\os_app_hooks.c **** 
 183:..\os_app_hooks.c **** void  App_OS_InitHook (void)
 184:..\os_app_hooks.c **** {
 312              		.loc 1 184 0
 313              		.cfi_startproc
 314              		@ args = 0, pretend = 0, frame = 0
 315              		@ frame_needed = 1, uses_anonymous_args = 0
 316              		@ link register save eliminated.
 317 0000 80B4     		push	{r7}
 318              	.LCFI17:
 319              		.cfi_def_cfa_offset 4
 320 0002 00AF     		add	r7, sp, #0
 321              		.cfi_offset 7, -4
 322              	.LCFI18:
 323              		.cfi_def_cfa_register 7
 185:..\os_app_hooks.c **** 
 186:..\os_app_hooks.c **** }
ARM GAS  C:\Users\daniel01\AppData\Local\Temp\ccOmnMSp.s 			page 10


 324              		.loc 1 186 0
 325 0004 BD46     		mov	sp, r7
 326 0006 80BC     		pop	{r7}
 327 0008 7047     		bx	lr
 328              		.cfi_endproc
 329              	.LFE6:
 330              		.size	App_OS_InitHook, .-App_OS_InitHook
 331 000a 00BF     		.section	.text.App_OS_StatTaskHook,"ax",%progbits
 332              		.align	2
 333              		.global	App_OS_StatTaskHook
 334              		.thumb
 335              		.thumb_func
 336              		.type	App_OS_StatTaskHook, %function
 337              	App_OS_StatTaskHook:
 338              	.LFB7:
 187:..\os_app_hooks.c **** 
 188:..\os_app_hooks.c **** /*$PAGE*/
 189:..\os_app_hooks.c **** /*
 190:..\os_app_hooks.c **** ***************************************************************************************************
 191:..\os_app_hooks.c **** *                                           APPLICATION STATISTIC TASK HOOK
 192:..\os_app_hooks.c **** *
 193:..\os_app_hooks.c **** * Description: This function is called every second by uC/OS-III's statistics task.  This allows yo
 194:..\os_app_hooks.c **** *              functionality to the statistics task.
 195:..\os_app_hooks.c **** *
 196:..\os_app_hooks.c **** * Arguments  : none
 197:..\os_app_hooks.c **** *
 198:..\os_app_hooks.c **** * Note(s)    : none
 199:..\os_app_hooks.c **** ***************************************************************************************************
 200:..\os_app_hooks.c **** */
 201:..\os_app_hooks.c **** 
 202:..\os_app_hooks.c **** void  App_OS_StatTaskHook (void)
 203:..\os_app_hooks.c **** {
 339              		.loc 1 203 0
 340              		.cfi_startproc
 341              		@ args = 0, pretend = 0, frame = 0
 342              		@ frame_needed = 1, uses_anonymous_args = 0
 343              		@ link register save eliminated.
 344 0000 80B4     		push	{r7}
 345              	.LCFI19:
 346              		.cfi_def_cfa_offset 4
 347 0002 00AF     		add	r7, sp, #0
 348              		.cfi_offset 7, -4
 349              	.LCFI20:
 350              		.cfi_def_cfa_register 7
 204:..\os_app_hooks.c **** 
 205:..\os_app_hooks.c **** }
 351              		.loc 1 205 0
 352 0004 BD46     		mov	sp, r7
 353 0006 80BC     		pop	{r7}
 354 0008 7047     		bx	lr
 355              		.cfi_endproc
 356              	.LFE7:
 357              		.size	App_OS_StatTaskHook, .-App_OS_StatTaskHook
 358 000a 00BF     		.section	.text.App_OS_TaskSwHook,"ax",%progbits
 359              		.align	2
 360              		.global	App_OS_TaskSwHook
 361              		.thumb
ARM GAS  C:\Users\daniel01\AppData\Local\Temp\ccOmnMSp.s 			page 11


 362              		.thumb_func
 363              		.type	App_OS_TaskSwHook, %function
 364              	App_OS_TaskSwHook:
 365              	.LFB8:
 206:..\os_app_hooks.c **** 
 207:..\os_app_hooks.c **** /*$PAGE*/
 208:..\os_app_hooks.c **** /*
 209:..\os_app_hooks.c **** ***************************************************************************************************
 210:..\os_app_hooks.c **** *                                             APPLICATION TASK SWITCH HOOK
 211:..\os_app_hooks.c **** *
 212:..\os_app_hooks.c **** * Description: This function is called when a task switch is performed.  This allows you to perform
 213:..\os_app_hooks.c **** *              during a context switch.
 214:..\os_app_hooks.c **** *
 215:..\os_app_hooks.c **** * Arguments  : none
 216:..\os_app_hooks.c **** *
 217:..\os_app_hooks.c **** * Note(s)    : 1) Interrupts are disabled during this call.
 218:..\os_app_hooks.c **** *              2) It is assumed that the global pointer 'OSTCBHighRdyPtr' points to the TCB of the 
 219:..\os_app_hooks.c **** *                 'switched in' (i.e. the highest priority task) and, 'OSTCBCurPtr' points to the t
 220:..\os_app_hooks.c **** *                 (i.e. the preempted task).
 221:..\os_app_hooks.c **** ***************************************************************************************************
 222:..\os_app_hooks.c **** */
 223:..\os_app_hooks.c **** 
 224:..\os_app_hooks.c **** void  App_OS_TaskSwHook (void)
 225:..\os_app_hooks.c **** {
 366              		.loc 1 225 0
 367              		.cfi_startproc
 368              		@ args = 0, pretend = 0, frame = 0
 369              		@ frame_needed = 1, uses_anonymous_args = 0
 370              		@ link register save eliminated.
 371 0000 80B4     		push	{r7}
 372              	.LCFI21:
 373              		.cfi_def_cfa_offset 4
 374 0002 00AF     		add	r7, sp, #0
 375              		.cfi_offset 7, -4
 376              	.LCFI22:
 377              		.cfi_def_cfa_register 7
 226:..\os_app_hooks.c **** 
 227:..\os_app_hooks.c **** }
 378              		.loc 1 227 0
 379 0004 BD46     		mov	sp, r7
 380 0006 80BC     		pop	{r7}
 381 0008 7047     		bx	lr
 382              		.cfi_endproc
 383              	.LFE8:
 384              		.size	App_OS_TaskSwHook, .-App_OS_TaskSwHook
 385 000a 00BF     		.section	.text.App_OS_TimeTickHook,"ax",%progbits
 386              		.align	2
 387              		.global	App_OS_TimeTickHook
 388              		.thumb
 389              		.thumb_func
 390              		.type	App_OS_TimeTickHook, %function
 391              	App_OS_TimeTickHook:
 392              	.LFB9:
 228:..\os_app_hooks.c **** 
 229:..\os_app_hooks.c **** /*$PAGE*/
 230:..\os_app_hooks.c **** /*
 231:..\os_app_hooks.c **** ***************************************************************************************************
ARM GAS  C:\Users\daniel01\AppData\Local\Temp\ccOmnMSp.s 			page 12


 232:..\os_app_hooks.c **** *                                                APPLICATION TICK HOOK
 233:..\os_app_hooks.c **** *
 234:..\os_app_hooks.c **** * Description: This function is called every tick.
 235:..\os_app_hooks.c **** *
 236:..\os_app_hooks.c **** * Arguments  : none
 237:..\os_app_hooks.c **** *
 238:..\os_app_hooks.c **** * Note(s)    : 1) This function is assumed to be called from the Tick ISR.
 239:..\os_app_hooks.c **** ***************************************************************************************************
 240:..\os_app_hooks.c **** */
 241:..\os_app_hooks.c **** 
 242:..\os_app_hooks.c **** void  App_OS_TimeTickHook (void)
 243:..\os_app_hooks.c **** {
 393              		.loc 1 243 0
 394              		.cfi_startproc
 395              		@ args = 0, pretend = 0, frame = 0
 396              		@ frame_needed = 1, uses_anonymous_args = 0
 397              		@ link register save eliminated.
 398 0000 80B4     		push	{r7}
 399              	.LCFI23:
 400              		.cfi_def_cfa_offset 4
 401 0002 00AF     		add	r7, sp, #0
 402              		.cfi_offset 7, -4
 403              	.LCFI24:
 404              		.cfi_def_cfa_register 7
 244:..\os_app_hooks.c **** 
 245:..\os_app_hooks.c **** }
 405              		.loc 1 245 0
 406 0004 BD46     		mov	sp, r7
 407 0006 80BC     		pop	{r7}
 408 0008 7047     		bx	lr
 409              		.cfi_endproc
 410              	.LFE9:
 411              		.size	App_OS_TimeTickHook, .-App_OS_TimeTickHook
 412 000a 00BF     		.text
 413              	.Letext0: